
midisam2.elf:	file format elf32-mos

SYMBOL TABLE:
00000000 l    df *ABS*	00000000 zero-bss.c
00000000 l    df *ABS*	00000000 zero-zp-bss.c
00000000 l    df *ABS*	00000000 copy-zp-data.c
00000000 l    df *ABS*	00000000 ld-temp.o
00000598 l     F .text	0000017c f256Init
00000065 l     O .zp.bss	00000002 kernelArgs
0000008e l     O .zp.bss	00000007 kernelEventData
00000714 l     F .text	00000173 textReset
00000887 l     F .text	00000156 bitmapReset
0000007c l     O .zp.bss	00000003 _tileSize
00002c5b l     O .bss	00000040 _spriteCtl
0000007f l     O .zp.bss	00000008 _dirStream
00002d9b l     O .bss	00000001 kernelError
00000062 l     O .zp.data	00000001 _ccolor
00000060 l     O .zp.data	00000001 _MAX_COL
00000061 l     O .zp.data	00000001 _MAX_ROW
00000030 l     O .zp.data	00000030 textColors
00000067 l     O .zp.bss	00000001 _col
00000068 l     O .zp.bss	00000001 _row
00000077 l     O .zp.bss	00000001 _MAX_X
00000078 l     O .zp.bss	00000001 _MAX_Y
00000075 l     O .zp.bss	00000001 _active
00000076 l     O .zp.bss	00000001 _color
00000069 l     O .zp.bss	0000000c _BITMAP_BASE
00000079 l     O .zp.bss	00000003 _BITMAP_CLUT
000009dd l     F .text	00000021 FAR_PEEK
00000a22 l     F .text	0000010a f256main
000025f3 l     F .text	00000017 openAllCODEC
00002c9b l     O .bss	00000080 shimmerChanged
00002d1b l     O .bss	00000080 shimmerBuffer
0000260a l     F .text	0000001e boostVSClock
00002628 l     F .text	00000192 initRTMIDI
00000dda l     F .text	00000043 resetInstruments
00000dc6 l     F .text	00000014 midiShutUp
0000008b l     O .zp.bss	00000003 playbackTimer
00000088 l     O .zp.bss	00000003 shimmerTimer
00001078 l     F .text	00000522 playEmbeddedDim
00002804 l     F .text	00000020 setTimer0
000027f2 l     F .text	00000012 wipeStatus
000027ba l     F .text	00000038 initProgress
00000087 l     O .zp.bss	00000001 repeatFlag
00000da3 l     F .text	00000023 midiShutAllChannels
00000b2c l     F .text	00000011 textGotoXY
00000b3d l     F .text	0000025a textPrint
00002bc2 l     F .text	00000032 __mulhi3
00000d97 l     F .text	0000000c textSetColor
00000e1d l     F .text	0000018c initMidiRecord
0000283a l     F .text	00000100 malloc
00000fa9 l     F .text	0000003a initBigList
00000fe3 l     F .text	00000095 getTotalLeft
000029f0 l     F .text	00000186 free
0000159a l     F .text	00000453 playmiditype0
000019ed l     F .text	00000c06 playmidi
00002824 l     F .text	00000006 isTimer0Done
00002bf4 l     O .rodata	00000038 rtmplugin
00002838 l     F .text	00000002 _Exit
00000095 l     O .zp.bss	00000001 _ZN12_GLOBAL__N_111initializedE
00000063 l     O .zp.data	00000002 _ZN12_GLOBAL__N_110heap_limitE
0000034e l     F .text	00000135 _ZN12_GLOBAL__N_19FreeChunk6insertEPvj
00000096 l     O .zp.bss	00000001 _ZN12_GLOBAL__N_19last_freeE
00000099 l     O .zp.bss	00000002 _ZN12_GLOBAL__N_19free_listE
0000293a l     F .text	000000b6 _ZN12_GLOBAL__N_119allocate_free_chunkEPNS_9FreeChunkEj
00000097 l     O .zp.bss	00000002 _ZN12_GLOBAL__N_19free_sizeE
00000484 l     F .text	000000d7 _ZN12_GLOBAL__N_19FreeChunk6removeEv
000009fe g     F .text	00000024 main
00050000 g       .music	00000000 music_start
000723dc g       .music	00000000 music_end
0000034a g       .text	00000000 __after_main
00000336 g       .text	00000000 __do_init_stack
00000344 g       .text	00000000 __do_copy_zp_data
00000581 g     F .text	00000017 __copy_zp_data
0000033e g       .text	00000000 __do_zero_bss
0000055b g     F .text	00000013 __zero_bss
00000341 g       .text	00000000 __do_zero_zp_bss
0000056e g     F .text	00000013 __zero_zp_bss
0000282a g     F .text	0000000e exit
0000034d g       .text	00000000 _fini
00002ba2  w    F .text	00000020 __memset
00001000  w      *ABS*	00000000 __heap_default_limit
00002d9c g       .noinit	00000000 __heap_start
00002b76  w    F .text	0000002c memcpy
00000010 g       *ABS*	00000000 __rc0
00000012 g       *ABS*	00000000 __rc2
00000014 g       *ABS*	00000000 __rc4
00000016 g       *ABS*	00000000 __rc6
00000018 g       *ABS*	00000000 __rc8
0000001a g       *ABS*	00000000 __rc10
0000001c g       *ABS*	00000000 __rc12
0000001e g       *ABS*	00000000 __rc14
00000020 g       *ABS*	00000000 __rc16
00000022 g       *ABS*	00000000 __rc18
00000024 g       *ABS*	00000000 __rc20
00000026 g       *ABS*	00000000 __rc22
00000028 g       *ABS*	00000000 __rc24
0000002a g       *ABS*	00000000 __rc26
0000002c g       *ABS*	00000000 __rc28
0000002e g       *ABS*	00000000 __rc30
0000002f g       *ABS*	00000000 __rc31
00000300 g       *ABS*	00000000 __f256_start
0000c000 g       *ABS*	00000000 __stack
0000c000 g       *ABS*	00000000 __SLOT_ADDR
0800c000 g       *ABS*	00000000 __block8_lma
00002000 g       *ABS*	00000000 __BLOCK_SIZE
0900c000 g       *ABS*	00000000 __block9_lma
0a00c000 g       *ABS*	00000000 __block10_lma
0b00c000 g       *ABS*	00000000 __block11_lma
0c00c000 g       *ABS*	00000000 __block12_lma
0d00c000 g       *ABS*	00000000 __block13_lma
0e00c000 g       *ABS*	00000000 __block14_lma
0f00c000 g       *ABS*	00000000 __block15_lma
1000c000 g       *ABS*	00000000 __block16_lma
1100c000 g       *ABS*	00000000 __block17_lma
1200c000 g       *ABS*	00000000 __block18_lma
1300c000 g       *ABS*	00000000 __block19_lma
1400c000 g       *ABS*	00000000 __block20_lma
1500c000 g       *ABS*	00000000 __block21_lma
1600c000 g       *ABS*	00000000 __block22_lma
1700c000 g       *ABS*	00000000 __block23_lma
00050000 g       *ABS*	00000000 __music_lma
000223dc g       *ABS*	00000000 __music_size
00002c5b g       .bss	00000000 __bss_start
000723dc g       .music	00000000 end_music
00000336 g       .text	00000000 _start
0000002d g       *ABS*	00000000 __rc29
0000002b g       *ABS*	00000000 __rc27
00000029 g       *ABS*	00000000 __rc25
00000027 g       *ABS*	00000000 __rc23
00000025 g       *ABS*	00000000 __rc21
00000023 g       *ABS*	00000000 __rc19
00000021 g       *ABS*	00000000 __rc17
0000001f g       *ABS*	00000000 __rc15
0000001d g       *ABS*	00000000 __rc13
0000001b g       *ABS*	00000000 __rc11
00000019 g       *ABS*	00000000 __rc9
00000017 g       *ABS*	00000000 __rc7
00000015 g       *ABS*	00000000 __rc5
00000013 g       *ABS*	00000000 __rc3
00000011 g       *ABS*	00000000 __rc1
00000030 g       .zp.data	00000000 __zp_data_start
00000300 g       *ABS*	00000000 __zp_data_load_start
00000035 g       *ABS*	00000000 __zp_data_size
00000065 g       .zp.bss	00000000 __zp_bss_start
00000036 g       *ABS*	00000000 __zp_bss_size
00000336 g       .text	00000000 _init
00002bf4 g       .text	00000000 __init_array_start
00002bf4 g       .text	00000000 __init_array_end
00002bf4 g       .text	00000000 __fini_array_start
00002bf4 g       .text	00000000 __fini_array_end
00002c5b g       .data	00000000 __data_start
00002c5b g       .data	00000000 __data_end
00002c5b g       *ABS*	00000000 __data_load_start
00000000 g       *ABS*	00000000 __data_size
00002d9c g       .bss	00000000 __bss_end
00000141 g       *ABS*	00000000 __bss_size
00002d9c g       .noinit	00000000 end_block8
00002d9c g       .noinit	00000000 end_block9
00002d9c g       .noinit	00000000 end_block10
00002d9c g       .noinit	00000000 end_block11
00002d9c g       .noinit	00000000 end_block12
00002d9c g       .noinit	00000000 end_block13
00002d9c g       .noinit	00000000 end_block14
00002d9c g       .noinit	00000000 end_block15
00002d9c g       .noinit	00000000 end_block16
00002d9c g       .noinit	00000000 end_block17
00002d9c g       .noinit	00000000 end_block18
00002d9c g       .noinit	00000000 end_block19
00002d9c g       .noinit	00000000 end_block20
00002d9c g       .noinit	00000000 end_block21
00002d9c g       .noinit	00000000 end_block22
00002d9c g       .noinit	00000000 end_block23

Disassembly of section .text:

00000336 <_start>:
     336: a9 00        	lda	#$0
     338: 85 10        	sta	$10                     ; 0x2010 <playmidi+0x623>
     33a: a9 c0        	lda	#$c0
     33c: 85 11        	sta	$11                     ; 0x2011 <playmidi+0x624>

0000033e <__do_zero_bss>:
     33e: 20 5b 05     	jsr	$55b <__zero_bss>

00000341 <__do_zero_zp_bss>:
     341: 20 6e 05     	jsr	$56e <__zero_zp_bss>

00000344 <__do_copy_zp_data>:
     344: 20 81 05     	jsr	$581 <__copy_zp_data>
     347: 20 fe 09     	jsr	$9fe <main>

0000034a <__after_main>:
     34a: 4c 2a 28     	jmp	$282a <exit>

0000034d <_fini>:
     34d: 60           	rts

0000034e <_ZN12_GLOBAL__N_19FreeChunk6insertEPvj>:
     34e: 85 16        	sta	$16                     ; 0x2016 <playmidi+0x629>
     350: 29 fe        	and	#$fe
     352: 85 14        	sta	$14                     ; 0x2014 <playmidi+0x627>
     354: a0 01        	ldy	#$1
     356: 98           	tya
     357: 32 12        	and	($12)                   ; 0x2012 <playmidi+0x625>
     359: 05 14        	ora	$14                     ; 0x2014 <playmidi+0x627>
     35b: 92 12        	sta	($12)                   ; 0x2012 <playmidi+0x625>
     35d: a5 12        	lda	$12                     ; 0x2012 <playmidi+0x625>
     35f: 18           	clc
     360: 65 14        	adc	$14                     ; 0x2014 <playmidi+0x627>
     362: 85 15        	sta	$15                     ; 0x2015 <playmidi+0x628>
     364: 8a           	txa
     365: 65 13        	adc	$13                     ; 0x2013 <playmidi+0x626>
     367: 85 14        	sta	$14                     ; 0x2014 <playmidi+0x627>
     369: 18           	clc
     36a: a5 15        	lda	$15                     ; 0x2015 <playmidi+0x628>
     36c: 69 fe        	adc	#$fe
     36e: 85 17        	sta	$17                     ; 0x2017 <playmidi+0x62a>
     370: a5 14        	lda	$14                     ; 0x2014 <playmidi+0x627>
     372: 69 ff        	adc	#$ff
     374: 85 15        	sta	$15                     ; 0x2015 <playmidi+0x628>
     376: a5 17        	lda	$17                     ; 0x2017 <playmidi+0x62a>
     378: 85 14        	sta	$14                     ; 0x2014 <playmidi+0x627>
     37a: 8a           	txa
     37b: 91 12        	sta	($12),y                 ; 0x2012 <playmidi+0x625>
     37d: a5 16        	lda	$16                     ; 0x2016 <playmidi+0x629>
     37f: 92 14        	sta	($14)                   ; 0x2014 <playmidi+0x627>
     381: 8a           	txa
     382: 91 14        	sta	($14),y                 ; 0x2014 <playmidi+0x627>
     384: b1 12        	lda	($12),y                 ; 0x2012 <playmidi+0x625>
     386: 85 14        	sta	$14                     ; 0x2014 <playmidi+0x627>
     388: a9 fe        	lda	#$fe
     38a: 32 12        	and	($12)                   ; 0x2012 <playmidi+0x625>
     38c: 18           	clc
     38d: 65 97        	adc	$97                     ; 0x2097 <playmidi+0x6aa>
     38f: aa           	tax
     390: a5 14        	lda	$14                     ; 0x2014 <playmidi+0x627>
     392: 65 98        	adc	$98                     ; 0x2098 <playmidi+0x6ab>
     394: a8           	tay
     395: 18           	clc
     396: 8a           	txa
     397: 69 fe        	adc	#$fe
     399: aa           	tax
     39a: 98           	tya
     39b: 69 ff        	adc	#$ff
     39d: 86 97        	stx	$97                     ; 0x2097 <playmidi+0x6aa>
     39f: 85 98        	sta	$98                     ; 0x2098 <playmidi+0x6ab>
     3a1: a6 99        	ldx	$99                     ; 0x2099 <playmidi+0x6ac>
     3a3: 86 16        	stx	$16                     ; 0x2016 <playmidi+0x629>
     3a5: a4 9a        	ldy	$9a                     ; 0x209a <playmidi+0x6ad>
     3a7: a2 00        	ldx	#$0
     3a9: 86 14        	stx	$14                     ; 0x2014 <playmidi+0x627>
     3ab: a2 00        	ldx	#$0
     3ad: 86 15        	stx	$15                     ; 0x2015 <playmidi+0x628>
     3af: c4 15        	cpy	$15                     ; 0x2015 <playmidi+0x628>
     3b1: d0 3c        	bne	$3ef <_ZN12_GLOBAL__N_19FreeChunk6insertEPvj+0xa1>
     3b3: a6 16        	ldx	$16                     ; 0x2016 <playmidi+0x629>
     3b5: e4 14        	cpx	$14                     ; 0x2014 <playmidi+0x627>
     3b7: d0 36        	bne	$3ef <_ZN12_GLOBAL__N_19FreeChunk6insertEPvj+0xa1>
     3b9: a0 04        	ldy	#$4
     3bb: a5 12        	lda	$12                     ; 0x2012 <playmidi+0x625>
     3bd: 18           	clc
     3be: 69 04        	adc	#$4
     3c0: 85 14        	sta	$14                     ; 0x2014 <playmidi+0x627>
     3c2: a5 13        	lda	$13                     ; 0x2013 <playmidi+0x626>
     3c4: 69 00        	adc	#$0
     3c6: 18           	clc
     3c7: 85 15        	sta	$15                     ; 0x2015 <playmidi+0x628>
     3c9: a5 12        	lda	$12                     ; 0x2012 <playmidi+0x625>
     3cb: 91 12        	sta	($12),y                 ; 0x2012 <playmidi+0x625>
     3cd: a0 02        	ldy	#$2
     3cf: 85 17        	sta	$17                     ; 0x2017 <playmidi+0x62a>
     3d1: 69 02        	adc	#$2
     3d3: 85 16        	sta	$16                     ; 0x2016 <playmidi+0x629>
     3d5: a5 17        	lda	$17                     ; 0x2017 <playmidi+0x62a>
     3d7: 91 12        	sta	($12),y                 ; 0x2012 <playmidi+0x625>
     3d9: a5 13        	lda	$13                     ; 0x2013 <playmidi+0x626>
     3db: 69 00        	adc	#$0
     3dd: 85 17        	sta	$17                     ; 0x2017 <playmidi+0x62a>
     3df: 88           	dey
     3e0: a5 13        	lda	$13                     ; 0x2013 <playmidi+0x626>
     3e2: 91 14        	sta	($14),y                 ; 0x2014 <playmidi+0x627>
     3e4: 91 16        	sta	($16),y                 ; 0x2016 <playmidi+0x629>
     3e6: a6 12        	ldx	$12                     ; 0x2012 <playmidi+0x625>
     3e8: 86 99        	stx	$99                     ; 0x2099 <playmidi+0x6ac>
     3ea: a6 13        	ldx	$13                     ; 0x2013 <playmidi+0x626>
     3ec: 86 9a        	stx	$9a                     ; 0x209a <playmidi+0x6ad>
     3ee: 60           	rts
     3ef: a6 12        	ldx	$12                     ; 0x2012 <playmidi+0x625>
     3f1: a5 12        	lda	$12                     ; 0x2012 <playmidi+0x625>
     3f3: 18           	clc
     3f4: 69 02        	adc	#$2
     3f6: 85 14        	sta	$14                     ; 0x2014 <playmidi+0x627>
     3f8: 84 18        	sty	$18                     ; 0x2018 <playmidi+0x62b>
     3fa: a5 13        	lda	$13                     ; 0x2013 <playmidi+0x626>
     3fc: 69 00        	adc	#$0
     3fe: 85 15        	sta	$15                     ; 0x2015 <playmidi+0x628>
     400: a5 16        	lda	$16                     ; 0x2016 <playmidi+0x629>
     402: 84 17        	sty	$17                     ; 0x2017 <playmidi+0x62a>
     404: a0 02        	ldy	#$2
     406: 91 12        	sta	($12),y                 ; 0x2012 <playmidi+0x625>
     408: 85 19        	sta	$19                     ; 0x2019 <playmidi+0x62c>
     40a: 88           	dey
     40b: a5 18        	lda	$18                     ; 0x2018 <playmidi+0x62b>
     40d: 91 14        	sta	($14),y                 ; 0x2014 <playmidi+0x627>
     40f: 18           	clc
     410: a5 19        	lda	$19                     ; 0x2019 <playmidi+0x62c>
     412: 69 04        	adc	#$4
     414: a8           	tay
     415: a5 18        	lda	$18                     ; 0x2018 <playmidi+0x62b>
     417: 69 00        	adc	#$0
     419: 85 19        	sta	$19                     ; 0x2019 <playmidi+0x62c>
     41b: 84 18        	sty	$18                     ; 0x2018 <playmidi+0x62b>
     41d: 8a           	txa
     41e: 18           	clc
     41f: 69 04        	adc	#$4
     421: 85 1a        	sta	$1a                     ; 0x201a <playmidi+0x62d>
     423: a5 13        	lda	$13                     ; 0x2013 <playmidi+0x626>
     425: 69 00        	adc	#$0
     427: 85 1b        	sta	$1b                     ; 0x201b <playmidi+0x62e>
     429: a0 04        	ldy	#$4
     42b: b1 16        	lda	($16),y                 ; 0x2016 <playmidi+0x629>
     42d: 85 16        	sta	$16                     ; 0x2016 <playmidi+0x629>
     42f: 85 1d        	sta	$1d                     ; 0x201d <playmidi+0x630>
     431: a0 01        	ldy	#$1
     433: b1 18        	lda	($18),y                 ; 0x2018 <playmidi+0x62b>
     435: 85 17        	sta	$17                     ; 0x2017 <playmidi+0x62a>
     437: 85 19        	sta	$19                     ; 0x2019 <playmidi+0x62c>
     439: a0 04        	ldy	#$4
     43b: a5 1d        	lda	$1d                     ; 0x201d <playmidi+0x630>
     43d: 91 12        	sta	($12),y                 ; 0x2012 <playmidi+0x625>
     43f: a5 19        	lda	$19                     ; 0x2019 <playmidi+0x62c>
     441: a0 01        	ldy	#$1
     443: 91 1a        	sta	($1a),y                 ; 0x201a <playmidi+0x62d>
     445: 18           	clc
     446: a5 1d        	lda	$1d                     ; 0x201d <playmidi+0x630>
     448: 69 02        	adc	#$2
     44a: 85 18        	sta	$18                     ; 0x2018 <playmidi+0x62b>
     44c: a5 19        	lda	$19                     ; 0x2019 <playmidi+0x62c>
     44e: 69 00        	adc	#$0
     450: 85 19        	sta	$19                     ; 0x2019 <playmidi+0x62c>
     452: 8a           	txa
     453: c8           	iny
     454: 91 16        	sta	($16),y                 ; 0x2016 <playmidi+0x629>
     456: a5 13        	lda	$13                     ; 0x2013 <playmidi+0x626>
     458: 88           	dey
     459: 91 18        	sta	($18),y                 ; 0x2018 <playmidi+0x62b>
     45b: c8           	iny
     45c: b1 12        	lda	($12),y                 ; 0x2012 <playmidi+0x625>
     45e: 85 16        	sta	$16                     ; 0x2016 <playmidi+0x629>
     460: 85 18        	sta	$18                     ; 0x2018 <playmidi+0x62b>
     462: 88           	dey
     463: b1 14        	lda	($14),y                 ; 0x2014 <playmidi+0x627>
     465: 85 17        	sta	$17                     ; 0x2017 <playmidi+0x62a>
     467: 85 14        	sta	$14                     ; 0x2014 <playmidi+0x627>
     469: 8a           	txa
     46a: a0 04        	ldy	#$4
     46c: 91 16        	sta	($16),y                 ; 0x2016 <playmidi+0x629>
     46e: 18           	clc
     46f: a5 18        	lda	$18                     ; 0x2018 <playmidi+0x62b>
     471: 69 04        	adc	#$4
     473: a8           	tay
     474: a5 14        	lda	$14                     ; 0x2014 <playmidi+0x627>
     476: 69 00        	adc	#$0
     478: 84 14        	sty	$14                     ; 0x2014 <playmidi+0x627>
     47a: 85 15        	sta	$15                     ; 0x2015 <playmidi+0x628>
     47c: a5 13        	lda	$13                     ; 0x2013 <playmidi+0x626>
     47e: a0 01        	ldy	#$1
     480: 91 14        	sta	($14),y                 ; 0x2014 <playmidi+0x627>
     482: 60           	rts
     483: 00           	brk

00000484 <_ZN12_GLOBAL__N_19FreeChunk6removeEv>:
     484: a0 01        	ldy	#$1
     486: a9 fe        	lda	#$fe
     488: 32 12        	and	($12)                   ; 0x2012 <playmidi+0x625>
     48a: 85 14        	sta	$14                     ; 0x2014 <playmidi+0x627>
     48c: a5 97        	lda	$97                     ; 0x2097 <playmidi+0x6aa>
     48e: a6 98        	ldx	$98                     ; 0x2098 <playmidi+0x6ab>
     490: 86 15        	stx	$15                     ; 0x2015 <playmidi+0x628>
     492: 38           	sec
     493: e5 14        	sbc	$14                     ; 0x2014 <playmidi+0x627>
     495: aa           	tax
     496: a5 15        	lda	$15                     ; 0x2015 <playmidi+0x628>
     498: f1 12        	sbc	($12),y                 ; 0x2012 <playmidi+0x625>
     49a: 85 14        	sta	$14                     ; 0x2014 <playmidi+0x627>
     49c: 18           	clc
     49d: 8a           	txa
     49e: 69 02        	adc	#$2
     4a0: 85 15        	sta	$15                     ; 0x2015 <playmidi+0x628>
     4a2: a5 14        	lda	$14                     ; 0x2014 <playmidi+0x627>
     4a4: 69 00        	adc	#$0
     4a6: a6 15        	ldx	$15                     ; 0x2015 <playmidi+0x628>
     4a8: 86 97        	stx	$97                     ; 0x2097 <playmidi+0x6aa>
     4aa: 85 98        	sta	$98                     ; 0x2098 <playmidi+0x6ab>
     4ac: a5 12        	lda	$12                     ; 0x2012 <playmidi+0x625>
     4ae: 18           	clc
     4af: 69 02        	adc	#$2
     4b1: 85 14        	sta	$14                     ; 0x2014 <playmidi+0x627>
     4b3: a5 13        	lda	$13                     ; 0x2013 <playmidi+0x626>
     4b5: 69 00        	adc	#$0
     4b7: c8           	iny
     4b8: 85 15        	sta	$15                     ; 0x2015 <playmidi+0x628>
     4ba: b1 12        	lda	($12),y                 ; 0x2012 <playmidi+0x625>
     4bc: aa           	tax
     4bd: 88           	dey
     4be: b1 14        	lda	($14),y                 ; 0x2014 <playmidi+0x627>
     4c0: 85 19        	sta	$19                     ; 0x2019 <playmidi+0x62c>
     4c2: c5 13        	cmp	$13                     ; 0x2013 <playmidi+0x626>
     4c4: d0 0f        	bne	$4d5 <_ZN12_GLOBAL__N_19FreeChunk6removeEv+0x51>
     4c6: e4 12        	cpx	$12                     ; 0x2012 <playmidi+0x625>
     4c8: d0 0b        	bne	$4d5 <_ZN12_GLOBAL__N_19FreeChunk6removeEv+0x51>
     4ca: a2 00        	ldx	#$0
     4cc: 86 14        	stx	$14                     ; 0x2014 <playmidi+0x627>
     4ce: a2 00        	ldx	#$0
     4d0: 86 15        	stx	$15                     ; 0x2015 <playmidi+0x628>
     4d2: 4c 52 05     	jmp	$552 <_ZN12_GLOBAL__N_19FreeChunk6removeEv+0xce>
     4d5: 86 18        	stx	$18                     ; 0x2018 <playmidi+0x62b>
     4d7: a6 12        	ldx	$12                     ; 0x2012 <playmidi+0x625>
     4d9: a5 12        	lda	$12                     ; 0x2012 <playmidi+0x625>
     4db: 86 1b        	stx	$1b                     ; 0x201b <playmidi+0x62e>
     4dd: 18           	clc
     4de: 69 04        	adc	#$4
     4e0: 85 14        	sta	$14                     ; 0x2014 <playmidi+0x627>
     4e2: a5 13        	lda	$13                     ; 0x2013 <playmidi+0x626>
     4e4: 69 00        	adc	#$0
     4e6: a0 04        	ldy	#$4
     4e8: 85 15        	sta	$15                     ; 0x2015 <playmidi+0x628>
     4ea: b1 12        	lda	($12),y                 ; 0x2012 <playmidi+0x625>
     4ec: 85 1c        	sta	$1c                     ; 0x201c <playmidi+0x62f>
     4ee: 18           	clc
     4ef: 69 02        	adc	#$2
     4f1: 85 16        	sta	$16                     ; 0x2016 <playmidi+0x629>
     4f3: a0 01        	ldy	#$1
     4f5: b1 14        	lda	($14),y                 ; 0x2014 <playmidi+0x627>
     4f7: aa           	tax
     4f8: 69 00        	adc	#$0
     4fa: a4 16        	ldy	$16                     ; 0x2016 <playmidi+0x629>
     4fc: 84 14        	sty	$14                     ; 0x2014 <playmidi+0x627>
     4fe: 85 15        	sta	$15                     ; 0x2015 <playmidi+0x628>
     500: a4 1c        	ldy	$1c                     ; 0x201c <playmidi+0x62f>
     502: 84 16        	sty	$16                     ; 0x2016 <playmidi+0x629>
     504: 86 17        	stx	$17                     ; 0x2017 <playmidi+0x62a>
     506: a0 02        	ldy	#$2
     508: a5 18        	lda	$18                     ; 0x2018 <playmidi+0x62b>
     50a: 91 16        	sta	($16),y                 ; 0x2016 <playmidi+0x629>
     50c: a5 19        	lda	$19                     ; 0x2019 <playmidi+0x62c>
     50e: 88           	dey
     50f: 91 14        	sta	($14),y                 ; 0x2014 <playmidi+0x627>
     511: 18           	clc
     512: a5 1b        	lda	$1b                     ; 0x201b <playmidi+0x62e>
     514: 69 02        	adc	#$2
     516: 85 14        	sta	$14                     ; 0x2014 <playmidi+0x627>
     518: a5 13        	lda	$13                     ; 0x2013 <playmidi+0x626>
     51a: 69 00        	adc	#$0
     51c: 85 15        	sta	$15                     ; 0x2015 <playmidi+0x628>
     51e: c8           	iny
     51f: b1 12        	lda	($12),y                 ; 0x2012 <playmidi+0x625>
     521: 85 16        	sta	$16                     ; 0x2016 <playmidi+0x629>
     523: 88           	dey
     524: b1 14        	lda	($14),y                 ; 0x2014 <playmidi+0x627>
     526: a4 16        	ldy	$16                     ; 0x2016 <playmidi+0x629>
     528: 84 14        	sty	$14                     ; 0x2014 <playmidi+0x627>
     52a: 85 15        	sta	$15                     ; 0x2015 <playmidi+0x628>
     52c: 85 17        	sta	$17                     ; 0x2017 <playmidi+0x62a>
     52e: a0 04        	ldy	#$4
     530: a5 1c        	lda	$1c                     ; 0x201c <playmidi+0x62f>
     532: 91 14        	sta	($14),y                 ; 0x2014 <playmidi+0x627>
     534: 18           	clc
     535: a5 16        	lda	$16                     ; 0x2016 <playmidi+0x629>
     537: 69 04        	adc	#$4
     539: 85 16        	sta	$16                     ; 0x2016 <playmidi+0x629>
     53b: a5 17        	lda	$17                     ; 0x2017 <playmidi+0x62a>
     53d: 69 00        	adc	#$0
     53f: 85 17        	sta	$17                     ; 0x2017 <playmidi+0x62a>
     541: 8a           	txa
     542: a0 01        	ldy	#$1
     544: 91 16        	sta	($16),y                 ; 0x2016 <playmidi+0x629>
     546: a6 9a        	ldx	$9a                     ; 0x209a <playmidi+0x6ad>
     548: e4 13        	cpx	$13                     ; 0x2013 <playmidi+0x626>
     54a: d0 0e        	bne	$55a <_ZN12_GLOBAL__N_19FreeChunk6removeEv+0xd6>
     54c: a6 99        	ldx	$99                     ; 0x2099 <playmidi+0x6ac>
     54e: e4 12        	cpx	$12                     ; 0x2012 <playmidi+0x625>
     550: d0 08        	bne	$55a <_ZN12_GLOBAL__N_19FreeChunk6removeEv+0xd6>
     552: a6 14        	ldx	$14                     ; 0x2014 <playmidi+0x627>
     554: a4 15        	ldy	$15                     ; 0x2015 <playmidi+0x628>
     556: 86 99        	stx	$99                     ; 0x2099 <playmidi+0x6ac>
     558: 84 9a        	sty	$9a                     ; 0x209a <playmidi+0x6ad>
     55a: 60           	rts

0000055b <__zero_bss>:
     55b: a2 41        	ldx	#$41
     55d: a0 01        	ldy	#$1
     55f: a9 5b        	lda	#$5b
     561: 85 12        	sta	$12                     ; 0x2012 <playmidi+0x625>
     563: a9 2c        	lda	#$2c
     565: 85 13        	sta	$13                     ; 0x2013 <playmidi+0x626>
     567: a9 00        	lda	#$0
     569: 84 14        	sty	$14                     ; 0x2014 <playmidi+0x627>
     56b: 4c a2 2b     	jmp	$2ba2 <__memset>

0000056e <__zero_zp_bss>:
     56e: a2 36        	ldx	#$36
     570: a0 00        	ldy	#$0
     572: a9 65        	lda	#$65
     574: 85 12        	sta	$12                     ; 0x2012 <playmidi+0x625>
     576: a9 00        	lda	#$0
     578: 85 13        	sta	$13                     ; 0x2013 <playmidi+0x626>
     57a: a9 00        	lda	#$0
     57c: 84 14        	sty	$14                     ; 0x2014 <playmidi+0x627>
     57e: 4c a2 2b     	jmp	$2ba2 <__memset>

00000581 <__copy_zp_data>:
     581: a9 35        	lda	#$35
     583: a2 00        	ldx	#$0
     585: a0 30        	ldy	#$30
     587: 84 12        	sty	$12                     ; 0x2012 <playmidi+0x625>
     589: a0 00        	ldy	#$0
     58b: 84 13        	sty	$13                     ; 0x2013 <playmidi+0x626>
     58d: a0 00        	ldy	#$0
     58f: 84 14        	sty	$14                     ; 0x2014 <playmidi+0x627>
     591: a0 03        	ldy	#$3
     593: 84 15        	sty	$15                     ; 0x2015 <playmidi+0x628>
     595: 4c 76 2b     	jmp	$2b76 <memcpy>

00000598 <f256Init>:
     598: 64 12        	stz	$12                     ; 0x2012 <playmidi+0x625>
     59a: 64 01        	stz	$1                      ; 0x2001 <playmidi+0x614>
     59c: a2 3f        	ldx	#$3f
     59e: 8e 00 d0     	stx	$d000                   ; 0xd000 <end_block9+0xa264>
     5a1: a2 b3        	ldx	#$b3
     5a3: 86 00        	stx	$0                      ; 0x2000 <playmidi+0x613>
     5a5: 64 08        	stz	$8                      ; 0x2008 <playmidi+0x61b>
     5a7: a2 01        	ldx	#$1
     5a9: 86 09        	stx	$9                      ; 0x2009 <playmidi+0x61c>
     5ab: e8           	inx
     5ac: 86 0a        	stx	$a                      ; 0x200a <playmidi+0x61d>
     5ae: e8           	inx
     5af: 86 0b        	stx	$b                      ; 0x200b <playmidi+0x61e>
     5b1: e8           	inx
     5b2: 86 0c        	stx	$c                      ; 0x200c <playmidi+0x61f>
     5b4: e8           	inx
     5b5: 86 0d        	stx	$d                      ; 0x200d <playmidi+0x620>
     5b7: a2 f0        	ldx	#$f0
     5b9: 86 65        	stx	$65                     ; 0x2065 <playmidi+0x678>
     5bb: 64 66        	stz	$66                     ; 0x2066 <playmidi+0x679>
     5bd: a2 8e        	ldx	#$8e
     5bf: a0 00        	ldy	#$0
     5c1: 86 f0        	stx	$f0                     ; 0x20f0 <playmidi+0x703>
     5c3: 84 f1        	sty	$f1                     ; 0x20f1 <playmidi+0x704>
     5c5: a2 00        	ldx	#$0
     5c7: 86 16        	stx	$16                     ; 0x2016 <playmidi+0x629>
     5c9: ca           	dex
     5ca: 86 17        	stx	$17                     ; 0x2017 <playmidi+0x62a>
     5cc: 8a           	txa
     5cd: 0a           	asl
     5ce: 0a           	asl
     5cf: 18           	clc
     5d0: 69 d4        	adc	#$d4
     5d2: 85 18        	sta	$18                     ; 0x2018 <playmidi+0x62b>
     5d4: a0 00        	ldy	#$0
     5d6: 64 15        	stz	$15                     ; 0x2015 <playmidi+0x628>
     5d8: 64 14        	stz	$14                     ; 0x2014 <playmidi+0x627>
     5da: a6 17        	ldx	$17                     ; 0x2017 <playmidi+0x62a>
     5dc: e0 03        	cpx	#$3
     5de: a6 01        	ldx	$1                      ; 0x2001 <playmidi+0x614>
     5e0: 86 1a        	stx	$1a                     ; 0x201a <playmidi+0x62d>
     5e2: a2 d0        	ldx	#$d0
     5e4: 84 19        	sty	$19                     ; 0x2019 <playmidi+0x62c>
     5e6: b0 02        	bcs	$5ea <f256Init+0x52>
     5e8: a6 18        	ldx	$18                     ; 0x2018 <playmidi+0x62b>
     5ea: 86 13        	stx	$13                     ; 0x2013 <playmidi+0x626>
     5ec: a5 15        	lda	$15                     ; 0x2015 <playmidi+0x628>
     5ee: 18           	clc
     5ef: 65 12        	adc	$12                     ; 0x2012 <playmidi+0x625>
     5f1: a8           	tay
     5f2: a6 15        	ldx	$15                     ; 0x2015 <playmidi+0x628>
     5f4: a5 14        	lda	$14                     ; 0x2014 <playmidi+0x627>
     5f6: 85 1b        	sta	$1b                     ; 0x201b <playmidi+0x62e>
     5f8: a5 14        	lda	$14                     ; 0x2014 <playmidi+0x627>
     5fa: 65 13        	adc	$13                     ; 0x2013 <playmidi+0x626>
     5fc: 84 14        	sty	$14                     ; 0x2014 <playmidi+0x627>
     5fe: a0 01        	ldy	#$1
     600: 84 01        	sty	$1                      ; 0x2001 <playmidi+0x614>
     602: 85 15        	sta	$15                     ; 0x2015 <playmidi+0x628>
     604: a5 19        	lda	$19                     ; 0x2019 <playmidi+0x62c>
     606: 92 14        	sta	($14)                   ; 0x2014 <playmidi+0x627>
     608: 91 14        	sta	($14),y                 ; 0x2014 <playmidi+0x627>
     60a: c8           	iny
     60b: 91 14        	sta	($14),y                 ; 0x2014 <playmidi+0x627>
     60d: 85 13        	sta	$13                     ; 0x2013 <playmidi+0x626>
     60f: c8           	iny
     610: a9 ff        	lda	#$ff
     612: 91 14        	sta	($14),y                 ; 0x2014 <playmidi+0x627>
     614: 8a           	txa
     615: a6 1a        	ldx	$1a                     ; 0x201a <playmidi+0x62d>
     617: 86 01        	stx	$1                      ; 0x2001 <playmidi+0x614>
     619: 18           	clc
     61a: 69 04        	adc	#$4
     61c: 85 15        	sta	$15                     ; 0x2015 <playmidi+0x628>
     61e: a5 1b        	lda	$1b                     ; 0x201b <playmidi+0x62e>
     620: 69 00        	adc	#$0
     622: e6 13        	inc	$13                     ; 0x2013 <playmidi+0x626>
     624: a4 13        	ldy	$13                     ; 0x2013 <playmidi+0x626>
     626: 85 14        	sta	$14                     ; 0x2014 <playmidi+0x627>
     628: c9 04        	cmp	#$4
     62a: f0 03        	beq	$62f <f256Init+0x97>
     62c: 4c da 05     	jmp	$5da <f256Init+0x42>
     62f: a5 15        	lda	$15                     ; 0x2015 <playmidi+0x628>
     631: f0 03        	beq	$636 <f256Init+0x9e>
     633: 4c da 05     	jmp	$5da <f256Init+0x42>
     636: a6 16        	ldx	$16                     ; 0x2016 <playmidi+0x629>
     638: e8           	inx
     639: e0 04        	cpx	#$4
     63b: f0 03        	beq	$640 <f256Init+0xa8>
     63d: 4c c7 05     	jmp	$5c7 <f256Init+0x2f>
     640: ad 02 d0     	lda	$d002                   ; 0xd002 <end_block9+0xa266>
     643: 29 f0        	and	#$f0
     645: 8d 02 d0     	sta	$d002                   ; 0xd002 <end_block9+0xa266>
     648: ad 02 d0     	lda	$d002                   ; 0xd002 <end_block9+0xa266>
     64b: 29 0f        	and	#$f
     64d: 09 10        	ora	#$10
     64f: 8d 02 d0     	sta	$d002                   ; 0xd002 <end_block9+0xa266>
     652: a2 02        	ldx	#$2
     654: 8e 03 d0     	stx	$d003                   ; 0xd003 <end_block9+0xa267>
     657: 20 14 07     	jsr	$714 <textReset>
     65a: 20 87 08     	jsr	$887 <bitmapReset>
     65d: a9 10        	lda	#$10
     65f: a2 08        	ldx	#$8
     661: 86 7c        	stx	$7c                     ; 0x207c <playmidi+0x68f>
     663: 86 7d        	stx	$7d                     ; 0x207d <playmidi+0x690>
     665: 86 7e        	stx	$7e                     ; 0x207e <playmidi+0x691>
     667: 8d 00 d2     	sta	$d200                   ; 0xd200 <end_block9+0xa464>
     66a: a4 7d        	ldy	$7d                     ; 0x207d <playmidi+0x690>
     66c: aa           	tax
     66d: c0 08        	cpy	#$8
     66f: f0 02        	beq	$673 <f256Init+0xdb>
     671: a2 00        	ldx	#$0
     673: 8e 0c d2     	stx	$d20c                   ; 0xd20c <end_block9+0xa470>
     676: a6 7e        	ldx	$7e                     ; 0x207e <playmidi+0x691>
     678: e0 08        	cpx	#$8
     67a: f0 02        	beq	$67e <f256Init+0xe6>
     67c: a9 00        	lda	#$0
     67e: 8d 18 d2     	sta	$d218                   ; 0xd218 <end_block9+0xa47c>
     681: a0 d9        	ldy	#$d9
     683: a2 00        	ldx	#$0
     685: 64 12        	stz	$12                     ; 0x2012 <playmidi+0x625>
     687: 84 13        	sty	$13                     ; 0x2013 <playmidi+0x626>
     689: bd 5b 2c     	lda	$2c5b,x                 ; 0x2c5b <_spriteCtl>
     68c: 92 12        	sta	($12)                   ; 0x2012 <playmidi+0x625>
     68e: e8           	inx
     68f: 18           	clc
     690: a5 12        	lda	$12                     ; 0x2012 <playmidi+0x625>
     692: 69 08        	adc	#$8
     694: 85 12        	sta	$12                     ; 0x2012 <playmidi+0x625>
     696: 98           	tya
     697: 69 00        	adc	#$0
     699: a8           	tay
     69a: e0 40        	cpx	#$40
     69c: d0 e9        	bne	$687 <f256Init+0xef>
     69e: 64 7f        	stz	$7f                     ; 0x207f <playmidi+0x692>
     6a0: 64 80        	stz	$80                     ; 0x2080 <playmidi+0x693>
     6a2: 64 81        	stz	$81                     ; 0x2081 <playmidi+0x694>
     6a4: 64 82        	stz	$82                     ; 0x2082 <playmidi+0x695>
     6a6: 64 83        	stz	$83                     ; 0x2083 <playmidi+0x696>
     6a8: 64 84        	stz	$84                     ; 0x2084 <playmidi+0x697>
     6aa: 64 85        	stz	$85                     ; 0x2085 <playmidi+0x698>
     6ac: 64 86        	stz	$86                     ; 0x2086 <playmidi+0x699>
     6ae: a5 65        	lda	$65                     ; 0x2065 <playmidi+0x678>
     6b0: a6 66        	ldx	$66                     ; 0x2066 <playmidi+0x679>
     6b2: 85 12        	sta	$12                     ; 0x2012 <playmidi+0x625>
     6b4: 86 13        	stx	$13                     ; 0x2013 <playmidi+0x626>
     6b6: a0 0b        	ldy	#$b
     6b8: 18           	clc
     6b9: 69 0b        	adc	#$b
     6bb: 85 14        	sta	$14                     ; 0x2014 <playmidi+0x627>
     6bd: 8a           	txa
     6be: 69 00        	adc	#$0
     6c0: 85 15        	sta	$15                     ; 0x2015 <playmidi+0x628>
     6c2: a9 9b        	lda	#$9b
     6c4: 91 12        	sta	($12),y                 ; 0x2012 <playmidi+0x625>
     6c6: a0 01        	ldy	#$1
     6c8: a9 00        	lda	#$0
     6ca: 91 14        	sta	($14),y                 ; 0x2014 <playmidi+0x627>
     6cc: a0 0d        	ldy	#$d
     6ce: a9 08        	lda	#$8
     6d0: 91 12        	sta	($12),y                 ; 0x2012 <playmidi+0x625>
     6d2: a2 a3        	ldx	#$a3
     6d4: a0 00        	ldy	#$0
     6d6: 86 12        	stx	$12                     ; 0x2012 <playmidi+0x625>
     6d8: 84 13        	sty	$13                     ; 0x2013 <playmidi+0x626>
     6da: a2 9b        	ldx	#$9b
     6dc: 86 14        	stx	$14                     ; 0x2014 <playmidi+0x627>
     6de: a2 2d        	ldx	#$2d
     6e0: 86 15        	stx	$15                     ; 0x2015 <playmidi+0x628>
     6e2: 20 dc ff     	jsr	$ffdc <end_block9+0xd240>
     6e5: 92 12        	sta	($12)                   ; 0x2012 <playmidi+0x625>
     6e7: a9 00        	lda	#$0
     6e9: 6a           	ror
     6ea: 85 14        	sta	$14                     ; 0x2014 <playmidi+0x627>
     6ec: a6 a1        	ldx	$a1                     ; 0x20a1 <playmidi+0x6b4>
     6ee: a4 a2        	ldy	$a2                     ; 0x20a2 <playmidi+0x6b5>
     6f0: 8e 00 de     	stx	$de00                   ; 0xde00 <end_block9+0xb064>
     6f3: 9c 01 de     	stz	$de01                   ; 0xde01 <end_block9+0xb065>
     6f6: 8c 02 de     	sty	$de02                   ; 0xde02 <end_block9+0xb066>
     6f9: 9c 03 de     	stz	$de03                   ; 0xde03 <end_block9+0xb067>
     6fc: ae 10 de     	ldx	$de10                   ; 0xde10 <end_block9+0xb074>
     6ff: ac 11 de     	ldy	$de11                   ; 0xde11 <end_block9+0xb075>
     702: ad 12 de     	lda	$de12                   ; 0xde12 <end_block9+0xb076>
     705: ad 13 de     	lda	$de13                   ; 0xde13 <end_block9+0xb077>
     708: 8e a4 d6     	stx	$d6a4                   ; 0xd6a4 <end_block9+0xa908>
     70b: 8c a5 d6     	sty	$d6a5                   ; 0xd6a5 <end_block9+0xa909>
     70e: a2 03        	ldx	#$3
     710: 8e a6 d6     	stx	$d6a6                   ; 0xd6a6 <end_block9+0xa90a>
     713: 60           	rts

00000714 <textReset>:
     714: 64 14        	stz	$14                     ; 0x2014 <playmidi+0x627>
     716: a2 00        	ldx	#$0
     718: 86 12        	stx	$12                     ; 0x2012 <playmidi+0x625>
     71a: a2 c0        	ldx	#$c0
     71c: 86 13        	stx	$13                     ; 0x2013 <playmidi+0x626>
     71e: a2 f0        	ldx	#$f0
     720: 86 62        	stx	$62                     ; 0x2062 <playmidi+0x675>
     722: ad 01 d0     	lda	$d001                   ; 0xd001 <end_block9+0xa265>
     725: 29 f9        	and	#$f9
     727: 09 04        	ora	#$4
     729: 8d 01 d0     	sta	$d001                   ; 0xd001 <end_block9+0xa265>
     72c: a2 50        	ldx	#$50
     72e: 86 60        	stx	$60                     ; 0x2060 <playmidi+0x673>
     730: a2 1e        	ldx	#$1e
     732: 86 61        	stx	$61                     ; 0x2061 <playmidi+0x674>
     734: 9c 10 d0     	stz	$d010                   ; 0xd010 <end_block9+0xa274>
     737: a0 00        	ldy	#$0
     739: a2 00        	ldx	#$0
     73b: 84 18        	sty	$18                     ; 0x2018 <playmidi+0x62b>
     73d: b9 30 00     	lda	$30,y                   ; 0x30 <textColors>
     740: 85 1b        	sta	$1b                     ; 0x201b <playmidi+0x62e>
     742: b9 31 00     	lda	$31,y                   ; 0x31 <textColors+0x1>
     745: 85 1c        	sta	$1c                     ; 0x201c <playmidi+0x62f>
     747: b9 32 00     	lda	$32,y                   ; 0x32 <textColors+0x2>
     74a: 85 1d        	sta	$1d                     ; 0x201d <playmidi+0x630>
     74c: 84 1a        	sty	$1a                     ; 0x201a <playmidi+0x62d>
     74e: 8e 00 de     	stx	$de00                   ; 0xde00 <end_block9+0xb064>
     751: 9c 01 de     	stz	$de01                   ; 0xde01 <end_block9+0xb065>
     754: a0 04        	ldy	#$4
     756: 8c 02 de     	sty	$de02                   ; 0xde02 <end_block9+0xb066>
     759: 9c 03 de     	stz	$de03                   ; 0xde03 <end_block9+0xb067>
     75c: ac 10 de     	ldy	$de10                   ; 0xde10 <end_block9+0xb074>
     75f: ad 11 de     	lda	$de11                   ; 0xde11 <end_block9+0xb075>
     762: 85 15        	sta	$15                     ; 0x2015 <playmidi+0x628>
     764: 18           	clc
     765: 98           	tya
     766: 65 14        	adc	$14                     ; 0x2014 <playmidi+0x627>
     768: 85 16        	sta	$16                     ; 0x2016 <playmidi+0x629>
     76a: a9 d8        	lda	#$d8
     76c: 65 15        	adc	$15                     ; 0x2015 <playmidi+0x628>
     76e: 86 19        	stx	$19                     ; 0x2019 <playmidi+0x62c>
     770: ae 12 de     	ldx	$de12                   ; 0xde12 <end_block9+0xb076>
     773: ae 13 de     	ldx	$de13                   ; 0xde13 <end_block9+0xb077>
     776: 85 17        	sta	$17                     ; 0x2017 <playmidi+0x62a>
     778: a5 1d        	lda	$1d                     ; 0x201d <playmidi+0x630>
     77a: 92 16        	sta	($16)                   ; 0x2016 <playmidi+0x629>
     77c: a0 01        	ldy	#$1
     77e: a5 1c        	lda	$1c                     ; 0x201c <playmidi+0x62f>
     780: 91 16        	sta	($16),y                 ; 0x2016 <playmidi+0x629>
     782: c8           	iny
     783: a5 1b        	lda	$1b                     ; 0x201b <playmidi+0x62e>
     785: 91 16        	sta	($16),y                 ; 0x2016 <playmidi+0x629>
     787: c8           	iny
     788: a9 ff        	lda	#$ff
     78a: 91 16        	sta	($16),y                 ; 0x2016 <playmidi+0x629>
     78c: a6 1a        	ldx	$1a                     ; 0x201a <playmidi+0x62d>
     78e: b4 30        	ldy	$30,x                   ; 0x2030 <playmidi+0x643>
     790: 84 1a        	sty	$1a                     ; 0x201a <playmidi+0x62d>
     792: b4 31        	ldy	$31,x                   ; 0x2031 <playmidi+0x644>
     794: 84 1b        	sty	$1b                     ; 0x201b <playmidi+0x62e>
     796: b5 32        	lda	$32,x                   ; 0x2032 <playmidi+0x645>
     798: aa           	tax
     799: 86 1c        	stx	$1c                     ; 0x201c <playmidi+0x62f>
     79b: a6 19        	ldx	$19                     ; 0x2019 <playmidi+0x62c>
     79d: 8e 00 de     	stx	$de00                   ; 0xde00 <end_block9+0xb064>
     7a0: 9c 01 de     	stz	$de01                   ; 0xde01 <end_block9+0xb065>
     7a3: a2 04        	ldx	#$4
     7a5: 8e 02 de     	stx	$de02                   ; 0xde02 <end_block9+0xb066>
     7a8: 9c 03 de     	stz	$de03                   ; 0xde03 <end_block9+0xb067>
     7ab: ae 10 de     	ldx	$de10                   ; 0xde10 <end_block9+0xb074>
     7ae: 86 15        	stx	$15                     ; 0x2015 <playmidi+0x628>
     7b0: ae 11 de     	ldx	$de11                   ; 0xde11 <end_block9+0xb075>
     7b3: 86 16        	stx	$16                     ; 0x2016 <playmidi+0x629>
     7b5: a9 40        	lda	#$40
     7b7: 18           	clc
     7b8: 65 15        	adc	$15                     ; 0x2015 <playmidi+0x628>
     7ba: aa           	tax
     7bb: a9 d8        	lda	#$d8
     7bd: 65 16        	adc	$16                     ; 0x2016 <playmidi+0x629>
     7bf: 86 16        	stx	$16                     ; 0x2016 <playmidi+0x629>
     7c1: ae 12 de     	ldx	$de12                   ; 0xde12 <end_block9+0xb076>
     7c4: 85 17        	sta	$17                     ; 0x2017 <playmidi+0x62a>
     7c6: ae 13 de     	ldx	$de13                   ; 0xde13 <end_block9+0xb077>
     7c9: a6 19        	ldx	$19                     ; 0x2019 <playmidi+0x62c>
     7cb: a5 1c        	lda	$1c                     ; 0x201c <playmidi+0x62f>
     7cd: 92 16        	sta	($16)                   ; 0x2016 <playmidi+0x629>
     7cf: a0 01        	ldy	#$1
     7d1: a5 1b        	lda	$1b                     ; 0x201b <playmidi+0x62e>
     7d3: 91 16        	sta	($16),y                 ; 0x2016 <playmidi+0x629>
     7d5: c8           	iny
     7d6: a5 1a        	lda	$1a                     ; 0x201a <playmidi+0x62d>
     7d8: 91 16        	sta	($16),y                 ; 0x2016 <playmidi+0x629>
     7da: a9 ff        	lda	#$ff
     7dc: c8           	iny
     7dd: 91 16        	sta	($16),y                 ; 0x2016 <playmidi+0x629>
     7df: e8           	inx
     7e0: 18           	clc
     7e1: a5 18        	lda	$18                     ; 0x2018 <playmidi+0x62b>
     7e3: 69 03        	adc	#$3
     7e5: a8           	tay
     7e6: c9 30        	cmp	#$30
     7e8: f0 03        	beq	$7ed <textReset+0xd9>
     7ea: 4c 3b 07     	jmp	$73b <textReset+0x27>
     7ed: a6 01        	ldx	$1                      ; 0x2001 <playmidi+0x614>
     7ef: 86 18        	stx	$18                     ; 0x2018 <playmidi+0x62b>
     7f1: a6 60        	ldx	$60                     ; 0x2060 <playmidi+0x673>
     7f3: a4 61        	ldy	$61                     ; 0x2061 <playmidi+0x674>
     7f5: 8e 00 de     	stx	$de00                   ; 0xde00 <end_block9+0xb064>
     7f8: 9c 01 de     	stz	$de01                   ; 0xde01 <end_block9+0xb065>
     7fb: 8c 02 de     	sty	$de02                   ; 0xde02 <end_block9+0xb066>
     7fe: 9c 03 de     	stz	$de03                   ; 0xde03 <end_block9+0xb067>
     801: ae 10 de     	ldx	$de10                   ; 0xde10 <end_block9+0xb074>
     804: ac 11 de     	ldy	$de11                   ; 0xde11 <end_block9+0xb075>
     807: ad 12 de     	lda	$de12                   ; 0xde12 <end_block9+0xb076>
     80a: ad 13 de     	lda	$de13                   ; 0xde13 <end_block9+0xb077>
     80d: a9 02        	lda	#$2
     80f: 85 01        	sta	$1                      ; 0x2001 <playmidi+0x614>
     811: e0 01        	cpx	#$1
     813: 98           	tya
     814: e9 00        	sbc	#$0
     816: 50 02        	bvc	$81a <textReset+0x106>
     818: 49 80        	eor	#$80
     81a: c9 00        	cmp	#$0
     81c: 30 50        	bmi	$86e <textReset+0x15a>
     81e: a9 20        	lda	#$20
     820: 86 19        	stx	$19                     ; 0x2019 <playmidi+0x62c>
     822: 86 14        	stx	$14                     ; 0x2014 <playmidi+0x627>
     824: 84 15        	sty	$15                     ; 0x2015 <playmidi+0x628>
     826: a2 00        	ldx	#$0
     828: 86 16        	stx	$16                     ; 0x2016 <playmidi+0x629>
     82a: a2 c0        	ldx	#$c0
     82c: 86 17        	stx	$17                     ; 0x2017 <playmidi+0x62a>
     82e: 80 04        	bra	$834 <textReset+0x120>
     830: a6 15        	ldx	$15                     ; 0x2015 <playmidi+0x628>
     832: f0 14        	beq	$848 <textReset+0x134>
     834: 92 16        	sta	($16)                   ; 0x2016 <playmidi+0x629>
     836: e6 16        	inc	$16                     ; 0x2016 <playmidi+0x629>
     838: d0 02        	bne	$83c <textReset+0x128>
     83a: e6 17        	inc	$17                     ; 0x2017 <playmidi+0x62a>
     83c: a2 ff        	ldx	#$ff
     83e: c6 14        	dec	$14                     ; 0x2014 <playmidi+0x627>
     840: e4 14        	cpx	$14                     ; 0x2014 <playmidi+0x627>
     842: d0 ec        	bne	$830 <textReset+0x11c>
     844: c6 15        	dec	$15                     ; 0x2015 <playmidi+0x628>
     846: 80 e8        	bra	$830 <textReset+0x11c>
     848: a6 14        	ldx	$14                     ; 0x2014 <playmidi+0x627>
     84a: d0 e8        	bne	$834 <textReset+0x120>
     84c: a2 03        	ldx	#$3
     84e: 86 01        	stx	$1                      ; 0x2001 <playmidi+0x614>
     850: a6 19        	ldx	$19                     ; 0x2019 <playmidi+0x62c>
     852: 80 03        	bra	$857 <textReset+0x143>
     854: 98           	tya
     855: f0 12        	beq	$869 <textReset+0x155>
     857: a5 62        	lda	$62                     ; 0x2062 <playmidi+0x675>
     859: 92 12        	sta	($12)                   ; 0x2012 <playmidi+0x625>
     85b: e6 12        	inc	$12                     ; 0x2012 <playmidi+0x625>
     85d: d0 02        	bne	$861 <textReset+0x14d>
     85f: e6 13        	inc	$13                     ; 0x2013 <playmidi+0x626>
     861: ca           	dex
     862: e0 ff        	cpx	#$ff
     864: d0 ee        	bne	$854 <textReset+0x140>
     866: 88           	dey
     867: 80 eb        	bra	$854 <textReset+0x140>
     869: 8a           	txa
     86a: d0 eb        	bne	$857 <textReset+0x143>
     86c: 80 04        	bra	$872 <textReset+0x15e>
     86e: a2 03        	ldx	#$3
     870: 86 01        	stx	$1                      ; 0x2001 <playmidi+0x614>
     872: a6 18        	ldx	$18                     ; 0x2018 <playmidi+0x62b>
     874: 86 01        	stx	$1                      ; 0x2001 <playmidi+0x614>
     876: 64 67        	stz	$67                     ; 0x2067 <playmidi+0x67a>
     878: 9c 14 d0     	stz	$d014                   ; 0xd014 <end_block9+0xa278>
     87b: 9c 15 d0     	stz	$d015                   ; 0xd015 <end_block9+0xa279>
     87e: 64 68        	stz	$68                     ; 0x2068 <playmidi+0x67b>
     880: 9c 16 d0     	stz	$d016                   ; 0xd016 <end_block9+0xa27a>
     883: 9c 17 d0     	stz	$d017                   ; 0xd017 <end_block9+0xa27b>
     886: 60           	rts

00000887 <bitmapReset>:
     887: a2 01        	ldx	#$1
     889: 86 77        	stx	$77                     ; 0x2077 <playmidi+0x68a>
     88b: 86 78        	stx	$78                     ; 0x2078 <playmidi+0x68b>
     88d: a0 40        	ldy	#$40
     88f: 8c 00 de     	sty	$de00                   ; 0xde00 <end_block9+0xb064>
     892: 8e 01 de     	stx	$de01                   ; 0xde01 <end_block9+0xb065>
     895: a2 f0        	ldx	#$f0
     897: 8e 02 de     	stx	$de02                   ; 0xde02 <end_block9+0xb066>
     89a: 9c 03 de     	stz	$de03                   ; 0xde03 <end_block9+0xb067>
     89d: ae 10 de     	ldx	$de10                   ; 0xde10 <end_block9+0xb074>
     8a0: 86 17        	stx	$17                     ; 0x2017 <playmidi+0x62a>
     8a2: ae 11 de     	ldx	$de11                   ; 0xde11 <end_block9+0xb075>
     8a5: 86 12        	stx	$12                     ; 0x2012 <playmidi+0x625>
     8a7: ae 12 de     	ldx	$de12                   ; 0xde12 <end_block9+0xb076>
     8aa: 86 13        	stx	$13                     ; 0x2013 <playmidi+0x626>
     8ac: ae 13 de     	ldx	$de13                   ; 0xde13 <end_block9+0xb077>
     8af: 86 14        	stx	$14                     ; 0x2014 <playmidi+0x627>
     8b1: 64 75        	stz	$75                     ; 0x2075 <playmidi+0x688>
     8b3: a2 ff        	ldx	#$ff
     8b5: 86 76        	stx	$76                     ; 0x2076 <playmidi+0x689>
     8b7: a6 12        	ldx	$12                     ; 0x2012 <playmidi+0x625>
     8b9: 86 15        	stx	$15                     ; 0x2015 <playmidi+0x628>
     8bb: 06 15        	asl	$15                     ; 0x2015 <playmidi+0x628>
     8bd: a5 13        	lda	$13                     ; 0x2013 <playmidi+0x626>
     8bf: 2a           	rol
     8c0: a6 14        	ldx	$14                     ; 0x2014 <playmidi+0x627>
     8c2: 86 16        	stx	$16                     ; 0x2016 <playmidi+0x629>
     8c4: 26 16        	rol	$16                     ; 0x2016 <playmidi+0x629>
     8c6: 06 15        	asl	$15                     ; 0x2015 <playmidi+0x628>
     8c8: 2a           	rol
     8c9: 26 16        	rol	$16                     ; 0x2016 <playmidi+0x629>
     8cb: 06 15        	asl	$15                     ; 0x2015 <playmidi+0x628>
     8cd: 2a           	rol
     8ce: 26 16        	rol	$16                     ; 0x2016 <playmidi+0x629>
     8d0: 85 15        	sta	$15                     ; 0x2015 <playmidi+0x628>
     8d2: 8d 00 de     	sta	$de00                   ; 0xde00 <end_block9+0xb064>
     8d5: a5 16        	lda	$16                     ; 0x2016 <playmidi+0x629>
     8d7: 8d 01 de     	sta	$de01                   ; 0xde01 <end_block9+0xb065>
     8da: 9c 02 de     	stz	$de02                   ; 0xde02 <end_block9+0xb066>
     8dd: a2 20        	ldx	#$20
     8df: 8e 03 de     	stx	$de03                   ; 0xde03 <end_block9+0xb067>
     8e2: ae 10 de     	ldx	$de10                   ; 0xde10 <end_block9+0xb074>
     8e5: 86 16        	stx	$16                     ; 0x2016 <playmidi+0x629>
     8e7: ae 11 de     	ldx	$de11                   ; 0xde11 <end_block9+0xb075>
     8ea: 86 18        	stx	$18                     ; 0x2018 <playmidi+0x62b>
     8ec: ac 12 de     	ldy	$de12                   ; 0xde12 <end_block9+0xb076>
     8ef: ae 13 de     	ldx	$de13                   ; 0xde13 <end_block9+0xb077>
     8f2: e4 14        	cpx	$14                     ; 0x2014 <playmidi+0x627>
     8f4: d0 14        	bne	$90a <bitmapReset+0x83>
     8f6: c4 13        	cpy	$13                     ; 0x2013 <playmidi+0x626>
     8f8: d0 10        	bne	$90a <bitmapReset+0x83>
     8fa: a6 18        	ldx	$18                     ; 0x2018 <playmidi+0x62b>
     8fc: e4 12        	cpx	$12                     ; 0x2012 <playmidi+0x625>
     8fe: d0 0a        	bne	$90a <bitmapReset+0x83>
     900: a6 16        	ldx	$16                     ; 0x2016 <playmidi+0x629>
     902: e4 17        	cpx	$17                     ; 0x2017 <playmidi+0x62a>
     904: d0 04        	bne	$90a <bitmapReset+0x83>
     906: a6 15        	ldx	$15                     ; 0x2015 <playmidi+0x628>
     908: 80 06        	bra	$910 <bitmapReset+0x89>
     90a: a6 15        	ldx	$15                     ; 0x2015 <playmidi+0x628>
     90c: e8           	inx
     90d: d0 01        	bne	$910 <bitmapReset+0x89>
     90f: 1a           	inc
     910: 8e 00 de     	stx	$de00                   ; 0xde00 <end_block9+0xb064>
     913: 8d 01 de     	sta	$de01                   ; 0xde01 <end_block9+0xb065>
     916: 9c 02 de     	stz	$de02                   ; 0xde02 <end_block9+0xb066>
     919: a2 20        	ldx	#$20
     91b: 8e 03 de     	stx	$de03                   ; 0xde03 <end_block9+0xb067>
     91e: ae 10 de     	ldx	$de10                   ; 0xde10 <end_block9+0xb074>
     921: 86 12        	stx	$12                     ; 0x2012 <playmidi+0x625>
     923: ae 11 de     	ldx	$de11                   ; 0xde11 <end_block9+0xb075>
     926: 86 13        	stx	$13                     ; 0x2013 <playmidi+0x626>
     928: ae 12 de     	ldx	$de12                   ; 0xde12 <end_block9+0xb076>
     92b: 86 14        	stx	$14                     ; 0x2014 <playmidi+0x627>
     92d: ae 13 de     	ldx	$de13                   ; 0xde13 <end_block9+0xb077>
     930: 86 15        	stx	$15                     ; 0x2015 <playmidi+0x628>
     932: a9 00        	lda	#$0
     934: 38           	sec
     935: e5 12        	sbc	$12                     ; 0x2012 <playmidi+0x625>
     937: 85 1a        	sta	$1a                     ; 0x201a <playmidi+0x62d>
     939: a9 00        	lda	#$0
     93b: e5 13        	sbc	$13                     ; 0x2013 <playmidi+0x626>
     93d: 85 18        	sta	$18                     ; 0x2018 <playmidi+0x62b>
     93f: a9 08        	lda	#$8
     941: e5 14        	sbc	$14                     ; 0x2014 <playmidi+0x627>
     943: a8           	tay
     944: a9 00        	lda	#$0
     946: e5 15        	sbc	$15                     ; 0x2015 <playmidi+0x628>
     948: 85 16        	sta	$16                     ; 0x2016 <playmidi+0x629>
     94a: a6 18        	ldx	$18                     ; 0x2018 <playmidi+0x62b>
     94c: 86 6a        	stx	$6a                     ; 0x206a <playmidi+0x67d>
     94e: 84 6b        	sty	$6b                     ; 0x206b <playmidi+0x67e>
     950: 85 6c        	sta	$6c                     ; 0x206c <playmidi+0x67f>
     952: a5 1a        	lda	$1a                     ; 0x201a <playmidi+0x62d>
     954: 38           	sec
     955: e5 12        	sbc	$12                     ; 0x2012 <playmidi+0x625>
     957: 85 17        	sta	$17                     ; 0x2017 <playmidi+0x62a>
     959: a5 18        	lda	$18                     ; 0x2018 <playmidi+0x62b>
     95b: e5 13        	sbc	$13                     ; 0x2013 <playmidi+0x626>
     95d: 85 18        	sta	$18                     ; 0x2018 <playmidi+0x62b>
     95f: 98           	tya
     960: e5 14        	sbc	$14                     ; 0x2014 <playmidi+0x627>
     962: 85 19        	sta	$19                     ; 0x2019 <playmidi+0x62c>
     964: a5 16        	lda	$16                     ; 0x2016 <playmidi+0x629>
     966: e5 15        	sbc	$15                     ; 0x2015 <playmidi+0x628>
     968: 85 16        	sta	$16                     ; 0x2016 <playmidi+0x629>
     96a: 38           	sec
     96b: a6 17        	ldx	$17                     ; 0x2017 <playmidi+0x62a>
     96d: 86 6d        	stx	$6d                     ; 0x206d <playmidi+0x680>
     96f: a4 18        	ldy	$18                     ; 0x2018 <playmidi+0x62b>
     971: 84 6e        	sty	$6e                     ; 0x206e <playmidi+0x681>
     973: a6 19        	ldx	$19                     ; 0x2019 <playmidi+0x62c>
     975: 86 6f        	stx	$6f                     ; 0x206f <playmidi+0x682>
     977: 85 70        	sta	$70                     ; 0x2070 <playmidi+0x683>
     979: a5 17        	lda	$17                     ; 0x2017 <playmidi+0x62a>
     97b: e5 12        	sbc	$12                     ; 0x2012 <playmidi+0x625>
     97d: 85 17        	sta	$17                     ; 0x2017 <playmidi+0x62a>
     97f: a5 18        	lda	$18                     ; 0x2018 <playmidi+0x62b>
     981: e5 13        	sbc	$13                     ; 0x2013 <playmidi+0x626>
     983: aa           	tax
     984: a5 19        	lda	$19                     ; 0x2019 <playmidi+0x62c>
     986: e5 14        	sbc	$14                     ; 0x2014 <playmidi+0x627>
     988: 85 13        	sta	$13                     ; 0x2013 <playmidi+0x626>
     98a: a5 16        	lda	$16                     ; 0x2016 <playmidi+0x629>
     98c: e5 15        	sbc	$15                     ; 0x2015 <playmidi+0x628>
     98e: 85 12        	sta	$12                     ; 0x2012 <playmidi+0x625>
     990: a5 17        	lda	$17                     ; 0x2017 <playmidi+0x62a>
     992: 85 71        	sta	$71                     ; 0x2071 <playmidi+0x684>
     994: 86 72        	stx	$72                     ; 0x2072 <playmidi+0x685>
     996: a6 13        	ldx	$13                     ; 0x2013 <playmidi+0x626>
     998: 86 73        	stx	$73                     ; 0x2073 <playmidi+0x686>
     99a: a6 12        	ldx	$12                     ; 0x2012 <playmidi+0x625>
     99c: 86 74        	stx	$74                     ; 0x2074 <playmidi+0x687>
     99e: a6 1a        	ldx	$1a                     ; 0x201a <playmidi+0x62d>
     9a0: 86 69        	stx	$69                     ; 0x2069 <playmidi+0x67c>
     9a2: 64 79        	stz	$79                     ; 0x2079 <playmidi+0x68c>
     9a4: 64 7a        	stz	$7a                     ; 0x207a <playmidi+0x68d>
     9a6: 64 7b        	stz	$7b                     ; 0x207b <playmidi+0x68e>
     9a8: 8e 01 d1     	stx	$d101                   ; 0xd101 <end_block9+0xa365>
     9ab: a6 6a        	ldx	$6a                     ; 0x206a <playmidi+0x67d>
     9ad: 8e 02 d1     	stx	$d102                   ; 0xd102 <end_block9+0xa366>
     9b0: a6 6b        	ldx	$6b                     ; 0x206b <playmidi+0x67e>
     9b2: 8e 03 d1     	stx	$d103                   ; 0xd103 <end_block9+0xa367>
     9b5: a6 6d        	ldx	$6d                     ; 0x206d <playmidi+0x680>
     9b7: 8e 09 d1     	stx	$d109                   ; 0xd109 <end_block9+0xa36d>
     9ba: a6 6e        	ldx	$6e                     ; 0x206e <playmidi+0x681>
     9bc: 8e 0a d1     	stx	$d10a                   ; 0xd10a <end_block9+0xa36e>
     9bf: a6 6f        	ldx	$6f                     ; 0x206f <playmidi+0x682>
     9c1: 8e 0b d1     	stx	$d10b                   ; 0xd10b <end_block9+0xa36f>
     9c4: a6 71        	ldx	$71                     ; 0x2071 <playmidi+0x684>
     9c6: 8e 11 d1     	stx	$d111                   ; 0xd111 <end_block9+0xa375>
     9c9: a6 72        	ldx	$72                     ; 0x2072 <playmidi+0x685>
     9cb: 8e 12 d1     	stx	$d112                   ; 0xd112 <end_block9+0xa376>
     9ce: a6 73        	ldx	$73                     ; 0x2073 <playmidi+0x686>
     9d0: 8e 13 d1     	stx	$d113                   ; 0xd113 <end_block9+0xa377>
     9d3: 9c 00 d1     	stz	$d100                   ; 0xd100 <end_block9+0xa364>
     9d6: 9c 08 d1     	stz	$d108                   ; 0xd108 <end_block9+0xa36c>
     9d9: 9c 10 d1     	stz	$d110                   ; 0xd110 <end_block9+0xa374>
     9dc: 60           	rts

000009dd <FAR_PEEK>:
     9dd: 85 14        	sta	$14                     ; 0x2014 <playmidi+0x627>
     9df: da           	phx
     9e0: 7a           	ply
     9e1: a5 12        	lda	$12                     ; 0x2012 <playmidi+0x625>
     9e3: a6 0f        	ldx	$f                      ; 0x200f <playmidi+0x622>
     9e5: 78           	sei
     9e6: 84 12        	sty	$12                     ; 0x2012 <playmidi+0x625>
     9e8: 06 12        	asl	$12                     ; 0x2012 <playmidi+0x625>
     9ea: 2a           	rol
     9eb: 06 12        	asl	$12                     ; 0x2012 <playmidi+0x625>
     9ed: 2a           	rol
     9ee: 06 12        	asl	$12                     ; 0x2012 <playmidi+0x625>
     9f0: 2a           	rol
     9f1: 85 0f        	sta	$f                      ; 0x200f <playmidi+0x622>
     9f3: 98           	tya
     9f4: 09 e0        	ora	#$e0
     9f6: 85 15        	sta	$15                     ; 0x2015 <playmidi+0x628>
     9f8: b2 14        	lda	($14)                   ; 0x2014 <playmidi+0x627>
     9fa: 86 0f        	stx	$f                      ; 0x200f <playmidi+0x622>
     9fc: 58           	cli
     9fd: 60           	rts

000009fe <main>:
     9fe: 20 98 05     	jsr	$598 <f256Init>
     a01: 20 22 0a     	jsr	$a22 <f256main>
     a04: 78           	sei
     a05: a2 07        	ldx	#$7
     a07: 86 0f        	stx	$f                      ; 0x200f <playmidi+0x622>
     a09: a2 de        	ldx	#$de
     a0b: 8e a2 d6     	stx	$d6a2                   ; 0xd6a2 <end_block9+0xa906>
     a0e: a2 ad        	ldx	#$ad
     a10: 8e a3 d6     	stx	$d6a3                   ; 0xd6a3 <end_block9+0xa907>
     a13: a2 f0        	ldx	#$f0
     a15: 8e a0 d6     	stx	$d6a0                   ; 0xd6a0 <end_block9+0xa904>
     a18: 9c a0 d6     	stz	$d6a0                   ; 0xd6a0 <end_block9+0xa904>
     a1b: 6c fc ff     	jmp	($fffc)                 ; 0xfffc <end_block9+0xd260>
     a1e: a2 00        	ldx	#$0
     a20: 8a           	txa
     a21: 60           	rts

00000a22 <f256main>:
     a22: 18           	clc
     a23: a5 10        	lda	$10                     ; 0x2010 <playmidi+0x623>
     a25: 69 ff        	adc	#$ff
     a27: 85 10        	sta	$10                     ; 0x2010 <playmidi+0x623>
     a29: a5 11        	lda	$11                     ; 0x2011 <playmidi+0x624>
     a2b: 69 ff        	adc	#$ff
     a2d: 85 11        	sta	$11                     ; 0x2011 <playmidi+0x624>
     a2f: 20 f3 25     	jsr	$25f3 <openAllCODEC>
     a32: 64 01        	stz	$1                      ; 0x2001 <playmidi+0x614>
     a34: a2 01        	ldx	#$1
     a36: 8e 00 d0     	stx	$d000                   ; 0xd000 <end_block9+0xa264>
     a39: a2 04        	ldx	#$4
     a3b: 8e 01 d0     	stx	$d001                   ; 0xd001 <end_block9+0xa265>
     a3e: a2 9b        	ldx	#$9b
     a40: 86 12        	stx	$12                     ; 0x2012 <playmidi+0x625>
     a42: a2 2c        	ldx	#$2c
     a44: 86 13        	stx	$13                     ; 0x2013 <playmidi+0x626>
     a46: 64 14        	stz	$14                     ; 0x2014 <playmidi+0x627>
     a48: a2 80        	ldx	#$80
     a4a: a9 00        	lda	#$0
     a4c: 20 a2 2b     	jsr	$2ba2 <__memset>
     a4f: a2 1b        	ldx	#$1b
     a51: 86 12        	stx	$12                     ; 0x2012 <playmidi+0x625>
     a53: a2 2d        	ldx	#$2d
     a55: 86 13        	stx	$13                     ; 0x2013 <playmidi+0x626>
     a57: 64 14        	stz	$14                     ; 0x2014 <playmidi+0x627>
     a59: a2 80        	ldx	#$80
     a5b: a9 00        	lda	#$0
     a5d: 20 a2 2b     	jsr	$2ba2 <__memset>
     a60: ad a7 d6     	lda	$d6a7                   ; 0xd6a7 <end_block9+0xa90b>
     a63: 29 3f        	and	#$3f
     a65: c9 22        	cmp	#$22
     a67: f0 04        	beq	$a6d <f256main+0x4b>
     a69: c9 11        	cmp	#$11
     a6b: d0 06        	bne	$a73 <f256main+0x51>
     a6d: 20 0a 26     	jsr	$260a <boostVSClock>
     a70: 20 28 26     	jsr	$2628 <initRTMIDI>
     a73: a9 00        	lda	#$0
     a75: 20 da 0d     	jsr	$dda <resetInstruments>
     a78: a9 00        	lda	#$0
     a7a: 20 c6 0d     	jsr	$dc6 <midiShutUp>
     a7d: a2 01        	ldx	#$1
     a7f: 86 8b        	stx	$8b                     ; 0x208b <playmidi+0x69e>
     a81: 64 8d        	stz	$8d                     ; 0x208d <playmidi+0x6a0>
     a83: 64 88        	stz	$88                     ; 0x2088 <playmidi+0x69b>
     a85: e8           	inx
     a86: 86 8a        	stx	$8a                     ; 0x208a <playmidi+0x69d>
     a88: a2 05        	ldx	#$5
     a8a: 86 12        	stx	$12                     ; 0x2012 <playmidi+0x625>
     a8c: 64 13        	stz	$13                     ; 0x2013 <playmidi+0x626>
     a8e: a2 00        	ldx	#$0
     a90: 8a           	txa
     a91: 20 78 10     	jsr	$1078 <playEmbeddedDim>
     a94: a2 e3        	ldx	#$e3
     a96: 8e a0 d6     	stx	$d6a0                   ; 0xd6a0 <end_block9+0xa904>
     a99: a2 d6        	ldx	#$d6
     a9b: a0 a7        	ldy	#$a7
     a9d: 98           	tya
     a9e: 18           	clc
     a9f: 69 03        	adc	#$3
     aa1: 85 12        	sta	$12                     ; 0x2012 <playmidi+0x625>
     aa3: 8a           	txa
     aa4: 69 00        	adc	#$0
     aa6: 85 13        	sta	$13                     ; 0x2013 <playmidi+0x626>
     aa8: 98           	tya
     aa9: 18           	clc
     aaa: 69 06        	adc	#$6
     aac: 85 14        	sta	$14                     ; 0x2014 <playmidi+0x627>
     aae: 8a           	txa
     aaf: 69 00        	adc	#$0
     ab1: 85 15        	sta	$15                     ; 0x2015 <playmidi+0x628>
     ab3: 98           	tya
     ab4: 18           	clc
     ab5: 69 0c        	adc	#$c
     ab7: 85 18        	sta	$18                     ; 0x2018 <playmidi+0x62b>
     ab9: 8a           	txa
     aba: 69 00        	adc	#$0
     abc: 85 19        	sta	$19                     ; 0x2019 <playmidi+0x62c>
     abe: 84 16        	sty	$16                     ; 0x2016 <playmidi+0x629>
     ac0: 86 17        	stx	$17                     ; 0x2017 <playmidi+0x62a>
     ac2: a9 00        	lda	#$0
     ac4: 92 16        	sta	($16)                   ; 0x2016 <playmidi+0x629>
     ac6: 92 12        	sta	($12)                   ; 0x2012 <playmidi+0x625>
     ac8: 92 14        	sta	($14)                   ; 0x2014 <playmidi+0x627>
     aca: 5a           	phy
     acb: a4 18        	ldy	$18                     ; 0x2018 <playmidi+0x62b>
     acd: 84 12        	sty	$12                     ; 0x2012 <playmidi+0x625>
     acf: a4 19        	ldy	$19                     ; 0x2019 <playmidi+0x62c>
     ad1: 84 13        	sty	$13                     ; 0x2013 <playmidi+0x626>
     ad3: 7a           	ply
     ad4: 92 12        	sta	($12)                   ; 0x2012 <playmidi+0x625>
     ad6: c8           	iny
     ad7: d0 01        	bne	$ada <f256main+0xb8>
     ad9: e8           	inx
     ada: c0 aa        	cpy	#$aa
     adc: d0 bf        	bne	$a9d <f256main+0x7b>
     ade: 64 12        	stz	$12                     ; 0x2012 <playmidi+0x625>
     ae0: a2 00        	ldx	#$0
     ae2: 20 04 28     	jsr	$2804 <setTimer0>
     ae5: 20 f2 27     	jsr	$27f2 <wipeStatus>
     ae8: 64 12        	stz	$12                     ; 0x2012 <playmidi+0x625>
     aea: a9 00        	lda	#$0
     aec: a8           	tay
     aed: 91 10        	sta	($10),y                 ; 0x2010 <playmidi+0x623>
     aef: 20 ba 27     	jsr	$27ba <initProgress>
     af2: a2 05        	ldx	#$5
     af4: 86 12        	stx	$12                     ; 0x2012 <playmidi+0x625>
     af6: 64 13        	stz	$13                     ; 0x2013 <playmidi+0x626>
     af8: a2 00        	ldx	#$0
     afa: 8a           	txa
     afb: 20 78 10     	jsr	$1078 <playEmbeddedDim>
     afe: a6 87        	ldx	$87                     ; 0x2087 <playmidi+0x69a>
     b00: d0 07        	bne	$b09 <f256main+0xe7>
     b02: a2 01        	ldx	#$1
     b04: 8a           	txa
     b05: a0 00        	ldy	#$0
     b07: 91 10        	sta	($10),y                 ; 0x2010 <playmidi+0x623>
     b09: a0 00        	ldy	#$0
     b0b: b1 10        	lda	($10),y                 ; 0x2010 <playmidi+0x623>
     b0d: f0 e0        	beq	$aef <f256main+0xcd>
     b0f: a9 01        	lda	#$1
     b11: 20 a3 0d     	jsr	$da3 <midiShutAllChannels>
     b14: a9 00        	lda	#$0
     b16: 20 a3 0d     	jsr	$da3 <midiShutAllChannels>
     b19: a2 00        	ldx	#$0
     b1b: 8a           	txa
     b1c: 48           	pha
     b1d: 18           	clc
     b1e: a5 10        	lda	$10                     ; 0x2010 <playmidi+0x623>
     b20: 69 01        	adc	#$1
     b22: 85 10        	sta	$10                     ; 0x2010 <playmidi+0x623>
     b24: a5 11        	lda	$11                     ; 0x2011 <playmidi+0x624>
     b26: 69 00        	adc	#$0
     b28: 85 11        	sta	$11                     ; 0x2011 <playmidi+0x624>
     b2a: 68           	pla
     b2b: 60           	rts

00000b2c <textGotoXY>:
     b2c: 85 67        	sta	$67                     ; 0x2067 <playmidi+0x67a>
     b2e: 8d 14 d0     	sta	$d014                   ; 0xd014 <end_block9+0xa278>
     b31: 9c 15 d0     	stz	$d015                   ; 0xd015 <end_block9+0xa279>
     b34: 86 68        	stx	$68                     ; 0x2068 <playmidi+0x67b>
     b36: 8e 16 d0     	stx	$d016                   ; 0xd016 <end_block9+0xa27a>
     b39: 9c 17 d0     	stz	$d017                   ; 0xd017 <end_block9+0xa27b>
     b3c: 60           	rts

00000b3d <textPrint>:
     b3d: a6 12        	ldx	$12                     ; 0x2012 <playmidi+0x625>
     b3f: 86 9c        	stx	$9c                     ; 0x209c <playmidi+0x6af>
     b41: a6 13        	ldx	$13                     ; 0x2013 <playmidi+0x626>
     b43: 86 9d        	stx	$9d                     ; 0x209d <playmidi+0x6b0>
     b45: a2 00        	ldx	#$0
     b47: 86 9e        	stx	$9e                     ; 0x209e <playmidi+0x6b1>
     b49: a2 c0        	ldx	#$c0
     b4b: 86 9f        	stx	$9f                     ; 0x209f <playmidi+0x6b2>
     b4d: a6 01        	ldx	$1                      ; 0x2001 <playmidi+0x614>
     b4f: 86 a3        	stx	$a3                     ; 0x20a3 <playmidi+0x6b6>
     b51: a6 60        	ldx	$60                     ; 0x2060 <playmidi+0x673>
     b53: a4 68        	ldy	$68                     ; 0x2068 <playmidi+0x67b>
     b55: 8e 00 de     	stx	$de00                   ; 0xde00 <end_block9+0xb064>
     b58: 9c 01 de     	stz	$de01                   ; 0xde01 <end_block9+0xb065>
     b5b: 8c 02 de     	sty	$de02                   ; 0xde02 <end_block9+0xb066>
     b5e: 9c 03 de     	stz	$de03                   ; 0xde03 <end_block9+0xb067>
     b61: ae 10 de     	ldx	$de10                   ; 0xde10 <end_block9+0xb074>
     b64: 86 12        	stx	$12                     ; 0x2012 <playmidi+0x625>
     b66: ac 11 de     	ldy	$de11                   ; 0xde11 <end_block9+0xb075>
     b69: ad 12 de     	lda	$de12                   ; 0xde12 <end_block9+0xb076>
     b6c: ae 13 de     	ldx	$de13                   ; 0xde13 <end_block9+0xb077>
     b6f: 86 13        	stx	$13                     ; 0x2013 <playmidi+0x626>
     b71: 9c 08 de     	stz	$de08                   ; 0xde08 <end_block9+0xb06c>
     b74: a2 c0        	ldx	#$c0
     b76: 8e 09 de     	stx	$de09                   ; 0xde09 <end_block9+0xb06d>
     b79: 9c 0a de     	stz	$de0a                   ; 0xde0a <end_block9+0xb06e>
     b7c: 9c 0b de     	stz	$de0b                   ; 0xde0b <end_block9+0xb06f>
     b7f: a6 12        	ldx	$12                     ; 0x2012 <playmidi+0x625>
     b81: 8e 0c de     	stx	$de0c                   ; 0xde0c <end_block9+0xb070>
     b84: 8c 0d de     	sty	$de0d                   ; 0xde0d <end_block9+0xb071>
     b87: 8d 0e de     	sta	$de0e                   ; 0xde0e <end_block9+0xb072>
     b8a: a6 13        	ldx	$13                     ; 0x2013 <playmidi+0x626>
     b8c: 8e 0f de     	stx	$de0f                   ; 0xde0f <end_block9+0xb073>
     b8f: ae 18 de     	ldx	$de18                   ; 0xde18 <end_block9+0xb07c>
     b92: ac 19 de     	ldy	$de19                   ; 0xde19 <end_block9+0xb07d>
     b95: ad 1a de     	lda	$de1a                   ; 0xde1a <end_block9+0xb07e>
     b98: ad 1b de     	lda	$de1b                   ; 0xde1b <end_block9+0xb07f>
     b9b: 86 12        	stx	$12                     ; 0x2012 <playmidi+0x625>
     b9d: 84 13        	sty	$13                     ; 0x2013 <playmidi+0x626>
     b9f: 64 a0        	stz	$a0                     ; 0x20a0 <playmidi+0x6b3>
     ba1: 64 a1        	stz	$a1                     ; 0x20a1 <playmidi+0x6b4>
     ba3: 80 00        	bra	$ba5 <textPrint+0x68>
     ba5: a5 9c        	lda	$9c                     ; 0x209c <playmidi+0x6af>
     ba7: 18           	clc
     ba8: 65 a0        	adc	$a0                     ; 0x20a0 <playmidi+0x6b3>
     baa: 85 14        	sta	$14                     ; 0x2014 <playmidi+0x627>
     bac: a5 9d        	lda	$9d                     ; 0x209d <playmidi+0x6b0>
     bae: 65 a1        	adc	$a1                     ; 0x20a1 <playmidi+0x6b4>
     bb0: 85 15        	sta	$15                     ; 0x2015 <playmidi+0x628>
     bb2: b2 14        	lda	($14)                   ; 0x2014 <playmidi+0x627>
     bb4: c9 0a        	cmp	#$a
     bb6: f0 29        	beq	$be1 <textPrint+0xa4>
     bb8: c9 0d        	cmp	#$d
     bba: f0 25        	beq	$be1 <textPrint+0xa4>
     bbc: aa           	tax
     bbd: d0 03        	bne	$bc2 <textPrint+0x85>
     bbf: 4c 80 0d     	jmp	$d80 <textPrint+0x243>
     bc2: a2 03        	ldx	#$3
     bc4: 86 01        	stx	$1                      ; 0x2001 <playmidi+0x614>
     bc6: a5 62        	lda	$62                     ; 0x2062 <playmidi+0x675>
     bc8: a4 67        	ldy	$67                     ; 0x2067 <playmidi+0x67a>
     bca: 91 12        	sta	($12),y                 ; 0x2012 <playmidi+0x625>
     bcc: ca           	dex
     bcd: 86 01        	stx	$1                      ; 0x2001 <playmidi+0x614>
     bcf: b2 14        	lda	($14)                   ; 0x2014 <playmidi+0x627>
     bd1: a4 67        	ldy	$67                     ; 0x2067 <playmidi+0x67a>
     bd3: 91 12        	sta	($12),y                 ; 0x2012 <playmidi+0x625>
     bd5: a6 67        	ldx	$67                     ; 0x2067 <playmidi+0x67a>
     bd7: e8           	inx
     bd8: e6 67        	inc	$67                     ; 0x2067 <playmidi+0x67a>
     bda: e4 60        	cpx	$60                     ; 0x2060 <playmidi+0x673>
     bdc: f0 03        	beq	$be1 <textPrint+0xa4>
     bde: 4c b2 0c     	jmp	$cb2 <textPrint+0x175>
     be1: 64 67        	stz	$67                     ; 0x2067 <playmidi+0x67a>
     be3: a6 68        	ldx	$68                     ; 0x2068 <playmidi+0x67b>
     be5: e8           	inx
     be6: e6 68        	inc	$68                     ; 0x2068 <playmidi+0x67b>
     be8: a4 61        	ldy	$61                     ; 0x2061 <playmidi+0x674>
     bea: 84 a2        	sty	$a2                     ; 0x20a2 <playmidi+0x6b5>
     bec: e4 a2        	cpx	$a2                     ; 0x20a2 <playmidi+0x6b5>
     bee: f0 03        	beq	$bf3 <textPrint+0xb6>
     bf0: 4c a5 0c     	jmp	$ca5 <textPrint+0x168>
     bf3: a6 60        	ldx	$60                     ; 0x2060 <playmidi+0x673>
     bf5: 86 a6        	stx	$a6                     ; 0x20a6 <playmidi+0x6b9>
     bf7: 98           	tya
     bf8: a2 00        	ldx	#$0
     bfa: 3a           	dec
     bfb: c9 ff        	cmp	#$ff
     bfd: d0 01        	bne	$c00 <textPrint+0xc3>
     bff: ca           	dex
     c00: a4 a6        	ldy	$a6                     ; 0x20a6 <playmidi+0x6b9>
     c02: 84 12        	sty	$12                     ; 0x2012 <playmidi+0x625>
     c04: 64 13        	stz	$13                     ; 0x2013 <playmidi+0x626>
     c06: 20 c2 2b     	jsr	$2bc2 <__mulhi3>
     c09: 85 a4        	sta	$a4                     ; 0x20a4 <playmidi+0x6b7>
     c0b: 86 a5        	stx	$a5                     ; 0x20a5 <playmidi+0x6b8>
     c0d: a2 03        	ldx	#$3
     c0f: 86 01        	stx	$1                      ; 0x2001 <playmidi+0x614>
     c11: 38           	sec
     c12: a9 01        	lda	#$1
     c14: e5 a2        	sbc	$a2                     ; 0x20a2 <playmidi+0x6b5>
     c16: a8           	tay
     c17: 64 a2        	stz	$a2                     ; 0x20a2 <playmidi+0x6b5>
     c19: a9 00        	lda	#$0
     c1b: e9 00        	sbc	#$0
     c1d: a6 a6        	ldx	$a6                     ; 0x20a6 <playmidi+0x6b9>
     c1f: 86 12        	stx	$12                     ; 0x2012 <playmidi+0x625>
     c21: 64 13        	stz	$13                     ; 0x2013 <playmidi+0x626>
     c23: aa           	tax
     c24: 98           	tya
     c25: 20 c2 2b     	jsr	$2bc2 <__mulhi3>
     c28: 85 1a        	sta	$1a                     ; 0x201a <playmidi+0x62d>
     c2a: a9 00        	lda	#$0
     c2c: 80 1d        	bra	$c4b <textPrint+0x10e>
     c2e: 64 14        	stz	$14                     ; 0x2014 <playmidi+0x627>
     c30: 64 15        	stz	$15                     ; 0x2015 <playmidi+0x628>
     c32: a0 02        	ldy	#$2
     c34: 84 01        	sty	$1                      ; 0x2001 <playmidi+0x614>
     c36: a5 12        	lda	$12                     ; 0x2012 <playmidi+0x625>
     c38: e6 a2        	inc	$a2                     ; 0x20a2 <playmidi+0x6b5>
     c3a: d0 01        	bne	$c3d <textPrint+0x100>
     c3c: 1a           	inc
     c3d: a4 12        	ldy	$12                     ; 0x2012 <playmidi+0x625>
     c3f: f0 03        	beq	$c44 <textPrint+0x107>
     c41: 4c be 0c     	jmp	$cbe <textPrint+0x181>
     c44: a4 13        	ldy	$13                     ; 0x2013 <playmidi+0x626>
     c46: f0 03        	beq	$c4b <textPrint+0x10e>
     c48: 4c be 0c     	jmp	$cbe <textPrint+0x181>
     c4b: 85 12        	sta	$12                     ; 0x2012 <playmidi+0x625>
     c4d: a4 a2        	ldy	$a2                     ; 0x20a2 <playmidi+0x6b5>
     c4f: 84 13        	sty	$13                     ; 0x2013 <playmidi+0x626>
     c51: a4 a4        	ldy	$a4                     ; 0x20a4 <playmidi+0x6b7>
     c53: c0 01        	cpy	#$1
     c55: a5 a5        	lda	$a5                     ; 0x20a5 <playmidi+0x6b8>
     c57: e9 00        	sbc	#$0
     c59: 50 02        	bvc	$c5d <textPrint+0x120>
     c5b: 49 80        	eor	#$80
     c5d: a8           	tay
     c5e: 30 ce        	bmi	$c2e <textPrint+0xf1>
     c60: 64 15        	stz	$15                     ; 0x2015 <playmidi+0x628>
     c62: a0 00        	ldy	#$0
     c64: 84 18        	sty	$18                     ; 0x2018 <playmidi+0x62b>
     c66: a0 c0        	ldy	#$c0
     c68: 84 19        	sty	$19                     ; 0x2019 <playmidi+0x62c>
     c6a: 64 17        	stz	$17                     ; 0x2017 <playmidi+0x62a>
     c6c: a4 17        	ldy	$17                     ; 0x2017 <playmidi+0x62a>
     c6e: 84 14        	sty	$14                     ; 0x2014 <playmidi+0x627>
     c70: a4 15        	ldy	$15                     ; 0x2015 <playmidi+0x628>
     c72: 84 16        	sty	$16                     ; 0x2016 <playmidi+0x629>
     c74: a4 60        	ldy	$60                     ; 0x2060 <playmidi+0x673>
     c76: b1 18        	lda	($18),y                 ; 0x2018 <playmidi+0x62b>
     c78: 92 18        	sta	($18)                   ; 0x2018 <playmidi+0x62b>
     c7a: a0 ff        	ldy	#$ff
     c7c: c6 15        	dec	$15                     ; 0x2015 <playmidi+0x628>
     c7e: c4 15        	cpy	$15                     ; 0x2015 <playmidi+0x628>
     c80: d0 02        	bne	$c84 <textPrint+0x147>
     c82: c6 17        	dec	$17                     ; 0x2017 <playmidi+0x62a>
     c84: e6 18        	inc	$18                     ; 0x2018 <playmidi+0x62b>
     c86: d0 02        	bne	$c8a <textPrint+0x14d>
     c88: e6 19        	inc	$19                     ; 0x2019 <playmidi+0x62c>
     c8a: e4 17        	cpx	$17                     ; 0x2017 <playmidi+0x62a>
     c8c: d0 de        	bne	$c6c <textPrint+0x12f>
     c8e: a4 1a        	ldy	$1a                     ; 0x201a <playmidi+0x62d>
     c90: c4 15        	cpy	$15                     ; 0x2015 <playmidi+0x628>
     c92: d0 d8        	bne	$c6c <textPrint+0x12f>
     c94: 38           	sec
     c95: a9 01        	lda	#$1
     c97: e5 16        	sbc	$16                     ; 0x2016 <playmidi+0x629>
     c99: a8           	tay
     c9a: a9 00        	lda	#$0
     c9c: e5 14        	sbc	$14                     ; 0x2014 <playmidi+0x627>
     c9e: 84 14        	sty	$14                     ; 0x2014 <playmidi+0x627>
     ca0: 85 15        	sta	$15                     ; 0x2015 <playmidi+0x628>
     ca2: 4c 32 0c     	jmp	$c32 <textPrint+0xf5>
     ca5: a5 12        	lda	$12                     ; 0x2012 <playmidi+0x625>
     ca7: 18           	clc
     ca8: 65 60        	adc	$60                     ; 0x2060 <playmidi+0x673>
     caa: 85 12        	sta	$12                     ; 0x2012 <playmidi+0x625>
     cac: a5 13        	lda	$13                     ; 0x2013 <playmidi+0x626>
     cae: 69 00        	adc	#$0
     cb0: 85 13        	sta	$13                     ; 0x2013 <playmidi+0x626>
     cb2: e6 a0        	inc	$a0                     ; 0x20a0 <playmidi+0x6b3>
     cb4: f0 03        	beq	$cb9 <textPrint+0x17c>
     cb6: 4c a5 0b     	jmp	$ba5 <textPrint+0x68>
     cb9: e6 a1        	inc	$a1                     ; 0x20a1 <playmidi+0x6b4>
     cbb: 4c a5 0b     	jmp	$ba5 <textPrint+0x68>
     cbe: a9 00        	lda	#$0
     cc0: 18           	clc
     cc1: 65 14        	adc	$14                     ; 0x2014 <playmidi+0x627>
     cc3: 85 12        	sta	$12                     ; 0x2012 <playmidi+0x625>
     cc5: a9 c0        	lda	#$c0
     cc7: 65 15        	adc	$15                     ; 0x2015 <playmidi+0x628>
     cc9: 85 13        	sta	$13                     ; 0x2013 <playmidi+0x626>
     ccb: a2 03        	ldx	#$3
     ccd: 86 01        	stx	$1                      ; 0x2001 <playmidi+0x614>
     ccf: a6 60        	ldx	$60                     ; 0x2060 <playmidi+0x673>
     cd1: f0 37        	beq	$d0a <textPrint+0x1cd>
     cd3: a9 01        	lda	#$1
     cd5: 18           	clc
     cd6: 65 14        	adc	$14                     ; 0x2014 <playmidi+0x627>
     cd8: 85 17        	sta	$17                     ; 0x2017 <playmidi+0x62a>
     cda: a9 c0        	lda	#$c0
     cdc: 65 15        	adc	$15                     ; 0x2015 <playmidi+0x628>
     cde: a8           	tay
     cdf: 64 16        	stz	$16                     ; 0x2016 <playmidi+0x629>
     ce1: a6 12        	ldx	$12                     ; 0x2012 <playmidi+0x625>
     ce3: 86 18        	stx	$18                     ; 0x2018 <playmidi+0x62b>
     ce5: a6 13        	ldx	$13                     ; 0x2013 <playmidi+0x626>
     ce7: 86 19        	stx	$19                     ; 0x2019 <playmidi+0x62c>
     ce9: a5 17        	lda	$17                     ; 0x2017 <playmidi+0x62a>
     ceb: 18           	clc
     cec: 65 16        	adc	$16                     ; 0x2016 <playmidi+0x629>
     cee: 85 1a        	sta	$1a                     ; 0x201a <playmidi+0x62d>
     cf0: 98           	tya
     cf1: 69 00        	adc	#$0
     cf3: 85 1b        	sta	$1b                     ; 0x201b <playmidi+0x62e>
     cf5: a5 62        	lda	$62                     ; 0x2062 <playmidi+0x675>
     cf7: 92 18        	sta	($18)                   ; 0x2018 <playmidi+0x62b>
     cf9: a6 16        	ldx	$16                     ; 0x2016 <playmidi+0x629>
     cfb: e8           	inx
     cfc: 86 16        	stx	$16                     ; 0x2016 <playmidi+0x629>
     cfe: e4 60        	cpx	$60                     ; 0x2060 <playmidi+0x673>
     d00: a6 1a        	ldx	$1a                     ; 0x201a <playmidi+0x62d>
     d02: 86 18        	stx	$18                     ; 0x2018 <playmidi+0x62b>
     d04: a6 1b        	ldx	$1b                     ; 0x201b <playmidi+0x62e>
     d06: 86 19        	stx	$19                     ; 0x2019 <playmidi+0x62c>
     d08: 90 df        	bcc	$ce9 <textPrint+0x1ac>
     d0a: a2 02        	ldx	#$2
     d0c: 86 01        	stx	$1                      ; 0x2001 <playmidi+0x614>
     d0e: a6 60        	ldx	$60                     ; 0x2060 <playmidi+0x673>
     d10: f0 2f        	beq	$d41 <textPrint+0x204>
     d12: a9 01        	lda	#$1
     d14: 18           	clc
     d15: 65 14        	adc	$14                     ; 0x2014 <playmidi+0x627>
     d17: 85 18        	sta	$18                     ; 0x2018 <playmidi+0x62b>
     d19: a9 c0        	lda	#$c0
     d1b: 65 15        	adc	$15                     ; 0x2015 <playmidi+0x628>
     d1d: a8           	tay
     d1e: 64 14        	stz	$14                     ; 0x2014 <playmidi+0x627>
     d20: a5 18        	lda	$18                     ; 0x2018 <playmidi+0x62b>
     d22: 18           	clc
     d23: 65 14        	adc	$14                     ; 0x2014 <playmidi+0x627>
     d25: 85 16        	sta	$16                     ; 0x2016 <playmidi+0x629>
     d27: 98           	tya
     d28: 69 00        	adc	#$0
     d2a: 85 17        	sta	$17                     ; 0x2017 <playmidi+0x62a>
     d2c: a9 20        	lda	#$20
     d2e: 92 12        	sta	($12)                   ; 0x2012 <playmidi+0x625>
     d30: a6 14        	ldx	$14                     ; 0x2014 <playmidi+0x627>
     d32: e8           	inx
     d33: 86 14        	stx	$14                     ; 0x2014 <playmidi+0x627>
     d35: e4 60        	cpx	$60                     ; 0x2060 <playmidi+0x673>
     d37: a6 16        	ldx	$16                     ; 0x2016 <playmidi+0x629>
     d39: 86 12        	stx	$12                     ; 0x2012 <playmidi+0x625>
     d3b: a6 17        	ldx	$17                     ; 0x2017 <playmidi+0x62a>
     d3d: 86 13        	stx	$13                     ; 0x2013 <playmidi+0x626>
     d3f: 90 df        	bcc	$d20 <textPrint+0x1e3>
     d41: c6 68        	dec	$68                     ; 0x2068 <playmidi+0x67b>
     d43: a6 61        	ldx	$61                     ; 0x2061 <playmidi+0x674>
     d45: a0 00        	ldy	#$0
     d47: ca           	dex
     d48: e0 ff        	cpx	#$ff
     d4a: d0 01        	bne	$d4d <textPrint+0x210>
     d4c: 88           	dey
     d4d: 9c 08 de     	stz	$de08                   ; 0xde08 <end_block9+0xb06c>
     d50: a9 c0        	lda	#$c0
     d52: 8d 09 de     	sta	$de09                   ; 0xde09 <end_block9+0xb06d>
     d55: 9c 0a de     	stz	$de0a                   ; 0xde0a <end_block9+0xb06e>
     d58: 9c 0b de     	stz	$de0b                   ; 0xde0b <end_block9+0xb06f>
     d5b: 8e 0c de     	stx	$de0c                   ; 0xde0c <end_block9+0xb070>
     d5e: 8c 0d de     	sty	$de0d                   ; 0xde0d <end_block9+0xb071>
     d61: 9c 0e de     	stz	$de0e                   ; 0xde0e <end_block9+0xb072>
     d64: 9c 0f de     	stz	$de0f                   ; 0xde0f <end_block9+0xb073>
     d67: ae 18 de     	ldx	$de18                   ; 0xde18 <end_block9+0xb07c>
     d6a: ac 19 de     	ldy	$de19                   ; 0xde19 <end_block9+0xb07d>
     d6d: ad 1a de     	lda	$de1a                   ; 0xde1a <end_block9+0xb07e>
     d70: ad 1b de     	lda	$de1b                   ; 0xde1b <end_block9+0xb07f>
     d73: 86 12        	stx	$12                     ; 0x2012 <playmidi+0x625>
     d75: 84 13        	sty	$13                     ; 0x2013 <playmidi+0x626>
     d77: e6 a0        	inc	$a0                     ; 0x20a0 <playmidi+0x6b3>
     d79: d0 02        	bne	$d7d <textPrint+0x240>
     d7b: e6 a1        	inc	$a1                     ; 0x20a1 <playmidi+0x6b4>
     d7d: 4c a5 0b     	jmp	$ba5 <textPrint+0x68>
     d80: a6 a3        	ldx	$a3                     ; 0x20a3 <playmidi+0x6b6>
     d82: 86 01        	stx	$1                      ; 0x2001 <playmidi+0x614>
     d84: a6 67        	ldx	$67                     ; 0x2067 <playmidi+0x67a>
     d86: a4 68        	ldy	$68                     ; 0x2068 <playmidi+0x67b>
     d88: 8e 14 d0     	stx	$d014                   ; 0xd014 <end_block9+0xa278>
     d8b: 9c 15 d0     	stz	$d015                   ; 0xd015 <end_block9+0xa279>
     d8e: 84 68        	sty	$68                     ; 0x2068 <playmidi+0x67b>
     d90: 8c 16 d0     	sty	$d016                   ; 0xd016 <end_block9+0xa27a>
     d93: 9c 17 d0     	stz	$d017                   ; 0xd017 <end_block9+0xa27b>
     d96: 60           	rts

00000d97 <textSetColor>:
     d97: 86 12        	stx	$12                     ; 0x2012 <playmidi+0x625>
     d99: 0a           	asl
     d9a: 0a           	asl
     d9b: 0a           	asl
     d9c: 0a           	asl
     d9d: 18           	clc
     d9e: 65 12        	adc	$12                     ; 0x2012 <playmidi+0x625>
     da0: 85 62        	sta	$62                     ; 0x2062 <playmidi+0x675>
     da2: 60           	rts

00000da3 <midiShutAllChannels>:
     da3: aa           	tax
     da4: f0 04        	beq	$daa <midiShutAllChannels+0x7>
     da6: a2 b1        	ldx	#$b1
     da8: 80 02        	bra	$dac <midiShutAllChannels+0x9>
     daa: a2 a1        	ldx	#$a1
     dac: 86 12        	stx	$12                     ; 0x2012 <playmidi+0x625>
     dae: a2 dd        	ldx	#$dd
     db0: 86 13        	stx	$13                     ; 0x2013 <playmidi+0x626>
     db2: a9 b0        	lda	#$b0
     db4: 92 12        	sta	($12)                   ; 0x2012 <playmidi+0x625>
     db6: aa           	tax
     db7: a9 7b        	lda	#$7b
     db9: 92 12        	sta	($12)                   ; 0x2012 <playmidi+0x625>
     dbb: a9 00        	lda	#$0
     dbd: 92 12        	sta	($12)                   ; 0x2012 <playmidi+0x625>
     dbf: e8           	inx
     dc0: 8a           	txa
     dc1: e0 c0        	cpx	#$c0
     dc3: d0 ef        	bne	$db4 <midiShutAllChannels+0x11>
     dc5: 60           	rts

00000dc6 <midiShutUp>:
     dc6: aa           	tax
     dc7: f0 04        	beq	$dcd <midiShutUp+0x7>
     dc9: a2 b1        	ldx	#$b1
     dcb: 80 02        	bra	$dcf <midiShutUp+0x9>
     dcd: a2 a1        	ldx	#$a1
     dcf: 86 12        	stx	$12                     ; 0x2012 <playmidi+0x625>
     dd1: a2 dd        	ldx	#$dd
     dd3: 86 13        	stx	$13                     ; 0x2013 <playmidi+0x626>
     dd5: a9 ff        	lda	#$ff
     dd7: 92 12        	sta	($12)                   ; 0x2012 <playmidi+0x625>
     dd9: 60           	rts

00000dda <resetInstruments>:
     dda: aa           	tax
     ddb: a0 a1        	ldy	#$a1
     ddd: 84 12        	sty	$12                     ; 0x2012 <playmidi+0x625>
     ddf: a0 dd        	ldy	#$dd
     de1: 84 13        	sty	$13                     ; 0x2013 <playmidi+0x626>
     de3: a0 b1        	ldy	#$b1
     de5: 84 14        	sty	$14                     ; 0x2014 <playmidi+0x627>
     de7: a0 dd        	ldy	#$dd
     de9: 84 15        	sty	$15                     ; 0x2015 <playmidi+0x628>
     deb: a0 a1        	ldy	#$a1
     ded: 84 16        	sty	$16                     ; 0x2016 <playmidi+0x629>
     def: a0 dd        	ldy	#$dd
     df1: 84 17        	sty	$17                     ; 0x2017 <playmidi+0x62a>
     df3: a8           	tay
     df4: f0 08        	beq	$dfe <resetInstruments+0x24>
     df6: a0 b1        	ldy	#$b1
     df8: 84 16        	sty	$16                     ; 0x2016 <playmidi+0x629>
     dfa: a0 dd        	ldy	#$dd
     dfc: 84 17        	sty	$17                     ; 0x2017 <playmidi+0x62a>
     dfe: a9 c0        	lda	#$c0
     e00: 92 16        	sta	($16)                   ; 0x2016 <playmidi+0x629>
     e02: a8           	tay
     e03: a9 00        	lda	#$0
     e05: 92 16        	sta	($16)                   ; 0x2016 <playmidi+0x629>
     e07: 98           	tya
     e08: 1a           	inc
     e09: c9 d0        	cmp	#$d0
     e0b: d0 f3        	bne	$e00 <resetInstruments+0x26>
     e0d: 8a           	txa
     e0e: f0 08        	beq	$e18 <resetInstruments+0x3e>
     e10: a2 b1        	ldx	#$b1
     e12: 86 12        	stx	$12                     ; 0x2012 <playmidi+0x625>
     e14: a2 dd        	ldx	#$dd
     e16: 86 13        	stx	$13                     ; 0x2013 <playmidi+0x626>
     e18: a9 ff        	lda	#$ff
     e1a: 92 12        	sta	($12)                   ; 0x2012 <playmidi+0x625>
     e1c: 60           	rts

00000e1d <initMidiRecord>:
     e1d: 85 a7        	sta	$a7                     ; 0x20a7 <playmidi+0x6ba>
     e1f: 86 a5        	stx	$a5                     ; 0x20a5 <playmidi+0x6b8>
     e21: a6 14        	ldx	$14                     ; 0x2014 <playmidi+0x627>
     e23: 86 a2        	stx	$a2                     ; 0x20a2 <playmidi+0x6b5>
     e25: a6 15        	ldx	$15                     ; 0x2015 <playmidi+0x628>
     e27: 86 a0        	stx	$a0                     ; 0x20a0 <playmidi+0x6b3>
     e29: a6 16        	ldx	$16                     ; 0x2016 <playmidi+0x629>
     e2b: 86 a6        	stx	$a6                     ; 0x20a6 <playmidi+0x6b9>
     e2d: a6 17        	ldx	$17                     ; 0x2017 <playmidi+0x62a>
     e2f: 86 a4        	stx	$a4                     ; 0x20a4 <playmidi+0x6b7>
     e31: a6 18        	ldx	$18                     ; 0x2018 <playmidi+0x62b>
     e33: 86 a3        	stx	$a3                     ; 0x20a3 <playmidi+0x6b6>
     e35: a6 19        	ldx	$19                     ; 0x2019 <playmidi+0x62c>
     e37: 86 a1        	stx	$a1                     ; 0x20a1 <playmidi+0x6b4>
     e39: a6 12        	ldx	$12                     ; 0x2012 <playmidi+0x625>
     e3b: 86 14        	stx	$14                     ; 0x2014 <playmidi+0x627>
     e3d: a6 13        	ldx	$13                     ; 0x2013 <playmidi+0x626>
     e3f: 86 15        	stx	$15                     ; 0x2015 <playmidi+0x628>
     e41: a6 12        	ldx	$12                     ; 0x2012 <playmidi+0x625>
     e43: 86 9e        	stx	$9e                     ; 0x209e <playmidi+0x6b1>
     e45: a6 13        	ldx	$13                     ; 0x2013 <playmidi+0x626>
     e47: 86 9f        	stx	$9f                     ; 0x209f <playmidi+0x6b2>
     e49: a5 14        	lda	$14                     ; 0x2014 <playmidi+0x627>
     e4b: a6 14        	ldx	$14                     ; 0x2014 <playmidi+0x627>
     e4d: 86 a8        	stx	$a8                     ; 0x20a8 <playmidi+0x6bb>
     e4f: 18           	clc
     e50: 69 22        	adc	#$22
     e52: a8           	tay
     e53: a6 15        	ldx	$15                     ; 0x2015 <playmidi+0x628>
     e55: 86 9d        	stx	$9d                     ; 0x209d <playmidi+0x6b0>
     e57: a5 9d        	lda	$9d                     ; 0x209d <playmidi+0x6b0>
     e59: 69 00        	adc	#$0
     e5b: 84 12        	sty	$12                     ; 0x2012 <playmidi+0x625>
     e5d: 85 13        	sta	$13                     ; 0x2013 <playmidi+0x626>
     e5f: a0 22        	ldy	#$22
     e61: a9 00        	lda	#$0
     e63: 91 14        	sta	($14),y                 ; 0x2014 <playmidi+0x627>
     e65: a0 01        	ldy	#$1
     e67: 91 12        	sta	($12),y                 ; 0x2012 <playmidi+0x625>
     e69: c8           	iny
     e6a: 91 12        	sta	($12),y                 ; 0x2012 <playmidi+0x625>
     e6c: c8           	iny
     e6d: 91 12        	sta	($12),y                 ; 0x2012 <playmidi+0x625>
     e6f: aa           	tax
     e70: a9 40        	lda	#$40
     e72: 20 3a 28     	jsr	$283a <malloc>
     e75: a9 30        	lda	#$30
     e77: a0 0c        	ldy	#$c
     e79: a6 9e        	ldx	$9e                     ; 0x209e <playmidi+0x6b1>
     e7b: 86 16        	stx	$16                     ; 0x2016 <playmidi+0x629>
     e7d: a6 9f        	ldx	$9f                     ; 0x209f <playmidi+0x6b2>
     e7f: 86 17        	stx	$17                     ; 0x2017 <playmidi+0x62a>
     e81: 91 16        	sta	($16),y                 ; 0x2016 <playmidi+0x629>
     e83: a9 43        	lda	#$43
     e85: a0 14        	ldy	#$14
     e87: 91 16        	sta	($16),y                 ; 0x2016 <playmidi+0x629>
     e89: a6 a8        	ldx	$a8                     ; 0x20a8 <playmidi+0x6bb>
     e8b: 8a           	txa
     e8c: 18           	clc
     e8d: 69 14        	adc	#$14
     e8f: 85 14        	sta	$14                     ; 0x2014 <playmidi+0x627>
     e91: a5 9d        	lda	$9d                     ; 0x209d <playmidi+0x6b0>
     e93: 69 00        	adc	#$0
     e95: 85 15        	sta	$15                     ; 0x2015 <playmidi+0x628>
     e97: a0 04        	ldy	#$4
     e99: a9 71        	lda	#$71
     e9b: 91 14        	sta	($14),y                 ; 0x2014 <playmidi+0x627>
     e9d: a9 2a        	lda	#$2a
     e9f: c8           	iny
     ea0: 91 14        	sta	($14),y                 ; 0x2014 <playmidi+0x627>
     ea2: a5 12        	lda	$12                     ; 0x2012 <playmidi+0x625>
     ea4: c8           	iny
     ea5: 91 16        	sta	($16),y                 ; 0x2016 <playmidi+0x629>
     ea7: a9 39        	lda	#$39
     ea9: 91 14        	sta	($14),y                 ; 0x2014 <playmidi+0x627>
     eab: c8           	iny
     eac: a9 40        	lda	#$40
     eae: 91 14        	sta	($14),y                 ; 0x2014 <playmidi+0x627>
     eb0: a0 1c        	ldy	#$1c
     eb2: a9 04        	lda	#$4
     eb4: 91 16        	sta	($16),y                 ; 0x2016 <playmidi+0x629>
     eb6: a9 02        	lda	#$2
     eb8: c8           	iny
     eb9: 91 16        	sta	($16),y                 ; 0x2016 <playmidi+0x629>
     ebb: a9 18        	lda	#$18
     ebd: c8           	iny
     ebe: 91 16        	sta	($16),y                 ; 0x2016 <playmidi+0x629>
     ec0: a9 08        	lda	#$8
     ec2: c8           	iny
     ec3: 91 16        	sta	($16),y                 ; 0x2016 <playmidi+0x629>
     ec5: a8           	tay
     ec6: a9 00        	lda	#$0
     ec8: 91 16        	sta	($16),y                 ; 0x2016 <playmidi+0x629>
     eca: a0 0a        	ldy	#$a
     ecc: 91 16        	sta	($16),y                 ; 0x2016 <playmidi+0x629>
     ece: a0 10        	ldy	#$10
     ed0: 91 16        	sta	($16),y                 ; 0x2016 <playmidi+0x629>
     ed2: a0 28        	ldy	#$28
     ed4: 91 16        	sta	($16),y                 ; 0x2016 <playmidi+0x629>
     ed6: a0 26        	ldy	#$26
     ed8: 91 16        	sta	($16),y                 ; 0x2016 <playmidi+0x629>
     eda: a0 2c        	ldy	#$2c
     edc: a5 a7        	lda	$a7                     ; 0x20a7 <playmidi+0x6ba>
     ede: 91 16        	sta	($16),y                 ; 0x2016 <playmidi+0x629>
     ee0: a5 a6        	lda	$a6                     ; 0x20a6 <playmidi+0x6b9>
     ee2: a0 30        	ldy	#$30
     ee4: 91 16        	sta	($16),y                 ; 0x2016 <playmidi+0x629>
     ee6: 8a           	txa
     ee7: 18           	clc
     ee8: 69 06        	adc	#$6
     eea: 85 16        	sta	$16                     ; 0x2016 <playmidi+0x629>
     eec: a5 9d        	lda	$9d                     ; 0x209d <playmidi+0x6b0>
     eee: 69 00        	adc	#$0
     ef0: 85 17        	sta	$17                     ; 0x2017 <playmidi+0x62a>
     ef2: a5 13        	lda	$13                     ; 0x2013 <playmidi+0x626>
     ef4: a0 01        	ldy	#$1
     ef6: 91 16        	sta	($16),y                 ; 0x2016 <playmidi+0x629>
     ef8: 8a           	txa
     ef9: 18           	clc
     efa: 69 08        	adc	#$8
     efc: 85 12        	sta	$12                     ; 0x2012 <playmidi+0x625>
     efe: a5 9d        	lda	$9d                     ; 0x209d <playmidi+0x6b0>
     f00: 69 00        	adc	#$0
     f02: 85 13        	sta	$13                     ; 0x2013 <playmidi+0x626>
     f04: a5 12        	lda	$12                     ; 0x2012 <playmidi+0x625>
     f06: 85 9e        	sta	$9e                     ; 0x209e <playmidi+0x6b1>
     f08: a5 13        	lda	$13                     ; 0x2013 <playmidi+0x626>
     f0a: 85 9f        	sta	$9f                     ; 0x209f <playmidi+0x6b2>
     f0c: 8a           	txa
     f0d: 18           	clc
     f0e: 69 0a        	adc	#$a
     f10: 85 18        	sta	$18                     ; 0x2018 <playmidi+0x62b>
     f12: a5 9d        	lda	$9d                     ; 0x209d <playmidi+0x6b0>
     f14: 69 00        	adc	#$0
     f16: 85 19        	sta	$19                     ; 0x2019 <playmidi+0x62c>
     f18: 8a           	txa
     f19: 18           	clc
     f1a: 69 0c        	adc	#$c
     f1c: 85 16        	sta	$16                     ; 0x2016 <playmidi+0x629>
     f1e: a5 9d        	lda	$9d                     ; 0x209d <playmidi+0x6b0>
     f20: 69 00        	adc	#$0
     f22: 85 17        	sta	$17                     ; 0x2017 <playmidi+0x62a>
     f24: 8a           	txa
     f25: 18           	clc
     f26: 69 10        	adc	#$10
     f28: 85 1a        	sta	$1a                     ; 0x201a <playmidi+0x62d>
     f2a: a5 9d        	lda	$9d                     ; 0x209d <playmidi+0x6b0>
     f2c: 69 00        	adc	#$0
     f2e: 85 1b        	sta	$1b                     ; 0x201b <playmidi+0x62e>
     f30: a9 ad        	lda	#$ad
     f32: 91 14        	sta	($14),y                 ; 0x2014 <playmidi+0x627>
     f34: 8a           	txa
     f35: 18           	clc
     f36: 69 28        	adc	#$28
     f38: 85 1c        	sta	$1c                     ; 0x201c <playmidi+0x62f>
     f3a: a5 9d        	lda	$9d                     ; 0x209d <playmidi+0x6b0>
     f3c: 69 00        	adc	#$0
     f3e: 85 1d        	sta	$1d                     ; 0x201d <playmidi+0x630>
     f40: 8a           	txa
     f41: 18           	clc
     f42: 69 26        	adc	#$26
     f44: 85 1e        	sta	$1e                     ; 0x201e <playmidi+0x631>
     f46: a5 9d        	lda	$9d                     ; 0x209d <playmidi+0x6b0>
     f48: 69 00        	adc	#$0
     f4a: 85 1f        	sta	$1f                     ; 0x201f <playmidi+0x632>
     f4c: 8a           	txa
     f4d: 18           	clc
     f4e: 69 2c        	adc	#$2c
     f50: 85 22        	sta	$22                     ; 0x2022 <playmidi+0x635>
     f52: a5 9d        	lda	$9d                     ; 0x209d <playmidi+0x6b0>
     f54: 69 00        	adc	#$0
     f56: 85 23        	sta	$23                     ; 0x2023 <playmidi+0x636>
     f58: a5 a5        	lda	$a5                     ; 0x20a5 <playmidi+0x6b8>
     f5a: 91 22        	sta	($22),y                 ; 0x2022 <playmidi+0x635>
     f5c: 8a           	txa
     f5d: 18           	clc
     f5e: 69 30        	adc	#$30
     f60: 85 12        	sta	$12                     ; 0x2012 <playmidi+0x625>
     f62: a5 9d        	lda	$9d                     ; 0x209d <playmidi+0x6b0>
     f64: 69 00        	adc	#$0
     f66: 85 13        	sta	$13                     ; 0x2013 <playmidi+0x626>
     f68: a5 a4        	lda	$a4                     ; 0x20a4 <playmidi+0x6b7>
     f6a: 91 12        	sta	($12),y                 ; 0x2012 <playmidi+0x625>
     f6c: a9 00        	lda	#$0
     f6e: a6 9e        	ldx	$9e                     ; 0x209e <playmidi+0x6b1>
     f70: 86 9b        	stx	$9b                     ; 0x209b <playmidi+0x6ae>
     f72: a6 9f        	ldx	$9f                     ; 0x209f <playmidi+0x6b2>
     f74: 86 9c        	stx	$9c                     ; 0x209c <playmidi+0x6af>
     f76: 91 9b        	sta	($9b),y                 ; 0x209b <playmidi+0x6ae>
     f78: 91 18        	sta	($18),y                 ; 0x2018 <playmidi+0x62b>
     f7a: 91 16        	sta	($16),y                 ; 0x2016 <playmidi+0x629>
     f7c: 91 1a        	sta	($1a),y                 ; 0x201a <playmidi+0x62d>
     f7e: 91 1c        	sta	($1c),y                 ; 0x201c <playmidi+0x62f>
     f80: 91 1e        	sta	($1e),y                 ; 0x201e <playmidi+0x631>
     f82: a9 69        	lda	#$69
     f84: c8           	iny
     f85: 91 14        	sta	($14),y                 ; 0x2014 <playmidi+0x627>
     f87: a5 a2        	lda	$a2                     ; 0x20a2 <playmidi+0x6b5>
     f89: 91 22        	sta	($22),y                 ; 0x2022 <playmidi+0x635>
     f8b: a9 00        	lda	#$0
     f8d: 91 16        	sta	($16),y                 ; 0x2016 <playmidi+0x629>
     f8f: 91 1a        	sta	($1a),y                 ; 0x201a <playmidi+0x62d>
     f91: a5 a3        	lda	$a3                     ; 0x20a3 <playmidi+0x6b6>
     f93: 91 12        	sta	($12),y                 ; 0x2012 <playmidi+0x625>
     f95: c8           	iny
     f96: a9 00        	lda	#$0
     f98: 91 16        	sta	($16),y                 ; 0x2016 <playmidi+0x629>
     f9a: 91 1a        	sta	($1a),y                 ; 0x201a <playmidi+0x62d>
     f9c: a9 de        	lda	#$de
     f9e: 91 14        	sta	($14),y                 ; 0x2014 <playmidi+0x627>
     fa0: a5 a0        	lda	$a0                     ; 0x20a0 <playmidi+0x6b3>
     fa2: 91 22        	sta	($22),y                 ; 0x2022 <playmidi+0x635>
     fa4: a5 a1        	lda	$a1                     ; 0x20a1 <playmidi+0x6b4>
     fa6: 91 12        	sta	($12),y                 ; 0x2012 <playmidi+0x625>
     fa8: 60           	rts

00000fa9 <initBigList>:
     fa9: a9 00        	lda	#$0
     fab: 92 12        	sta	($12)                   ; 0x2012 <playmidi+0x625>
     fad: a6 12        	ldx	$12                     ; 0x2012 <playmidi+0x625>
     faf: 86 14        	stx	$14                     ; 0x2014 <playmidi+0x627>
     fb1: a6 13        	ldx	$13                     ; 0x2013 <playmidi+0x626>
     fb3: 86 15        	stx	$15                     ; 0x2015 <playmidi+0x628>
     fb5: e6 14        	inc	$14                     ; 0x2014 <playmidi+0x627>
     fb7: d0 02        	bne	$fbb <initBigList+0x12>
     fb9: e6 15        	inc	$15                     ; 0x2015 <playmidi+0x628>
     fbb: a0 01        	ldy	#$1
     fbd: 91 12        	sta	($12),y                 ; 0x2012 <playmidi+0x625>
     fbf: 91 14        	sta	($14),y                 ; 0x2014 <playmidi+0x627>
     fc1: a5 12        	lda	$12                     ; 0x2012 <playmidi+0x625>
     fc3: 18           	clc
     fc4: 69 03        	adc	#$3
     fc6: 85 14        	sta	$14                     ; 0x2014 <playmidi+0x627>
     fc8: a5 13        	lda	$13                     ; 0x2013 <playmidi+0x626>
     fca: 69 00        	adc	#$0
     fcc: 85 15        	sta	$15                     ; 0x2015 <playmidi+0x628>
     fce: a2 00        	ldx	#$0
     fd0: 86 16        	stx	$16                     ; 0x2016 <playmidi+0x629>
     fd2: a2 00        	ldx	#$0
     fd4: 86 17        	stx	$17                     ; 0x2017 <playmidi+0x62a>
     fd6: a5 16        	lda	$16                     ; 0x2016 <playmidi+0x629>
     fd8: a0 03        	ldy	#$3
     fda: 91 12        	sta	($12),y                 ; 0x2012 <playmidi+0x625>
     fdc: a0 01        	ldy	#$1
     fde: a5 17        	lda	$17                     ; 0x2017 <playmidi+0x62a>
     fe0: 91 14        	sta	($14),y                 ; 0x2014 <playmidi+0x627>
     fe2: 60           	rts

00000fe3 <getTotalLeft>:
     fe3: a6 12        	ldx	$12                     ; 0x2012 <playmidi+0x625>
     fe5: 86 14        	stx	$14                     ; 0x2014 <playmidi+0x627>
     fe7: a6 13        	ldx	$13                     ; 0x2013 <playmidi+0x626>
     fe9: 86 15        	stx	$15                     ; 0x2015 <playmidi+0x628>
     feb: e6 14        	inc	$14                     ; 0x2014 <playmidi+0x627>
     fed: d0 02        	bne	$ff1 <getTotalLeft+0xe>
     fef: e6 15        	inc	$15                     ; 0x2015 <playmidi+0x628>
     ff1: a0 01        	ldy	#$1
     ff3: b1 12        	lda	($12),y                 ; 0x2012 <playmidi+0x625>
     ff5: 85 17        	sta	$17                     ; 0x2017 <playmidi+0x62a>
     ff7: b1 14        	lda	($14),y                 ; 0x2014 <playmidi+0x627>
     ff9: d0 07        	bne	$1002 <getTotalLeft+0x1f>
     ffb: a6 17        	ldx	$17                     ; 0x2017 <playmidi+0x62a>
     ffd: d0 03        	bne	$1002 <getTotalLeft+0x1f>
     fff: 4c 6d 10     	jmp	$106d <getTotalLeft+0x8a>
    1002: aa           	tax
    1003: a4 17        	ldy	$17                     ; 0x2017 <playmidi+0x62a>
    1005: 84 16        	sty	$16                     ; 0x2016 <playmidi+0x629>
    1007: a5 12        	lda	$12                     ; 0x2012 <playmidi+0x625>
    1009: 18           	clc
    100a: 69 03        	adc	#$3
    100c: 85 14        	sta	$14                     ; 0x2014 <playmidi+0x627>
    100e: a5 13        	lda	$13                     ; 0x2013 <playmidi+0x626>
    1010: 69 00        	adc	#$0
    1012: 85 15        	sta	$15                     ; 0x2015 <playmidi+0x628>
    1014: a0 03        	ldy	#$3
    1016: b1 12        	lda	($12),y                 ; 0x2012 <playmidi+0x625>
    1018: 85 18        	sta	$18                     ; 0x2018 <playmidi+0x62b>
    101a: a0 01        	ldy	#$1
    101c: b1 14        	lda	($14),y                 ; 0x2014 <playmidi+0x627>
    101e: 85 19        	sta	$19                     ; 0x2019 <playmidi+0x62c>
    1020: e6 18        	inc	$18                     ; 0x2018 <playmidi+0x62b>
    1022: d0 02        	bne	$1026 <getTotalLeft+0x43>
    1024: e6 19        	inc	$19                     ; 0x2019 <playmidi+0x62c>
    1026: a9 00        	lda	#$0
    1028: 64 15        	stz	$15                     ; 0x2015 <playmidi+0x628>
    102a: 64 12        	stz	$12                     ; 0x2012 <playmidi+0x625>
    102c: 64 13        	stz	$13                     ; 0x2013 <playmidi+0x626>
    102e: 86 14        	stx	$14                     ; 0x2014 <playmidi+0x627>
    1030: 80 04        	bra	$1036 <getTotalLeft+0x53>
    1032: a6 14        	ldx	$14                     ; 0x2014 <playmidi+0x627>
    1034: f0 30        	beq	$1066 <getTotalLeft+0x83>
    1036: 18           	clc
    1037: 72 18        	adc	($18)                   ; 0x2018 <playmidi+0x62b>
    1039: aa           	tax
    103a: a5 15        	lda	$15                     ; 0x2015 <playmidi+0x628>
    103c: 71 18        	adc	($18),y                 ; 0x2018 <playmidi+0x62b>
    103e: 85 15        	sta	$15                     ; 0x2015 <playmidi+0x628>
    1040: a5 12        	lda	$12                     ; 0x2012 <playmidi+0x625>
    1042: 69 00        	adc	#$0
    1044: 85 12        	sta	$12                     ; 0x2012 <playmidi+0x625>
    1046: a5 13        	lda	$13                     ; 0x2013 <playmidi+0x626>
    1048: 69 00        	adc	#$0
    104a: 85 13        	sta	$13                     ; 0x2013 <playmidi+0x626>
    104c: a5 18        	lda	$18                     ; 0x2018 <playmidi+0x62b>
    104e: 18           	clc
    104f: 69 07        	adc	#$7
    1051: 85 18        	sta	$18                     ; 0x2018 <playmidi+0x62b>
    1053: a5 19        	lda	$19                     ; 0x2019 <playmidi+0x62c>
    1055: 69 00        	adc	#$0
    1057: 85 19        	sta	$19                     ; 0x2019 <playmidi+0x62c>
    1059: 8a           	txa
    105a: a2 ff        	ldx	#$ff
    105c: c6 16        	dec	$16                     ; 0x2016 <playmidi+0x629>
    105e: e4 16        	cpx	$16                     ; 0x2016 <playmidi+0x629>
    1060: d0 d0        	bne	$1032 <getTotalLeft+0x4f>
    1062: c6 14        	dec	$14                     ; 0x2014 <playmidi+0x627>
    1064: 80 cc        	bra	$1032 <getTotalLeft+0x4f>
    1066: a6 16        	ldx	$16                     ; 0x2016 <playmidi+0x629>
    1068: d0 cc        	bne	$1036 <getTotalLeft+0x53>
    106a: a6 15        	ldx	$15                     ; 0x2015 <playmidi+0x628>
    106c: 60           	rts
    106d: a9 00        	lda	#$0
    106f: 64 15        	stz	$15                     ; 0x2015 <playmidi+0x628>
    1071: 64 12        	stz	$12                     ; 0x2012 <playmidi+0x625>
    1073: 64 13        	stz	$13                     ; 0x2013 <playmidi+0x626>
    1075: a6 15        	ldx	$15                     ; 0x2015 <playmidi+0x628>
    1077: 60           	rts

00001078 <playEmbeddedDim>:
    1078: 48           	pha
    1079: 18           	clc
    107a: a5 10        	lda	$10                     ; 0x2010 <playmidi+0x623>
    107c: 69 b9        	adc	#$b9
    107e: 85 10        	sta	$10                     ; 0x2010 <playmidi+0x623>
    1080: a5 11        	lda	$11                     ; 0x2011 <playmidi+0x624>
    1082: 69 ff        	adc	#$ff
    1084: 85 11        	sta	$11                     ; 0x2011 <playmidi+0x624>
    1086: 68           	pla
    1087: a4 24        	ldy	$24                     ; 0x2024 <playmidi+0x637>
    1089: 5a           	phy
    108a: a4 25        	ldy	$25                     ; 0x2025 <playmidi+0x638>
    108c: 5a           	phy
    108d: a4 26        	ldy	$26                     ; 0x2026 <playmidi+0x639>
    108f: 5a           	phy
    1090: a4 27        	ldy	$27                     ; 0x2027 <playmidi+0x63a>
    1092: 5a           	phy
    1093: 48           	pha
    1094: a5 28        	lda	$28                     ; 0x2028 <playmidi+0x63b>
    1096: a0 07        	ldy	#$7
    1098: 91 10        	sta	($10),y                 ; 0x2010 <playmidi+0x623>
    109a: a5 29        	lda	$29                     ; 0x2029 <playmidi+0x63c>
    109c: 88           	dey
    109d: 91 10        	sta	($10),y                 ; 0x2010 <playmidi+0x623>
    109f: a5 2a        	lda	$2a                     ; 0x202a <playmidi+0x63d>
    10a1: 88           	dey
    10a2: 91 10        	sta	($10),y                 ; 0x2010 <playmidi+0x623>
    10a4: a5 2b        	lda	$2b                     ; 0x202b <playmidi+0x63e>
    10a6: 88           	dey
    10a7: 91 10        	sta	($10),y                 ; 0x2010 <playmidi+0x623>
    10a9: a5 2c        	lda	$2c                     ; 0x202c <playmidi+0x63f>
    10ab: 88           	dey
    10ac: 91 10        	sta	($10),y                 ; 0x2010 <playmidi+0x623>
    10ae: a5 2d        	lda	$2d                     ; 0x202d <playmidi+0x640>
    10b0: 88           	dey
    10b1: 91 10        	sta	($10),y                 ; 0x2010 <playmidi+0x623>
    10b3: a5 2e        	lda	$2e                     ; 0x202e <playmidi+0x641>
    10b5: 88           	dey
    10b6: 91 10        	sta	($10),y                 ; 0x2010 <playmidi+0x623>
    10b8: a5 2f        	lda	$2f                     ; 0x202f <playmidi+0x642>
    10ba: 88           	dey
    10bb: 91 10        	sta	($10),y                 ; 0x2010 <playmidi+0x623>
    10bd: 68           	pla
    10be: 85 2d        	sta	$2d                     ; 0x202d <playmidi+0x640>
    10c0: 86 2c        	stx	$2c                     ; 0x202c <playmidi+0x63f>
    10c2: a6 12        	ldx	$12                     ; 0x2012 <playmidi+0x625>
    10c4: 86 2b        	stx	$2b                     ; 0x202b <playmidi+0x63e>
    10c6: a6 13        	ldx	$13                     ; 0x2013 <playmidi+0x626>
    10c8: 86 2a        	stx	$2a                     ; 0x202a <playmidi+0x63d>
    10ca: 18           	clc
    10cb: a5 10        	lda	$10                     ; 0x2010 <playmidi+0x623>
    10cd: 69 42        	adc	#$42
    10cf: 85 29        	sta	$29                     ; 0x2029 <playmidi+0x63c>
    10d1: a5 11        	lda	$11                     ; 0x2011 <playmidi+0x624>
    10d3: 69 00        	adc	#$0
    10d5: 85 28        	sta	$28                     ; 0x2028 <playmidi+0x63b>
    10d7: a6 29        	ldx	$29                     ; 0x2029 <playmidi+0x63c>
    10d9: 86 24        	stx	$24                     ; 0x2024 <playmidi+0x637>
    10db: 85 25        	sta	$25                     ; 0x2025 <playmidi+0x638>
    10dd: a6 24        	ldx	$24                     ; 0x2024 <playmidi+0x637>
    10df: 86 12        	stx	$12                     ; 0x2012 <playmidi+0x625>
    10e1: 85 13        	sta	$13                     ; 0x2013 <playmidi+0x626>
    10e3: 20 a9 0f     	jsr	$fa9 <initBigList>
    10e6: a6 2b        	ldx	$2b                     ; 0x202b <playmidi+0x63e>
    10e8: 86 12        	stx	$12                     ; 0x2012 <playmidi+0x625>
    10ea: a6 2a        	ldx	$2a                     ; 0x202a <playmidi+0x63d>
    10ec: 86 13        	stx	$13                     ; 0x2013 <playmidi+0x626>
    10ee: a6 2c        	ldx	$2c                     ; 0x202c <playmidi+0x63f>
    10f0: a5 2d        	lda	$2d                     ; 0x202d <playmidi+0x640>
    10f2: 20 dd 09     	jsr	$9dd <FAR_PEEK>
    10f5: 85 26        	sta	$26                     ; 0x2026 <playmidi+0x639>
    10f7: a6 2a        	ldx	$2a                     ; 0x202a <playmidi+0x63d>
    10f9: 86 13        	stx	$13                     ; 0x2013 <playmidi+0x626>
    10fb: a5 2d        	lda	$2d                     ; 0x202d <playmidi+0x640>
    10fd: a6 2b        	ldx	$2b                     ; 0x202b <playmidi+0x63e>
    10ff: 86 12        	stx	$12                     ; 0x2012 <playmidi+0x625>
    1101: a6 2c        	ldx	$2c                     ; 0x202c <playmidi+0x63f>
    1103: 1a           	inc
    1104: d0 09        	bne	$110f <playEmbeddedDim+0x97>
    1106: e8           	inx
    1107: d0 06        	bne	$110f <playEmbeddedDim+0x97>
    1109: e6 12        	inc	$12                     ; 0x2012 <playmidi+0x625>
    110b: d0 02        	bne	$110f <playEmbeddedDim+0x97>
    110d: e6 13        	inc	$13                     ; 0x2013 <playmidi+0x626>
    110f: 20 dd 09     	jsr	$9dd <FAR_PEEK>
    1112: 85 27        	sta	$27                     ; 0x2027 <playmidi+0x63a>
    1114: a6 24        	ldx	$24                     ; 0x2024 <playmidi+0x637>
    1116: 86 12        	stx	$12                     ; 0x2012 <playmidi+0x625>
    1118: a6 25        	ldx	$25                     ; 0x2025 <playmidi+0x638>
    111a: 86 13        	stx	$13                     ; 0x2013 <playmidi+0x626>
    111c: e6 12        	inc	$12                     ; 0x2012 <playmidi+0x625>
    111e: d0 02        	bne	$1122 <playEmbeddedDim+0xaa>
    1120: e6 13        	inc	$13                     ; 0x2013 <playmidi+0x626>
    1122: a0 01        	ldy	#$1
    1124: a5 26        	lda	$26                     ; 0x2026 <playmidi+0x639>
    1126: 91 24        	sta	($24),y                 ; 0x2024 <playmidi+0x637>
    1128: a5 27        	lda	$27                     ; 0x2027 <playmidi+0x63a>
    112a: 91 12        	sta	($12),y                 ; 0x2012 <playmidi+0x625>
    112c: a5 26        	lda	$26                     ; 0x2026 <playmidi+0x639>
    112e: 0a           	asl
    112f: aa           	tax
    1130: a5 27        	lda	$27                     ; 0x2027 <playmidi+0x63a>
    1132: 2a           	rol
    1133: 86 12        	stx	$12                     ; 0x2012 <playmidi+0x625>
    1135: 06 12        	asl	$12                     ; 0x2012 <playmidi+0x625>
    1137: 2a           	rol
    1138: 06 12        	asl	$12                     ; 0x2012 <playmidi+0x625>
    113a: 2a           	rol
    113b: aa           	tax
    113c: 38           	sec
    113d: a5 12        	lda	$12                     ; 0x2012 <playmidi+0x625>
    113f: e5 26        	sbc	$26                     ; 0x2026 <playmidi+0x639>
    1141: a8           	tay
    1142: 8a           	txa
    1143: e5 27        	sbc	$27                     ; 0x2027 <playmidi+0x63a>
    1145: aa           	tax
    1146: 98           	tya
    1147: 20 3a 28     	jsr	$283a <malloc>
    114a: 18           	clc
    114b: a5 29        	lda	$29                     ; 0x2029 <playmidi+0x63c>
    114d: a0 0c        	ldy	#$c
    114f: 91 10        	sta	($10),y                 ; 0x2010 <playmidi+0x623>
    1151: 69 03        	adc	#$3
    1153: aa           	tax
    1154: a5 28        	lda	$28                     ; 0x2028 <playmidi+0x63b>
    1156: c8           	iny
    1157: 91 10        	sta	($10),y                 ; 0x2010 <playmidi+0x623>
    1159: 69 00        	adc	#$0
    115b: 86 14        	stx	$14                     ; 0x2014 <playmidi+0x627>
    115d: a0 03        	ldy	#$3
    115f: 85 15        	sta	$15                     ; 0x2015 <playmidi+0x628>
    1161: a5 12        	lda	$12                     ; 0x2012 <playmidi+0x625>
    1163: 91 24        	sta	($24),y                 ; 0x2024 <playmidi+0x637>
    1165: a5 13        	lda	$13                     ; 0x2013 <playmidi+0x626>
    1167: a0 01        	ldy	#$1
    1169: 91 14        	sta	($14),y                 ; 0x2014 <playmidi+0x627>
    116b: a5 2d        	lda	$2d                     ; 0x202d <playmidi+0x640>
    116d: 18           	clc
    116e: 69 02        	adc	#$2
    1170: 85 16        	sta	$16                     ; 0x2016 <playmidi+0x629>
    1172: a5 2c        	lda	$2c                     ; 0x202c <playmidi+0x63f>
    1174: 69 00        	adc	#$0
    1176: 85 17        	sta	$17                     ; 0x2017 <playmidi+0x62a>
    1178: a5 2b        	lda	$2b                     ; 0x202b <playmidi+0x63e>
    117a: 69 00        	adc	#$0
    117c: 85 18        	sta	$18                     ; 0x2018 <playmidi+0x62b>
    117e: a5 2a        	lda	$2a                     ; 0x202a <playmidi+0x63d>
    1180: 69 00        	adc	#$0
    1182: 85 19        	sta	$19                     ; 0x2019 <playmidi+0x62c>
    1184: a5 27        	lda	$27                     ; 0x2027 <playmidi+0x63a>
    1186: d0 07        	bne	$118f <playEmbeddedDim+0x117>
    1188: a5 26        	lda	$26                     ; 0x2026 <playmidi+0x639>
    118a: d0 03        	bne	$118f <playEmbeddedDim+0x117>
    118c: 4c c2 12     	jmp	$12c2 <playEmbeddedDim+0x24a>
    118f: a2 01        	ldx	#$1
    1191: 8a           	txa
    1192: a0 09        	ldy	#$9
    1194: 91 10        	sta	($10),y                 ; 0x2010 <playmidi+0x623>
    1196: a5 27        	lda	$27                     ; 0x2027 <playmidi+0x63a>
    1198: c8           	iny
    1199: 91 10        	sta	($10),y                 ; 0x2010 <playmidi+0x623>
    119b: a5 26        	lda	$26                     ; 0x2026 <playmidi+0x639>
    119d: c8           	iny
    119e: 91 10        	sta	($10),y                 ; 0x2010 <playmidi+0x623>
    11a0: a4 19        	ldy	$19                     ; 0x2019 <playmidi+0x62c>
    11a2: 84 26        	sty	$26                     ; 0x2026 <playmidi+0x639>
    11a4: a4 19        	ldy	$19                     ; 0x2019 <playmidi+0x62c>
    11a6: 84 2b        	sty	$2b                     ; 0x202b <playmidi+0x63e>
    11a8: a4 18        	ldy	$18                     ; 0x2018 <playmidi+0x62b>
    11aa: 84 29        	sty	$29                     ; 0x2029 <playmidi+0x63c>
    11ac: a4 18        	ldy	$18                     ; 0x2018 <playmidi+0x62b>
    11ae: 84 2d        	sty	$2d                     ; 0x202d <playmidi+0x640>
    11b0: a4 17        	ldy	$17                     ; 0x2017 <playmidi+0x62a>
    11b2: 84 27        	sty	$27                     ; 0x2027 <playmidi+0x63a>
    11b4: a4 17        	ldy	$17                     ; 0x2017 <playmidi+0x62a>
    11b6: 84 2e        	sty	$2e                     ; 0x202e <playmidi+0x641>
    11b8: a4 16        	ldy	$16                     ; 0x2016 <playmidi+0x629>
    11ba: 84 2c        	sty	$2c                     ; 0x202c <playmidi+0x63f>
    11bc: a4 16        	ldy	$16                     ; 0x2016 <playmidi+0x629>
    11be: 84 2f        	sty	$2f                     ; 0x202f <playmidi+0x642>
    11c0: 86 28        	stx	$28                     ; 0x2028 <playmidi+0x63b>
    11c2: c6 28        	dec	$28                     ; 0x2028 <playmidi+0x63b>
    11c4: a6 18        	ldx	$18                     ; 0x2018 <playmidi+0x62b>
    11c6: 86 12        	stx	$12                     ; 0x2012 <playmidi+0x625>
    11c8: a6 19        	ldx	$19                     ; 0x2019 <playmidi+0x62c>
    11ca: 86 13        	stx	$13                     ; 0x2013 <playmidi+0x626>
    11cc: a6 17        	ldx	$17                     ; 0x2017 <playmidi+0x62a>
    11ce: a5 16        	lda	$16                     ; 0x2016 <playmidi+0x629>
    11d0: 20 dd 09     	jsr	$9dd <FAR_PEEK>
    11d3: 85 2a        	sta	$2a                     ; 0x202a <playmidi+0x63d>
    11d5: a5 2b        	lda	$2b                     ; 0x202b <playmidi+0x63e>
    11d7: a0 08        	ldy	#$8
    11d9: 91 10        	sta	($10),y                 ; 0x2010 <playmidi+0x623>
    11db: a6 2b        	ldx	$2b                     ; 0x202b <playmidi+0x63e>
    11dd: 86 13        	stx	$13                     ; 0x2013 <playmidi+0x626>
    11df: a6 2f        	ldx	$2f                     ; 0x202f <playmidi+0x642>
    11e1: 86 2b        	stx	$2b                     ; 0x202b <playmidi+0x63e>
    11e3: a5 2f        	lda	$2f                     ; 0x202f <playmidi+0x642>
    11e5: a6 2d        	ldx	$2d                     ; 0x202d <playmidi+0x640>
    11e7: 86 2f        	stx	$2f                     ; 0x202f <playmidi+0x642>
    11e9: a6 2d        	ldx	$2d                     ; 0x202d <playmidi+0x640>
    11eb: 86 12        	stx	$12                     ; 0x2012 <playmidi+0x625>
    11ed: a6 2e        	ldx	$2e                     ; 0x202e <playmidi+0x641>
    11ef: 1a           	inc
    11f0: d0 09        	bne	$11fb <playEmbeddedDim+0x183>
    11f2: e8           	inx
    11f3: d0 06        	bne	$11fb <playEmbeddedDim+0x183>
    11f5: e6 12        	inc	$12                     ; 0x2012 <playmidi+0x625>
    11f7: d0 02        	bne	$11fb <playEmbeddedDim+0x183>
    11f9: e6 13        	inc	$13                     ; 0x2013 <playmidi+0x626>
    11fb: 20 dd 09     	jsr	$9dd <FAR_PEEK>
    11fe: aa           	tax
    11ff: 18           	clc
    1200: a5 10        	lda	$10                     ; 0x2010 <playmidi+0x623>
    1202: 69 42        	adc	#$42
    1204: 48           	pha
    1205: a5 11        	lda	$11                     ; 0x2011 <playmidi+0x624>
    1207: 69 00        	adc	#$0
    1209: a8           	tay
    120a: 68           	pla
    120b: 85 12        	sta	$12                     ; 0x2012 <playmidi+0x625>
    120d: 84 13        	sty	$13                     ; 0x2013 <playmidi+0x626>
    120f: 18           	clc
    1210: 69 03        	adc	#$3
    1212: 85 14        	sta	$14                     ; 0x2014 <playmidi+0x627>
    1214: 98           	tya
    1215: 69 00        	adc	#$0
    1217: 85 15        	sta	$15                     ; 0x2015 <playmidi+0x628>
    1219: a5 28        	lda	$28                     ; 0x2028 <playmidi+0x63b>
    121b: 0a           	asl
    121c: a8           	tay
    121d: a9 00        	lda	#$0
    121f: 2a           	rol
    1220: 84 16        	sty	$16                     ; 0x2016 <playmidi+0x629>
    1222: 06 16        	asl	$16                     ; 0x2016 <playmidi+0x629>
    1224: 2a           	rol
    1225: 06 16        	asl	$16                     ; 0x2016 <playmidi+0x629>
    1227: 2a           	rol
    1228: a8           	tay
    1229: 38           	sec
    122a: a5 16        	lda	$16                     ; 0x2016 <playmidi+0x629>
    122c: e5 28        	sbc	$28                     ; 0x2028 <playmidi+0x63b>
    122e: 85 16        	sta	$16                     ; 0x2016 <playmidi+0x629>
    1230: 98           	tya
    1231: e9 00        	sbc	#$0
    1233: 85 17        	sta	$17                     ; 0x2017 <playmidi+0x62a>
    1235: 18           	clc
    1236: a0 03        	ldy	#$3
    1238: a5 16        	lda	$16                     ; 0x2016 <playmidi+0x629>
    123a: 71 12        	adc	($12),y                 ; 0x2012 <playmidi+0x625>
    123c: 85 12        	sta	$12                     ; 0x2012 <playmidi+0x625>
    123e: a0 01        	ldy	#$1
    1240: a5 17        	lda	$17                     ; 0x2017 <playmidi+0x62a>
    1242: 71 14        	adc	($14),y                 ; 0x2014 <playmidi+0x627>
    1244: 85 13        	sta	$13                     ; 0x2013 <playmidi+0x626>
    1246: 5a           	phy
    1247: a0 09        	ldy	#$9
    1249: b1 10        	lda	($10),y                 ; 0x2010 <playmidi+0x623>
    124b: 7a           	ply
    124c: 85 16        	sta	$16                     ; 0x2016 <playmidi+0x629>
    124e: a5 2a        	lda	$2a                     ; 0x202a <playmidi+0x63d>
    1250: 91 12        	sta	($12),y                 ; 0x2012 <playmidi+0x625>
    1252: e6 12        	inc	$12                     ; 0x2012 <playmidi+0x625>
    1254: d0 02        	bne	$1258 <playEmbeddedDim+0x1e0>
    1256: e6 13        	inc	$13                     ; 0x2013 <playmidi+0x626>
    1258: 8a           	txa
    1259: 91 12        	sta	($12),y                 ; 0x2012 <playmidi+0x625>
    125b: a0 00        	ldy	#$0
    125d: a6 16        	ldx	$16                     ; 0x2016 <playmidi+0x629>
    125f: 86 14        	stx	$14                     ; 0x2014 <playmidi+0x627>
    1261: a6 16        	ldx	$16                     ; 0x2016 <playmidi+0x629>
    1263: e8           	inx
    1264: 18           	clc
    1265: a5 2c        	lda	$2c                     ; 0x202c <playmidi+0x63f>
    1267: 69 02        	adc	#$2
    1269: 85 16        	sta	$16                     ; 0x2016 <playmidi+0x629>
    126b: a5 27        	lda	$27                     ; 0x2027 <playmidi+0x63a>
    126d: 48           	pha
    126e: 5a           	phy
    126f: a0 0a        	ldy	#$a
    1271: b1 10        	lda	($10),y                 ; 0x2010 <playmidi+0x623>
    1273: 7a           	ply
    1274: 85 27        	sta	$27                     ; 0x2027 <playmidi+0x63a>
    1276: 68           	pla
    1277: 69 00        	adc	#$0
    1279: 85 17        	sta	$17                     ; 0x2017 <playmidi+0x62a>
    127b: a5 29        	lda	$29                     ; 0x2029 <playmidi+0x63c>
    127d: 69 00        	adc	#$0
    127f: 85 18        	sta	$18                     ; 0x2018 <playmidi+0x62b>
    1281: a5 26        	lda	$26                     ; 0x2026 <playmidi+0x639>
    1283: 69 00        	adc	#$0
    1285: 85 19        	sta	$19                     ; 0x2019 <playmidi+0x62c>
    1287: c4 27        	cpy	$27                     ; 0x2027 <playmidi+0x63a>
    1289: d0 0f        	bne	$129a <playEmbeddedDim+0x222>
    128b: a0 0b        	ldy	#$b
    128d: b1 10        	lda	($10),y                 ; 0x2010 <playmidi+0x623>
    128f: 85 26        	sta	$26                     ; 0x2026 <playmidi+0x639>
    1291: a4 14        	ldy	$14                     ; 0x2014 <playmidi+0x627>
    1293: c4 26        	cpy	$26                     ; 0x2026 <playmidi+0x639>
    1295: b0 10        	bcs	$12a7 <playEmbeddedDim+0x22f>
    1297: 4c 91 11     	jmp	$1191 <playEmbeddedDim+0x119>
    129a: c4 27        	cpy	$27                     ; 0x2027 <playmidi+0x63a>
    129c: a0 0b        	ldy	#$b
    129e: b1 10        	lda	($10),y                 ; 0x2010 <playmidi+0x623>
    12a0: 85 26        	sta	$26                     ; 0x2026 <playmidi+0x639>
    12a2: b0 03        	bcs	$12a7 <playEmbeddedDim+0x22f>
    12a4: 4c 91 11     	jmp	$1191 <playEmbeddedDim+0x119>
    12a7: 18           	clc
    12a8: a5 2b        	lda	$2b                     ; 0x202b <playmidi+0x63e>
    12aa: 69 02        	adc	#$2
    12ac: 85 16        	sta	$16                     ; 0x2016 <playmidi+0x629>
    12ae: a5 2e        	lda	$2e                     ; 0x202e <playmidi+0x641>
    12b0: 69 00        	adc	#$0
    12b2: 85 17        	sta	$17                     ; 0x2017 <playmidi+0x62a>
    12b4: a5 2f        	lda	$2f                     ; 0x202f <playmidi+0x642>
    12b6: 69 00        	adc	#$0
    12b8: 85 18        	sta	$18                     ; 0x2018 <playmidi+0x62b>
    12ba: a0 08        	ldy	#$8
    12bc: b1 10        	lda	($10),y                 ; 0x2010 <playmidi+0x623>
    12be: 69 00        	adc	#$0
    12c0: 85 19        	sta	$19                     ; 0x2019 <playmidi+0x62c>
    12c2: a0 01        	ldy	#$1
    12c4: b1 24        	lda	($24),y                 ; 0x2024 <playmidi+0x637>
    12c6: e6 24        	inc	$24                     ; 0x2024 <playmidi+0x637>
    12c8: d0 02        	bne	$12cc <playEmbeddedDim+0x254>
    12ca: e6 25        	inc	$25                     ; 0x2025 <playmidi+0x638>
    12cc: aa           	tax
    12cd: b1 24        	lda	($24),y                 ; 0x2024 <playmidi+0x637>
    12cf: 85 13        	sta	$13                     ; 0x2013 <playmidi+0x626>
    12d1: 8a           	txa
    12d2: a0 09        	ldy	#$9
    12d4: 91 10        	sta	($10),y                 ; 0x2010 <playmidi+0x623>
    12d6: a5 13        	lda	$13                     ; 0x2013 <playmidi+0x626>
    12d8: d0 06        	bne	$12e0 <playEmbeddedDim+0x268>
    12da: 8a           	txa
    12db: d0 03        	bne	$12e0 <playEmbeddedDim+0x268>
    12dd: 4c 2a 14     	jmp	$142a <playEmbeddedDim+0x3b2>
    12e0: a0 03        	ldy	#$3
    12e2: 18           	clc
    12e3: a5 10        	lda	$10                     ; 0x2010 <playmidi+0x623>
    12e5: 69 42        	adc	#$42
    12e7: 48           	pha
    12e8: a5 11        	lda	$11                     ; 0x2011 <playmidi+0x624>
    12ea: 69 00        	adc	#$0
    12ec: aa           	tax
    12ed: 68           	pla
    12ee: 85 14        	sta	$14                     ; 0x2014 <playmidi+0x627>
    12f0: 86 15        	stx	$15                     ; 0x2015 <playmidi+0x628>
    12f2: 18           	clc
    12f3: 69 03        	adc	#$3
    12f5: 85 1a        	sta	$1a                     ; 0x201a <playmidi+0x62d>
    12f7: 8a           	txa
    12f8: 69 00        	adc	#$0
    12fa: 85 1b        	sta	$1b                     ; 0x201b <playmidi+0x62e>
    12fc: b1 14        	lda	($14),y                 ; 0x2014 <playmidi+0x627>
    12fe: 85 12        	sta	$12                     ; 0x2012 <playmidi+0x625>
    1300: a0 01        	ldy	#$1
    1302: b1 1a        	lda	($1a),y                 ; 0x201a <playmidi+0x62d>
    1304: a4 12        	ldy	$12                     ; 0x2012 <playmidi+0x625>
    1306: 84 2b        	sty	$2b                     ; 0x202b <playmidi+0x63e>
    1308: 84 14        	sty	$14                     ; 0x2014 <playmidi+0x627>
    130a: 85 2e        	sta	$2e                     ; 0x202e <playmidi+0x641>
    130c: 85 15        	sta	$15                     ; 0x2015 <playmidi+0x628>
    130e: e6 14        	inc	$14                     ; 0x2014 <playmidi+0x627>
    1310: d0 02        	bne	$1314 <playEmbeddedDim+0x29c>
    1312: e6 15        	inc	$15                     ; 0x2015 <playmidi+0x628>
    1314: 64 25        	stz	$25                     ; 0x2025 <playmidi+0x638>
    1316: 64 28        	stz	$28                     ; 0x2028 <playmidi+0x63b>
    1318: a5 25        	lda	$25                     ; 0x2025 <playmidi+0x638>
    131a: 0a           	asl
    131b: a6 28        	ldx	$28                     ; 0x2028 <playmidi+0x63b>
    131d: 86 12        	stx	$12                     ; 0x2012 <playmidi+0x625>
    131f: 26 12        	rol	$12                     ; 0x2012 <playmidi+0x625>
    1321: 0a           	asl
    1322: 26 12        	rol	$12                     ; 0x2012 <playmidi+0x625>
    1324: 0a           	asl
    1325: 26 12        	rol	$12                     ; 0x2012 <playmidi+0x625>
    1327: 38           	sec
    1328: e5 25        	sbc	$25                     ; 0x2025 <playmidi+0x638>
    132a: 85 1a        	sta	$1a                     ; 0x201a <playmidi+0x62d>
    132c: a5 12        	lda	$12                     ; 0x2012 <playmidi+0x625>
    132e: e5 28        	sbc	$28                     ; 0x2028 <playmidi+0x63b>
    1330: 85 1b        	sta	$1b                     ; 0x201b <playmidi+0x62e>
    1332: a5 2b        	lda	$2b                     ; 0x202b <playmidi+0x63e>
    1334: 18           	clc
    1335: 65 1a        	adc	$1a                     ; 0x201a <playmidi+0x62d>
    1337: aa           	tax
    1338: a5 2e        	lda	$2e                     ; 0x202e <playmidi+0x641>
    133a: 65 1b        	adc	$1b                     ; 0x201b <playmidi+0x62e>
    133c: 86 2c        	stx	$2c                     ; 0x202c <playmidi+0x63f>
    133e: 85 2d        	sta	$2d                     ; 0x202d <playmidi+0x640>
    1340: a8           	tay
    1341: 18           	clc
    1342: 8a           	txa
    1343: 69 03        	adc	#$3
    1345: 85 1a        	sta	$1a                     ; 0x201a <playmidi+0x62d>
    1347: 98           	tya
    1348: 69 00        	adc	#$0
    134a: 85 1b        	sta	$1b                     ; 0x201b <playmidi+0x62e>
    134c: a0 03        	ldy	#$3
    134e: a9 00        	lda	#$0
    1350: 91 2c        	sta	($2c),y                 ; 0x202c <playmidi+0x63f>
    1352: a0 01        	ldy	#$1
    1354: 91 1a        	sta	($1a),y                 ; 0x201a <playmidi+0x62d>
    1356: c8           	iny
    1357: 91 1a        	sta	($1a),y                 ; 0x201a <playmidi+0x62d>
    1359: c8           	iny
    135a: 91 1a        	sta	($1a),y                 ; 0x201a <playmidi+0x62d>
    135c: a5 28        	lda	$28                     ; 0x2028 <playmidi+0x63b>
    135e: d0 07        	bne	$1367 <playEmbeddedDim+0x2ef>
    1360: a5 25        	lda	$25                     ; 0x2025 <playmidi+0x638>
    1362: d0 03        	bne	$1367 <playEmbeddedDim+0x2ef>
    1364: 4c 06 14     	jmp	$1406 <playEmbeddedDim+0x38e>
    1367: 64 29        	stz	$29                     ; 0x2029 <playmidi+0x63c>
    1369: a6 14        	ldx	$14                     ; 0x2014 <playmidi+0x627>
    136b: 86 1e        	stx	$1e                     ; 0x201e <playmidi+0x631>
    136d: a6 15        	ldx	$15                     ; 0x2015 <playmidi+0x628>
    136f: 86 1f        	stx	$1f                     ; 0x201f <playmidi+0x632>
    1371: a6 25        	ldx	$25                     ; 0x2025 <playmidi+0x638>
    1373: a4 28        	ldy	$28                     ; 0x2028 <playmidi+0x63b>
    1375: 84 1c        	sty	$1c                     ; 0x201c <playmidi+0x62f>
    1377: 64 2a        	stz	$2a                     ; 0x202a <playmidi+0x63d>
    1379: 64 2f        	stz	$2f                     ; 0x202f <playmidi+0x642>
    137b: 64 12        	stz	$12                     ; 0x2012 <playmidi+0x625>
    137d: a0 01        	ldy	#$1
    137f: 80 07        	bra	$1388 <playEmbeddedDim+0x310>
    1381: a5 1c        	lda	$1c                     ; 0x201c <playmidi+0x62f>
    1383: d0 03        	bne	$1388 <playEmbeddedDim+0x310>
    1385: 4c ea 13     	jmp	$13ea <playEmbeddedDim+0x372>
    1388: b2 1e        	lda	($1e)                   ; 0x201e <playmidi+0x631>
    138a: 85 22        	sta	$22                     ; 0x2022 <playmidi+0x635>
    138c: b1 1e        	lda	($1e),y                 ; 0x201e <playmidi+0x631>
    138e: 85 1d        	sta	$1d                     ; 0x201d <playmidi+0x630>
    1390: a5 22        	lda	$22                     ; 0x2022 <playmidi+0x635>
    1392: 0a           	asl
    1393: 26 1d        	rol	$1d                     ; 0x201d <playmidi+0x630>
    1395: 5a           	phy
    1396: a4 1d        	ldy	$1d                     ; 0x201d <playmidi+0x630>
    1398: 84 23        	sty	$23                     ; 0x2023 <playmidi+0x636>
    139a: 64 1d        	stz	$1d                     ; 0x201d <playmidi+0x630>
    139c: 26 1d        	rol	$1d                     ; 0x201d <playmidi+0x630>
    139e: 64 22        	stz	$22                     ; 0x2022 <playmidi+0x635>
    13a0: 26 22        	rol	$22                     ; 0x2022 <playmidi+0x635>
    13a2: 0a           	asl
    13a3: 26 23        	rol	$23                     ; 0x2023 <playmidi+0x636>
    13a5: a4 23        	ldy	$23                     ; 0x2023 <playmidi+0x636>
    13a7: 84 24        	sty	$24                     ; 0x2024 <playmidi+0x637>
    13a9: 7a           	ply
    13aa: 26 1d        	rol	$1d                     ; 0x201d <playmidi+0x630>
    13ac: 26 22        	rol	$22                     ; 0x2022 <playmidi+0x635>
    13ae: 0a           	asl
    13af: 85 23        	sta	$23                     ; 0x2023 <playmidi+0x636>
    13b1: 26 24        	rol	$24                     ; 0x2024 <playmidi+0x637>
    13b3: 26 1d        	rol	$1d                     ; 0x201d <playmidi+0x630>
    13b5: 26 22        	rol	$22                     ; 0x2022 <playmidi+0x635>
    13b7: a5 29        	lda	$29                     ; 0x2029 <playmidi+0x63c>
    13b9: 18           	clc
    13ba: 65 23        	adc	$23                     ; 0x2023 <playmidi+0x636>
    13bc: 85 29        	sta	$29                     ; 0x2029 <playmidi+0x63c>
    13be: a5 2a        	lda	$2a                     ; 0x202a <playmidi+0x63d>
    13c0: 65 24        	adc	$24                     ; 0x2024 <playmidi+0x637>
    13c2: 85 2a        	sta	$2a                     ; 0x202a <playmidi+0x63d>
    13c4: a5 2f        	lda	$2f                     ; 0x202f <playmidi+0x642>
    13c6: 65 1d        	adc	$1d                     ; 0x201d <playmidi+0x630>
    13c8: 85 2f        	sta	$2f                     ; 0x202f <playmidi+0x642>
    13ca: a5 12        	lda	$12                     ; 0x2012 <playmidi+0x625>
    13cc: 65 22        	adc	$22                     ; 0x2022 <playmidi+0x635>
    13ce: 85 12        	sta	$12                     ; 0x2012 <playmidi+0x625>
    13d0: a5 1e        	lda	$1e                     ; 0x201e <playmidi+0x631>
    13d2: 18           	clc
    13d3: 69 07        	adc	#$7
    13d5: 85 1e        	sta	$1e                     ; 0x201e <playmidi+0x631>
    13d7: a5 1f        	lda	$1f                     ; 0x201f <playmidi+0x632>
    13d9: 69 00        	adc	#$0
    13db: 85 1f        	sta	$1f                     ; 0x201f <playmidi+0x632>
    13dd: ca           	dex
    13de: e0 ff        	cpx	#$ff
    13e0: f0 03        	beq	$13e5 <playEmbeddedDim+0x36d>
    13e2: 4c 81 13     	jmp	$1381 <playEmbeddedDim+0x309>
    13e5: c6 1c        	dec	$1c                     ; 0x201c <playmidi+0x62f>
    13e7: 4c 81 13     	jmp	$1381 <playEmbeddedDim+0x309>
    13ea: 8a           	txa
    13eb: f0 03        	beq	$13f0 <playEmbeddedDim+0x378>
    13ed: 4c 88 13     	jmp	$1388 <playEmbeddedDim+0x310>
    13f0: a5 29        	lda	$29                     ; 0x2029 <playmidi+0x63c>
    13f2: a0 03        	ldy	#$3
    13f4: 91 2c        	sta	($2c),y                 ; 0x202c <playmidi+0x63f>
    13f6: a5 2a        	lda	$2a                     ; 0x202a <playmidi+0x63d>
    13f8: a0 01        	ldy	#$1
    13fa: 91 1a        	sta	($1a),y                 ; 0x201a <playmidi+0x62d>
    13fc: c8           	iny
    13fd: a5 2f        	lda	$2f                     ; 0x202f <playmidi+0x642>
    13ff: 91 1a        	sta	($1a),y                 ; 0x201a <playmidi+0x62d>
    1401: a5 12        	lda	$12                     ; 0x2012 <playmidi+0x625>
    1403: c8           	iny
    1404: 91 1a        	sta	($1a),y                 ; 0x201a <playmidi+0x62d>
    1406: a5 28        	lda	$28                     ; 0x2028 <playmidi+0x63b>
    1408: a6 25        	ldx	$25                     ; 0x2025 <playmidi+0x638>
    140a: e8           	inx
    140b: d0 01        	bne	$140e <playEmbeddedDim+0x396>
    140d: 1a           	inc
    140e: 86 25        	stx	$25                     ; 0x2025 <playmidi+0x638>
    1410: 85 28        	sta	$28                     ; 0x2028 <playmidi+0x63b>
    1412: c5 13        	cmp	$13                     ; 0x2013 <playmidi+0x626>
    1414: f0 03        	beq	$1419 <playEmbeddedDim+0x3a1>
    1416: 4c 18 13     	jmp	$1318 <playEmbeddedDim+0x2a0>
    1419: 86 25        	stx	$25                     ; 0x2025 <playmidi+0x638>
    141b: 85 28        	sta	$28                     ; 0x2028 <playmidi+0x63b>
    141d: a0 09        	ldy	#$9
    141f: b1 10        	lda	($10),y                 ; 0x2010 <playmidi+0x623>
    1421: 85 12        	sta	$12                     ; 0x2012 <playmidi+0x625>
    1423: e4 12        	cpx	$12                     ; 0x2012 <playmidi+0x625>
    1425: f0 03        	beq	$142a <playEmbeddedDim+0x3b2>
    1427: 4c 18 13     	jmp	$1318 <playEmbeddedDim+0x2a0>
    142a: 18           	clc
    142b: a5 10        	lda	$10                     ; 0x2010 <playmidi+0x623>
    142d: 69 0e        	adc	#$e
    142f: aa           	tax
    1430: a5 11        	lda	$11                     ; 0x2011 <playmidi+0x624>
    1432: 69 00        	adc	#$0
    1434: 85 28        	sta	$28                     ; 0x2028 <playmidi+0x63b>
    1436: 86 24        	stx	$24                     ; 0x2024 <playmidi+0x637>
    1438: 86 29        	stx	$29                     ; 0x2029 <playmidi+0x63c>
    143a: 85 25        	sta	$25                     ; 0x2025 <playmidi+0x638>
    143c: 86 12        	stx	$12                     ; 0x2012 <playmidi+0x625>
    143e: 85 13        	sta	$13                     ; 0x2013 <playmidi+0x626>
    1440: 64 14        	stz	$14                     ; 0x2014 <playmidi+0x627>
    1442: 64 15        	stz	$15                     ; 0x2015 <playmidi+0x628>
    1444: a2 00        	ldx	#$0
    1446: 8a           	txa
    1447: 20 1d 0e     	jsr	$e1d <initMidiRecord>
    144a: a0 20        	ldy	#$20
    144c: 18           	clc
    144d: a5 29        	lda	$29                     ; 0x2029 <playmidi+0x63c>
    144f: 69 20        	adc	#$20
    1451: 85 12        	sta	$12                     ; 0x2012 <playmidi+0x625>
    1453: a5 28        	lda	$28                     ; 0x2028 <playmidi+0x63b>
    1455: 69 00        	adc	#$0
    1457: 85 13        	sta	$13                     ; 0x2013 <playmidi+0x626>
    1459: b1 24        	lda	($24),y                 ; 0x2024 <playmidi+0x637>
    145b: 85 14        	sta	$14                     ; 0x2014 <playmidi+0x627>
    145d: a0 01        	ldy	#$1
    145f: b1 12        	lda	($12),y                 ; 0x2012 <playmidi+0x625>
    1461: a2 00        	ldx	#$0
    1463: 86 12        	stx	$12                     ; 0x2012 <playmidi+0x625>
    1465: a2 00        	ldx	#$0
    1467: 86 13        	stx	$13                     ; 0x2013 <playmidi+0x626>
    1469: c5 13        	cmp	$13                     ; 0x2013 <playmidi+0x626>
    146b: d0 06        	bne	$1473 <playEmbeddedDim+0x3fb>
    146d: a6 14        	ldx	$14                     ; 0x2014 <playmidi+0x627>
    146f: e4 12        	cpx	$12                     ; 0x2012 <playmidi+0x625>
    1471: f0 09        	beq	$147c <playEmbeddedDim+0x404>
    1473: a6 14        	ldx	$14                     ; 0x2014 <playmidi+0x627>
    1475: 86 12        	stx	$12                     ; 0x2012 <playmidi+0x625>
    1477: 85 13        	sta	$13                     ; 0x2013 <playmidi+0x626>
    1479: 20 f0 29     	jsr	$29f0 <free>
    147c: a0 0c        	ldy	#$c
    147e: b1 10        	lda	($10),y                 ; 0x2010 <playmidi+0x623>
    1480: 85 24        	sta	$24                     ; 0x2024 <playmidi+0x637>
    1482: c8           	iny
    1483: b1 10        	lda	($10),y                 ; 0x2010 <playmidi+0x623>
    1485: 85 25        	sta	$25                     ; 0x2025 <playmidi+0x638>
    1487: a6 24        	ldx	$24                     ; 0x2024 <playmidi+0x637>
    1489: 86 12        	stx	$12                     ; 0x2012 <playmidi+0x625>
    148b: 85 13        	sta	$13                     ; 0x2013 <playmidi+0x626>
    148d: e6 12        	inc	$12                     ; 0x2012 <playmidi+0x625>
    148f: d0 02        	bne	$1493 <playEmbeddedDim+0x41b>
    1491: e6 13        	inc	$13                     ; 0x2013 <playmidi+0x626>
    1493: a0 01        	ldy	#$1
    1495: b1 24        	lda	($24),y                 ; 0x2024 <playmidi+0x637>
    1497: 85 14        	sta	$14                     ; 0x2014 <playmidi+0x627>
    1499: b1 12        	lda	($12),y                 ; 0x2012 <playmidi+0x625>
    149b: 06 14        	asl	$14                     ; 0x2014 <playmidi+0x627>
    149d: 2a           	rol
    149e: aa           	tax
    149f: a5 14        	lda	$14                     ; 0x2014 <playmidi+0x627>
    14a1: 20 3a 28     	jsr	$283a <malloc>
    14a4: a0 20        	ldy	#$20
    14a6: 18           	clc
    14a7: a5 10        	lda	$10                     ; 0x2010 <playmidi+0x623>
    14a9: 69 0e        	adc	#$e
    14ab: 48           	pha
    14ac: a5 11        	lda	$11                     ; 0x2011 <playmidi+0x624>
    14ae: 69 00        	adc	#$0
    14b0: aa           	tax
    14b1: 68           	pla
    14b2: 85 14        	sta	$14                     ; 0x2014 <playmidi+0x627>
    14b4: 86 15        	stx	$15                     ; 0x2015 <playmidi+0x628>
    14b6: 18           	clc
    14b7: 85 17        	sta	$17                     ; 0x2017 <playmidi+0x62a>
    14b9: 69 20        	adc	#$20
    14bb: 85 18        	sta	$18                     ; 0x2018 <playmidi+0x62b>
    14bd: a5 12        	lda	$12                     ; 0x2012 <playmidi+0x625>
    14bf: 91 14        	sta	($14),y                 ; 0x2014 <playmidi+0x627>
    14c1: a0 01        	ldy	#$1
    14c3: 86 16        	stx	$16                     ; 0x2016 <playmidi+0x629>
    14c5: 8a           	txa
    14c6: 69 00        	adc	#$0
    14c8: a6 18        	ldx	$18                     ; 0x2018 <playmidi+0x62b>
    14ca: 86 14        	stx	$14                     ; 0x2014 <playmidi+0x627>
    14cc: 85 15        	sta	$15                     ; 0x2015 <playmidi+0x628>
    14ce: a5 13        	lda	$13                     ; 0x2013 <playmidi+0x626>
    14d0: 91 14        	sta	($14),y                 ; 0x2014 <playmidi+0x627>
    14d2: a5 27        	lda	$27                     ; 0x2027 <playmidi+0x63a>
    14d4: d0 04        	bne	$14da <playEmbeddedDim+0x462>
    14d6: a5 26        	lda	$26                     ; 0x2026 <playmidi+0x639>
    14d8: f0 35        	beq	$150f <playEmbeddedDim+0x497>
    14da: a2 01        	ldx	#$1
    14dc: 8a           	txa
    14dd: 3a           	dec
    14de: 0a           	asl
    14df: 64 14        	stz	$14                     ; 0x2014 <playmidi+0x627>
    14e1: 26 14        	rol	$14                     ; 0x2014 <playmidi+0x627>
    14e3: 18           	clc
    14e4: 65 12        	adc	$12                     ; 0x2012 <playmidi+0x625>
    14e6: 85 18        	sta	$18                     ; 0x2018 <playmidi+0x62b>
    14e8: a5 14        	lda	$14                     ; 0x2014 <playmidi+0x627>
    14ea: 65 13        	adc	$13                     ; 0x2013 <playmidi+0x626>
    14ec: a4 18        	ldy	$18                     ; 0x2018 <playmidi+0x62b>
    14ee: 84 14        	sty	$14                     ; 0x2014 <playmidi+0x627>
    14f0: 85 15        	sta	$15                     ; 0x2015 <playmidi+0x628>
    14f2: a9 00        	lda	#$0
    14f4: 92 14        	sta	($14)                   ; 0x2014 <playmidi+0x627>
    14f6: a0 01        	ldy	#$1
    14f8: 91 14        	sta	($14),y                 ; 0x2014 <playmidi+0x627>
    14fa: a8           	tay
    14fb: 8a           	txa
    14fc: 1a           	inc
    14fd: c4 27        	cpy	$27                     ; 0x2027 <playmidi+0x63a>
    14ff: d0 07        	bne	$1508 <playEmbeddedDim+0x490>
    1501: e4 26        	cpx	$26                     ; 0x2026 <playmidi+0x639>
    1503: aa           	tax
    1504: 90 d6        	bcc	$14dc <playEmbeddedDim+0x464>
    1506: 80 07        	bra	$150f <playEmbeddedDim+0x497>
    1508: a2 00        	ldx	#$0
    150a: e4 27        	cpx	$27                     ; 0x2027 <playmidi+0x63a>
    150c: aa           	tax
    150d: 90 cd        	bcc	$14dc <playEmbeddedDim+0x464>
    150f: a6 24        	ldx	$24                     ; 0x2024 <playmidi+0x637>
    1511: 86 12        	stx	$12                     ; 0x2012 <playmidi+0x625>
    1513: a6 25        	ldx	$25                     ; 0x2025 <playmidi+0x638>
    1515: 86 13        	stx	$13                     ; 0x2013 <playmidi+0x626>
    1517: e6 12        	inc	$12                     ; 0x2012 <playmidi+0x625>
    1519: d0 02        	bne	$151d <playEmbeddedDim+0x4a5>
    151b: e6 13        	inc	$13                     ; 0x2013 <playmidi+0x626>
    151d: a0 01        	ldy	#$1
    151f: b1 12        	lda	($12),y                 ; 0x2012 <playmidi+0x625>
    1521: d0 1e        	bne	$1541 <playEmbeddedDim+0x4c9>
    1523: b1 24        	lda	($24),y                 ; 0x2024 <playmidi+0x637>
    1525: c9 01        	cmp	#$1
    1527: d0 18        	bne	$1541 <playEmbeddedDim+0x4c9>
    1529: a6 17        	ldx	$17                     ; 0x2017 <playmidi+0x62a>
    152b: 86 12        	stx	$12                     ; 0x2012 <playmidi+0x625>
    152d: a6 16        	ldx	$16                     ; 0x2016 <playmidi+0x629>
    152f: 86 13        	stx	$13                     ; 0x2013 <playmidi+0x626>
    1531: a0 0c        	ldy	#$c
    1533: b1 10        	lda	($10),y                 ; 0x2010 <playmidi+0x623>
    1535: 85 14        	sta	$14                     ; 0x2014 <playmidi+0x627>
    1537: c8           	iny
    1538: b1 10        	lda	($10),y                 ; 0x2010 <playmidi+0x623>
    153a: 85 15        	sta	$15                     ; 0x2015 <playmidi+0x628>
    153c: 20 9a 15     	jsr	$159a <playmiditype0>
    153f: 80 16        	bra	$1557 <playEmbeddedDim+0x4df>
    1541: a6 17        	ldx	$17                     ; 0x2017 <playmidi+0x62a>
    1543: 86 12        	stx	$12                     ; 0x2012 <playmidi+0x625>
    1545: a6 16        	ldx	$16                     ; 0x2016 <playmidi+0x629>
    1547: 86 13        	stx	$13                     ; 0x2013 <playmidi+0x626>
    1549: a0 0c        	ldy	#$c
    154b: b1 10        	lda	($10),y                 ; 0x2010 <playmidi+0x623>
    154d: 85 14        	sta	$14                     ; 0x2014 <playmidi+0x627>
    154f: c8           	iny
    1550: b1 10        	lda	($10),y                 ; 0x2010 <playmidi+0x623>
    1552: 85 15        	sta	$15                     ; 0x2015 <playmidi+0x628>
    1554: 20 ed 19     	jsr	$19ed <playmidi>
    1557: a0 00        	ldy	#$0
    1559: b1 10        	lda	($10),y                 ; 0x2010 <playmidi+0x623>
    155b: 85 2f        	sta	$2f                     ; 0x202f <playmidi+0x642>
    155d: c8           	iny
    155e: b1 10        	lda	($10),y                 ; 0x2010 <playmidi+0x623>
    1560: 85 2e        	sta	$2e                     ; 0x202e <playmidi+0x641>
    1562: c8           	iny
    1563: b1 10        	lda	($10),y                 ; 0x2010 <playmidi+0x623>
    1565: 85 2d        	sta	$2d                     ; 0x202d <playmidi+0x640>
    1567: c8           	iny
    1568: b1 10        	lda	($10),y                 ; 0x2010 <playmidi+0x623>
    156a: 85 2c        	sta	$2c                     ; 0x202c <playmidi+0x63f>
    156c: c8           	iny
    156d: b1 10        	lda	($10),y                 ; 0x2010 <playmidi+0x623>
    156f: 85 2b        	sta	$2b                     ; 0x202b <playmidi+0x63e>
    1571: c8           	iny
    1572: b1 10        	lda	($10),y                 ; 0x2010 <playmidi+0x623>
    1574: 85 2a        	sta	$2a                     ; 0x202a <playmidi+0x63d>
    1576: c8           	iny
    1577: b1 10        	lda	($10),y                 ; 0x2010 <playmidi+0x623>
    1579: 85 29        	sta	$29                     ; 0x2029 <playmidi+0x63c>
    157b: c8           	iny
    157c: b1 10        	lda	($10),y                 ; 0x2010 <playmidi+0x623>
    157e: 85 28        	sta	$28                     ; 0x2028 <playmidi+0x63b>
    1580: fa           	plx
    1581: 86 27        	stx	$27                     ; 0x2027 <playmidi+0x63a>
    1583: fa           	plx
    1584: 86 26        	stx	$26                     ; 0x2026 <playmidi+0x639>
    1586: fa           	plx
    1587: 86 25        	stx	$25                     ; 0x2025 <playmidi+0x638>
    1589: fa           	plx
    158a: 86 24        	stx	$24                     ; 0x2024 <playmidi+0x637>
    158c: 18           	clc
    158d: a5 10        	lda	$10                     ; 0x2010 <playmidi+0x623>
    158f: 69 47        	adc	#$47
    1591: 85 10        	sta	$10                     ; 0x2010 <playmidi+0x623>
    1593: a5 11        	lda	$11                     ; 0x2011 <playmidi+0x624>
    1595: 69 00        	adc	#$0
    1597: 85 11        	sta	$11                     ; 0x2011 <playmidi+0x624>
    1599: 60           	rts

0000159a <playmiditype0>:
    159a: 18           	clc
    159b: a5 10        	lda	$10                     ; 0x2010 <playmidi+0x623>
    159d: 69 ee        	adc	#$ee
    159f: 85 10        	sta	$10                     ; 0x2010 <playmidi+0x623>
    15a1: a5 11        	lda	$11                     ; 0x2011 <playmidi+0x624>
    15a3: 69 ff        	adc	#$ff
    15a5: 85 11        	sta	$11                     ; 0x2011 <playmidi+0x624>
    15a7: a6 24        	ldx	$24                     ; 0x2024 <playmidi+0x637>
    15a9: da           	phx
    15aa: a6 25        	ldx	$25                     ; 0x2025 <playmidi+0x638>
    15ac: da           	phx
    15ad: a6 26        	ldx	$26                     ; 0x2026 <playmidi+0x639>
    15af: da           	phx
    15b0: a6 27        	ldx	$27                     ; 0x2027 <playmidi+0x63a>
    15b2: da           	phx
    15b3: a5 28        	lda	$28                     ; 0x2028 <playmidi+0x63b>
    15b5: a0 07        	ldy	#$7
    15b7: 91 10        	sta	($10),y                 ; 0x2010 <playmidi+0x623>
    15b9: a5 29        	lda	$29                     ; 0x2029 <playmidi+0x63c>
    15bb: 88           	dey
    15bc: 91 10        	sta	($10),y                 ; 0x2010 <playmidi+0x623>
    15be: a5 2a        	lda	$2a                     ; 0x202a <playmidi+0x63d>
    15c0: 88           	dey
    15c1: 91 10        	sta	($10),y                 ; 0x2010 <playmidi+0x623>
    15c3: a5 2b        	lda	$2b                     ; 0x202b <playmidi+0x63e>
    15c5: 88           	dey
    15c6: 91 10        	sta	($10),y                 ; 0x2010 <playmidi+0x623>
    15c8: a5 2c        	lda	$2c                     ; 0x202c <playmidi+0x63f>
    15ca: 88           	dey
    15cb: 91 10        	sta	($10),y                 ; 0x2010 <playmidi+0x623>
    15cd: a5 2d        	lda	$2d                     ; 0x202d <playmidi+0x640>
    15cf: 88           	dey
    15d0: 91 10        	sta	($10),y                 ; 0x2010 <playmidi+0x623>
    15d2: a5 2e        	lda	$2e                     ; 0x202e <playmidi+0x641>
    15d4: 88           	dey
    15d5: 91 10        	sta	($10),y                 ; 0x2010 <playmidi+0x623>
    15d7: a5 2f        	lda	$2f                     ; 0x202f <playmidi+0x642>
    15d9: 88           	dey
    15da: 91 10        	sta	($10),y                 ; 0x2010 <playmidi+0x623>
    15dc: a6 12        	ldx	$12                     ; 0x2012 <playmidi+0x625>
    15de: 86 24        	stx	$24                     ; 0x2024 <playmidi+0x637>
    15e0: a6 13        	ldx	$13                     ; 0x2013 <playmidi+0x626>
    15e2: 86 25        	stx	$25                     ; 0x2025 <playmidi+0x638>
    15e4: a6 14        	ldx	$14                     ; 0x2014 <playmidi+0x627>
    15e6: 86 12        	stx	$12                     ; 0x2012 <playmidi+0x625>
    15e8: a6 15        	ldx	$15                     ; 0x2015 <playmidi+0x628>
    15ea: 86 13        	stx	$13                     ; 0x2013 <playmidi+0x626>
    15ec: a5 12        	lda	$12                     ; 0x2012 <playmidi+0x625>
    15ee: a0 0b        	ldy	#$b
    15f0: 91 10        	sta	($10),y                 ; 0x2010 <playmidi+0x623>
    15f2: a5 13        	lda	$13                     ; 0x2013 <playmidi+0x626>
    15f4: c8           	iny
    15f5: 91 10        	sta	($10),y                 ; 0x2010 <playmidi+0x623>
    15f7: 20 e3 0f     	jsr	$fe3 <getTotalLeft>
    15fa: 85 28        	sta	$28                     ; 0x2028 <playmidi+0x63b>
    15fc: 86 29        	stx	$29                     ; 0x2029 <playmidi+0x63c>
    15fe: a5 29        	lda	$29                     ; 0x2029 <playmidi+0x63c>
    1600: d0 07        	bne	$1609 <playmiditype0+0x6f>
    1602: a5 28        	lda	$28                     ; 0x2028 <playmidi+0x63b>
    1604: d0 03        	bne	$1609 <playmiditype0+0x6f>
    1606: 4c a5 19     	jmp	$19a5 <playmiditype0+0x40b>
    1609: a0 0b        	ldy	#$b
    160b: b1 10        	lda	($10),y                 ; 0x2010 <playmidi+0x623>
    160d: 85 14        	sta	$14                     ; 0x2014 <playmidi+0x627>
    160f: c8           	iny
    1610: b1 10        	lda	($10),y                 ; 0x2010 <playmidi+0x623>
    1612: 85 15        	sta	$15                     ; 0x2015 <playmidi+0x628>
    1614: a6 14        	ldx	$14                     ; 0x2014 <playmidi+0x627>
    1616: 8a           	txa
    1617: a0 0a        	ldy	#$a
    1619: 91 10        	sta	($10),y                 ; 0x2010 <playmidi+0x623>
    161b: a6 15        	ldx	$15                     ; 0x2015 <playmidi+0x628>
    161d: 8a           	txa
    161e: 88           	dey
    161f: 91 10        	sta	($10),y                 ; 0x2010 <playmidi+0x623>
    1621: a6 24        	ldx	$24                     ; 0x2024 <playmidi+0x637>
    1623: 8a           	txa
    1624: 88           	dey
    1625: 91 10        	sta	($10),y                 ; 0x2010 <playmidi+0x623>
    1627: 80 07        	bra	$1630 <playmiditype0+0x96>
    1629: a5 29        	lda	$29                     ; 0x2029 <playmidi+0x63c>
    162b: d0 03        	bne	$1630 <playmiditype0+0x96>
    162d: 4c 9e 19     	jmp	$199e <playmiditype0+0x404>
    1630: 18           	clc
    1631: a0 0a        	ldy	#$a
    1633: b1 10        	lda	($10),y                 ; 0x2010 <playmidi+0x623>
    1635: 69 03        	adc	#$3
    1637: aa           	tax
    1638: 88           	dey
    1639: b1 10        	lda	($10),y                 ; 0x2010 <playmidi+0x623>
    163b: 69 00        	adc	#$0
    163d: 86 12        	stx	$12                     ; 0x2012 <playmidi+0x625>
    163f: 85 13        	sta	$13                     ; 0x2013 <playmidi+0x626>
    1641: a0 03        	ldy	#$3
    1643: 5a           	phy
    1644: a0 0b        	ldy	#$b
    1646: b1 10        	lda	($10),y                 ; 0x2010 <playmidi+0x623>
    1648: 85 14        	sta	$14                     ; 0x2014 <playmidi+0x627>
    164a: c8           	iny
    164b: b1 10        	lda	($10),y                 ; 0x2010 <playmidi+0x623>
    164d: 7a           	ply
    164e: 85 15        	sta	$15                     ; 0x2015 <playmidi+0x628>
    1650: b1 14        	lda	($14),y                 ; 0x2014 <playmidi+0x627>
    1652: 85 14        	sta	$14                     ; 0x2014 <playmidi+0x627>
    1654: a0 01        	ldy	#$1
    1656: b1 12        	lda	($12),y                 ; 0x2012 <playmidi+0x625>
    1658: aa           	tax
    1659: a5 14        	lda	$14                     ; 0x2014 <playmidi+0x627>
    165b: 86 15        	stx	$15                     ; 0x2015 <playmidi+0x628>
    165d: 18           	clc
    165e: 69 03        	adc	#$3
    1660: 85 12        	sta	$12                     ; 0x2012 <playmidi+0x625>
    1662: 8a           	txa
    1663: 69 00        	adc	#$0
    1665: 85 13        	sta	$13                     ; 0x2013 <playmidi+0x626>
    1667: a0 08        	ldy	#$8
    1669: b1 10        	lda	($10),y                 ; 0x2010 <playmidi+0x623>
    166b: aa           	tax
    166c: 18           	clc
    166d: 69 20        	adc	#$20
    166f: 85 16        	sta	$16                     ; 0x2016 <playmidi+0x629>
    1671: a5 25        	lda	$25                     ; 0x2025 <playmidi+0x638>
    1673: 69 00        	adc	#$0
    1675: 85 17        	sta	$17                     ; 0x2017 <playmidi+0x62a>
    1677: a0 20        	ldy	#$20
    1679: b1 24        	lda	($24),y                 ; 0x2024 <playmidi+0x637>
    167b: 85 18        	sta	$18                     ; 0x2018 <playmidi+0x62b>
    167d: a0 01        	ldy	#$1
    167f: b1 16        	lda	($16),y                 ; 0x2016 <playmidi+0x629>
    1681: 5a           	phy
    1682: a4 18        	ldy	$18                     ; 0x2018 <playmidi+0x62b>
    1684: 84 16        	sty	$16                     ; 0x2016 <playmidi+0x629>
    1686: 7a           	ply
    1687: 85 17        	sta	$17                     ; 0x2017 <playmidi+0x62a>
    1689: b2 16        	lda	($16)                   ; 0x2016 <playmidi+0x629>
    168b: 85 18        	sta	$18                     ; 0x2018 <playmidi+0x62b>
    168d: b1 16        	lda	($16),y                 ; 0x2016 <playmidi+0x629>
    168f: 06 18        	asl	$18                     ; 0x2018 <playmidi+0x62b>
    1691: 2a           	rol
    1692: 64 16        	stz	$16                     ; 0x2016 <playmidi+0x629>
    1694: 26 16        	rol	$16                     ; 0x2016 <playmidi+0x629>
    1696: 64 17        	stz	$17                     ; 0x2017 <playmidi+0x62a>
    1698: 26 17        	rol	$17                     ; 0x2017 <playmidi+0x62a>
    169a: 06 18        	asl	$18                     ; 0x2018 <playmidi+0x62b>
    169c: 2a           	rol
    169d: 26 16        	rol	$16                     ; 0x2016 <playmidi+0x629>
    169f: 26 17        	rol	$17                     ; 0x2017 <playmidi+0x62a>
    16a1: 06 18        	asl	$18                     ; 0x2018 <playmidi+0x62b>
    16a3: 2a           	rol
    16a4: 85 19        	sta	$19                     ; 0x2019 <playmidi+0x62c>
    16a6: 26 16        	rol	$16                     ; 0x2016 <playmidi+0x629>
    16a8: a4 16        	ldy	$16                     ; 0x2016 <playmidi+0x629>
    16aa: 84 1b        	sty	$1b                     ; 0x201b <playmidi+0x62e>
    16ac: a4 17        	ldy	$17                     ; 0x2017 <playmidi+0x62a>
    16ae: 84 16        	sty	$16                     ; 0x2016 <playmidi+0x629>
    16b0: 26 16        	rol	$16                     ; 0x2016 <playmidi+0x629>
    16b2: 18           	clc
    16b3: a5 18        	lda	$18                     ; 0x2018 <playmidi+0x62b>
    16b5: a0 03        	ldy	#$3
    16b7: 71 14        	adc	($14),y                 ; 0x2014 <playmidi+0x627>
    16b9: 85 2e        	sta	$2e                     ; 0x202e <playmidi+0x641>
    16bb: a5 19        	lda	$19                     ; 0x2019 <playmidi+0x62c>
    16bd: a0 01        	ldy	#$1
    16bf: 71 12        	adc	($12),y                 ; 0x2012 <playmidi+0x625>
    16c1: 85 26        	sta	$26                     ; 0x2026 <playmidi+0x639>
    16c3: c8           	iny
    16c4: a5 1b        	lda	$1b                     ; 0x201b <playmidi+0x62e>
    16c6: 71 12        	adc	($12),y                 ; 0x2012 <playmidi+0x625>
    16c8: 85 2f        	sta	$2f                     ; 0x202f <playmidi+0x642>
    16ca: a5 16        	lda	$16                     ; 0x2016 <playmidi+0x629>
    16cc: c8           	iny
    16cd: 71 12        	adc	($12),y                 ; 0x2012 <playmidi+0x625>
    16cf: 85 2d        	sta	$2d                     ; 0x202d <playmidi+0x640>
    16d1: 8a           	txa
    16d2: 18           	clc
    16d3: 69 30        	adc	#$30
    16d5: 85 2a        	sta	$2a                     ; 0x202a <playmidi+0x63d>
    16d7: a5 25        	lda	$25                     ; 0x2025 <playmidi+0x638>
    16d9: 69 00        	adc	#$0
    16db: 85 2b        	sta	$2b                     ; 0x202b <playmidi+0x63e>
    16dd: 18           	clc
    16de: a5 2e        	lda	$2e                     ; 0x202e <playmidi+0x641>
    16e0: a0 30        	ldy	#$30
    16e2: 71 24        	adc	($24),y                 ; 0x2024 <playmidi+0x637>
    16e4: 85 14        	sta	$14                     ; 0x2014 <playmidi+0x627>
    16e6: a5 26        	lda	$26                     ; 0x2026 <playmidi+0x639>
    16e8: a0 01        	ldy	#$1
    16ea: 71 2a        	adc	($2a),y                 ; 0x202a <playmidi+0x63d>
    16ec: aa           	tax
    16ed: a5 2f        	lda	$2f                     ; 0x202f <playmidi+0x642>
    16ef: c8           	iny
    16f0: 71 2a        	adc	($2a),y                 ; 0x202a <playmidi+0x63d>
    16f2: 85 12        	sta	$12                     ; 0x2012 <playmidi+0x625>
    16f4: a5 2d        	lda	$2d                     ; 0x202d <playmidi+0x640>
    16f6: c8           	iny
    16f7: 71 2a        	adc	($2a),y                 ; 0x202a <playmidi+0x63d>
    16f9: 85 13        	sta	$13                     ; 0x2013 <playmidi+0x626>
    16fb: a5 14        	lda	$14                     ; 0x2014 <playmidi+0x627>
    16fd: 20 dd 09     	jsr	$9dd <FAR_PEEK>
    1700: a0 11        	ldy	#$11
    1702: 91 10        	sta	($10),y                 ; 0x2010 <playmidi+0x623>
    1704: 18           	clc
    1705: a5 2e        	lda	$2e                     ; 0x202e <playmidi+0x641>
    1707: a0 30        	ldy	#$30
    1709: 71 24        	adc	($24),y                 ; 0x2024 <playmidi+0x637>
    170b: 85 14        	sta	$14                     ; 0x2014 <playmidi+0x627>
    170d: a5 26        	lda	$26                     ; 0x2026 <playmidi+0x639>
    170f: a0 01        	ldy	#$1
    1711: 71 2a        	adc	($2a),y                 ; 0x202a <playmidi+0x63d>
    1713: aa           	tax
    1714: a5 2f        	lda	$2f                     ; 0x202f <playmidi+0x642>
    1716: c8           	iny
    1717: 71 2a        	adc	($2a),y                 ; 0x202a <playmidi+0x63d>
    1719: 85 12        	sta	$12                     ; 0x2012 <playmidi+0x625>
    171b: a5 2d        	lda	$2d                     ; 0x202d <playmidi+0x640>
    171d: c8           	iny
    171e: 71 2a        	adc	($2a),y                 ; 0x202a <playmidi+0x63d>
    1720: e6 14        	inc	$14                     ; 0x2014 <playmidi+0x627>
    1722: d0 08        	bne	$172c <playmiditype0+0x192>
    1724: e8           	inx
    1725: d0 05        	bne	$172c <playmiditype0+0x192>
    1727: e6 12        	inc	$12                     ; 0x2012 <playmidi+0x625>
    1729: d0 01        	bne	$172c <playmiditype0+0x192>
    172b: 1a           	inc
    172c: 85 13        	sta	$13                     ; 0x2013 <playmidi+0x626>
    172e: a5 14        	lda	$14                     ; 0x2014 <playmidi+0x627>
    1730: 20 dd 09     	jsr	$9dd <FAR_PEEK>
    1733: 85 2c        	sta	$2c                     ; 0x202c <playmidi+0x63f>
    1735: 18           	clc
    1736: a5 2e        	lda	$2e                     ; 0x202e <playmidi+0x641>
    1738: a0 30        	ldy	#$30
    173a: 71 24        	adc	($24),y                 ; 0x2024 <playmidi+0x637>
    173c: aa           	tax
    173d: a5 26        	lda	$26                     ; 0x2026 <playmidi+0x639>
    173f: a0 01        	ldy	#$1
    1741: 71 2a        	adc	($2a),y                 ; 0x202a <playmidi+0x63d>
    1743: 85 12        	sta	$12                     ; 0x2012 <playmidi+0x625>
    1745: a5 2f        	lda	$2f                     ; 0x202f <playmidi+0x642>
    1747: c8           	iny
    1748: 71 2a        	adc	($2a),y                 ; 0x202a <playmidi+0x63d>
    174a: 85 13        	sta	$13                     ; 0x2013 <playmidi+0x626>
    174c: a5 2d        	lda	$2d                     ; 0x202d <playmidi+0x640>
    174e: c8           	iny
    174f: 71 2a        	adc	($2a),y                 ; 0x202a <playmidi+0x63d>
    1751: 85 14        	sta	$14                     ; 0x2014 <playmidi+0x627>
    1753: 18           	clc
    1754: 8a           	txa
    1755: 69 02        	adc	#$2
    1757: a8           	tay
    1758: a5 12        	lda	$12                     ; 0x2012 <playmidi+0x625>
    175a: 69 00        	adc	#$0
    175c: aa           	tax
    175d: a5 13        	lda	$13                     ; 0x2013 <playmidi+0x626>
    175f: 69 00        	adc	#$0
    1761: 85 12        	sta	$12                     ; 0x2012 <playmidi+0x625>
    1763: a5 14        	lda	$14                     ; 0x2014 <playmidi+0x627>
    1765: 69 00        	adc	#$0
    1767: 85 13        	sta	$13                     ; 0x2013 <playmidi+0x626>
    1769: 98           	tya
    176a: 20 dd 09     	jsr	$9dd <FAR_PEEK>
    176d: a0 0e        	ldy	#$e
    176f: 91 10        	sta	($10),y                 ; 0x2010 <playmidi+0x623>
    1771: 18           	clc
    1772: a5 2e        	lda	$2e                     ; 0x202e <playmidi+0x641>
    1774: a0 30        	ldy	#$30
    1776: 71 24        	adc	($24),y                 ; 0x2024 <playmidi+0x637>
    1778: aa           	tax
    1779: a5 26        	lda	$26                     ; 0x2026 <playmidi+0x639>
    177b: a0 01        	ldy	#$1
    177d: 71 2a        	adc	($2a),y                 ; 0x202a <playmidi+0x63d>
    177f: 85 12        	sta	$12                     ; 0x2012 <playmidi+0x625>
    1781: a5 2f        	lda	$2f                     ; 0x202f <playmidi+0x642>
    1783: c8           	iny
    1784: 71 2a        	adc	($2a),y                 ; 0x202a <playmidi+0x63d>
    1786: 85 13        	sta	$13                     ; 0x2013 <playmidi+0x626>
    1788: a5 2d        	lda	$2d                     ; 0x202d <playmidi+0x640>
    178a: c8           	iny
    178b: 71 2a        	adc	($2a),y                 ; 0x202a <playmidi+0x63d>
    178d: 85 14        	sta	$14                     ; 0x2014 <playmidi+0x627>
    178f: 18           	clc
    1790: 8a           	txa
    1791: 69 03        	adc	#$3
    1793: a8           	tay
    1794: a5 12        	lda	$12                     ; 0x2012 <playmidi+0x625>
    1796: 69 00        	adc	#$0
    1798: aa           	tax
    1799: a5 13        	lda	$13                     ; 0x2013 <playmidi+0x626>
    179b: 69 00        	adc	#$0
    179d: 85 12        	sta	$12                     ; 0x2012 <playmidi+0x625>
    179f: a5 14        	lda	$14                     ; 0x2014 <playmidi+0x627>
    17a1: 69 00        	adc	#$0
    17a3: 85 13        	sta	$13                     ; 0x2013 <playmidi+0x626>
    17a5: 98           	tya
    17a6: 20 dd 09     	jsr	$9dd <FAR_PEEK>
    17a9: 85 27        	sta	$27                     ; 0x2027 <playmidi+0x63a>
    17ab: 18           	clc
    17ac: a5 2e        	lda	$2e                     ; 0x202e <playmidi+0x641>
    17ae: a0 30        	ldy	#$30
    17b0: 71 24        	adc	($24),y                 ; 0x2024 <playmidi+0x637>
    17b2: aa           	tax
    17b3: a5 26        	lda	$26                     ; 0x2026 <playmidi+0x639>
    17b5: a0 01        	ldy	#$1
    17b7: 71 2a        	adc	($2a),y                 ; 0x202a <playmidi+0x63d>
    17b9: 85 12        	sta	$12                     ; 0x2012 <playmidi+0x625>
    17bb: a5 2f        	lda	$2f                     ; 0x202f <playmidi+0x642>
    17bd: c8           	iny
    17be: 71 2a        	adc	($2a),y                 ; 0x202a <playmidi+0x63d>
    17c0: 85 13        	sta	$13                     ; 0x2013 <playmidi+0x626>
    17c2: a5 2d        	lda	$2d                     ; 0x202d <playmidi+0x640>
    17c4: c8           	iny
    17c5: 71 2a        	adc	($2a),y                 ; 0x202a <playmidi+0x63d>
    17c7: 85 14        	sta	$14                     ; 0x2014 <playmidi+0x627>
    17c9: 18           	clc
    17ca: 8a           	txa
    17cb: 69 04        	adc	#$4
    17cd: a8           	tay
    17ce: a5 12        	lda	$12                     ; 0x2012 <playmidi+0x625>
    17d0: 69 00        	adc	#$0
    17d2: aa           	tax
    17d3: a5 13        	lda	$13                     ; 0x2013 <playmidi+0x626>
    17d5: 69 00        	adc	#$0
    17d7: 85 12        	sta	$12                     ; 0x2012 <playmidi+0x625>
    17d9: a5 14        	lda	$14                     ; 0x2014 <playmidi+0x627>
    17db: 69 00        	adc	#$0
    17dd: 85 13        	sta	$13                     ; 0x2013 <playmidi+0x626>
    17df: 98           	tya
    17e0: 20 dd 09     	jsr	$9dd <FAR_PEEK>
    17e3: a0 10        	ldy	#$10
    17e5: 91 10        	sta	($10),y                 ; 0x2010 <playmidi+0x623>
    17e7: 18           	clc
    17e8: a5 2e        	lda	$2e                     ; 0x202e <playmidi+0x641>
    17ea: a0 30        	ldy	#$30
    17ec: 71 24        	adc	($24),y                 ; 0x2024 <playmidi+0x637>
    17ee: aa           	tax
    17ef: a5 26        	lda	$26                     ; 0x2026 <playmidi+0x639>
    17f1: a0 01        	ldy	#$1
    17f3: 71 2a        	adc	($2a),y                 ; 0x202a <playmidi+0x63d>
    17f5: 85 12        	sta	$12                     ; 0x2012 <playmidi+0x625>
    17f7: a5 2f        	lda	$2f                     ; 0x202f <playmidi+0x642>
    17f9: c8           	iny
    17fa: 71 2a        	adc	($2a),y                 ; 0x202a <playmidi+0x63d>
    17fc: 85 13        	sta	$13                     ; 0x2013 <playmidi+0x626>
    17fe: a5 2d        	lda	$2d                     ; 0x202d <playmidi+0x640>
    1800: c8           	iny
    1801: 71 2a        	adc	($2a),y                 ; 0x202a <playmidi+0x63d>
    1803: 85 14        	sta	$14                     ; 0x2014 <playmidi+0x627>
    1805: 18           	clc
    1806: 8a           	txa
    1807: 69 05        	adc	#$5
    1809: a8           	tay
    180a: a5 12        	lda	$12                     ; 0x2012 <playmidi+0x625>
    180c: 69 00        	adc	#$0
    180e: aa           	tax
    180f: a5 13        	lda	$13                     ; 0x2013 <playmidi+0x626>
    1811: 69 00        	adc	#$0
    1813: 85 12        	sta	$12                     ; 0x2012 <playmidi+0x625>
    1815: a5 14        	lda	$14                     ; 0x2014 <playmidi+0x627>
    1817: 69 00        	adc	#$0
    1819: 85 13        	sta	$13                     ; 0x2013 <playmidi+0x626>
    181b: 98           	tya
    181c: 20 dd 09     	jsr	$9dd <FAR_PEEK>
    181f: a0 0f        	ldy	#$f
    1821: 91 10        	sta	($10),y                 ; 0x2010 <playmidi+0x623>
    1823: 18           	clc
    1824: a5 2e        	lda	$2e                     ; 0x202e <playmidi+0x641>
    1826: a0 30        	ldy	#$30
    1828: 71 24        	adc	($24),y                 ; 0x2024 <playmidi+0x637>
    182a: aa           	tax
    182b: a5 26        	lda	$26                     ; 0x2026 <playmidi+0x639>
    182d: a0 01        	ldy	#$1
    182f: 71 2a        	adc	($2a),y                 ; 0x202a <playmidi+0x63d>
    1831: 85 12        	sta	$12                     ; 0x2012 <playmidi+0x625>
    1833: a5 2f        	lda	$2f                     ; 0x202f <playmidi+0x642>
    1835: c8           	iny
    1836: 71 2a        	adc	($2a),y                 ; 0x202a <playmidi+0x63d>
    1838: 85 13        	sta	$13                     ; 0x2013 <playmidi+0x626>
    183a: a5 2d        	lda	$2d                     ; 0x202d <playmidi+0x640>
    183c: c8           	iny
    183d: 71 2a        	adc	($2a),y                 ; 0x202a <playmidi+0x63d>
    183f: 85 14        	sta	$14                     ; 0x2014 <playmidi+0x627>
    1841: 18           	clc
    1842: 8a           	txa
    1843: 69 06        	adc	#$6
    1845: a8           	tay
    1846: a5 12        	lda	$12                     ; 0x2012 <playmidi+0x625>
    1848: 69 00        	adc	#$0
    184a: aa           	tax
    184b: a5 13        	lda	$13                     ; 0x2013 <playmidi+0x626>
    184d: 69 00        	adc	#$0
    184f: 85 12        	sta	$12                     ; 0x2012 <playmidi+0x625>
    1851: a5 14        	lda	$14                     ; 0x2014 <playmidi+0x627>
    1853: 69 00        	adc	#$0
    1855: 85 13        	sta	$13                     ; 0x2013 <playmidi+0x626>
    1857: 98           	tya
    1858: 20 dd 09     	jsr	$9dd <FAR_PEEK>
    185b: a0 0d        	ldy	#$d
    185d: 91 10        	sta	($10),y                 ; 0x2010 <playmidi+0x623>
    185f: 18           	clc
    1860: a5 2e        	lda	$2e                     ; 0x202e <playmidi+0x641>
    1862: a0 30        	ldy	#$30
    1864: 71 24        	adc	($24),y                 ; 0x2024 <playmidi+0x637>
    1866: 85 14        	sta	$14                     ; 0x2014 <playmidi+0x627>
    1868: a5 26        	lda	$26                     ; 0x2026 <playmidi+0x639>
    186a: a0 01        	ldy	#$1
    186c: 71 2a        	adc	($2a),y                 ; 0x202a <playmidi+0x63d>
    186e: 85 12        	sta	$12                     ; 0x2012 <playmidi+0x625>
    1870: a5 2f        	lda	$2f                     ; 0x202f <playmidi+0x642>
    1872: c8           	iny
    1873: 71 2a        	adc	($2a),y                 ; 0x202a <playmidi+0x63d>
    1875: 85 13        	sta	$13                     ; 0x2013 <playmidi+0x626>
    1877: a5 2d        	lda	$2d                     ; 0x202d <playmidi+0x640>
    1879: c8           	iny
    187a: 71 2a        	adc	($2a),y                 ; 0x202a <playmidi+0x63d>
    187c: aa           	tax
    187d: 18           	clc
    187e: a5 14        	lda	$14                     ; 0x2014 <playmidi+0x627>
    1880: 69 07        	adc	#$7
    1882: a8           	tay
    1883: a5 12        	lda	$12                     ; 0x2012 <playmidi+0x625>
    1885: 69 00        	adc	#$0
    1887: 85 14        	sta	$14                     ; 0x2014 <playmidi+0x627>
    1889: a5 13        	lda	$13                     ; 0x2013 <playmidi+0x626>
    188b: 69 00        	adc	#$0
    188d: 85 12        	sta	$12                     ; 0x2012 <playmidi+0x625>
    188f: 8a           	txa
    1890: 69 00        	adc	#$0
    1892: 85 13        	sta	$13                     ; 0x2013 <playmidi+0x626>
    1894: a6 14        	ldx	$14                     ; 0x2014 <playmidi+0x627>
    1896: 98           	tya
    1897: 20 dd 09     	jsr	$9dd <FAR_PEEK>
    189a: 48           	pha
    189b: a0 0e        	ldy	#$e
    189d: b1 10        	lda	($10),y                 ; 0x2010 <playmidi+0x623>
    189f: a8           	tay
    18a0: 5a           	phy
    18a1: a0 11        	ldy	#$11
    18a3: b1 10        	lda	($10),y                 ; 0x2010 <playmidi+0x623>
    18a5: 7a           	ply
    18a6: 85 14        	sta	$14                     ; 0x2014 <playmidi+0x627>
    18a8: 68           	pla
    18a9: a6 27        	ldx	$27                     ; 0x2027 <playmidi+0x63a>
    18ab: d0 0f        	bne	$18bc <playmiditype0+0x322>
    18ad: c0 00        	cpy	#$0
    18af: d0 0b        	bne	$18bc <playmiditype0+0x322>
    18b1: a6 2c        	ldx	$2c                     ; 0x202c <playmidi+0x63f>
    18b3: d0 07        	bne	$18bc <playmiditype0+0x322>
    18b5: a6 14        	ldx	$14                     ; 0x2014 <playmidi+0x627>
    18b7: d0 03        	bne	$18bc <playmiditype0+0x322>
    18b9: 4c 46 19     	jmp	$1946 <playmiditype0+0x3ac>
    18bc: a6 2c        	ldx	$2c                     ; 0x202c <playmidi+0x63f>
    18be: 86 2b        	stx	$2b                     ; 0x202b <playmidi+0x63e>
    18c0: a6 14        	ldx	$14                     ; 0x2014 <playmidi+0x627>
    18c2: 84 12        	sty	$12                     ; 0x2012 <playmidi+0x625>
    18c4: a4 27        	ldy	$27                     ; 0x2027 <playmidi+0x63a>
    18c6: d0 03        	bne	$18cb <playmiditype0+0x331>
    18c8: 4c 31 19     	jmp	$1931 <playmiditype0+0x397>
    18cb: a4 27        	ldy	$27                     ; 0x2027 <playmidi+0x63a>
    18cd: 84 2c        	sty	$2c                     ; 0x202c <playmidi+0x63f>
    18cf: 85 27        	sta	$27                     ; 0x2027 <playmidi+0x63a>
    18d1: 8a           	txa
    18d2: a6 12        	ldx	$12                     ; 0x2012 <playmidi+0x625>
    18d4: 86 26        	stx	$26                     ; 0x2026 <playmidi+0x639>
    18d6: 85 2a        	sta	$2a                     ; 0x202a <playmidi+0x63d>
    18d8: a2 ff        	ldx	#$ff
    18da: 86 12        	stx	$12                     ; 0x2012 <playmidi+0x625>
    18dc: 8a           	txa
    18dd: 20 04 28     	jsr	$2804 <setTimer0>
    18e0: 20 24 28     	jsr	$2824 <isTimer0Done>
    18e3: aa           	tax
    18e4: f0 fa        	beq	$18e0 <playmiditype0+0x346>
    18e6: a2 10        	ldx	#$10
    18e8: 8e 60 d6     	stx	$d660                   ; 0xd660 <end_block9+0xa8c4>
    18eb: 18           	clc
    18ec: a5 2a        	lda	$2a                     ; 0x202a <playmidi+0x63d>
    18ee: 69 01        	adc	#$1
    18f0: a8           	tay
    18f1: a5 2b        	lda	$2b                     ; 0x202b <playmidi+0x63e>
    18f3: 69 00        	adc	#$0
    18f5: 85 2b        	sta	$2b                     ; 0x202b <playmidi+0x63e>
    18f7: a5 26        	lda	$26                     ; 0x2026 <playmidi+0x639>
    18f9: 69 00        	adc	#$0
    18fb: aa           	tax
    18fc: a5 2c        	lda	$2c                     ; 0x202c <playmidi+0x63f>
    18fe: 69 ff        	adc	#$ff
    1900: c9 01        	cmp	#$1
    1902: d0 12        	bne	$1916 <playmiditype0+0x37c>
    1904: 85 2c        	sta	$2c                     ; 0x202c <playmidi+0x63f>
    1906: 8a           	txa
    1907: d0 15        	bne	$191e <playmiditype0+0x384>
    1909: 86 12        	stx	$12                     ; 0x2012 <playmidi+0x625>
    190b: 98           	tya
    190c: a6 2b        	ldx	$2b                     ; 0x202b <playmidi+0x63e>
    190e: d0 18        	bne	$1928 <playmiditype0+0x38e>
    1910: c9 00        	cmp	#$0
    1912: b0 be        	bcs	$18d2 <playmiditype0+0x338>
    1914: 80 1e        	bra	$1934 <playmiditype0+0x39a>
    1916: 86 12        	stx	$12                     ; 0x2012 <playmidi+0x625>
    1918: 85 2c        	sta	$2c                     ; 0x202c <playmidi+0x63f>
    191a: c9 01        	cmp	#$1
    191c: 80 04        	bra	$1922 <playmiditype0+0x388>
    191e: 86 12        	stx	$12                     ; 0x2012 <playmidi+0x625>
    1920: e0 00        	cpx	#$0
    1922: 98           	tya
    1923: 90 0f        	bcc	$1934 <playmiditype0+0x39a>
    1925: 4c d2 18     	jmp	$18d2 <playmiditype0+0x338>
    1928: a6 2b        	ldx	$2b                     ; 0x202b <playmidi+0x63e>
    192a: e0 00        	cpx	#$0
    192c: 90 06        	bcc	$1934 <playmiditype0+0x39a>
    192e: 4c d2 18     	jmp	$18d2 <playmiditype0+0x338>
    1931: 85 27        	sta	$27                     ; 0x2027 <playmidi+0x63a>
    1933: 8a           	txa
    1934: a6 2b        	ldx	$2b                     ; 0x202b <playmidi+0x63e>
    1936: 20 04 28     	jsr	$2804 <setTimer0>
    1939: 20 24 28     	jsr	$2824 <isTimer0Done>
    193c: aa           	tax
    193d: f0 fa        	beq	$1939 <playmiditype0+0x39f>
    193f: a2 10        	ldx	#$10
    1941: 8e 60 d6     	stx	$d660                   ; 0xd660 <end_block9+0xa8c4>
    1944: a5 27        	lda	$27                     ; 0x2027 <playmidi+0x63a>
    1946: 48           	pha
    1947: a0 0f        	ldy	#$f
    1949: b1 10        	lda	($10),y                 ; 0x2010 <playmidi+0x623>
    194b: 8d a1 dd     	sta	$dda1                   ; 0xdda1 <end_block9+0xb005>
    194e: a0 0d        	ldy	#$d
    1950: b1 10        	lda	($10),y                 ; 0x2010 <playmidi+0x623>
    1952: 8d a1 dd     	sta	$dda1                   ; 0xdda1 <end_block9+0xb005>
    1955: a0 10        	ldy	#$10
    1957: b1 10        	lda	($10),y                 ; 0x2010 <playmidi+0x623>
    1959: aa           	tax
    195a: 68           	pla
    195b: e0 03        	cpx	#$3
    195d: d0 03        	bne	$1962 <playmiditype0+0x3c8>
    195f: 8d a1 dd     	sta	$dda1                   ; 0xdda1 <end_block9+0xb005>
    1962: a5 24        	lda	$24                     ; 0x2024 <playmidi+0x637>
    1964: 18           	clc
    1965: 69 20        	adc	#$20
    1967: 85 12        	sta	$12                     ; 0x2012 <playmidi+0x625>
    1969: a5 25        	lda	$25                     ; 0x2025 <playmidi+0x638>
    196b: 69 00        	adc	#$0
    196d: 85 13        	sta	$13                     ; 0x2013 <playmidi+0x626>
    196f: a0 20        	ldy	#$20
    1971: b1 24        	lda	($24),y                 ; 0x2024 <playmidi+0x637>
    1973: aa           	tax
    1974: a0 01        	ldy	#$1
    1976: b1 12        	lda	($12),y                 ; 0x2012 <playmidi+0x625>
    1978: 86 12        	stx	$12                     ; 0x2012 <playmidi+0x625>
    197a: 85 13        	sta	$13                     ; 0x2013 <playmidi+0x626>
    197c: b2 12        	lda	($12)                   ; 0x2012 <playmidi+0x625>
    197e: 85 14        	sta	$14                     ; 0x2014 <playmidi+0x627>
    1980: b1 12        	lda	($12),y                 ; 0x2012 <playmidi+0x625>
    1982: aa           	tax
    1983: a5 14        	lda	$14                     ; 0x2014 <playmidi+0x627>
    1985: 1a           	inc
    1986: d0 01        	bne	$1989 <playmiditype0+0x3ef>
    1988: e8           	inx
    1989: 92 12        	sta	($12)                   ; 0x2012 <playmidi+0x625>
    198b: 8a           	txa
    198c: 91 12        	sta	($12),y                 ; 0x2012 <playmidi+0x625>
    198e: a2 ff        	ldx	#$ff
    1990: c6 28        	dec	$28                     ; 0x2028 <playmidi+0x63b>
    1992: e4 28        	cpx	$28                     ; 0x2028 <playmidi+0x63b>
    1994: f0 03        	beq	$1999 <playmiditype0+0x3ff>
    1996: 4c 29 16     	jmp	$1629 <playmiditype0+0x8f>
    1999: c6 29        	dec	$29                     ; 0x2029 <playmidi+0x63c>
    199b: 4c 29 16     	jmp	$1629 <playmiditype0+0x8f>
    199e: a5 28        	lda	$28                     ; 0x2028 <playmidi+0x63b>
    19a0: f0 03        	beq	$19a5 <playmiditype0+0x40b>
    19a2: 4c 30 16     	jmp	$1630 <playmiditype0+0x96>
    19a5: a9 00        	lda	#$0
    19a7: 85 20        	sta	$20                     ; 0x2020 <playmidi+0x633>
    19a9: a8           	tay
    19aa: b1 10        	lda	($10),y                 ; 0x2010 <playmidi+0x623>
    19ac: 85 2f        	sta	$2f                     ; 0x202f <playmidi+0x642>
    19ae: c8           	iny
    19af: b1 10        	lda	($10),y                 ; 0x2010 <playmidi+0x623>
    19b1: 85 2e        	sta	$2e                     ; 0x202e <playmidi+0x641>
    19b3: c8           	iny
    19b4: b1 10        	lda	($10),y                 ; 0x2010 <playmidi+0x623>
    19b6: 85 2d        	sta	$2d                     ; 0x202d <playmidi+0x640>
    19b8: c8           	iny
    19b9: b1 10        	lda	($10),y                 ; 0x2010 <playmidi+0x623>
    19bb: 85 2c        	sta	$2c                     ; 0x202c <playmidi+0x63f>
    19bd: c8           	iny
    19be: b1 10        	lda	($10),y                 ; 0x2010 <playmidi+0x623>
    19c0: 85 2b        	sta	$2b                     ; 0x202b <playmidi+0x63e>
    19c2: c8           	iny
    19c3: b1 10        	lda	($10),y                 ; 0x2010 <playmidi+0x623>
    19c5: 85 2a        	sta	$2a                     ; 0x202a <playmidi+0x63d>
    19c7: c8           	iny
    19c8: b1 10        	lda	($10),y                 ; 0x2010 <playmidi+0x623>
    19ca: 85 29        	sta	$29                     ; 0x2029 <playmidi+0x63c>
    19cc: c8           	iny
    19cd: b1 10        	lda	($10),y                 ; 0x2010 <playmidi+0x623>
    19cf: 85 28        	sta	$28                     ; 0x2028 <playmidi+0x63b>
    19d1: fa           	plx
    19d2: 86 27        	stx	$27                     ; 0x2027 <playmidi+0x63a>
    19d4: fa           	plx
    19d5: 86 26        	stx	$26                     ; 0x2026 <playmidi+0x639>
    19d7: fa           	plx
    19d8: 86 25        	stx	$25                     ; 0x2025 <playmidi+0x638>
    19da: fa           	plx
    19db: 86 24        	stx	$24                     ; 0x2024 <playmidi+0x637>
    19dd: 18           	clc
    19de: a5 10        	lda	$10                     ; 0x2010 <playmidi+0x623>
    19e0: 69 12        	adc	#$12
    19e2: 85 10        	sta	$10                     ; 0x2010 <playmidi+0x623>
    19e4: a5 11        	lda	$11                     ; 0x2011 <playmidi+0x624>
    19e6: 69 00        	adc	#$0
    19e8: 85 11        	sta	$11                     ; 0x2011 <playmidi+0x624>
    19ea: a5 20        	lda	$20                     ; 0x2020 <playmidi+0x633>
    19ec: 60           	rts

000019ed <playmidi>:
    19ed: 18           	clc
    19ee: a5 10        	lda	$10                     ; 0x2010 <playmidi+0x623>
    19f0: 69 dc        	adc	#$dc
    19f2: 85 10        	sta	$10                     ; 0x2010 <playmidi+0x623>
    19f4: a5 11        	lda	$11                     ; 0x2011 <playmidi+0x624>
    19f6: 69 ff        	adc	#$ff
    19f8: 85 11        	sta	$11                     ; 0x2011 <playmidi+0x624>
    19fa: a6 24        	ldx	$24                     ; 0x2024 <playmidi+0x637>
    19fc: da           	phx
    19fd: a6 25        	ldx	$25                     ; 0x2025 <playmidi+0x638>
    19ff: da           	phx
    1a00: a6 26        	ldx	$26                     ; 0x2026 <playmidi+0x639>
    1a02: da           	phx
    1a03: a6 27        	ldx	$27                     ; 0x2027 <playmidi+0x63a>
    1a05: da           	phx
    1a06: a5 28        	lda	$28                     ; 0x2028 <playmidi+0x63b>
    1a08: a0 07        	ldy	#$7
    1a0a: 91 10        	sta	($10),y                 ; 0x2010 <playmidi+0x623>
    1a0c: a5 29        	lda	$29                     ; 0x2029 <playmidi+0x63c>
    1a0e: 88           	dey
    1a0f: 91 10        	sta	($10),y                 ; 0x2010 <playmidi+0x623>
    1a11: a5 2a        	lda	$2a                     ; 0x202a <playmidi+0x63d>
    1a13: 88           	dey
    1a14: 91 10        	sta	($10),y                 ; 0x2010 <playmidi+0x623>
    1a16: a5 2b        	lda	$2b                     ; 0x202b <playmidi+0x63e>
    1a18: 88           	dey
    1a19: 91 10        	sta	($10),y                 ; 0x2010 <playmidi+0x623>
    1a1b: a5 2c        	lda	$2c                     ; 0x202c <playmidi+0x63f>
    1a1d: 88           	dey
    1a1e: 91 10        	sta	($10),y                 ; 0x2010 <playmidi+0x623>
    1a20: a5 2d        	lda	$2d                     ; 0x202d <playmidi+0x640>
    1a22: 88           	dey
    1a23: 91 10        	sta	($10),y                 ; 0x2010 <playmidi+0x623>
    1a25: a5 2e        	lda	$2e                     ; 0x202e <playmidi+0x641>
    1a27: 88           	dey
    1a28: 91 10        	sta	($10),y                 ; 0x2010 <playmidi+0x623>
    1a2a: a5 2f        	lda	$2f                     ; 0x202f <playmidi+0x642>
    1a2c: 88           	dey
    1a2d: 91 10        	sta	($10),y                 ; 0x2010 <playmidi+0x623>
    1a2f: a5 12        	lda	$12                     ; 0x2012 <playmidi+0x625>
    1a31: a0 18        	ldy	#$18
    1a33: 91 10        	sta	($10),y                 ; 0x2010 <playmidi+0x623>
    1a35: a5 13        	lda	$13                     ; 0x2013 <playmidi+0x626>
    1a37: c8           	iny
    1a38: 91 10        	sta	($10),y                 ; 0x2010 <playmidi+0x623>
    1a3a: a6 14        	ldx	$14                     ; 0x2014 <playmidi+0x627>
    1a3c: 86 24        	stx	$24                     ; 0x2024 <playmidi+0x637>
    1a3e: a6 15        	ldx	$15                     ; 0x2015 <playmidi+0x628>
    1a40: 86 25        	stx	$25                     ; 0x2025 <playmidi+0x638>
    1a42: a6 14        	ldx	$14                     ; 0x2014 <playmidi+0x627>
    1a44: 86 12        	stx	$12                     ; 0x2012 <playmidi+0x625>
    1a46: a6 15        	ldx	$15                     ; 0x2015 <playmidi+0x628>
    1a48: 86 13        	stx	$13                     ; 0x2013 <playmidi+0x626>
    1a4a: e6 12        	inc	$12                     ; 0x2012 <playmidi+0x625>
    1a4c: d0 02        	bne	$1a50 <playmidi+0x63>
    1a4e: e6 13        	inc	$13                     ; 0x2013 <playmidi+0x626>
    1a50: a0 01        	ldy	#$1
    1a52: b1 14        	lda	($14),y                 ; 0x2014 <playmidi+0x627>
    1a54: 85 26        	sta	$26                     ; 0x2026 <playmidi+0x639>
    1a56: b1 12        	lda	($12),y                 ; 0x2012 <playmidi+0x625>
    1a58: 85 27        	sta	$27                     ; 0x2027 <playmidi+0x63a>
    1a5a: a5 26        	lda	$26                     ; 0x2026 <playmidi+0x639>
    1a5c: 0a           	asl
    1a5d: a6 27        	ldx	$27                     ; 0x2027 <playmidi+0x63a>
    1a5f: 86 12        	stx	$12                     ; 0x2012 <playmidi+0x625>
    1a61: 26 12        	rol	$12                     ; 0x2012 <playmidi+0x625>
    1a63: 0a           	asl
    1a64: 26 12        	rol	$12                     ; 0x2012 <playmidi+0x625>
    1a66: a6 12        	ldx	$12                     ; 0x2012 <playmidi+0x625>
    1a68: 20 3a 28     	jsr	$283a <malloc>
    1a6b: a5 12        	lda	$12                     ; 0x2012 <playmidi+0x625>
    1a6d: a0 14        	ldy	#$14
    1a6f: 91 10        	sta	($10),y                 ; 0x2010 <playmidi+0x623>
    1a71: a5 13        	lda	$13                     ; 0x2013 <playmidi+0x626>
    1a73: c8           	iny
    1a74: 91 10        	sta	($10),y                 ; 0x2010 <playmidi+0x623>
    1a76: a5 24        	lda	$24                     ; 0x2024 <playmidi+0x637>
    1a78: a0 1a        	ldy	#$1a
    1a7a: 91 10        	sta	($10),y                 ; 0x2010 <playmidi+0x623>
    1a7c: a5 25        	lda	$25                     ; 0x2025 <playmidi+0x638>
    1a7e: c8           	iny
    1a7f: 91 10        	sta	($10),y                 ; 0x2010 <playmidi+0x623>
    1a81: a6 24        	ldx	$24                     ; 0x2024 <playmidi+0x637>
    1a83: 86 12        	stx	$12                     ; 0x2012 <playmidi+0x625>
    1a85: a6 25        	ldx	$25                     ; 0x2025 <playmidi+0x638>
    1a87: 86 13        	stx	$13                     ; 0x2013 <playmidi+0x626>
    1a89: 20 e3 0f     	jsr	$fe3 <getTotalLeft>
    1a8c: a0 13        	ldy	#$13
    1a8e: 91 10        	sta	($10),y                 ; 0x2010 <playmidi+0x623>
    1a90: 8a           	txa
    1a91: 88           	dey
    1a92: 91 10        	sta	($10),y                 ; 0x2010 <playmidi+0x623>
    1a94: a6 26        	ldx	$26                     ; 0x2026 <playmidi+0x639>
    1a96: 86 14        	stx	$14                     ; 0x2014 <playmidi+0x627>
    1a98: a5 26        	lda	$26                     ; 0x2026 <playmidi+0x639>
    1a9a: a0 16        	ldy	#$16
    1a9c: 91 10        	sta	($10),y                 ; 0x2010 <playmidi+0x623>
    1a9e: a6 27        	ldx	$27                     ; 0x2027 <playmidi+0x63a>
    1aa0: 86 15        	stx	$15                     ; 0x2015 <playmidi+0x628>
    1aa2: a5 27        	lda	$27                     ; 0x2027 <playmidi+0x63a>
    1aa4: c8           	iny
    1aa5: 91 10        	sta	($10),y                 ; 0x2010 <playmidi+0x623>
    1aa7: a5 15        	lda	$15                     ; 0x2015 <playmidi+0x628>
    1aa9: d0 07        	bne	$1ab2 <playmidi+0xc5>
    1aab: a5 14        	lda	$14                     ; 0x2014 <playmidi+0x627>
    1aad: d0 03        	bne	$1ab2 <playmidi+0xc5>
    1aaf: 4c bc 1c     	jmp	$1cbc <playmidi+0x2cf>
    1ab2: a2 03        	ldx	#$3
    1ab4: 64 12        	stz	$12                     ; 0x2012 <playmidi+0x625>
    1ab6: a9 00        	lda	#$0
    1ab8: a0 20        	ldy	#$20
    1aba: 91 10        	sta	($10),y                 ; 0x2010 <playmidi+0x623>
    1abc: 8a           	txa
    1abd: 88           	dey
    1abe: 91 10        	sta	($10),y                 ; 0x2010 <playmidi+0x623>
    1ac0: a0 14        	ldy	#$14
    1ac2: b1 10        	lda	($10),y                 ; 0x2010 <playmidi+0x623>
    1ac4: 85 2c        	sta	$2c                     ; 0x202c <playmidi+0x63f>
    1ac6: c8           	iny
    1ac7: b1 10        	lda	($10),y                 ; 0x2010 <playmidi+0x623>
    1ac9: 85 2d        	sta	$2d                     ; 0x202d <playmidi+0x640>
    1acb: c8           	iny
    1acc: b1 10        	lda	($10),y                 ; 0x2010 <playmidi+0x623>
    1ace: 85 28        	sta	$28                     ; 0x2028 <playmidi+0x63b>
    1ad0: c8           	iny
    1ad1: b1 10        	lda	($10),y                 ; 0x2010 <playmidi+0x623>
    1ad3: 85 29        	sta	$29                     ; 0x2029 <playmidi+0x63c>
    1ad5: 80 19        	bra	$1af0 <playmidi+0x103>
    1ad7: 85 2d        	sta	$2d                     ; 0x202d <playmidi+0x640>
    1ad9: 18           	clc
    1ada: a0 1f        	ldy	#$1f
    1adc: b1 10        	lda	($10),y                 ; 0x2010 <playmidi+0x623>
    1ade: 69 07        	adc	#$7
    1ae0: 91 10        	sta	($10),y                 ; 0x2010 <playmidi+0x623>
    1ae2: c8           	iny
    1ae3: b1 10        	lda	($10),y                 ; 0x2010 <playmidi+0x623>
    1ae5: 69 00        	adc	#$0
    1ae7: 91 10        	sta	($10),y                 ; 0x2010 <playmidi+0x623>
    1ae9: a5 29        	lda	$29                     ; 0x2029 <playmidi+0x63c>
    1aeb: d0 03        	bne	$1af0 <playmidi+0x103>
    1aed: 4c b5 1c     	jmp	$1cb5 <playmidi+0x2c8>
    1af0: a0 1a        	ldy	#$1a
    1af2: b1 10        	lda	($10),y                 ; 0x2010 <playmidi+0x623>
    1af4: 85 14        	sta	$14                     ; 0x2014 <playmidi+0x627>
    1af6: c8           	iny
    1af7: b1 10        	lda	($10),y                 ; 0x2010 <playmidi+0x623>
    1af9: 85 15        	sta	$15                     ; 0x2015 <playmidi+0x628>
    1afb: a5 14        	lda	$14                     ; 0x2014 <playmidi+0x627>
    1afd: 18           	clc
    1afe: 69 03        	adc	#$3
    1b00: 85 12        	sta	$12                     ; 0x2012 <playmidi+0x625>
    1b02: a5 15        	lda	$15                     ; 0x2015 <playmidi+0x628>
    1b04: 69 00        	adc	#$0
    1b06: 85 13        	sta	$13                     ; 0x2013 <playmidi+0x626>
    1b08: a0 03        	ldy	#$3
    1b0a: b1 14        	lda	($14),y                 ; 0x2014 <playmidi+0x627>
    1b0c: aa           	tax
    1b0d: a0 01        	ldy	#$1
    1b0f: b1 12        	lda	($12),y                 ; 0x2012 <playmidi+0x625>
    1b11: 85 13        	sta	$13                     ; 0x2013 <playmidi+0x626>
    1b13: 5a           	phy
    1b14: a0 1f        	ldy	#$1f
    1b16: b1 10        	lda	($10),y                 ; 0x2010 <playmidi+0x623>
    1b18: 85 12        	sta	$12                     ; 0x2012 <playmidi+0x625>
    1b1a: 8a           	txa
    1b1b: 86 16        	stx	$16                     ; 0x2016 <playmidi+0x629>
    1b1d: 18           	clc
    1b1e: 65 12        	adc	$12                     ; 0x2012 <playmidi+0x625>
    1b20: aa           	tax
    1b21: c8           	iny
    1b22: b1 10        	lda	($10),y                 ; 0x2010 <playmidi+0x623>
    1b24: 7a           	ply
    1b25: 85 12        	sta	$12                     ; 0x2012 <playmidi+0x625>
    1b27: a5 13        	lda	$13                     ; 0x2013 <playmidi+0x626>
    1b29: 85 17        	sta	$17                     ; 0x2017 <playmidi+0x62a>
    1b2b: 65 12        	adc	$12                     ; 0x2012 <playmidi+0x625>
    1b2d: 85 13        	sta	$13                     ; 0x2013 <playmidi+0x626>
    1b2f: 18           	clc
    1b30: 8a           	txa
    1b31: 69 fe        	adc	#$fe
    1b33: 85 12        	sta	$12                     ; 0x2012 <playmidi+0x625>
    1b35: a5 13        	lda	$13                     ; 0x2013 <playmidi+0x626>
    1b37: 69 ff        	adc	#$ff
    1b39: 85 13        	sta	$13                     ; 0x2013 <playmidi+0x626>
    1b3b: b2 12        	lda	($12)                   ; 0x2012 <playmidi+0x625>
    1b3d: 85 18        	sta	$18                     ; 0x2018 <playmidi+0x62b>
    1b3f: b1 12        	lda	($12),y                 ; 0x2012 <playmidi+0x625>
    1b41: 64 12        	stz	$12                     ; 0x2012 <playmidi+0x625>
    1b43: 48           	pha
    1b44: a9 00        	lda	#$0
    1b46: a0 1d        	ldy	#$1d
    1b48: 91 10        	sta	($10),y                 ; 0x2010 <playmidi+0x623>
    1b4a: 88           	dey
    1b4b: 91 10        	sta	($10),y                 ; 0x2010 <playmidi+0x623>
    1b4d: 68           	pla
    1b4e: 64 25        	stz	$25                     ; 0x2025 <playmidi+0x638>
    1b50: a2 00        	ldx	#$0
    1b52: a8           	tay
    1b53: d0 07        	bne	$1b5c <playmidi+0x16f>
    1b55: a5 18        	lda	$18                     ; 0x2018 <playmidi+0x62b>
    1b57: d0 03        	bne	$1b5c <playmidi+0x16f>
    1b59: 4c 80 1c     	jmp	$1c80 <playmidi+0x293>
    1b5c: a0 1f        	ldy	#$1f
    1b5e: b1 10        	lda	($10),y                 ; 0x2010 <playmidi+0x623>
    1b60: 85 12        	sta	$12                     ; 0x2012 <playmidi+0x625>
    1b62: a5 16        	lda	$16                     ; 0x2016 <playmidi+0x629>
    1b64: 18           	clc
    1b65: 65 12        	adc	$12                     ; 0x2012 <playmidi+0x625>
    1b67: aa           	tax
    1b68: c8           	iny
    1b69: b1 10        	lda	($10),y                 ; 0x2010 <playmidi+0x623>
    1b6b: 85 12        	sta	$12                     ; 0x2012 <playmidi+0x625>
    1b6d: a5 17        	lda	$17                     ; 0x2017 <playmidi+0x62a>
    1b6f: 65 12        	adc	$12                     ; 0x2012 <playmidi+0x625>
    1b71: 86 12        	stx	$12                     ; 0x2012 <playmidi+0x625>
    1b73: 85 13        	sta	$13                     ; 0x2013 <playmidi+0x626>
    1b75: b2 12        	lda	($12)                   ; 0x2012 <playmidi+0x625>
    1b77: 85 24        	sta	$24                     ; 0x2024 <playmidi+0x637>
    1b79: a0 01        	ldy	#$1
    1b7b: b1 12        	lda	($12),y                 ; 0x2012 <playmidi+0x625>
    1b7d: 85 2f        	sta	$2f                     ; 0x202f <playmidi+0x642>
    1b7f: c8           	iny
    1b80: b1 12        	lda	($12),y                 ; 0x2012 <playmidi+0x625>
    1b82: a0 1e        	ldy	#$1e
    1b84: 91 10        	sta	($10),y                 ; 0x2010 <playmidi+0x623>
    1b86: a0 18        	ldy	#$18
    1b88: b1 10        	lda	($10),y                 ; 0x2010 <playmidi+0x623>
    1b8a: 85 26        	sta	$26                     ; 0x2026 <playmidi+0x639>
    1b8c: c8           	iny
    1b8d: b1 10        	lda	($10),y                 ; 0x2010 <playmidi+0x623>
    1b8f: 85 27        	sta	$27                     ; 0x2027 <playmidi+0x63a>
    1b91: a5 26        	lda	$26                     ; 0x2026 <playmidi+0x639>
    1b93: 18           	clc
    1b94: 69 30        	adc	#$30
    1b96: 85 2a        	sta	$2a                     ; 0x202a <playmidi+0x63d>
    1b98: a5 27        	lda	$27                     ; 0x2027 <playmidi+0x63a>
    1b9a: 69 00        	adc	#$0
    1b9c: 85 2b        	sta	$2b                     ; 0x202b <playmidi+0x63e>
    1b9e: a0 03        	ldy	#$3
    1ba0: b1 12        	lda	($12),y                 ; 0x2012 <playmidi+0x625>
    1ba2: 85 2e        	sta	$2e                     ; 0x202e <playmidi+0x641>
    1ba4: a5 24        	lda	$24                     ; 0x2024 <playmidi+0x637>
    1ba6: 18           	clc
    1ba7: a0 30        	ldy	#$30
    1ba9: 71 26        	adc	($26),y                 ; 0x2026 <playmidi+0x639>
    1bab: 85 14        	sta	$14                     ; 0x2014 <playmidi+0x627>
    1bad: a5 2f        	lda	$2f                     ; 0x202f <playmidi+0x642>
    1baf: a0 01        	ldy	#$1
    1bb1: 71 2a        	adc	($2a),y                 ; 0x202a <playmidi+0x63d>
    1bb3: aa           	tax
    1bb4: a0 1e        	ldy	#$1e
    1bb6: b1 10        	lda	($10),y                 ; 0x2010 <playmidi+0x623>
    1bb8: a0 02        	ldy	#$2
    1bba: 71 2a        	adc	($2a),y                 ; 0x202a <playmidi+0x63d>
    1bbc: 85 12        	sta	$12                     ; 0x2012 <playmidi+0x625>
    1bbe: a5 2e        	lda	$2e                     ; 0x202e <playmidi+0x641>
    1bc0: c8           	iny
    1bc1: 71 2a        	adc	($2a),y                 ; 0x202a <playmidi+0x63d>
    1bc3: 85 13        	sta	$13                     ; 0x2013 <playmidi+0x626>
    1bc5: a5 14        	lda	$14                     ; 0x2014 <playmidi+0x627>
    1bc7: 20 dd 09     	jsr	$9dd <FAR_PEEK>
    1bca: a0 1d        	ldy	#$1d
    1bcc: 91 10        	sta	($10),y                 ; 0x2010 <playmidi+0x623>
    1bce: a5 24        	lda	$24                     ; 0x2024 <playmidi+0x637>
    1bd0: 18           	clc
    1bd1: a0 30        	ldy	#$30
    1bd3: 71 26        	adc	($26),y                 ; 0x2026 <playmidi+0x639>
    1bd5: 85 14        	sta	$14                     ; 0x2014 <playmidi+0x627>
    1bd7: a5 2f        	lda	$2f                     ; 0x202f <playmidi+0x642>
    1bd9: a0 01        	ldy	#$1
    1bdb: 71 2a        	adc	($2a),y                 ; 0x202a <playmidi+0x63d>
    1bdd: aa           	tax
    1bde: a0 1e        	ldy	#$1e
    1be0: b1 10        	lda	($10),y                 ; 0x2010 <playmidi+0x623>
    1be2: a0 02        	ldy	#$2
    1be4: 71 2a        	adc	($2a),y                 ; 0x202a <playmidi+0x63d>
    1be6: 85 12        	sta	$12                     ; 0x2012 <playmidi+0x625>
    1be8: a5 2e        	lda	$2e                     ; 0x202e <playmidi+0x641>
    1bea: c8           	iny
    1beb: 71 2a        	adc	($2a),y                 ; 0x202a <playmidi+0x63d>
    1bed: e6 14        	inc	$14                     ; 0x2014 <playmidi+0x627>
    1bef: d0 08        	bne	$1bf9 <playmidi+0x20c>
    1bf1: e8           	inx
    1bf2: d0 05        	bne	$1bf9 <playmidi+0x20c>
    1bf4: e6 12        	inc	$12                     ; 0x2012 <playmidi+0x625>
    1bf6: d0 01        	bne	$1bf9 <playmidi+0x20c>
    1bf8: 1a           	inc
    1bf9: 85 13        	sta	$13                     ; 0x2013 <playmidi+0x626>
    1bfb: a5 14        	lda	$14                     ; 0x2014 <playmidi+0x627>
    1bfd: 20 dd 09     	jsr	$9dd <FAR_PEEK>
    1c00: a0 1c        	ldy	#$1c
    1c02: 91 10        	sta	($10),y                 ; 0x2010 <playmidi+0x623>
    1c04: a5 24        	lda	$24                     ; 0x2024 <playmidi+0x637>
    1c06: 18           	clc
    1c07: a0 30        	ldy	#$30
    1c09: 71 26        	adc	($26),y                 ; 0x2026 <playmidi+0x639>
    1c0b: aa           	tax
    1c0c: a5 2f        	lda	$2f                     ; 0x202f <playmidi+0x642>
    1c0e: a0 01        	ldy	#$1
    1c10: 71 2a        	adc	($2a),y                 ; 0x202a <playmidi+0x63d>
    1c12: 85 14        	sta	$14                     ; 0x2014 <playmidi+0x627>
    1c14: a0 1e        	ldy	#$1e
    1c16: b1 10        	lda	($10),y                 ; 0x2010 <playmidi+0x623>
    1c18: a0 02        	ldy	#$2
    1c1a: 71 2a        	adc	($2a),y                 ; 0x202a <playmidi+0x63d>
    1c1c: 85 12        	sta	$12                     ; 0x2012 <playmidi+0x625>
    1c1e: a5 2e        	lda	$2e                     ; 0x202e <playmidi+0x641>
    1c20: c8           	iny
    1c21: 71 2a        	adc	($2a),y                 ; 0x202a <playmidi+0x63d>
    1c23: 85 13        	sta	$13                     ; 0x2013 <playmidi+0x626>
    1c25: 18           	clc
    1c26: 8a           	txa
    1c27: 69 02        	adc	#$2
    1c29: a8           	tay
    1c2a: a5 14        	lda	$14                     ; 0x2014 <playmidi+0x627>
    1c2c: 69 00        	adc	#$0
    1c2e: aa           	tax
    1c2f: a5 12        	lda	$12                     ; 0x2012 <playmidi+0x625>
    1c31: 69 00        	adc	#$0
    1c33: 85 12        	sta	$12                     ; 0x2012 <playmidi+0x625>
    1c35: a5 13        	lda	$13                     ; 0x2013 <playmidi+0x626>
    1c37: 69 00        	adc	#$0
    1c39: 85 13        	sta	$13                     ; 0x2013 <playmidi+0x626>
    1c3b: 98           	tya
    1c3c: 20 dd 09     	jsr	$9dd <FAR_PEEK>
    1c3f: 85 25        	sta	$25                     ; 0x2025 <playmidi+0x638>
    1c41: 18           	clc
    1c42: a5 24        	lda	$24                     ; 0x2024 <playmidi+0x637>
    1c44: a0 30        	ldy	#$30
    1c46: 71 26        	adc	($26),y                 ; 0x2026 <playmidi+0x639>
    1c48: 85 16        	sta	$16                     ; 0x2016 <playmidi+0x629>
    1c4a: a0 01        	ldy	#$1
    1c4c: a5 2f        	lda	$2f                     ; 0x202f <playmidi+0x642>
    1c4e: 71 2a        	adc	($2a),y                 ; 0x202a <playmidi+0x63d>
    1c50: 85 13        	sta	$13                     ; 0x2013 <playmidi+0x626>
    1c52: a0 1e        	ldy	#$1e
    1c54: b1 10        	lda	($10),y                 ; 0x2010 <playmidi+0x623>
    1c56: a0 02        	ldy	#$2
    1c58: 71 2a        	adc	($2a),y                 ; 0x202a <playmidi+0x63d>
    1c5a: 85 12        	sta	$12                     ; 0x2012 <playmidi+0x625>
    1c5c: a5 2e        	lda	$2e                     ; 0x202e <playmidi+0x641>
    1c5e: c8           	iny
    1c5f: 71 2a        	adc	($2a),y                 ; 0x202a <playmidi+0x63d>
    1c61: aa           	tax
    1c62: 18           	clc
    1c63: a5 16        	lda	$16                     ; 0x2016 <playmidi+0x629>
    1c65: 69 03        	adc	#$3
    1c67: a8           	tay
    1c68: a5 13        	lda	$13                     ; 0x2013 <playmidi+0x626>
    1c6a: 69 00        	adc	#$0
    1c6c: 85 14        	sta	$14                     ; 0x2014 <playmidi+0x627>
    1c6e: a5 12        	lda	$12                     ; 0x2012 <playmidi+0x625>
    1c70: 69 00        	adc	#$0
    1c72: 85 12        	sta	$12                     ; 0x2012 <playmidi+0x625>
    1c74: 8a           	txa
    1c75: 69 00        	adc	#$0
    1c77: 85 13        	sta	$13                     ; 0x2013 <playmidi+0x626>
    1c79: a6 14        	ldx	$14                     ; 0x2014 <playmidi+0x627>
    1c7b: 98           	tya
    1c7c: 20 dd 09     	jsr	$9dd <FAR_PEEK>
    1c7f: aa           	tax
    1c80: a0 1d        	ldy	#$1d
    1c82: b1 10        	lda	($10),y                 ; 0x2010 <playmidi+0x623>
    1c84: 92 2c        	sta	($2c)                   ; 0x202c <playmidi+0x63f>
    1c86: a0 01        	ldy	#$1
    1c88: 5a           	phy
    1c89: a0 1c        	ldy	#$1c
    1c8b: b1 10        	lda	($10),y                 ; 0x2010 <playmidi+0x623>
    1c8d: 7a           	ply
    1c8e: 91 2c        	sta	($2c),y                 ; 0x202c <playmidi+0x63f>
    1c90: a0 02        	ldy	#$2
    1c92: a5 25        	lda	$25                     ; 0x2025 <playmidi+0x638>
    1c94: 91 2c        	sta	($2c),y                 ; 0x202c <playmidi+0x63f>
    1c96: c8           	iny
    1c97: 8a           	txa
    1c98: 91 2c        	sta	($2c),y                 ; 0x202c <playmidi+0x63f>
    1c9a: a5 2c        	lda	$2c                     ; 0x202c <playmidi+0x63f>
    1c9c: 18           	clc
    1c9d: 69 04        	adc	#$4
    1c9f: 85 2c        	sta	$2c                     ; 0x202c <playmidi+0x63f>
    1ca1: a5 2d        	lda	$2d                     ; 0x202d <playmidi+0x640>
    1ca3: 69 00        	adc	#$0
    1ca5: a2 ff        	ldx	#$ff
    1ca7: c6 28        	dec	$28                     ; 0x2028 <playmidi+0x63b>
    1ca9: e4 28        	cpx	$28                     ; 0x2028 <playmidi+0x63b>
    1cab: f0 03        	beq	$1cb0 <playmidi+0x2c3>
    1cad: 4c d7 1a     	jmp	$1ad7 <playmidi+0xea>
    1cb0: c6 29        	dec	$29                     ; 0x2029 <playmidi+0x63c>
    1cb2: 4c d7 1a     	jmp	$1ad7 <playmidi+0xea>
    1cb5: a5 28        	lda	$28                     ; 0x2028 <playmidi+0x63b>
    1cb7: f0 03        	beq	$1cbc <playmidi+0x2cf>
    1cb9: 4c f0 1a     	jmp	$1af0 <playmidi+0x103>
    1cbc: a0 13        	ldy	#$13
    1cbe: b1 10        	lda	($10),y                 ; 0x2010 <playmidi+0x623>
    1cc0: 85 12        	sta	$12                     ; 0x2012 <playmidi+0x625>
    1cc2: 88           	dey
    1cc3: b1 10        	lda	($10),y                 ; 0x2010 <playmidi+0x623>
    1cc5: 85 13        	sta	$13                     ; 0x2013 <playmidi+0x626>
    1cc7: a5 13        	lda	$13                     ; 0x2013 <playmidi+0x626>
    1cc9: d0 07        	bne	$1cd2 <playmidi+0x2e5>
    1ccb: a5 12        	lda	$12                     ; 0x2012 <playmidi+0x625>
    1ccd: d0 03        	bne	$1cd2 <playmidi+0x2e5>
    1ccf: 4c d0 24     	jmp	$24d0 <playmidi+0xae3>
    1cd2: 64 12        	stz	$12                     ; 0x2012 <playmidi+0x625>
    1cd4: a9 00        	lda	#$0
    1cd6: a0 0e        	ldy	#$e
    1cd8: 91 10        	sta	($10),y                 ; 0x2010 <playmidi+0x623>
    1cda: a0 18        	ldy	#$18
    1cdc: b1 10        	lda	($10),y                 ; 0x2010 <playmidi+0x623>
    1cde: 85 14        	sta	$14                     ; 0x2014 <playmidi+0x627>
    1ce0: c8           	iny
    1ce1: b1 10        	lda	($10),y                 ; 0x2010 <playmidi+0x623>
    1ce3: 85 15        	sta	$15                     ; 0x2015 <playmidi+0x628>
    1ce5: a6 14        	ldx	$14                     ; 0x2014 <playmidi+0x627>
    1ce7: 8a           	txa
    1ce8: a0 09        	ldy	#$9
    1cea: 91 10        	sta	($10),y                 ; 0x2010 <playmidi+0x623>
    1cec: a6 15        	ldx	$15                     ; 0x2015 <playmidi+0x628>
    1cee: 8a           	txa
    1cef: 88           	dey
    1cf0: 91 10        	sta	($10),y                 ; 0x2010 <playmidi+0x623>
    1cf2: a2 9b        	ldx	#$9b
    1cf4: 86 2c        	stx	$2c                     ; 0x202c <playmidi+0x63f>
    1cf6: a2 2d        	ldx	#$2d
    1cf8: 86 2d        	stx	$2d                     ; 0x202d <playmidi+0x640>
    1cfa: a9 00        	lda	#$0
    1cfc: a0 0d        	ldy	#$d
    1cfe: 91 10        	sta	($10),y                 ; 0x2010 <playmidi+0x623>
    1d00: a0 16        	ldy	#$16
    1d02: b1 10        	lda	($10),y                 ; 0x2010 <playmidi+0x623>
    1d04: 85 12        	sta	$12                     ; 0x2012 <playmidi+0x625>
    1d06: c8           	iny
    1d07: b1 10        	lda	($10),y                 ; 0x2010 <playmidi+0x623>
    1d09: 85 13        	sta	$13                     ; 0x2013 <playmidi+0x626>
    1d0b: a5 13        	lda	$13                     ; 0x2013 <playmidi+0x626>
    1d0d: d0 07        	bne	$1d16 <playmidi+0x329>
    1d0f: a5 12        	lda	$12                     ; 0x2012 <playmidi+0x625>
    1d11: d0 03        	bne	$1d16 <playmidi+0x329>
    1d13: 4c 5c 20     	jmp	$205c <playmidi+0x66f>
    1d16: a0 18        	ldy	#$18
    1d18: b1 10        	lda	($10),y                 ; 0x2010 <playmidi+0x623>
    1d1a: 85 14        	sta	$14                     ; 0x2014 <playmidi+0x627>
    1d1c: c8           	iny
    1d1d: b1 10        	lda	($10),y                 ; 0x2010 <playmidi+0x623>
    1d1f: 85 15        	sta	$15                     ; 0x2015 <playmidi+0x628>
    1d21: a5 14        	lda	$14                     ; 0x2014 <playmidi+0x627>
    1d23: 18           	clc
    1d24: 69 20        	adc	#$20
    1d26: 85 12        	sta	$12                     ; 0x2012 <playmidi+0x625>
    1d28: a5 15        	lda	$15                     ; 0x2015 <playmidi+0x628>
    1d2a: 69 00        	adc	#$0
    1d2c: 85 13        	sta	$13                     ; 0x2013 <playmidi+0x626>
    1d2e: a0 20        	ldy	#$20
    1d30: b1 14        	lda	($14),y                 ; 0x2014 <playmidi+0x627>
    1d32: 85 16        	sta	$16                     ; 0x2016 <playmidi+0x629>
    1d34: a0 01        	ldy	#$1
    1d36: b1 12        	lda	($12),y                 ; 0x2012 <playmidi+0x625>
    1d38: 85 17        	sta	$17                     ; 0x2017 <playmidi+0x62a>
    1d3a: a0 1a        	ldy	#$1a
    1d3c: b1 10        	lda	($10),y                 ; 0x2010 <playmidi+0x623>
    1d3e: 85 14        	sta	$14                     ; 0x2014 <playmidi+0x627>
    1d40: c8           	iny
    1d41: b1 10        	lda	($10),y                 ; 0x2010 <playmidi+0x623>
    1d43: 85 15        	sta	$15                     ; 0x2015 <playmidi+0x628>
    1d45: a5 14        	lda	$14                     ; 0x2014 <playmidi+0x627>
    1d47: 18           	clc
    1d48: 69 03        	adc	#$3
    1d4a: 85 12        	sta	$12                     ; 0x2012 <playmidi+0x625>
    1d4c: a5 15        	lda	$15                     ; 0x2015 <playmidi+0x628>
    1d4e: 69 00        	adc	#$0
    1d50: 85 13        	sta	$13                     ; 0x2013 <playmidi+0x626>
    1d52: a0 03        	ldy	#$3
    1d54: b1 14        	lda	($14),y                 ; 0x2014 <playmidi+0x627>
    1d56: 85 14        	sta	$14                     ; 0x2014 <playmidi+0x627>
    1d58: a0 01        	ldy	#$1
    1d5a: b1 12        	lda	($12),y                 ; 0x2012 <playmidi+0x625>
    1d5c: 85 15        	sta	$15                     ; 0x2015 <playmidi+0x628>
    1d5e: a2 ff        	ldx	#$ff
    1d60: 86 24        	stx	$24                     ; 0x2024 <playmidi+0x637>
    1d62: 86 22        	stx	$22                     ; 0x2022 <playmidi+0x635>
    1d64: 86 23        	stx	$23                     ; 0x2023 <playmidi+0x636>
    1d66: 86 26        	stx	$26                     ; 0x2026 <playmidi+0x639>
    1d68: e6 14        	inc	$14                     ; 0x2014 <playmidi+0x627>
    1d6a: d0 02        	bne	$1d6e <playmidi+0x381>
    1d6c: e6 15        	inc	$15                     ; 0x2015 <playmidi+0x628>
    1d6e: 64 12        	stz	$12                     ; 0x2012 <playmidi+0x625>
    1d70: 5a           	phy
    1d71: a0 14        	ldy	#$14
    1d73: b1 10        	lda	($10),y                 ; 0x2010 <playmidi+0x623>
    1d75: 85 18        	sta	$18                     ; 0x2018 <playmidi+0x62b>
    1d77: c8           	iny
    1d78: b1 10        	lda	($10),y                 ; 0x2010 <playmidi+0x623>
    1d7a: 7a           	ply
    1d7b: 85 19        	sta	$19                     ; 0x2019 <playmidi+0x62c>
    1d7d: 64 13        	stz	$13                     ; 0x2013 <playmidi+0x626>
    1d7f: b2 16        	lda	($16)                   ; 0x2016 <playmidi+0x629>
    1d81: 85 1b        	sta	$1b                     ; 0x201b <playmidi+0x62e>
    1d83: b1 16        	lda	($16),y                 ; 0x2016 <playmidi+0x629>
    1d85: d1 14        	cmp	($14),y                 ; 0x2014 <playmidi+0x627>
    1d87: d0 0f        	bne	$1d98 <playmidi+0x3ab>
    1d89: aa           	tax
    1d8a: b2 14        	lda	($14)                   ; 0x2014 <playmidi+0x627>
    1d8c: 85 1a        	sta	$1a                     ; 0x201a <playmidi+0x62d>
    1d8e: 8a           	txa
    1d8f: a6 1b        	ldx	$1b                     ; 0x201b <playmidi+0x62e>
    1d91: e4 1a        	cpx	$1a                     ; 0x201a <playmidi+0x62d>
    1d93: 90 0a        	bcc	$1d9f <playmidi+0x3b2>
    1d95: 4c 68 1e     	jmp	$1e68 <playmidi+0x47b>
    1d98: d1 14        	cmp	($14),y                 ; 0x2014 <playmidi+0x627>
    1d9a: 90 03        	bcc	$1d9f <playmidi+0x3b2>
    1d9c: 4c 68 1e     	jmp	$1e68 <playmidi+0x47b>
    1d9f: 85 1c        	sta	$1c                     ; 0x201c <playmidi+0x62f>
    1da1: b2 18        	lda	($18)                   ; 0x2018 <playmidi+0x62b>
    1da3: aa           	tax
    1da4: b1 18        	lda	($18),y                 ; 0x2018 <playmidi+0x62b>
    1da6: 85 25        	sta	$25                     ; 0x2025 <playmidi+0x638>
    1da8: a0 02        	ldy	#$2
    1daa: b1 18        	lda	($18),y                 ; 0x2018 <playmidi+0x62b>
    1dac: 85 28        	sta	$28                     ; 0x2028 <playmidi+0x63b>
    1dae: 06 1b        	asl	$1b                     ; 0x201b <playmidi+0x62e>
    1db0: 26 1c        	rol	$1c                     ; 0x201c <playmidi+0x62f>
    1db2: 64 1e        	stz	$1e                     ; 0x201e <playmidi+0x631>
    1db4: 26 1e        	rol	$1e                     ; 0x201e <playmidi+0x631>
    1db6: a9 00        	lda	#$0
    1db8: 2a           	rol
    1db9: 06 1b        	asl	$1b                     ; 0x201b <playmidi+0x62e>
    1dbb: 26 1c        	rol	$1c                     ; 0x201c <playmidi+0x62f>
    1dbd: 26 1e        	rol	$1e                     ; 0x201e <playmidi+0x631>
    1dbf: 2a           	rol
    1dc0: 06 1b        	asl	$1b                     ; 0x201b <playmidi+0x62e>
    1dc2: a4 1b        	ldy	$1b                     ; 0x201b <playmidi+0x62e>
    1dc4: 84 1d        	sty	$1d                     ; 0x201d <playmidi+0x630>
    1dc6: 26 1c        	rol	$1c                     ; 0x201c <playmidi+0x62f>
    1dc8: 26 1e        	rol	$1e                     ; 0x201e <playmidi+0x631>
    1dca: 2a           	rol
    1dcb: 85 27        	sta	$27                     ; 0x2027 <playmidi+0x63a>
    1dcd: a0 03        	ldy	#$3
    1dcf: b1 18        	lda	($18),y                 ; 0x2018 <playmidi+0x62b>
    1dd1: d0 03        	bne	$1dd6 <playmidi+0x3e9>
    1dd3: 4c 20 25     	jmp	$2520 <playmidi+0xb33>
    1dd6: 86 1a        	stx	$1a                     ; 0x201a <playmidi+0x62d>
    1dd8: a6 25        	ldx	$25                     ; 0x2025 <playmidi+0x638>
    1dda: 86 1b        	stx	$1b                     ; 0x201b <playmidi+0x62e>
    1ddc: c5 26        	cmp	$26                     ; 0x2026 <playmidi+0x639>
    1dde: d0 1f        	bne	$1dff <playmidi+0x412>
    1de0: 85 25        	sta	$25                     ; 0x2025 <playmidi+0x638>
    1de2: a0 01        	ldy	#$1
    1de4: a6 28        	ldx	$28                     ; 0x2028 <playmidi+0x63b>
    1de6: e4 23        	cpx	$23                     ; 0x2023 <playmidi+0x636>
    1de8: f0 03        	beq	$1ded <playmidi+0x400>
    1dea: 4c af 1e     	jmp	$1eaf <playmidi+0x4c2>
    1ded: a6 1b        	ldx	$1b                     ; 0x201b <playmidi+0x62e>
    1def: e4 22        	cpx	$22                     ; 0x2022 <playmidi+0x635>
    1df1: f0 03        	beq	$1df6 <playmidi+0x409>
    1df3: 4c b6 1e     	jmp	$1eb6 <playmidi+0x4c9>
    1df6: a6 1a        	ldx	$1a                     ; 0x201a <playmidi+0x62d>
    1df8: e4 24        	cpx	$24                     ; 0x2024 <playmidi+0x637>
    1dfa: 90 0e        	bcc	$1e0a <playmidi+0x41d>
    1dfc: 4c 68 1e     	jmp	$1e68 <playmidi+0x47b>
    1dff: 85 25        	sta	$25                     ; 0x2025 <playmidi+0x638>
    1e01: c5 26        	cmp	$26                     ; 0x2026 <playmidi+0x639>
    1e03: a0 01        	ldy	#$1
    1e05: 90 03        	bcc	$1e0a <playmidi+0x41d>
    1e07: 4c 68 1e     	jmp	$1e68 <playmidi+0x47b>
    1e0a: a6 1a        	ldx	$1a                     ; 0x201a <playmidi+0x62d>
    1e0c: 86 24        	stx	$24                     ; 0x2024 <playmidi+0x637>
    1e0e: a6 1b        	ldx	$1b                     ; 0x201b <playmidi+0x62e>
    1e10: 86 22        	stx	$22                     ; 0x2022 <playmidi+0x635>
    1e12: a5 14        	lda	$14                     ; 0x2014 <playmidi+0x627>
    1e14: 18           	clc
    1e15: 69 02        	adc	#$2
    1e17: 85 1a        	sta	$1a                     ; 0x201a <playmidi+0x62d>
    1e19: a5 15        	lda	$15                     ; 0x2015 <playmidi+0x628>
    1e1b: 69 00        	adc	#$0
    1e1d: 85 1b        	sta	$1b                     ; 0x201b <playmidi+0x62e>
    1e1f: 18           	clc
    1e20: a0 02        	ldy	#$2
    1e22: a5 1d        	lda	$1d                     ; 0x201d <playmidi+0x630>
    1e24: 71 14        	adc	($14),y                 ; 0x2014 <playmidi+0x627>
    1e26: aa           	tax
    1e27: 88           	dey
    1e28: a5 1c        	lda	$1c                     ; 0x201c <playmidi+0x62f>
    1e2a: 71 1a        	adc	($1a),y                 ; 0x201a <playmidi+0x62d>
    1e2c: 85 1c        	sta	$1c                     ; 0x201c <playmidi+0x62f>
    1e2e: a5 1e        	lda	$1e                     ; 0x201e <playmidi+0x631>
    1e30: c8           	iny
    1e31: 71 1a        	adc	($1a),y                 ; 0x201a <playmidi+0x62d>
    1e33: 85 1d        	sta	$1d                     ; 0x201d <playmidi+0x630>
    1e35: c8           	iny
    1e36: a5 27        	lda	$27                     ; 0x2027 <playmidi+0x63a>
    1e38: 71 1a        	adc	($1a),y                 ; 0x201a <playmidi+0x62d>
    1e3a: a0 01        	ldy	#$1
    1e3c: 48           	pha
    1e3d: a5 28        	lda	$28                     ; 0x2028 <playmidi+0x63b>
    1e3f: 85 23        	sta	$23                     ; 0x2023 <playmidi+0x636>
    1e41: a5 25        	lda	$25                     ; 0x2025 <playmidi+0x638>
    1e43: 85 26        	sta	$26                     ; 0x2026 <playmidi+0x639>
    1e45: 68           	pla
    1e46: 5a           	phy
    1e47: 48           	pha
    1e48: 8a           	txa
    1e49: a0 1e        	ldy	#$1e
    1e4b: 91 10        	sta	($10),y                 ; 0x2010 <playmidi+0x623>
    1e4d: a5 1c        	lda	$1c                     ; 0x201c <playmidi+0x62f>
    1e4f: 88           	dey
    1e50: 91 10        	sta	($10),y                 ; 0x2010 <playmidi+0x623>
    1e52: a5 1d        	lda	$1d                     ; 0x201d <playmidi+0x630>
    1e54: 88           	dey
    1e55: 91 10        	sta	($10),y                 ; 0x2010 <playmidi+0x623>
    1e57: 68           	pla
    1e58: a0 11        	ldy	#$11
    1e5a: 91 10        	sta	($10),y                 ; 0x2010 <playmidi+0x623>
    1e5c: a5 12        	lda	$12                     ; 0x2012 <playmidi+0x625>
    1e5e: a0 0e        	ldy	#$e
    1e60: 91 10        	sta	($10),y                 ; 0x2010 <playmidi+0x623>
    1e62: a5 13        	lda	$13                     ; 0x2013 <playmidi+0x626>
    1e64: 88           	dey
    1e65: 91 10        	sta	($10),y                 ; 0x2010 <playmidi+0x623>
    1e67: 7a           	ply
    1e68: e6 12        	inc	$12                     ; 0x2012 <playmidi+0x625>
    1e6a: d0 02        	bne	$1e6e <playmidi+0x481>
    1e6c: e6 13        	inc	$13                     ; 0x2013 <playmidi+0x626>
    1e6e: a5 18        	lda	$18                     ; 0x2018 <playmidi+0x62b>
    1e70: 18           	clc
    1e71: 69 04        	adc	#$4
    1e73: 85 18        	sta	$18                     ; 0x2018 <playmidi+0x62b>
    1e75: a5 19        	lda	$19                     ; 0x2019 <playmidi+0x62c>
    1e77: 69 00        	adc	#$0
    1e79: 85 19        	sta	$19                     ; 0x2019 <playmidi+0x62c>
    1e7b: a5 14        	lda	$14                     ; 0x2014 <playmidi+0x627>
    1e7d: 18           	clc
    1e7e: 69 07        	adc	#$7
    1e80: 85 14        	sta	$14                     ; 0x2014 <playmidi+0x627>
    1e82: a5 15        	lda	$15                     ; 0x2015 <playmidi+0x628>
    1e84: 69 00        	adc	#$0
    1e86: 85 15        	sta	$15                     ; 0x2015 <playmidi+0x628>
    1e88: a5 16        	lda	$16                     ; 0x2016 <playmidi+0x629>
    1e8a: 18           	clc
    1e8b: 69 02        	adc	#$2
    1e8d: 85 16        	sta	$16                     ; 0x2016 <playmidi+0x629>
    1e8f: a5 17        	lda	$17                     ; 0x2017 <playmidi+0x62a>
    1e91: 69 00        	adc	#$0
    1e93: 85 17        	sta	$17                     ; 0x2017 <playmidi+0x62a>
    1e95: 5a           	phy
    1e96: a0 17        	ldy	#$17
    1e98: b1 10        	lda	($10),y                 ; 0x2010 <playmidi+0x623>
    1e9a: 7a           	ply
    1e9b: c5 13        	cmp	$13                     ; 0x2013 <playmidi+0x626>
    1e9d: f0 03        	beq	$1ea2 <playmidi+0x4b5>
    1e9f: 4c 7f 1d     	jmp	$1d7f <playmidi+0x392>
    1ea2: 5a           	phy
    1ea3: a0 16        	ldy	#$16
    1ea5: b1 10        	lda	($10),y                 ; 0x2010 <playmidi+0x623>
    1ea7: 7a           	ply
    1ea8: c5 12        	cmp	$12                     ; 0x2012 <playmidi+0x625>
    1eaa: f0 11        	beq	$1ebd <playmidi+0x4d0>
    1eac: 4c 7f 1d     	jmp	$1d7f <playmidi+0x392>
    1eaf: e4 23        	cpx	$23                     ; 0x2023 <playmidi+0x636>
    1eb1: b0 b5        	bcs	$1e68 <playmidi+0x47b>
    1eb3: 4c 0a 1e     	jmp	$1e0a <playmidi+0x41d>
    1eb6: e4 22        	cpx	$22                     ; 0x2022 <playmidi+0x635>
    1eb8: b0 ae        	bcs	$1e68 <playmidi+0x47b>
    1eba: 4c 0a 1e     	jmp	$1e0a <playmidi+0x41d>
    1ebd: a5 22        	lda	$22                     ; 0x2022 <playmidi+0x635>
    1ebf: a0 20        	ldy	#$20
    1ec1: 91 10        	sta	($10),y                 ; 0x2010 <playmidi+0x623>
    1ec3: a5 24        	lda	$24                     ; 0x2024 <playmidi+0x637>
    1ec5: 88           	dey
    1ec6: 91 10        	sta	($10),y                 ; 0x2010 <playmidi+0x623>
    1ec8: a5 23        	lda	$23                     ; 0x2023 <playmidi+0x636>
    1eca: a0 10        	ldy	#$10
    1ecc: 91 10        	sta	($10),y                 ; 0x2010 <playmidi+0x623>
    1ece: a5 26        	lda	$26                     ; 0x2026 <playmidi+0x639>
    1ed0: a0 0f        	ldy	#$f
    1ed2: 91 10        	sta	($10),y                 ; 0x2010 <playmidi+0x623>
    1ed4: 18           	clc
    1ed5: a0 09        	ldy	#$9
    1ed7: b1 10        	lda	($10),y                 ; 0x2010 <playmidi+0x623>
    1ed9: 69 30        	adc	#$30
    1edb: 85 2a        	sta	$2a                     ; 0x202a <playmidi+0x63d>
    1edd: 88           	dey
    1ede: b1 10        	lda	($10),y                 ; 0x2010 <playmidi+0x623>
    1ee0: 48           	pha
    1ee1: a9 01        	lda	#$1
    1ee3: b0 02        	bcs	$1ee7 <playmidi+0x4fa>
    1ee5: a9 00        	lda	#$0
    1ee7: a0 0b        	ldy	#$b
    1ee9: 91 10        	sta	($10),y                 ; 0x2010 <playmidi+0x623>
    1eeb: 68           	pla
    1eec: 69 00        	adc	#$0
    1eee: 48           	pha
    1eef: a5 2a        	lda	$2a                     ; 0x202a <playmidi+0x63d>
    1ef1: 88           	dey
    1ef2: 91 10        	sta	($10),y                 ; 0x2010 <playmidi+0x623>
    1ef4: 68           	pla
    1ef5: 85 2b        	sta	$2b                     ; 0x202b <playmidi+0x63e>
    1ef7: 18           	clc
    1ef8: a0 1e        	ldy	#$1e
    1efa: b1 10        	lda	($10),y                 ; 0x2010 <playmidi+0x623>
    1efc: 85 24        	sta	$24                     ; 0x2024 <playmidi+0x637>
    1efe: a0 30        	ldy	#$30
    1f00: 48           	pha
    1f01: 5a           	phy
    1f02: a0 18        	ldy	#$18
    1f04: b1 10        	lda	($10),y                 ; 0x2010 <playmidi+0x623>
    1f06: 85 26        	sta	$26                     ; 0x2026 <playmidi+0x639>
    1f08: c8           	iny
    1f09: b1 10        	lda	($10),y                 ; 0x2010 <playmidi+0x623>
    1f0b: 7a           	ply
    1f0c: 85 27        	sta	$27                     ; 0x2027 <playmidi+0x63a>
    1f0e: 68           	pla
    1f0f: 71 26        	adc	($26),y                 ; 0x2026 <playmidi+0x639>
    1f11: aa           	tax
    1f12: a0 1d        	ldy	#$1d
    1f14: b1 10        	lda	($10),y                 ; 0x2010 <playmidi+0x623>
    1f16: 85 2f        	sta	$2f                     ; 0x202f <playmidi+0x642>
    1f18: a0 01        	ldy	#$1
    1f1a: 71 2a        	adc	($2a),y                 ; 0x202a <playmidi+0x63d>
    1f1c: 85 15        	sta	$15                     ; 0x2015 <playmidi+0x628>
    1f1e: a0 1c        	ldy	#$1c
    1f20: b1 10        	lda	($10),y                 ; 0x2010 <playmidi+0x623>
    1f22: 85 28        	sta	$28                     ; 0x2028 <playmidi+0x63b>
    1f24: a0 02        	ldy	#$2
    1f26: 71 2a        	adc	($2a),y                 ; 0x202a <playmidi+0x63d>
    1f28: 85 14        	sta	$14                     ; 0x2014 <playmidi+0x627>
    1f2a: a0 11        	ldy	#$11
    1f2c: b1 10        	lda	($10),y                 ; 0x2010 <playmidi+0x623>
    1f2e: 85 2e        	sta	$2e                     ; 0x202e <playmidi+0x641>
    1f30: a0 03        	ldy	#$3
    1f32: 71 2a        	adc	($2a),y                 ; 0x202a <playmidi+0x63d>
    1f34: 85 13        	sta	$13                     ; 0x2013 <playmidi+0x626>
    1f36: 18           	clc
    1f37: 8a           	txa
    1f38: 69 04        	adc	#$4
    1f3a: a8           	tay
    1f3b: a5 15        	lda	$15                     ; 0x2015 <playmidi+0x628>
    1f3d: 69 00        	adc	#$0
    1f3f: aa           	tax
    1f40: a5 14        	lda	$14                     ; 0x2014 <playmidi+0x627>
    1f42: 69 00        	adc	#$0
    1f44: 85 12        	sta	$12                     ; 0x2012 <playmidi+0x625>
    1f46: a5 13        	lda	$13                     ; 0x2013 <playmidi+0x626>
    1f48: 69 00        	adc	#$0
    1f4a: 85 13        	sta	$13                     ; 0x2013 <playmidi+0x626>
    1f4c: 98           	tya
    1f4d: 20 dd 09     	jsr	$9dd <FAR_PEEK>
    1f50: a0 0c        	ldy	#$c
    1f52: 91 10        	sta	($10),y                 ; 0x2010 <playmidi+0x623>
    1f54: 18           	clc
    1f55: a5 24        	lda	$24                     ; 0x2024 <playmidi+0x637>
    1f57: a0 30        	ldy	#$30
    1f59: 71 26        	adc	($26),y                 ; 0x2026 <playmidi+0x639>
    1f5b: aa           	tax
    1f5c: a5 2f        	lda	$2f                     ; 0x202f <playmidi+0x642>
    1f5e: a0 01        	ldy	#$1
    1f60: 71 2a        	adc	($2a),y                 ; 0x202a <playmidi+0x63d>
    1f62: 85 12        	sta	$12                     ; 0x2012 <playmidi+0x625>
    1f64: a5 28        	lda	$28                     ; 0x2028 <playmidi+0x63b>
    1f66: c8           	iny
    1f67: 71 2a        	adc	($2a),y                 ; 0x202a <playmidi+0x63d>
    1f69: 85 13        	sta	$13                     ; 0x2013 <playmidi+0x626>
    1f6b: a5 2e        	lda	$2e                     ; 0x202e <playmidi+0x641>
    1f6d: c8           	iny
    1f6e: 71 2a        	adc	($2a),y                 ; 0x202a <playmidi+0x63d>
    1f70: 85 14        	sta	$14                     ; 0x2014 <playmidi+0x627>
    1f72: 18           	clc
    1f73: 8a           	txa
    1f74: 69 05        	adc	#$5
    1f76: a8           	tay
    1f77: a5 12        	lda	$12                     ; 0x2012 <playmidi+0x625>
    1f79: 69 00        	adc	#$0
    1f7b: aa           	tax
    1f7c: a5 13        	lda	$13                     ; 0x2013 <playmidi+0x626>
    1f7e: 69 00        	adc	#$0
    1f80: 85 12        	sta	$12                     ; 0x2012 <playmidi+0x625>
    1f82: a5 14        	lda	$14                     ; 0x2014 <playmidi+0x627>
    1f84: 69 00        	adc	#$0
    1f86: 85 13        	sta	$13                     ; 0x2013 <playmidi+0x626>
    1f88: 98           	tya
    1f89: 20 dd 09     	jsr	$9dd <FAR_PEEK>
    1f8c: 85 25        	sta	$25                     ; 0x2025 <playmidi+0x638>
    1f8e: 18           	clc
    1f8f: a5 24        	lda	$24                     ; 0x2024 <playmidi+0x637>
    1f91: a0 30        	ldy	#$30
    1f93: 71 26        	adc	($26),y                 ; 0x2026 <playmidi+0x639>
    1f95: aa           	tax
    1f96: a5 2f        	lda	$2f                     ; 0x202f <playmidi+0x642>
    1f98: a0 01        	ldy	#$1
    1f9a: 71 2a        	adc	($2a),y                 ; 0x202a <playmidi+0x63d>
    1f9c: 85 12        	sta	$12                     ; 0x2012 <playmidi+0x625>
    1f9e: a5 28        	lda	$28                     ; 0x2028 <playmidi+0x63b>
    1fa0: c8           	iny
    1fa1: 71 2a        	adc	($2a),y                 ; 0x202a <playmidi+0x63d>
    1fa3: 85 13        	sta	$13                     ; 0x2013 <playmidi+0x626>
    1fa5: a5 2e        	lda	$2e                     ; 0x202e <playmidi+0x641>
    1fa7: c8           	iny
    1fa8: 71 2a        	adc	($2a),y                 ; 0x202a <playmidi+0x63d>
    1faa: 85 14        	sta	$14                     ; 0x2014 <playmidi+0x627>
    1fac: 18           	clc
    1fad: 8a           	txa
    1fae: 69 06        	adc	#$6
    1fb0: a8           	tay
    1fb1: a5 12        	lda	$12                     ; 0x2012 <playmidi+0x625>
    1fb3: 69 00        	adc	#$0
    1fb5: aa           	tax
    1fb6: a5 13        	lda	$13                     ; 0x2013 <playmidi+0x626>
    1fb8: 69 00        	adc	#$0
    1fba: 85 12        	sta	$12                     ; 0x2012 <playmidi+0x625>
    1fbc: a5 14        	lda	$14                     ; 0x2014 <playmidi+0x627>
    1fbe: 69 00        	adc	#$0
    1fc0: 85 13        	sta	$13                     ; 0x2013 <playmidi+0x626>
    1fc2: 98           	tya
    1fc3: 20 dd 09     	jsr	$9dd <FAR_PEEK>
    1fc6: 85 29        	sta	$29                     ; 0x2029 <playmidi+0x63c>
    1fc8: 18           	clc
    1fc9: a5 24        	lda	$24                     ; 0x2024 <playmidi+0x637>
    1fcb: a0 30        	ldy	#$30
    1fcd: 71 26        	adc	($26),y                 ; 0x2026 <playmidi+0x639>
    1fcf: 85 14        	sta	$14                     ; 0x2014 <playmidi+0x627>
    1fd1: a5 2f        	lda	$2f                     ; 0x202f <playmidi+0x642>
    1fd3: a0 01        	ldy	#$1
    1fd5: 71 2a        	adc	($2a),y                 ; 0x202a <playmidi+0x63d>
    1fd7: 85 13        	sta	$13                     ; 0x2013 <playmidi+0x626>
    1fd9: a5 28        	lda	$28                     ; 0x2028 <playmidi+0x63b>
    1fdb: c8           	iny
    1fdc: 71 2a        	adc	($2a),y                 ; 0x202a <playmidi+0x63d>
    1fde: 85 12        	sta	$12                     ; 0x2012 <playmidi+0x625>
    1fe0: a5 2e        	lda	$2e                     ; 0x202e <playmidi+0x641>
    1fe2: c8           	iny
    1fe3: 71 2a        	adc	($2a),y                 ; 0x202a <playmidi+0x63d>
    1fe5: aa           	tax
    1fe6: 18           	clc
    1fe7: a5 14        	lda	$14                     ; 0x2014 <playmidi+0x627>
    1fe9: 69 07        	adc	#$7
    1feb: a8           	tay
    1fec: a5 13        	lda	$13                     ; 0x2013 <playmidi+0x626>
    1fee: 69 00        	adc	#$0
    1ff0: 85 14        	sta	$14                     ; 0x2014 <playmidi+0x627>
    1ff2: a5 12        	lda	$12                     ; 0x2012 <playmidi+0x625>
    1ff4: 69 00        	adc	#$0
    1ff6: 85 12        	sta	$12                     ; 0x2012 <playmidi+0x625>
    1ff8: 8a           	txa
    1ff9: 69 00        	adc	#$0
    1ffb: 85 13        	sta	$13                     ; 0x2013 <playmidi+0x626>
    1ffd: a6 14        	ldx	$14                     ; 0x2014 <playmidi+0x627>
    1fff: 98           	tya
    2000: 20 dd 09     	jsr	$9dd <FAR_PEEK>
    2003: 48           	pha
    2004: a0 20        	ldy	#$20
    2006: b1 10        	lda	($10),y                 ; 0x2010 <playmidi+0x623>
    2008: 85 2e        	sta	$2e                     ; 0x202e <playmidi+0x641>
    200a: a0 10        	ldy	#$10
    200c: b1 10        	lda	($10),y                 ; 0x2010 <playmidi+0x623>
    200e: 85 26        	sta	$26                     ; 0x2026 <playmidi+0x639>
    2010: a0 1f        	ldy	#$1f
    2012: b1 10        	lda	($10),y                 ; 0x2010 <playmidi+0x623>
    2014: 85 14        	sta	$14                     ; 0x2014 <playmidi+0x627>
    2016: a0 0f        	ldy	#$f
    2018: b1 10        	lda	($10),y                 ; 0x2010 <playmidi+0x623>
    201a: 85 27        	sta	$27                     ; 0x2027 <playmidi+0x63a>
    201c: 68           	pla
    201d: a6 27        	ldx	$27                     ; 0x2027 <playmidi+0x63a>
    201f: d0 0b        	bne	$202c <playmidi+0x63f>
    2021: a6 26        	ldx	$26                     ; 0x2026 <playmidi+0x639>
    2023: d0 07        	bne	$202c <playmidi+0x63f>
    2025: a6 2e        	ldx	$2e                     ; 0x202e <playmidi+0x641>
    2027: d0 03        	bne	$202c <playmidi+0x63f>
    2029: 4c 90 25     	jmp	$2590 <playmidi+0xba3>
    202c: a6 29        	ldx	$29                     ; 0x2029 <playmidi+0x63c>
    202e: 86 24        	stx	$24                     ; 0x2024 <playmidi+0x637>
    2030: a6 25        	ldx	$25                     ; 0x2025 <playmidi+0x638>
    2032: 86 2b        	stx	$2b                     ; 0x202b <playmidi+0x63e>
    2034: a6 27        	ldx	$27                     ; 0x2027 <playmidi+0x63a>
    2036: e0 01        	cpx	#$1
    2038: d0 10        	bne	$204a <playmidi+0x65d>
    203a: a6 26        	ldx	$26                     ; 0x2026 <playmidi+0x639>
    203c: d0 16        	bne	$2054 <playmidi+0x667>
    203e: a0 1e        	ldy	#$1e
    2040: 91 10        	sta	($10),y                 ; 0x2010 <playmidi+0x623>
    2042: a5 2e        	lda	$2e                     ; 0x202e <playmidi+0x641>
    2044: d0 27        	bne	$206d <playmidi+0x680>
    2046: a6 14        	ldx	$14                     ; 0x2014 <playmidi+0x627>
    2048: 80 25        	bra	$206f <playmidi+0x682>
    204a: a0 1e        	ldy	#$1e
    204c: 91 10        	sta	($10),y                 ; 0x2010 <playmidi+0x623>
    204e: a6 27        	ldx	$27                     ; 0x2027 <playmidi+0x63a>
    2050: e0 01        	cpx	#$1
    2052: 80 1d        	bra	$2071 <playmidi+0x684>
    2054: a0 1e        	ldy	#$1e
    2056: 91 10        	sta	($10),y                 ; 0x2010 <playmidi+0x623>
    2058: a6 26        	ldx	$26                     ; 0x2026 <playmidi+0x639>
    205a: 80 13        	bra	$206f <playmidi+0x682>
    205c: a2 ff        	ldx	#$ff
    205e: 8a           	txa
    205f: a0 1f        	ldy	#$1f
    2061: 91 10        	sta	($10),y                 ; 0x2010 <playmidi+0x623>
    2063: c8           	iny
    2064: 91 10        	sta	($10),y                 ; 0x2010 <playmidi+0x623>
    2066: a0 10        	ldy	#$10
    2068: 91 10        	sta	($10),y                 ; 0x2010 <playmidi+0x623>
    206a: 4c d0 1e     	jmp	$1ed0 <playmidi+0x4e3>
    206d: a6 2e        	ldx	$2e                     ; 0x202e <playmidi+0x641>
    206f: e0 00        	cpx	#$0
    2071: a5 14        	lda	$14                     ; 0x2014 <playmidi+0x627>
    2073: a6 2e        	ldx	$2e                     ; 0x202e <playmidi+0x641>
    2075: 86 28        	stx	$28                     ; 0x2028 <playmidi+0x63b>
    2077: a6 26        	ldx	$26                     ; 0x2026 <playmidi+0x639>
    2079: 86 2a        	stx	$2a                     ; 0x202a <playmidi+0x63d>
    207b: a6 27        	ldx	$27                     ; 0x2027 <playmidi+0x63a>
    207d: 86 29        	stx	$29                     ; 0x2029 <playmidi+0x63c>
    207f: 90 03        	bcc	$2084 <playmidi+0x697>
    2081: 4c a1 24     	jmp	$24a1 <playmidi+0xab4>
    2084: a6 2a        	ldx	$2a                     ; 0x202a <playmidi+0x63d>
    2086: 86 12        	stx	$12                     ; 0x2012 <playmidi+0x625>
    2088: a6 28        	ldx	$28                     ; 0x2028 <playmidi+0x63b>
    208a: 20 04 28     	jsr	$2804 <setTimer0>
    208d: 20 24 28     	jsr	$2824 <isTimer0Done>
    2090: aa           	tax
    2091: d0 22        	bne	$20b5 <playmidi+0x6c8>
    2093: 64 8e        	stz	$8e                     ; 0x208e <playmidi+0x6a1>
    2095: 18           	clc
    2096: a5 10        	lda	$10                     ; 0x2010 <playmidi+0x623>
    2098: 69 23        	adc	#$23
    209a: 85 12        	sta	$12                     ; 0x2012 <playmidi+0x625>
    209c: a5 11        	lda	$11                     ; 0x2011 <playmidi+0x624>
    209e: 69 00        	adc	#$0
    20a0: 85 13        	sta	$13                     ; 0x2013 <playmidi+0x626>
    20a2: 20 00 ff     	jsr	$ff00 <end_block9+0xd164>
    20a5: 92 12        	sta	($12)                   ; 0x2012 <playmidi+0x625>
    20a7: a9 00        	lda	#$0
    20a9: 6a           	ror
    20aa: 85 2c        	sta	$2c                     ; 0x202c <playmidi+0x63f>
    20ac: a6 8e        	ldx	$8e                     ; 0x208e <playmidi+0x6a1>
    20ae: e0 08        	cpx	#$8
    20b0: d0 db        	bne	$208d <playmidi+0x6a0>
    20b2: 4c d0 24     	jmp	$24d0 <playmidi+0xae3>
    20b5: a2 10        	ldx	#$10
    20b7: 8e 60 d6     	stx	$d660                   ; 0xd660 <end_block9+0xa8c4>
    20ba: a6 2b        	ldx	$2b                     ; 0x202b <playmidi+0x63e>
    20bc: 8e a1 dd     	stx	$dda1                   ; 0xdda1 <end_block9+0xb005>
    20bf: a6 24        	ldx	$24                     ; 0x2024 <playmidi+0x637>
    20c1: 8e a1 dd     	stx	$dda1                   ; 0xdda1 <end_block9+0xb005>
    20c4: a0 0c        	ldy	#$c
    20c6: b1 10        	lda	($10),y                 ; 0x2010 <playmidi+0x623>
    20c8: c9 03        	cmp	#$3
    20ca: d0 07        	bne	$20d3 <playmidi+0x6e6>
    20cc: a0 1e        	ldy	#$1e
    20ce: b1 10        	lda	($10),y                 ; 0x2010 <playmidi+0x623>
    20d0: 8d a1 dd     	sta	$dda1                   ; 0xdda1 <end_block9+0xb005>
    20d3: a6 26        	ldx	$26                     ; 0x2026 <playmidi+0x639>
    20d5: 86 29        	stx	$29                     ; 0x2029 <playmidi+0x63c>
    20d7: a6 27        	ldx	$27                     ; 0x2027 <playmidi+0x63a>
    20d9: 86 2f        	stx	$2f                     ; 0x202f <playmidi+0x642>
    20db: a0 18        	ldy	#$18
    20dd: b1 10        	lda	($10),y                 ; 0x2010 <playmidi+0x623>
    20df: 85 26        	sta	$26                     ; 0x2026 <playmidi+0x639>
    20e1: c8           	iny
    20e2: b1 10        	lda	($10),y                 ; 0x2010 <playmidi+0x623>
    20e4: 85 27        	sta	$27                     ; 0x2027 <playmidi+0x63a>
    20e6: a5 26        	lda	$26                     ; 0x2026 <playmidi+0x639>
    20e8: 18           	clc
    20e9: 69 20        	adc	#$20
    20eb: 85 12        	sta	$12                     ; 0x2012 <playmidi+0x625>
    20ed: a5 27        	lda	$27                     ; 0x2027 <playmidi+0x63a>
    20ef: 69 00        	adc	#$0
    20f1: 85 13        	sta	$13                     ; 0x2013 <playmidi+0x626>
    20f3: a0 0e        	ldy	#$e
    20f5: b1 10        	lda	($10),y                 ; 0x2010 <playmidi+0x623>
    20f7: 85 16        	sta	$16                     ; 0x2016 <playmidi+0x629>
    20f9: 85 18        	sta	$18                     ; 0x2018 <playmidi+0x62b>
    20fb: 06 18        	asl	$18                     ; 0x2018 <playmidi+0x62b>
    20fd: 88           	dey
    20fe: b1 10        	lda	($10),y                 ; 0x2010 <playmidi+0x623>
    2100: 85 17        	sta	$17                     ; 0x2017 <playmidi+0x62a>
    2102: 85 2c        	sta	$2c                     ; 0x202c <playmidi+0x63f>
    2104: 26 2c        	rol	$2c                     ; 0x202c <playmidi+0x63f>
    2106: 18           	clc
    2107: a5 18        	lda	$18                     ; 0x2018 <playmidi+0x62b>
    2109: a0 20        	ldy	#$20
    210b: 71 26        	adc	($26),y                 ; 0x2026 <playmidi+0x639>
    210d: 85 14        	sta	$14                     ; 0x2014 <playmidi+0x627>
    210f: a5 2c        	lda	$2c                     ; 0x202c <playmidi+0x63f>
    2111: a0 01        	ldy	#$1
    2113: 71 12        	adc	($12),y                 ; 0x2012 <playmidi+0x625>
    2115: a6 14        	ldx	$14                     ; 0x2014 <playmidi+0x627>
    2117: 86 12        	stx	$12                     ; 0x2012 <playmidi+0x625>
    2119: 85 13        	sta	$13                     ; 0x2013 <playmidi+0x626>
    211b: 5a           	phy
    211c: a0 1a        	ldy	#$1a
    211e: b1 10        	lda	($10),y                 ; 0x2010 <playmidi+0x623>
    2120: 85 1a        	sta	$1a                     ; 0x201a <playmidi+0x62d>
    2122: c8           	iny
    2123: b1 10        	lda	($10),y                 ; 0x2010 <playmidi+0x623>
    2125: 85 1b        	sta	$1b                     ; 0x201b <playmidi+0x62e>
    2127: a5 1a        	lda	$1a                     ; 0x201a <playmidi+0x62d>
    2129: 18           	clc
    212a: 69 03        	adc	#$3
    212c: 85 14        	sta	$14                     ; 0x2014 <playmidi+0x627>
    212e: a5 1b        	lda	$1b                     ; 0x201b <playmidi+0x62e>
    2130: 69 00        	adc	#$0
    2132: 85 15        	sta	$15                     ; 0x2015 <playmidi+0x628>
    2134: a5 18        	lda	$18                     ; 0x2018 <playmidi+0x62b>
    2136: 0a           	asl
    2137: a0 0c        	ldy	#$c
    2139: 91 10        	sta	($10),y                 ; 0x2010 <playmidi+0x623>
    213b: 7a           	ply
    213c: 26 2c        	rol	$2c                     ; 0x202c <playmidi+0x63f>
    213e: 0a           	asl
    213f: a6 2c        	ldx	$2c                     ; 0x202c <playmidi+0x63f>
    2141: 86 19        	stx	$19                     ; 0x2019 <playmidi+0x62c>
    2143: 26 19        	rol	$19                     ; 0x2019 <playmidi+0x62c>
    2145: 38           	sec
    2146: e5 16        	sbc	$16                     ; 0x2016 <playmidi+0x629>
    2148: 85 18        	sta	$18                     ; 0x2018 <playmidi+0x62b>
    214a: a5 19        	lda	$19                     ; 0x2019 <playmidi+0x62c>
    214c: e5 17        	sbc	$17                     ; 0x2017 <playmidi+0x62a>
    214e: 85 19        	sta	$19                     ; 0x2019 <playmidi+0x62c>
    2150: b2 12        	lda	($12)                   ; 0x2012 <playmidi+0x625>
    2152: 85 16        	sta	$16                     ; 0x2016 <playmidi+0x629>
    2154: b1 12        	lda	($12),y                 ; 0x2012 <playmidi+0x625>
    2156: e6 16        	inc	$16                     ; 0x2016 <playmidi+0x629>
    2158: d0 01        	bne	$215b <playmidi+0x76e>
    215a: 1a           	inc
    215b: 85 17        	sta	$17                     ; 0x2017 <playmidi+0x62a>
    215d: a5 16        	lda	$16                     ; 0x2016 <playmidi+0x629>
    215f: 92 12        	sta	($12)                   ; 0x2012 <playmidi+0x625>
    2161: a5 17        	lda	$17                     ; 0x2017 <playmidi+0x62a>
    2163: 91 12        	sta	($12),y                 ; 0x2012 <playmidi+0x625>
    2165: 18           	clc
    2166: a0 03        	ldy	#$3
    2168: a5 18        	lda	$18                     ; 0x2018 <playmidi+0x62b>
    216a: 71 1a        	adc	($1a),y                 ; 0x201a <playmidi+0x62d>
    216c: 85 12        	sta	$12                     ; 0x2012 <playmidi+0x625>
    216e: a5 19        	lda	$19                     ; 0x2019 <playmidi+0x62c>
    2170: a0 01        	ldy	#$1
    2172: 71 14        	adc	($14),y                 ; 0x2014 <playmidi+0x627>
    2174: a8           	tay
    2175: a5 12        	lda	$12                     ; 0x2012 <playmidi+0x625>
    2177: 85 14        	sta	$14                     ; 0x2014 <playmidi+0x627>
    2179: 84 15        	sty	$15                     ; 0x2015 <playmidi+0x628>
    217b: 18           	clc
    217c: 69 03        	adc	#$3
    217e: 85 12        	sta	$12                     ; 0x2012 <playmidi+0x625>
    2180: 98           	tya
    2181: 69 00        	adc	#$0
    2183: 85 13        	sta	$13                     ; 0x2013 <playmidi+0x626>
    2185: a5 16        	lda	$16                     ; 0x2016 <playmidi+0x629>
    2187: 0a           	asl
    2188: 85 18        	sta	$18                     ; 0x2018 <playmidi+0x62b>
    218a: a5 17        	lda	$17                     ; 0x2017 <playmidi+0x62a>
    218c: 2a           	rol
    218d: 64 16        	stz	$16                     ; 0x2016 <playmidi+0x629>
    218f: 26 16        	rol	$16                     ; 0x2016 <playmidi+0x629>
    2191: 64 17        	stz	$17                     ; 0x2017 <playmidi+0x62a>
    2193: 26 17        	rol	$17                     ; 0x2017 <playmidi+0x62a>
    2195: 06 18        	asl	$18                     ; 0x2018 <playmidi+0x62b>
    2197: 2a           	rol
    2198: a8           	tay
    2199: 26 16        	rol	$16                     ; 0x2016 <playmidi+0x629>
    219b: 26 17        	rol	$17                     ; 0x2017 <playmidi+0x62a>
    219d: a5 18        	lda	$18                     ; 0x2018 <playmidi+0x62b>
    219f: 0a           	asl
    21a0: 84 18        	sty	$18                     ; 0x2018 <playmidi+0x62b>
    21a2: 26 18        	rol	$18                     ; 0x2018 <playmidi+0x62b>
    21a4: 26 16        	rol	$16                     ; 0x2016 <playmidi+0x629>
    21a6: 26 17        	rol	$17                     ; 0x2017 <playmidi+0x62a>
    21a8: 18           	clc
    21a9: a0 03        	ldy	#$3
    21ab: 71 14        	adc	($14),y                 ; 0x2014 <playmidi+0x627>
    21ad: 85 25        	sta	$25                     ; 0x2025 <playmidi+0x638>
    21af: a5 18        	lda	$18                     ; 0x2018 <playmidi+0x62b>
    21b1: a0 01        	ldy	#$1
    21b3: 71 12        	adc	($12),y                 ; 0x2012 <playmidi+0x625>
    21b5: 85 28        	sta	$28                     ; 0x2028 <playmidi+0x63b>
    21b7: c8           	iny
    21b8: a5 16        	lda	$16                     ; 0x2016 <playmidi+0x629>
    21ba: 71 12        	adc	($12),y                 ; 0x2012 <playmidi+0x625>
    21bc: 85 2d        	sta	$2d                     ; 0x202d <playmidi+0x640>
    21be: a5 17        	lda	$17                     ; 0x2017 <playmidi+0x62a>
    21c0: c8           	iny
    21c1: 71 12        	adc	($12),y                 ; 0x2012 <playmidi+0x625>
    21c3: 85 24        	sta	$24                     ; 0x2024 <playmidi+0x637>
    21c5: a0 0b        	ldy	#$b
    21c7: b1 10        	lda	($10),y                 ; 0x2010 <playmidi+0x623>
    21c9: c9 01        	cmp	#$1
    21cb: a5 27        	lda	$27                     ; 0x2027 <playmidi+0x63a>
    21cd: 69 00        	adc	#$0
    21cf: 48           	pha
    21d0: 88           	dey
    21d1: b1 10        	lda	($10),y                 ; 0x2010 <playmidi+0x623>
    21d3: 85 2a        	sta	$2a                     ; 0x202a <playmidi+0x63d>
    21d5: 68           	pla
    21d6: 85 2b        	sta	$2b                     ; 0x202b <playmidi+0x63e>
    21d8: 18           	clc
    21d9: a5 25        	lda	$25                     ; 0x2025 <playmidi+0x638>
    21db: a0 30        	ldy	#$30
    21dd: 71 26        	adc	($26),y                 ; 0x2026 <playmidi+0x639>
    21df: 85 14        	sta	$14                     ; 0x2014 <playmidi+0x627>
    21e1: a5 28        	lda	$28                     ; 0x2028 <playmidi+0x63b>
    21e3: a0 01        	ldy	#$1
    21e5: 71 2a        	adc	($2a),y                 ; 0x202a <playmidi+0x63d>
    21e7: aa           	tax
    21e8: a5 2d        	lda	$2d                     ; 0x202d <playmidi+0x640>
    21ea: c8           	iny
    21eb: 71 2a        	adc	($2a),y                 ; 0x202a <playmidi+0x63d>
    21ed: 85 12        	sta	$12                     ; 0x2012 <playmidi+0x625>
    21ef: a5 24        	lda	$24                     ; 0x2024 <playmidi+0x637>
    21f1: c8           	iny
    21f2: 71 2a        	adc	($2a),y                 ; 0x202a <playmidi+0x63d>
    21f4: 85 13        	sta	$13                     ; 0x2013 <playmidi+0x626>
    21f6: a5 14        	lda	$14                     ; 0x2014 <playmidi+0x627>
    21f8: 20 dd 09     	jsr	$9dd <FAR_PEEK>
    21fb: a0 0b        	ldy	#$b
    21fd: 91 10        	sta	($10),y                 ; 0x2010 <playmidi+0x623>
    21ff: 18           	clc
    2200: a5 25        	lda	$25                     ; 0x2025 <playmidi+0x638>
    2202: a0 30        	ldy	#$30
    2204: 71 26        	adc	($26),y                 ; 0x2026 <playmidi+0x639>
    2206: 85 14        	sta	$14                     ; 0x2014 <playmidi+0x627>
    2208: a5 28        	lda	$28                     ; 0x2028 <playmidi+0x63b>
    220a: a0 01        	ldy	#$1
    220c: 71 2a        	adc	($2a),y                 ; 0x202a <playmidi+0x63d>
    220e: aa           	tax
    220f: a5 2d        	lda	$2d                     ; 0x202d <playmidi+0x640>
    2211: c8           	iny
    2212: 71 2a        	adc	($2a),y                 ; 0x202a <playmidi+0x63d>
    2214: 85 12        	sta	$12                     ; 0x2012 <playmidi+0x625>
    2216: a5 24        	lda	$24                     ; 0x2024 <playmidi+0x637>
    2218: c8           	iny
    2219: 71 2a        	adc	($2a),y                 ; 0x202a <playmidi+0x63d>
    221b: e6 14        	inc	$14                     ; 0x2014 <playmidi+0x627>
    221d: d0 06        	bne	$2225 <playmidi+0x838>
    221f: e8           	inx
    2220: d0 03        	bne	$2225 <playmidi+0x838>
    2222: 4c 18 25     	jmp	$2518 <playmidi+0xb2b>
    2225: 85 13        	sta	$13                     ; 0x2013 <playmidi+0x626>
    2227: a5 14        	lda	$14                     ; 0x2014 <playmidi+0x627>
    2229: 20 dd 09     	jsr	$9dd <FAR_PEEK>
    222c: 48           	pha
    222d: a5 2e        	lda	$2e                     ; 0x202e <playmidi+0x641>
    222f: a0 20        	ldy	#$20
    2231: 91 10        	sta	($10),y                 ; 0x2010 <playmidi+0x623>
    2233: 68           	pla
    2234: a0 0a        	ldy	#$a
    2236: 91 10        	sta	($10),y                 ; 0x2010 <playmidi+0x623>
    2238: 18           	clc
    2239: a5 25        	lda	$25                     ; 0x2025 <playmidi+0x638>
    223b: a0 30        	ldy	#$30
    223d: 71 26        	adc	($26),y                 ; 0x2026 <playmidi+0x639>
    223f: aa           	tax
    2240: a5 28        	lda	$28                     ; 0x2028 <playmidi+0x63b>
    2242: a0 01        	ldy	#$1
    2244: 71 2a        	adc	($2a),y                 ; 0x202a <playmidi+0x63d>
    2246: 85 12        	sta	$12                     ; 0x2012 <playmidi+0x625>
    2248: a5 2d        	lda	$2d                     ; 0x202d <playmidi+0x640>
    224a: c8           	iny
    224b: 71 2a        	adc	($2a),y                 ; 0x202a <playmidi+0x63d>
    224d: 85 13        	sta	$13                     ; 0x2013 <playmidi+0x626>
    224f: a5 24        	lda	$24                     ; 0x2024 <playmidi+0x637>
    2251: c8           	iny
    2252: 71 2a        	adc	($2a),y                 ; 0x202a <playmidi+0x63d>
    2254: 85 14        	sta	$14                     ; 0x2014 <playmidi+0x627>
    2256: 18           	clc
    2257: 8a           	txa
    2258: 69 02        	adc	#$2
    225a: a8           	tay
    225b: a5 12        	lda	$12                     ; 0x2012 <playmidi+0x625>
    225d: 69 00        	adc	#$0
    225f: aa           	tax
    2260: a5 13        	lda	$13                     ; 0x2013 <playmidi+0x626>
    2262: 69 00        	adc	#$0
    2264: 85 12        	sta	$12                     ; 0x2012 <playmidi+0x625>
    2266: a5 14        	lda	$14                     ; 0x2014 <playmidi+0x627>
    2268: 69 00        	adc	#$0
    226a: 85 13        	sta	$13                     ; 0x2013 <playmidi+0x626>
    226c: 98           	tya
    226d: 20 dd 09     	jsr	$9dd <FAR_PEEK>
    2270: 85 2e        	sta	$2e                     ; 0x202e <playmidi+0x641>
    2272: 18           	clc
    2273: a5 25        	lda	$25                     ; 0x2025 <playmidi+0x638>
    2275: a0 1e        	ldy	#$1e
    2277: 91 10        	sta	($10),y                 ; 0x2010 <playmidi+0x623>
    2279: a0 30        	ldy	#$30
    227b: 71 26        	adc	($26),y                 ; 0x2026 <playmidi+0x639>
    227d: aa           	tax
    227e: a5 28        	lda	$28                     ; 0x2028 <playmidi+0x63b>
    2280: a0 1d        	ldy	#$1d
    2282: 91 10        	sta	($10),y                 ; 0x2010 <playmidi+0x623>
    2284: a0 01        	ldy	#$1
    2286: 71 2a        	adc	($2a),y                 ; 0x202a <playmidi+0x63d>
    2288: 85 15        	sta	$15                     ; 0x2015 <playmidi+0x628>
    228a: a5 2d        	lda	$2d                     ; 0x202d <playmidi+0x640>
    228c: a0 1c        	ldy	#$1c
    228e: 91 10        	sta	($10),y                 ; 0x2010 <playmidi+0x623>
    2290: a0 02        	ldy	#$2
    2292: 71 2a        	adc	($2a),y                 ; 0x202a <playmidi+0x63d>
    2294: 85 14        	sta	$14                     ; 0x2014 <playmidi+0x627>
    2296: a5 24        	lda	$24                     ; 0x2024 <playmidi+0x637>
    2298: a0 11        	ldy	#$11
    229a: 91 10        	sta	($10),y                 ; 0x2010 <playmidi+0x623>
    229c: a0 03        	ldy	#$3
    229e: 71 2a        	adc	($2a),y                 ; 0x202a <playmidi+0x63d>
    22a0: 85 13        	sta	$13                     ; 0x2013 <playmidi+0x626>
    22a2: 18           	clc
    22a3: 8a           	txa
    22a4: 69 03        	adc	#$3
    22a6: a8           	tay
    22a7: a5 15        	lda	$15                     ; 0x2015 <playmidi+0x628>
    22a9: 69 00        	adc	#$0
    22ab: aa           	tax
    22ac: a5 14        	lda	$14                     ; 0x2014 <playmidi+0x627>
    22ae: 69 00        	adc	#$0
    22b0: 85 12        	sta	$12                     ; 0x2012 <playmidi+0x625>
    22b2: a5 13        	lda	$13                     ; 0x2013 <playmidi+0x626>
    22b4: 69 00        	adc	#$0
    22b6: 85 13        	sta	$13                     ; 0x2013 <playmidi+0x626>
    22b8: 98           	tya
    22b9: 20 dd 09     	jsr	$9dd <FAR_PEEK>
    22bc: aa           	tax
    22bd: a0 14        	ldy	#$14
    22bf: b1 10        	lda	($10),y                 ; 0x2010 <playmidi+0x623>
    22c1: 85 14        	sta	$14                     ; 0x2014 <playmidi+0x627>
    22c3: c8           	iny
    22c4: b1 10        	lda	($10),y                 ; 0x2010 <playmidi+0x623>
    22c6: 85 15        	sta	$15                     ; 0x2015 <playmidi+0x628>
    22c8: 18           	clc
    22c9: a0 0c        	ldy	#$c
    22cb: b1 10        	lda	($10),y                 ; 0x2010 <playmidi+0x623>
    22cd: 65 14        	adc	$14                     ; 0x2014 <playmidi+0x627>
    22cf: 85 12        	sta	$12                     ; 0x2012 <playmidi+0x625>
    22d1: a5 2c        	lda	$2c                     ; 0x202c <playmidi+0x63f>
    22d3: 65 15        	adc	$15                     ; 0x2015 <playmidi+0x628>
    22d5: 85 13        	sta	$13                     ; 0x2013 <playmidi+0x626>
    22d7: 88           	dey
    22d8: b1 10        	lda	($10),y                 ; 0x2010 <playmidi+0x623>
    22da: 92 12        	sta	($12)                   ; 0x2012 <playmidi+0x625>
    22dc: a0 01        	ldy	#$1
    22de: 5a           	phy
    22df: a0 20        	ldy	#$20
    22e1: b1 10        	lda	($10),y                 ; 0x2010 <playmidi+0x623>
    22e3: 85 1e        	sta	$1e                     ; 0x201e <playmidi+0x631>
    22e5: a0 0a        	ldy	#$a
    22e7: b1 10        	lda	($10),y                 ; 0x2010 <playmidi+0x623>
    22e9: 7a           	ply
    22ea: 91 12        	sta	($12),y                 ; 0x2012 <playmidi+0x625>
    22ec: a0 02        	ldy	#$2
    22ee: a5 2e        	lda	$2e                     ; 0x202e <playmidi+0x641>
    22f0: 91 12        	sta	($12),y                 ; 0x2012 <playmidi+0x625>
    22f2: c8           	iny
    22f3: 8a           	txa
    22f4: 91 12        	sta	($12),y                 ; 0x2012 <playmidi+0x625>
    22f6: a0 16        	ldy	#$16
    22f8: b1 10        	lda	($10),y                 ; 0x2010 <playmidi+0x623>
    22fa: 85 12        	sta	$12                     ; 0x2012 <playmidi+0x625>
    22fc: c8           	iny
    22fd: b1 10        	lda	($10),y                 ; 0x2010 <playmidi+0x623>
    22ff: 85 13        	sta	$13                     ; 0x2013 <playmidi+0x626>
    2301: a0 1f        	ldy	#$1f
    2303: b1 10        	lda	($10),y                 ; 0x2010 <playmidi+0x623>
    2305: 85 1d        	sta	$1d                     ; 0x201d <playmidi+0x630>
    2307: a5 13        	lda	$13                     ; 0x2013 <playmidi+0x626>
    2309: d0 07        	bne	$2312 <playmidi+0x925>
    230b: a5 12        	lda	$12                     ; 0x2012 <playmidi+0x625>
    230d: d0 03        	bne	$2312 <playmidi+0x925>
    230f: 4c 33 24     	jmp	$2433 <playmidi+0xa46>
    2312: a0 18        	ldy	#$18
    2314: b1 10        	lda	($10),y                 ; 0x2010 <playmidi+0x623>
    2316: 85 14        	sta	$14                     ; 0x2014 <playmidi+0x627>
    2318: c8           	iny
    2319: b1 10        	lda	($10),y                 ; 0x2010 <playmidi+0x623>
    231b: 85 15        	sta	$15                     ; 0x2015 <playmidi+0x628>
    231d: a5 14        	lda	$14                     ; 0x2014 <playmidi+0x627>
    231f: 18           	clc
    2320: 69 20        	adc	#$20
    2322: 85 12        	sta	$12                     ; 0x2012 <playmidi+0x625>
    2324: a5 15        	lda	$15                     ; 0x2015 <playmidi+0x628>
    2326: 69 00        	adc	#$0
    2328: 85 13        	sta	$13                     ; 0x2013 <playmidi+0x626>
    232a: a0 20        	ldy	#$20
    232c: b1 14        	lda	($14),y                 ; 0x2014 <playmidi+0x627>
    232e: aa           	tax
    232f: a0 01        	ldy	#$1
    2331: b1 12        	lda	($12),y                 ; 0x2012 <playmidi+0x625>
    2333: 86 12        	stx	$12                     ; 0x2012 <playmidi+0x625>
    2335: 85 13        	sta	$13                     ; 0x2013 <playmidi+0x626>
    2337: a0 1a        	ldy	#$1a
    2339: b1 10        	lda	($10),y                 ; 0x2010 <playmidi+0x623>
    233b: 85 16        	sta	$16                     ; 0x2016 <playmidi+0x629>
    233d: c8           	iny
    233e: b1 10        	lda	($10),y                 ; 0x2010 <playmidi+0x623>
    2340: 85 17        	sta	$17                     ; 0x2017 <playmidi+0x62a>
    2342: a5 16        	lda	$16                     ; 0x2016 <playmidi+0x629>
    2344: 18           	clc
    2345: 69 03        	adc	#$3
    2347: 85 14        	sta	$14                     ; 0x2014 <playmidi+0x627>
    2349: a5 17        	lda	$17                     ; 0x2017 <playmidi+0x62a>
    234b: 69 00        	adc	#$0
    234d: 85 15        	sta	$15                     ; 0x2015 <playmidi+0x628>
    234f: a0 03        	ldy	#$3
    2351: b1 16        	lda	($16),y                 ; 0x2016 <playmidi+0x629>
    2353: aa           	tax
    2354: a0 01        	ldy	#$1
    2356: b1 14        	lda	($14),y                 ; 0x2014 <playmidi+0x627>
    2358: 86 14        	stx	$14                     ; 0x2014 <playmidi+0x627>
    235a: 85 15        	sta	$15                     ; 0x2015 <playmidi+0x628>
    235c: e6 14        	inc	$14                     ; 0x2014 <playmidi+0x627>
    235e: d0 02        	bne	$2362 <playmidi+0x975>
    2360: e6 15        	inc	$15                     ; 0x2015 <playmidi+0x628>
    2362: a0 0e        	ldy	#$e
    2364: b1 10        	lda	($10),y                 ; 0x2010 <playmidi+0x623>
    2366: aa           	tax
    2367: 88           	dey
    2368: b1 10        	lda	($10),y                 ; 0x2010 <playmidi+0x623>
    236a: 85 1c        	sta	$1c                     ; 0x201c <playmidi+0x62f>
    236c: a0 14        	ldy	#$14
    236e: b1 10        	lda	($10),y                 ; 0x2010 <playmidi+0x623>
    2370: 85 18        	sta	$18                     ; 0x2018 <playmidi+0x62b>
    2372: c8           	iny
    2373: b1 10        	lda	($10),y                 ; 0x2010 <playmidi+0x623>
    2375: 85 19        	sta	$19                     ; 0x2019 <playmidi+0x62c>
    2377: c8           	iny
    2378: b1 10        	lda	($10),y                 ; 0x2010 <playmidi+0x623>
    237a: 85 17        	sta	$17                     ; 0x2017 <playmidi+0x62a>
    237c: c8           	iny
    237d: b1 10        	lda	($10),y                 ; 0x2010 <playmidi+0x623>
    237f: 85 16        	sta	$16                     ; 0x2016 <playmidi+0x629>
    2381: 80 21        	bra	$23a4 <playmidi+0x9b7>
    2383: a5 14        	lda	$14                     ; 0x2014 <playmidi+0x627>
    2385: 18           	clc
    2386: 69 07        	adc	#$7
    2388: 85 14        	sta	$14                     ; 0x2014 <playmidi+0x627>
    238a: a5 15        	lda	$15                     ; 0x2015 <playmidi+0x628>
    238c: 69 00        	adc	#$0
    238e: 85 15        	sta	$15                     ; 0x2015 <playmidi+0x628>
    2390: a5 12        	lda	$12                     ; 0x2012 <playmidi+0x625>
    2392: 18           	clc
    2393: 69 02        	adc	#$2
    2395: 85 12        	sta	$12                     ; 0x2012 <playmidi+0x625>
    2397: a5 13        	lda	$13                     ; 0x2013 <playmidi+0x626>
    2399: 69 00        	adc	#$0
    239b: 85 13        	sta	$13                     ; 0x2013 <playmidi+0x626>
    239d: a5 16        	lda	$16                     ; 0x2016 <playmidi+0x629>
    239f: d0 03        	bne	$23a4 <playmidi+0x9b7>
    23a1: 4c 2c 24     	jmp	$242c <playmidi+0xa3f>
    23a4: a0 01        	ldy	#$1
    23a6: b1 12        	lda	($12),y                 ; 0x2012 <playmidi+0x625>
    23a8: d1 14        	cmp	($14),y                 ; 0x2014 <playmidi+0x627>
    23aa: d0 10        	bne	$23bc <playmidi+0x9cf>
    23ac: b2 12        	lda	($12)                   ; 0x2012 <playmidi+0x625>
    23ae: 85 1b        	sta	$1b                     ; 0x201b <playmidi+0x62e>
    23b0: b2 14        	lda	($14)                   ; 0x2014 <playmidi+0x627>
    23b2: 85 1a        	sta	$1a                     ; 0x201a <playmidi+0x62d>
    23b4: a4 1b        	ldy	$1b                     ; 0x201b <playmidi+0x62e>
    23b6: c4 1a        	cpy	$1a                     ; 0x201a <playmidi+0x62d>
    23b8: 90 06        	bcc	$23c0 <playmidi+0x9d3>
    23ba: 80 4c        	bra	$2408 <playmidi+0xa1b>
    23bc: d1 14        	cmp	($14),y                 ; 0x2014 <playmidi+0x627>
    23be: b0 48        	bcs	$2408 <playmidi+0xa1b>
    23c0: a5 1c        	lda	$1c                     ; 0x201c <playmidi+0x62f>
    23c2: d0 03        	bne	$23c7 <playmidi+0x9da>
    23c4: 8a           	txa
    23c5: f0 41        	beq	$2408 <playmidi+0xa1b>
    23c7: b2 18        	lda	($18)                   ; 0x2018 <playmidi+0x62b>
    23c9: 85 1f        	sta	$1f                     ; 0x201f <playmidi+0x632>
    23cb: a0 01        	ldy	#$1
    23cd: b1 18        	lda	($18),y                 ; 0x2018 <playmidi+0x62b>
    23cf: 85 1b        	sta	$1b                     ; 0x201b <playmidi+0x62e>
    23d1: c8           	iny
    23d2: b1 18        	lda	($18),y                 ; 0x2018 <playmidi+0x62b>
    23d4: 85 1a        	sta	$1a                     ; 0x201a <playmidi+0x62d>
    23d6: c8           	iny
    23d7: b1 18        	lda	($18),y                 ; 0x2018 <playmidi+0x62b>
    23d9: 85 22        	sta	$22                     ; 0x2022 <playmidi+0x635>
    23db: 38           	sec
    23dc: a5 1f        	lda	$1f                     ; 0x201f <playmidi+0x632>
    23de: e5 1d        	sbc	$1d                     ; 0x201d <playmidi+0x630>
    23e0: 85 1f        	sta	$1f                     ; 0x201f <playmidi+0x632>
    23e2: a5 1b        	lda	$1b                     ; 0x201b <playmidi+0x62e>
    23e4: e5 1e        	sbc	$1e                     ; 0x201e <playmidi+0x631>
    23e6: 85 1b        	sta	$1b                     ; 0x201b <playmidi+0x62e>
    23e8: a5 1a        	lda	$1a                     ; 0x201a <playmidi+0x62d>
    23ea: e5 29        	sbc	$29                     ; 0x2029 <playmidi+0x63c>
    23ec: 85 1a        	sta	$1a                     ; 0x201a <playmidi+0x62d>
    23ee: a5 22        	lda	$22                     ; 0x2022 <playmidi+0x635>
    23f0: e5 2f        	sbc	$2f                     ; 0x202f <playmidi+0x642>
    23f2: 85 22        	sta	$22                     ; 0x2022 <playmidi+0x635>
    23f4: a5 1f        	lda	$1f                     ; 0x201f <playmidi+0x632>
    23f6: 92 18        	sta	($18)                   ; 0x2018 <playmidi+0x62b>
    23f8: a5 1b        	lda	$1b                     ; 0x201b <playmidi+0x62e>
    23fa: a0 01        	ldy	#$1
    23fc: 91 18        	sta	($18),y                 ; 0x2018 <playmidi+0x62b>
    23fe: a5 1a        	lda	$1a                     ; 0x201a <playmidi+0x62d>
    2400: c8           	iny
    2401: 91 18        	sta	($18),y                 ; 0x2018 <playmidi+0x62b>
    2403: c8           	iny
    2404: a5 22        	lda	$22                     ; 0x2022 <playmidi+0x635>
    2406: 91 18        	sta	($18),y                 ; 0x2018 <playmidi+0x62b>
    2408: a9 ff        	lda	#$ff
    240a: c6 17        	dec	$17                     ; 0x2017 <playmidi+0x62a>
    240c: c5 17        	cmp	$17                     ; 0x2017 <playmidi+0x62a>
    240e: d0 02        	bne	$2412 <playmidi+0xa25>
    2410: c6 16        	dec	$16                     ; 0x2016 <playmidi+0x629>
    2412: a5 18        	lda	$18                     ; 0x2018 <playmidi+0x62b>
    2414: 18           	clc
    2415: 69 04        	adc	#$4
    2417: 85 18        	sta	$18                     ; 0x2018 <playmidi+0x62b>
    2419: a5 19        	lda	$19                     ; 0x2019 <playmidi+0x62c>
    241b: 69 00        	adc	#$0
    241d: 85 19        	sta	$19                     ; 0x2019 <playmidi+0x62c>
    241f: ca           	dex
    2420: e0 ff        	cpx	#$ff
    2422: f0 03        	beq	$2427 <playmidi+0xa3a>
    2424: 4c 83 23     	jmp	$2383 <playmidi+0x996>
    2427: c6 1c        	dec	$1c                     ; 0x201c <playmidi+0x62f>
    2429: 4c 83 23     	jmp	$2383 <playmidi+0x996>
    242c: a5 17        	lda	$17                     ; 0x2017 <playmidi+0x62a>
    242e: f0 03        	beq	$2433 <playmidi+0xa46>
    2430: 4c a4 23     	jmp	$23a4 <playmidi+0x9b7>
    2433: a0 13        	ldy	#$13
    2435: b1 10        	lda	($10),y                 ; 0x2010 <playmidi+0x623>
    2437: a8           	tay
    2438: 5a           	phy
    2439: a0 12        	ldy	#$12
    243b: b1 10        	lda	($10),y                 ; 0x2010 <playmidi+0x623>
    243d: 7a           	ply
    243e: 88           	dey
    243f: c0 ff        	cpy	#$ff
    2441: d0 01        	bne	$2444 <playmidi+0xa57>
    2443: 3a           	dec
    2444: 85 20        	sta	$20                     ; 0x2020 <playmidi+0x633>
    2446: 98           	tya
    2447: 5a           	phy
    2448: a0 13        	ldy	#$13
    244a: 91 10        	sta	($10),y                 ; 0x2010 <playmidi+0x623>
    244c: a5 20        	lda	$20                     ; 0x2020 <playmidi+0x633>
    244e: 88           	dey
    244f: 91 10        	sta	($10),y                 ; 0x2010 <playmidi+0x623>
    2451: 7a           	ply
    2452: a2 9b        	ldx	#$9b
    2454: 86 2c        	stx	$2c                     ; 0x202c <playmidi+0x63f>
    2456: a2 2d        	ldx	#$2d
    2458: 86 2d        	stx	$2d                     ; 0x202d <playmidi+0x640>
    245a: aa           	tax
    245b: f0 03        	beq	$2460 <playmidi+0xa73>
    245d: 4c 00 1d     	jmp	$1d00 <playmidi+0x313>
    2460: 4c ea 25     	jmp	$25ea <playmidi+0xbfd>
    2463: a2 10        	ldx	#$10
    2465: 8e 60 d6     	stx	$d660                   ; 0xd660 <end_block9+0xa8c4>
    2468: 18           	clc
    2469: a5 25        	lda	$25                     ; 0x2025 <playmidi+0x638>
    246b: 69 01        	adc	#$1
    246d: a8           	tay
    246e: a5 28        	lda	$28                     ; 0x2028 <playmidi+0x63b>
    2470: 69 00        	adc	#$0
    2472: 85 28        	sta	$28                     ; 0x2028 <playmidi+0x63b>
    2474: a5 2a        	lda	$2a                     ; 0x202a <playmidi+0x63d>
    2476: 69 00        	adc	#$0
    2478: 85 2a        	sta	$2a                     ; 0x202a <playmidi+0x63d>
    247a: a5 29        	lda	$29                     ; 0x2029 <playmidi+0x63c>
    247c: 69 ff        	adc	#$ff
    247e: c9 01        	cmp	#$1
    2480: d0 11        	bne	$2493 <playmidi+0xaa6>
    2482: 85 29        	sta	$29                     ; 0x2029 <playmidi+0x63c>
    2484: a6 2a        	ldx	$2a                     ; 0x202a <playmidi+0x63d>
    2486: d0 11        	bne	$2499 <playmidi+0xaac>
    2488: 98           	tya
    2489: a6 28        	ldx	$28                     ; 0x2028 <playmidi+0x63b>
    248b: f0 03        	beq	$2490 <playmidi+0xaa3>
    248d: 4c de 25     	jmp	$25de <playmidi+0xbf1>
    2490: 4c d4 25     	jmp	$25d4 <playmidi+0xbe7>
    2493: 85 29        	sta	$29                     ; 0x2029 <playmidi+0x63c>
    2495: c9 01        	cmp	#$1
    2497: 80 02        	bra	$249b <playmidi+0xaae>
    2499: e0 00        	cpx	#$0
    249b: 98           	tya
    249c: b0 03        	bcs	$24a1 <playmidi+0xab4>
    249e: 4c 84 20     	jmp	$2084 <playmidi+0x697>
    24a1: 85 25        	sta	$25                     ; 0x2025 <playmidi+0x638>
    24a3: a2 ff        	ldx	#$ff
    24a5: 86 12        	stx	$12                     ; 0x2012 <playmidi+0x625>
    24a7: 8a           	txa
    24a8: 20 04 28     	jsr	$2804 <setTimer0>
    24ab: 20 24 28     	jsr	$2824 <isTimer0Done>
    24ae: aa           	tax
    24af: d0 b2        	bne	$2463 <playmidi+0xa76>
    24b1: 64 8e        	stz	$8e                     ; 0x208e <playmidi+0x6a1>
    24b3: 18           	clc
    24b4: a5 10        	lda	$10                     ; 0x2010 <playmidi+0x623>
    24b6: 69 22        	adc	#$22
    24b8: 85 12        	sta	$12                     ; 0x2012 <playmidi+0x625>
    24ba: a5 11        	lda	$11                     ; 0x2011 <playmidi+0x624>
    24bc: 69 00        	adc	#$0
    24be: 85 13        	sta	$13                     ; 0x2013 <playmidi+0x626>
    24c0: 20 00 ff     	jsr	$ff00 <end_block9+0xd164>
    24c3: 92 12        	sta	($12)                   ; 0x2012 <playmidi+0x625>
    24c5: a9 00        	lda	#$0
    24c7: 6a           	ror
    24c8: 85 2c        	sta	$2c                     ; 0x202c <playmidi+0x63f>
    24ca: a6 8e        	ldx	$8e                     ; 0x208e <playmidi+0x6a1>
    24cc: e0 08        	cpx	#$8
    24ce: d0 db        	bne	$24ab <playmidi+0xabe>
    24d0: a9 00        	lda	#$0
    24d2: 85 20        	sta	$20                     ; 0x2020 <playmidi+0x633>
    24d4: a8           	tay
    24d5: b1 10        	lda	($10),y                 ; 0x2010 <playmidi+0x623>
    24d7: 85 2f        	sta	$2f                     ; 0x202f <playmidi+0x642>
    24d9: c8           	iny
    24da: b1 10        	lda	($10),y                 ; 0x2010 <playmidi+0x623>
    24dc: 85 2e        	sta	$2e                     ; 0x202e <playmidi+0x641>
    24de: c8           	iny
    24df: b1 10        	lda	($10),y                 ; 0x2010 <playmidi+0x623>
    24e1: 85 2d        	sta	$2d                     ; 0x202d <playmidi+0x640>
    24e3: c8           	iny
    24e4: b1 10        	lda	($10),y                 ; 0x2010 <playmidi+0x623>
    24e6: 85 2c        	sta	$2c                     ; 0x202c <playmidi+0x63f>
    24e8: c8           	iny
    24e9: b1 10        	lda	($10),y                 ; 0x2010 <playmidi+0x623>
    24eb: 85 2b        	sta	$2b                     ; 0x202b <playmidi+0x63e>
    24ed: c8           	iny
    24ee: b1 10        	lda	($10),y                 ; 0x2010 <playmidi+0x623>
    24f0: 85 2a        	sta	$2a                     ; 0x202a <playmidi+0x63d>
    24f2: c8           	iny
    24f3: b1 10        	lda	($10),y                 ; 0x2010 <playmidi+0x623>
    24f5: 85 29        	sta	$29                     ; 0x2029 <playmidi+0x63c>
    24f7: c8           	iny
    24f8: b1 10        	lda	($10),y                 ; 0x2010 <playmidi+0x623>
    24fa: 85 28        	sta	$28                     ; 0x2028 <playmidi+0x63b>
    24fc: fa           	plx
    24fd: 86 27        	stx	$27                     ; 0x2027 <playmidi+0x63a>
    24ff: fa           	plx
    2500: 86 26        	stx	$26                     ; 0x2026 <playmidi+0x639>
    2502: fa           	plx
    2503: 86 25        	stx	$25                     ; 0x2025 <playmidi+0x638>
    2505: fa           	plx
    2506: 86 24        	stx	$24                     ; 0x2024 <playmidi+0x637>
    2508: 18           	clc
    2509: a5 10        	lda	$10                     ; 0x2010 <playmidi+0x623>
    250b: 69 24        	adc	#$24
    250d: 85 10        	sta	$10                     ; 0x2010 <playmidi+0x623>
    250f: a5 11        	lda	$11                     ; 0x2011 <playmidi+0x624>
    2511: 69 00        	adc	#$0
    2513: 85 11        	sta	$11                     ; 0x2011 <playmidi+0x624>
    2515: a5 20        	lda	$20                     ; 0x2020 <playmidi+0x633>
    2517: 60           	rts
    2518: e6 12        	inc	$12                     ; 0x2012 <playmidi+0x625>
    251a: d0 01        	bne	$251d <playmidi+0xb30>
    251c: 1a           	inc
    251d: 4c 25 22     	jmp	$2225 <playmidi+0x838>
    2520: a4 28        	ldy	$28                     ; 0x2028 <playmidi+0x63b>
    2522: f0 03        	beq	$2527 <playmidi+0xb3a>
    2524: 4c d6 1d     	jmp	$1dd6 <playmidi+0x3e9>
    2527: a4 25        	ldy	$25                     ; 0x2025 <playmidi+0x638>
    2529: f0 03        	beq	$252e <playmidi+0xb41>
    252b: 4c d6 1d     	jmp	$1dd6 <playmidi+0x3e9>
    252e: e0 00        	cpx	#$0
    2530: f0 03        	beq	$2535 <playmidi+0xb48>
    2532: 4c d6 1d     	jmp	$1dd6 <playmidi+0x3e9>
    2535: a5 14        	lda	$14                     ; 0x2014 <playmidi+0x627>
    2537: 18           	clc
    2538: 69 02        	adc	#$2
    253a: 85 16        	sta	$16                     ; 0x2016 <playmidi+0x629>
    253c: a5 15        	lda	$15                     ; 0x2015 <playmidi+0x628>
    253e: 69 00        	adc	#$0
    2540: 85 17        	sta	$17                     ; 0x2017 <playmidi+0x62a>
    2542: 18           	clc
    2543: a0 02        	ldy	#$2
    2545: a5 1b        	lda	$1b                     ; 0x201b <playmidi+0x62e>
    2547: 71 14        	adc	($14),y                 ; 0x2014 <playmidi+0x627>
    2549: aa           	tax
    254a: 88           	dey
    254b: a5 1c        	lda	$1c                     ; 0x201c <playmidi+0x62f>
    254d: 71 16        	adc	($16),y                 ; 0x2016 <playmidi+0x629>
    254f: 85 18        	sta	$18                     ; 0x2018 <playmidi+0x62b>
    2551: a5 1e        	lda	$1e                     ; 0x201e <playmidi+0x631>
    2553: c8           	iny
    2554: 71 16        	adc	($16),y                 ; 0x2016 <playmidi+0x629>
    2556: 85 19        	sta	$19                     ; 0x2019 <playmidi+0x62c>
    2558: c8           	iny
    2559: a5 27        	lda	$27                     ; 0x2027 <playmidi+0x63a>
    255b: 71 16        	adc	($16),y                 ; 0x2016 <playmidi+0x629>
    255d: 64 14        	stz	$14                     ; 0x2014 <playmidi+0x627>
    255f: 48           	pha
    2560: a9 00        	lda	#$0
    2562: a0 1f        	ldy	#$1f
    2564: 91 10        	sta	($10),y                 ; 0x2010 <playmidi+0x623>
    2566: c8           	iny
    2567: 91 10        	sta	($10),y                 ; 0x2010 <playmidi+0x623>
    2569: a0 10        	ldy	#$10
    256b: 91 10        	sta	($10),y                 ; 0x2010 <playmidi+0x623>
    256d: 88           	dey
    256e: 91 10        	sta	($10),y                 ; 0x2010 <playmidi+0x623>
    2570: 8a           	txa
    2571: a0 1e        	ldy	#$1e
    2573: 91 10        	sta	($10),y                 ; 0x2010 <playmidi+0x623>
    2575: a5 18        	lda	$18                     ; 0x2018 <playmidi+0x62b>
    2577: 88           	dey
    2578: 91 10        	sta	($10),y                 ; 0x2010 <playmidi+0x623>
    257a: a5 19        	lda	$19                     ; 0x2019 <playmidi+0x62c>
    257c: 88           	dey
    257d: 91 10        	sta	($10),y                 ; 0x2010 <playmidi+0x623>
    257f: 68           	pla
    2580: a0 11        	ldy	#$11
    2582: 91 10        	sta	($10),y                 ; 0x2010 <playmidi+0x623>
    2584: a5 12        	lda	$12                     ; 0x2012 <playmidi+0x625>
    2586: a0 0e        	ldy	#$e
    2588: 91 10        	sta	($10),y                 ; 0x2010 <playmidi+0x623>
    258a: a5 13        	lda	$13                     ; 0x2013 <playmidi+0x626>
    258c: 88           	dey
    258d: 4c d2 1e     	jmp	$1ed2 <playmidi+0x4e5>
    2590: a6 14        	ldx	$14                     ; 0x2014 <playmidi+0x627>
    2592: f0 03        	beq	$2597 <playmidi+0xbaa>
    2594: 4c 2c 20     	jmp	$202c <playmidi+0x63f>
    2597: a6 25        	ldx	$25                     ; 0x2025 <playmidi+0x638>
    2599: 8e a1 dd     	stx	$dda1                   ; 0xdda1 <end_block9+0xb005>
    259c: a6 29        	ldx	$29                     ; 0x2029 <playmidi+0x63c>
    259e: 8e a1 dd     	stx	$dda1                   ; 0xdda1 <end_block9+0xb005>
    25a1: 48           	pha
    25a2: a0 0c        	ldy	#$c
    25a4: b1 10        	lda	($10),y                 ; 0x2010 <playmidi+0x623>
    25a6: aa           	tax
    25a7: 68           	pla
    25a8: e0 03        	cpx	#$3
    25aa: d0 03        	bne	$25af <playmidi+0xbc2>
    25ac: 8d a1 dd     	sta	$dda1                   ; 0xdda1 <end_block9+0xb005>
    25af: 64 8e        	stz	$8e                     ; 0x208e <playmidi+0x6a1>
    25b1: 18           	clc
    25b2: a5 10        	lda	$10                     ; 0x2010 <playmidi+0x623>
    25b4: 69 21        	adc	#$21
    25b6: 85 12        	sta	$12                     ; 0x2012 <playmidi+0x625>
    25b8: a5 11        	lda	$11                     ; 0x2011 <playmidi+0x624>
    25ba: 69 00        	adc	#$0
    25bc: 85 13        	sta	$13                     ; 0x2013 <playmidi+0x626>
    25be: 20 00 ff     	jsr	$ff00 <end_block9+0xd164>
    25c1: 92 12        	sta	($12)                   ; 0x2012 <playmidi+0x625>
    25c3: a9 00        	lda	#$0
    25c5: 6a           	ror
    25c6: 85 2c        	sta	$2c                     ; 0x202c <playmidi+0x63f>
    25c8: a6 8e        	ldx	$8e                     ; 0x208e <playmidi+0x6a1>
    25ca: e0 08        	cpx	#$8
    25cc: f0 03        	beq	$25d1 <playmidi+0xbe4>
    25ce: 4c d3 20     	jmp	$20d3 <playmidi+0x6e6>
    25d1: 4c d0 24     	jmp	$24d0 <playmidi+0xae3>
    25d4: c9 00        	cmp	#$0
    25d6: 90 03        	bcc	$25db <playmidi+0xbee>
    25d8: 4c a1 24     	jmp	$24a1 <playmidi+0xab4>
    25db: 4c 84 20     	jmp	$2084 <playmidi+0x697>
    25de: a6 28        	ldx	$28                     ; 0x2028 <playmidi+0x63b>
    25e0: e0 00        	cpx	#$0
    25e2: 90 03        	bcc	$25e7 <playmidi+0xbfa>
    25e4: 4c a1 24     	jmp	$24a1 <playmidi+0xab4>
    25e7: 4c 84 20     	jmp	$2084 <playmidi+0x697>
    25ea: 98           	tya
    25eb: f0 03        	beq	$25f0 <playmidi+0xc03>
    25ed: 4c 00 1d     	jmp	$1d00 <playmidi+0x313>
    25f0: 4c d0 24     	jmp	$24d0 <playmidi+0xae3>

000025f3 <openAllCODEC>:
    25f3: a2 1f        	ldx	#$1f
    25f5: 8e 20 d6     	stx	$d620                   ; 0xd620 <end_block9+0xa884>
    25f8: a2 2a        	ldx	#$2a
    25fa: 8e 21 d6     	stx	$d621                   ; 0xd621 <end_block9+0xa885>
    25fd: a2 01        	ldx	#$1
    25ff: 8e 22 d6     	stx	$d622                   ; 0xd622 <end_block9+0xa886>
    2602: ad 22 d6     	lda	$d622                   ; 0xd622 <end_block9+0xa886>
    2605: 29 01        	and	#$1
    2607: d0 f9        	bne	$2602 <openAllCODEC+0xf>
    2609: 60           	rts

0000260a <boostVSClock>:
    260a: a2 03        	ldx	#$3
    260c: 8e 01 d7     	stx	$d701                   ; 0xd701 <end_block9+0xa965>
    260f: 9c 02 d7     	stz	$d702                   ; 0xd702 <end_block9+0xa966>
    2612: 9c 02 d7     	stz	$d702                   ; 0xd702 <end_block9+0xa966>
    2615: a2 e0        	ldx	#$e0
    2617: 8e 03 d7     	stx	$d703                   ; 0xd703 <end_block9+0xa967>
    261a: a2 01        	ldx	#$1
    261c: 8e 00 d7     	stx	$d700                   ; 0xd700 <end_block9+0xa964>
    261f: 9c 00 d7     	stz	$d700                   ; 0xd700 <end_block9+0xa964>
    2622: ae 00 d7     	ldx	$d700                   ; 0xd700 <end_block9+0xa964>
    2625: 30 fb        	bmi	$2622 <boostVSClock+0x18>
    2627: 60           	rts

00002628 <initRTMIDI>:
    2628: 64 12        	stz	$12                     ; 0x2012 <playmidi+0x625>
    262a: a0 01        	ldy	#$1
    262c: a2 00        	ldx	#$0
    262e: a5 12        	lda	$12                     ; 0x2012 <playmidi+0x625>
    2630: 85 14        	sta	$14                     ; 0x2014 <playmidi+0x627>
    2632: a5 12        	lda	$12                     ; 0x2012 <playmidi+0x625>
    2634: 0a           	asl
    2635: 85 12        	sta	$12                     ; 0x2012 <playmidi+0x625>
    2637: 8a           	txa
    2638: 2a           	rol
    2639: 85 13        	sta	$13                     ; 0x2013 <playmidi+0x626>
    263b: a9 f4        	lda	#$f4
    263d: 18           	clc
    263e: 65 12        	adc	$12                     ; 0x2012 <playmidi+0x625>
    2640: 85 12        	sta	$12                     ; 0x2012 <playmidi+0x625>
    2642: a9 2b        	lda	#$2b
    2644: 65 13        	adc	$13                     ; 0x2013 <playmidi+0x626>
    2646: 85 15        	sta	$15                     ; 0x2015 <playmidi+0x628>
    2648: a5 12        	lda	$12                     ; 0x2012 <playmidi+0x625>
    264a: 85 17        	sta	$17                     ; 0x2017 <playmidi+0x62a>
    264c: a5 15        	lda	$15                     ; 0x2015 <playmidi+0x628>
    264e: 85 13        	sta	$13                     ; 0x2013 <playmidi+0x626>
    2650: b2 12        	lda	($12)                   ; 0x2012 <playmidi+0x625>
    2652: 85 16        	sta	$16                     ; 0x2016 <playmidi+0x629>
    2654: 18           	clc
    2655: a5 14        	lda	$14                     ; 0x2014 <playmidi+0x627>
    2657: 85 1a        	sta	$1a                     ; 0x201a <playmidi+0x62d>
    2659: a5 14        	lda	$14                     ; 0x2014 <playmidi+0x627>
    265b: 69 02        	adc	#$2
    265d: 85 18        	sta	$18                     ; 0x2018 <playmidi+0x62b>
    265f: 86 19        	stx	$19                     ; 0x2019 <playmidi+0x62c>
    2661: 8a           	txa
    2662: 69 00        	adc	#$0
    2664: aa           	tax
    2665: 18           	clc
    2666: a5 17        	lda	$17                     ; 0x2017 <playmidi+0x62a>
    2668: 69 02        	adc	#$2
    266a: 85 14        	sta	$14                     ; 0x2014 <playmidi+0x627>
    266c: a5 15        	lda	$15                     ; 0x2015 <playmidi+0x628>
    266e: 69 00        	adc	#$0
    2670: 85 15        	sta	$15                     ; 0x2015 <playmidi+0x628>
    2672: b1 12        	lda	($12),y                 ; 0x2012 <playmidi+0x625>
    2674: 85 17        	sta	$17                     ; 0x2017 <playmidi+0x62a>
    2676: a0 02        	ldy	#$2
    2678: b1 12        	lda	($12),y                 ; 0x2012 <playmidi+0x625>
    267a: 85 13        	sta	$13                     ; 0x2013 <playmidi+0x626>
    267c: 88           	dey
    267d: b1 14        	lda	($14),y                 ; 0x2014 <playmidi+0x627>
    267f: 10 03        	bpl	$2684 <initRTMIDI+0x5c>
    2681: 4c 12 27     	jmp	$2712 <initRTMIDI+0xea>
    2684: 85 12        	sta	$12                     ; 0x2012 <playmidi+0x625>
    2686: 85 15        	sta	$15                     ; 0x2015 <playmidi+0x628>
    2688: a5 13        	lda	$13                     ; 0x2013 <playmidi+0x626>
    268a: e6 12        	inc	$12                     ; 0x2012 <playmidi+0x625>
    268c: c6 12        	dec	$12                     ; 0x2012 <playmidi+0x625>
    268e: d0 16        	bne	$26a6 <initRTMIDI+0x7e>
    2690: c9 00        	cmp	#$0
    2692: d0 12        	bne	$26a6 <initRTMIDI+0x7e>
    2694: 4c 9a 27     	jmp	$279a <initRTMIDI+0x172>
    2697: a5 12        	lda	$12                     ; 0x2012 <playmidi+0x625>
    2699: 85 15        	sta	$15                     ; 0x2015 <playmidi+0x628>
    269b: a5 14        	lda	$14                     ; 0x2014 <playmidi+0x627>
    269d: 85 13        	sta	$13                     ; 0x2013 <playmidi+0x626>
    269f: a5 12        	lda	$12                     ; 0x2012 <playmidi+0x625>
    26a1: d0 03        	bne	$26a6 <initRTMIDI+0x7e>
    26a3: 4c 08 27     	jmp	$2708 <initRTMIDI+0xe0>
    26a6: a5 13        	lda	$13                     ; 0x2013 <playmidi+0x626>
    26a8: 85 14        	sta	$14                     ; 0x2014 <playmidi+0x627>
    26aa: a5 18        	lda	$18                     ; 0x2018 <playmidi+0x62b>
    26ac: 85 19        	sta	$19                     ; 0x2019 <playmidi+0x62c>
    26ae: a5 18        	lda	$18                     ; 0x2018 <playmidi+0x62b>
    26b0: 0a           	asl
    26b1: 85 12        	sta	$12                     ; 0x2012 <playmidi+0x625>
    26b3: 86 18        	stx	$18                     ; 0x2018 <playmidi+0x62b>
    26b5: 8a           	txa
    26b6: 2a           	rol
    26b7: 85 13        	sta	$13                     ; 0x2013 <playmidi+0x626>
    26b9: a9 f4        	lda	#$f4
    26bb: 18           	clc
    26bc: 65 12        	adc	$12                     ; 0x2012 <playmidi+0x625>
    26be: 85 12        	sta	$12                     ; 0x2012 <playmidi+0x625>
    26c0: a9 2b        	lda	#$2b
    26c2: 65 13        	adc	$13                     ; 0x2013 <playmidi+0x626>
    26c4: 85 13        	sta	$13                     ; 0x2013 <playmidi+0x626>
    26c6: b2 12        	lda	($12)                   ; 0x2012 <playmidi+0x625>
    26c8: 85 1a        	sta	$1a                     ; 0x201a <playmidi+0x62d>
    26ca: b1 12        	lda	($12),y                 ; 0x2012 <playmidi+0x625>
    26cc: a6 16        	ldx	$16                     ; 0x2016 <playmidi+0x629>
    26ce: 8e 01 d7     	stx	$d701                   ; 0xd701 <end_block9+0xa965>
    26d1: a6 17        	ldx	$17                     ; 0x2017 <playmidi+0x62a>
    26d3: 8e 02 d7     	stx	$d702                   ; 0xd702 <end_block9+0xa966>
    26d6: a6 1a        	ldx	$1a                     ; 0x201a <playmidi+0x62d>
    26d8: 8e 02 d7     	stx	$d702                   ; 0xd702 <end_block9+0xa966>
    26db: 8d 03 d7     	sta	$d703                   ; 0xd703 <end_block9+0xa967>
    26de: 8c 00 d7     	sty	$d700                   ; 0xd700 <end_block9+0xa964>
    26e1: 9c 00 d7     	stz	$d700                   ; 0xd700 <end_block9+0xa964>
    26e4: ae 00 d7     	ldx	$d700                   ; 0xd700 <end_block9+0xa964>
    26e7: 30 fb        	bmi	$26e4 <initRTMIDI+0xbc>
    26e9: a6 15        	ldx	$15                     ; 0x2015 <playmidi+0x628>
    26eb: 86 12        	stx	$12                     ; 0x2012 <playmidi+0x625>
    26ed: a2 ff        	ldx	#$ff
    26ef: c6 14        	dec	$14                     ; 0x2014 <playmidi+0x627>
    26f1: e4 14        	cpx	$14                     ; 0x2014 <playmidi+0x627>
    26f3: d0 02        	bne	$26f7 <initRTMIDI+0xcf>
    26f5: c6 12        	dec	$12                     ; 0x2012 <playmidi+0x625>
    26f7: a6 18        	ldx	$18                     ; 0x2018 <playmidi+0x62b>
    26f9: a5 19        	lda	$19                     ; 0x2019 <playmidi+0x62c>
    26fb: 85 18        	sta	$18                     ; 0x2018 <playmidi+0x62b>
    26fd: e6 18        	inc	$18                     ; 0x2018 <playmidi+0x62b>
    26ff: f0 03        	beq	$2704 <initRTMIDI+0xdc>
    2701: 4c 97 26     	jmp	$2697 <initRTMIDI+0x6f>
    2704: e8           	inx
    2705: 4c 97 26     	jmp	$2697 <initRTMIDI+0x6f>
    2708: a5 14        	lda	$14                     ; 0x2014 <playmidi+0x627>
    270a: f0 03        	beq	$270f <initRTMIDI+0xe7>
    270c: 4c a6 26     	jmp	$26a6 <initRTMIDI+0x7e>
    270f: 4c 9a 27     	jmp	$279a <initRTMIDI+0x172>
    2712: 29 7f        	and	#$7f
    2714: 85 1b        	sta	$1b                     ; 0x201b <playmidi+0x62e>
    2716: 18           	clc
    2717: a5 1a        	lda	$1a                     ; 0x201a <playmidi+0x62d>
    2719: 69 03        	adc	#$3
    271b: 85 15        	sta	$15                     ; 0x2015 <playmidi+0x628>
    271d: a5 19        	lda	$19                     ; 0x2019 <playmidi+0x62c>
    271f: 69 00        	adc	#$0
    2721: 5a           	phy
    2722: a4 13        	ldy	$13                     ; 0x2013 <playmidi+0x626>
    2724: 84 1a        	sty	$1a                     ; 0x201a <playmidi+0x62d>
    2726: 7a           	ply
    2727: e6 1b        	inc	$1b                     ; 0x201b <playmidi+0x62e>
    2729: c6 1b        	dec	$1b                     ; 0x201b <playmidi+0x62e>
    272b: d0 09        	bne	$2736 <initRTMIDI+0x10e>
    272d: e6 1a        	inc	$1a                     ; 0x201a <playmidi+0x62d>
    272f: c6 1a        	dec	$1a                     ; 0x201a <playmidi+0x62d>
    2731: d0 03        	bne	$2736 <initRTMIDI+0x10e>
    2733: 4c b3 27     	jmp	$27b3 <initRTMIDI+0x18b>
    2736: 5a           	phy
    2737: a4 1b        	ldy	$1b                     ; 0x201b <playmidi+0x62e>
    2739: 84 14        	sty	$14                     ; 0x2014 <playmidi+0x627>
    273b: 7a           	ply
    273c: 85 19        	sta	$19                     ; 0x2019 <playmidi+0x62c>
    273e: a5 18        	lda	$18                     ; 0x2018 <playmidi+0x62b>
    2740: 85 12        	sta	$12                     ; 0x2012 <playmidi+0x625>
    2742: 06 12        	asl	$12                     ; 0x2012 <playmidi+0x625>
    2744: 86 13        	stx	$13                     ; 0x2013 <playmidi+0x626>
    2746: 26 13        	rol	$13                     ; 0x2013 <playmidi+0x626>
    2748: 18           	clc
    2749: a9 f4        	lda	#$f4
    274b: 65 12        	adc	$12                     ; 0x2012 <playmidi+0x625>
    274d: 85 12        	sta	$12                     ; 0x2012 <playmidi+0x625>
    274f: a9 2b        	lda	#$2b
    2751: 65 13        	adc	$13                     ; 0x2013 <playmidi+0x626>
    2753: 85 13        	sta	$13                     ; 0x2013 <playmidi+0x626>
    2755: b2 12        	lda	($12)                   ; 0x2012 <playmidi+0x625>
    2757: 85 18        	sta	$18                     ; 0x2018 <playmidi+0x62b>
    2759: b1 12        	lda	($12),y                 ; 0x2012 <playmidi+0x625>
    275b: 80 06        	bra	$2763 <initRTMIDI+0x13b>
    275d: a6 12        	ldx	$12                     ; 0x2012 <playmidi+0x625>
    275f: 86 14        	stx	$14                     ; 0x2014 <playmidi+0x627>
    2761: f0 2d        	beq	$2790 <initRTMIDI+0x168>
    2763: a6 16        	ldx	$16                     ; 0x2016 <playmidi+0x629>
    2765: 8e 01 d7     	stx	$d701                   ; 0xd701 <end_block9+0xa965>
    2768: a6 17        	ldx	$17                     ; 0x2017 <playmidi+0x62a>
    276a: 8e 02 d7     	stx	$d702                   ; 0xd702 <end_block9+0xa966>
    276d: a6 18        	ldx	$18                     ; 0x2018 <playmidi+0x62b>
    276f: 8e 02 d7     	stx	$d702                   ; 0xd702 <end_block9+0xa966>
    2772: 8d 03 d7     	sta	$d703                   ; 0xd703 <end_block9+0xa967>
    2775: 8c 00 d7     	sty	$d700                   ; 0xd700 <end_block9+0xa964>
    2778: 9c 00 d7     	stz	$d700                   ; 0xd700 <end_block9+0xa964>
    277b: ae 00 d7     	ldx	$d700                   ; 0xd700 <end_block9+0xa964>
    277e: 30 fb        	bmi	$277b <initRTMIDI+0x153>
    2780: a6 14        	ldx	$14                     ; 0x2014 <playmidi+0x627>
    2782: 86 12        	stx	$12                     ; 0x2012 <playmidi+0x625>
    2784: a2 ff        	ldx	#$ff
    2786: c6 1a        	dec	$1a                     ; 0x201a <playmidi+0x62d>
    2788: e4 1a        	cpx	$1a                     ; 0x201a <playmidi+0x62d>
    278a: d0 d1        	bne	$275d <initRTMIDI+0x135>
    278c: c6 12        	dec	$12                     ; 0x2012 <playmidi+0x625>
    278e: 80 cd        	bra	$275d <initRTMIDI+0x135>
    2790: a6 1a        	ldx	$1a                     ; 0x201a <playmidi+0x62d>
    2792: d0 cf        	bne	$2763 <initRTMIDI+0x13b>
    2794: a6 15        	ldx	$15                     ; 0x2015 <playmidi+0x628>
    2796: 86 18        	stx	$18                     ; 0x2018 <playmidi+0x62b>
    2798: a6 19        	ldx	$19                     ; 0x2019 <playmidi+0x62c>
    279a: a5 18        	lda	$18                     ; 0x2018 <playmidi+0x62b>
    279c: e0 00        	cpx	#$0
    279e: d0 09        	bne	$27a9 <initRTMIDI+0x181>
    27a0: c9 1c        	cmp	#$1c
    27a2: 85 12        	sta	$12                     ; 0x2012 <playmidi+0x625>
    27a4: b0 0c        	bcs	$27b2 <initRTMIDI+0x18a>
    27a6: 4c 2e 26     	jmp	$262e <initRTMIDI+0x6>
    27a9: e0 00        	cpx	#$0
    27ab: 85 12        	sta	$12                     ; 0x2012 <playmidi+0x625>
    27ad: b0 03        	bcs	$27b2 <initRTMIDI+0x18a>
    27af: 4c 2e 26     	jmp	$262e <initRTMIDI+0x6>
    27b2: 60           	rts
    27b3: a6 15        	ldx	$15                     ; 0x2015 <playmidi+0x628>
    27b5: 86 18        	stx	$18                     ; 0x2018 <playmidi+0x62b>
    27b7: aa           	tax
    27b8: 80 e0        	bra	$279a <initRTMIDI+0x172>

000027ba <initProgress>:
    27ba: a2 00        	ldx	#$0
    27bc: a9 0f        	lda	#$f
    27be: 20 97 0d     	jsr	$d97 <textSetColor>
    27c1: a2 05        	ldx	#$5
    27c3: a9 0f        	lda	#$f
    27c5: 20 2c 0b     	jsr	$b2c <textGotoXY>
    27c8: a2 2c        	ldx	#$2c
    27ca: 86 12        	stx	$12                     ; 0x2012 <playmidi+0x625>
    27cc: a2 2c        	ldx	#$2c
    27ce: 86 13        	stx	$13                     ; 0x2013 <playmidi+0x626>
    27d0: 20 3d 0b     	jsr	$b3d <textPrint>
    27d3: a0 33        	ldy	#$33
    27d5: a2 57        	ldx	#$57
    27d7: 86 12        	stx	$12                     ; 0x2012 <playmidi+0x625>
    27d9: a2 2c        	ldx	#$2c
    27db: 86 13        	stx	$13                     ; 0x2013 <playmidi+0x626>
    27dd: 84 9b        	sty	$9b                     ; 0x209b <playmidi+0x6ae>
    27df: 20 3d 0b     	jsr	$b3d <textPrint>
    27e2: a4 9b        	ldy	$9b                     ; 0x209b <playmidi+0x6ae>
    27e4: 88           	dey
    27e5: d0 ee        	bne	$27d5 <initProgress+0x1b>
    27e7: a2 59        	ldx	#$59
    27e9: 86 12        	stx	$12                     ; 0x2012 <playmidi+0x625>
    27eb: a2 2c        	ldx	#$2c
    27ed: 86 13        	stx	$13                     ; 0x2013 <playmidi+0x626>
    27ef: 4c 3d 0b     	jmp	$b3d <textPrint>

000027f2 <wipeStatus>:
    27f2: a9 00        	lda	#$0
    27f4: a2 19        	ldx	#$19
    27f6: 20 2c 0b     	jsr	$b2c <textGotoXY>
    27f9: a2 2e        	ldx	#$2e
    27fb: 86 12        	stx	$12                     ; 0x2012 <playmidi+0x625>
    27fd: a2 2c        	ldx	#$2c
    27ff: 86 13        	stx	$13                     ; 0x2013 <playmidi+0x626>
    2801: 4c 3d 0b     	jmp	$b3d <textPrint>

00002804 <setTimer0>:
    2804: a0 02        	ldy	#$2
    2806: 8c 50 d6     	sty	$d650                   ; 0xd650 <end_block9+0xa8b4>
    2809: a0 09        	ldy	#$9
    280b: 8c 50 d6     	sty	$d650                   ; 0xd650 <end_block9+0xa8b4>
    280e: a0 10        	ldy	#$10
    2810: 8c 60 d6     	sty	$d660                   ; 0xd660 <end_block9+0xa8c4>
    2813: a0 01        	ldy	#$1
    2815: 8c 54 d6     	sty	$d654                   ; 0xd654 <end_block9+0xa8b8>
    2818: 8d 55 d6     	sta	$d655                   ; 0xd655 <end_block9+0xa8b9>
    281b: 8e 56 d6     	stx	$d656                   ; 0xd656 <end_block9+0xa8ba>
    281e: a6 12        	ldx	$12                     ; 0x2012 <playmidi+0x625>
    2820: 8e 57 d6     	stx	$d657                   ; 0xd657 <end_block9+0xa8bb>
    2823: 60           	rts

00002824 <isTimer0Done>:
    2824: ad 60 d6     	lda	$d660                   ; 0xd660 <end_block9+0xa8c4>
    2827: 29 10        	and	#$10
    2829: 60           	rts

0000282a <exit>:
    282a: 85 9b        	sta	$9b                     ; 0x209b <playmidi+0x6ae>
    282c: 86 9c        	stx	$9c                     ; 0x209c <playmidi+0x6af>
    282e: 20 4d 03     	jsr	$34d <_fini>
    2831: a6 9c        	ldx	$9c                     ; 0x209c <playmidi+0x6af>
    2833: a5 9b        	lda	$9b                     ; 0x209b <playmidi+0x6ae>
    2835: 20 38 28     	jsr	$2838 <_Exit>

00002838 <_Exit>:
    2838: 80 fe        	bra	$2838 <_Exit>

0000283a <malloc>:
    283a: a8           	tay
    283b: 8a           	txa
    283c: a2 00        	ldx	#$0
    283e: 86 12        	stx	$12                     ; 0x2012 <playmidi+0x625>
    2840: a2 00        	ldx	#$0
    2842: 86 13        	stx	$13                     ; 0x2013 <playmidi+0x626>
    2844: aa           	tax
    2845: d0 07        	bne	$284e <malloc+0x14>
    2847: c0 00        	cpy	#$0
    2849: d0 03        	bne	$284e <malloc+0x14>
    284b: 4c 2a 29     	jmp	$292a <malloc+0xf0>
    284e: 84 16        	sty	$16                     ; 0x2016 <playmidi+0x629>
    2850: aa           	tax
    2851: d0 0e        	bne	$2861 <malloc+0x27>
    2853: a6 16        	ldx	$16                     ; 0x2016 <playmidi+0x629>
    2855: e0 07        	cpx	#$7
    2857: b0 0c        	bcs	$2865 <malloc+0x2b>
    2859: a2 08        	ldx	#$8
    285b: 64 17        	stz	$17                     ; 0x2017 <playmidi+0x62a>
    285d: 86 16        	stx	$16                     ; 0x2016 <playmidi+0x629>
    285f: 80 30        	bra	$2891 <malloc+0x57>
    2861: c9 00        	cmp	#$0
    2863: 90 f4        	bcc	$2859 <malloc+0x1f>
    2865: a8           	tay
    2866: a5 16        	lda	$16                     ; 0x2016 <playmidi+0x629>
    2868: 29 01        	and	#$1
    286a: a2 02        	ldx	#$2
    286c: 64 14        	stz	$14                     ; 0x2014 <playmidi+0x627>
    286e: c9 00        	cmp	#$0
    2870: f0 02        	beq	$2874 <malloc+0x3a>
    2872: a2 03        	ldx	#$3
    2874: 86 15        	stx	$15                     ; 0x2015 <playmidi+0x628>
    2876: 18           	clc
    2877: a5 16        	lda	$16                     ; 0x2016 <playmidi+0x629>
    2879: 65 15        	adc	$15                     ; 0x2015 <playmidi+0x628>
    287b: aa           	tax
    287c: 98           	tya
    287d: 65 14        	adc	$14                     ; 0x2014 <playmidi+0x627>
    287f: 90 03        	bcc	$2884 <malloc+0x4a>
    2881: 4c 2a 29     	jmp	$292a <malloc+0xf0>
    2884: 86 16        	stx	$16                     ; 0x2016 <playmidi+0x629>
    2886: 85 17        	sta	$17                     ; 0x2017 <playmidi+0x62a>
    2888: a8           	tay
    2889: d0 06        	bne	$2891 <malloc+0x57>
    288b: 8a           	txa
    288c: d0 03        	bne	$2891 <malloc+0x57>
    288e: 4c 2a 29     	jmp	$292a <malloc+0xf0>
    2891: a5 95        	lda	$95                     ; 0x2095 <playmidi+0x6a8>
    2893: 29 01        	and	#$1
    2895: d0 3b        	bne	$28d2 <malloc+0x98>
    2897: a5 63        	lda	$63                     ; 0x2063 <playmidi+0x676>
    2899: a6 64        	ldx	$64                     ; 0x2064 <playmidi+0x677>
    289b: a0 9c        	ldy	#$9c
    289d: 84 12        	sty	$12                     ; 0x2012 <playmidi+0x625>
    289f: a0 2d        	ldy	#$2d
    28a1: 84 13        	sty	$13                     ; 0x2013 <playmidi+0x626>
    28a3: a4 16        	ldy	$16                     ; 0x2016 <playmidi+0x629>
    28a5: 84 a9        	sty	$a9                     ; 0x20a9 <playmidi+0x6bc>
    28a7: a4 17        	ldy	$17                     ; 0x2017 <playmidi+0x62a>
    28a9: 84 aa        	sty	$aa                     ; 0x20aa <playmidi+0x6bd>
    28ab: 20 4e 03     	jsr	$34e <_ZN12_GLOBAL__N_19FreeChunk6insertEPvj>
    28ae: a6 aa        	ldx	$aa                     ; 0x20aa <playmidi+0x6bd>
    28b0: 86 17        	stx	$17                     ; 0x2017 <playmidi+0x62a>
    28b2: a6 a9        	ldx	$a9                     ; 0x20a9 <playmidi+0x6bc>
    28b4: 86 16        	stx	$16                     ; 0x2016 <playmidi+0x629>
    28b6: a2 00        	ldx	#$0
    28b8: 86 12        	stx	$12                     ; 0x2012 <playmidi+0x625>
    28ba: a2 00        	ldx	#$0
    28bc: 86 13        	stx	$13                     ; 0x2013 <playmidi+0x626>
    28be: ae 9d 2d     	ldx	$2d9d                   ; 0x2d9d <end_block9+0x1>
    28c1: a9 fe        	lda	#$fe
    28c3: 2d 9c 2d     	and	$2d9c                   ; 0x2d9c <end_block9>
    28c6: 8d 9c 2d     	sta	$2d9c                   ; 0x2d9c <end_block9>
    28c9: 8e 9d 2d     	stx	$2d9d                   ; 0x2d9d <end_block9+0x1>
    28cc: a2 01        	ldx	#$1
    28ce: 86 96        	stx	$96                     ; 0x2096 <playmidi+0x6a9>
    28d0: 86 95        	stx	$95                     ; 0x2095 <playmidi+0x6a8>
    28d2: a6 99        	ldx	$99                     ; 0x2099 <playmidi+0x6ac>
    28d4: 86 18        	stx	$18                     ; 0x2018 <playmidi+0x62b>
    28d6: a4 9a        	ldy	$9a                     ; 0x209a <playmidi+0x6ad>
    28d8: 84 19        	sty	$19                     ; 0x2019 <playmidi+0x62c>
    28da: a9 00        	lda	#$0
    28dc: 85 14        	sta	$14                     ; 0x2014 <playmidi+0x627>
    28de: a9 00        	lda	#$0
    28e0: 85 15        	sta	$15                     ; 0x2015 <playmidi+0x628>
    28e2: c4 15        	cpy	$15                     ; 0x2015 <playmidi+0x628>
    28e4: d0 04        	bne	$28ea <malloc+0xb0>
    28e6: e4 14        	cpx	$14                     ; 0x2014 <playmidi+0x627>
    28e8: f0 40        	beq	$292a <malloc+0xf0>
    28ea: a0 01        	ldy	#$1
    28ec: a6 18        	ldx	$18                     ; 0x2018 <playmidi+0x62b>
    28ee: 86 14        	stx	$14                     ; 0x2014 <playmidi+0x627>
    28f0: a6 19        	ldx	$19                     ; 0x2019 <playmidi+0x62c>
    28f2: 86 15        	stx	$15                     ; 0x2015 <playmidi+0x628>
    28f4: b1 14        	lda	($14),y                 ; 0x2014 <playmidi+0x627>
    28f6: c5 17        	cmp	$17                     ; 0x2017 <playmidi+0x62a>
    28f8: d0 0a        	bne	$2904 <malloc+0xca>
    28fa: b2 14        	lda	($14)                   ; 0x2014 <playmidi+0x627>
    28fc: 29 fe        	and	#$fe
    28fe: c5 16        	cmp	$16                     ; 0x2016 <playmidi+0x629>
    2900: b0 29        	bcs	$292b <malloc+0xf1>
    2902: 80 04        	bra	$2908 <malloc+0xce>
    2904: c5 17        	cmp	$17                     ; 0x2017 <playmidi+0x62a>
    2906: b0 23        	bcs	$292b <malloc+0xf1>
    2908: a5 14        	lda	$14                     ; 0x2014 <playmidi+0x627>
    290a: 18           	clc
    290b: 69 02        	adc	#$2
    290d: 85 1a        	sta	$1a                     ; 0x201a <playmidi+0x62d>
    290f: a5 15        	lda	$15                     ; 0x2015 <playmidi+0x628>
    2911: 69 00        	adc	#$0
    2913: 85 1b        	sta	$1b                     ; 0x201b <playmidi+0x62e>
    2915: a0 02        	ldy	#$2
    2917: b1 14        	lda	($14),y                 ; 0x2014 <playmidi+0x627>
    2919: 85 14        	sta	$14                     ; 0x2014 <playmidi+0x627>
    291b: 88           	dey
    291c: b1 1a        	lda	($1a),y                 ; 0x201a <playmidi+0x62d>
    291e: 85 15        	sta	$15                     ; 0x2015 <playmidi+0x628>
    2920: c5 19        	cmp	$19                     ; 0x2019 <playmidi+0x62c>
    2922: d0 d0        	bne	$28f4 <malloc+0xba>
    2924: a5 14        	lda	$14                     ; 0x2014 <playmidi+0x627>
    2926: c5 18        	cmp	$18                     ; 0x2018 <playmidi+0x62b>
    2928: d0 ca        	bne	$28f4 <malloc+0xba>
    292a: 60           	rts
    292b: a6 14        	ldx	$14                     ; 0x2014 <playmidi+0x627>
    292d: 86 12        	stx	$12                     ; 0x2012 <playmidi+0x625>
    292f: a6 15        	ldx	$15                     ; 0x2015 <playmidi+0x628>
    2931: 86 13        	stx	$13                     ; 0x2013 <playmidi+0x626>
    2933: a6 17        	ldx	$17                     ; 0x2017 <playmidi+0x62a>
    2935: a5 16        	lda	$16                     ; 0x2016 <playmidi+0x629>
    2937: 4c 3a 29     	jmp	$293a <_ZN12_GLOBAL__N_119allocate_free_chunkEPNS_9FreeChunkEj>

0000293a <_ZN12_GLOBAL__N_119allocate_free_chunkEPNS_9FreeChunkEj>:
    293a: 85 ab        	sta	$ab                     ; 0x20ab <playmidi+0x6be>
    293c: 86 ae        	stx	$ae                     ; 0x20ae <playmidi+0x6c1>
    293e: a6 12        	ldx	$12                     ; 0x2012 <playmidi+0x625>
    2940: 86 ac        	stx	$ac                     ; 0x20ac <playmidi+0x6bf>
    2942: a6 13        	ldx	$13                     ; 0x2013 <playmidi+0x626>
    2944: 86 ad        	stx	$ad                     ; 0x20ad <playmidi+0x6c0>
    2946: 20 84 04     	jsr	$484 <_ZN12_GLOBAL__N_19FreeChunk6removeEv>
    2949: a0 01        	ldy	#$1
    294b: b1 ac        	lda	($ac),y                 ; 0x20ac <playmidi+0x6bf>
    294d: 85 14        	sta	$14                     ; 0x2014 <playmidi+0x627>
    294f: a9 fe        	lda	#$fe
    2951: 32 ac        	and	($ac)                   ; 0x20ac <playmidi+0x6bf>
    2953: 38           	sec
    2954: a6 ab        	ldx	$ab                     ; 0x20ab <playmidi+0x6be>
    2956: a8           	tay
    2957: e5 ab        	sbc	$ab                     ; 0x20ab <playmidi+0x6be>
    2959: 85 16        	sta	$16                     ; 0x2016 <playmidi+0x629>
    295b: a5 ae        	lda	$ae                     ; 0x20ae <playmidi+0x6c1>
    295d: 85 13        	sta	$13                     ; 0x2013 <playmidi+0x626>
    295f: 85 12        	sta	$12                     ; 0x2012 <playmidi+0x625>
    2961: a5 14        	lda	$14                     ; 0x2014 <playmidi+0x627>
    2963: e5 12        	sbc	$12                     ; 0x2012 <playmidi+0x625>
    2965: f0 03        	beq	$296a <_ZN12_GLOBAL__N_119allocate_free_chunkEPNS_9FreeChunkEj+0x30>
    2967: 4c e5 29     	jmp	$29e5 <_ZN12_GLOBAL__N_119allocate_free_chunkEPNS_9FreeChunkEj+0xab>
    296a: 85 15        	sta	$15                     ; 0x2015 <playmidi+0x628>
    296c: a5 16        	lda	$16                     ; 0x2016 <playmidi+0x629>
    296e: c9 08        	cmp	#$8
    2970: 90 2e        	bcc	$29a0 <_ZN12_GLOBAL__N_119allocate_free_chunkEPNS_9FreeChunkEj+0x66>
    2972: a8           	tay
    2973: 18           	clc
    2974: 8a           	txa
    2975: 65 ac        	adc	$ac                     ; 0x20ac <playmidi+0x6bf>
    2977: 85 12        	sta	$12                     ; 0x2012 <playmidi+0x625>
    2979: a5 13        	lda	$13                     ; 0x2013 <playmidi+0x626>
    297b: a6 13        	ldx	$13                     ; 0x2013 <playmidi+0x626>
    297d: 86 ae        	stx	$ae                     ; 0x20ae <playmidi+0x6c1>
    297f: 65 ad        	adc	$ad                     ; 0x20ad <playmidi+0x6c0>
    2981: 85 13        	sta	$13                     ; 0x2013 <playmidi+0x626>
    2983: a6 15        	ldx	$15                     ; 0x2015 <playmidi+0x628>
    2985: 98           	tya
    2986: 20 4e 03     	jsr	$34e <_ZN12_GLOBAL__N_19FreeChunk6insertEPvj>
    2989: a5 ab        	lda	$ab                     ; 0x20ab <playmidi+0x6be>
    298b: 29 fe        	and	#$fe
    298d: 85 12        	sta	$12                     ; 0x2012 <playmidi+0x625>
    298f: a0 01        	ldy	#$1
    2991: 98           	tya
    2992: 32 ac        	and	($ac)                   ; 0x20ac <playmidi+0x6bf>
    2994: 05 12        	ora	$12                     ; 0x2012 <playmidi+0x625>
    2996: 92 ac        	sta	($ac)                   ; 0x20ac <playmidi+0x6bf>
    2998: a5 ae        	lda	$ae                     ; 0x20ae <playmidi+0x6c1>
    299a: 91 ac        	sta	($ac),y                 ; 0x20ac <playmidi+0x6bf>
    299c: a4 12        	ldy	$12                     ; 0x2012 <playmidi+0x625>
    299e: 85 14        	sta	$14                     ; 0x2014 <playmidi+0x627>
    29a0: 18           	clc
    29a1: 98           	tya
    29a2: 65 ac        	adc	$ac                     ; 0x20ac <playmidi+0x6bf>
    29a4: a8           	tay
    29a5: a5 14        	lda	$14                     ; 0x2014 <playmidi+0x627>
    29a7: 65 ad        	adc	$ad                     ; 0x20ad <playmidi+0x6c0>
    29a9: aa           	tax
    29aa: 18           	clc
    29ab: a9 9c        	lda	#$9c
    29ad: 65 63        	adc	$63                     ; 0x2063 <playmidi+0x676>
    29af: 85 13        	sta	$13                     ; 0x2013 <playmidi+0x626>
    29b1: a9 2d        	lda	#$2d
    29b3: 65 64        	adc	$64                     ; 0x2064 <playmidi+0x677>
    29b5: 85 12        	sta	$12                     ; 0x2012 <playmidi+0x625>
    29b7: e4 12        	cpx	$12                     ; 0x2012 <playmidi+0x625>
    29b9: d0 08        	bne	$29c3 <_ZN12_GLOBAL__N_119allocate_free_chunkEPNS_9FreeChunkEj+0x89>
    29bb: c4 13        	cpy	$13                     ; 0x2013 <playmidi+0x626>
    29bd: d0 04        	bne	$29c3 <_ZN12_GLOBAL__N_119allocate_free_chunkEPNS_9FreeChunkEj+0x89>
    29bf: 64 96        	stz	$96                     ; 0x2096 <playmidi+0x6a9>
    29c1: 80 14        	bra	$29d7 <_ZN12_GLOBAL__N_119allocate_free_chunkEPNS_9FreeChunkEj+0x9d>
    29c3: 84 12        	sty	$12                     ; 0x2012 <playmidi+0x625>
    29c5: 86 13        	stx	$13                     ; 0x2013 <playmidi+0x626>
    29c7: a0 01        	ldy	#$1
    29c9: b1 12        	lda	($12),y                 ; 0x2012 <playmidi+0x625>
    29cb: 85 14        	sta	$14                     ; 0x2014 <playmidi+0x627>
    29cd: a9 fe        	lda	#$fe
    29cf: 32 12        	and	($12)                   ; 0x2012 <playmidi+0x625>
    29d1: 92 12        	sta	($12)                   ; 0x2012 <playmidi+0x625>
    29d3: a5 14        	lda	$14                     ; 0x2014 <playmidi+0x627>
    29d5: 91 12        	sta	($12),y                 ; 0x2012 <playmidi+0x625>
    29d7: a5 ac        	lda	$ac                     ; 0x20ac <playmidi+0x6bf>
    29d9: 18           	clc
    29da: 69 02        	adc	#$2
    29dc: 85 12        	sta	$12                     ; 0x2012 <playmidi+0x625>
    29de: a5 ad        	lda	$ad                     ; 0x20ad <playmidi+0x6c0>
    29e0: 69 00        	adc	#$0
    29e2: 85 13        	sta	$13                     ; 0x2013 <playmidi+0x626>
    29e4: 60           	rts
    29e5: 85 15        	sta	$15                     ; 0x2015 <playmidi+0x628>
    29e7: c9 00        	cmp	#$0
    29e9: a5 16        	lda	$16                     ; 0x2016 <playmidi+0x629>
    29eb: 90 b3        	bcc	$29a0 <_ZN12_GLOBAL__N_119allocate_free_chunkEPNS_9FreeChunkEj+0x66>
    29ed: 4c 72 29     	jmp	$2972 <_ZN12_GLOBAL__N_119allocate_free_chunkEPNS_9FreeChunkEj+0x38>

000029f0 <free>:
    29f0: a6 12        	ldx	$12                     ; 0x2012 <playmidi+0x625>
    29f2: 86 14        	stx	$14                     ; 0x2014 <playmidi+0x627>
    29f4: a6 13        	ldx	$13                     ; 0x2013 <playmidi+0x626>
    29f6: 86 15        	stx	$15                     ; 0x2015 <playmidi+0x628>
    29f8: a2 00        	ldx	#$0
    29fa: 86 12        	stx	$12                     ; 0x2012 <playmidi+0x625>
    29fc: a2 00        	ldx	#$0
    29fe: 86 13        	stx	$13                     ; 0x2013 <playmidi+0x626>
    2a00: a6 15        	ldx	$15                     ; 0x2015 <playmidi+0x628>
    2a02: e4 13        	cpx	$13                     ; 0x2013 <playmidi+0x626>
    2a04: d0 09        	bne	$2a0f <free+0x1f>
    2a06: a6 14        	ldx	$14                     ; 0x2014 <playmidi+0x627>
    2a08: e4 12        	cpx	$12                     ; 0x2012 <playmidi+0x625>
    2a0a: d0 03        	bne	$2a0f <free+0x1f>
    2a0c: 4c 67 2b     	jmp	$2b67 <free+0x177>
    2a0f: a5 14        	lda	$14                     ; 0x2014 <playmidi+0x627>
    2a11: 18           	clc
    2a12: 69 fe        	adc	#$fe
    2a14: aa           	tax
    2a15: a5 15        	lda	$15                     ; 0x2015 <playmidi+0x628>
    2a17: 69 ff        	adc	#$ff
    2a19: 86 9b        	stx	$9b                     ; 0x209b <playmidi+0x6ae>
    2a1b: 85 9c        	sta	$9c                     ; 0x209c <playmidi+0x6af>
    2a1d: 85 12        	sta	$12                     ; 0x2012 <playmidi+0x625>
    2a1f: a0 01        	ldy	#$1
    2a21: b1 9b        	lda	($9b),y                 ; 0x209b <playmidi+0x6ae>
    2a23: 85 16        	sta	$16                     ; 0x2016 <playmidi+0x629>
    2a25: a9 fe        	lda	#$fe
    2a27: 32 9b        	and	($9b)                   ; 0x209b <playmidi+0x6ae>
    2a29: 85 17        	sta	$17                     ; 0x2017 <playmidi+0x62a>
    2a2b: 8a           	txa
    2a2c: 86 1b        	stx	$1b                     ; 0x201b <playmidi+0x62e>
    2a2e: 18           	clc
    2a2f: 65 17        	adc	$17                     ; 0x2017 <playmidi+0x62a>
    2a31: aa           	tax
    2a32: a4 12        	ldy	$12                     ; 0x2012 <playmidi+0x625>
    2a34: 84 1c        	sty	$1c                     ; 0x201c <playmidi+0x62f>
    2a36: a5 12        	lda	$12                     ; 0x2012 <playmidi+0x625>
    2a38: 65 16        	adc	$16                     ; 0x2016 <playmidi+0x629>
    2a3a: a8           	tay
    2a3b: b2 9b        	lda	($9b)                   ; 0x209b <playmidi+0x6ae>
    2a3d: 85 1a        	sta	$1a                     ; 0x201a <playmidi+0x62d>
    2a3f: a9 9c        	lda	#$9c
    2a41: 18           	clc
    2a42: 65 63        	adc	$63                     ; 0x2063 <playmidi+0x676>
    2a44: 85 18        	sta	$18                     ; 0x2018 <playmidi+0x62b>
    2a46: a9 2d        	lda	#$2d
    2a48: 65 64        	adc	$64                     ; 0x2064 <playmidi+0x677>
    2a4a: 85 19        	sta	$19                     ; 0x2019 <playmidi+0x62c>
    2a4c: c4 19        	cpy	$19                     ; 0x2019 <playmidi+0x62c>
    2a4e: d0 0e        	bne	$2a5e <free+0x6e>
    2a50: e4 18        	cpx	$18                     ; 0x2018 <playmidi+0x62b>
    2a52: d0 0a        	bne	$2a5e <free+0x6e>
    2a54: a2 00        	ldx	#$0
    2a56: 86 12        	stx	$12                     ; 0x2012 <playmidi+0x625>
    2a58: a2 00        	ldx	#$0
    2a5a: 86 13        	stx	$13                     ; 0x2013 <playmidi+0x626>
    2a5c: 80 04        	bra	$2a62 <free+0x72>
    2a5e: 86 12        	stx	$12                     ; 0x2012 <playmidi+0x625>
    2a60: 84 13        	sty	$13                     ; 0x2013 <playmidi+0x626>
    2a62: a5 1a        	lda	$1a                     ; 0x201a <playmidi+0x62d>
    2a64: 29 01        	and	#$1
    2a66: d0 03        	bne	$2a6b <free+0x7b>
    2a68: 4c e6 2a     	jmp	$2ae6 <free+0xf6>
    2a6b: a5 14        	lda	$14                     ; 0x2014 <playmidi+0x627>
    2a6d: 18           	clc
    2a6e: 69 fc        	adc	#$fc
    2a70: 85 14        	sta	$14                     ; 0x2014 <playmidi+0x627>
    2a72: a5 15        	lda	$15                     ; 0x2015 <playmidi+0x628>
    2a74: 69 ff        	adc	#$ff
    2a76: 85 15        	sta	$15                     ; 0x2015 <playmidi+0x628>
    2a78: a0 01        	ldy	#$1
    2a7a: 38           	sec
    2a7b: a9 00        	lda	#$0
    2a7d: f2 14        	sbc	($14)                   ; 0x2014 <playmidi+0x627>
    2a7f: 85 1a        	sta	$1a                     ; 0x201a <playmidi+0x62d>
    2a81: a9 00        	lda	#$0
    2a83: f1 14        	sbc	($14),y                 ; 0x2014 <playmidi+0x627>
    2a85: 85 14        	sta	$14                     ; 0x2014 <playmidi+0x627>
    2a87: a5 1b        	lda	$1b                     ; 0x201b <playmidi+0x62e>
    2a89: 18           	clc
    2a8a: 65 1a        	adc	$1a                     ; 0x201a <playmidi+0x62d>
    2a8c: 85 9b        	sta	$9b                     ; 0x209b <playmidi+0x6ae>
    2a8e: a5 1c        	lda	$1c                     ; 0x201c <playmidi+0x62f>
    2a90: 65 14        	adc	$14                     ; 0x2014 <playmidi+0x627>
    2a92: 85 9c        	sta	$9c                     ; 0x209c <playmidi+0x6af>
    2a94: b1 9b        	lda	($9b),y                 ; 0x209b <playmidi+0x6ae>
    2a96: 85 a3        	sta	$a3                     ; 0x20a3 <playmidi+0x6b6>
    2a98: a9 fe        	lda	#$fe
    2a9a: 32 9b        	and	($9b)                   ; 0x209b <playmidi+0x6ae>
    2a9c: 85 a4        	sta	$a4                     ; 0x20a4 <playmidi+0x6b7>
    2a9e: a6 12        	ldx	$12                     ; 0x2012 <playmidi+0x625>
    2aa0: 86 9d        	stx	$9d                     ; 0x209d <playmidi+0x6b0>
    2aa2: a6 13        	ldx	$13                     ; 0x2013 <playmidi+0x626>
    2aa4: 86 9e        	stx	$9e                     ; 0x209e <playmidi+0x6b1>
    2aa6: a6 9b        	ldx	$9b                     ; 0x209b <playmidi+0x6ae>
    2aa8: 86 12        	stx	$12                     ; 0x2012 <playmidi+0x625>
    2aaa: a6 9c        	ldx	$9c                     ; 0x209c <playmidi+0x6af>
    2aac: 86 13        	stx	$13                     ; 0x2013 <playmidi+0x626>
    2aae: a6 16        	ldx	$16                     ; 0x2016 <playmidi+0x629>
    2ab0: 86 9f        	stx	$9f                     ; 0x209f <playmidi+0x6b2>
    2ab2: a6 17        	ldx	$17                     ; 0x2017 <playmidi+0x62a>
    2ab4: 86 a0        	stx	$a0                     ; 0x20a0 <playmidi+0x6b3>
    2ab6: a6 18        	ldx	$18                     ; 0x2018 <playmidi+0x62b>
    2ab8: 86 a1        	stx	$a1                     ; 0x20a1 <playmidi+0x6b4>
    2aba: a6 19        	ldx	$19                     ; 0x2019 <playmidi+0x62c>
    2abc: 86 a2        	stx	$a2                     ; 0x20a2 <playmidi+0x6b5>
    2abe: 20 84 04     	jsr	$484 <_ZN12_GLOBAL__N_19FreeChunk6removeEv>
    2ac1: a6 a2        	ldx	$a2                     ; 0x20a2 <playmidi+0x6b5>
    2ac3: 86 19        	stx	$19                     ; 0x2019 <playmidi+0x62c>
    2ac5: a6 a1        	ldx	$a1                     ; 0x20a1 <playmidi+0x6b4>
    2ac7: 86 18        	stx	$18                     ; 0x2018 <playmidi+0x62b>
    2ac9: a6 9d        	ldx	$9d                     ; 0x209d <playmidi+0x6b0>
    2acb: 86 12        	stx	$12                     ; 0x2012 <playmidi+0x625>
    2acd: a6 9e        	ldx	$9e                     ; 0x209e <playmidi+0x6b1>
    2acf: 86 13        	stx	$13                     ; 0x2013 <playmidi+0x626>
    2ad1: 18           	clc
    2ad2: a5 a4        	lda	$a4                     ; 0x20a4 <playmidi+0x6b7>
    2ad4: a6 a0        	ldx	$a0                     ; 0x20a0 <playmidi+0x6b3>
    2ad6: 86 14        	stx	$14                     ; 0x2014 <playmidi+0x627>
    2ad8: 65 14        	adc	$14                     ; 0x2014 <playmidi+0x627>
    2ada: 85 17        	sta	$17                     ; 0x2017 <playmidi+0x62a>
    2adc: a5 a3        	lda	$a3                     ; 0x20a3 <playmidi+0x6b6>
    2ade: a6 9f        	ldx	$9f                     ; 0x209f <playmidi+0x6b2>
    2ae0: 86 14        	stx	$14                     ; 0x2014 <playmidi+0x627>
    2ae2: 65 14        	adc	$14                     ; 0x2014 <playmidi+0x627>
    2ae4: 85 16        	sta	$16                     ; 0x2016 <playmidi+0x629>
    2ae6: a2 00        	ldx	#$0
    2ae8: 86 14        	stx	$14                     ; 0x2014 <playmidi+0x627>
    2aea: a2 00        	ldx	#$0
    2aec: 86 15        	stx	$15                     ; 0x2015 <playmidi+0x628>
    2aee: a6 13        	ldx	$13                     ; 0x2013 <playmidi+0x626>
    2af0: e4 15        	cpx	$15                     ; 0x2015 <playmidi+0x628>
    2af2: d0 0d        	bne	$2b01 <free+0x111>
    2af4: a6 12        	ldx	$12                     ; 0x2012 <playmidi+0x625>
    2af6: e4 14        	cpx	$14                     ; 0x2014 <playmidi+0x627>
    2af8: d0 07        	bne	$2b01 <free+0x111>
    2afa: a2 01        	ldx	#$1
    2afc: 86 96        	stx	$96                     ; 0x2096 <playmidi+0x6a9>
    2afe: 4c 58 2b     	jmp	$2b58 <free+0x168>
    2b01: a0 01        	ldy	#$1
    2b03: b1 12        	lda	($12),y                 ; 0x2012 <playmidi+0x625>
    2b05: a8           	tay
    2b06: a9 fe        	lda	#$fe
    2b08: 32 12        	and	($12)                   ; 0x2012 <playmidi+0x625>
    2b0a: 18           	clc
    2b0b: 85 a1        	sta	$a1                     ; 0x20a1 <playmidi+0x6b4>
    2b0d: 65 12        	adc	$12                     ; 0x2012 <playmidi+0x625>
    2b0f: 85 14        	sta	$14                     ; 0x2014 <playmidi+0x627>
    2b11: 98           	tya
    2b12: 85 9d        	sta	$9d                     ; 0x209d <playmidi+0x6b0>
    2b14: 65 13        	adc	$13                     ; 0x2013 <playmidi+0x626>
    2b16: c5 19        	cmp	$19                     ; 0x2019 <playmidi+0x62c>
    2b18: d0 0e        	bne	$2b28 <free+0x138>
    2b1a: a6 14        	ldx	$14                     ; 0x2014 <playmidi+0x627>
    2b1c: e4 18        	cpx	$18                     ; 0x2018 <playmidi+0x62b>
    2b1e: d0 08        	bne	$2b28 <free+0x138>
    2b20: a9 01        	lda	#$1
    2b22: 64 14        	stz	$14                     ; 0x2014 <playmidi+0x627>
    2b24: 25 96        	and	$96                     ; 0x2096 <playmidi+0x6a9>
    2b26: 80 08        	bra	$2b30 <free+0x140>
    2b28: 85 15        	sta	$15                     ; 0x2015 <playmidi+0x628>
    2b2a: a9 01        	lda	#$1
    2b2c: 32 14        	and	($14)                   ; 0x2014 <playmidi+0x627>
    2b2e: 64 14        	stz	$14                     ; 0x2014 <playmidi+0x627>
    2b30: a6 14        	ldx	$14                     ; 0x2014 <playmidi+0x627>
    2b32: d0 03        	bne	$2b37 <free+0x147>
    2b34: aa           	tax
    2b35: f0 31        	beq	$2b68 <free+0x178>
    2b37: a6 16        	ldx	$16                     ; 0x2016 <playmidi+0x629>
    2b39: 86 9f        	stx	$9f                     ; 0x209f <playmidi+0x6b2>
    2b3b: a6 17        	ldx	$17                     ; 0x2017 <playmidi+0x62a>
    2b3d: 86 a0        	stx	$a0                     ; 0x20a0 <playmidi+0x6b3>
    2b3f: 20 84 04     	jsr	$484 <_ZN12_GLOBAL__N_19FreeChunk6removeEv>
    2b42: 18           	clc
    2b43: a6 a1        	ldx	$a1                     ; 0x20a1 <playmidi+0x6b4>
    2b45: 8a           	txa
    2b46: a6 a0        	ldx	$a0                     ; 0x20a0 <playmidi+0x6b3>
    2b48: 86 12        	stx	$12                     ; 0x2012 <playmidi+0x625>
    2b4a: 65 12        	adc	$12                     ; 0x2012 <playmidi+0x625>
    2b4c: 85 17        	sta	$17                     ; 0x2017 <playmidi+0x62a>
    2b4e: a5 9d        	lda	$9d                     ; 0x209d <playmidi+0x6b0>
    2b50: a6 9f        	ldx	$9f                     ; 0x209f <playmidi+0x6b2>
    2b52: 86 12        	stx	$12                     ; 0x2012 <playmidi+0x625>
    2b54: 65 12        	adc	$12                     ; 0x2012 <playmidi+0x625>
    2b56: 85 16        	sta	$16                     ; 0x2016 <playmidi+0x629>
    2b58: a6 9b        	ldx	$9b                     ; 0x209b <playmidi+0x6ae>
    2b5a: 86 12        	stx	$12                     ; 0x2012 <playmidi+0x625>
    2b5c: a6 9c        	ldx	$9c                     ; 0x209c <playmidi+0x6af>
    2b5e: 86 13        	stx	$13                     ; 0x2013 <playmidi+0x626>
    2b60: a6 16        	ldx	$16                     ; 0x2016 <playmidi+0x629>
    2b62: a5 17        	lda	$17                     ; 0x2017 <playmidi+0x62a>
    2b64: 20 4e 03     	jsr	$34e <_ZN12_GLOBAL__N_19FreeChunk6insertEPvj>
    2b67: 60           	rts
    2b68: b2 12        	lda	($12)                   ; 0x2012 <playmidi+0x625>
    2b6a: 09 01        	ora	#$1
    2b6c: 92 12        	sta	($12)                   ; 0x2012 <playmidi+0x625>
    2b6e: a0 01        	ldy	#$1
    2b70: a5 9d        	lda	$9d                     ; 0x209d <playmidi+0x6b0>
    2b72: 91 12        	sta	($12),y                 ; 0x2012 <playmidi+0x625>
    2b74: 80 e2        	bra	$2b58 <free+0x168>

00002b76 <memcpy>:
    2b76: a8           	tay
    2b77: 8a           	txa
    2b78: d0 03        	bne	$2b7d <memcpy+0x7>
    2b7a: 98           	tya
    2b7b: f0 24        	beq	$2ba1 <memcpy+0x2b>
    2b7d: a5 12        	lda	$12                     ; 0x2012 <playmidi+0x625>
    2b7f: 85 16        	sta	$16                     ; 0x2016 <playmidi+0x629>
    2b81: a5 13        	lda	$13                     ; 0x2013 <playmidi+0x626>
    2b83: 85 17        	sta	$17                     ; 0x2017 <playmidi+0x62a>
    2b85: b2 14        	lda	($14)                   ; 0x2014 <playmidi+0x627>
    2b87: 92 16        	sta	($16)                   ; 0x2016 <playmidi+0x629>
    2b89: e6 16        	inc	$16                     ; 0x2016 <playmidi+0x629>
    2b8b: d0 02        	bne	$2b8f <memcpy+0x19>
    2b8d: e6 17        	inc	$17                     ; 0x2017 <playmidi+0x62a>
    2b8f: e6 14        	inc	$14                     ; 0x2014 <playmidi+0x627>
    2b91: d0 02        	bne	$2b95 <memcpy+0x1f>
    2b93: e6 15        	inc	$15                     ; 0x2015 <playmidi+0x628>
    2b95: 88           	dey
    2b96: c0 ff        	cpy	#$ff
    2b98: d0 01        	bne	$2b9b <memcpy+0x25>
    2b9a: ca           	dex
    2b9b: 8a           	txa
    2b9c: d0 e7        	bne	$2b85 <memcpy+0xf>
    2b9e: 98           	tya
    2b9f: d0 e4        	bne	$2b85 <memcpy+0xf>
    2ba1: 60           	rts

00002ba2 <__memset>:
    2ba2: a4 14        	ldy	$14                     ; 0x2014 <playmidi+0x627>
    2ba4: d0 04        	bne	$2baa <__memset+0x8>
    2ba6: e0 00        	cpx	#$0
    2ba8: f0 17        	beq	$2bc1 <__memset+0x1f>
    2baa: 92 12        	sta	($12)                   ; 0x2012 <playmidi+0x625>
    2bac: e6 12        	inc	$12                     ; 0x2012 <playmidi+0x625>
    2bae: d0 02        	bne	$2bb2 <__memset+0x10>
    2bb0: e6 13        	inc	$13                     ; 0x2013 <playmidi+0x626>
    2bb2: ca           	dex
    2bb3: e0 ff        	cpx	#$ff
    2bb5: d0 02        	bne	$2bb9 <__memset+0x17>
    2bb7: c6 14        	dec	$14                     ; 0x2014 <playmidi+0x627>
    2bb9: a4 14        	ldy	$14                     ; 0x2014 <playmidi+0x627>
    2bbb: d0 ed        	bne	$2baa <__memset+0x8>
    2bbd: e0 00        	cpx	#$0
    2bbf: d0 e9        	bne	$2baa <__memset+0x8>
    2bc1: 60           	rts

00002bc2 <__mulhi3>:
    2bc2: a4 13        	ldy	$13                     ; 0x2013 <playmidi+0x626>
    2bc4: d0 04        	bne	$2bca <__mulhi3+0x8>
    2bc6: a4 12        	ldy	$12                     ; 0x2012 <playmidi+0x625>
    2bc8: f0 25        	beq	$2bef <__mulhi3+0x2d>
    2bca: 85 14        	sta	$14                     ; 0x2014 <playmidi+0x627>
    2bcc: 86 15        	stx	$15                     ; 0x2015 <playmidi+0x628>
    2bce: a0 00        	ldy	#$0
    2bd0: 98           	tya
    2bd1: 46 13        	lsr	$13                     ; 0x2013 <playmidi+0x626>
    2bd3: 66 12        	ror	$12                     ; 0x2012 <playmidi+0x625>
    2bd5: 90 09        	bcc	$2be0 <__mulhi3+0x1e>
    2bd7: aa           	tax
    2bd8: 98           	tya
    2bd9: 18           	clc
    2bda: 65 14        	adc	$14                     ; 0x2014 <playmidi+0x627>
    2bdc: a8           	tay
    2bdd: 8a           	txa
    2bde: 65 15        	adc	$15                     ; 0x2015 <playmidi+0x628>
    2be0: 06 14        	asl	$14                     ; 0x2014 <playmidi+0x627>
    2be2: 26 15        	rol	$15                     ; 0x2015 <playmidi+0x628>
    2be4: a6 13        	ldx	$13                     ; 0x2013 <playmidi+0x626>
    2be6: d0 e9        	bne	$2bd1 <__mulhi3+0xf>
    2be8: a6 12        	ldx	$12                     ; 0x2012 <playmidi+0x625>
    2bea: d0 e5        	bne	$2bd1 <__mulhi3+0xf>
    2bec: aa           	tax
    2bed: 98           	tya
    2bee: 60           	rts
    2bef: a0 00        	ldy	#$0
    2bf1: 98           	tya
    2bf2: 80 f8        	bra	$2bec <__mulhi3+0x2a>
