
midisam2.elf:	file format elf32-mos

SYMBOL TABLE:
00000000 l    df *ABS*	00000000 zero-bss.c
00000000 l    df *ABS*	00000000 zero-zp-bss.c
00000000 l    df *ABS*	00000000 copy-zp-data.c
00000000 l    df *ABS*	00000000 ld-temp.o
00000064 l     O .zp.bss	00000007 kernelEventData
00000030 l     O .zp.data	00000001 _ccolor
000085ea l     O .rodata	00000030 textColors
00000038 l     O .zp.bss	00000001 _col
00000039 l     O .zp.bss	00000001 _row
0000003a l     O .zp.bss	00000008 _dirStream
00000063 l     O .zp.bss	00000001 kernelError
00000062 l     O .zp.bss	00000001 midiChip
000090b0 l     O .rodata	00000038 rtmplugin
0000a427 l     O .bss	00000080 shimmerChanged
0000a4a7 l     O .bss	00000080 shimmerBuffer
00000048 l     O .zp.bss	00000002 myRecord.0
00008095 l     F .text	00000190 free
00007ec6 l     F .text	000001cf malloc
0000004a l     O .zp.bss	00000002 myRecord.1
0000004c l     O .zp.bss	00000002 myRecord.2
0000004e l     O .zp.bss	00000001 myRecord.14
00003070 l     F .text	00000114 fileOpenDir
00009231 l     O .bss	000011f6 fpr
00004b9d l     F .text	000003c2 filePickModal
00007dec l     F .text	000000da sprintf
000051f8 l     F .text	00000396 loadSMFile
00007d64 l     F .text	00000088 printf
00004f5f l     F .text	00000299 detectStructure
00006b4e l     F .text	000003ee displayInfo
00006623 l     F .text	0000052b initTrack
0000004f l     O .zp.bss	00000002 theOne.0
00000060 l     O .zp.bss	00000002 theOne.8
0000827c l     F .text	00000032 __mulhi3
00000047 l     O .zp.bss	00000001 shimmerTimer.1
00000045 l     O .zp.bss	00000001 isTrulyDone
0000005e l     O .zp.bss	00000002 theOne.7
0000558e l     F .text	00000470 readDelta
000059fe l     F .text	0000062f readMIDICmd
00006232 l     F .text	000003f1 performMIDICmd
00000044 l     O .zp.bss	00000001 isPaused
00003184 l     F .text	000001e7 textPrint
00006f3c l     F .text	00000108 superExtraInfo
00000042 l     O .zp.bss	00000002 __putchar.s
00000046 l     O .zp.bss	00000001 repeatFlag
00000058 l     O .zp.bss	00000004 theOne.5
00000057 l     O .zp.bss	00000001 theOne.4
0000005c l     O .zp.bss	00000002 theOne.6
00000053 l     O .zp.bss	00000004 theOne.2
000082ae l     F .text	00000070 __mulsi3
0000336b l     F .text	00000011 textGotoXY
0000337c l     F .text	000000df fileReadDir
0000912f l     O .bss	00000102 fileReadDir.fileDirEntS
0000345b l     F .text	0000034c sortFileList
000037a7 l     F .text	00000c4d pickFile
000043f4 l     F .text	000003a8 displayFileList
0000479c l     F .text	00000401 readDirectory
0000602d l     F .text	00000205 skipWhenFFCmd
00008271 l     F .text	0000000b __ashlqi3
00000051 l     O .zp.bss	00000002 theOne.1
0000831e l     F .text	0000016f __udivsi3
00008fb0 l     O .rodata	00000100 midi_instruments
000090e8 l     O .data	00000047 nameVersion
00007049 l     F .text	00000b34 _ZN12_GLOBAL__N_15printEPKcP6Status
00007b7d l     F .text	000000db _ZN12_GLOBAL__N_13putEcP6Status
00007c58 l     F .text	0000010c _ZN12_GLOBAL__N_112print_stringEPKcP6Status
0000006b l     O .zp.bss	00000001 _ZN12_GLOBAL__N_111initializedE
00000320 l     F .text	00000135 _ZN12_GLOBAL__N_19FreeChunk6insertEPvj
0000006c l     O .zp.bss	00000001 _ZN12_GLOBAL__N_19last_freeE
0000006f l     O .zp.bss	00000002 _ZN12_GLOBAL__N_19free_listE
00000456 l     F .text	000000d7 _ZN12_GLOBAL__N_19FreeChunk6removeEv
0000006d l     O .zp.bss	00000002 _ZN12_GLOBAL__N_19free_sizeE
0000056a g     F .text	00002b06 main
00050d00 g       .cozyLCD	00000000 cozyLCD_end
00030000 g       .cozyLCD	00000000 cozyLCD_start
0000031c g       .text	00000000 __after_main
00000308 g       .text	00000000 __do_init_stack
00000316 g       .text	00000000 __do_copy_zp_data
00000553 g     F .text	00000017 __copy_zp_data
00000310 g       .text	00000000 __do_zero_bss
0000052d g     F .text	00000013 __zero_bss
00000313 g       .text	00000000 __do_zero_zp_bss
00000540 g     F .text	00000013 __zero_zp_bss
00007044 g     F .text	00000005 exit
0000031f g       .text	00000000 _fini
0000848d g       .rodata	00000000 __set_v
00008251  w    F .text	00000020 __memset
00001000  w      *ABS*	00000000 __heap_default_limit
0000a594 g       .noinit	00000000 __heap_start
00008225  w    F .text	0000002c memcpy
00000010 g       *ABS*	00000000 __rc0
00000012 g       *ABS*	00000000 __rc2
00000014 g       *ABS*	00000000 __rc4
00000016 g       *ABS*	00000000 __rc6
00000018 g       *ABS*	00000000 __rc8
0000001a g       *ABS*	00000000 __rc10
0000001c g       *ABS*	00000000 __rc12
0000001e g       *ABS*	00000000 __rc14
00000020 g       *ABS*	00000000 __rc16
00000022 g       *ABS*	00000000 __rc18
00000024 g       *ABS*	00000000 __rc20
00000026 g       *ABS*	00000000 __rc22
00000028 g       *ABS*	00000000 __rc24
0000002a g       *ABS*	00000000 __rc26
0000002c g       *ABS*	00000000 __rc28
0000002e g       *ABS*	00000000 __rc30
0000002f g       *ABS*	00000000 __rc31
00000300 g       *ABS*	00000000 __f256_start
0000c000 g       *ABS*	00000000 __stack
0000c000 g       *ABS*	00000000 __SLOT_ADDR
0800c000 g       *ABS*	00000000 __block8_lma
00002000 g       *ABS*	00000000 __BLOCK_SIZE
0900c000 g       *ABS*	00000000 __block9_lma
0a00c000 g       *ABS*	00000000 __block10_lma
0b00c000 g       *ABS*	00000000 __block11_lma
0c00c000 g       *ABS*	00000000 __block12_lma
0d00c000 g       *ABS*	00000000 __block13_lma
0e00c000 g       *ABS*	00000000 __block14_lma
0f00c000 g       *ABS*	00000000 __block15_lma
1000c000 g       *ABS*	00000000 __block16_lma
1100c000 g       *ABS*	00000000 __block17_lma
1200c000 g       *ABS*	00000000 __block18_lma
1300c000 g       *ABS*	00000000 __block19_lma
1400c000 g       *ABS*	00000000 __block20_lma
1500c000 g       *ABS*	00000000 __block21_lma
1600c000 g       *ABS*	00000000 __block22_lma
1700c000 g       *ABS*	00000000 __block23_lma
00030000 g       *ABS*	00000000 __cozyLCD_lma
00020d00 g       *ABS*	00000000 __cozyLCD_size
0000912f g       .bss	00000000 __bss_start
00050d00 g       .cozyLCD	00000000 end_cozyLCD
00000308 g       .text	00000000 _start
0000002d g       *ABS*	00000000 __rc29
0000002b g       *ABS*	00000000 __rc27
00000029 g       *ABS*	00000000 __rc25
00000027 g       *ABS*	00000000 __rc23
00000025 g       *ABS*	00000000 __rc21
00000023 g       *ABS*	00000000 __rc19
00000021 g       *ABS*	00000000 __rc17
0000001f g       *ABS*	00000000 __rc15
0000001d g       *ABS*	00000000 __rc13
0000001b g       *ABS*	00000000 __rc11
00000019 g       *ABS*	00000000 __rc9
00000017 g       *ABS*	00000000 __rc7
00000015 g       *ABS*	00000000 __rc5
00000013 g       *ABS*	00000000 __rc3
00000011 g       *ABS*	00000000 __rc1
00000030 g       .zp.data	00000000 __zp_data_start
00000300 g       *ABS*	00000000 __zp_data_load_start
00000008 g       *ABS*	00000000 __zp_data_size
00000038 g       .zp.bss	00000000 __zp_bss_start
00000039 g       *ABS*	00000000 __zp_bss_size
00000308 g       .text	00000000 _init
0000848d g       .text	00000000 __init_array_start
0000848d g       .text	00000000 __init_array_end
0000848d g       .text	00000000 __fini_array_start
0000848d g       .text	00000000 __fini_array_end
000090e8 g       .data	00000000 __data_start
0000912f g       .data	00000000 __data_end
000090e8 g       *ABS*	00000000 __data_load_start
00000047 g       *ABS*	00000000 __data_size
0000a527 g       .bss	00000000 __bss_end
000013f8 g       *ABS*	00000000 __bss_size
0000a593 g       .noinit	00000000 end_block8
0000a593 g       .noinit	00000000 end_block9
0000a593 g       .noinit	00000000 end_block10
0000a593 g       .noinit	00000000 end_block11
0000a593 g       .noinit	00000000 end_block12
0000a593 g       .noinit	00000000 end_block13
0000a593 g       .noinit	00000000 end_block14
0000a593 g       .noinit	00000000 end_block15
0000a593 g       .noinit	00000000 end_block16
0000a593 g       .noinit	00000000 end_block17
0000a593 g       .noinit	00000000 end_block18
0000a593 g       .noinit	00000000 end_block19
0000a593 g       .noinit	00000000 end_block20
0000a593 g       .noinit	00000000 end_block21
0000a593 g       .noinit	00000000 end_block22
0000a593 g       .noinit	00000000 end_block23

Disassembly of section .text:

00000308 <_start>:
     308: a9 00        	lda	#$0
     30a: 85 10        	sta	$10                     ; 0x2010 <main+0x1aa6>
     30c: a9 c0        	lda	#$c0
     30e: 85 11        	sta	$11                     ; 0x2011 <main+0x1aa7>

00000310 <__do_zero_bss>:
     310: 20 2d 05     	jsr	$52d <__zero_bss>

00000313 <__do_zero_zp_bss>:
     313: 20 40 05     	jsr	$540 <__zero_zp_bss>

00000316 <__do_copy_zp_data>:
     316: 20 53 05     	jsr	$553 <__copy_zp_data>
     319: 20 6a 05     	jsr	$56a <main>

0000031c <__after_main>:
     31c: 4c 44 70     	jmp	$7044 <exit>

0000031f <_fini>:
     31f: 60           	rts

00000320 <_ZN12_GLOBAL__N_19FreeChunk6insertEPvj>:
     320: 85 16        	sta	$16                     ; 0x2016 <main+0x1aac>
     322: 29 fe        	and	#$fe
     324: 85 14        	sta	$14                     ; 0x2014 <main+0x1aaa>
     326: a0 01        	ldy	#$1
     328: 98           	tya
     329: 32 12        	and	($12)                   ; 0x2012 <main+0x1aa8>
     32b: 05 14        	ora	$14                     ; 0x2014 <main+0x1aaa>
     32d: 92 12        	sta	($12)                   ; 0x2012 <main+0x1aa8>
     32f: a5 12        	lda	$12                     ; 0x2012 <main+0x1aa8>
     331: 18           	clc
     332: 65 14        	adc	$14                     ; 0x2014 <main+0x1aaa>
     334: 85 15        	sta	$15                     ; 0x2015 <main+0x1aab>
     336: 8a           	txa
     337: 65 13        	adc	$13                     ; 0x2013 <main+0x1aa9>
     339: 85 14        	sta	$14                     ; 0x2014 <main+0x1aaa>
     33b: 18           	clc
     33c: a5 15        	lda	$15                     ; 0x2015 <main+0x1aab>
     33e: 69 fe        	adc	#$fe
     340: 85 17        	sta	$17                     ; 0x2017 <main+0x1aad>
     342: a5 14        	lda	$14                     ; 0x2014 <main+0x1aaa>
     344: 69 ff        	adc	#$ff
     346: 85 15        	sta	$15                     ; 0x2015 <main+0x1aab>
     348: a5 17        	lda	$17                     ; 0x2017 <main+0x1aad>
     34a: 85 14        	sta	$14                     ; 0x2014 <main+0x1aaa>
     34c: 8a           	txa
     34d: 91 12        	sta	($12),y                 ; 0x2012 <main+0x1aa8>
     34f: a5 16        	lda	$16                     ; 0x2016 <main+0x1aac>
     351: 92 14        	sta	($14)                   ; 0x2014 <main+0x1aaa>
     353: 8a           	txa
     354: 91 14        	sta	($14),y                 ; 0x2014 <main+0x1aaa>
     356: b1 12        	lda	($12),y                 ; 0x2012 <main+0x1aa8>
     358: 85 14        	sta	$14                     ; 0x2014 <main+0x1aaa>
     35a: a9 fe        	lda	#$fe
     35c: 32 12        	and	($12)                   ; 0x2012 <main+0x1aa8>
     35e: 18           	clc
     35f: 65 6d        	adc	$6d                     ; 0x206d <main+0x1b03>
     361: aa           	tax
     362: a5 14        	lda	$14                     ; 0x2014 <main+0x1aaa>
     364: 65 6e        	adc	$6e                     ; 0x206e <main+0x1b04>
     366: a8           	tay
     367: 18           	clc
     368: 8a           	txa
     369: 69 fe        	adc	#$fe
     36b: aa           	tax
     36c: 98           	tya
     36d: 69 ff        	adc	#$ff
     36f: 86 6d        	stx	$6d                     ; 0x206d <main+0x1b03>
     371: 85 6e        	sta	$6e                     ; 0x206e <main+0x1b04>
     373: a6 6f        	ldx	$6f                     ; 0x206f <main+0x1b05>
     375: 86 16        	stx	$16                     ; 0x2016 <main+0x1aac>
     377: a4 70        	ldy	$70                     ; 0x2070 <main+0x1b06>
     379: a2 00        	ldx	#$0
     37b: 86 14        	stx	$14                     ; 0x2014 <main+0x1aaa>
     37d: a2 00        	ldx	#$0
     37f: 86 15        	stx	$15                     ; 0x2015 <main+0x1aab>
     381: c4 15        	cpy	$15                     ; 0x2015 <main+0x1aab>
     383: d0 3c        	bne	$3c1 <_ZN12_GLOBAL__N_19FreeChunk6insertEPvj+0xa1>
     385: a6 16        	ldx	$16                     ; 0x2016 <main+0x1aac>
     387: e4 14        	cpx	$14                     ; 0x2014 <main+0x1aaa>
     389: d0 36        	bne	$3c1 <_ZN12_GLOBAL__N_19FreeChunk6insertEPvj+0xa1>
     38b: a0 04        	ldy	#$4
     38d: a5 12        	lda	$12                     ; 0x2012 <main+0x1aa8>
     38f: 18           	clc
     390: 69 04        	adc	#$4
     392: 85 14        	sta	$14                     ; 0x2014 <main+0x1aaa>
     394: a5 13        	lda	$13                     ; 0x2013 <main+0x1aa9>
     396: 69 00        	adc	#$0
     398: 18           	clc
     399: 85 15        	sta	$15                     ; 0x2015 <main+0x1aab>
     39b: a5 12        	lda	$12                     ; 0x2012 <main+0x1aa8>
     39d: 91 12        	sta	($12),y                 ; 0x2012 <main+0x1aa8>
     39f: a0 02        	ldy	#$2
     3a1: 85 17        	sta	$17                     ; 0x2017 <main+0x1aad>
     3a3: 69 02        	adc	#$2
     3a5: 85 16        	sta	$16                     ; 0x2016 <main+0x1aac>
     3a7: a5 17        	lda	$17                     ; 0x2017 <main+0x1aad>
     3a9: 91 12        	sta	($12),y                 ; 0x2012 <main+0x1aa8>
     3ab: a5 13        	lda	$13                     ; 0x2013 <main+0x1aa9>
     3ad: 69 00        	adc	#$0
     3af: 85 17        	sta	$17                     ; 0x2017 <main+0x1aad>
     3b1: 88           	dey
     3b2: a5 13        	lda	$13                     ; 0x2013 <main+0x1aa9>
     3b4: 91 14        	sta	($14),y                 ; 0x2014 <main+0x1aaa>
     3b6: 91 16        	sta	($16),y                 ; 0x2016 <main+0x1aac>
     3b8: a6 12        	ldx	$12                     ; 0x2012 <main+0x1aa8>
     3ba: 86 6f        	stx	$6f                     ; 0x206f <main+0x1b05>
     3bc: a6 13        	ldx	$13                     ; 0x2013 <main+0x1aa9>
     3be: 86 70        	stx	$70                     ; 0x2070 <main+0x1b06>
     3c0: 60           	rts
     3c1: a6 12        	ldx	$12                     ; 0x2012 <main+0x1aa8>
     3c3: a5 12        	lda	$12                     ; 0x2012 <main+0x1aa8>
     3c5: 18           	clc
     3c6: 69 02        	adc	#$2
     3c8: 85 14        	sta	$14                     ; 0x2014 <main+0x1aaa>
     3ca: 84 18        	sty	$18                     ; 0x2018 <main+0x1aae>
     3cc: a5 13        	lda	$13                     ; 0x2013 <main+0x1aa9>
     3ce: 69 00        	adc	#$0
     3d0: 85 15        	sta	$15                     ; 0x2015 <main+0x1aab>
     3d2: a5 16        	lda	$16                     ; 0x2016 <main+0x1aac>
     3d4: 84 17        	sty	$17                     ; 0x2017 <main+0x1aad>
     3d6: a0 02        	ldy	#$2
     3d8: 91 12        	sta	($12),y                 ; 0x2012 <main+0x1aa8>
     3da: 85 19        	sta	$19                     ; 0x2019 <main+0x1aaf>
     3dc: 88           	dey
     3dd: a5 18        	lda	$18                     ; 0x2018 <main+0x1aae>
     3df: 91 14        	sta	($14),y                 ; 0x2014 <main+0x1aaa>
     3e1: 18           	clc
     3e2: a5 19        	lda	$19                     ; 0x2019 <main+0x1aaf>
     3e4: 69 04        	adc	#$4
     3e6: a8           	tay
     3e7: a5 18        	lda	$18                     ; 0x2018 <main+0x1aae>
     3e9: 69 00        	adc	#$0
     3eb: 85 19        	sta	$19                     ; 0x2019 <main+0x1aaf>
     3ed: 84 18        	sty	$18                     ; 0x2018 <main+0x1aae>
     3ef: 8a           	txa
     3f0: 18           	clc
     3f1: 69 04        	adc	#$4
     3f3: 85 1a        	sta	$1a                     ; 0x201a <main+0x1ab0>
     3f5: a5 13        	lda	$13                     ; 0x2013 <main+0x1aa9>
     3f7: 69 00        	adc	#$0
     3f9: 85 1b        	sta	$1b                     ; 0x201b <main+0x1ab1>
     3fb: a0 04        	ldy	#$4
     3fd: b1 16        	lda	($16),y                 ; 0x2016 <main+0x1aac>
     3ff: 85 16        	sta	$16                     ; 0x2016 <main+0x1aac>
     401: 85 1d        	sta	$1d                     ; 0x201d <main+0x1ab3>
     403: a0 01        	ldy	#$1
     405: b1 18        	lda	($18),y                 ; 0x2018 <main+0x1aae>
     407: 85 17        	sta	$17                     ; 0x2017 <main+0x1aad>
     409: 85 19        	sta	$19                     ; 0x2019 <main+0x1aaf>
     40b: a0 04        	ldy	#$4
     40d: a5 1d        	lda	$1d                     ; 0x201d <main+0x1ab3>
     40f: 91 12        	sta	($12),y                 ; 0x2012 <main+0x1aa8>
     411: a5 19        	lda	$19                     ; 0x2019 <main+0x1aaf>
     413: a0 01        	ldy	#$1
     415: 91 1a        	sta	($1a),y                 ; 0x201a <main+0x1ab0>
     417: 18           	clc
     418: a5 1d        	lda	$1d                     ; 0x201d <main+0x1ab3>
     41a: 69 02        	adc	#$2
     41c: 85 18        	sta	$18                     ; 0x2018 <main+0x1aae>
     41e: a5 19        	lda	$19                     ; 0x2019 <main+0x1aaf>
     420: 69 00        	adc	#$0
     422: 85 19        	sta	$19                     ; 0x2019 <main+0x1aaf>
     424: 8a           	txa
     425: c8           	iny
     426: 91 16        	sta	($16),y                 ; 0x2016 <main+0x1aac>
     428: a5 13        	lda	$13                     ; 0x2013 <main+0x1aa9>
     42a: 88           	dey
     42b: 91 18        	sta	($18),y                 ; 0x2018 <main+0x1aae>
     42d: c8           	iny
     42e: b1 12        	lda	($12),y                 ; 0x2012 <main+0x1aa8>
     430: 85 16        	sta	$16                     ; 0x2016 <main+0x1aac>
     432: 85 18        	sta	$18                     ; 0x2018 <main+0x1aae>
     434: 88           	dey
     435: b1 14        	lda	($14),y                 ; 0x2014 <main+0x1aaa>
     437: 85 17        	sta	$17                     ; 0x2017 <main+0x1aad>
     439: 85 14        	sta	$14                     ; 0x2014 <main+0x1aaa>
     43b: 8a           	txa
     43c: a0 04        	ldy	#$4
     43e: 91 16        	sta	($16),y                 ; 0x2016 <main+0x1aac>
     440: 18           	clc
     441: a5 18        	lda	$18                     ; 0x2018 <main+0x1aae>
     443: 69 04        	adc	#$4
     445: a8           	tay
     446: a5 14        	lda	$14                     ; 0x2014 <main+0x1aaa>
     448: 69 00        	adc	#$0
     44a: 84 14        	sty	$14                     ; 0x2014 <main+0x1aaa>
     44c: 85 15        	sta	$15                     ; 0x2015 <main+0x1aab>
     44e: a5 13        	lda	$13                     ; 0x2013 <main+0x1aa9>
     450: a0 01        	ldy	#$1
     452: 91 14        	sta	($14),y                 ; 0x2014 <main+0x1aaa>
     454: 60           	rts
     455: 00           	brk

00000456 <_ZN12_GLOBAL__N_19FreeChunk6removeEv>:
     456: a0 01        	ldy	#$1
     458: a9 fe        	lda	#$fe
     45a: 32 12        	and	($12)                   ; 0x2012 <main+0x1aa8>
     45c: 85 14        	sta	$14                     ; 0x2014 <main+0x1aaa>
     45e: a5 6d        	lda	$6d                     ; 0x206d <main+0x1b03>
     460: a6 6e        	ldx	$6e                     ; 0x206e <main+0x1b04>
     462: 86 15        	stx	$15                     ; 0x2015 <main+0x1aab>
     464: 38           	sec
     465: e5 14        	sbc	$14                     ; 0x2014 <main+0x1aaa>
     467: aa           	tax
     468: a5 15        	lda	$15                     ; 0x2015 <main+0x1aab>
     46a: f1 12        	sbc	($12),y                 ; 0x2012 <main+0x1aa8>
     46c: 85 14        	sta	$14                     ; 0x2014 <main+0x1aaa>
     46e: 18           	clc
     46f: 8a           	txa
     470: 69 02        	adc	#$2
     472: 85 15        	sta	$15                     ; 0x2015 <main+0x1aab>
     474: a5 14        	lda	$14                     ; 0x2014 <main+0x1aaa>
     476: 69 00        	adc	#$0
     478: a6 15        	ldx	$15                     ; 0x2015 <main+0x1aab>
     47a: 86 6d        	stx	$6d                     ; 0x206d <main+0x1b03>
     47c: 85 6e        	sta	$6e                     ; 0x206e <main+0x1b04>
     47e: a5 12        	lda	$12                     ; 0x2012 <main+0x1aa8>
     480: 18           	clc
     481: 69 02        	adc	#$2
     483: 85 14        	sta	$14                     ; 0x2014 <main+0x1aaa>
     485: a5 13        	lda	$13                     ; 0x2013 <main+0x1aa9>
     487: 69 00        	adc	#$0
     489: c8           	iny
     48a: 85 15        	sta	$15                     ; 0x2015 <main+0x1aab>
     48c: b1 12        	lda	($12),y                 ; 0x2012 <main+0x1aa8>
     48e: aa           	tax
     48f: 88           	dey
     490: b1 14        	lda	($14),y                 ; 0x2014 <main+0x1aaa>
     492: 85 19        	sta	$19                     ; 0x2019 <main+0x1aaf>
     494: c5 13        	cmp	$13                     ; 0x2013 <main+0x1aa9>
     496: d0 0f        	bne	$4a7 <_ZN12_GLOBAL__N_19FreeChunk6removeEv+0x51>
     498: e4 12        	cpx	$12                     ; 0x2012 <main+0x1aa8>
     49a: d0 0b        	bne	$4a7 <_ZN12_GLOBAL__N_19FreeChunk6removeEv+0x51>
     49c: a2 00        	ldx	#$0
     49e: 86 14        	stx	$14                     ; 0x2014 <main+0x1aaa>
     4a0: a2 00        	ldx	#$0
     4a2: 86 15        	stx	$15                     ; 0x2015 <main+0x1aab>
     4a4: 4c 24 05     	jmp	$524 <_ZN12_GLOBAL__N_19FreeChunk6removeEv+0xce>
     4a7: 86 18        	stx	$18                     ; 0x2018 <main+0x1aae>
     4a9: a6 12        	ldx	$12                     ; 0x2012 <main+0x1aa8>
     4ab: a5 12        	lda	$12                     ; 0x2012 <main+0x1aa8>
     4ad: 86 1b        	stx	$1b                     ; 0x201b <main+0x1ab1>
     4af: 18           	clc
     4b0: 69 04        	adc	#$4
     4b2: 85 14        	sta	$14                     ; 0x2014 <main+0x1aaa>
     4b4: a5 13        	lda	$13                     ; 0x2013 <main+0x1aa9>
     4b6: 69 00        	adc	#$0
     4b8: a0 04        	ldy	#$4
     4ba: 85 15        	sta	$15                     ; 0x2015 <main+0x1aab>
     4bc: b1 12        	lda	($12),y                 ; 0x2012 <main+0x1aa8>
     4be: 85 1c        	sta	$1c                     ; 0x201c <main+0x1ab2>
     4c0: 18           	clc
     4c1: 69 02        	adc	#$2
     4c3: 85 16        	sta	$16                     ; 0x2016 <main+0x1aac>
     4c5: a0 01        	ldy	#$1
     4c7: b1 14        	lda	($14),y                 ; 0x2014 <main+0x1aaa>
     4c9: aa           	tax
     4ca: 69 00        	adc	#$0
     4cc: a4 16        	ldy	$16                     ; 0x2016 <main+0x1aac>
     4ce: 84 14        	sty	$14                     ; 0x2014 <main+0x1aaa>
     4d0: 85 15        	sta	$15                     ; 0x2015 <main+0x1aab>
     4d2: a4 1c        	ldy	$1c                     ; 0x201c <main+0x1ab2>
     4d4: 84 16        	sty	$16                     ; 0x2016 <main+0x1aac>
     4d6: 86 17        	stx	$17                     ; 0x2017 <main+0x1aad>
     4d8: a0 02        	ldy	#$2
     4da: a5 18        	lda	$18                     ; 0x2018 <main+0x1aae>
     4dc: 91 16        	sta	($16),y                 ; 0x2016 <main+0x1aac>
     4de: a5 19        	lda	$19                     ; 0x2019 <main+0x1aaf>
     4e0: 88           	dey
     4e1: 91 14        	sta	($14),y                 ; 0x2014 <main+0x1aaa>
     4e3: 18           	clc
     4e4: a5 1b        	lda	$1b                     ; 0x201b <main+0x1ab1>
     4e6: 69 02        	adc	#$2
     4e8: 85 14        	sta	$14                     ; 0x2014 <main+0x1aaa>
     4ea: a5 13        	lda	$13                     ; 0x2013 <main+0x1aa9>
     4ec: 69 00        	adc	#$0
     4ee: 85 15        	sta	$15                     ; 0x2015 <main+0x1aab>
     4f0: c8           	iny
     4f1: b1 12        	lda	($12),y                 ; 0x2012 <main+0x1aa8>
     4f3: 85 16        	sta	$16                     ; 0x2016 <main+0x1aac>
     4f5: 88           	dey
     4f6: b1 14        	lda	($14),y                 ; 0x2014 <main+0x1aaa>
     4f8: a4 16        	ldy	$16                     ; 0x2016 <main+0x1aac>
     4fa: 84 14        	sty	$14                     ; 0x2014 <main+0x1aaa>
     4fc: 85 15        	sta	$15                     ; 0x2015 <main+0x1aab>
     4fe: 85 17        	sta	$17                     ; 0x2017 <main+0x1aad>
     500: a0 04        	ldy	#$4
     502: a5 1c        	lda	$1c                     ; 0x201c <main+0x1ab2>
     504: 91 14        	sta	($14),y                 ; 0x2014 <main+0x1aaa>
     506: 18           	clc
     507: a5 16        	lda	$16                     ; 0x2016 <main+0x1aac>
     509: 69 04        	adc	#$4
     50b: 85 16        	sta	$16                     ; 0x2016 <main+0x1aac>
     50d: a5 17        	lda	$17                     ; 0x2017 <main+0x1aad>
     50f: 69 00        	adc	#$0
     511: 85 17        	sta	$17                     ; 0x2017 <main+0x1aad>
     513: 8a           	txa
     514: a0 01        	ldy	#$1
     516: 91 16        	sta	($16),y                 ; 0x2016 <main+0x1aac>
     518: a6 70        	ldx	$70                     ; 0x2070 <main+0x1b06>
     51a: e4 13        	cpx	$13                     ; 0x2013 <main+0x1aa9>
     51c: d0 0e        	bne	$52c <_ZN12_GLOBAL__N_19FreeChunk6removeEv+0xd6>
     51e: a6 6f        	ldx	$6f                     ; 0x206f <main+0x1b05>
     520: e4 12        	cpx	$12                     ; 0x2012 <main+0x1aa8>
     522: d0 08        	bne	$52c <_ZN12_GLOBAL__N_19FreeChunk6removeEv+0xd6>
     524: a6 14        	ldx	$14                     ; 0x2014 <main+0x1aaa>
     526: a4 15        	ldy	$15                     ; 0x2015 <main+0x1aab>
     528: 86 6f        	stx	$6f                     ; 0x206f <main+0x1b05>
     52a: 84 70        	sty	$70                     ; 0x2070 <main+0x1b06>
     52c: 60           	rts

0000052d <__zero_bss>:
     52d: a2 f8        	ldx	#$f8
     52f: a0 13        	ldy	#$13
     531: a9 2f        	lda	#$2f
     533: 85 12        	sta	$12                     ; 0x2012 <main+0x1aa8>
     535: a9 91        	lda	#$91
     537: 85 13        	sta	$13                     ; 0x2013 <main+0x1aa9>
     539: a9 00        	lda	#$0
     53b: 84 14        	sty	$14                     ; 0x2014 <main+0x1aaa>
     53d: 4c 51 82     	jmp	$8251 <__memset>

00000540 <__zero_zp_bss>:
     540: a2 39        	ldx	#$39
     542: a0 00        	ldy	#$0
     544: a9 38        	lda	#$38
     546: 85 12        	sta	$12                     ; 0x2012 <main+0x1aa8>
     548: a9 00        	lda	#$0
     54a: 85 13        	sta	$13                     ; 0x2013 <main+0x1aa9>
     54c: a9 00        	lda	#$0
     54e: 84 14        	sty	$14                     ; 0x2014 <main+0x1aaa>
     550: 4c 51 82     	jmp	$8251 <__memset>

00000553 <__copy_zp_data>:
     553: a9 08        	lda	#$8
     555: a2 00        	ldx	#$0
     557: a0 30        	ldy	#$30
     559: 84 12        	sty	$12                     ; 0x2012 <main+0x1aa8>
     55b: a0 00        	ldy	#$0
     55d: 84 13        	sty	$13                     ; 0x2013 <main+0x1aa9>
     55f: a0 00        	ldy	#$0
     561: 84 14        	sty	$14                     ; 0x2014 <main+0x1aaa>
     563: a0 03        	ldy	#$3
     565: 84 15        	sty	$15                     ; 0x2015 <main+0x1aab>
     567: 4c 25 82     	jmp	$8225 <memcpy>

0000056a <main>:
     56a: 18           	clc
     56b: a5 10        	lda	$10                     ; 0x2010 <main+0x1aa6>
     56d: 69 e1        	adc	#$e1
     56f: 85 10        	sta	$10                     ; 0x2010 <main+0x1aa6>
     571: a5 11        	lda	$11                     ; 0x2011 <main+0x1aa7>
     573: 69 ff        	adc	#$ff
     575: 85 11        	sta	$11                     ; 0x2011 <main+0x1aa7>
     577: a6 24        	ldx	$24                     ; 0x2024 <main+0x1aba>
     579: da           	phx
     57a: a6 25        	ldx	$25                     ; 0x2025 <main+0x1abb>
     57c: da           	phx
     57d: a6 26        	ldx	$26                     ; 0x2026 <main+0x1abc>
     57f: da           	phx
     580: a6 27        	ldx	$27                     ; 0x2027 <main+0x1abd>
     582: da           	phx
     583: a5 28        	lda	$28                     ; 0x2028 <main+0x1abe>
     585: a0 0d        	ldy	#$d
     587: 91 10        	sta	($10),y                 ; 0x2010 <main+0x1aa6>
     589: a5 29        	lda	$29                     ; 0x2029 <main+0x1abf>
     58b: 88           	dey
     58c: 91 10        	sta	($10),y                 ; 0x2010 <main+0x1aa6>
     58e: a5 2a        	lda	$2a                     ; 0x202a <main+0x1ac0>
     590: 88           	dey
     591: 91 10        	sta	($10),y                 ; 0x2010 <main+0x1aa6>
     593: a5 2b        	lda	$2b                     ; 0x202b <main+0x1ac1>
     595: 88           	dey
     596: 91 10        	sta	($10),y                 ; 0x2010 <main+0x1aa6>
     598: a5 2c        	lda	$2c                     ; 0x202c <main+0x1ac2>
     59a: 88           	dey
     59b: 91 10        	sta	($10),y                 ; 0x2010 <main+0x1aa6>
     59d: a5 2d        	lda	$2d                     ; 0x202d <main+0x1ac3>
     59f: 88           	dey
     5a0: 91 10        	sta	($10),y                 ; 0x2010 <main+0x1aa6>
     5a2: a5 2e        	lda	$2e                     ; 0x202e <main+0x1ac4>
     5a4: 88           	dey
     5a5: 91 10        	sta	($10),y                 ; 0x2010 <main+0x1aa6>
     5a7: a5 2f        	lda	$2f                     ; 0x202f <main+0x1ac5>
     5a9: 88           	dey
     5aa: 91 10        	sta	($10),y                 ; 0x2010 <main+0x1aa6>
     5ac: 64 1c        	stz	$1c                     ; 0x201c <main+0x1ab2>
     5ae: a2 00        	ldx	#$0
     5b0: 86 1a        	stx	$1a                     ; 0x201a <main+0x1ab0>
     5b2: a2 d0        	ldx	#$d0
     5b4: 86 1b        	stx	$1b                     ; 0x201b <main+0x1ab1>
     5b6: a2 00        	ldx	#$0
     5b8: 86 16        	stx	$16                     ; 0x2016 <main+0x1aac>
     5ba: a2 d8        	ldx	#$d8
     5bc: 86 17        	stx	$17                     ; 0x2017 <main+0x1aad>
     5be: a2 a1        	ldx	#$a1
     5c0: 86 26        	stx	$26                     ; 0x2026 <main+0x1abc>
     5c2: a2 dd        	ldx	#$dd
     5c4: 86 27        	stx	$27                     ; 0x2027 <main+0x1abd>
     5c6: a2 00        	ldx	#$0
     5c8: 86 18        	stx	$18                     ; 0x2018 <main+0x1aae>
     5ca: a2 d4        	ldx	#$d4
     5cc: 86 19        	stx	$19                     ; 0x2019 <main+0x1aaf>
     5ce: a2 00        	ldx	#$0
     5d0: 86 14        	stx	$14                     ; 0x2014 <main+0x1aaa>
     5d2: a2 dc        	ldx	#$dc
     5d4: 86 15        	stx	$15                     ; 0x2015 <main+0x1aab>
     5d6: a2 00        	ldx	#$0
     5d8: 86 12        	stx	$12                     ; 0x2012 <main+0x1aa8>
     5da: a2 c0        	ldx	#$c0
     5dc: 86 13        	stx	$13                     ; 0x2013 <main+0x1aa9>
     5de: 64 01        	stz	$1                      ; 0x2001 <main+0x1a97>
     5e0: a2 3f        	ldx	#$3f
     5e2: 8e 00 d0     	stx	$d000                   ; 0xd000 <__heap_start+0x2a6c>
     5e5: a2 b3        	ldx	#$b3
     5e7: 86 00        	stx	$0                      ; 0x2000 <main+0x1a96>
     5e9: 64 08        	stz	$8                      ; 0x2008 <main+0x1a9e>
     5eb: a2 01        	ldx	#$1
     5ed: 86 09        	stx	$9                      ; 0x2009 <main+0x1a9f>
     5ef: e8           	inx
     5f0: 86 0a        	stx	$a                      ; 0x200a <main+0x1aa0>
     5f2: e8           	inx
     5f3: 86 0b        	stx	$b                      ; 0x200b <main+0x1aa1>
     5f5: e8           	inx
     5f6: 86 0c        	stx	$c                      ; 0x200c <main+0x1aa2>
     5f8: e8           	inx
     5f9: 86 0d        	stx	$d                      ; 0x200d <main+0x1aa3>
     5fb: a2 64        	ldx	#$64
     5fd: a9 00        	lda	#$0
     5ff: 86 f0        	stx	$f0                     ; 0x20f0 <main+0x1b86>
     601: 85 f1        	sta	$f1                     ; 0x20f1 <main+0x1b87>
     603: a6 01        	ldx	$1                      ; 0x2001 <main+0x1a97>
     605: a0 01        	ldy	#$1
     607: 84 01        	sty	$1                      ; 0x2001 <main+0x1a97>
     609: a5 1c        	lda	$1c                     ; 0x201c <main+0x1ab2>
     60b: 92 1a        	sta	($1a)                   ; 0x201a <main+0x1ab0>
     60d: 91 1a        	sta	($1a),y                 ; 0x201a <main+0x1ab0>
     60f: c8           	iny
     610: 91 1a        	sta	($1a),y                 ; 0x201a <main+0x1ab0>
     612: c8           	iny
     613: a9 ff        	lda	#$ff
     615: 91 1a        	sta	($1a),y                 ; 0x201a <main+0x1ab0>
     617: 86 01        	stx	$1                      ; 0x2001 <main+0x1a97>
     619: a5 1a        	lda	$1a                     ; 0x201a <main+0x1ab0>
     61b: 18           	clc
     61c: 69 04        	adc	#$4
     61e: 85 1a        	sta	$1a                     ; 0x201a <main+0x1ab0>
     620: a5 1b        	lda	$1b                     ; 0x201b <main+0x1ab1>
     622: 69 00        	adc	#$0
     624: e6 1c        	inc	$1c                     ; 0x201c <main+0x1ab2>
     626: 85 1b        	sta	$1b                     ; 0x201b <main+0x1ab1>
     628: d0 d9        	bne	$603 <main+0x99>
     62a: a9 00        	lda	#$0
     62c: a6 01        	ldx	$1                      ; 0x2001 <main+0x1a97>
     62e: a0 01        	ldy	#$1
     630: 84 01        	sty	$1                      ; 0x2001 <main+0x1a97>
     632: 92 18        	sta	($18)                   ; 0x2018 <main+0x1aae>
     634: 91 18        	sta	($18),y                 ; 0x2018 <main+0x1aae>
     636: c8           	iny
     637: 91 18        	sta	($18),y                 ; 0x2018 <main+0x1aae>
     639: c8           	iny
     63a: 85 1a        	sta	$1a                     ; 0x201a <main+0x1ab0>
     63c: a9 ff        	lda	#$ff
     63e: 91 18        	sta	($18),y                 ; 0x2018 <main+0x1aae>
     640: 86 01        	stx	$1                      ; 0x2001 <main+0x1a97>
     642: a5 18        	lda	$18                     ; 0x2018 <main+0x1aae>
     644: 18           	clc
     645: 69 04        	adc	#$4
     647: 85 18        	sta	$18                     ; 0x2018 <main+0x1aae>
     649: a5 19        	lda	$19                     ; 0x2019 <main+0x1aaf>
     64b: 69 00        	adc	#$0
     64d: e6 1a        	inc	$1a                     ; 0x201a <main+0x1ab0>
     64f: 85 19        	sta	$19                     ; 0x2019 <main+0x1aaf>
     651: a5 1a        	lda	$1a                     ; 0x201a <main+0x1ab0>
     653: d0 d7        	bne	$62c <main+0xc2>
     655: a9 00        	lda	#$0
     657: a6 01        	ldx	$1                      ; 0x2001 <main+0x1a97>
     659: a0 01        	ldy	#$1
     65b: 84 01        	sty	$1                      ; 0x2001 <main+0x1a97>
     65d: 92 16        	sta	($16)                   ; 0x2016 <main+0x1aac>
     65f: 91 16        	sta	($16),y                 ; 0x2016 <main+0x1aac>
     661: c8           	iny
     662: 91 16        	sta	($16),y                 ; 0x2016 <main+0x1aac>
     664: c8           	iny
     665: 85 18        	sta	$18                     ; 0x2018 <main+0x1aae>
     667: a9 ff        	lda	#$ff
     669: 91 16        	sta	($16),y                 ; 0x2016 <main+0x1aac>
     66b: 86 01        	stx	$1                      ; 0x2001 <main+0x1a97>
     66d: a5 16        	lda	$16                     ; 0x2016 <main+0x1aac>
     66f: 18           	clc
     670: 69 04        	adc	#$4
     672: 85 16        	sta	$16                     ; 0x2016 <main+0x1aac>
     674: a5 17        	lda	$17                     ; 0x2017 <main+0x1aad>
     676: 69 00        	adc	#$0
     678: e6 18        	inc	$18                     ; 0x2018 <main+0x1aae>
     67a: 85 17        	sta	$17                     ; 0x2017 <main+0x1aad>
     67c: a5 18        	lda	$18                     ; 0x2018 <main+0x1aae>
     67e: d0 d7        	bne	$657 <main+0xed>
     680: a9 00        	lda	#$0
     682: a6 01        	ldx	$1                      ; 0x2001 <main+0x1a97>
     684: a0 01        	ldy	#$1
     686: 84 01        	sty	$1                      ; 0x2001 <main+0x1a97>
     688: 92 14        	sta	($14)                   ; 0x2014 <main+0x1aaa>
     68a: 91 14        	sta	($14),y                 ; 0x2014 <main+0x1aaa>
     68c: c8           	iny
     68d: 91 14        	sta	($14),y                 ; 0x2014 <main+0x1aaa>
     68f: c8           	iny
     690: 85 16        	sta	$16                     ; 0x2016 <main+0x1aac>
     692: a9 ff        	lda	#$ff
     694: 91 14        	sta	($14),y                 ; 0x2014 <main+0x1aaa>
     696: 86 01        	stx	$1                      ; 0x2001 <main+0x1a97>
     698: a5 14        	lda	$14                     ; 0x2014 <main+0x1aaa>
     69a: 18           	clc
     69b: 69 04        	adc	#$4
     69d: 85 14        	sta	$14                     ; 0x2014 <main+0x1aaa>
     69f: a5 15        	lda	$15                     ; 0x2015 <main+0x1aab>
     6a1: 69 00        	adc	#$0
     6a3: e6 16        	inc	$16                     ; 0x2016 <main+0x1aac>
     6a5: 85 15        	sta	$15                     ; 0x2015 <main+0x1aab>
     6a7: a5 16        	lda	$16                     ; 0x2016 <main+0x1aac>
     6a9: d0 d7        	bne	$682 <main+0x118>
     6ab: ad 02 d0     	lda	$d002                   ; 0xd002 <__heap_start+0x2a6e>
     6ae: a2 f0        	ldx	#$f0
     6b0: 29 f0        	and	#$f0
     6b2: 8d 02 d0     	sta	$d002                   ; 0xd002 <__heap_start+0x2a6e>
     6b5: ad 02 d0     	lda	$d002                   ; 0xd002 <__heap_start+0x2a6e>
     6b8: 29 0f        	and	#$f
     6ba: 09 10        	ora	#$10
     6bc: 8d 02 d0     	sta	$d002                   ; 0xd002 <__heap_start+0x2a6e>
     6bf: a0 02        	ldy	#$2
     6c1: 8c 03 d0     	sty	$d003                   ; 0xd003 <__heap_start+0x2a6f>
     6c4: 86 30        	stx	$30                     ; 0x2030 <main+0x1ac6>
     6c6: ad 01 d0     	lda	$d001                   ; 0xd001 <__heap_start+0x2a6d>
     6c9: 29 f9        	and	#$f9
     6cb: 09 04        	ora	#$4
     6cd: 8d 01 d0     	sta	$d001                   ; 0xd001 <__heap_start+0x2a6d>
     6d0: 64 14        	stz	$14                     ; 0x2014 <main+0x1aaa>
     6d2: 9c 10 d0     	stz	$d010                   ; 0xd010 <__heap_start+0x2a7c>
     6d5: a2 00        	ldx	#$0
     6d7: 64 15        	stz	$15                     ; 0x2015 <main+0x1aab>
     6d9: 86 18        	stx	$18                     ; 0x2018 <main+0x1aae>
     6db: a4 18        	ldy	$18                     ; 0x2018 <main+0x1aae>
     6dd: be ea 85     	ldx	$85ea,y                 ; 0x85ea <textColors>
     6e0: 86 19        	stx	$19                     ; 0x2019 <main+0x1aaf>
     6e2: be eb 85     	ldx	$85eb,y                 ; 0x85eb <textColors+0x1>
     6e5: 86 1a        	stx	$1a                     ; 0x201a <main+0x1ab0>
     6e7: be ec 85     	ldx	$85ec,y                 ; 0x85ec <textColors+0x2>
     6ea: 86 1b        	stx	$1b                     ; 0x201b <main+0x1ab1>
     6ec: a6 15        	ldx	$15                     ; 0x2015 <main+0x1aab>
     6ee: 8e 00 de     	stx	$de00                   ; 0xde00 <__heap_start+0x386c>
     6f1: 86 17        	stx	$17                     ; 0x2017 <main+0x1aad>
     6f3: 9c 01 de     	stz	$de01                   ; 0xde01 <__heap_start+0x386d>
     6f6: a2 04        	ldx	#$4
     6f8: 8e 02 de     	stx	$de02                   ; 0xde02 <__heap_start+0x386e>
     6fb: 9c 03 de     	stz	$de03                   ; 0xde03 <__heap_start+0x386f>
     6fe: ad 10 de     	lda	$de10                   ; 0xde10 <__heap_start+0x387c>
     701: ac 11 de     	ldy	$de11                   ; 0xde11 <__heap_start+0x387d>
     704: 84 15        	sty	$15                     ; 0x2015 <main+0x1aab>
     706: ac 12 de     	ldy	$de12                   ; 0xde12 <__heap_start+0x387e>
     709: ac 13 de     	ldy	$de13                   ; 0xde13 <__heap_start+0x387f>
     70c: 18           	clc
     70d: 65 14        	adc	$14                     ; 0x2014 <main+0x1aaa>
     70f: 85 16        	sta	$16                     ; 0x2016 <main+0x1aac>
     711: a6 17        	ldx	$17                     ; 0x2017 <main+0x1aad>
     713: a9 d8        	lda	#$d8
     715: 65 15        	adc	$15                     ; 0x2015 <main+0x1aab>
     717: 85 17        	sta	$17                     ; 0x2017 <main+0x1aad>
     719: a5 1b        	lda	$1b                     ; 0x201b <main+0x1ab1>
     71b: 92 16        	sta	($16)                   ; 0x2016 <main+0x1aac>
     71d: a0 01        	ldy	#$1
     71f: a5 1a        	lda	$1a                     ; 0x201a <main+0x1ab0>
     721: 91 16        	sta	($16),y                 ; 0x2016 <main+0x1aac>
     723: c8           	iny
     724: a5 19        	lda	$19                     ; 0x2019 <main+0x1aaf>
     726: 91 16        	sta	($16),y                 ; 0x2016 <main+0x1aac>
     728: c8           	iny
     729: a9 ff        	lda	#$ff
     72b: 91 16        	sta	($16),y                 ; 0x2016 <main+0x1aac>
     72d: 8e 00 de     	stx	$de00                   ; 0xde00 <__heap_start+0x386c>
     730: 9c 01 de     	stz	$de01                   ; 0xde01 <__heap_start+0x386d>
     733: c8           	iny
     734: 8c 02 de     	sty	$de02                   ; 0xde02 <__heap_start+0x386e>
     737: 9c 03 de     	stz	$de03                   ; 0xde03 <__heap_start+0x386f>
     73a: ad 10 de     	lda	$de10                   ; 0xde10 <__heap_start+0x387c>
     73d: 85 15        	sta	$15                     ; 0x2015 <main+0x1aab>
     73f: ad 11 de     	lda	$de11                   ; 0xde11 <__heap_start+0x387d>
     742: 85 16        	sta	$16                     ; 0x2016 <main+0x1aac>
     744: a9 40        	lda	#$40
     746: 18           	clc
     747: 65 15        	adc	$15                     ; 0x2015 <main+0x1aab>
     749: a8           	tay
     74a: a9 d8        	lda	#$d8
     74c: 65 16        	adc	$16                     ; 0x2016 <main+0x1aac>
     74e: 85 17        	sta	$17                     ; 0x2017 <main+0x1aad>
     750: 84 16        	sty	$16                     ; 0x2016 <main+0x1aac>
     752: ad 12 de     	lda	$de12                   ; 0xde12 <__heap_start+0x387e>
     755: ad 13 de     	lda	$de13                   ; 0xde13 <__heap_start+0x387f>
     758: a5 1b        	lda	$1b                     ; 0x201b <main+0x1ab1>
     75a: 92 16        	sta	($16)                   ; 0x2016 <main+0x1aac>
     75c: a5 1a        	lda	$1a                     ; 0x201a <main+0x1ab0>
     75e: a0 01        	ldy	#$1
     760: 91 16        	sta	($16),y                 ; 0x2016 <main+0x1aac>
     762: a5 19        	lda	$19                     ; 0x2019 <main+0x1aaf>
     764: c8           	iny
     765: 91 16        	sta	($16),y                 ; 0x2016 <main+0x1aac>
     767: c8           	iny
     768: a9 ff        	lda	#$ff
     76a: 91 16        	sta	($16),y                 ; 0x2016 <main+0x1aac>
     76c: e8           	inx
     76d: 86 15        	stx	$15                     ; 0x2015 <main+0x1aab>
     76f: 18           	clc
     770: a5 18        	lda	$18                     ; 0x2018 <main+0x1aae>
     772: 69 03        	adc	#$3
     774: aa           	tax
     775: c9 30        	cmp	#$30
     777: f0 03        	beq	$77c <main+0x212>
     779: 4c d9 06     	jmp	$6d9 <main+0x16f>
     77c: a6 01        	ldx	$1                      ; 0x2001 <main+0x1a97>
     77e: 86 18        	stx	$18                     ; 0x2018 <main+0x1aae>
     780: a2 50        	ldx	#$50
     782: 8e 00 de     	stx	$de00                   ; 0xde00 <__heap_start+0x386c>
     785: 9c 01 de     	stz	$de01                   ; 0xde01 <__heap_start+0x386d>
     788: a2 1e        	ldx	#$1e
     78a: 8e 02 de     	stx	$de02                   ; 0xde02 <__heap_start+0x386e>
     78d: 9c 03 de     	stz	$de03                   ; 0xde03 <__heap_start+0x386f>
     790: ae 10 de     	ldx	$de10                   ; 0xde10 <__heap_start+0x387c>
     793: ac 11 de     	ldy	$de11                   ; 0xde11 <__heap_start+0x387d>
     796: ad 12 de     	lda	$de12                   ; 0xde12 <__heap_start+0x387e>
     799: ad 13 de     	lda	$de13                   ; 0xde13 <__heap_start+0x387f>
     79c: a9 02        	lda	#$2
     79e: 85 01        	sta	$1                      ; 0x2001 <main+0x1a97>
     7a0: e0 01        	cpx	#$1
     7a2: 98           	tya
     7a3: e9 00        	sbc	#$0
     7a5: 50 02        	bvc	$7a9 <main+0x23f>
     7a7: 49 80        	eor	#$80
     7a9: c9 00        	cmp	#$0
     7ab: 10 03        	bpl	$7b0 <main+0x246>
     7ad: 4c 04 08     	jmp	$804 <main+0x29a>
     7b0: a9 20        	lda	#$20
     7b2: 86 19        	stx	$19                     ; 0x2019 <main+0x1aaf>
     7b4: 86 14        	stx	$14                     ; 0x2014 <main+0x1aaa>
     7b6: 84 15        	sty	$15                     ; 0x2015 <main+0x1aab>
     7b8: a2 00        	ldx	#$0
     7ba: 86 16        	stx	$16                     ; 0x2016 <main+0x1aac>
     7bc: a2 c0        	ldx	#$c0
     7be: 86 17        	stx	$17                     ; 0x2017 <main+0x1aad>
     7c0: 80 04        	bra	$7c6 <main+0x25c>
     7c2: a6 15        	ldx	$15                     ; 0x2015 <main+0x1aab>
     7c4: f0 14        	beq	$7da <main+0x270>
     7c6: 92 16        	sta	($16)                   ; 0x2016 <main+0x1aac>
     7c8: e6 16        	inc	$16                     ; 0x2016 <main+0x1aac>
     7ca: d0 02        	bne	$7ce <main+0x264>
     7cc: e6 17        	inc	$17                     ; 0x2017 <main+0x1aad>
     7ce: a2 ff        	ldx	#$ff
     7d0: c6 14        	dec	$14                     ; 0x2014 <main+0x1aaa>
     7d2: e4 14        	cpx	$14                     ; 0x2014 <main+0x1aaa>
     7d4: d0 ec        	bne	$7c2 <main+0x258>
     7d6: c6 15        	dec	$15                     ; 0x2015 <main+0x1aab>
     7d8: 80 e8        	bra	$7c2 <main+0x258>
     7da: a6 14        	ldx	$14                     ; 0x2014 <main+0x1aaa>
     7dc: d0 e8        	bne	$7c6 <main+0x25c>
     7de: a2 03        	ldx	#$3
     7e0: 86 01        	stx	$1                      ; 0x2001 <main+0x1a97>
     7e2: a6 30        	ldx	$30                     ; 0x2030 <main+0x1ac6>
     7e4: 86 14        	stx	$14                     ; 0x2014 <main+0x1aaa>
     7e6: a6 19        	ldx	$19                     ; 0x2019 <main+0x1aaf>
     7e8: 80 03        	bra	$7ed <main+0x283>
     7ea: 98           	tya
     7eb: f0 12        	beq	$7ff <main+0x295>
     7ed: a5 14        	lda	$14                     ; 0x2014 <main+0x1aaa>
     7ef: 92 12        	sta	($12)                   ; 0x2012 <main+0x1aa8>
     7f1: e6 12        	inc	$12                     ; 0x2012 <main+0x1aa8>
     7f3: d0 02        	bne	$7f7 <main+0x28d>
     7f5: e6 13        	inc	$13                     ; 0x2013 <main+0x1aa9>
     7f7: ca           	dex
     7f8: e0 ff        	cpx	#$ff
     7fa: d0 ee        	bne	$7ea <main+0x280>
     7fc: 88           	dey
     7fd: 80 eb        	bra	$7ea <main+0x280>
     7ff: 8a           	txa
     800: d0 eb        	bne	$7ed <main+0x283>
     802: 80 04        	bra	$808 <main+0x29e>
     804: a2 03        	ldx	#$3
     806: 86 01        	stx	$1                      ; 0x2001 <main+0x1a97>
     808: a6 18        	ldx	$18                     ; 0x2018 <main+0x1aae>
     80a: 86 01        	stx	$1                      ; 0x2001 <main+0x1a97>
     80c: 64 38        	stz	$38                     ; 0x2038 <main+0x1ace>
     80e: 9c 14 d0     	stz	$d014                   ; 0xd014 <__heap_start+0x2a80>
     811: 9c 15 d0     	stz	$d015                   ; 0xd015 <__heap_start+0x2a81>
     814: 64 39        	stz	$39                     ; 0x2039 <main+0x1acf>
     816: 9c 16 d0     	stz	$d016                   ; 0xd016 <__heap_start+0x2a82>
     819: 9c 17 d0     	stz	$d017                   ; 0xd017 <__heap_start+0x2a83>
     81c: a2 40        	ldx	#$40
     81e: 8e 00 de     	stx	$de00                   ; 0xde00 <__heap_start+0x386c>
     821: a2 01        	ldx	#$1
     823: 8e 01 de     	stx	$de01                   ; 0xde01 <__heap_start+0x386d>
     826: a2 f0        	ldx	#$f0
     828: 8e 02 de     	stx	$de02                   ; 0xde02 <__heap_start+0x386e>
     82b: 9c 03 de     	stz	$de03                   ; 0xde03 <__heap_start+0x386f>
     82e: ae 10 de     	ldx	$de10                   ; 0xde10 <__heap_start+0x387c>
     831: 86 17        	stx	$17                     ; 0x2017 <main+0x1aad>
     833: ae 11 de     	ldx	$de11                   ; 0xde11 <__heap_start+0x387d>
     836: 86 12        	stx	$12                     ; 0x2012 <main+0x1aa8>
     838: ae 12 de     	ldx	$de12                   ; 0xde12 <__heap_start+0x387e>
     83b: 86 13        	stx	$13                     ; 0x2013 <main+0x1aa9>
     83d: ae 13 de     	ldx	$de13                   ; 0xde13 <__heap_start+0x387f>
     840: 86 14        	stx	$14                     ; 0x2014 <main+0x1aaa>
     842: a4 12        	ldy	$12                     ; 0x2012 <main+0x1aa8>
     844: 84 15        	sty	$15                     ; 0x2015 <main+0x1aab>
     846: 06 15        	asl	$15                     ; 0x2015 <main+0x1aab>
     848: a5 13        	lda	$13                     ; 0x2013 <main+0x1aa9>
     84a: 2a           	rol
     84b: 86 16        	stx	$16                     ; 0x2016 <main+0x1aac>
     84d: 26 16        	rol	$16                     ; 0x2016 <main+0x1aac>
     84f: 06 15        	asl	$15                     ; 0x2015 <main+0x1aab>
     851: 2a           	rol
     852: 26 16        	rol	$16                     ; 0x2016 <main+0x1aac>
     854: 06 15        	asl	$15                     ; 0x2015 <main+0x1aab>
     856: 2a           	rol
     857: 26 16        	rol	$16                     ; 0x2016 <main+0x1aac>
     859: 85 15        	sta	$15                     ; 0x2015 <main+0x1aab>
     85b: 8d 00 de     	sta	$de00                   ; 0xde00 <__heap_start+0x386c>
     85e: a5 16        	lda	$16                     ; 0x2016 <main+0x1aac>
     860: 8d 01 de     	sta	$de01                   ; 0xde01 <__heap_start+0x386d>
     863: 9c 02 de     	stz	$de02                   ; 0xde02 <__heap_start+0x386e>
     866: a2 20        	ldx	#$20
     868: 8e 03 de     	stx	$de03                   ; 0xde03 <__heap_start+0x386f>
     86b: ae 10 de     	ldx	$de10                   ; 0xde10 <__heap_start+0x387c>
     86e: 86 16        	stx	$16                     ; 0x2016 <main+0x1aac>
     870: ae 11 de     	ldx	$de11                   ; 0xde11 <__heap_start+0x387d>
     873: 86 18        	stx	$18                     ; 0x2018 <main+0x1aae>
     875: ac 12 de     	ldy	$de12                   ; 0xde12 <__heap_start+0x387e>
     878: ae 13 de     	ldx	$de13                   ; 0xde13 <__heap_start+0x387f>
     87b: e4 14        	cpx	$14                     ; 0x2014 <main+0x1aaa>
     87d: d0 14        	bne	$893 <main+0x329>
     87f: c4 13        	cpy	$13                     ; 0x2013 <main+0x1aa9>
     881: d0 10        	bne	$893 <main+0x329>
     883: a6 18        	ldx	$18                     ; 0x2018 <main+0x1aae>
     885: e4 12        	cpx	$12                     ; 0x2012 <main+0x1aa8>
     887: d0 0a        	bne	$893 <main+0x329>
     889: a6 16        	ldx	$16                     ; 0x2016 <main+0x1aac>
     88b: e4 17        	cpx	$17                     ; 0x2017 <main+0x1aad>
     88d: d0 04        	bne	$893 <main+0x329>
     88f: a6 15        	ldx	$15                     ; 0x2015 <main+0x1aab>
     891: 80 06        	bra	$899 <main+0x32f>
     893: a6 15        	ldx	$15                     ; 0x2015 <main+0x1aab>
     895: e8           	inx
     896: d0 01        	bne	$899 <main+0x32f>
     898: 1a           	inc
     899: 8e 00 de     	stx	$de00                   ; 0xde00 <__heap_start+0x386c>
     89c: 8d 01 de     	sta	$de01                   ; 0xde01 <__heap_start+0x386d>
     89f: 9c 02 de     	stz	$de02                   ; 0xde02 <__heap_start+0x386e>
     8a2: a2 20        	ldx	#$20
     8a4: 8e 03 de     	stx	$de03                   ; 0xde03 <__heap_start+0x386f>
     8a7: ae 10 de     	ldx	$de10                   ; 0xde10 <__heap_start+0x387c>
     8aa: 86 12        	stx	$12                     ; 0x2012 <main+0x1aa8>
     8ac: ae 11 de     	ldx	$de11                   ; 0xde11 <__heap_start+0x387d>
     8af: 86 13        	stx	$13                     ; 0x2013 <main+0x1aa9>
     8b1: ae 12 de     	ldx	$de12                   ; 0xde12 <__heap_start+0x387e>
     8b4: 86 14        	stx	$14                     ; 0x2014 <main+0x1aaa>
     8b6: a9 00        	lda	#$0
     8b8: 38           	sec
     8b9: e5 12        	sbc	$12                     ; 0x2012 <main+0x1aa8>
     8bb: a8           	tay
     8bc: a9 00        	lda	#$0
     8be: e5 13        	sbc	$13                     ; 0x2013 <main+0x1aa9>
     8c0: 85 15        	sta	$15                     ; 0x2015 <main+0x1aab>
     8c2: a9 08        	lda	#$8
     8c4: e5 14        	sbc	$14                     ; 0x2014 <main+0x1aaa>
     8c6: aa           	tax
     8c7: 98           	tya
     8c8: 84 17        	sty	$17                     ; 0x2017 <main+0x1aad>
     8ca: 38           	sec
     8cb: e5 12        	sbc	$12                     ; 0x2012 <main+0x1aa8>
     8cd: 85 16        	sta	$16                     ; 0x2016 <main+0x1aac>
     8cf: a5 15        	lda	$15                     ; 0x2015 <main+0x1aab>
     8d1: e5 13        	sbc	$13                     ; 0x2013 <main+0x1aa9>
     8d3: 85 18        	sta	$18                     ; 0x2018 <main+0x1aae>
     8d5: 8a           	txa
     8d6: 86 19        	stx	$19                     ; 0x2019 <main+0x1aaf>
     8d8: e5 14        	sbc	$14                     ; 0x2014 <main+0x1aaa>
     8da: a8           	tay
     8db: 38           	sec
     8dc: a5 16        	lda	$16                     ; 0x2016 <main+0x1aac>
     8de: e5 12        	sbc	$12                     ; 0x2012 <main+0x1aa8>
     8e0: 85 12        	sta	$12                     ; 0x2012 <main+0x1aa8>
     8e2: a5 18        	lda	$18                     ; 0x2018 <main+0x1aae>
     8e4: e5 13        	sbc	$13                     ; 0x2013 <main+0x1aa9>
     8e6: 85 13        	sta	$13                     ; 0x2013 <main+0x1aa9>
     8e8: 98           	tya
     8e9: e5 14        	sbc	$14                     ; 0x2014 <main+0x1aaa>
     8eb: ae 13 de     	ldx	$de13                   ; 0xde13 <__heap_start+0x387f>
     8ee: a6 17        	ldx	$17                     ; 0x2017 <main+0x1aad>
     8f0: 8e 01 d1     	stx	$d101                   ; 0xd101 <__heap_start+0x2b6d>
     8f3: a6 15        	ldx	$15                     ; 0x2015 <main+0x1aab>
     8f5: 8e 02 d1     	stx	$d102                   ; 0xd102 <__heap_start+0x2b6e>
     8f8: a6 19        	ldx	$19                     ; 0x2019 <main+0x1aaf>
     8fa: 8e 03 d1     	stx	$d103                   ; 0xd103 <__heap_start+0x2b6f>
     8fd: a6 16        	ldx	$16                     ; 0x2016 <main+0x1aac>
     8ff: 8e 09 d1     	stx	$d109                   ; 0xd109 <__heap_start+0x2b75>
     902: a6 18        	ldx	$18                     ; 0x2018 <main+0x1aae>
     904: 8e 0a d1     	stx	$d10a                   ; 0xd10a <__heap_start+0x2b76>
     907: 8c 0b d1     	sty	$d10b                   ; 0xd10b <__heap_start+0x2b77>
     90a: a6 12        	ldx	$12                     ; 0x2012 <main+0x1aa8>
     90c: 8e 11 d1     	stx	$d111                   ; 0xd111 <__heap_start+0x2b7d>
     90f: a6 13        	ldx	$13                     ; 0x2013 <main+0x1aa9>
     911: 8e 12 d1     	stx	$d112                   ; 0xd112 <__heap_start+0x2b7e>
     914: 8d 13 d1     	sta	$d113                   ; 0xd113 <__heap_start+0x2b7f>
     917: 9c 00 d1     	stz	$d100                   ; 0xd100 <__heap_start+0x2b6c>
     91a: 9c 08 d1     	stz	$d108                   ; 0xd108 <__heap_start+0x2b74>
     91d: 9c 10 d1     	stz	$d110                   ; 0xd110 <__heap_start+0x2b7c>
     920: a2 10        	ldx	#$10
     922: 8e 00 d2     	stx	$d200                   ; 0xd200 <__heap_start+0x2c6c>
     925: 8e 0c d2     	stx	$d20c                   ; 0xd20c <__heap_start+0x2c78>
     928: 8e 18 d2     	stx	$d218                   ; 0xd218 <__heap_start+0x2c84>
     92b: a0 d9        	ldy	#$d9
     92d: a2 40        	ldx	#$40
     92f: 64 12        	stz	$12                     ; 0x2012 <main+0x1aa8>
     931: 84 13        	sty	$13                     ; 0x2013 <main+0x1aa9>
     933: a9 00        	lda	#$0
     935: 92 12        	sta	($12)                   ; 0x2012 <main+0x1aa8>
     937: ca           	dex
     938: 18           	clc
     939: a5 12        	lda	$12                     ; 0x2012 <main+0x1aa8>
     93b: 69 08        	adc	#$8
     93d: 85 12        	sta	$12                     ; 0x2012 <main+0x1aa8>
     93f: 98           	tya
     940: 69 00        	adc	#$0
     942: a8           	tay
     943: 8a           	txa
     944: d0 eb        	bne	$931 <main+0x3c7>
     946: 64 3a        	stz	$3a                     ; 0x203a <main+0x1ad0>
     948: 64 3b        	stz	$3b                     ; 0x203b <main+0x1ad1>
     94a: 64 3c        	stz	$3c                     ; 0x203c <main+0x1ad2>
     94c: 64 3d        	stz	$3d                     ; 0x203d <main+0x1ad3>
     94e: 64 3e        	stz	$3e                     ; 0x203e <main+0x1ad4>
     950: 64 3f        	stz	$3f                     ; 0x203f <main+0x1ad5>
     952: 64 40        	stz	$40                     ; 0x2040 <main+0x1ad6>
     954: 64 41        	stz	$41                     ; 0x2041 <main+0x1ad7>
     956: 18           	clc
     957: a5 10        	lda	$10                     ; 0x2010 <main+0x1aa6>
     959: 69 17        	adc	#$17
     95b: 85 2a        	sta	$2a                     ; 0x202a <main+0x1ac0>
     95d: a5 11        	lda	$11                     ; 0x2011 <main+0x1aa7>
     95f: 69 00        	adc	#$0
     961: 85 2b        	sta	$2b                     ; 0x202b <main+0x1ac1>
     963: a6 2a        	ldx	$2a                     ; 0x202a <main+0x1ac0>
     965: 86 fb        	stx	$fb                     ; 0x20fb <main+0x1b91>
     967: 85 fc        	sta	$fc                     ; 0x20fc <main+0x1b92>
     969: a2 08        	ldx	#$8
     96b: 86 fd        	stx	$fd                     ; 0x20fd <main+0x1b93>
     96d: 18           	clc
     96e: a5 10        	lda	$10                     ; 0x2010 <main+0x1aa6>
     970: 69 16        	adc	#$16
     972: 85 12        	sta	$12                     ; 0x2012 <main+0x1aa8>
     974: a5 11        	lda	$11                     ; 0x2011 <main+0x1aa7>
     976: 69 00        	adc	#$0
     978: 85 13        	sta	$13                     ; 0x2013 <main+0x1aa9>
     97a: a2 63        	ldx	#$63
     97c: 86 14        	stx	$14                     ; 0x2014 <main+0x1aaa>
     97e: a2 00        	ldx	#$0
     980: 86 15        	stx	$15                     ; 0x2015 <main+0x1aab>
     982: a0 06        	ldy	#$6
     984: 20 dc ff     	jsr	$ffdc <__heap_start+0x5a48>
     987: 92 12        	sta	($12)                   ; 0x2012 <main+0x1aa8>
     989: a9 00        	lda	#$0
     98b: 6a           	ror
     98c: 85 14        	sta	$14                     ; 0x2014 <main+0x1aaa>
     98e: b1 2a        	lda	($2a),y                 ; 0x202a <main+0x1ac0>
     990: 85 12        	sta	$12                     ; 0x2012 <main+0x1aa8>
     992: c8           	iny
     993: b1 2a        	lda	($2a),y                 ; 0x202a <main+0x1ac0>
     995: a6 12        	ldx	$12                     ; 0x2012 <main+0x1aa8>
     997: 8e 00 de     	stx	$de00                   ; 0xde00 <__heap_start+0x386c>
     99a: 9c 01 de     	stz	$de01                   ; 0xde01 <__heap_start+0x386d>
     99d: 8d 02 de     	sta	$de02                   ; 0xde02 <__heap_start+0x386e>
     9a0: 9c 03 de     	stz	$de03                   ; 0xde03 <__heap_start+0x386f>
     9a3: ae 10 de     	ldx	$de10                   ; 0xde10 <__heap_start+0x387c>
     9a6: ac 11 de     	ldy	$de11                   ; 0xde11 <__heap_start+0x387d>
     9a9: ad 12 de     	lda	$de12                   ; 0xde12 <__heap_start+0x387e>
     9ac: ad 13 de     	lda	$de13                   ; 0xde13 <__heap_start+0x387f>
     9af: 8e a4 d6     	stx	$d6a4                   ; 0xd6a4 <__heap_start+0x3110>
     9b2: 8c a5 d6     	sty	$d6a5                   ; 0xd6a5 <__heap_start+0x3111>
     9b5: a2 03        	ldx	#$3
     9b7: 8e a6 d6     	stx	$d6a6                   ; 0xd6a6 <__heap_start+0x3112>
     9ba: a6 fa        	ldx	$fa                     ; 0x20fa <main+0x1b90>
     9bc: 8a           	txa
     9bd: a0 10        	ldy	#$10
     9bf: 91 10        	sta	($10),y                 ; 0x2010 <main+0x1aa6>
     9c1: a6 f8        	ldx	$f8                     ; 0x20f8 <main+0x1b8e>
     9c3: a4 f9        	ldy	$f9                     ; 0x20f9 <main+0x1b8f>
     9c5: 8a           	txa
     9c6: 5a           	phy
     9c7: a0 14        	ldy	#$14
     9c9: 91 10        	sta	($10),y                 ; 0x2010 <main+0x1aa6>
     9cb: 7a           	ply
     9cc: 86 2c        	stx	$2c                     ; 0x202c <main+0x1ac2>
     9ce: 98           	tya
     9cf: 5a           	phy
     9d0: a0 12        	ldy	#$12
     9d2: 91 10        	sta	($10),y                 ; 0x2010 <main+0x1aa6>
     9d4: 7a           	ply
     9d5: 84 2d        	sty	$2d                     ; 0x202d <main+0x1ac3>
     9d7: a2 1f        	ldx	#$1f
     9d9: 8e 20 d6     	stx	$d620                   ; 0xd620 <__heap_start+0x308c>
     9dc: a2 2a        	ldx	#$2a
     9de: 8e 21 d6     	stx	$d621                   ; 0xd621 <__heap_start+0x308d>
     9e1: a2 01        	ldx	#$1
     9e3: 8e 22 d6     	stx	$d622                   ; 0xd622 <__heap_start+0x308e>
     9e6: ad 22 d6     	lda	$d622                   ; 0xd622 <__heap_start+0x308e>
     9e9: 29 01        	and	#$1
     9eb: d0 f9        	bne	$9e6 <main+0x47c>
     9ed: ad a7 d6     	lda	$d6a7                   ; 0xd6a7 <__heap_start+0x3113>
     9f0: 29 1f        	and	#$1f
     9f2: c9 11        	cmp	#$11
     9f4: f0 03        	beq	$9f9 <main+0x48f>
     9f6: 4c 24 0b     	jmp	$b24 <main+0x5ba>
     9f9: a2 2a        	ldx	#$2a
     9fb: 8e 40 dd     	stx	$dd40                   ; 0xdd40 <__heap_start+0x37ac>
     9fe: 64 14        	stz	$14                     ; 0x2014 <main+0x1aaa>
     a00: 9c 41 dd     	stz	$dd41                   ; 0xdd41 <__heap_start+0x37ad>
     a03: 9c 41 dd     	stz	$dd41                   ; 0xdd41 <__heap_start+0x37ad>
     a06: 9c 41 dd     	stz	$dd41                   ; 0xdd41 <__heap_start+0x37ad>
     a09: a2 ef        	ldx	#$ef
     a0b: 8e 41 dd     	stx	$dd41                   ; 0xdd41 <__heap_start+0x37ad>
     a0e: a2 2b        	ldx	#$2b
     a10: 8e 40 dd     	stx	$dd40                   ; 0xdd40 <__heap_start+0x37ac>
     a13: 9c 41 dd     	stz	$dd41                   ; 0xdd41 <__heap_start+0x37ad>
     a16: a2 14        	ldx	#$14
     a18: 8e 41 dd     	stx	$dd41                   ; 0xdd41 <__heap_start+0x37ad>
     a1b: a2 01        	ldx	#$1
     a1d: 8e 41 dd     	stx	$dd41                   ; 0xdd41 <__heap_start+0x37ad>
     a20: a2 3f        	ldx	#$3f
     a22: 8e 41 dd     	stx	$dd41                   ; 0xdd41 <__heap_start+0x37ad>
     a25: a2 2c        	ldx	#$2c
     a27: 8e 40 dd     	stx	$dd40                   ; 0xdd40 <__heap_start+0x37ac>
     a2a: 64 16        	stz	$16                     ; 0x2016 <main+0x1aac>
     a2c: 64 15        	stz	$15                     ; 0x2015 <main+0x1aab>
     a2e: a9 00        	lda	#$0
     a30: a8           	tay
     a31: aa           	tax
     a32: 64 13        	stz	$13                     ; 0x2013 <main+0x1aa9>
     a34: 64 12        	stz	$12                     ; 0x2012 <main+0x1aa8>
     a36: 86 18        	stx	$18                     ; 0x2018 <main+0x1aae>
     a38: 84 17        	sty	$17                     ; 0x2017 <main+0x1aad>
     a3a: a2 f0        	ldx	#$f0
     a3c: a4 16        	ldy	$16                     ; 0x2016 <main+0x1aac>
     a3e: 85 1e        	sta	$1e                     ; 0x201e <main+0x1ab4>
     a40: a5 15        	lda	$15                     ; 0x2015 <main+0x1aab>
     a42: 85 1f        	sta	$1f                     ; 0x201f <main+0x1ab5>
     a44: a5 15        	lda	$15                     ; 0x2015 <main+0x1aab>
     a46: 85 16        	sta	$16                     ; 0x2016 <main+0x1aac>
     a48: 84 22        	sty	$22                     ; 0x2022 <main+0x1ab8>
     a4a: 84 1a        	sty	$1a                     ; 0x201a <main+0x1ab0>
     a4c: a4 14        	ldy	$14                     ; 0x2014 <main+0x1aaa>
     a4e: 84 1b        	sty	$1b                     ; 0x201b <main+0x1ab1>
     a50: 18           	clc
     a51: 84 1d        	sty	$1d                     ; 0x201d <main+0x1ab3>
     a53: 98           	tya
     a54: 69 00        	adc	#$0
     a56: a5 1a        	lda	$1a                     ; 0x201a <main+0x1ab0>
     a58: 69 00        	adc	#$0
     a5a: 85 14        	sta	$14                     ; 0x2014 <main+0x1aaa>
     a5c: a5 15        	lda	$15                     ; 0x2015 <main+0x1aab>
     a5e: 69 03        	adc	#$3
     a60: 06 14        	asl	$14                     ; 0x2014 <main+0x1aaa>
     a62: 2a           	rol
     a63: 06 14        	asl	$14                     ; 0x2014 <main+0x1aaa>
     a65: 2a           	rol
     a66: a4 0f        	ldy	$f                      ; 0x200f <main+0x1aa5>
     a68: 78           	sei
     a69: 06 14        	asl	$14                     ; 0x2014 <main+0x1aaa>
     a6b: 2a           	rol
     a6c: 85 0f        	sta	$f                      ; 0x200f <main+0x1aa5>
     a6e: a5 1a        	lda	$1a                     ; 0x201a <main+0x1ab0>
     a70: 09 e0        	ora	#$e0
     a72: 5a           	phy
     a73: a4 1b        	ldy	$1b                     ; 0x201b <main+0x1ab1>
     a75: 84 14        	sty	$14                     ; 0x2014 <main+0x1aaa>
     a77: 7a           	ply
     a78: 85 15        	sta	$15                     ; 0x2015 <main+0x1aab>
     a7a: b2 14        	lda	($14)                   ; 0x2014 <main+0x1aaa>
     a7c: 84 0f        	sty	$f                      ; 0x200f <main+0x1aa5>
     a7e: 58           	cli
     a7f: 8d 42 dd     	sta	$dd42                   ; 0xdd42 <__heap_start+0x37ae>
     a82: 18           	clc
     a83: a5 1b        	lda	$1b                     ; 0x201b <main+0x1ab1>
     a85: 69 01        	adc	#$1
     a87: a5 1a        	lda	$1a                     ; 0x201a <main+0x1ab0>
     a89: 69 00        	adc	#$0
     a8b: 85 14        	sta	$14                     ; 0x2014 <main+0x1aaa>
     a8d: a5 16        	lda	$16                     ; 0x2016 <main+0x1aac>
     a8f: 69 03        	adc	#$3
     a91: 06 14        	asl	$14                     ; 0x2014 <main+0x1aaa>
     a93: 2a           	rol
     a94: 06 14        	asl	$14                     ; 0x2014 <main+0x1aaa>
     a96: 2a           	rol
     a97: a4 1e        	ldy	$1e                     ; 0x201e <main+0x1ab4>
     a99: 84 23        	sty	$23                     ; 0x2023 <main+0x1ab9>
     a9b: 06 14        	asl	$14                     ; 0x2014 <main+0x1aaa>
     a9d: 2a           	rol
     a9e: a4 0f        	ldy	$f                      ; 0x200f <main+0x1aa5>
     aa0: 78           	sei
     aa1: 85 0f        	sta	$f                      ; 0x200f <main+0x1aa5>
     aa3: a5 1b        	lda	$1b                     ; 0x201b <main+0x1ab1>
     aa5: 85 14        	sta	$14                     ; 0x2014 <main+0x1aaa>
     aa7: a5 1a        	lda	$1a                     ; 0x201a <main+0x1ab0>
     aa9: e6 14        	inc	$14                     ; 0x2014 <main+0x1aaa>
     aab: d0 01        	bne	$aae <main+0x544>
     aad: 1a           	inc
     aae: 09 e0        	ora	#$e0
     ab0: 85 15        	sta	$15                     ; 0x2015 <main+0x1aab>
     ab2: b2 14        	lda	($14)                   ; 0x2014 <main+0x1aaa>
     ab4: 84 0f        	sty	$f                      ; 0x200f <main+0x1aa5>
     ab6: 58           	cli
     ab7: 8d 43 dd     	sta	$dd43                   ; 0xdd43 <__heap_start+0x37af>
     aba: a5 1d        	lda	$1d                     ; 0x201d <main+0x1ab3>
     abc: ca           	dex
     abd: 18           	clc
     abe: 69 02        	adc	#$2
     ac0: 85 14        	sta	$14                     ; 0x2014 <main+0x1aaa>
     ac2: a5 22        	lda	$22                     ; 0x2022 <main+0x1ab8>
     ac4: 69 00        	adc	#$0
     ac6: a8           	tay
     ac7: a5 1f        	lda	$1f                     ; 0x201f <main+0x1ab5>
     ac9: 69 00        	adc	#$0
     acb: 85 15        	sta	$15                     ; 0x2015 <main+0x1aab>
     acd: a5 1e        	lda	$1e                     ; 0x201e <main+0x1ab4>
     acf: 69 00        	adc	#$0
     ad1: 85 1e        	sta	$1e                     ; 0x201e <main+0x1ab4>
     ad3: 8a           	txa
     ad4: f0 03        	beq	$ad9 <main+0x56f>
     ad6: 4c 40 0a     	jmp	$a40 <main+0x4d6>
     ad9: a6 16        	ldx	$16                     ; 0x2016 <main+0x1aac>
     adb: 86 19        	stx	$19                     ; 0x2019 <main+0x1aaf>
     add: 18           	clc
     ade: a5 1b        	lda	$1b                     ; 0x201b <main+0x1ab1>
     ae0: 69 02        	adc	#$2
     ae2: 85 14        	sta	$14                     ; 0x2014 <main+0x1aaa>
     ae4: a5 1a        	lda	$1a                     ; 0x201a <main+0x1ab0>
     ae6: 69 00        	adc	#$0
     ae8: 85 16        	sta	$16                     ; 0x2016 <main+0x1aac>
     aea: a5 19        	lda	$19                     ; 0x2019 <main+0x1aaf>
     aec: 69 00        	adc	#$0
     aee: 85 15        	sta	$15                     ; 0x2015 <main+0x1aab>
     af0: a5 23        	lda	$23                     ; 0x2023 <main+0x1ab9>
     af2: 69 00        	adc	#$0
     af4: a6 18        	ldx	$18                     ; 0x2018 <main+0x1aae>
     af6: a4 17        	ldy	$17                     ; 0x2017 <main+0x1aad>
     af8: c8           	iny
     af9: d0 09        	bne	$b04 <main+0x59a>
     afb: e8           	inx
     afc: d0 06        	bne	$b04 <main+0x59a>
     afe: e6 13        	inc	$13                     ; 0x2013 <main+0x1aa9>
     b00: d0 02        	bne	$b04 <main+0x59a>
     b02: e6 12        	inc	$12                     ; 0x2012 <main+0x1aa8>
     b04: e6 12        	inc	$12                     ; 0x2012 <main+0x1aa8>
     b06: c6 12        	dec	$12                     ; 0x2012 <main+0x1aa8>
     b08: f0 03        	beq	$b0d <main+0x5a3>
     b0a: 4c 36 0a     	jmp	$a36 <main+0x4cc>
     b0d: e6 13        	inc	$13                     ; 0x2013 <main+0x1aa9>
     b0f: c6 13        	dec	$13                     ; 0x2013 <main+0x1aa9>
     b11: f0 03        	beq	$b16 <main+0x5ac>
     b13: 4c 36 0a     	jmp	$a36 <main+0x4cc>
     b16: e0 01        	cpx	#$1
     b18: f0 03        	beq	$b1d <main+0x5b3>
     b1a: 4c 36 0a     	jmp	$a36 <main+0x4cc>
     b1d: c0 18        	cpy	#$18
     b1f: f0 03        	beq	$b24 <main+0x5ba>
     b21: 4c 36 0a     	jmp	$a36 <main+0x4cc>
     b24: 64 62        	stz	$62                     ; 0x2062 <main+0x1af8>
     b26: 64 01        	stz	$1                      ; 0x2001 <main+0x1a97>
     b28: a2 01        	ldx	#$1
     b2a: 8e 00 d0     	stx	$d000                   ; 0xd000 <__heap_start+0x2a6c>
     b2d: a0 04        	ldy	#$4
     b2f: 8c 01 d0     	sty	$d001                   ; 0xd001 <__heap_start+0x2a6d>
     b32: ac a7 d6     	ldy	$d6a7                   ; 0xd6a7 <__heap_start+0x3113>
     b35: a0 03        	ldy	#$3
     b37: 8c 01 d7     	sty	$d701                   ; 0xd701 <__heap_start+0x316d>
     b3a: 9c 02 d7     	stz	$d702                   ; 0xd702 <__heap_start+0x316e>
     b3d: 9c 02 d7     	stz	$d702                   ; 0xd702 <__heap_start+0x316e>
     b40: a0 e0        	ldy	#$e0
     b42: 8c 03 d7     	sty	$d703                   ; 0xd703 <__heap_start+0x316f>
     b45: 8e 00 d7     	stx	$d700                   ; 0xd700 <__heap_start+0x316c>
     b48: 9c 00 d7     	stz	$d700                   ; 0xd700 <__heap_start+0x316c>
     b4b: ae 00 d7     	ldx	$d700                   ; 0xd700 <__heap_start+0x316c>
     b4e: 30 fb        	bmi	$b4b <main+0x5e1>
     b50: 64 12        	stz	$12                     ; 0x2012 <main+0x1aa8>
     b52: a0 01        	ldy	#$1
     b54: a2 00        	ldx	#$0
     b56: a5 12        	lda	$12                     ; 0x2012 <main+0x1aa8>
     b58: 85 14        	sta	$14                     ; 0x2014 <main+0x1aaa>
     b5a: a5 12        	lda	$12                     ; 0x2012 <main+0x1aa8>
     b5c: 0a           	asl
     b5d: 85 12        	sta	$12                     ; 0x2012 <main+0x1aa8>
     b5f: 8a           	txa
     b60: 2a           	rol
     b61: 85 13        	sta	$13                     ; 0x2013 <main+0x1aa9>
     b63: a9 b0        	lda	#$b0
     b65: 18           	clc
     b66: 65 12        	adc	$12                     ; 0x2012 <main+0x1aa8>
     b68: 85 12        	sta	$12                     ; 0x2012 <main+0x1aa8>
     b6a: a9 90        	lda	#$90
     b6c: 65 13        	adc	$13                     ; 0x2013 <main+0x1aa9>
     b6e: 85 15        	sta	$15                     ; 0x2015 <main+0x1aab>
     b70: a5 12        	lda	$12                     ; 0x2012 <main+0x1aa8>
     b72: 85 17        	sta	$17                     ; 0x2017 <main+0x1aad>
     b74: a5 15        	lda	$15                     ; 0x2015 <main+0x1aab>
     b76: 85 13        	sta	$13                     ; 0x2013 <main+0x1aa9>
     b78: b2 12        	lda	($12)                   ; 0x2012 <main+0x1aa8>
     b7a: 85 16        	sta	$16                     ; 0x2016 <main+0x1aac>
     b7c: 18           	clc
     b7d: a5 14        	lda	$14                     ; 0x2014 <main+0x1aaa>
     b7f: 85 1a        	sta	$1a                     ; 0x201a <main+0x1ab0>
     b81: a5 14        	lda	$14                     ; 0x2014 <main+0x1aaa>
     b83: 69 02        	adc	#$2
     b85: 85 18        	sta	$18                     ; 0x2018 <main+0x1aae>
     b87: 86 19        	stx	$19                     ; 0x2019 <main+0x1aaf>
     b89: 8a           	txa
     b8a: 69 00        	adc	#$0
     b8c: aa           	tax
     b8d: 18           	clc
     b8e: a5 17        	lda	$17                     ; 0x2017 <main+0x1aad>
     b90: 69 02        	adc	#$2
     b92: 85 14        	sta	$14                     ; 0x2014 <main+0x1aaa>
     b94: a5 15        	lda	$15                     ; 0x2015 <main+0x1aab>
     b96: 69 00        	adc	#$0
     b98: 85 15        	sta	$15                     ; 0x2015 <main+0x1aab>
     b9a: b1 12        	lda	($12),y                 ; 0x2012 <main+0x1aa8>
     b9c: 85 17        	sta	$17                     ; 0x2017 <main+0x1aad>
     b9e: a0 02        	ldy	#$2
     ba0: b1 12        	lda	($12),y                 ; 0x2012 <main+0x1aa8>
     ba2: 85 13        	sta	$13                     ; 0x2013 <main+0x1aa9>
     ba4: 88           	dey
     ba5: b1 14        	lda	($14),y                 ; 0x2014 <main+0x1aaa>
     ba7: 10 03        	bpl	$bac <main+0x642>
     ba9: 4c 3a 0c     	jmp	$c3a <main+0x6d0>
     bac: 85 12        	sta	$12                     ; 0x2012 <main+0x1aa8>
     bae: 85 15        	sta	$15                     ; 0x2015 <main+0x1aab>
     bb0: a5 13        	lda	$13                     ; 0x2013 <main+0x1aa9>
     bb2: e6 12        	inc	$12                     ; 0x2012 <main+0x1aa8>
     bb4: c6 12        	dec	$12                     ; 0x2012 <main+0x1aa8>
     bb6: d0 16        	bne	$bce <main+0x664>
     bb8: c9 00        	cmp	#$0
     bba: d0 12        	bne	$bce <main+0x664>
     bbc: 4c c2 0c     	jmp	$cc2 <main+0x758>
     bbf: a5 12        	lda	$12                     ; 0x2012 <main+0x1aa8>
     bc1: 85 15        	sta	$15                     ; 0x2015 <main+0x1aab>
     bc3: a5 14        	lda	$14                     ; 0x2014 <main+0x1aaa>
     bc5: 85 13        	sta	$13                     ; 0x2013 <main+0x1aa9>
     bc7: a5 12        	lda	$12                     ; 0x2012 <main+0x1aa8>
     bc9: d0 03        	bne	$bce <main+0x664>
     bcb: 4c 30 0c     	jmp	$c30 <main+0x6c6>
     bce: a5 13        	lda	$13                     ; 0x2013 <main+0x1aa9>
     bd0: 85 14        	sta	$14                     ; 0x2014 <main+0x1aaa>
     bd2: a5 18        	lda	$18                     ; 0x2018 <main+0x1aae>
     bd4: 85 19        	sta	$19                     ; 0x2019 <main+0x1aaf>
     bd6: a5 18        	lda	$18                     ; 0x2018 <main+0x1aae>
     bd8: 0a           	asl
     bd9: 85 12        	sta	$12                     ; 0x2012 <main+0x1aa8>
     bdb: 86 18        	stx	$18                     ; 0x2018 <main+0x1aae>
     bdd: 8a           	txa
     bde: 2a           	rol
     bdf: 85 13        	sta	$13                     ; 0x2013 <main+0x1aa9>
     be1: a9 b0        	lda	#$b0
     be3: 18           	clc
     be4: 65 12        	adc	$12                     ; 0x2012 <main+0x1aa8>
     be6: 85 12        	sta	$12                     ; 0x2012 <main+0x1aa8>
     be8: a9 90        	lda	#$90
     bea: 65 13        	adc	$13                     ; 0x2013 <main+0x1aa9>
     bec: 85 13        	sta	$13                     ; 0x2013 <main+0x1aa9>
     bee: b2 12        	lda	($12)                   ; 0x2012 <main+0x1aa8>
     bf0: 85 1a        	sta	$1a                     ; 0x201a <main+0x1ab0>
     bf2: b1 12        	lda	($12),y                 ; 0x2012 <main+0x1aa8>
     bf4: a6 16        	ldx	$16                     ; 0x2016 <main+0x1aac>
     bf6: 8e 01 d7     	stx	$d701                   ; 0xd701 <__heap_start+0x316d>
     bf9: a6 17        	ldx	$17                     ; 0x2017 <main+0x1aad>
     bfb: 8e 02 d7     	stx	$d702                   ; 0xd702 <__heap_start+0x316e>
     bfe: a6 1a        	ldx	$1a                     ; 0x201a <main+0x1ab0>
     c00: 8e 02 d7     	stx	$d702                   ; 0xd702 <__heap_start+0x316e>
     c03: 8d 03 d7     	sta	$d703                   ; 0xd703 <__heap_start+0x316f>
     c06: 8c 00 d7     	sty	$d700                   ; 0xd700 <__heap_start+0x316c>
     c09: 9c 00 d7     	stz	$d700                   ; 0xd700 <__heap_start+0x316c>
     c0c: ae 00 d7     	ldx	$d700                   ; 0xd700 <__heap_start+0x316c>
     c0f: 30 fb        	bmi	$c0c <main+0x6a2>
     c11: a6 15        	ldx	$15                     ; 0x2015 <main+0x1aab>
     c13: 86 12        	stx	$12                     ; 0x2012 <main+0x1aa8>
     c15: a2 ff        	ldx	#$ff
     c17: c6 14        	dec	$14                     ; 0x2014 <main+0x1aaa>
     c19: e4 14        	cpx	$14                     ; 0x2014 <main+0x1aaa>
     c1b: d0 02        	bne	$c1f <main+0x6b5>
     c1d: c6 12        	dec	$12                     ; 0x2012 <main+0x1aa8>
     c1f: a6 18        	ldx	$18                     ; 0x2018 <main+0x1aae>
     c21: a5 19        	lda	$19                     ; 0x2019 <main+0x1aaf>
     c23: 85 18        	sta	$18                     ; 0x2018 <main+0x1aae>
     c25: e6 18        	inc	$18                     ; 0x2018 <main+0x1aae>
     c27: f0 03        	beq	$c2c <main+0x6c2>
     c29: 4c bf 0b     	jmp	$bbf <main+0x655>
     c2c: e8           	inx
     c2d: 4c bf 0b     	jmp	$bbf <main+0x655>
     c30: a5 14        	lda	$14                     ; 0x2014 <main+0x1aaa>
     c32: f0 03        	beq	$c37 <main+0x6cd>
     c34: 4c ce 0b     	jmp	$bce <main+0x664>
     c37: 4c c2 0c     	jmp	$cc2 <main+0x758>
     c3a: 29 7f        	and	#$7f
     c3c: 85 1b        	sta	$1b                     ; 0x201b <main+0x1ab1>
     c3e: 18           	clc
     c3f: a5 1a        	lda	$1a                     ; 0x201a <main+0x1ab0>
     c41: 69 03        	adc	#$3
     c43: 85 15        	sta	$15                     ; 0x2015 <main+0x1aab>
     c45: a5 19        	lda	$19                     ; 0x2019 <main+0x1aaf>
     c47: 69 00        	adc	#$0
     c49: 5a           	phy
     c4a: a4 13        	ldy	$13                     ; 0x2013 <main+0x1aa9>
     c4c: 84 1a        	sty	$1a                     ; 0x201a <main+0x1ab0>
     c4e: 7a           	ply
     c4f: e6 1b        	inc	$1b                     ; 0x201b <main+0x1ab1>
     c51: c6 1b        	dec	$1b                     ; 0x201b <main+0x1ab1>
     c53: d0 09        	bne	$c5e <main+0x6f4>
     c55: e6 1a        	inc	$1a                     ; 0x201a <main+0x1ab0>
     c57: c6 1a        	dec	$1a                     ; 0x201a <main+0x1ab0>
     c59: d0 03        	bne	$c5e <main+0x6f4>
     c5b: 4c c2 15     	jmp	$15c2 <main+0x1058>
     c5e: 5a           	phy
     c5f: a4 1b        	ldy	$1b                     ; 0x201b <main+0x1ab1>
     c61: 84 14        	sty	$14                     ; 0x2014 <main+0x1aaa>
     c63: 7a           	ply
     c64: 85 19        	sta	$19                     ; 0x2019 <main+0x1aaf>
     c66: a5 18        	lda	$18                     ; 0x2018 <main+0x1aae>
     c68: 85 12        	sta	$12                     ; 0x2012 <main+0x1aa8>
     c6a: 06 12        	asl	$12                     ; 0x2012 <main+0x1aa8>
     c6c: 86 13        	stx	$13                     ; 0x2013 <main+0x1aa9>
     c6e: 26 13        	rol	$13                     ; 0x2013 <main+0x1aa9>
     c70: 18           	clc
     c71: a9 b0        	lda	#$b0
     c73: 65 12        	adc	$12                     ; 0x2012 <main+0x1aa8>
     c75: 85 12        	sta	$12                     ; 0x2012 <main+0x1aa8>
     c77: a9 90        	lda	#$90
     c79: 65 13        	adc	$13                     ; 0x2013 <main+0x1aa9>
     c7b: 85 13        	sta	$13                     ; 0x2013 <main+0x1aa9>
     c7d: b2 12        	lda	($12)                   ; 0x2012 <main+0x1aa8>
     c7f: 85 18        	sta	$18                     ; 0x2018 <main+0x1aae>
     c81: b1 12        	lda	($12),y                 ; 0x2012 <main+0x1aa8>
     c83: 80 06        	bra	$c8b <main+0x721>
     c85: a6 12        	ldx	$12                     ; 0x2012 <main+0x1aa8>
     c87: 86 14        	stx	$14                     ; 0x2014 <main+0x1aaa>
     c89: f0 2d        	beq	$cb8 <main+0x74e>
     c8b: a6 16        	ldx	$16                     ; 0x2016 <main+0x1aac>
     c8d: 8e 01 d7     	stx	$d701                   ; 0xd701 <__heap_start+0x316d>
     c90: a6 17        	ldx	$17                     ; 0x2017 <main+0x1aad>
     c92: 8e 02 d7     	stx	$d702                   ; 0xd702 <__heap_start+0x316e>
     c95: a6 18        	ldx	$18                     ; 0x2018 <main+0x1aae>
     c97: 8e 02 d7     	stx	$d702                   ; 0xd702 <__heap_start+0x316e>
     c9a: 8d 03 d7     	sta	$d703                   ; 0xd703 <__heap_start+0x316f>
     c9d: 8c 00 d7     	sty	$d700                   ; 0xd700 <__heap_start+0x316c>
     ca0: 9c 00 d7     	stz	$d700                   ; 0xd700 <__heap_start+0x316c>
     ca3: ae 00 d7     	ldx	$d700                   ; 0xd700 <__heap_start+0x316c>
     ca6: 30 fb        	bmi	$ca3 <main+0x739>
     ca8: a6 14        	ldx	$14                     ; 0x2014 <main+0x1aaa>
     caa: 86 12        	stx	$12                     ; 0x2012 <main+0x1aa8>
     cac: a2 ff        	ldx	#$ff
     cae: c6 1a        	dec	$1a                     ; 0x201a <main+0x1ab0>
     cb0: e4 1a        	cpx	$1a                     ; 0x201a <main+0x1ab0>
     cb2: d0 d1        	bne	$c85 <main+0x71b>
     cb4: c6 12        	dec	$12                     ; 0x2012 <main+0x1aa8>
     cb6: 80 cd        	bra	$c85 <main+0x71b>
     cb8: a6 1a        	ldx	$1a                     ; 0x201a <main+0x1ab0>
     cba: d0 cf        	bne	$c8b <main+0x721>
     cbc: a6 15        	ldx	$15                     ; 0x2015 <main+0x1aab>
     cbe: 86 18        	stx	$18                     ; 0x2018 <main+0x1aae>
     cc0: a6 19        	ldx	$19                     ; 0x2019 <main+0x1aaf>
     cc2: a5 18        	lda	$18                     ; 0x2018 <main+0x1aae>
     cc4: e0 00        	cpx	#$0
     cc6: d0 09        	bne	$cd1 <main+0x767>
     cc8: c9 1c        	cmp	#$1c
     cca: 85 12        	sta	$12                     ; 0x2012 <main+0x1aa8>
     ccc: b0 0c        	bcs	$cda <main+0x770>
     cce: 4c 56 0b     	jmp	$b56 <main+0x5ec>
     cd1: e0 00        	cpx	#$0
     cd3: 85 12        	sta	$12                     ; 0x2012 <main+0x1aa8>
     cd5: b0 03        	bcs	$cda <main+0x770>
     cd7: 4c 56 0b     	jmp	$b56 <main+0x5ec>
     cda: a2 27        	ldx	#$27
     cdc: 86 12        	stx	$12                     ; 0x2012 <main+0x1aa8>
     cde: a2 a4        	ldx	#$a4
     ce0: 86 13        	stx	$13                     ; 0x2013 <main+0x1aa9>
     ce2: 64 14        	stz	$14                     ; 0x2014 <main+0x1aaa>
     ce4: a2 80        	ldx	#$80
     ce6: a9 00        	lda	#$0
     ce8: 20 51 82     	jsr	$8251 <__memset>
     ceb: a2 a7        	ldx	#$a7
     ced: 86 12        	stx	$12                     ; 0x2012 <main+0x1aa8>
     cef: a2 a4        	ldx	#$a4
     cf1: 86 13        	stx	$13                     ; 0x2013 <main+0x1aa9>
     cf3: 64 14        	stz	$14                     ; 0x2014 <main+0x1aaa>
     cf5: a2 80        	ldx	#$80
     cf7: a9 00        	lda	#$0
     cf9: 20 51 82     	jsr	$8251 <__memset>
     cfc: a6 48        	ldx	$48                     ; 0x2048 <main+0x1ade>
     cfe: a4 49        	ldy	$49                     ; 0x2049 <main+0x1adf>
     d00: a9 00        	lda	#$0
     d02: 85 12        	sta	$12                     ; 0x2012 <main+0x1aa8>
     d04: a9 00        	lda	#$0
     d06: 85 13        	sta	$13                     ; 0x2013 <main+0x1aa9>
     d08: c4 13        	cpy	$13                     ; 0x2013 <main+0x1aa9>
     d0a: d0 04        	bne	$d10 <main+0x7a6>
     d0c: e4 12        	cpx	$12                     ; 0x2012 <main+0x1aa8>
     d0e: f0 07        	beq	$d17 <main+0x7ad>
     d10: 86 12        	stx	$12                     ; 0x2012 <main+0x1aa8>
     d12: 84 13        	sty	$13                     ; 0x2013 <main+0x1aa9>
     d14: 20 95 80     	jsr	$8095 <free>
     d17: a2 00        	ldx	#$0
     d19: 86 2e        	stx	$2e                     ; 0x202e <main+0x1ac4>
     d1b: a2 00        	ldx	#$0
     d1d: 86 2f        	stx	$2f                     ; 0x202f <main+0x1ac5>
     d1f: a6 2e        	ldx	$2e                     ; 0x202e <main+0x1ac4>
     d21: a4 2f        	ldy	$2f                     ; 0x202f <main+0x1ac5>
     d23: 86 48        	stx	$48                     ; 0x2048 <main+0x1ade>
     d25: 84 49        	sty	$49                     ; 0x2049 <main+0x1adf>
     d27: a9 40        	lda	#$40
     d29: a2 00        	ldx	#$0
     d2b: 20 c6 7e     	jsr	$7ec6 <malloc>
     d2e: a6 12        	ldx	$12                     ; 0x2012 <main+0x1aa8>
     d30: a4 13        	ldy	$13                     ; 0x2013 <main+0x1aa9>
     d32: 86 48        	stx	$48                     ; 0x2048 <main+0x1ade>
     d34: 84 49        	sty	$49                     ; 0x2049 <main+0x1adf>
     d36: 64 4a        	stz	$4a                     ; 0x204a <main+0x1ae0>
     d38: 64 4b        	stz	$4b                     ; 0x204b <main+0x1ae1>
     d3a: 64 4c        	stz	$4c                     ; 0x204c <main+0x1ae2>
     d3c: 64 4d        	stz	$4d                     ; 0x204d <main+0x1ae3>
     d3e: a2 01        	ldx	#$1
     d40: 86 4e        	stx	$4e                     ; 0x204e <main+0x1ae4>
     d42: a6 01        	ldx	$1                      ; 0x2001 <main+0x1a97>
     d44: 86 12        	stx	$12                     ; 0x2012 <main+0x1aa8>
     d46: 64 01        	stz	$1                      ; 0x2001 <main+0x1a97>
     d48: a2 ff        	ldx	#$ff
     d4a: 8e 00 d8     	stx	$d800                   ; 0xd800 <__heap_start+0x326c>
     d4d: 8e 01 d8     	stx	$d801                   ; 0xd801 <__heap_start+0x326d>
     d50: 8e 02 d8     	stx	$d802                   ; 0xd802 <__heap_start+0x326e>
     d53: 9c 03 d8     	stz	$d803                   ; 0xd803 <__heap_start+0x326f>
     d56: 9c 04 d8     	stz	$d804                   ; 0xd804 <__heap_start+0x3270>
     d59: a2 cd        	ldx	#$cd
     d5b: 8e 05 d8     	stx	$d805                   ; 0xd805 <__heap_start+0x3271>
     d5e: 8e 06 d8     	stx	$d806                   ; 0xd806 <__heap_start+0x3272>
     d61: 9c 07 d8     	stz	$d807                   ; 0xd807 <__heap_start+0x3273>
     d64: 9c 08 d8     	stz	$d808                   ; 0xd808 <__heap_start+0x3274>
     d67: a2 d7        	ldx	#$d7
     d69: 8e 09 d8     	stx	$d809                   ; 0xd809 <__heap_start+0x3275>
     d6c: 8e 0a d8     	stx	$d80a                   ; 0xd80a <__heap_start+0x3276>
     d6f: 9c 0b d8     	stz	$d80b                   ; 0xd80b <__heap_start+0x3277>
     d72: 9c 0c d8     	stz	$d80c                   ; 0xd80c <__heap_start+0x3278>
     d75: a2 e1        	ldx	#$e1
     d77: 8e 0d d8     	stx	$d80d                   ; 0xd80d <__heap_start+0x3279>
     d7a: 8e 0e d8     	stx	$d80e                   ; 0xd80e <__heap_start+0x327a>
     d7d: 9c 0f d8     	stz	$d80f                   ; 0xd80f <__heap_start+0x327b>
     d80: 9c 10 d8     	stz	$d810                   ; 0xd810 <__heap_start+0x327c>
     d83: a0 eb        	ldy	#$eb
     d85: 8c 11 d8     	sty	$d811                   ; 0xd811 <__heap_start+0x327d>
     d88: 8c 12 d8     	sty	$d812                   ; 0xd812 <__heap_start+0x327e>
     d8b: 9c 13 d8     	stz	$d813                   ; 0xd813 <__heap_start+0x327f>
     d8e: 9c 14 d8     	stz	$d814                   ; 0xd814 <__heap_start+0x3280>
     d91: a2 f5        	ldx	#$f5
     d93: 8e 15 d8     	stx	$d815                   ; 0xd815 <__heap_start+0x3281>
     d96: 8e 16 d8     	stx	$d816                   ; 0xd816 <__heap_start+0x3282>
     d99: 9c 17 d8     	stz	$d817                   ; 0xd817 <__heap_start+0x3283>
     d9c: 9c 18 d8     	stz	$d818                   ; 0xd818 <__heap_start+0x3284>
     d9f: a9 66        	lda	#$66
     da1: 8d 19 d8     	sta	$d819                   ; 0xd819 <__heap_start+0x3285>
     da4: a9 cd        	lda	#$cd
     da6: 8d 1a d8     	sta	$d81a                   ; 0xd81a <__heap_start+0x3286>
     da9: 9c 1b d8     	stz	$d81b                   ; 0xd81b <__heap_start+0x3287>
     dac: 9c 1c d8     	stz	$d81c                   ; 0xd81c <__heap_start+0x3288>
     daf: a9 6b        	lda	#$6b
     db1: 8d 1d d8     	sta	$d81d                   ; 0xd81d <__heap_start+0x3289>
     db4: a9 d7        	lda	#$d7
     db6: 8d 1e d8     	sta	$d81e                   ; 0xd81e <__heap_start+0x328a>
     db9: 9c 1f d8     	stz	$d81f                   ; 0xd81f <__heap_start+0x328b>
     dbc: 9c 20 d8     	stz	$d820                   ; 0xd820 <__heap_start+0x328c>
     dbf: a9 70        	lda	#$70
     dc1: 8d 21 d8     	sta	$d821                   ; 0xd821 <__heap_start+0x328d>
     dc4: a9 e1        	lda	#$e1
     dc6: 8d 22 d8     	sta	$d822                   ; 0xd822 <__heap_start+0x328e>
     dc9: 9c 23 d8     	stz	$d823                   ; 0xd823 <__heap_start+0x328f>
     dcc: 9c 24 d8     	stz	$d824                   ; 0xd824 <__heap_start+0x3290>
     dcf: a9 75        	lda	#$75
     dd1: 8d 25 d8     	sta	$d825                   ; 0xd825 <__heap_start+0x3291>
     dd4: 8c 26 d8     	sty	$d826                   ; 0xd826 <__heap_start+0x3292>
     dd7: 9c 27 d8     	stz	$d827                   ; 0xd827 <__heap_start+0x3293>
     dda: 9c 28 d8     	stz	$d828                   ; 0xd828 <__heap_start+0x3294>
     ddd: a9 7a        	lda	#$7a
     ddf: 8d 29 d8     	sta	$d829                   ; 0xd829 <__heap_start+0x3295>
     de2: 8e 2a d8     	stx	$d82a                   ; 0xd82a <__heap_start+0x3296>
     de5: 9c 2b d8     	stz	$d82b                   ; 0xd82b <__heap_start+0x3297>
     de8: 9c 2c d8     	stz	$d82c                   ; 0xd82c <__heap_start+0x3298>
     deb: 9c 2d d8     	stz	$d82d                   ; 0xd82d <__heap_start+0x3299>
     dee: a9 cd        	lda	#$cd
     df0: 8d 2e d8     	sta	$d82e                   ; 0xd82e <__heap_start+0x329a>
     df3: 9c 2f d8     	stz	$d82f                   ; 0xd82f <__heap_start+0x329b>
     df6: 9c 30 d8     	stz	$d830                   ; 0xd830 <__heap_start+0x329c>
     df9: 9c 31 d8     	stz	$d831                   ; 0xd831 <__heap_start+0x329d>
     dfc: a9 d7        	lda	#$d7
     dfe: 8d 32 d8     	sta	$d832                   ; 0xd832 <__heap_start+0x329e>
     e01: 9c 33 d8     	stz	$d833                   ; 0xd833 <__heap_start+0x329f>
     e04: 9c 34 d8     	stz	$d834                   ; 0xd834 <__heap_start+0x32a0>
     e07: 9c 35 d8     	stz	$d835                   ; 0xd835 <__heap_start+0x32a1>
     e0a: a9 e1        	lda	#$e1
     e0c: 8d 36 d8     	sta	$d836                   ; 0xd836 <__heap_start+0x32a2>
     e0f: 9c 37 d8     	stz	$d837                   ; 0xd837 <__heap_start+0x32a3>
     e12: 9c 38 d8     	stz	$d838                   ; 0xd838 <__heap_start+0x32a4>
     e15: 9c 39 d8     	stz	$d839                   ; 0xd839 <__heap_start+0x32a5>
     e18: 8c 3a d8     	sty	$d83a                   ; 0xd83a <__heap_start+0x32a6>
     e1b: 9c 3b d8     	stz	$d83b                   ; 0xd83b <__heap_start+0x32a7>
     e1e: 9c 3c d8     	stz	$d83c                   ; 0xd83c <__heap_start+0x32a8>
     e21: 9c 3d d8     	stz	$d83d                   ; 0xd83d <__heap_start+0x32a9>
     e24: 8e 3e d8     	stx	$d83e                   ; 0xd83e <__heap_start+0x32aa>
     e27: 9c 3f d8     	stz	$d83f                   ; 0xd83f <__heap_start+0x32ab>
     e2a: a6 12        	ldx	$12                     ; 0x2012 <main+0x1aa8>
     e2c: 86 01        	stx	$1                      ; 0x2001 <main+0x1a97>
     e2e: a2 74        	ldx	#$74
     e30: 86 12        	stx	$12                     ; 0x2012 <main+0x1aa8>
     e32: a2 87        	ldx	#$87
     e34: 86 13        	stx	$13                     ; 0x2013 <main+0x1aa9>
     e36: 20 70 30     	jsr	$3070 <fileOpenDir>
     e39: a6 12        	ldx	$12                     ; 0x2012 <main+0x1aa8>
     e3b: 86 24        	stx	$24                     ; 0x2024 <main+0x1aba>
     e3d: a6 13        	ldx	$13                     ; 0x2013 <main+0x1aa9>
     e3f: 86 25        	stx	$25                     ; 0x2025 <main+0x1abb>
     e41: a6 25        	ldx	$25                     ; 0x2025 <main+0x1abb>
     e43: e4 2f        	cpx	$2f                     ; 0x202f <main+0x1ac5>
     e45: d0 1f        	bne	$e66 <main+0x8fc>
     e47: a6 24        	ldx	$24                     ; 0x2024 <main+0x1aba>
     e49: e4 2e        	cpx	$2e                     ; 0x202e <main+0x1ac4>
     e4b: d0 19        	bne	$e66 <main+0x8fc>
     e4d: a2 33        	ldx	#$33
     e4f: 86 12        	stx	$12                     ; 0x2012 <main+0x1aa8>
     e51: a2 92        	ldx	#$92
     e53: 86 13        	stx	$13                     ; 0x2013 <main+0x1aa9>
     e55: a2 44        	ldx	#$44
     e57: 86 14        	stx	$14                     ; 0x2014 <main+0x1aaa>
     e59: a2 8f        	ldx	#$8f
     e5b: 86 15        	stx	$15                     ; 0x2015 <main+0x1aab>
     e5d: a9 20        	lda	#$20
     e5f: a2 00        	ldx	#$0
     e61: 20 25 82     	jsr	$8225 <memcpy>
     e64: 80 49        	bra	$eaf <main+0x945>
     e66: a2 33        	ldx	#$33
     e68: 86 12        	stx	$12                     ; 0x2012 <main+0x1aa8>
     e6a: a2 92        	ldx	#$92
     e6c: 86 13        	stx	$13                     ; 0x2013 <main+0x1aa9>
     e6e: a2 64        	ldx	#$64
     e70: 86 14        	stx	$14                     ; 0x2014 <main+0x1aaa>
     e72: a2 8f        	ldx	#$8f
     e74: 86 15        	stx	$15                     ; 0x2015 <main+0x1aab>
     e76: a9 20        	lda	#$20
     e78: a2 00        	ldx	#$0
     e7a: 20 25 82     	jsr	$8225 <memcpy>
     e7d: a2 63        	ldx	#$63
     e7f: 86 12        	stx	$12                     ; 0x2012 <main+0x1aa8>
     e81: a2 00        	ldx	#$0
     e83: 86 13        	stx	$13                     ; 0x2013 <main+0x1aa9>
     e85: b2 24        	lda	($24)                   ; 0x2024 <main+0x1aba>
     e87: f0 14        	beq	$e9d <main+0x933>
     e89: 85 f3        	sta	$f3                     ; 0x20f3 <main+0x1b89>
     e8b: 20 80 ff     	jsr	$ff80 <__heap_start+0x59ec>
     e8e: 92 2a        	sta	($2a)                   ; 0x202a <main+0x1ac0>
     e90: a9 00        	lda	#$0
     e92: 6a           	ror
     e93: 85 12        	sta	$12                     ; 0x2012 <main+0x1aa8>
     e95: a6 63        	ldx	$63                     ; 0x2063 <main+0x1af9>
     e97: d0 04        	bne	$e9d <main+0x933>
     e99: a9 00        	lda	#$0
     e9b: 92 24        	sta	($24)                   ; 0x2024 <main+0x1aba>
     e9d: 64 64        	stz	$64                     ; 0x2064 <main+0x1afa>
     e9f: 20 00 ff     	jsr	$ff00 <__heap_start+0x596c>
     ea2: 92 2a        	sta	($2a)                   ; 0x202a <main+0x1ac0>
     ea4: a9 00        	lda	#$0
     ea6: 6a           	ror
     ea7: 85 12        	sta	$12                     ; 0x2012 <main+0x1aa8>
     ea9: a6 64        	ldx	$64                     ; 0x2064 <main+0x1afa>
     eab: e0 46        	cpx	#$46
     ead: d0 d6        	bne	$e85 <main+0x91b>
     eaf: a0 10        	ldy	#$10
     eb1: b1 10        	lda	($10),y                 ; 0x2010 <main+0x1aa6>
     eb3: c9 04        	cmp	#$4
     eb5: 90 39        	bcc	$ef0 <main+0x986>
     eb7: 18           	clc
     eb8: a0 14        	ldy	#$14
     eba: b1 10        	lda	($10),y                 ; 0x2010 <main+0x1aa6>
     ebc: 69 02        	adc	#$2
     ebe: aa           	tax
     ebf: a0 12        	ldy	#$12
     ec1: b1 10        	lda	($10),y                 ; 0x2010 <main+0x1aa6>
     ec3: 69 00        	adc	#$0
     ec5: 86 12        	stx	$12                     ; 0x2012 <main+0x1aa8>
     ec7: a0 02        	ldy	#$2
     ec9: 85 13        	sta	$13                     ; 0x2013 <main+0x1aa9>
     ecb: b1 2c        	lda	($2c),y                 ; 0x202c <main+0x1ac2>
     ecd: aa           	tax
     ece: 88           	dey
     ecf: b1 12        	lda	($12),y                 ; 0x2012 <main+0x1aa8>
     ed1: 86 12        	stx	$12                     ; 0x2012 <main+0x1aa8>
     ed3: 85 13        	sta	$13                     ; 0x2013 <main+0x1aa9>
     ed5: b2 12        	lda	($12)                   ; 0x2012 <main+0x1aa8>
     ed7: c9 2d        	cmp	#$2d
     ed9: f0 15        	beq	$ef0 <main+0x986>
     edb: aa           	tax
     edc: f0 03        	beq	$ee1 <main+0x977>
     ede: 4c 55 0f     	jmp	$f55 <main+0x9eb>
     ee1: a6 48        	ldx	$48                     ; 0x2048 <main+0x1ade>
     ee3: a4 49        	ldy	$49                     ; 0x2049 <main+0x1adf>
     ee5: 86 12        	stx	$12                     ; 0x2012 <main+0x1aa8>
     ee7: 84 13        	sty	$13                     ; 0x2013 <main+0x1aa9>
     ee9: 64 17        	stz	$17                     ; 0x2017 <main+0x1aad>
     eeb: 64 18        	stz	$18                     ; 0x2018 <main+0x1aae>
     eed: 4c bc 0f     	jmp	$fbc <main+0xa52>
     ef0: a9 01        	lda	#$1
     ef2: 20 9d 4b     	jsr	$4b9d <filePickModal>
     ef5: aa           	tax
     ef6: f0 03        	beq	$efb <main+0x991>
     ef8: 4c 51 15     	jmp	$1551 <main+0xfe7>
     efb: a6 48        	ldx	$48                     ; 0x2048 <main+0x1ade>
     efd: a4 49        	ldy	$49                     ; 0x2049 <main+0x1adf>
     eff: 86 12        	stx	$12                     ; 0x2012 <main+0x1aa8>
     f01: 84 13        	sty	$13                     ; 0x2013 <main+0x1aa9>
     f03: a6 10        	ldx	$10                     ; 0x2010 <main+0x1aa6>
     f05: a9 33        	lda	#$33
     f07: 92 10        	sta	($10)                   ; 0x2010 <main+0x1aa6>
     f09: a0 01        	ldy	#$1
     f0b: a9 92        	lda	#$92
     f0d: 91 10        	sta	($10),y                 ; 0x2010 <main+0x1aa6>
     f0f: a9 63        	lda	#$63
     f11: c8           	iny
     f12: 91 10        	sta	($10),y                 ; 0x2010 <main+0x1aa6>
     f14: a0 04        	ldy	#$4
     f16: a9 53        	lda	#$53
     f18: 91 10        	sta	($10),y                 ; 0x2010 <main+0x1aa6>
     f1a: 18           	clc
     f1b: 8a           	txa
     f1c: 69 02        	adc	#$2
     f1e: 85 14        	sta	$14                     ; 0x2014 <main+0x1aaa>
     f20: a5 11        	lda	$11                     ; 0x2011 <main+0x1aa7>
     f22: 69 00        	adc	#$0
     f24: 18           	clc
     f25: 85 15        	sta	$15                     ; 0x2015 <main+0x1aab>
     f27: a9 88        	lda	#$88
     f29: a0 01        	ldy	#$1
     f2b: 91 14        	sta	($14),y                 ; 0x2014 <main+0x1aaa>
     f2d: 8a           	txa
     f2e: 69 04        	adc	#$4
     f30: 85 14        	sta	$14                     ; 0x2014 <main+0x1aaa>
     f32: a5 11        	lda	$11                     ; 0x2011 <main+0x1aa7>
     f34: 69 00        	adc	#$0
     f36: 85 15        	sta	$15                     ; 0x2015 <main+0x1aab>
     f38: a9 92        	lda	#$92
     f3a: 91 14        	sta	($14),y                 ; 0x2014 <main+0x1aaa>
     f3c: a2 57        	ldx	#$57
     f3e: 86 14        	stx	$14                     ; 0x2014 <main+0x1aaa>
     f40: a2 8d        	ldx	#$8d
     f42: 86 15        	stx	$15                     ; 0x2015 <main+0x1aab>
     f44: 20 ec 7d     	jsr	$7dec <sprintf>
     f47: a6 48        	ldx	$48                     ; 0x2048 <main+0x1ade>
     f49: a4 49        	ldy	$49                     ; 0x2049 <main+0x1adf>
     f4b: 86 12        	stx	$12                     ; 0x2012 <main+0x1aa8>
     f4d: 84 13        	sty	$13                     ; 0x2013 <main+0x1aa9>
     f4f: 20 f8 51     	jsr	$51f8 <loadSMFile>
     f52: 4c 91 10     	jmp	$1091 <main+0xb27>
     f55: a6 48        	ldx	$48                     ; 0x2048 <main+0x1ade>
     f57: a4 49        	ldy	$49                     ; 0x2049 <main+0x1adf>
     f59: 86 19        	stx	$19                     ; 0x2019 <main+0x1aaf>
     f5b: 86 12        	stx	$12                     ; 0x2012 <main+0x1aa8>
     f5d: 84 1a        	sty	$1a                     ; 0x201a <main+0x1ab0>
     f5f: 84 13        	sty	$13                     ; 0x2013 <main+0x1aa9>
     f61: 85 1d        	sta	$1d                     ; 0x201d <main+0x1ab3>
     f63: 64 17        	stz	$17                     ; 0x2017 <main+0x1aad>
     f65: 64 18        	stz	$18                     ; 0x2018 <main+0x1aae>
     f67: a0 14        	ldy	#$14
     f69: b1 10        	lda	($10),y                 ; 0x2010 <main+0x1aa6>
     f6b: 85 16        	sta	$16                     ; 0x2016 <main+0x1aac>
     f6d: a0 12        	ldy	#$12
     f6f: b1 10        	lda	($10),y                 ; 0x2010 <main+0x1aa6>
     f71: aa           	tax
     f72: a4 18        	ldy	$18                     ; 0x2018 <main+0x1aae>
     f74: 84 1b        	sty	$1b                     ; 0x201b <main+0x1ab1>
     f76: a4 17        	ldy	$17                     ; 0x2017 <main+0x1aad>
     f78: 84 14        	sty	$14                     ; 0x2014 <main+0x1aaa>
     f7a: 84 1c        	sty	$1c                     ; 0x201c <main+0x1ab2>
     f7c: a5 19        	lda	$19                     ; 0x2019 <main+0x1aaf>
     f7e: 18           	clc
     f7f: 65 14        	adc	$14                     ; 0x2014 <main+0x1aaa>
     f81: a8           	tay
     f82: a5 1a        	lda	$1a                     ; 0x201a <main+0x1ab0>
     f84: 65 18        	adc	$18                     ; 0x2018 <main+0x1aae>
     f86: 84 14        	sty	$14                     ; 0x2014 <main+0x1aaa>
     f88: 85 15        	sta	$15                     ; 0x2015 <main+0x1aab>
     f8a: a5 1d        	lda	$1d                     ; 0x201d <main+0x1ab3>
     f8c: 92 14        	sta	($14)                   ; 0x2014 <main+0x1aaa>
     f8e: 18           	clc
     f8f: a5 16        	lda	$16                     ; 0x2016 <main+0x1aac>
     f91: 69 02        	adc	#$2
     f93: 85 14        	sta	$14                     ; 0x2014 <main+0x1aaa>
     f95: 8a           	txa
     f96: 69 00        	adc	#$0
     f98: e6 17        	inc	$17                     ; 0x2017 <main+0x1aad>
     f9a: d0 02        	bne	$f9e <main+0xa34>
     f9c: e6 18        	inc	$18                     ; 0x2018 <main+0x1aae>
     f9e: 85 15        	sta	$15                     ; 0x2015 <main+0x1aab>
     fa0: 18           	clc
     fa1: a0 02        	ldy	#$2
     fa3: a5 1c        	lda	$1c                     ; 0x201c <main+0x1ab2>
     fa5: 71 2c        	adc	($2c),y                 ; 0x202c <main+0x1ac2>
     fa7: 85 1c        	sta	$1c                     ; 0x201c <main+0x1ab2>
     fa9: 88           	dey
     faa: a5 1b        	lda	$1b                     ; 0x201b <main+0x1ab1>
     fac: 71 14        	adc	($14),y                 ; 0x2014 <main+0x1aaa>
     fae: 5a           	phy
     faf: a4 1c        	ldy	$1c                     ; 0x201c <main+0x1ab2>
     fb1: 84 14        	sty	$14                     ; 0x2014 <main+0x1aaa>
     fb3: 7a           	ply
     fb4: 85 15        	sta	$15                     ; 0x2015 <main+0x1aab>
     fb6: b1 14        	lda	($14),y                 ; 0x2014 <main+0x1aaa>
     fb8: 85 1d        	sta	$1d                     ; 0x201d <main+0x1ab3>
     fba: d0 b6        	bne	$f72 <main+0xa08>
     fbc: 18           	clc
     fbd: a5 17        	lda	$17                     ; 0x2017 <main+0x1aad>
     fbf: 65 12        	adc	$12                     ; 0x2012 <main+0x1aa8>
     fc1: 85 14        	sta	$14                     ; 0x2014 <main+0x1aaa>
     fc3: a5 18        	lda	$18                     ; 0x2018 <main+0x1aae>
     fc5: 65 13        	adc	$13                     ; 0x2013 <main+0x1aa9>
     fc7: 85 15        	sta	$15                     ; 0x2015 <main+0x1aab>
     fc9: a9 00        	lda	#$0
     fcb: 92 14        	sta	($14)                   ; 0x2014 <main+0x1aaa>
     fcd: b2 12        	lda	($12)                   ; 0x2012 <main+0x1aa8>
     fcf: aa           	tax
     fd0: b2 12        	lda	($12)                   ; 0x2012 <main+0x1aa8>
     fd2: 8d 53 92     	sta	$9253                   ; 0x9253 <fpr+0x22>
     fd5: 8a           	txa
     fd6: f0 30        	beq	$1008 <main+0xa9e>
     fd8: a2 54        	ldx	#$54
     fda: 86 14        	stx	$14                     ; 0x2014 <main+0x1aaa>
     fdc: a2 92        	ldx	#$92
     fde: 86 15        	stx	$15                     ; 0x2015 <main+0x1aab>
     fe0: a0 01        	ldy	#$1
     fe2: a6 12        	ldx	$12                     ; 0x2012 <main+0x1aa8>
     fe4: 86 16        	stx	$16                     ; 0x2016 <main+0x1aac>
     fe6: a6 13        	ldx	$13                     ; 0x2013 <main+0x1aa9>
     fe8: 86 17        	stx	$17                     ; 0x2017 <main+0x1aad>
     fea: e6 16        	inc	$16                     ; 0x2016 <main+0x1aac>
     fec: d0 02        	bne	$ff0 <main+0xa86>
     fee: e6 17        	inc	$17                     ; 0x2017 <main+0x1aad>
     ff0: b1 12        	lda	($12),y                 ; 0x2012 <main+0x1aa8>
     ff2: aa           	tax
     ff3: b1 12        	lda	($12),y                 ; 0x2012 <main+0x1aa8>
     ff5: 92 14        	sta	($14)                   ; 0x2014 <main+0x1aaa>
     ff7: e6 14        	inc	$14                     ; 0x2014 <main+0x1aaa>
     ff9: d0 02        	bne	$ffd <main+0xa93>
     ffb: e6 15        	inc	$15                     ; 0x2015 <main+0x1aab>
     ffd: a5 16        	lda	$16                     ; 0x2016 <main+0x1aac>
     fff: 85 12        	sta	$12                     ; 0x2012 <main+0x1aa8>
    1001: a5 17        	lda	$17                     ; 0x2017 <main+0x1aad>
    1003: 85 13        	sta	$13                     ; 0x2013 <main+0x1aa9>
    1005: 8a           	txa
    1006: d0 e2        	bne	$fea <main+0xa80>
    1008: a0 14        	ldy	#$14
    100a: b1 10        	lda	($10),y                 ; 0x2010 <main+0x1aa6>
    100c: 85 24        	sta	$24                     ; 0x2024 <main+0x1aba>
    100e: 18           	clc
    100f: 69 02        	adc	#$2
    1011: 85 14        	sta	$14                     ; 0x2014 <main+0x1aaa>
    1013: a0 12        	ldy	#$12
    1015: b1 10        	lda	($10),y                 ; 0x2010 <main+0x1aa6>
    1017: 85 25        	sta	$25                     ; 0x2025 <main+0x1abb>
    1019: 69 00        	adc	#$0
    101b: a0 02        	ldy	#$2
    101d: 85 15        	sta	$15                     ; 0x2015 <main+0x1aab>
    101f: b1 2c        	lda	($2c),y                 ; 0x202c <main+0x1ac2>
    1021: 88           	dey
    1022: 85 12        	sta	$12                     ; 0x2012 <main+0x1aa8>
    1024: b1 14        	lda	($14),y                 ; 0x2014 <main+0x1aaa>
    1026: 85 13        	sta	$13                     ; 0x2013 <main+0x1aa9>
    1028: 20 f8 51     	jsr	$51f8 <loadSMFile>
    102b: aa           	tax
    102c: d0 03        	bne	$1031 <main+0xac7>
    102e: 4c 91 10     	jmp	$1091 <main+0xb27>
    1031: 18           	clc
    1032: a5 24        	lda	$24                     ; 0x2024 <main+0x1aba>
    1034: 69 02        	adc	#$2
    1036: 85 12        	sta	$12                     ; 0x2012 <main+0x1aa8>
    1038: a5 25        	lda	$25                     ; 0x2025 <main+0x1abb>
    103a: 69 00        	adc	#$0
    103c: 85 13        	sta	$13                     ; 0x2013 <main+0x1aa9>
    103e: a0 02        	ldy	#$2
    1040: b1 2c        	lda	($2c),y                 ; 0x202c <main+0x1ac2>
    1042: 85 14        	sta	$14                     ; 0x2014 <main+0x1aaa>
    1044: 88           	dey
    1045: b1 12        	lda	($12),y                 ; 0x2012 <main+0x1aa8>
    1047: 85 12        	sta	$12                     ; 0x2012 <main+0x1aa8>
    1049: a5 14        	lda	$14                     ; 0x2014 <main+0x1aaa>
    104b: 92 10        	sta	($10)                   ; 0x2010 <main+0x1aa6>
    104d: a5 12        	lda	$12                     ; 0x2012 <main+0x1aa8>
    104f: 91 10        	sta	($10),y                 ; 0x2010 <main+0x1aa6>
    1051: a2 50        	ldx	#$50
    1053: 86 12        	stx	$12                     ; 0x2012 <main+0x1aa8>
    1055: a2 88        	ldx	#$88
    1057: 86 13        	stx	$13                     ; 0x2013 <main+0x1aa9>
    1059: 20 64 7d     	jsr	$7d64 <printf>
    105c: a2 b7        	ldx	#$b7
    105e: 86 12        	stx	$12                     ; 0x2012 <main+0x1aa8>
    1060: a2 8d        	ldx	#$8d
    1062: 86 13        	stx	$13                     ; 0x2013 <main+0x1aa9>
    1064: 20 64 7d     	jsr	$7d64 <printf>
    1067: a2 63        	ldx	#$63
    1069: 86 12        	stx	$12                     ; 0x2012 <main+0x1aa8>
    106b: a2 00        	ldx	#$0
    106d: 86 13        	stx	$13                     ; 0x2013 <main+0x1aa9>
    106f: 64 64        	stz	$64                     ; 0x2064 <main+0x1afa>
    1071: 20 00 ff     	jsr	$ff00 <__heap_start+0x596c>
    1074: 92 2a        	sta	($2a)                   ; 0x202a <main+0x1ac0>
    1076: a9 00        	lda	#$0
    1078: 6a           	ror
    1079: 85 12        	sta	$12                     ; 0x2012 <main+0x1aa8>
    107b: a6 64        	ldx	$64                     ; 0x2064 <main+0x1afa>
    107d: e0 08        	cpx	#$8
    107f: d0 ee        	bne	$106f <main+0xb05>
    1081: a6 68        	ldx	$68                     ; 0x2068 <main+0x1afe>
    1083: e0 94        	cpx	#$94
    1085: d0 03        	bne	$108a <main+0xb20>
    1087: 4c 51 15     	jmp	$1551 <main+0xfe7>
    108a: e0 20        	cpx	#$20
    108c: d0 e1        	bne	$106f <main+0xb05>
    108e: 4c 51 15     	jmp	$1551 <main+0xfe7>
    1091: a6 01        	ldx	$1                      ; 0x2001 <main+0x1a97>
    1093: 86 12        	stx	$12                     ; 0x2012 <main+0x1aa8>
    1095: 64 01        	stz	$1                      ; 0x2001 <main+0x1a97>
    1097: a2 ff        	ldx	#$ff
    1099: 8e 00 d8     	stx	$d800                   ; 0xd800 <__heap_start+0x326c>
    109c: 8e 01 d8     	stx	$d801                   ; 0xd801 <__heap_start+0x326d>
    109f: 8e 02 d8     	stx	$d802                   ; 0xd802 <__heap_start+0x326e>
    10a2: 9c 03 d8     	stz	$d803                   ; 0xd803 <__heap_start+0x326f>
    10a5: 9c 04 d8     	stz	$d804                   ; 0xd804 <__heap_start+0x3270>
    10a8: a2 cd        	ldx	#$cd
    10aa: 8e 05 d8     	stx	$d805                   ; 0xd805 <__heap_start+0x3271>
    10ad: 8e 06 d8     	stx	$d806                   ; 0xd806 <__heap_start+0x3272>
    10b0: 9c 07 d8     	stz	$d807                   ; 0xd807 <__heap_start+0x3273>
    10b3: 9c 08 d8     	stz	$d808                   ; 0xd808 <__heap_start+0x3274>
    10b6: a2 d7        	ldx	#$d7
    10b8: 8e 09 d8     	stx	$d809                   ; 0xd809 <__heap_start+0x3275>
    10bb: 8e 0a d8     	stx	$d80a                   ; 0xd80a <__heap_start+0x3276>
    10be: 9c 0b d8     	stz	$d80b                   ; 0xd80b <__heap_start+0x3277>
    10c1: 9c 0c d8     	stz	$d80c                   ; 0xd80c <__heap_start+0x3278>
    10c4: a2 e1        	ldx	#$e1
    10c6: 8e 0d d8     	stx	$d80d                   ; 0xd80d <__heap_start+0x3279>
    10c9: 8e 0e d8     	stx	$d80e                   ; 0xd80e <__heap_start+0x327a>
    10cc: 9c 0f d8     	stz	$d80f                   ; 0xd80f <__heap_start+0x327b>
    10cf: 9c 10 d8     	stz	$d810                   ; 0xd810 <__heap_start+0x327c>
    10d2: a0 eb        	ldy	#$eb
    10d4: 8c 11 d8     	sty	$d811                   ; 0xd811 <__heap_start+0x327d>
    10d7: 8c 12 d8     	sty	$d812                   ; 0xd812 <__heap_start+0x327e>
    10da: 9c 13 d8     	stz	$d813                   ; 0xd813 <__heap_start+0x327f>
    10dd: 9c 14 d8     	stz	$d814                   ; 0xd814 <__heap_start+0x3280>
    10e0: a2 f5        	ldx	#$f5
    10e2: 8e 15 d8     	stx	$d815                   ; 0xd815 <__heap_start+0x3281>
    10e5: 8e 16 d8     	stx	$d816                   ; 0xd816 <__heap_start+0x3282>
    10e8: 9c 17 d8     	stz	$d817                   ; 0xd817 <__heap_start+0x3283>
    10eb: 9c 18 d8     	stz	$d818                   ; 0xd818 <__heap_start+0x3284>
    10ee: a9 66        	lda	#$66
    10f0: 8d 19 d8     	sta	$d819                   ; 0xd819 <__heap_start+0x3285>
    10f3: a9 cd        	lda	#$cd
    10f5: 8d 1a d8     	sta	$d81a                   ; 0xd81a <__heap_start+0x3286>
    10f8: 9c 1b d8     	stz	$d81b                   ; 0xd81b <__heap_start+0x3287>
    10fb: 9c 1c d8     	stz	$d81c                   ; 0xd81c <__heap_start+0x3288>
    10fe: a9 6b        	lda	#$6b
    1100: 8d 1d d8     	sta	$d81d                   ; 0xd81d <__heap_start+0x3289>
    1103: a9 d7        	lda	#$d7
    1105: 8d 1e d8     	sta	$d81e                   ; 0xd81e <__heap_start+0x328a>
    1108: 9c 1f d8     	stz	$d81f                   ; 0xd81f <__heap_start+0x328b>
    110b: 9c 20 d8     	stz	$d820                   ; 0xd820 <__heap_start+0x328c>
    110e: a9 70        	lda	#$70
    1110: 8d 21 d8     	sta	$d821                   ; 0xd821 <__heap_start+0x328d>
    1113: a9 e1        	lda	#$e1
    1115: 8d 22 d8     	sta	$d822                   ; 0xd822 <__heap_start+0x328e>
    1118: 9c 23 d8     	stz	$d823                   ; 0xd823 <__heap_start+0x328f>
    111b: 9c 24 d8     	stz	$d824                   ; 0xd824 <__heap_start+0x3290>
    111e: a9 75        	lda	#$75
    1120: 8d 25 d8     	sta	$d825                   ; 0xd825 <__heap_start+0x3291>
    1123: 8c 26 d8     	sty	$d826                   ; 0xd826 <__heap_start+0x3292>
    1126: 9c 27 d8     	stz	$d827                   ; 0xd827 <__heap_start+0x3293>
    1129: 9c 28 d8     	stz	$d828                   ; 0xd828 <__heap_start+0x3294>
    112c: a9 7a        	lda	#$7a
    112e: 8d 29 d8     	sta	$d829                   ; 0xd829 <__heap_start+0x3295>
    1131: 8e 2a d8     	stx	$d82a                   ; 0xd82a <__heap_start+0x3296>
    1134: 9c 2b d8     	stz	$d82b                   ; 0xd82b <__heap_start+0x3297>
    1137: 9c 2c d8     	stz	$d82c                   ; 0xd82c <__heap_start+0x3298>
    113a: 9c 2d d8     	stz	$d82d                   ; 0xd82d <__heap_start+0x3299>
    113d: a9 cd        	lda	#$cd
    113f: 8d 2e d8     	sta	$d82e                   ; 0xd82e <__heap_start+0x329a>
    1142: 9c 2f d8     	stz	$d82f                   ; 0xd82f <__heap_start+0x329b>
    1145: 9c 30 d8     	stz	$d830                   ; 0xd830 <__heap_start+0x329c>
    1148: 9c 31 d8     	stz	$d831                   ; 0xd831 <__heap_start+0x329d>
    114b: a9 d7        	lda	#$d7
    114d: 8d 32 d8     	sta	$d832                   ; 0xd832 <__heap_start+0x329e>
    1150: 9c 33 d8     	stz	$d833                   ; 0xd833 <__heap_start+0x329f>
    1153: 9c 34 d8     	stz	$d834                   ; 0xd834 <__heap_start+0x32a0>
    1156: 9c 35 d8     	stz	$d835                   ; 0xd835 <__heap_start+0x32a1>
    1159: a9 e1        	lda	#$e1
    115b: 8d 36 d8     	sta	$d836                   ; 0xd836 <__heap_start+0x32a2>
    115e: 9c 37 d8     	stz	$d837                   ; 0xd837 <__heap_start+0x32a3>
    1161: 9c 38 d8     	stz	$d838                   ; 0xd838 <__heap_start+0x32a4>
    1164: 9c 39 d8     	stz	$d839                   ; 0xd839 <__heap_start+0x32a5>
    1167: 8c 3a d8     	sty	$d83a                   ; 0xd83a <__heap_start+0x32a6>
    116a: 64 24        	stz	$24                     ; 0x2024 <main+0x1aba>
    116c: 9c 3b d8     	stz	$d83b                   ; 0xd83b <__heap_start+0x32a7>
    116f: 9c 3c d8     	stz	$d83c                   ; 0xd83c <__heap_start+0x32a8>
    1172: 9c 3d d8     	stz	$d83d                   ; 0xd83d <__heap_start+0x32a9>
    1175: 8e 3e d8     	stx	$d83e                   ; 0xd83e <__heap_start+0x32aa>
    1178: 9c 3f d8     	stz	$d83f                   ; 0xd83f <__heap_start+0x32ab>
    117b: a6 12        	ldx	$12                     ; 0x2012 <main+0x1aa8>
    117d: 86 01        	stx	$1                      ; 0x2001 <main+0x1a97>
    117f: 64 38        	stz	$38                     ; 0x2038 <main+0x1ace>
    1181: 9c 14 d0     	stz	$d014                   ; 0xd014 <__heap_start+0x2a80>
    1184: 9c 15 d0     	stz	$d015                   ; 0xd015 <__heap_start+0x2a81>
    1187: a2 19        	ldx	#$19
    1189: 86 39        	stx	$39                     ; 0x2039 <main+0x1acf>
    118b: 8e 16 d0     	stx	$d016                   ; 0xd016 <__heap_start+0x2a82>
    118e: 9c 17 d0     	stz	$d017                   ; 0xd017 <__heap_start+0x2a83>
    1191: a5 48        	lda	$48                     ; 0x2048 <main+0x1ade>
    1193: a6 49        	ldx	$49                     ; 0x2049 <main+0x1adf>
    1195: 92 10        	sta	($10)                   ; 0x2010 <main+0x1aa6>
    1197: a0 01        	ldy	#$1
    1199: 8a           	txa
    119a: 91 10        	sta	($10),y                 ; 0x2010 <main+0x1aa6>
    119c: a2 85        	ldx	#$85
    119e: 86 12        	stx	$12                     ; 0x2012 <main+0x1aa8>
    11a0: a2 8c        	ldx	#$8c
    11a2: 86 13        	stx	$13                     ; 0x2013 <main+0x1aa9>
    11a4: 20 64 7d     	jsr	$7d64 <printf>
    11a7: a6 01        	ldx	$1                      ; 0x2001 <main+0x1a97>
    11a9: 86 14        	stx	$14                     ; 0x2014 <main+0x1aaa>
    11ab: a2 02        	ldx	#$2
    11ad: 86 01        	stx	$1                      ; 0x2001 <main+0x1a97>
    11af: a0 c0        	ldy	#$c0
    11b1: a2 3c        	ldx	#$3c
    11b3: a5 24        	lda	$24                     ; 0x2024 <main+0x1aba>
    11b5: 85 12        	sta	$12                     ; 0x2012 <main+0x1aa8>
    11b7: 84 13        	sty	$13                     ; 0x2013 <main+0x1aa9>
    11b9: a9 20        	lda	#$20
    11bb: 92 12        	sta	($12)                   ; 0x2012 <main+0x1aa8>
    11bd: ca           	dex
    11be: 18           	clc
    11bf: a5 12        	lda	$12                     ; 0x2012 <main+0x1aa8>
    11c1: 69 50        	adc	#$50
    11c3: 85 12        	sta	$12                     ; 0x2012 <main+0x1aa8>
    11c5: a5 13        	lda	$13                     ; 0x2013 <main+0x1aa9>
    11c7: 69 00        	adc	#$0
    11c9: 85 13        	sta	$13                     ; 0x2013 <main+0x1aa9>
    11cb: 8a           	txa
    11cc: d0 eb        	bne	$11b9 <main+0xc4f>
    11ce: e6 24        	inc	$24                     ; 0x2024 <main+0x1aba>
    11d0: d0 01        	bne	$11d3 <main+0xc69>
    11d2: c8           	iny
    11d3: a6 24        	ldx	$24                     ; 0x2024 <main+0x1aba>
    11d5: e0 50        	cpx	#$50
    11d7: d0 d8        	bne	$11b1 <main+0xc47>
    11d9: a6 14        	ldx	$14                     ; 0x2014 <main+0x1aaa>
    11db: 86 01        	stx	$1                      ; 0x2001 <main+0x1a97>
    11dd: 20 5f 4f     	jsr	$4f5f <detectStructure>
    11e0: 20 4e 6b     	jsr	$6b4e <displayInfo>
    11e3: a2 c0        	ldx	#$c0
    11e5: 8e a1 dd     	stx	$dda1                   ; 0xdda1 <__heap_start+0x380d>
    11e8: 9c a1 dd     	stz	$dda1                   ; 0xdda1 <__heap_start+0x380d>
    11eb: a2 b0        	ldx	#$b0
    11ed: 8e a1 dd     	stx	$dda1                   ; 0xdda1 <__heap_start+0x380d>
    11f0: a2 79        	ldx	#$79
    11f2: 8e a1 dd     	stx	$dda1                   ; 0xdda1 <__heap_start+0x380d>
    11f5: 9c a1 dd     	stz	$dda1                   ; 0xdda1 <__heap_start+0x380d>
    11f8: a0 c1        	ldy	#$c1
    11fa: 8c a1 dd     	sty	$dda1                   ; 0xdda1 <__heap_start+0x380d>
    11fd: 9c a1 dd     	stz	$dda1                   ; 0xdda1 <__heap_start+0x380d>
    1200: a0 b1        	ldy	#$b1
    1202: 8c a1 dd     	sty	$dda1                   ; 0xdda1 <__heap_start+0x380d>
    1205: 8e a1 dd     	stx	$dda1                   ; 0xdda1 <__heap_start+0x380d>
    1208: 9c a1 dd     	stz	$dda1                   ; 0xdda1 <__heap_start+0x380d>
    120b: a0 c2        	ldy	#$c2
    120d: 8c a1 dd     	sty	$dda1                   ; 0xdda1 <__heap_start+0x380d>
    1210: 9c a1 dd     	stz	$dda1                   ; 0xdda1 <__heap_start+0x380d>
    1213: a0 b2        	ldy	#$b2
    1215: 8c a1 dd     	sty	$dda1                   ; 0xdda1 <__heap_start+0x380d>
    1218: 8e a1 dd     	stx	$dda1                   ; 0xdda1 <__heap_start+0x380d>
    121b: 9c a1 dd     	stz	$dda1                   ; 0xdda1 <__heap_start+0x380d>
    121e: a0 c3        	ldy	#$c3
    1220: 8c a1 dd     	sty	$dda1                   ; 0xdda1 <__heap_start+0x380d>
    1223: 9c a1 dd     	stz	$dda1                   ; 0xdda1 <__heap_start+0x380d>
    1226: a0 b3        	ldy	#$b3
    1228: 8c a1 dd     	sty	$dda1                   ; 0xdda1 <__heap_start+0x380d>
    122b: 8e a1 dd     	stx	$dda1                   ; 0xdda1 <__heap_start+0x380d>
    122e: 9c a1 dd     	stz	$dda1                   ; 0xdda1 <__heap_start+0x380d>
    1231: a0 c4        	ldy	#$c4
    1233: 8c a1 dd     	sty	$dda1                   ; 0xdda1 <__heap_start+0x380d>
    1236: 9c a1 dd     	stz	$dda1                   ; 0xdda1 <__heap_start+0x380d>
    1239: a0 b4        	ldy	#$b4
    123b: 8c a1 dd     	sty	$dda1                   ; 0xdda1 <__heap_start+0x380d>
    123e: 8e a1 dd     	stx	$dda1                   ; 0xdda1 <__heap_start+0x380d>
    1241: 9c a1 dd     	stz	$dda1                   ; 0xdda1 <__heap_start+0x380d>
    1244: a0 c5        	ldy	#$c5
    1246: 8c a1 dd     	sty	$dda1                   ; 0xdda1 <__heap_start+0x380d>
    1249: 9c a1 dd     	stz	$dda1                   ; 0xdda1 <__heap_start+0x380d>
    124c: a0 b5        	ldy	#$b5
    124e: 8c a1 dd     	sty	$dda1                   ; 0xdda1 <__heap_start+0x380d>
    1251: 8e a1 dd     	stx	$dda1                   ; 0xdda1 <__heap_start+0x380d>
    1254: 9c a1 dd     	stz	$dda1                   ; 0xdda1 <__heap_start+0x380d>
    1257: a0 c6        	ldy	#$c6
    1259: 8c a1 dd     	sty	$dda1                   ; 0xdda1 <__heap_start+0x380d>
    125c: 9c a1 dd     	stz	$dda1                   ; 0xdda1 <__heap_start+0x380d>
    125f: a0 b6        	ldy	#$b6
    1261: 8c a1 dd     	sty	$dda1                   ; 0xdda1 <__heap_start+0x380d>
    1264: 8e a1 dd     	stx	$dda1                   ; 0xdda1 <__heap_start+0x380d>
    1267: 9c a1 dd     	stz	$dda1                   ; 0xdda1 <__heap_start+0x380d>
    126a: a0 c7        	ldy	#$c7
    126c: 8c a1 dd     	sty	$dda1                   ; 0xdda1 <__heap_start+0x380d>
    126f: 9c a1 dd     	stz	$dda1                   ; 0xdda1 <__heap_start+0x380d>
    1272: a0 b7        	ldy	#$b7
    1274: 8c a1 dd     	sty	$dda1                   ; 0xdda1 <__heap_start+0x380d>
    1277: 8e a1 dd     	stx	$dda1                   ; 0xdda1 <__heap_start+0x380d>
    127a: 9c a1 dd     	stz	$dda1                   ; 0xdda1 <__heap_start+0x380d>
    127d: a0 c8        	ldy	#$c8
    127f: 8c a1 dd     	sty	$dda1                   ; 0xdda1 <__heap_start+0x380d>
    1282: 9c a1 dd     	stz	$dda1                   ; 0xdda1 <__heap_start+0x380d>
    1285: a0 b8        	ldy	#$b8
    1287: 8c a1 dd     	sty	$dda1                   ; 0xdda1 <__heap_start+0x380d>
    128a: 8e a1 dd     	stx	$dda1                   ; 0xdda1 <__heap_start+0x380d>
    128d: 9c a1 dd     	stz	$dda1                   ; 0xdda1 <__heap_start+0x380d>
    1290: a0 c9        	ldy	#$c9
    1292: 8c a1 dd     	sty	$dda1                   ; 0xdda1 <__heap_start+0x380d>
    1295: 9c a1 dd     	stz	$dda1                   ; 0xdda1 <__heap_start+0x380d>
    1298: a0 b9        	ldy	#$b9
    129a: 8c a1 dd     	sty	$dda1                   ; 0xdda1 <__heap_start+0x380d>
    129d: 8e a1 dd     	stx	$dda1                   ; 0xdda1 <__heap_start+0x380d>
    12a0: 9c a1 dd     	stz	$dda1                   ; 0xdda1 <__heap_start+0x380d>
    12a3: a0 ca        	ldy	#$ca
    12a5: 8c a1 dd     	sty	$dda1                   ; 0xdda1 <__heap_start+0x380d>
    12a8: 9c a1 dd     	stz	$dda1                   ; 0xdda1 <__heap_start+0x380d>
    12ab: a0 ba        	ldy	#$ba
    12ad: 8c a1 dd     	sty	$dda1                   ; 0xdda1 <__heap_start+0x380d>
    12b0: 8e a1 dd     	stx	$dda1                   ; 0xdda1 <__heap_start+0x380d>
    12b3: 9c a1 dd     	stz	$dda1                   ; 0xdda1 <__heap_start+0x380d>
    12b6: a0 cb        	ldy	#$cb
    12b8: 8c a1 dd     	sty	$dda1                   ; 0xdda1 <__heap_start+0x380d>
    12bb: 9c a1 dd     	stz	$dda1                   ; 0xdda1 <__heap_start+0x380d>
    12be: a0 bb        	ldy	#$bb
    12c0: 8c a1 dd     	sty	$dda1                   ; 0xdda1 <__heap_start+0x380d>
    12c3: 8e a1 dd     	stx	$dda1                   ; 0xdda1 <__heap_start+0x380d>
    12c6: 9c a1 dd     	stz	$dda1                   ; 0xdda1 <__heap_start+0x380d>
    12c9: a0 cc        	ldy	#$cc
    12cb: 8c a1 dd     	sty	$dda1                   ; 0xdda1 <__heap_start+0x380d>
    12ce: 9c a1 dd     	stz	$dda1                   ; 0xdda1 <__heap_start+0x380d>
    12d1: a0 bc        	ldy	#$bc
    12d3: 8c a1 dd     	sty	$dda1                   ; 0xdda1 <__heap_start+0x380d>
    12d6: 8e a1 dd     	stx	$dda1                   ; 0xdda1 <__heap_start+0x380d>
    12d9: 9c a1 dd     	stz	$dda1                   ; 0xdda1 <__heap_start+0x380d>
    12dc: a0 cd        	ldy	#$cd
    12de: 8c a1 dd     	sty	$dda1                   ; 0xdda1 <__heap_start+0x380d>
    12e1: 9c a1 dd     	stz	$dda1                   ; 0xdda1 <__heap_start+0x380d>
    12e4: a0 bd        	ldy	#$bd
    12e6: 8c a1 dd     	sty	$dda1                   ; 0xdda1 <__heap_start+0x380d>
    12e9: 8e a1 dd     	stx	$dda1                   ; 0xdda1 <__heap_start+0x380d>
    12ec: 9c a1 dd     	stz	$dda1                   ; 0xdda1 <__heap_start+0x380d>
    12ef: a0 ce        	ldy	#$ce
    12f1: 8c a1 dd     	sty	$dda1                   ; 0xdda1 <__heap_start+0x380d>
    12f4: 9c a1 dd     	stz	$dda1                   ; 0xdda1 <__heap_start+0x380d>
    12f7: a0 be        	ldy	#$be
    12f9: 8c a1 dd     	sty	$dda1                   ; 0xdda1 <__heap_start+0x380d>
    12fc: 8e a1 dd     	stx	$dda1                   ; 0xdda1 <__heap_start+0x380d>
    12ff: 9c a1 dd     	stz	$dda1                   ; 0xdda1 <__heap_start+0x380d>
    1302: a0 cf        	ldy	#$cf
    1304: 8c a1 dd     	sty	$dda1                   ; 0xdda1 <__heap_start+0x380d>
    1307: 9c a1 dd     	stz	$dda1                   ; 0xdda1 <__heap_start+0x380d>
    130a: a0 bf        	ldy	#$bf
    130c: 8c a1 dd     	sty	$dda1                   ; 0xdda1 <__heap_start+0x380d>
    130f: 8e a1 dd     	stx	$dda1                   ; 0xdda1 <__heap_start+0x380d>
    1312: 9c a1 dd     	stz	$dda1                   ; 0xdda1 <__heap_start+0x380d>
    1315: a2 ff        	ldx	#$ff
    1317: 8e a1 dd     	stx	$dda1                   ; 0xdda1 <__heap_start+0x380d>
    131a: 8e a1 dd     	stx	$dda1                   ; 0xdda1 <__heap_start+0x380d>
    131d: 8e b1 dd     	stx	$ddb1                   ; 0xddb1 <__heap_start+0x381d>
    1320: a2 b0        	ldx	#$b0
    1322: 8e b1 dd     	stx	$ddb1                   ; 0xddb1 <__heap_start+0x381d>
    1325: a2 7b        	ldx	#$7b
    1327: 8e b1 dd     	stx	$ddb1                   ; 0xddb1 <__heap_start+0x381d>
    132a: 9c b1 dd     	stz	$ddb1                   ; 0xddb1 <__heap_start+0x381d>
    132d: a0 b1        	ldy	#$b1
    132f: 8c b1 dd     	sty	$ddb1                   ; 0xddb1 <__heap_start+0x381d>
    1332: 8e b1 dd     	stx	$ddb1                   ; 0xddb1 <__heap_start+0x381d>
    1335: 9c b1 dd     	stz	$ddb1                   ; 0xddb1 <__heap_start+0x381d>
    1338: a9 b2        	lda	#$b2
    133a: 8d b1 dd     	sta	$ddb1                   ; 0xddb1 <__heap_start+0x381d>
    133d: 8e b1 dd     	stx	$ddb1                   ; 0xddb1 <__heap_start+0x381d>
    1340: 9c b1 dd     	stz	$ddb1                   ; 0xddb1 <__heap_start+0x381d>
    1343: a0 b3        	ldy	#$b3
    1345: 8c b1 dd     	sty	$ddb1                   ; 0xddb1 <__heap_start+0x381d>
    1348: 8e b1 dd     	stx	$ddb1                   ; 0xddb1 <__heap_start+0x381d>
    134b: 9c b1 dd     	stz	$ddb1                   ; 0xddb1 <__heap_start+0x381d>
    134e: c8           	iny
    134f: 8c b1 dd     	sty	$ddb1                   ; 0xddb1 <__heap_start+0x381d>
    1352: 8e b1 dd     	stx	$ddb1                   ; 0xddb1 <__heap_start+0x381d>
    1355: 9c b1 dd     	stz	$ddb1                   ; 0xddb1 <__heap_start+0x381d>
    1358: c8           	iny
    1359: 8c b1 dd     	sty	$ddb1                   ; 0xddb1 <__heap_start+0x381d>
    135c: 8e b1 dd     	stx	$ddb1                   ; 0xddb1 <__heap_start+0x381d>
    135f: 9c b1 dd     	stz	$ddb1                   ; 0xddb1 <__heap_start+0x381d>
    1362: c8           	iny
    1363: 8c b1 dd     	sty	$ddb1                   ; 0xddb1 <__heap_start+0x381d>
    1366: 8e b1 dd     	stx	$ddb1                   ; 0xddb1 <__heap_start+0x381d>
    1369: 9c b1 dd     	stz	$ddb1                   ; 0xddb1 <__heap_start+0x381d>
    136c: c8           	iny
    136d: 8c b1 dd     	sty	$ddb1                   ; 0xddb1 <__heap_start+0x381d>
    1370: 8e b1 dd     	stx	$ddb1                   ; 0xddb1 <__heap_start+0x381d>
    1373: 9c b1 dd     	stz	$ddb1                   ; 0xddb1 <__heap_start+0x381d>
    1376: c8           	iny
    1377: 8c b1 dd     	sty	$ddb1                   ; 0xddb1 <__heap_start+0x381d>
    137a: 8e b1 dd     	stx	$ddb1                   ; 0xddb1 <__heap_start+0x381d>
    137d: 9c b1 dd     	stz	$ddb1                   ; 0xddb1 <__heap_start+0x381d>
    1380: c8           	iny
    1381: 8c b1 dd     	sty	$ddb1                   ; 0xddb1 <__heap_start+0x381d>
    1384: 8e b1 dd     	stx	$ddb1                   ; 0xddb1 <__heap_start+0x381d>
    1387: 9c b1 dd     	stz	$ddb1                   ; 0xddb1 <__heap_start+0x381d>
    138a: c8           	iny
    138b: 8c b1 dd     	sty	$ddb1                   ; 0xddb1 <__heap_start+0x381d>
    138e: 8e b1 dd     	stx	$ddb1                   ; 0xddb1 <__heap_start+0x381d>
    1391: 9c b1 dd     	stz	$ddb1                   ; 0xddb1 <__heap_start+0x381d>
    1394: c8           	iny
    1395: 8c b1 dd     	sty	$ddb1                   ; 0xddb1 <__heap_start+0x381d>
    1398: 8e b1 dd     	stx	$ddb1                   ; 0xddb1 <__heap_start+0x381d>
    139b: 9c b1 dd     	stz	$ddb1                   ; 0xddb1 <__heap_start+0x381d>
    139e: c8           	iny
    139f: 8c b1 dd     	sty	$ddb1                   ; 0xddb1 <__heap_start+0x381d>
    13a2: 8e b1 dd     	stx	$ddb1                   ; 0xddb1 <__heap_start+0x381d>
    13a5: 9c b1 dd     	stz	$ddb1                   ; 0xddb1 <__heap_start+0x381d>
    13a8: c8           	iny
    13a9: 8c b1 dd     	sty	$ddb1                   ; 0xddb1 <__heap_start+0x381d>
    13ac: 8e b1 dd     	stx	$ddb1                   ; 0xddb1 <__heap_start+0x381d>
    13af: 9c b1 dd     	stz	$ddb1                   ; 0xddb1 <__heap_start+0x381d>
    13b2: c8           	iny
    13b3: 8c b1 dd     	sty	$ddb1                   ; 0xddb1 <__heap_start+0x381d>
    13b6: 8e b1 dd     	stx	$ddb1                   ; 0xddb1 <__heap_start+0x381d>
    13b9: 9c b1 dd     	stz	$ddb1                   ; 0xddb1 <__heap_start+0x381d>
    13bc: c8           	iny
    13bd: 8c b1 dd     	sty	$ddb1                   ; 0xddb1 <__heap_start+0x381d>
    13c0: 8e b1 dd     	stx	$ddb1                   ; 0xddb1 <__heap_start+0x381d>
    13c3: 9c b1 dd     	stz	$ddb1                   ; 0xddb1 <__heap_start+0x381d>
    13c6: a0 b0        	ldy	#$b0
    13c8: 8c a1 dd     	sty	$dda1                   ; 0xdda1 <__heap_start+0x380d>
    13cb: 8e a1 dd     	stx	$dda1                   ; 0xdda1 <__heap_start+0x380d>
    13ce: 9c a1 dd     	stz	$dda1                   ; 0xdda1 <__heap_start+0x380d>
    13d1: c8           	iny
    13d2: 8c a1 dd     	sty	$dda1                   ; 0xdda1 <__heap_start+0x380d>
    13d5: 8e a1 dd     	stx	$dda1                   ; 0xdda1 <__heap_start+0x380d>
    13d8: 9c a1 dd     	stz	$dda1                   ; 0xdda1 <__heap_start+0x380d>
    13db: 8d a1 dd     	sta	$dda1                   ; 0xdda1 <__heap_start+0x380d>
    13de: 8e a1 dd     	stx	$dda1                   ; 0xdda1 <__heap_start+0x380d>
    13e1: 9c a1 dd     	stz	$dda1                   ; 0xdda1 <__heap_start+0x380d>
    13e4: a0 b3        	ldy	#$b3
    13e6: 8c a1 dd     	sty	$dda1                   ; 0xdda1 <__heap_start+0x380d>
    13e9: 8e a1 dd     	stx	$dda1                   ; 0xdda1 <__heap_start+0x380d>
    13ec: 9c a1 dd     	stz	$dda1                   ; 0xdda1 <__heap_start+0x380d>
    13ef: c8           	iny
    13f0: 8c a1 dd     	sty	$dda1                   ; 0xdda1 <__heap_start+0x380d>
    13f3: 8e a1 dd     	stx	$dda1                   ; 0xdda1 <__heap_start+0x380d>
    13f6: 9c a1 dd     	stz	$dda1                   ; 0xdda1 <__heap_start+0x380d>
    13f9: c8           	iny
    13fa: 8c a1 dd     	sty	$dda1                   ; 0xdda1 <__heap_start+0x380d>
    13fd: 8e a1 dd     	stx	$dda1                   ; 0xdda1 <__heap_start+0x380d>
    1400: 9c a1 dd     	stz	$dda1                   ; 0xdda1 <__heap_start+0x380d>
    1403: c8           	iny
    1404: 8c a1 dd     	sty	$dda1                   ; 0xdda1 <__heap_start+0x380d>
    1407: 8e a1 dd     	stx	$dda1                   ; 0xdda1 <__heap_start+0x380d>
    140a: 9c a1 dd     	stz	$dda1                   ; 0xdda1 <__heap_start+0x380d>
    140d: c8           	iny
    140e: 8c a1 dd     	sty	$dda1                   ; 0xdda1 <__heap_start+0x380d>
    1411: 8e a1 dd     	stx	$dda1                   ; 0xdda1 <__heap_start+0x380d>
    1414: 9c a1 dd     	stz	$dda1                   ; 0xdda1 <__heap_start+0x380d>
    1417: c8           	iny
    1418: 8c a1 dd     	sty	$dda1                   ; 0xdda1 <__heap_start+0x380d>
    141b: 8e a1 dd     	stx	$dda1                   ; 0xdda1 <__heap_start+0x380d>
    141e: 9c a1 dd     	stz	$dda1                   ; 0xdda1 <__heap_start+0x380d>
    1421: c8           	iny
    1422: 8c a1 dd     	sty	$dda1                   ; 0xdda1 <__heap_start+0x380d>
    1425: 8e a1 dd     	stx	$dda1                   ; 0xdda1 <__heap_start+0x380d>
    1428: 9c a1 dd     	stz	$dda1                   ; 0xdda1 <__heap_start+0x380d>
    142b: c8           	iny
    142c: 8c a1 dd     	sty	$dda1                   ; 0xdda1 <__heap_start+0x380d>
    142f: 8e a1 dd     	stx	$dda1                   ; 0xdda1 <__heap_start+0x380d>
    1432: 9c a1 dd     	stz	$dda1                   ; 0xdda1 <__heap_start+0x380d>
    1435: c8           	iny
    1436: 8c a1 dd     	sty	$dda1                   ; 0xdda1 <__heap_start+0x380d>
    1439: 8e a1 dd     	stx	$dda1                   ; 0xdda1 <__heap_start+0x380d>
    143c: 9c a1 dd     	stz	$dda1                   ; 0xdda1 <__heap_start+0x380d>
    143f: c8           	iny
    1440: 8c a1 dd     	sty	$dda1                   ; 0xdda1 <__heap_start+0x380d>
    1443: 8e a1 dd     	stx	$dda1                   ; 0xdda1 <__heap_start+0x380d>
    1446: 9c a1 dd     	stz	$dda1                   ; 0xdda1 <__heap_start+0x380d>
    1449: c8           	iny
    144a: 8c a1 dd     	sty	$dda1                   ; 0xdda1 <__heap_start+0x380d>
    144d: 8e a1 dd     	stx	$dda1                   ; 0xdda1 <__heap_start+0x380d>
    1450: 9c a1 dd     	stz	$dda1                   ; 0xdda1 <__heap_start+0x380d>
    1453: c8           	iny
    1454: 8c a1 dd     	sty	$dda1                   ; 0xdda1 <__heap_start+0x380d>
    1457: 8e a1 dd     	stx	$dda1                   ; 0xdda1 <__heap_start+0x380d>
    145a: 9c a1 dd     	stz	$dda1                   ; 0xdda1 <__heap_start+0x380d>
    145d: c8           	iny
    145e: 8c a1 dd     	sty	$dda1                   ; 0xdda1 <__heap_start+0x380d>
    1461: 8e a1 dd     	stx	$dda1                   ; 0xdda1 <__heap_start+0x380d>
    1464: 9c a1 dd     	stz	$dda1                   ; 0xdda1 <__heap_start+0x380d>
    1467: 20 23 66     	jsr	$6623 <initTrack>
    146a: a4 4f        	ldy	$4f                     ; 0x204f <main+0x1ae5>
    146c: a6 50        	ldx	$50                     ; 0x2050 <main+0x1ae6>
    146e: d0 06        	bne	$1476 <main+0xf0c>
    1470: 98           	tya
    1471: d0 03        	bne	$1476 <main+0xf0c>
    1473: 4c 0c 15     	jmp	$150c <main+0xfa2>
    1476: a5 60        	lda	$60                     ; 0x2060 <main+0x1af6>
    1478: 85 24        	sta	$24                     ; 0x2024 <main+0x1aba>
    147a: a5 61        	lda	$61                     ; 0x2061 <main+0x1af7>
    147c: 85 25        	sta	$25                     ; 0x2025 <main+0x1abb>
    147e: a9 19        	lda	#$19
    1480: 84 2c        	sty	$2c                     ; 0x202c <main+0x1ac2>
    1482: 86 2d        	stx	$2d                     ; 0x202d <main+0x1ac3>
    1484: a0 00        	ldy	#$0
    1486: 64 12        	stz	$12                     ; 0x2012 <main+0x1aa8>
    1488: 48           	pha
    1489: 98           	tya
    148a: 5a           	phy
    148b: a0 12        	ldy	#$12
    148d: 91 10        	sta	($10),y                 ; 0x2010 <main+0x1aa6>
    148f: 7a           	ply
    1490: 68           	pla
    1491: 85 12        	sta	$12                     ; 0x2012 <main+0x1aa8>
    1493: 64 13        	stz	$13                     ; 0x2013 <main+0x1aa9>
    1495: a2 00        	ldx	#$0
    1497: 98           	tya
    1498: 5a           	phy
    1499: a0 14        	ldy	#$14
    149b: 91 10        	sta	($10),y                 ; 0x2010 <main+0x1aa6>
    149d: 7a           	ply
    149e: 98           	tya
    149f: 20 7c 82     	jsr	$827c <__mulhi3>
    14a2: 18           	clc
    14a3: 65 24        	adc	$24                     ; 0x2024 <main+0x1aba>
    14a5: 85 12        	sta	$12                     ; 0x2012 <main+0x1aa8>
    14a7: 8a           	txa
    14a8: 65 25        	adc	$25                     ; 0x2025 <main+0x1abb>
    14aa: 85 14        	sta	$14                     ; 0x2014 <main+0x1aaa>
    14ac: 85 13        	sta	$13                     ; 0x2013 <main+0x1aa9>
    14ae: a0 18        	ldy	#$18
    14b0: b1 12        	lda	($12),y                 ; 0x2012 <main+0x1aa8>
    14b2: d0 2b        	bne	$14df <main+0xf75>
    14b4: 18           	clc
    14b5: a5 12        	lda	$12                     ; 0x2012 <main+0x1aa8>
    14b7: 69 0c        	adc	#$c
    14b9: aa           	tax
    14ba: a5 14        	lda	$14                     ; 0x2014 <main+0x1aaa>
    14bc: 69 00        	adc	#$0
    14be: 86 14        	stx	$14                     ; 0x2014 <main+0x1aaa>
    14c0: 85 15        	sta	$15                     ; 0x2015 <main+0x1aab>
    14c2: a0 0c        	ldy	#$c
    14c4: b1 12        	lda	($12),y                 ; 0x2012 <main+0x1aa8>
    14c6: 85 12        	sta	$12                     ; 0x2012 <main+0x1aa8>
    14c8: a0 01        	ldy	#$1
    14ca: b1 14        	lda	($14),y                 ; 0x2014 <main+0x1aaa>
    14cc: 85 13        	sta	$13                     ; 0x2013 <main+0x1aa9>
    14ce: c8           	iny
    14cf: b1 14        	lda	($14),y                 ; 0x2014 <main+0x1aaa>
    14d1: 85 16        	sta	$16                     ; 0x2016 <main+0x1aac>
    14d3: c8           	iny
    14d4: b1 14        	lda	($14),y                 ; 0x2014 <main+0x1aaa>
    14d6: d0 07        	bne	$14df <main+0xf75>
    14d8: a5 16        	lda	$16                     ; 0x2016 <main+0x1aac>
    14da: d0 03        	bne	$14df <main+0xf75>
    14dc: 4c ca 15     	jmp	$15ca <main+0x1060>
    14df: a0 14        	ldy	#$14
    14e1: b1 10        	lda	($10),y                 ; 0x2010 <main+0x1aa6>
    14e3: aa           	tax
    14e4: a0 12        	ldy	#$12
    14e6: b1 10        	lda	($10),y                 ; 0x2010 <main+0x1aa6>
    14e8: a8           	tay
    14e9: e8           	inx
    14ea: d0 01        	bne	$14ed <main+0xf83>
    14ec: c8           	iny
    14ed: c4 2d        	cpy	$2d                     ; 0x202d <main+0x1ac3>
    14ef: d0 09        	bne	$14fa <main+0xf90>
    14f1: 98           	tya
    14f2: a0 12        	ldy	#$12
    14f4: 91 10        	sta	($10),y                 ; 0x2010 <main+0x1aa6>
    14f6: e4 2c        	cpx	$2c                     ; 0x202c <main+0x1ac2>
    14f8: 80 09        	bra	$1503 <main+0xf99>
    14fa: 98           	tya
    14fb: 5a           	phy
    14fc: a0 12        	ldy	#$12
    14fe: 91 10        	sta	($10),y                 ; 0x2010 <main+0x1aa6>
    1500: 7a           	ply
    1501: c4 2d        	cpy	$2d                     ; 0x202d <main+0x1ac3>
    1503: a9 19        	lda	#$19
    1505: da           	phx
    1506: 7a           	ply
    1507: b0 03        	bcs	$150c <main+0xfa2>
    1509: 4c 91 14     	jmp	$1491 <main+0xf27>
    150c: 9c 54 d6     	stz	$d654                   ; 0xd654 <__heap_start+0x30c0>
    150f: a0 02        	ldy	#$2
    1511: 8c 50 d6     	sty	$d650                   ; 0xd650 <__heap_start+0x30bc>
    1514: a2 89        	ldx	#$89
    1516: 8e 50 d6     	stx	$d650                   ; 0xd650 <__heap_start+0x30bc>
    1519: a2 80        	ldx	#$80
    151b: 86 f3        	stx	$f3                     ; 0x20f3 <main+0x1b89>
    151d: a2 63        	ldx	#$63
    151f: 86 24        	stx	$24                     ; 0x2024 <main+0x1aba>
    1521: a2 00        	ldx	#$0
    1523: 86 25        	stx	$25                     ; 0x2025 <main+0x1abb>
    1525: 20 f0 ff     	jsr	$fff0 <__heap_start+0x5a5c>
    1528: 92 2a        	sta	($2a)                   ; 0x202a <main+0x1ac0>
    152a: a9 00        	lda	#$0
    152c: 6a           	ror
    152d: 85 24        	sta	$24                     ; 0x2024 <main+0x1aba>
    152f: a9 0a        	lda	#$a
    1531: 18           	clc
    1532: 72 2a        	adc	($2a)                   ; 0x202a <main+0x1ac0>
    1534: 85 47        	sta	$47                     ; 0x2047 <main+0x1add>
    1536: 64 f3        	stz	$f3                     ; 0x20f3 <main+0x1b89>
    1538: a6 47        	ldx	$47                     ; 0x2047 <main+0x1add>
    153a: 86 f4        	stx	$f4                     ; 0x20f4 <main+0x1b8a>
    153c: 84 f5        	sty	$f5                     ; 0x20f5 <main+0x1b8b>
    153e: 20 f0 ff     	jsr	$fff0 <__heap_start+0x5a5c>
    1541: 92 2a        	sta	($2a)                   ; 0x202a <main+0x1ac0>
    1543: a9 00        	lda	#$0
    1545: 6a           	ror
    1546: 85 24        	sta	$24                     ; 0x2024 <main+0x1aba>
    1548: a5 45        	lda	$45                     ; 0x2045 <main+0x1adb>
    154a: 29 01        	and	#$1
    154c: d0 03        	bne	$1551 <main+0xfe7>
    154e: 4c b5 15     	jmp	$15b5 <main+0x104b>
    1551: 78           	sei
    1552: a2 07        	ldx	#$7
    1554: 86 0f        	stx	$f                      ; 0x200f <main+0x1aa5>
    1556: a2 de        	ldx	#$de
    1558: 8e a2 d6     	stx	$d6a2                   ; 0xd6a2 <__heap_start+0x310e>
    155b: a2 ad        	ldx	#$ad
    155d: 8e a3 d6     	stx	$d6a3                   ; 0xd6a3 <__heap_start+0x310f>
    1560: a2 f0        	ldx	#$f0
    1562: 8e a0 d6     	stx	$d6a0                   ; 0xd6a0 <__heap_start+0x310c>
    1565: 9c a0 d6     	stz	$d6a0                   ; 0xd6a0 <__heap_start+0x310c>
    1568: 6c fc ff     	jmp	($fffc)                 ; 0xfffc <__heap_start+0x5a68>
    156b: a2 00        	ldx	#$0
    156d: 8a           	txa
    156e: 85 20        	sta	$20                     ; 0x2020 <main+0x1ab6>
    1570: a0 06        	ldy	#$6
    1572: b1 10        	lda	($10),y                 ; 0x2010 <main+0x1aa6>
    1574: 85 2f        	sta	$2f                     ; 0x202f <main+0x1ac5>
    1576: c8           	iny
    1577: b1 10        	lda	($10),y                 ; 0x2010 <main+0x1aa6>
    1579: 85 2e        	sta	$2e                     ; 0x202e <main+0x1ac4>
    157b: c8           	iny
    157c: b1 10        	lda	($10),y                 ; 0x2010 <main+0x1aa6>
    157e: 85 2d        	sta	$2d                     ; 0x202d <main+0x1ac3>
    1580: c8           	iny
    1581: b1 10        	lda	($10),y                 ; 0x2010 <main+0x1aa6>
    1583: 85 2c        	sta	$2c                     ; 0x202c <main+0x1ac2>
    1585: c8           	iny
    1586: b1 10        	lda	($10),y                 ; 0x2010 <main+0x1aa6>
    1588: 85 2b        	sta	$2b                     ; 0x202b <main+0x1ac1>
    158a: c8           	iny
    158b: b1 10        	lda	($10),y                 ; 0x2010 <main+0x1aa6>
    158d: 85 2a        	sta	$2a                     ; 0x202a <main+0x1ac0>
    158f: c8           	iny
    1590: b1 10        	lda	($10),y                 ; 0x2010 <main+0x1aa6>
    1592: 85 29        	sta	$29                     ; 0x2029 <main+0x1abf>
    1594: c8           	iny
    1595: b1 10        	lda	($10),y                 ; 0x2010 <main+0x1aa6>
    1597: 85 28        	sta	$28                     ; 0x2028 <main+0x1abe>
    1599: 7a           	ply
    159a: 84 27        	sty	$27                     ; 0x2027 <main+0x1abd>
    159c: 7a           	ply
    159d: 84 26        	sty	$26                     ; 0x2026 <main+0x1abc>
    159f: 7a           	ply
    15a0: 84 25        	sty	$25                     ; 0x2025 <main+0x1abb>
    15a2: 7a           	ply
    15a3: 84 24        	sty	$24                     ; 0x2024 <main+0x1aba>
    15a5: 18           	clc
    15a6: a5 10        	lda	$10                     ; 0x2010 <main+0x1aa6>
    15a8: 69 1f        	adc	#$1f
    15aa: 85 10        	sta	$10                     ; 0x2010 <main+0x1aa6>
    15ac: a5 11        	lda	$11                     ; 0x2011 <main+0x1aa7>
    15ae: 69 00        	adc	#$0
    15b0: 85 11        	sta	$11                     ; 0x2011 <main+0x1aa7>
    15b2: a5 20        	lda	$20                     ; 0x2020 <main+0x1ab6>
    15b4: 60           	rts
    15b5: a2 00        	ldx	#$0
    15b7: 86 2e        	stx	$2e                     ; 0x202e <main+0x1ac4>
    15b9: a2 00        	ldx	#$0
    15bb: 86 2f        	stx	$2f                     ; 0x202f <main+0x1ac5>
    15bd: a2 19        	ldx	#$19
    15bf: 4c d7 18     	jmp	$18d7 <main+0x136d>
    15c2: a6 15        	ldx	$15                     ; 0x2015 <main+0x1aab>
    15c4: 86 18        	stx	$18                     ; 0x2018 <main+0x1aae>
    15c6: aa           	tax
    15c7: 4c c2 0c     	jmp	$cc2 <main+0x758>
    15ca: a5 13        	lda	$13                     ; 0x2013 <main+0x1aa9>
    15cc: f0 03        	beq	$15d1 <main+0x1067>
    15ce: 4c df 14     	jmp	$14df <main+0xf75>
    15d1: a5 12        	lda	$12                     ; 0x2012 <main+0x1aa8>
    15d3: f0 03        	beq	$15d8 <main+0x106e>
    15d5: 4c df 14     	jmp	$14df <main+0xf75>
    15d8: 4c f8 16     	jmp	$16f8 <main+0x118e>
    15db: d1 12        	cmp	($12),y                 ; 0x2012 <main+0x1aa8>
    15dd: 80 06        	bra	$15e5 <main+0x107b>
    15df: e4 16        	cpx	$16                     ; 0x2016 <main+0x1aac>
    15e1: 80 02        	bra	$15e5 <main+0x107b>
    15e3: e4 14        	cpx	$14                     ; 0x2014 <main+0x1aaa>
    15e5: a0 14        	ldy	#$14
    15e7: b1 10        	lda	($10),y                 ; 0x2010 <main+0x1aa6>
    15e9: 85 2d        	sta	$2d                     ; 0x202d <main+0x1ac3>
    15eb: 90 40        	bcc	$162d <main+0x10c3>
    15ed: a6 17        	ldx	$17                     ; 0x2017 <main+0x1aad>
    15ef: 86 2e        	stx	$2e                     ; 0x202e <main+0x1ac4>
    15f1: a6 17        	ldx	$17                     ; 0x2017 <main+0x1aad>
    15f3: 86 24        	stx	$24                     ; 0x2024 <main+0x1aba>
    15f5: a6 18        	ldx	$18                     ; 0x2018 <main+0x1aae>
    15f7: 86 2f        	stx	$2f                     ; 0x202f <main+0x1ac5>
    15f9: a6 18        	ldx	$18                     ; 0x2018 <main+0x1aae>
    15fb: 86 25        	stx	$25                     ; 0x2025 <main+0x1abb>
    15fd: a2 19        	ldx	#$19
    15ff: 86 12        	stx	$12                     ; 0x2012 <main+0x1aa8>
    1601: 64 2c        	stz	$2c                     ; 0x202c <main+0x1ac2>
    1603: 64 13        	stz	$13                     ; 0x2013 <main+0x1aa9>
    1605: a2 00        	ldx	#$0
    1607: 20 7c 82     	jsr	$827c <__mulhi3>
    160a: 85 12        	sta	$12                     ; 0x2012 <main+0x1aa8>
    160c: 86 13        	stx	$13                     ; 0x2013 <main+0x1aa9>
    160e: 18           	clc
    160f: a5 2e        	lda	$2e                     ; 0x202e <main+0x1ac4>
    1611: 65 12        	adc	$12                     ; 0x2012 <main+0x1aa8>
    1613: 85 12        	sta	$12                     ; 0x2012 <main+0x1aa8>
    1615: a5 2f        	lda	$2f                     ; 0x202f <main+0x1ac5>
    1617: 65 13        	adc	$13                     ; 0x2013 <main+0x1aa9>
    1619: 85 13        	sta	$13                     ; 0x2013 <main+0x1aa9>
    161b: a0 18        	ldy	#$18
    161d: a9 01        	lda	#$1
    161f: 91 12        	sta	($12),y                 ; 0x2012 <main+0x1aa8>
    1621: e6 5e        	inc	$5e                     ; 0x205e <main+0x1af4>
    1623: f0 03        	beq	$1628 <main+0x10be>
    1625: 4c 9a 16     	jmp	$169a <main+0x1130>
    1628: e6 5f        	inc	$5f                     ; 0x205f <main+0x1af5>
    162a: 4c 9a 16     	jmp	$169a <main+0x1130>
    162d: 20 8e 55     	jsr	$558e <readDelta>
    1630: 85 24        	sta	$24                     ; 0x2024 <main+0x1aba>
    1632: 86 25        	stx	$25                     ; 0x2025 <main+0x1abb>
    1634: a6 12        	ldx	$12                     ; 0x2012 <main+0x1aa8>
    1636: 86 2f        	stx	$2f                     ; 0x202f <main+0x1ac5>
    1638: a5 13        	lda	$13                     ; 0x2013 <main+0x1aa9>
    163a: a0 10        	ldy	#$10
    163c: 91 10        	sta	($10),y                 ; 0x2010 <main+0x1aa6>
    163e: a6 60        	ldx	$60                     ; 0x2060 <main+0x1af6>
    1640: 86 28        	stx	$28                     ; 0x2028 <main+0x1abe>
    1642: a6 61        	ldx	$61                     ; 0x2061 <main+0x1af7>
    1644: 86 2e        	stx	$2e                     ; 0x202e <main+0x1ac4>
    1646: a2 19        	ldx	#$19
    1648: 86 12        	stx	$12                     ; 0x2012 <main+0x1aa8>
    164a: 64 2c        	stz	$2c                     ; 0x202c <main+0x1ac2>
    164c: 64 13        	stz	$13                     ; 0x2013 <main+0x1aa9>
    164e: a2 00        	ldx	#$0
    1650: a5 2d        	lda	$2d                     ; 0x202d <main+0x1ac3>
    1652: 20 7c 82     	jsr	$827c <__mulhi3>
    1655: 85 12        	sta	$12                     ; 0x2012 <main+0x1aa8>
    1657: 86 13        	stx	$13                     ; 0x2013 <main+0x1aa9>
    1659: 18           	clc
    165a: a5 28        	lda	$28                     ; 0x2028 <main+0x1abe>
    165c: 65 12        	adc	$12                     ; 0x2012 <main+0x1aa8>
    165e: a8           	tay
    165f: a5 2e        	lda	$2e                     ; 0x202e <main+0x1ac4>
    1661: 65 13        	adc	$13                     ; 0x2013 <main+0x1aa9>
    1663: aa           	tax
    1664: 98           	tya
    1665: 84 12        	sty	$12                     ; 0x2012 <main+0x1aa8>
    1667: 86 13        	stx	$13                     ; 0x2013 <main+0x1aa9>
    1669: 18           	clc
    166a: 69 0c        	adc	#$c
    166c: 85 14        	sta	$14                     ; 0x2014 <main+0x1aaa>
    166e: 8a           	txa
    166f: 69 00        	adc	#$0
    1671: 85 15        	sta	$15                     ; 0x2015 <main+0x1aab>
    1673: a0 0c        	ldy	#$c
    1675: a5 24        	lda	$24                     ; 0x2024 <main+0x1aba>
    1677: 91 12        	sta	($12),y                 ; 0x2012 <main+0x1aa8>
    1679: a0 01        	ldy	#$1
    167b: a5 25        	lda	$25                     ; 0x2025 <main+0x1abb>
    167d: 91 14        	sta	($14),y                 ; 0x2014 <main+0x1aaa>
    167f: c8           	iny
    1680: a5 2f        	lda	$2f                     ; 0x202f <main+0x1ac5>
    1682: 91 14        	sta	($14),y                 ; 0x2014 <main+0x1aaa>
    1684: c8           	iny
    1685: 5a           	phy
    1686: a0 10        	ldy	#$10
    1688: b1 10        	lda	($10),y                 ; 0x2010 <main+0x1aa6>
    168a: 7a           	ply
    168b: 91 14        	sta	($14),y                 ; 0x2014 <main+0x1aaa>
    168d: a5 2d        	lda	$2d                     ; 0x202d <main+0x1ac3>
    168f: 20 fe 59     	jsr	$59fe <readMIDICmd>
    1692: a6 60        	ldx	$60                     ; 0x2060 <main+0x1af6>
    1694: a4 61        	ldy	$61                     ; 0x2061 <main+0x1af7>
    1696: 86 24        	stx	$24                     ; 0x2024 <main+0x1aba>
    1698: 84 25        	sty	$25                     ; 0x2025 <main+0x1abb>
    169a: a2 19        	ldx	#$19
    169c: 86 12        	stx	$12                     ; 0x2012 <main+0x1aa8>
    169e: 64 13        	stz	$13                     ; 0x2013 <main+0x1aa9>
    16a0: a2 00        	ldx	#$0
    16a2: a5 2d        	lda	$2d                     ; 0x202d <main+0x1ac3>
    16a4: 20 7c 82     	jsr	$827c <__mulhi3>
    16a7: 18           	clc
    16a8: 65 24        	adc	$24                     ; 0x2024 <main+0x1aba>
    16aa: 85 12        	sta	$12                     ; 0x2012 <main+0x1aa8>
    16ac: 8a           	txa
    16ad: 65 25        	adc	$25                     ; 0x2025 <main+0x1abb>
    16af: 85 14        	sta	$14                     ; 0x2014 <main+0x1aaa>
    16b1: 85 13        	sta	$13                     ; 0x2013 <main+0x1aa9>
    16b3: a0 18        	ldy	#$18
    16b5: b1 12        	lda	($12),y                 ; 0x2012 <main+0x1aa8>
    16b7: f0 03        	beq	$16bc <main+0x1152>
    16b9: 4c 76 17     	jmp	$1776 <main+0x120c>
    16bc: 18           	clc
    16bd: a5 12        	lda	$12                     ; 0x2012 <main+0x1aa8>
    16bf: 69 0c        	adc	#$c
    16c1: aa           	tax
    16c2: a5 14        	lda	$14                     ; 0x2014 <main+0x1aaa>
    16c4: 69 00        	adc	#$0
    16c6: 86 14        	stx	$14                     ; 0x2014 <main+0x1aaa>
    16c8: 85 15        	sta	$15                     ; 0x2015 <main+0x1aab>
    16ca: a0 0c        	ldy	#$c
    16cc: b1 12        	lda	($12),y                 ; 0x2012 <main+0x1aa8>
    16ce: 85 12        	sta	$12                     ; 0x2012 <main+0x1aa8>
    16d0: a0 01        	ldy	#$1
    16d2: b1 14        	lda	($14),y                 ; 0x2014 <main+0x1aaa>
    16d4: 85 13        	sta	$13                     ; 0x2013 <main+0x1aa9>
    16d6: c8           	iny
    16d7: b1 14        	lda	($14),y                 ; 0x2014 <main+0x1aaa>
    16d9: 85 16        	sta	$16                     ; 0x2016 <main+0x1aac>
    16db: c8           	iny
    16dc: b1 14        	lda	($14),y                 ; 0x2014 <main+0x1aaa>
    16de: f0 03        	beq	$16e3 <main+0x1179>
    16e0: 4c 76 17     	jmp	$1776 <main+0x120c>
    16e3: a5 16        	lda	$16                     ; 0x2016 <main+0x1aac>
    16e5: f0 03        	beq	$16ea <main+0x1180>
    16e7: 4c 76 17     	jmp	$1776 <main+0x120c>
    16ea: a5 13        	lda	$13                     ; 0x2013 <main+0x1aa9>
    16ec: f0 03        	beq	$16f1 <main+0x1187>
    16ee: 4c 76 17     	jmp	$1776 <main+0x120c>
    16f1: a5 12        	lda	$12                     ; 0x2012 <main+0x1aa8>
    16f3: f0 03        	beq	$16f8 <main+0x118e>
    16f5: 4c 76 17     	jmp	$1776 <main+0x120c>
    16f8: a0 14        	ldy	#$14
    16fa: b1 10        	lda	($10),y                 ; 0x2010 <main+0x1aa6>
    16fc: 85 24        	sta	$24                     ; 0x2024 <main+0x1aba>
    16fe: 20 32 62     	jsr	$6232 <performMIDICmd>
    1701: a6 60        	ldx	$60                     ; 0x2060 <main+0x1af6>
    1703: 86 28        	stx	$28                     ; 0x2028 <main+0x1abe>
    1705: a6 61        	ldx	$61                     ; 0x2061 <main+0x1af7>
    1707: 86 25        	stx	$25                     ; 0x2025 <main+0x1abb>
    1709: a2 19        	ldx	#$19
    170b: 86 12        	stx	$12                     ; 0x2012 <main+0x1aa8>
    170d: 64 13        	stz	$13                     ; 0x2013 <main+0x1aa9>
    170f: a2 00        	ldx	#$0
    1711: a5 24        	lda	$24                     ; 0x2024 <main+0x1aba>
    1713: 20 7c 82     	jsr	$827c <__mulhi3>
    1716: 85 12        	sta	$12                     ; 0x2012 <main+0x1aa8>
    1718: 86 13        	stx	$13                     ; 0x2013 <main+0x1aa9>
    171a: a6 28        	ldx	$28                     ; 0x2028 <main+0x1abe>
    171c: 86 17        	stx	$17                     ; 0x2017 <main+0x1aad>
    171e: a5 28        	lda	$28                     ; 0x2028 <main+0x1abe>
    1720: 18           	clc
    1721: 65 12        	adc	$12                     ; 0x2012 <main+0x1aa8>
    1723: aa           	tax
    1724: a5 25        	lda	$25                     ; 0x2025 <main+0x1abb>
    1726: 85 18        	sta	$18                     ; 0x2018 <main+0x1aae>
    1728: 65 13        	adc	$13                     ; 0x2013 <main+0x1aa9>
    172a: 86 12        	stx	$12                     ; 0x2012 <main+0x1aa8>
    172c: 85 13        	sta	$13                     ; 0x2013 <main+0x1aa9>
    172e: a8           	tay
    172f: 18           	clc
    1730: 8a           	txa
    1731: 69 04        	adc	#$4
    1733: 85 14        	sta	$14                     ; 0x2014 <main+0x1aaa>
    1735: 98           	tya
    1736: 69 00        	adc	#$0
    1738: 85 15        	sta	$15                     ; 0x2015 <main+0x1aab>
    173a: a0 03        	ldy	#$3
    173c: b1 14        	lda	($14),y                 ; 0x2014 <main+0x1aaa>
    173e: d1 12        	cmp	($12),y                 ; 0x2012 <main+0x1aa8>
    1740: f0 03        	beq	$1745 <main+0x11db>
    1742: 4c db 15     	jmp	$15db <main+0x1071>
    1745: a0 02        	ldy	#$2
    1747: b1 14        	lda	($14),y                 ; 0x2014 <main+0x1aaa>
    1749: aa           	tax
    174a: b1 12        	lda	($12),y                 ; 0x2012 <main+0x1aa8>
    174c: 85 16        	sta	$16                     ; 0x2016 <main+0x1aac>
    174e: e4 16        	cpx	$16                     ; 0x2016 <main+0x1aac>
    1750: f0 03        	beq	$1755 <main+0x11eb>
    1752: 4c df 15     	jmp	$15df <main+0x1075>
    1755: a0 01        	ldy	#$1
    1757: b1 14        	lda	($14),y                 ; 0x2014 <main+0x1aaa>
    1759: aa           	tax
    175a: b1 12        	lda	($12),y                 ; 0x2012 <main+0x1aa8>
    175c: 85 14        	sta	$14                     ; 0x2014 <main+0x1aaa>
    175e: e4 14        	cpx	$14                     ; 0x2014 <main+0x1aaa>
    1760: f0 03        	beq	$1765 <main+0x11fb>
    1762: 4c e3 15     	jmp	$15e3 <main+0x1079>
    1765: a0 04        	ldy	#$4
    1767: b1 12        	lda	($12),y                 ; 0x2012 <main+0x1aa8>
    1769: 85 14        	sta	$14                     ; 0x2014 <main+0x1aaa>
    176b: b2 12        	lda	($12)                   ; 0x2012 <main+0x1aa8>
    176d: 85 12        	sta	$12                     ; 0x2012 <main+0x1aa8>
    176f: a6 14        	ldx	$14                     ; 0x2014 <main+0x1aaa>
    1771: e4 12        	cpx	$12                     ; 0x2012 <main+0x1aa8>
    1773: 4c e5 15     	jmp	$15e5 <main+0x107b>
    1776: a6 4f        	ldx	$4f                     ; 0x204f <main+0x1ae5>
    1778: a4 50        	ldy	$50                     ; 0x2050 <main+0x1ae6>
    177a: 86 2c        	stx	$2c                     ; 0x202c <main+0x1ac2>
    177c: 84 2d        	sty	$2d                     ; 0x202d <main+0x1ac3>
    177e: 4c df 14     	jmp	$14df <main+0xf75>
    1781: a2 01        	ldx	#$1
    1783: 86 44        	stx	$44                     ; 0x2044 <main+0x1ada>
    1785: a2 b0        	ldx	#$b0
    1787: 8e b1 dd     	stx	$ddb1                   ; 0xddb1 <__heap_start+0x381d>
    178a: a0 7b        	ldy	#$7b
    178c: 8c b1 dd     	sty	$ddb1                   ; 0xddb1 <__heap_start+0x381d>
    178f: 9c b1 dd     	stz	$ddb1                   ; 0xddb1 <__heap_start+0x381d>
    1792: a9 b1        	lda	#$b1
    1794: 8d b1 dd     	sta	$ddb1                   ; 0xddb1 <__heap_start+0x381d>
    1797: 8c b1 dd     	sty	$ddb1                   ; 0xddb1 <__heap_start+0x381d>
    179a: 9c b1 dd     	stz	$ddb1                   ; 0xddb1 <__heap_start+0x381d>
    179d: a2 b2        	ldx	#$b2
    179f: 8e b1 dd     	stx	$ddb1                   ; 0xddb1 <__heap_start+0x381d>
    17a2: 8c b1 dd     	sty	$ddb1                   ; 0xddb1 <__heap_start+0x381d>
    17a5: 9c b1 dd     	stz	$ddb1                   ; 0xddb1 <__heap_start+0x381d>
    17a8: e8           	inx
    17a9: 8e b1 dd     	stx	$ddb1                   ; 0xddb1 <__heap_start+0x381d>
    17ac: 8c b1 dd     	sty	$ddb1                   ; 0xddb1 <__heap_start+0x381d>
    17af: 9c b1 dd     	stz	$ddb1                   ; 0xddb1 <__heap_start+0x381d>
    17b2: e8           	inx
    17b3: 8e b1 dd     	stx	$ddb1                   ; 0xddb1 <__heap_start+0x381d>
    17b6: 8c b1 dd     	sty	$ddb1                   ; 0xddb1 <__heap_start+0x381d>
    17b9: 9c b1 dd     	stz	$ddb1                   ; 0xddb1 <__heap_start+0x381d>
    17bc: e8           	inx
    17bd: 8e b1 dd     	stx	$ddb1                   ; 0xddb1 <__heap_start+0x381d>
    17c0: 8c b1 dd     	sty	$ddb1                   ; 0xddb1 <__heap_start+0x381d>
    17c3: 9c b1 dd     	stz	$ddb1                   ; 0xddb1 <__heap_start+0x381d>
    17c6: e8           	inx
    17c7: 8e b1 dd     	stx	$ddb1                   ; 0xddb1 <__heap_start+0x381d>
    17ca: 8c b1 dd     	sty	$ddb1                   ; 0xddb1 <__heap_start+0x381d>
    17cd: 9c b1 dd     	stz	$ddb1                   ; 0xddb1 <__heap_start+0x381d>
    17d0: e8           	inx
    17d1: 8e b1 dd     	stx	$ddb1                   ; 0xddb1 <__heap_start+0x381d>
    17d4: 8c b1 dd     	sty	$ddb1                   ; 0xddb1 <__heap_start+0x381d>
    17d7: 9c b1 dd     	stz	$ddb1                   ; 0xddb1 <__heap_start+0x381d>
    17da: e8           	inx
    17db: 8e b1 dd     	stx	$ddb1                   ; 0xddb1 <__heap_start+0x381d>
    17de: 8c b1 dd     	sty	$ddb1                   ; 0xddb1 <__heap_start+0x381d>
    17e1: 9c b1 dd     	stz	$ddb1                   ; 0xddb1 <__heap_start+0x381d>
    17e4: e8           	inx
    17e5: 8e b1 dd     	stx	$ddb1                   ; 0xddb1 <__heap_start+0x381d>
    17e8: 8c b1 dd     	sty	$ddb1                   ; 0xddb1 <__heap_start+0x381d>
    17eb: 9c b1 dd     	stz	$ddb1                   ; 0xddb1 <__heap_start+0x381d>
    17ee: e8           	inx
    17ef: 8e b1 dd     	stx	$ddb1                   ; 0xddb1 <__heap_start+0x381d>
    17f2: 8c b1 dd     	sty	$ddb1                   ; 0xddb1 <__heap_start+0x381d>
    17f5: 9c b1 dd     	stz	$ddb1                   ; 0xddb1 <__heap_start+0x381d>
    17f8: e8           	inx
    17f9: 8e b1 dd     	stx	$ddb1                   ; 0xddb1 <__heap_start+0x381d>
    17fc: 8c b1 dd     	sty	$ddb1                   ; 0xddb1 <__heap_start+0x381d>
    17ff: 9c b1 dd     	stz	$ddb1                   ; 0xddb1 <__heap_start+0x381d>
    1802: e8           	inx
    1803: 8e b1 dd     	stx	$ddb1                   ; 0xddb1 <__heap_start+0x381d>
    1806: 8c b1 dd     	sty	$ddb1                   ; 0xddb1 <__heap_start+0x381d>
    1809: 9c b1 dd     	stz	$ddb1                   ; 0xddb1 <__heap_start+0x381d>
    180c: e8           	inx
    180d: 8e b1 dd     	stx	$ddb1                   ; 0xddb1 <__heap_start+0x381d>
    1810: 8c b1 dd     	sty	$ddb1                   ; 0xddb1 <__heap_start+0x381d>
    1813: 9c b1 dd     	stz	$ddb1                   ; 0xddb1 <__heap_start+0x381d>
    1816: e8           	inx
    1817: 8e b1 dd     	stx	$ddb1                   ; 0xddb1 <__heap_start+0x381d>
    181a: 8c b1 dd     	sty	$ddb1                   ; 0xddb1 <__heap_start+0x381d>
    181d: 9c b1 dd     	stz	$ddb1                   ; 0xddb1 <__heap_start+0x381d>
    1820: e8           	inx
    1821: 8e b1 dd     	stx	$ddb1                   ; 0xddb1 <__heap_start+0x381d>
    1824: 8c b1 dd     	sty	$ddb1                   ; 0xddb1 <__heap_start+0x381d>
    1827: 9c b1 dd     	stz	$ddb1                   ; 0xddb1 <__heap_start+0x381d>
    182a: a2 b0        	ldx	#$b0
    182c: 8e a1 dd     	stx	$dda1                   ; 0xdda1 <__heap_start+0x380d>
    182f: 8c a1 dd     	sty	$dda1                   ; 0xdda1 <__heap_start+0x380d>
    1832: 9c a1 dd     	stz	$dda1                   ; 0xdda1 <__heap_start+0x380d>
    1835: 8d a1 dd     	sta	$dda1                   ; 0xdda1 <__heap_start+0x380d>
    1838: 8c a1 dd     	sty	$dda1                   ; 0xdda1 <__heap_start+0x380d>
    183b: 9c a1 dd     	stz	$dda1                   ; 0xdda1 <__heap_start+0x380d>
    183e: a2 b2        	ldx	#$b2
    1840: 8e a1 dd     	stx	$dda1                   ; 0xdda1 <__heap_start+0x380d>
    1843: 8c a1 dd     	sty	$dda1                   ; 0xdda1 <__heap_start+0x380d>
    1846: 9c a1 dd     	stz	$dda1                   ; 0xdda1 <__heap_start+0x380d>
    1849: e8           	inx
    184a: 8e a1 dd     	stx	$dda1                   ; 0xdda1 <__heap_start+0x380d>
    184d: 8c a1 dd     	sty	$dda1                   ; 0xdda1 <__heap_start+0x380d>
    1850: 9c a1 dd     	stz	$dda1                   ; 0xdda1 <__heap_start+0x380d>
    1853: e8           	inx
    1854: 8e a1 dd     	stx	$dda1                   ; 0xdda1 <__heap_start+0x380d>
    1857: 8c a1 dd     	sty	$dda1                   ; 0xdda1 <__heap_start+0x380d>
    185a: 9c a1 dd     	stz	$dda1                   ; 0xdda1 <__heap_start+0x380d>
    185d: e8           	inx
    185e: 8e a1 dd     	stx	$dda1                   ; 0xdda1 <__heap_start+0x380d>
    1861: 8c a1 dd     	sty	$dda1                   ; 0xdda1 <__heap_start+0x380d>
    1864: 9c a1 dd     	stz	$dda1                   ; 0xdda1 <__heap_start+0x380d>
    1867: e8           	inx
    1868: 8e a1 dd     	stx	$dda1                   ; 0xdda1 <__heap_start+0x380d>
    186b: 8c a1 dd     	sty	$dda1                   ; 0xdda1 <__heap_start+0x380d>
    186e: 9c a1 dd     	stz	$dda1                   ; 0xdda1 <__heap_start+0x380d>
    1871: e8           	inx
    1872: 8e a1 dd     	stx	$dda1                   ; 0xdda1 <__heap_start+0x380d>
    1875: 8c a1 dd     	sty	$dda1                   ; 0xdda1 <__heap_start+0x380d>
    1878: 9c a1 dd     	stz	$dda1                   ; 0xdda1 <__heap_start+0x380d>
    187b: e8           	inx
    187c: 8e a1 dd     	stx	$dda1                   ; 0xdda1 <__heap_start+0x380d>
    187f: 8c a1 dd     	sty	$dda1                   ; 0xdda1 <__heap_start+0x380d>
    1882: 9c a1 dd     	stz	$dda1                   ; 0xdda1 <__heap_start+0x380d>
    1885: e8           	inx
    1886: 8e a1 dd     	stx	$dda1                   ; 0xdda1 <__heap_start+0x380d>
    1889: 8c a1 dd     	sty	$dda1                   ; 0xdda1 <__heap_start+0x380d>
    188c: 9c a1 dd     	stz	$dda1                   ; 0xdda1 <__heap_start+0x380d>
    188f: e8           	inx
    1890: 8e a1 dd     	stx	$dda1                   ; 0xdda1 <__heap_start+0x380d>
    1893: 8c a1 dd     	sty	$dda1                   ; 0xdda1 <__heap_start+0x380d>
    1896: 9c a1 dd     	stz	$dda1                   ; 0xdda1 <__heap_start+0x380d>
    1899: e8           	inx
    189a: 8e a1 dd     	stx	$dda1                   ; 0xdda1 <__heap_start+0x380d>
    189d: 8c a1 dd     	sty	$dda1                   ; 0xdda1 <__heap_start+0x380d>
    18a0: 9c a1 dd     	stz	$dda1                   ; 0xdda1 <__heap_start+0x380d>
    18a3: e8           	inx
    18a4: 8e a1 dd     	stx	$dda1                   ; 0xdda1 <__heap_start+0x380d>
    18a7: 8c a1 dd     	sty	$dda1                   ; 0xdda1 <__heap_start+0x380d>
    18aa: 9c a1 dd     	stz	$dda1                   ; 0xdda1 <__heap_start+0x380d>
    18ad: e8           	inx
    18ae: 8e a1 dd     	stx	$dda1                   ; 0xdda1 <__heap_start+0x380d>
    18b1: 8c a1 dd     	sty	$dda1                   ; 0xdda1 <__heap_start+0x380d>
    18b4: 9c a1 dd     	stz	$dda1                   ; 0xdda1 <__heap_start+0x380d>
    18b7: e8           	inx
    18b8: 8e a1 dd     	stx	$dda1                   ; 0xdda1 <__heap_start+0x380d>
    18bb: 8c a1 dd     	sty	$dda1                   ; 0xdda1 <__heap_start+0x380d>
    18be: 9c a1 dd     	stz	$dda1                   ; 0xdda1 <__heap_start+0x380d>
    18c1: e8           	inx
    18c2: 8e a1 dd     	stx	$dda1                   ; 0xdda1 <__heap_start+0x380d>
    18c5: 8c a1 dd     	sty	$dda1                   ; 0xdda1 <__heap_start+0x380d>
    18c8: 9c a1 dd     	stz	$dda1                   ; 0xdda1 <__heap_start+0x380d>
    18cb: a5 45        	lda	$45                     ; 0x2045 <main+0x1adb>
    18cd: 29 01        	and	#$1
    18cf: a2 19        	ldx	#$19
    18d1: a8           	tay
    18d2: f0 03        	beq	$18d7 <main+0x136d>
    18d4: 4c 51 15     	jmp	$1551 <main+0xfe7>
    18d7: 64 38        	stz	$38                     ; 0x2038 <main+0x1ace>
    18d9: 9c 14 d0     	stz	$d014                   ; 0xd014 <__heap_start+0x2a80>
    18dc: 9c 15 d0     	stz	$d015                   ; 0xd015 <__heap_start+0x2a81>
    18df: 86 39        	stx	$39                     ; 0x2039 <main+0x1acf>
    18e1: 8e 16 d0     	stx	$d016                   ; 0xd016 <__heap_start+0x2a82>
    18e4: 9c 17 d0     	stz	$d017                   ; 0xd017 <__heap_start+0x2a83>
    18e7: a2 16        	ldx	#$16
    18e9: 86 12        	stx	$12                     ; 0x2012 <main+0x1aa8>
    18eb: a2 8b        	ldx	#$8b
    18ed: 86 13        	stx	$13                     ; 0x2013 <main+0x1aa9>
    18ef: 20 84 31     	jsr	$3184 <textPrint>
    18f2: 20 3c 6f     	jsr	$6f3c <superExtraInfo>
    18f5: a6 01        	ldx	$1                      ; 0x2001 <main+0x1a97>
    18f7: 86 12        	stx	$12                     ; 0x2012 <main+0x1aa8>
    18f9: 64 01        	stz	$1                      ; 0x2001 <main+0x1a97>
    18fb: a0 ff        	ldy	#$ff
    18fd: 8c 00 d8     	sty	$d800                   ; 0xd800 <__heap_start+0x326c>
    1900: 8c 01 d8     	sty	$d801                   ; 0xd801 <__heap_start+0x326d>
    1903: 8c 02 d8     	sty	$d802                   ; 0xd802 <__heap_start+0x326e>
    1906: 9c 03 d8     	stz	$d803                   ; 0xd803 <__heap_start+0x326f>
    1909: 9c 04 d8     	stz	$d804                   ; 0xd804 <__heap_start+0x3270>
    190c: a0 cd        	ldy	#$cd
    190e: 8c 05 d8     	sty	$d805                   ; 0xd805 <__heap_start+0x3271>
    1911: 8c 06 d8     	sty	$d806                   ; 0xd806 <__heap_start+0x3272>
    1914: 9c 07 d8     	stz	$d807                   ; 0xd807 <__heap_start+0x3273>
    1917: 9c 08 d8     	stz	$d808                   ; 0xd808 <__heap_start+0x3274>
    191a: a9 d7        	lda	#$d7
    191c: 8d 09 d8     	sta	$d809                   ; 0xd809 <__heap_start+0x3275>
    191f: 8d 0a d8     	sta	$d80a                   ; 0xd80a <__heap_start+0x3276>
    1922: 9c 0b d8     	stz	$d80b                   ; 0xd80b <__heap_start+0x3277>
    1925: 9c 0c d8     	stz	$d80c                   ; 0xd80c <__heap_start+0x3278>
    1928: a2 e1        	ldx	#$e1
    192a: 8e 0d d8     	stx	$d80d                   ; 0xd80d <__heap_start+0x3279>
    192d: 8e 0e d8     	stx	$d80e                   ; 0xd80e <__heap_start+0x327a>
    1930: 9c 0f d8     	stz	$d80f                   ; 0xd80f <__heap_start+0x327b>
    1933: 9c 10 d8     	stz	$d810                   ; 0xd810 <__heap_start+0x327c>
    1936: a2 eb        	ldx	#$eb
    1938: 8e 11 d8     	stx	$d811                   ; 0xd811 <__heap_start+0x327d>
    193b: 8e 12 d8     	stx	$d812                   ; 0xd812 <__heap_start+0x327e>
    193e: 9c 13 d8     	stz	$d813                   ; 0xd813 <__heap_start+0x327f>
    1941: 9c 14 d8     	stz	$d814                   ; 0xd814 <__heap_start+0x3280>
    1944: a2 f5        	ldx	#$f5
    1946: 8e 15 d8     	stx	$d815                   ; 0xd815 <__heap_start+0x3281>
    1949: 8e 16 d8     	stx	$d816                   ; 0xd816 <__heap_start+0x3282>
    194c: 9c 17 d8     	stz	$d817                   ; 0xd817 <__heap_start+0x3283>
    194f: 9c 18 d8     	stz	$d818                   ; 0xd818 <__heap_start+0x3284>
    1952: a2 66        	ldx	#$66
    1954: 8e 19 d8     	stx	$d819                   ; 0xd819 <__heap_start+0x3285>
    1957: 8c 1a d8     	sty	$d81a                   ; 0xd81a <__heap_start+0x3286>
    195a: 9c 1b d8     	stz	$d81b                   ; 0xd81b <__heap_start+0x3287>
    195d: 9c 1c d8     	stz	$d81c                   ; 0xd81c <__heap_start+0x3288>
    1960: a2 6b        	ldx	#$6b
    1962: 8e 1d d8     	stx	$d81d                   ; 0xd81d <__heap_start+0x3289>
    1965: 8d 1e d8     	sta	$d81e                   ; 0xd81e <__heap_start+0x328a>
    1968: 9c 1f d8     	stz	$d81f                   ; 0xd81f <__heap_start+0x328b>
    196b: 9c 20 d8     	stz	$d820                   ; 0xd820 <__heap_start+0x328c>
    196e: a2 70        	ldx	#$70
    1970: 8e 21 d8     	stx	$d821                   ; 0xd821 <__heap_start+0x328d>
    1973: a2 e1        	ldx	#$e1
    1975: 8e 22 d8     	stx	$d822                   ; 0xd822 <__heap_start+0x328e>
    1978: 9c 23 d8     	stz	$d823                   ; 0xd823 <__heap_start+0x328f>
    197b: 9c 24 d8     	stz	$d824                   ; 0xd824 <__heap_start+0x3290>
    197e: a2 75        	ldx	#$75
    1980: 8e 25 d8     	stx	$d825                   ; 0xd825 <__heap_start+0x3291>
    1983: a2 eb        	ldx	#$eb
    1985: 8e 26 d8     	stx	$d826                   ; 0xd826 <__heap_start+0x3292>
    1988: 9c 27 d8     	stz	$d827                   ; 0xd827 <__heap_start+0x3293>
    198b: 9c 28 d8     	stz	$d828                   ; 0xd828 <__heap_start+0x3294>
    198e: a2 7a        	ldx	#$7a
    1990: 8e 29 d8     	stx	$d829                   ; 0xd829 <__heap_start+0x3295>
    1993: a2 f5        	ldx	#$f5
    1995: 8e 2a d8     	stx	$d82a                   ; 0xd82a <__heap_start+0x3296>
    1998: 9c 2b d8     	stz	$d82b                   ; 0xd82b <__heap_start+0x3297>
    199b: 9c 2c d8     	stz	$d82c                   ; 0xd82c <__heap_start+0x3298>
    199e: 9c 2d d8     	stz	$d82d                   ; 0xd82d <__heap_start+0x3299>
    19a1: 8c 2e d8     	sty	$d82e                   ; 0xd82e <__heap_start+0x329a>
    19a4: 9c 2f d8     	stz	$d82f                   ; 0xd82f <__heap_start+0x329b>
    19a7: 9c 30 d8     	stz	$d830                   ; 0xd830 <__heap_start+0x329c>
    19aa: 9c 31 d8     	stz	$d831                   ; 0xd831 <__heap_start+0x329d>
    19ad: 8d 32 d8     	sta	$d832                   ; 0xd832 <__heap_start+0x329e>
    19b0: 9c 33 d8     	stz	$d833                   ; 0xd833 <__heap_start+0x329f>
    19b3: 9c 34 d8     	stz	$d834                   ; 0xd834 <__heap_start+0x32a0>
    19b6: 9c 35 d8     	stz	$d835                   ; 0xd835 <__heap_start+0x32a1>
    19b9: a0 e1        	ldy	#$e1
    19bb: 8c 36 d8     	sty	$d836                   ; 0xd836 <__heap_start+0x32a2>
    19be: 9c 37 d8     	stz	$d837                   ; 0xd837 <__heap_start+0x32a3>
    19c1: 9c 38 d8     	stz	$d838                   ; 0xd838 <__heap_start+0x32a4>
    19c4: 9c 39 d8     	stz	$d839                   ; 0xd839 <__heap_start+0x32a5>
    19c7: a0 eb        	ldy	#$eb
    19c9: 8c 3a d8     	sty	$d83a                   ; 0xd83a <__heap_start+0x32a6>
    19cc: 9c 3b d8     	stz	$d83b                   ; 0xd83b <__heap_start+0x32a7>
    19cf: 9c 3c d8     	stz	$d83c                   ; 0xd83c <__heap_start+0x32a8>
    19d2: 9c 3d d8     	stz	$d83d                   ; 0xd83d <__heap_start+0x32a9>
    19d5: 8e 3e d8     	stx	$d83e                   ; 0xd83e <__heap_start+0x32aa>
    19d8: 9c 3f d8     	stz	$d83f                   ; 0xd83f <__heap_start+0x32ab>
    19db: a6 12        	ldx	$12                     ; 0x2012 <main+0x1aa8>
    19dd: 86 01        	stx	$1                      ; 0x2001 <main+0x1a97>
    19df: 4c 5e 1a     	jmp	$1a5e <main+0x14f4>
    19e2: 86 12        	stx	$12                     ; 0x2012 <main+0x1aa8>
    19e4: 84 13        	sty	$13                     ; 0x2013 <main+0x1aa9>
    19e6: 20 95 80     	jsr	$8095 <free>
    19e9: a6 2e        	ldx	$2e                     ; 0x202e <main+0x1ac4>
    19eb: a4 2f        	ldy	$2f                     ; 0x202f <main+0x1ac5>
    19ed: 86 48        	stx	$48                     ; 0x2048 <main+0x1ade>
    19ef: 84 49        	sty	$49                     ; 0x2049 <main+0x1adf>
    19f1: a2 00        	ldx	#$0
    19f3: a9 40        	lda	#$40
    19f5: 20 c6 7e     	jsr	$7ec6 <malloc>
    19f8: a6 12        	ldx	$12                     ; 0x2012 <main+0x1aa8>
    19fa: a4 13        	ldy	$13                     ; 0x2013 <main+0x1aa9>
    19fc: 86 48        	stx	$48                     ; 0x2048 <main+0x1ade>
    19fe: 84 49        	sty	$49                     ; 0x2049 <main+0x1adf>
    1a00: 64 4a        	stz	$4a                     ; 0x204a <main+0x1ae0>
    1a02: 64 4b        	stz	$4b                     ; 0x204b <main+0x1ae1>
    1a04: 64 4c        	stz	$4c                     ; 0x204c <main+0x1ae2>
    1a06: 64 4d        	stz	$4d                     ; 0x204d <main+0x1ae3>
    1a08: a2 01        	ldx	#$1
    1a0a: 86 4e        	stx	$4e                     ; 0x204e <main+0x1ae4>
    1a0c: 20 5f 4f     	jsr	$4f5f <detectStructure>
    1a0f: 20 23 66     	jsr	$6623 <initTrack>
    1a12: a2 10        	ldx	#$10
    1a14: 86 30        	stx	$30                     ; 0x2030 <main+0x1ac6>
    1a16: a2 03        	ldx	#$3
    1a18: 86 38        	stx	$38                     ; 0x2038 <main+0x1ace>
    1a1a: 8e 14 d0     	stx	$d014                   ; 0xd014 <__heap_start+0x2a80>
    1a1d: 9c 15 d0     	stz	$d015                   ; 0xd015 <__heap_start+0x2a81>
    1a20: a2 1a        	ldx	#$1a
    1a22: 86 39        	stx	$39                     ; 0x2039 <main+0x1acf>
    1a24: 8e 16 d0     	stx	$d016                   ; 0xd016 <__heap_start+0x2a82>
    1a27: 9c 17 d0     	stz	$d017                   ; 0xd017 <__heap_start+0x2a83>
    1a2a: a2 96        	ldx	#$96
    1a2c: 86 12        	stx	$12                     ; 0x2012 <main+0x1aa8>
    1a2e: a2 8a        	ldx	#$8a
    1a30: 86 13        	stx	$13                     ; 0x2013 <main+0x1aa9>
    1a32: 20 84 31     	jsr	$3184 <textPrint>
    1a35: a2 80        	ldx	#$80
    1a37: 86 f3        	stx	$f3                     ; 0x20f3 <main+0x1b89>
    1a39: 20 f0 ff     	jsr	$fff0 <__heap_start+0x5a5c>
    1a3c: 92 2a        	sta	($2a)                   ; 0x202a <main+0x1ac0>
    1a3e: a9 00        	lda	#$0
    1a40: 6a           	ror
    1a41: 85 24        	sta	$24                     ; 0x2024 <main+0x1aba>
    1a43: a9 0a        	lda	#$a
    1a45: 18           	clc
    1a46: 72 2a        	adc	($2a)                   ; 0x202a <main+0x1ac0>
    1a48: 85 47        	sta	$47                     ; 0x2047 <main+0x1add>
    1a4a: 64 f3        	stz	$f3                     ; 0x20f3 <main+0x1b89>
    1a4c: a6 47        	ldx	$47                     ; 0x2047 <main+0x1add>
    1a4e: 86 f4        	stx	$f4                     ; 0x20f4 <main+0x1b8a>
    1a50: a2 02        	ldx	#$2
    1a52: 86 f5        	stx	$f5                     ; 0x20f5 <main+0x1b8b>
    1a54: 20 f0 ff     	jsr	$fff0 <__heap_start+0x5a5c>
    1a57: 92 2a        	sta	($2a)                   ; 0x202a <main+0x1ac0>
    1a59: a9 00        	lda	#$0
    1a5b: 6a           	ror
    1a5c: 85 24        	sta	$24                     ; 0x2024 <main+0x1aba>
    1a5e: 64 64        	stz	$64                     ; 0x2064 <main+0x1afa>
    1a60: 20 00 ff     	jsr	$ff00 <__heap_start+0x596c>
    1a63: 92 2a        	sta	($2a)                   ; 0x202a <main+0x1ac0>
    1a65: a9 00        	lda	#$0
    1a67: 6a           	ror
    1a68: 85 24        	sta	$24                     ; 0x2024 <main+0x1aba>
    1a6a: a6 64        	ldx	$64                     ; 0x2064 <main+0x1afa>
    1a6c: e0 52        	cpx	#$52
    1a6e: f0 03        	beq	$1a73 <main+0x1509>
    1a70: 4c 5a 1c     	jmp	$1c5a <main+0x16f0>
    1a73: a6 68        	ldx	$68                     ; 0x2068 <main+0x1afe>
    1a75: e0 02        	cpx	#$2
    1a77: f0 03        	beq	$1a7c <main+0x1512>
    1a79: 4c 9e 24     	jmp	$249e <main+0x1f34>
    1a7c: a2 80        	ldx	#$80
    1a7e: 86 f3        	stx	$f3                     ; 0x20f3 <main+0x1b89>
    1a80: 20 f0 ff     	jsr	$fff0 <__heap_start+0x5a5c>
    1a83: 92 2a        	sta	($2a)                   ; 0x202a <main+0x1ac0>
    1a85: a9 00        	lda	#$0
    1a87: 6a           	ror
    1a88: 85 24        	sta	$24                     ; 0x2024 <main+0x1aba>
    1a8a: a9 0a        	lda	#$a
    1a8c: 18           	clc
    1a8d: 72 2a        	adc	($2a)                   ; 0x202a <main+0x1ac0>
    1a8f: 85 47        	sta	$47                     ; 0x2047 <main+0x1add>
    1a91: 64 f3        	stz	$f3                     ; 0x20f3 <main+0x1b89>
    1a93: a6 47        	ldx	$47                     ; 0x2047 <main+0x1add>
    1a95: 86 f4        	stx	$f4                     ; 0x20f4 <main+0x1b8a>
    1a97: a2 02        	ldx	#$2
    1a99: 86 f5        	stx	$f5                     ; 0x20f5 <main+0x1b8b>
    1a9b: a2 63        	ldx	#$63
    1a9d: 86 12        	stx	$12                     ; 0x2012 <main+0x1aa8>
    1a9f: a2 00        	ldx	#$0
    1aa1: 86 13        	stx	$13                     ; 0x2013 <main+0x1aa9>
    1aa3: a2 a7        	ldx	#$a7
    1aa5: 86 24        	stx	$24                     ; 0x2024 <main+0x1aba>
    1aa7: a2 a4        	ldx	#$a4
    1aa9: 86 25        	stx	$25                     ; 0x2025 <main+0x1abb>
    1aab: a2 27        	ldx	#$27
    1aad: 86 2c        	stx	$2c                     ; 0x202c <main+0x1ac2>
    1aaf: a2 a4        	ldx	#$a4
    1ab1: 86 2d        	stx	$2d                     ; 0x202d <main+0x1ac3>
    1ab3: a5 2a        	lda	$2a                     ; 0x202a <main+0x1ac0>
    1ab5: a0 12        	ldy	#$12
    1ab7: 91 10        	sta	($10),y                 ; 0x2010 <main+0x1aa6>
    1ab9: a5 2b        	lda	$2b                     ; 0x202b <main+0x1ac1>
    1abb: c8           	iny
    1abc: 91 10        	sta	($10),y                 ; 0x2010 <main+0x1aa6>
    1abe: 20 f0 ff     	jsr	$fff0 <__heap_start+0x5a5c>
    1ac1: 92 2a        	sta	($2a)                   ; 0x202a <main+0x1ac0>
    1ac3: a9 00        	lda	#$0
    1ac5: 6a           	ror
    1ac6: 85 12        	sta	$12                     ; 0x2012 <main+0x1aa8>
    1ac8: a9 00        	lda	#$0
    1aca: aa           	tax
    1acb: 1a           	inc
    1acc: 85 2a        	sta	$2a                     ; 0x202a <main+0x1ac0>
    1ace: 0a           	asl
    1acf: 0a           	asl
    1ad0: 0a           	asl
    1ad1: 0a           	asl
    1ad2: 85 30        	sta	$30                     ; 0x2030 <main+0x1ac6>
    1ad4: 18           	clc
    1ad5: 8a           	txa
    1ad6: 69 08        	adc	#$8
    1ad8: 85 2b        	sta	$2b                     ; 0x202b <main+0x1ac1>
    1ada: a9 0b        	lda	#$b
    1adc: a0 00        	ldy	#$0
    1ade: 85 38        	sta	$38                     ; 0x2038 <main+0x1ace>
    1ae0: 85 2e        	sta	$2e                     ; 0x202e <main+0x1ac4>
    1ae2: 8d 14 d0     	sta	$d014                   ; 0xd014 <__heap_start+0x2a80>
    1ae5: 9c 15 d0     	stz	$d015                   ; 0xd015 <__heap_start+0x2a81>
    1ae8: a6 2b        	ldx	$2b                     ; 0x202b <main+0x1ac1>
    1aea: 86 39        	stx	$39                     ; 0x2039 <main+0x1acf>
    1aec: 8e 16 d0     	stx	$d016                   ; 0xd016 <__heap_start+0x2a82>
    1aef: 9c 17 d0     	stz	$d017                   ; 0xd017 <__heap_start+0x2a83>
    1af2: b1 2c        	lda	($2c),y                 ; 0x202c <main+0x1ac2>
    1af4: d0 03        	bne	$1af9 <main+0x158f>
    1af6: 4c 0d 1c     	jmp	$1c0d <main+0x16a3>
    1af9: a9 00        	lda	#$0
    1afb: 91 2c        	sta	($2c),y                 ; 0x202c <main+0x1ac2>
    1afd: 1a           	inc
    1afe: 84 2f        	sty	$2f                     ; 0x202f <main+0x1ac5>
    1b00: 31 24        	and	($24),y                 ; 0x2024 <main+0x1aba>
    1b02: a2 20        	ldx	#$20
    1b04: a8           	tay
    1b05: f0 02        	beq	$1b09 <main+0x159f>
    1b07: a2 2a        	ldx	#$2a
    1b09: 86 42        	stx	$42                     ; 0x2042 <main+0x1ad8>
    1b0b: a2 42        	ldx	#$42
    1b0d: 86 12        	stx	$12                     ; 0x2012 <main+0x1aa8>
    1b0f: a2 00        	ldx	#$0
    1b11: 86 13        	stx	$13                     ; 0x2013 <main+0x1aa9>
    1b13: a5 12        	lda	$12                     ; 0x2012 <main+0x1aa8>
    1b15: a0 14        	ldy	#$14
    1b17: 91 10        	sta	($10),y                 ; 0x2010 <main+0x1aa6>
    1b19: a5 13        	lda	$13                     ; 0x2013 <main+0x1aa9>
    1b1b: c8           	iny
    1b1c: 91 10        	sta	($10),y                 ; 0x2010 <main+0x1aa6>
    1b1e: a2 42        	ldx	#$42
    1b20: 86 12        	stx	$12                     ; 0x2012 <main+0x1aa8>
    1b22: a2 00        	ldx	#$0
    1b24: 86 13        	stx	$13                     ; 0x2013 <main+0x1aa9>
    1b26: 20 84 31     	jsr	$3184 <textPrint>
    1b29: a9 02        	lda	#$2
    1b2b: a4 2f        	ldy	$2f                     ; 0x202f <main+0x1ac5>
    1b2d: 31 24        	and	($24),y                 ; 0x2024 <main+0x1aba>
    1b2f: a2 20        	ldx	#$20
    1b31: a8           	tay
    1b32: f0 02        	beq	$1b36 <main+0x15cc>
    1b34: a2 2a        	ldx	#$2a
    1b36: 86 42        	stx	$42                     ; 0x2042 <main+0x1ad8>
    1b38: a0 14        	ldy	#$14
    1b3a: b1 10        	lda	($10),y                 ; 0x2010 <main+0x1aa6>
    1b3c: 85 12        	sta	$12                     ; 0x2012 <main+0x1aa8>
    1b3e: c8           	iny
    1b3f: b1 10        	lda	($10),y                 ; 0x2010 <main+0x1aa6>
    1b41: 85 13        	sta	$13                     ; 0x2013 <main+0x1aa9>
    1b43: 20 84 31     	jsr	$3184 <textPrint>
    1b46: a9 04        	lda	#$4
    1b48: a4 2f        	ldy	$2f                     ; 0x202f <main+0x1ac5>
    1b4a: 31 24        	and	($24),y                 ; 0x2024 <main+0x1aba>
    1b4c: a2 20        	ldx	#$20
    1b4e: a8           	tay
    1b4f: f0 02        	beq	$1b53 <main+0x15e9>
    1b51: a2 2a        	ldx	#$2a
    1b53: 86 42        	stx	$42                     ; 0x2042 <main+0x1ad8>
    1b55: a0 14        	ldy	#$14
    1b57: b1 10        	lda	($10),y                 ; 0x2010 <main+0x1aa6>
    1b59: 85 12        	sta	$12                     ; 0x2012 <main+0x1aa8>
    1b5b: c8           	iny
    1b5c: b1 10        	lda	($10),y                 ; 0x2010 <main+0x1aa6>
    1b5e: 85 13        	sta	$13                     ; 0x2013 <main+0x1aa9>
    1b60: 20 84 31     	jsr	$3184 <textPrint>
    1b63: a9 08        	lda	#$8
    1b65: a4 2f        	ldy	$2f                     ; 0x202f <main+0x1ac5>
    1b67: 31 24        	and	($24),y                 ; 0x2024 <main+0x1aba>
    1b69: a2 20        	ldx	#$20
    1b6b: a8           	tay
    1b6c: f0 02        	beq	$1b70 <main+0x1606>
    1b6e: a2 2a        	ldx	#$2a
    1b70: 86 42        	stx	$42                     ; 0x2042 <main+0x1ad8>
    1b72: a0 14        	ldy	#$14
    1b74: b1 10        	lda	($10),y                 ; 0x2010 <main+0x1aa6>
    1b76: 85 12        	sta	$12                     ; 0x2012 <main+0x1aa8>
    1b78: c8           	iny
    1b79: b1 10        	lda	($10),y                 ; 0x2010 <main+0x1aa6>
    1b7b: 85 13        	sta	$13                     ; 0x2013 <main+0x1aa9>
    1b7d: 20 84 31     	jsr	$3184 <textPrint>
    1b80: a9 10        	lda	#$10
    1b82: a4 2f        	ldy	$2f                     ; 0x202f <main+0x1ac5>
    1b84: 31 24        	and	($24),y                 ; 0x2024 <main+0x1aba>
    1b86: a2 20        	ldx	#$20
    1b88: a8           	tay
    1b89: f0 02        	beq	$1b8d <main+0x1623>
    1b8b: a2 2a        	ldx	#$2a
    1b8d: 86 42        	stx	$42                     ; 0x2042 <main+0x1ad8>
    1b8f: a0 14        	ldy	#$14
    1b91: b1 10        	lda	($10),y                 ; 0x2010 <main+0x1aa6>
    1b93: 85 12        	sta	$12                     ; 0x2012 <main+0x1aa8>
    1b95: c8           	iny
    1b96: b1 10        	lda	($10),y                 ; 0x2010 <main+0x1aa6>
    1b98: 85 13        	sta	$13                     ; 0x2013 <main+0x1aa9>
    1b9a: 20 84 31     	jsr	$3184 <textPrint>
    1b9d: a9 20        	lda	#$20
    1b9f: a4 2f        	ldy	$2f                     ; 0x202f <main+0x1ac5>
    1ba1: 31 24        	and	($24),y                 ; 0x2024 <main+0x1aba>
    1ba3: a2 20        	ldx	#$20
    1ba5: a8           	tay
    1ba6: f0 02        	beq	$1baa <main+0x1640>
    1ba8: a2 2a        	ldx	#$2a
    1baa: 86 42        	stx	$42                     ; 0x2042 <main+0x1ad8>
    1bac: a0 14        	ldy	#$14
    1bae: b1 10        	lda	($10),y                 ; 0x2010 <main+0x1aa6>
    1bb0: 85 12        	sta	$12                     ; 0x2012 <main+0x1aa8>
    1bb2: c8           	iny
    1bb3: b1 10        	lda	($10),y                 ; 0x2010 <main+0x1aa6>
    1bb5: 85 13        	sta	$13                     ; 0x2013 <main+0x1aa9>
    1bb7: 20 84 31     	jsr	$3184 <textPrint>
    1bba: a9 40        	lda	#$40
    1bbc: a4 2f        	ldy	$2f                     ; 0x202f <main+0x1ac5>
    1bbe: 31 24        	and	($24),y                 ; 0x2024 <main+0x1aba>
    1bc0: a2 20        	ldx	#$20
    1bc2: a8           	tay
    1bc3: f0 02        	beq	$1bc7 <main+0x165d>
    1bc5: a2 2a        	ldx	#$2a
    1bc7: 86 42        	stx	$42                     ; 0x2042 <main+0x1ad8>
    1bc9: a2 42        	ldx	#$42
    1bcb: 86 12        	stx	$12                     ; 0x2012 <main+0x1aa8>
    1bcd: a2 00        	ldx	#$0
    1bcf: 86 13        	stx	$13                     ; 0x2013 <main+0x1aa9>
    1bd1: a5 12        	lda	$12                     ; 0x2012 <main+0x1aa8>
    1bd3: a0 14        	ldy	#$14
    1bd5: 91 10        	sta	($10),y                 ; 0x2010 <main+0x1aa6>
    1bd7: a5 13        	lda	$13                     ; 0x2013 <main+0x1aa9>
    1bd9: c8           	iny
    1bda: 91 10        	sta	($10),y                 ; 0x2010 <main+0x1aa6>
    1bdc: 88           	dey
    1bdd: b1 10        	lda	($10),y                 ; 0x2010 <main+0x1aa6>
    1bdf: 85 28        	sta	$28                     ; 0x2028 <main+0x1abe>
    1be1: c8           	iny
    1be2: b1 10        	lda	($10),y                 ; 0x2010 <main+0x1aa6>
    1be4: 85 29        	sta	$29                     ; 0x2029 <main+0x1abf>
    1be6: 88           	dey
    1be7: b1 10        	lda	($10),y                 ; 0x2010 <main+0x1aa6>
    1be9: 85 12        	sta	$12                     ; 0x2012 <main+0x1aa8>
    1beb: c8           	iny
    1bec: b1 10        	lda	($10),y                 ; 0x2010 <main+0x1aa6>
    1bee: 85 13        	sta	$13                     ; 0x2013 <main+0x1aa9>
    1bf0: 20 84 31     	jsr	$3184 <textPrint>
    1bf3: a4 2f        	ldy	$2f                     ; 0x202f <main+0x1ac5>
    1bf5: b1 24        	lda	($24),y                 ; 0x2024 <main+0x1aba>
    1bf7: a2 20        	ldx	#$20
    1bf9: a8           	tay
    1bfa: 10 02        	bpl	$1bfe <main+0x1694>
    1bfc: a2 2a        	ldx	#$2a
    1bfe: 86 42        	stx	$42                     ; 0x2042 <main+0x1ad8>
    1c00: a6 28        	ldx	$28                     ; 0x2028 <main+0x1abe>
    1c02: 86 12        	stx	$12                     ; 0x2012 <main+0x1aa8>
    1c04: a6 29        	ldx	$29                     ; 0x2029 <main+0x1abf>
    1c06: 86 13        	stx	$13                     ; 0x2013 <main+0x1aa9>
    1c08: 20 84 31     	jsr	$3184 <textPrint>
    1c0b: a4 2f        	ldy	$2f                     ; 0x202f <main+0x1ac5>
    1c0d: c8           	iny
    1c0e: 18           	clc
    1c0f: a5 2e        	lda	$2e                     ; 0x202e <main+0x1ac4>
    1c11: 69 08        	adc	#$8
    1c13: c0 08        	cpy	#$8
    1c15: f0 03        	beq	$1c1a <main+0x16b0>
    1c17: 4c de 1a     	jmp	$1ade <main+0x1574>
    1c1a: a5 24        	lda	$24                     ; 0x2024 <main+0x1aba>
    1c1c: 18           	clc
    1c1d: 69 08        	adc	#$8
    1c1f: 85 24        	sta	$24                     ; 0x2024 <main+0x1aba>
    1c21: a5 25        	lda	$25                     ; 0x2025 <main+0x1abb>
    1c23: 69 00        	adc	#$0
    1c25: 85 25        	sta	$25                     ; 0x2025 <main+0x1abb>
    1c27: a5 2c        	lda	$2c                     ; 0x202c <main+0x1ac2>
    1c29: 18           	clc
    1c2a: 69 08        	adc	#$8
    1c2c: 85 2c        	sta	$2c                     ; 0x202c <main+0x1ac2>
    1c2e: a5 2d        	lda	$2d                     ; 0x202d <main+0x1ac3>
    1c30: 69 00        	adc	#$0
    1c32: 85 2d        	sta	$2d                     ; 0x202d <main+0x1ac3>
    1c34: a5 2a        	lda	$2a                     ; 0x202a <main+0x1ac0>
    1c36: c9 10        	cmp	#$10
    1c38: f0 03        	beq	$1c3d <main+0x16d3>
    1c3a: 4c ca 1a     	jmp	$1aca <main+0x1560>
    1c3d: a6 64        	ldx	$64                     ; 0x2064 <main+0x1afa>
    1c3f: a0 63        	ldy	#$63
    1c41: 84 24        	sty	$24                     ; 0x2024 <main+0x1aba>
    1c43: a0 00        	ldy	#$0
    1c45: 84 25        	sty	$25                     ; 0x2025 <main+0x1abb>
    1c47: a0 12        	ldy	#$12
    1c49: b1 10        	lda	($10),y                 ; 0x2010 <main+0x1aa6>
    1c4b: 85 2a        	sta	$2a                     ; 0x202a <main+0x1ac0>
    1c4d: c8           	iny
    1c4e: b1 10        	lda	($10),y                 ; 0x2010 <main+0x1aa6>
    1c50: 85 2b        	sta	$2b                     ; 0x202b <main+0x1ac1>
    1c52: a0 00        	ldy	#$0
    1c54: 84 2e        	sty	$2e                     ; 0x202e <main+0x1ac4>
    1c56: a0 00        	ldy	#$0
    1c58: 84 2f        	sty	$2f                     ; 0x202f <main+0x1ac5>
    1c5a: e0 08        	cpx	#$8
    1c5c: f0 03        	beq	$1c61 <main+0x16f7>
    1c5e: 4c 9e 24     	jmp	$249e <main+0x1f34>
    1c61: a6 68        	ldx	$68                     ; 0x2068 <main+0x1afe>
    1c63: e0 83        	cpx	#$83
    1c65: f0 03        	beq	$1c6a <main+0x1700>
    1c67: 4c d5 20     	jmp	$20d5 <main+0x1b6b>
    1c6a: a5 44        	lda	$44                     ; 0x2044 <main+0x1ada>
    1c6c: 29 01        	and	#$1
    1c6e: f0 03        	beq	$1c73 <main+0x1709>
    1c70: 4c e0 1d     	jmp	$1de0 <main+0x1876>
    1c73: a2 b0        	ldx	#$b0
    1c75: 8e b1 dd     	stx	$ddb1                   ; 0xddb1 <__heap_start+0x381d>
    1c78: a0 7b        	ldy	#$7b
    1c7a: 8c b1 dd     	sty	$ddb1                   ; 0xddb1 <__heap_start+0x381d>
    1c7d: 9c b1 dd     	stz	$ddb1                   ; 0xddb1 <__heap_start+0x381d>
    1c80: a9 b1        	lda	#$b1
    1c82: 8d b1 dd     	sta	$ddb1                   ; 0xddb1 <__heap_start+0x381d>
    1c85: 8c b1 dd     	sty	$ddb1                   ; 0xddb1 <__heap_start+0x381d>
    1c88: 9c b1 dd     	stz	$ddb1                   ; 0xddb1 <__heap_start+0x381d>
    1c8b: a2 b2        	ldx	#$b2
    1c8d: 8e b1 dd     	stx	$ddb1                   ; 0xddb1 <__heap_start+0x381d>
    1c90: 8c b1 dd     	sty	$ddb1                   ; 0xddb1 <__heap_start+0x381d>
    1c93: 9c b1 dd     	stz	$ddb1                   ; 0xddb1 <__heap_start+0x381d>
    1c96: e8           	inx
    1c97: 8e b1 dd     	stx	$ddb1                   ; 0xddb1 <__heap_start+0x381d>
    1c9a: 8c b1 dd     	sty	$ddb1                   ; 0xddb1 <__heap_start+0x381d>
    1c9d: 9c b1 dd     	stz	$ddb1                   ; 0xddb1 <__heap_start+0x381d>
    1ca0: e8           	inx
    1ca1: 8e b1 dd     	stx	$ddb1                   ; 0xddb1 <__heap_start+0x381d>
    1ca4: 8c b1 dd     	sty	$ddb1                   ; 0xddb1 <__heap_start+0x381d>
    1ca7: 9c b1 dd     	stz	$ddb1                   ; 0xddb1 <__heap_start+0x381d>
    1caa: e8           	inx
    1cab: 8e b1 dd     	stx	$ddb1                   ; 0xddb1 <__heap_start+0x381d>
    1cae: 8c b1 dd     	sty	$ddb1                   ; 0xddb1 <__heap_start+0x381d>
    1cb1: 9c b1 dd     	stz	$ddb1                   ; 0xddb1 <__heap_start+0x381d>
    1cb4: e8           	inx
    1cb5: 8e b1 dd     	stx	$ddb1                   ; 0xddb1 <__heap_start+0x381d>
    1cb8: 8c b1 dd     	sty	$ddb1                   ; 0xddb1 <__heap_start+0x381d>
    1cbb: 9c b1 dd     	stz	$ddb1                   ; 0xddb1 <__heap_start+0x381d>
    1cbe: e8           	inx
    1cbf: 8e b1 dd     	stx	$ddb1                   ; 0xddb1 <__heap_start+0x381d>
    1cc2: 8c b1 dd     	sty	$ddb1                   ; 0xddb1 <__heap_start+0x381d>
    1cc5: 9c b1 dd     	stz	$ddb1                   ; 0xddb1 <__heap_start+0x381d>
    1cc8: e8           	inx
    1cc9: 8e b1 dd     	stx	$ddb1                   ; 0xddb1 <__heap_start+0x381d>
    1ccc: 8c b1 dd     	sty	$ddb1                   ; 0xddb1 <__heap_start+0x381d>
    1ccf: 9c b1 dd     	stz	$ddb1                   ; 0xddb1 <__heap_start+0x381d>
    1cd2: e8           	inx
    1cd3: 8e b1 dd     	stx	$ddb1                   ; 0xddb1 <__heap_start+0x381d>
    1cd6: 8c b1 dd     	sty	$ddb1                   ; 0xddb1 <__heap_start+0x381d>
    1cd9: 9c b1 dd     	stz	$ddb1                   ; 0xddb1 <__heap_start+0x381d>
    1cdc: e8           	inx
    1cdd: 8e b1 dd     	stx	$ddb1                   ; 0xddb1 <__heap_start+0x381d>
    1ce0: 8c b1 dd     	sty	$ddb1                   ; 0xddb1 <__heap_start+0x381d>
    1ce3: 9c b1 dd     	stz	$ddb1                   ; 0xddb1 <__heap_start+0x381d>
    1ce6: e8           	inx
    1ce7: 8e b1 dd     	stx	$ddb1                   ; 0xddb1 <__heap_start+0x381d>
    1cea: 8c b1 dd     	sty	$ddb1                   ; 0xddb1 <__heap_start+0x381d>
    1ced: 9c b1 dd     	stz	$ddb1                   ; 0xddb1 <__heap_start+0x381d>
    1cf0: e8           	inx
    1cf1: 8e b1 dd     	stx	$ddb1                   ; 0xddb1 <__heap_start+0x381d>
    1cf4: 8c b1 dd     	sty	$ddb1                   ; 0xddb1 <__heap_start+0x381d>
    1cf7: 9c b1 dd     	stz	$ddb1                   ; 0xddb1 <__heap_start+0x381d>
    1cfa: e8           	inx
    1cfb: 8e b1 dd     	stx	$ddb1                   ; 0xddb1 <__heap_start+0x381d>
    1cfe: 8c b1 dd     	sty	$ddb1                   ; 0xddb1 <__heap_start+0x381d>
    1d01: 9c b1 dd     	stz	$ddb1                   ; 0xddb1 <__heap_start+0x381d>
    1d04: e8           	inx
    1d05: 8e b1 dd     	stx	$ddb1                   ; 0xddb1 <__heap_start+0x381d>
    1d08: 8c b1 dd     	sty	$ddb1                   ; 0xddb1 <__heap_start+0x381d>
    1d0b: 9c b1 dd     	stz	$ddb1                   ; 0xddb1 <__heap_start+0x381d>
    1d0e: e8           	inx
    1d0f: 8e b1 dd     	stx	$ddb1                   ; 0xddb1 <__heap_start+0x381d>
    1d12: 8c b1 dd     	sty	$ddb1                   ; 0xddb1 <__heap_start+0x381d>
    1d15: 9c b1 dd     	stz	$ddb1                   ; 0xddb1 <__heap_start+0x381d>
    1d18: a2 b0        	ldx	#$b0
    1d1a: 8e a1 dd     	stx	$dda1                   ; 0xdda1 <__heap_start+0x380d>
    1d1d: 8c a1 dd     	sty	$dda1                   ; 0xdda1 <__heap_start+0x380d>
    1d20: 9c a1 dd     	stz	$dda1                   ; 0xdda1 <__heap_start+0x380d>
    1d23: 8d a1 dd     	sta	$dda1                   ; 0xdda1 <__heap_start+0x380d>
    1d26: 8c a1 dd     	sty	$dda1                   ; 0xdda1 <__heap_start+0x380d>
    1d29: 9c a1 dd     	stz	$dda1                   ; 0xdda1 <__heap_start+0x380d>
    1d2c: a2 b2        	ldx	#$b2
    1d2e: 8e a1 dd     	stx	$dda1                   ; 0xdda1 <__heap_start+0x380d>
    1d31: 8c a1 dd     	sty	$dda1                   ; 0xdda1 <__heap_start+0x380d>
    1d34: 9c a1 dd     	stz	$dda1                   ; 0xdda1 <__heap_start+0x380d>
    1d37: e8           	inx
    1d38: 8e a1 dd     	stx	$dda1                   ; 0xdda1 <__heap_start+0x380d>
    1d3b: 8c a1 dd     	sty	$dda1                   ; 0xdda1 <__heap_start+0x380d>
    1d3e: 9c a1 dd     	stz	$dda1                   ; 0xdda1 <__heap_start+0x380d>
    1d41: e8           	inx
    1d42: 8e a1 dd     	stx	$dda1                   ; 0xdda1 <__heap_start+0x380d>
    1d45: 8c a1 dd     	sty	$dda1                   ; 0xdda1 <__heap_start+0x380d>
    1d48: 9c a1 dd     	stz	$dda1                   ; 0xdda1 <__heap_start+0x380d>
    1d4b: e8           	inx
    1d4c: 8e a1 dd     	stx	$dda1                   ; 0xdda1 <__heap_start+0x380d>
    1d4f: 8c a1 dd     	sty	$dda1                   ; 0xdda1 <__heap_start+0x380d>
    1d52: 9c a1 dd     	stz	$dda1                   ; 0xdda1 <__heap_start+0x380d>
    1d55: e8           	inx
    1d56: 8e a1 dd     	stx	$dda1                   ; 0xdda1 <__heap_start+0x380d>
    1d59: 8c a1 dd     	sty	$dda1                   ; 0xdda1 <__heap_start+0x380d>
    1d5c: 9c a1 dd     	stz	$dda1                   ; 0xdda1 <__heap_start+0x380d>
    1d5f: e8           	inx
    1d60: 8e a1 dd     	stx	$dda1                   ; 0xdda1 <__heap_start+0x380d>
    1d63: 8c a1 dd     	sty	$dda1                   ; 0xdda1 <__heap_start+0x380d>
    1d66: 9c a1 dd     	stz	$dda1                   ; 0xdda1 <__heap_start+0x380d>
    1d69: e8           	inx
    1d6a: 8e a1 dd     	stx	$dda1                   ; 0xdda1 <__heap_start+0x380d>
    1d6d: 8c a1 dd     	sty	$dda1                   ; 0xdda1 <__heap_start+0x380d>
    1d70: 9c a1 dd     	stz	$dda1                   ; 0xdda1 <__heap_start+0x380d>
    1d73: e8           	inx
    1d74: 8e a1 dd     	stx	$dda1                   ; 0xdda1 <__heap_start+0x380d>
    1d77: 8c a1 dd     	sty	$dda1                   ; 0xdda1 <__heap_start+0x380d>
    1d7a: 9c a1 dd     	stz	$dda1                   ; 0xdda1 <__heap_start+0x380d>
    1d7d: e8           	inx
    1d7e: 8e a1 dd     	stx	$dda1                   ; 0xdda1 <__heap_start+0x380d>
    1d81: 8c a1 dd     	sty	$dda1                   ; 0xdda1 <__heap_start+0x380d>
    1d84: 9c a1 dd     	stz	$dda1                   ; 0xdda1 <__heap_start+0x380d>
    1d87: e8           	inx
    1d88: 8e a1 dd     	stx	$dda1                   ; 0xdda1 <__heap_start+0x380d>
    1d8b: 8c a1 dd     	sty	$dda1                   ; 0xdda1 <__heap_start+0x380d>
    1d8e: 9c a1 dd     	stz	$dda1                   ; 0xdda1 <__heap_start+0x380d>
    1d91: e8           	inx
    1d92: 8e a1 dd     	stx	$dda1                   ; 0xdda1 <__heap_start+0x380d>
    1d95: 8c a1 dd     	sty	$dda1                   ; 0xdda1 <__heap_start+0x380d>
    1d98: 9c a1 dd     	stz	$dda1                   ; 0xdda1 <__heap_start+0x380d>
    1d9b: e8           	inx
    1d9c: 8e a1 dd     	stx	$dda1                   ; 0xdda1 <__heap_start+0x380d>
    1d9f: 8c a1 dd     	sty	$dda1                   ; 0xdda1 <__heap_start+0x380d>
    1da2: 9c a1 dd     	stz	$dda1                   ; 0xdda1 <__heap_start+0x380d>
    1da5: e8           	inx
    1da6: 8e a1 dd     	stx	$dda1                   ; 0xdda1 <__heap_start+0x380d>
    1da9: 8c a1 dd     	sty	$dda1                   ; 0xdda1 <__heap_start+0x380d>
    1dac: 9c a1 dd     	stz	$dda1                   ; 0xdda1 <__heap_start+0x380d>
    1daf: e8           	inx
    1db0: 8e a1 dd     	stx	$dda1                   ; 0xdda1 <__heap_start+0x380d>
    1db3: 8c a1 dd     	sty	$dda1                   ; 0xdda1 <__heap_start+0x380d>
    1db6: 9c a1 dd     	stz	$dda1                   ; 0xdda1 <__heap_start+0x380d>
    1db9: a2 01        	ldx	#$1
    1dbb: 86 44        	stx	$44                     ; 0x2044 <main+0x1ada>
    1dbd: a2 10        	ldx	#$10
    1dbf: 86 30        	stx	$30                     ; 0x2030 <main+0x1ac6>
    1dc1: a2 1a        	ldx	#$1a
    1dc3: 86 38        	stx	$38                     ; 0x2038 <main+0x1ace>
    1dc5: 8e 14 d0     	stx	$d014                   ; 0xd014 <__heap_start+0x2a80>
    1dc8: 9c 15 d0     	stz	$d015                   ; 0xd015 <__heap_start+0x2a81>
    1dcb: a2 1d        	ldx	#$1d
    1dcd: 86 39        	stx	$39                     ; 0x2039 <main+0x1acf>
    1dcf: 8e 16 d0     	stx	$d016                   ; 0xd016 <__heap_start+0x2a82>
    1dd2: 9c 17 d0     	stz	$d017                   ; 0xd017 <__heap_start+0x2a83>
    1dd5: a2 50        	ldx	#$50
    1dd7: 86 12        	stx	$12                     ; 0x2012 <main+0x1aa8>
    1dd9: a2 8e        	ldx	#$8e
    1ddb: 86 13        	stx	$13                     ; 0x2013 <main+0x1aa9>
    1ddd: 20 84 31     	jsr	$3184 <textPrint>
    1de0: a6 60        	ldx	$60                     ; 0x2060 <main+0x1af6>
    1de2: a4 61        	ldy	$61                     ; 0x2061 <main+0x1af7>
    1de4: 86 12        	stx	$12                     ; 0x2012 <main+0x1aa8>
    1de6: 84 13        	sty	$13                     ; 0x2013 <main+0x1aa9>
    1de8: 20 95 80     	jsr	$8095 <free>
    1deb: a6 2e        	ldx	$2e                     ; 0x202e <main+0x1ac4>
    1ded: a4 2f        	ldy	$2f                     ; 0x202f <main+0x1ac5>
    1def: 86 60        	stx	$60                     ; 0x2060 <main+0x1af6>
    1df1: 84 61        	sty	$61                     ; 0x2061 <main+0x1af7>
    1df3: a2 27        	ldx	#$27
    1df5: 86 12        	stx	$12                     ; 0x2012 <main+0x1aa8>
    1df7: a2 a4        	ldx	#$a4
    1df9: 86 13        	stx	$13                     ; 0x2013 <main+0x1aa9>
    1dfb: 64 14        	stz	$14                     ; 0x2014 <main+0x1aaa>
    1dfd: a2 80        	ldx	#$80
    1dff: a9 00        	lda	#$0
    1e01: 20 51 82     	jsr	$8251 <__memset>
    1e04: a2 a7        	ldx	#$a7
    1e06: 86 12        	stx	$12                     ; 0x2012 <main+0x1aa8>
    1e08: a2 a4        	ldx	#$a4
    1e0a: 86 13        	stx	$13                     ; 0x2013 <main+0x1aa9>
    1e0c: 64 14        	stz	$14                     ; 0x2014 <main+0x1aaa>
    1e0e: a2 80        	ldx	#$80
    1e10: a9 00        	lda	#$0
    1e12: 20 51 82     	jsr	$8251 <__memset>
    1e15: a6 48        	ldx	$48                     ; 0x2048 <main+0x1ade>
    1e17: a4 49        	ldy	$49                     ; 0x2049 <main+0x1adf>
    1e19: c4 2f        	cpy	$2f                     ; 0x202f <main+0x1ac5>
    1e1b: d0 04        	bne	$1e21 <main+0x18b7>
    1e1d: e4 2e        	cpx	$2e                     ; 0x202e <main+0x1ac4>
    1e1f: f0 07        	beq	$1e28 <main+0x18be>
    1e21: 86 12        	stx	$12                     ; 0x2012 <main+0x1aa8>
    1e23: 84 13        	sty	$13                     ; 0x2013 <main+0x1aa9>
    1e25: 20 95 80     	jsr	$8095 <free>
    1e28: a6 2e        	ldx	$2e                     ; 0x202e <main+0x1ac4>
    1e2a: a4 2f        	ldy	$2f                     ; 0x202f <main+0x1ac5>
    1e2c: 86 48        	stx	$48                     ; 0x2048 <main+0x1ade>
    1e2e: 84 49        	sty	$49                     ; 0x2049 <main+0x1adf>
    1e30: a2 00        	ldx	#$0
    1e32: a9 40        	lda	#$40
    1e34: 20 c6 7e     	jsr	$7ec6 <malloc>
    1e37: a6 12        	ldx	$12                     ; 0x2012 <main+0x1aa8>
    1e39: a4 13        	ldy	$13                     ; 0x2013 <main+0x1aa9>
    1e3b: 86 48        	stx	$48                     ; 0x2048 <main+0x1ade>
    1e3d: 84 49        	sty	$49                     ; 0x2049 <main+0x1adf>
    1e3f: 64 12        	stz	$12                     ; 0x2012 <main+0x1aa8>
    1e41: 64 4a        	stz	$4a                     ; 0x204a <main+0x1ae0>
    1e43: 64 4b        	stz	$4b                     ; 0x204b <main+0x1ae1>
    1e45: 64 4c        	stz	$4c                     ; 0x204c <main+0x1ae2>
    1e47: 64 4d        	stz	$4d                     ; 0x204d <main+0x1ae3>
    1e49: a2 01        	ldx	#$1
    1e4b: 86 4e        	stx	$4e                     ; 0x204e <main+0x1ae4>
    1e4d: a4 01        	ldy	$1                      ; 0x2001 <main+0x1a97>
    1e4f: e8           	inx
    1e50: 86 01        	stx	$1                      ; 0x2001 <main+0x1a97>
    1e52: a2 c0        	ldx	#$c0
    1e54: 86 13        	stx	$13                     ; 0x2013 <main+0x1aa9>
    1e56: a2 3c        	ldx	#$3c
    1e58: a5 12        	lda	$12                     ; 0x2012 <main+0x1aa8>
    1e5a: 85 14        	sta	$14                     ; 0x2014 <main+0x1aaa>
    1e5c: a5 13        	lda	$13                     ; 0x2013 <main+0x1aa9>
    1e5e: 85 15        	sta	$15                     ; 0x2015 <main+0x1aab>
    1e60: a9 20        	lda	#$20
    1e62: 92 14        	sta	($14)                   ; 0x2014 <main+0x1aaa>
    1e64: ca           	dex
    1e65: 18           	clc
    1e66: a5 14        	lda	$14                     ; 0x2014 <main+0x1aaa>
    1e68: 69 50        	adc	#$50
    1e6a: 85 14        	sta	$14                     ; 0x2014 <main+0x1aaa>
    1e6c: a5 15        	lda	$15                     ; 0x2015 <main+0x1aab>
    1e6e: 69 00        	adc	#$0
    1e70: 85 15        	sta	$15                     ; 0x2015 <main+0x1aab>
    1e72: 8a           	txa
    1e73: d0 eb        	bne	$1e60 <main+0x18f6>
    1e75: e6 12        	inc	$12                     ; 0x2012 <main+0x1aa8>
    1e77: d0 02        	bne	$1e7b <main+0x1911>
    1e79: e6 13        	inc	$13                     ; 0x2013 <main+0x1aa9>
    1e7b: a6 12        	ldx	$12                     ; 0x2012 <main+0x1aa8>
    1e7d: e0 50        	cpx	#$50
    1e7f: d0 d5        	bne	$1e56 <main+0x18ec>
    1e81: 84 01        	sty	$1                      ; 0x2001 <main+0x1a97>
    1e83: a9 00        	lda	#$0
    1e85: 20 9d 4b     	jsr	$4b9d <filePickModal>
    1e88: aa           	tax
    1e89: f0 03        	beq	$1e8e <main+0x1924>
    1e8b: 4c 9e 24     	jmp	$249e <main+0x1f34>
    1e8e: a6 48        	ldx	$48                     ; 0x2048 <main+0x1ade>
    1e90: a4 49        	ldy	$49                     ; 0x2049 <main+0x1adf>
    1e92: 86 12        	stx	$12                     ; 0x2012 <main+0x1aa8>
    1e94: 84 13        	sty	$13                     ; 0x2013 <main+0x1aa9>
    1e96: a6 10        	ldx	$10                     ; 0x2010 <main+0x1aa6>
    1e98: a4 11        	ldy	$11                     ; 0x2011 <main+0x1aa7>
    1e9a: 8a           	txa
    1e9b: 18           	clc
    1e9c: 69 02        	adc	#$2
    1e9e: 85 14        	sta	$14                     ; 0x2014 <main+0x1aaa>
    1ea0: 98           	tya
    1ea1: 69 00        	adc	#$0
    1ea3: 85 15        	sta	$15                     ; 0x2015 <main+0x1aab>
    1ea5: 18           	clc
    1ea6: 8a           	txa
    1ea7: 69 04        	adc	#$4
    1ea9: 85 16        	sta	$16                     ; 0x2016 <main+0x1aac>
    1eab: 98           	tya
    1eac: 69 00        	adc	#$0
    1eae: aa           	tax
    1eaf: a9 33        	lda	#$33
    1eb1: 92 10        	sta	($10)                   ; 0x2010 <main+0x1aa6>
    1eb3: a9 92        	lda	#$92
    1eb5: a0 01        	ldy	#$1
    1eb7: 91 10        	sta	($10),y                 ; 0x2010 <main+0x1aa6>
    1eb9: c8           	iny
    1eba: a9 63        	lda	#$63
    1ebc: 91 10        	sta	($10),y                 ; 0x2010 <main+0x1aa6>
    1ebe: a9 88        	lda	#$88
    1ec0: 88           	dey
    1ec1: 91 14        	sta	($14),y                 ; 0x2014 <main+0x1aaa>
    1ec3: a4 16        	ldy	$16                     ; 0x2016 <main+0x1aac>
    1ec5: 84 14        	sty	$14                     ; 0x2014 <main+0x1aaa>
    1ec7: 86 15        	stx	$15                     ; 0x2015 <main+0x1aab>
    1ec9: a0 04        	ldy	#$4
    1ecb: a9 53        	lda	#$53
    1ecd: 91 10        	sta	($10),y                 ; 0x2010 <main+0x1aa6>
    1ecf: a9 92        	lda	#$92
    1ed1: a0 01        	ldy	#$1
    1ed3: 91 14        	sta	($14),y                 ; 0x2014 <main+0x1aaa>
    1ed5: a2 57        	ldx	#$57
    1ed7: 86 14        	stx	$14                     ; 0x2014 <main+0x1aaa>
    1ed9: a2 8d        	ldx	#$8d
    1edb: 86 15        	stx	$15                     ; 0x2015 <main+0x1aab>
    1edd: 20 ec 7d     	jsr	$7dec <sprintf>
    1ee0: a6 48        	ldx	$48                     ; 0x2048 <main+0x1ade>
    1ee2: a4 49        	ldy	$49                     ; 0x2049 <main+0x1adf>
    1ee4: 86 12        	stx	$12                     ; 0x2012 <main+0x1aa8>
    1ee6: 84 13        	sty	$13                     ; 0x2013 <main+0x1aa9>
    1ee8: 20 f8 51     	jsr	$51f8 <loadSMFile>
    1eeb: a6 01        	ldx	$1                      ; 0x2001 <main+0x1a97>
    1eed: 86 12        	stx	$12                     ; 0x2012 <main+0x1aa8>
    1eef: 64 24        	stz	$24                     ; 0x2024 <main+0x1aba>
    1ef1: 64 01        	stz	$1                      ; 0x2001 <main+0x1a97>
    1ef3: a0 ff        	ldy	#$ff
    1ef5: 8c 00 d8     	sty	$d800                   ; 0xd800 <__heap_start+0x326c>
    1ef8: 8c 01 d8     	sty	$d801                   ; 0xd801 <__heap_start+0x326d>
    1efb: 8c 02 d8     	sty	$d802                   ; 0xd802 <__heap_start+0x326e>
    1efe: 9c 03 d8     	stz	$d803                   ; 0xd803 <__heap_start+0x326f>
    1f01: 9c 04 d8     	stz	$d804                   ; 0xd804 <__heap_start+0x3270>
    1f04: a0 cd        	ldy	#$cd
    1f06: 8c 05 d8     	sty	$d805                   ; 0xd805 <__heap_start+0x3271>
    1f09: 8c 06 d8     	sty	$d806                   ; 0xd806 <__heap_start+0x3272>
    1f0c: 9c 07 d8     	stz	$d807                   ; 0xd807 <__heap_start+0x3273>
    1f0f: 9c 08 d8     	stz	$d808                   ; 0xd808 <__heap_start+0x3274>
    1f12: a9 d7        	lda	#$d7
    1f14: 8d 09 d8     	sta	$d809                   ; 0xd809 <__heap_start+0x3275>
    1f17: 8d 0a d8     	sta	$d80a                   ; 0xd80a <__heap_start+0x3276>
    1f1a: 9c 0b d8     	stz	$d80b                   ; 0xd80b <__heap_start+0x3277>
    1f1d: 9c 0c d8     	stz	$d80c                   ; 0xd80c <__heap_start+0x3278>
    1f20: a2 e1        	ldx	#$e1
    1f22: 8e 0d d8     	stx	$d80d                   ; 0xd80d <__heap_start+0x3279>
    1f25: 8e 0e d8     	stx	$d80e                   ; 0xd80e <__heap_start+0x327a>
    1f28: 9c 0f d8     	stz	$d80f                   ; 0xd80f <__heap_start+0x327b>
    1f2b: 9c 10 d8     	stz	$d810                   ; 0xd810 <__heap_start+0x327c>
    1f2e: a2 eb        	ldx	#$eb
    1f30: 8e 11 d8     	stx	$d811                   ; 0xd811 <__heap_start+0x327d>
    1f33: 8e 12 d8     	stx	$d812                   ; 0xd812 <__heap_start+0x327e>
    1f36: 9c 13 d8     	stz	$d813                   ; 0xd813 <__heap_start+0x327f>
    1f39: 9c 14 d8     	stz	$d814                   ; 0xd814 <__heap_start+0x3280>
    1f3c: a2 f5        	ldx	#$f5
    1f3e: 8e 15 d8     	stx	$d815                   ; 0xd815 <__heap_start+0x3281>
    1f41: 8e 16 d8     	stx	$d816                   ; 0xd816 <__heap_start+0x3282>
    1f44: 9c 17 d8     	stz	$d817                   ; 0xd817 <__heap_start+0x3283>
    1f47: 9c 18 d8     	stz	$d818                   ; 0xd818 <__heap_start+0x3284>
    1f4a: a2 66        	ldx	#$66
    1f4c: 8e 19 d8     	stx	$d819                   ; 0xd819 <__heap_start+0x3285>
    1f4f: 8c 1a d8     	sty	$d81a                   ; 0xd81a <__heap_start+0x3286>
    1f52: 9c 1b d8     	stz	$d81b                   ; 0xd81b <__heap_start+0x3287>
    1f55: 9c 1c d8     	stz	$d81c                   ; 0xd81c <__heap_start+0x3288>
    1f58: a2 6b        	ldx	#$6b
    1f5a: 8e 1d d8     	stx	$d81d                   ; 0xd81d <__heap_start+0x3289>
    1f5d: 8d 1e d8     	sta	$d81e                   ; 0xd81e <__heap_start+0x328a>
    1f60: 9c 1f d8     	stz	$d81f                   ; 0xd81f <__heap_start+0x328b>
    1f63: 9c 20 d8     	stz	$d820                   ; 0xd820 <__heap_start+0x328c>
    1f66: a2 70        	ldx	#$70
    1f68: 8e 21 d8     	stx	$d821                   ; 0xd821 <__heap_start+0x328d>
    1f6b: a2 e1        	ldx	#$e1
    1f6d: 8e 22 d8     	stx	$d822                   ; 0xd822 <__heap_start+0x328e>
    1f70: 9c 23 d8     	stz	$d823                   ; 0xd823 <__heap_start+0x328f>
    1f73: 9c 24 d8     	stz	$d824                   ; 0xd824 <__heap_start+0x3290>
    1f76: a2 75        	ldx	#$75
    1f78: 8e 25 d8     	stx	$d825                   ; 0xd825 <__heap_start+0x3291>
    1f7b: a2 eb        	ldx	#$eb
    1f7d: 8e 26 d8     	stx	$d826                   ; 0xd826 <__heap_start+0x3292>
    1f80: 9c 27 d8     	stz	$d827                   ; 0xd827 <__heap_start+0x3293>
    1f83: 9c 28 d8     	stz	$d828                   ; 0xd828 <__heap_start+0x3294>
    1f86: a2 7a        	ldx	#$7a
    1f88: 8e 29 d8     	stx	$d829                   ; 0xd829 <__heap_start+0x3295>
    1f8b: a2 f5        	ldx	#$f5
    1f8d: 8e 2a d8     	stx	$d82a                   ; 0xd82a <__heap_start+0x3296>
    1f90: 9c 2b d8     	stz	$d82b                   ; 0xd82b <__heap_start+0x3297>
    1f93: 9c 2c d8     	stz	$d82c                   ; 0xd82c <__heap_start+0x3298>
    1f96: 9c 2d d8     	stz	$d82d                   ; 0xd82d <__heap_start+0x3299>
    1f99: 8c 2e d8     	sty	$d82e                   ; 0xd82e <__heap_start+0x329a>
    1f9c: 9c 2f d8     	stz	$d82f                   ; 0xd82f <__heap_start+0x329b>
    1f9f: 9c 30 d8     	stz	$d830                   ; 0xd830 <__heap_start+0x329c>
    1fa2: 9c 31 d8     	stz	$d831                   ; 0xd831 <__heap_start+0x329d>
    1fa5: 8d 32 d8     	sta	$d832                   ; 0xd832 <__heap_start+0x329e>
    1fa8: 9c 33 d8     	stz	$d833                   ; 0xd833 <__heap_start+0x329f>
    1fab: 9c 34 d8     	stz	$d834                   ; 0xd834 <__heap_start+0x32a0>
    1fae: 9c 35 d8     	stz	$d835                   ; 0xd835 <__heap_start+0x32a1>
    1fb1: a0 e1        	ldy	#$e1
    1fb3: 8c 36 d8     	sty	$d836                   ; 0xd836 <__heap_start+0x32a2>
    1fb6: 9c 37 d8     	stz	$d837                   ; 0xd837 <__heap_start+0x32a3>
    1fb9: 9c 38 d8     	stz	$d838                   ; 0xd838 <__heap_start+0x32a4>
    1fbc: 9c 39 d8     	stz	$d839                   ; 0xd839 <__heap_start+0x32a5>
    1fbf: a0 eb        	ldy	#$eb
    1fc1: 8c 3a d8     	sty	$d83a                   ; 0xd83a <__heap_start+0x32a6>
    1fc4: 9c 3b d8     	stz	$d83b                   ; 0xd83b <__heap_start+0x32a7>
    1fc7: 9c 3c d8     	stz	$d83c                   ; 0xd83c <__heap_start+0x32a8>
    1fca: 9c 3d d8     	stz	$d83d                   ; 0xd83d <__heap_start+0x32a9>
    1fcd: 8e 3e d8     	stx	$d83e                   ; 0xd83e <__heap_start+0x32aa>
    1fd0: 9c 3f d8     	stz	$d83f                   ; 0xd83f <__heap_start+0x32ab>
    1fd3: a6 12        	ldx	$12                     ; 0x2012 <main+0x1aa8>
    1fd5: 86 01        	stx	$1                      ; 0x2001 <main+0x1a97>
    1fd7: 64 38        	stz	$38                     ; 0x2038 <main+0x1ace>
    1fd9: 9c 14 d0     	stz	$d014                   ; 0xd014 <__heap_start+0x2a80>
    1fdc: 9c 15 d0     	stz	$d015                   ; 0xd015 <__heap_start+0x2a81>
    1fdf: a2 19        	ldx	#$19
    1fe1: 86 39        	stx	$39                     ; 0x2039 <main+0x1acf>
    1fe3: 8e 16 d0     	stx	$d016                   ; 0xd016 <__heap_start+0x2a82>
    1fe6: 9c 17 d0     	stz	$d017                   ; 0xd017 <__heap_start+0x2a83>
    1fe9: a5 48        	lda	$48                     ; 0x2048 <main+0x1ade>
    1feb: a6 49        	ldx	$49                     ; 0x2049 <main+0x1adf>
    1fed: 92 10        	sta	($10)                   ; 0x2010 <main+0x1aa6>
    1fef: a0 01        	ldy	#$1
    1ff1: 8a           	txa
    1ff2: 91 10        	sta	($10),y                 ; 0x2010 <main+0x1aa6>
    1ff4: a2 85        	ldx	#$85
    1ff6: 86 12        	stx	$12                     ; 0x2012 <main+0x1aa8>
    1ff8: a2 8c        	ldx	#$8c
    1ffa: 86 13        	stx	$13                     ; 0x2013 <main+0x1aa9>
    1ffc: 20 64 7d     	jsr	$7d64 <printf>
    1fff: 20 5f 4f     	jsr	$4f5f <detectStructure>
    2002: 20 23 66     	jsr	$6623 <initTrack>
    2005: a6 01        	ldx	$1                      ; 0x2001 <main+0x1a97>
    2007: 86 14        	stx	$14                     ; 0x2014 <main+0x1aaa>
    2009: a2 02        	ldx	#$2
    200b: 86 01        	stx	$1                      ; 0x2001 <main+0x1a97>
    200d: a0 c0        	ldy	#$c0
    200f: a2 3c        	ldx	#$3c
    2011: a5 24        	lda	$24                     ; 0x2024 <main+0x1aba>
    2013: 85 12        	sta	$12                     ; 0x2012 <main+0x1aa8>
    2015: 84 13        	sty	$13                     ; 0x2013 <main+0x1aa9>
    2017: a9 20        	lda	#$20
    2019: 92 12        	sta	($12)                   ; 0x2012 <main+0x1aa8>
    201b: ca           	dex
    201c: 18           	clc
    201d: a5 12        	lda	$12                     ; 0x2012 <main+0x1aa8>
    201f: 69 50        	adc	#$50
    2021: 85 12        	sta	$12                     ; 0x2012 <main+0x1aa8>
    2023: a5 13        	lda	$13                     ; 0x2013 <main+0x1aa9>
    2025: 69 00        	adc	#$0
    2027: 85 13        	sta	$13                     ; 0x2013 <main+0x1aa9>
    2029: 8a           	txa
    202a: d0 eb        	bne	$2017 <main+0x1aad>
    202c: e6 24        	inc	$24                     ; 0x2024 <main+0x1aba>
    202e: d0 01        	bne	$2031 <main+0x1ac7>
    2030: c8           	iny
    2031: a6 24        	ldx	$24                     ; 0x2024 <main+0x1aba>
    2033: e0 50        	cpx	#$50
    2035: d0 d8        	bne	$200f <main+0x1aa5>
    2037: a6 14        	ldx	$14                     ; 0x2014 <main+0x1aaa>
    2039: 86 01        	stx	$1                      ; 0x2001 <main+0x1a97>
    203b: 20 4e 6b     	jsr	$6b4e <displayInfo>
    203e: 20 3c 6f     	jsr	$6f3c <superExtraInfo>
    2041: 64 44        	stz	$44                     ; 0x2044 <main+0x1ada>
    2043: 64 30        	stz	$30                     ; 0x2030 <main+0x1ac6>
    2045: a2 1a        	ldx	#$1a
    2047: 86 38        	stx	$38                     ; 0x2038 <main+0x1ace>
    2049: 8e 14 d0     	stx	$d014                   ; 0xd014 <__heap_start+0x2a80>
    204c: 9c 15 d0     	stz	$d015                   ; 0xd015 <__heap_start+0x2a81>
    204f: a2 1d        	ldx	#$1d
    2051: 86 39        	stx	$39                     ; 0x2039 <main+0x1acf>
    2053: 8e 16 d0     	stx	$d016                   ; 0xd016 <__heap_start+0x2a82>
    2056: 9c 17 d0     	stz	$d017                   ; 0xd017 <__heap_start+0x2a83>
    2059: a2 50        	ldx	#$50
    205b: 86 12        	stx	$12                     ; 0x2012 <main+0x1aa8>
    205d: a2 8e        	ldx	#$8e
    205f: 86 13        	stx	$13                     ; 0x2013 <main+0x1aa9>
    2061: 20 84 31     	jsr	$3184 <textPrint>
    2064: a2 80        	ldx	#$80
    2066: 86 f3        	stx	$f3                     ; 0x20f3 <main+0x1b89>
    2068: a2 63        	ldx	#$63
    206a: 86 24        	stx	$24                     ; 0x2024 <main+0x1aba>
    206c: a2 00        	ldx	#$0
    206e: 86 25        	stx	$25                     ; 0x2025 <main+0x1abb>
    2070: 20 f0 ff     	jsr	$fff0 <__heap_start+0x5a5c>
    2073: 92 2a        	sta	($2a)                   ; 0x202a <main+0x1ac0>
    2075: a9 00        	lda	#$0
    2077: 6a           	ror
    2078: 85 24        	sta	$24                     ; 0x2024 <main+0x1aba>
    207a: a9 0a        	lda	#$a
    207c: 18           	clc
    207d: 72 2a        	adc	($2a)                   ; 0x202a <main+0x1ac0>
    207f: 85 47        	sta	$47                     ; 0x2047 <main+0x1add>
    2081: a2 08        	ldx	#$8
    2083: a0 14        	ldy	#$14
    2085: 84 12        	sty	$12                     ; 0x2012 <main+0x1aa8>
    2087: a0 8e        	ldy	#$8e
    2089: 84 13        	sty	$13                     ; 0x2013 <main+0x1aa9>
    208b: a5 12        	lda	$12                     ; 0x2012 <main+0x1aa8>
    208d: a0 14        	ldy	#$14
    208f: 91 10        	sta	($10),y                 ; 0x2010 <main+0x1aa6>
    2091: a5 13        	lda	$13                     ; 0x2013 <main+0x1aa9>
    2093: c8           	iny
    2094: 91 10        	sta	($10),y                 ; 0x2010 <main+0x1aa6>
    2096: a0 10        	ldy	#$10
    2098: 84 38        	sty	$38                     ; 0x2038 <main+0x1ace>
    209a: 8c 14 d0     	sty	$d014                   ; 0xd014 <__heap_start+0x2a80>
    209d: 9c 15 d0     	stz	$d015                   ; 0xd015 <__heap_start+0x2a81>
    20a0: 86 39        	stx	$39                     ; 0x2039 <main+0x1acf>
    20a2: 8e 16 d0     	stx	$d016                   ; 0xd016 <__heap_start+0x2a82>
    20a5: 9c 17 d0     	stz	$d017                   ; 0xd017 <__heap_start+0x2a83>
    20a8: a0 14        	ldy	#$14
    20aa: b1 10        	lda	($10),y                 ; 0x2010 <main+0x1aa6>
    20ac: 85 12        	sta	$12                     ; 0x2012 <main+0x1aa8>
    20ae: c8           	iny
    20af: b1 10        	lda	($10),y                 ; 0x2010 <main+0x1aa6>
    20b1: 85 13        	sta	$13                     ; 0x2013 <main+0x1aa9>
    20b3: 86 2c        	stx	$2c                     ; 0x202c <main+0x1ac2>
    20b5: 20 84 31     	jsr	$3184 <textPrint>
    20b8: a6 2c        	ldx	$2c                     ; 0x202c <main+0x1ac2>
    20ba: e8           	inx
    20bb: e0 18        	cpx	#$18
    20bd: d0 d7        	bne	$2096 <main+0x1b2c>
    20bf: 64 f3        	stz	$f3                     ; 0x20f3 <main+0x1b89>
    20c1: a6 47        	ldx	$47                     ; 0x2047 <main+0x1add>
    20c3: 86 f4        	stx	$f4                     ; 0x20f4 <main+0x1b8a>
    20c5: a2 02        	ldx	#$2
    20c7: 86 f5        	stx	$f5                     ; 0x20f5 <main+0x1b8b>
    20c9: 20 f0 ff     	jsr	$fff0 <__heap_start+0x5a5c>
    20cc: 92 2a        	sta	($2a)                   ; 0x202a <main+0x1ac0>
    20ce: a9 00        	lda	#$0
    20d0: 6a           	ror
    20d1: 85 24        	sta	$24                     ; 0x2024 <main+0x1aba>
    20d3: a6 68        	ldx	$68                     ; 0x2068 <main+0x1afe>
    20d5: e0 20        	cpx	#$20
    20d7: f0 26        	beq	$20ff <main+0x1b95>
    20d9: e0 92        	cpx	#$92
    20db: d0 03        	bne	$20e0 <main+0x1b76>
    20dd: 4c 35 2a     	jmp	$2a35 <main+0x24cb>
    20e0: e0 81        	cpx	#$81
    20e2: d0 03        	bne	$20e7 <main+0x1b7d>
    20e4: 4c 13 22     	jmp	$2213 <main+0x1ca9>
    20e7: e0 72        	cpx	#$72
    20e9: d0 03        	bne	$20ee <main+0x1b84>
    20eb: 4c 5f 23     	jmp	$235f <main+0x1df5>
    20ee: e0 2e        	cpx	#$2e
    20f0: d0 03        	bne	$20f5 <main+0x1b8b>
    20f2: 4c 9d 23     	jmp	$239d <main+0x1e33>
    20f5: e0 2c        	cpx	#$2c
    20f7: d0 03        	bne	$20fc <main+0x1b92>
    20f9: 4c 49 24     	jmp	$2449 <main+0x1edf>
    20fc: 4c 9e 24     	jmp	$249e <main+0x1f34>
    20ff: a5 44        	lda	$44                     ; 0x2044 <main+0x1ada>
    2101: 29 01        	and	#$1
    2103: a2 00        	ldx	#$0
    2105: a0 00        	ldy	#$0
    2107: c9 00        	cmp	#$0
    2109: f0 03        	beq	$210e <main+0x1ba4>
    210b: 4c e7 21     	jmp	$21e7 <main+0x1c7d>
    210e: a6 62        	ldx	$62                     ; 0x2062 <main+0x1af8>
    2110: a0 a1        	ldy	#$a1
    2112: 84 12        	sty	$12                     ; 0x2012 <main+0x1aa8>
    2114: a0 dd        	ldy	#$dd
    2116: 84 13        	sty	$13                     ; 0x2013 <main+0x1aa9>
    2118: 8a           	txa
    2119: f0 08        	beq	$2123 <main+0x1bb9>
    211b: a2 b1        	ldx	#$b1
    211d: 86 12        	stx	$12                     ; 0x2012 <main+0x1aa8>
    211f: a2 dd        	ldx	#$dd
    2121: 86 13        	stx	$13                     ; 0x2013 <main+0x1aa9>
    2123: a9 b0        	lda	#$b0
    2125: 92 12        	sta	($12)                   ; 0x2012 <main+0x1aa8>
    2127: a9 7b        	lda	#$7b
    2129: 92 12        	sta	($12)                   ; 0x2012 <main+0x1aa8>
    212b: a9 00        	lda	#$0
    212d: 92 12        	sta	($12)                   ; 0x2012 <main+0x1aa8>
    212f: a9 b1        	lda	#$b1
    2131: 92 12        	sta	($12)                   ; 0x2012 <main+0x1aa8>
    2133: a9 7b        	lda	#$7b
    2135: 92 12        	sta	($12)                   ; 0x2012 <main+0x1aa8>
    2137: a9 00        	lda	#$0
    2139: 92 12        	sta	($12)                   ; 0x2012 <main+0x1aa8>
    213b: a9 b2        	lda	#$b2
    213d: 92 12        	sta	($12)                   ; 0x2012 <main+0x1aa8>
    213f: a9 7b        	lda	#$7b
    2141: 92 12        	sta	($12)                   ; 0x2012 <main+0x1aa8>
    2143: a9 00        	lda	#$0
    2145: 92 12        	sta	($12)                   ; 0x2012 <main+0x1aa8>
    2147: a9 b3        	lda	#$b3
    2149: 92 12        	sta	($12)                   ; 0x2012 <main+0x1aa8>
    214b: a9 7b        	lda	#$7b
    214d: 92 12        	sta	($12)                   ; 0x2012 <main+0x1aa8>
    214f: a9 00        	lda	#$0
    2151: 92 12        	sta	($12)                   ; 0x2012 <main+0x1aa8>
    2153: a9 b4        	lda	#$b4
    2155: 92 12        	sta	($12)                   ; 0x2012 <main+0x1aa8>
    2157: a9 7b        	lda	#$7b
    2159: 92 12        	sta	($12)                   ; 0x2012 <main+0x1aa8>
    215b: a9 00        	lda	#$0
    215d: 92 12        	sta	($12)                   ; 0x2012 <main+0x1aa8>
    215f: a9 b5        	lda	#$b5
    2161: 92 12        	sta	($12)                   ; 0x2012 <main+0x1aa8>
    2163: a9 7b        	lda	#$7b
    2165: 92 12        	sta	($12)                   ; 0x2012 <main+0x1aa8>
    2167: a9 00        	lda	#$0
    2169: 92 12        	sta	($12)                   ; 0x2012 <main+0x1aa8>
    216b: a9 b6        	lda	#$b6
    216d: 92 12        	sta	($12)                   ; 0x2012 <main+0x1aa8>
    216f: a9 7b        	lda	#$7b
    2171: 92 12        	sta	($12)                   ; 0x2012 <main+0x1aa8>
    2173: a9 00        	lda	#$0
    2175: 92 12        	sta	($12)                   ; 0x2012 <main+0x1aa8>
    2177: a9 b7        	lda	#$b7
    2179: 92 12        	sta	($12)                   ; 0x2012 <main+0x1aa8>
    217b: a9 7b        	lda	#$7b
    217d: 92 12        	sta	($12)                   ; 0x2012 <main+0x1aa8>
    217f: a9 00        	lda	#$0
    2181: 92 12        	sta	($12)                   ; 0x2012 <main+0x1aa8>
    2183: a9 b8        	lda	#$b8
    2185: 92 12        	sta	($12)                   ; 0x2012 <main+0x1aa8>
    2187: a9 7b        	lda	#$7b
    2189: 92 12        	sta	($12)                   ; 0x2012 <main+0x1aa8>
    218b: a9 00        	lda	#$0
    218d: 92 12        	sta	($12)                   ; 0x2012 <main+0x1aa8>
    218f: a9 b9        	lda	#$b9
    2191: 92 12        	sta	($12)                   ; 0x2012 <main+0x1aa8>
    2193: a9 7b        	lda	#$7b
    2195: 92 12        	sta	($12)                   ; 0x2012 <main+0x1aa8>
    2197: a9 00        	lda	#$0
    2199: 92 12        	sta	($12)                   ; 0x2012 <main+0x1aa8>
    219b: a9 ba        	lda	#$ba
    219d: 92 12        	sta	($12)                   ; 0x2012 <main+0x1aa8>
    219f: a9 7b        	lda	#$7b
    21a1: 92 12        	sta	($12)                   ; 0x2012 <main+0x1aa8>
    21a3: a9 00        	lda	#$0
    21a5: 92 12        	sta	($12)                   ; 0x2012 <main+0x1aa8>
    21a7: a9 bb        	lda	#$bb
    21a9: 92 12        	sta	($12)                   ; 0x2012 <main+0x1aa8>
    21ab: a9 7b        	lda	#$7b
    21ad: 92 12        	sta	($12)                   ; 0x2012 <main+0x1aa8>
    21af: a9 00        	lda	#$0
    21b1: 92 12        	sta	($12)                   ; 0x2012 <main+0x1aa8>
    21b3: a9 bc        	lda	#$bc
    21b5: 92 12        	sta	($12)                   ; 0x2012 <main+0x1aa8>
    21b7: a9 7b        	lda	#$7b
    21b9: 92 12        	sta	($12)                   ; 0x2012 <main+0x1aa8>
    21bb: a9 00        	lda	#$0
    21bd: 92 12        	sta	($12)                   ; 0x2012 <main+0x1aa8>
    21bf: a9 bd        	lda	#$bd
    21c1: 92 12        	sta	($12)                   ; 0x2012 <main+0x1aa8>
    21c3: a9 7b        	lda	#$7b
    21c5: 92 12        	sta	($12)                   ; 0x2012 <main+0x1aa8>
    21c7: a9 00        	lda	#$0
    21c9: 92 12        	sta	($12)                   ; 0x2012 <main+0x1aa8>
    21cb: a9 be        	lda	#$be
    21cd: 92 12        	sta	($12)                   ; 0x2012 <main+0x1aa8>
    21cf: a9 7b        	lda	#$7b
    21d1: 92 12        	sta	($12)                   ; 0x2012 <main+0x1aa8>
    21d3: a9 00        	lda	#$0
    21d5: 92 12        	sta	($12)                   ; 0x2012 <main+0x1aa8>
    21d7: a9 bf        	lda	#$bf
    21d9: 92 12        	sta	($12)                   ; 0x2012 <main+0x1aa8>
    21db: a9 7b        	lda	#$7b
    21dd: 92 12        	sta	($12)                   ; 0x2012 <main+0x1aa8>
    21df: a9 00        	lda	#$0
    21e1: 92 12        	sta	($12)                   ; 0x2012 <main+0x1aa8>
    21e3: a0 10        	ldy	#$10
    21e5: a2 01        	ldx	#$1
    21e7: 86 44        	stx	$44                     ; 0x2044 <main+0x1ada>
    21e9: 84 30        	sty	$30                     ; 0x2030 <main+0x1ac6>
    21eb: a2 1a        	ldx	#$1a
    21ed: 86 38        	stx	$38                     ; 0x2038 <main+0x1ace>
    21ef: 8e 14 d0     	stx	$d014                   ; 0xd014 <__heap_start+0x2a80>
    21f2: 9c 15 d0     	stz	$d015                   ; 0xd015 <__heap_start+0x2a81>
    21f5: a2 1d        	ldx	#$1d
    21f7: 86 39        	stx	$39                     ; 0x2039 <main+0x1acf>
    21f9: 8e 16 d0     	stx	$d016                   ; 0xd016 <__heap_start+0x2a82>
    21fc: 9c 17 d0     	stz	$d017                   ; 0xd017 <__heap_start+0x2a83>
    21ff: a2 50        	ldx	#$50
    2201: 86 12        	stx	$12                     ; 0x2012 <main+0x1aa8>
    2203: a2 8e        	ldx	#$8e
    2205: 86 13        	stx	$13                     ; 0x2013 <main+0x1aa9>
    2207: 20 84 31     	jsr	$3184 <textPrint>
    220a: a6 68        	ldx	$68                     ; 0x2068 <main+0x1afe>
    220c: e0 81        	cpx	#$81
    220e: f0 03        	beq	$2213 <main+0x1ca9>
    2210: 4c e7 20     	jmp	$20e7 <main+0x1b7d>
    2213: a6 62        	ldx	$62                     ; 0x2062 <main+0x1af8>
    2215: a0 a1        	ldy	#$a1
    2217: 84 12        	sty	$12                     ; 0x2012 <main+0x1aa8>
    2219: a0 dd        	ldy	#$dd
    221b: 84 13        	sty	$13                     ; 0x2013 <main+0x1aa9>
    221d: 8a           	txa
    221e: f0 08        	beq	$2228 <main+0x1cbe>
    2220: a2 b1        	ldx	#$b1
    2222: 86 12        	stx	$12                     ; 0x2012 <main+0x1aa8>
    2224: a2 dd        	ldx	#$dd
    2226: 86 13        	stx	$13                     ; 0x2013 <main+0x1aa9>
    2228: a9 b0        	lda	#$b0
    222a: 92 12        	sta	($12)                   ; 0x2012 <main+0x1aa8>
    222c: a9 7b        	lda	#$7b
    222e: 92 12        	sta	($12)                   ; 0x2012 <main+0x1aa8>
    2230: a9 00        	lda	#$0
    2232: 92 12        	sta	($12)                   ; 0x2012 <main+0x1aa8>
    2234: a9 b1        	lda	#$b1
    2236: 92 12        	sta	($12)                   ; 0x2012 <main+0x1aa8>
    2238: a9 7b        	lda	#$7b
    223a: 92 12        	sta	($12)                   ; 0x2012 <main+0x1aa8>
    223c: a9 00        	lda	#$0
    223e: 92 12        	sta	($12)                   ; 0x2012 <main+0x1aa8>
    2240: a9 b2        	lda	#$b2
    2242: 92 12        	sta	($12)                   ; 0x2012 <main+0x1aa8>
    2244: a9 7b        	lda	#$7b
    2246: 92 12        	sta	($12)                   ; 0x2012 <main+0x1aa8>
    2248: a9 00        	lda	#$0
    224a: 92 12        	sta	($12)                   ; 0x2012 <main+0x1aa8>
    224c: a9 b3        	lda	#$b3
    224e: 92 12        	sta	($12)                   ; 0x2012 <main+0x1aa8>
    2250: a9 7b        	lda	#$7b
    2252: 92 12        	sta	($12)                   ; 0x2012 <main+0x1aa8>
    2254: a9 00        	lda	#$0
    2256: 92 12        	sta	($12)                   ; 0x2012 <main+0x1aa8>
    2258: a9 b4        	lda	#$b4
    225a: 92 12        	sta	($12)                   ; 0x2012 <main+0x1aa8>
    225c: a9 7b        	lda	#$7b
    225e: 92 12        	sta	($12)                   ; 0x2012 <main+0x1aa8>
    2260: a9 00        	lda	#$0
    2262: 92 12        	sta	($12)                   ; 0x2012 <main+0x1aa8>
    2264: a9 b5        	lda	#$b5
    2266: 92 12        	sta	($12)                   ; 0x2012 <main+0x1aa8>
    2268: a9 7b        	lda	#$7b
    226a: 92 12        	sta	($12)                   ; 0x2012 <main+0x1aa8>
    226c: a9 00        	lda	#$0
    226e: 92 12        	sta	($12)                   ; 0x2012 <main+0x1aa8>
    2270: a9 b6        	lda	#$b6
    2272: 92 12        	sta	($12)                   ; 0x2012 <main+0x1aa8>
    2274: a9 7b        	lda	#$7b
    2276: 92 12        	sta	($12)                   ; 0x2012 <main+0x1aa8>
    2278: a9 00        	lda	#$0
    227a: 92 12        	sta	($12)                   ; 0x2012 <main+0x1aa8>
    227c: a9 b7        	lda	#$b7
    227e: 92 12        	sta	($12)                   ; 0x2012 <main+0x1aa8>
    2280: a9 7b        	lda	#$7b
    2282: 92 12        	sta	($12)                   ; 0x2012 <main+0x1aa8>
    2284: a9 00        	lda	#$0
    2286: 92 12        	sta	($12)                   ; 0x2012 <main+0x1aa8>
    2288: a9 b8        	lda	#$b8
    228a: 92 12        	sta	($12)                   ; 0x2012 <main+0x1aa8>
    228c: a9 7b        	lda	#$7b
    228e: 92 12        	sta	($12)                   ; 0x2012 <main+0x1aa8>
    2290: a9 00        	lda	#$0
    2292: 92 12        	sta	($12)                   ; 0x2012 <main+0x1aa8>
    2294: a9 b9        	lda	#$b9
    2296: 92 12        	sta	($12)                   ; 0x2012 <main+0x1aa8>
    2298: a9 7b        	lda	#$7b
    229a: 92 12        	sta	($12)                   ; 0x2012 <main+0x1aa8>
    229c: a9 00        	lda	#$0
    229e: 92 12        	sta	($12)                   ; 0x2012 <main+0x1aa8>
    22a0: a9 ba        	lda	#$ba
    22a2: 92 12        	sta	($12)                   ; 0x2012 <main+0x1aa8>
    22a4: a9 7b        	lda	#$7b
    22a6: 92 12        	sta	($12)                   ; 0x2012 <main+0x1aa8>
    22a8: a9 00        	lda	#$0
    22aa: 92 12        	sta	($12)                   ; 0x2012 <main+0x1aa8>
    22ac: a9 bb        	lda	#$bb
    22ae: 92 12        	sta	($12)                   ; 0x2012 <main+0x1aa8>
    22b0: a9 7b        	lda	#$7b
    22b2: 92 12        	sta	($12)                   ; 0x2012 <main+0x1aa8>
    22b4: a9 00        	lda	#$0
    22b6: 92 12        	sta	($12)                   ; 0x2012 <main+0x1aa8>
    22b8: a9 bc        	lda	#$bc
    22ba: 92 12        	sta	($12)                   ; 0x2012 <main+0x1aa8>
    22bc: a9 7b        	lda	#$7b
    22be: 92 12        	sta	($12)                   ; 0x2012 <main+0x1aa8>
    22c0: a9 00        	lda	#$0
    22c2: 92 12        	sta	($12)                   ; 0x2012 <main+0x1aa8>
    22c4: a9 bd        	lda	#$bd
    22c6: 92 12        	sta	($12)                   ; 0x2012 <main+0x1aa8>
    22c8: a9 7b        	lda	#$7b
    22ca: 92 12        	sta	($12)                   ; 0x2012 <main+0x1aa8>
    22cc: a9 00        	lda	#$0
    22ce: 92 12        	sta	($12)                   ; 0x2012 <main+0x1aa8>
    22d0: a9 be        	lda	#$be
    22d2: 92 12        	sta	($12)                   ; 0x2012 <main+0x1aa8>
    22d4: a9 7b        	lda	#$7b
    22d6: 92 12        	sta	($12)                   ; 0x2012 <main+0x1aa8>
    22d8: a9 00        	lda	#$0
    22da: 92 12        	sta	($12)                   ; 0x2012 <main+0x1aa8>
    22dc: a9 bf        	lda	#$bf
    22de: 92 12        	sta	($12)                   ; 0x2012 <main+0x1aa8>
    22e0: a9 7b        	lda	#$7b
    22e2: 92 12        	sta	($12)                   ; 0x2012 <main+0x1aa8>
    22e4: a0 00        	ldy	#$0
    22e6: 98           	tya
    22e7: 92 12        	sta	($12)                   ; 0x2012 <main+0x1aa8>
    22e9: a6 62        	ldx	$62                     ; 0x2062 <main+0x1af8>
    22eb: a9 10        	lda	#$10
    22ed: e0 01        	cpx	#$1
    22ef: d0 04        	bne	$22f5 <main+0x1d8b>
    22f1: a0 10        	ldy	#$10
    22f3: a9 00        	lda	#$0
    22f5: e0 01        	cpx	#$1
    22f7: d0 08        	bne	$2301 <main+0x1d97>
    22f9: 85 2c        	sta	$2c                     ; 0x202c <main+0x1ac2>
    22fb: 64 12        	stz	$12                     ; 0x2012 <main+0x1aa8>
    22fd: a9 00        	lda	#$0
    22ff: 80 05        	bra	$2306 <main+0x1d9c>
    2301: 85 2c        	sta	$2c                     ; 0x202c <main+0x1ac2>
    2303: a2 01        	ldx	#$1
    2305: 8a           	txa
    2306: 5a           	phy
    2307: a0 14        	ldy	#$14
    2309: 91 10        	sta	($10),y                 ; 0x2010 <main+0x1aa6>
    230b: 7a           	ply
    230c: 84 30        	sty	$30                     ; 0x2030 <main+0x1ac6>
    230e: a2 2a        	ldx	#$2a
    2310: 86 38        	stx	$38                     ; 0x2038 <main+0x1ace>
    2312: 8e 14 d0     	stx	$d014                   ; 0xd014 <__heap_start+0x2a80>
    2315: 9c 15 d0     	stz	$d015                   ; 0xd015 <__heap_start+0x2a81>
    2318: a2 1d        	ldx	#$1d
    231a: 86 39        	stx	$39                     ; 0x2039 <main+0x1acf>
    231c: 8e 16 d0     	stx	$d016                   ; 0xd016 <__heap_start+0x2a82>
    231f: 9c 17 d0     	stz	$d017                   ; 0xd017 <__heap_start+0x2a83>
    2322: a2 0b        	ldx	#$b
    2324: 86 12        	stx	$12                     ; 0x2012 <main+0x1aa8>
    2326: a2 8a        	ldx	#$8a
    2328: 86 13        	stx	$13                     ; 0x2013 <main+0x1aa9>
    232a: 20 84 31     	jsr	$3184 <textPrint>
    232d: a6 2c        	ldx	$2c                     ; 0x202c <main+0x1ac2>
    232f: 86 30        	stx	$30                     ; 0x2030 <main+0x1ac6>
    2331: a2 34        	ldx	#$34
    2333: 86 38        	stx	$38                     ; 0x2038 <main+0x1ace>
    2335: 8e 14 d0     	stx	$d014                   ; 0xd014 <__heap_start+0x2a80>
    2338: 9c 15 d0     	stz	$d015                   ; 0xd015 <__heap_start+0x2a81>
    233b: a2 1d        	ldx	#$1d
    233d: 86 39        	stx	$39                     ; 0x2039 <main+0x1acf>
    233f: 8e 16 d0     	stx	$d016                   ; 0xd016 <__heap_start+0x2a82>
    2342: 9c 17 d0     	stz	$d017                   ; 0xd017 <__heap_start+0x2a83>
    2345: a2 b6        	ldx	#$b6
    2347: 86 12        	stx	$12                     ; 0x2012 <main+0x1aa8>
    2349: a2 86        	ldx	#$86
    234b: 86 13        	stx	$13                     ; 0x2013 <main+0x1aa9>
    234d: 20 84 31     	jsr	$3184 <textPrint>
    2350: a0 14        	ldy	#$14
    2352: b1 10        	lda	($10),y                 ; 0x2010 <main+0x1aa6>
    2354: 85 62        	sta	$62                     ; 0x2062 <main+0x1af8>
    2356: a6 68        	ldx	$68                     ; 0x2068 <main+0x1afe>
    2358: e0 72        	cpx	#$72
    235a: f0 03        	beq	$235f <main+0x1df5>
    235c: 4c ee 20     	jmp	$20ee <main+0x1b84>
    235f: a5 46        	lda	$46                     ; 0x2046 <main+0x1adc>
    2361: 29 01        	and	#$1
    2363: 85 12        	sta	$12                     ; 0x2012 <main+0x1aa8>
    2365: a9 01        	lda	#$1
    2367: 45 46        	eor	$46                     ; 0x2046 <main+0x1adc>
    2369: 85 46        	sta	$46                     ; 0x2046 <main+0x1adc>
    236b: a2 00        	ldx	#$0
    236d: a0 03        	ldy	#$3
    236f: a5 12        	lda	$12                     ; 0x2012 <main+0x1aa8>
    2371: d0 02        	bne	$2375 <main+0x1e0b>
    2373: a2 10        	ldx	#$10
    2375: 86 30        	stx	$30                     ; 0x2030 <main+0x1ac6>
    2377: 84 38        	sty	$38                     ; 0x2038 <main+0x1ace>
    2379: 8c 14 d0     	sty	$d014                   ; 0xd014 <__heap_start+0x2a80>
    237c: 9c 15 d0     	stz	$d015                   ; 0xd015 <__heap_start+0x2a81>
    237f: a2 1a        	ldx	#$1a
    2381: 86 39        	stx	$39                     ; 0x2039 <main+0x1acf>
    2383: 8e 16 d0     	stx	$d016                   ; 0xd016 <__heap_start+0x2a82>
    2386: 9c 17 d0     	stz	$d017                   ; 0xd017 <__heap_start+0x2a83>
    2389: a2 96        	ldx	#$96
    238b: 86 12        	stx	$12                     ; 0x2012 <main+0x1aa8>
    238d: a2 8a        	ldx	#$8a
    238f: 86 13        	stx	$13                     ; 0x2013 <main+0x1aa9>
    2391: 20 84 31     	jsr	$3184 <textPrint>
    2394: a6 68        	ldx	$68                     ; 0x2068 <main+0x1afe>
    2396: e0 2e        	cpx	#$2e
    2398: f0 03        	beq	$239d <main+0x1e33>
    239a: 4c f5 20     	jmp	$20f5 <main+0x1b8b>
    239d: a9 b0        	lda	#$b0
    239f: a6 62        	ldx	$62                     ; 0x2062 <main+0x1af8>
    23a1: a0 a1        	ldy	#$a1
    23a3: 84 12        	sty	$12                     ; 0x2012 <main+0x1aa8>
    23a5: a0 dd        	ldy	#$dd
    23a7: 84 13        	sty	$13                     ; 0x2013 <main+0x1aa9>
    23a9: e0 00        	cpx	#$0
    23ab: f0 08        	beq	$23b5 <main+0x1e4b>
    23ad: a2 b1        	ldx	#$b1
    23af: 86 12        	stx	$12                     ; 0x2012 <main+0x1aa8>
    23b1: a2 dd        	ldx	#$dd
    23b3: 86 13        	stx	$13                     ; 0x2013 <main+0x1aa9>
    23b5: 85 14        	sta	$14                     ; 0x2014 <main+0x1aaa>
    23b7: 92 12        	sta	($12)                   ; 0x2012 <main+0x1aa8>
    23b9: a6 62        	ldx	$62                     ; 0x2062 <main+0x1af8>
    23bb: a0 a1        	ldy	#$a1
    23bd: 84 12        	sty	$12                     ; 0x2012 <main+0x1aa8>
    23bf: a0 dd        	ldy	#$dd
    23c1: 84 13        	sty	$13                     ; 0x2013 <main+0x1aa9>
    23c3: 8a           	txa
    23c4: f0 08        	beq	$23ce <main+0x1e64>
    23c6: a2 b1        	ldx	#$b1
    23c8: 86 12        	stx	$12                     ; 0x2012 <main+0x1aa8>
    23ca: a2 dd        	ldx	#$dd
    23cc: 86 13        	stx	$13                     ; 0x2013 <main+0x1aa9>
    23ce: a9 5b        	lda	#$5b
    23d0: 92 12        	sta	($12)                   ; 0x2012 <main+0x1aa8>
    23d2: a6 62        	ldx	$62                     ; 0x2062 <main+0x1af8>
    23d4: a0 a1        	ldy	#$a1
    23d6: 84 12        	sty	$12                     ; 0x2012 <main+0x1aa8>
    23d8: a0 dd        	ldy	#$dd
    23da: 84 13        	sty	$13                     ; 0x2013 <main+0x1aa9>
    23dc: 8a           	txa
    23dd: f0 08        	beq	$23e7 <main+0x1e7d>
    23df: a2 b1        	ldx	#$b1
    23e1: 86 12        	stx	$12                     ; 0x2012 <main+0x1aa8>
    23e3: a2 dd        	ldx	#$dd
    23e5: 86 13        	stx	$13                     ; 0x2013 <main+0x1aa9>
    23e7: a9 00        	lda	#$0
    23e9: 92 12        	sta	($12)                   ; 0x2012 <main+0x1aa8>
    23eb: a6 62        	ldx	$62                     ; 0x2062 <main+0x1af8>
    23ed: a0 a1        	ldy	#$a1
    23ef: 84 12        	sty	$12                     ; 0x2012 <main+0x1aa8>
    23f1: a0 dd        	ldy	#$dd
    23f3: 84 13        	sty	$13                     ; 0x2013 <main+0x1aa9>
    23f5: 8a           	txa
    23f6: f0 08        	beq	$2400 <main+0x1e96>
    23f8: a2 b1        	ldx	#$b1
    23fa: 86 12        	stx	$12                     ; 0x2012 <main+0x1aa8>
    23fc: a2 dd        	ldx	#$dd
    23fe: 86 13        	stx	$13                     ; 0x2013 <main+0x1aa9>
    2400: a5 14        	lda	$14                     ; 0x2014 <main+0x1aaa>
    2402: 92 12        	sta	($12)                   ; 0x2012 <main+0x1aa8>
    2404: a6 62        	ldx	$62                     ; 0x2062 <main+0x1af8>
    2406: a0 a1        	ldy	#$a1
    2408: 84 12        	sty	$12                     ; 0x2012 <main+0x1aa8>
    240a: a0 dd        	ldy	#$dd
    240c: 84 13        	sty	$13                     ; 0x2013 <main+0x1aa9>
    240e: 8a           	txa
    240f: f0 08        	beq	$2419 <main+0x1eaf>
    2411: a2 b1        	ldx	#$b1
    2413: 86 12        	stx	$12                     ; 0x2012 <main+0x1aa8>
    2415: a2 dd        	ldx	#$dd
    2417: 86 13        	stx	$13                     ; 0x2013 <main+0x1aa9>
    2419: a9 5d        	lda	#$5d
    241b: 92 12        	sta	($12)                   ; 0x2012 <main+0x1aa8>
    241d: a6 62        	ldx	$62                     ; 0x2062 <main+0x1af8>
    241f: a0 a1        	ldy	#$a1
    2421: 84 12        	sty	$12                     ; 0x2012 <main+0x1aa8>
    2423: a0 dd        	ldy	#$dd
    2425: 84 13        	sty	$13                     ; 0x2013 <main+0x1aa9>
    2427: 8a           	txa
    2428: f0 08        	beq	$2432 <main+0x1ec8>
    242a: a2 b1        	ldx	#$b1
    242c: 86 12        	stx	$12                     ; 0x2012 <main+0x1aa8>
    242e: a2 dd        	ldx	#$dd
    2430: 86 13        	stx	$13                     ; 0x2013 <main+0x1aa9>
    2432: a9 00        	lda	#$0
    2434: 92 12        	sta	($12)                   ; 0x2012 <main+0x1aa8>
    2436: a5 14        	lda	$14                     ; 0x2014 <main+0x1aaa>
    2438: 1a           	inc
    2439: c9 c0        	cmp	#$c0
    243b: f0 03        	beq	$2440 <main+0x1ed6>
    243d: 4c 9f 23     	jmp	$239f <main+0x1e35>
    2440: a6 68        	ldx	$68                     ; 0x2068 <main+0x1afe>
    2442: e0 2c        	cpx	#$2c
    2444: f0 03        	beq	$2449 <main+0x1edf>
    2446: 4c 9e 24     	jmp	$249e <main+0x1f34>
    2449: a9 b0        	lda	#$b0
    244b: a6 62        	ldx	$62                     ; 0x2062 <main+0x1af8>
    244d: a0 a1        	ldy	#$a1
    244f: 84 12        	sty	$12                     ; 0x2012 <main+0x1aa8>
    2451: a0 dd        	ldy	#$dd
    2453: 84 13        	sty	$13                     ; 0x2013 <main+0x1aa9>
    2455: e0 00        	cpx	#$0
    2457: f0 08        	beq	$2461 <main+0x1ef7>
    2459: a2 b1        	ldx	#$b1
    245b: 86 12        	stx	$12                     ; 0x2012 <main+0x1aa8>
    245d: a2 dd        	ldx	#$dd
    245f: 86 13        	stx	$13                     ; 0x2013 <main+0x1aa9>
    2461: 85 14        	sta	$14                     ; 0x2014 <main+0x1aaa>
    2463: 92 12        	sta	($12)                   ; 0x2012 <main+0x1aa8>
    2465: a6 62        	ldx	$62                     ; 0x2062 <main+0x1af8>
    2467: a0 a1        	ldy	#$a1
    2469: 84 12        	sty	$12                     ; 0x2012 <main+0x1aa8>
    246b: a0 dd        	ldy	#$dd
    246d: 84 13        	sty	$13                     ; 0x2013 <main+0x1aa9>
    246f: 8a           	txa
    2470: f0 08        	beq	$247a <main+0x1f10>
    2472: a2 b1        	ldx	#$b1
    2474: 86 12        	stx	$12                     ; 0x2012 <main+0x1aa8>
    2476: a2 dd        	ldx	#$dd
    2478: 86 13        	stx	$13                     ; 0x2013 <main+0x1aa9>
    247a: a9 07        	lda	#$7
    247c: 92 12        	sta	($12)                   ; 0x2012 <main+0x1aa8>
    247e: a6 62        	ldx	$62                     ; 0x2062 <main+0x1af8>
    2480: a0 a1        	ldy	#$a1
    2482: 84 12        	sty	$12                     ; 0x2012 <main+0x1aa8>
    2484: a0 dd        	ldy	#$dd
    2486: 84 13        	sty	$13                     ; 0x2013 <main+0x1aa9>
    2488: 8a           	txa
    2489: f0 08        	beq	$2493 <main+0x1f29>
    248b: a2 b1        	ldx	#$b1
    248d: 86 12        	stx	$12                     ; 0x2012 <main+0x1aa8>
    248f: a2 dd        	ldx	#$dd
    2491: 86 13        	stx	$13                     ; 0x2013 <main+0x1aa9>
    2493: a9 7f        	lda	#$7f
    2495: 92 12        	sta	($12)                   ; 0x2012 <main+0x1aa8>
    2497: a5 14        	lda	$14                     ; 0x2014 <main+0x1aaa>
    2499: 1a           	inc
    249a: c9 c0        	cmp	#$c0
    249c: d0 ad        	bne	$244b <main+0x1ee1>
    249e: a5 44        	lda	$44                     ; 0x2044 <main+0x1ada>
    24a0: 29 01        	and	#$1
    24a2: f0 03        	beq	$24a7 <main+0x1f3d>
    24a4: 4c b1 26     	jmp	$26b1 <main+0x2147>
    24a7: ad 60 d6     	lda	$d660                   ; 0xd660 <__heap_start+0x30cc>
    24aa: 29 10        	and	#$10
    24ac: d0 03        	bne	$24b1 <main+0x1f47>
    24ae: 4c 66 25     	jmp	$2566 <main+0x1ffc>
    24b1: a2 10        	ldx	#$10
    24b3: 8e 60 d6     	stx	$d660                   ; 0xd660 <__heap_start+0x30cc>
    24b6: a5 58        	lda	$58                     ; 0x2058 <main+0x1aee>
    24b8: a6 59        	ldx	$59                     ; 0x2059 <main+0x1aef>
    24ba: 86 15        	stx	$15                     ; 0x2015 <main+0x1aab>
    24bc: a6 5a        	ldx	$5a                     ; 0x205a <main+0x1af0>
    24be: a4 5b        	ldy	$5b                     ; 0x205b <main+0x1af1>
    24c0: c0 01        	cpy	#$1
    24c2: d0 12        	bne	$24d6 <main+0x1f6c>
    24c4: 84 14        	sty	$14                     ; 0x2014 <main+0x1aaa>
    24c6: e0 00        	cpx	#$0
    24c8: d0 52        	bne	$251c <main+0x1fb2>
    24ca: 86 12        	stx	$12                     ; 0x2012 <main+0x1aa8>
    24cc: a6 15        	ldx	$15                     ; 0x2015 <main+0x1aab>
    24ce: d0 50        	bne	$2520 <main+0x1fb6>
    24d0: c9 00        	cmp	#$0
    24d2: 90 0a        	bcc	$24de <main+0x1f74>
    24d4: 80 50        	bra	$2526 <main+0x1fbc>
    24d6: 86 12        	stx	$12                     ; 0x2012 <main+0x1aa8>
    24d8: 84 14        	sty	$14                     ; 0x2014 <main+0x1aaa>
    24da: c0 01        	cpy	#$1
    24dc: b0 48        	bcs	$2526 <main+0x1fbc>
    24de: a4 12        	ldy	$12                     ; 0x2012 <main+0x1aa8>
    24e0: aa           	tax
    24e1: a5 15        	lda	$15                     ; 0x2015 <main+0x1aab>
    24e3: e6 14        	inc	$14                     ; 0x2014 <main+0x1aaa>
    24e5: c6 14        	dec	$14                     ; 0x2014 <main+0x1aaa>
    24e7: d0 0e        	bne	$24f7 <main+0x1f8d>
    24e9: c0 00        	cpy	#$0
    24eb: d0 0a        	bne	$24f7 <main+0x1f8d>
    24ed: c9 00        	cmp	#$0
    24ef: d0 06        	bne	$24f7 <main+0x1f8d>
    24f1: 8a           	txa
    24f2: d0 03        	bne	$24f7 <main+0x1f8d>
    24f4: 4c 11 2b     	jmp	$2b11 <main+0x25a7>
    24f7: a9 02        	lda	#$2
    24f9: 8d 50 d6     	sta	$d650                   ; 0xd650 <__heap_start+0x30bc>
    24fc: 8e 55 d6     	stx	$d655                   ; 0xd655 <__heap_start+0x30c1>
    24ff: a6 15        	ldx	$15                     ; 0x2015 <main+0x1aab>
    2501: 8e 56 d6     	stx	$d656                   ; 0xd656 <__heap_start+0x30c2>
    2504: 8c 57 d6     	sty	$d657                   ; 0xd657 <__heap_start+0x30c3>
    2507: 9c 54 d6     	stz	$d654                   ; 0xd654 <__heap_start+0x30c0>
    250a: 8d 50 d6     	sta	$d650                   ; 0xd650 <__heap_start+0x30bc>
    250d: a2 89        	ldx	#$89
    250f: 8e 50 d6     	stx	$d650                   ; 0xd650 <__heap_start+0x30bc>
    2512: 64 58        	stz	$58                     ; 0x2058 <main+0x1aee>
    2514: 64 59        	stz	$59                     ; 0x2059 <main+0x1aef>
    2516: 64 5a        	stz	$5a                     ; 0x205a <main+0x1af0>
    2518: 64 5b        	stz	$5b                     ; 0x205b <main+0x1af1>
    251a: 80 4a        	bra	$2566 <main+0x1ffc>
    251c: 86 12        	stx	$12                     ; 0x2012 <main+0x1aa8>
    251e: 80 02        	bra	$2522 <main+0x1fb8>
    2520: a6 15        	ldx	$15                     ; 0x2015 <main+0x1aab>
    2522: e0 00        	cpx	#$0
    2524: 90 b8        	bcc	$24de <main+0x1f74>
    2526: 18           	clc
    2527: 69 01        	adc	#$1
    2529: aa           	tax
    252a: a5 15        	lda	$15                     ; 0x2015 <main+0x1aab>
    252c: 69 00        	adc	#$0
    252e: 85 13        	sta	$13                     ; 0x2013 <main+0x1aa9>
    2530: a5 12        	lda	$12                     ; 0x2012 <main+0x1aa8>
    2532: 69 00        	adc	#$0
    2534: a8           	tay
    2535: a5 14        	lda	$14                     ; 0x2014 <main+0x1aaa>
    2537: 69 ff        	adc	#$ff
    2539: 85 12        	sta	$12                     ; 0x2012 <main+0x1aa8>
    253b: 86 58        	stx	$58                     ; 0x2058 <main+0x1aee>
    253d: 86 14        	stx	$14                     ; 0x2014 <main+0x1aaa>
    253f: a5 13        	lda	$13                     ; 0x2013 <main+0x1aa9>
    2541: 85 59        	sta	$59                     ; 0x2059 <main+0x1aef>
    2543: 84 5a        	sty	$5a                     ; 0x205a <main+0x1af0>
    2545: a6 12        	ldx	$12                     ; 0x2012 <main+0x1aa8>
    2547: 86 5b        	stx	$5b                     ; 0x205b <main+0x1af1>
    2549: a2 02        	ldx	#$2
    254b: 8e 50 d6     	stx	$d650                   ; 0xd650 <__heap_start+0x30bc>
    254e: a6 14        	ldx	$14                     ; 0x2014 <main+0x1aaa>
    2550: 8e 55 d6     	stx	$d655                   ; 0xd655 <__heap_start+0x30c1>
    2553: 8d 56 d6     	sta	$d656                   ; 0xd656 <__heap_start+0x30c2>
    2556: 8c 57 d6     	sty	$d657                   ; 0xd657 <__heap_start+0x30c3>
    2559: 9c 54 d6     	stz	$d654                   ; 0xd654 <__heap_start+0x30c0>
    255c: a2 02        	ldx	#$2
    255e: 8e 50 d6     	stx	$d650                   ; 0xd650 <__heap_start+0x30bc>
    2561: a2 89        	ldx	#$89
    2563: 8e 50 d6     	stx	$d650                   ; 0xd650 <__heap_start+0x30bc>
    2566: a5 57        	lda	$57                     ; 0x2057 <main+0x1aed>
    2568: 29 01        	and	#$1
    256a: f0 03        	beq	$256f <main+0x2005>
    256c: 4c b1 26     	jmp	$26b1 <main+0x2147>
    256f: a6 4f        	ldx	$4f                     ; 0x204f <main+0x1ae5>
    2571: a4 50        	ldy	$50                     ; 0x2050 <main+0x1ae6>
    2573: d0 06        	bne	$257b <main+0x2011>
    2575: 8a           	txa
    2576: d0 03        	bne	$257b <main+0x2011>
    2578: 4c 4a 26     	jmp	$264a <main+0x20e0>
    257b: 86 1a        	stx	$1a                     ; 0x201a <main+0x1ab0>
    257d: 84 1b        	sty	$1b                     ; 0x201b <main+0x1ab1>
    257f: a5 60        	lda	$60                     ; 0x2060 <main+0x1af6>
    2581: a6 61        	ldx	$61                     ; 0x2061 <main+0x1af7>
    2583: 86 12        	stx	$12                     ; 0x2012 <main+0x1aa8>
    2585: 18           	clc
    2586: 69 0c        	adc	#$c
    2588: aa           	tax
    2589: a5 12        	lda	$12                     ; 0x2012 <main+0x1aa8>
    258b: 69 00        	adc	#$0
    258d: 86 12        	stx	$12                     ; 0x2012 <main+0x1aa8>
    258f: 85 13        	sta	$13                     ; 0x2013 <main+0x1aa9>
    2591: a9 ff        	lda	#$ff
    2593: 64 1c        	stz	$1c                     ; 0x201c <main+0x1ab2>
    2595: a2 00        	ldx	#$0
    2597: 85 14        	sta	$14                     ; 0x2014 <main+0x1aaa>
    2599: 85 15        	sta	$15                     ; 0x2015 <main+0x1aab>
    259b: 85 16        	sta	$16                     ; 0x2016 <main+0x1aac>
    259d: 85 17        	sta	$17                     ; 0x2017 <main+0x1aad>
    259f: a0 0c        	ldy	#$c
    25a1: b1 12        	lda	($12),y                 ; 0x2012 <main+0x1aa8>
    25a3: f0 05        	beq	$25aa <main+0x2040>
    25a5: a4 1c        	ldy	$1c                     ; 0x201c <main+0x1ab2>
    25a7: 4c 0e 26     	jmp	$260e <main+0x20a4>
    25aa: b2 12        	lda	($12)                   ; 0x2012 <main+0x1aa8>
    25ac: 85 1e        	sta	$1e                     ; 0x201e <main+0x1ab4>
    25ae: a0 01        	ldy	#$1
    25b0: b1 12        	lda	($12),y                 ; 0x2012 <main+0x1aa8>
    25b2: 85 1d        	sta	$1d                     ; 0x201d <main+0x1ab3>
    25b4: c8           	iny
    25b5: b1 12        	lda	($12),y                 ; 0x2012 <main+0x1aa8>
    25b7: 85 18        	sta	$18                     ; 0x2018 <main+0x1aae>
    25b9: c8           	iny
    25ba: b1 12        	lda	($12),y                 ; 0x2012 <main+0x1aa8>
    25bc: c5 17        	cmp	$17                     ; 0x2017 <main+0x1aad>
    25be: d0 22        	bne	$25e2 <main+0x2078>
    25c0: 85 19        	sta	$19                     ; 0x2019 <main+0x1aaf>
    25c2: a4 1c        	ldy	$1c                     ; 0x201c <main+0x1ab2>
    25c4: a5 18        	lda	$18                     ; 0x2018 <main+0x1aae>
    25c6: c5 16        	cmp	$16                     ; 0x2016 <main+0x1aac>
    25c8: f0 03        	beq	$25cd <main+0x2063>
    25ca: 4c 3b 26     	jmp	$263b <main+0x20d1>
    25cd: a5 1d        	lda	$1d                     ; 0x201d <main+0x1ab3>
    25cf: c5 15        	cmp	$15                     ; 0x2015 <main+0x1aab>
    25d1: f0 03        	beq	$25d6 <main+0x206c>
    25d3: 4c 43 26     	jmp	$2643 <main+0x20d9>
    25d6: 85 1c        	sta	$1c                     ; 0x201c <main+0x1ab2>
    25d8: a5 1e        	lda	$1e                     ; 0x201e <main+0x1ab4>
    25da: c5 14        	cmp	$14                     ; 0x2014 <main+0x1aaa>
    25dc: a5 1c        	lda	$1c                     ; 0x201c <main+0x1ab2>
    25de: 90 0c        	bcc	$25ec <main+0x2082>
    25e0: 80 2c        	bra	$260e <main+0x20a4>
    25e2: c5 17        	cmp	$17                     ; 0x2017 <main+0x1aad>
    25e4: a4 1c        	ldy	$1c                     ; 0x201c <main+0x1ab2>
    25e6: 85 19        	sta	$19                     ; 0x2019 <main+0x1aaf>
    25e8: a5 1d        	lda	$1d                     ; 0x201d <main+0x1ab3>
    25ea: b0 22        	bcs	$260e <main+0x20a4>
    25ec: 85 15        	sta	$15                     ; 0x2015 <main+0x1aab>
    25ee: a5 19        	lda	$19                     ; 0x2019 <main+0x1aaf>
    25f0: 85 17        	sta	$17                     ; 0x2017 <main+0x1aad>
    25f2: a5 1e        	lda	$1e                     ; 0x201e <main+0x1ab4>
    25f4: 85 58        	sta	$58                     ; 0x2058 <main+0x1aee>
    25f6: 85 14        	sta	$14                     ; 0x2014 <main+0x1aaa>
    25f8: a5 15        	lda	$15                     ; 0x2015 <main+0x1aab>
    25fa: 85 59        	sta	$59                     ; 0x2059 <main+0x1aef>
    25fc: a5 18        	lda	$18                     ; 0x2018 <main+0x1aae>
    25fe: 85 5a        	sta	$5a                     ; 0x205a <main+0x1af0>
    2600: 85 16        	sta	$16                     ; 0x2016 <main+0x1aac>
    2602: a5 19        	lda	$19                     ; 0x2019 <main+0x1aaf>
    2604: 85 5b        	sta	$5b                     ; 0x205b <main+0x1af1>
    2606: a9 01        	lda	#$1
    2608: 85 57        	sta	$57                     ; 0x2057 <main+0x1aed>
    260a: 84 5c        	sty	$5c                     ; 0x205c <main+0x1af2>
    260c: 86 5d        	stx	$5d                     ; 0x205d <main+0x1af3>
    260e: c8           	iny
    260f: d0 01        	bne	$2612 <main+0x20a8>
    2611: e8           	inx
    2612: 84 18        	sty	$18                     ; 0x2018 <main+0x1aae>
    2614: 86 19        	stx	$19                     ; 0x2019 <main+0x1aaf>
    2616: a5 12        	lda	$12                     ; 0x2012 <main+0x1aa8>
    2618: 18           	clc
    2619: 69 19        	adc	#$19
    261b: 85 12        	sta	$12                     ; 0x2012 <main+0x1aa8>
    261d: a5 13        	lda	$13                     ; 0x2013 <main+0x1aa9>
    261f: 69 00        	adc	#$0
    2621: 85 13        	sta	$13                     ; 0x2013 <main+0x1aa9>
    2623: 84 1c        	sty	$1c                     ; 0x201c <main+0x1ab2>
    2625: a4 1b        	ldy	$1b                     ; 0x201b <main+0x1ab1>
    2627: c4 19        	cpy	$19                     ; 0x2019 <main+0x1aaf>
    2629: f0 03        	beq	$262e <main+0x20c4>
    262b: 4c 9f 25     	jmp	$259f <main+0x2035>
    262e: a4 18        	ldy	$18                     ; 0x2018 <main+0x1aae>
    2630: 84 1c        	sty	$1c                     ; 0x201c <main+0x1ab2>
    2632: a4 1a        	ldy	$1a                     ; 0x201a <main+0x1ab0>
    2634: c4 18        	cpy	$18                     ; 0x2018 <main+0x1aae>
    2636: f0 12        	beq	$264a <main+0x20e0>
    2638: 4c 9f 25     	jmp	$259f <main+0x2035>
    263b: c5 16        	cmp	$16                     ; 0x2016 <main+0x1aac>
    263d: a5 1d        	lda	$1d                     ; 0x201d <main+0x1ab3>
    263f: 90 ab        	bcc	$25ec <main+0x2082>
    2641: 80 cb        	bra	$260e <main+0x20a4>
    2643: c5 15        	cmp	$15                     ; 0x2015 <main+0x1aab>
    2645: b0 c7        	bcs	$260e <main+0x20a4>
    2647: 4c ec 25     	jmp	$25ec <main+0x2082>
    264a: a6 58        	ldx	$58                     ; 0x2058 <main+0x1aee>
    264c: 86 12        	stx	$12                     ; 0x2012 <main+0x1aa8>
    264e: a5 59        	lda	$59                     ; 0x2059 <main+0x1aef>
    2650: a4 5a        	ldy	$5a                     ; 0x205a <main+0x1af0>
    2652: a6 5b        	ldx	$5b                     ; 0x205b <main+0x1af1>
    2654: d0 11        	bne	$2667 <main+0x20fd>
    2656: c0 00        	cpy	#$0
    2658: d0 0d        	bne	$2667 <main+0x20fd>
    265a: c9 00        	cmp	#$0
    265c: d0 09        	bne	$2667 <main+0x20fd>
    265e: e6 12        	inc	$12                     ; 0x2012 <main+0x1aa8>
    2660: c6 12        	dec	$12                     ; 0x2012 <main+0x1aa8>
    2662: d0 03        	bne	$2667 <main+0x20fd>
    2664: 4c 64 28     	jmp	$2864 <main+0x22fa>
    2667: 86 17        	stx	$17                     ; 0x2017 <main+0x1aad>
    2669: 84 16        	sty	$16                     ; 0x2016 <main+0x1aac>
    266b: a6 12        	ldx	$12                     ; 0x2012 <main+0x1aa8>
    266d: 86 14        	stx	$14                     ; 0x2014 <main+0x1aaa>
    266f: 85 15        	sta	$15                     ; 0x2015 <main+0x1aab>
    2671: a5 53        	lda	$53                     ; 0x2053 <main+0x1ae9>
    2673: a6 54        	ldx	$54                     ; 0x2054 <main+0x1aea>
    2675: a4 55        	ldy	$55                     ; 0x2055 <main+0x1aeb>
    2677: 84 12        	sty	$12                     ; 0x2012 <main+0x1aa8>
    2679: a4 56        	ldy	$56                     ; 0x2056 <main+0x1aec>
    267b: 84 13        	sty	$13                     ; 0x2013 <main+0x1aa9>
    267d: 20 ae 82     	jsr	$82ae <__mulsi3>
    2680: a4 12        	ldy	$12                     ; 0x2012 <main+0x1aa8>
    2682: 85 12        	sta	$12                     ; 0x2012 <main+0x1aa8>
    2684: 85 58        	sta	$58                     ; 0x2058 <main+0x1aee>
    2686: 86 15        	stx	$15                     ; 0x2015 <main+0x1aab>
    2688: 86 59        	stx	$59                     ; 0x2059 <main+0x1aef>
    268a: 84 14        	sty	$14                     ; 0x2014 <main+0x1aaa>
    268c: 84 5a        	sty	$5a                     ; 0x205a <main+0x1af0>
    268e: a6 13        	ldx	$13                     ; 0x2013 <main+0x1aa9>
    2690: 86 5b        	stx	$5b                     ; 0x205b <main+0x1af1>
    2692: a0 02        	ldy	#$2
    2694: 8c 50 d6     	sty	$d650                   ; 0xd650 <__heap_start+0x30bc>
    2697: a5 12        	lda	$12                     ; 0x2012 <main+0x1aa8>
    2699: 8d 55 d6     	sta	$d655                   ; 0xd655 <__heap_start+0x30c1>
    269c: a6 15        	ldx	$15                     ; 0x2015 <main+0x1aab>
    269e: 8e 56 d6     	stx	$d656                   ; 0xd656 <__heap_start+0x30c2>
    26a1: a6 14        	ldx	$14                     ; 0x2014 <main+0x1aaa>
    26a3: 8e 57 d6     	stx	$d657                   ; 0xd657 <__heap_start+0x30c3>
    26a6: 9c 54 d6     	stz	$d654                   ; 0xd654 <__heap_start+0x30c0>
    26a9: 8c 50 d6     	sty	$d650                   ; 0xd650 <__heap_start+0x30bc>
    26ac: a2 89        	ldx	#$89
    26ae: 8e 50 d6     	stx	$d650                   ; 0xd650 <__heap_start+0x30bc>
    26b1: a6 5f        	ldx	$5f                     ; 0x205f <main+0x1af5>
    26b3: e4 50        	cpx	$50                     ; 0x2050 <main+0x1ae6>
    26b5: d0 0d        	bne	$26c4 <main+0x215a>
    26b7: a6 5e        	ldx	$5e                     ; 0x205e <main+0x1af4>
    26b9: a4 4f        	ldy	$4f                     ; 0x204f <main+0x1ae5>
    26bb: 84 12        	sty	$12                     ; 0x2012 <main+0x1aa8>
    26bd: e4 12        	cpx	$12                     ; 0x2012 <main+0x1aa8>
    26bf: b0 0a        	bcs	$26cb <main+0x2161>
    26c1: 4c 5e 1a     	jmp	$1a5e <main+0x14f4>
    26c4: e4 50        	cpx	$50                     ; 0x2050 <main+0x1ae6>
    26c6: b0 03        	bcs	$26cb <main+0x2161>
    26c8: 4c 5e 1a     	jmp	$1a5e <main+0x14f4>
    26cb: a5 46        	lda	$46                     ; 0x2046 <main+0x1adc>
    26cd: 29 01        	and	#$1
    26cf: d0 03        	bne	$26d4 <main+0x216a>
    26d1: 4c 81 17     	jmp	$1781 <main+0x1217>
    26d4: a2 b0        	ldx	#$b0
    26d6: 8e b1 dd     	stx	$ddb1                   ; 0xddb1 <__heap_start+0x381d>
    26d9: a0 7b        	ldy	#$7b
    26db: 8c b1 dd     	sty	$ddb1                   ; 0xddb1 <__heap_start+0x381d>
    26de: 9c b1 dd     	stz	$ddb1                   ; 0xddb1 <__heap_start+0x381d>
    26e1: a9 b1        	lda	#$b1
    26e3: 8d b1 dd     	sta	$ddb1                   ; 0xddb1 <__heap_start+0x381d>
    26e6: 8c b1 dd     	sty	$ddb1                   ; 0xddb1 <__heap_start+0x381d>
    26e9: 9c b1 dd     	stz	$ddb1                   ; 0xddb1 <__heap_start+0x381d>
    26ec: a2 b2        	ldx	#$b2
    26ee: 8e b1 dd     	stx	$ddb1                   ; 0xddb1 <__heap_start+0x381d>
    26f1: 8c b1 dd     	sty	$ddb1                   ; 0xddb1 <__heap_start+0x381d>
    26f4: 9c b1 dd     	stz	$ddb1                   ; 0xddb1 <__heap_start+0x381d>
    26f7: e8           	inx
    26f8: 8e b1 dd     	stx	$ddb1                   ; 0xddb1 <__heap_start+0x381d>
    26fb: 8c b1 dd     	sty	$ddb1                   ; 0xddb1 <__heap_start+0x381d>
    26fe: 9c b1 dd     	stz	$ddb1                   ; 0xddb1 <__heap_start+0x381d>
    2701: e8           	inx
    2702: 8e b1 dd     	stx	$ddb1                   ; 0xddb1 <__heap_start+0x381d>
    2705: 8c b1 dd     	sty	$ddb1                   ; 0xddb1 <__heap_start+0x381d>
    2708: 9c b1 dd     	stz	$ddb1                   ; 0xddb1 <__heap_start+0x381d>
    270b: e8           	inx
    270c: 8e b1 dd     	stx	$ddb1                   ; 0xddb1 <__heap_start+0x381d>
    270f: 8c b1 dd     	sty	$ddb1                   ; 0xddb1 <__heap_start+0x381d>
    2712: 9c b1 dd     	stz	$ddb1                   ; 0xddb1 <__heap_start+0x381d>
    2715: e8           	inx
    2716: 8e b1 dd     	stx	$ddb1                   ; 0xddb1 <__heap_start+0x381d>
    2719: 8c b1 dd     	sty	$ddb1                   ; 0xddb1 <__heap_start+0x381d>
    271c: 9c b1 dd     	stz	$ddb1                   ; 0xddb1 <__heap_start+0x381d>
    271f: e8           	inx
    2720: 8e b1 dd     	stx	$ddb1                   ; 0xddb1 <__heap_start+0x381d>
    2723: 8c b1 dd     	sty	$ddb1                   ; 0xddb1 <__heap_start+0x381d>
    2726: 9c b1 dd     	stz	$ddb1                   ; 0xddb1 <__heap_start+0x381d>
    2729: e8           	inx
    272a: 8e b1 dd     	stx	$ddb1                   ; 0xddb1 <__heap_start+0x381d>
    272d: 8c b1 dd     	sty	$ddb1                   ; 0xddb1 <__heap_start+0x381d>
    2730: 9c b1 dd     	stz	$ddb1                   ; 0xddb1 <__heap_start+0x381d>
    2733: e8           	inx
    2734: 8e b1 dd     	stx	$ddb1                   ; 0xddb1 <__heap_start+0x381d>
    2737: 8c b1 dd     	sty	$ddb1                   ; 0xddb1 <__heap_start+0x381d>
    273a: 9c b1 dd     	stz	$ddb1                   ; 0xddb1 <__heap_start+0x381d>
    273d: e8           	inx
    273e: 8e b1 dd     	stx	$ddb1                   ; 0xddb1 <__heap_start+0x381d>
    2741: 8c b1 dd     	sty	$ddb1                   ; 0xddb1 <__heap_start+0x381d>
    2744: 9c b1 dd     	stz	$ddb1                   ; 0xddb1 <__heap_start+0x381d>
    2747: e8           	inx
    2748: 8e b1 dd     	stx	$ddb1                   ; 0xddb1 <__heap_start+0x381d>
    274b: 8c b1 dd     	sty	$ddb1                   ; 0xddb1 <__heap_start+0x381d>
    274e: 9c b1 dd     	stz	$ddb1                   ; 0xddb1 <__heap_start+0x381d>
    2751: e8           	inx
    2752: 8e b1 dd     	stx	$ddb1                   ; 0xddb1 <__heap_start+0x381d>
    2755: 8c b1 dd     	sty	$ddb1                   ; 0xddb1 <__heap_start+0x381d>
    2758: 9c b1 dd     	stz	$ddb1                   ; 0xddb1 <__heap_start+0x381d>
    275b: e8           	inx
    275c: 8e b1 dd     	stx	$ddb1                   ; 0xddb1 <__heap_start+0x381d>
    275f: 8c b1 dd     	sty	$ddb1                   ; 0xddb1 <__heap_start+0x381d>
    2762: 9c b1 dd     	stz	$ddb1                   ; 0xddb1 <__heap_start+0x381d>
    2765: e8           	inx
    2766: 8e b1 dd     	stx	$ddb1                   ; 0xddb1 <__heap_start+0x381d>
    2769: 8c b1 dd     	sty	$ddb1                   ; 0xddb1 <__heap_start+0x381d>
    276c: 9c b1 dd     	stz	$ddb1                   ; 0xddb1 <__heap_start+0x381d>
    276f: e8           	inx
    2770: 8e b1 dd     	stx	$ddb1                   ; 0xddb1 <__heap_start+0x381d>
    2773: 8c b1 dd     	sty	$ddb1                   ; 0xddb1 <__heap_start+0x381d>
    2776: 9c b1 dd     	stz	$ddb1                   ; 0xddb1 <__heap_start+0x381d>
    2779: a2 b0        	ldx	#$b0
    277b: 8e a1 dd     	stx	$dda1                   ; 0xdda1 <__heap_start+0x380d>
    277e: 8c a1 dd     	sty	$dda1                   ; 0xdda1 <__heap_start+0x380d>
    2781: 9c a1 dd     	stz	$dda1                   ; 0xdda1 <__heap_start+0x380d>
    2784: 8d a1 dd     	sta	$dda1                   ; 0xdda1 <__heap_start+0x380d>
    2787: 8c a1 dd     	sty	$dda1                   ; 0xdda1 <__heap_start+0x380d>
    278a: 9c a1 dd     	stz	$dda1                   ; 0xdda1 <__heap_start+0x380d>
    278d: a2 b2        	ldx	#$b2
    278f: 8e a1 dd     	stx	$dda1                   ; 0xdda1 <__heap_start+0x380d>
    2792: 8c a1 dd     	sty	$dda1                   ; 0xdda1 <__heap_start+0x380d>
    2795: 9c a1 dd     	stz	$dda1                   ; 0xdda1 <__heap_start+0x380d>
    2798: e8           	inx
    2799: 8e a1 dd     	stx	$dda1                   ; 0xdda1 <__heap_start+0x380d>
    279c: 8c a1 dd     	sty	$dda1                   ; 0xdda1 <__heap_start+0x380d>
    279f: 9c a1 dd     	stz	$dda1                   ; 0xdda1 <__heap_start+0x380d>
    27a2: e8           	inx
    27a3: 8e a1 dd     	stx	$dda1                   ; 0xdda1 <__heap_start+0x380d>
    27a6: 8c a1 dd     	sty	$dda1                   ; 0xdda1 <__heap_start+0x380d>
    27a9: 9c a1 dd     	stz	$dda1                   ; 0xdda1 <__heap_start+0x380d>
    27ac: e8           	inx
    27ad: 8e a1 dd     	stx	$dda1                   ; 0xdda1 <__heap_start+0x380d>
    27b0: 8c a1 dd     	sty	$dda1                   ; 0xdda1 <__heap_start+0x380d>
    27b3: 9c a1 dd     	stz	$dda1                   ; 0xdda1 <__heap_start+0x380d>
    27b6: e8           	inx
    27b7: 8e a1 dd     	stx	$dda1                   ; 0xdda1 <__heap_start+0x380d>
    27ba: 8c a1 dd     	sty	$dda1                   ; 0xdda1 <__heap_start+0x380d>
    27bd: 9c a1 dd     	stz	$dda1                   ; 0xdda1 <__heap_start+0x380d>
    27c0: e8           	inx
    27c1: 8e a1 dd     	stx	$dda1                   ; 0xdda1 <__heap_start+0x380d>
    27c4: 8c a1 dd     	sty	$dda1                   ; 0xdda1 <__heap_start+0x380d>
    27c7: 9c a1 dd     	stz	$dda1                   ; 0xdda1 <__heap_start+0x380d>
    27ca: e8           	inx
    27cb: 8e a1 dd     	stx	$dda1                   ; 0xdda1 <__heap_start+0x380d>
    27ce: 8c a1 dd     	sty	$dda1                   ; 0xdda1 <__heap_start+0x380d>
    27d1: 9c a1 dd     	stz	$dda1                   ; 0xdda1 <__heap_start+0x380d>
    27d4: e8           	inx
    27d5: 8e a1 dd     	stx	$dda1                   ; 0xdda1 <__heap_start+0x380d>
    27d8: 8c a1 dd     	sty	$dda1                   ; 0xdda1 <__heap_start+0x380d>
    27db: 9c a1 dd     	stz	$dda1                   ; 0xdda1 <__heap_start+0x380d>
    27de: e8           	inx
    27df: 8e a1 dd     	stx	$dda1                   ; 0xdda1 <__heap_start+0x380d>
    27e2: 8c a1 dd     	sty	$dda1                   ; 0xdda1 <__heap_start+0x380d>
    27e5: 9c a1 dd     	stz	$dda1                   ; 0xdda1 <__heap_start+0x380d>
    27e8: e8           	inx
    27e9: 8e a1 dd     	stx	$dda1                   ; 0xdda1 <__heap_start+0x380d>
    27ec: 8c a1 dd     	sty	$dda1                   ; 0xdda1 <__heap_start+0x380d>
    27ef: 9c a1 dd     	stz	$dda1                   ; 0xdda1 <__heap_start+0x380d>
    27f2: e8           	inx
    27f3: 8e a1 dd     	stx	$dda1                   ; 0xdda1 <__heap_start+0x380d>
    27f6: 8c a1 dd     	sty	$dda1                   ; 0xdda1 <__heap_start+0x380d>
    27f9: 9c a1 dd     	stz	$dda1                   ; 0xdda1 <__heap_start+0x380d>
    27fc: e8           	inx
    27fd: 8e a1 dd     	stx	$dda1                   ; 0xdda1 <__heap_start+0x380d>
    2800: 8c a1 dd     	sty	$dda1                   ; 0xdda1 <__heap_start+0x380d>
    2803: 9c a1 dd     	stz	$dda1                   ; 0xdda1 <__heap_start+0x380d>
    2806: e8           	inx
    2807: 8e a1 dd     	stx	$dda1                   ; 0xdda1 <__heap_start+0x380d>
    280a: 8c a1 dd     	sty	$dda1                   ; 0xdda1 <__heap_start+0x380d>
    280d: 9c a1 dd     	stz	$dda1                   ; 0xdda1 <__heap_start+0x380d>
    2810: e8           	inx
    2811: 8e a1 dd     	stx	$dda1                   ; 0xdda1 <__heap_start+0x380d>
    2814: 8c a1 dd     	sty	$dda1                   ; 0xdda1 <__heap_start+0x380d>
    2817: 9c a1 dd     	stz	$dda1                   ; 0xdda1 <__heap_start+0x380d>
    281a: a6 60        	ldx	$60                     ; 0x2060 <main+0x1af6>
    281c: 86 12        	stx	$12                     ; 0x2012 <main+0x1aa8>
    281e: a6 61        	ldx	$61                     ; 0x2061 <main+0x1af7>
    2820: 86 13        	stx	$13                     ; 0x2013 <main+0x1aa9>
    2822: 20 95 80     	jsr	$8095 <free>
    2825: a6 2e        	ldx	$2e                     ; 0x202e <main+0x1ac4>
    2827: a4 2f        	ldy	$2f                     ; 0x202f <main+0x1ac5>
    2829: 86 60        	stx	$60                     ; 0x2060 <main+0x1af6>
    282b: 84 61        	sty	$61                     ; 0x2061 <main+0x1af7>
    282d: a2 27        	ldx	#$27
    282f: 86 12        	stx	$12                     ; 0x2012 <main+0x1aa8>
    2831: a2 a4        	ldx	#$a4
    2833: 86 13        	stx	$13                     ; 0x2013 <main+0x1aa9>
    2835: 64 14        	stz	$14                     ; 0x2014 <main+0x1aaa>
    2837: a2 80        	ldx	#$80
    2839: a9 00        	lda	#$0
    283b: 20 51 82     	jsr	$8251 <__memset>
    283e: a2 a7        	ldx	#$a7
    2840: 86 12        	stx	$12                     ; 0x2012 <main+0x1aa8>
    2842: a2 a4        	ldx	#$a4
    2844: 86 13        	stx	$13                     ; 0x2013 <main+0x1aa9>
    2846: 64 14        	stz	$14                     ; 0x2014 <main+0x1aaa>
    2848: a2 80        	ldx	#$80
    284a: a9 00        	lda	#$0
    284c: 20 51 82     	jsr	$8251 <__memset>
    284f: a6 48        	ldx	$48                     ; 0x2048 <main+0x1ade>
    2851: a4 49        	ldy	$49                     ; 0x2049 <main+0x1adf>
    2853: c4 2f        	cpy	$2f                     ; 0x202f <main+0x1ac5>
    2855: f0 03        	beq	$285a <main+0x22f0>
    2857: 4c e2 19     	jmp	$19e2 <main+0x1478>
    285a: e4 2e        	cpx	$2e                     ; 0x202e <main+0x1ac4>
    285c: f0 03        	beq	$2861 <main+0x22f7>
    285e: 4c e2 19     	jmp	$19e2 <main+0x1478>
    2861: 4c e9 19     	jmp	$19e9 <main+0x147f>
    2864: 64 12        	stz	$12                     ; 0x2012 <main+0x1aa8>
    2866: 64 15        	stz	$15                     ; 0x2015 <main+0x1aab>
    2868: 64 14        	stz	$14                     ; 0x2014 <main+0x1aaa>
    286a: 4c 92 26     	jmp	$2692 <main+0x2128>
    286d: 86 12        	stx	$12                     ; 0x2012 <main+0x1aa8>
    286f: 5a           	phy
    2870: fa           	plx
    2871: 5a           	phy
    2872: a0 14        	ldy	#$14
    2874: 91 10        	sta	($10),y                 ; 0x2010 <main+0x1aa6>
    2876: 7a           	ply
    2877: 84 24        	sty	$24                     ; 0x2024 <main+0x1aba>
    2879: 20 7c 82     	jsr	$827c <__mulhi3>
    287c: 18           	clc
    287d: a4 2c        	ldy	$2c                     ; 0x202c <main+0x1ac2>
    287f: 84 2e        	sty	$2e                     ; 0x202e <main+0x1ac4>
    2881: 65 2c        	adc	$2c                     ; 0x202c <main+0x1ac2>
    2883: 85 16        	sta	$16                     ; 0x2016 <main+0x1aac>
    2885: a0 10        	ldy	#$10
    2887: b1 10        	lda	($10),y                 ; 0x2010 <main+0x1aa6>
    2889: c8           	iny
    288a: b1 10        	lda	($10),y                 ; 0x2010 <main+0x1aa6>
    288c: 85 13        	sta	$13                     ; 0x2013 <main+0x1aa9>
    288e: 8a           	txa
    288f: 65 13        	adc	$13                     ; 0x2013 <main+0x1aa9>
    2891: a6 16        	ldx	$16                     ; 0x2016 <main+0x1aac>
    2893: 86 2f        	stx	$2f                     ; 0x202f <main+0x1ac5>
    2895: 86 2c        	stx	$2c                     ; 0x202c <main+0x1ac2>
    2897: aa           	tax
    2898: 85 2d        	sta	$2d                     ; 0x202d <main+0x1ac3>
    289a: a0 18        	ldy	#$18
    289c: b1 2c        	lda	($2c),y                 ; 0x202c <main+0x1ac2>
    289e: f0 09        	beq	$28a9 <main+0x233f>
    28a0: a6 2e        	ldx	$2e                     ; 0x202e <main+0x1ac4>
    28a2: 86 2c        	stx	$2c                     ; 0x202c <main+0x1ac2>
    28a4: a4 24        	ldy	$24                     ; 0x2024 <main+0x1aba>
    28a6: 4c 92 29     	jmp	$2992 <main+0x2428>
    28a9: a5 25        	lda	$25                     ; 0x2025 <main+0x1abb>
    28ab: a0 0e        	ldy	#$e
    28ad: 91 10        	sta	($10),y                 ; 0x2010 <main+0x1aa6>
    28af: 86 25        	stx	$25                     ; 0x2025 <main+0x1abb>
    28b1: a6 5c        	ldx	$5c                     ; 0x205c <main+0x1af2>
    28b3: 86 14        	stx	$14                     ; 0x2014 <main+0x1aaa>
    28b5: a6 5d        	ldx	$5d                     ; 0x205d <main+0x1af3>
    28b7: a4 24        	ldy	$24                     ; 0x2024 <main+0x1aba>
    28b9: 98           	tya
    28ba: 5a           	phy
    28bb: a0 0f        	ldy	#$f
    28bd: 91 10        	sta	($10),y                 ; 0x2010 <main+0x1aa6>
    28bf: 7a           	ply
    28c0: c4 5d        	cpy	$5d                     ; 0x205d <main+0x1af3>
    28c2: d0 0d        	bne	$28d1 <main+0x2367>
    28c4: 64 13        	stz	$13                     ; 0x2013 <main+0x1aa9>
    28c6: a0 14        	ldy	#$14
    28c8: b1 10        	lda	($10),y                 ; 0x2010 <main+0x1aa6>
    28ca: c5 14        	cmp	$14                     ; 0x2014 <main+0x1aaa>
    28cc: d0 05        	bne	$28d3 <main+0x2369>
    28ce: 4c 81 29     	jmp	$2981 <main+0x2417>
    28d1: 64 13        	stz	$13                     ; 0x2013 <main+0x1aa9>
    28d3: a0 19        	ldy	#$19
    28d5: 84 12        	sty	$12                     ; 0x2012 <main+0x1aa8>
    28d7: a5 14        	lda	$14                     ; 0x2014 <main+0x1aaa>
    28d9: 20 7c 82     	jsr	$827c <__mulhi3>
    28dc: 18           	clc
    28dd: 65 2e        	adc	$2e                     ; 0x202e <main+0x1ac4>
    28df: a8           	tay
    28e0: 5a           	phy
    28e1: a0 10        	ldy	#$10
    28e3: b1 10        	lda	($10),y                 ; 0x2010 <main+0x1aa6>
    28e5: c8           	iny
    28e6: b1 10        	lda	($10),y                 ; 0x2010 <main+0x1aa6>
    28e8: 7a           	ply
    28e9: 85 13        	sta	$13                     ; 0x2013 <main+0x1aa9>
    28eb: 8a           	txa
    28ec: 65 13        	adc	$13                     ; 0x2013 <main+0x1aa9>
    28ee: aa           	tax
    28ef: 98           	tya
    28f0: 84 12        	sty	$12                     ; 0x2012 <main+0x1aa8>
    28f2: 86 13        	stx	$13                     ; 0x2013 <main+0x1aa9>
    28f4: 18           	clc
    28f5: 69 0c        	adc	#$c
    28f7: 85 16        	sta	$16                     ; 0x2016 <main+0x1aac>
    28f9: 8a           	txa
    28fa: 69 00        	adc	#$0
    28fc: 85 17        	sta	$17                     ; 0x2017 <main+0x1aad>
    28fe: a0 0c        	ldy	#$c
    2900: b1 12        	lda	($12),y                 ; 0x2012 <main+0x1aa8>
    2902: 85 12        	sta	$12                     ; 0x2012 <main+0x1aa8>
    2904: a0 01        	ldy	#$1
    2906: b1 16        	lda	($16),y                 ; 0x2016 <main+0x1aac>
    2908: 85 13        	sta	$13                     ; 0x2013 <main+0x1aa9>
    290a: c8           	iny
    290b: b1 16        	lda	($16),y                 ; 0x2016 <main+0x1aac>
    290d: 85 14        	sta	$14                     ; 0x2014 <main+0x1aaa>
    290f: c8           	iny
    2910: b1 16        	lda	($16),y                 ; 0x2016 <main+0x1aac>
    2912: 85 15        	sta	$15                     ; 0x2015 <main+0x1aab>
    2914: 18           	clc
    2915: a5 2f        	lda	$2f                     ; 0x202f <main+0x1ac5>
    2917: 69 0c        	adc	#$c
    2919: 85 16        	sta	$16                     ; 0x2016 <main+0x1aac>
    291b: a5 25        	lda	$25                     ; 0x2025 <main+0x1abb>
    291d: 69 00        	adc	#$0
    291f: 85 17        	sta	$17                     ; 0x2017 <main+0x1aad>
    2921: a0 0c        	ldy	#$c
    2923: b1 2c        	lda	($2c),y                 ; 0x202c <main+0x1ac2>
    2925: 85 18        	sta	$18                     ; 0x2018 <main+0x1aae>
    2927: a0 01        	ldy	#$1
    2929: b1 16        	lda	($16),y                 ; 0x2016 <main+0x1aac>
    292b: 85 19        	sta	$19                     ; 0x2019 <main+0x1aaf>
    292d: c8           	iny
    292e: b1 16        	lda	($16),y                 ; 0x2016 <main+0x1aac>
    2930: aa           	tax
    2931: a5 18        	lda	$18                     ; 0x2018 <main+0x1aae>
    2933: 38           	sec
    2934: e5 12        	sbc	$12                     ; 0x2012 <main+0x1aa8>
    2936: 85 1d        	sta	$1d                     ; 0x201d <main+0x1ab3>
    2938: a5 19        	lda	$19                     ; 0x2019 <main+0x1aaf>
    293a: e5 13        	sbc	$13                     ; 0x2013 <main+0x1aa9>
    293c: 85 1b        	sta	$1b                     ; 0x201b <main+0x1ab1>
    293e: 8a           	txa
    293f: 86 1a        	stx	$1a                     ; 0x201a <main+0x1ab0>
    2941: e5 14        	sbc	$14                     ; 0x2014 <main+0x1aaa>
    2943: 85 1c        	sta	$1c                     ; 0x201c <main+0x1ab2>
    2945: c8           	iny
    2946: b1 16        	lda	($16),y                 ; 0x2016 <main+0x1aac>
    2948: aa           	tax
    2949: e5 15        	sbc	$15                     ; 0x2015 <main+0x1aab>
    294b: 85 1e        	sta	$1e                     ; 0x201e <main+0x1ab4>
    294d: a0 0c        	ldy	#$c
    294f: a5 1d        	lda	$1d                     ; 0x201d <main+0x1ab3>
    2951: 91 2c        	sta	($2c),y                 ; 0x202c <main+0x1ac2>
    2953: a0 01        	ldy	#$1
    2955: a5 1b        	lda	$1b                     ; 0x201b <main+0x1ab1>
    2957: 91 16        	sta	($16),y                 ; 0x2016 <main+0x1aac>
    2959: c8           	iny
    295a: a5 1c        	lda	$1c                     ; 0x201c <main+0x1ab2>
    295c: 91 16        	sta	($16),y                 ; 0x2016 <main+0x1aac>
    295e: c8           	iny
    295f: a5 1e        	lda	$1e                     ; 0x201e <main+0x1ab4>
    2961: 91 16        	sta	($16),y                 ; 0x2016 <main+0x1aac>
    2963: e4 15        	cpx	$15                     ; 0x2015 <main+0x1aab>
    2965: d0 1a        	bne	$2981 <main+0x2417>
    2967: a6 2e        	ldx	$2e                     ; 0x202e <main+0x1ac4>
    2969: 86 2c        	stx	$2c                     ; 0x202c <main+0x1ac2>
    296b: a0 0f        	ldy	#$f
    296d: b1 10        	lda	($10),y                 ; 0x2010 <main+0x1aa6>
    296f: a8           	tay
    2970: 5a           	phy
    2971: a0 0e        	ldy	#$e
    2973: b1 10        	lda	($10),y                 ; 0x2010 <main+0x1aa6>
    2975: 7a           	ply
    2976: 85 25        	sta	$25                     ; 0x2025 <main+0x1abb>
    2978: a6 1a        	ldx	$1a                     ; 0x201a <main+0x1ab0>
    297a: e4 14        	cpx	$14                     ; 0x2014 <main+0x1aaa>
    297c: d0 14        	bne	$2992 <main+0x2428>
    297e: 4c 31 2e     	jmp	$2e31 <main+0x28c7>
    2981: a6 2e        	ldx	$2e                     ; 0x202e <main+0x1ac4>
    2983: 86 2c        	stx	$2c                     ; 0x202c <main+0x1ac2>
    2985: a0 0f        	ldy	#$f
    2987: b1 10        	lda	($10),y                 ; 0x2010 <main+0x1aa6>
    2989: a8           	tay
    298a: 5a           	phy
    298b: a0 0e        	ldy	#$e
    298d: b1 10        	lda	($10),y                 ; 0x2010 <main+0x1aa6>
    298f: 7a           	ply
    2990: 85 25        	sta	$25                     ; 0x2025 <main+0x1abb>
    2992: 5a           	phy
    2993: a0 14        	ldy	#$14
    2995: b1 10        	lda	($10),y                 ; 0x2010 <main+0x1aa6>
    2997: 7a           	ply
    2998: aa           	tax
    2999: e8           	inx
    299a: d0 01        	bne	$299d <main+0x2433>
    299c: c8           	iny
    299d: 8a           	txa
    299e: c4 25        	cpy	$25                     ; 0x2025 <main+0x1abb>
    29a0: d0 0e        	bne	$29b0 <main+0x2446>
    29a2: 48           	pha
    29a3: 5a           	phy
    29a4: a0 12        	ldy	#$12
    29a6: b1 10        	lda	($10),y                 ; 0x2010 <main+0x1aa6>
    29a8: 7a           	ply
    29a9: 85 12        	sta	$12                     ; 0x2012 <main+0x1aa8>
    29ab: 68           	pla
    29ac: c5 12        	cmp	$12                     ; 0x2012 <main+0x1aa8>
    29ae: 80 02        	bra	$29b2 <main+0x2448>
    29b0: c4 25        	cpy	$25                     ; 0x2025 <main+0x1abb>
    29b2: a2 19        	ldx	#$19
    29b4: 64 13        	stz	$13                     ; 0x2013 <main+0x1aa9>
    29b6: b0 03        	bcs	$29bb <main+0x2451>
    29b8: 4c 6d 28     	jmp	$286d <main+0x2303>
    29bb: a5 5c        	lda	$5c                     ; 0x205c <main+0x1af2>
    29bd: 86 12        	stx	$12                     ; 0x2012 <main+0x1aa8>
    29bf: 64 13        	stz	$13                     ; 0x2013 <main+0x1aa9>
    29c1: 64 14        	stz	$14                     ; 0x2014 <main+0x1aaa>
    29c3: 48           	pha
    29c4: a9 00        	lda	#$0
    29c6: a0 14        	ldy	#$14
    29c8: 91 10        	sta	($10),y                 ; 0x2010 <main+0x1aa6>
    29ca: 68           	pla
    29cb: a2 00        	ldx	#$0
    29cd: 85 25        	sta	$25                     ; 0x2025 <main+0x1abb>
    29cf: 20 7c 82     	jsr	$827c <__mulhi3>
    29d2: 18           	clc
    29d3: 65 2c        	adc	$2c                     ; 0x202c <main+0x1ac2>
    29d5: a8           	tay
    29d6: 5a           	phy
    29d7: a0 10        	ldy	#$10
    29d9: b1 10        	lda	($10),y                 ; 0x2010 <main+0x1aa6>
    29db: c8           	iny
    29dc: b1 10        	lda	($10),y                 ; 0x2010 <main+0x1aa6>
    29de: 7a           	ply
    29df: 85 13        	sta	$13                     ; 0x2013 <main+0x1aa9>
    29e1: 8a           	txa
    29e2: 65 13        	adc	$13                     ; 0x2013 <main+0x1aa9>
    29e4: aa           	tax
    29e5: 98           	tya
    29e6: 84 12        	sty	$12                     ; 0x2012 <main+0x1aa8>
    29e8: 86 13        	stx	$13                     ; 0x2013 <main+0x1aa9>
    29ea: 18           	clc
    29eb: 69 04        	adc	#$4
    29ed: 85 14        	sta	$14                     ; 0x2014 <main+0x1aaa>
    29ef: 8a           	txa
    29f0: 69 00        	adc	#$0
    29f2: 85 15        	sta	$15                     ; 0x2015 <main+0x1aab>
    29f4: a0 03        	ldy	#$3
    29f6: b1 14        	lda	($14),y                 ; 0x2014 <main+0x1aaa>
    29f8: d1 12        	cmp	($12),y                 ; 0x2012 <main+0x1aa8>
    29fa: f0 03        	beq	$29ff <main+0x2495>
    29fc: 4c 4d 2b     	jmp	$2b4d <main+0x25e3>
    29ff: a0 02        	ldy	#$2
    2a01: b1 14        	lda	($14),y                 ; 0x2014 <main+0x1aaa>
    2a03: aa           	tax
    2a04: b1 12        	lda	($12),y                 ; 0x2012 <main+0x1aa8>
    2a06: 85 16        	sta	$16                     ; 0x2016 <main+0x1aac>
    2a08: e4 16        	cpx	$16                     ; 0x2016 <main+0x1aac>
    2a0a: f0 03        	beq	$2a0f <main+0x24a5>
    2a0c: 4c 99 2b     	jmp	$2b99 <main+0x262f>
    2a0f: a0 01        	ldy	#$1
    2a11: b1 14        	lda	($14),y                 ; 0x2014 <main+0x1aaa>
    2a13: aa           	tax
    2a14: b1 12        	lda	($12),y                 ; 0x2012 <main+0x1aa8>
    2a16: 85 14        	sta	$14                     ; 0x2014 <main+0x1aaa>
    2a18: e4 14        	cpx	$14                     ; 0x2014 <main+0x1aaa>
    2a1a: f0 03        	beq	$2a1f <main+0x24b5>
    2a1c: 4c 27 2e     	jmp	$2e27 <main+0x28bd>
    2a1f: a0 04        	ldy	#$4
    2a21: b1 12        	lda	($12),y                 ; 0x2012 <main+0x1aa8>
    2a23: 85 14        	sta	$14                     ; 0x2014 <main+0x1aaa>
    2a25: b2 12        	lda	($12)                   ; 0x2012 <main+0x1aa8>
    2a27: 85 12        	sta	$12                     ; 0x2012 <main+0x1aa8>
    2a29: a6 14        	ldx	$14                     ; 0x2014 <main+0x1aaa>
    2a2b: e4 12        	cpx	$12                     ; 0x2012 <main+0x1aa8>
    2a2d: 90 03        	bcc	$2a32 <main+0x24c8>
    2a2f: 4c 51 2b     	jmp	$2b51 <main+0x25e7>
    2a32: 4c 9d 2b     	jmp	$2b9d <main+0x2633>
    2a35: a6 62        	ldx	$62                     ; 0x2062 <main+0x1af8>
    2a37: a0 a1        	ldy	#$a1
    2a39: 84 12        	sty	$12                     ; 0x2012 <main+0x1aa8>
    2a3b: a0 dd        	ldy	#$dd
    2a3d: 84 13        	sty	$13                     ; 0x2013 <main+0x1aa9>
    2a3f: 8a           	txa
    2a40: f0 08        	beq	$2a4a <main+0x24e0>
    2a42: a2 b1        	ldx	#$b1
    2a44: 86 12        	stx	$12                     ; 0x2012 <main+0x1aa8>
    2a46: a2 dd        	ldx	#$dd
    2a48: 86 13        	stx	$13                     ; 0x2013 <main+0x1aa9>
    2a4a: a9 b0        	lda	#$b0
    2a4c: 92 12        	sta	($12)                   ; 0x2012 <main+0x1aa8>
    2a4e: a9 7b        	lda	#$7b
    2a50: 92 12        	sta	($12)                   ; 0x2012 <main+0x1aa8>
    2a52: a9 00        	lda	#$0
    2a54: 92 12        	sta	($12)                   ; 0x2012 <main+0x1aa8>
    2a56: a9 b1        	lda	#$b1
    2a58: 92 12        	sta	($12)                   ; 0x2012 <main+0x1aa8>
    2a5a: a9 7b        	lda	#$7b
    2a5c: 92 12        	sta	($12)                   ; 0x2012 <main+0x1aa8>
    2a5e: a9 00        	lda	#$0
    2a60: 92 12        	sta	($12)                   ; 0x2012 <main+0x1aa8>
    2a62: a9 b2        	lda	#$b2
    2a64: 92 12        	sta	($12)                   ; 0x2012 <main+0x1aa8>
    2a66: a9 7b        	lda	#$7b
    2a68: 92 12        	sta	($12)                   ; 0x2012 <main+0x1aa8>
    2a6a: a9 00        	lda	#$0
    2a6c: 92 12        	sta	($12)                   ; 0x2012 <main+0x1aa8>
    2a6e: a9 b3        	lda	#$b3
    2a70: 92 12        	sta	($12)                   ; 0x2012 <main+0x1aa8>
    2a72: a9 7b        	lda	#$7b
    2a74: 92 12        	sta	($12)                   ; 0x2012 <main+0x1aa8>
    2a76: a9 00        	lda	#$0
    2a78: 92 12        	sta	($12)                   ; 0x2012 <main+0x1aa8>
    2a7a: a9 b4        	lda	#$b4
    2a7c: 92 12        	sta	($12)                   ; 0x2012 <main+0x1aa8>
    2a7e: a9 7b        	lda	#$7b
    2a80: 92 12        	sta	($12)                   ; 0x2012 <main+0x1aa8>
    2a82: a9 00        	lda	#$0
    2a84: 92 12        	sta	($12)                   ; 0x2012 <main+0x1aa8>
    2a86: a9 b5        	lda	#$b5
    2a88: 92 12        	sta	($12)                   ; 0x2012 <main+0x1aa8>
    2a8a: a9 7b        	lda	#$7b
    2a8c: 92 12        	sta	($12)                   ; 0x2012 <main+0x1aa8>
    2a8e: a9 00        	lda	#$0
    2a90: 92 12        	sta	($12)                   ; 0x2012 <main+0x1aa8>
    2a92: a9 b6        	lda	#$b6
    2a94: 92 12        	sta	($12)                   ; 0x2012 <main+0x1aa8>
    2a96: a9 7b        	lda	#$7b
    2a98: 92 12        	sta	($12)                   ; 0x2012 <main+0x1aa8>
    2a9a: a9 00        	lda	#$0
    2a9c: 92 12        	sta	($12)                   ; 0x2012 <main+0x1aa8>
    2a9e: a9 b7        	lda	#$b7
    2aa0: 92 12        	sta	($12)                   ; 0x2012 <main+0x1aa8>
    2aa2: a9 7b        	lda	#$7b
    2aa4: 92 12        	sta	($12)                   ; 0x2012 <main+0x1aa8>
    2aa6: a9 00        	lda	#$0
    2aa8: 92 12        	sta	($12)                   ; 0x2012 <main+0x1aa8>
    2aaa: a9 b8        	lda	#$b8
    2aac: 92 12        	sta	($12)                   ; 0x2012 <main+0x1aa8>
    2aae: a9 7b        	lda	#$7b
    2ab0: 92 12        	sta	($12)                   ; 0x2012 <main+0x1aa8>
    2ab2: a9 00        	lda	#$0
    2ab4: 92 12        	sta	($12)                   ; 0x2012 <main+0x1aa8>
    2ab6: a9 b9        	lda	#$b9
    2ab8: 92 12        	sta	($12)                   ; 0x2012 <main+0x1aa8>
    2aba: a9 7b        	lda	#$7b
    2abc: 92 12        	sta	($12)                   ; 0x2012 <main+0x1aa8>
    2abe: a9 00        	lda	#$0
    2ac0: 92 12        	sta	($12)                   ; 0x2012 <main+0x1aa8>
    2ac2: a9 ba        	lda	#$ba
    2ac4: 92 12        	sta	($12)                   ; 0x2012 <main+0x1aa8>
    2ac6: a9 7b        	lda	#$7b
    2ac8: 92 12        	sta	($12)                   ; 0x2012 <main+0x1aa8>
    2aca: a9 00        	lda	#$0
    2acc: 92 12        	sta	($12)                   ; 0x2012 <main+0x1aa8>
    2ace: a9 bb        	lda	#$bb
    2ad0: 92 12        	sta	($12)                   ; 0x2012 <main+0x1aa8>
    2ad2: a9 7b        	lda	#$7b
    2ad4: 92 12        	sta	($12)                   ; 0x2012 <main+0x1aa8>
    2ad6: a9 00        	lda	#$0
    2ad8: 92 12        	sta	($12)                   ; 0x2012 <main+0x1aa8>
    2ada: a9 bc        	lda	#$bc
    2adc: 92 12        	sta	($12)                   ; 0x2012 <main+0x1aa8>
    2ade: a9 7b        	lda	#$7b
    2ae0: 92 12        	sta	($12)                   ; 0x2012 <main+0x1aa8>
    2ae2: a9 00        	lda	#$0
    2ae4: 92 12        	sta	($12)                   ; 0x2012 <main+0x1aa8>
    2ae6: a9 bd        	lda	#$bd
    2ae8: 92 12        	sta	($12)                   ; 0x2012 <main+0x1aa8>
    2aea: a9 7b        	lda	#$7b
    2aec: 92 12        	sta	($12)                   ; 0x2012 <main+0x1aa8>
    2aee: a9 00        	lda	#$0
    2af0: 92 12        	sta	($12)                   ; 0x2012 <main+0x1aa8>
    2af2: a9 be        	lda	#$be
    2af4: 92 12        	sta	($12)                   ; 0x2012 <main+0x1aa8>
    2af6: a9 7b        	lda	#$7b
    2af8: 92 12        	sta	($12)                   ; 0x2012 <main+0x1aa8>
    2afa: a9 00        	lda	#$0
    2afc: 92 12        	sta	($12)                   ; 0x2012 <main+0x1aa8>
    2afe: a9 bf        	lda	#$bf
    2b00: 92 12        	sta	($12)                   ; 0x2012 <main+0x1aa8>
    2b02: a9 7b        	lda	#$7b
    2b04: 92 12        	sta	($12)                   ; 0x2012 <main+0x1aa8>
    2b06: a9 00        	lda	#$0
    2b08: 92 12        	sta	($12)                   ; 0x2012 <main+0x1aa8>
    2b0a: a2 01        	ldx	#$1
    2b0c: 86 45        	stx	$45                     ; 0x2045 <main+0x1adb>
    2b0e: 4c 85 17     	jmp	$1785 <main+0x121b>
    2b11: a5 5c        	lda	$5c                     ; 0x205c <main+0x1af2>
    2b13: 20 32 62     	jsr	$6232 <performMIDICmd>
    2b16: a6 4f        	ldx	$4f                     ; 0x204f <main+0x1ae5>
    2b18: a4 50        	ldy	$50                     ; 0x2050 <main+0x1ae6>
    2b1a: a5 60        	lda	$60                     ; 0x2060 <main+0x1af6>
    2b1c: 85 2c        	sta	$2c                     ; 0x202c <main+0x1ac2>
    2b1e: a5 61        	lda	$61                     ; 0x2061 <main+0x1af7>
    2b20: 85 13        	sta	$13                     ; 0x2013 <main+0x1aa9>
    2b22: 5a           	phy
    2b23: a5 12        	lda	$12                     ; 0x2012 <main+0x1aa8>
    2b25: a0 10        	ldy	#$10
    2b27: 91 10        	sta	($10),y                 ; 0x2010 <main+0x1aa6>
    2b29: a5 13        	lda	$13                     ; 0x2013 <main+0x1aa9>
    2b2b: c8           	iny
    2b2c: 91 10        	sta	($10),y                 ; 0x2010 <main+0x1aa6>
    2b2e: 7a           	ply
    2b2f: d0 06        	bne	$2b37 <main+0x25cd>
    2b31: 8a           	txa
    2b32: d0 03        	bne	$2b37 <main+0x25cd>
    2b34: 4c 22 2e     	jmp	$2e22 <main+0x28b8>
    2b37: a9 00        	lda	#$0
    2b39: 48           	pha
    2b3a: 8a           	txa
    2b3b: 5a           	phy
    2b3c: a0 12        	ldy	#$12
    2b3e: 91 10        	sta	($10),y                 ; 0x2010 <main+0x1aa6>
    2b40: 7a           	ply
    2b41: 68           	pla
    2b42: 84 25        	sty	$25                     ; 0x2025 <main+0x1abb>
    2b44: a0 00        	ldy	#$0
    2b46: a2 19        	ldx	#$19
    2b48: 64 13        	stz	$13                     ; 0x2013 <main+0x1aa9>
    2b4a: 4c 6d 28     	jmp	$286d <main+0x2303>
    2b4d: d1 12        	cmp	($12),y                 ; 0x2012 <main+0x1aa8>
    2b4f: 90 4c        	bcc	$2b9d <main+0x2633>
    2b51: a5 2a        	lda	$2a                     ; 0x202a <main+0x1ac0>
    2b53: a0 12        	ldy	#$12
    2b55: 91 10        	sta	($10),y                 ; 0x2010 <main+0x1aa6>
    2b57: a5 2b        	lda	$2b                     ; 0x202b <main+0x1ac1>
    2b59: c8           	iny
    2b5a: 91 10        	sta	($10),y                 ; 0x2010 <main+0x1aa6>
    2b5c: a2 19        	ldx	#$19
    2b5e: 86 12        	stx	$12                     ; 0x2012 <main+0x1aa8>
    2b60: a6 2c        	ldx	$2c                     ; 0x202c <main+0x1ac2>
    2b62: 86 2e        	stx	$2e                     ; 0x202e <main+0x1ac4>
    2b64: 64 2c        	stz	$2c                     ; 0x202c <main+0x1ac2>
    2b66: 64 13        	stz	$13                     ; 0x2013 <main+0x1aa9>
    2b68: a2 00        	ldx	#$0
    2b6a: a5 25        	lda	$25                     ; 0x2025 <main+0x1abb>
    2b6c: 20 7c 82     	jsr	$827c <__mulhi3>
    2b6f: 18           	clc
    2b70: 65 2e        	adc	$2e                     ; 0x202e <main+0x1ac4>
    2b72: a8           	tay
    2b73: 5a           	phy
    2b74: a0 10        	ldy	#$10
    2b76: b1 10        	lda	($10),y                 ; 0x2010 <main+0x1aa6>
    2b78: c8           	iny
    2b79: b1 10        	lda	($10),y                 ; 0x2010 <main+0x1aa6>
    2b7b: 7a           	ply
    2b7c: 85 2b        	sta	$2b                     ; 0x202b <main+0x1ac1>
    2b7e: 8a           	txa
    2b7f: 65 2b        	adc	$2b                     ; 0x202b <main+0x1ac1>
    2b81: 84 12        	sty	$12                     ; 0x2012 <main+0x1aa8>
    2b83: 85 13        	sta	$13                     ; 0x2013 <main+0x1aa9>
    2b85: a9 01        	lda	#$1
    2b87: a0 18        	ldy	#$18
    2b89: 91 12        	sta	($12),y                 ; 0x2012 <main+0x1aa8>
    2b8b: a5 25        	lda	$25                     ; 0x2025 <main+0x1abb>
    2b8d: e6 5e        	inc	$5e                     ; 0x205e <main+0x1af4>
    2b8f: f0 03        	beq	$2b94 <main+0x262a>
    2b91: 4c 1d 2c     	jmp	$2c1d <main+0x26b3>
    2b94: e6 5f        	inc	$5f                     ; 0x205f <main+0x1af5>
    2b96: 4c 1d 2c     	jmp	$2c1d <main+0x26b3>
    2b99: e4 16        	cpx	$16                     ; 0x2016 <main+0x1aac>
    2b9b: b0 b4        	bcs	$2b51 <main+0x25e7>
    2b9d: a5 2a        	lda	$2a                     ; 0x202a <main+0x1ac0>
    2b9f: a0 12        	ldy	#$12
    2ba1: 91 10        	sta	($10),y                 ; 0x2010 <main+0x1aa6>
    2ba3: a5 2b        	lda	$2b                     ; 0x202b <main+0x1ac1>
    2ba5: c8           	iny
    2ba6: 91 10        	sta	($10),y                 ; 0x2010 <main+0x1aa6>
    2ba8: a5 25        	lda	$25                     ; 0x2025 <main+0x1abb>
    2baa: 20 8e 55     	jsr	$558e <readDelta>
    2bad: 85 2a        	sta	$2a                     ; 0x202a <main+0x1ac0>
    2baf: 86 2b        	stx	$2b                     ; 0x202b <main+0x1ac1>
    2bb1: a6 12        	ldx	$12                     ; 0x2012 <main+0x1aa8>
    2bb3: 86 2c        	stx	$2c                     ; 0x202c <main+0x1ac2>
    2bb5: a6 13        	ldx	$13                     ; 0x2013 <main+0x1aa9>
    2bb7: 86 2d        	stx	$2d                     ; 0x202d <main+0x1ac3>
    2bb9: a6 60        	ldx	$60                     ; 0x2060 <main+0x1af6>
    2bbb: 86 24        	stx	$24                     ; 0x2024 <main+0x1aba>
    2bbd: a6 61        	ldx	$61                     ; 0x2061 <main+0x1af7>
    2bbf: 86 2e        	stx	$2e                     ; 0x202e <main+0x1ac4>
    2bc1: 64 13        	stz	$13                     ; 0x2013 <main+0x1aa9>
    2bc3: a2 19        	ldx	#$19
    2bc5: 86 12        	stx	$12                     ; 0x2012 <main+0x1aa8>
    2bc7: a2 00        	ldx	#$0
    2bc9: a5 25        	lda	$25                     ; 0x2025 <main+0x1abb>
    2bcb: 20 7c 82     	jsr	$827c <__mulhi3>
    2bce: 85 12        	sta	$12                     ; 0x2012 <main+0x1aa8>
    2bd0: 86 13        	stx	$13                     ; 0x2013 <main+0x1aa9>
    2bd2: 18           	clc
    2bd3: a5 24        	lda	$24                     ; 0x2024 <main+0x1aba>
    2bd5: 65 12        	adc	$12                     ; 0x2012 <main+0x1aa8>
    2bd7: a8           	tay
    2bd8: a5 2e        	lda	$2e                     ; 0x202e <main+0x1ac4>
    2bda: 65 13        	adc	$13                     ; 0x2013 <main+0x1aa9>
    2bdc: aa           	tax
    2bdd: 98           	tya
    2bde: 84 12        	sty	$12                     ; 0x2012 <main+0x1aa8>
    2be0: 86 13        	stx	$13                     ; 0x2013 <main+0x1aa9>
    2be2: 18           	clc
    2be3: 69 0c        	adc	#$c
    2be5: 85 14        	sta	$14                     ; 0x2014 <main+0x1aaa>
    2be7: 8a           	txa
    2be8: 69 00        	adc	#$0
    2bea: 85 15        	sta	$15                     ; 0x2015 <main+0x1aab>
    2bec: a0 0c        	ldy	#$c
    2bee: a5 2a        	lda	$2a                     ; 0x202a <main+0x1ac0>
    2bf0: 91 12        	sta	($12),y                 ; 0x2012 <main+0x1aa8>
    2bf2: a0 01        	ldy	#$1
    2bf4: a5 2b        	lda	$2b                     ; 0x202b <main+0x1ac1>
    2bf6: 91 14        	sta	($14),y                 ; 0x2014 <main+0x1aaa>
    2bf8: c8           	iny
    2bf9: a5 2c        	lda	$2c                     ; 0x202c <main+0x1ac2>
    2bfb: 91 14        	sta	($14),y                 ; 0x2014 <main+0x1aaa>
    2bfd: c8           	iny
    2bfe: a5 2d        	lda	$2d                     ; 0x202d <main+0x1ac3>
    2c00: 91 14        	sta	($14),y                 ; 0x2014 <main+0x1aaa>
    2c02: a5 25        	lda	$25                     ; 0x2025 <main+0x1abb>
    2c04: 20 fe 59     	jsr	$59fe <readMIDICmd>
    2c07: a5 5c        	lda	$5c                     ; 0x205c <main+0x1af2>
    2c09: a6 60        	ldx	$60                     ; 0x2060 <main+0x1af6>
    2c0b: a4 61        	ldy	$61                     ; 0x2061 <main+0x1af7>
    2c0d: 86 2e        	stx	$2e                     ; 0x202e <main+0x1ac4>
    2c0f: 84 2b        	sty	$2b                     ; 0x202b <main+0x1ac1>
    2c11: 64 12        	stz	$12                     ; 0x2012 <main+0x1aa8>
    2c13: 48           	pha
    2c14: a9 00        	lda	#$0
    2c16: a0 14        	ldy	#$14
    2c18: 91 10        	sta	($10),y                 ; 0x2010 <main+0x1aa6>
    2c1a: 68           	pla
    2c1b: 64 2c        	stz	$2c                     ; 0x202c <main+0x1ac2>
    2c1d: a2 19        	ldx	#$19
    2c1f: 86 12        	stx	$12                     ; 0x2012 <main+0x1aa8>
    2c21: 64 13        	stz	$13                     ; 0x2013 <main+0x1aa9>
    2c23: 48           	pha
    2c24: a0 14        	ldy	#$14
    2c26: b1 10        	lda	($10),y                 ; 0x2010 <main+0x1aa6>
    2c28: aa           	tax
    2c29: 68           	pla
    2c2a: a0 10        	ldy	#$10
    2c2c: 91 10        	sta	($10),y                 ; 0x2010 <main+0x1aa6>
    2c2e: 20 7c 82     	jsr	$827c <__mulhi3>
    2c31: 86 12        	stx	$12                     ; 0x2012 <main+0x1aa8>
    2c33: 18           	clc
    2c34: 65 2e        	adc	$2e                     ; 0x202e <main+0x1ac4>
    2c36: a8           	tay
    2c37: a5 2b        	lda	$2b                     ; 0x202b <main+0x1ac1>
    2c39: 65 12        	adc	$12                     ; 0x2012 <main+0x1aa8>
    2c3b: 5a           	phy
    2c3c: fa           	plx
    2c3d: 84 12        	sty	$12                     ; 0x2012 <main+0x1aa8>
    2c3f: 85 14        	sta	$14                     ; 0x2014 <main+0x1aaa>
    2c41: 85 13        	sta	$13                     ; 0x2013 <main+0x1aa9>
    2c43: a0 18        	ldy	#$18
    2c45: b1 12        	lda	($12),y                 ; 0x2012 <main+0x1aa8>
    2c47: a0 00        	ldy	#$0
    2c49: 84 2e        	sty	$2e                     ; 0x202e <main+0x1ac4>
    2c4b: a0 00        	ldy	#$0
    2c4d: 84 2f        	sty	$2f                     ; 0x202f <main+0x1ac5>
    2c4f: a8           	tay
    2c50: d0 03        	bne	$2c55 <main+0x26eb>
    2c52: 4c 17 2d     	jmp	$2d17 <main+0x27ad>
    2c55: 64 57        	stz	$57                     ; 0x2057 <main+0x1aed>
    2c57: a2 63        	ldx	#$63
    2c59: 86 24        	stx	$24                     ; 0x2024 <main+0x1aba>
    2c5b: a2 00        	ldx	#$0
    2c5d: 86 25        	stx	$25                     ; 0x2025 <main+0x1abb>
    2c5f: a0 12        	ldy	#$12
    2c61: b1 10        	lda	($10),y                 ; 0x2010 <main+0x1aa6>
    2c63: 85 2a        	sta	$2a                     ; 0x202a <main+0x1ac0>
    2c65: c8           	iny
    2c66: b1 10        	lda	($10),y                 ; 0x2010 <main+0x1aa6>
    2c68: 85 2b        	sta	$2b                     ; 0x202b <main+0x1ac1>
    2c6a: 4c 6f 25     	jmp	$256f <main+0x2005>
    2c6d: a0 14        	ldy	#$14
    2c6f: b1 10        	lda	($10),y                 ; 0x2010 <main+0x1aa6>
    2c71: 85 24        	sta	$24                     ; 0x2024 <main+0x1aba>
    2c73: a0 10        	ldy	#$10
    2c75: b1 10        	lda	($10),y                 ; 0x2010 <main+0x1aa6>
    2c77: 85 2a        	sta	$2a                     ; 0x202a <main+0x1ac0>
    2c79: 20 8e 55     	jsr	$558e <readDelta>
    2c7c: 85 25        	sta	$25                     ; 0x2025 <main+0x1abb>
    2c7e: 86 2c        	stx	$2c                     ; 0x202c <main+0x1ac2>
    2c80: a5 12        	lda	$12                     ; 0x2012 <main+0x1aa8>
    2c82: a0 0e        	ldy	#$e
    2c84: 91 10        	sta	($10),y                 ; 0x2010 <main+0x1aa6>
    2c86: a5 13        	lda	$13                     ; 0x2013 <main+0x1aa9>
    2c88: c8           	iny
    2c89: 91 10        	sta	($10),y                 ; 0x2010 <main+0x1aa6>
    2c8b: a6 60        	ldx	$60                     ; 0x2060 <main+0x1af6>
    2c8d: 86 28        	stx	$28                     ; 0x2028 <main+0x1abe>
    2c8f: a6 61        	ldx	$61                     ; 0x2061 <main+0x1af7>
    2c91: 86 2b        	stx	$2b                     ; 0x202b <main+0x1ac1>
    2c93: a2 19        	ldx	#$19
    2c95: 86 12        	stx	$12                     ; 0x2012 <main+0x1aa8>
    2c97: 64 2d        	stz	$2d                     ; 0x202d <main+0x1ac3>
    2c99: 64 13        	stz	$13                     ; 0x2013 <main+0x1aa9>
    2c9b: a6 24        	ldx	$24                     ; 0x2024 <main+0x1aba>
    2c9d: a5 2a        	lda	$2a                     ; 0x202a <main+0x1ac0>
    2c9f: 20 7c 82     	jsr	$827c <__mulhi3>
    2ca2: 85 12        	sta	$12                     ; 0x2012 <main+0x1aa8>
    2ca4: 86 13        	stx	$13                     ; 0x2013 <main+0x1aa9>
    2ca6: 18           	clc
    2ca7: a5 28        	lda	$28                     ; 0x2028 <main+0x1abe>
    2ca9: 65 12        	adc	$12                     ; 0x2012 <main+0x1aa8>
    2cab: a8           	tay
    2cac: a5 2b        	lda	$2b                     ; 0x202b <main+0x1ac1>
    2cae: 65 13        	adc	$13                     ; 0x2013 <main+0x1aa9>
    2cb0: aa           	tax
    2cb1: 98           	tya
    2cb2: 84 12        	sty	$12                     ; 0x2012 <main+0x1aa8>
    2cb4: 86 13        	stx	$13                     ; 0x2013 <main+0x1aa9>
    2cb6: 18           	clc
    2cb7: 69 0c        	adc	#$c
    2cb9: 85 14        	sta	$14                     ; 0x2014 <main+0x1aaa>
    2cbb: 8a           	txa
    2cbc: 69 00        	adc	#$0
    2cbe: 85 15        	sta	$15                     ; 0x2015 <main+0x1aab>
    2cc0: a0 0c        	ldy	#$c
    2cc2: a5 25        	lda	$25                     ; 0x2025 <main+0x1abb>
    2cc4: 91 12        	sta	($12),y                 ; 0x2012 <main+0x1aa8>
    2cc6: a0 01        	ldy	#$1
    2cc8: a5 2c        	lda	$2c                     ; 0x202c <main+0x1ac2>
    2cca: 91 14        	sta	($14),y                 ; 0x2014 <main+0x1aaa>
    2ccc: c8           	iny
    2ccd: 5a           	phy
    2cce: a0 0e        	ldy	#$e
    2cd0: b1 10        	lda	($10),y                 ; 0x2010 <main+0x1aa6>
    2cd2: 7a           	ply
    2cd3: 91 14        	sta	($14),y                 ; 0x2014 <main+0x1aaa>
    2cd5: a0 03        	ldy	#$3
    2cd7: 5a           	phy
    2cd8: a0 0f        	ldy	#$f
    2cda: b1 10        	lda	($10),y                 ; 0x2010 <main+0x1aa6>
    2cdc: 7a           	ply
    2cdd: 91 14        	sta	($14),y                 ; 0x2014 <main+0x1aaa>
    2cdf: a5 2a        	lda	$2a                     ; 0x202a <main+0x1ac0>
    2ce1: 20 fe 59     	jsr	$59fe <readMIDICmd>
    2ce4: a6 60        	ldx	$60                     ; 0x2060 <main+0x1af6>
    2ce6: a4 61        	ldy	$61                     ; 0x2061 <main+0x1af7>
    2ce8: 86 2c        	stx	$2c                     ; 0x202c <main+0x1ac2>
    2cea: 84 25        	sty	$25                     ; 0x2025 <main+0x1abb>
    2cec: a2 19        	ldx	#$19
    2cee: 86 12        	stx	$12                     ; 0x2012 <main+0x1aa8>
    2cf0: 64 13        	stz	$13                     ; 0x2013 <main+0x1aa9>
    2cf2: a0 14        	ldy	#$14
    2cf4: b1 10        	lda	($10),y                 ; 0x2010 <main+0x1aa6>
    2cf6: aa           	tax
    2cf7: a5 2a        	lda	$2a                     ; 0x202a <main+0x1ac0>
    2cf9: 20 7c 82     	jsr	$827c <__mulhi3>
    2cfc: 86 12        	stx	$12                     ; 0x2012 <main+0x1aa8>
    2cfe: 18           	clc
    2cff: 65 2c        	adc	$2c                     ; 0x202c <main+0x1ac2>
    2d01: a8           	tay
    2d02: a5 25        	lda	$25                     ; 0x2025 <main+0x1abb>
    2d04: 65 12        	adc	$12                     ; 0x2012 <main+0x1aa8>
    2d06: 5a           	phy
    2d07: fa           	plx
    2d08: 84 12        	sty	$12                     ; 0x2012 <main+0x1aa8>
    2d0a: 85 14        	sta	$14                     ; 0x2014 <main+0x1aaa>
    2d0c: 85 13        	sta	$13                     ; 0x2013 <main+0x1aa9>
    2d0e: a0 18        	ldy	#$18
    2d10: b1 12        	lda	($12),y                 ; 0x2012 <main+0x1aa8>
    2d12: f0 03        	beq	$2d17 <main+0x27ad>
    2d14: 4c 55 2c     	jmp	$2c55 <main+0x26eb>
    2d17: 18           	clc
    2d18: 8a           	txa
    2d19: 69 0c        	adc	#$c
    2d1b: aa           	tax
    2d1c: a5 14        	lda	$14                     ; 0x2014 <main+0x1aaa>
    2d1e: 69 00        	adc	#$0
    2d20: 86 14        	stx	$14                     ; 0x2014 <main+0x1aaa>
    2d22: 85 15        	sta	$15                     ; 0x2015 <main+0x1aab>
    2d24: a0 0c        	ldy	#$c
    2d26: b1 12        	lda	($12),y                 ; 0x2012 <main+0x1aa8>
    2d28: 85 12        	sta	$12                     ; 0x2012 <main+0x1aa8>
    2d2a: a0 01        	ldy	#$1
    2d2c: b1 14        	lda	($14),y                 ; 0x2014 <main+0x1aaa>
    2d2e: 85 13        	sta	$13                     ; 0x2013 <main+0x1aa9>
    2d30: c8           	iny
    2d31: b1 14        	lda	($14),y                 ; 0x2014 <main+0x1aaa>
    2d33: 85 16        	sta	$16                     ; 0x2016 <main+0x1aac>
    2d35: c8           	iny
    2d36: b1 14        	lda	($14),y                 ; 0x2014 <main+0x1aaa>
    2d38: f0 03        	beq	$2d3d <main+0x27d3>
    2d3a: 4c 55 2c     	jmp	$2c55 <main+0x26eb>
    2d3d: a5 16        	lda	$16                     ; 0x2016 <main+0x1aac>
    2d3f: f0 03        	beq	$2d44 <main+0x27da>
    2d41: 4c 55 2c     	jmp	$2c55 <main+0x26eb>
    2d44: a5 13        	lda	$13                     ; 0x2013 <main+0x1aa9>
    2d46: f0 03        	beq	$2d4b <main+0x27e1>
    2d48: 4c 55 2c     	jmp	$2c55 <main+0x26eb>
    2d4b: a5 12        	lda	$12                     ; 0x2012 <main+0x1aa8>
    2d4d: f0 03        	beq	$2d52 <main+0x27e8>
    2d4f: 4c 55 2c     	jmp	$2c55 <main+0x26eb>
    2d52: a0 10        	ldy	#$10
    2d54: b1 10        	lda	($10),y                 ; 0x2010 <main+0x1aa6>
    2d56: 85 25        	sta	$25                     ; 0x2025 <main+0x1abb>
    2d58: 20 32 62     	jsr	$6232 <performMIDICmd>
    2d5b: a6 60        	ldx	$60                     ; 0x2060 <main+0x1af6>
    2d5d: 86 28        	stx	$28                     ; 0x2028 <main+0x1abe>
    2d5f: a6 61        	ldx	$61                     ; 0x2061 <main+0x1af7>
    2d61: 86 24        	stx	$24                     ; 0x2024 <main+0x1aba>
    2d63: a2 19        	ldx	#$19
    2d65: 86 12        	stx	$12                     ; 0x2012 <main+0x1aa8>
    2d67: 64 13        	stz	$13                     ; 0x2013 <main+0x1aa9>
    2d69: a0 14        	ldy	#$14
    2d6b: b1 10        	lda	($10),y                 ; 0x2010 <main+0x1aa6>
    2d6d: aa           	tax
    2d6e: a5 25        	lda	$25                     ; 0x2025 <main+0x1abb>
    2d70: 20 7c 82     	jsr	$827c <__mulhi3>
    2d73: 85 12        	sta	$12                     ; 0x2012 <main+0x1aa8>
    2d75: 86 13        	stx	$13                     ; 0x2013 <main+0x1aa9>
    2d77: a6 28        	ldx	$28                     ; 0x2028 <main+0x1abe>
    2d79: 86 17        	stx	$17                     ; 0x2017 <main+0x1aad>
    2d7b: a5 28        	lda	$28                     ; 0x2028 <main+0x1abe>
    2d7d: 18           	clc
    2d7e: 65 12        	adc	$12                     ; 0x2012 <main+0x1aa8>
    2d80: aa           	tax
    2d81: a5 24        	lda	$24                     ; 0x2024 <main+0x1aba>
    2d83: 65 13        	adc	$13                     ; 0x2013 <main+0x1aa9>
    2d85: 86 12        	stx	$12                     ; 0x2012 <main+0x1aa8>
    2d87: 85 13        	sta	$13                     ; 0x2013 <main+0x1aa9>
    2d89: a8           	tay
    2d8a: 18           	clc
    2d8b: 8a           	txa
    2d8c: 69 04        	adc	#$4
    2d8e: 85 14        	sta	$14                     ; 0x2014 <main+0x1aaa>
    2d90: 98           	tya
    2d91: 69 00        	adc	#$0
    2d93: 85 15        	sta	$15                     ; 0x2015 <main+0x1aab>
    2d95: a0 03        	ldy	#$3
    2d97: b1 14        	lda	($14),y                 ; 0x2014 <main+0x1aaa>
    2d99: d1 12        	cmp	($12),y                 ; 0x2012 <main+0x1aa8>
    2d9b: d0 2d        	bne	$2dca <main+0x2860>
    2d9d: a0 02        	ldy	#$2
    2d9f: b1 14        	lda	($14),y                 ; 0x2014 <main+0x1aaa>
    2da1: aa           	tax
    2da2: b1 12        	lda	($12),y                 ; 0x2012 <main+0x1aa8>
    2da4: 85 16        	sta	$16                     ; 0x2016 <main+0x1aac>
    2da6: e4 16        	cpx	$16                     ; 0x2016 <main+0x1aac>
    2da8: d0 27        	bne	$2dd1 <main+0x2867>
    2daa: a0 01        	ldy	#$1
    2dac: b1 14        	lda	($14),y                 ; 0x2014 <main+0x1aaa>
    2dae: aa           	tax
    2daf: b1 12        	lda	($12),y                 ; 0x2012 <main+0x1aa8>
    2db1: 85 14        	sta	$14                     ; 0x2014 <main+0x1aaa>
    2db3: e4 14        	cpx	$14                     ; 0x2014 <main+0x1aaa>
    2db5: d0 21        	bne	$2dd8 <main+0x286e>
    2db7: a0 04        	ldy	#$4
    2db9: b1 12        	lda	($12),y                 ; 0x2012 <main+0x1aa8>
    2dbb: 85 14        	sta	$14                     ; 0x2014 <main+0x1aaa>
    2dbd: b2 12        	lda	($12)                   ; 0x2012 <main+0x1aa8>
    2dbf: 85 12        	sta	$12                     ; 0x2012 <main+0x1aa8>
    2dc1: a6 14        	ldx	$14                     ; 0x2014 <main+0x1aaa>
    2dc3: e4 12        	cpx	$12                     ; 0x2012 <main+0x1aa8>
    2dc5: b0 18        	bcs	$2ddf <main+0x2875>
    2dc7: 4c 6d 2c     	jmp	$2c6d <main+0x2703>
    2dca: d1 12        	cmp	($12),y                 ; 0x2012 <main+0x1aa8>
    2dcc: b0 11        	bcs	$2ddf <main+0x2875>
    2dce: 4c 6d 2c     	jmp	$2c6d <main+0x2703>
    2dd1: e4 16        	cpx	$16                     ; 0x2016 <main+0x1aac>
    2dd3: b0 0a        	bcs	$2ddf <main+0x2875>
    2dd5: 4c 6d 2c     	jmp	$2c6d <main+0x2703>
    2dd8: e4 14        	cpx	$14                     ; 0x2014 <main+0x1aaa>
    2dda: b0 03        	bcs	$2ddf <main+0x2875>
    2ddc: 4c 6d 2c     	jmp	$2c6d <main+0x2703>
    2ddf: a6 17        	ldx	$17                     ; 0x2017 <main+0x1aad>
    2de1: 86 2c        	stx	$2c                     ; 0x202c <main+0x1ac2>
    2de3: 86 2b        	stx	$2b                     ; 0x202b <main+0x1ac1>
    2de5: a6 24        	ldx	$24                     ; 0x2024 <main+0x1aba>
    2de7: 86 25        	stx	$25                     ; 0x2025 <main+0x1abb>
    2de9: a2 19        	ldx	#$19
    2deb: 86 12        	stx	$12                     ; 0x2012 <main+0x1aa8>
    2ded: 64 2d        	stz	$2d                     ; 0x202d <main+0x1ac3>
    2def: 64 13        	stz	$13                     ; 0x2013 <main+0x1aa9>
    2df1: a0 14        	ldy	#$14
    2df3: b1 10        	lda	($10),y                 ; 0x2010 <main+0x1aa6>
    2df5: aa           	tax
    2df6: a0 10        	ldy	#$10
    2df8: b1 10        	lda	($10),y                 ; 0x2010 <main+0x1aa6>
    2dfa: 85 2a        	sta	$2a                     ; 0x202a <main+0x1ac0>
    2dfc: 20 7c 82     	jsr	$827c <__mulhi3>
    2dff: 85 12        	sta	$12                     ; 0x2012 <main+0x1aa8>
    2e01: 86 13        	stx	$13                     ; 0x2013 <main+0x1aa9>
    2e03: 18           	clc
    2e04: a5 2b        	lda	$2b                     ; 0x202b <main+0x1ac1>
    2e06: 65 12        	adc	$12                     ; 0x2012 <main+0x1aa8>
    2e08: 85 12        	sta	$12                     ; 0x2012 <main+0x1aa8>
    2e0a: a5 24        	lda	$24                     ; 0x2024 <main+0x1aba>
    2e0c: 65 13        	adc	$13                     ; 0x2013 <main+0x1aa9>
    2e0e: 85 13        	sta	$13                     ; 0x2013 <main+0x1aa9>
    2e10: a9 01        	lda	#$1
    2e12: a0 18        	ldy	#$18
    2e14: 91 12        	sta	($12),y                 ; 0x2012 <main+0x1aa8>
    2e16: e6 5e        	inc	$5e                     ; 0x205e <main+0x1af4>
    2e18: f0 03        	beq	$2e1d <main+0x28b3>
    2e1a: 4c ec 2c     	jmp	$2cec <main+0x2782>
    2e1d: e6 5f        	inc	$5f                     ; 0x205f <main+0x1af5>
    2e1f: 4c ec 2c     	jmp	$2cec <main+0x2782>
    2e22: a2 19        	ldx	#$19
    2e24: 4c bb 29     	jmp	$29bb <main+0x2451>
    2e27: e4 14        	cpx	$14                     ; 0x2014 <main+0x1aaa>
    2e29: 90 03        	bcc	$2e2e <main+0x28c4>
    2e2b: 4c 51 2b     	jmp	$2b51 <main+0x25e7>
    2e2e: 4c 9d 2b     	jmp	$2b9d <main+0x2633>
    2e31: a6 19        	ldx	$19                     ; 0x2019 <main+0x1aaf>
    2e33: e4 13        	cpx	$13                     ; 0x2013 <main+0x1aa9>
    2e35: f0 03        	beq	$2e3a <main+0x28d0>
    2e37: 4c 92 29     	jmp	$2992 <main+0x2428>
    2e3a: a6 18        	ldx	$18                     ; 0x2018 <main+0x1aae>
    2e3c: e4 12        	cpx	$12                     ; 0x2012 <main+0x1aa8>
    2e3e: f0 03        	beq	$2e43 <main+0x28d9>
    2e40: 4c 92 29     	jmp	$2992 <main+0x2428>
    2e43: a2 19        	ldx	#$19
    2e45: a0 14        	ldy	#$14
    2e47: b1 10        	lda	($10),y                 ; 0x2010 <main+0x1aa6>
    2e49: 86 12        	stx	$12                     ; 0x2012 <main+0x1aa8>
    2e4b: 64 13        	stz	$13                     ; 0x2013 <main+0x1aa9>
    2e4d: a2 00        	ldx	#$0
    2e4f: 20 7c 82     	jsr	$827c <__mulhi3>
    2e52: 18           	clc
    2e53: 65 2c        	adc	$2c                     ; 0x202c <main+0x1ac2>
    2e55: 85 16        	sta	$16                     ; 0x2016 <main+0x1aac>
    2e57: a0 10        	ldy	#$10
    2e59: b1 10        	lda	($10),y                 ; 0x2010 <main+0x1aa6>
    2e5b: c8           	iny
    2e5c: b1 10        	lda	($10),y                 ; 0x2010 <main+0x1aa6>
    2e5e: 85 13        	sta	$13                     ; 0x2013 <main+0x1aa9>
    2e60: 8a           	txa
    2e61: 65 13        	adc	$13                     ; 0x2013 <main+0x1aa9>
    2e63: a6 16        	ldx	$16                     ; 0x2016 <main+0x1aac>
    2e65: 86 12        	stx	$12                     ; 0x2012 <main+0x1aa8>
    2e67: 85 14        	sta	$14                     ; 0x2014 <main+0x1aaa>
    2e69: 85 13        	sta	$13                     ; 0x2013 <main+0x1aa9>
    2e6b: a0 18        	ldy	#$18
    2e6d: b1 12        	lda	($12),y                 ; 0x2012 <main+0x1aa8>
    2e6f: f0 08        	beq	$2e79 <main+0x290f>
    2e71: a0 0f        	ldy	#$f
    2e73: b1 10        	lda	($10),y                 ; 0x2010 <main+0x1aa6>
    2e75: a8           	tay
    2e76: 4c 92 29     	jmp	$2992 <main+0x2428>
    2e79: 18           	clc
    2e7a: a5 16        	lda	$16                     ; 0x2016 <main+0x1aac>
    2e7c: 69 0c        	adc	#$c
    2e7e: aa           	tax
    2e7f: a5 14        	lda	$14                     ; 0x2014 <main+0x1aaa>
    2e81: 69 00        	adc	#$0
    2e83: 86 14        	stx	$14                     ; 0x2014 <main+0x1aaa>
    2e85: 85 15        	sta	$15                     ; 0x2015 <main+0x1aab>
    2e87: a0 0c        	ldy	#$c
    2e89: b1 12        	lda	($12),y                 ; 0x2012 <main+0x1aa8>
    2e8b: 85 16        	sta	$16                     ; 0x2016 <main+0x1aac>
    2e8d: a0 01        	ldy	#$1
    2e8f: b1 14        	lda	($14),y                 ; 0x2014 <main+0x1aaa>
    2e91: 85 17        	sta	$17                     ; 0x2017 <main+0x1aad>
    2e93: c8           	iny
    2e94: b1 14        	lda	($14),y                 ; 0x2014 <main+0x1aaa>
    2e96: 85 18        	sta	$18                     ; 0x2018 <main+0x1aae>
    2e98: c8           	iny
    2e99: b1 14        	lda	($14),y                 ; 0x2014 <main+0x1aaa>
    2e9b: 48           	pha
    2e9c: a0 0f        	ldy	#$f
    2e9e: b1 10        	lda	($10),y                 ; 0x2010 <main+0x1aa6>
    2ea0: a8           	tay
    2ea1: 68           	pla
    2ea2: f0 03        	beq	$2ea7 <main+0x293d>
    2ea4: 4c 92 29     	jmp	$2992 <main+0x2428>
    2ea7: a5 18        	lda	$18                     ; 0x2018 <main+0x1aae>
    2ea9: f0 03        	beq	$2eae <main+0x2944>
    2eab: 4c 92 29     	jmp	$2992 <main+0x2428>
    2eae: a5 17        	lda	$17                     ; 0x2017 <main+0x1aad>
    2eb0: f0 03        	beq	$2eb5 <main+0x294b>
    2eb2: 4c 92 29     	jmp	$2992 <main+0x2428>
    2eb5: a5 16        	lda	$16                     ; 0x2016 <main+0x1aac>
    2eb7: f0 03        	beq	$2ebc <main+0x2952>
    2eb9: 4c 92 29     	jmp	$2992 <main+0x2428>
    2ebc: a0 14        	ldy	#$14
    2ebe: b1 10        	lda	($10),y                 ; 0x2010 <main+0x1aa6>
    2ec0: 85 24        	sta	$24                     ; 0x2024 <main+0x1aba>
    2ec2: 20 32 62     	jsr	$6232 <performMIDICmd>
    2ec5: a6 60        	ldx	$60                     ; 0x2060 <main+0x1af6>
    2ec7: 86 28        	stx	$28                     ; 0x2028 <main+0x1abe>
    2ec9: a6 61        	ldx	$61                     ; 0x2061 <main+0x1af7>
    2ecb: 86 25        	stx	$25                     ; 0x2025 <main+0x1abb>
    2ecd: a2 19        	ldx	#$19
    2ecf: 86 12        	stx	$12                     ; 0x2012 <main+0x1aa8>
    2ed1: 64 13        	stz	$13                     ; 0x2013 <main+0x1aa9>
    2ed3: a2 00        	ldx	#$0
    2ed5: a5 24        	lda	$24                     ; 0x2024 <main+0x1aba>
    2ed7: 20 7c 82     	jsr	$827c <__mulhi3>
    2eda: 85 12        	sta	$12                     ; 0x2012 <main+0x1aa8>
    2edc: 86 13        	stx	$13                     ; 0x2013 <main+0x1aa9>
    2ede: a6 28        	ldx	$28                     ; 0x2028 <main+0x1abe>
    2ee0: 86 17        	stx	$17                     ; 0x2017 <main+0x1aad>
    2ee2: a5 28        	lda	$28                     ; 0x2028 <main+0x1abe>
    2ee4: 18           	clc
    2ee5: 65 12        	adc	$12                     ; 0x2012 <main+0x1aa8>
    2ee7: aa           	tax
    2ee8: a5 25        	lda	$25                     ; 0x2025 <main+0x1abb>
    2eea: 85 18        	sta	$18                     ; 0x2018 <main+0x1aae>
    2eec: 65 13        	adc	$13                     ; 0x2013 <main+0x1aa9>
    2eee: 86 12        	stx	$12                     ; 0x2012 <main+0x1aa8>
    2ef0: 85 13        	sta	$13                     ; 0x2013 <main+0x1aa9>
    2ef2: a8           	tay
    2ef3: 18           	clc
    2ef4: 8a           	txa
    2ef5: 69 04        	adc	#$4
    2ef7: 85 14        	sta	$14                     ; 0x2014 <main+0x1aaa>
    2ef9: 98           	tya
    2efa: 69 00        	adc	#$0
    2efc: 85 15        	sta	$15                     ; 0x2015 <main+0x1aab>
    2efe: a0 03        	ldy	#$3
    2f00: b1 14        	lda	($14),y                 ; 0x2014 <main+0x1aaa>
    2f02: d1 12        	cmp	($12),y                 ; 0x2012 <main+0x1aa8>
    2f04: d0 32        	bne	$2f38 <main+0x29ce>
    2f06: a0 02        	ldy	#$2
    2f08: b1 14        	lda	($14),y                 ; 0x2014 <main+0x1aaa>
    2f0a: aa           	tax
    2f0b: b1 12        	lda	($12),y                 ; 0x2012 <main+0x1aa8>
    2f0d: 85 16        	sta	$16                     ; 0x2016 <main+0x1aac>
    2f0f: e4 16        	cpx	$16                     ; 0x2016 <main+0x1aac>
    2f11: f0 03        	beq	$2f16 <main+0x29ac>
    2f13: 4c 7e 2f     	jmp	$2f7e <main+0x2a14>
    2f16: a0 01        	ldy	#$1
    2f18: b1 14        	lda	($14),y                 ; 0x2014 <main+0x1aaa>
    2f1a: aa           	tax
    2f1b: b1 12        	lda	($12),y                 ; 0x2012 <main+0x1aa8>
    2f1d: 85 14        	sta	$14                     ; 0x2014 <main+0x1aaa>
    2f1f: e4 14        	cpx	$14                     ; 0x2014 <main+0x1aaa>
    2f21: f0 03        	beq	$2f26 <main+0x29bc>
    2f23: 4c 56 30     	jmp	$3056 <main+0x2aec>
    2f26: a0 04        	ldy	#$4
    2f28: b1 12        	lda	($12),y                 ; 0x2012 <main+0x1aa8>
    2f2a: 85 14        	sta	$14                     ; 0x2014 <main+0x1aaa>
    2f2c: b2 12        	lda	($12)                   ; 0x2012 <main+0x1aa8>
    2f2e: 85 12        	sta	$12                     ; 0x2012 <main+0x1aa8>
    2f30: a6 14        	ldx	$14                     ; 0x2014 <main+0x1aaa>
    2f32: e4 12        	cpx	$12                     ; 0x2012 <main+0x1aa8>
    2f34: b0 06        	bcs	$2f3c <main+0x29d2>
    2f36: 80 4a        	bra	$2f82 <main+0x2a18>
    2f38: d1 12        	cmp	($12),y                 ; 0x2012 <main+0x1aa8>
    2f3a: 90 46        	bcc	$2f82 <main+0x2a18>
    2f3c: a6 17        	ldx	$17                     ; 0x2017 <main+0x1aad>
    2f3e: 86 2c        	stx	$2c                     ; 0x202c <main+0x1ac2>
    2f40: 86 2e        	stx	$2e                     ; 0x202e <main+0x1ac4>
    2f42: a6 18        	ldx	$18                     ; 0x2018 <main+0x1aae>
    2f44: 86 2d        	stx	$2d                     ; 0x202d <main+0x1ac3>
    2f46: 86 2f        	stx	$2f                     ; 0x202f <main+0x1ac5>
    2f48: a2 19        	ldx	#$19
    2f4a: 86 12        	stx	$12                     ; 0x2012 <main+0x1aa8>
    2f4c: 64 24        	stz	$24                     ; 0x2024 <main+0x1aba>
    2f4e: 64 13        	stz	$13                     ; 0x2013 <main+0x1aa9>
    2f50: a2 00        	ldx	#$0
    2f52: a0 14        	ldy	#$14
    2f54: b1 10        	lda	($10),y                 ; 0x2010 <main+0x1aa6>
    2f56: 85 25        	sta	$25                     ; 0x2025 <main+0x1abb>
    2f58: 20 7c 82     	jsr	$827c <__mulhi3>
    2f5b: 85 12        	sta	$12                     ; 0x2012 <main+0x1aa8>
    2f5d: 86 13        	stx	$13                     ; 0x2013 <main+0x1aa9>
    2f5f: 18           	clc
    2f60: a5 2e        	lda	$2e                     ; 0x202e <main+0x1ac4>
    2f62: 65 12        	adc	$12                     ; 0x2012 <main+0x1aa8>
    2f64: 85 12        	sta	$12                     ; 0x2012 <main+0x1aa8>
    2f66: a5 2f        	lda	$2f                     ; 0x202f <main+0x1ac5>
    2f68: 65 13        	adc	$13                     ; 0x2013 <main+0x1aa9>
    2f6a: 85 13        	sta	$13                     ; 0x2013 <main+0x1aa9>
    2f6c: a9 01        	lda	#$1
    2f6e: a0 18        	ldy	#$18
    2f70: 91 12        	sta	($12),y                 ; 0x2012 <main+0x1aa8>
    2f72: e6 5e        	inc	$5e                     ; 0x205e <main+0x1af4>
    2f74: f0 03        	beq	$2f79 <main+0x2a0f>
    2f76: 4c f5 2f     	jmp	$2ff5 <main+0x2a8b>
    2f79: e6 5f        	inc	$5f                     ; 0x205f <main+0x1af5>
    2f7b: 4c f5 2f     	jmp	$2ff5 <main+0x2a8b>
    2f7e: e4 16        	cpx	$16                     ; 0x2016 <main+0x1aac>
    2f80: b0 ba        	bcs	$2f3c <main+0x29d2>
    2f82: a0 14        	ldy	#$14
    2f84: b1 10        	lda	($10),y                 ; 0x2010 <main+0x1aa6>
    2f86: 85 25        	sta	$25                     ; 0x2025 <main+0x1abb>
    2f88: 20 8e 55     	jsr	$558e <readDelta>
    2f8b: 85 2c        	sta	$2c                     ; 0x202c <main+0x1ac2>
    2f8d: 86 2d        	stx	$2d                     ; 0x202d <main+0x1ac3>
    2f8f: a6 12        	ldx	$12                     ; 0x2012 <main+0x1aa8>
    2f91: 86 2e        	stx	$2e                     ; 0x202e <main+0x1ac4>
    2f93: a5 13        	lda	$13                     ; 0x2013 <main+0x1aa9>
    2f95: a0 12        	ldy	#$12
    2f97: 91 10        	sta	($10),y                 ; 0x2010 <main+0x1aa6>
    2f99: a6 60        	ldx	$60                     ; 0x2060 <main+0x1af6>
    2f9b: 86 28        	stx	$28                     ; 0x2028 <main+0x1abe>
    2f9d: a6 61        	ldx	$61                     ; 0x2061 <main+0x1af7>
    2f9f: 86 2f        	stx	$2f                     ; 0x202f <main+0x1ac5>
    2fa1: a2 19        	ldx	#$19
    2fa3: 86 12        	stx	$12                     ; 0x2012 <main+0x1aa8>
    2fa5: 64 24        	stz	$24                     ; 0x2024 <main+0x1aba>
    2fa7: 64 13        	stz	$13                     ; 0x2013 <main+0x1aa9>
    2fa9: a2 00        	ldx	#$0
    2fab: a5 25        	lda	$25                     ; 0x2025 <main+0x1abb>
    2fad: 20 7c 82     	jsr	$827c <__mulhi3>
    2fb0: 85 12        	sta	$12                     ; 0x2012 <main+0x1aa8>
    2fb2: 86 13        	stx	$13                     ; 0x2013 <main+0x1aa9>
    2fb4: 18           	clc
    2fb5: a5 28        	lda	$28                     ; 0x2028 <main+0x1abe>
    2fb7: 65 12        	adc	$12                     ; 0x2012 <main+0x1aa8>
    2fb9: a8           	tay
    2fba: a5 2f        	lda	$2f                     ; 0x202f <main+0x1ac5>
    2fbc: 65 13        	adc	$13                     ; 0x2013 <main+0x1aa9>
    2fbe: aa           	tax
    2fbf: 98           	tya
    2fc0: 84 12        	sty	$12                     ; 0x2012 <main+0x1aa8>
    2fc2: 86 13        	stx	$13                     ; 0x2013 <main+0x1aa9>
    2fc4: 18           	clc
    2fc5: 69 0c        	adc	#$c
    2fc7: 85 14        	sta	$14                     ; 0x2014 <main+0x1aaa>
    2fc9: 8a           	txa
    2fca: 69 00        	adc	#$0
    2fcc: 85 15        	sta	$15                     ; 0x2015 <main+0x1aab>
    2fce: a0 0c        	ldy	#$c
    2fd0: a5 2c        	lda	$2c                     ; 0x202c <main+0x1ac2>
    2fd2: 91 12        	sta	($12),y                 ; 0x2012 <main+0x1aa8>
    2fd4: a0 01        	ldy	#$1
    2fd6: a5 2d        	lda	$2d                     ; 0x202d <main+0x1ac3>
    2fd8: 91 14        	sta	($14),y                 ; 0x2014 <main+0x1aaa>
    2fda: c8           	iny
    2fdb: a5 2e        	lda	$2e                     ; 0x202e <main+0x1ac4>
    2fdd: 91 14        	sta	($14),y                 ; 0x2014 <main+0x1aaa>
    2fdf: c8           	iny
    2fe0: 5a           	phy
    2fe1: a0 12        	ldy	#$12
    2fe3: b1 10        	lda	($10),y                 ; 0x2010 <main+0x1aa6>
    2fe5: 7a           	ply
    2fe6: 91 14        	sta	($14),y                 ; 0x2014 <main+0x1aaa>
    2fe8: a5 25        	lda	$25                     ; 0x2025 <main+0x1abb>
    2fea: 20 fe 59     	jsr	$59fe <readMIDICmd>
    2fed: a6 60        	ldx	$60                     ; 0x2060 <main+0x1af6>
    2fef: a4 61        	ldy	$61                     ; 0x2061 <main+0x1af7>
    2ff1: 86 2c        	stx	$2c                     ; 0x202c <main+0x1ac2>
    2ff3: 84 2d        	sty	$2d                     ; 0x202d <main+0x1ac3>
    2ff5: a2 19        	ldx	#$19
    2ff7: 86 12        	stx	$12                     ; 0x2012 <main+0x1aa8>
    2ff9: 64 13        	stz	$13                     ; 0x2013 <main+0x1aa9>
    2ffb: a2 00        	ldx	#$0
    2ffd: a5 25        	lda	$25                     ; 0x2025 <main+0x1abb>
    2fff: 20 7c 82     	jsr	$827c <__mulhi3>
    3002: 18           	clc
    3003: 65 2c        	adc	$2c                     ; 0x202c <main+0x1ac2>
    3005: 85 12        	sta	$12                     ; 0x2012 <main+0x1aa8>
    3007: a4 2d        	ldy	$2d                     ; 0x202d <main+0x1ac3>
    3009: 84 13        	sty	$13                     ; 0x2013 <main+0x1aa9>
    300b: a5 12        	lda	$12                     ; 0x2012 <main+0x1aa8>
    300d: a0 10        	ldy	#$10
    300f: 91 10        	sta	($10),y                 ; 0x2010 <main+0x1aa6>
    3011: a5 13        	lda	$13                     ; 0x2013 <main+0x1aa9>
    3013: c8           	iny
    3014: 91 10        	sta	($10),y                 ; 0x2010 <main+0x1aa6>
    3016: 8a           	txa
    3017: 65 2d        	adc	$2d                     ; 0x202d <main+0x1ac3>
    3019: 85 14        	sta	$14                     ; 0x2014 <main+0x1aaa>
    301b: 85 13        	sta	$13                     ; 0x2013 <main+0x1aa9>
    301d: a0 18        	ldy	#$18
    301f: b1 12        	lda	($12),y                 ; 0x2012 <main+0x1aa8>
    3021: d0 3d        	bne	$3060 <main+0x2af6>
    3023: 18           	clc
    3024: a5 12        	lda	$12                     ; 0x2012 <main+0x1aa8>
    3026: 69 0c        	adc	#$c
    3028: aa           	tax
    3029: a5 14        	lda	$14                     ; 0x2014 <main+0x1aaa>
    302b: 69 00        	adc	#$0
    302d: 86 14        	stx	$14                     ; 0x2014 <main+0x1aaa>
    302f: 85 15        	sta	$15                     ; 0x2015 <main+0x1aab>
    3031: a0 0c        	ldy	#$c
    3033: b1 12        	lda	($12),y                 ; 0x2012 <main+0x1aa8>
    3035: 85 12        	sta	$12                     ; 0x2012 <main+0x1aa8>
    3037: a0 01        	ldy	#$1
    3039: b1 14        	lda	($14),y                 ; 0x2014 <main+0x1aaa>
    303b: 85 13        	sta	$13                     ; 0x2013 <main+0x1aa9>
    303d: c8           	iny
    303e: b1 14        	lda	($14),y                 ; 0x2014 <main+0x1aaa>
    3040: 85 16        	sta	$16                     ; 0x2016 <main+0x1aac>
    3042: c8           	iny
    3043: b1 14        	lda	($14),y                 ; 0x2014 <main+0x1aaa>
    3045: d0 19        	bne	$3060 <main+0x2af6>
    3047: a5 16        	lda	$16                     ; 0x2016 <main+0x1aac>
    3049: d0 15        	bne	$3060 <main+0x2af6>
    304b: a5 13        	lda	$13                     ; 0x2013 <main+0x1aa9>
    304d: d0 11        	bne	$3060 <main+0x2af6>
    304f: a5 12        	lda	$12                     ; 0x2012 <main+0x1aa8>
    3051: d0 0d        	bne	$3060 <main+0x2af6>
    3053: 4c bc 2e     	jmp	$2ebc <main+0x2952>
    3056: e4 14        	cpx	$14                     ; 0x2014 <main+0x1aaa>
    3058: 90 03        	bcc	$305d <main+0x2af3>
    305a: 4c 3c 2f     	jmp	$2f3c <main+0x29d2>
    305d: 4c 82 2f     	jmp	$2f82 <main+0x2a18>
    3060: a6 4f        	ldx	$4f                     ; 0x204f <main+0x1ae5>
    3062: a4 50        	ldy	$50                     ; 0x2050 <main+0x1ae6>
    3064: 8a           	txa
    3065: 5a           	phy
    3066: a0 12        	ldy	#$12
    3068: 91 10        	sta	($10),y                 ; 0x2010 <main+0x1aa6>
    306a: 7a           	ply
    306b: 84 25        	sty	$25                     ; 0x2025 <main+0x1abb>
    306d: 4c 71 2e     	jmp	$2e71 <main+0x2907>

00003070 <fileOpenDir>:
    3070: b2 12        	lda	($12)                   ; 0x2012 <main+0x1aa8>
    3072: a0 00        	ldy	#$0
    3074: aa           	tax
    3075: d0 03        	bne	$307a <fileOpenDir+0xa>
    3077: 4c d2 30     	jmp	$30d2 <fileOpenDir+0x62>
    307a: 85 16        	sta	$16                     ; 0x2016 <main+0x1aac>
    307c: a2 00        	ldx	#$0
    307e: 86 14        	stx	$14                     ; 0x2014 <main+0x1aaa>
    3080: 98           	tya
    3081: c8           	iny
    3082: d0 01        	bne	$3085 <fileOpenDir+0x15>
    3084: e8           	inx
    3085: 18           	clc
    3086: 65 12        	adc	$12                     ; 0x2012 <main+0x1aa8>
    3088: 85 18        	sta	$18                     ; 0x2018 <main+0x1aae>
    308a: a5 14        	lda	$14                     ; 0x2014 <main+0x1aaa>
    308c: 65 13        	adc	$13                     ; 0x2013 <main+0x1aa9>
    308e: 84 17        	sty	$17                     ; 0x2017 <main+0x1aad>
    3090: a4 18        	ldy	$18                     ; 0x2018 <main+0x1aae>
    3092: 84 14        	sty	$14                     ; 0x2014 <main+0x1aaa>
    3094: 85 15        	sta	$15                     ; 0x2015 <main+0x1aab>
    3096: a0 01        	ldy	#$1
    3098: b1 14        	lda	($14),y                 ; 0x2014 <main+0x1aaa>
    309a: a4 17        	ldy	$17                     ; 0x2017 <main+0x1aad>
    309c: c9 00        	cmp	#$0
    309e: d0 de        	bne	$307e <fileOpenDir+0xe>
    30a0: 8a           	txa
    30a1: d0 06        	bne	$30a9 <fileOpenDir+0x39>
    30a3: c0 02        	cpy	#$2
    30a5: b0 06        	bcs	$30ad <fileOpenDir+0x3d>
    30a7: 80 30        	bra	$30d9 <fileOpenDir+0x69>
    30a9: e0 00        	cpx	#$0
    30ab: 90 2c        	bcc	$30d9 <fileOpenDir+0x69>
    30ad: a0 01        	ldy	#$1
    30af: b1 12        	lda	($12),y                 ; 0x2012 <main+0x1aa8>
    30b1: c9 3a        	cmp	#$3a
    30b3: d0 24        	bne	$30d9 <fileOpenDir+0x69>
    30b5: a5 16        	lda	$16                     ; 0x2016 <main+0x1aac>
    30b7: c9 30        	cmp	#$30
    30b9: a0 00        	ldy	#$0
    30bb: 90 08        	bcc	$30c5 <fileOpenDir+0x55>
    30bd: c9 38        	cmp	#$38
    30bf: b0 04        	bcs	$30c5 <fileOpenDir+0x55>
    30c1: 18           	clc
    30c2: 69 d0        	adc	#$d0
    30c4: a8           	tay
    30c5: a5 12        	lda	$12                     ; 0x2012 <main+0x1aa8>
    30c7: 18           	clc
    30c8: 69 02        	adc	#$2
    30ca: 85 12        	sta	$12                     ; 0x2012 <main+0x1aa8>
    30cc: a5 13        	lda	$13                     ; 0x2013 <main+0x1aa9>
    30ce: 69 00        	adc	#$0
    30d0: 85 13        	sta	$13                     ; 0x2013 <main+0x1aa9>
    30d2: b6 3a        	ldx	$3a,y                   ; 0x203a <main+0x1ad0>
    30d4: f0 0c        	beq	$30e2 <fileOpenDir+0x72>
    30d6: 4c 44 31     	jmp	$3144 <fileOpenDir+0xd4>
    30d9: a0 00        	ldy	#$0
    30db: b6 3a        	ldx	$3a,y                   ; 0x203a <main+0x1ad0>
    30dd: f0 03        	beq	$30e2 <fileOpenDir+0x72>
    30df: 4c 44 31     	jmp	$3144 <fileOpenDir+0xd4>
    30e2: 84 18        	sty	$18                     ; 0x2018 <main+0x1aae>
    30e4: 84 f3        	sty	$f3                     ; 0x20f3 <main+0x1b89>
    30e6: a6 12        	ldx	$12                     ; 0x2012 <main+0x1aa8>
    30e8: a4 13        	ldy	$13                     ; 0x2013 <main+0x1aa9>
    30ea: 86 fb        	stx	$fb                     ; 0x20fb <main+0x1b91>
    30ec: 84 fc        	sty	$fc                     ; 0x20fc <main+0x1b92>
    30ee: b2 12        	lda	($12)                   ; 0x2012 <main+0x1aa8>
    30f0: f0 30        	beq	$3122 <fileOpenDir+0xb2>
    30f2: 64 14        	stz	$14                     ; 0x2014 <main+0x1aaa>
    30f4: a0 01        	ldy	#$1
    30f6: a9 00        	lda	#$0
    30f8: aa           	tax
    30f9: 5a           	phy
    30fa: a4 14        	ldy	$14                     ; 0x2014 <main+0x1aaa>
    30fc: 84 15        	sty	$15                     ; 0x2015 <main+0x1aab>
    30fe: 7a           	ply
    30ff: e6 14        	inc	$14                     ; 0x2014 <main+0x1aaa>
    3101: d0 01        	bne	$3104 <fileOpenDir+0x94>
    3103: e8           	inx
    3104: 18           	clc
    3105: 85 17        	sta	$17                     ; 0x2017 <main+0x1aad>
    3107: a5 15        	lda	$15                     ; 0x2015 <main+0x1aab>
    3109: 65 12        	adc	$12                     ; 0x2012 <main+0x1aa8>
    310b: 85 16        	sta	$16                     ; 0x2016 <main+0x1aac>
    310d: a5 17        	lda	$17                     ; 0x2017 <main+0x1aad>
    310f: 65 13        	adc	$13                     ; 0x2013 <main+0x1aa9>
    3111: 85 17        	sta	$17                     ; 0x2017 <main+0x1aad>
    3113: b1 16        	lda	($16),y                 ; 0x2016 <main+0x1aac>
    3115: 85 15        	sta	$15                     ; 0x2015 <main+0x1aab>
    3117: 8a           	txa
    3118: e6 15        	inc	$15                     ; 0x2015 <main+0x1aab>
    311a: c6 15        	dec	$15                     ; 0x2015 <main+0x1aab>
    311c: d0 db        	bne	$30f9 <fileOpenDir+0x89>
    311e: a6 14        	ldx	$14                     ; 0x2014 <main+0x1aaa>
    3120: 80 02        	bra	$3124 <fileOpenDir+0xb4>
    3122: a2 00        	ldx	#$0
    3124: 86 fd        	stx	$fd                     ; 0x20fd <main+0x1b93>
    3126: a2 88        	ldx	#$88
    3128: a0 00        	ldy	#$0
    312a: 86 12        	stx	$12                     ; 0x2012 <main+0x1aa8>
    312c: 84 13        	sty	$13                     ; 0x2013 <main+0x1aa9>
    312e: a2 63        	ldx	#$63
    3130: 86 14        	stx	$14                     ; 0x2014 <main+0x1aaa>
    3132: a2 00        	ldx	#$0
    3134: 86 15        	stx	$15                     ; 0x2015 <main+0x1aab>
    3136: 20 78 ff     	jsr	$ff78 <__heap_start+0x59e4>
    3139: 92 12        	sta	($12)                   ; 0x2012 <main+0x1aa8>
    313b: a9 00        	lda	#$0
    313d: 6a           	ror
    313e: 85 14        	sta	$14                     ; 0x2014 <main+0x1aaa>
    3140: a6 63        	ldx	$63                     ; 0x2063 <main+0x1af9>
    3142: f0 09        	beq	$314d <fileOpenDir+0xdd>
    3144: a2 00        	ldx	#$0
    3146: 86 12        	stx	$12                     ; 0x2012 <main+0x1aa8>
    3148: a2 00        	ldx	#$0
    314a: 86 13        	stx	$13                     ; 0x2013 <main+0x1aa9>
    314c: 60           	rts
    314d: a9 3a        	lda	#$3a
    314f: 18           	clc
    3150: 65 18        	adc	$18                     ; 0x2018 <main+0x1aae>
    3152: 85 12        	sta	$12                     ; 0x2012 <main+0x1aa8>
    3154: a9 00        	lda	#$0
    3156: 69 00        	adc	#$0
    3158: 85 13        	sta	$13                     ; 0x2013 <main+0x1aa9>
    315a: a6 88        	ldx	$88                     ; 0x2088 <main+0x1b1e>
    315c: 86 19        	stx	$19                     ; 0x2019 <main+0x1aaf>
    315e: a2 89        	ldx	#$89
    3160: a0 00        	ldy	#$0
    3162: 86 16        	stx	$16                     ; 0x2016 <main+0x1aac>
    3164: 84 17        	sty	$17                     ; 0x2017 <main+0x1aad>
    3166: 64 64        	stz	$64                     ; 0x2064 <main+0x1afa>
    3168: 20 00 ff     	jsr	$ff00 <__heap_start+0x596c>
    316b: 92 16        	sta	($16)                   ; 0x2016 <main+0x1aac>
    316d: a9 00        	lda	#$0
    316f: 6a           	ror
    3170: 85 14        	sta	$14                     ; 0x2014 <main+0x1aaa>
    3172: a6 64        	ldx	$64                     ; 0x2064 <main+0x1afa>
    3174: e0 48        	cpx	#$48
    3176: f0 cc        	beq	$3144 <fileOpenDir+0xd4>
    3178: e0 3c        	cpx	#$3c
    317a: d0 ea        	bne	$3166 <fileOpenDir+0xf6>
    317c: a6 18        	ldx	$18                     ; 0x2018 <main+0x1aae>
    317e: a5 19        	lda	$19                     ; 0x2019 <main+0x1aaf>
    3180: 9d 3a 00     	sta	$3a,x                   ; 0x3a <_dirStream>
    3183: 60           	rts

00003184 <textPrint>:
    3184: a6 01        	ldx	$1                      ; 0x2001 <main+0x1a97>
    3186: 86 e1        	stx	$e1                     ; 0x20e1 <main+0x1b77>
    3188: a6 39        	ldx	$39                     ; 0x2039 <main+0x1acf>
    318a: a0 50        	ldy	#$50
    318c: 8c 00 de     	sty	$de00                   ; 0xde00 <__heap_start+0x386c>
    318f: 9c 01 de     	stz	$de01                   ; 0xde01 <__heap_start+0x386d>
    3192: 8e 02 de     	stx	$de02                   ; 0xde02 <__heap_start+0x386e>
    3195: 9c 03 de     	stz	$de03                   ; 0xde03 <__heap_start+0x386f>
    3198: ae 10 de     	ldx	$de10                   ; 0xde10 <__heap_start+0x387c>
    319b: ac 11 de     	ldy	$de11                   ; 0xde11 <__heap_start+0x387d>
    319e: 84 15        	sty	$15                     ; 0x2015 <main+0x1aab>
    31a0: ad 12 de     	lda	$de12                   ; 0xde12 <__heap_start+0x387e>
    31a3: ac 13 de     	ldy	$de13                   ; 0xde13 <__heap_start+0x387f>
    31a6: 84 1c        	sty	$1c                     ; 0x201c <main+0x1ab2>
    31a8: 9c 08 de     	stz	$de08                   ; 0xde08 <__heap_start+0x3874>
    31ab: a0 c0        	ldy	#$c0
    31ad: 8c 09 de     	sty	$de09                   ; 0xde09 <__heap_start+0x3875>
    31b0: 9c 0a de     	stz	$de0a                   ; 0xde0a <__heap_start+0x3876>
    31b3: 9c 0b de     	stz	$de0b                   ; 0xde0b <__heap_start+0x3877>
    31b6: 8e 0c de     	stx	$de0c                   ; 0xde0c <__heap_start+0x3878>
    31b9: 64 14        	stz	$14                     ; 0x2014 <main+0x1aaa>
    31bb: a2 00        	ldx	#$0
    31bd: 86 16        	stx	$16                     ; 0x2016 <main+0x1aac>
    31bf: a2 c0        	ldx	#$c0
    31c1: 86 17        	stx	$17                     ; 0x2017 <main+0x1aad>
    31c3: a2 11        	ldx	#$11
    31c5: 86 18        	stx	$18                     ; 0x2018 <main+0x1aae>
    31c7: a2 c9        	ldx	#$c9
    31c9: 86 19        	stx	$19                     ; 0x2019 <main+0x1aaf>
    31cb: a2 10        	ldx	#$10
    31cd: 86 1a        	stx	$1a                     ; 0x201a <main+0x1ab0>
    31cf: a2 c9        	ldx	#$c9
    31d1: 86 1b        	stx	$1b                     ; 0x201b <main+0x1ab1>
    31d3: a6 15        	ldx	$15                     ; 0x2015 <main+0x1aab>
    31d5: 8e 0d de     	stx	$de0d                   ; 0xde0d <__heap_start+0x3879>
    31d8: 8d 0e de     	sta	$de0e                   ; 0xde0e <__heap_start+0x387a>
    31db: a6 1c        	ldx	$1c                     ; 0x201c <main+0x1ab2>
    31dd: 8e 0f de     	stx	$de0f                   ; 0xde0f <__heap_start+0x387b>
    31e0: ac 18 de     	ldy	$de18                   ; 0xde18 <__heap_start+0x3884>
    31e3: ad 19 de     	lda	$de19                   ; 0xde19 <__heap_start+0x3885>
    31e6: ae 1a de     	ldx	$de1a                   ; 0xde1a <__heap_start+0x3886>
    31e9: ae 1b de     	ldx	$de1b                   ; 0xde1b <__heap_start+0x3887>
    31ec: 84 1c        	sty	$1c                     ; 0x201c <main+0x1ab2>
    31ee: 85 1d        	sta	$1d                     ; 0x201d <main+0x1ab3>
    31f0: 64 15        	stz	$15                     ; 0x2015 <main+0x1aab>
    31f2: 4c f9 32     	jmp	$32f9 <textPrint+0x175>
    31f5: 8a           	txa
    31f6: f0 15        	beq	$320d <textPrint+0x89>
    31f8: b1 1c        	lda	($1c),y                 ; 0x201c <main+0x1ab2>
    31fa: 92 1c        	sta	($1c)                   ; 0x201c <main+0x1ab2>
    31fc: a9 ff        	lda	#$ff
    31fe: c6 1e        	dec	$1e                     ; 0x201e <main+0x1ab4>
    3200: c5 1e        	cmp	$1e                     ; 0x201e <main+0x1ab4>
    3202: d0 01        	bne	$3205 <textPrint+0x81>
    3204: ca           	dex
    3205: e6 1c        	inc	$1c                     ; 0x201c <main+0x1ab2>
    3207: d0 ec        	bne	$31f5 <textPrint+0x71>
    3209: e6 1d        	inc	$1d                     ; 0x201d <main+0x1ab3>
    320b: 80 e8        	bra	$31f5 <textPrint+0x71>
    320d: a5 1e        	lda	$1e                     ; 0x201e <main+0x1ab4>
    320f: d0 e7        	bne	$31f8 <textPrint+0x74>
    3211: a2 02        	ldx	#$2
    3213: 86 01        	stx	$1                      ; 0x2001 <main+0x1a97>
    3215: a2 09        	ldx	#$9
    3217: a9 10        	lda	#$10
    3219: 5a           	phy
    321a: a0 00        	ldy	#$0
    321c: 84 1c        	sty	$1c                     ; 0x201c <main+0x1ab2>
    321e: a0 c0        	ldy	#$c0
    3220: 84 1d        	sty	$1d                     ; 0x201d <main+0x1ab3>
    3222: 7a           	ply
    3223: 85 1e        	sta	$1e                     ; 0x201e <main+0x1ab4>
    3225: 80 03        	bra	$322a <textPrint+0xa6>
    3227: 8a           	txa
    3228: f0 15        	beq	$323f <textPrint+0xbb>
    322a: b1 1c        	lda	($1c),y                 ; 0x201c <main+0x1ab2>
    322c: 92 1c        	sta	($1c)                   ; 0x201c <main+0x1ab2>
    322e: a9 ff        	lda	#$ff
    3230: c6 1e        	dec	$1e                     ; 0x201e <main+0x1ab4>
    3232: c5 1e        	cmp	$1e                     ; 0x201e <main+0x1ab4>
    3234: d0 01        	bne	$3237 <textPrint+0xb3>
    3236: ca           	dex
    3237: e6 1c        	inc	$1c                     ; 0x201c <main+0x1ab2>
    3239: d0 ec        	bne	$3227 <textPrint+0xa3>
    323b: e6 1d        	inc	$1d                     ; 0x201d <main+0x1ab3>
    323d: 80 e8        	bra	$3227 <textPrint+0xa3>
    323f: a5 1e        	lda	$1e                     ; 0x201e <main+0x1ab4>
    3241: d0 e7        	bne	$322a <textPrint+0xa6>
    3243: a2 02        	ldx	#$2
    3245: 86 01        	stx	$1                      ; 0x2001 <main+0x1a97>
    3247: e8           	inx
    3248: 86 01        	stx	$1                      ; 0x2001 <main+0x1a97>
    324a: a5 30        	lda	$30                     ; 0x2030 <main+0x1ac6>
    324c: a2 50        	ldx	#$50
    324e: a0 11        	ldy	#$11
    3250: 84 1c        	sty	$1c                     ; 0x201c <main+0x1ab2>
    3252: a0 c9        	ldy	#$c9
    3254: 84 1d        	sty	$1d                     ; 0x201d <main+0x1ab3>
    3256: a0 10        	ldy	#$10
    3258: 84 1e        	sty	$1e                     ; 0x201e <main+0x1ab4>
    325a: a0 c9        	ldy	#$c9
    325c: 84 1f        	sty	$1f                     ; 0x201f <main+0x1ab5>
    325e: a4 1c        	ldy	$1c                     ; 0x201c <main+0x1ab2>
    3260: 84 22        	sty	$22                     ; 0x2022 <main+0x1ab8>
    3262: a4 1d        	ldy	$1d                     ; 0x201d <main+0x1ab3>
    3264: 84 23        	sty	$23                     ; 0x2023 <main+0x1ab9>
    3266: 92 1e        	sta	($1e)                   ; 0x201e <main+0x1ab4>
    3268: e6 1c        	inc	$1c                     ; 0x201c <main+0x1ab2>
    326a: d0 02        	bne	$326e <textPrint+0xea>
    326c: e6 1d        	inc	$1d                     ; 0x201d <main+0x1ab3>
    326e: ca           	dex
    326f: a4 22        	ldy	$22                     ; 0x2022 <main+0x1ab8>
    3271: 84 1e        	sty	$1e                     ; 0x201e <main+0x1ab4>
    3273: a4 23        	ldy	$23                     ; 0x2023 <main+0x1ab9>
    3275: 84 1f        	sty	$1f                     ; 0x201f <main+0x1ab5>
    3277: e0 00        	cpx	#$0
    3279: d0 e3        	bne	$325e <textPrint+0xda>
    327b: a2 02        	ldx	#$2
    327d: 86 01        	stx	$1                      ; 0x2001 <main+0x1a97>
    327f: a2 50        	ldx	#$50
    3281: a0 11        	ldy	#$11
    3283: 84 1c        	sty	$1c                     ; 0x201c <main+0x1ab2>
    3285: a0 c9        	ldy	#$c9
    3287: 84 1d        	sty	$1d                     ; 0x201d <main+0x1ab3>
    3289: a0 10        	ldy	#$10
    328b: 84 1e        	sty	$1e                     ; 0x201e <main+0x1ab4>
    328d: a0 c9        	ldy	#$c9
    328f: 84 1f        	sty	$1f                     ; 0x201f <main+0x1ab5>
    3291: a9 20        	lda	#$20
    3293: a4 1c        	ldy	$1c                     ; 0x201c <main+0x1ab2>
    3295: 84 22        	sty	$22                     ; 0x2022 <main+0x1ab8>
    3297: a4 1d        	ldy	$1d                     ; 0x201d <main+0x1ab3>
    3299: 84 23        	sty	$23                     ; 0x2023 <main+0x1ab9>
    329b: 92 1e        	sta	($1e)                   ; 0x201e <main+0x1ab4>
    329d: e6 1c        	inc	$1c                     ; 0x201c <main+0x1ab2>
    329f: d0 02        	bne	$32a3 <textPrint+0x11f>
    32a1: e6 1d        	inc	$1d                     ; 0x201d <main+0x1ab3>
    32a3: ca           	dex
    32a4: a4 22        	ldy	$22                     ; 0x2022 <main+0x1ab8>
    32a6: 84 1e        	sty	$1e                     ; 0x201e <main+0x1ab4>
    32a8: a4 23        	ldy	$23                     ; 0x2023 <main+0x1ab9>
    32aa: 84 1f        	sty	$1f                     ; 0x201f <main+0x1ab5>
    32ac: e0 00        	cpx	#$0
    32ae: d0 e3        	bne	$3293 <textPrint+0x10f>
    32b0: c6 39        	dec	$39                     ; 0x2039 <main+0x1acf>
    32b2: 9c 08 de     	stz	$de08                   ; 0xde08 <__heap_start+0x3874>
    32b5: a2 c0        	ldx	#$c0
    32b7: 8e 09 de     	stx	$de09                   ; 0xde09 <__heap_start+0x3875>
    32ba: 9c 0a de     	stz	$de0a                   ; 0xde0a <__heap_start+0x3876>
    32bd: 9c 0b de     	stz	$de0b                   ; 0xde0b <__heap_start+0x3877>
    32c0: a2 1d        	ldx	#$1d
    32c2: 8e 0c de     	stx	$de0c                   ; 0xde0c <__heap_start+0x3878>
    32c5: 9c 0d de     	stz	$de0d                   ; 0xde0d <__heap_start+0x3879>
    32c8: 9c 0e de     	stz	$de0e                   ; 0xde0e <__heap_start+0x387a>
    32cb: 9c 0f de     	stz	$de0f                   ; 0xde0f <__heap_start+0x387b>
    32ce: ae 18 de     	ldx	$de18                   ; 0xde18 <__heap_start+0x3884>
    32d1: ac 19 de     	ldy	$de19                   ; 0xde19 <__heap_start+0x3885>
    32d4: ad 1a de     	lda	$de1a                   ; 0xde1a <__heap_start+0x3886>
    32d7: ad 1b de     	lda	$de1b                   ; 0xde1b <__heap_start+0x3887>
    32da: 86 1c        	stx	$1c                     ; 0x201c <main+0x1ab2>
    32dc: 84 1d        	sty	$1d                     ; 0x201d <main+0x1ab3>
    32de: e6 14        	inc	$14                     ; 0x2014 <main+0x1aaa>
    32e0: d0 02        	bne	$32e4 <textPrint+0x160>
    32e2: e6 15        	inc	$15                     ; 0x2015 <main+0x1aab>
    32e4: 80 13        	bra	$32f9 <textPrint+0x175>
    32e6: a5 1c        	lda	$1c                     ; 0x201c <main+0x1ab2>
    32e8: 18           	clc
    32e9: 69 50        	adc	#$50
    32eb: 85 1c        	sta	$1c                     ; 0x201c <main+0x1ab2>
    32ed: a5 1d        	lda	$1d                     ; 0x201d <main+0x1ab3>
    32ef: 69 00        	adc	#$0
    32f1: 85 1d        	sta	$1d                     ; 0x201d <main+0x1ab3>
    32f3: e6 14        	inc	$14                     ; 0x2014 <main+0x1aaa>
    32f5: d0 02        	bne	$32f9 <textPrint+0x175>
    32f7: e6 15        	inc	$15                     ; 0x2015 <main+0x1aab>
    32f9: a5 12        	lda	$12                     ; 0x2012 <main+0x1aa8>
    32fb: 18           	clc
    32fc: 65 14        	adc	$14                     ; 0x2014 <main+0x1aaa>
    32fe: 85 1e        	sta	$1e                     ; 0x201e <main+0x1ab4>
    3300: a5 13        	lda	$13                     ; 0x2013 <main+0x1aa9>
    3302: 65 15        	adc	$15                     ; 0x2015 <main+0x1aab>
    3304: 85 1f        	sta	$1f                     ; 0x201f <main+0x1ab5>
    3306: b2 1e        	lda	($1e)                   ; 0x201e <main+0x1ab4>
    3308: c9 0a        	cmp	#$a
    330a: f0 23        	beq	$332f <textPrint+0x1ab>
    330c: c9 0d        	cmp	#$d
    330e: f0 1f        	beq	$332f <textPrint+0x1ab>
    3310: aa           	tax
    3311: f0 41        	beq	$3354 <textPrint+0x1d0>
    3313: a2 03        	ldx	#$3
    3315: 86 01        	stx	$1                      ; 0x2001 <main+0x1a97>
    3317: a5 30        	lda	$30                     ; 0x2030 <main+0x1ac6>
    3319: a4 38        	ldy	$38                     ; 0x2038 <main+0x1ace>
    331b: 91 1c        	sta	($1c),y                 ; 0x201c <main+0x1ab2>
    331d: ca           	dex
    331e: 86 01        	stx	$1                      ; 0x2001 <main+0x1a97>
    3320: b2 1e        	lda	($1e)                   ; 0x201e <main+0x1ab4>
    3322: a4 38        	ldy	$38                     ; 0x2038 <main+0x1ace>
    3324: 91 1c        	sta	($1c),y                 ; 0x201c <main+0x1ab2>
    3326: a6 38        	ldx	$38                     ; 0x2038 <main+0x1ace>
    3328: e8           	inx
    3329: e6 38        	inc	$38                     ; 0x2038 <main+0x1ace>
    332b: e0 50        	cpx	#$50
    332d: d0 c4        	bne	$32f3 <textPrint+0x16f>
    332f: 64 38        	stz	$38                     ; 0x2038 <main+0x1ace>
    3331: a6 39        	ldx	$39                     ; 0x2039 <main+0x1acf>
    3333: e8           	inx
    3334: e6 39        	inc	$39                     ; 0x2039 <main+0x1acf>
    3336: e0 1e        	cpx	#$1e
    3338: f0 03        	beq	$333d <textPrint+0x1b9>
    333a: 4c e6 32     	jmp	$32e6 <textPrint+0x162>
    333d: a2 03        	ldx	#$3
    333f: 86 01        	stx	$1                      ; 0x2001 <main+0x1a97>
    3341: a2 09        	ldx	#$9
    3343: a9 10        	lda	#$10
    3345: a0 00        	ldy	#$0
    3347: 84 1c        	sty	$1c                     ; 0x201c <main+0x1ab2>
    3349: a0 c0        	ldy	#$c0
    334b: 84 1d        	sty	$1d                     ; 0x201d <main+0x1ab3>
    334d: a0 50        	ldy	#$50
    334f: 85 1e        	sta	$1e                     ; 0x201e <main+0x1ab4>
    3351: 4c f8 31     	jmp	$31f8 <textPrint+0x74>
    3354: a6 e1        	ldx	$e1                     ; 0x20e1 <main+0x1b77>
    3356: 86 01        	stx	$1                      ; 0x2001 <main+0x1a97>
    3358: a6 38        	ldx	$38                     ; 0x2038 <main+0x1ace>
    335a: a4 39        	ldy	$39                     ; 0x2039 <main+0x1acf>
    335c: 8e 14 d0     	stx	$d014                   ; 0xd014 <__heap_start+0x2a80>
    335f: 9c 15 d0     	stz	$d015                   ; 0xd015 <__heap_start+0x2a81>
    3362: 84 39        	sty	$39                     ; 0x2039 <main+0x1acf>
    3364: 8c 16 d0     	sty	$d016                   ; 0xd016 <__heap_start+0x2a82>
    3367: 9c 17 d0     	stz	$d017                   ; 0xd017 <__heap_start+0x2a83>
    336a: 60           	rts

0000336b <textGotoXY>:
    336b: 85 38        	sta	$38                     ; 0x2038 <main+0x1ace>
    336d: 8d 14 d0     	sta	$d014                   ; 0xd014 <__heap_start+0x2a80>
    3370: 9c 15 d0     	stz	$d015                   ; 0xd015 <__heap_start+0x2a81>
    3373: 86 39        	stx	$39                     ; 0x2039 <main+0x1acf>
    3375: 8e 16 d0     	stx	$d016                   ; 0xd016 <__heap_start+0x2a82>
    3378: 9c 17 d0     	stz	$d017                   ; 0xd017 <__heap_start+0x2a83>
    337b: 60           	rts

0000337c <fileReadDir>:
    337c: b2 12        	lda	($12)                   ; 0x2012 <main+0x1aa8>
    337e: 85 f3        	sta	$f3                     ; 0x20f3 <main+0x1b89>
    3380: a2 88        	ldx	#$88
    3382: a0 00        	ldy	#$0
    3384: 86 14        	stx	$14                     ; 0x2014 <main+0x1aaa>
    3386: 84 15        	sty	$15                     ; 0x2015 <main+0x1aab>
    3388: a2 63        	ldx	#$63
    338a: 86 16        	stx	$16                     ; 0x2016 <main+0x1aac>
    338c: a2 00        	ldx	#$0
    338e: 86 17        	stx	$17                     ; 0x2017 <main+0x1aad>
    3390: 20 7c ff     	jsr	$ff7c <__heap_start+0x59e8>
    3393: 92 14        	sta	($14)                   ; 0x2014 <main+0x1aaa>
    3395: a9 00        	lda	#$0
    3397: 6a           	ror
    3398: 85 16        	sta	$16                     ; 0x2016 <main+0x1aac>
    339a: a6 63        	ldx	$63                     ; 0x2063 <main+0x1af9>
    339c: a0 00        	ldy	#$0
    339e: 84 14        	sty	$14                     ; 0x2014 <main+0x1aaa>
    33a0: a0 00        	ldy	#$0
    33a2: 84 15        	sty	$15                     ; 0x2015 <main+0x1aab>
    33a4: 8a           	txa
    33a5: f0 09        	beq	$33b0 <fileReadDir+0x34>
    33a7: a6 14        	ldx	$14                     ; 0x2014 <main+0x1aaa>
    33a9: 86 12        	stx	$12                     ; 0x2012 <main+0x1aa8>
    33ab: a6 15        	ldx	$15                     ; 0x2015 <main+0x1aab>
    33ad: 86 13        	stx	$13                     ; 0x2013 <main+0x1aa9>
    33af: 60           	rts
    33b0: a2 89        	ldx	#$89
    33b2: a0 00        	ldy	#$0
    33b4: 86 18        	stx	$18                     ; 0x2018 <main+0x1aae>
    33b6: 84 19        	sty	$19                     ; 0x2019 <main+0x1aaf>
    33b8: a0 00        	ldy	#$0
    33ba: 80 18        	bra	$33d4 <fileReadDir+0x58>
    33bc: b2 12        	lda	($12)                   ; 0x2012 <main+0x1aa8>
    33be: 85 f3        	sta	$f3                     ; 0x20f3 <main+0x1b89>
    33c0: a2 8b        	ldx	#$8b
    33c2: 86 1a        	stx	$1a                     ; 0x201a <main+0x1ab0>
    33c4: 84 1b        	sty	$1b                     ; 0x201b <main+0x1ab1>
    33c6: 20 7c ff     	jsr	$ff7c <__heap_start+0x59e8>
    33c9: 92 1a        	sta	($1a)                   ; 0x201a <main+0x1ab0>
    33cb: a9 00        	lda	#$0
    33cd: 6a           	ror
    33ce: 85 16        	sta	$16                     ; 0x2016 <main+0x1aac>
    33d0: a6 63        	ldx	$63                     ; 0x2063 <main+0x1af9>
    33d2: d0 d3        	bne	$33a7 <fileReadDir+0x2b>
    33d4: 64 64        	stz	$64                     ; 0x2064 <main+0x1afa>
    33d6: 20 00 ff     	jsr	$ff00 <__heap_start+0x596c>
    33d9: 92 18        	sta	($18)                   ; 0x2018 <main+0x1aae>
    33db: a9 00        	lda	#$0
    33dd: 6a           	ror
    33de: 85 16        	sta	$16                     ; 0x2016 <main+0x1aac>
    33e0: a9 c2        	lda	#$c2
    33e2: 18           	clc
    33e3: 65 64        	adc	$64                     ; 0x2064 <main+0x1afa>
    33e5: c9 0b        	cmp	#$b
    33e7: b0 eb        	bcs	$33d4 <fileReadDir+0x58>
    33e9: 0a           	asl
    33ea: aa           	tax
    33eb: 7c 8e 84     	jmp	($848e,x)               ; 0x848e <__set_v+0x1>
    33ee: 9c 2f 91     	stz	$912f                   ; 0x912f <fileReadDir.fileDirEntS>
    33f1: a2 02        	ldx	#$2
    33f3: 80 2d        	bra	$3422 <fileReadDir+0xa6>
    33f5: a2 2f        	ldx	#$2f
    33f7: a0 91        	ldy	#$91
    33f9: 86 fb        	stx	$fb                     ; 0x20fb <main+0x1b91>
    33fb: 84 fc        	sty	$fc                     ; 0x20fc <main+0x1b92>
    33fd: a2 01        	ldx	#$1
    33ff: 86 fd        	stx	$fd                     ; 0x20fd <main+0x1b93>
    3401: a0 8a        	ldy	#$8a
    3403: a9 00        	lda	#$0
    3405: 84 12        	sty	$12                     ; 0x2012 <main+0x1aa8>
    3407: 85 13        	sta	$13                     ; 0x2013 <main+0x1aa9>
    3409: a0 63        	ldy	#$63
    340b: 84 14        	sty	$14                     ; 0x2014 <main+0x1aaa>
    340d: a0 00        	ldy	#$0
    340f: 84 15        	sty	$15                     ; 0x2015 <main+0x1aab>
    3411: 20 08 ff     	jsr	$ff08 <__heap_start+0x5974>
    3414: 92 12        	sta	($12)                   ; 0x2012 <main+0x1aa8>
    3416: a9 00        	lda	#$0
    3418: 6a           	ror
    3419: 85 14        	sta	$14                     ; 0x2014 <main+0x1aaa>
    341b: ac 2f 91     	ldy	$912f                   ; 0x912f <fileReadDir.fileDirEntS>
    341e: f0 02        	beq	$3422 <fileReadDir+0xa6>
    3420: a2 00        	ldx	#$0
    3422: 8e 30 91     	stx	$9130                   ; 0x9130 <fileReadDir.fileDirEntS+0x1>
    3425: a6 69        	ldx	$69                     ; 0x2069 <main+0x1aff>
    3427: f0 24        	beq	$344d <fileReadDir+0xd1>
    3429: a0 31        	ldy	#$31
    342b: a9 91        	lda	#$91
    342d: 84 fb        	sty	$fb                     ; 0x20fb <main+0x1b91>
    342f: 85 fc        	sta	$fc                     ; 0x20fc <main+0x1b92>
    3431: 86 fd        	stx	$fd                     ; 0x20fd <main+0x1b93>
    3433: a0 8c        	ldy	#$8c
    3435: a9 00        	lda	#$0
    3437: 84 12        	sty	$12                     ; 0x2012 <main+0x1aa8>
    3439: 85 13        	sta	$13                     ; 0x2013 <main+0x1aa9>
    343b: a0 63        	ldy	#$63
    343d: 84 14        	sty	$14                     ; 0x2014 <main+0x1aaa>
    343f: a0 00        	ldy	#$0
    3441: 84 15        	sty	$15                     ; 0x2015 <main+0x1aab>
    3443: 20 04 ff     	jsr	$ff04 <__heap_start+0x5970>
    3446: 92 12        	sta	($12)                   ; 0x2012 <main+0x1aa8>
    3448: a9 00        	lda	#$0
    344a: 6a           	ror
    344b: 85 14        	sta	$14                     ; 0x2014 <main+0x1aaa>
    344d: 9e 31 91     	stz	$9131,x                 ; 0x9131 <fileReadDir.fileDirEntS+0x2>
    3450: a2 2f        	ldx	#$2f
    3452: 86 14        	stx	$14                     ; 0x2014 <main+0x1aaa>
    3454: a2 91        	ldx	#$91
    3456: 86 15        	stx	$15                     ; 0x2015 <main+0x1aab>
    3458: 4c a7 33     	jmp	$33a7 <fileReadDir+0x2b>

0000345b <sortFileList>:
    345b: a6 35        	ldx	$35                     ; 0x2035 <main+0x1acb>
    345d: 8e 7f 92     	stx	$927f                   ; 0x927f <fpr+0x4e>
    3460: a6 36        	ldx	$36                     ; 0x2036 <main+0x1acc>
    3462: 8e 80 92     	stx	$9280                   ; 0x9280 <fpr+0x4f>
    3465: a6 37        	ldx	$37                     ; 0x2037 <main+0x1acd>
    3467: 8e 81 92     	stx	$9281                   ; 0x9281 <fpr+0x50>
    346a: a2 01        	ldx	#$1
    346c: 8e af a3     	stx	$a3af                   ; 0xa3af <fpr+0x117e>
    346f: ad 13 a4     	lda	$a413                   ; 0xa413 <fpr+0x11e2>
    3472: ac 14 a4     	ldy	$a414                   ; 0xa414 <fpr+0x11e3>
    3475: 85 83        	sta	$83                     ; 0x2083 <main+0x1b19>
    3477: c9 03        	cmp	#$3
    3479: 98           	tya
    347a: 84 84        	sty	$84                     ; 0x2084 <main+0x1b1a>
    347c: e9 00        	sbc	#$0
    347e: 50 02        	bvc	$3482 <sortFileList+0x27>
    3480: 49 80        	eor	#$80
    3482: aa           	tax
    3483: 10 03        	bpl	$3488 <sortFileList+0x2d>
    3485: 4c a6 37     	jmp	$37a6 <sortFileList+0x34b>
    3488: a2 67        	ldx	#$67
    348a: a0 a5        	ldy	#$a5
    348c: 86 12        	stx	$12                     ; 0x2012 <main+0x1aa8>
    348e: 84 13        	sty	$13                     ; 0x2013 <main+0x1aa9>
    3490: e6 12        	inc	$12                     ; 0x2012 <main+0x1aa8>
    3492: d0 02        	bne	$3496 <sortFileList+0x3b>
    3494: e6 13        	inc	$13                     ; 0x2013 <main+0x1aa9>
    3496: a6 12        	ldx	$12                     ; 0x2012 <main+0x1aa8>
    3498: 86 88        	stx	$88                     ; 0x2088 <main+0x1b1e>
    349a: a6 13        	ldx	$13                     ; 0x2013 <main+0x1aa9>
    349c: 86 89        	stx	$89                     ; 0x2089 <main+0x1b1f>
    349e: a2 01        	ldx	#$1
    34a0: 86 82        	stx	$82                     ; 0x2082 <main+0x1b18>
    34a2: 64 18        	stz	$18                     ; 0x2018 <main+0x1aae>
    34a4: 4c 6a 37     	jmp	$376a <sortFileList+0x30f>
    34a7: a2 2c        	ldx	#$2c
    34a9: a4 77        	ldy	$77                     ; 0x2077 <main+0x1b0d>
    34ab: c4 12        	cpy	$12                     ; 0x2012 <main+0x1aa8>
    34ad: f0 03        	beq	$34b2 <sortFileList+0x57>
    34af: 4c 5d 35     	jmp	$355d <sortFileList+0x102>
    34b2: a4 7e        	ldy	$7e                     ; 0x207e <main+0x1b14>
    34b4: 84 85        	sty	$85                     ; 0x2085 <main+0x1b1b>
    34b6: a4 7f        	ldy	$7f                     ; 0x207f <main+0x1b15>
    34b8: 84 86        	sty	$86                     ; 0x2086 <main+0x1b1c>
    34ba: a4 82        	ldy	$82                     ; 0x2082 <main+0x1b18>
    34bc: 84 79        	sty	$79                     ; 0x2079 <main+0x1b0f>
    34be: 86 12        	stx	$12                     ; 0x2012 <main+0x1aa8>
    34c0: 64 13        	stz	$13                     ; 0x2013 <main+0x1aa9>
    34c2: a6 7b        	ldx	$7b                     ; 0x207b <main+0x1b11>
    34c4: a5 78        	lda	$78                     ; 0x2078 <main+0x1b0e>
    34c6: 20 7c 82     	jsr	$827c <__mulhi3>
    34c9: 85 12        	sta	$12                     ; 0x2012 <main+0x1aa8>
    34cb: 86 13        	stx	$13                     ; 0x2013 <main+0x1aa9>
    34cd: a9 7f        	lda	#$7f
    34cf: 18           	clc
    34d0: 65 12        	adc	$12                     ; 0x2012 <main+0x1aa8>
    34d2: 85 7e        	sta	$7e                     ; 0x207e <main+0x1b14>
    34d4: a9 92        	lda	#$92
    34d6: 65 13        	adc	$13                     ; 0x2013 <main+0x1aa9>
    34d8: 85 7f        	sta	$7f                     ; 0x207f <main+0x1b15>
    34da: a2 2c        	ldx	#$2c
    34dc: 86 12        	stx	$12                     ; 0x2012 <main+0x1aa8>
    34de: 64 13        	stz	$13                     ; 0x2013 <main+0x1aa9>
    34e0: a6 76        	ldx	$76                     ; 0x2076 <main+0x1b0c>
    34e2: a5 7a        	lda	$7a                     ; 0x207a <main+0x1b10>
    34e4: 20 7c 82     	jsr	$827c <__mulhi3>
    34e7: 85 14        	sta	$14                     ; 0x2014 <main+0x1aaa>
    34e9: b2 7e        	lda	($7e)                   ; 0x207e <main+0x1b14>
    34eb: 64 12        	stz	$12                     ; 0x2012 <main+0x1aa8>
    34ed: d0 03        	bne	$34f2 <sortFileList+0x97>
    34ef: 4c 64 35     	jmp	$3564 <sortFileList+0x109>
    34f2: a6 7c        	ldx	$7c                     ; 0x207c <main+0x1b12>
    34f4: 86 16        	stx	$16                     ; 0x2016 <main+0x1aac>
    34f6: a6 7d        	ldx	$7d                     ; 0x207d <main+0x1b13>
    34f8: 86 17        	stx	$17                     ; 0x2017 <main+0x1aad>
    34fa: 85 87        	sta	$87                     ; 0x2087 <main+0x1b1d>
    34fc: a6 79        	ldx	$79                     ; 0x2079 <main+0x1b0f>
    34fe: 86 82        	stx	$82                     ; 0x2082 <main+0x1b18>
    3500: a6 8a        	ldx	$8a                     ; 0x208a <main+0x1b20>
    3502: 86 18        	stx	$18                     ; 0x2018 <main+0x1aae>
    3504: aa           	tax
    3505: a4 16        	ldy	$16                     ; 0x2016 <main+0x1aac>
    3507: 84 14        	sty	$14                     ; 0x2014 <main+0x1aaa>
    3509: a4 17        	ldy	$17                     ; 0x2017 <main+0x1aad>
    350b: 84 15        	sty	$15                     ; 0x2015 <main+0x1aab>
    350d: a0 2b        	ldy	#$2b
    350f: b1 16        	lda	($16),y                 ; 0x2016 <main+0x1aac>
    3511: d0 03        	bne	$3516 <sortFileList+0xbb>
    3513: 4c 7f 35     	jmp	$357f <sortFileList+0x124>
    3516: 85 13        	sta	$13                     ; 0x2013 <main+0x1aa9>
    3518: e0 41        	cpx	#$41
    351a: 90 08        	bcc	$3524 <sortFileList+0xc9>
    351c: 8a           	txa
    351d: c9 5b        	cmp	#$5b
    351f: b0 03        	bcs	$3524 <sortFileList+0xc9>
    3521: 09 20        	ora	#$20
    3523: aa           	tax
    3524: a5 13        	lda	$13                     ; 0x2013 <main+0x1aa9>
    3526: c9 41        	cmp	#$41
    3528: 90 06        	bcc	$3530 <sortFileList+0xd5>
    352a: c9 5b        	cmp	#$5b
    352c: b0 02        	bcs	$3530 <sortFileList+0xd5>
    352e: 09 20        	ora	#$20
    3530: 85 16        	sta	$16                     ; 0x2016 <main+0x1aac>
    3532: 86 13        	stx	$13                     ; 0x2013 <main+0x1aa9>
    3534: e4 16        	cpx	$16                     ; 0x2016 <main+0x1aac>
    3536: f0 03        	beq	$353b <sortFileList+0xe0>
    3538: 4c b7 35     	jmp	$35b7 <sortFileList+0x15c>
    353b: b2 14        	lda	($14)                   ; 0x2014 <main+0x1aaa>
    353d: a6 14        	ldx	$14                     ; 0x2014 <main+0x1aaa>
    353f: 86 16        	stx	$16                     ; 0x2016 <main+0x1aac>
    3541: a6 15        	ldx	$15                     ; 0x2015 <main+0x1aab>
    3543: 86 17        	stx	$17                     ; 0x2017 <main+0x1aad>
    3545: e6 16        	inc	$16                     ; 0x2016 <main+0x1aac>
    3547: d0 02        	bne	$354b <sortFileList+0xf0>
    3549: e6 17        	inc	$17                     ; 0x2017 <main+0x1aad>
    354b: aa           	tax
    354c: d0 b6        	bne	$3504 <sortFileList+0xa9>
    354e: a5 14        	lda	$14                     ; 0x2014 <main+0x1aaa>
    3550: 18           	clc
    3551: 69 2c        	adc	#$2c
    3553: 85 14        	sta	$14                     ; 0x2014 <main+0x1aaa>
    3555: a5 15        	lda	$15                     ; 0x2015 <main+0x1aab>
    3557: 69 00        	adc	#$0
    3559: 85 15        	sta	$15                     ; 0x2015 <main+0x1aab>
    355b: 80 4a        	bra	$35a7 <sortFileList+0x14c>
    355d: a6 12        	ldx	$12                     ; 0x2012 <main+0x1aa8>
    355f: 86 77        	stx	$77                     ; 0x2077 <main+0x1b0d>
    3561: 4c 9a 36     	jmp	$369a <sortFileList+0x23f>
    3564: 86 13        	stx	$13                     ; 0x2013 <main+0x1aa9>
    3566: 85 87        	sta	$87                     ; 0x2087 <main+0x1b1d>
    3568: a9 7f        	lda	#$7f
    356a: 18           	clc
    356b: 65 14        	adc	$14                     ; 0x2014 <main+0x1aaa>
    356d: 85 14        	sta	$14                     ; 0x2014 <main+0x1aaa>
    356f: a9 92        	lda	#$92
    3571: 65 13        	adc	$13                     ; 0x2013 <main+0x1aa9>
    3573: 85 15        	sta	$15                     ; 0x2015 <main+0x1aab>
    3575: a6 79        	ldx	$79                     ; 0x2079 <main+0x1b0f>
    3577: 86 82        	stx	$82                     ; 0x2082 <main+0x1b18>
    3579: a6 8a        	ldx	$8a                     ; 0x208a <main+0x1b20>
    357b: 86 18        	stx	$18                     ; 0x2018 <main+0x1aae>
    357d: 80 28        	bra	$35a7 <sortFileList+0x14c>
    357f: e0 41        	cpx	#$41
    3581: a0 01        	ldy	#$1
    3583: b0 02        	bcs	$3587 <sortFileList+0x12c>
    3585: a0 00        	ldy	#$0
    3587: 84 12        	sty	$12                     ; 0x2012 <main+0x1aa8>
    3589: a5 14        	lda	$14                     ; 0x2014 <main+0x1aaa>
    358b: 18           	clc
    358c: 69 2b        	adc	#$2b
    358e: 85 14        	sta	$14                     ; 0x2014 <main+0x1aaa>
    3590: a5 15        	lda	$15                     ; 0x2015 <main+0x1aab>
    3592: 69 00        	adc	#$0
    3594: 85 15        	sta	$15                     ; 0x2015 <main+0x1aab>
    3596: a5 12        	lda	$12                     ; 0x2012 <main+0x1aa8>
    3598: f0 0b        	beq	$35a5 <sortFileList+0x14a>
    359a: e0 5b        	cpx	#$5b
    359c: 8a           	txa
    359d: b0 02        	bcs	$35a1 <sortFileList+0x146>
    359f: 09 20        	ora	#$20
    35a1: 85 12        	sta	$12                     ; 0x2012 <main+0x1aa8>
    35a3: 80 02        	bra	$35a7 <sortFileList+0x14c>
    35a5: 86 12        	stx	$12                     ; 0x2012 <main+0x1aa8>
    35a7: b2 14        	lda	($14)                   ; 0x2014 <main+0x1aaa>
    35a9: c9 41        	cmp	#$41
    35ab: 90 06        	bcc	$35b3 <sortFileList+0x158>
    35ad: c9 5b        	cmp	#$5b
    35af: b0 02        	bcs	$35b3 <sortFileList+0x158>
    35b1: 09 20        	ora	#$20
    35b3: a6 12        	ldx	$12                     ; 0x2012 <main+0x1aa8>
    35b5: 86 13        	stx	$13                     ; 0x2013 <main+0x1aa9>
    35b7: c5 13        	cmp	$13                     ; 0x2013 <main+0x1aa9>
    35b9: a6 85        	ldx	$85                     ; 0x2085 <main+0x1b1b>
    35bb: 86 7e        	stx	$7e                     ; 0x207e <main+0x1b14>
    35bd: a6 86        	ldx	$86                     ; 0x2086 <main+0x1b1c>
    35bf: 86 7f        	stx	$7f                     ; 0x207f <main+0x1b15>
    35c1: 90 03        	bcc	$35c6 <sortFileList+0x16b>
    35c3: 4c 9a 36     	jmp	$369a <sortFileList+0x23f>
    35c6: a2 2c        	ldx	#$2c
    35c8: 86 12        	stx	$12                     ; 0x2012 <main+0x1aa8>
    35ca: 64 13        	stz	$13                     ; 0x2013 <main+0x1aa9>
    35cc: a6 7b        	ldx	$7b                     ; 0x207b <main+0x1b11>
    35ce: a5 78        	lda	$78                     ; 0x2078 <main+0x1b0e>
    35d0: 20 7c 82     	jsr	$827c <__mulhi3>
    35d3: 85 12        	sta	$12                     ; 0x2012 <main+0x1aa8>
    35d5: 86 13        	stx	$13                     ; 0x2013 <main+0x1aa9>
    35d7: a9 7f        	lda	#$7f
    35d9: 18           	clc
    35da: 65 12        	adc	$12                     ; 0x2012 <main+0x1aa8>
    35dc: 85 78        	sta	$78                     ; 0x2078 <main+0x1b0e>
    35de: a9 92        	lda	#$92
    35e0: 65 13        	adc	$13                     ; 0x2013 <main+0x1aa9>
    35e2: 85 79        	sta	$79                     ; 0x2079 <main+0x1b0f>
    35e4: a6 87        	ldx	$87                     ; 0x2087 <main+0x1b1d>
    35e6: f0 26        	beq	$360e <sortFileList+0x1b3>
    35e8: a6 7c        	ldx	$7c                     ; 0x207c <main+0x1b12>
    35ea: 86 12        	stx	$12                     ; 0x2012 <main+0x1aa8>
    35ec: a6 7d        	ldx	$7d                     ; 0x207d <main+0x1b13>
    35ee: 86 13        	stx	$13                     ; 0x2013 <main+0x1aa9>
    35f0: a6 88        	ldx	$88                     ; 0x2088 <main+0x1b1e>
    35f2: 86 14        	stx	$14                     ; 0x2014 <main+0x1aaa>
    35f4: a6 89        	ldx	$89                     ; 0x2089 <main+0x1b1f>
    35f6: 86 15        	stx	$15                     ; 0x2015 <main+0x1aab>
    35f8: b2 12        	lda	($12)                   ; 0x2012 <main+0x1aa8>
    35fa: aa           	tax
    35fb: b2 12        	lda	($12)                   ; 0x2012 <main+0x1aa8>
    35fd: 92 14        	sta	($14)                   ; 0x2014 <main+0x1aaa>
    35ff: e6 14        	inc	$14                     ; 0x2014 <main+0x1aaa>
    3601: d0 02        	bne	$3605 <sortFileList+0x1aa>
    3603: e6 15        	inc	$15                     ; 0x2015 <main+0x1aab>
    3605: e6 12        	inc	$12                     ; 0x2012 <main+0x1aa8>
    3607: d0 02        	bne	$360b <sortFileList+0x1b0>
    3609: e6 13        	inc	$13                     ; 0x2013 <main+0x1aa9>
    360b: 8a           	txa
    360c: d0 ea        	bne	$35f8 <sortFileList+0x19d>
    360e: a2 2c        	ldx	#$2c
    3610: 86 12        	stx	$12                     ; 0x2012 <main+0x1aa8>
    3612: 64 13        	stz	$13                     ; 0x2013 <main+0x1aa9>
    3614: a6 76        	ldx	$76                     ; 0x2076 <main+0x1b0c>
    3616: a5 7a        	lda	$7a                     ; 0x207a <main+0x1b10>
    3618: 20 7c 82     	jsr	$827c <__mulhi3>
    361b: a0 2c        	ldy	#$2c
    361d: 85 12        	sta	$12                     ; 0x2012 <main+0x1aa8>
    361f: 86 13        	stx	$13                     ; 0x2013 <main+0x1aa9>
    3621: a9 7f        	lda	#$7f
    3623: 18           	clc
    3624: 65 12        	adc	$12                     ; 0x2012 <main+0x1aa8>
    3626: 85 12        	sta	$12                     ; 0x2012 <main+0x1aa8>
    3628: a9 92        	lda	#$92
    362a: 65 13        	adc	$13                     ; 0x2013 <main+0x1aa9>
    362c: 85 13        	sta	$13                     ; 0x2013 <main+0x1aa9>
    362e: b2 12        	lda	($12)                   ; 0x2012 <main+0x1aa8>
    3630: aa           	tax
    3631: b2 12        	lda	($12)                   ; 0x2012 <main+0x1aa8>
    3633: 92 78        	sta	($78)                   ; 0x2078 <main+0x1b0e>
    3635: 8a           	txa
    3636: f0 18        	beq	$3650 <sortFileList+0x1f5>
    3638: a6 7c        	ldx	$7c                     ; 0x207c <main+0x1b12>
    363a: 86 14        	stx	$14                     ; 0x2014 <main+0x1aaa>
    363c: a6 7d        	ldx	$7d                     ; 0x207d <main+0x1b13>
    363e: 86 15        	stx	$15                     ; 0x2015 <main+0x1aab>
    3640: b1 14        	lda	($14),y                 ; 0x2014 <main+0x1aaa>
    3642: aa           	tax
    3643: b1 14        	lda	($14),y                 ; 0x2014 <main+0x1aaa>
    3645: 92 14        	sta	($14)                   ; 0x2014 <main+0x1aaa>
    3647: e6 14        	inc	$14                     ; 0x2014 <main+0x1aaa>
    3649: d0 02        	bne	$364d <sortFileList+0x1f2>
    364b: e6 15        	inc	$15                     ; 0x2015 <main+0x1aab>
    364d: 8a           	txa
    364e: d0 f0        	bne	$3640 <sortFileList+0x1e5>
    3650: a6 87        	ldx	$87                     ; 0x2087 <main+0x1b1d>
    3652: 8a           	txa
    3653: 92 12        	sta	($12)                   ; 0x2012 <main+0x1aa8>
    3655: a6 8a        	ldx	$8a                     ; 0x208a <main+0x1b20>
    3657: 86 18        	stx	$18                     ; 0x2018 <main+0x1aae>
    3659: aa           	tax
    365a: f0 26        	beq	$3682 <sortFileList+0x227>
    365c: a6 88        	ldx	$88                     ; 0x2088 <main+0x1b1e>
    365e: 86 12        	stx	$12                     ; 0x2012 <main+0x1aa8>
    3660: a6 89        	ldx	$89                     ; 0x2089 <main+0x1b1f>
    3662: 86 13        	stx	$13                     ; 0x2013 <main+0x1aa9>
    3664: a6 7e        	ldx	$7e                     ; 0x207e <main+0x1b14>
    3666: 86 14        	stx	$14                     ; 0x2014 <main+0x1aaa>
    3668: a6 7f        	ldx	$7f                     ; 0x207f <main+0x1b15>
    366a: 86 15        	stx	$15                     ; 0x2015 <main+0x1aab>
    366c: b2 12        	lda	($12)                   ; 0x2012 <main+0x1aa8>
    366e: aa           	tax
    366f: b2 12        	lda	($12)                   ; 0x2012 <main+0x1aa8>
    3671: 92 14        	sta	($14)                   ; 0x2014 <main+0x1aaa>
    3673: e6 14        	inc	$14                     ; 0x2014 <main+0x1aaa>
    3675: d0 02        	bne	$3679 <sortFileList+0x21e>
    3677: e6 15        	inc	$15                     ; 0x2015 <main+0x1aab>
    3679: e6 12        	inc	$12                     ; 0x2012 <main+0x1aa8>
    367b: d0 02        	bne	$367f <sortFileList+0x224>
    367d: e6 13        	inc	$13                     ; 0x2013 <main+0x1aa9>
    367f: 8a           	txa
    3680: d0 ea        	bne	$366c <sortFileList+0x211>
    3682: b2 80        	lda	($80)                   ; 0x2080 <main+0x1b16>
    3684: aa           	tax
    3685: a0 01        	ldy	#$1
    3687: b1 80        	lda	($80),y                 ; 0x2080 <main+0x1b16>
    3689: 92 80        	sta	($80)                   ; 0x2080 <main+0x1b16>
    368b: 8a           	txa
    368c: 86 77        	stx	$77                     ; 0x2077 <main+0x1b0d>
    368e: 91 80        	sta	($80),y                 ; 0x2080 <main+0x1b16>
    3690: ae 13 a4     	ldx	$a413                   ; 0xa413 <fpr+0x11e2>
    3693: 86 83        	stx	$83                     ; 0x2083 <main+0x1b19>
    3695: ae 14 a4     	ldx	$a414                   ; 0xa414 <fpr+0x11e3>
    3698: 86 84        	stx	$84                     ; 0x2084 <main+0x1b1a>
    369a: 38           	sec
    369b: a5 83        	lda	$83                     ; 0x2083 <main+0x1b19>
    369d: a6 82        	ldx	$82                     ; 0x2082 <main+0x1b18>
    369f: 86 12        	stx	$12                     ; 0x2012 <main+0x1aa8>
    36a1: e5 12        	sbc	$12                     ; 0x2012 <main+0x1aa8>
    36a3: 85 12        	sta	$12                     ; 0x2012 <main+0x1aa8>
    36a5: a5 84        	lda	$84                     ; 0x2084 <main+0x1b1a>
    36a7: e5 18        	sbc	$18                     ; 0x2018 <main+0x1aae>
    36a9: 85 13        	sta	$13                     ; 0x2013 <main+0x1aa9>
    36ab: a5 7c        	lda	$7c                     ; 0x207c <main+0x1b12>
    36ad: 18           	clc
    36ae: 69 2c        	adc	#$2c
    36b0: 85 7c        	sta	$7c                     ; 0x207c <main+0x1b12>
    36b2: a5 7d        	lda	$7d                     ; 0x207d <main+0x1b13>
    36b4: 69 00        	adc	#$0
    36b6: 85 7d        	sta	$7d                     ; 0x207d <main+0x1b13>
    36b8: a5 7e        	lda	$7e                     ; 0x207e <main+0x1b14>
    36ba: 18           	clc
    36bb: 69 2c        	adc	#$2c
    36bd: 85 16        	sta	$16                     ; 0x2016 <main+0x1aac>
    36bf: a5 7f        	lda	$7f                     ; 0x207f <main+0x1b15>
    36c1: 69 00        	adc	#$0
    36c3: a6 16        	ldx	$16                     ; 0x2016 <main+0x1aac>
    36c5: 86 7e        	stx	$7e                     ; 0x207e <main+0x1b14>
    36c7: 85 7f        	sta	$7f                     ; 0x207f <main+0x1b15>
    36c9: a6 7a        	ldx	$7a                     ; 0x207a <main+0x1b10>
    36cb: e4 12        	cpx	$12                     ; 0x2012 <main+0x1aa8>
    36cd: a5 76        	lda	$76                     ; 0x2076 <main+0x1b0c>
    36cf: e5 13        	sbc	$13                     ; 0x2013 <main+0x1aa9>
    36d1: 50 02        	bvc	$36d5 <sortFileList+0x27a>
    36d3: 49 80        	eor	#$80
    36d5: 86 78        	stx	$78                     ; 0x2078 <main+0x1b0e>
    36d7: a6 76        	ldx	$76                     ; 0x2076 <main+0x1b0c>
    36d9: 86 7b        	stx	$7b                     ; 0x207b <main+0x1b11>
    36db: aa           	tax
    36dc: 30 03        	bmi	$36e1 <sortFileList+0x286>
    36de: 4c 3b 37     	jmp	$373b <sortFileList+0x2e0>
    36e1: a9 af        	lda	#$af
    36e3: 18           	clc
    36e4: 65 78        	adc	$78                     ; 0x2078 <main+0x1b0e>
    36e6: 85 80        	sta	$80                     ; 0x2080 <main+0x1b16>
    36e8: a9 a3        	lda	#$a3
    36ea: 65 7b        	adc	$7b                     ; 0x207b <main+0x1b11>
    36ec: 85 81        	sta	$81                     ; 0x2081 <main+0x1b17>
    36ee: a5 77        	lda	$77                     ; 0x2077 <main+0x1b0d>
    36f0: 29 01        	and	#$1
    36f2: 85 13        	sta	$13                     ; 0x2013 <main+0x1aa9>
    36f4: a6 78        	ldx	$78                     ; 0x2078 <main+0x1b0e>
    36f6: 86 7a        	stx	$7a                     ; 0x207a <main+0x1b10>
    36f8: a6 7b        	ldx	$7b                     ; 0x207b <main+0x1b11>
    36fa: 86 76        	stx	$76                     ; 0x2076 <main+0x1b0c>
    36fc: e6 7a        	inc	$7a                     ; 0x207a <main+0x1b10>
    36fe: d0 02        	bne	$3702 <sortFileList+0x2a7>
    3700: e6 76        	inc	$76                     ; 0x2076 <main+0x1b0c>
    3702: a0 01        	ldy	#$1
    3704: b1 80        	lda	($80),y                 ; 0x2080 <main+0x1b16>
    3706: 85 12        	sta	$12                     ; 0x2012 <main+0x1aa8>
    3708: a6 13        	ldx	$13                     ; 0x2013 <main+0x1aa9>
    370a: f0 03        	beq	$370f <sortFileList+0x2b4>
    370c: 4c a7 34     	jmp	$34a7 <sortFileList+0x4c>
    370f: 29 01        	and	#$1
    3711: d0 03        	bne	$3716 <sortFileList+0x2bb>
    3713: 4c a7 34     	jmp	$34a7 <sortFileList+0x4c>
    3716: a2 2c        	ldx	#$2c
    3718: 86 12        	stx	$12                     ; 0x2012 <main+0x1aa8>
    371a: 64 13        	stz	$13                     ; 0x2013 <main+0x1aa9>
    371c: a6 7b        	ldx	$7b                     ; 0x207b <main+0x1b11>
    371e: a5 78        	lda	$78                     ; 0x2078 <main+0x1b0e>
    3720: 20 7c 82     	jsr	$827c <__mulhi3>
    3723: 85 12        	sta	$12                     ; 0x2012 <main+0x1aa8>
    3725: 86 13        	stx	$13                     ; 0x2013 <main+0x1aa9>
    3727: a9 7f        	lda	#$7f
    3729: 18           	clc
    372a: 65 12        	adc	$12                     ; 0x2012 <main+0x1aa8>
    372c: 85 12        	sta	$12                     ; 0x2012 <main+0x1aa8>
    372e: a9 92        	lda	#$92
    3730: 65 13        	adc	$13                     ; 0x2013 <main+0x1aa9>
    3732: 85 13        	sta	$13                     ; 0x2013 <main+0x1aa9>
    3734: b2 12        	lda	($12)                   ; 0x2012 <main+0x1aa8>
    3736: 85 87        	sta	$87                     ; 0x2087 <main+0x1b1d>
    3738: 4c c6 35     	jmp	$35c6 <sortFileList+0x16b>
    373b: a6 18        	ldx	$18                     ; 0x2018 <main+0x1aae>
    373d: 86 7a        	stx	$7a                     ; 0x207a <main+0x1b10>
    373f: a6 82        	ldx	$82                     ; 0x2082 <main+0x1b18>
    3741: e8           	inx
    3742: d0 02        	bne	$3746 <sortFileList+0x2eb>
    3744: e6 7a        	inc	$7a                     ; 0x207a <main+0x1b10>
    3746: a4 83        	ldy	$83                     ; 0x2083 <main+0x1b19>
    3748: 84 12        	sty	$12                     ; 0x2012 <main+0x1aa8>
    374a: a5 84        	lda	$84                     ; 0x2084 <main+0x1b1a>
    374c: a0 ff        	ldy	#$ff
    374e: c6 12        	dec	$12                     ; 0x2012 <main+0x1aa8>
    3750: c4 12        	cpy	$12                     ; 0x2012 <main+0x1aa8>
    3752: d0 01        	bne	$3755 <sortFileList+0x2fa>
    3754: 3a           	dec
    3755: 85 13        	sta	$13                     ; 0x2013 <main+0x1aa9>
    3757: e4 12        	cpx	$12                     ; 0x2012 <main+0x1aa8>
    3759: a5 7a        	lda	$7a                     ; 0x207a <main+0x1b10>
    375b: e5 13        	sbc	$13                     ; 0x2013 <main+0x1aa9>
    375d: 50 02        	bvc	$3761 <sortFileList+0x306>
    375f: 49 80        	eor	#$80
    3761: 86 82        	stx	$82                     ; 0x2082 <main+0x1b18>
    3763: a6 7a        	ldx	$7a                     ; 0x207a <main+0x1b10>
    3765: 86 18        	stx	$18                     ; 0x2018 <main+0x1aae>
    3767: aa           	tax
    3768: 10 3c        	bpl	$37a6 <sortFileList+0x34b>
    376a: a6 83        	ldx	$83                     ; 0x2083 <main+0x1b19>
    376c: 8a           	txa
    376d: 38           	sec
    376e: a6 82        	ldx	$82                     ; 0x2082 <main+0x1b18>
    3770: 86 12        	stx	$12                     ; 0x2012 <main+0x1aa8>
    3772: e5 12        	sbc	$12                     ; 0x2012 <main+0x1aa8>
    3774: aa           	tax
    3775: a5 84        	lda	$84                     ; 0x2084 <main+0x1b1a>
    3777: e5 18        	sbc	$18                     ; 0x2018 <main+0x1aae>
    3779: e0 02        	cpx	#$2
    377b: e9 00        	sbc	#$0
    377d: 50 02        	bvc	$3781 <sortFileList+0x326>
    377f: 49 80        	eor	#$80
    3781: aa           	tax
    3782: 30 b7        	bmi	$373b <sortFileList+0x2e0>
    3784: ae b0 a3     	ldx	$a3b0                   ; 0xa3b0 <fpr+0x117f>
    3787: 86 77        	stx	$77                     ; 0x2077 <main+0x1b0d>
    3789: a2 ac        	ldx	#$ac
    378b: 86 7c        	stx	$7c                     ; 0x207c <main+0x1b12>
    378d: a2 92        	ldx	#$92
    378f: 86 7d        	stx	$7d                     ; 0x207d <main+0x1b13>
    3791: a2 d8        	ldx	#$d8
    3793: 86 7e        	stx	$7e                     ; 0x207e <main+0x1b14>
    3795: a2 92        	ldx	#$92
    3797: 86 7f        	stx	$7f                     ; 0x207f <main+0x1b15>
    3799: a2 01        	ldx	#$1
    379b: 64 7b        	stz	$7b                     ; 0x207b <main+0x1b11>
    379d: 86 78        	stx	$78                     ; 0x2078 <main+0x1b0e>
    379f: a6 18        	ldx	$18                     ; 0x2018 <main+0x1aae>
    37a1: 86 8a        	stx	$8a                     ; 0x208a <main+0x1b20>
    37a3: 4c e1 36     	jmp	$36e1 <sortFileList+0x286>
    37a6: 60           	rts

000037a7 <pickFile>:
    37a7: 18           	clc
    37a8: a5 10        	lda	$10                     ; 0x2010 <main+0x1aa6>
    37aa: 69 f6        	adc	#$f6
    37ac: 85 10        	sta	$10                     ; 0x2010 <main+0x1aa6>
    37ae: a5 11        	lda	$11                     ; 0x2011 <main+0x1aa7>
    37b0: 69 ff        	adc	#$ff
    37b2: 85 11        	sta	$11                     ; 0x2011 <main+0x1aa7>
    37b4: a6 24        	ldx	$24                     ; 0x2024 <main+0x1aba>
    37b6: da           	phx
    37b7: a6 25        	ldx	$25                     ; 0x2025 <main+0x1abb>
    37b9: da           	phx
    37ba: a6 26        	ldx	$26                     ; 0x2026 <main+0x1abc>
    37bc: da           	phx
    37bd: a6 27        	ldx	$27                     ; 0x2027 <main+0x1abd>
    37bf: da           	phx
    37c0: a5 28        	lda	$28                     ; 0x2028 <main+0x1abe>
    37c2: a0 03        	ldy	#$3
    37c4: 91 10        	sta	($10),y                 ; 0x2010 <main+0x1aa6>
    37c6: a5 29        	lda	$29                     ; 0x2029 <main+0x1abf>
    37c8: 88           	dey
    37c9: 91 10        	sta	($10),y                 ; 0x2010 <main+0x1aa6>
    37cb: a2 08        	ldx	#$8
    37cd: 86 26        	stx	$26                     ; 0x2026 <main+0x1abc>
    37cf: a2 00        	ldx	#$0
    37d1: 86 27        	stx	$27                     ; 0x2027 <main+0x1abd>
    37d3: a9 31        	lda	#$31
    37d5: 18           	clc
    37d6: 48           	pha
    37d7: a5 10        	lda	$10                     ; 0x2010 <main+0x1aa6>
    37d9: 69 07        	adc	#$7
    37db: 85 12        	sta	$12                     ; 0x2012 <main+0x1aa8>
    37dd: a5 11        	lda	$11                     ; 0x2011 <main+0x1aa7>
    37df: 69 00        	adc	#$0
    37e1: 85 13        	sta	$13                     ; 0x2013 <main+0x1aa9>
    37e3: 68           	pla
    37e4: 92 12        	sta	($12)                   ; 0x2012 <main+0x1aa8>
    37e6: 88           	dey
    37e7: a9 92        	lda	#$92
    37e9: 91 12        	sta	($12),y                 ; 0x2012 <main+0x1aa8>
    37eb: 64 64        	stz	$64                     ; 0x2064 <main+0x1afa>
    37ed: 18           	clc
    37ee: a5 10        	lda	$10                     ; 0x2010 <main+0x1aa6>
    37f0: 69 05        	adc	#$5
    37f2: 85 12        	sta	$12                     ; 0x2012 <main+0x1aa8>
    37f4: a5 11        	lda	$11                     ; 0x2011 <main+0x1aa7>
    37f6: 69 00        	adc	#$0
    37f8: 85 13        	sta	$13                     ; 0x2013 <main+0x1aa9>
    37fa: a2 63        	ldx	#$63
    37fc: 86 14        	stx	$14                     ; 0x2014 <main+0x1aaa>
    37fe: a2 00        	ldx	#$0
    3800: 86 15        	stx	$15                     ; 0x2015 <main+0x1aab>
    3802: 20 00 ff     	jsr	$ff00 <__heap_start+0x596c>
    3805: 92 12        	sta	($12)                   ; 0x2012 <main+0x1aa8>
    3807: a9 00        	lda	#$0
    3809: 6a           	ror
    380a: 85 14        	sta	$14                     ; 0x2014 <main+0x1aaa>
    380c: b2 12        	lda	($12)                   ; 0x2012 <main+0x1aa8>
    380e: 18           	clc
    380f: 48           	pha
    3810: a5 10        	lda	$10                     ; 0x2010 <main+0x1aa6>
    3812: 69 04        	adc	#$4
    3814: 85 12        	sta	$12                     ; 0x2012 <main+0x1aa8>
    3816: a5 11        	lda	$11                     ; 0x2011 <main+0x1aa7>
    3818: 69 00        	adc	#$0
    381a: 85 13        	sta	$13                     ; 0x2013 <main+0x1aa9>
    381c: 68           	pla
    381d: 92 12        	sta	($12)                   ; 0x2012 <main+0x1aa8>
    381f: b2 12        	lda	($12)                   ; 0x2012 <main+0x1aa8>
    3821: 18           	clc
    3822: 48           	pha
    3823: a5 10        	lda	$10                     ; 0x2010 <main+0x1aa6>
    3825: 69 06        	adc	#$6
    3827: 85 12        	sta	$12                     ; 0x2012 <main+0x1aa8>
    3829: a5 11        	lda	$11                     ; 0x2011 <main+0x1aa7>
    382b: 69 00        	adc	#$0
    382d: 85 13        	sta	$13                     ; 0x2013 <main+0x1aa9>
    382f: 68           	pla
    3830: 92 12        	sta	($12)                   ; 0x2012 <main+0x1aa8>
    3832: a6 64        	ldx	$64                     ; 0x2064 <main+0x1afa>
    3834: a0 00        	ldy	#$0
    3836: c4 27        	cpy	$27                     ; 0x2027 <main+0x1abd>
    3838: f0 02        	beq	$383c <pickFile+0x95>
    383a: 80 0d        	bra	$3849 <pickFile+0xa2>
    383c: e4 26        	cpx	$26                     ; 0x2026 <main+0x1abc>
    383e: f0 02        	beq	$3842 <pickFile+0x9b>
    3840: 80 02        	bra	$3844 <pickFile+0x9d>
    3842: 80 03        	bra	$3847 <pickFile+0xa0>
    3844: 4c b9 43     	jmp	$43b9 <pickFile+0xc12>
    3847: 80 03        	bra	$384c <pickFile+0xa5>
    3849: 4c b9 43     	jmp	$43b9 <pickFile+0xc12>
    384c: 80 00        	bra	$384e <pickFile+0xa7>
    384e: a5 68        	lda	$68                     ; 0x2068 <main+0x1afe>
    3850: 18           	clc
    3851: 69 6e        	adc	#$6e
    3853: aa           	tax
    3854: a9 00        	lda	#$0
    3856: 69 ff        	adc	#$ff
    3858: c9 00        	cmp	#$0
    385a: a0 01        	ldy	#$1
    385c: b0 02        	bcs	$3860 <pickFile+0xb9>
    385e: a0 00        	ldy	#$0
    3860: 84 12        	sty	$12                     ; 0x2012 <main+0x1aa8>
    3862: a8           	tay
    3863: f0 02        	beq	$3867 <pickFile+0xc0>
    3865: 80 08        	bra	$386f <pickFile+0xc8>
    3867: 8a           	txa
    3868: c9 28        	cmp	#$28
    386a: 90 0b        	bcc	$3877 <pickFile+0xd0>
    386c: 4c b9 43     	jmp	$43b9 <pickFile+0xc12>
    386f: 8a           	txa
    3870: a6 12        	ldx	$12                     ; 0x2012 <main+0x1aa8>
    3872: f0 03        	beq	$3877 <pickFile+0xd0>
    3874: 4c b9 43     	jmp	$43b9 <pickFile+0xc12>
    3877: 0a           	asl
    3878: aa           	tax
    3879: 7c a4 84     	jmp	($84a4,x)               ; 0x84a4 <__set_v+0x17>
    387c: 18           	clc
    387d: a5 10        	lda	$10                     ; 0x2010 <main+0x1aa6>
    387f: 69 09        	adc	#$9
    3881: 85 12        	sta	$12                     ; 0x2012 <main+0x1aa8>
    3883: a5 11        	lda	$11                     ; 0x2011 <main+0x1aa7>
    3885: 69 00        	adc	#$0
    3887: 85 13        	sta	$13                     ; 0x2013 <main+0x1aa9>
    3889: a9 03        	lda	#$3
    388b: 92 12        	sta	($12)                   ; 0x2012 <main+0x1aa8>
    388d: 4c bc 43     	jmp	$43bc <pickFile+0xc15>
    3890: 18           	clc
    3891: a5 10        	lda	$10                     ; 0x2010 <main+0x1aa6>
    3893: 69 07        	adc	#$7
    3895: 85 26        	sta	$26                     ; 0x2026 <main+0x1abc>
    3897: a5 11        	lda	$11                     ; 0x2011 <main+0x1aa7>
    3899: 69 00        	adc	#$0
    389b: 85 27        	sta	$27                     ; 0x2027 <main+0x1abd>
    389d: b2 26        	lda	($26)                   ; 0x2026 <main+0x1abc>
    389f: 85 12        	sta	$12                     ; 0x2012 <main+0x1aa8>
    38a1: a0 01        	ldy	#$1
    38a3: b1 26        	lda	($26),y                 ; 0x2026 <main+0x1abc>
    38a5: aa           	tax
    38a6: 64 13        	stz	$13                     ; 0x2013 <main+0x1aa9>
    38a8: 18           	clc
    38a9: a5 12        	lda	$12                     ; 0x2012 <main+0x1aa8>
    38ab: 69 22        	adc	#$22
    38ad: 85 24        	sta	$24                     ; 0x2024 <main+0x1aba>
    38af: 8a           	txa
    38b0: 69 00        	adc	#$0
    38b2: 85 25        	sta	$25                     ; 0x2025 <main+0x1abb>
    38b4: b2 26        	lda	($26)                   ; 0x2026 <main+0x1abc>
    38b6: 85 28        	sta	$28                     ; 0x2028 <main+0x1abe>
    38b8: b2 26        	lda	($26)                   ; 0x2026 <main+0x1abc>
    38ba: 85 14        	sta	$14                     ; 0x2014 <main+0x1aaa>
    38bc: b1 26        	lda	($26),y                 ; 0x2026 <main+0x1abc>
    38be: 85 12        	sta	$12                     ; 0x2012 <main+0x1aa8>
    38c0: 18           	clc
    38c1: a5 14        	lda	$14                     ; 0x2014 <main+0x1aaa>
    38c3: 69 e4        	adc	#$e4
    38c5: 85 14        	sta	$14                     ; 0x2014 <main+0x1aaa>
    38c7: a5 12        	lda	$12                     ; 0x2012 <main+0x1aa8>
    38c9: 69 11        	adc	#$11
    38cb: 85 15        	sta	$15                     ; 0x2015 <main+0x1aab>
    38cd: b1 26        	lda	($26),y                 ; 0x2026 <main+0x1abc>
    38cf: 85 29        	sta	$29                     ; 0x2029 <main+0x1abf>
    38d1: b2 14        	lda	($14)                   ; 0x2014 <main+0x1aaa>
    38d3: 85 16        	sta	$16                     ; 0x2016 <main+0x1aac>
    38d5: b1 14        	lda	($14),y                 ; 0x2014 <main+0x1aaa>
    38d7: a2 2c        	ldx	#$2c
    38d9: 86 12        	stx	$12                     ; 0x2012 <main+0x1aa8>
    38db: aa           	tax
    38dc: a5 16        	lda	$16                     ; 0x2016 <main+0x1aac>
    38de: 20 7c 82     	jsr	$827c <__mulhi3>
    38e1: 85 12        	sta	$12                     ; 0x2012 <main+0x1aa8>
    38e3: 86 13        	stx	$13                     ; 0x2013 <main+0x1aa9>
    38e5: a5 28        	lda	$28                     ; 0x2028 <main+0x1abe>
    38e7: 18           	clc
    38e8: 65 12        	adc	$12                     ; 0x2012 <main+0x1aa8>
    38ea: a8           	tay
    38eb: a5 29        	lda	$29                     ; 0x2029 <main+0x1abf>
    38ed: 65 13        	adc	$13                     ; 0x2013 <main+0x1aa9>
    38ef: aa           	tax
    38f0: 18           	clc
    38f1: 98           	tya
    38f2: 69 4e        	adc	#$4e
    38f4: 85 14        	sta	$14                     ; 0x2014 <main+0x1aaa>
    38f6: 8a           	txa
    38f7: 69 00        	adc	#$0
    38f9: 85 15        	sta	$15                     ; 0x2015 <main+0x1aab>
    38fb: a6 24        	ldx	$24                     ; 0x2024 <main+0x1aba>
    38fd: 86 12        	stx	$12                     ; 0x2012 <main+0x1aa8>
    38ff: a6 25        	ldx	$25                     ; 0x2025 <main+0x1abb>
    3901: 86 13        	stx	$13                     ; 0x2013 <main+0x1aa9>
    3903: a9 2c        	lda	#$2c
    3905: a2 00        	ldx	#$0
    3907: 20 25 82     	jsr	$8225 <memcpy>
    390a: b2 26        	lda	($26)                   ; 0x2026 <main+0x1abc>
    390c: 85 13        	sta	$13                     ; 0x2013 <main+0x1aa9>
    390e: a0 01        	ldy	#$1
    3910: b1 26        	lda	($26),y                 ; 0x2026 <main+0x1abc>
    3912: 85 12        	sta	$12                     ; 0x2012 <main+0x1aa8>
    3914: 18           	clc
    3915: a5 13        	lda	$13                     ; 0x2013 <main+0x1aa9>
    3917: 69 e6        	adc	#$e6
    3919: aa           	tax
    391a: a5 12        	lda	$12                     ; 0x2012 <main+0x1aa8>
    391c: 69 11        	adc	#$11
    391e: 86 12        	stx	$12                     ; 0x2012 <main+0x1aa8>
    3920: 85 13        	sta	$13                     ; 0x2013 <main+0x1aa9>
    3922: b2 12        	lda	($12)                   ; 0x2012 <main+0x1aa8>
    3924: 85 14        	sta	$14                     ; 0x2014 <main+0x1aaa>
    3926: b1 12        	lda	($12),y                 ; 0x2012 <main+0x1aa8>
    3928: d0 1c        	bne	$3946 <pickFile+0x19f>
    392a: 80 00        	bra	$392c <pickFile+0x185>
    392c: a5 14        	lda	$14                     ; 0x2014 <main+0x1aaa>
    392e: d0 16        	bne	$3946 <pickFile+0x19f>
    3930: 80 00        	bra	$3932 <pickFile+0x18b>
    3932: 18           	clc
    3933: a5 10        	lda	$10                     ; 0x2010 <main+0x1aa6>
    3935: 69 09        	adc	#$9
    3937: 85 12        	sta	$12                     ; 0x2012 <main+0x1aa8>
    3939: a5 11        	lda	$11                     ; 0x2011 <main+0x1aa7>
    393b: 69 00        	adc	#$0
    393d: 85 13        	sta	$13                     ; 0x2013 <main+0x1aa9>
    393f: a9 00        	lda	#$0
    3941: 92 12        	sta	($12)                   ; 0x2012 <main+0x1aa8>
    3943: 4c bc 43     	jmp	$43bc <pickFile+0xc15>
    3946: 18           	clc
    3947: a5 10        	lda	$10                     ; 0x2010 <main+0x1aa6>
    3949: 69 07        	adc	#$7
    394b: 85 12        	sta	$12                     ; 0x2012 <main+0x1aa8>
    394d: a5 11        	lda	$11                     ; 0x2011 <main+0x1aa7>
    394f: 69 00        	adc	#$0
    3951: 85 13        	sta	$13                     ; 0x2013 <main+0x1aa9>
    3953: a0 01        	ldy	#$1
    3955: b2 12        	lda	($12)                   ; 0x2012 <main+0x1aa8>
    3957: 85 15        	sta	$15                     ; 0x2015 <main+0x1aab>
    3959: b1 12        	lda	($12),y                 ; 0x2012 <main+0x1aa8>
    395b: 85 14        	sta	$14                     ; 0x2014 <main+0x1aaa>
    395d: 18           	clc
    395e: a5 15        	lda	$15                     ; 0x2015 <main+0x1aab>
    3960: 69 e4        	adc	#$e4
    3962: aa           	tax
    3963: a5 14        	lda	$14                     ; 0x2014 <main+0x1aaa>
    3965: 69 11        	adc	#$11
    3967: 86 14        	stx	$14                     ; 0x2014 <main+0x1aaa>
    3969: 85 15        	sta	$15                     ; 0x2015 <main+0x1aab>
    396b: b2 14        	lda	($14)                   ; 0x2014 <main+0x1aaa>
    396d: 85 16        	sta	$16                     ; 0x2016 <main+0x1aac>
    396f: b1 14        	lda	($14),y                 ; 0x2014 <main+0x1aaa>
    3971: 85 14        	sta	$14                     ; 0x2014 <main+0x1aaa>
    3973: 18           	clc
    3974: a5 16        	lda	$16                     ; 0x2016 <main+0x1aac>
    3976: 72 12        	adc	($12)                   ; 0x2012 <main+0x1aa8>
    3978: 85 15        	sta	$15                     ; 0x2015 <main+0x1aab>
    397a: a5 14        	lda	$14                     ; 0x2014 <main+0x1aaa>
    397c: 71 12        	adc	($12),y                 ; 0x2012 <main+0x1aa8>
    397e: 85 12        	sta	$12                     ; 0x2012 <main+0x1aa8>
    3980: 18           	clc
    3981: a5 15        	lda	$15                     ; 0x2015 <main+0x1aab>
    3983: 69 7e        	adc	#$7e
    3985: aa           	tax
    3986: a5 12        	lda	$12                     ; 0x2012 <main+0x1aa8>
    3988: 69 11        	adc	#$11
    398a: 85 13        	sta	$13                     ; 0x2013 <main+0x1aa9>
    398c: 86 12        	stx	$12                     ; 0x2012 <main+0x1aa8>
    398e: b2 12        	lda	($12)                   ; 0x2012 <main+0x1aa8>
    3990: 29 01        	and	#$1
    3992: f0 16        	beq	$39aa <pickFile+0x203>
    3994: 80 00        	bra	$3996 <pickFile+0x1ef>
    3996: 18           	clc
    3997: a5 10        	lda	$10                     ; 0x2010 <main+0x1aa6>
    3999: 69 09        	adc	#$9
    399b: 85 12        	sta	$12                     ; 0x2012 <main+0x1aa8>
    399d: a5 11        	lda	$11                     ; 0x2011 <main+0x1aa7>
    399f: 69 00        	adc	#$0
    39a1: 85 13        	sta	$13                     ; 0x2013 <main+0x1aa9>
    39a3: a9 01        	lda	#$1
    39a5: 92 12        	sta	($12)                   ; 0x2012 <main+0x1aa8>
    39a7: 4c bc 43     	jmp	$43bc <pickFile+0xc15>
    39aa: 18           	clc
    39ab: a5 10        	lda	$10                     ; 0x2010 <main+0x1aa6>
    39ad: 69 09        	adc	#$9
    39af: 85 12        	sta	$12                     ; 0x2012 <main+0x1aa8>
    39b1: a5 11        	lda	$11                     ; 0x2011 <main+0x1aa7>
    39b3: 69 00        	adc	#$0
    39b5: 85 13        	sta	$13                     ; 0x2013 <main+0x1aa9>
    39b7: a9 02        	lda	#$2
    39b9: 92 12        	sta	($12)                   ; 0x2012 <main+0x1aa8>
    39bb: 4c bc 43     	jmp	$43bc <pickFile+0xc15>
    39be: 18           	clc
    39bf: a5 10        	lda	$10                     ; 0x2010 <main+0x1aa6>
    39c1: 69 07        	adc	#$7
    39c3: 85 12        	sta	$12                     ; 0x2012 <main+0x1aa8>
    39c5: a5 11        	lda	$11                     ; 0x2011 <main+0x1aa7>
    39c7: 69 00        	adc	#$0
    39c9: 85 13        	sta	$13                     ; 0x2013 <main+0x1aa9>
    39cb: b2 12        	lda	($12)                   ; 0x2012 <main+0x1aa8>
    39cd: 85 14        	sta	$14                     ; 0x2014 <main+0x1aaa>
    39cf: a0 01        	ldy	#$1
    39d1: b1 12        	lda	($12),y                 ; 0x2012 <main+0x1aa8>
    39d3: aa           	tax
    39d4: 18           	clc
    39d5: a5 14        	lda	$14                     ; 0x2014 <main+0x1aaa>
    39d7: 69 e4        	adc	#$e4
    39d9: 85 12        	sta	$12                     ; 0x2012 <main+0x1aa8>
    39db: 8a           	txa
    39dc: 69 11        	adc	#$11
    39de: 85 13        	sta	$13                     ; 0x2013 <main+0x1aa9>
    39e0: b2 12        	lda	($12)                   ; 0x2012 <main+0x1aa8>
    39e2: 85 14        	sta	$14                     ; 0x2014 <main+0x1aaa>
    39e4: b1 12        	lda	($12),y                 ; 0x2012 <main+0x1aa8>
    39e6: a6 14        	ldx	$14                     ; 0x2014 <main+0x1aaa>
    39e8: e0 01        	cpx	#$1
    39ea: e9 00        	sbc	#$0
    39ec: 70 02        	bvs	$39f0 <pickFile+0x249>
    39ee: 80 04        	bra	$39f4 <pickFile+0x24d>
    39f0: 49 80        	eor	#$80
    39f2: 80 02        	bra	$39f6 <pickFile+0x24f>
    39f4: 80 00        	bra	$39f6 <pickFile+0x24f>
    39f6: aa           	tax
    39f7: 10 03        	bpl	$39fc <pickFile+0x255>
    39f9: 4c ae 3c     	jmp	$3cae <pickFile+0x507>
    39fc: 18           	clc
    39fd: a5 10        	lda	$10                     ; 0x2010 <main+0x1aa6>
    39ff: 69 07        	adc	#$7
    3a01: 85 12        	sta	$12                     ; 0x2012 <main+0x1aa8>
    3a03: a5 11        	lda	$11                     ; 0x2011 <main+0x1aa7>
    3a05: 69 00        	adc	#$0
    3a07: 85 13        	sta	$13                     ; 0x2013 <main+0x1aa9>
    3a09: b2 12        	lda	($12)                   ; 0x2012 <main+0x1aa8>
    3a0b: 85 14        	sta	$14                     ; 0x2014 <main+0x1aaa>
    3a0d: a0 01        	ldy	#$1
    3a0f: b1 12        	lda	($12),y                 ; 0x2012 <main+0x1aa8>
    3a11: aa           	tax
    3a12: 18           	clc
    3a13: a5 14        	lda	$14                     ; 0x2014 <main+0x1aaa>
    3a15: 69 e6        	adc	#$e6
    3a17: 85 12        	sta	$12                     ; 0x2012 <main+0x1aa8>
    3a19: 8a           	txa
    3a1a: 69 11        	adc	#$11
    3a1c: 85 13        	sta	$13                     ; 0x2013 <main+0x1aa9>
    3a1e: b2 12        	lda	($12)                   ; 0x2012 <main+0x1aa8>
    3a20: 85 14        	sta	$14                     ; 0x2014 <main+0x1aaa>
    3a22: b1 12        	lda	($12),y                 ; 0x2012 <main+0x1aa8>
    3a24: a6 14        	ldx	$14                     ; 0x2014 <main+0x1aaa>
    3a26: e0 01        	cpx	#$1
    3a28: e9 00        	sbc	#$0
    3a2a: 70 02        	bvs	$3a2e <pickFile+0x287>
    3a2c: 80 04        	bra	$3a32 <pickFile+0x28b>
    3a2e: 49 80        	eor	#$80
    3a30: 80 02        	bra	$3a34 <pickFile+0x28d>
    3a32: 80 00        	bra	$3a34 <pickFile+0x28d>
    3a34: aa           	tax
    3a35: 10 03        	bpl	$3a3a <pickFile+0x293>
    3a37: 4c 4e 3b     	jmp	$3b4e <pickFile+0x3a7>
    3a3a: 18           	clc
    3a3b: a5 10        	lda	$10                     ; 0x2010 <main+0x1aa6>
    3a3d: 69 07        	adc	#$7
    3a3f: 85 24        	sta	$24                     ; 0x2024 <main+0x1aba>
    3a41: a5 11        	lda	$11                     ; 0x2011 <main+0x1aa7>
    3a43: 69 00        	adc	#$0
    3a45: 85 25        	sta	$25                     ; 0x2025 <main+0x1abb>
    3a47: b2 24        	lda	($24)                   ; 0x2024 <main+0x1aba>
    3a49: 85 12        	sta	$12                     ; 0x2012 <main+0x1aa8>
    3a4b: a0 01        	ldy	#$1
    3a4d: b1 24        	lda	($24),y                 ; 0x2024 <main+0x1aba>
    3a4f: 85 13        	sta	$13                     ; 0x2013 <main+0x1aa9>
    3a51: b2 12        	lda	($12)                   ; 0x2012 <main+0x1aa8>
    3a53: 85 14        	sta	$14                     ; 0x2014 <main+0x1aaa>
    3a55: b2 24        	lda	($24)                   ; 0x2024 <main+0x1aba>
    3a57: 85 12        	sta	$12                     ; 0x2012 <main+0x1aa8>
    3a59: b1 24        	lda	($24),y                 ; 0x2024 <main+0x1aba>
    3a5b: 85 13        	sta	$13                     ; 0x2013 <main+0x1aa9>
    3a5d: b2 24        	lda	($24)                   ; 0x2024 <main+0x1aba>
    3a5f: 85 16        	sta	$16                     ; 0x2016 <main+0x1aac>
    3a61: b1 24        	lda	($24),y                 ; 0x2024 <main+0x1aba>
    3a63: 85 15        	sta	$15                     ; 0x2015 <main+0x1aab>
    3a65: 18           	clc
    3a66: a5 16        	lda	$16                     ; 0x2016 <main+0x1aac>
    3a68: 69 e6        	adc	#$e6
    3a6a: aa           	tax
    3a6b: a5 15        	lda	$15                     ; 0x2015 <main+0x1aab>
    3a6d: 69 11        	adc	#$11
    3a6f: 85 15        	sta	$15                     ; 0x2015 <main+0x1aab>
    3a71: b1 12        	lda	($12),y                 ; 0x2012 <main+0x1aa8>
    3a73: 86 12        	stx	$12                     ; 0x2012 <main+0x1aa8>
    3a75: a6 15        	ldx	$15                     ; 0x2015 <main+0x1aab>
    3a77: 86 13        	stx	$13                     ; 0x2013 <main+0x1aa9>
    3a79: 18           	clc
    3a7a: 72 12        	adc	($12)                   ; 0x2012 <main+0x1aa8>
    3a7c: aa           	tax
    3a7d: a5 14        	lda	$14                     ; 0x2014 <main+0x1aaa>
    3a7f: 20 6b 33     	jsr	$336b <textGotoXY>
    3a82: a9 20        	lda	#$20
    3a84: 92 10        	sta	($10)                   ; 0x2010 <main+0x1aa6>
    3a86: a9 00        	lda	#$0
    3a88: a0 01        	ldy	#$1
    3a8a: 91 10        	sta	($10),y                 ; 0x2010 <main+0x1aa6>
    3a8c: a2 cd        	ldx	#$cd
    3a8e: 86 12        	stx	$12                     ; 0x2012 <main+0x1aa8>
    3a90: a2 8b        	ldx	#$8b
    3a92: 86 13        	stx	$13                     ; 0x2013 <main+0x1aa9>
    3a94: 20 64 7d     	jsr	$7d64 <printf>
    3a97: b2 24        	lda	($24)                   ; 0x2024 <main+0x1aba>
    3a99: 85 13        	sta	$13                     ; 0x2013 <main+0x1aa9>
    3a9b: a0 01        	ldy	#$1
    3a9d: b1 24        	lda	($24),y                 ; 0x2024 <main+0x1aba>
    3a9f: 85 12        	sta	$12                     ; 0x2012 <main+0x1aa8>
    3aa1: 18           	clc
    3aa2: a5 13        	lda	$13                     ; 0x2013 <main+0x1aa9>
    3aa4: 69 e4        	adc	#$e4
    3aa6: aa           	tax
    3aa7: a5 12        	lda	$12                     ; 0x2012 <main+0x1aa8>
    3aa9: 69 11        	adc	#$11
    3aab: 86 12        	stx	$12                     ; 0x2012 <main+0x1aa8>
    3aad: 85 13        	sta	$13                     ; 0x2013 <main+0x1aa9>
    3aaf: b2 12        	lda	($12)                   ; 0x2012 <main+0x1aa8>
    3ab1: aa           	tax
    3ab2: b1 12        	lda	($12),y                 ; 0x2012 <main+0x1aa8>
    3ab4: 85 14        	sta	$14                     ; 0x2014 <main+0x1aaa>
    3ab6: 8a           	txa
    3ab7: 3a           	dec
    3ab8: c9 ff        	cmp	#$ff
    3aba: f0 03        	beq	$3abf <pickFile+0x318>
    3abc: 4c c4 3a     	jmp	$3ac4 <pickFile+0x31d>
    3abf: c6 14        	dec	$14                     ; 0x2014 <main+0x1aaa>
    3ac1: 4c c4 3a     	jmp	$3ac4 <pickFile+0x31d>
    3ac4: 92 12        	sta	($12)                   ; 0x2012 <main+0x1aa8>
    3ac6: a5 14        	lda	$14                     ; 0x2014 <main+0x1aaa>
    3ac8: 91 12        	sta	($12),y                 ; 0x2012 <main+0x1aa8>
    3aca: b2 24        	lda	($24)                   ; 0x2024 <main+0x1aba>
    3acc: 85 13        	sta	$13                     ; 0x2013 <main+0x1aa9>
    3ace: b1 24        	lda	($24),y                 ; 0x2024 <main+0x1aba>
    3ad0: 85 12        	sta	$12                     ; 0x2012 <main+0x1aa8>
    3ad2: 18           	clc
    3ad3: a5 13        	lda	$13                     ; 0x2013 <main+0x1aa9>
    3ad5: 69 e6        	adc	#$e6
    3ad7: aa           	tax
    3ad8: a5 12        	lda	$12                     ; 0x2012 <main+0x1aa8>
    3ada: 69 11        	adc	#$11
    3adc: 86 12        	stx	$12                     ; 0x2012 <main+0x1aa8>
    3ade: 85 13        	sta	$13                     ; 0x2013 <main+0x1aa9>
    3ae0: b2 12        	lda	($12)                   ; 0x2012 <main+0x1aa8>
    3ae2: aa           	tax
    3ae3: b1 12        	lda	($12),y                 ; 0x2012 <main+0x1aa8>
    3ae5: 85 14        	sta	$14                     ; 0x2014 <main+0x1aaa>
    3ae7: 8a           	txa
    3ae8: 3a           	dec
    3ae9: c9 ff        	cmp	#$ff
    3aeb: f0 03        	beq	$3af0 <pickFile+0x349>
    3aed: 4c f5 3a     	jmp	$3af5 <pickFile+0x34e>
    3af0: c6 14        	dec	$14                     ; 0x2014 <main+0x1aaa>
    3af2: 4c f5 3a     	jmp	$3af5 <pickFile+0x34e>
    3af5: 92 12        	sta	($12)                   ; 0x2012 <main+0x1aa8>
    3af7: a5 14        	lda	$14                     ; 0x2014 <main+0x1aaa>
    3af9: 91 12        	sta	($12),y                 ; 0x2012 <main+0x1aa8>
    3afb: b2 24        	lda	($24)                   ; 0x2024 <main+0x1aba>
    3afd: 85 12        	sta	$12                     ; 0x2012 <main+0x1aa8>
    3aff: b1 24        	lda	($24),y                 ; 0x2024 <main+0x1aba>
    3b01: 85 13        	sta	$13                     ; 0x2013 <main+0x1aa9>
    3b03: b2 24        	lda	($24)                   ; 0x2024 <main+0x1aba>
    3b05: 85 14        	sta	$14                     ; 0x2014 <main+0x1aaa>
    3b07: b1 24        	lda	($24),y                 ; 0x2024 <main+0x1aba>
    3b09: 85 15        	sta	$15                     ; 0x2015 <main+0x1aab>
    3b0b: b2 24        	lda	($24)                   ; 0x2024 <main+0x1aba>
    3b0d: 85 16        	sta	$16                     ; 0x2016 <main+0x1aac>
    3b0f: b1 24        	lda	($24),y                 ; 0x2024 <main+0x1aba>
    3b11: 85 18        	sta	$18                     ; 0x2018 <main+0x1aae>
    3b13: a0 01        	ldy	#$1
    3b15: 18           	clc
    3b16: a5 16        	lda	$16                     ; 0x2016 <main+0x1aac>
    3b18: 69 e6        	adc	#$e6
    3b1a: 85 17        	sta	$17                     ; 0x2017 <main+0x1aad>
    3b1c: a5 18        	lda	$18                     ; 0x2018 <main+0x1aae>
    3b1e: 69 11        	adc	#$11
    3b20: aa           	tax
    3b21: b2 12        	lda	($12)                   ; 0x2012 <main+0x1aa8>
    3b23: 85 16        	sta	$16                     ; 0x2016 <main+0x1aac>
    3b25: a5 17        	lda	$17                     ; 0x2017 <main+0x1aad>
    3b27: 85 12        	sta	$12                     ; 0x2012 <main+0x1aa8>
    3b29: b1 14        	lda	($14),y                 ; 0x2014 <main+0x1aaa>
    3b2b: 86 13        	stx	$13                     ; 0x2013 <main+0x1aa9>
    3b2d: 18           	clc
    3b2e: 72 12        	adc	($12)                   ; 0x2012 <main+0x1aa8>
    3b30: aa           	tax
    3b31: a5 16        	lda	$16                     ; 0x2016 <main+0x1aac>
    3b33: 20 6b 33     	jsr	$336b <textGotoXY>
    3b36: a9 fa        	lda	#$fa
    3b38: 92 10        	sta	($10)                   ; 0x2010 <main+0x1aa6>
    3b3a: a9 00        	lda	#$0
    3b3c: a0 01        	ldy	#$1
    3b3e: 91 10        	sta	($10),y                 ; 0x2010 <main+0x1aa6>
    3b40: a2 cd        	ldx	#$cd
    3b42: 86 12        	stx	$12                     ; 0x2012 <main+0x1aa8>
    3b44: a2 8b        	ldx	#$8b
    3b46: 86 13        	stx	$13                     ; 0x2013 <main+0x1aa9>
    3b48: 20 64 7d     	jsr	$7d64 <printf>
    3b4b: 4c ae 3c     	jmp	$3cae <pickFile+0x507>
    3b4e: 18           	clc
    3b4f: a5 10        	lda	$10                     ; 0x2010 <main+0x1aa6>
    3b51: 69 07        	adc	#$7
    3b53: 85 12        	sta	$12                     ; 0x2012 <main+0x1aa8>
    3b55: a5 11        	lda	$11                     ; 0x2011 <main+0x1aa7>
    3b57: 69 00        	adc	#$0
    3b59: 85 13        	sta	$13                     ; 0x2013 <main+0x1aa9>
    3b5b: b2 12        	lda	($12)                   ; 0x2012 <main+0x1aa8>
    3b5d: 85 14        	sta	$14                     ; 0x2014 <main+0x1aaa>
    3b5f: a0 01        	ldy	#$1
    3b61: b1 12        	lda	($12),y                 ; 0x2012 <main+0x1aa8>
    3b63: aa           	tax
    3b64: 18           	clc
    3b65: a5 14        	lda	$14                     ; 0x2014 <main+0x1aaa>
    3b67: 69 e6        	adc	#$e6
    3b69: 85 12        	sta	$12                     ; 0x2012 <main+0x1aa8>
    3b6b: 8a           	txa
    3b6c: 69 11        	adc	#$11
    3b6e: 85 13        	sta	$13                     ; 0x2013 <main+0x1aa9>
    3b70: b2 12        	lda	($12)                   ; 0x2012 <main+0x1aa8>
    3b72: 85 14        	sta	$14                     ; 0x2014 <main+0x1aaa>
    3b74: b1 12        	lda	($12),y                 ; 0x2012 <main+0x1aa8>
    3b76: f0 03        	beq	$3b7b <pickFile+0x3d4>
    3b78: 4c ae 3c     	jmp	$3cae <pickFile+0x507>
    3b7b: a5 14        	lda	$14                     ; 0x2014 <main+0x1aaa>
    3b7d: f0 03        	beq	$3b82 <pickFile+0x3db>
    3b7f: 4c ae 3c     	jmp	$3cae <pickFile+0x507>
    3b82: 18           	clc
    3b83: a5 10        	lda	$10                     ; 0x2010 <main+0x1aa6>
    3b85: 69 07        	adc	#$7
    3b87: 85 24        	sta	$24                     ; 0x2024 <main+0x1aba>
    3b89: a5 11        	lda	$11                     ; 0x2011 <main+0x1aa7>
    3b8b: 69 00        	adc	#$0
    3b8d: 85 25        	sta	$25                     ; 0x2025 <main+0x1abb>
    3b8f: b2 24        	lda	($24)                   ; 0x2024 <main+0x1aba>
    3b91: 85 12        	sta	$12                     ; 0x2012 <main+0x1aa8>
    3b93: a0 01        	ldy	#$1
    3b95: b1 24        	lda	($24),y                 ; 0x2024 <main+0x1aba>
    3b97: 85 13        	sta	$13                     ; 0x2013 <main+0x1aa9>
    3b99: b2 12        	lda	($12)                   ; 0x2012 <main+0x1aa8>
    3b9b: 85 14        	sta	$14                     ; 0x2014 <main+0x1aaa>
    3b9d: b2 24        	lda	($24)                   ; 0x2024 <main+0x1aba>
    3b9f: 85 12        	sta	$12                     ; 0x2012 <main+0x1aa8>
    3ba1: b1 24        	lda	($24),y                 ; 0x2024 <main+0x1aba>
    3ba3: 85 13        	sta	$13                     ; 0x2013 <main+0x1aa9>
    3ba5: b2 24        	lda	($24)                   ; 0x2024 <main+0x1aba>
    3ba7: 85 16        	sta	$16                     ; 0x2016 <main+0x1aac>
    3ba9: b1 24        	lda	($24),y                 ; 0x2024 <main+0x1aba>
    3bab: 85 15        	sta	$15                     ; 0x2015 <main+0x1aab>
    3bad: 18           	clc
    3bae: a5 16        	lda	$16                     ; 0x2016 <main+0x1aac>
    3bb0: 69 e6        	adc	#$e6
    3bb2: aa           	tax
    3bb3: a5 15        	lda	$15                     ; 0x2015 <main+0x1aab>
    3bb5: 69 11        	adc	#$11
    3bb7: 85 15        	sta	$15                     ; 0x2015 <main+0x1aab>
    3bb9: b1 12        	lda	($12),y                 ; 0x2012 <main+0x1aa8>
    3bbb: 86 12        	stx	$12                     ; 0x2012 <main+0x1aa8>
    3bbd: a6 15        	ldx	$15                     ; 0x2015 <main+0x1aab>
    3bbf: 86 13        	stx	$13                     ; 0x2013 <main+0x1aa9>
    3bc1: 18           	clc
    3bc2: 72 12        	adc	($12)                   ; 0x2012 <main+0x1aa8>
    3bc4: aa           	tax
    3bc5: a5 14        	lda	$14                     ; 0x2014 <main+0x1aaa>
    3bc7: 20 6b 33     	jsr	$336b <textGotoXY>
    3bca: a9 20        	lda	#$20
    3bcc: 92 10        	sta	($10)                   ; 0x2010 <main+0x1aa6>
    3bce: a9 00        	lda	#$0
    3bd0: a0 01        	ldy	#$1
    3bd2: 91 10        	sta	($10),y                 ; 0x2010 <main+0x1aa6>
    3bd4: a2 cd        	ldx	#$cd
    3bd6: 86 12        	stx	$12                     ; 0x2012 <main+0x1aa8>
    3bd8: a2 8b        	ldx	#$8b
    3bda: 86 13        	stx	$13                     ; 0x2013 <main+0x1aa9>
    3bdc: 20 64 7d     	jsr	$7d64 <printf>
    3bdf: b2 24        	lda	($24)                   ; 0x2024 <main+0x1aba>
    3be1: 85 13        	sta	$13                     ; 0x2013 <main+0x1aa9>
    3be3: a0 01        	ldy	#$1
    3be5: b1 24        	lda	($24),y                 ; 0x2024 <main+0x1aba>
    3be7: 85 12        	sta	$12                     ; 0x2012 <main+0x1aa8>
    3be9: 18           	clc
    3bea: a5 13        	lda	$13                     ; 0x2013 <main+0x1aa9>
    3bec: 69 e6        	adc	#$e6
    3bee: aa           	tax
    3bef: a5 12        	lda	$12                     ; 0x2012 <main+0x1aa8>
    3bf1: 69 11        	adc	#$11
    3bf3: 86 12        	stx	$12                     ; 0x2012 <main+0x1aa8>
    3bf5: 85 13        	sta	$13                     ; 0x2013 <main+0x1aa9>
    3bf7: a9 0f        	lda	#$f
    3bf9: 92 12        	sta	($12)                   ; 0x2012 <main+0x1aa8>
    3bfb: a9 00        	lda	#$0
    3bfd: 91 12        	sta	($12),y                 ; 0x2012 <main+0x1aa8>
    3bff: b2 24        	lda	($24)                   ; 0x2024 <main+0x1aba>
    3c01: 85 13        	sta	$13                     ; 0x2013 <main+0x1aa9>
    3c03: b1 24        	lda	($24),y                 ; 0x2024 <main+0x1aba>
    3c05: 85 12        	sta	$12                     ; 0x2012 <main+0x1aa8>
    3c07: 18           	clc
    3c08: a5 13        	lda	$13                     ; 0x2013 <main+0x1aa9>
    3c0a: 69 e8        	adc	#$e8
    3c0c: aa           	tax
    3c0d: a5 12        	lda	$12                     ; 0x2012 <main+0x1aa8>
    3c0f: 69 11        	adc	#$11
    3c11: 86 12        	stx	$12                     ; 0x2012 <main+0x1aa8>
    3c13: 85 13        	sta	$13                     ; 0x2013 <main+0x1aa9>
    3c15: b2 12        	lda	($12)                   ; 0x2012 <main+0x1aa8>
    3c17: 85 15        	sta	$15                     ; 0x2015 <main+0x1aab>
    3c19: b1 12        	lda	($12),y                 ; 0x2012 <main+0x1aa8>
    3c1b: 85 14        	sta	$14                     ; 0x2014 <main+0x1aaa>
    3c1d: 18           	clc
    3c1e: a5 15        	lda	$15                     ; 0x2015 <main+0x1aab>
    3c20: 69 f1        	adc	#$f1
    3c22: 85 15        	sta	$15                     ; 0x2015 <main+0x1aab>
    3c24: a5 14        	lda	$14                     ; 0x2014 <main+0x1aaa>
    3c26: 69 ff        	adc	#$ff
    3c28: aa           	tax
    3c29: a5 15        	lda	$15                     ; 0x2015 <main+0x1aab>
    3c2b: 92 12        	sta	($12)                   ; 0x2012 <main+0x1aa8>
    3c2d: 8a           	txa
    3c2e: 91 12        	sta	($12),y                 ; 0x2012 <main+0x1aa8>
    3c30: b2 24        	lda	($24)                   ; 0x2024 <main+0x1aba>
    3c32: 85 12        	sta	$12                     ; 0x2012 <main+0x1aa8>
    3c34: b1 24        	lda	($24),y                 ; 0x2024 <main+0x1aba>
    3c36: 85 13        	sta	$13                     ; 0x2013 <main+0x1aa9>
    3c38: b2 24        	lda	($24)                   ; 0x2024 <main+0x1aba>
    3c3a: 85 15        	sta	$15                     ; 0x2015 <main+0x1aab>
    3c3c: b1 24        	lda	($24),y                 ; 0x2024 <main+0x1aba>
    3c3e: 85 14        	sta	$14                     ; 0x2014 <main+0x1aaa>
    3c40: a0 01        	ldy	#$1
    3c42: 18           	clc
    3c43: a5 15        	lda	$15                     ; 0x2015 <main+0x1aab>
    3c45: 69 e8        	adc	#$e8
    3c47: aa           	tax
    3c48: a5 14        	lda	$14                     ; 0x2014 <main+0x1aaa>
    3c4a: 69 11        	adc	#$11
    3c4c: 86 14        	stx	$14                     ; 0x2014 <main+0x1aaa>
    3c4e: 85 15        	sta	$15                     ; 0x2015 <main+0x1aab>
    3c50: b2 14        	lda	($14)                   ; 0x2014 <main+0x1aaa>
    3c52: 85 16        	sta	$16                     ; 0x2016 <main+0x1aac>
    3c54: b1 14        	lda	($14),y                 ; 0x2014 <main+0x1aaa>
    3c56: aa           	tax
    3c57: a5 16        	lda	$16                     ; 0x2016 <main+0x1aac>
    3c59: 20 f4 43     	jsr	$43f4 <displayFileList>
    3c5c: b2 24        	lda	($24)                   ; 0x2024 <main+0x1aba>
    3c5e: 85 12        	sta	$12                     ; 0x2012 <main+0x1aa8>
    3c60: a0 01        	ldy	#$1
    3c62: b1 24        	lda	($24),y                 ; 0x2024 <main+0x1aba>
    3c64: 85 13        	sta	$13                     ; 0x2013 <main+0x1aa9>
    3c66: b2 24        	lda	($24)                   ; 0x2024 <main+0x1aba>
    3c68: 85 14        	sta	$14                     ; 0x2014 <main+0x1aaa>
    3c6a: b1 24        	lda	($24),y                 ; 0x2024 <main+0x1aba>
    3c6c: 85 15        	sta	$15                     ; 0x2015 <main+0x1aab>
    3c6e: b2 24        	lda	($24)                   ; 0x2024 <main+0x1aba>
    3c70: 85 16        	sta	$16                     ; 0x2016 <main+0x1aac>
    3c72: b1 24        	lda	($24),y                 ; 0x2024 <main+0x1aba>
    3c74: 85 18        	sta	$18                     ; 0x2018 <main+0x1aae>
    3c76: a0 01        	ldy	#$1
    3c78: 18           	clc
    3c79: a5 16        	lda	$16                     ; 0x2016 <main+0x1aac>
    3c7b: 69 e6        	adc	#$e6
    3c7d: 85 17        	sta	$17                     ; 0x2017 <main+0x1aad>
    3c7f: a5 18        	lda	$18                     ; 0x2018 <main+0x1aae>
    3c81: 69 11        	adc	#$11
    3c83: aa           	tax
    3c84: b2 12        	lda	($12)                   ; 0x2012 <main+0x1aa8>
    3c86: 85 16        	sta	$16                     ; 0x2016 <main+0x1aac>
    3c88: a5 17        	lda	$17                     ; 0x2017 <main+0x1aad>
    3c8a: 85 12        	sta	$12                     ; 0x2012 <main+0x1aa8>
    3c8c: b1 14        	lda	($14),y                 ; 0x2014 <main+0x1aaa>
    3c8e: 86 13        	stx	$13                     ; 0x2013 <main+0x1aa9>
    3c90: 18           	clc
    3c91: 72 12        	adc	($12)                   ; 0x2012 <main+0x1aa8>
    3c93: aa           	tax
    3c94: a5 16        	lda	$16                     ; 0x2016 <main+0x1aac>
    3c96: 20 6b 33     	jsr	$336b <textGotoXY>
    3c99: a9 fa        	lda	#$fa
    3c9b: 92 10        	sta	($10)                   ; 0x2010 <main+0x1aa6>
    3c9d: a9 00        	lda	#$0
    3c9f: a0 01        	ldy	#$1
    3ca1: 91 10        	sta	($10),y                 ; 0x2010 <main+0x1aa6>
    3ca3: a2 cd        	ldx	#$cd
    3ca5: 86 12        	stx	$12                     ; 0x2012 <main+0x1aa8>
    3ca7: a2 8b        	ldx	#$8b
    3ca9: 86 13        	stx	$13                     ; 0x2013 <main+0x1aa9>
    3cab: 20 64 7d     	jsr	$7d64 <printf>
    3cae: 4c b9 43     	jmp	$43b9 <pickFile+0xc12>
    3cb1: 18           	clc
    3cb2: a5 10        	lda	$10                     ; 0x2010 <main+0x1aa6>
    3cb4: 69 07        	adc	#$7
    3cb6: 85 12        	sta	$12                     ; 0x2012 <main+0x1aa8>
    3cb8: a5 11        	lda	$11                     ; 0x2011 <main+0x1aa7>
    3cba: 69 00        	adc	#$0
    3cbc: 85 13        	sta	$13                     ; 0x2013 <main+0x1aa9>
    3cbe: b2 12        	lda	($12)                   ; 0x2012 <main+0x1aa8>
    3cc0: 85 14        	sta	$14                     ; 0x2014 <main+0x1aaa>
    3cc2: a0 01        	ldy	#$1
    3cc4: b1 12        	lda	($12),y                 ; 0x2012 <main+0x1aa8>
    3cc6: aa           	tax
    3cc7: 18           	clc
    3cc8: a5 14        	lda	$14                     ; 0x2014 <main+0x1aaa>
    3cca: 69 e4        	adc	#$e4
    3ccc: 85 14        	sta	$14                     ; 0x2014 <main+0x1aaa>
    3cce: 8a           	txa
    3ccf: 69 11        	adc	#$11
    3cd1: 85 15        	sta	$15                     ; 0x2015 <main+0x1aab>
    3cd3: b2 14        	lda	($14)                   ; 0x2014 <main+0x1aaa>
    3cd5: 85 16        	sta	$16                     ; 0x2016 <main+0x1aac>
    3cd7: b2 12        	lda	($12)                   ; 0x2012 <main+0x1aa8>
    3cd9: 85 17        	sta	$17                     ; 0x2017 <main+0x1aad>
    3cdb: b1 12        	lda	($12),y                 ; 0x2012 <main+0x1aa8>
    3cdd: 85 12        	sta	$12                     ; 0x2012 <main+0x1aa8>
    3cdf: 18           	clc
    3ce0: a5 17        	lda	$17                     ; 0x2017 <main+0x1aad>
    3ce2: 69 e2        	adc	#$e2
    3ce4: aa           	tax
    3ce5: a5 12        	lda	$12                     ; 0x2012 <main+0x1aa8>
    3ce7: 69 11        	adc	#$11
    3ce9: 85 13        	sta	$13                     ; 0x2013 <main+0x1aa9>
    3ceb: b1 14        	lda	($14),y                 ; 0x2014 <main+0x1aaa>
    3ced: 85 14        	sta	$14                     ; 0x2014 <main+0x1aaa>
    3cef: 86 12        	stx	$12                     ; 0x2012 <main+0x1aa8>
    3cf1: b2 12        	lda	($12)                   ; 0x2012 <main+0x1aa8>
    3cf3: aa           	tax
    3cf4: b1 12        	lda	($12),y                 ; 0x2012 <main+0x1aa8>
    3cf6: 85 12        	sta	$12                     ; 0x2012 <main+0x1aa8>
    3cf8: a5 14        	lda	$14                     ; 0x2014 <main+0x1aaa>
    3cfa: 86 13        	stx	$13                     ; 0x2013 <main+0x1aa9>
    3cfc: a2 ff        	ldx	#$ff
    3cfe: c6 13        	dec	$13                     ; 0x2013 <main+0x1aa9>
    3d00: e4 13        	cpx	$13                     ; 0x2013 <main+0x1aa9>
    3d02: f0 03        	beq	$3d07 <pickFile+0x560>
    3d04: 4c 0c 3d     	jmp	$3d0c <pickFile+0x565>
    3d07: c6 12        	dec	$12                     ; 0x2012 <main+0x1aa8>
    3d09: 4c 0c 3d     	jmp	$3d0c <pickFile+0x565>
    3d0c: a6 16        	ldx	$16                     ; 0x2016 <main+0x1aac>
    3d0e: e4 13        	cpx	$13                     ; 0x2013 <main+0x1aa9>
    3d10: e5 12        	sbc	$12                     ; 0x2012 <main+0x1aa8>
    3d12: 70 02        	bvs	$3d16 <pickFile+0x56f>
    3d14: 80 04        	bra	$3d1a <pickFile+0x573>
    3d16: 49 80        	eor	#$80
    3d18: 80 02        	bra	$3d1c <pickFile+0x575>
    3d1a: 80 00        	bra	$3d1c <pickFile+0x575>
    3d1c: aa           	tax
    3d1d: 30 03        	bmi	$3d22 <pickFile+0x57b>
    3d1f: 4c 2e 40     	jmp	$402e <pickFile+0x887>
    3d22: 18           	clc
    3d23: a5 10        	lda	$10                     ; 0x2010 <main+0x1aa6>
    3d25: 69 07        	adc	#$7
    3d27: 85 12        	sta	$12                     ; 0x2012 <main+0x1aa8>
    3d29: a5 11        	lda	$11                     ; 0x2011 <main+0x1aa7>
    3d2b: 69 00        	adc	#$0
    3d2d: 85 13        	sta	$13                     ; 0x2013 <main+0x1aa9>
    3d2f: b2 12        	lda	($12)                   ; 0x2012 <main+0x1aa8>
    3d31: 85 14        	sta	$14                     ; 0x2014 <main+0x1aaa>
    3d33: a0 01        	ldy	#$1
    3d35: b1 12        	lda	($12),y                 ; 0x2012 <main+0x1aa8>
    3d37: aa           	tax
    3d38: 18           	clc
    3d39: a5 14        	lda	$14                     ; 0x2014 <main+0x1aaa>
    3d3b: 69 e6        	adc	#$e6
    3d3d: 85 12        	sta	$12                     ; 0x2012 <main+0x1aa8>
    3d3f: 8a           	txa
    3d40: 69 11        	adc	#$11
    3d42: 85 13        	sta	$13                     ; 0x2013 <main+0x1aa9>
    3d44: b2 12        	lda	($12)                   ; 0x2012 <main+0x1aa8>
    3d46: 85 14        	sta	$14                     ; 0x2014 <main+0x1aaa>
    3d48: b1 12        	lda	($12),y                 ; 0x2012 <main+0x1aa8>
    3d4a: a6 14        	ldx	$14                     ; 0x2014 <main+0x1aaa>
    3d4c: e0 0f        	cpx	#$f
    3d4e: e9 00        	sbc	#$0
    3d50: 70 02        	bvs	$3d54 <pickFile+0x5ad>
    3d52: 80 04        	bra	$3d58 <pickFile+0x5b1>
    3d54: 49 80        	eor	#$80
    3d56: 80 02        	bra	$3d5a <pickFile+0x5b3>
    3d58: 80 00        	bra	$3d5a <pickFile+0x5b3>
    3d5a: aa           	tax
    3d5b: 30 03        	bmi	$3d60 <pickFile+0x5b9>
    3d5d: 4c 6e 3e     	jmp	$3e6e <pickFile+0x6c7>
    3d60: 18           	clc
    3d61: a5 10        	lda	$10                     ; 0x2010 <main+0x1aa6>
    3d63: 69 07        	adc	#$7
    3d65: 85 24        	sta	$24                     ; 0x2024 <main+0x1aba>
    3d67: a5 11        	lda	$11                     ; 0x2011 <main+0x1aa7>
    3d69: 69 00        	adc	#$0
    3d6b: 85 25        	sta	$25                     ; 0x2025 <main+0x1abb>
    3d6d: b2 24        	lda	($24)                   ; 0x2024 <main+0x1aba>
    3d6f: 85 12        	sta	$12                     ; 0x2012 <main+0x1aa8>
    3d71: a0 01        	ldy	#$1
    3d73: b1 24        	lda	($24),y                 ; 0x2024 <main+0x1aba>
    3d75: 85 13        	sta	$13                     ; 0x2013 <main+0x1aa9>
    3d77: b2 12        	lda	($12)                   ; 0x2012 <main+0x1aa8>
    3d79: 85 14        	sta	$14                     ; 0x2014 <main+0x1aaa>
    3d7b: b2 24        	lda	($24)                   ; 0x2024 <main+0x1aba>
    3d7d: 85 12        	sta	$12                     ; 0x2012 <main+0x1aa8>
    3d7f: b1 24        	lda	($24),y                 ; 0x2024 <main+0x1aba>
    3d81: 85 13        	sta	$13                     ; 0x2013 <main+0x1aa9>
    3d83: b2 24        	lda	($24)                   ; 0x2024 <main+0x1aba>
    3d85: 85 16        	sta	$16                     ; 0x2016 <main+0x1aac>
    3d87: b1 24        	lda	($24),y                 ; 0x2024 <main+0x1aba>
    3d89: 85 15        	sta	$15                     ; 0x2015 <main+0x1aab>
    3d8b: 18           	clc
    3d8c: a5 16        	lda	$16                     ; 0x2016 <main+0x1aac>
    3d8e: 69 e6        	adc	#$e6
    3d90: aa           	tax
    3d91: a5 15        	lda	$15                     ; 0x2015 <main+0x1aab>
    3d93: 69 11        	adc	#$11
    3d95: 85 15        	sta	$15                     ; 0x2015 <main+0x1aab>
    3d97: b1 12        	lda	($12),y                 ; 0x2012 <main+0x1aa8>
    3d99: 86 12        	stx	$12                     ; 0x2012 <main+0x1aa8>
    3d9b: a6 15        	ldx	$15                     ; 0x2015 <main+0x1aab>
    3d9d: 86 13        	stx	$13                     ; 0x2013 <main+0x1aa9>
    3d9f: 18           	clc
    3da0: 72 12        	adc	($12)                   ; 0x2012 <main+0x1aa8>
    3da2: aa           	tax
    3da3: a5 14        	lda	$14                     ; 0x2014 <main+0x1aaa>
    3da5: 20 6b 33     	jsr	$336b <textGotoXY>
    3da8: a9 20        	lda	#$20
    3daa: 92 10        	sta	($10)                   ; 0x2010 <main+0x1aa6>
    3dac: a9 00        	lda	#$0
    3dae: a0 01        	ldy	#$1
    3db0: 91 10        	sta	($10),y                 ; 0x2010 <main+0x1aa6>
    3db2: a2 cd        	ldx	#$cd
    3db4: 86 12        	stx	$12                     ; 0x2012 <main+0x1aa8>
    3db6: a2 8b        	ldx	#$8b
    3db8: 86 13        	stx	$13                     ; 0x2013 <main+0x1aa9>
    3dba: 20 64 7d     	jsr	$7d64 <printf>
    3dbd: b2 24        	lda	($24)                   ; 0x2024 <main+0x1aba>
    3dbf: 85 13        	sta	$13                     ; 0x2013 <main+0x1aa9>
    3dc1: a0 01        	ldy	#$1
    3dc3: b1 24        	lda	($24),y                 ; 0x2024 <main+0x1aba>
    3dc5: 85 12        	sta	$12                     ; 0x2012 <main+0x1aa8>
    3dc7: 18           	clc
    3dc8: a5 13        	lda	$13                     ; 0x2013 <main+0x1aa9>
    3dca: 69 e4        	adc	#$e4
    3dcc: aa           	tax
    3dcd: a5 12        	lda	$12                     ; 0x2012 <main+0x1aa8>
    3dcf: 69 11        	adc	#$11
    3dd1: 86 12        	stx	$12                     ; 0x2012 <main+0x1aa8>
    3dd3: 85 13        	sta	$13                     ; 0x2013 <main+0x1aa9>
    3dd5: b2 12        	lda	($12)                   ; 0x2012 <main+0x1aa8>
    3dd7: 85 14        	sta	$14                     ; 0x2014 <main+0x1aaa>
    3dd9: b1 12        	lda	($12),y                 ; 0x2012 <main+0x1aa8>
    3ddb: aa           	tax
    3ddc: a5 14        	lda	$14                     ; 0x2014 <main+0x1aaa>
    3dde: 1a           	inc
    3ddf: f0 03        	beq	$3de4 <pickFile+0x63d>
    3de1: 4c e8 3d     	jmp	$3de8 <pickFile+0x641>
    3de4: e8           	inx
    3de5: 4c e8 3d     	jmp	$3de8 <pickFile+0x641>
    3de8: 92 12        	sta	($12)                   ; 0x2012 <main+0x1aa8>
    3dea: 8a           	txa
    3deb: 91 12        	sta	($12),y                 ; 0x2012 <main+0x1aa8>
    3ded: b2 24        	lda	($24)                   ; 0x2024 <main+0x1aba>
    3def: 85 13        	sta	$13                     ; 0x2013 <main+0x1aa9>
    3df1: b1 24        	lda	($24),y                 ; 0x2024 <main+0x1aba>
    3df3: 85 12        	sta	$12                     ; 0x2012 <main+0x1aa8>
    3df5: 18           	clc
    3df6: a5 13        	lda	$13                     ; 0x2013 <main+0x1aa9>
    3df8: 69 e6        	adc	#$e6
    3dfa: aa           	tax
    3dfb: a5 12        	lda	$12                     ; 0x2012 <main+0x1aa8>
    3dfd: 69 11        	adc	#$11
    3dff: 86 12        	stx	$12                     ; 0x2012 <main+0x1aa8>
    3e01: 85 13        	sta	$13                     ; 0x2013 <main+0x1aa9>
    3e03: b2 12        	lda	($12)                   ; 0x2012 <main+0x1aa8>
    3e05: 85 14        	sta	$14                     ; 0x2014 <main+0x1aaa>
    3e07: b1 12        	lda	($12),y                 ; 0x2012 <main+0x1aa8>
    3e09: aa           	tax
    3e0a: a5 14        	lda	$14                     ; 0x2014 <main+0x1aaa>
    3e0c: 1a           	inc
    3e0d: f0 03        	beq	$3e12 <pickFile+0x66b>
    3e0f: 4c 16 3e     	jmp	$3e16 <pickFile+0x66f>
    3e12: e8           	inx
    3e13: 4c 16 3e     	jmp	$3e16 <pickFile+0x66f>
    3e16: 92 12        	sta	($12)                   ; 0x2012 <main+0x1aa8>
    3e18: 8a           	txa
    3e19: 91 12        	sta	($12),y                 ; 0x2012 <main+0x1aa8>
    3e1b: b2 24        	lda	($24)                   ; 0x2024 <main+0x1aba>
    3e1d: 85 12        	sta	$12                     ; 0x2012 <main+0x1aa8>
    3e1f: b1 24        	lda	($24),y                 ; 0x2024 <main+0x1aba>
    3e21: 85 13        	sta	$13                     ; 0x2013 <main+0x1aa9>
    3e23: b2 24        	lda	($24)                   ; 0x2024 <main+0x1aba>
    3e25: 85 14        	sta	$14                     ; 0x2014 <main+0x1aaa>
    3e27: b1 24        	lda	($24),y                 ; 0x2024 <main+0x1aba>
    3e29: 85 15        	sta	$15                     ; 0x2015 <main+0x1aab>
    3e2b: b2 24        	lda	($24)                   ; 0x2024 <main+0x1aba>
    3e2d: 85 16        	sta	$16                     ; 0x2016 <main+0x1aac>
    3e2f: b1 24        	lda	($24),y                 ; 0x2024 <main+0x1aba>
    3e31: 85 18        	sta	$18                     ; 0x2018 <main+0x1aae>
    3e33: a0 01        	ldy	#$1
    3e35: 18           	clc
    3e36: a5 16        	lda	$16                     ; 0x2016 <main+0x1aac>
    3e38: 69 e6        	adc	#$e6
    3e3a: 85 17        	sta	$17                     ; 0x2017 <main+0x1aad>
    3e3c: a5 18        	lda	$18                     ; 0x2018 <main+0x1aae>
    3e3e: 69 11        	adc	#$11
    3e40: aa           	tax
    3e41: b2 12        	lda	($12)                   ; 0x2012 <main+0x1aa8>
    3e43: 85 16        	sta	$16                     ; 0x2016 <main+0x1aac>
    3e45: a5 17        	lda	$17                     ; 0x2017 <main+0x1aad>
    3e47: 85 12        	sta	$12                     ; 0x2012 <main+0x1aa8>
    3e49: b1 14        	lda	($14),y                 ; 0x2014 <main+0x1aaa>
    3e4b: 86 13        	stx	$13                     ; 0x2013 <main+0x1aa9>
    3e4d: 18           	clc
    3e4e: 72 12        	adc	($12)                   ; 0x2012 <main+0x1aa8>
    3e50: aa           	tax
    3e51: a5 16        	lda	$16                     ; 0x2016 <main+0x1aac>
    3e53: 20 6b 33     	jsr	$336b <textGotoXY>
    3e56: a9 fa        	lda	#$fa
    3e58: 92 10        	sta	($10)                   ; 0x2010 <main+0x1aa6>
    3e5a: a9 00        	lda	#$0
    3e5c: a0 01        	ldy	#$1
    3e5e: 91 10        	sta	($10),y                 ; 0x2010 <main+0x1aa6>
    3e60: a2 cd        	ldx	#$cd
    3e62: 86 12        	stx	$12                     ; 0x2012 <main+0x1aa8>
    3e64: a2 8b        	ldx	#$8b
    3e66: 86 13        	stx	$13                     ; 0x2013 <main+0x1aa9>
    3e68: 20 64 7d     	jsr	$7d64 <printf>
    3e6b: 4c 2e 40     	jmp	$402e <pickFile+0x887>
    3e6e: 18           	clc
    3e6f: a5 10        	lda	$10                     ; 0x2010 <main+0x1aa6>
    3e71: 69 07        	adc	#$7
    3e73: 85 12        	sta	$12                     ; 0x2012 <main+0x1aa8>
    3e75: a5 11        	lda	$11                     ; 0x2011 <main+0x1aa7>
    3e77: 69 00        	adc	#$0
    3e79: 85 13        	sta	$13                     ; 0x2013 <main+0x1aa9>
    3e7b: b2 12        	lda	($12)                   ; 0x2012 <main+0x1aa8>
    3e7d: 85 14        	sta	$14                     ; 0x2014 <main+0x1aaa>
    3e7f: a0 01        	ldy	#$1
    3e81: b1 12        	lda	($12),y                 ; 0x2012 <main+0x1aa8>
    3e83: aa           	tax
    3e84: 18           	clc
    3e85: a5 14        	lda	$14                     ; 0x2014 <main+0x1aaa>
    3e87: 69 e6        	adc	#$e6
    3e89: 85 12        	sta	$12                     ; 0x2012 <main+0x1aa8>
    3e8b: 8a           	txa
    3e8c: 69 11        	adc	#$11
    3e8e: 85 13        	sta	$13                     ; 0x2013 <main+0x1aa9>
    3e90: b2 12        	lda	($12)                   ; 0x2012 <main+0x1aa8>
    3e92: 85 14        	sta	$14                     ; 0x2014 <main+0x1aaa>
    3e94: b1 12        	lda	($12),y                 ; 0x2012 <main+0x1aa8>
    3e96: f0 02        	beq	$3e9a <pickFile+0x6f3>
    3e98: 80 0f        	bra	$3ea9 <pickFile+0x702>
    3e9a: a6 14        	ldx	$14                     ; 0x2014 <main+0x1aaa>
    3e9c: e0 0f        	cpx	#$f
    3e9e: f0 02        	beq	$3ea2 <pickFile+0x6fb>
    3ea0: 80 02        	bra	$3ea4 <pickFile+0x6fd>
    3ea2: 80 03        	bra	$3ea7 <pickFile+0x700>
    3ea4: 4c 2e 40     	jmp	$402e <pickFile+0x887>
    3ea7: 80 03        	bra	$3eac <pickFile+0x705>
    3ea9: 4c 2e 40     	jmp	$402e <pickFile+0x887>
    3eac: 80 00        	bra	$3eae <pickFile+0x707>
    3eae: 18           	clc
    3eaf: a5 10        	lda	$10                     ; 0x2010 <main+0x1aa6>
    3eb1: 69 07        	adc	#$7
    3eb3: 85 12        	sta	$12                     ; 0x2012 <main+0x1aa8>
    3eb5: a5 11        	lda	$11                     ; 0x2011 <main+0x1aa7>
    3eb7: 69 00        	adc	#$0
    3eb9: 85 13        	sta	$13                     ; 0x2013 <main+0x1aa9>
    3ebb: b2 12        	lda	($12)                   ; 0x2012 <main+0x1aa8>
    3ebd: 85 14        	sta	$14                     ; 0x2014 <main+0x1aaa>
    3ebf: a0 01        	ldy	#$1
    3ec1: b1 12        	lda	($12),y                 ; 0x2012 <main+0x1aa8>
    3ec3: aa           	tax
    3ec4: 18           	clc
    3ec5: a5 14        	lda	$14                     ; 0x2014 <main+0x1aaa>
    3ec7: 69 e2        	adc	#$e2
    3ec9: 85 14        	sta	$14                     ; 0x2014 <main+0x1aaa>
    3ecb: 8a           	txa
    3ecc: 69 11        	adc	#$11
    3ece: 85 15        	sta	$15                     ; 0x2015 <main+0x1aab>
    3ed0: b2 12        	lda	($12)                   ; 0x2012 <main+0x1aa8>
    3ed2: 85 16        	sta	$16                     ; 0x2016 <main+0x1aac>
    3ed4: b1 12        	lda	($12),y                 ; 0x2012 <main+0x1aa8>
    3ed6: 85 12        	sta	$12                     ; 0x2012 <main+0x1aa8>
    3ed8: 18           	clc
    3ed9: a5 16        	lda	$16                     ; 0x2016 <main+0x1aac>
    3edb: 69 e4        	adc	#$e4
    3edd: aa           	tax
    3ede: a5 12        	lda	$12                     ; 0x2012 <main+0x1aa8>
    3ee0: 69 11        	adc	#$11
    3ee2: 86 12        	stx	$12                     ; 0x2012 <main+0x1aa8>
    3ee4: 85 13        	sta	$13                     ; 0x2013 <main+0x1aa9>
    3ee6: b2 12        	lda	($12)                   ; 0x2012 <main+0x1aa8>
    3ee8: 85 16        	sta	$16                     ; 0x2016 <main+0x1aac>
    3eea: b1 12        	lda	($12),y                 ; 0x2012 <main+0x1aa8>
    3eec: aa           	tax
    3eed: a5 16        	lda	$16                     ; 0x2016 <main+0x1aac>
    3eef: d2 14        	cmp	($14)                   ; 0x2014 <main+0x1aaa>
    3ef1: 8a           	txa
    3ef2: f1 14        	sbc	($14),y                 ; 0x2014 <main+0x1aaa>
    3ef4: 70 02        	bvs	$3ef8 <pickFile+0x751>
    3ef6: 80 04        	bra	$3efc <pickFile+0x755>
    3ef8: 49 80        	eor	#$80
    3efa: 80 02        	bra	$3efe <pickFile+0x757>
    3efc: 80 00        	bra	$3efe <pickFile+0x757>
    3efe: aa           	tax
    3eff: 30 03        	bmi	$3f04 <pickFile+0x75d>
    3f01: 4c 2e 40     	jmp	$402e <pickFile+0x887>
    3f04: 18           	clc
    3f05: a5 10        	lda	$10                     ; 0x2010 <main+0x1aa6>
    3f07: 69 07        	adc	#$7
    3f09: 85 24        	sta	$24                     ; 0x2024 <main+0x1aba>
    3f0b: a5 11        	lda	$11                     ; 0x2011 <main+0x1aa7>
    3f0d: 69 00        	adc	#$0
    3f0f: 85 25        	sta	$25                     ; 0x2025 <main+0x1abb>
    3f11: b2 24        	lda	($24)                   ; 0x2024 <main+0x1aba>
    3f13: 85 12        	sta	$12                     ; 0x2012 <main+0x1aa8>
    3f15: a0 01        	ldy	#$1
    3f17: b1 24        	lda	($24),y                 ; 0x2024 <main+0x1aba>
    3f19: 85 13        	sta	$13                     ; 0x2013 <main+0x1aa9>
    3f1b: b2 12        	lda	($12)                   ; 0x2012 <main+0x1aa8>
    3f1d: 85 14        	sta	$14                     ; 0x2014 <main+0x1aaa>
    3f1f: b2 24        	lda	($24)                   ; 0x2024 <main+0x1aba>
    3f21: 85 12        	sta	$12                     ; 0x2012 <main+0x1aa8>
    3f23: b1 24        	lda	($24),y                 ; 0x2024 <main+0x1aba>
    3f25: 85 13        	sta	$13                     ; 0x2013 <main+0x1aa9>
    3f27: b2 24        	lda	($24)                   ; 0x2024 <main+0x1aba>
    3f29: 85 16        	sta	$16                     ; 0x2016 <main+0x1aac>
    3f2b: b1 24        	lda	($24),y                 ; 0x2024 <main+0x1aba>
    3f2d: 85 15        	sta	$15                     ; 0x2015 <main+0x1aab>
    3f2f: 18           	clc
    3f30: a5 16        	lda	$16                     ; 0x2016 <main+0x1aac>
    3f32: 69 e6        	adc	#$e6
    3f34: aa           	tax
    3f35: a5 15        	lda	$15                     ; 0x2015 <main+0x1aab>
    3f37: 69 11        	adc	#$11
    3f39: 85 15        	sta	$15                     ; 0x2015 <main+0x1aab>
    3f3b: b1 12        	lda	($12),y                 ; 0x2012 <main+0x1aa8>
    3f3d: 86 12        	stx	$12                     ; 0x2012 <main+0x1aa8>
    3f3f: a6 15        	ldx	$15                     ; 0x2015 <main+0x1aab>
    3f41: 86 13        	stx	$13                     ; 0x2013 <main+0x1aa9>
    3f43: 18           	clc
    3f44: 72 12        	adc	($12)                   ; 0x2012 <main+0x1aa8>
    3f46: aa           	tax
    3f47: a5 14        	lda	$14                     ; 0x2014 <main+0x1aaa>
    3f49: 20 6b 33     	jsr	$336b <textGotoXY>
    3f4c: a9 20        	lda	#$20
    3f4e: 92 10        	sta	($10)                   ; 0x2010 <main+0x1aa6>
    3f50: a9 00        	lda	#$0
    3f52: a0 01        	ldy	#$1
    3f54: 91 10        	sta	($10),y                 ; 0x2010 <main+0x1aa6>
    3f56: a2 cd        	ldx	#$cd
    3f58: 86 12        	stx	$12                     ; 0x2012 <main+0x1aa8>
    3f5a: a2 8b        	ldx	#$8b
    3f5c: 86 13        	stx	$13                     ; 0x2013 <main+0x1aa9>
    3f5e: 20 64 7d     	jsr	$7d64 <printf>
    3f61: b2 24        	lda	($24)                   ; 0x2024 <main+0x1aba>
    3f63: 85 13        	sta	$13                     ; 0x2013 <main+0x1aa9>
    3f65: a0 01        	ldy	#$1
    3f67: b1 24        	lda	($24),y                 ; 0x2024 <main+0x1aba>
    3f69: 85 12        	sta	$12                     ; 0x2012 <main+0x1aa8>
    3f6b: 18           	clc
    3f6c: a5 13        	lda	$13                     ; 0x2013 <main+0x1aa9>
    3f6e: 69 e6        	adc	#$e6
    3f70: aa           	tax
    3f71: a5 12        	lda	$12                     ; 0x2012 <main+0x1aa8>
    3f73: 69 11        	adc	#$11
    3f75: 86 12        	stx	$12                     ; 0x2012 <main+0x1aa8>
    3f77: 85 13        	sta	$13                     ; 0x2013 <main+0x1aa9>
    3f79: a9 00        	lda	#$0
    3f7b: 92 12        	sta	($12)                   ; 0x2012 <main+0x1aa8>
    3f7d: 91 12        	sta	($12),y                 ; 0x2012 <main+0x1aa8>
    3f7f: b2 24        	lda	($24)                   ; 0x2024 <main+0x1aba>
    3f81: 85 13        	sta	$13                     ; 0x2013 <main+0x1aa9>
    3f83: b1 24        	lda	($24),y                 ; 0x2024 <main+0x1aba>
    3f85: 85 12        	sta	$12                     ; 0x2012 <main+0x1aa8>
    3f87: 18           	clc
    3f88: a5 13        	lda	$13                     ; 0x2013 <main+0x1aa9>
    3f8a: 69 e8        	adc	#$e8
    3f8c: aa           	tax
    3f8d: a5 12        	lda	$12                     ; 0x2012 <main+0x1aa8>
    3f8f: 69 11        	adc	#$11
    3f91: 86 12        	stx	$12                     ; 0x2012 <main+0x1aa8>
    3f93: 85 13        	sta	$13                     ; 0x2013 <main+0x1aa9>
    3f95: b2 12        	lda	($12)                   ; 0x2012 <main+0x1aa8>
    3f97: 85 15        	sta	$15                     ; 0x2015 <main+0x1aab>
    3f99: b1 12        	lda	($12),y                 ; 0x2012 <main+0x1aa8>
    3f9b: 85 14        	sta	$14                     ; 0x2014 <main+0x1aaa>
    3f9d: 18           	clc
    3f9e: a5 15        	lda	$15                     ; 0x2015 <main+0x1aab>
    3fa0: 69 0f        	adc	#$f
    3fa2: 85 15        	sta	$15                     ; 0x2015 <main+0x1aab>
    3fa4: a5 14        	lda	$14                     ; 0x2014 <main+0x1aaa>
    3fa6: 69 00        	adc	#$0
    3fa8: aa           	tax
    3fa9: a5 15        	lda	$15                     ; 0x2015 <main+0x1aab>
    3fab: 92 12        	sta	($12)                   ; 0x2012 <main+0x1aa8>
    3fad: 8a           	txa
    3fae: 91 12        	sta	($12),y                 ; 0x2012 <main+0x1aa8>
    3fb0: b2 24        	lda	($24)                   ; 0x2024 <main+0x1aba>
    3fb2: 85 12        	sta	$12                     ; 0x2012 <main+0x1aa8>
    3fb4: b1 24        	lda	($24),y                 ; 0x2024 <main+0x1aba>
    3fb6: 85 13        	sta	$13                     ; 0x2013 <main+0x1aa9>
    3fb8: b2 24        	lda	($24)                   ; 0x2024 <main+0x1aba>
    3fba: 85 15        	sta	$15                     ; 0x2015 <main+0x1aab>
    3fbc: b1 24        	lda	($24),y                 ; 0x2024 <main+0x1aba>
    3fbe: 85 14        	sta	$14                     ; 0x2014 <main+0x1aaa>
    3fc0: a0 01        	ldy	#$1
    3fc2: 18           	clc
    3fc3: a5 15        	lda	$15                     ; 0x2015 <main+0x1aab>
    3fc5: 69 e8        	adc	#$e8
    3fc7: aa           	tax
    3fc8: a5 14        	lda	$14                     ; 0x2014 <main+0x1aaa>
    3fca: 69 11        	adc	#$11
    3fcc: 86 14        	stx	$14                     ; 0x2014 <main+0x1aaa>
    3fce: 85 15        	sta	$15                     ; 0x2015 <main+0x1aab>
    3fd0: b2 14        	lda	($14)                   ; 0x2014 <main+0x1aaa>
    3fd2: 85 16        	sta	$16                     ; 0x2016 <main+0x1aac>
    3fd4: b1 14        	lda	($14),y                 ; 0x2014 <main+0x1aaa>
    3fd6: aa           	tax
    3fd7: a5 16        	lda	$16                     ; 0x2016 <main+0x1aac>
    3fd9: 20 f4 43     	jsr	$43f4 <displayFileList>
    3fdc: b2 24        	lda	($24)                   ; 0x2024 <main+0x1aba>
    3fde: 85 12        	sta	$12                     ; 0x2012 <main+0x1aa8>
    3fe0: a0 01        	ldy	#$1
    3fe2: b1 24        	lda	($24),y                 ; 0x2024 <main+0x1aba>
    3fe4: 85 13        	sta	$13                     ; 0x2013 <main+0x1aa9>
    3fe6: b2 24        	lda	($24)                   ; 0x2024 <main+0x1aba>
    3fe8: 85 14        	sta	$14                     ; 0x2014 <main+0x1aaa>
    3fea: b1 24        	lda	($24),y                 ; 0x2024 <main+0x1aba>
    3fec: 85 15        	sta	$15                     ; 0x2015 <main+0x1aab>
    3fee: b2 24        	lda	($24)                   ; 0x2024 <main+0x1aba>
    3ff0: 85 16        	sta	$16                     ; 0x2016 <main+0x1aac>
    3ff2: b1 24        	lda	($24),y                 ; 0x2024 <main+0x1aba>
    3ff4: 85 18        	sta	$18                     ; 0x2018 <main+0x1aae>
    3ff6: a0 01        	ldy	#$1
    3ff8: 18           	clc
    3ff9: a5 16        	lda	$16                     ; 0x2016 <main+0x1aac>
    3ffb: 69 e6        	adc	#$e6
    3ffd: 85 17        	sta	$17                     ; 0x2017 <main+0x1aad>
    3fff: a5 18        	lda	$18                     ; 0x2018 <main+0x1aae>
    4001: 69 11        	adc	#$11
    4003: aa           	tax
    4004: b2 12        	lda	($12)                   ; 0x2012 <main+0x1aa8>
    4006: 85 16        	sta	$16                     ; 0x2016 <main+0x1aac>
    4008: a5 17        	lda	$17                     ; 0x2017 <main+0x1aad>
    400a: 85 12        	sta	$12                     ; 0x2012 <main+0x1aa8>
    400c: b1 14        	lda	($14),y                 ; 0x2014 <main+0x1aaa>
    400e: 86 13        	stx	$13                     ; 0x2013 <main+0x1aa9>
    4010: 18           	clc
    4011: 72 12        	adc	($12)                   ; 0x2012 <main+0x1aa8>
    4013: aa           	tax
    4014: a5 16        	lda	$16                     ; 0x2016 <main+0x1aac>
    4016: 20 6b 33     	jsr	$336b <textGotoXY>
    4019: a9 fa        	lda	#$fa
    401b: 92 10        	sta	($10)                   ; 0x2010 <main+0x1aa6>
    401d: a9 00        	lda	#$0
    401f: a0 01        	ldy	#$1
    4021: 91 10        	sta	($10),y                 ; 0x2010 <main+0x1aa6>
    4023: a2 cd        	ldx	#$cd
    4025: 86 12        	stx	$12                     ; 0x2012 <main+0x1aa8>
    4027: a2 8b        	ldx	#$8b
    4029: 86 13        	stx	$13                     ; 0x2013 <main+0x1aa9>
    402b: 20 64 7d     	jsr	$7d64 <printf>
    402e: 4c b9 43     	jmp	$43b9 <pickFile+0xc12>
    4031: 18           	clc
    4032: a5 10        	lda	$10                     ; 0x2010 <main+0x1aa6>
    4034: 69 07        	adc	#$7
    4036: 85 12        	sta	$12                     ; 0x2012 <main+0x1aa8>
    4038: a5 11        	lda	$11                     ; 0x2011 <main+0x1aa7>
    403a: 69 00        	adc	#$0
    403c: 85 13        	sta	$13                     ; 0x2013 <main+0x1aa9>
    403e: b2 12        	lda	($12)                   ; 0x2012 <main+0x1aa8>
    4040: 85 14        	sta	$14                     ; 0x2014 <main+0x1aaa>
    4042: a0 01        	ldy	#$1
    4044: b1 12        	lda	($12),y                 ; 0x2012 <main+0x1aa8>
    4046: aa           	tax
    4047: 18           	clc
    4048: a5 14        	lda	$14                     ; 0x2014 <main+0x1aaa>
    404a: 69 e4        	adc	#$e4
    404c: 85 12        	sta	$12                     ; 0x2012 <main+0x1aa8>
    404e: 8a           	txa
    404f: 69 11        	adc	#$11
    4051: 85 13        	sta	$13                     ; 0x2013 <main+0x1aa9>
    4053: b2 12        	lda	($12)                   ; 0x2012 <main+0x1aa8>
    4055: 85 14        	sta	$14                     ; 0x2014 <main+0x1aaa>
    4057: b1 12        	lda	($12),y                 ; 0x2012 <main+0x1aa8>
    4059: a6 14        	ldx	$14                     ; 0x2014 <main+0x1aaa>
    405b: e0 0f        	cpx	#$f
    405d: e9 00        	sbc	#$0
    405f: 70 02        	bvs	$4063 <pickFile+0x8bc>
    4061: 80 04        	bra	$4067 <pickFile+0x8c0>
    4063: 49 80        	eor	#$80
    4065: 80 02        	bra	$4069 <pickFile+0x8c2>
    4067: 80 00        	bra	$4069 <pickFile+0x8c2>
    4069: aa           	tax
    406a: 10 03        	bpl	$406f <pickFile+0x8c8>
    406c: 4c ae 41     	jmp	$41ae <pickFile+0xa07>
    406f: 18           	clc
    4070: a5 10        	lda	$10                     ; 0x2010 <main+0x1aa6>
    4072: 69 07        	adc	#$7
    4074: 85 24        	sta	$24                     ; 0x2024 <main+0x1aba>
    4076: a5 11        	lda	$11                     ; 0x2011 <main+0x1aa7>
    4078: 69 00        	adc	#$0
    407a: 85 25        	sta	$25                     ; 0x2025 <main+0x1abb>
    407c: b2 24        	lda	($24)                   ; 0x2024 <main+0x1aba>
    407e: 85 12        	sta	$12                     ; 0x2012 <main+0x1aa8>
    4080: a0 01        	ldy	#$1
    4082: b1 24        	lda	($24),y                 ; 0x2024 <main+0x1aba>
    4084: 85 13        	sta	$13                     ; 0x2013 <main+0x1aa9>
    4086: b2 12        	lda	($12)                   ; 0x2012 <main+0x1aa8>
    4088: 85 14        	sta	$14                     ; 0x2014 <main+0x1aaa>
    408a: b2 24        	lda	($24)                   ; 0x2024 <main+0x1aba>
    408c: 85 12        	sta	$12                     ; 0x2012 <main+0x1aa8>
    408e: b1 24        	lda	($24),y                 ; 0x2024 <main+0x1aba>
    4090: 85 13        	sta	$13                     ; 0x2013 <main+0x1aa9>
    4092: b2 24        	lda	($24)                   ; 0x2024 <main+0x1aba>
    4094: 85 16        	sta	$16                     ; 0x2016 <main+0x1aac>
    4096: b1 24        	lda	($24),y                 ; 0x2024 <main+0x1aba>
    4098: 85 15        	sta	$15                     ; 0x2015 <main+0x1aab>
    409a: 18           	clc
    409b: a5 16        	lda	$16                     ; 0x2016 <main+0x1aac>
    409d: 69 e6        	adc	#$e6
    409f: aa           	tax
    40a0: a5 15        	lda	$15                     ; 0x2015 <main+0x1aab>
    40a2: 69 11        	adc	#$11
    40a4: 85 15        	sta	$15                     ; 0x2015 <main+0x1aab>
    40a6: b1 12        	lda	($12),y                 ; 0x2012 <main+0x1aa8>
    40a8: 86 12        	stx	$12                     ; 0x2012 <main+0x1aa8>
    40aa: a6 15        	ldx	$15                     ; 0x2015 <main+0x1aab>
    40ac: 86 13        	stx	$13                     ; 0x2013 <main+0x1aa9>
    40ae: 18           	clc
    40af: 72 12        	adc	($12)                   ; 0x2012 <main+0x1aa8>
    40b1: aa           	tax
    40b2: a5 14        	lda	$14                     ; 0x2014 <main+0x1aaa>
    40b4: 20 6b 33     	jsr	$336b <textGotoXY>
    40b7: a9 20        	lda	#$20
    40b9: 92 10        	sta	($10)                   ; 0x2010 <main+0x1aa6>
    40bb: a9 00        	lda	#$0
    40bd: a0 01        	ldy	#$1
    40bf: 91 10        	sta	($10),y                 ; 0x2010 <main+0x1aa6>
    40c1: a2 cd        	ldx	#$cd
    40c3: 86 12        	stx	$12                     ; 0x2012 <main+0x1aa8>
    40c5: a2 8b        	ldx	#$8b
    40c7: 86 13        	stx	$13                     ; 0x2013 <main+0x1aa9>
    40c9: 20 64 7d     	jsr	$7d64 <printf>
    40cc: b2 24        	lda	($24)                   ; 0x2024 <main+0x1aba>
    40ce: 85 13        	sta	$13                     ; 0x2013 <main+0x1aa9>
    40d0: a0 01        	ldy	#$1
    40d2: b1 24        	lda	($24),y                 ; 0x2024 <main+0x1aba>
    40d4: 85 12        	sta	$12                     ; 0x2012 <main+0x1aa8>
    40d6: 18           	clc
    40d7: a5 13        	lda	$13                     ; 0x2013 <main+0x1aa9>
    40d9: 69 e4        	adc	#$e4
    40db: aa           	tax
    40dc: a5 12        	lda	$12                     ; 0x2012 <main+0x1aa8>
    40de: 69 11        	adc	#$11
    40e0: 86 12        	stx	$12                     ; 0x2012 <main+0x1aa8>
    40e2: 85 13        	sta	$13                     ; 0x2013 <main+0x1aa9>
    40e4: b2 12        	lda	($12)                   ; 0x2012 <main+0x1aa8>
    40e6: 85 15        	sta	$15                     ; 0x2015 <main+0x1aab>
    40e8: b1 12        	lda	($12),y                 ; 0x2012 <main+0x1aa8>
    40ea: 85 14        	sta	$14                     ; 0x2014 <main+0x1aaa>
    40ec: 18           	clc
    40ed: a5 15        	lda	$15                     ; 0x2015 <main+0x1aab>
    40ef: 69 f1        	adc	#$f1
    40f1: 85 15        	sta	$15                     ; 0x2015 <main+0x1aab>
    40f3: a5 14        	lda	$14                     ; 0x2014 <main+0x1aaa>
    40f5: 69 ff        	adc	#$ff
    40f7: aa           	tax
    40f8: a5 15        	lda	$15                     ; 0x2015 <main+0x1aab>
    40fa: 92 12        	sta	($12)                   ; 0x2012 <main+0x1aa8>
    40fc: 8a           	txa
    40fd: 91 12        	sta	($12),y                 ; 0x2012 <main+0x1aa8>
    40ff: b2 24        	lda	($24)                   ; 0x2024 <main+0x1aba>
    4101: 85 13        	sta	$13                     ; 0x2013 <main+0x1aa9>
    4103: b1 24        	lda	($24),y                 ; 0x2024 <main+0x1aba>
    4105: 85 12        	sta	$12                     ; 0x2012 <main+0x1aa8>
    4107: 18           	clc
    4108: a5 13        	lda	$13                     ; 0x2013 <main+0x1aa9>
    410a: 69 e8        	adc	#$e8
    410c: aa           	tax
    410d: a5 12        	lda	$12                     ; 0x2012 <main+0x1aa8>
    410f: 69 11        	adc	#$11
    4111: 86 12        	stx	$12                     ; 0x2012 <main+0x1aa8>
    4113: 85 13        	sta	$13                     ; 0x2013 <main+0x1aa9>
    4115: b2 12        	lda	($12)                   ; 0x2012 <main+0x1aa8>
    4117: 85 15        	sta	$15                     ; 0x2015 <main+0x1aab>
    4119: b1 12        	lda	($12),y                 ; 0x2012 <main+0x1aa8>
    411b: 85 14        	sta	$14                     ; 0x2014 <main+0x1aaa>
    411d: 18           	clc
    411e: a5 15        	lda	$15                     ; 0x2015 <main+0x1aab>
    4120: 69 f1        	adc	#$f1
    4122: 85 15        	sta	$15                     ; 0x2015 <main+0x1aab>
    4124: a5 14        	lda	$14                     ; 0x2014 <main+0x1aaa>
    4126: 69 ff        	adc	#$ff
    4128: aa           	tax
    4129: a5 15        	lda	$15                     ; 0x2015 <main+0x1aab>
    412b: 92 12        	sta	($12)                   ; 0x2012 <main+0x1aa8>
    412d: 8a           	txa
    412e: 91 12        	sta	($12),y                 ; 0x2012 <main+0x1aa8>
    4130: b2 24        	lda	($24)                   ; 0x2024 <main+0x1aba>
    4132: 85 12        	sta	$12                     ; 0x2012 <main+0x1aa8>
    4134: b1 24        	lda	($24),y                 ; 0x2024 <main+0x1aba>
    4136: 85 13        	sta	$13                     ; 0x2013 <main+0x1aa9>
    4138: b2 24        	lda	($24)                   ; 0x2024 <main+0x1aba>
    413a: 85 15        	sta	$15                     ; 0x2015 <main+0x1aab>
    413c: b1 24        	lda	($24),y                 ; 0x2024 <main+0x1aba>
    413e: 85 14        	sta	$14                     ; 0x2014 <main+0x1aaa>
    4140: a0 01        	ldy	#$1
    4142: 18           	clc
    4143: a5 15        	lda	$15                     ; 0x2015 <main+0x1aab>
    4145: 69 e8        	adc	#$e8
    4147: aa           	tax
    4148: a5 14        	lda	$14                     ; 0x2014 <main+0x1aaa>
    414a: 69 11        	adc	#$11
    414c: 86 14        	stx	$14                     ; 0x2014 <main+0x1aaa>
    414e: 85 15        	sta	$15                     ; 0x2015 <main+0x1aab>
    4150: b2 14        	lda	($14)                   ; 0x2014 <main+0x1aaa>
    4152: 85 16        	sta	$16                     ; 0x2016 <main+0x1aac>
    4154: b1 14        	lda	($14),y                 ; 0x2014 <main+0x1aaa>
    4156: aa           	tax
    4157: a5 16        	lda	$16                     ; 0x2016 <main+0x1aac>
    4159: 20 f4 43     	jsr	$43f4 <displayFileList>
    415c: b2 24        	lda	($24)                   ; 0x2024 <main+0x1aba>
    415e: 85 12        	sta	$12                     ; 0x2012 <main+0x1aa8>
    4160: a0 01        	ldy	#$1
    4162: b1 24        	lda	($24),y                 ; 0x2024 <main+0x1aba>
    4164: 85 13        	sta	$13                     ; 0x2013 <main+0x1aa9>
    4166: b2 24        	lda	($24)                   ; 0x2024 <main+0x1aba>
    4168: 85 14        	sta	$14                     ; 0x2014 <main+0x1aaa>
    416a: b1 24        	lda	($24),y                 ; 0x2024 <main+0x1aba>
    416c: 85 15        	sta	$15                     ; 0x2015 <main+0x1aab>
    416e: b2 24        	lda	($24)                   ; 0x2024 <main+0x1aba>
    4170: 85 16        	sta	$16                     ; 0x2016 <main+0x1aac>
    4172: b1 24        	lda	($24),y                 ; 0x2024 <main+0x1aba>
    4174: 85 18        	sta	$18                     ; 0x2018 <main+0x1aae>
    4176: a0 01        	ldy	#$1
    4178: 18           	clc
    4179: a5 16        	lda	$16                     ; 0x2016 <main+0x1aac>
    417b: 69 e6        	adc	#$e6
    417d: 85 17        	sta	$17                     ; 0x2017 <main+0x1aad>
    417f: a5 18        	lda	$18                     ; 0x2018 <main+0x1aae>
    4181: 69 11        	adc	#$11
    4183: aa           	tax
    4184: b2 12        	lda	($12)                   ; 0x2012 <main+0x1aa8>
    4186: 85 16        	sta	$16                     ; 0x2016 <main+0x1aac>
    4188: a5 17        	lda	$17                     ; 0x2017 <main+0x1aad>
    418a: 85 12        	sta	$12                     ; 0x2012 <main+0x1aa8>
    418c: b1 14        	lda	($14),y                 ; 0x2014 <main+0x1aaa>
    418e: 86 13        	stx	$13                     ; 0x2013 <main+0x1aa9>
    4190: 18           	clc
    4191: 72 12        	adc	($12)                   ; 0x2012 <main+0x1aa8>
    4193: aa           	tax
    4194: a5 16        	lda	$16                     ; 0x2016 <main+0x1aac>
    4196: 20 6b 33     	jsr	$336b <textGotoXY>
    4199: a9 fa        	lda	#$fa
    419b: 92 10        	sta	($10)                   ; 0x2010 <main+0x1aa6>
    419d: a9 00        	lda	#$0
    419f: a0 01        	ldy	#$1
    41a1: 91 10        	sta	($10),y                 ; 0x2010 <main+0x1aa6>
    41a3: a2 cd        	ldx	#$cd
    41a5: 86 12        	stx	$12                     ; 0x2012 <main+0x1aa8>
    41a7: a2 8b        	ldx	#$8b
    41a9: 86 13        	stx	$13                     ; 0x2013 <main+0x1aa9>
    41ab: 20 64 7d     	jsr	$7d64 <printf>
    41ae: 4c b9 43     	jmp	$43b9 <pickFile+0xc12>
    41b1: 18           	clc
    41b2: a5 10        	lda	$10                     ; 0x2010 <main+0x1aa6>
    41b4: 69 07        	adc	#$7
    41b6: 85 14        	sta	$14                     ; 0x2014 <main+0x1aaa>
    41b8: a5 11        	lda	$11                     ; 0x2011 <main+0x1aa7>
    41ba: 69 00        	adc	#$0
    41bc: 85 15        	sta	$15                     ; 0x2015 <main+0x1aab>
    41be: b2 14        	lda	($14)                   ; 0x2014 <main+0x1aaa>
    41c0: 85 12        	sta	$12                     ; 0x2012 <main+0x1aa8>
    41c2: a0 01        	ldy	#$1
    41c4: b1 14        	lda	($14),y                 ; 0x2014 <main+0x1aaa>
    41c6: aa           	tax
    41c7: 18           	clc
    41c8: a5 12        	lda	$12                     ; 0x2012 <main+0x1aa8>
    41ca: 69 e2        	adc	#$e2
    41cc: 85 12        	sta	$12                     ; 0x2012 <main+0x1aa8>
    41ce: 8a           	txa
    41cf: 69 11        	adc	#$11
    41d1: 85 13        	sta	$13                     ; 0x2013 <main+0x1aa9>
    41d3: b2 14        	lda	($14)                   ; 0x2014 <main+0x1aaa>
    41d5: 85 17        	sta	$17                     ; 0x2017 <main+0x1aad>
    41d7: b1 14        	lda	($14),y                 ; 0x2014 <main+0x1aaa>
    41d9: 85 16        	sta	$16                     ; 0x2016 <main+0x1aac>
    41db: 18           	clc
    41dc: a5 17        	lda	$17                     ; 0x2017 <main+0x1aad>
    41de: 69 e4        	adc	#$e4
    41e0: aa           	tax
    41e1: a5 16        	lda	$16                     ; 0x2016 <main+0x1aac>
    41e3: 69 11        	adc	#$11
    41e5: 86 16        	stx	$16                     ; 0x2016 <main+0x1aac>
    41e7: 85 17        	sta	$17                     ; 0x2017 <main+0x1aad>
    41e9: b2 16        	lda	($16)                   ; 0x2016 <main+0x1aac>
    41eb: 85 18        	sta	$18                     ; 0x2018 <main+0x1aae>
    41ed: b2 14        	lda	($14)                   ; 0x2014 <main+0x1aaa>
    41ef: 85 19        	sta	$19                     ; 0x2019 <main+0x1aaf>
    41f1: b1 14        	lda	($14),y                 ; 0x2014 <main+0x1aaa>
    41f3: 85 15        	sta	$15                     ; 0x2015 <main+0x1aab>
    41f5: 18           	clc
    41f6: a5 19        	lda	$19                     ; 0x2019 <main+0x1aaf>
    41f8: 69 e6        	adc	#$e6
    41fa: 85 14        	sta	$14                     ; 0x2014 <main+0x1aaa>
    41fc: a5 15        	lda	$15                     ; 0x2015 <main+0x1aab>
    41fe: 69 11        	adc	#$11
    4200: 85 15        	sta	$15                     ; 0x2015 <main+0x1aab>
    4202: b1 16        	lda	($16),y                 ; 0x2016 <main+0x1aac>
    4204: 85 17        	sta	$17                     ; 0x2017 <main+0x1aad>
    4206: 38           	sec
    4207: a5 18        	lda	$18                     ; 0x2018 <main+0x1aae>
    4209: f2 14        	sbc	($14)                   ; 0x2014 <main+0x1aaa>
    420b: 85 16        	sta	$16                     ; 0x2016 <main+0x1aac>
    420d: a5 17        	lda	$17                     ; 0x2017 <main+0x1aad>
    420f: f1 14        	sbc	($14),y                 ; 0x2014 <main+0x1aaa>
    4211: 85 15        	sta	$15                     ; 0x2015 <main+0x1aab>
    4213: 18           	clc
    4214: a5 16        	lda	$16                     ; 0x2016 <main+0x1aac>
    4216: 69 10        	adc	#$10
    4218: 85 14        	sta	$14                     ; 0x2014 <main+0x1aaa>
    421a: a5 15        	lda	$15                     ; 0x2015 <main+0x1aab>
    421c: 69 00        	adc	#$0
    421e: aa           	tax
    421f: a5 14        	lda	$14                     ; 0x2014 <main+0x1aaa>
    4221: d2 12        	cmp	($12)                   ; 0x2012 <main+0x1aa8>
    4223: 8a           	txa
    4224: f1 12        	sbc	($12),y                 ; 0x2012 <main+0x1aa8>
    4226: 70 02        	bvs	$422a <pickFile+0xa83>
    4228: 80 04        	bra	$422e <pickFile+0xa87>
    422a: 49 80        	eor	#$80
    422c: 80 02        	bra	$4230 <pickFile+0xa89>
    422e: 80 00        	bra	$4230 <pickFile+0xa89>
    4230: aa           	tax
    4231: 30 03        	bmi	$4236 <pickFile+0xa8f>
    4233: 4c b9 43     	jmp	$43b9 <pickFile+0xc12>
    4236: 18           	clc
    4237: a5 10        	lda	$10                     ; 0x2010 <main+0x1aa6>
    4239: 69 07        	adc	#$7
    423b: 85 24        	sta	$24                     ; 0x2024 <main+0x1aba>
    423d: a5 11        	lda	$11                     ; 0x2011 <main+0x1aa7>
    423f: 69 00        	adc	#$0
    4241: 85 25        	sta	$25                     ; 0x2025 <main+0x1abb>
    4243: b2 24        	lda	($24)                   ; 0x2024 <main+0x1aba>
    4245: 85 12        	sta	$12                     ; 0x2012 <main+0x1aa8>
    4247: a0 01        	ldy	#$1
    4249: b1 24        	lda	($24),y                 ; 0x2024 <main+0x1aba>
    424b: 85 13        	sta	$13                     ; 0x2013 <main+0x1aa9>
    424d: b2 12        	lda	($12)                   ; 0x2012 <main+0x1aa8>
    424f: 85 14        	sta	$14                     ; 0x2014 <main+0x1aaa>
    4251: b2 24        	lda	($24)                   ; 0x2024 <main+0x1aba>
    4253: 85 12        	sta	$12                     ; 0x2012 <main+0x1aa8>
    4255: b1 24        	lda	($24),y                 ; 0x2024 <main+0x1aba>
    4257: 85 13        	sta	$13                     ; 0x2013 <main+0x1aa9>
    4259: b2 24        	lda	($24)                   ; 0x2024 <main+0x1aba>
    425b: 85 16        	sta	$16                     ; 0x2016 <main+0x1aac>
    425d: b1 24        	lda	($24),y                 ; 0x2024 <main+0x1aba>
    425f: 85 15        	sta	$15                     ; 0x2015 <main+0x1aab>
    4261: 18           	clc
    4262: a5 16        	lda	$16                     ; 0x2016 <main+0x1aac>
    4264: 69 e6        	adc	#$e6
    4266: aa           	tax
    4267: a5 15        	lda	$15                     ; 0x2015 <main+0x1aab>
    4269: 69 11        	adc	#$11
    426b: 85 15        	sta	$15                     ; 0x2015 <main+0x1aab>
    426d: b1 12        	lda	($12),y                 ; 0x2012 <main+0x1aa8>
    426f: 86 12        	stx	$12                     ; 0x2012 <main+0x1aa8>
    4271: a6 15        	ldx	$15                     ; 0x2015 <main+0x1aab>
    4273: 86 13        	stx	$13                     ; 0x2013 <main+0x1aa9>
    4275: 18           	clc
    4276: 72 12        	adc	($12)                   ; 0x2012 <main+0x1aa8>
    4278: aa           	tax
    4279: a5 14        	lda	$14                     ; 0x2014 <main+0x1aaa>
    427b: 20 6b 33     	jsr	$336b <textGotoXY>
    427e: a9 20        	lda	#$20
    4280: 92 10        	sta	($10)                   ; 0x2010 <main+0x1aa6>
    4282: a9 00        	lda	#$0
    4284: a0 01        	ldy	#$1
    4286: 91 10        	sta	($10),y                 ; 0x2010 <main+0x1aa6>
    4288: a2 cd        	ldx	#$cd
    428a: 86 12        	stx	$12                     ; 0x2012 <main+0x1aa8>
    428c: a2 8b        	ldx	#$8b
    428e: 86 13        	stx	$13                     ; 0x2013 <main+0x1aa9>
    4290: 20 64 7d     	jsr	$7d64 <printf>
    4293: b2 24        	lda	($24)                   ; 0x2024 <main+0x1aba>
    4295: 85 13        	sta	$13                     ; 0x2013 <main+0x1aa9>
    4297: a0 01        	ldy	#$1
    4299: b1 24        	lda	($24),y                 ; 0x2024 <main+0x1aba>
    429b: 85 12        	sta	$12                     ; 0x2012 <main+0x1aa8>
    429d: 18           	clc
    429e: a5 13        	lda	$13                     ; 0x2013 <main+0x1aa9>
    42a0: 69 e6        	adc	#$e6
    42a2: aa           	tax
    42a3: a5 12        	lda	$12                     ; 0x2012 <main+0x1aa8>
    42a5: 69 11        	adc	#$11
    42a7: 86 12        	stx	$12                     ; 0x2012 <main+0x1aa8>
    42a9: 85 13        	sta	$13                     ; 0x2013 <main+0x1aa9>
    42ab: 38           	sec
    42ac: a9 0f        	lda	#$f
    42ae: f2 12        	sbc	($12)                   ; 0x2012 <main+0x1aa8>
    42b0: aa           	tax
    42b1: a9 00        	lda	#$0
    42b3: f1 12        	sbc	($12),y                 ; 0x2012 <main+0x1aa8>
    42b5: 85 15        	sta	$15                     ; 0x2015 <main+0x1aab>
    42b7: b2 24        	lda	($24)                   ; 0x2024 <main+0x1aba>
    42b9: 85 13        	sta	$13                     ; 0x2013 <main+0x1aa9>
    42bb: b1 24        	lda	($24),y                 ; 0x2024 <main+0x1aba>
    42bd: 85 12        	sta	$12                     ; 0x2012 <main+0x1aa8>
    42bf: 18           	clc
    42c0: a5 13        	lda	$13                     ; 0x2013 <main+0x1aa9>
    42c2: 69 e4        	adc	#$e4
    42c4: 85 14        	sta	$14                     ; 0x2014 <main+0x1aaa>
    42c6: a5 12        	lda	$12                     ; 0x2012 <main+0x1aa8>
    42c8: 69 11        	adc	#$11
    42ca: 5a           	phy
    42cb: a4 14        	ldy	$14                     ; 0x2014 <main+0x1aaa>
    42cd: 84 12        	sty	$12                     ; 0x2012 <main+0x1aa8>
    42cf: 7a           	ply
    42d0: 85 13        	sta	$13                     ; 0x2013 <main+0x1aa9>
    42d2: 18           	clc
    42d3: 8a           	txa
    42d4: 72 12        	adc	($12)                   ; 0x2012 <main+0x1aa8>
    42d6: 85 14        	sta	$14                     ; 0x2014 <main+0x1aaa>
    42d8: a5 15        	lda	$15                     ; 0x2015 <main+0x1aab>
    42da: 71 12        	adc	($12),y                 ; 0x2012 <main+0x1aa8>
    42dc: 85 15        	sta	$15                     ; 0x2015 <main+0x1aab>
    42de: a5 14        	lda	$14                     ; 0x2014 <main+0x1aaa>
    42e0: 92 12        	sta	($12)                   ; 0x2012 <main+0x1aa8>
    42e2: a5 15        	lda	$15                     ; 0x2015 <main+0x1aab>
    42e4: 91 12        	sta	($12),y                 ; 0x2012 <main+0x1aa8>
    42e6: b2 24        	lda	($24)                   ; 0x2024 <main+0x1aba>
    42e8: 85 13        	sta	$13                     ; 0x2013 <main+0x1aa9>
    42ea: b1 24        	lda	($24),y                 ; 0x2024 <main+0x1aba>
    42ec: 85 12        	sta	$12                     ; 0x2012 <main+0x1aa8>
    42ee: 18           	clc
    42ef: a5 13        	lda	$13                     ; 0x2013 <main+0x1aa9>
    42f1: 69 e6        	adc	#$e6
    42f3: aa           	tax
    42f4: a5 12        	lda	$12                     ; 0x2012 <main+0x1aa8>
    42f6: 69 11        	adc	#$11
    42f8: 86 12        	stx	$12                     ; 0x2012 <main+0x1aa8>
    42fa: 85 13        	sta	$13                     ; 0x2013 <main+0x1aa9>
    42fc: a9 00        	lda	#$0
    42fe: 92 12        	sta	($12)                   ; 0x2012 <main+0x1aa8>
    4300: 91 12        	sta	($12),y                 ; 0x2012 <main+0x1aa8>
    4302: b2 24        	lda	($24)                   ; 0x2024 <main+0x1aba>
    4304: 85 13        	sta	$13                     ; 0x2013 <main+0x1aa9>
    4306: b1 24        	lda	($24),y                 ; 0x2024 <main+0x1aba>
    4308: 85 12        	sta	$12                     ; 0x2012 <main+0x1aa8>
    430a: 18           	clc
    430b: a5 13        	lda	$13                     ; 0x2013 <main+0x1aa9>
    430d: 69 e8        	adc	#$e8
    430f: aa           	tax
    4310: a5 12        	lda	$12                     ; 0x2012 <main+0x1aa8>
    4312: 69 11        	adc	#$11
    4314: 86 12        	stx	$12                     ; 0x2012 <main+0x1aa8>
    4316: 85 13        	sta	$13                     ; 0x2013 <main+0x1aa9>
    4318: b2 12        	lda	($12)                   ; 0x2012 <main+0x1aa8>
    431a: 85 15        	sta	$15                     ; 0x2015 <main+0x1aab>
    431c: b1 12        	lda	($12),y                 ; 0x2012 <main+0x1aa8>
    431e: 85 14        	sta	$14                     ; 0x2014 <main+0x1aaa>
    4320: 18           	clc
    4321: a5 15        	lda	$15                     ; 0x2015 <main+0x1aab>
    4323: 69 0f        	adc	#$f
    4325: 85 15        	sta	$15                     ; 0x2015 <main+0x1aab>
    4327: a5 14        	lda	$14                     ; 0x2014 <main+0x1aaa>
    4329: 69 00        	adc	#$0
    432b: aa           	tax
    432c: a5 15        	lda	$15                     ; 0x2015 <main+0x1aab>
    432e: 92 12        	sta	($12)                   ; 0x2012 <main+0x1aa8>
    4330: 8a           	txa
    4331: 91 12        	sta	($12),y                 ; 0x2012 <main+0x1aa8>
    4333: b2 24        	lda	($24)                   ; 0x2024 <main+0x1aba>
    4335: 85 12        	sta	$12                     ; 0x2012 <main+0x1aa8>
    4337: b1 24        	lda	($24),y                 ; 0x2024 <main+0x1aba>
    4339: 85 13        	sta	$13                     ; 0x2013 <main+0x1aa9>
    433b: b2 24        	lda	($24)                   ; 0x2024 <main+0x1aba>
    433d: 85 15        	sta	$15                     ; 0x2015 <main+0x1aab>
    433f: b1 24        	lda	($24),y                 ; 0x2024 <main+0x1aba>
    4341: 85 14        	sta	$14                     ; 0x2014 <main+0x1aaa>
    4343: a0 01        	ldy	#$1
    4345: 18           	clc
    4346: a5 15        	lda	$15                     ; 0x2015 <main+0x1aab>
    4348: 69 e8        	adc	#$e8
    434a: aa           	tax
    434b: a5 14        	lda	$14                     ; 0x2014 <main+0x1aaa>
    434d: 69 11        	adc	#$11
    434f: 86 14        	stx	$14                     ; 0x2014 <main+0x1aaa>
    4351: 85 15        	sta	$15                     ; 0x2015 <main+0x1aab>
    4353: b2 14        	lda	($14)                   ; 0x2014 <main+0x1aaa>
    4355: 85 16        	sta	$16                     ; 0x2016 <main+0x1aac>
    4357: b1 14        	lda	($14),y                 ; 0x2014 <main+0x1aaa>
    4359: aa           	tax
    435a: a5 16        	lda	$16                     ; 0x2016 <main+0x1aac>
    435c: 20 f4 43     	jsr	$43f4 <displayFileList>
    435f: b2 24        	lda	($24)                   ; 0x2024 <main+0x1aba>
    4361: 85 12        	sta	$12                     ; 0x2012 <main+0x1aa8>
    4363: a0 01        	ldy	#$1
    4365: b1 24        	lda	($24),y                 ; 0x2024 <main+0x1aba>
    4367: 85 13        	sta	$13                     ; 0x2013 <main+0x1aa9>
    4369: b2 24        	lda	($24)                   ; 0x2024 <main+0x1aba>
    436b: 85 14        	sta	$14                     ; 0x2014 <main+0x1aaa>
    436d: b1 24        	lda	($24),y                 ; 0x2024 <main+0x1aba>
    436f: 85 15        	sta	$15                     ; 0x2015 <main+0x1aab>
    4371: b2 24        	lda	($24)                   ; 0x2024 <main+0x1aba>
    4373: 85 16        	sta	$16                     ; 0x2016 <main+0x1aac>
    4375: b1 24        	lda	($24),y                 ; 0x2024 <main+0x1aba>
    4377: 85 18        	sta	$18                     ; 0x2018 <main+0x1aae>
    4379: a0 01        	ldy	#$1
    437b: a2 08        	ldx	#$8
    437d: 86 26        	stx	$26                     ; 0x2026 <main+0x1abc>
    437f: a2 00        	ldx	#$0
    4381: 86 27        	stx	$27                     ; 0x2027 <main+0x1abd>
    4383: 18           	clc
    4384: a5 16        	lda	$16                     ; 0x2016 <main+0x1aac>
    4386: 69 e6        	adc	#$e6
    4388: 85 17        	sta	$17                     ; 0x2017 <main+0x1aad>
    438a: a5 18        	lda	$18                     ; 0x2018 <main+0x1aae>
    438c: 69 11        	adc	#$11
    438e: aa           	tax
    438f: b2 12        	lda	($12)                   ; 0x2012 <main+0x1aa8>
    4391: 85 16        	sta	$16                     ; 0x2016 <main+0x1aac>
    4393: a5 17        	lda	$17                     ; 0x2017 <main+0x1aad>
    4395: 85 12        	sta	$12                     ; 0x2012 <main+0x1aa8>
    4397: b1 14        	lda	($14),y                 ; 0x2014 <main+0x1aaa>
    4399: 86 13        	stx	$13                     ; 0x2013 <main+0x1aa9>
    439b: 18           	clc
    439c: 72 12        	adc	($12)                   ; 0x2012 <main+0x1aa8>
    439e: aa           	tax
    439f: a5 16        	lda	$16                     ; 0x2016 <main+0x1aac>
    43a1: 20 6b 33     	jsr	$336b <textGotoXY>
    43a4: a9 fa        	lda	#$fa
    43a6: 92 10        	sta	($10)                   ; 0x2010 <main+0x1aa6>
    43a8: a9 00        	lda	#$0
    43aa: a0 01        	ldy	#$1
    43ac: 91 10        	sta	($10),y                 ; 0x2010 <main+0x1aa6>
    43ae: a2 cd        	ldx	#$cd
    43b0: 86 12        	stx	$12                     ; 0x2012 <main+0x1aa8>
    43b2: a2 8b        	ldx	#$8b
    43b4: 86 13        	stx	$13                     ; 0x2013 <main+0x1aa9>
    43b6: 20 64 7d     	jsr	$7d64 <printf>
    43b9: 4c eb 37     	jmp	$37eb <pickFile+0x44>
    43bc: 18           	clc
    43bd: a5 10        	lda	$10                     ; 0x2010 <main+0x1aa6>
    43bf: 69 09        	adc	#$9
    43c1: 85 12        	sta	$12                     ; 0x2012 <main+0x1aa8>
    43c3: a5 11        	lda	$11                     ; 0x2011 <main+0x1aa7>
    43c5: 69 00        	adc	#$0
    43c7: 85 13        	sta	$13                     ; 0x2013 <main+0x1aa9>
    43c9: b2 12        	lda	($12)                   ; 0x2012 <main+0x1aa8>
    43cb: 85 20        	sta	$20                     ; 0x2020 <main+0x1ab6>
    43cd: a0 02        	ldy	#$2
    43cf: b1 10        	lda	($10),y                 ; 0x2010 <main+0x1aa6>
    43d1: 85 29        	sta	$29                     ; 0x2029 <main+0x1abf>
    43d3: c8           	iny
    43d4: b1 10        	lda	($10),y                 ; 0x2010 <main+0x1aa6>
    43d6: 85 28        	sta	$28                     ; 0x2028 <main+0x1abe>
    43d8: fa           	plx
    43d9: 86 27        	stx	$27                     ; 0x2027 <main+0x1abd>
    43db: fa           	plx
    43dc: 86 26        	stx	$26                     ; 0x2026 <main+0x1abc>
    43de: fa           	plx
    43df: 86 25        	stx	$25                     ; 0x2025 <main+0x1abb>
    43e1: fa           	plx
    43e2: 86 24        	stx	$24                     ; 0x2024 <main+0x1aba>
    43e4: 18           	clc
    43e5: a5 10        	lda	$10                     ; 0x2010 <main+0x1aa6>
    43e7: 69 0a        	adc	#$a
    43e9: 85 10        	sta	$10                     ; 0x2010 <main+0x1aa6>
    43eb: a5 11        	lda	$11                     ; 0x2011 <main+0x1aa7>
    43ed: 69 00        	adc	#$0
    43ef: 85 11        	sta	$11                     ; 0x2011 <main+0x1aa7>
    43f1: a5 20        	lda	$20                     ; 0x2020 <main+0x1ab6>
    43f3: 60           	rts

000043f4 <displayFileList>:
    43f4: 48           	pha
    43f5: 18           	clc
    43f6: a5 10        	lda	$10                     ; 0x2010 <main+0x1aa6>
    43f8: 69 fa        	adc	#$fa
    43fa: 85 10        	sta	$10                     ; 0x2010 <main+0x1aa6>
    43fc: a5 11        	lda	$11                     ; 0x2011 <main+0x1aa7>
    43fe: 69 ff        	adc	#$ff
    4400: 85 11        	sta	$11                     ; 0x2011 <main+0x1aa7>
    4402: 68           	pla
    4403: 86 7c        	stx	$7c                     ; 0x207c <main+0x1b12>
    4405: a6 12        	ldx	$12                     ; 0x2012 <main+0x1aa8>
    4407: 86 76        	stx	$76                     ; 0x2076 <main+0x1b0c>
    4409: a6 13        	ldx	$13                     ; 0x2013 <main+0x1aa9>
    440b: 86 77        	stx	$77                     ; 0x2077 <main+0x1b0d>
    440d: aa           	tax
    440e: 18           	clc
    440f: 85 88        	sta	$88                     ; 0x2088 <main+0x1b1e>
    4411: 69 10        	adc	#$10
    4413: 85 13        	sta	$13                     ; 0x2013 <main+0x1aa9>
    4415: a5 7c        	lda	$7c                     ; 0x207c <main+0x1b12>
    4417: 69 00        	adc	#$0
    4419: 85 14        	sta	$14                     ; 0x2014 <main+0x1aaa>
    441b: a5 76        	lda	$76                     ; 0x2076 <main+0x1b0c>
    441d: 18           	clc
    441e: 69 e2        	adc	#$e2
    4420: 85 7a        	sta	$7a                     ; 0x207a <main+0x1b10>
    4422: a5 77        	lda	$77                     ; 0x2077 <main+0x1b0d>
    4424: 69 11        	adc	#$11
    4426: a4 7c        	ldy	$7c                     ; 0x207c <main+0x1b12>
    4428: 84 78        	sty	$78                     ; 0x2078 <main+0x1b0e>
    442a: e8           	inx
    442b: d0 02        	bne	$442f <displayFileList+0x3b>
    442d: e6 78        	inc	$78                     ; 0x2078 <main+0x1b0e>
    442f: 85 7b        	sta	$7b                     ; 0x207b <main+0x1b11>
    4431: a0 01        	ldy	#$1
    4433: b1 7a        	lda	($7a),y                 ; 0x207a <main+0x1b10>
    4435: 85 12        	sta	$12                     ; 0x2012 <main+0x1aa8>
    4437: a5 13        	lda	$13                     ; 0x2013 <main+0x1aa9>
    4439: a4 13        	ldy	$13                     ; 0x2013 <main+0x1aa9>
    443b: 84 82        	sty	$82                     ; 0x2082 <main+0x1b18>
    443d: d2 7a        	cmp	($7a)                   ; 0x207a <main+0x1b10>
    443f: a5 14        	lda	$14                     ; 0x2014 <main+0x1aaa>
    4441: a4 14        	ldy	$14                     ; 0x2014 <main+0x1aaa>
    4443: 84 83        	sty	$83                     ; 0x2083 <main+0x1b19>
    4445: e5 12        	sbc	$12                     ; 0x2012 <main+0x1aa8>
    4447: 50 02        	bvc	$444b <displayFileList+0x57>
    4449: 49 80        	eor	#$80
    444b: 86 79        	stx	$79                     ; 0x2079 <main+0x1b0f>
    444d: aa           	tax
    444e: 30 08        	bmi	$4458 <displayFileList+0x64>
    4450: b2 7a        	lda	($7a)                   ; 0x207a <main+0x1b10>
    4452: 85 82        	sta	$82                     ; 0x2082 <main+0x1b18>
    4454: a6 12        	ldx	$12                     ; 0x2012 <main+0x1aa8>
    4456: 86 83        	stx	$83                     ; 0x2083 <main+0x1b19>
    4458: b2 76        	lda	($76)                   ; 0x2076 <main+0x1b0c>
    445a: 85 12        	sta	$12                     ; 0x2012 <main+0x1aa8>
    445c: a0 01        	ldy	#$1
    445e: b1 76        	lda	($76),y                 ; 0x2076 <main+0x1b0c>
    4460: a4 12        	ldy	$12                     ; 0x2012 <main+0x1aa8>
    4462: 84 38        	sty	$38                     ; 0x2038 <main+0x1ace>
    4464: 8c 14 d0     	sty	$d014                   ; 0xd014 <__heap_start+0x2a80>
    4467: 9c 15 d0     	stz	$d015                   ; 0xd015 <__heap_start+0x2a81>
    446a: 85 39        	sta	$39                     ; 0x2039 <main+0x1acf>
    446c: 8d 16 d0     	sta	$d016                   ; 0xd016 <__heap_start+0x2a82>
    446f: 9c 17 d0     	stz	$d017                   ; 0xd017 <__heap_start+0x2a83>
    4472: a2 00        	ldx	#$0
    4474: 80 1c        	bra	$4492 <displayFileList+0x9e>
    4476: e4 12        	cpx	$12                     ; 0x2012 <main+0x1aa8>
    4478: a5 7e        	lda	$7e                     ; 0x207e <main+0x1b14>
    447a: 90 1c        	bcc	$4498 <displayFileList+0xa4>
    447c: a2 0a        	ldx	#$a
    447e: 86 42        	stx	$42                     ; 0x2042 <main+0x1ad8>
    4480: a2 42        	ldx	#$42
    4482: 86 12        	stx	$12                     ; 0x2012 <main+0x1aa8>
    4484: a2 00        	ldx	#$0
    4486: 86 13        	stx	$13                     ; 0x2013 <main+0x1aa9>
    4488: 20 84 31     	jsr	$3184 <textPrint>
    448b: a6 7d        	ldx	$7d                     ; 0x207d <main+0x1b13>
    448d: e8           	inx
    448e: e0 11        	cpx	#$11
    4490: f0 36        	beq	$44c8 <displayFileList+0xd4>
    4492: 86 7d        	stx	$7d                     ; 0x207d <main+0x1b13>
    4494: a0 01        	ldy	#$1
    4496: b1 76        	lda	($76),y                 ; 0x2076 <main+0x1b0c>
    4498: 1a           	inc
    4499: a2 20        	ldx	#$20
    449b: 86 42        	stx	$42                     ; 0x2042 <main+0x1ad8>
    449d: a2 42        	ldx	#$42
    449f: 86 12        	stx	$12                     ; 0x2012 <main+0x1aa8>
    44a1: a2 00        	ldx	#$0
    44a3: 86 13        	stx	$13                     ; 0x2013 <main+0x1aa9>
    44a5: 85 7e        	sta	$7e                     ; 0x207e <main+0x1b14>
    44a7: 20 84 31     	jsr	$3184 <textPrint>
    44aa: a0 01        	ldy	#$1
    44ac: b1 76        	lda	($76),y                 ; 0x2076 <main+0x1b0c>
    44ae: 18           	clc
    44af: 69 2c        	adc	#$2c
    44b1: a8           	tay
    44b2: a9 00        	lda	#$0
    44b4: 69 00        	adc	#$0
    44b6: 85 12        	sta	$12                     ; 0x2012 <main+0x1aa8>
    44b8: a2 00        	ldx	#$0
    44ba: e4 12        	cpx	$12                     ; 0x2012 <main+0x1aa8>
    44bc: d0 b8        	bne	$4476 <displayFileList+0x82>
    44be: 84 12        	sty	$12                     ; 0x2012 <main+0x1aa8>
    44c0: a5 7e        	lda	$7e                     ; 0x207e <main+0x1b14>
    44c2: c5 12        	cmp	$12                     ; 0x2012 <main+0x1aa8>
    44c4: 90 d2        	bcc	$4498 <displayFileList+0xa4>
    44c6: 80 b4        	bra	$447c <displayFileList+0x88>
    44c8: a6 7a        	ldx	$7a                     ; 0x207a <main+0x1b10>
    44ca: 86 12        	stx	$12                     ; 0x2012 <main+0x1aa8>
    44cc: a6 7b        	ldx	$7b                     ; 0x207b <main+0x1b11>
    44ce: 86 13        	stx	$13                     ; 0x2013 <main+0x1aa9>
    44d0: a6 12        	ldx	$12                     ; 0x2012 <main+0x1aa8>
    44d2: 86 84        	stx	$84                     ; 0x2084 <main+0x1b1a>
    44d4: a6 13        	ldx	$13                     ; 0x2013 <main+0x1aa9>
    44d6: 86 85        	stx	$85                     ; 0x2085 <main+0x1b1b>
    44d8: b2 76        	lda	($76)                   ; 0x2076 <main+0x1b0c>
    44da: 85 12        	sta	$12                     ; 0x2012 <main+0x1aa8>
    44dc: a0 01        	ldy	#$1
    44de: b1 76        	lda	($76),y                 ; 0x2076 <main+0x1b0c>
    44e0: aa           	tax
    44e1: a5 12        	lda	$12                     ; 0x2012 <main+0x1aa8>
    44e3: 85 38        	sta	$38                     ; 0x2038 <main+0x1ace>
    44e5: 8d 14 d0     	sta	$d014                   ; 0xd014 <__heap_start+0x2a80>
    44e8: 9c 15 d0     	stz	$d015                   ; 0xd015 <__heap_start+0x2a81>
    44eb: 86 39        	stx	$39                     ; 0x2039 <main+0x1acf>
    44ed: 8e 16 d0     	stx	$d016                   ; 0xd016 <__heap_start+0x2a82>
    44f0: a5 76        	lda	$76                     ; 0x2076 <main+0x1b0c>
    44f2: 18           	clc
    44f3: 69 e6        	adc	#$e6
    44f5: 85 14        	sta	$14                     ; 0x2014 <main+0x1aaa>
    44f7: a5 77        	lda	$77                     ; 0x2077 <main+0x1b0d>
    44f9: 69 11        	adc	#$11
    44fb: 64 16        	stz	$16                     ; 0x2016 <main+0x1aac>
    44fd: 9c 17 d0     	stz	$d017                   ; 0xd017 <__heap_start+0x2a83>
    4500: 85 15        	sta	$15                     ; 0x2015 <main+0x1aab>
    4502: b2 14        	lda	($14)                   ; 0x2014 <main+0x1aaa>
    4504: 85 17        	sta	$17                     ; 0x2017 <main+0x1aad>
    4506: a6 14        	ldx	$14                     ; 0x2014 <main+0x1aaa>
    4508: 86 12        	stx	$12                     ; 0x2012 <main+0x1aa8>
    450a: a6 15        	ldx	$15                     ; 0x2015 <main+0x1aab>
    450c: 86 13        	stx	$13                     ; 0x2013 <main+0x1aa9>
    450e: a6 12        	ldx	$12                     ; 0x2012 <main+0x1aa8>
    4510: 86 86        	stx	$86                     ; 0x2086 <main+0x1b1c>
    4512: a6 13        	ldx	$13                     ; 0x2013 <main+0x1aa9>
    4514: 86 87        	stx	$87                     ; 0x2087 <main+0x1b1d>
    4516: b1 14        	lda	($14),y                 ; 0x2014 <main+0x1aaa>
    4518: d0 07        	bne	$4521 <displayFileList+0x12d>
    451a: a5 17        	lda	$17                     ; 0x2017 <main+0x1aad>
    451c: d0 03        	bne	$4521 <displayFileList+0x12d>
    451e: 4c 97 47     	jmp	$4797 <displayFileList+0x3a3>
    4521: a0 20        	ldy	#$20
    4523: a5 76        	lda	$76                     ; 0x2076 <main+0x1b0c>
    4525: 18           	clc
    4526: 69 4e        	adc	#$4e
    4528: 85 14        	sta	$14                     ; 0x2014 <main+0x1aaa>
    452a: a5 77        	lda	$77                     ; 0x2077 <main+0x1b0d>
    452c: 69 00        	adc	#$0
    452e: 85 17        	sta	$17                     ; 0x2017 <main+0x1aad>
    4530: 18           	clc
    4531: a5 76        	lda	$76                     ; 0x2076 <main+0x1b0c>
    4533: 69 7e        	adc	#$7e
    4535: aa           	tax
    4536: a5 77        	lda	$77                     ; 0x2077 <main+0x1b0d>
    4538: 69 11        	adc	#$11
    453a: 86 12        	stx	$12                     ; 0x2012 <main+0x1aa8>
    453c: 85 13        	sta	$13                     ; 0x2013 <main+0x1aa9>
    453e: b2 12        	lda	($12)                   ; 0x2012 <main+0x1aa8>
    4540: 29 01        	and	#$1
    4542: a2 63        	ldx	#$63
    4544: 86 12        	stx	$12                     ; 0x2012 <main+0x1aa8>
    4546: a2 88        	ldx	#$88
    4548: 86 13        	stx	$13                     ; 0x2013 <main+0x1aa9>
    454a: aa           	tax
    454b: d0 08        	bne	$4555 <displayFileList+0x161>
    454d: a2 48        	ldx	#$48
    454f: 86 12        	stx	$12                     ; 0x2012 <main+0x1aa8>
    4551: a2 87        	ldx	#$87
    4553: 86 13        	stx	$13                     ; 0x2013 <main+0x1aa9>
    4555: a6 10        	ldx	$10                     ; 0x2010 <main+0x1aa6>
    4557: 98           	tya
    4558: 92 10        	sta	($10)                   ; 0x2010 <main+0x1aa6>
    455a: a0 01        	ldy	#$1
    455c: a9 00        	lda	#$0
    455e: 91 10        	sta	($10),y                 ; 0x2010 <main+0x1aa6>
    4560: c8           	iny
    4561: a5 14        	lda	$14                     ; 0x2014 <main+0x1aaa>
    4563: 91 10        	sta	($10),y                 ; 0x2010 <main+0x1aa6>
    4565: 8a           	txa
    4566: 18           	clc
    4567: 69 02        	adc	#$2
    4569: 85 14        	sta	$14                     ; 0x2014 <main+0x1aaa>
    456b: a5 11        	lda	$11                     ; 0x2011 <main+0x1aa7>
    456d: 69 00        	adc	#$0
    456f: 18           	clc
    4570: 85 15        	sta	$15                     ; 0x2015 <main+0x1aab>
    4572: a5 17        	lda	$17                     ; 0x2017 <main+0x1aad>
    4574: 88           	dey
    4575: 91 14        	sta	($14),y                 ; 0x2014 <main+0x1aaa>
    4577: 8a           	txa
    4578: 69 04        	adc	#$4
    457a: 85 14        	sta	$14                     ; 0x2014 <main+0x1aaa>
    457c: a5 11        	lda	$11                     ; 0x2011 <main+0x1aa7>
    457e: 69 00        	adc	#$0
    4580: 85 15        	sta	$15                     ; 0x2015 <main+0x1aab>
    4582: a5 12        	lda	$12                     ; 0x2012 <main+0x1aa8>
    4584: a0 04        	ldy	#$4
    4586: 91 10        	sta	($10),y                 ; 0x2010 <main+0x1aa6>
    4588: a0 01        	ldy	#$1
    458a: a5 13        	lda	$13                     ; 0x2013 <main+0x1aa9>
    458c: 91 14        	sta	($14),y                 ; 0x2014 <main+0x1aaa>
    458e: a2 cc        	ldx	#$cc
    4590: 86 12        	stx	$12                     ; 0x2012 <main+0x1aa8>
    4592: a2 8d        	ldx	#$8d
    4594: 86 13        	stx	$13                     ; 0x2013 <main+0x1aa9>
    4596: 20 64 7d     	jsr	$7d64 <printf>
    4599: a6 82        	ldx	$82                     ; 0x2082 <main+0x1b18>
    459b: 86 12        	stx	$12                     ; 0x2012 <main+0x1aa8>
    459d: a6 79        	ldx	$79                     ; 0x2079 <main+0x1b0f>
    459f: e4 12        	cpx	$12                     ; 0x2012 <main+0x1aa8>
    45a1: a6 83        	ldx	$83                     ; 0x2083 <main+0x1b19>
    45a3: 86 12        	stx	$12                     ; 0x2012 <main+0x1aa8>
    45a5: a5 78        	lda	$78                     ; 0x2078 <main+0x1b0e>
    45a7: e5 12        	sbc	$12                     ; 0x2012 <main+0x1aa8>
    45a9: 50 02        	bvc	$45ad <displayFileList+0x1b9>
    45ab: 49 80        	eor	#$80
    45ad: aa           	tax
    45ae: 30 03        	bmi	$45b3 <displayFileList+0x1bf>
    45b0: 4c d6 46     	jmp	$46d6 <displayFileList+0x2e2>
    45b3: 18           	clc
    45b4: a5 76        	lda	$76                     ; 0x2076 <main+0x1b0c>
    45b6: 69 e4        	adc	#$e4
    45b8: 85 7e        	sta	$7e                     ; 0x207e <main+0x1b14>
    45ba: a5 77        	lda	$77                     ; 0x2077 <main+0x1b0d>
    45bc: 69 11        	adc	#$11
    45be: 85 7f        	sta	$7f                     ; 0x207f <main+0x1b15>
    45c0: a4 88        	ldy	$88                     ; 0x2088 <main+0x1b1e>
    45c2: 84 12        	sty	$12                     ; 0x2012 <main+0x1aa8>
    45c4: a5 76        	lda	$76                     ; 0x2076 <main+0x1b0c>
    45c6: 18           	clc
    45c7: 65 12        	adc	$12                     ; 0x2012 <main+0x1aa8>
    45c9: aa           	tax
    45ca: a5 77        	lda	$77                     ; 0x2077 <main+0x1b0d>
    45cc: 65 7c        	adc	$7c                     ; 0x207c <main+0x1b12>
    45ce: 85 12        	sta	$12                     ; 0x2012 <main+0x1aa8>
    45d0: 18           	clc
    45d1: 8a           	txa
    45d2: 69 7f        	adc	#$7f
    45d4: 85 14        	sta	$14                     ; 0x2014 <main+0x1aaa>
    45d6: a5 12        	lda	$12                     ; 0x2012 <main+0x1aa8>
    45d8: 69 11        	adc	#$11
    45da: 85 15        	sta	$15                     ; 0x2015 <main+0x1aab>
    45dc: a2 2c        	ldx	#$2c
    45de: 64 13        	stz	$13                     ; 0x2013 <main+0x1aa9>
    45e0: 86 12        	stx	$12                     ; 0x2012 <main+0x1aa8>
    45e2: a6 7c        	ldx	$7c                     ; 0x207c <main+0x1b12>
    45e4: 5a           	phy
    45e5: a4 14        	ldy	$14                     ; 0x2014 <main+0x1aaa>
    45e7: 84 7c        	sty	$7c                     ; 0x207c <main+0x1b12>
    45e9: 7a           	ply
    45ea: 85 7d        	sta	$7d                     ; 0x207d <main+0x1b13>
    45ec: 98           	tya
    45ed: 20 7c 82     	jsr	$827c <__mulhi3>
    45f0: a4 79        	ldy	$79                     ; 0x2079 <main+0x1b0f>
    45f2: 18           	clc
    45f3: 65 76        	adc	$76                     ; 0x2076 <main+0x1b0c>
    45f5: 85 13        	sta	$13                     ; 0x2013 <main+0x1aa9>
    45f7: 8a           	txa
    45f8: 65 77        	adc	$77                     ; 0x2077 <main+0x1b0d>
    45fa: 85 12        	sta	$12                     ; 0x2012 <main+0x1aa8>
    45fc: 18           	clc
    45fd: a5 13        	lda	$13                     ; 0x2013 <main+0x1aa9>
    45ff: 69 7a        	adc	#$7a
    4601: 85 80        	sta	$80                     ; 0x2080 <main+0x1b16>
    4603: a5 12        	lda	$12                     ; 0x2012 <main+0x1aa8>
    4605: 69 00        	adc	#$0
    4607: 85 81        	sta	$81                     ; 0x2081 <main+0x1b17>
    4609: a9 01        	lda	#$1
    460b: 5a           	phy
    460c: fa           	plx
    460d: 85 7a        	sta	$7a                     ; 0x207a <main+0x1b10>
    460f: 18           	clc
    4610: a0 01        	ldy	#$1
    4612: 71 76        	adc	($76),y                 ; 0x2076 <main+0x1b0c>
    4614: 85 13        	sta	$13                     ; 0x2013 <main+0x1aa9>
    4616: b2 76        	lda	($76)                   ; 0x2076 <main+0x1b0c>
    4618: 85 38        	sta	$38                     ; 0x2038 <main+0x1ace>
    461a: 8d 14 d0     	sta	$d014                   ; 0xd014 <__heap_start+0x2a80>
    461d: 9c 15 d0     	stz	$d015                   ; 0xd015 <__heap_start+0x2a81>
    4620: a4 13        	ldy	$13                     ; 0x2013 <main+0x1aa9>
    4622: 84 39        	sty	$39                     ; 0x2039 <main+0x1acf>
    4624: 8c 16 d0     	sty	$d016                   ; 0xd016 <__heap_start+0x2a82>
    4627: 9c 17 d0     	stz	$d017                   ; 0xd017 <__heap_start+0x2a83>
    462a: a5 78        	lda	$78                     ; 0x2078 <main+0x1b0e>
    462c: a0 01        	ldy	#$1
    462e: d1 7e        	cmp	($7e),y                 ; 0x207e <main+0x1b14>
    4630: d0 0e        	bne	$4640 <displayFileList+0x24c>
    4632: b2 7e        	lda	($7e)                   ; 0x207e <main+0x1b14>
    4634: 85 12        	sta	$12                     ; 0x2012 <main+0x1aa8>
    4636: e4 12        	cpx	$12                     ; 0x2012 <main+0x1aa8>
    4638: d0 06        	bne	$4640 <displayFileList+0x24c>
    463a: 86 79        	stx	$79                     ; 0x2079 <main+0x1b0f>
    463c: a2 fa        	ldx	#$fa
    463e: 80 04        	bra	$4644 <displayFileList+0x250>
    4640: 86 79        	stx	$79                     ; 0x2079 <main+0x1b0f>
    4642: a2 20        	ldx	#$20
    4644: 86 42        	stx	$42                     ; 0x2042 <main+0x1ad8>
    4646: a2 42        	ldx	#$42
    4648: 86 12        	stx	$12                     ; 0x2012 <main+0x1aa8>
    464a: a2 00        	ldx	#$0
    464c: 86 13        	stx	$13                     ; 0x2013 <main+0x1aa9>
    464e: 20 84 31     	jsr	$3184 <textPrint>
    4651: b2 7c        	lda	($7c)                   ; 0x207c <main+0x1b12>
    4653: 29 01        	and	#$1
    4655: a2 63        	ldx	#$63
    4657: 86 12        	stx	$12                     ; 0x2012 <main+0x1aa8>
    4659: a2 88        	ldx	#$88
    465b: 86 13        	stx	$13                     ; 0x2013 <main+0x1aa9>
    465d: aa           	tax
    465e: d0 08        	bne	$4668 <displayFileList+0x274>
    4660: a2 48        	ldx	#$48
    4662: 86 12        	stx	$12                     ; 0x2012 <main+0x1aa8>
    4664: a2 87        	ldx	#$87
    4666: 86 13        	stx	$13                     ; 0x2013 <main+0x1aa9>
    4668: a5 10        	lda	$10                     ; 0x2010 <main+0x1aa6>
    466a: a6 11        	ldx	$11                     ; 0x2011 <main+0x1aa7>
    466c: 18           	clc
    466d: 69 02        	adc	#$2
    466f: 85 14        	sta	$14                     ; 0x2014 <main+0x1aaa>
    4671: 8a           	txa
    4672: 69 00        	adc	#$0
    4674: 85 15        	sta	$15                     ; 0x2015 <main+0x1aab>
    4676: a5 12        	lda	$12                     ; 0x2012 <main+0x1aa8>
    4678: a0 02        	ldy	#$2
    467a: 91 10        	sta	($10),y                 ; 0x2010 <main+0x1aa6>
    467c: a5 13        	lda	$13                     ; 0x2013 <main+0x1aa9>
    467e: 88           	dey
    467f: 91 14        	sta	($14),y                 ; 0x2014 <main+0x1aaa>
    4681: a5 80        	lda	$80                     ; 0x2080 <main+0x1b16>
    4683: 92 10        	sta	($10)                   ; 0x2010 <main+0x1aa6>
    4685: a5 81        	lda	$81                     ; 0x2081 <main+0x1b17>
    4687: 91 10        	sta	($10),y                 ; 0x2010 <main+0x1aa6>
    4689: a2 4a        	ldx	#$4a
    468b: 86 12        	stx	$12                     ; 0x2012 <main+0x1aa8>
    468d: a2 87        	ldx	#$87
    468f: 86 13        	stx	$13                     ; 0x2013 <main+0x1aa9>
    4691: 20 64 7d     	jsr	$7d64 <printf>
    4694: a6 79        	ldx	$79                     ; 0x2079 <main+0x1b0f>
    4696: 86 12        	stx	$12                     ; 0x2012 <main+0x1aa8>
    4698: a6 78        	ldx	$78                     ; 0x2078 <main+0x1b0e>
    469a: 86 13        	stx	$13                     ; 0x2013 <main+0x1aa9>
    469c: e6 12        	inc	$12                     ; 0x2012 <main+0x1aa8>
    469e: d0 02        	bne	$46a2 <displayFileList+0x2ae>
    46a0: e6 13        	inc	$13                     ; 0x2013 <main+0x1aa9>
    46a2: e6 7c        	inc	$7c                     ; 0x207c <main+0x1b12>
    46a4: d0 02        	bne	$46a8 <displayFileList+0x2b4>
    46a6: e6 7d        	inc	$7d                     ; 0x207d <main+0x1b13>
    46a8: 18           	clc
    46a9: a5 80        	lda	$80                     ; 0x2080 <main+0x1b16>
    46ab: 69 2c        	adc	#$2c
    46ad: 85 80        	sta	$80                     ; 0x2080 <main+0x1b16>
    46af: a5 81        	lda	$81                     ; 0x2081 <main+0x1b17>
    46b1: 69 00        	adc	#$0
    46b3: 85 81        	sta	$81                     ; 0x2081 <main+0x1b17>
    46b5: a5 7a        	lda	$7a                     ; 0x207a <main+0x1b10>
    46b7: 1a           	inc
    46b8: a4 12        	ldy	$12                     ; 0x2012 <main+0x1aa8>
    46ba: a6 13        	ldx	$13                     ; 0x2013 <main+0x1aa9>
    46bc: 86 78        	stx	$78                     ; 0x2078 <main+0x1b0e>
    46be: a6 83        	ldx	$83                     ; 0x2083 <main+0x1b19>
    46c0: e4 13        	cpx	$13                     ; 0x2013 <main+0x1aa9>
    46c2: f0 03        	beq	$46c7 <displayFileList+0x2d3>
    46c4: 4c 0b 46     	jmp	$460b <displayFileList+0x217>
    46c7: a4 12        	ldy	$12                     ; 0x2012 <main+0x1aa8>
    46c9: a6 13        	ldx	$13                     ; 0x2013 <main+0x1aa9>
    46cb: 86 78        	stx	$78                     ; 0x2078 <main+0x1b0e>
    46cd: a6 82        	ldx	$82                     ; 0x2082 <main+0x1b18>
    46cf: e4 12        	cpx	$12                     ; 0x2012 <main+0x1aa8>
    46d1: f0 03        	beq	$46d6 <displayFileList+0x2e2>
    46d3: 4c 0b 46     	jmp	$460b <displayFileList+0x217>
    46d6: a5 88        	lda	$88                     ; 0x2088 <main+0x1b1e>
    46d8: 49 ff        	eor	#$ff
    46da: 85 12        	sta	$12                     ; 0x2012 <main+0x1aa8>
    46dc: a9 02        	lda	#$2
    46de: 18           	clc
    46df: 72 76        	adc	($76)                   ; 0x2076 <main+0x1b0c>
    46e1: aa           	tax
    46e2: a0 01        	ldy	#$1
    46e4: 18           	clc
    46e5: a5 82        	lda	$82                     ; 0x2082 <main+0x1b18>
    46e7: 65 12        	adc	$12                     ; 0x2012 <main+0x1aa8>
    46e9: 18           	clc
    46ea: 71 76        	adc	($76),y                 ; 0x2076 <main+0x1b0c>
    46ec: 1a           	inc
    46ed: 86 38        	stx	$38                     ; 0x2038 <main+0x1ace>
    46ef: 8e 14 d0     	stx	$d014                   ; 0xd014 <__heap_start+0x2a80>
    46f2: 9c 15 d0     	stz	$d015                   ; 0xd015 <__heap_start+0x2a81>
    46f5: 85 39        	sta	$39                     ; 0x2039 <main+0x1acf>
    46f7: 8d 16 d0     	sta	$d016                   ; 0xd016 <__heap_start+0x2a82>
    46fa: 9c 17 d0     	stz	$d017                   ; 0xd017 <__heap_start+0x2a83>
    46fd: a5 76        	lda	$76                     ; 0x2076 <main+0x1b0c>
    46ff: 18           	clc
    4700: 69 e4        	adc	#$e4
    4702: 85 12        	sta	$12                     ; 0x2012 <main+0x1aa8>
    4704: a5 77        	lda	$77                     ; 0x2077 <main+0x1b0d>
    4706: 69 11        	adc	#$11
    4708: 85 13        	sta	$13                     ; 0x2013 <main+0x1aa9>
    470a: b2 12        	lda	($12)                   ; 0x2012 <main+0x1aa8>
    470c: 85 14        	sta	$14                     ; 0x2014 <main+0x1aaa>
    470e: b1 12        	lda	($12),y                 ; 0x2012 <main+0x1aa8>
    4710: a4 14        	ldy	$14                     ; 0x2014 <main+0x1aaa>
    4712: 84 12        	sty	$12                     ; 0x2012 <main+0x1aa8>
    4714: c0 0f        	cpy	#$f
    4716: aa           	tax
    4717: e9 00        	sbc	#$0
    4719: 50 02        	bvc	$471d <displayFileList+0x329>
    471b: 49 80        	eor	#$80
    471d: a0 fb        	ldy	#$fb
    471f: 84 82        	sty	$82                     ; 0x2082 <main+0x1b18>
    4721: 64 14        	stz	$14                     ; 0x2014 <main+0x1aaa>
    4723: a8           	tay
    4724: 10 04        	bpl	$472a <displayFileList+0x336>
    4726: a0 20        	ldy	#$20
    4728: 84 82        	sty	$82                     ; 0x2082 <main+0x1b18>
    472a: a0 01        	ldy	#$1
    472c: 18           	clc
    472d: a5 12        	lda	$12                     ; 0x2012 <main+0x1aa8>
    472f: 69 10        	adc	#$10
    4731: 85 15        	sta	$15                     ; 0x2015 <main+0x1aab>
    4733: 8a           	txa
    4734: 69 00        	adc	#$0
    4736: 85 16        	sta	$16                     ; 0x2016 <main+0x1aac>
    4738: 38           	sec
    4739: a6 86        	ldx	$86                     ; 0x2086 <main+0x1b1c>
    473b: 86 12        	stx	$12                     ; 0x2012 <main+0x1aa8>
    473d: a6 87        	ldx	$87                     ; 0x2087 <main+0x1b1d>
    473f: 86 13        	stx	$13                     ; 0x2013 <main+0x1aa9>
    4741: a5 15        	lda	$15                     ; 0x2015 <main+0x1aab>
    4743: f2 12        	sbc	($12)                   ; 0x2012 <main+0x1aa8>
    4745: 85 15        	sta	$15                     ; 0x2015 <main+0x1aab>
    4747: a5 16        	lda	$16                     ; 0x2016 <main+0x1aac>
    4749: f1 12        	sbc	($12),y                 ; 0x2012 <main+0x1aa8>
    474b: 85 16        	sta	$16                     ; 0x2016 <main+0x1aac>
    474d: a6 84        	ldx	$84                     ; 0x2084 <main+0x1b1a>
    474f: 86 12        	stx	$12                     ; 0x2012 <main+0x1aa8>
    4751: a6 85        	ldx	$85                     ; 0x2085 <main+0x1b1b>
    4753: 86 13        	stx	$13                     ; 0x2013 <main+0x1aa9>
    4755: a5 15        	lda	$15                     ; 0x2015 <main+0x1aab>
    4757: d2 12        	cmp	($12)                   ; 0x2012 <main+0x1aa8>
    4759: a5 16        	lda	$16                     ; 0x2016 <main+0x1aac>
    475b: f1 12        	sbc	($12),y                 ; 0x2012 <main+0x1aa8>
    475d: 50 02        	bvc	$4761 <displayFileList+0x36d>
    475f: 49 80        	eor	#$80
    4761: 64 12        	stz	$12                     ; 0x2012 <main+0x1aa8>
    4763: aa           	tax
    4764: 10 04        	bpl	$476a <displayFileList+0x376>
    4766: a2 f8        	ldx	#$f8
    4768: 80 02        	bra	$476c <displayFileList+0x378>
    476a: a2 20        	ldx	#$20
    476c: a5 82        	lda	$82                     ; 0x2082 <main+0x1b18>
    476e: 92 10        	sta	($10)                   ; 0x2010 <main+0x1aa6>
    4770: a9 00        	lda	#$0
    4772: 91 10        	sta	($10),y                 ; 0x2010 <main+0x1aa6>
    4774: a0 02        	ldy	#$2
    4776: 8a           	txa
    4777: 91 10        	sta	($10),y                 ; 0x2010 <main+0x1aa6>
    4779: c8           	iny
    477a: a9 00        	lda	#$0
    477c: 91 10        	sta	($10),y                 ; 0x2010 <main+0x1aa6>
    477e: a2 a1        	ldx	#$a1
    4780: 86 12        	stx	$12                     ; 0x2012 <main+0x1aa8>
    4782: a2 8e        	ldx	#$8e
    4784: 86 13        	stx	$13                     ; 0x2013 <main+0x1aa9>
    4786: 20 64 7d     	jsr	$7d64 <printf>
    4789: 18           	clc
    478a: a5 10        	lda	$10                     ; 0x2010 <main+0x1aa6>
    478c: 69 06        	adc	#$6
    478e: 85 10        	sta	$10                     ; 0x2010 <main+0x1aa6>
    4790: a5 11        	lda	$11                     ; 0x2011 <main+0x1aa7>
    4792: 69 00        	adc	#$0
    4794: 85 11        	sta	$11                     ; 0x2011 <main+0x1aa7>
    4796: 60           	rts
    4797: a0 fa        	ldy	#$fa
    4799: 4c 23 45     	jmp	$4523 <displayFileList+0x12f>

0000479c <readDirectory>:
    479c: a2 33        	ldx	#$33
    479e: 86 12        	stx	$12                     ; 0x2012 <main+0x1aa8>
    47a0: a2 92        	ldx	#$92
    47a2: 86 13        	stx	$13                     ; 0x2013 <main+0x1aa9>
    47a4: 20 70 30     	jsr	$3070 <fileOpenDir>
    47a7: a6 12        	ldx	$12                     ; 0x2012 <main+0x1aa8>
    47a9: 86 76        	stx	$76                     ; 0x2076 <main+0x1b0c>
    47ab: a6 13        	ldx	$13                     ; 0x2013 <main+0x1aa9>
    47ad: 86 77        	stx	$77                     ; 0x2077 <main+0x1b0d>
    47af: a2 00        	ldx	#$0
    47b1: 86 12        	stx	$12                     ; 0x2012 <main+0x1aa8>
    47b3: a2 00        	ldx	#$0
    47b5: 86 13        	stx	$13                     ; 0x2013 <main+0x1aa9>
    47b7: a6 77        	ldx	$77                     ; 0x2077 <main+0x1b0d>
    47b9: e4 13        	cpx	$13                     ; 0x2013 <main+0x1aa9>
    47bb: d0 09        	bne	$47c6 <readDirectory+0x2a>
    47bd: a6 76        	ldx	$76                     ; 0x2076 <main+0x1b0c>
    47bf: e4 12        	cpx	$12                     ; 0x2012 <main+0x1aa8>
    47c1: d0 03        	bne	$47c6 <readDirectory+0x2a>
    47c3: 4c 92 4b     	jmp	$4b92 <readDirectory+0x3f6>
    47c6: a6 76        	ldx	$76                     ; 0x2076 <main+0x1b0c>
    47c8: 86 12        	stx	$12                     ; 0x2012 <main+0x1aa8>
    47ca: a6 77        	ldx	$77                     ; 0x2077 <main+0x1b0d>
    47cc: 86 13        	stx	$13                     ; 0x2013 <main+0x1aa9>
    47ce: 20 7c 33     	jsr	$337c <fileReadDir>
    47d1: a2 ab        	ldx	#$ab
    47d3: 86 7a        	stx	$7a                     ; 0x207a <main+0x1b10>
    47d5: a2 92        	ldx	#$92
    47d7: 86 7b        	stx	$7b                     ; 0x207b <main+0x1b11>
    47d9: 64 12        	stz	$12                     ; 0x2012 <main+0x1aa8>
    47db: a2 00        	ldx	#$0
    47dd: 86 78        	stx	$78                     ; 0x2078 <main+0x1b0e>
    47df: a2 00        	ldx	#$0
    47e1: 86 79        	stx	$79                     ; 0x2079 <main+0x1b0f>
    47e3: e8           	inx
    47e4: 86 83        	stx	$83                     ; 0x2083 <main+0x1b19>
    47e6: 64 7d        	stz	$7d                     ; 0x207d <main+0x1b13>
    47e8: ca           	dex
    47e9: 86 7c        	stx	$7c                     ; 0x207c <main+0x1b12>
    47eb: a5 7d        	lda	$7d                     ; 0x207d <main+0x1b13>
    47ed: d0 0a        	bne	$47f9 <readDirectory+0x5d>
    47ef: a6 83        	ldx	$83                     ; 0x2083 <main+0x1b19>
    47f1: e0 64        	cpx	#$64
    47f3: 90 0a        	bcc	$47ff <readDirectory+0x63>
    47f5: a2 00        	ldx	#$0
    47f7: 80 08        	bra	$4801 <readDirectory+0x65>
    47f9: a6 7d        	ldx	$7d                     ; 0x207d <main+0x1b13>
    47fb: e0 00        	cpx	#$0
    47fd: b0 f6        	bcs	$47f5 <readDirectory+0x59>
    47ff: a2 01        	ldx	#$1
    4801: 86 81        	stx	$81                     ; 0x2081 <main+0x1b17>
    4803: a6 76        	ldx	$76                     ; 0x2076 <main+0x1b0c>
    4805: 86 12        	stx	$12                     ; 0x2012 <main+0x1aa8>
    4807: a6 77        	ldx	$77                     ; 0x2077 <main+0x1b0d>
    4809: 86 13        	stx	$13                     ; 0x2013 <main+0x1aa9>
    480b: 20 7c 33     	jsr	$337c <fileReadDir>
    480e: a6 13        	ldx	$13                     ; 0x2013 <main+0x1aa9>
    4810: e4 79        	cpx	$79                     ; 0x2079 <main+0x1b0f>
    4812: d0 0e        	bne	$4822 <readDirectory+0x86>
    4814: a6 12        	ldx	$12                     ; 0x2012 <main+0x1aa8>
    4816: a0 02        	ldy	#$2
    4818: a5 81        	lda	$81                     ; 0x2081 <main+0x1b17>
    481a: e4 78        	cpx	$78                     ; 0x2078 <main+0x1b0e>
    481c: d0 08        	bne	$4826 <readDirectory+0x8a>
    481e: a9 00        	lda	#$0
    4820: 80 04        	bra	$4826 <readDirectory+0x8a>
    4822: a0 02        	ldy	#$2
    4824: a5 81        	lda	$81                     ; 0x2081 <main+0x1b17>
    4826: aa           	tax
    4827: d0 03        	bne	$482c <readDirectory+0x90>
    4829: 4c 2f 4b     	jmp	$4b2f <readDirectory+0x393>
    482c: b1 12        	lda	($12),y                 ; 0x2012 <main+0x1aa8>
    482e: a0 03        	ldy	#$3
    4830: 85 1d        	sta	$1d                     ; 0x201d <main+0x1ab3>
    4832: c9 2e        	cmp	#$2e
    4834: d0 11        	bne	$4847 <readDirectory+0xab>
    4836: b1 12        	lda	($12),y                 ; 0x2012 <main+0x1aa8>
    4838: f0 b1        	beq	$47eb <readDirectory+0x4f>
    483a: c9 2e        	cmp	#$2e
    483c: d0 09        	bne	$4847 <readDirectory+0xab>
    483e: a0 04        	ldy	#$4
    4840: b1 12        	lda	($12),y                 ; 0x2012 <main+0x1aa8>
    4842: d0 03        	bne	$4847 <readDirectory+0xab>
    4844: 4c eb 47     	jmp	$47eb <readDirectory+0x4f>
    4847: a5 12        	lda	$12                     ; 0x2012 <main+0x1aa8>
    4849: 18           	clc
    484a: 69 02        	adc	#$2
    484c: 85 14        	sta	$14                     ; 0x2014 <main+0x1aaa>
    484e: a5 13        	lda	$13                     ; 0x2013 <main+0x1aa9>
    4850: 69 00        	adc	#$0
    4852: 85 15        	sta	$15                     ; 0x2015 <main+0x1aab>
    4854: a9 00        	lda	#$0
    4856: a6 1d        	ldx	$1d                     ; 0x201d <main+0x1ab3>
    4858: 86 18        	stx	$18                     ; 0x2018 <main+0x1aae>
    485a: aa           	tax
    485b: 64 19        	stz	$19                     ; 0x2019 <main+0x1aaf>
    485d: 86 1f        	stx	$1f                     ; 0x201f <main+0x1ab5>
    485f: aa           	tax
    4860: 48           	pha
    4861: bd 1b a4     	lda	$a41b,x                 ; 0xa41b <fpr+0x11ea>
    4864: aa           	tax
    4865: 68           	pla
    4866: e0 00        	cpx	#$0
    4868: f0 3d        	beq	$48a7 <readDirectory+0x10b>
    486a: a4 18        	ldy	$18                     ; 0x2018 <main+0x1aae>
    486c: f0 3e        	beq	$48ac <readDirectory+0x110>
    486e: 86 22        	stx	$22                     ; 0x2022 <main+0x1ab8>
    4870: 85 1e        	sta	$1e                     ; 0x201e <main+0x1ab4>
    4872: a0 00        	ldy	#$0
    4874: a2 00        	ldx	#$0
    4876: 86 16        	stx	$16                     ; 0x2016 <main+0x1aac>
    4878: 98           	tya
    4879: c8           	iny
    487a: d0 01        	bne	$487d <readDirectory+0xe1>
    487c: e8           	inx
    487d: 18           	clc
    487e: 65 12        	adc	$12                     ; 0x2012 <main+0x1aa8>
    4880: 85 1b        	sta	$1b                     ; 0x201b <main+0x1ab1>
    4882: a5 16        	lda	$16                     ; 0x2016 <main+0x1aac>
    4884: 65 13        	adc	$13                     ; 0x2013 <main+0x1aa9>
    4886: 84 1a        	sty	$1a                     ; 0x201a <main+0x1ab0>
    4888: a4 1b        	ldy	$1b                     ; 0x201b <main+0x1ab1>
    488a: 84 16        	sty	$16                     ; 0x2016 <main+0x1aac>
    488c: 85 17        	sta	$17                     ; 0x2017 <main+0x1aad>
    488e: a0 03        	ldy	#$3
    4890: b1 16        	lda	($16),y                 ; 0x2016 <main+0x1aac>
    4892: a4 1a        	ldy	$1a                     ; 0x201a <main+0x1ab0>
    4894: c9 00        	cmp	#$0
    4896: d0 de        	bne	$4876 <readDirectory+0xda>
    4898: 2c 8d 84     	bit	$848d                   ; 0x848d <__set_v>
    489b: a5 1d        	lda	$1d                     ; 0x201d <main+0x1ab3>
    489d: f0 01        	beq	$48a0 <readDirectory+0x104>
    489f: b8           	clv
    48a0: 8a           	txa
    48a1: d0 10        	bne	$48b3 <readDirectory+0x117>
    48a3: c0 04        	cpy	#$4
    48a5: 80 0e        	bra	$48b5 <readDirectory+0x119>
    48a7: 85 7e        	sta	$7e                     ; 0x207e <main+0x1b14>
    48a9: 4c 5a 49     	jmp	$495a <readDirectory+0x1be>
    48ac: 85 7e        	sta	$7e                     ; 0x207e <main+0x1b14>
    48ae: 64 18        	stz	$18                     ; 0x2018 <main+0x1aae>
    48b0: 4c 5a 49     	jmp	$495a <readDirectory+0x1be>
    48b3: e0 00        	cpx	#$0
    48b5: a2 01        	ldx	#$1
    48b7: a9 00        	lda	#$0
    48b9: b0 02        	bcs	$48bd <readDirectory+0x121>
    48bb: a9 01        	lda	#$1
    48bd: 86 16        	stx	$16                     ; 0x2016 <main+0x1aac>
    48bf: 70 02        	bvs	$48c3 <readDirectory+0x127>
    48c1: 64 16        	stz	$16                     ; 0x2016 <main+0x1aac>
    48c3: aa           	tax
    48c4: 29 01        	and	#$1
    48c6: d0 02        	bne	$48ca <readDirectory+0x12e>
    48c8: 64 18        	stz	$18                     ; 0x2018 <main+0x1aae>
    48ca: 8a           	txa
    48cb: 05 16        	ora	$16                     ; 0x2016 <main+0x1aac>
    48cd: 29 01        	and	#$1
    48cf: a6 1e        	ldx	$1e                     ; 0x201e <main+0x1ab4>
    48d1: 86 7e        	stx	$7e                     ; 0x207e <main+0x1b14>
    48d3: aa           	tax
    48d4: f0 03        	beq	$48d9 <readDirectory+0x13d>
    48d6: 4c 5a 49     	jmp	$495a <readDirectory+0x1be>
    48d9: a2 00        	ldx	#$0
    48db: 86 16        	stx	$16                     ; 0x2016 <main+0x1aac>
    48dd: a2 00        	ldx	#$0
    48df: 86 17        	stx	$17                     ; 0x2017 <main+0x1aad>
    48e1: a5 1d        	lda	$1d                     ; 0x201d <main+0x1ab3>
    48e3: a6 14        	ldx	$14                     ; 0x2014 <main+0x1aaa>
    48e5: 86 1a        	stx	$1a                     ; 0x201a <main+0x1ab0>
    48e7: a6 15        	ldx	$15                     ; 0x2015 <main+0x1aab>
    48e9: 86 1b        	stx	$1b                     ; 0x201b <main+0x1ab1>
    48eb: a0 01        	ldy	#$1
    48ed: c9 2e        	cmp	#$2e
    48ef: d0 08        	bne	$48f9 <readDirectory+0x15d>
    48f1: a6 1a        	ldx	$1a                     ; 0x201a <main+0x1ab0>
    48f3: 86 16        	stx	$16                     ; 0x2016 <main+0x1aac>
    48f5: a6 1b        	ldx	$1b                     ; 0x201b <main+0x1ab1>
    48f7: 86 17        	stx	$17                     ; 0x2017 <main+0x1aad>
    48f9: b1 1a        	lda	($1a),y                 ; 0x201a <main+0x1ab0>
    48fb: e6 1a        	inc	$1a                     ; 0x201a <main+0x1ab0>
    48fd: d0 02        	bne	$4901 <readDirectory+0x165>
    48ff: e6 1b        	inc	$1b                     ; 0x201b <main+0x1ab1>
    4901: aa           	tax
    4902: d0 e9        	bne	$48ed <readDirectory+0x151>
    4904: a6 17        	ldx	$17                     ; 0x2017 <main+0x1aad>
    4906: e4 79        	cpx	$79                     ; 0x2079 <main+0x1b0f>
    4908: d0 10        	bne	$491a <readDirectory+0x17e>
    490a: a6 16        	ldx	$16                     ; 0x2016 <main+0x1aac>
    490c: a4 1d        	ldy	$1d                     ; 0x201d <main+0x1ab3>
    490e: 84 18        	sty	$18                     ; 0x2018 <main+0x1aae>
    4910: a4 1e        	ldy	$1e                     ; 0x201e <main+0x1ab4>
    4912: 84 7e        	sty	$7e                     ; 0x207e <main+0x1b14>
    4914: e4 78        	cpx	$78                     ; 0x2078 <main+0x1b0e>
    4916: d0 06        	bne	$491e <readDirectory+0x182>
    4918: 80 40        	bra	$495a <readDirectory+0x1be>
    491a: a6 1e        	ldx	$1e                     ; 0x201e <main+0x1ab4>
    491c: 86 7e        	stx	$7e                     ; 0x207e <main+0x1b14>
    491e: a0 01        	ldy	#$1
    4920: b1 16        	lda	($16),y                 ; 0x2016 <main+0x1aac>
    4922: a6 1d        	ldx	$1d                     ; 0x201d <main+0x1ab3>
    4924: 86 18        	stx	$18                     ; 0x2018 <main+0x1aae>
    4926: aa           	tax
    4927: f0 31        	beq	$495a <readDirectory+0x1be>
    4929: 85 23        	sta	$23                     ; 0x2023 <main+0x1ab9>
    492b: a2 00        	ldx	#$0
    492d: 64 1c        	stz	$1c                     ; 0x201c <main+0x1ab2>
    492f: a0 02        	ldy	#$2
    4931: 8a           	txa
    4932: 18           	clc
    4933: 65 16        	adc	$16                     ; 0x2016 <main+0x1aac>
    4935: 85 1a        	sta	$1a                     ; 0x201a <main+0x1ab0>
    4937: a5 1c        	lda	$1c                     ; 0x201c <main+0x1ab2>
    4939: 65 17        	adc	$17                     ; 0x2017 <main+0x1aad>
    493b: e8           	inx
    493c: d0 02        	bne	$4940 <readDirectory+0x1a4>
    493e: e6 1c        	inc	$1c                     ; 0x201c <main+0x1ab2>
    4940: 85 1b        	sta	$1b                     ; 0x201b <main+0x1ab1>
    4942: b1 1a        	lda	($1a),y                 ; 0x201a <main+0x1ab0>
    4944: d0 eb        	bne	$4931 <readDirectory+0x195>
    4946: a4 1d        	ldy	$1d                     ; 0x201d <main+0x1ab3>
    4948: 84 18        	sty	$18                     ; 0x2018 <main+0x1aae>
    494a: a4 1e        	ldy	$1e                     ; 0x201e <main+0x1ab4>
    494c: 84 7e        	sty	$7e                     ; 0x207e <main+0x1b14>
    494e: a5 1c        	lda	$1c                     ; 0x201c <main+0x1ab2>
    4950: d0 08        	bne	$495a <readDirectory+0x1be>
    4952: a4 1d        	ldy	$1d                     ; 0x201d <main+0x1ab3>
    4954: 84 18        	sty	$18                     ; 0x2018 <main+0x1aae>
    4956: e0 03        	cpx	#$3
    4958: f0 26        	beq	$4980 <readDirectory+0x1e4>
    495a: a6 1f        	ldx	$1f                     ; 0x201f <main+0x1ab5>
    495c: e8           	inx
    495d: d0 02        	bne	$4961 <readDirectory+0x1c5>
    495f: e6 19        	inc	$19                     ; 0x2019 <main+0x1aaf>
    4961: 18           	clc
    4962: a5 7e        	lda	$7e                     ; 0x207e <main+0x1b14>
    4964: 69 03        	adc	#$3
    4966: a4 19        	ldy	$19                     ; 0x2019 <main+0x1aaf>
    4968: f0 03        	beq	$496d <readDirectory+0x1d1>
    496a: 4c 5d 48     	jmp	$485d <readDirectory+0xc1>
    496d: e0 04        	cpx	#$4
    496f: f0 03        	beq	$4974 <readDirectory+0x1d8>
    4971: 4c 5d 48     	jmp	$485d <readDirectory+0xc1>
    4974: a0 01        	ldy	#$1
    4976: b1 12        	lda	($12),y                 ; 0x2012 <main+0x1aa8>
    4978: d0 03        	bne	$497d <readDirectory+0x1e1>
    497a: 4c eb 47     	jmp	$47eb <readDirectory+0x4f>
    497d: 4c 17 4a     	jmp	$4a17 <readDirectory+0x27b>
    4980: a5 23        	lda	$23                     ; 0x2023 <main+0x1ab9>
    4982: c9 41        	cmp	#$41
    4984: 90 08        	bcc	$498e <readDirectory+0x1f2>
    4986: c9 5b        	cmp	#$5b
    4988: b0 04        	bcs	$498e <readDirectory+0x1f2>
    498a: 09 20        	ora	#$20
    498c: 85 23        	sta	$23                     ; 0x2023 <main+0x1ab9>
    498e: a5 22        	lda	$22                     ; 0x2022 <main+0x1ab8>
    4990: c9 41        	cmp	#$41
    4992: 90 06        	bcc	$499a <readDirectory+0x1fe>
    4994: c9 5b        	cmp	#$5b
    4996: b0 02        	bcs	$499a <readDirectory+0x1fe>
    4998: 09 20        	ora	#$20
    499a: 85 1a        	sta	$1a                     ; 0x201a <main+0x1ab0>
    499c: a6 1d        	ldx	$1d                     ; 0x201d <main+0x1ab3>
    499e: 86 18        	stx	$18                     ; 0x2018 <main+0x1aae>
    49a0: a6 23        	ldx	$23                     ; 0x2023 <main+0x1ab9>
    49a2: e4 1a        	cpx	$1a                     ; 0x201a <main+0x1ab0>
    49a4: d0 b4        	bne	$495a <readDirectory+0x1be>
    49a6: a0 02        	ldy	#$2
    49a8: b1 16        	lda	($16),y                 ; 0x2016 <main+0x1aac>
    49aa: c9 41        	cmp	#$41
    49ac: 90 2c        	bcc	$49da <readDirectory+0x23e>
    49ae: c9 5b        	cmp	#$5b
    49b0: a6 1e        	ldx	$1e                     ; 0x201e <main+0x1ab4>
    49b2: b0 03        	bcs	$49b7 <readDirectory+0x21b>
    49b4: 4c 14 4b     	jmp	$4b14 <readDirectory+0x378>
    49b7: 85 1b        	sta	$1b                     ; 0x201b <main+0x1ab1>
    49b9: a0 03        	ldy	#$3
    49bb: 80 23        	bra	$49e0 <readDirectory+0x244>
    49bd: bd 1d a4     	lda	$a41d,x                 ; 0xa41d <fpr+0x11ec>
    49c0: c9 41        	cmp	#$41
    49c2: 90 03        	bcc	$49c7 <readDirectory+0x22b>
    49c4: 4c 19 4b     	jmp	$4b19 <readDirectory+0x37d>
    49c7: 85 16        	sta	$16                     ; 0x2016 <main+0x1aac>
    49c9: a6 1d        	ldx	$1d                     ; 0x201d <main+0x1ab3>
    49cb: 86 18        	stx	$18                     ; 0x2018 <main+0x1aae>
    49cd: a6 1e        	ldx	$1e                     ; 0x201e <main+0x1ab4>
    49cf: 86 7e        	stx	$7e                     ; 0x207e <main+0x1b14>
    49d1: a6 17        	ldx	$17                     ; 0x2017 <main+0x1aad>
    49d3: e4 16        	cpx	$16                     ; 0x2016 <main+0x1aac>
    49d5: f0 40        	beq	$4a17 <readDirectory+0x27b>
    49d7: 4c 5a 49     	jmp	$495a <readDirectory+0x1be>
    49da: 85 1b        	sta	$1b                     ; 0x201b <main+0x1ab1>
    49dc: a0 03        	ldy	#$3
    49de: a6 1e        	ldx	$1e                     ; 0x201e <main+0x1ab4>
    49e0: bd 1c a4     	lda	$a41c,x                 ; 0xa41c <fpr+0x11eb>
    49e3: c9 41        	cmp	#$41
    49e5: 90 07        	bcc	$49ee <readDirectory+0x252>
    49e7: c9 5b        	cmp	#$5b
    49e9: b0 03        	bcs	$49ee <readDirectory+0x252>
    49eb: 4c 23 4b     	jmp	$4b23 <readDirectory+0x387>
    49ee: 85 1a        	sta	$1a                     ; 0x201a <main+0x1ab0>
    49f0: a6 1d        	ldx	$1d                     ; 0x201d <main+0x1ab3>
    49f2: 86 18        	stx	$18                     ; 0x2018 <main+0x1aae>
    49f4: a6 1e        	ldx	$1e                     ; 0x201e <main+0x1ab4>
    49f6: 86 7e        	stx	$7e                     ; 0x207e <main+0x1b14>
    49f8: a6 1b        	ldx	$1b                     ; 0x201b <main+0x1ab1>
    49fa: e4 1a        	cpx	$1a                     ; 0x201a <main+0x1ab0>
    49fc: f0 03        	beq	$4a01 <readDirectory+0x265>
    49fe: 4c 5a 49     	jmp	$495a <readDirectory+0x1be>
    4a01: b1 16        	lda	($16),y                 ; 0x2016 <main+0x1aac>
    4a03: c9 41        	cmp	#$41
    4a05: b0 03        	bcs	$4a0a <readDirectory+0x26e>
    4a07: 4c 28 4b     	jmp	$4b28 <readDirectory+0x38c>
    4a0a: c9 5b        	cmp	#$5b
    4a0c: a6 1e        	ldx	$1e                     ; 0x201e <main+0x1ab4>
    4a0e: b0 03        	bcs	$4a13 <readDirectory+0x277>
    4a10: 4c 93 4b     	jmp	$4b93 <readDirectory+0x3f7>
    4a13: 85 17        	sta	$17                     ; 0x2017 <main+0x1aad>
    4a15: 80 a6        	bra	$49bd <readDirectory+0x221>
    4a17: a6 12        	ldx	$12                     ; 0x2012 <main+0x1aa8>
    4a19: 86 81        	stx	$81                     ; 0x2081 <main+0x1b17>
    4a1b: a6 13        	ldx	$13                     ; 0x2013 <main+0x1aa9>
    4a1d: 86 82        	stx	$82                     ; 0x2082 <main+0x1b18>
    4a1f: a2 2c        	ldx	#$2c
    4a21: 86 12        	stx	$12                     ; 0x2012 <main+0x1aa8>
    4a23: 64 13        	stz	$13                     ; 0x2013 <main+0x1aa9>
    4a25: a6 7d        	ldx	$7d                     ; 0x207d <main+0x1b13>
    4a27: a5 83        	lda	$83                     ; 0x2083 <main+0x1b19>
    4a29: a4 7a        	ldy	$7a                     ; 0x207a <main+0x1b10>
    4a2b: 84 84        	sty	$84                     ; 0x2084 <main+0x1b1a>
    4a2d: a4 7b        	ldy	$7b                     ; 0x207b <main+0x1b11>
    4a2f: 84 85        	sty	$85                     ; 0x2085 <main+0x1b1b>
    4a31: a4 14        	ldy	$14                     ; 0x2014 <main+0x1aaa>
    4a33: 84 7a        	sty	$7a                     ; 0x207a <main+0x1b10>
    4a35: a4 15        	ldy	$15                     ; 0x2015 <main+0x1aab>
    4a37: 84 7b        	sty	$7b                     ; 0x207b <main+0x1b11>
    4a39: 20 7c 82     	jsr	$827c <__mulhi3>
    4a3c: a4 7a        	ldy	$7a                     ; 0x207a <main+0x1b10>
    4a3e: 84 16        	sty	$16                     ; 0x2016 <main+0x1aac>
    4a40: a4 7b        	ldy	$7b                     ; 0x207b <main+0x1b11>
    4a42: 84 17        	sty	$17                     ; 0x2017 <main+0x1aad>
    4a44: a4 84        	ldy	$84                     ; 0x2084 <main+0x1b1a>
    4a46: 84 7a        	sty	$7a                     ; 0x207a <main+0x1b10>
    4a48: a4 85        	ldy	$85                     ; 0x2085 <main+0x1b1b>
    4a4a: 84 7b        	sty	$7b                     ; 0x207b <main+0x1b11>
    4a4c: a4 81        	ldy	$81                     ; 0x2081 <main+0x1b17>
    4a4e: 84 12        	sty	$12                     ; 0x2012 <main+0x1aa8>
    4a50: a4 82        	ldy	$82                     ; 0x2082 <main+0x1b18>
    4a52: 84 13        	sty	$13                     ; 0x2013 <main+0x1aa9>
    4a54: 85 14        	sta	$14                     ; 0x2014 <main+0x1aaa>
    4a56: 86 15        	stx	$15                     ; 0x2015 <main+0x1aab>
    4a58: a9 7f        	lda	#$7f
    4a5a: 18           	clc
    4a5b: 65 14        	adc	$14                     ; 0x2014 <main+0x1aaa>
    4a5d: aa           	tax
    4a5e: a9 92        	lda	#$92
    4a60: 65 15        	adc	$15                     ; 0x2015 <main+0x1aab>
    4a62: 86 1a        	stx	$1a                     ; 0x201a <main+0x1ab0>
    4a64: 86 14        	stx	$14                     ; 0x2014 <main+0x1aaa>
    4a66: 85 1b        	sta	$1b                     ; 0x201b <main+0x1ab1>
    4a68: 85 15        	sta	$15                     ; 0x2015 <main+0x1aab>
    4a6a: a2 2b        	ldx	#$2b
    4a6c: 64 18        	stz	$18                     ; 0x2018 <main+0x1aae>
    4a6e: 64 19        	stz	$19                     ; 0x2019 <main+0x1aaf>
    4a70: 80 06        	bra	$4a78 <readDirectory+0x2dc>
    4a72: e6 18        	inc	$18                     ; 0x2018 <main+0x1aae>
    4a74: a5 19        	lda	$19                     ; 0x2019 <main+0x1aaf>
    4a76: f0 17        	beq	$4a8f <readDirectory+0x2f3>
    4a78: a4 18        	ldy	$18                     ; 0x2018 <main+0x1aae>
    4a7a: b1 16        	lda	($16),y                 ; 0x2016 <main+0x1aac>
    4a7c: 85 1c        	sta	$1c                     ; 0x201c <main+0x1ab2>
    4a7e: b1 16        	lda	($16),y                 ; 0x2016 <main+0x1aac>
    4a80: 91 7a        	sta	($7a),y                 ; 0x207a <main+0x1b10>
    4a82: a5 1c        	lda	$1c                     ; 0x201c <main+0x1ab2>
    4a84: f0 0e        	beq	$4a94 <readDirectory+0x2f8>
    4a86: ca           	dex
    4a87: e0 ff        	cpx	#$ff
    4a89: d0 e7        	bne	$4a72 <readDirectory+0x2d6>
    4a8b: c6 19        	dec	$19                     ; 0x2019 <main+0x1aaf>
    4a8d: 80 e3        	bra	$4a72 <readDirectory+0x2d6>
    4a8f: 8a           	txa
    4a90: d0 e6        	bne	$4a78 <readDirectory+0x2dc>
    4a92: 80 42        	bra	$4ad6 <readDirectory+0x33a>
    4a94: ca           	dex
    4a95: e0 ff        	cpx	#$ff
    4a97: d0 02        	bne	$4a9b <readDirectory+0x2ff>
    4a99: c6 19        	dec	$19                     ; 0x2019 <main+0x1aaf>
    4a9b: a5 19        	lda	$19                     ; 0x2019 <main+0x1aaf>
    4a9d: d0 03        	bne	$4aa2 <readDirectory+0x306>
    4a9f: 8a           	txa
    4aa0: f0 34        	beq	$4ad6 <readDirectory+0x33a>
    4aa2: 18           	clc
    4aa3: a5 1a        	lda	$1a                     ; 0x201a <main+0x1ab0>
    4aa5: 65 18        	adc	$18                     ; 0x2018 <main+0x1aae>
    4aa7: 85 12        	sta	$12                     ; 0x2012 <main+0x1aa8>
    4aa9: a5 1b        	lda	$1b                     ; 0x201b <main+0x1ab1>
    4aab: 69 00        	adc	#$0
    4aad: a4 14        	ldy	$14                     ; 0x2014 <main+0x1aaa>
    4aaf: 84 86        	sty	$86                     ; 0x2086 <main+0x1b1c>
    4ab1: a4 15        	ldy	$15                     ; 0x2015 <main+0x1aab>
    4ab3: 84 87        	sty	$87                     ; 0x2087 <main+0x1b1d>
    4ab5: 85 13        	sta	$13                     ; 0x2013 <main+0x1aa9>
    4ab7: e6 12        	inc	$12                     ; 0x2012 <main+0x1aa8>
    4ab9: d0 02        	bne	$4abd <readDirectory+0x321>
    4abb: e6 13        	inc	$13                     ; 0x2013 <main+0x1aa9>
    4abd: a4 19        	ldy	$19                     ; 0x2019 <main+0x1aaf>
    4abf: 84 14        	sty	$14                     ; 0x2014 <main+0x1aaa>
    4ac1: a9 00        	lda	#$0
    4ac3: 20 51 82     	jsr	$8251 <__memset>
    4ac6: a6 86        	ldx	$86                     ; 0x2086 <main+0x1b1c>
    4ac8: 86 14        	stx	$14                     ; 0x2014 <main+0x1aaa>
    4aca: a6 87        	ldx	$87                     ; 0x2087 <main+0x1b1d>
    4acc: 86 15        	stx	$15                     ; 0x2015 <main+0x1aab>
    4ace: a6 81        	ldx	$81                     ; 0x2081 <main+0x1b17>
    4ad0: 86 12        	stx	$12                     ; 0x2012 <main+0x1aa8>
    4ad2: a6 82        	ldx	$82                     ; 0x2082 <main+0x1b18>
    4ad4: 86 13        	stx	$13                     ; 0x2013 <main+0x1aa9>
    4ad6: a9 00        	lda	#$0
    4ad8: a0 2b        	ldy	#$2b
    4ada: 91 14        	sta	($14),y                 ; 0x2014 <main+0x1aaa>
    4adc: a0 01        	ldy	#$1
    4ade: b1 12        	lda	($12),y                 ; 0x2012 <main+0x1aa8>
    4ae0: 2c 8d 84     	bit	$848d                   ; 0x848d <__set_v>
    4ae3: c9 01        	cmp	#$1
    4ae5: f0 01        	beq	$4ae8 <readDirectory+0x34c>
    4ae7: b8           	clv
    4ae8: 98           	tya
    4ae9: a6 7c        	ldx	$7c                     ; 0x207c <main+0x1b12>
    4aeb: 70 02        	bvs	$4aef <readDirectory+0x353>
    4aed: a9 00        	lda	#$0
    4aef: 9d b0 a3     	sta	$a3b0,x                 ; 0xa3b0 <fpr+0x117f>
    4af2: a4 83        	ldy	$83                     ; 0x2083 <main+0x1b19>
    4af4: 84 12        	sty	$12                     ; 0x2012 <main+0x1aa8>
    4af6: a4 7d        	ldy	$7d                     ; 0x207d <main+0x1b13>
    4af8: e6 12        	inc	$12                     ; 0x2012 <main+0x1aa8>
    4afa: d0 01        	bne	$4afd <readDirectory+0x361>
    4afc: c8           	iny
    4afd: e8           	inx
    4afe: a5 7a        	lda	$7a                     ; 0x207a <main+0x1b10>
    4b00: 18           	clc
    4b01: 69 2c        	adc	#$2c
    4b03: 85 7a        	sta	$7a                     ; 0x207a <main+0x1b10>
    4b05: a5 7b        	lda	$7b                     ; 0x207b <main+0x1b11>
    4b07: 69 00        	adc	#$0
    4b09: 85 7b        	sta	$7b                     ; 0x207b <main+0x1b11>
    4b0b: a5 12        	lda	$12                     ; 0x2012 <main+0x1aa8>
    4b0d: 85 83        	sta	$83                     ; 0x2083 <main+0x1b19>
    4b0f: 84 7d        	sty	$7d                     ; 0x207d <main+0x1b13>
    4b11: 4c e9 47     	jmp	$47e9 <readDirectory+0x4d>
    4b14: 09 20        	ora	#$20
    4b16: 4c b7 49     	jmp	$49b7 <readDirectory+0x21b>
    4b19: c9 5b        	cmp	#$5b
    4b1b: b0 03        	bcs	$4b20 <readDirectory+0x384>
    4b1d: 4c 98 4b     	jmp	$4b98 <readDirectory+0x3fc>
    4b20: 4c c7 49     	jmp	$49c7 <readDirectory+0x22b>
    4b23: 09 20        	ora	#$20
    4b25: 4c ee 49     	jmp	$49ee <readDirectory+0x252>
    4b28: 85 17        	sta	$17                     ; 0x2017 <main+0x1aad>
    4b2a: a6 1e        	ldx	$1e                     ; 0x201e <main+0x1ab4>
    4b2c: 4c bd 49     	jmp	$49bd <readDirectory+0x221>
    4b2f: a6 83        	ldx	$83                     ; 0x2083 <main+0x1b19>
    4b31: 8e 13 a4     	stx	$a413                   ; 0xa413 <fpr+0x11e2>
    4b34: a6 7d        	ldx	$7d                     ; 0x207d <main+0x1b13>
    4b36: 8e 14 a4     	stx	$a414                   ; 0xa414 <fpr+0x11e3>
    4b39: a2 7f        	ldx	#$7f
    4b3b: 86 12        	stx	$12                     ; 0x2012 <main+0x1aa8>
    4b3d: a2 92        	ldx	#$92
    4b3f: 86 13        	stx	$13                     ; 0x2013 <main+0x1aa9>
    4b41: a2 84        	ldx	#$84
    4b43: 86 14        	stx	$14                     ; 0x2014 <main+0x1aaa>
    4b45: a2 8f        	ldx	#$8f
    4b47: 86 15        	stx	$15                     ; 0x2015 <main+0x1aab>
    4b49: a9 2c        	lda	#$2c
    4b4b: a2 00        	ldx	#$0
    4b4d: 20 25 82     	jsr	$8225 <memcpy>
    4b50: a2 80        	ldx	#$80
    4b52: a0 00        	ldy	#$0
    4b54: 86 12        	stx	$12                     ; 0x2012 <main+0x1aa8>
    4b56: 84 13        	sty	$13                     ; 0x2013 <main+0x1aa9>
    4b58: a2 63        	ldx	#$63
    4b5a: 86 14        	stx	$14                     ; 0x2014 <main+0x1aaa>
    4b5c: a2 00        	ldx	#$0
    4b5e: 86 15        	stx	$15                     ; 0x2015 <main+0x1aab>
    4b60: a2 7f        	ldx	#$7f
    4b62: a0 00        	ldy	#$0
    4b64: b2 76        	lda	($76)                   ; 0x2076 <main+0x1b0c>
    4b66: f0 18        	beq	$4b80 <readDirectory+0x3e4>
    4b68: 85 f3        	sta	$f3                     ; 0x20f3 <main+0x1b89>
    4b6a: 86 16        	stx	$16                     ; 0x2016 <main+0x1aac>
    4b6c: 84 17        	sty	$17                     ; 0x2017 <main+0x1aad>
    4b6e: 20 80 ff     	jsr	$ff80 <__heap_start+0x59ec>
    4b71: 92 16        	sta	($16)                   ; 0x2016 <main+0x1aac>
    4b73: a9 00        	lda	#$0
    4b75: 6a           	ror
    4b76: 85 14        	sta	$14                     ; 0x2014 <main+0x1aaa>
    4b78: a5 63        	lda	$63                     ; 0x2063 <main+0x1af9>
    4b7a: d0 04        	bne	$4b80 <readDirectory+0x3e4>
    4b7c: a9 00        	lda	#$0
    4b7e: 92 76        	sta	($76)                   ; 0x2076 <main+0x1b0c>
    4b80: 64 64        	stz	$64                     ; 0x2064 <main+0x1afa>
    4b82: 20 00 ff     	jsr	$ff00 <__heap_start+0x596c>
    4b85: 92 12        	sta	($12)                   ; 0x2012 <main+0x1aa8>
    4b87: a9 00        	lda	#$0
    4b89: 6a           	ror
    4b8a: 85 14        	sta	$14                     ; 0x2014 <main+0x1aaa>
    4b8c: a5 64        	lda	$64                     ; 0x2064 <main+0x1afa>
    4b8e: c9 46        	cmp	#$46
    4b90: d0 d2        	bne	$4b64 <readDirectory+0x3c8>
    4b92: 60           	rts
    4b93: 09 20        	ora	#$20
    4b95: 4c 13 4a     	jmp	$4a13 <readDirectory+0x277>
    4b98: 09 20        	ora	#$20
    4b9a: 4c c7 49     	jmp	$49c7 <readDirectory+0x22b>

00004b9d <filePickModal>:
    4b9d: 48           	pha
    4b9e: 18           	clc
    4b9f: a5 10        	lda	$10                     ; 0x2010 <main+0x1aa6>
    4ba1: 69 fa        	adc	#$fa
    4ba3: 85 10        	sta	$10                     ; 0x2010 <main+0x1aa6>
    4ba5: a5 11        	lda	$11                     ; 0x2011 <main+0x1aa7>
    4ba7: 69 ff        	adc	#$ff
    4ba9: 85 11        	sta	$11                     ; 0x2011 <main+0x1aa7>
    4bab: 68           	pla
    4bac: 29 01        	and	#$1
    4bae: 85 71        	sta	$71                     ; 0x2071 <main+0x1b07>
    4bb0: a2 53        	ldx	#$53
    4bb2: 86 12        	stx	$12                     ; 0x2012 <main+0x1aa8>
    4bb4: a2 92        	ldx	#$92
    4bb6: 86 13        	stx	$13                     ; 0x2013 <main+0x1aa9>
    4bb8: a2 2c        	ldx	#$2c
    4bba: 64 14        	stz	$14                     ; 0x2014 <main+0x1aaa>
    4bbc: a9 00        	lda	#$0
    4bbe: 20 51 82     	jsr	$8251 <__memset>
    4bc1: a2 ab        	ldx	#$ab
    4bc3: 86 12        	stx	$12                     ; 0x2012 <main+0x1aa8>
    4bc5: a2 92        	ldx	#$92
    4bc7: 86 13        	stx	$13                     ; 0x2013 <main+0x1aa9>
    4bc9: a2 11        	ldx	#$11
    4bcb: 86 14        	stx	$14                     ; 0x2014 <main+0x1aaa>
    4bcd: a2 04        	ldx	#$4
    4bcf: a9 00        	lda	#$0
    4bd1: 20 51 82     	jsr	$8251 <__memset>
    4bd4: a2 b0        	ldx	#$b0
    4bd6: 86 12        	stx	$12                     ; 0x2012 <main+0x1aa8>
    4bd8: a2 a3        	ldx	#$a3
    4bda: 86 13        	stx	$13                     ; 0x2013 <main+0x1aa9>
    4bdc: a2 63        	ldx	#$63
    4bde: 64 14        	stz	$14                     ; 0x2014 <main+0x1aaa>
    4be0: a9 00        	lda	#$0
    4be2: 20 51 82     	jsr	$8251 <__memset>
    4be5: a5 71        	lda	$71                     ; 0x2071 <main+0x1b07>
    4be7: f0 18        	beq	$4c01 <filePickModal+0x64>
    4be9: 9c 13 a4     	stz	$a413                   ; 0xa413 <fpr+0x11e2>
    4bec: 9c 14 a4     	stz	$a414                   ; 0xa414 <fpr+0x11e3>
    4bef: 9c 15 a4     	stz	$a415                   ; 0xa415 <fpr+0x11e4>
    4bf2: 9c 16 a4     	stz	$a416                   ; 0xa416 <fpr+0x11e5>
    4bf5: 9c 17 a4     	stz	$a417                   ; 0xa417 <fpr+0x11e6>
    4bf8: 9c 18 a4     	stz	$a418                   ; 0xa418 <fpr+0x11e7>
    4bfb: 9c 19 a4     	stz	$a419                   ; 0xa419 <fpr+0x11e8>
    4bfe: 9c 1a a4     	stz	$a41a                   ; 0xa41a <fpr+0x11e9>
    4c01: a2 01        	ldx	#$1
    4c03: 8e 31 92     	stx	$9231                   ; 0x9231 <fpr>
    4c06: a2 06        	ldx	#$6
    4c08: 8e 32 92     	stx	$9232                   ; 0x9232 <fpr+0x1>
    4c0b: a6 31        	ldx	$31                     ; 0x2031 <main+0x1ac7>
    4c0d: 8e 1b a4     	stx	$a41b                   ; 0xa41b <fpr+0x11ea>
    4c10: a6 32        	ldx	$32                     ; 0x2032 <main+0x1ac8>
    4c12: 8e 1c a4     	stx	$a41c                   ; 0xa41c <fpr+0x11eb>
    4c15: a6 33        	ldx	$33                     ; 0x2033 <main+0x1ac9>
    4c17: 8e 1d a4     	stx	$a41d                   ; 0xa41d <fpr+0x11ec>
    4c1a: a2 09        	ldx	#$9
    4c1c: a0 1e        	ldy	#$1e
    4c1e: 84 12        	sty	$12                     ; 0x2012 <main+0x1aa8>
    4c20: a0 a4        	ldy	#$a4
    4c22: 84 13        	sty	$13                     ; 0x2013 <main+0x1aa9>
    4c24: a9 00        	lda	#$0
    4c26: 64 14        	stz	$14                     ; 0x2014 <main+0x1aaa>
    4c28: 20 51 82     	jsr	$8251 <__memset>
    4c2b: 20 9c 47     	jsr	$479c <readDirectory>
    4c2e: 20 5b 34     	jsr	$345b <sortFileList>
    4c31: a2 75        	ldx	#$75
    4c33: 86 30        	stx	$30                     ; 0x2030 <main+0x1ac6>
    4c35: 64 38        	stz	$38                     ; 0x2038 <main+0x1ace>
    4c37: 9c 14 d0     	stz	$d014                   ; 0xd014 <__heap_start+0x2a80>
    4c3a: 9c 15 d0     	stz	$d015                   ; 0xd015 <__heap_start+0x2a81>
    4c3d: a2 02        	ldx	#$2
    4c3f: 86 39        	stx	$39                     ; 0x2039 <main+0x1acf>
    4c41: 8e 16 d0     	stx	$d016                   ; 0xd016 <__heap_start+0x2a82>
    4c44: 9c 17 d0     	stz	$d017                   ; 0xd017 <__heap_start+0x2a83>
    4c47: a9 79        	lda	#$79
    4c49: 92 10        	sta	($10)                   ; 0x2010 <main+0x1aa6>
    4c4b: a0 01        	ldy	#$1
    4c4d: a9 87        	lda	#$87
    4c4f: 91 10        	sta	($10),y                 ; 0x2010 <main+0x1aa6>
    4c51: a2 8d        	ldx	#$8d
    4c53: 86 12        	stx	$12                     ; 0x2012 <main+0x1aa8>
    4c55: a2 8a        	ldx	#$8a
    4c57: 86 13        	stx	$13                     ; 0x2013 <main+0x1aa9>
    4c59: 20 64 7d     	jsr	$7d64 <printf>
    4c5c: 64 38        	stz	$38                     ; 0x2038 <main+0x1ace>
    4c5e: 9c 14 d0     	stz	$d014                   ; 0xd014 <__heap_start+0x2a80>
    4c61: 9c 15 d0     	stz	$d015                   ; 0xd015 <__heap_start+0x2a81>
    4c64: a2 03        	ldx	#$3
    4c66: 86 39        	stx	$39                     ; 0x2039 <main+0x1acf>
    4c68: 8e 16 d0     	stx	$d016                   ; 0xd016 <__heap_start+0x2a82>
    4c6b: 9c 17 d0     	stz	$d017                   ; 0xd017 <__heap_start+0x2a83>
    4c6e: a9 b1        	lda	#$b1
    4c70: 92 10        	sta	($10)                   ; 0x2010 <main+0x1aa6>
    4c72: a0 01        	ldy	#$1
    4c74: a9 87        	lda	#$87
    4c76: 91 10        	sta	($10),y                 ; 0x2010 <main+0x1aa6>
    4c78: a2 8d        	ldx	#$8d
    4c7a: 86 12        	stx	$12                     ; 0x2012 <main+0x1aa8>
    4c7c: a2 8a        	ldx	#$8a
    4c7e: 86 13        	stx	$13                     ; 0x2013 <main+0x1aa9>
    4c80: 20 64 7d     	jsr	$7d64 <printf>
    4c83: 64 38        	stz	$38                     ; 0x2038 <main+0x1ace>
    4c85: 9c 14 d0     	stz	$d014                   ; 0xd014 <__heap_start+0x2a80>
    4c88: 9c 15 d0     	stz	$d015                   ; 0xd015 <__heap_start+0x2a81>
    4c8b: a2 04        	ldx	#$4
    4c8d: 86 39        	stx	$39                     ; 0x2039 <main+0x1acf>
    4c8f: 8e 16 d0     	stx	$d016                   ; 0xd016 <__heap_start+0x2a82>
    4c92: 9c 17 d0     	stz	$d017                   ; 0xd017 <__heap_start+0x2a83>
    4c95: a9 1a        	lda	#$1a
    4c97: 92 10        	sta	($10)                   ; 0x2010 <main+0x1aa6>
    4c99: a0 01        	ldy	#$1
    4c9b: a9 86        	lda	#$86
    4c9d: 91 10        	sta	($10),y                 ; 0x2010 <main+0x1aa6>
    4c9f: a2 8d        	ldx	#$8d
    4ca1: 86 12        	stx	$12                     ; 0x2012 <main+0x1aa8>
    4ca3: a2 8a        	ldx	#$8a
    4ca5: 86 13        	stx	$13                     ; 0x2013 <main+0x1aa9>
    4ca7: 20 64 7d     	jsr	$7d64 <printf>
    4caa: 64 38        	stz	$38                     ; 0x2038 <main+0x1ace>
    4cac: 9c 14 d0     	stz	$d014                   ; 0xd014 <__heap_start+0x2a80>
    4caf: 9c 15 d0     	stz	$d015                   ; 0xd015 <__heap_start+0x2a81>
    4cb2: a2 05        	ldx	#$5
    4cb4: 86 39        	stx	$39                     ; 0x2039 <main+0x1acf>
    4cb6: 8e 16 d0     	stx	$d016                   ; 0xd016 <__heap_start+0x2a82>
    4cb9: 9c 17 d0     	stz	$d017                   ; 0xd017 <__heap_start+0x2a83>
    4cbc: a9 79        	lda	#$79
    4cbe: 92 10        	sta	($10)                   ; 0x2010 <main+0x1aa6>
    4cc0: a0 01        	ldy	#$1
    4cc2: a9 87        	lda	#$87
    4cc4: 91 10        	sta	($10),y                 ; 0x2010 <main+0x1aa6>
    4cc6: a2 8d        	ldx	#$8d
    4cc8: 86 12        	stx	$12                     ; 0x2012 <main+0x1aa8>
    4cca: a2 8a        	ldx	#$8a
    4ccc: 86 13        	stx	$13                     ; 0x2013 <main+0x1aa9>
    4cce: 20 64 7d     	jsr	$7d64 <printf>
    4cd1: a2 70        	ldx	#$70
    4cd3: 86 30        	stx	$30                     ; 0x2030 <main+0x1ac6>
    4cd5: ad 19 a4     	lda	$a419                   ; 0xa419 <fpr+0x11e8>
    4cd8: ae 1a a4     	ldx	$a41a                   ; 0xa41a <fpr+0x11e9>
    4cdb: a0 31        	ldy	#$31
    4cdd: 84 12        	sty	$12                     ; 0x2012 <main+0x1aa8>
    4cdf: a0 92        	ldy	#$92
    4ce1: 84 13        	sty	$13                     ; 0x2013 <main+0x1aa9>
    4ce3: 20 f4 43     	jsr	$43f4 <displayFileList>
    4ce6: a2 00        	ldx	#$0
    4ce8: 86 71        	stx	$71                     ; 0x2071 <main+0x1b07>
    4cea: a2 00        	ldx	#$0
    4cec: 86 72        	stx	$72                     ; 0x2072 <main+0x1b08>
    4cee: a2 33        	ldx	#$33
    4cf0: a0 92        	ldy	#$92
    4cf2: 86 73        	stx	$73                     ; 0x2073 <main+0x1b09>
    4cf4: 84 74        	sty	$74                     ; 0x2074 <main+0x1b0a>
    4cf6: 4c 5d 4e     	jmp	$4e5d <filePickModal+0x2c0>
    4cf9: ad 33 92     	lda	$9233                   ; 0x9233 <fpr+0x2>
    4cfc: d0 03        	bne	$4d01 <filePickModal+0x164>
    4cfe: 4c 22 4e     	jmp	$4e22 <filePickModal+0x285>
    4d01: c9 2f        	cmp	#$2f
    4d03: d0 0c        	bne	$4d11 <filePickModal+0x174>
    4d05: ae 34 92     	ldx	$9234                   ; 0x9234 <fpr+0x3>
    4d08: a9 2f        	lda	#$2f
    4d0a: e0 00        	cpx	#$0
    4d0c: d0 03        	bne	$4d11 <filePickModal+0x174>
    4d0e: 4c 22 4e     	jmp	$4e22 <filePickModal+0x285>
    4d11: a2 00        	ldx	#$0
    4d13: 86 12        	stx	$12                     ; 0x2012 <main+0x1aa8>
    4d15: a2 00        	ldx	#$0
    4d17: 86 13        	stx	$13                     ; 0x2013 <main+0x1aa9>
    4d19: a2 33        	ldx	#$33
    4d1b: 86 14        	stx	$14                     ; 0x2014 <main+0x1aaa>
    4d1d: a2 92        	ldx	#$92
    4d1f: 86 15        	stx	$15                     ; 0x2015 <main+0x1aab>
    4d21: a0 01        	ldy	#$1
    4d23: c9 2f        	cmp	#$2f
    4d25: d0 08        	bne	$4d2f <filePickModal+0x192>
    4d27: a6 14        	ldx	$14                     ; 0x2014 <main+0x1aaa>
    4d29: 86 12        	stx	$12                     ; 0x2012 <main+0x1aa8>
    4d2b: a6 15        	ldx	$15                     ; 0x2015 <main+0x1aab>
    4d2d: 86 13        	stx	$13                     ; 0x2013 <main+0x1aa9>
    4d2f: b1 14        	lda	($14),y                 ; 0x2014 <main+0x1aaa>
    4d31: e6 14        	inc	$14                     ; 0x2014 <main+0x1aaa>
    4d33: d0 02        	bne	$4d37 <filePickModal+0x19a>
    4d35: e6 15        	inc	$15                     ; 0x2015 <main+0x1aab>
    4d37: aa           	tax
    4d38: d0 e9        	bne	$4d23 <filePickModal+0x186>
    4d3a: a6 13        	ldx	$13                     ; 0x2013 <main+0x1aa9>
    4d3c: e4 72        	cpx	$72                     ; 0x2072 <main+0x1b08>
    4d3e: d0 06        	bne	$4d46 <filePickModal+0x1a9>
    4d40: a6 12        	ldx	$12                     ; 0x2012 <main+0x1aa8>
    4d42: e4 71        	cpx	$71                     ; 0x2071 <main+0x1b07>
    4d44: f0 12        	beq	$4d58 <filePickModal+0x1bb>
    4d46: a6 13        	ldx	$13                     ; 0x2013 <main+0x1aa9>
    4d48: e4 74        	cpx	$74                     ; 0x2074 <main+0x1b0a>
    4d4a: f0 03        	beq	$4d4f <filePickModal+0x1b2>
    4d4c: 4c 1e 4e     	jmp	$4e1e <filePickModal+0x281>
    4d4f: a6 12        	ldx	$12                     ; 0x2012 <main+0x1aa8>
    4d51: e4 73        	cpx	$73                     ; 0x2073 <main+0x1b09>
    4d53: f0 03        	beq	$4d58 <filePickModal+0x1bb>
    4d55: 4c 1e 4e     	jmp	$4e1e <filePickModal+0x281>
    4d58: 9c 33 92     	stz	$9233                   ; 0x9233 <fpr+0x2>
    4d5b: 4c 22 4e     	jmp	$4e22 <filePickModal+0x285>
    4d5e: a6 10        	ldx	$10                     ; 0x2010 <main+0x1aa6>
    4d60: a4 11        	ldy	$11                     ; 0x2011 <main+0x1aa7>
    4d62: 18           	clc
    4d63: 8a           	txa
    4d64: 69 02        	adc	#$2
    4d66: 85 12        	sta	$12                     ; 0x2012 <main+0x1aa8>
    4d68: 98           	tya
    4d69: 69 00        	adc	#$0
    4d6b: 85 13        	sta	$13                     ; 0x2013 <main+0x1aa9>
    4d6d: 18           	clc
    4d6e: 8a           	txa
    4d6f: 69 04        	adc	#$4
    4d71: 85 14        	sta	$14                     ; 0x2014 <main+0x1aaa>
    4d73: 98           	tya
    4d74: 69 00        	adc	#$0
    4d76: aa           	tax
    4d77: a9 33        	lda	#$33
    4d79: 92 10        	sta	($10)                   ; 0x2010 <main+0x1aa6>
    4d7b: a0 01        	ldy	#$1
    4d7d: a9 92        	lda	#$92
    4d7f: 91 10        	sta	($10),y                 ; 0x2010 <main+0x1aa6>
    4d81: c8           	iny
    4d82: a9 63        	lda	#$63
    4d84: 91 10        	sta	($10),y                 ; 0x2010 <main+0x1aa6>
    4d86: a9 88        	lda	#$88
    4d88: 88           	dey
    4d89: 91 12        	sta	($12),y                 ; 0x2012 <main+0x1aa8>
    4d8b: a4 14        	ldy	$14                     ; 0x2014 <main+0x1aaa>
    4d8d: 84 12        	sty	$12                     ; 0x2012 <main+0x1aa8>
    4d8f: 86 13        	stx	$13                     ; 0x2013 <main+0x1aa9>
    4d91: a9 53        	lda	#$53
    4d93: a0 04        	ldy	#$4
    4d95: 91 10        	sta	($10),y                 ; 0x2010 <main+0x1aa6>
    4d97: a9 92        	lda	#$92
    4d99: a0 01        	ldy	#$1
    4d9b: 91 12        	sta	($12),y                 ; 0x2012 <main+0x1aa8>
    4d9d: a2 27        	ldx	#$27
    4d9f: 86 12        	stx	$12                     ; 0x2012 <main+0x1aa8>
    4da1: a2 a5        	ldx	#$a5
    4da3: 86 13        	stx	$13                     ; 0x2013 <main+0x1aa9>
    4da5: a2 57        	ldx	#$57
    4da7: 86 14        	stx	$14                     ; 0x2014 <main+0x1aaa>
    4da9: a2 8d        	ldx	#$8d
    4dab: 86 15        	stx	$15                     ; 0x2015 <main+0x1aab>
    4dad: 20 ec 7d     	jsr	$7dec <sprintf>
    4db0: a2 ab        	ldx	#$ab
    4db2: 86 12        	stx	$12                     ; 0x2012 <main+0x1aa8>
    4db4: a2 92        	ldx	#$92
    4db6: 86 13        	stx	$13                     ; 0x2013 <main+0x1aa9>
    4db8: 64 75        	stz	$75                     ; 0x2075 <main+0x1b0b>
    4dba: a2 11        	ldx	#$11
    4dbc: 86 14        	stx	$14                     ; 0x2014 <main+0x1aaa>
    4dbe: a2 04        	ldx	#$4
    4dc0: a9 00        	lda	#$0
    4dc2: 20 51 82     	jsr	$8251 <__memset>
    4dc5: a2 b0        	ldx	#$b0
    4dc7: 86 12        	stx	$12                     ; 0x2012 <main+0x1aa8>
    4dc9: a2 a3        	ldx	#$a3
    4dcb: 86 13        	stx	$13                     ; 0x2013 <main+0x1aa9>
    4dcd: 64 14        	stz	$14                     ; 0x2014 <main+0x1aaa>
    4dcf: a2 6b        	ldx	#$6b
    4dd1: a9 00        	lda	#$0
    4dd3: 20 51 82     	jsr	$8251 <__memset>
    4dd6: a2 20        	ldx	#$20
    4dd8: 64 14        	stz	$14                     ; 0x2014 <main+0x1aaa>
    4dda: 80 06        	bra	$4de2 <filePickModal+0x245>
    4ddc: e6 75        	inc	$75                     ; 0x2075 <main+0x1b0b>
    4dde: a5 14        	lda	$14                     ; 0x2014 <main+0x1aaa>
    4de0: f0 1a        	beq	$4dfc <filePickModal+0x25f>
    4de2: a4 75        	ldy	$75                     ; 0x2075 <main+0x1b0b>
    4de4: b9 27 a5     	lda	$a527,y                 ; 0xa527 <__data_load_start+0x143f>
    4de7: 85 12        	sta	$12                     ; 0x2012 <main+0x1aa8>
    4de9: b9 27 a5     	lda	$a527,y                 ; 0xa527 <__data_load_start+0x143f>
    4dec: 99 33 92     	sta	$9233,y                 ; 0x9233 <fpr+0x2>
    4def: a5 12        	lda	$12                     ; 0x2012 <main+0x1aa8>
    4df1: f0 0e        	beq	$4e01 <filePickModal+0x264>
    4df3: ca           	dex
    4df4: e0 ff        	cpx	#$ff
    4df6: d0 e4        	bne	$4ddc <filePickModal+0x23f>
    4df8: c6 14        	dec	$14                     ; 0x2014 <main+0x1aaa>
    4dfa: 80 e0        	bra	$4ddc <filePickModal+0x23f>
    4dfc: 8a           	txa
    4dfd: d0 e3        	bne	$4de2 <filePickModal+0x245>
    4dff: 80 45        	bra	$4e46 <filePickModal+0x2a9>
    4e01: ca           	dex
    4e02: e0 ff        	cpx	#$ff
    4e04: d0 02        	bne	$4e08 <filePickModal+0x26b>
    4e06: c6 14        	dec	$14                     ; 0x2014 <main+0x1aaa>
    4e08: a5 14        	lda	$14                     ; 0x2014 <main+0x1aaa>
    4e0a: d0 03        	bne	$4e0f <filePickModal+0x272>
    4e0c: 8a           	txa
    4e0d: f0 37        	beq	$4e46 <filePickModal+0x2a9>
    4e0f: a9 34        	lda	#$34
    4e11: 18           	clc
    4e12: 65 75        	adc	$75                     ; 0x2075 <main+0x1b0b>
    4e14: 85 12        	sta	$12                     ; 0x2012 <main+0x1aa8>
    4e16: a9 92        	lda	#$92
    4e18: 69 00        	adc	#$0
    4e1a: 85 13        	sta	$13                     ; 0x2013 <main+0x1aa9>
    4e1c: 80 23        	bra	$4e41 <filePickModal+0x2a4>
    4e1e: a9 00        	lda	#$0
    4e20: 92 12        	sta	($12)                   ; 0x2012 <main+0x1aa8>
    4e22: a2 ab        	ldx	#$ab
    4e24: 86 12        	stx	$12                     ; 0x2012 <main+0x1aa8>
    4e26: a2 92        	ldx	#$92
    4e28: 86 13        	stx	$13                     ; 0x2013 <main+0x1aa9>
    4e2a: a2 11        	ldx	#$11
    4e2c: 86 14        	stx	$14                     ; 0x2014 <main+0x1aaa>
    4e2e: a2 04        	ldx	#$4
    4e30: a9 00        	lda	#$0
    4e32: 20 51 82     	jsr	$8251 <__memset>
    4e35: a2 b0        	ldx	#$b0
    4e37: 86 12        	stx	$12                     ; 0x2012 <main+0x1aa8>
    4e39: a2 a3        	ldx	#$a3
    4e3b: 86 13        	stx	$13                     ; 0x2013 <main+0x1aa9>
    4e3d: 64 14        	stz	$14                     ; 0x2014 <main+0x1aaa>
    4e3f: a2 6b        	ldx	#$6b
    4e41: a9 00        	lda	#$0
    4e43: 20 51 82     	jsr	$8251 <__memset>
    4e46: 20 9c 47     	jsr	$479c <readDirectory>
    4e49: 20 5b 34     	jsr	$345b <sortFileList>
    4e4c: ad 19 a4     	lda	$a419                   ; 0xa419 <fpr+0x11e8>
    4e4f: ae 1a a4     	ldx	$a41a                   ; 0xa41a <fpr+0x11e9>
    4e52: a0 31        	ldy	#$31
    4e54: 84 12        	sty	$12                     ; 0x2012 <main+0x1aa8>
    4e56: a0 92        	ldy	#$92
    4e58: 84 13        	sty	$13                     ; 0x2013 <main+0x1aa9>
    4e5a: 20 f4 43     	jsr	$43f4 <displayFileList>
    4e5d: 20 a7 37     	jsr	$37a7 <pickFile>
    4e60: c9 04        	cmp	#$4
    4e62: b0 f9        	bcs	$4e5d <filePickModal+0x2c0>
    4e64: 0a           	asl
    4e65: aa           	tax
    4e66: 7c f4 84     	jmp	($84f4,x)               ; 0x84f4 <__set_v+0x67>
    4e69: ae 31 92     	ldx	$9231                   ; 0x9231 <fpr>
    4e6c: ac 32 92     	ldy	$9232                   ; 0x9232 <fpr+0x1>
    4e6f: 8e 14 d0     	stx	$d014                   ; 0xd014 <__heap_start+0x2a80>
    4e72: 9c 15 d0     	stz	$d015                   ; 0xd015 <__heap_start+0x2a81>
    4e75: 8c 16 d0     	sty	$d016                   ; 0xd016 <__heap_start+0x2a82>
    4e78: 9c 17 d0     	stz	$d017                   ; 0xd017 <__heap_start+0x2a83>
    4e7b: 64 30        	stz	$30                     ; 0x2030 <main+0x1ac6>
    4e7d: 64 38        	stz	$38                     ; 0x2038 <main+0x1ace>
    4e7f: 9c 14 d0     	stz	$d014                   ; 0xd014 <__heap_start+0x2a80>
    4e82: 9c 15 d0     	stz	$d015                   ; 0xd015 <__heap_start+0x2a81>
    4e85: a2 02        	ldx	#$2
    4e87: 86 39        	stx	$39                     ; 0x2039 <main+0x1acf>
    4e89: 8e 16 d0     	stx	$d016                   ; 0xd016 <__heap_start+0x2a82>
    4e8c: 9c 17 d0     	stz	$d017                   ; 0xd017 <__heap_start+0x2a83>
    4e8f: a2 f7        	ldx	#$f7
    4e91: 86 12        	stx	$12                     ; 0x2012 <main+0x1aa8>
    4e93: a2 86        	ldx	#$86
    4e95: 86 13        	stx	$13                     ; 0x2013 <main+0x1aa9>
    4e97: 20 64 7d     	jsr	$7d64 <printf>
    4e9a: 64 38        	stz	$38                     ; 0x2038 <main+0x1ace>
    4e9c: 9c 14 d0     	stz	$d014                   ; 0xd014 <__heap_start+0x2a80>
    4e9f: 9c 15 d0     	stz	$d015                   ; 0xd015 <__heap_start+0x2a81>
    4ea2: a2 03        	ldx	#$3
    4ea4: 86 39        	stx	$39                     ; 0x2039 <main+0x1acf>
    4ea6: 8e 16 d0     	stx	$d016                   ; 0xd016 <__heap_start+0x2a82>
    4ea9: 9c 17 d0     	stz	$d017                   ; 0xd017 <__heap_start+0x2a83>
    4eac: a2 f7        	ldx	#$f7
    4eae: 86 12        	stx	$12                     ; 0x2012 <main+0x1aa8>
    4eb0: a2 86        	ldx	#$86
    4eb2: 86 13        	stx	$13                     ; 0x2013 <main+0x1aa9>
    4eb4: 20 64 7d     	jsr	$7d64 <printf>
    4eb7: 64 38        	stz	$38                     ; 0x2038 <main+0x1ace>
    4eb9: 9c 14 d0     	stz	$d014                   ; 0xd014 <__heap_start+0x2a80>
    4ebc: 9c 15 d0     	stz	$d015                   ; 0xd015 <__heap_start+0x2a81>
    4ebf: a2 04        	ldx	#$4
    4ec1: 86 39        	stx	$39                     ; 0x2039 <main+0x1acf>
    4ec3: 8e 16 d0     	stx	$d016                   ; 0xd016 <__heap_start+0x2a82>
    4ec6: 9c 17 d0     	stz	$d017                   ; 0xd017 <__heap_start+0x2a83>
    4ec9: a2 f7        	ldx	#$f7
    4ecb: 86 12        	stx	$12                     ; 0x2012 <main+0x1aa8>
    4ecd: a2 86        	ldx	#$86
    4ecf: 86 13        	stx	$13                     ; 0x2013 <main+0x1aa9>
    4ed1: 20 64 7d     	jsr	$7d64 <printf>
    4ed4: 64 38        	stz	$38                     ; 0x2038 <main+0x1ace>
    4ed6: 9c 14 d0     	stz	$d014                   ; 0xd014 <__heap_start+0x2a80>
    4ed9: 9c 15 d0     	stz	$d015                   ; 0xd015 <__heap_start+0x2a81>
    4edc: a2 05        	ldx	#$5
    4ede: 86 39        	stx	$39                     ; 0x2039 <main+0x1acf>
    4ee0: 8e 16 d0     	stx	$d016                   ; 0xd016 <__heap_start+0x2a82>
    4ee3: 9c 17 d0     	stz	$d017                   ; 0xd017 <__heap_start+0x2a83>
    4ee6: a2 f7        	ldx	#$f7
    4ee8: 86 12        	stx	$12                     ; 0x2012 <main+0x1aa8>
    4eea: a2 86        	ldx	#$86
    4eec: 86 13        	stx	$13                     ; 0x2013 <main+0x1aa9>
    4eee: 20 64 7d     	jsr	$7d64 <printf>
    4ef1: a2 f0        	ldx	#$f0
    4ef3: 86 30        	stx	$30                     ; 0x2030 <main+0x1ac6>
    4ef5: a2 00        	ldx	#$0
    4ef7: 80 1c        	bra	$4f15 <filePickModal+0x378>
    4ef9: e4 12        	cpx	$12                     ; 0x2012 <main+0x1aa8>
    4efb: a6 72        	ldx	$72                     ; 0x2072 <main+0x1b08>
    4efd: 90 1b        	bcc	$4f1a <filePickModal+0x37d>
    4eff: a2 0a        	ldx	#$a
    4f01: 86 42        	stx	$42                     ; 0x2042 <main+0x1ad8>
    4f03: a2 42        	ldx	#$42
    4f05: 86 12        	stx	$12                     ; 0x2012 <main+0x1aa8>
    4f07: a2 00        	ldx	#$0
    4f09: 86 13        	stx	$13                     ; 0x2013 <main+0x1aa9>
    4f0b: 20 84 31     	jsr	$3184 <textPrint>
    4f0e: a6 71        	ldx	$71                     ; 0x2071 <main+0x1b07>
    4f10: e8           	inx
    4f11: e0 11        	cpx	#$11
    4f13: f0 38        	beq	$4f4d <filePickModal+0x3b0>
    4f15: 86 71        	stx	$71                     ; 0x2071 <main+0x1b07>
    4f17: ae 32 92     	ldx	$9232                   ; 0x9232 <fpr+0x1>
    4f1a: e8           	inx
    4f1b: 86 72        	stx	$72                     ; 0x2072 <main+0x1b08>
    4f1d: a2 20        	ldx	#$20
    4f1f: 86 42        	stx	$42                     ; 0x2042 <main+0x1ad8>
    4f21: a2 42        	ldx	#$42
    4f23: 86 12        	stx	$12                     ; 0x2012 <main+0x1aa8>
    4f25: a2 00        	ldx	#$0
    4f27: 86 13        	stx	$13                     ; 0x2013 <main+0x1aa9>
    4f29: 20 84 31     	jsr	$3184 <textPrint>
    4f2c: ad 32 92     	lda	$9232                   ; 0x9232 <fpr+0x1>
    4f2f: 18           	clc
    4f30: 69 2c        	adc	#$2c
    4f32: a8           	tay
    4f33: a9 00        	lda	#$0
    4f35: 69 00        	adc	#$0
    4f37: 85 12        	sta	$12                     ; 0x2012 <main+0x1aa8>
    4f39: a2 00        	ldx	#$0
    4f3b: e4 12        	cpx	$12                     ; 0x2012 <main+0x1aa8>
    4f3d: d0 ba        	bne	$4ef9 <filePickModal+0x35c>
    4f3f: 84 12        	sty	$12                     ; 0x2012 <main+0x1aa8>
    4f41: a6 72        	ldx	$72                     ; 0x2072 <main+0x1b08>
    4f43: e4 12        	cpx	$12                     ; 0x2012 <main+0x1aa8>
    4f45: b0 b8        	bcs	$4eff <filePickModal+0x362>
    4f47: 80 d1        	bra	$4f1a <filePickModal+0x37d>
    4f49: a9 01        	lda	#$1
    4f4b: 80 02        	bra	$4f4f <filePickModal+0x3b2>
    4f4d: a9 00        	lda	#$0
    4f4f: 48           	pha
    4f50: 18           	clc
    4f51: a5 10        	lda	$10                     ; 0x2010 <main+0x1aa6>
    4f53: 69 06        	adc	#$6
    4f55: 85 10        	sta	$10                     ; 0x2010 <main+0x1aa6>
    4f57: a5 11        	lda	$11                     ; 0x2011 <main+0x1aa7>
    4f59: 69 00        	adc	#$0
    4f5b: 85 11        	sta	$11                     ; 0x2011 <main+0x1aa7>
    4f5d: 68           	pla
    4f5e: 60           	rts

00004f5f <detectStructure>:
    4f5f: 18           	clc
    4f60: a5 10        	lda	$10                     ; 0x2010 <main+0x1aa6>
    4f62: 69 ff        	adc	#$ff
    4f64: 85 10        	sta	$10                     ; 0x2010 <main+0x1aa6>
    4f66: a5 11        	lda	$11                     ; 0x2011 <main+0x1aa7>
    4f68: 69 ff        	adc	#$ff
    4f6a: 85 11        	sta	$11                     ; 0x2011 <main+0x1aa7>
    4f6c: a5 4e        	lda	$4e                     ; 0x204e <main+0x1ae4>
    4f6e: 29 01        	and	#$1
    4f70: a4 0f        	ldy	$f                      ; 0x200f <main+0x1aa5>
    4f72: 78           	sei
    4f73: a2 28        	ldx	#$28
    4f75: c9 00        	cmp	#$0
    4f77: d0 02        	bne	$4f7b <detectStructure+0x1c>
    4f79: a2 00        	ldx	#$0
    4f7b: 86 0f        	stx	$f                      ; 0x200f <main+0x1aa5>
    4f7d: ae 09 e0     	ldx	$e009                   ; 0xe009 <__heap_start+0x3a75>
    4f80: 86 12        	stx	$12                     ; 0x2012 <main+0x1aa8>
    4f82: 84 0f        	sty	$f                      ; 0x200f <main+0x1aa5>
    4f84: 58           	cli
    4f85: a5 4e        	lda	$4e                     ; 0x204e <main+0x1ae4>
    4f87: 29 01        	and	#$1
    4f89: a4 0f        	ldy	$f                      ; 0x200f <main+0x1aa5>
    4f8b: 78           	sei
    4f8c: a2 28        	ldx	#$28
    4f8e: c9 00        	cmp	#$0
    4f90: d0 02        	bne	$4f94 <detectStructure+0x35>
    4f92: a2 00        	ldx	#$0
    4f94: 86 0f        	stx	$f                      ; 0x200f <main+0x1aa5>
    4f96: ae 08 e0     	ldx	$e008                   ; 0xe008 <__heap_start+0x3a74>
    4f99: 84 0f        	sty	$f                      ; 0x200f <main+0x1aa5>
    4f9b: 58           	cli
    4f9c: a4 12        	ldy	$12                     ; 0x2012 <main+0x1aa8>
    4f9e: 84 4a        	sty	$4a                     ; 0x204a <main+0x1ae0>
    4fa0: 86 4b        	stx	$4b                     ; 0x204b <main+0x1ae1>
    4fa2: a5 4e        	lda	$4e                     ; 0x204e <main+0x1ae4>
    4fa4: 29 01        	and	#$1
    4fa6: a4 0f        	ldy	$f                      ; 0x200f <main+0x1aa5>
    4fa8: 78           	sei
    4fa9: a2 28        	ldx	#$28
    4fab: c9 00        	cmp	#$0
    4fad: d0 02        	bne	$4fb1 <detectStructure+0x52>
    4faf: a2 00        	ldx	#$0
    4fb1: 86 0f        	stx	$f                      ; 0x200f <main+0x1aa5>
    4fb3: ae 0b e0     	ldx	$e00b                   ; 0xe00b <__heap_start+0x3a77>
    4fb6: 86 12        	stx	$12                     ; 0x2012 <main+0x1aa8>
    4fb8: 84 0f        	sty	$f                      ; 0x200f <main+0x1aa5>
    4fba: 58           	cli
    4fbb: a5 4e        	lda	$4e                     ; 0x204e <main+0x1ae4>
    4fbd: 29 01        	and	#$1
    4fbf: a4 0f        	ldy	$f                      ; 0x200f <main+0x1aa5>
    4fc1: 78           	sei
    4fc2: a2 28        	ldx	#$28
    4fc4: c9 00        	cmp	#$0
    4fc6: d0 02        	bne	$4fca <detectStructure+0x6b>
    4fc8: a2 00        	ldx	#$0
    4fca: 86 0f        	stx	$f                      ; 0x200f <main+0x1aa5>
    4fcc: ae 0a e0     	ldx	$e00a                   ; 0xe00a <__heap_start+0x3a76>
    4fcf: 84 0f        	sty	$f                      ; 0x200f <main+0x1aa5>
    4fd1: 58           	cli
    4fd2: a4 12        	ldy	$12                     ; 0x2012 <main+0x1aa8>
    4fd4: 84 4c        	sty	$4c                     ; 0x204c <main+0x1ae2>
    4fd6: 86 4d        	stx	$4d                     ; 0x204d <main+0x1ae3>
    4fd8: a5 4e        	lda	$4e                     ; 0x204e <main+0x1ae4>
    4fda: 29 01        	and	#$1
    4fdc: a4 0f        	ldy	$f                      ; 0x200f <main+0x1aa5>
    4fde: 78           	sei
    4fdf: a2 28        	ldx	#$28
    4fe1: c9 00        	cmp	#$0
    4fe3: d0 02        	bne	$4fe7 <detectStructure+0x88>
    4fe5: a2 00        	ldx	#$0
    4fe7: 86 0f        	stx	$f                      ; 0x200f <main+0x1aa5>
    4fe9: ae 0d e0     	ldx	$e00d                   ; 0xe00d <__heap_start+0x3a79>
    4fec: 84 0f        	sty	$f                      ; 0x200f <main+0x1aa5>
    4fee: 58           	cli
    4fef: a5 4e        	lda	$4e                     ; 0x204e <main+0x1ae4>
    4ff1: 29 01        	and	#$1
    4ff3: a4 0f        	ldy	$f                      ; 0x200f <main+0x1aa5>
    4ff5: 78           	sei
    4ff6: a2 28        	ldx	#$28
    4ff8: c9 00        	cmp	#$0
    4ffa: d0 02        	bne	$4ffe <detectStructure+0x9f>
    4ffc: a2 00        	ldx	#$0
    4ffe: 86 0f        	stx	$f                      ; 0x200f <main+0x1aa5>
    5000: ae 0c e0     	ldx	$e00c                   ; 0xe00c <__heap_start+0x3a78>
    5003: 84 0f        	sty	$f                      ; 0x200f <main+0x1aa5>
    5005: 58           	cli
    5006: a6 4c        	ldx	$4c                     ; 0x204c <main+0x1ae2>
    5008: a4 4d        	ldy	$4d                     ; 0x204d <main+0x1ae3>
    500a: d0 06        	bne	$5012 <detectStructure+0xb3>
    500c: 8a           	txa
    500d: d0 03        	bne	$5012 <detectStructure+0xb3>
    500f: 4c ea 51     	jmp	$51ea <detectStructure+0x28b>
    5012: a2 0e        	ldx	#$e
    5014: 8a           	txa
    5015: a0 00        	ldy	#$0
    5017: 91 10        	sta	($10),y                 ; 0x2010 <main+0x1aa6>
    5019: a2 00        	ldx	#$0
    501b: a0 00        	ldy	#$0
    501d: 64 1b        	stz	$1b                     ; 0x201b <main+0x1ab1>
    501f: 64 12        	stz	$12                     ; 0x2012 <main+0x1aa8>
    5021: 64 1d        	stz	$1d                     ; 0x201d <main+0x1ab3>
    5023: e8           	inx
    5024: d0 01        	bne	$5027 <detectStructure+0xc8>
    5026: c8           	iny
    5027: 86 1a        	stx	$1a                     ; 0x201a <main+0x1ab0>
    5029: 84 1c        	sty	$1c                     ; 0x201c <main+0x1ab2>
    502b: 18           	clc
    502c: a0 00        	ldy	#$0
    502e: b1 10        	lda	($10),y                 ; 0x2010 <main+0x1aa6>
    5030: 69 04        	adc	#$4
    5032: 85 14        	sta	$14                     ; 0x2014 <main+0x1aaa>
    5034: a5 1b        	lda	$1b                     ; 0x201b <main+0x1ab1>
    5036: 69 00        	adc	#$0
    5038: a8           	tay
    5039: a5 12        	lda	$12                     ; 0x2012 <main+0x1aa8>
    503b: 69 00        	adc	#$0
    503d: 85 13        	sta	$13                     ; 0x2013 <main+0x1aa9>
    503f: a5 4e        	lda	$4e                     ; 0x204e <main+0x1ae4>
    5041: 29 01        	and	#$1
    5043: 64 16        	stz	$16                     ; 0x2016 <main+0x1aac>
    5045: 64 15        	stz	$15                     ; 0x2015 <main+0x1aab>
    5047: a2 05        	ldx	#$5
    5049: c9 00        	cmp	#$0
    504b: d0 02        	bne	$504f <detectStructure+0xf0>
    504d: a2 00        	ldx	#$0
    504f: 18           	clc
    5050: a9 00        	lda	#$0
    5052: 65 14        	adc	$14                     ; 0x2014 <main+0x1aaa>
    5054: 98           	tya
    5055: 84 16        	sty	$16                     ; 0x2016 <main+0x1aac>
    5057: 65 15        	adc	$15                     ; 0x2015 <main+0x1aab>
    5059: 85 15        	sta	$15                     ; 0x2015 <main+0x1aab>
    505b: 8a           	txa
    505c: 65 13        	adc	$13                     ; 0x2013 <main+0x1aa9>
    505e: 06 15        	asl	$15                     ; 0x2015 <main+0x1aab>
    5060: 2a           	rol
    5061: 06 15        	asl	$15                     ; 0x2015 <main+0x1aab>
    5063: 2a           	rol
    5064: 06 15        	asl	$15                     ; 0x2015 <main+0x1aab>
    5066: 2a           	rol
    5067: a4 0f        	ldy	$f                      ; 0x200f <main+0x1aa5>
    5069: 78           	sei
    506a: 85 0f        	sta	$f                      ; 0x200f <main+0x1aa5>
    506c: a5 16        	lda	$16                     ; 0x2016 <main+0x1aac>
    506e: 09 e0        	ora	#$e0
    5070: 85 15        	sta	$15                     ; 0x2015 <main+0x1aab>
    5072: b2 14        	lda	($14)                   ; 0x2014 <main+0x1aaa>
    5074: 84 0f        	sty	$f                      ; 0x200f <main+0x1aa5>
    5076: 58           	cli
    5077: a2 05        	ldx	#$5
    5079: 86 14        	stx	$14                     ; 0x2014 <main+0x1aaa>
    507b: a5 4e        	lda	$4e                     ; 0x204e <main+0x1ae4>
    507d: 29 01        	and	#$1
    507f: 64 13        	stz	$13                     ; 0x2013 <main+0x1aa9>
    5081: 64 15        	stz	$15                     ; 0x2015 <main+0x1aab>
    5083: 64 16        	stz	$16                     ; 0x2016 <main+0x1aac>
    5085: d0 02        	bne	$5089 <detectStructure+0x12a>
    5087: 64 14        	stz	$14                     ; 0x2014 <main+0x1aaa>
    5089: 18           	clc
    508a: a0 00        	ldy	#$0
    508c: b1 10        	lda	($10),y                 ; 0x2010 <main+0x1aa6>
    508e: 69 05        	adc	#$5
    5090: 85 17        	sta	$17                     ; 0x2017 <main+0x1aad>
    5092: a5 1b        	lda	$1b                     ; 0x201b <main+0x1ab1>
    5094: 69 00        	adc	#$0
    5096: aa           	tax
    5097: a5 12        	lda	$12                     ; 0x2012 <main+0x1aa8>
    5099: 69 00        	adc	#$0
    509b: a8           	tay
    509c: a5 17        	lda	$17                     ; 0x2017 <main+0x1aad>
    509e: 18           	clc
    509f: 65 15        	adc	$15                     ; 0x2015 <main+0x1aab>
    50a1: 86 15        	stx	$15                     ; 0x2015 <main+0x1aab>
    50a3: 8a           	txa
    50a4: 65 16        	adc	$16                     ; 0x2016 <main+0x1aac>
    50a6: 85 16        	sta	$16                     ; 0x2016 <main+0x1aac>
    50a8: 98           	tya
    50a9: 65 14        	adc	$14                     ; 0x2014 <main+0x1aaa>
    50ab: 06 16        	asl	$16                     ; 0x2016 <main+0x1aac>
    50ad: 2a           	rol
    50ae: 06 16        	asl	$16                     ; 0x2016 <main+0x1aac>
    50b0: 2a           	rol
    50b1: 06 16        	asl	$16                     ; 0x2016 <main+0x1aac>
    50b3: 2a           	rol
    50b4: a4 0f        	ldy	$f                      ; 0x200f <main+0x1aa5>
    50b6: 78           	sei
    50b7: 85 0f        	sta	$f                      ; 0x200f <main+0x1aa5>
    50b9: a6 17        	ldx	$17                     ; 0x2017 <main+0x1aad>
    50bb: 86 14        	stx	$14                     ; 0x2014 <main+0x1aaa>
    50bd: a2 05        	ldx	#$5
    50bf: a5 15        	lda	$15                     ; 0x2015 <main+0x1aab>
    50c1: 09 e0        	ora	#$e0
    50c3: 85 15        	sta	$15                     ; 0x2015 <main+0x1aab>
    50c5: b2 14        	lda	($14)                   ; 0x2014 <main+0x1aaa>
    50c7: 85 18        	sta	$18                     ; 0x2018 <main+0x1aae>
    50c9: 84 0f        	sty	$f                      ; 0x200f <main+0x1aa5>
    50cb: 58           	cli
    50cc: a5 4e        	lda	$4e                     ; 0x204e <main+0x1ae4>
    50ce: 29 01        	and	#$1
    50d0: 86 14        	stx	$14                     ; 0x2014 <main+0x1aaa>
    50d2: d0 02        	bne	$50d6 <detectStructure+0x177>
    50d4: 64 14        	stz	$14                     ; 0x2014 <main+0x1aaa>
    50d6: 18           	clc
    50d7: a0 00        	ldy	#$0
    50d9: b1 10        	lda	($10),y                 ; 0x2010 <main+0x1aa6>
    50db: 69 06        	adc	#$6
    50dd: 85 15        	sta	$15                     ; 0x2015 <main+0x1aab>
    50df: a5 1b        	lda	$1b                     ; 0x201b <main+0x1ab1>
    50e1: 69 00        	adc	#$0
    50e3: a8           	tay
    50e4: a5 12        	lda	$12                     ; 0x2012 <main+0x1aa8>
    50e6: 69 00        	adc	#$0
    50e8: 85 16        	sta	$16                     ; 0x2016 <main+0x1aac>
    50ea: a5 15        	lda	$15                     ; 0x2015 <main+0x1aab>
    50ec: 18           	clc
    50ed: 65 13        	adc	$13                     ; 0x2013 <main+0x1aa9>
    50ef: 84 17        	sty	$17                     ; 0x2017 <main+0x1aad>
    50f1: 98           	tya
    50f2: 65 13        	adc	$13                     ; 0x2013 <main+0x1aa9>
    50f4: 85 13        	sta	$13                     ; 0x2013 <main+0x1aa9>
    50f6: a5 16        	lda	$16                     ; 0x2016 <main+0x1aac>
    50f8: 65 14        	adc	$14                     ; 0x2014 <main+0x1aaa>
    50fa: 06 13        	asl	$13                     ; 0x2013 <main+0x1aa9>
    50fc: 2a           	rol
    50fd: 06 13        	asl	$13                     ; 0x2013 <main+0x1aa9>
    50ff: 2a           	rol
    5100: 06 13        	asl	$13                     ; 0x2013 <main+0x1aa9>
    5102: 2a           	rol
    5103: a4 0f        	ldy	$f                      ; 0x200f <main+0x1aa5>
    5105: 78           	sei
    5106: 85 0f        	sta	$f                      ; 0x200f <main+0x1aa5>
    5108: a5 15        	lda	$15                     ; 0x2015 <main+0x1aab>
    510a: 85 14        	sta	$14                     ; 0x2014 <main+0x1aaa>
    510c: a5 17        	lda	$17                     ; 0x2017 <main+0x1aad>
    510e: 09 e0        	ora	#$e0
    5110: 85 15        	sta	$15                     ; 0x2015 <main+0x1aab>
    5112: b2 14        	lda	($14)                   ; 0x2014 <main+0x1aaa>
    5114: 85 13        	sta	$13                     ; 0x2013 <main+0x1aa9>
    5116: 84 0f        	sty	$f                      ; 0x200f <main+0x1aa5>
    5118: 64 14        	stz	$14                     ; 0x2014 <main+0x1aaa>
    511a: 58           	cli
    511b: 86 15        	stx	$15                     ; 0x2015 <main+0x1aab>
    511d: a5 4e        	lda	$4e                     ; 0x204e <main+0x1ae4>
    511f: 29 01        	and	#$1
    5121: d0 02        	bne	$5125 <detectStructure+0x1c6>
    5123: 64 15        	stz	$15                     ; 0x2015 <main+0x1aab>
    5125: 18           	clc
    5126: a0 00        	ldy	#$0
    5128: b1 10        	lda	($10),y                 ; 0x2010 <main+0x1aa6>
    512a: 85 19        	sta	$19                     ; 0x2019 <main+0x1aaf>
    512c: 69 07        	adc	#$7
    512e: a8           	tay
    512f: a5 1b        	lda	$1b                     ; 0x201b <main+0x1ab1>
    5131: 69 00        	adc	#$0
    5133: aa           	tax
    5134: a5 12        	lda	$12                     ; 0x2012 <main+0x1aa8>
    5136: 69 00        	adc	#$0
    5138: 85 16        	sta	$16                     ; 0x2016 <main+0x1aac>
    513a: 98           	tya
    513b: 18           	clc
    513c: 65 14        	adc	$14                     ; 0x2014 <main+0x1aaa>
    513e: 86 17        	stx	$17                     ; 0x2017 <main+0x1aad>
    5140: 8a           	txa
    5141: 65 14        	adc	$14                     ; 0x2014 <main+0x1aaa>
    5143: 85 14        	sta	$14                     ; 0x2014 <main+0x1aaa>
    5145: a5 16        	lda	$16                     ; 0x2016 <main+0x1aac>
    5147: 65 15        	adc	$15                     ; 0x2015 <main+0x1aab>
    5149: 06 14        	asl	$14                     ; 0x2014 <main+0x1aaa>
    514b: 2a           	rol
    514c: 06 14        	asl	$14                     ; 0x2014 <main+0x1aaa>
    514e: 2a           	rol
    514f: 06 14        	asl	$14                     ; 0x2014 <main+0x1aaa>
    5151: 2a           	rol
    5152: a6 0f        	ldx	$f                      ; 0x200f <main+0x1aa5>
    5154: 78           	sei
    5155: 85 0f        	sta	$f                      ; 0x200f <main+0x1aa5>
    5157: 84 14        	sty	$14                     ; 0x2014 <main+0x1aaa>
    5159: a5 17        	lda	$17                     ; 0x2017 <main+0x1aad>
    515b: 09 e0        	ora	#$e0
    515d: 85 15        	sta	$15                     ; 0x2015 <main+0x1aab>
    515f: b2 14        	lda	($14)                   ; 0x2014 <main+0x1aaa>
    5161: 85 14        	sta	$14                     ; 0x2014 <main+0x1aaa>
    5163: 86 0f        	stx	$f                      ; 0x200f <main+0x1aa5>
    5165: 58           	cli
    5166: 18           	clc
    5167: a5 19        	lda	$19                     ; 0x2019 <main+0x1aaf>
    5169: 69 00        	adc	#$0
    516b: 85 16        	sta	$16                     ; 0x2016 <main+0x1aac>
    516d: a5 1b        	lda	$1b                     ; 0x201b <main+0x1ab1>
    516f: 69 00        	adc	#$0
    5171: 85 15        	sta	$15                     ; 0x2015 <main+0x1aab>
    5173: a5 18        	lda	$18                     ; 0x2018 <main+0x1aae>
    5175: 65 12        	adc	$12                     ; 0x2012 <main+0x1aa8>
    5177: aa           	tax
    5178: a5 1d        	lda	$1d                     ; 0x201d <main+0x1ab3>
    517a: 69 00        	adc	#$0
    517c: a8           	tay
    517d: 18           	clc
    517e: a5 16        	lda	$16                     ; 0x2016 <main+0x1aac>
    5180: 69 00        	adc	#$0
    5182: 85 16        	sta	$16                     ; 0x2016 <main+0x1aac>
    5184: a5 15        	lda	$15                     ; 0x2015 <main+0x1aab>
    5186: 65 13        	adc	$13                     ; 0x2013 <main+0x1aa9>
    5188: 85 12        	sta	$12                     ; 0x2012 <main+0x1aa8>
    518a: 8a           	txa
    518b: 69 00        	adc	#$0
    518d: 85 13        	sta	$13                     ; 0x2013 <main+0x1aa9>
    518f: 98           	tya
    5190: 69 00        	adc	#$0
    5192: 85 15        	sta	$15                     ; 0x2015 <main+0x1aab>
    5194: a5 16        	lda	$16                     ; 0x2016 <main+0x1aac>
    5196: 18           	clc
    5197: 65 14        	adc	$14                     ; 0x2014 <main+0x1aaa>
    5199: aa           	tax
    519a: a5 12        	lda	$12                     ; 0x2012 <main+0x1aa8>
    519c: 69 00        	adc	#$0
    519e: 85 14        	sta	$14                     ; 0x2014 <main+0x1aaa>
    51a0: a5 13        	lda	$13                     ; 0x2013 <main+0x1aa9>
    51a2: 69 00        	adc	#$0
    51a4: a8           	tay
    51a5: a5 15        	lda	$15                     ; 0x2015 <main+0x1aab>
    51a7: 69 00        	adc	#$0
    51a9: 85 15        	sta	$15                     ; 0x2015 <main+0x1aab>
    51ab: 18           	clc
    51ac: 8a           	txa
    51ad: 69 08        	adc	#$8
    51af: 5a           	phy
    51b0: a0 00        	ldy	#$0
    51b2: 91 10        	sta	($10),y                 ; 0x2010 <main+0x1aa6>
    51b4: 7a           	ply
    51b5: a5 14        	lda	$14                     ; 0x2014 <main+0x1aaa>
    51b7: 69 00        	adc	#$0
    51b9: 85 1b        	sta	$1b                     ; 0x201b <main+0x1ab1>
    51bb: 98           	tya
    51bc: 69 00        	adc	#$0
    51be: 85 13        	sta	$13                     ; 0x2013 <main+0x1aa9>
    51c0: a5 15        	lda	$15                     ; 0x2015 <main+0x1aab>
    51c2: 69 00        	adc	#$0
    51c4: 85 1d        	sta	$1d                     ; 0x201d <main+0x1ab3>
    51c6: a4 1c        	ldy	$1c                     ; 0x201c <main+0x1ab2>
    51c8: c4 4d        	cpy	$4d                     ; 0x204d <main+0x1ae3>
    51ca: d0 11        	bne	$51dd <detectStructure+0x27e>
    51cc: a6 4c        	ldx	$4c                     ; 0x204c <main+0x1ae2>
    51ce: 86 12        	stx	$12                     ; 0x2012 <main+0x1aa8>
    51d0: a6 1a        	ldx	$1a                     ; 0x201a <main+0x1ab0>
    51d2: e4 12        	cpx	$12                     ; 0x2012 <main+0x1aa8>
    51d4: a5 13        	lda	$13                     ; 0x2013 <main+0x1aa9>
    51d6: 85 12        	sta	$12                     ; 0x2012 <main+0x1aa8>
    51d8: b0 10        	bcs	$51ea <detectStructure+0x28b>
    51da: 4c 23 50     	jmp	$5023 <detectStructure+0xc4>
    51dd: c4 4d        	cpy	$4d                     ; 0x204d <main+0x1ae3>
    51df: a6 13        	ldx	$13                     ; 0x2013 <main+0x1aa9>
    51e1: 86 12        	stx	$12                     ; 0x2012 <main+0x1aa8>
    51e3: a6 1a        	ldx	$1a                     ; 0x201a <main+0x1ab0>
    51e5: b0 03        	bcs	$51ea <detectStructure+0x28b>
    51e7: 4c 23 50     	jmp	$5023 <detectStructure+0xc4>
    51ea: 18           	clc
    51eb: a5 10        	lda	$10                     ; 0x2010 <main+0x1aa6>
    51ed: 69 01        	adc	#$1
    51ef: 85 10        	sta	$10                     ; 0x2010 <main+0x1aa6>
    51f1: a5 11        	lda	$11                     ; 0x2011 <main+0x1aa7>
    51f3: 69 00        	adc	#$0
    51f5: 85 11        	sta	$11                     ; 0x2011 <main+0x1aa7>
    51f7: 60           	rts

000051f8 <loadSMFile>:
    51f8: 18           	clc
    51f9: a5 10        	lda	$10                     ; 0x2010 <main+0x1aa6>
    51fb: 69 ff        	adc	#$ff
    51fd: 85 10        	sta	$10                     ; 0x2010 <main+0x1aa6>
    51ff: a5 11        	lda	$11                     ; 0x2011 <main+0x1aa7>
    5201: 69 fe        	adc	#$fe
    5203: 85 11        	sta	$11                     ; 0x2011 <main+0x1aa7>
    5205: a6 24        	ldx	$24                     ; 0x2024 <main+0x1aba>
    5207: da           	phx
    5208: a6 25        	ldx	$25                     ; 0x2025 <main+0x1abb>
    520a: da           	phx
    520b: b2 12        	lda	($12)                   ; 0x2012 <main+0x1aa8>
    520d: d0 03        	bne	$5212 <loadSMFile+0x1a>
    520f: 4c 6f 52     	jmp	$526f <loadSMFile+0x77>
    5212: 85 16        	sta	$16                     ; 0x2016 <main+0x1aac>
    5214: a0 00        	ldy	#$0
    5216: a2 00        	ldx	#$0
    5218: 86 14        	stx	$14                     ; 0x2014 <main+0x1aaa>
    521a: 98           	tya
    521b: c8           	iny
    521c: d0 01        	bne	$521f <loadSMFile+0x27>
    521e: e8           	inx
    521f: 18           	clc
    5220: 65 12        	adc	$12                     ; 0x2012 <main+0x1aa8>
    5222: 85 18        	sta	$18                     ; 0x2018 <main+0x1aae>
    5224: a5 14        	lda	$14                     ; 0x2014 <main+0x1aaa>
    5226: 65 13        	adc	$13                     ; 0x2013 <main+0x1aa9>
    5228: 84 17        	sty	$17                     ; 0x2017 <main+0x1aad>
    522a: a4 18        	ldy	$18                     ; 0x2018 <main+0x1aae>
    522c: 84 14        	sty	$14                     ; 0x2014 <main+0x1aaa>
    522e: 85 15        	sta	$15                     ; 0x2015 <main+0x1aab>
    5230: a0 01        	ldy	#$1
    5232: b1 14        	lda	($14),y                 ; 0x2014 <main+0x1aaa>
    5234: a4 17        	ldy	$17                     ; 0x2017 <main+0x1aad>
    5236: c9 00        	cmp	#$0
    5238: d0 de        	bne	$5218 <loadSMFile+0x20>
    523a: 8a           	txa
    523b: d0 06        	bne	$5243 <loadSMFile+0x4b>
    523d: c0 02        	cpy	#$2
    523f: b0 06        	bcs	$5247 <loadSMFile+0x4f>
    5241: 80 2c        	bra	$526f <loadSMFile+0x77>
    5243: e0 00        	cpx	#$0
    5245: 90 28        	bcc	$526f <loadSMFile+0x77>
    5247: a0 01        	ldy	#$1
    5249: b1 12        	lda	($12),y                 ; 0x2012 <main+0x1aa8>
    524b: c9 3a        	cmp	#$3a
    524d: d0 20        	bne	$526f <loadSMFile+0x77>
    524f: a5 16        	lda	$16                     ; 0x2016 <main+0x1aac>
    5251: c9 30        	cmp	#$30
    5253: 64 19        	stz	$19                     ; 0x2019 <main+0x1aaf>
    5255: 90 09        	bcc	$5260 <loadSMFile+0x68>
    5257: c9 38        	cmp	#$38
    5259: b0 05        	bcs	$5260 <loadSMFile+0x68>
    525b: 18           	clc
    525c: 69 d0        	adc	#$d0
    525e: 85 19        	sta	$19                     ; 0x2019 <main+0x1aaf>
    5260: a5 12        	lda	$12                     ; 0x2012 <main+0x1aa8>
    5262: 18           	clc
    5263: 69 02        	adc	#$2
    5265: 85 12        	sta	$12                     ; 0x2012 <main+0x1aa8>
    5267: a5 13        	lda	$13                     ; 0x2013 <main+0x1aa9>
    5269: 69 00        	adc	#$0
    526b: 85 13        	sta	$13                     ; 0x2013 <main+0x1aa9>
    526d: 80 02        	bra	$5271 <loadSMFile+0x79>
    526f: 64 19        	stz	$19                     ; 0x2019 <main+0x1aaf>
    5271: a2 df        	ldx	#$df
    5273: 86 14        	stx	$14                     ; 0x2014 <main+0x1aaa>
    5275: a2 8c        	ldx	#$8c
    5277: 86 15        	stx	$15                     ; 0x2015 <main+0x1aab>
    5279: 64 16        	stz	$16                     ; 0x2016 <main+0x1aac>
    527b: 80 0a        	bra	$5287 <loadSMFile+0x8f>
    527d: a0 02        	ldy	#$2
    527f: e6 14        	inc	$14                     ; 0x2014 <main+0x1aaa>
    5281: d0 02        	bne	$5285 <loadSMFile+0x8d>
    5283: e6 15        	inc	$15                     ; 0x2015 <main+0x1aab>
    5285: 84 16        	sty	$16                     ; 0x2016 <main+0x1aac>
    5287: b2 14        	lda	($14)                   ; 0x2014 <main+0x1aaa>
    5289: c9 61        	cmp	#$61
    528b: f0 f0        	beq	$527d <loadSMFile+0x85>
    528d: a0 01        	ldy	#$1
    528f: c9 77        	cmp	#$77
    5291: f0 05        	beq	$5298 <loadSMFile+0xa0>
    5293: aa           	tax
    5294: f0 08        	beq	$529e <loadSMFile+0xa6>
    5296: a4 16        	ldy	$16                     ; 0x2016 <main+0x1aac>
    5298: e6 14        	inc	$14                     ; 0x2014 <main+0x1aaa>
    529a: d0 e9        	bne	$5285 <loadSMFile+0x8d>
    529c: 80 e5        	bra	$5283 <loadSMFile+0x8b>
    529e: a6 16        	ldx	$16                     ; 0x2016 <main+0x1aac>
    52a0: 86 18        	stx	$18                     ; 0x2018 <main+0x1aae>
    52a2: a6 12        	ldx	$12                     ; 0x2012 <main+0x1aa8>
    52a4: a4 13        	ldy	$13                     ; 0x2013 <main+0x1aa9>
    52a6: 86 fb        	stx	$fb                     ; 0x20fb <main+0x1b91>
    52a8: 84 fc        	sty	$fc                     ; 0x20fc <main+0x1b92>
    52aa: b2 12        	lda	($12)                   ; 0x2012 <main+0x1aa8>
    52ac: f0 2b        	beq	$52d9 <loadSMFile+0xe1>
    52ae: 64 15        	stz	$15                     ; 0x2015 <main+0x1aab>
    52b0: a0 01        	ldy	#$1
    52b2: a9 00        	lda	#$0
    52b4: 64 14        	stz	$14                     ; 0x2014 <main+0x1aaa>
    52b6: a6 15        	ldx	$15                     ; 0x2015 <main+0x1aab>
    52b8: e6 15        	inc	$15                     ; 0x2015 <main+0x1aab>
    52ba: d0 02        	bne	$52be <loadSMFile+0xc6>
    52bc: e6 14        	inc	$14                     ; 0x2014 <main+0x1aaa>
    52be: 18           	clc
    52bf: 85 17        	sta	$17                     ; 0x2017 <main+0x1aad>
    52c1: 8a           	txa
    52c2: 65 12        	adc	$12                     ; 0x2012 <main+0x1aa8>
    52c4: 85 16        	sta	$16                     ; 0x2016 <main+0x1aac>
    52c6: a5 17        	lda	$17                     ; 0x2017 <main+0x1aad>
    52c8: 65 13        	adc	$13                     ; 0x2013 <main+0x1aa9>
    52ca: 85 17        	sta	$17                     ; 0x2017 <main+0x1aad>
    52cc: b1 16        	lda	($16),y                 ; 0x2016 <main+0x1aac>
    52ce: aa           	tax
    52cf: a5 14        	lda	$14                     ; 0x2014 <main+0x1aaa>
    52d1: e0 00        	cpx	#$0
    52d3: d0 e1        	bne	$52b6 <loadSMFile+0xbe>
    52d5: a4 15        	ldy	$15                     ; 0x2015 <main+0x1aab>
    52d7: 80 02        	bra	$52db <loadSMFile+0xe3>
    52d9: a0 00        	ldy	#$0
    52db: a6 18        	ldx	$18                     ; 0x2018 <main+0x1aae>
    52dd: 84 fd        	sty	$fd                     ; 0x20fd <main+0x1b93>
    52df: a4 19        	ldy	$19                     ; 0x2019 <main+0x1aaf>
    52e1: 84 f3        	sty	$f3                     ; 0x20f3 <main+0x1b89>
    52e3: 86 f5        	stx	$f5                     ; 0x20f5 <main+0x1b8b>
    52e5: 18           	clc
    52e6: a5 10        	lda	$10                     ; 0x2010 <main+0x1aa6>
    52e8: 69 01        	adc	#$1
    52ea: 85 12        	sta	$12                     ; 0x2012 <main+0x1aa8>
    52ec: a5 11        	lda	$11                     ; 0x2011 <main+0x1aa7>
    52ee: 69 00        	adc	#$0
    52f0: 85 13        	sta	$13                     ; 0x2013 <main+0x1aa9>
    52f2: a2 63        	ldx	#$63
    52f4: 86 14        	stx	$14                     ; 0x2014 <main+0x1aaa>
    52f6: a2 00        	ldx	#$0
    52f8: 86 15        	stx	$15                     ; 0x2015 <main+0x1aab>
    52fa: 20 5c ff     	jsr	$ff5c <__heap_start+0x59c8>
    52fd: 92 12        	sta	($12)                   ; 0x2012 <main+0x1aa8>
    52ff: a9 00        	lda	#$0
    5301: 6a           	ror
    5302: 85 14        	sta	$14                     ; 0x2014 <main+0x1aaa>
    5304: a6 63        	ldx	$63                     ; 0x2063 <main+0x1af9>
    5306: a9 01        	lda	#$1
    5308: e0 00        	cpx	#$0
    530a: f0 03        	beq	$530f <loadSMFile+0x117>
    530c: 4c 76 55     	jmp	$5576 <loadSMFile+0x37e>
    530f: b2 12        	lda	($12)                   ; 0x2012 <main+0x1aa8>
    5311: 85 24        	sta	$24                     ; 0x2024 <main+0x1aba>
    5313: 64 64        	stz	$64                     ; 0x2064 <main+0x1afa>
    5315: 20 00 ff     	jsr	$ff00 <__heap_start+0x596c>
    5318: 92 12        	sta	($12)                   ; 0x2012 <main+0x1aa8>
    531a: a9 00        	lda	#$0
    531c: 6a           	ror
    531d: 85 14        	sta	$14                     ; 0x2014 <main+0x1aaa>
    531f: a6 64        	ldx	$64                     ; 0x2064 <main+0x1afa>
    5321: e0 28        	cpx	#$28
    5323: d0 03        	bne	$5328 <loadSMFile+0x130>
    5325: 4c 12 55     	jmp	$5512 <loadSMFile+0x31a>
    5328: e0 38        	cpx	#$38
    532a: d0 03        	bne	$532f <loadSMFile+0x137>
    532c: 4c 12 55     	jmp	$5512 <loadSMFile+0x31a>
    532f: e0 2a        	cpx	#$2a
    5331: d0 e0        	bne	$5313 <loadSMFile+0x11b>
    5333: a9 01        	lda	#$1
    5335: a2 00        	ldx	#$0
    5337: 64 25        	stz	$25                     ; 0x2025 <main+0x1abb>
    5339: 20 c6 7e     	jsr	$7ec6 <malloc>
    533c: a5 24        	lda	$24                     ; 0x2024 <main+0x1aba>
    533e: 92 12        	sta	($12)                   ; 0x2012 <main+0x1aa8>
    5340: a2 63        	ldx	#$63
    5342: 86 14        	stx	$14                     ; 0x2014 <main+0x1aaa>
    5344: a2 00        	ldx	#$0
    5346: 86 15        	stx	$15                     ; 0x2015 <main+0x1aab>
    5348: 64 1c        	stz	$1c                     ; 0x201c <main+0x1ab2>
    534a: 64 1e        	stz	$1e                     ; 0x201e <main+0x1ab4>
    534c: 64 1d        	stz	$1d                     ; 0x201d <main+0x1ab3>
    534e: 64 16        	stz	$16                     ; 0x2016 <main+0x1aac>
    5350: 64 17        	stz	$17                     ; 0x2017 <main+0x1aad>
    5352: b2 12        	lda	($12)                   ; 0x2012 <main+0x1aa8>
    5354: aa           	tax
    5355: 18           	clc
    5356: a5 10        	lda	$10                     ; 0x2010 <main+0x1aa6>
    5358: 69 01        	adc	#$1
    535a: 48           	pha
    535b: a5 11        	lda	$11                     ; 0x2011 <main+0x1aa7>
    535d: 69 00        	adc	#$0
    535f: a8           	tay
    5360: 68           	pla
    5361: 18           	clc
    5362: 65 16        	adc	$16                     ; 0x2016 <main+0x1aac>
    5364: 85 18        	sta	$18                     ; 0x2018 <main+0x1aae>
    5366: 98           	tya
    5367: 65 17        	adc	$17                     ; 0x2017 <main+0x1aad>
    5369: e0 00        	cpx	#$0
    536b: d0 03        	bne	$5370 <loadSMFile+0x178>
    536d: 4c db 53     	jmp	$53db <loadSMFile+0x1e3>
    5370: a4 18        	ldy	$18                     ; 0x2018 <main+0x1aae>
    5372: 84 1b        	sty	$1b                     ; 0x201b <main+0x1ab1>
    5374: 85 1a        	sta	$1a                     ; 0x201a <main+0x1ab0>
    5376: a9 fa        	lda	#$fa
    5378: 38           	sec
    5379: e5 16        	sbc	$16                     ; 0x2016 <main+0x1aac>
    537b: 86 f3        	stx	$f3                     ; 0x20f3 <main+0x1b89>
    537d: 85 f4        	sta	$f4                     ; 0x20f4 <main+0x1b8a>
    537f: 18           	clc
    5380: a6 10        	ldx	$10                     ; 0x2010 <main+0x1aa6>
    5382: 86 18        	stx	$18                     ; 0x2018 <main+0x1aae>
    5384: a5 11        	lda	$11                     ; 0x2011 <main+0x1aa7>
    5386: 69 01        	adc	#$1
    5388: 85 19        	sta	$19                     ; 0x2019 <main+0x1aaf>
    538a: 20 60 ff     	jsr	$ff60 <__heap_start+0x59cc>
    538d: 92 18        	sta	($18)                   ; 0x2018 <main+0x1aae>
    538f: a9 00        	lda	#$0
    5391: 6a           	ror
    5392: 85 14        	sta	$14                     ; 0x2014 <main+0x1aaa>
    5394: a6 63        	ldx	$63                     ; 0x2063 <main+0x1af9>
    5396: a0 ff        	ldy	#$ff
    5398: 8a           	txa
    5399: f0 03        	beq	$539e <loadSMFile+0x1a6>
    539b: 4c 17 55     	jmp	$5517 <loadSMFile+0x31f>
    539e: 64 64        	stz	$64                     ; 0x2064 <main+0x1afa>
    53a0: 20 00 ff     	jsr	$ff00 <__heap_start+0x596c>
    53a3: 92 18        	sta	($18)                   ; 0x2018 <main+0x1aae>
    53a5: a9 00        	lda	#$0
    53a7: 6a           	ror
    53a8: 85 14        	sta	$14                     ; 0x2014 <main+0x1aaa>
    53aa: a6 64        	ldx	$64                     ; 0x2064 <main+0x1afa>
    53ac: e0 38        	cpx	#$38
    53ae: d0 03        	bne	$53b3 <loadSMFile+0x1bb>
    53b0: 4c 34 54     	jmp	$5434 <loadSMFile+0x23c>
    53b3: e0 30        	cpx	#$30
    53b5: d0 03        	bne	$53ba <loadSMFile+0x1c2>
    53b7: 4c 3e 54     	jmp	$543e <loadSMFile+0x246>
    53ba: e0 2c        	cpx	#$2c
    53bc: d0 e0        	bne	$539e <loadSMFile+0x1a6>
    53be: a6 1b        	ldx	$1b                     ; 0x201b <main+0x1ab1>
    53c0: 86 fb        	stx	$fb                     ; 0x20fb <main+0x1b91>
    53c2: a6 1a        	ldx	$1a                     ; 0x201a <main+0x1ab0>
    53c4: 86 fc        	stx	$fc                     ; 0x20fc <main+0x1b92>
    53c6: a6 6a        	ldx	$6a                     ; 0x206a <main+0x1b00>
    53c8: 86 fd        	stx	$fd                     ; 0x20fd <main+0x1b93>
    53ca: 20 04 ff     	jsr	$ff04 <__heap_start+0x5970>
    53cd: 92 18        	sta	($18)                   ; 0x2018 <main+0x1aae>
    53cf: a9 00        	lda	#$0
    53d1: 6a           	ror
    53d2: 85 14        	sta	$14                     ; 0x2014 <main+0x1aaa>
    53d4: a5 6a        	lda	$6a                     ; 0x206a <main+0x1b00>
    53d6: d0 3c        	bne	$5414 <loadSMFile+0x21c>
    53d8: 4c 0b 55     	jmp	$550b <loadSMFile+0x313>
    53db: 85 19        	sta	$19                     ; 0x2019 <main+0x1aaf>
    53dd: 80 0a        	bra	$53e9 <loadSMFile+0x1f1>
    53df: 20 0c ff     	jsr	$ff0c <__heap_start+0x5978>
    53e2: 92 1a        	sta	($1a)                   ; 0x201a <main+0x1ab0>
    53e4: a9 00        	lda	#$0
    53e6: 6a           	ror
    53e7: 85 14        	sta	$14                     ; 0x2014 <main+0x1aaa>
    53e9: 64 64        	stz	$64                     ; 0x2064 <main+0x1afa>
    53eb: 18           	clc
    53ec: a6 10        	ldx	$10                     ; 0x2010 <main+0x1aa6>
    53ee: 86 1a        	stx	$1a                     ; 0x201a <main+0x1ab0>
    53f0: a5 11        	lda	$11                     ; 0x2011 <main+0x1aa7>
    53f2: 69 01        	adc	#$1
    53f4: 85 1b        	sta	$1b                     ; 0x201b <main+0x1ab1>
    53f6: 20 00 ff     	jsr	$ff00 <__heap_start+0x596c>
    53f9: 92 1a        	sta	($1a)                   ; 0x201a <main+0x1ab0>
    53fb: a9 00        	lda	#$0
    53fd: 6a           	ror
    53fe: 85 14        	sta	$14                     ; 0x2014 <main+0x1aaa>
    5400: a6 63        	ldx	$63                     ; 0x2063 <main+0x1af9>
    5402: d0 db        	bne	$53df <loadSMFile+0x1e7>
    5404: a6 64        	ldx	$64                     ; 0x2064 <main+0x1afa>
    5406: e0 08        	cpx	#$8
    5408: d0 df        	bne	$53e9 <loadSMFile+0x1f1>
    540a: a6 6a        	ldx	$6a                     ; 0x206a <main+0x1b00>
    540c: d0 db        	bne	$53e9 <loadSMFile+0x1f1>
    540e: a5 69        	lda	$69                     ; 0x2069 <main+0x1aff>
    5410: 92 18        	sta	($18)                   ; 0x2018 <main+0x1aae>
    5412: a9 01        	lda	#$1
    5414: a2 00        	ldx	#$0
    5416: 18           	clc
    5417: 65 16        	adc	$16                     ; 0x2016 <main+0x1aac>
    5419: a8           	tay
    541a: 8a           	txa
    541b: 65 17        	adc	$17                     ; 0x2017 <main+0x1aad>
    541d: d0 04        	bne	$5423 <loadSMFile+0x22b>
    541f: c0 fa        	cpy	#$fa
    5421: 80 02        	bra	$5425 <loadSMFile+0x22d>
    5423: c9 00        	cmp	#$0
    5425: 84 16        	sty	$16                     ; 0x2016 <main+0x1aac>
    5427: 5a           	phy
    5428: a0 00        	ldy	#$0
    542a: 91 10        	sta	($10),y                 ; 0x2010 <main+0x1aa6>
    542c: 7a           	ply
    542d: 85 17        	sta	$17                     ; 0x2017 <main+0x1aad>
    542f: b0 1f        	bcs	$5450 <loadSMFile+0x258>
    5431: 4c 52 53     	jmp	$5352 <loadSMFile+0x15a>
    5434: a2 ff        	ldx	#$ff
    5436: 8a           	txa
    5437: a0 00        	ldy	#$0
    5439: 91 10        	sta	($10),y                 ; 0x2010 <main+0x1aa6>
    543b: 88           	dey
    543c: 80 12        	bra	$5450 <loadSMFile+0x258>
    543e: a4 16        	ldy	$16                     ; 0x2016 <main+0x1aac>
    5440: a6 17        	ldx	$17                     ; 0x2017 <main+0x1aad>
    5442: 8a           	txa
    5443: 5a           	phy
    5444: a0 00        	ldy	#$0
    5446: 91 10        	sta	($10),y                 ; 0x2010 <main+0x1aa6>
    5448: 7a           	ply
    5449: a5 17        	lda	$17                     ; 0x2017 <main+0x1aad>
    544b: d0 03        	bne	$5450 <loadSMFile+0x258>
    544d: 4c 23 55     	jmp	$5523 <loadSMFile+0x32b>
    5450: 84 1a        	sty	$1a                     ; 0x201a <main+0x1ab0>
    5452: 64 16        	stz	$16                     ; 0x2016 <main+0x1aac>
    5454: 64 17        	stz	$17                     ; 0x2017 <main+0x1aad>
    5456: a5 25        	lda	$25                     ; 0x2025 <main+0x1abb>
    5458: 18           	clc
    5459: 65 16        	adc	$16                     ; 0x2016 <main+0x1aac>
    545b: 85 18        	sta	$18                     ; 0x2018 <main+0x1aae>
    545d: a5 1c        	lda	$1c                     ; 0x201c <main+0x1ab2>
    545f: 65 17        	adc	$17                     ; 0x2017 <main+0x1aad>
    5461: aa           	tax
    5462: a5 1e        	lda	$1e                     ; 0x201e <main+0x1ab4>
    5464: 69 00        	adc	#$0
    5466: a8           	tay
    5467: 18           	clc
    5468: a5 18        	lda	$18                     ; 0x2018 <main+0x1aae>
    546a: 69 00        	adc	#$0
    546c: 85 1b        	sta	$1b                     ; 0x201b <main+0x1ab1>
    546e: 8a           	txa
    546f: 69 00        	adc	#$0
    5471: 85 22        	sta	$22                     ; 0x2022 <main+0x1ab8>
    5473: 98           	tya
    5474: 69 05        	adc	#$5
    5476: aa           	tax
    5477: 18           	clc
    5478: a5 10        	lda	$10                     ; 0x2010 <main+0x1aa6>
    547a: 69 01        	adc	#$1
    547c: 48           	pha
    547d: a5 11        	lda	$11                     ; 0x2011 <main+0x1aa7>
    547f: 69 00        	adc	#$0
    5481: 85 18        	sta	$18                     ; 0x2018 <main+0x1aae>
    5483: 68           	pla
    5484: 18           	clc
    5485: 65 16        	adc	$16                     ; 0x2016 <main+0x1aac>
    5487: a8           	tay
    5488: a5 18        	lda	$18                     ; 0x2018 <main+0x1aae>
    548a: 65 17        	adc	$17                     ; 0x2017 <main+0x1aad>
    548c: 84 18        	sty	$18                     ; 0x2018 <main+0x1aae>
    548e: 85 19        	sta	$19                     ; 0x2019 <main+0x1aaf>
    5490: b2 18        	lda	($18)                   ; 0x2018 <main+0x1aae>
    5492: 85 1f        	sta	$1f                     ; 0x201f <main+0x1ab5>
    5494: a5 22        	lda	$22                     ; 0x2022 <main+0x1ab8>
    5496: 85 18        	sta	$18                     ; 0x2018 <main+0x1aae>
    5498: 06 18        	asl	$18                     ; 0x2018 <main+0x1aae>
    549a: 86 19        	stx	$19                     ; 0x2019 <main+0x1aaf>
    549c: 26 19        	rol	$19                     ; 0x2019 <main+0x1aaf>
    549e: 06 18        	asl	$18                     ; 0x2018 <main+0x1aae>
    54a0: 26 19        	rol	$19                     ; 0x2019 <main+0x1aaf>
    54a2: 06 18        	asl	$18                     ; 0x2018 <main+0x1aae>
    54a4: 26 19        	rol	$19                     ; 0x2019 <main+0x1aaf>
    54a6: a4 19        	ldy	$19                     ; 0x2019 <main+0x1aaf>
    54a8: a6 0f        	ldx	$f                      ; 0x200f <main+0x1aa5>
    54aa: 78           	sei
    54ab: 84 0f        	sty	$f                      ; 0x200f <main+0x1aa5>
    54ad: a4 1b        	ldy	$1b                     ; 0x201b <main+0x1ab1>
    54af: 84 18        	sty	$18                     ; 0x2018 <main+0x1aae>
    54b1: 09 e0        	ora	#$e0
    54b3: 85 19        	sta	$19                     ; 0x2019 <main+0x1aaf>
    54b5: a5 1f        	lda	$1f                     ; 0x201f <main+0x1ab5>
    54b7: 92 18        	sta	($18)                   ; 0x2018 <main+0x1aae>
    54b9: 86 0f        	stx	$f                      ; 0x200f <main+0x1aa5>
    54bb: 58           	cli
    54bc: e6 16        	inc	$16                     ; 0x2016 <main+0x1aac>
    54be: d0 02        	bne	$54c2 <loadSMFile+0x2ca>
    54c0: e6 17        	inc	$17                     ; 0x2017 <main+0x1aad>
    54c2: a0 00        	ldy	#$0
    54c4: b1 10        	lda	($10),y                 ; 0x2010 <main+0x1aa6>
    54c6: c5 17        	cmp	$17                     ; 0x2017 <main+0x1aad>
    54c8: f0 03        	beq	$54cd <loadSMFile+0x2d5>
    54ca: 4c 56 54     	jmp	$5456 <loadSMFile+0x25e>
    54cd: a6 1a        	ldx	$1a                     ; 0x201a <main+0x1ab0>
    54cf: e4 16        	cpx	$16                     ; 0x2016 <main+0x1aac>
    54d1: f0 03        	beq	$54d6 <loadSMFile+0x2de>
    54d3: 4c 56 54     	jmp	$5456 <loadSMFile+0x25e>
    54d6: a6 1a        	ldx	$1a                     ; 0x201a <main+0x1ab0>
    54d8: 86 16        	stx	$16                     ; 0x2016 <main+0x1aac>
    54da: a5 25        	lda	$25                     ; 0x2025 <main+0x1abb>
    54dc: 18           	clc
    54dd: 65 16        	adc	$16                     ; 0x2016 <main+0x1aac>
    54df: 85 25        	sta	$25                     ; 0x2025 <main+0x1abb>
    54e1: b1 10        	lda	($10),y                 ; 0x2010 <main+0x1aa6>
    54e3: 85 17        	sta	$17                     ; 0x2017 <main+0x1aad>
    54e5: a5 1c        	lda	$1c                     ; 0x201c <main+0x1ab2>
    54e7: 65 17        	adc	$17                     ; 0x2017 <main+0x1aad>
    54e9: 85 1c        	sta	$1c                     ; 0x201c <main+0x1ab2>
    54eb: a5 1e        	lda	$1e                     ; 0x201e <main+0x1ab4>
    54ed: 69 00        	adc	#$0
    54ef: 85 1e        	sta	$1e                     ; 0x201e <main+0x1ab4>
    54f1: a5 1d        	lda	$1d                     ; 0x201d <main+0x1ab3>
    54f3: 69 00        	adc	#$0
    54f5: 85 1d        	sta	$1d                     ; 0x201d <main+0x1ab3>
    54f7: a5 17        	lda	$17                     ; 0x2017 <main+0x1aad>
    54f9: d0 07        	bne	$5502 <loadSMFile+0x30a>
    54fb: e0 fa        	cpx	#$fa
    54fd: 90 2b        	bcc	$552a <loadSMFile+0x332>
    54ff: 4c 4e 53     	jmp	$534e <loadSMFile+0x156>
    5502: a4 17        	ldy	$17                     ; 0x2017 <main+0x1aad>
    5504: c0 00        	cpy	#$0
    5506: 90 22        	bcc	$552a <loadSMFile+0x332>
    5508: 4c 4e 53     	jmp	$534e <loadSMFile+0x156>
    550b: a9 00        	lda	#$0
    550d: a2 01        	ldx	#$1
    550f: 4c 16 54     	jmp	$5416 <loadSMFile+0x21e>
    5512: a9 01        	lda	#$1
    5514: 4c 76 55     	jmp	$5576 <loadSMFile+0x37e>
    5517: a2 ff        	ldx	#$ff
    5519: 8a           	txa
    551a: 5a           	phy
    551b: a0 00        	ldy	#$0
    551d: 91 10        	sta	($10),y                 ; 0x2010 <main+0x1aa6>
    551f: 7a           	ply
    5520: 4c 50 54     	jmp	$5450 <loadSMFile+0x258>
    5523: a5 16        	lda	$16                     ; 0x2016 <main+0x1aac>
    5525: f0 03        	beq	$552a <loadSMFile+0x332>
    5527: 4c 50 54     	jmp	$5450 <loadSMFile+0x258>
    552a: b2 12        	lda	($12)                   ; 0x2012 <main+0x1aa8>
    552c: 85 f3        	sta	$f3                     ; 0x20f3 <main+0x1b89>
    552e: 18           	clc
    552f: a6 10        	ldx	$10                     ; 0x2010 <main+0x1aa6>
    5531: 86 24        	stx	$24                     ; 0x2024 <main+0x1aba>
    5533: a5 11        	lda	$11                     ; 0x2011 <main+0x1aa7>
    5535: 69 01        	adc	#$1
    5537: 85 25        	sta	$25                     ; 0x2025 <main+0x1abb>
    5539: a2 63        	ldx	#$63
    553b: 86 14        	stx	$14                     ; 0x2014 <main+0x1aaa>
    553d: a2 00        	ldx	#$0
    553f: 86 15        	stx	$15                     ; 0x2015 <main+0x1aab>
    5541: 20 68 ff     	jsr	$ff68 <__heap_start+0x59d4>
    5544: 92 24        	sta	($24)                   ; 0x2024 <main+0x1aba>
    5546: a9 00        	lda	#$0
    5548: 6a           	ror
    5549: 85 14        	sta	$14                     ; 0x2014 <main+0x1aaa>
    554b: 20 95 80     	jsr	$8095 <free>
    554e: a2 63        	ldx	#$63
    5550: 86 12        	stx	$12                     ; 0x2012 <main+0x1aa8>
    5552: a2 00        	ldx	#$0
    5554: 86 13        	stx	$13                     ; 0x2013 <main+0x1aa9>
    5556: a6 24        	ldx	$24                     ; 0x2024 <main+0x1aba>
    5558: 86 14        	stx	$14                     ; 0x2014 <main+0x1aaa>
    555a: a6 25        	ldx	$25                     ; 0x2025 <main+0x1abb>
    555c: 86 15        	stx	$15                     ; 0x2015 <main+0x1aab>
    555e: 64 64        	stz	$64                     ; 0x2064 <main+0x1afa>
    5560: 20 00 ff     	jsr	$ff00 <__heap_start+0x596c>
    5563: 92 14        	sta	($14)                   ; 0x2014 <main+0x1aaa>
    5565: a9 00        	lda	#$0
    5567: 6a           	ror
    5568: 85 12        	sta	$12                     ; 0x2012 <main+0x1aa8>
    556a: a6 64        	ldx	$64                     ; 0x2064 <main+0x1afa>
    556c: e0 38        	cpx	#$38
    556e: f0 04        	beq	$5574 <loadSMFile+0x37c>
    5570: e0 32        	cpx	#$32
    5572: d0 ea        	bne	$555e <loadSMFile+0x366>
    5574: a9 00        	lda	#$0
    5576: 85 20        	sta	$20                     ; 0x2020 <main+0x1ab6>
    5578: fa           	plx
    5579: 86 25        	stx	$25                     ; 0x2025 <main+0x1abb>
    557b: fa           	plx
    557c: 86 24        	stx	$24                     ; 0x2024 <main+0x1aba>
    557e: 18           	clc
    557f: a5 10        	lda	$10                     ; 0x2010 <main+0x1aa6>
    5581: 69 01        	adc	#$1
    5583: 85 10        	sta	$10                     ; 0x2010 <main+0x1aa6>
    5585: a5 11        	lda	$11                     ; 0x2011 <main+0x1aa7>
    5587: 69 01        	adc	#$1
    5589: 85 11        	sta	$11                     ; 0x2011 <main+0x1aa7>
    558b: a5 20        	lda	$20                     ; 0x2020 <main+0x1ab6>
    558d: 60           	rts

0000558e <readDelta>:
    558e: 48           	pha
    558f: 18           	clc
    5590: a5 10        	lda	$10                     ; 0x2010 <main+0x1aa6>
    5592: 69 f7        	adc	#$f7
    5594: 85 10        	sta	$10                     ; 0x2010 <main+0x1aa6>
    5596: a5 11        	lda	$11                     ; 0x2011 <main+0x1aa7>
    5598: 69 ff        	adc	#$ff
    559a: 85 11        	sta	$11                     ; 0x2011 <main+0x1aa7>
    559c: 68           	pla
    559d: a6 24        	ldx	$24                     ; 0x2024 <main+0x1aba>
    559f: da           	phx
    55a0: a6 25        	ldx	$25                     ; 0x2025 <main+0x1abb>
    55a2: da           	phx
    55a3: a6 26        	ldx	$26                     ; 0x2026 <main+0x1abc>
    55a5: da           	phx
    55a6: a6 27        	ldx	$27                     ; 0x2027 <main+0x1abd>
    55a8: da           	phx
    55a9: 48           	pha
    55aa: a5 28        	lda	$28                     ; 0x2028 <main+0x1abe>
    55ac: a0 02        	ldy	#$2
    55ae: 91 10        	sta	($10),y                 ; 0x2010 <main+0x1aa6>
    55b0: a5 29        	lda	$29                     ; 0x2029 <main+0x1abf>
    55b2: 88           	dey
    55b3: 91 10        	sta	($10),y                 ; 0x2010 <main+0x1aa6>
    55b5: a5 2a        	lda	$2a                     ; 0x202a <main+0x1ac0>
    55b7: 88           	dey
    55b8: 91 10        	sta	($10),y                 ; 0x2010 <main+0x1aa6>
    55ba: 68           	pla
    55bb: 85 25        	sta	$25                     ; 0x2025 <main+0x1abb>
    55bd: a6 60        	ldx	$60                     ; 0x2060 <main+0x1af6>
    55bf: 86 27        	stx	$27                     ; 0x2027 <main+0x1abd>
    55c1: a6 61        	ldx	$61                     ; 0x2061 <main+0x1af7>
    55c3: 86 26        	stx	$26                     ; 0x2026 <main+0x1abc>
    55c5: 64 24        	stz	$24                     ; 0x2024 <main+0x1aba>
    55c7: a2 19        	ldx	#$19
    55c9: 86 12        	stx	$12                     ; 0x2012 <main+0x1aa8>
    55cb: 64 13        	stz	$13                     ; 0x2013 <main+0x1aa9>
    55cd: a2 00        	ldx	#$0
    55cf: 20 7c 82     	jsr	$827c <__mulhi3>
    55d2: 85 12        	sta	$12                     ; 0x2012 <main+0x1aa8>
    55d4: 86 13        	stx	$13                     ; 0x2013 <main+0x1aa9>
    55d6: 18           	clc
    55d7: a5 27        	lda	$27                     ; 0x2027 <main+0x1abd>
    55d9: 65 12        	adc	$12                     ; 0x2012 <main+0x1aa8>
    55db: a8           	tay
    55dc: a5 26        	lda	$26                     ; 0x2026 <main+0x1abc>
    55de: 65 13        	adc	$13                     ; 0x2013 <main+0x1aa9>
    55e0: aa           	tax
    55e1: 84 12        	sty	$12                     ; 0x2012 <main+0x1aa8>
    55e3: 85 13        	sta	$13                     ; 0x2013 <main+0x1aa9>
    55e5: 98           	tya
    55e6: 18           	clc
    55e7: 69 08        	adc	#$8
    55e9: 85 14        	sta	$14                     ; 0x2014 <main+0x1aaa>
    55eb: 8a           	txa
    55ec: 69 00        	adc	#$0
    55ee: 85 15        	sta	$15                     ; 0x2015 <main+0x1aab>
    55f0: 18           	clc
    55f1: 98           	tya
    55f2: 69 04        	adc	#$4
    55f4: 85 16        	sta	$16                     ; 0x2016 <main+0x1aac>
    55f6: 8a           	txa
    55f7: 69 00        	adc	#$0
    55f9: a0 04        	ldy	#$4
    55fb: 85 17        	sta	$17                     ; 0x2017 <main+0x1aad>
    55fd: b1 12        	lda	($12),y                 ; 0x2012 <main+0x1aa8>
    55ff: 85 18        	sta	$18                     ; 0x2018 <main+0x1aae>
    5601: a0 01        	ldy	#$1
    5603: b1 16        	lda	($16),y                 ; 0x2016 <main+0x1aac>
    5605: 85 19        	sta	$19                     ; 0x2019 <main+0x1aaf>
    5607: c8           	iny
    5608: b1 16        	lda	($16),y                 ; 0x2016 <main+0x1aac>
    560a: aa           	tax
    560b: c8           	iny
    560c: b1 16        	lda	($16),y                 ; 0x2016 <main+0x1aac>
    560e: a4 18        	ldy	$18                     ; 0x2018 <main+0x1aae>
    5610: 84 1a        	sty	$1a                     ; 0x201a <main+0x1ab0>
    5612: a4 19        	ldy	$19                     ; 0x2019 <main+0x1aaf>
    5614: 84 1b        	sty	$1b                     ; 0x201b <main+0x1ab1>
    5616: 86 1c        	stx	$1c                     ; 0x201c <main+0x1ab2>
    5618: e6 1a        	inc	$1a                     ; 0x201a <main+0x1ab0>
    561a: d0 09        	bne	$5625 <readDelta+0x97>
    561c: e6 1b        	inc	$1b                     ; 0x201b <main+0x1ab1>
    561e: d0 05        	bne	$5625 <readDelta+0x97>
    5620: e6 1c        	inc	$1c                     ; 0x201c <main+0x1ab2>
    5622: d0 01        	bne	$5625 <readDelta+0x97>
    5624: 1a           	inc
    5625: 85 1d        	sta	$1d                     ; 0x201d <main+0x1ab3>
    5627: a0 04        	ldy	#$4
    5629: a5 1a        	lda	$1a                     ; 0x201a <main+0x1ab0>
    562b: 91 12        	sta	($12),y                 ; 0x2012 <main+0x1aa8>
    562d: a0 01        	ldy	#$1
    562f: a5 1b        	lda	$1b                     ; 0x201b <main+0x1ab1>
    5631: 91 16        	sta	($16),y                 ; 0x2016 <main+0x1aac>
    5633: c8           	iny
    5634: a5 1c        	lda	$1c                     ; 0x201c <main+0x1ab2>
    5636: 91 16        	sta	($16),y                 ; 0x2016 <main+0x1aac>
    5638: c8           	iny
    5639: a5 1d        	lda	$1d                     ; 0x201d <main+0x1ab3>
    563b: 91 16        	sta	($16),y                 ; 0x2016 <main+0x1aac>
    563d: 18           	clc
    563e: a0 08        	ldy	#$8
    5640: a5 18        	lda	$18                     ; 0x2018 <main+0x1aae>
    5642: 71 12        	adc	($12),y                 ; 0x2012 <main+0x1aa8>
    5644: 85 16        	sta	$16                     ; 0x2016 <main+0x1aac>
    5646: a5 19        	lda	$19                     ; 0x2019 <main+0x1aaf>
    5648: a0 01        	ldy	#$1
    564a: 71 14        	adc	($14),y                 ; 0x2014 <main+0x1aaa>
    564c: 85 12        	sta	$12                     ; 0x2012 <main+0x1aa8>
    564e: 8a           	txa
    564f: c8           	iny
    5650: 71 14        	adc	($14),y                 ; 0x2014 <main+0x1aaa>
    5652: 85 13        	sta	$13                     ; 0x2013 <main+0x1aa9>
    5654: a5 12        	lda	$12                     ; 0x2012 <main+0x1aa8>
    5656: 06 12        	asl	$12                     ; 0x2012 <main+0x1aa8>
    5658: 26 13        	rol	$13                     ; 0x2013 <main+0x1aa9>
    565a: 06 12        	asl	$12                     ; 0x2012 <main+0x1aa8>
    565c: 26 13        	rol	$13                     ; 0x2013 <main+0x1aa9>
    565e: 06 12        	asl	$12                     ; 0x2012 <main+0x1aa8>
    5660: 26 13        	rol	$13                     ; 0x2013 <main+0x1aa9>
    5662: a4 13        	ldy	$13                     ; 0x2013 <main+0x1aa9>
    5664: a6 0f        	ldx	$f                      ; 0x200f <main+0x1aa5>
    5666: 78           	sei
    5667: 84 0f        	sty	$f                      ; 0x200f <main+0x1aa5>
    5669: a4 16        	ldy	$16                     ; 0x2016 <main+0x1aac>
    566b: 84 12        	sty	$12                     ; 0x2012 <main+0x1aa8>
    566d: 09 e0        	ora	#$e0
    566f: 85 13        	sta	$13                     ; 0x2013 <main+0x1aa9>
    5671: b2 12        	lda	($12)                   ; 0x2012 <main+0x1aa8>
    5673: 86 0f        	stx	$f                      ; 0x200f <main+0x1aa5>
    5675: 58           	cli
    5676: aa           	tax
    5677: 30 15        	bmi	$568e <readDelta+0x100>
    5679: 64 2a        	stz	$2a                     ; 0x202a <main+0x1ac0>
    567b: 64 27        	stz	$27                     ; 0x2027 <main+0x1abd>
    567d: 64 13        	stz	$13                     ; 0x2013 <main+0x1aa9>
    567f: 85 29        	sta	$29                     ; 0x2029 <main+0x1abf>
    5681: a9 00        	lda	#$0
    5683: 64 28        	stz	$28                     ; 0x2028 <main+0x1abe>
    5685: 64 15        	stz	$15                     ; 0x2015 <main+0x1aab>
    5687: 64 12        	stz	$12                     ; 0x2012 <main+0x1aa8>
    5689: 64 14        	stz	$14                     ; 0x2014 <main+0x1aaa>
    568b: 4c ae 59     	jmp	$59ae <readDelta+0x420>
    568e: 4a           	lsr
    568f: aa           	tax
    5690: a9 00        	lda	#$0
    5692: 6a           	ror
    5693: 29 80        	and	#$80
    5695: 85 29        	sta	$29                     ; 0x2029 <main+0x1abf>
    5697: 8a           	txa
    5698: 29 3f        	and	#$3f
    569a: 85 2a        	sta	$2a                     ; 0x202a <main+0x1ac0>
    569c: a6 60        	ldx	$60                     ; 0x2060 <main+0x1af6>
    569e: 86 28        	stx	$28                     ; 0x2028 <main+0x1abe>
    56a0: a6 61        	ldx	$61                     ; 0x2061 <main+0x1af7>
    56a2: 86 27        	stx	$27                     ; 0x2027 <main+0x1abd>
    56a4: a2 19        	ldx	#$19
    56a6: 86 12        	stx	$12                     ; 0x2012 <main+0x1aa8>
    56a8: 64 13        	stz	$13                     ; 0x2013 <main+0x1aa9>
    56aa: a2 00        	ldx	#$0
    56ac: a5 25        	lda	$25                     ; 0x2025 <main+0x1abb>
    56ae: 20 7c 82     	jsr	$827c <__mulhi3>
    56b1: 85 12        	sta	$12                     ; 0x2012 <main+0x1aa8>
    56b3: 86 13        	stx	$13                     ; 0x2013 <main+0x1aa9>
    56b5: 18           	clc
    56b6: a5 28        	lda	$28                     ; 0x2028 <main+0x1abe>
    56b8: 65 12        	adc	$12                     ; 0x2012 <main+0x1aa8>
    56ba: a8           	tay
    56bb: a5 27        	lda	$27                     ; 0x2027 <main+0x1abd>
    56bd: 65 13        	adc	$13                     ; 0x2013 <main+0x1aa9>
    56bf: aa           	tax
    56c0: 98           	tya
    56c1: 84 12        	sty	$12                     ; 0x2012 <main+0x1aa8>
    56c3: 86 13        	stx	$13                     ; 0x2013 <main+0x1aa9>
    56c5: 84 17        	sty	$17                     ; 0x2017 <main+0x1aad>
    56c7: 18           	clc
    56c8: 69 04        	adc	#$4
    56ca: 85 14        	sta	$14                     ; 0x2014 <main+0x1aaa>
    56cc: 8a           	txa
    56cd: 86 18        	stx	$18                     ; 0x2018 <main+0x1aae>
    56cf: 69 00        	adc	#$0
    56d1: 85 15        	sta	$15                     ; 0x2015 <main+0x1aab>
    56d3: a0 04        	ldy	#$4
    56d5: b1 12        	lda	($12),y                 ; 0x2012 <main+0x1aa8>
    56d7: 85 16        	sta	$16                     ; 0x2016 <main+0x1aac>
    56d9: a0 01        	ldy	#$1
    56db: b1 14        	lda	($14),y                 ; 0x2014 <main+0x1aaa>
    56dd: 85 1a        	sta	$1a                     ; 0x201a <main+0x1ab0>
    56df: c8           	iny
    56e0: b1 14        	lda	($14),y                 ; 0x2014 <main+0x1aaa>
    56e2: 85 19        	sta	$19                     ; 0x2019 <main+0x1aaf>
    56e4: c8           	iny
    56e5: b1 14        	lda	($14),y                 ; 0x2014 <main+0x1aaa>
    56e7: a6 16        	ldx	$16                     ; 0x2016 <main+0x1aac>
    56e9: 86 1c        	stx	$1c                     ; 0x201c <main+0x1ab2>
    56eb: a6 1a        	ldx	$1a                     ; 0x201a <main+0x1ab0>
    56ed: a4 19        	ldy	$19                     ; 0x2019 <main+0x1aaf>
    56ef: 84 1b        	sty	$1b                     ; 0x201b <main+0x1ab1>
    56f1: e6 1c        	inc	$1c                     ; 0x201c <main+0x1ab2>
    56f3: d0 08        	bne	$56fd <readDelta+0x16f>
    56f5: e8           	inx
    56f6: d0 05        	bne	$56fd <readDelta+0x16f>
    56f8: e6 1b        	inc	$1b                     ; 0x201b <main+0x1ab1>
    56fa: d0 01        	bne	$56fd <readDelta+0x16f>
    56fc: 1a           	inc
    56fd: 85 1d        	sta	$1d                     ; 0x201d <main+0x1ab3>
    56ff: a0 04        	ldy	#$4
    5701: a5 1c        	lda	$1c                     ; 0x201c <main+0x1ab2>
    5703: 91 12        	sta	($12),y                 ; 0x2012 <main+0x1aa8>
    5705: 88           	dey
    5706: a5 1d        	lda	$1d                     ; 0x201d <main+0x1ab3>
    5708: 91 14        	sta	($14),y                 ; 0x2014 <main+0x1aaa>
    570a: a0 01        	ldy	#$1
    570c: 8a           	txa
    570d: 91 14        	sta	($14),y                 ; 0x2014 <main+0x1aaa>
    570f: c8           	iny
    5710: a5 1b        	lda	$1b                     ; 0x201b <main+0x1ab1>
    5712: 91 14        	sta	($14),y                 ; 0x2014 <main+0x1aaa>
    5714: a5 16        	lda	$16                     ; 0x2016 <main+0x1aac>
    5716: 18           	clc
    5717: a0 08        	ldy	#$8
    5719: 71 12        	adc	($12),y                 ; 0x2012 <main+0x1aa8>
    571b: a2 01        	ldx	#$1
    571d: b0 02        	bcs	$5721 <readDelta+0x193>
    571f: a2 00        	ldx	#$0
    5721: 85 14        	sta	$14                     ; 0x2014 <main+0x1aaa>
    5723: 18           	clc
    5724: a5 17        	lda	$17                     ; 0x2017 <main+0x1aad>
    5726: 69 08        	adc	#$8
    5728: 85 12        	sta	$12                     ; 0x2012 <main+0x1aa8>
    572a: a5 18        	lda	$18                     ; 0x2018 <main+0x1aae>
    572c: 69 00        	adc	#$0
    572e: 85 13        	sta	$13                     ; 0x2013 <main+0x1aa9>
    5730: a5 1a        	lda	$1a                     ; 0x201a <main+0x1ab0>
    5732: e0 01        	cpx	#$1
    5734: a0 01        	ldy	#$1
    5736: 71 12        	adc	($12),y                 ; 0x2012 <main+0x1aa8>
    5738: aa           	tax
    5739: a5 19        	lda	$19                     ; 0x2019 <main+0x1aaf>
    573b: c8           	iny
    573c: 71 12        	adc	($12),y                 ; 0x2012 <main+0x1aa8>
    573e: 85 13        	sta	$13                     ; 0x2013 <main+0x1aa9>
    5740: 8a           	txa
    5741: 86 12        	stx	$12                     ; 0x2012 <main+0x1aa8>
    5743: 06 12        	asl	$12                     ; 0x2012 <main+0x1aa8>
    5745: 26 13        	rol	$13                     ; 0x2013 <main+0x1aa9>
    5747: 06 12        	asl	$12                     ; 0x2012 <main+0x1aa8>
    5749: 26 13        	rol	$13                     ; 0x2013 <main+0x1aa9>
    574b: 06 12        	asl	$12                     ; 0x2012 <main+0x1aa8>
    574d: 26 13        	rol	$13                     ; 0x2013 <main+0x1aa9>
    574f: a4 13        	ldy	$13                     ; 0x2013 <main+0x1aa9>
    5751: a6 0f        	ldx	$f                      ; 0x200f <main+0x1aa5>
    5753: 78           	sei
    5754: 84 0f        	sty	$f                      ; 0x200f <main+0x1aa5>
    5756: a4 14        	ldy	$14                     ; 0x2014 <main+0x1aaa>
    5758: 84 12        	sty	$12                     ; 0x2012 <main+0x1aa8>
    575a: 09 e0        	ora	#$e0
    575c: 85 13        	sta	$13                     ; 0x2013 <main+0x1aa9>
    575e: b2 12        	lda	($12)                   ; 0x2012 <main+0x1aa8>
    5760: 86 0f        	stx	$f                      ; 0x200f <main+0x1aa5>
    5762: 58           	cli
    5763: aa           	tax
    5764: 30 0f        	bmi	$5775 <readDelta+0x1e7>
    5766: 64 13        	stz	$13                     ; 0x2013 <main+0x1aa9>
    5768: 64 28        	stz	$28                     ; 0x2028 <main+0x1abe>
    576a: 64 15        	stz	$15                     ; 0x2015 <main+0x1aab>
    576c: 64 12        	stz	$12                     ; 0x2012 <main+0x1aa8>
    576e: 64 27        	stz	$27                     ; 0x2027 <main+0x1abd>
    5770: 64 14        	stz	$14                     ; 0x2014 <main+0x1aaa>
    5772: 4c ae 59     	jmp	$59ae <readDelta+0x420>
    5775: 4a           	lsr
    5776: aa           	tax
    5777: a9 00        	lda	#$0
    5779: 6a           	ror
    577a: a4 2a        	ldy	$2a                     ; 0x202a <main+0x1ac0>
    577c: 84 26        	sty	$26                     ; 0x2026 <main+0x1abc>
    577e: 46 26        	lsr	$26                     ; 0x2026 <main+0x1abc>
    5780: a4 26        	ldy	$26                     ; 0x2026 <main+0x1abc>
    5782: 84 27        	sty	$27                     ; 0x2027 <main+0x1abd>
    5784: a4 29        	ldy	$29                     ; 0x2029 <main+0x1abf>
    5786: 84 26        	sty	$26                     ; 0x2026 <main+0x1abc>
    5788: 66 26        	ror	$26                     ; 0x2026 <main+0x1abc>
    578a: a4 26        	ldy	$26                     ; 0x2026 <main+0x1abc>
    578c: 84 2a        	sty	$2a                     ; 0x202a <main+0x1ac0>
    578e: 64 14        	stz	$14                     ; 0x2014 <main+0x1aaa>
    5790: 66 14        	ror	$14                     ; 0x2014 <main+0x1aaa>
    5792: 48           	pha
    5793: a5 14        	lda	$14                     ; 0x2014 <main+0x1aaa>
    5795: a0 07        	ldy	#$7
    5797: 91 10        	sta	($10),y                 ; 0x2010 <main+0x1aa6>
    5799: 68           	pla
    579a: 64 13        	stz	$13                     ; 0x2013 <main+0x1aa9>
    579c: 29 80        	and	#$80
    579e: c8           	iny
    579f: 91 10        	sta	($10),y                 ; 0x2010 <main+0x1aa6>
    57a1: 8a           	txa
    57a2: 29 3f        	and	#$3f
    57a4: 85 28        	sta	$28                     ; 0x2028 <main+0x1abe>
    57a6: a6 60        	ldx	$60                     ; 0x2060 <main+0x1af6>
    57a8: 86 26        	stx	$26                     ; 0x2026 <main+0x1abc>
    57aa: a6 61        	ldx	$61                     ; 0x2061 <main+0x1af7>
    57ac: 86 29        	stx	$29                     ; 0x2029 <main+0x1abf>
    57ae: a0 19        	ldy	#$19
    57b0: a2 00        	ldx	#$0
    57b2: 84 12        	sty	$12                     ; 0x2012 <main+0x1aa8>
    57b4: a5 25        	lda	$25                     ; 0x2025 <main+0x1abb>
    57b6: 20 7c 82     	jsr	$827c <__mulhi3>
    57b9: 85 12        	sta	$12                     ; 0x2012 <main+0x1aa8>
    57bb: 86 13        	stx	$13                     ; 0x2013 <main+0x1aa9>
    57bd: a5 26        	lda	$26                     ; 0x2026 <main+0x1abc>
    57bf: 18           	clc
    57c0: 65 12        	adc	$12                     ; 0x2012 <main+0x1aa8>
    57c2: a8           	tay
    57c3: a5 29        	lda	$29                     ; 0x2029 <main+0x1abf>
    57c5: 65 13        	adc	$13                     ; 0x2013 <main+0x1aa9>
    57c7: aa           	tax
    57c8: 84 12        	sty	$12                     ; 0x2012 <main+0x1aa8>
    57ca: 85 13        	sta	$13                     ; 0x2013 <main+0x1aa9>
    57cc: 18           	clc
    57cd: 98           	tya
    57ce: 84 16        	sty	$16                     ; 0x2016 <main+0x1aac>
    57d0: 69 08        	adc	#$8
    57d2: 85 14        	sta	$14                     ; 0x2014 <main+0x1aaa>
    57d4: 8a           	txa
    57d5: 69 00        	adc	#$0
    57d7: 85 15        	sta	$15                     ; 0x2015 <main+0x1aab>
    57d9: a0 04        	ldy	#$4
    57db: 18           	clc
    57dc: a5 16        	lda	$16                     ; 0x2016 <main+0x1aac>
    57de: 69 04        	adc	#$4
    57e0: 85 16        	sta	$16                     ; 0x2016 <main+0x1aac>
    57e2: 8a           	txa
    57e3: 69 00        	adc	#$0
    57e5: 85 17        	sta	$17                     ; 0x2017 <main+0x1aad>
    57e7: b1 12        	lda	($12),y                 ; 0x2012 <main+0x1aa8>
    57e9: 85 18        	sta	$18                     ; 0x2018 <main+0x1aae>
    57eb: a0 01        	ldy	#$1
    57ed: b1 16        	lda	($16),y                 ; 0x2016 <main+0x1aac>
    57ef: 85 19        	sta	$19                     ; 0x2019 <main+0x1aaf>
    57f1: c8           	iny
    57f2: b1 16        	lda	($16),y                 ; 0x2016 <main+0x1aac>
    57f4: aa           	tax
    57f5: c8           	iny
    57f6: b1 16        	lda	($16),y                 ; 0x2016 <main+0x1aac>
    57f8: 85 1b        	sta	$1b                     ; 0x201b <main+0x1ab1>
    57fa: a4 18        	ldy	$18                     ; 0x2018 <main+0x1aae>
    57fc: 84 1a        	sty	$1a                     ; 0x201a <main+0x1ab0>
    57fe: a4 19        	ldy	$19                     ; 0x2019 <main+0x1aaf>
    5800: 8a           	txa
    5801: e6 1a        	inc	$1a                     ; 0x201a <main+0x1ab0>
    5803: d0 08        	bne	$580d <readDelta+0x27f>
    5805: c8           	iny
    5806: d0 05        	bne	$580d <readDelta+0x27f>
    5808: 1a           	inc
    5809: d0 02        	bne	$580d <readDelta+0x27f>
    580b: e6 1b        	inc	$1b                     ; 0x201b <main+0x1ab1>
    580d: 85 1c        	sta	$1c                     ; 0x201c <main+0x1ab2>
    580f: 84 1d        	sty	$1d                     ; 0x201d <main+0x1ab3>
    5811: a0 04        	ldy	#$4
    5813: a5 1a        	lda	$1a                     ; 0x201a <main+0x1ab0>
    5815: 91 12        	sta	($12),y                 ; 0x2012 <main+0x1aa8>
    5817: a0 01        	ldy	#$1
    5819: a5 1d        	lda	$1d                     ; 0x201d <main+0x1ab3>
    581b: 91 16        	sta	($16),y                 ; 0x2016 <main+0x1aac>
    581d: c8           	iny
    581e: a5 1c        	lda	$1c                     ; 0x201c <main+0x1ab2>
    5820: 91 16        	sta	($16),y                 ; 0x2016 <main+0x1aac>
    5822: c8           	iny
    5823: a5 1b        	lda	$1b                     ; 0x201b <main+0x1ab1>
    5825: 91 16        	sta	($16),y                 ; 0x2016 <main+0x1aac>
    5827: 18           	clc
    5828: a0 08        	ldy	#$8
    582a: a5 18        	lda	$18                     ; 0x2018 <main+0x1aae>
    582c: 71 12        	adc	($12),y                 ; 0x2012 <main+0x1aa8>
    582e: 85 16        	sta	$16                     ; 0x2016 <main+0x1aac>
    5830: a5 19        	lda	$19                     ; 0x2019 <main+0x1aaf>
    5832: a0 01        	ldy	#$1
    5834: 71 14        	adc	($14),y                 ; 0x2014 <main+0x1aaa>
    5836: 85 12        	sta	$12                     ; 0x2012 <main+0x1aa8>
    5838: c8           	iny
    5839: 8a           	txa
    583a: 71 14        	adc	($14),y                 ; 0x2014 <main+0x1aaa>
    583c: 85 13        	sta	$13                     ; 0x2013 <main+0x1aa9>
    583e: a5 12        	lda	$12                     ; 0x2012 <main+0x1aa8>
    5840: 06 12        	asl	$12                     ; 0x2012 <main+0x1aa8>
    5842: 26 13        	rol	$13                     ; 0x2013 <main+0x1aa9>
    5844: 06 12        	asl	$12                     ; 0x2012 <main+0x1aa8>
    5846: 26 13        	rol	$13                     ; 0x2013 <main+0x1aa9>
    5848: 06 12        	asl	$12                     ; 0x2012 <main+0x1aa8>
    584a: 26 13        	rol	$13                     ; 0x2013 <main+0x1aa9>
    584c: a4 13        	ldy	$13                     ; 0x2013 <main+0x1aa9>
    584e: a6 0f        	ldx	$f                      ; 0x200f <main+0x1aa5>
    5850: 78           	sei
    5851: 84 0f        	sty	$f                      ; 0x200f <main+0x1aa5>
    5853: a4 16        	ldy	$16                     ; 0x2016 <main+0x1aac>
    5855: 84 12        	sty	$12                     ; 0x2012 <main+0x1aa8>
    5857: 09 e0        	ora	#$e0
    5859: 85 13        	sta	$13                     ; 0x2013 <main+0x1aa9>
    585b: b2 12        	lda	($12)                   ; 0x2012 <main+0x1aa8>
    585d: 86 0f        	stx	$f                      ; 0x200f <main+0x1aa5>
    585f: 58           	cli
    5860: aa           	tax
    5861: 30 14        	bmi	$5877 <readDelta+0x2e9>
    5863: 64 15        	stz	$15                     ; 0x2015 <main+0x1aab>
    5865: 85 12        	sta	$12                     ; 0x2012 <main+0x1aa8>
    5867: 64 14        	stz	$14                     ; 0x2014 <main+0x1aaa>
    5869: 64 13        	stz	$13                     ; 0x2013 <main+0x1aa9>
    586b: a0 07        	ldy	#$7
    586d: b1 10        	lda	($10),y                 ; 0x2010 <main+0x1aa6>
    586f: 85 29        	sta	$29                     ; 0x2029 <main+0x1abf>
    5871: c8           	iny
    5872: b1 10        	lda	($10),y                 ; 0x2010 <main+0x1aa6>
    5874: 4c ae 59     	jmp	$59ae <readDelta+0x420>
    5877: 4a           	lsr
    5878: 64 14        	stz	$14                     ; 0x2014 <main+0x1aaa>
    587a: 66 14        	ror	$14                     ; 0x2014 <main+0x1aaa>
    587c: 46 28        	lsr	$28                     ; 0x2028 <main+0x1abe>
    587e: 48           	pha
    587f: a5 28        	lda	$28                     ; 0x2028 <main+0x1abe>
    5881: a0 06        	ldy	#$6
    5883: 91 10        	sta	($10),y                 ; 0x2010 <main+0x1aa6>
    5885: a0 08        	ldy	#$8
    5887: b1 10        	lda	($10),y                 ; 0x2010 <main+0x1aa6>
    5889: 85 28        	sta	$28                     ; 0x2028 <main+0x1abe>
    588b: 68           	pla
    588c: 66 28        	ror	$28                     ; 0x2028 <main+0x1abe>
    588e: aa           	tax
    588f: a9 00        	lda	#$0
    5891: 6a           	ror
    5892: 91 10        	sta	($10),y                 ; 0x2010 <main+0x1aa6>
    5894: a4 27        	ldy	$27                     ; 0x2027 <main+0x1abd>
    5896: 84 24        	sty	$24                     ; 0x2024 <main+0x1aba>
    5898: 46 24        	lsr	$24                     ; 0x2024 <main+0x1aba>
    589a: a4 2a        	ldy	$2a                     ; 0x202a <main+0x1ac0>
    589c: 84 26        	sty	$26                     ; 0x2026 <main+0x1abc>
    589e: 66 26        	ror	$26                     ; 0x2026 <main+0x1abc>
    58a0: a4 26        	ldy	$26                     ; 0x2026 <main+0x1abc>
    58a2: 84 27        	sty	$27                     ; 0x2027 <main+0x1abd>
    58a4: a0 07        	ldy	#$7
    58a6: b1 10        	lda	($10),y                 ; 0x2010 <main+0x1aa6>
    58a8: 85 26        	sta	$26                     ; 0x2026 <main+0x1abc>
    58aa: 66 26        	ror	$26                     ; 0x2026 <main+0x1abc>
    58ac: a5 26        	lda	$26                     ; 0x2026 <main+0x1abc>
    58ae: 85 2a        	sta	$2a                     ; 0x202a <main+0x1ac0>
    58b0: a9 00        	lda	#$0
    58b2: 6a           	ror
    58b3: 91 10        	sta	($10),y                 ; 0x2010 <main+0x1aa6>
    58b5: a5 14        	lda	$14                     ; 0x2014 <main+0x1aaa>
    58b7: 29 80        	and	#$80
    58b9: 85 29        	sta	$29                     ; 0x2029 <main+0x1abf>
    58bb: 8a           	txa
    58bc: 29 3f        	and	#$3f
    58be: a0 04        	ldy	#$4
    58c0: 91 10        	sta	($10),y                 ; 0x2010 <main+0x1aa6>
    58c2: a6 60        	ldx	$60                     ; 0x2060 <main+0x1af6>
    58c4: 8a           	txa
    58c5: 88           	dey
    58c6: 91 10        	sta	($10),y                 ; 0x2010 <main+0x1aa6>
    58c8: a6 61        	ldx	$61                     ; 0x2061 <main+0x1af7>
    58ca: 8a           	txa
    58cb: a0 05        	ldy	#$5
    58cd: 91 10        	sta	($10),y                 ; 0x2010 <main+0x1aa6>
    58cf: a0 19        	ldy	#$19
    58d1: a2 00        	ldx	#$0
    58d3: 84 12        	sty	$12                     ; 0x2012 <main+0x1aa8>
    58d5: 64 13        	stz	$13                     ; 0x2013 <main+0x1aa9>
    58d7: a5 25        	lda	$25                     ; 0x2025 <main+0x1abb>
    58d9: 20 7c 82     	jsr	$827c <__mulhi3>
    58dc: a4 24        	ldy	$24                     ; 0x2024 <main+0x1aba>
    58de: 84 13        	sty	$13                     ; 0x2013 <main+0x1aa9>
    58e0: 85 15        	sta	$15                     ; 0x2015 <main+0x1aab>
    58e2: 86 16        	stx	$16                     ; 0x2016 <main+0x1aac>
    58e4: a6 29        	ldx	$29                     ; 0x2029 <main+0x1abf>
    58e6: 86 12        	stx	$12                     ; 0x2012 <main+0x1aa8>
    58e8: a0 04        	ldy	#$4
    58ea: b1 10        	lda	($10),y                 ; 0x2010 <main+0x1aa6>
    58ec: 85 14        	sta	$14                     ; 0x2014 <main+0x1aaa>
    58ee: 18           	clc
    58ef: 88           	dey
    58f0: b1 10        	lda	($10),y                 ; 0x2010 <main+0x1aa6>
    58f2: 65 15        	adc	$15                     ; 0x2015 <main+0x1aab>
    58f4: a8           	tay
    58f5: 5a           	phy
    58f6: a0 05        	ldy	#$5
    58f8: b1 10        	lda	($10),y                 ; 0x2010 <main+0x1aa6>
    58fa: 7a           	ply
    58fb: 65 16        	adc	$16                     ; 0x2016 <main+0x1aac>
    58fd: aa           	tax
    58fe: 98           	tya
    58ff: 84 16        	sty	$16                     ; 0x2016 <main+0x1aac>
    5901: 86 17        	stx	$17                     ; 0x2017 <main+0x1aad>
    5903: 84 1b        	sty	$1b                     ; 0x201b <main+0x1ab1>
    5905: 18           	clc
    5906: 69 04        	adc	#$4
    5908: 85 18        	sta	$18                     ; 0x2018 <main+0x1aae>
    590a: 8a           	txa
    590b: 86 1c        	stx	$1c                     ; 0x201c <main+0x1ab2>
    590d: 69 00        	adc	#$0
    590f: 85 19        	sta	$19                     ; 0x2019 <main+0x1aaf>
    5911: a0 04        	ldy	#$4
    5913: b1 16        	lda	($16),y                 ; 0x2016 <main+0x1aac>
    5915: aa           	tax
    5916: a0 01        	ldy	#$1
    5918: b1 18        	lda	($18),y                 ; 0x2018 <main+0x1aae>
    591a: 85 1a        	sta	$1a                     ; 0x201a <main+0x1ab0>
    591c: c8           	iny
    591d: b1 18        	lda	($18),y                 ; 0x2018 <main+0x1aae>
    591f: 85 15        	sta	$15                     ; 0x2015 <main+0x1aab>
    5921: c8           	iny
    5922: b1 18        	lda	($18),y                 ; 0x2018 <main+0x1aae>
    5924: 85 1d        	sta	$1d                     ; 0x201d <main+0x1ab3>
    5926: a4 1a        	ldy	$1a                     ; 0x201a <main+0x1ab0>
    5928: 84 1e        	sty	$1e                     ; 0x201e <main+0x1ab4>
    592a: a4 15        	ldy	$15                     ; 0x2015 <main+0x1aab>
    592c: 84 1f        	sty	$1f                     ; 0x201f <main+0x1ab5>
    592e: 8a           	txa
    592f: 1a           	inc
    5930: d0 0a        	bne	$593c <readDelta+0x3ae>
    5932: e6 1e        	inc	$1e                     ; 0x201e <main+0x1ab4>
    5934: d0 06        	bne	$593c <readDelta+0x3ae>
    5936: e6 1f        	inc	$1f                     ; 0x201f <main+0x1ab5>
    5938: d0 02        	bne	$593c <readDelta+0x3ae>
    593a: e6 1d        	inc	$1d                     ; 0x201d <main+0x1ab3>
    593c: a0 04        	ldy	#$4
    593e: 91 16        	sta	($16),y                 ; 0x2016 <main+0x1aac>
    5940: a5 1d        	lda	$1d                     ; 0x201d <main+0x1ab3>
    5942: 88           	dey
    5943: 91 18        	sta	($18),y                 ; 0x2018 <main+0x1aae>
    5945: a0 01        	ldy	#$1
    5947: a5 1e        	lda	$1e                     ; 0x201e <main+0x1ab4>
    5949: 91 18        	sta	($18),y                 ; 0x2018 <main+0x1aae>
    594b: c8           	iny
    594c: a5 1f        	lda	$1f                     ; 0x201f <main+0x1ab5>
    594e: 91 18        	sta	($18),y                 ; 0x2018 <main+0x1aae>
    5950: a0 08        	ldy	#$8
    5952: 8a           	txa
    5953: 18           	clc
    5954: 71 16        	adc	($16),y                 ; 0x2016 <main+0x1aac>
    5956: a2 01        	ldx	#$1
    5958: b0 02        	bcs	$595c <readDelta+0x3ce>
    595a: a2 00        	ldx	#$0
    595c: 85 19        	sta	$19                     ; 0x2019 <main+0x1aaf>
    595e: 18           	clc
    595f: a5 1b        	lda	$1b                     ; 0x201b <main+0x1ab1>
    5961: 69 08        	adc	#$8
    5963: 85 16        	sta	$16                     ; 0x2016 <main+0x1aac>
    5965: a5 1c        	lda	$1c                     ; 0x201c <main+0x1ab2>
    5967: 69 00        	adc	#$0
    5969: 85 17        	sta	$17                     ; 0x2017 <main+0x1aad>
    596b: e0 01        	cpx	#$1
    596d: a5 1a        	lda	$1a                     ; 0x201a <main+0x1ab0>
    596f: a0 01        	ldy	#$1
    5971: 71 16        	adc	($16),y                 ; 0x2016 <main+0x1aac>
    5973: 85 18        	sta	$18                     ; 0x2018 <main+0x1aae>
    5975: a5 15        	lda	$15                     ; 0x2015 <main+0x1aab>
    5977: c8           	iny
    5978: 71 16        	adc	($16),y                 ; 0x2016 <main+0x1aac>
    597a: 85 15        	sta	$15                     ; 0x2015 <main+0x1aab>
    597c: a6 0f        	ldx	$f                      ; 0x200f <main+0x1aa5>
    597e: 78           	sei
    597f: a5 18        	lda	$18                     ; 0x2018 <main+0x1aae>
    5981: 0a           	asl
    5982: 26 15        	rol	$15                     ; 0x2015 <main+0x1aab>
    5984: 0a           	asl
    5985: 26 15        	rol	$15                     ; 0x2015 <main+0x1aab>
    5987: 0a           	asl
    5988: a5 15        	lda	$15                     ; 0x2015 <main+0x1aab>
    598a: 2a           	rol
    598b: 85 0f        	sta	$f                      ; 0x200f <main+0x1aa5>
    598d: a5 18        	lda	$18                     ; 0x2018 <main+0x1aae>
    598f: 09 e0        	ora	#$e0
    5991: a4 19        	ldy	$19                     ; 0x2019 <main+0x1aaf>
    5993: 84 16        	sty	$16                     ; 0x2016 <main+0x1aac>
    5995: 85 17        	sta	$17                     ; 0x2017 <main+0x1aad>
    5997: b2 16        	lda	($16)                   ; 0x2016 <main+0x1aac>
    5999: 86 0f        	stx	$f                      ; 0x200f <main+0x1aa5>
    599b: 58           	cli
    599c: 85 24        	sta	$24                     ; 0x2024 <main+0x1aba>
    599e: a0 08        	ldy	#$8
    59a0: b1 10        	lda	($10),y                 ; 0x2010 <main+0x1aa6>
    59a2: 48           	pha
    59a3: 88           	dey
    59a4: b1 10        	lda	($10),y                 ; 0x2010 <main+0x1aa6>
    59a6: 85 29        	sta	$29                     ; 0x2029 <main+0x1abf>
    59a8: 88           	dey
    59a9: b1 10        	lda	($10),y                 ; 0x2010 <main+0x1aa6>
    59ab: 85 15        	sta	$15                     ; 0x2015 <main+0x1aab>
    59ad: 68           	pla
    59ae: 85 17        	sta	$17                     ; 0x2017 <main+0x1aad>
    59b0: a5 29        	lda	$29                     ; 0x2029 <main+0x1abf>
    59b2: 05 17        	ora	$17                     ; 0x2017 <main+0x1aad>
    59b4: aa           	tax
    59b5: a5 2a        	lda	$2a                     ; 0x202a <main+0x1ac0>
    59b7: 05 28        	ora	$28                     ; 0x2028 <main+0x1abe>
    59b9: 85 16        	sta	$16                     ; 0x2016 <main+0x1aac>
    59bb: a5 27        	lda	$27                     ; 0x2027 <main+0x1abd>
    59bd: 05 15        	ora	$15                     ; 0x2015 <main+0x1aab>
    59bf: a8           	tay
    59c0: 8a           	txa
    59c1: 05 12        	ora	$12                     ; 0x2012 <main+0x1aa8>
    59c3: 85 12        	sta	$12                     ; 0x2012 <main+0x1aa8>
    59c5: a5 16        	lda	$16                     ; 0x2016 <main+0x1aac>
    59c7: 05 14        	ora	$14                     ; 0x2014 <main+0x1aaa>
    59c9: aa           	tax
    59ca: a5 12        	lda	$12                     ; 0x2012 <main+0x1aa8>
    59cc: 05 24        	ora	$24                     ; 0x2024 <main+0x1aba>
    59ce: 84 12        	sty	$12                     ; 0x2012 <main+0x1aa8>
    59d0: 85 20        	sta	$20                     ; 0x2020 <main+0x1ab6>
    59d2: a0 00        	ldy	#$0
    59d4: b1 10        	lda	($10),y                 ; 0x2010 <main+0x1aa6>
    59d6: 85 2a        	sta	$2a                     ; 0x202a <main+0x1ac0>
    59d8: c8           	iny
    59d9: b1 10        	lda	($10),y                 ; 0x2010 <main+0x1aa6>
    59db: 85 29        	sta	$29                     ; 0x2029 <main+0x1abf>
    59dd: c8           	iny
    59de: b1 10        	lda	($10),y                 ; 0x2010 <main+0x1aa6>
    59e0: 85 28        	sta	$28                     ; 0x2028 <main+0x1abe>
    59e2: 7a           	ply
    59e3: 84 27        	sty	$27                     ; 0x2027 <main+0x1abd>
    59e5: 7a           	ply
    59e6: 84 26        	sty	$26                     ; 0x2026 <main+0x1abc>
    59e8: 7a           	ply
    59e9: 84 25        	sty	$25                     ; 0x2025 <main+0x1abb>
    59eb: 7a           	ply
    59ec: 84 24        	sty	$24                     ; 0x2024 <main+0x1aba>
    59ee: 18           	clc
    59ef: a5 10        	lda	$10                     ; 0x2010 <main+0x1aa6>
    59f1: 69 09        	adc	#$9
    59f3: 85 10        	sta	$10                     ; 0x2010 <main+0x1aa6>
    59f5: a5 11        	lda	$11                     ; 0x2011 <main+0x1aa7>
    59f7: 69 00        	adc	#$0
    59f9: 85 11        	sta	$11                     ; 0x2011 <main+0x1aa7>
    59fb: a5 20        	lda	$20                     ; 0x2020 <main+0x1ab6>
    59fd: 60           	rts

000059fe <readMIDICmd>:
    59fe: 48           	pha
    59ff: 18           	clc
    5a00: a5 10        	lda	$10                     ; 0x2010 <main+0x1aa6>
    5a02: 69 f2        	adc	#$f2
    5a04: 85 10        	sta	$10                     ; 0x2010 <main+0x1aa6>
    5a06: a5 11        	lda	$11                     ; 0x2011 <main+0x1aa7>
    5a08: 69 ff        	adc	#$ff
    5a0a: 85 11        	sta	$11                     ; 0x2011 <main+0x1aa7>
    5a0c: 68           	pla
    5a0d: a6 24        	ldx	$24                     ; 0x2024 <main+0x1aba>
    5a0f: da           	phx
    5a10: a6 25        	ldx	$25                     ; 0x2025 <main+0x1abb>
    5a12: da           	phx
    5a13: a6 26        	ldx	$26                     ; 0x2026 <main+0x1abc>
    5a15: da           	phx
    5a16: a6 27        	ldx	$27                     ; 0x2027 <main+0x1abd>
    5a18: da           	phx
    5a19: 48           	pha
    5a1a: a5 28        	lda	$28                     ; 0x2028 <main+0x1abe>
    5a1c: a0 07        	ldy	#$7
    5a1e: 91 10        	sta	($10),y                 ; 0x2010 <main+0x1aa6>
    5a20: a5 29        	lda	$29                     ; 0x2029 <main+0x1abf>
    5a22: 88           	dey
    5a23: 91 10        	sta	($10),y                 ; 0x2010 <main+0x1aa6>
    5a25: a5 2a        	lda	$2a                     ; 0x202a <main+0x1ac0>
    5a27: 88           	dey
    5a28: 91 10        	sta	($10),y                 ; 0x2010 <main+0x1aa6>
    5a2a: a5 2b        	lda	$2b                     ; 0x202b <main+0x1ac1>
    5a2c: 88           	dey
    5a2d: 91 10        	sta	($10),y                 ; 0x2010 <main+0x1aa6>
    5a2f: a5 2c        	lda	$2c                     ; 0x202c <main+0x1ac2>
    5a31: 88           	dey
    5a32: 91 10        	sta	($10),y                 ; 0x2010 <main+0x1aa6>
    5a34: a5 2d        	lda	$2d                     ; 0x202d <main+0x1ac3>
    5a36: 88           	dey
    5a37: 91 10        	sta	($10),y                 ; 0x2010 <main+0x1aa6>
    5a39: a5 2e        	lda	$2e                     ; 0x202e <main+0x1ac4>
    5a3b: 88           	dey
    5a3c: 91 10        	sta	($10),y                 ; 0x2010 <main+0x1aa6>
    5a3e: a5 2f        	lda	$2f                     ; 0x202f <main+0x1ac5>
    5a40: 88           	dey
    5a41: 91 10        	sta	($10),y                 ; 0x2010 <main+0x1aa6>
    5a43: 68           	pla
    5a44: a6 60        	ldx	$60                     ; 0x2060 <main+0x1af6>
    5a46: 86 24        	stx	$24                     ; 0x2024 <main+0x1aba>
    5a48: a6 61        	ldx	$61                     ; 0x2061 <main+0x1af7>
    5a4a: 86 25        	stx	$25                     ; 0x2025 <main+0x1abb>
    5a4c: a2 19        	ldx	#$19
    5a4e: 86 12        	stx	$12                     ; 0x2012 <main+0x1aa8>
    5a50: 64 13        	stz	$13                     ; 0x2013 <main+0x1aa9>
    5a52: a2 00        	ldx	#$0
    5a54: a0 0d        	ldy	#$d
    5a56: 91 10        	sta	($10),y                 ; 0x2010 <main+0x1aa6>
    5a58: 20 7c 82     	jsr	$827c <__mulhi3>
    5a5b: 85 13        	sta	$13                     ; 0x2013 <main+0x1aa9>
    5a5d: 86 12        	stx	$12                     ; 0x2012 <main+0x1aa8>
    5a5f: 18           	clc
    5a60: a5 24        	lda	$24                     ; 0x2024 <main+0x1aba>
    5a62: 65 13        	adc	$13                     ; 0x2013 <main+0x1aa9>
    5a64: aa           	tax
    5a65: a5 25        	lda	$25                     ; 0x2025 <main+0x1abb>
    5a67: 65 12        	adc	$12                     ; 0x2012 <main+0x1aa8>
    5a69: 86 14        	stx	$14                     ; 0x2014 <main+0x1aaa>
    5a6b: 85 15        	sta	$15                     ; 0x2015 <main+0x1aab>
    5a6d: 85 18        	sta	$18                     ; 0x2018 <main+0x1aae>
    5a6f: 18           	clc
    5a70: 8a           	txa
    5a71: 69 08        	adc	#$8
    5a73: 85 16        	sta	$16                     ; 0x2016 <main+0x1aac>
    5a75: a5 18        	lda	$18                     ; 0x2018 <main+0x1aae>
    5a77: 69 00        	adc	#$0
    5a79: a0 08        	ldy	#$8
    5a7b: 85 17        	sta	$17                     ; 0x2017 <main+0x1aad>
    5a7d: b1 14        	lda	($14),y                 ; 0x2014 <main+0x1aaa>
    5a7f: 85 1a        	sta	$1a                     ; 0x201a <main+0x1ab0>
    5a81: 18           	clc
    5a82: 8a           	txa
    5a83: 69 04        	adc	#$4
    5a85: aa           	tax
    5a86: a5 18        	lda	$18                     ; 0x2018 <main+0x1aae>
    5a88: 69 00        	adc	#$0
    5a8a: 85 19        	sta	$19                     ; 0x2019 <main+0x1aaf>
    5a8c: a0 01        	ldy	#$1
    5a8e: 86 18        	stx	$18                     ; 0x2018 <main+0x1aae>
    5a90: b1 16        	lda	($16),y                 ; 0x2016 <main+0x1aac>
    5a92: 85 1b        	sta	$1b                     ; 0x201b <main+0x1ab1>
    5a94: c8           	iny
    5a95: b1 16        	lda	($16),y                 ; 0x2016 <main+0x1aac>
    5a97: 85 16        	sta	$16                     ; 0x2016 <main+0x1aac>
    5a99: 18           	clc
    5a9a: a0 04        	ldy	#$4
    5a9c: a5 1a        	lda	$1a                     ; 0x201a <main+0x1ab0>
    5a9e: 71 14        	adc	($14),y                 ; 0x2014 <main+0x1aaa>
    5aa0: 85 15        	sta	$15                     ; 0x2015 <main+0x1aab>
    5aa2: a5 1b        	lda	$1b                     ; 0x201b <main+0x1ab1>
    5aa4: a0 01        	ldy	#$1
    5aa6: 71 18        	adc	($18),y                 ; 0x2018 <main+0x1aae>
    5aa8: aa           	tax
    5aa9: c8           	iny
    5aaa: a5 16        	lda	$16                     ; 0x2016 <main+0x1aac>
    5aac: 71 18        	adc	($18),y                 ; 0x2018 <main+0x1aae>
    5aae: 85 16        	sta	$16                     ; 0x2016 <main+0x1aac>
    5ab0: 8a           	txa
    5ab1: 86 14        	stx	$14                     ; 0x2014 <main+0x1aaa>
    5ab3: 06 14        	asl	$14                     ; 0x2014 <main+0x1aaa>
    5ab5: 26 16        	rol	$16                     ; 0x2016 <main+0x1aac>
    5ab7: 06 14        	asl	$14                     ; 0x2014 <main+0x1aaa>
    5ab9: 26 16        	rol	$16                     ; 0x2016 <main+0x1aac>
    5abb: 06 14        	asl	$14                     ; 0x2014 <main+0x1aaa>
    5abd: 26 16        	rol	$16                     ; 0x2016 <main+0x1aac>
    5abf: a4 16        	ldy	$16                     ; 0x2016 <main+0x1aac>
    5ac1: a6 0f        	ldx	$f                      ; 0x200f <main+0x1aa5>
    5ac3: 78           	sei
    5ac4: 84 0f        	sty	$f                      ; 0x200f <main+0x1aa5>
    5ac6: a4 15        	ldy	$15                     ; 0x2015 <main+0x1aab>
    5ac8: 84 14        	sty	$14                     ; 0x2014 <main+0x1aaa>
    5aca: 09 e0        	ora	#$e0
    5acc: 85 15        	sta	$15                     ; 0x2015 <main+0x1aab>
    5ace: b2 14        	lda	($14)                   ; 0x2014 <main+0x1aaa>
    5ad0: 85 25        	sta	$25                     ; 0x2025 <main+0x1abb>
    5ad2: 86 0f        	stx	$f                      ; 0x200f <main+0x1aa5>
    5ad4: 58           	cli
    5ad5: a5 13        	lda	$13                     ; 0x2013 <main+0x1aa9>
    5ad7: 18           	clc
    5ad8: 65 60        	adc	$60                     ; 0x2060 <main+0x1af6>
    5ada: aa           	tax
    5adb: a5 12        	lda	$12                     ; 0x2012 <main+0x1aa8>
    5add: 65 61        	adc	$61                     ; 0x2061 <main+0x1af7>
    5adf: a8           	tay
    5ae0: 18           	clc
    5ae1: 8a           	txa
    5ae2: 69 08        	adc	#$8
    5ae4: 85 14        	sta	$14                     ; 0x2014 <main+0x1aaa>
    5ae6: 98           	tya
    5ae7: 69 00        	adc	#$0
    5ae9: 85 15        	sta	$15                     ; 0x2015 <main+0x1aab>
    5aeb: 86 16        	stx	$16                     ; 0x2016 <main+0x1aac>
    5aed: 84 17        	sty	$17                     ; 0x2017 <main+0x1aad>
    5aef: 18           	clc
    5af0: 8a           	txa
    5af1: 69 04        	adc	#$4
    5af3: 85 18        	sta	$18                     ; 0x2018 <main+0x1aae>
    5af5: 98           	tya
    5af6: 69 00        	adc	#$0
    5af8: 85 19        	sta	$19                     ; 0x2019 <main+0x1aaf>
    5afa: a0 04        	ldy	#$4
    5afc: b1 16        	lda	($16),y                 ; 0x2016 <main+0x1aac>
    5afe: 85 1b        	sta	$1b                     ; 0x201b <main+0x1ab1>
    5b00: a0 01        	ldy	#$1
    5b02: b1 18        	lda	($18),y                 ; 0x2018 <main+0x1aae>
    5b04: aa           	tax
    5b05: c8           	iny
    5b06: b1 18        	lda	($18),y                 ; 0x2018 <main+0x1aae>
    5b08: 85 1d        	sta	$1d                     ; 0x201d <main+0x1ab3>
    5b0a: c8           	iny
    5b0b: b1 18        	lda	($18),y                 ; 0x2018 <main+0x1aae>
    5b0d: 85 18        	sta	$18                     ; 0x2018 <main+0x1aae>
    5b0f: 18           	clc
    5b10: a0 08        	ldy	#$8
    5b12: a5 1b        	lda	$1b                     ; 0x201b <main+0x1ab1>
    5b14: 71 16        	adc	($16),y                 ; 0x2016 <main+0x1aac>
    5b16: 85 16        	sta	$16                     ; 0x2016 <main+0x1aac>
    5b18: a0 01        	ldy	#$1
    5b1a: 8a           	txa
    5b1b: 71 14        	adc	($14),y                 ; 0x2014 <main+0x1aaa>
    5b1d: 85 17        	sta	$17                     ; 0x2017 <main+0x1aad>
    5b1f: c8           	iny
    5b20: a5 1d        	lda	$1d                     ; 0x201d <main+0x1ab3>
    5b22: 71 14        	adc	($14),y                 ; 0x2014 <main+0x1aaa>
    5b24: aa           	tax
    5b25: a5 18        	lda	$18                     ; 0x2018 <main+0x1aae>
    5b27: c8           	iny
    5b28: 71 14        	adc	($14),y                 ; 0x2014 <main+0x1aaa>
    5b2a: a8           	tay
    5b2b: a5 17        	lda	$17                     ; 0x2017 <main+0x1aad>
    5b2d: e6 16        	inc	$16                     ; 0x2016 <main+0x1aac>
    5b2f: d0 07        	bne	$5b38 <readMIDICmd+0x13a>
    5b31: 1a           	inc
    5b32: d0 04        	bne	$5b38 <readMIDICmd+0x13a>
    5b34: e8           	inx
    5b35: d0 01        	bne	$5b38 <readMIDICmd+0x13a>
    5b37: c8           	iny
    5b38: 85 14        	sta	$14                     ; 0x2014 <main+0x1aaa>
    5b3a: 06 14        	asl	$14                     ; 0x2014 <main+0x1aaa>
    5b3c: 86 15        	stx	$15                     ; 0x2015 <main+0x1aab>
    5b3e: 26 15        	rol	$15                     ; 0x2015 <main+0x1aab>
    5b40: 06 14        	asl	$14                     ; 0x2014 <main+0x1aaa>
    5b42: 26 15        	rol	$15                     ; 0x2015 <main+0x1aab>
    5b44: 06 14        	asl	$14                     ; 0x2014 <main+0x1aaa>
    5b46: 26 15        	rol	$15                     ; 0x2015 <main+0x1aab>
    5b48: a4 15        	ldy	$15                     ; 0x2015 <main+0x1aab>
    5b4a: a6 0f        	ldx	$f                      ; 0x200f <main+0x1aa5>
    5b4c: 78           	sei
    5b4d: 84 0f        	sty	$f                      ; 0x200f <main+0x1aa5>
    5b4f: a4 16        	ldy	$16                     ; 0x2016 <main+0x1aac>
    5b51: 84 14        	sty	$14                     ; 0x2014 <main+0x1aaa>
    5b53: 09 e0        	ora	#$e0
    5b55: 85 15        	sta	$15                     ; 0x2015 <main+0x1aab>
    5b57: b2 14        	lda	($14)                   ; 0x2014 <main+0x1aaa>
    5b59: 85 1b        	sta	$1b                     ; 0x201b <main+0x1ab1>
    5b5b: 86 0f        	stx	$f                      ; 0x200f <main+0x1aa5>
    5b5d: 58           	cli
    5b5e: 18           	clc
    5b5f: a5 13        	lda	$13                     ; 0x2013 <main+0x1aa9>
    5b61: 65 60        	adc	$60                     ; 0x2060 <main+0x1af6>
    5b63: aa           	tax
    5b64: a5 12        	lda	$12                     ; 0x2012 <main+0x1aa8>
    5b66: 65 61        	adc	$61                     ; 0x2061 <main+0x1af7>
    5b68: a8           	tay
    5b69: 18           	clc
    5b6a: 8a           	txa
    5b6b: 69 08        	adc	#$8
    5b6d: 85 14        	sta	$14                     ; 0x2014 <main+0x1aaa>
    5b6f: 98           	tya
    5b70: 69 00        	adc	#$0
    5b72: 85 15        	sta	$15                     ; 0x2015 <main+0x1aab>
    5b74: 86 16        	stx	$16                     ; 0x2016 <main+0x1aac>
    5b76: 84 17        	sty	$17                     ; 0x2017 <main+0x1aad>
    5b78: 18           	clc
    5b79: 8a           	txa
    5b7a: 69 04        	adc	#$4
    5b7c: 85 18        	sta	$18                     ; 0x2018 <main+0x1aae>
    5b7e: 98           	tya
    5b7f: 69 00        	adc	#$0
    5b81: 85 19        	sta	$19                     ; 0x2019 <main+0x1aaf>
    5b83: a0 04        	ldy	#$4
    5b85: b1 16        	lda	($16),y                 ; 0x2016 <main+0x1aac>
    5b87: 85 1d        	sta	$1d                     ; 0x201d <main+0x1ab3>
    5b89: a0 01        	ldy	#$1
    5b8b: b1 18        	lda	($18),y                 ; 0x2018 <main+0x1aae>
    5b8d: 85 1e        	sta	$1e                     ; 0x201e <main+0x1ab4>
    5b8f: c8           	iny
    5b90: b1 18        	lda	($18),y                 ; 0x2018 <main+0x1aae>
    5b92: 85 18        	sta	$18                     ; 0x2018 <main+0x1aae>
    5b94: 18           	clc
    5b95: a0 08        	ldy	#$8
    5b97: a5 1d        	lda	$1d                     ; 0x201d <main+0x1ab3>
    5b99: 71 16        	adc	($16),y                 ; 0x2016 <main+0x1aac>
    5b9b: 85 16        	sta	$16                     ; 0x2016 <main+0x1aac>
    5b9d: a5 1e        	lda	$1e                     ; 0x201e <main+0x1ab4>
    5b9f: a0 01        	ldy	#$1
    5ba1: 71 14        	adc	($14),y                 ; 0x2014 <main+0x1aaa>
    5ba3: 85 17        	sta	$17                     ; 0x2017 <main+0x1aad>
    5ba5: a5 18        	lda	$18                     ; 0x2018 <main+0x1aae>
    5ba7: c8           	iny
    5ba8: 71 14        	adc	($14),y                 ; 0x2014 <main+0x1aaa>
    5baa: 85 14        	sta	$14                     ; 0x2014 <main+0x1aaa>
    5bac: 18           	clc
    5bad: a5 16        	lda	$16                     ; 0x2016 <main+0x1aac>
    5baf: 69 02        	adc	#$2
    5bb1: 85 16        	sta	$16                     ; 0x2016 <main+0x1aac>
    5bb3: a5 17        	lda	$17                     ; 0x2017 <main+0x1aad>
    5bb5: 69 00        	adc	#$0
    5bb7: aa           	tax
    5bb8: a5 14        	lda	$14                     ; 0x2014 <main+0x1aaa>
    5bba: 69 00        	adc	#$0
    5bbc: 85 15        	sta	$15                     ; 0x2015 <main+0x1aab>
    5bbe: 8a           	txa
    5bbf: 86 14        	stx	$14                     ; 0x2014 <main+0x1aaa>
    5bc1: 06 14        	asl	$14                     ; 0x2014 <main+0x1aaa>
    5bc3: 26 15        	rol	$15                     ; 0x2015 <main+0x1aab>
    5bc5: 06 14        	asl	$14                     ; 0x2014 <main+0x1aaa>
    5bc7: 26 15        	rol	$15                     ; 0x2015 <main+0x1aab>
    5bc9: 06 14        	asl	$14                     ; 0x2014 <main+0x1aaa>
    5bcb: 26 15        	rol	$15                     ; 0x2015 <main+0x1aab>
    5bcd: a4 15        	ldy	$15                     ; 0x2015 <main+0x1aab>
    5bcf: a6 0f        	ldx	$f                      ; 0x200f <main+0x1aa5>
    5bd1: 78           	sei
    5bd2: 84 0f        	sty	$f                      ; 0x200f <main+0x1aa5>
    5bd4: a4 16        	ldy	$16                     ; 0x2016 <main+0x1aac>
    5bd6: 84 14        	sty	$14                     ; 0x2014 <main+0x1aaa>
    5bd8: 09 e0        	ora	#$e0
    5bda: 85 15        	sta	$15                     ; 0x2015 <main+0x1aab>
    5bdc: b2 14        	lda	($14)                   ; 0x2014 <main+0x1aaa>
    5bde: 85 1d        	sta	$1d                     ; 0x201d <main+0x1ab3>
    5be0: 86 0f        	stx	$f                      ; 0x200f <main+0x1aa5>
    5be2: 58           	cli
    5be3: 18           	clc
    5be4: a5 13        	lda	$13                     ; 0x2013 <main+0x1aa9>
    5be6: 65 60        	adc	$60                     ; 0x2060 <main+0x1af6>
    5be8: aa           	tax
    5be9: a5 12        	lda	$12                     ; 0x2012 <main+0x1aa8>
    5beb: 65 61        	adc	$61                     ; 0x2061 <main+0x1af7>
    5bed: a8           	tay
    5bee: 18           	clc
    5bef: 8a           	txa
    5bf0: 69 08        	adc	#$8
    5bf2: 85 14        	sta	$14                     ; 0x2014 <main+0x1aaa>
    5bf4: 98           	tya
    5bf5: 69 00        	adc	#$0
    5bf7: 85 15        	sta	$15                     ; 0x2015 <main+0x1aab>
    5bf9: 86 16        	stx	$16                     ; 0x2016 <main+0x1aac>
    5bfb: 84 17        	sty	$17                     ; 0x2017 <main+0x1aad>
    5bfd: 18           	clc
    5bfe: 8a           	txa
    5bff: 69 04        	adc	#$4
    5c01: 85 18        	sta	$18                     ; 0x2018 <main+0x1aae>
    5c03: 98           	tya
    5c04: 69 00        	adc	#$0
    5c06: 85 19        	sta	$19                     ; 0x2019 <main+0x1aaf>
    5c08: a0 04        	ldy	#$4
    5c0a: b1 16        	lda	($16),y                 ; 0x2016 <main+0x1aac>
    5c0c: 85 1e        	sta	$1e                     ; 0x201e <main+0x1ab4>
    5c0e: a0 01        	ldy	#$1
    5c10: b1 18        	lda	($18),y                 ; 0x2018 <main+0x1aae>
    5c12: 85 1f        	sta	$1f                     ; 0x201f <main+0x1ab5>
    5c14: c8           	iny
    5c15: b1 18        	lda	($18),y                 ; 0x2018 <main+0x1aae>
    5c17: 85 18        	sta	$18                     ; 0x2018 <main+0x1aae>
    5c19: 18           	clc
    5c1a: a0 08        	ldy	#$8
    5c1c: a5 1e        	lda	$1e                     ; 0x201e <main+0x1ab4>
    5c1e: 71 16        	adc	($16),y                 ; 0x2016 <main+0x1aac>
    5c20: 85 16        	sta	$16                     ; 0x2016 <main+0x1aac>
    5c22: a5 1f        	lda	$1f                     ; 0x201f <main+0x1ab5>
    5c24: a0 01        	ldy	#$1
    5c26: 71 14        	adc	($14),y                 ; 0x2014 <main+0x1aaa>
    5c28: 85 17        	sta	$17                     ; 0x2017 <main+0x1aad>
    5c2a: a5 18        	lda	$18                     ; 0x2018 <main+0x1aae>
    5c2c: c8           	iny
    5c2d: 71 14        	adc	($14),y                 ; 0x2014 <main+0x1aaa>
    5c2f: 85 14        	sta	$14                     ; 0x2014 <main+0x1aaa>
    5c31: 18           	clc
    5c32: a5 16        	lda	$16                     ; 0x2016 <main+0x1aac>
    5c34: 69 03        	adc	#$3
    5c36: 85 16        	sta	$16                     ; 0x2016 <main+0x1aac>
    5c38: a5 17        	lda	$17                     ; 0x2017 <main+0x1aad>
    5c3a: 69 00        	adc	#$0
    5c3c: aa           	tax
    5c3d: a5 14        	lda	$14                     ; 0x2014 <main+0x1aaa>
    5c3f: 69 00        	adc	#$0
    5c41: 85 15        	sta	$15                     ; 0x2015 <main+0x1aab>
    5c43: 8a           	txa
    5c44: 86 14        	stx	$14                     ; 0x2014 <main+0x1aaa>
    5c46: 06 14        	asl	$14                     ; 0x2014 <main+0x1aaa>
    5c48: 26 15        	rol	$15                     ; 0x2015 <main+0x1aab>
    5c4a: 06 14        	asl	$14                     ; 0x2014 <main+0x1aaa>
    5c4c: 26 15        	rol	$15                     ; 0x2015 <main+0x1aab>
    5c4e: 06 14        	asl	$14                     ; 0x2014 <main+0x1aaa>
    5c50: 26 15        	rol	$15                     ; 0x2015 <main+0x1aab>
    5c52: a4 15        	ldy	$15                     ; 0x2015 <main+0x1aab>
    5c54: a6 0f        	ldx	$f                      ; 0x200f <main+0x1aa5>
    5c56: 78           	sei
    5c57: 84 0f        	sty	$f                      ; 0x200f <main+0x1aa5>
    5c59: a4 16        	ldy	$16                     ; 0x2016 <main+0x1aac>
    5c5b: 84 14        	sty	$14                     ; 0x2014 <main+0x1aaa>
    5c5d: 09 e0        	ora	#$e0
    5c5f: 85 15        	sta	$15                     ; 0x2015 <main+0x1aab>
    5c61: b2 14        	lda	($14)                   ; 0x2014 <main+0x1aaa>
    5c63: a0 0a        	ldy	#$a
    5c65: 91 10        	sta	($10),y                 ; 0x2010 <main+0x1aa6>
    5c67: 86 0f        	stx	$f                      ; 0x200f <main+0x1aa5>
    5c69: 58           	cli
    5c6a: 18           	clc
    5c6b: a5 13        	lda	$13                     ; 0x2013 <main+0x1aa9>
    5c6d: 65 60        	adc	$60                     ; 0x2060 <main+0x1af6>
    5c6f: aa           	tax
    5c70: a5 12        	lda	$12                     ; 0x2012 <main+0x1aa8>
    5c72: 65 61        	adc	$61                     ; 0x2061 <main+0x1af7>
    5c74: a8           	tay
    5c75: 8a           	txa
    5c76: 18           	clc
    5c77: 69 08        	adc	#$8
    5c79: 85 14        	sta	$14                     ; 0x2014 <main+0x1aaa>
    5c7b: 98           	tya
    5c7c: 69 00        	adc	#$0
    5c7e: 85 15        	sta	$15                     ; 0x2015 <main+0x1aab>
    5c80: 86 16        	stx	$16                     ; 0x2016 <main+0x1aac>
    5c82: 84 17        	sty	$17                     ; 0x2017 <main+0x1aad>
    5c84: 18           	clc
    5c85: 8a           	txa
    5c86: 69 04        	adc	#$4
    5c88: 85 18        	sta	$18                     ; 0x2018 <main+0x1aae>
    5c8a: 98           	tya
    5c8b: 69 00        	adc	#$0
    5c8d: 85 19        	sta	$19                     ; 0x2019 <main+0x1aaf>
    5c8f: a0 04        	ldy	#$4
    5c91: b1 16        	lda	($16),y                 ; 0x2016 <main+0x1aac>
    5c93: 85 1e        	sta	$1e                     ; 0x201e <main+0x1ab4>
    5c95: a0 01        	ldy	#$1
    5c97: b1 18        	lda	($18),y                 ; 0x2018 <main+0x1aae>
    5c99: 85 1f        	sta	$1f                     ; 0x201f <main+0x1ab5>
    5c9b: c8           	iny
    5c9c: b1 18        	lda	($18),y                 ; 0x2018 <main+0x1aae>
    5c9e: 85 18        	sta	$18                     ; 0x2018 <main+0x1aae>
    5ca0: 18           	clc
    5ca1: a0 08        	ldy	#$8
    5ca3: a5 1e        	lda	$1e                     ; 0x201e <main+0x1ab4>
    5ca5: 71 16        	adc	($16),y                 ; 0x2016 <main+0x1aac>
    5ca7: 85 16        	sta	$16                     ; 0x2016 <main+0x1aac>
    5ca9: a0 01        	ldy	#$1
    5cab: a5 1f        	lda	$1f                     ; 0x201f <main+0x1ab5>
    5cad: 71 14        	adc	($14),y                 ; 0x2014 <main+0x1aaa>
    5caf: 85 17        	sta	$17                     ; 0x2017 <main+0x1aad>
    5cb1: c8           	iny
    5cb2: a5 18        	lda	$18                     ; 0x2018 <main+0x1aae>
    5cb4: 71 14        	adc	($14),y                 ; 0x2014 <main+0x1aaa>
    5cb6: 85 14        	sta	$14                     ; 0x2014 <main+0x1aaa>
    5cb8: 18           	clc
    5cb9: a5 16        	lda	$16                     ; 0x2016 <main+0x1aac>
    5cbb: 69 04        	adc	#$4
    5cbd: 85 16        	sta	$16                     ; 0x2016 <main+0x1aac>
    5cbf: a5 17        	lda	$17                     ; 0x2017 <main+0x1aad>
    5cc1: 69 00        	adc	#$0
    5cc3: aa           	tax
    5cc4: a5 14        	lda	$14                     ; 0x2014 <main+0x1aaa>
    5cc6: 69 00        	adc	#$0
    5cc8: 85 15        	sta	$15                     ; 0x2015 <main+0x1aab>
    5cca: 8a           	txa
    5ccb: 86 14        	stx	$14                     ; 0x2014 <main+0x1aaa>
    5ccd: 06 14        	asl	$14                     ; 0x2014 <main+0x1aaa>
    5ccf: 26 15        	rol	$15                     ; 0x2015 <main+0x1aab>
    5cd1: 06 14        	asl	$14                     ; 0x2014 <main+0x1aaa>
    5cd3: 26 15        	rol	$15                     ; 0x2015 <main+0x1aab>
    5cd5: 06 14        	asl	$14                     ; 0x2014 <main+0x1aaa>
    5cd7: 26 15        	rol	$15                     ; 0x2015 <main+0x1aab>
    5cd9: a4 15        	ldy	$15                     ; 0x2015 <main+0x1aab>
    5cdb: a6 0f        	ldx	$f                      ; 0x200f <main+0x1aa5>
    5cdd: 78           	sei
    5cde: 84 0f        	sty	$f                      ; 0x200f <main+0x1aa5>
    5ce0: a4 16        	ldy	$16                     ; 0x2016 <main+0x1aac>
    5ce2: 84 14        	sty	$14                     ; 0x2014 <main+0x1aaa>
    5ce4: 09 e0        	ora	#$e0
    5ce6: 85 15        	sta	$15                     ; 0x2015 <main+0x1aab>
    5ce8: b2 14        	lda	($14)                   ; 0x2014 <main+0x1aaa>
    5cea: a0 09        	ldy	#$9
    5cec: 91 10        	sta	($10),y                 ; 0x2010 <main+0x1aa6>
    5cee: 86 0f        	stx	$f                      ; 0x200f <main+0x1aa5>
    5cf0: 58           	cli
    5cf1: 18           	clc
    5cf2: a5 13        	lda	$13                     ; 0x2013 <main+0x1aa9>
    5cf4: 65 60        	adc	$60                     ; 0x2060 <main+0x1af6>
    5cf6: a8           	tay
    5cf7: a5 12        	lda	$12                     ; 0x2012 <main+0x1aa8>
    5cf9: 65 61        	adc	$61                     ; 0x2061 <main+0x1af7>
    5cfb: aa           	tax
    5cfc: 98           	tya
    5cfd: 84 14        	sty	$14                     ; 0x2014 <main+0x1aaa>
    5cff: 86 15        	stx	$15                     ; 0x2015 <main+0x1aab>
    5d01: 84 19        	sty	$19                     ; 0x2019 <main+0x1aaf>
    5d03: 18           	clc
    5d04: 69 04        	adc	#$4
    5d06: 85 16        	sta	$16                     ; 0x2016 <main+0x1aac>
    5d08: 8a           	txa
    5d09: 69 00        	adc	#$0
    5d0b: 85 17        	sta	$17                     ; 0x2017 <main+0x1aad>
    5d0d: a0 04        	ldy	#$4
    5d0f: b1 14        	lda	($14),y                 ; 0x2014 <main+0x1aaa>
    5d11: 85 18        	sta	$18                     ; 0x2018 <main+0x1aae>
    5d13: a0 01        	ldy	#$1
    5d15: b1 16        	lda	($16),y                 ; 0x2016 <main+0x1aac>
    5d17: 85 1a        	sta	$1a                     ; 0x201a <main+0x1ab0>
    5d19: c8           	iny
    5d1a: b1 16        	lda	($16),y                 ; 0x2016 <main+0x1aac>
    5d1c: 85 17        	sta	$17                     ; 0x2017 <main+0x1aad>
    5d1e: 18           	clc
    5d1f: a0 08        	ldy	#$8
    5d21: a5 18        	lda	$18                     ; 0x2018 <main+0x1aae>
    5d23: 71 14        	adc	($14),y                 ; 0x2014 <main+0x1aaa>
    5d25: a0 01        	ldy	#$1
    5d27: b0 02        	bcs	$5d2b <readMIDICmd+0x32d>
    5d29: a0 00        	ldy	#$0
    5d2b: 84 18        	sty	$18                     ; 0x2018 <main+0x1aae>
    5d2d: 85 16        	sta	$16                     ; 0x2016 <main+0x1aac>
    5d2f: 18           	clc
    5d30: a5 19        	lda	$19                     ; 0x2019 <main+0x1aaf>
    5d32: 69 08        	adc	#$8
    5d34: 85 14        	sta	$14                     ; 0x2014 <main+0x1aaa>
    5d36: 8a           	txa
    5d37: 69 00        	adc	#$0
    5d39: 85 15        	sta	$15                     ; 0x2015 <main+0x1aab>
    5d3b: a0 01        	ldy	#$1
    5d3d: a5 1a        	lda	$1a                     ; 0x201a <main+0x1ab0>
    5d3f: a6 18        	ldx	$18                     ; 0x2018 <main+0x1aae>
    5d41: e0 01        	cpx	#$1
    5d43: 71 14        	adc	($14),y                 ; 0x2014 <main+0x1aaa>
    5d45: 85 18        	sta	$18                     ; 0x2018 <main+0x1aae>
    5d47: c8           	iny
    5d48: a5 17        	lda	$17                     ; 0x2017 <main+0x1aad>
    5d4a: 71 14        	adc	($14),y                 ; 0x2014 <main+0x1aaa>
    5d4c: 85 14        	sta	$14                     ; 0x2014 <main+0x1aaa>
    5d4e: 18           	clc
    5d4f: a5 16        	lda	$16                     ; 0x2016 <main+0x1aac>
    5d51: 69 05        	adc	#$5
    5d53: 85 16        	sta	$16                     ; 0x2016 <main+0x1aac>
    5d55: a5 18        	lda	$18                     ; 0x2018 <main+0x1aae>
    5d57: 69 00        	adc	#$0
    5d59: aa           	tax
    5d5a: a5 14        	lda	$14                     ; 0x2014 <main+0x1aaa>
    5d5c: 69 00        	adc	#$0
    5d5e: 85 15        	sta	$15                     ; 0x2015 <main+0x1aab>
    5d60: 8a           	txa
    5d61: 86 14        	stx	$14                     ; 0x2014 <main+0x1aaa>
    5d63: 06 14        	asl	$14                     ; 0x2014 <main+0x1aaa>
    5d65: 26 15        	rol	$15                     ; 0x2015 <main+0x1aab>
    5d67: 06 14        	asl	$14                     ; 0x2014 <main+0x1aaa>
    5d69: 26 15        	rol	$15                     ; 0x2015 <main+0x1aab>
    5d6b: 06 14        	asl	$14                     ; 0x2014 <main+0x1aaa>
    5d6d: 26 15        	rol	$15                     ; 0x2015 <main+0x1aab>
    5d6f: a4 15        	ldy	$15                     ; 0x2015 <main+0x1aab>
    5d71: a6 0f        	ldx	$f                      ; 0x200f <main+0x1aa5>
    5d73: 78           	sei
    5d74: 84 0f        	sty	$f                      ; 0x200f <main+0x1aa5>
    5d76: a4 16        	ldy	$16                     ; 0x2016 <main+0x1aac>
    5d78: 84 14        	sty	$14                     ; 0x2014 <main+0x1aaa>
    5d7a: 09 e0        	ora	#$e0
    5d7c: 85 15        	sta	$15                     ; 0x2015 <main+0x1aab>
    5d7e: b2 14        	lda	($14)                   ; 0x2014 <main+0x1aaa>
    5d80: a0 08        	ldy	#$8
    5d82: 91 10        	sta	($10),y                 ; 0x2010 <main+0x1aa6>
    5d84: 86 0f        	stx	$f                      ; 0x200f <main+0x1aa5>
    5d86: 58           	cli
    5d87: a4 60        	ldy	$60                     ; 0x2060 <main+0x1af6>
    5d89: a6 61        	ldx	$61                     ; 0x2061 <main+0x1af7>
    5d8b: 84 2e        	sty	$2e                     ; 0x202e <main+0x1ac4>
    5d8d: 98           	tya
    5d8e: 18           	clc
    5d8f: 65 13        	adc	$13                     ; 0x2013 <main+0x1aa9>
    5d91: a8           	tay
    5d92: 8a           	txa
    5d93: 65 12        	adc	$12                     ; 0x2012 <main+0x1aa8>
    5d95: 84 28        	sty	$28                     ; 0x2028 <main+0x1abe>
    5d97: 85 29        	sta	$29                     ; 0x2029 <main+0x1abf>
    5d99: 85 12        	sta	$12                     ; 0x2012 <main+0x1aa8>
    5d9b: 18           	clc
    5d9c: 98           	tya
    5d9d: 69 04        	adc	#$4
    5d9f: 85 26        	sta	$26                     ; 0x2026 <main+0x1abc>
    5da1: a5 12        	lda	$12                     ; 0x2012 <main+0x1aa8>
    5da3: 69 00        	adc	#$0
    5da5: 85 27        	sta	$27                     ; 0x2027 <main+0x1abd>
    5da7: a0 10        	ldy	#$10
    5da9: a5 25        	lda	$25                     ; 0x2025 <main+0x1abb>
    5dab: 91 28        	sta	($28),y                 ; 0x2028 <main+0x1abe>
    5dad: c8           	iny
    5dae: a5 1b        	lda	$1b                     ; 0x201b <main+0x1ab1>
    5db0: 85 2a        	sta	$2a                     ; 0x202a <main+0x1ac0>
    5db2: 91 28        	sta	($28),y                 ; 0x2028 <main+0x1abe>
    5db4: c8           	iny
    5db5: a5 1d        	lda	$1d                     ; 0x201d <main+0x1ab3>
    5db7: 85 13        	sta	$13                     ; 0x2013 <main+0x1aa9>
    5db9: 91 28        	sta	($28),y                 ; 0x2028 <main+0x1abe>
    5dbb: a0 04        	ldy	#$4
    5dbd: b1 28        	lda	($28),y                 ; 0x2028 <main+0x1abe>
    5dbf: 85 14        	sta	$14                     ; 0x2014 <main+0x1aaa>
    5dc1: a0 01        	ldy	#$1
    5dc3: b1 26        	lda	($26),y                 ; 0x2026 <main+0x1abc>
    5dc5: 85 12        	sta	$12                     ; 0x2012 <main+0x1aa8>
    5dc7: c8           	iny
    5dc8: b1 26        	lda	($26),y                 ; 0x2026 <main+0x1abc>
    5dca: 85 18        	sta	$18                     ; 0x2018 <main+0x1aae>
    5dcc: c8           	iny
    5dcd: b1 26        	lda	($26),y                 ; 0x2026 <main+0x1abc>
    5dcf: 85 17        	sta	$17                     ; 0x2017 <main+0x1aad>
    5dd1: a5 14        	lda	$14                     ; 0x2014 <main+0x1aaa>
    5dd3: 85 2b        	sta	$2b                     ; 0x202b <main+0x1ac1>
    5dd5: a4 12        	ldy	$12                     ; 0x2012 <main+0x1aa8>
    5dd7: 84 2c        	sty	$2c                     ; 0x202c <main+0x1ac2>
    5dd9: 84 16        	sty	$16                     ; 0x2016 <main+0x1aac>
    5ddb: a4 18        	ldy	$18                     ; 0x2018 <main+0x1aae>
    5ddd: 84 2d        	sty	$2d                     ; 0x202d <main+0x1ac3>
    5ddf: 84 12        	sty	$12                     ; 0x2012 <main+0x1aa8>
    5de1: a4 17        	ldy	$17                     ; 0x2017 <main+0x1aad>
    5de3: 84 24        	sty	$24                     ; 0x2024 <main+0x1aba>
    5de5: 84 14        	sty	$14                     ; 0x2014 <main+0x1aaa>
    5de7: 1a           	inc
    5de8: d0 0a        	bne	$5df4 <readMIDICmd+0x3f6>
    5dea: e6 16        	inc	$16                     ; 0x2016 <main+0x1aac>
    5dec: d0 06        	bne	$5df4 <readMIDICmd+0x3f6>
    5dee: e6 12        	inc	$12                     ; 0x2012 <main+0x1aa8>
    5df0: d0 02        	bne	$5df4 <readMIDICmd+0x3f6>
    5df2: e6 14        	inc	$14                     ; 0x2014 <main+0x1aaa>
    5df4: a0 04        	ldy	#$4
    5df6: 85 17        	sta	$17                     ; 0x2017 <main+0x1aad>
    5df8: 91 28        	sta	($28),y                 ; 0x2028 <main+0x1abe>
    5dfa: a0 01        	ldy	#$1
    5dfc: a5 16        	lda	$16                     ; 0x2016 <main+0x1aac>
    5dfe: 91 26        	sta	($26),y                 ; 0x2026 <main+0x1abc>
    5e00: a5 12        	lda	$12                     ; 0x2012 <main+0x1aa8>
    5e02: c8           	iny
    5e03: 85 2f        	sta	$2f                     ; 0x202f <main+0x1ac5>
    5e05: 91 26        	sta	($26),y                 ; 0x2026 <main+0x1abc>
    5e07: c8           	iny
    5e08: a5 14        	lda	$14                     ; 0x2014 <main+0x1aaa>
    5e0a: 91 26        	sta	($26),y                 ; 0x2026 <main+0x1abc>
    5e0c: a4 25        	ldy	$25                     ; 0x2025 <main+0x1abb>
    5e0e: 10 03        	bpl	$5e13 <readMIDICmd+0x415>
    5e10: 4c 7e 5e     	jmp	$5e7e <readMIDICmd+0x480>
    5e13: a0 19        	ldy	#$19
    5e15: 64 13        	stz	$13                     ; 0x2013 <main+0x1aa9>
    5e17: 86 2f        	stx	$2f                     ; 0x202f <main+0x1ac5>
    5e19: a2 00        	ldx	#$0
    5e1b: 84 12        	sty	$12                     ; 0x2012 <main+0x1aa8>
    5e1d: a0 0d        	ldy	#$d
    5e1f: b1 10        	lda	($10),y                 ; 0x2010 <main+0x1aa6>
    5e21: 20 7c 82     	jsr	$827c <__mulhi3>
    5e24: 85 12        	sta	$12                     ; 0x2012 <main+0x1aa8>
    5e26: 86 13        	stx	$13                     ; 0x2013 <main+0x1aa9>
    5e28: a5 25        	lda	$25                     ; 0x2025 <main+0x1abb>
    5e2a: a0 11        	ldy	#$11
    5e2c: 91 28        	sta	($28),y                 ; 0x2028 <main+0x1abe>
    5e2e: 85 16        	sta	$16                     ; 0x2016 <main+0x1aac>
    5e30: a5 2a        	lda	$2a                     ; 0x202a <main+0x1ac0>
    5e32: c8           	iny
    5e33: 91 28        	sta	($28),y                 ; 0x2028 <main+0x1abe>
    5e35: 85 17        	sta	$17                     ; 0x2017 <main+0x1aad>
    5e37: a0 04        	ldy	#$4
    5e39: a5 2b        	lda	$2b                     ; 0x202b <main+0x1ac1>
    5e3b: 85 2a        	sta	$2a                     ; 0x202a <main+0x1ac0>
    5e3d: 91 28        	sta	($28),y                 ; 0x2028 <main+0x1abe>
    5e3f: a0 01        	ldy	#$1
    5e41: a5 2c        	lda	$2c                     ; 0x202c <main+0x1ac2>
    5e43: 5a           	phy
    5e44: a0 0c        	ldy	#$c
    5e46: 91 10        	sta	($10),y                 ; 0x2010 <main+0x1aa6>
    5e48: 7a           	ply
    5e49: 91 26        	sta	($26),y                 ; 0x2026 <main+0x1abc>
    5e4b: a5 2e        	lda	$2e                     ; 0x202e <main+0x1ac4>
    5e4d: 18           	clc
    5e4e: 65 12        	adc	$12                     ; 0x2012 <main+0x1aa8>
    5e50: 85 12        	sta	$12                     ; 0x2012 <main+0x1aa8>
    5e52: a5 2f        	lda	$2f                     ; 0x202f <main+0x1ac5>
    5e54: a0 0b        	ldy	#$b
    5e56: 91 10        	sta	($10),y                 ; 0x2010 <main+0x1aa6>
    5e58: 65 13        	adc	$13                     ; 0x2013 <main+0x1aa9>
    5e5a: 85 13        	sta	$13                     ; 0x2013 <main+0x1aa9>
    5e5c: a0 16        	ldy	#$16
    5e5e: b1 12        	lda	($12),y                 ; 0x2012 <main+0x1aa8>
    5e60: a0 10        	ldy	#$10
    5e62: 91 12        	sta	($12),y                 ; 0x2012 <main+0x1aa8>
    5e64: aa           	tax
    5e65: a0 02        	ldy	#$2
    5e67: a5 2d        	lda	$2d                     ; 0x202d <main+0x1ac3>
    5e69: 85 2f        	sta	$2f                     ; 0x202f <main+0x1ac5>
    5e6b: 91 26        	sta	($26),y                 ; 0x2026 <main+0x1abc>
    5e6d: c8           	iny
    5e6e: a5 24        	lda	$24                     ; 0x2024 <main+0x1aba>
    5e70: 91 26        	sta	($26),y                 ; 0x2026 <main+0x1abc>
    5e72: a4 17        	ldy	$17                     ; 0x2017 <main+0x1aad>
    5e74: 84 13        	sty	$13                     ; 0x2013 <main+0x1aa9>
    5e76: a4 16        	ldy	$16                     ; 0x2016 <main+0x1aac>
    5e78: 84 12        	sty	$12                     ; 0x2012 <main+0x1aa8>
    5e7a: 86 25        	stx	$25                     ; 0x2025 <main+0x1abb>
    5e7c: 80 18        	bra	$5e96 <readMIDICmd+0x498>
    5e7e: 85 18        	sta	$18                     ; 0x2018 <main+0x1aae>
    5e80: 8a           	txa
    5e81: a0 0b        	ldy	#$b
    5e83: 91 10        	sta	($10),y                 ; 0x2010 <main+0x1aa6>
    5e85: a6 2a        	ldx	$2a                     ; 0x202a <main+0x1ac0>
    5e87: 86 12        	stx	$12                     ; 0x2012 <main+0x1aa8>
    5e89: a6 17        	ldx	$17                     ; 0x2017 <main+0x1aad>
    5e8b: 86 2a        	stx	$2a                     ; 0x202a <main+0x1ac0>
    5e8d: a5 16        	lda	$16                     ; 0x2016 <main+0x1aac>
    5e8f: c8           	iny
    5e90: 91 10        	sta	($10),y                 ; 0x2010 <main+0x1aa6>
    5e92: a6 18        	ldx	$18                     ; 0x2018 <main+0x1aae>
    5e94: 86 24        	stx	$24                     ; 0x2024 <main+0x1aba>
    5e96: a6 25        	ldx	$25                     ; 0x2025 <main+0x1abb>
    5e98: e0 ff        	cpx	#$ff
    5e9a: d0 03        	bne	$5e9f <readMIDICmd+0x4a1>
    5e9c: 4c 05 5f     	jmp	$5f05 <readMIDICmd+0x507>
    5e9f: a6 25        	ldx	$25                     ; 0x2025 <main+0x1abb>
    5ea1: e0 c0        	cpx	#$c0
    5ea3: b0 03        	bcs	$5ea8 <readMIDICmd+0x4aa>
    5ea5: 4c 82 5f     	jmp	$5f82 <readMIDICmd+0x584>
    5ea8: a6 25        	ldx	$25                     ; 0x2025 <main+0x1abb>
    5eaa: e0 e0        	cpx	#$e0
    5eac: 90 03        	bcc	$5eb1 <readMIDICmd+0x4b3>
    5eae: 4c 95 5f     	jmp	$5f95 <readMIDICmd+0x597>
    5eb1: a0 0c        	ldy	#$c
    5eb3: b1 10        	lda	($10),y                 ; 0x2010 <main+0x1aa6>
    5eb5: aa           	tax
    5eb6: a5 2a        	lda	$2a                     ; 0x202a <main+0x1ac0>
    5eb8: 1a           	inc
    5eb9: d0 09        	bne	$5ec4 <readMIDICmd+0x4c6>
    5ebb: e8           	inx
    5ebc: d0 06        	bne	$5ec4 <readMIDICmd+0x4c6>
    5ebe: e6 2f        	inc	$2f                     ; 0x202f <main+0x1ac5>
    5ec0: d0 02        	bne	$5ec4 <readMIDICmd+0x4c6>
    5ec2: e6 24        	inc	$24                     ; 0x2024 <main+0x1aba>
    5ec4: a0 04        	ldy	#$4
    5ec6: 91 28        	sta	($28),y                 ; 0x2028 <main+0x1abe>
    5ec8: a0 01        	ldy	#$1
    5eca: 8a           	txa
    5ecb: 91 26        	sta	($26),y                 ; 0x2026 <main+0x1abc>
    5ecd: c8           	iny
    5ece: a5 2f        	lda	$2f                     ; 0x202f <main+0x1ac5>
    5ed0: 91 26        	sta	($26),y                 ; 0x2026 <main+0x1abc>
    5ed2: c8           	iny
    5ed3: a5 24        	lda	$24                     ; 0x2024 <main+0x1aba>
    5ed5: 91 26        	sta	($26),y                 ; 0x2026 <main+0x1abc>
    5ed7: a0 19        	ldy	#$19
    5ed9: 64 13        	stz	$13                     ; 0x2013 <main+0x1aa9>
    5edb: a2 00        	ldx	#$0
    5edd: 84 12        	sty	$12                     ; 0x2012 <main+0x1aa8>
    5edf: a0 0d        	ldy	#$d
    5ee1: b1 10        	lda	($10),y                 ; 0x2010 <main+0x1aa6>
    5ee3: 20 7c 82     	jsr	$827c <__mulhi3>
    5ee6: 85 12        	sta	$12                     ; 0x2012 <main+0x1aa8>
    5ee8: 86 13        	stx	$13                     ; 0x2013 <main+0x1aa9>
    5eea: 18           	clc
    5eeb: a5 2e        	lda	$2e                     ; 0x202e <main+0x1ac4>
    5eed: 65 12        	adc	$12                     ; 0x2012 <main+0x1aa8>
    5eef: 85 12        	sta	$12                     ; 0x2012 <main+0x1aa8>
    5ef1: a0 0b        	ldy	#$b
    5ef3: b1 10        	lda	($10),y                 ; 0x2010 <main+0x1aa6>
    5ef5: 65 13        	adc	$13                     ; 0x2013 <main+0x1aa9>
    5ef7: 85 13        	sta	$13                     ; 0x2013 <main+0x1aa9>
    5ef9: a0 17        	ldy	#$17
    5efb: a9 01        	lda	#$1
    5efd: 91 12        	sta	($12),y                 ; 0x2012 <main+0x1aa8>
    5eff: 88           	dey
    5f00: a5 25        	lda	$25                     ; 0x2025 <main+0x1abb>
    5f02: 4c e8 5f     	jmp	$5fe8 <readMIDICmd+0x5ea>
    5f05: a0 10        	ldy	#$10
    5f07: a9 ff        	lda	#$ff
    5f09: 91 28        	sta	($28),y                 ; 0x2028 <main+0x1abe>
    5f0b: c8           	iny
    5f0c: a5 12        	lda	$12                     ; 0x2012 <main+0x1aa8>
    5f0e: 91 28        	sta	($28),y                 ; 0x2028 <main+0x1abe>
    5f10: a6 12        	ldx	$12                     ; 0x2012 <main+0x1aa8>
    5f12: c8           	iny
    5f13: a5 13        	lda	$13                     ; 0x2013 <main+0x1aa9>
    5f15: 91 28        	sta	($28),y                 ; 0x2028 <main+0x1abe>
    5f17: e0 51        	cpx	#$51
    5f19: f0 03        	beq	$5f1e <readMIDICmd+0x520>
    5f1b: 4c 89 5f     	jmp	$5f89 <readMIDICmd+0x58b>
    5f1e: a0 19        	ldy	#$19
    5f20: 64 13        	stz	$13                     ; 0x2013 <main+0x1aa9>
    5f22: a2 00        	ldx	#$0
    5f24: 84 12        	sty	$12                     ; 0x2012 <main+0x1aa8>
    5f26: a0 0d        	ldy	#$d
    5f28: b1 10        	lda	($10),y                 ; 0x2010 <main+0x1aa6>
    5f2a: 20 7c 82     	jsr	$827c <__mulhi3>
    5f2d: 85 12        	sta	$12                     ; 0x2012 <main+0x1aa8>
    5f2f: 86 13        	stx	$13                     ; 0x2013 <main+0x1aa9>
    5f31: 18           	clc
    5f32: a5 2e        	lda	$2e                     ; 0x202e <main+0x1ac4>
    5f34: 65 12        	adc	$12                     ; 0x2012 <main+0x1aa8>
    5f36: 85 12        	sta	$12                     ; 0x2012 <main+0x1aa8>
    5f38: a0 0b        	ldy	#$b
    5f3a: b1 10        	lda	($10),y                 ; 0x2010 <main+0x1aa6>
    5f3c: 65 13        	adc	$13                     ; 0x2013 <main+0x1aa9>
    5f3e: 85 13        	sta	$13                     ; 0x2013 <main+0x1aa9>
    5f40: a0 13        	ldy	#$13
    5f42: 5a           	phy
    5f43: a0 0a        	ldy	#$a
    5f45: b1 10        	lda	($10),y                 ; 0x2010 <main+0x1aa6>
    5f47: 7a           	ply
    5f48: 91 12        	sta	($12),y                 ; 0x2012 <main+0x1aa8>
    5f4a: a0 14        	ldy	#$14
    5f4c: 5a           	phy
    5f4d: a0 09        	ldy	#$9
    5f4f: b1 10        	lda	($10),y                 ; 0x2010 <main+0x1aa6>
    5f51: 7a           	ply
    5f52: 91 12        	sta	($12),y                 ; 0x2012 <main+0x1aa8>
    5f54: a0 15        	ldy	#$15
    5f56: 5a           	phy
    5f57: a0 08        	ldy	#$8
    5f59: b1 10        	lda	($10),y                 ; 0x2010 <main+0x1aa6>
    5f5b: 7a           	ply
    5f5c: 91 12        	sta	($12),y                 ; 0x2012 <main+0x1aa8>
    5f5e: a5 2a        	lda	$2a                     ; 0x202a <main+0x1ac0>
    5f60: 18           	clc
    5f61: 69 05        	adc	#$5
    5f63: a0 04        	ldy	#$4
    5f65: 91 28        	sta	($28),y                 ; 0x2028 <main+0x1abe>
    5f67: a0 0c        	ldy	#$c
    5f69: b1 10        	lda	($10),y                 ; 0x2010 <main+0x1aa6>
    5f6b: 69 00        	adc	#$0
    5f6d: a0 01        	ldy	#$1
    5f6f: 91 26        	sta	($26),y                 ; 0x2026 <main+0x1abc>
    5f71: a5 2f        	lda	$2f                     ; 0x202f <main+0x1ac5>
    5f73: 69 00        	adc	#$0
    5f75: c8           	iny
    5f76: 91 26        	sta	($26),y                 ; 0x2026 <main+0x1abc>
    5f78: a5 24        	lda	$24                     ; 0x2024 <main+0x1aba>
    5f7a: 69 00        	adc	#$0
    5f7c: c8           	iny
    5f7d: 91 26        	sta	($26),y                 ; 0x2026 <main+0x1abc>
    5f7f: 4c ea 5f     	jmp	$5fea <readMIDICmd+0x5ec>
    5f82: a5 25        	lda	$25                     ; 0x2025 <main+0x1abb>
    5f84: 30 15        	bmi	$5f9b <readMIDICmd+0x59d>
    5f86: 4c ea 5f     	jmp	$5fea <readMIDICmd+0x5ec>
    5f89: 85 12        	sta	$12                     ; 0x2012 <main+0x1aa8>
    5f8b: a0 0d        	ldy	#$d
    5f8d: b1 10        	lda	($10),y                 ; 0x2010 <main+0x1aa6>
    5f8f: 20 2d 60     	jsr	$602d <skipWhenFFCmd>
    5f92: 4c ea 5f     	jmp	$5fea <readMIDICmd+0x5ec>
    5f95: a6 25        	ldx	$25                     ; 0x2025 <main+0x1abb>
    5f97: e0 f0        	cpx	#$f0
    5f99: b0 4f        	bcs	$5fea <readMIDICmd+0x5ec>
    5f9b: a2 19        	ldx	#$19
    5f9d: 86 12        	stx	$12                     ; 0x2012 <main+0x1aa8>
    5f9f: 64 13        	stz	$13                     ; 0x2013 <main+0x1aa9>
    5fa1: a2 00        	ldx	#$0
    5fa3: a0 0d        	ldy	#$d
    5fa5: b1 10        	lda	($10),y                 ; 0x2010 <main+0x1aa6>
    5fa7: 20 7c 82     	jsr	$827c <__mulhi3>
    5faa: 85 12        	sta	$12                     ; 0x2012 <main+0x1aa8>
    5fac: 86 13        	stx	$13                     ; 0x2013 <main+0x1aa9>
    5fae: 18           	clc
    5faf: a5 2e        	lda	$2e                     ; 0x202e <main+0x1ac4>
    5fb1: 65 12        	adc	$12                     ; 0x2012 <main+0x1aa8>
    5fb3: 85 12        	sta	$12                     ; 0x2012 <main+0x1aa8>
    5fb5: a0 0b        	ldy	#$b
    5fb7: b1 10        	lda	($10),y                 ; 0x2010 <main+0x1aa6>
    5fb9: 65 13        	adc	$13                     ; 0x2013 <main+0x1aa9>
    5fbb: 85 13        	sta	$13                     ; 0x2013 <main+0x1aa9>
    5fbd: a0 16        	ldy	#$16
    5fbf: a5 25        	lda	$25                     ; 0x2025 <main+0x1abb>
    5fc1: 91 12        	sta	($12),y                 ; 0x2012 <main+0x1aa8>
    5fc3: a5 2a        	lda	$2a                     ; 0x202a <main+0x1ac0>
    5fc5: 18           	clc
    5fc6: 69 02        	adc	#$2
    5fc8: a0 04        	ldy	#$4
    5fca: 91 28        	sta	($28),y                 ; 0x2028 <main+0x1abe>
    5fcc: a0 0c        	ldy	#$c
    5fce: b1 10        	lda	($10),y                 ; 0x2010 <main+0x1aa6>
    5fd0: 69 00        	adc	#$0
    5fd2: a0 01        	ldy	#$1
    5fd4: 91 26        	sta	($26),y                 ; 0x2026 <main+0x1abc>
    5fd6: a5 2f        	lda	$2f                     ; 0x202f <main+0x1ac5>
    5fd8: 69 00        	adc	#$0
    5fda: c8           	iny
    5fdb: 91 26        	sta	($26),y                 ; 0x2026 <main+0x1abc>
    5fdd: a5 24        	lda	$24                     ; 0x2024 <main+0x1aba>
    5fdf: 69 00        	adc	#$0
    5fe1: c8           	iny
    5fe2: 91 26        	sta	($26),y                 ; 0x2026 <main+0x1abc>
    5fe4: a0 17        	ldy	#$17
    5fe6: a9 00        	lda	#$0
    5fe8: 91 12        	sta	($12),y                 ; 0x2012 <main+0x1aa8>
    5fea: a0 00        	ldy	#$0
    5fec: b1 10        	lda	($10),y                 ; 0x2010 <main+0x1aa6>
    5fee: 85 2f        	sta	$2f                     ; 0x202f <main+0x1ac5>
    5ff0: c8           	iny
    5ff1: b1 10        	lda	($10),y                 ; 0x2010 <main+0x1aa6>
    5ff3: 85 2e        	sta	$2e                     ; 0x202e <main+0x1ac4>
    5ff5: c8           	iny
    5ff6: b1 10        	lda	($10),y                 ; 0x2010 <main+0x1aa6>
    5ff8: 85 2d        	sta	$2d                     ; 0x202d <main+0x1ac3>
    5ffa: c8           	iny
    5ffb: b1 10        	lda	($10),y                 ; 0x2010 <main+0x1aa6>
    5ffd: 85 2c        	sta	$2c                     ; 0x202c <main+0x1ac2>
    5fff: c8           	iny
    6000: b1 10        	lda	($10),y                 ; 0x2010 <main+0x1aa6>
    6002: 85 2b        	sta	$2b                     ; 0x202b <main+0x1ac1>
    6004: c8           	iny
    6005: b1 10        	lda	($10),y                 ; 0x2010 <main+0x1aa6>
    6007: 85 2a        	sta	$2a                     ; 0x202a <main+0x1ac0>
    6009: c8           	iny
    600a: b1 10        	lda	($10),y                 ; 0x2010 <main+0x1aa6>
    600c: 85 29        	sta	$29                     ; 0x2029 <main+0x1abf>
    600e: c8           	iny
    600f: b1 10        	lda	($10),y                 ; 0x2010 <main+0x1aa6>
    6011: 85 28        	sta	$28                     ; 0x2028 <main+0x1abe>
    6013: fa           	plx
    6014: 86 27        	stx	$27                     ; 0x2027 <main+0x1abd>
    6016: fa           	plx
    6017: 86 26        	stx	$26                     ; 0x2026 <main+0x1abc>
    6019: fa           	plx
    601a: 86 25        	stx	$25                     ; 0x2025 <main+0x1abb>
    601c: fa           	plx
    601d: 86 24        	stx	$24                     ; 0x2024 <main+0x1aba>
    601f: 18           	clc
    6020: a5 10        	lda	$10                     ; 0x2010 <main+0x1aa6>
    6022: 69 0e        	adc	#$e
    6024: 85 10        	sta	$10                     ; 0x2010 <main+0x1aa6>
    6026: a5 11        	lda	$11                     ; 0x2011 <main+0x1aa7>
    6028: 69 00        	adc	#$0
    602a: 85 11        	sta	$11                     ; 0x2011 <main+0x1aa7>
    602c: 60           	rts

0000602d <skipWhenFFCmd>:
    602d: a8           	tay
    602e: 8a           	txa
    602f: a6 12        	ldx	$12                     ; 0x2012 <main+0x1aa8>
    6031: 86 71        	stx	$71                     ; 0x2071 <main+0x1b07>
    6033: c9 5a        	cmp	#$5a
    6035: 90 03        	bcc	$603a <skipWhenFFCmd+0xd>
    6037: 4c 31 62     	jmp	$6231 <skipWhenFFCmd+0x204>
    603a: 0a           	asl
    603b: aa           	tax
    603c: 7c fc 84     	jmp	($84fc,x)               ; 0x84fc <__set_v+0x6f>
    603f: a6 60        	ldx	$60                     ; 0x2060 <main+0x1af6>
    6041: 86 73        	stx	$73                     ; 0x2073 <main+0x1b09>
    6043: a6 61        	ldx	$61                     ; 0x2061 <main+0x1af7>
    6045: 86 72        	stx	$72                     ; 0x2072 <main+0x1b08>
    6047: a2 19        	ldx	#$19
    6049: 86 12        	stx	$12                     ; 0x2012 <main+0x1aa8>
    604b: 64 13        	stz	$13                     ; 0x2013 <main+0x1aa9>
    604d: a2 00        	ldx	#$0
    604f: 98           	tya
    6050: 20 7c 82     	jsr	$827c <__mulhi3>
    6053: 85 12        	sta	$12                     ; 0x2012 <main+0x1aa8>
    6055: 86 13        	stx	$13                     ; 0x2013 <main+0x1aa9>
    6057: 18           	clc
    6058: a6 73        	ldx	$73                     ; 0x2073 <main+0x1b09>
    605a: 8a           	txa
    605b: 65 12        	adc	$12                     ; 0x2012 <main+0x1aa8>
    605d: a8           	tay
    605e: a5 72        	lda	$72                     ; 0x2072 <main+0x1b08>
    6060: 65 13        	adc	$13                     ; 0x2013 <main+0x1aa9>
    6062: aa           	tax
    6063: 98           	tya
    6064: 84 12        	sty	$12                     ; 0x2012 <main+0x1aa8>
    6066: 86 13        	stx	$13                     ; 0x2013 <main+0x1aa9>
    6068: 18           	clc
    6069: 69 04        	adc	#$4
    606b: 85 14        	sta	$14                     ; 0x2014 <main+0x1aaa>
    606d: 8a           	txa
    606e: 69 00        	adc	#$0
    6070: 85 15        	sta	$15                     ; 0x2015 <main+0x1aab>
    6072: 18           	clc
    6073: a6 71        	ldx	$71                     ; 0x2071 <main+0x1b07>
    6075: 8a           	txa
    6076: a0 04        	ldy	#$4
    6078: 71 12        	adc	($12),y                 ; 0x2012 <main+0x1aa8>
    607a: 85 16        	sta	$16                     ; 0x2016 <main+0x1aac>
    607c: a9 00        	lda	#$0
    607e: a0 01        	ldy	#$1
    6080: 71 14        	adc	($14),y                 ; 0x2014 <main+0x1aaa>
    6082: 85 17        	sta	$17                     ; 0x2017 <main+0x1aad>
    6084: c8           	iny
    6085: a9 00        	lda	#$0
    6087: 71 14        	adc	($14),y                 ; 0x2014 <main+0x1aaa>
    6089: 85 18        	sta	$18                     ; 0x2018 <main+0x1aae>
    608b: c8           	iny
    608c: a9 00        	lda	#$0
    608e: 71 14        	adc	($14),y                 ; 0x2014 <main+0x1aaa>
    6090: aa           	tax
    6091: 18           	clc
    6092: a5 16        	lda	$16                     ; 0x2016 <main+0x1aac>
    6094: 69 02        	adc	#$2
    6096: c8           	iny
    6097: 91 12        	sta	($12),y                 ; 0x2012 <main+0x1aa8>
    6099: a5 17        	lda	$17                     ; 0x2017 <main+0x1aad>
    609b: 69 00        	adc	#$0
    609d: a0 01        	ldy	#$1
    609f: 91 14        	sta	($14),y                 ; 0x2014 <main+0x1aaa>
    60a1: a5 18        	lda	$18                     ; 0x2018 <main+0x1aae>
    60a3: 69 00        	adc	#$0
    60a5: c8           	iny
    60a6: 91 14        	sta	($14),y                 ; 0x2014 <main+0x1aaa>
    60a8: 8a           	txa
    60a9: 69 00        	adc	#$0
    60ab: c8           	iny
    60ac: 91 14        	sta	($14),y                 ; 0x2014 <main+0x1aaa>
    60ae: 60           	rts
    60af: a6 60        	ldx	$60                     ; 0x2060 <main+0x1af6>
    60b1: 86 72        	stx	$72                     ; 0x2072 <main+0x1b08>
    60b3: a6 61        	ldx	$61                     ; 0x2061 <main+0x1af7>
    60b5: 86 71        	stx	$71                     ; 0x2071 <main+0x1b07>
    60b7: a2 19        	ldx	#$19
    60b9: 86 12        	stx	$12                     ; 0x2012 <main+0x1aa8>
    60bb: 64 13        	stz	$13                     ; 0x2013 <main+0x1aa9>
    60bd: a2 00        	ldx	#$0
    60bf: 98           	tya
    60c0: 20 7c 82     	jsr	$827c <__mulhi3>
    60c3: 85 12        	sta	$12                     ; 0x2012 <main+0x1aa8>
    60c5: 86 13        	stx	$13                     ; 0x2013 <main+0x1aa9>
    60c7: 18           	clc
    60c8: a6 72        	ldx	$72                     ; 0x2072 <main+0x1b08>
    60ca: 8a           	txa
    60cb: 65 12        	adc	$12                     ; 0x2012 <main+0x1aa8>
    60cd: a8           	tay
    60ce: a5 71        	lda	$71                     ; 0x2071 <main+0x1b07>
    60d0: 65 13        	adc	$13                     ; 0x2013 <main+0x1aa9>
    60d2: aa           	tax
    60d3: 98           	tya
    60d4: 84 14        	sty	$14                     ; 0x2014 <main+0x1aaa>
    60d6: 86 15        	stx	$15                     ; 0x2015 <main+0x1aab>
    60d8: 18           	clc
    60d9: 69 04        	adc	#$4
    60db: 85 12        	sta	$12                     ; 0x2012 <main+0x1aa8>
    60dd: 8a           	txa
    60de: 69 00        	adc	#$0
    60e0: a0 04        	ldy	#$4
    60e2: 85 13        	sta	$13                     ; 0x2013 <main+0x1aa9>
    60e4: b1 14        	lda	($14),y                 ; 0x2014 <main+0x1aaa>
    60e6: 18           	clc
    60e7: 69 03        	adc	#$3
    60e9: 4c 19 62     	jmp	$6219 <skipWhenFFCmd+0x1ec>
    60ec: a6 60        	ldx	$60                     ; 0x2060 <main+0x1af6>
    60ee: 86 72        	stx	$72                     ; 0x2072 <main+0x1b08>
    60f0: a6 61        	ldx	$61                     ; 0x2061 <main+0x1af7>
    60f2: 86 71        	stx	$71                     ; 0x2071 <main+0x1b07>
    60f4: a2 19        	ldx	#$19
    60f6: 86 12        	stx	$12                     ; 0x2012 <main+0x1aa8>
    60f8: 64 13        	stz	$13                     ; 0x2013 <main+0x1aa9>
    60fa: a2 00        	ldx	#$0
    60fc: 98           	tya
    60fd: 20 7c 82     	jsr	$827c <__mulhi3>
    6100: 85 12        	sta	$12                     ; 0x2012 <main+0x1aa8>
    6102: 86 13        	stx	$13                     ; 0x2013 <main+0x1aa9>
    6104: 18           	clc
    6105: a6 72        	ldx	$72                     ; 0x2072 <main+0x1b08>
    6107: 8a           	txa
    6108: 65 12        	adc	$12                     ; 0x2012 <main+0x1aa8>
    610a: a8           	tay
    610b: a5 71        	lda	$71                     ; 0x2071 <main+0x1b07>
    610d: 65 13        	adc	$13                     ; 0x2013 <main+0x1aa9>
    610f: aa           	tax
    6110: 98           	tya
    6111: 84 14        	sty	$14                     ; 0x2014 <main+0x1aaa>
    6113: 86 15        	stx	$15                     ; 0x2015 <main+0x1aab>
    6115: 18           	clc
    6116: 69 04        	adc	#$4
    6118: 85 12        	sta	$12                     ; 0x2012 <main+0x1aa8>
    611a: 8a           	txa
    611b: 69 00        	adc	#$0
    611d: a0 04        	ldy	#$4
    611f: 85 13        	sta	$13                     ; 0x2013 <main+0x1aa9>
    6121: b1 14        	lda	($14),y                 ; 0x2014 <main+0x1aaa>
    6123: 18           	clc
    6124: 69 07        	adc	#$7
    6126: 4c 19 62     	jmp	$6219 <skipWhenFFCmd+0x1ec>
    6129: a6 60        	ldx	$60                     ; 0x2060 <main+0x1af6>
    612b: 86 72        	stx	$72                     ; 0x2072 <main+0x1b08>
    612d: a6 61        	ldx	$61                     ; 0x2061 <main+0x1af7>
    612f: 86 71        	stx	$71                     ; 0x2071 <main+0x1b07>
    6131: a2 19        	ldx	#$19
    6133: 86 12        	stx	$12                     ; 0x2012 <main+0x1aa8>
    6135: 64 13        	stz	$13                     ; 0x2013 <main+0x1aa9>
    6137: a2 00        	ldx	#$0
    6139: 98           	tya
    613a: 20 7c 82     	jsr	$827c <__mulhi3>
    613d: 85 12        	sta	$12                     ; 0x2012 <main+0x1aa8>
    613f: 86 13        	stx	$13                     ; 0x2013 <main+0x1aa9>
    6141: 18           	clc
    6142: a6 72        	ldx	$72                     ; 0x2072 <main+0x1b08>
    6144: 8a           	txa
    6145: 65 12        	adc	$12                     ; 0x2012 <main+0x1aa8>
    6147: a8           	tay
    6148: a5 71        	lda	$71                     ; 0x2071 <main+0x1b07>
    614a: 65 13        	adc	$13                     ; 0x2013 <main+0x1aa9>
    614c: aa           	tax
    614d: 98           	tya
    614e: 84 14        	sty	$14                     ; 0x2014 <main+0x1aaa>
    6150: 86 15        	stx	$15                     ; 0x2015 <main+0x1aab>
    6152: 18           	clc
    6153: 69 04        	adc	#$4
    6155: 85 12        	sta	$12                     ; 0x2012 <main+0x1aa8>
    6157: 8a           	txa
    6158: 69 00        	adc	#$0
    615a: a0 04        	ldy	#$4
    615c: 85 13        	sta	$13                     ; 0x2013 <main+0x1aa9>
    615e: b1 14        	lda	($14),y                 ; 0x2014 <main+0x1aaa>
    6160: 18           	clc
    6161: 69 05        	adc	#$5
    6163: 4c 19 62     	jmp	$6219 <skipWhenFFCmd+0x1ec>
    6166: a6 60        	ldx	$60                     ; 0x2060 <main+0x1af6>
    6168: 86 72        	stx	$72                     ; 0x2072 <main+0x1b08>
    616a: a6 61        	ldx	$61                     ; 0x2061 <main+0x1af7>
    616c: 86 71        	stx	$71                     ; 0x2071 <main+0x1b07>
    616e: a2 19        	ldx	#$19
    6170: 86 12        	stx	$12                     ; 0x2012 <main+0x1aa8>
    6172: 64 13        	stz	$13                     ; 0x2013 <main+0x1aa9>
    6174: a2 00        	ldx	#$0
    6176: 98           	tya
    6177: 20 7c 82     	jsr	$827c <__mulhi3>
    617a: 85 12        	sta	$12                     ; 0x2012 <main+0x1aa8>
    617c: 86 13        	stx	$13                     ; 0x2013 <main+0x1aa9>
    617e: 18           	clc
    617f: a6 72        	ldx	$72                     ; 0x2072 <main+0x1b08>
    6181: 8a           	txa
    6182: 65 12        	adc	$12                     ; 0x2012 <main+0x1aa8>
    6184: a8           	tay
    6185: a5 71        	lda	$71                     ; 0x2071 <main+0x1b07>
    6187: 65 13        	adc	$13                     ; 0x2013 <main+0x1aa9>
    6189: aa           	tax
    618a: 98           	tya
    618b: 84 14        	sty	$14                     ; 0x2014 <main+0x1aaa>
    618d: 86 15        	stx	$15                     ; 0x2015 <main+0x1aab>
    618f: 18           	clc
    6190: 69 04        	adc	#$4
    6192: 85 12        	sta	$12                     ; 0x2012 <main+0x1aa8>
    6194: 8a           	txa
    6195: 69 00        	adc	#$0
    6197: a0 04        	ldy	#$4
    6199: 85 13        	sta	$13                     ; 0x2013 <main+0x1aa9>
    619b: b1 14        	lda	($14),y                 ; 0x2014 <main+0x1aaa>
    619d: 18           	clc
    619e: 69 04        	adc	#$4
    61a0: 4c 19 62     	jmp	$6219 <skipWhenFFCmd+0x1ec>
    61a3: a6 60        	ldx	$60                     ; 0x2060 <main+0x1af6>
    61a5: 86 72        	stx	$72                     ; 0x2072 <main+0x1b08>
    61a7: a6 61        	ldx	$61                     ; 0x2061 <main+0x1af7>
    61a9: 86 71        	stx	$71                     ; 0x2071 <main+0x1b07>
    61ab: a2 19        	ldx	#$19
    61ad: 86 12        	stx	$12                     ; 0x2012 <main+0x1aa8>
    61af: 64 13        	stz	$13                     ; 0x2013 <main+0x1aa9>
    61b1: a2 00        	ldx	#$0
    61b3: 98           	tya
    61b4: 20 7c 82     	jsr	$827c <__mulhi3>
    61b7: 85 12        	sta	$12                     ; 0x2012 <main+0x1aa8>
    61b9: 86 13        	stx	$13                     ; 0x2013 <main+0x1aa9>
    61bb: 18           	clc
    61bc: a6 72        	ldx	$72                     ; 0x2072 <main+0x1b08>
    61be: 8a           	txa
    61bf: 65 12        	adc	$12                     ; 0x2012 <main+0x1aa8>
    61c1: a8           	tay
    61c2: a5 71        	lda	$71                     ; 0x2071 <main+0x1b07>
    61c4: 65 13        	adc	$13                     ; 0x2013 <main+0x1aa9>
    61c6: aa           	tax
    61c7: 98           	tya
    61c8: 84 14        	sty	$14                     ; 0x2014 <main+0x1aaa>
    61ca: 86 15        	stx	$15                     ; 0x2015 <main+0x1aab>
    61cc: 18           	clc
    61cd: 69 04        	adc	#$4
    61cf: 85 12        	sta	$12                     ; 0x2012 <main+0x1aa8>
    61d1: 8a           	txa
    61d2: 69 00        	adc	#$0
    61d4: a0 04        	ldy	#$4
    61d6: 85 13        	sta	$13                     ; 0x2013 <main+0x1aa9>
    61d8: b1 14        	lda	($14),y                 ; 0x2014 <main+0x1aaa>
    61da: 18           	clc
    61db: 69 02        	adc	#$2
    61dd: 80 3a        	bra	$6219 <skipWhenFFCmd+0x1ec>
    61df: a6 60        	ldx	$60                     ; 0x2060 <main+0x1af6>
    61e1: 86 72        	stx	$72                     ; 0x2072 <main+0x1b08>
    61e3: a6 61        	ldx	$61                     ; 0x2061 <main+0x1af7>
    61e5: 86 71        	stx	$71                     ; 0x2071 <main+0x1b07>
    61e7: a2 19        	ldx	#$19
    61e9: 86 12        	stx	$12                     ; 0x2012 <main+0x1aa8>
    61eb: 64 13        	stz	$13                     ; 0x2013 <main+0x1aa9>
    61ed: a2 00        	ldx	#$0
    61ef: 98           	tya
    61f0: 20 7c 82     	jsr	$827c <__mulhi3>
    61f3: 85 12        	sta	$12                     ; 0x2012 <main+0x1aa8>
    61f5: 86 13        	stx	$13                     ; 0x2013 <main+0x1aa9>
    61f7: 18           	clc
    61f8: a6 72        	ldx	$72                     ; 0x2072 <main+0x1b08>
    61fa: 8a           	txa
    61fb: 65 12        	adc	$12                     ; 0x2012 <main+0x1aa8>
    61fd: a8           	tay
    61fe: a5 71        	lda	$71                     ; 0x2071 <main+0x1b07>
    6200: 65 13        	adc	$13                     ; 0x2013 <main+0x1aa9>
    6202: aa           	tax
    6203: 98           	tya
    6204: 84 14        	sty	$14                     ; 0x2014 <main+0x1aaa>
    6206: 86 15        	stx	$15                     ; 0x2015 <main+0x1aab>
    6208: 18           	clc
    6209: 69 04        	adc	#$4
    620b: 85 12        	sta	$12                     ; 0x2012 <main+0x1aa8>
    620d: 8a           	txa
    620e: 69 00        	adc	#$0
    6210: a0 04        	ldy	#$4
    6212: 85 13        	sta	$13                     ; 0x2013 <main+0x1aa9>
    6214: b1 14        	lda	($14),y                 ; 0x2014 <main+0x1aaa>
    6216: 18           	clc
    6217: 69 06        	adc	#$6
    6219: 91 14        	sta	($14),y                 ; 0x2014 <main+0x1aaa>
    621b: a0 01        	ldy	#$1
    621d: b1 12        	lda	($12),y                 ; 0x2012 <main+0x1aa8>
    621f: 69 00        	adc	#$0
    6221: 91 12        	sta	($12),y                 ; 0x2012 <main+0x1aa8>
    6223: c8           	iny
    6224: b1 12        	lda	($12),y                 ; 0x2012 <main+0x1aa8>
    6226: 69 00        	adc	#$0
    6228: 91 12        	sta	($12),y                 ; 0x2012 <main+0x1aa8>
    622a: c8           	iny
    622b: b1 12        	lda	($12),y                 ; 0x2012 <main+0x1aa8>
    622d: 69 00        	adc	#$0
    622f: 91 12        	sta	($12),y                 ; 0x2012 <main+0x1aa8>
    6231: 60           	rts

00006232 <performMIDICmd>:
    6232: 85 72        	sta	$72                     ; 0x2072 <main+0x1b08>
    6234: a6 60        	ldx	$60                     ; 0x2060 <main+0x1af6>
    6236: 86 71        	stx	$71                     ; 0x2071 <main+0x1b07>
    6238: a6 61        	ldx	$61                     ; 0x2061 <main+0x1af7>
    623a: 86 73        	stx	$73                     ; 0x2073 <main+0x1b09>
    623c: a2 19        	ldx	#$19
    623e: 86 12        	stx	$12                     ; 0x2012 <main+0x1aa8>
    6240: 64 13        	stz	$13                     ; 0x2013 <main+0x1aa9>
    6242: a2 00        	ldx	#$0
    6244: 20 7c 82     	jsr	$827c <__mulhi3>
    6247: 85 12        	sta	$12                     ; 0x2012 <main+0x1aa8>
    6249: 86 13        	stx	$13                     ; 0x2013 <main+0x1aa9>
    624b: 18           	clc
    624c: a5 71        	lda	$71                     ; 0x2071 <main+0x1b07>
    624e: 65 12        	adc	$12                     ; 0x2012 <main+0x1aa8>
    6250: 85 12        	sta	$12                     ; 0x2012 <main+0x1aa8>
    6252: a5 73        	lda	$73                     ; 0x2073 <main+0x1b09>
    6254: 65 13        	adc	$13                     ; 0x2013 <main+0x1aa9>
    6256: 85 13        	sta	$13                     ; 0x2013 <main+0x1aa9>
    6258: a0 10        	ldy	#$10
    625a: b1 12        	lda	($12),y                 ; 0x2012 <main+0x1aa8>
    625c: aa           	tax
    625d: c8           	iny
    625e: b1 12        	lda	($12),y                 ; 0x2012 <main+0x1aa8>
    6260: 85 18        	sta	$18                     ; 0x2018 <main+0x1aae>
    6262: e0 ff        	cpx	#$ff
    6264: d0 03        	bne	$6269 <performMIDICmd+0x37>
    6266: 4c 11 63     	jmp	$6311 <performMIDICmd+0xdf>
    6269: 86 73        	stx	$73                     ; 0x2073 <main+0x1b09>
    626b: a2 a1        	ldx	#$a1
    626d: 86 16        	stx	$16                     ; 0x2016 <main+0x1aac>
    626f: a2 dd        	ldx	#$dd
    6271: 86 17        	stx	$17                     ; 0x2017 <main+0x1aad>
    6273: a2 b1        	ldx	#$b1
    6275: 86 14        	stx	$14                     ; 0x2014 <main+0x1aaa>
    6277: a2 dd        	ldx	#$dd
    6279: 86 15        	stx	$15                     ; 0x2015 <main+0x1aab>
    627b: a0 17        	ldy	#$17
    627d: b1 12        	lda	($12),y                 ; 0x2012 <main+0x1aa8>
    627f: 85 19        	sta	$19                     ; 0x2019 <main+0x1aaf>
    6281: a4 62        	ldy	$62                     ; 0x2062 <main+0x1af8>
    6283: a6 18        	ldx	$18                     ; 0x2018 <main+0x1aae>
    6285: 86 74        	stx	$74                     ; 0x2074 <main+0x1b0a>
    6287: 46 18        	lsr	$18                     ; 0x2018 <main+0x1aae>
    6289: 46 18        	lsr	$18                     ; 0x2018 <main+0x1aae>
    628b: 46 18        	lsr	$18                     ; 0x2018 <main+0x1aae>
    628d: 84 1a        	sty	$1a                     ; 0x201a <main+0x1ab0>
    628f: 98           	tya
    6290: f0 08        	beq	$629a <performMIDICmd+0x68>
    6292: a2 b1        	ldx	#$b1
    6294: 86 16        	stx	$16                     ; 0x2016 <main+0x1aac>
    6296: a2 dd        	ldx	#$dd
    6298: 86 17        	stx	$17                     ; 0x2017 <main+0x1aad>
    629a: 46 18        	lsr	$18                     ; 0x2018 <main+0x1aae>
    629c: a0 12        	ldy	#$12
    629e: b1 12        	lda	($12),y                 ; 0x2012 <main+0x1aa8>
    62a0: 85 15        	sta	$15                     ; 0x2015 <main+0x1aab>
    62a2: a5 73        	lda	$73                     ; 0x2073 <main+0x1b09>
    62a4: 29 0f        	and	#$f
    62a6: a8           	tay
    62a7: a5 73        	lda	$73                     ; 0x2073 <main+0x1b09>
    62a9: 85 14        	sta	$14                     ; 0x2014 <main+0x1aaa>
    62ab: 92 16        	sta	($16)                   ; 0x2016 <main+0x1aac>
    62ad: a6 74        	ldx	$74                     ; 0x2074 <main+0x1b0a>
    62af: 8a           	txa
    62b0: 92 16        	sta	($16)                   ; 0x2016 <main+0x1aac>
    62b2: e6 19        	inc	$19                     ; 0x2019 <main+0x1aaf>
    62b4: c6 19        	dec	$19                     ; 0x2019 <main+0x1aaf>
    62b6: d0 05        	bne	$62bd <performMIDICmd+0x8b>
    62b8: a5 15        	lda	$15                     ; 0x2015 <main+0x1aab>
    62ba: 92 16        	sta	($16)                   ; 0x2016 <main+0x1aac>
    62bc: 8a           	txa
    62bd: a6 18        	ldx	$18                     ; 0x2018 <main+0x1aae>
    62bf: 29 07        	and	#$7
    62c1: 85 16        	sta	$16                     ; 0x2016 <main+0x1aac>
    62c3: a5 14        	lda	$14                     ; 0x2014 <main+0x1aaa>
    62c5: 29 f0        	and	#$f0
    62c7: 84 12        	sty	$12                     ; 0x2012 <main+0x1aa8>
    62c9: 06 12        	asl	$12                     ; 0x2012 <main+0x1aa8>
    62cb: 06 12        	asl	$12                     ; 0x2012 <main+0x1aa8>
    62cd: 06 12        	asl	$12                     ; 0x2012 <main+0x1aa8>
    62cf: c9 90        	cmp	#$90
    62d1: f0 03        	beq	$62d6 <performMIDICmd+0xa4>
    62d3: 4c 2b 63     	jmp	$632b <performMIDICmd+0xf9>
    62d6: a5 15        	lda	$15                     ; 0x2015 <main+0x1aab>
    62d8: d0 03        	bne	$62dd <performMIDICmd+0xab>
    62da: 4c 3b 63     	jmp	$633b <performMIDICmd+0x109>
    62dd: a9 27        	lda	#$27
    62df: 18           	clc
    62e0: 65 12        	adc	$12                     ; 0x2012 <main+0x1aa8>
    62e2: 85 14        	sta	$14                     ; 0x2014 <main+0x1aaa>
    62e4: a9 a4        	lda	#$a4
    62e6: 69 00        	adc	#$0
    62e8: 85 15        	sta	$15                     ; 0x2015 <main+0x1aab>
    62ea: a9 01        	lda	#$1
    62ec: a4 18        	ldy	$18                     ; 0x2018 <main+0x1aae>
    62ee: 91 14        	sta	($14),y                 ; 0x2014 <main+0x1aaa>
    62f0: 86 71        	stx	$71                     ; 0x2071 <main+0x1b07>
    62f2: a6 16        	ldx	$16                     ; 0x2016 <main+0x1aac>
    62f4: a4 12        	ldy	$12                     ; 0x2012 <main+0x1aa8>
    62f6: 84 72        	sty	$72                     ; 0x2072 <main+0x1b08>
    62f8: 20 71 82     	jsr	$8271 <__ashlqi3>
    62fb: aa           	tax
    62fc: a9 a7        	lda	#$a7
    62fe: 18           	clc
    62ff: 65 72        	adc	$72                     ; 0x2072 <main+0x1b08>
    6301: 85 12        	sta	$12                     ; 0x2012 <main+0x1aa8>
    6303: a9 a4        	lda	#$a4
    6305: 69 00        	adc	#$0
    6307: 85 13        	sta	$13                     ; 0x2013 <main+0x1aa9>
    6309: a4 71        	ldy	$71                     ; 0x2071 <main+0x1b07>
    630b: 8a           	txa
    630c: 11 12        	ora	($12),y                 ; 0x2012 <main+0x1aa8>
    630e: 91 12        	sta	($12),y                 ; 0x2012 <main+0x1aa8>
    6310: 60           	rts
    6311: a6 73        	ldx	$73                     ; 0x2073 <main+0x1b09>
    6313: 86 74        	stx	$74                     ; 0x2074 <main+0x1b0a>
    6315: aa           	tax
    6316: e0 51        	cpx	#$51
    6318: d0 03        	bne	$631d <performMIDICmd+0xeb>
    631a: 4c b9 63     	jmp	$63b9 <performMIDICmd+0x187>
    631d: e0 2f        	cpx	#$2f
    631f: f0 03        	beq	$6324 <performMIDICmd+0xf2>
    6321: 4c 22 66     	jmp	$6622 <performMIDICmd+0x3f0>
    6324: a0 18        	ldy	#$18
    6326: a9 01        	lda	#$1
    6328: 91 12        	sta	($12),y                 ; 0x2012 <main+0x1aa8>
    632a: 60           	rts
    632b: 84 13        	sty	$13                     ; 0x2013 <main+0x1aa9>
    632d: a8           	tay
    632e: 38           	sec
    632f: a5 14        	lda	$14                     ; 0x2014 <main+0x1aaa>
    6331: e9 90        	sbc	#$90
    6333: 50 02        	bvc	$6337 <performMIDICmd+0x105>
    6335: 49 80        	eor	#$80
    6337: c9 00        	cmp	#$0
    6339: 10 36        	bpl	$6371 <performMIDICmd+0x13f>
    633b: a9 27        	lda	#$27
    633d: 18           	clc
    633e: 65 12        	adc	$12                     ; 0x2012 <main+0x1aa8>
    6340: 85 14        	sta	$14                     ; 0x2014 <main+0x1aaa>
    6342: a9 a4        	lda	#$a4
    6344: 69 00        	adc	#$0
    6346: 85 15        	sta	$15                     ; 0x2015 <main+0x1aab>
    6348: a9 01        	lda	#$1
    634a: a4 18        	ldy	$18                     ; 0x2018 <main+0x1aae>
    634c: 91 14        	sta	($14),y                 ; 0x2014 <main+0x1aaa>
    634e: 86 71        	stx	$71                     ; 0x2071 <main+0x1b07>
    6350: a6 16        	ldx	$16                     ; 0x2016 <main+0x1aac>
    6352: a4 12        	ldy	$12                     ; 0x2012 <main+0x1aa8>
    6354: 84 72        	sty	$72                     ; 0x2072 <main+0x1b08>
    6356: 20 71 82     	jsr	$8271 <__ashlqi3>
    6359: 49 ff        	eor	#$ff
    635b: aa           	tax
    635c: 18           	clc
    635d: a9 a7        	lda	#$a7
    635f: 65 72        	adc	$72                     ; 0x2072 <main+0x1b08>
    6361: 85 12        	sta	$12                     ; 0x2012 <main+0x1aa8>
    6363: a9 a4        	lda	#$a4
    6365: 69 00        	adc	#$0
    6367: 85 13        	sta	$13                     ; 0x2013 <main+0x1aa9>
    6369: a4 71        	ldy	$71                     ; 0x2071 <main+0x1b07>
    636b: 8a           	txa
    636c: 31 12        	and	($12),y                 ; 0x2012 <main+0x1aa8>
    636e: 91 12        	sta	($12),y                 ; 0x2012 <main+0x1aa8>
    6370: 60           	rts
    6371: c0 c0        	cpy	#$c0
    6373: f0 03        	beq	$6378 <performMIDICmd+0x146>
    6375: 4c 22 66     	jmp	$6622 <performMIDICmd+0x3f0>
    6378: 18           	clc
    6379: a5 13        	lda	$13                     ; 0x2013 <main+0x1aa9>
    637b: a6 13        	ldx	$13                     ; 0x2013 <main+0x1aa9>
    637d: 86 14        	stx	$14                     ; 0x2014 <main+0x1aaa>
    637f: 69 08        	adc	#$8
    6381: a2 04        	ldx	#$4
    6383: 86 38        	stx	$38                     ; 0x2038 <main+0x1ace>
    6385: 8e 14 d0     	stx	$d014                   ; 0xd014 <__heap_start+0x2a80>
    6388: 9c 15 d0     	stz	$d015                   ; 0xd015 <__heap_start+0x2a81>
    638b: 85 39        	sta	$39                     ; 0x2039 <main+0x1acf>
    638d: 8d 16 d0     	sta	$d016                   ; 0xd016 <__heap_start+0x2a82>
    6390: 9c 17 d0     	stz	$d017                   ; 0xd017 <__heap_start+0x2a83>
    6393: a5 73        	lda	$73                     ; 0x2073 <main+0x1b09>
    6395: 0a           	asl
    6396: 0a           	asl
    6397: 0a           	asl
    6398: 0a           	asl
    6399: 18           	clc
    639a: 69 10        	adc	#$10
    639c: 85 30        	sta	$30                     ; 0x2030 <main+0x1ac6>
    639e: a2 8a        	ldx	#$8a
    63a0: 86 12        	stx	$12                     ; 0x2012 <main+0x1aa8>
    63a2: a2 8b        	ldx	#$8b
    63a4: 86 13        	stx	$13                     ; 0x2013 <main+0x1aa9>
    63a6: a6 14        	ldx	$14                     ; 0x2014 <main+0x1aaa>
    63a8: e0 09        	cpx	#$9
    63aa: f0 03        	beq	$63af <performMIDICmd+0x17d>
    63ac: 4c 3e 64     	jmp	$643e <performMIDICmd+0x20c>
    63af: a6 1a        	ldx	$1a                     ; 0x201a <main+0x1ab0>
    63b1: 86 77        	stx	$77                     ; 0x2077 <main+0x1b0d>
    63b3: 20 84 31     	jsr	$3184 <textPrint>
    63b6: 4c 06 66     	jmp	$6606 <performMIDICmd+0x3d4>
    63b9: a0 19        	ldy	#$19
    63bb: a2 00        	ldx	#$0
    63bd: 84 12        	sty	$12                     ; 0x2012 <main+0x1aa8>
    63bf: 64 13        	stz	$13                     ; 0x2013 <main+0x1aa9>
    63c1: a5 72        	lda	$72                     ; 0x2072 <main+0x1b08>
    63c3: 20 7c 82     	jsr	$827c <__mulhi3>
    63c6: 85 12        	sta	$12                     ; 0x2012 <main+0x1aa8>
    63c8: 86 13        	stx	$13                     ; 0x2013 <main+0x1aa9>
    63ca: 18           	clc
    63cb: a5 71        	lda	$71                     ; 0x2071 <main+0x1b07>
    63cd: 65 12        	adc	$12                     ; 0x2012 <main+0x1aa8>
    63cf: 85 14        	sta	$14                     ; 0x2014 <main+0x1aaa>
    63d1: a5 74        	lda	$74                     ; 0x2074 <main+0x1b0a>
    63d3: 65 13        	adc	$13                     ; 0x2013 <main+0x1aa9>
    63d5: 85 15        	sta	$15                     ; 0x2015 <main+0x1aab>
    63d7: a0 13        	ldy	#$13
    63d9: b1 14        	lda	($14),y                 ; 0x2014 <main+0x1aaa>
    63db: 85 12        	sta	$12                     ; 0x2012 <main+0x1aa8>
    63dd: c8           	iny
    63de: b1 14        	lda	($14),y                 ; 0x2014 <main+0x1aaa>
    63e0: 85 18        	sta	$18                     ; 0x2018 <main+0x1aae>
    63e2: c8           	iny
    63e3: b1 14        	lda	($14),y                 ; 0x2014 <main+0x1aaa>
    63e5: a6 51        	ldx	$51                     ; 0x2051 <main+0x1ae7>
    63e7: a4 52        	ldy	$52                     ; 0x2052 <main+0x1ae8>
    63e9: 64 13        	stz	$13                     ; 0x2013 <main+0x1aa9>
    63eb: 86 14        	stx	$14                     ; 0x2014 <main+0x1aaa>
    63ed: 84 15        	sty	$15                     ; 0x2015 <main+0x1aab>
    63ef: 64 16        	stz	$16                     ; 0x2016 <main+0x1aac>
    63f1: 64 17        	stz	$17                     ; 0x2017 <main+0x1aad>
    63f3: a6 18        	ldx	$18                     ; 0x2018 <main+0x1aae>
    63f5: 20 1e 83     	jsr	$831e <__udivsi3>
    63f8: 86 14        	stx	$14                     ; 0x2014 <main+0x1aaa>
    63fa: 0a           	asl
    63fb: 26 14        	rol	$14                     ; 0x2014 <main+0x1aaa>
    63fd: 26 12        	rol	$12                     ; 0x2012 <main+0x1aa8>
    63ff: 26 13        	rol	$13                     ; 0x2013 <main+0x1aa9>
    6401: 0a           	asl
    6402: 85 15        	sta	$15                     ; 0x2015 <main+0x1aab>
    6404: 26 14        	rol	$14                     ; 0x2014 <main+0x1aaa>
    6406: 26 12        	rol	$12                     ; 0x2012 <main+0x1aa8>
    6408: 26 13        	rol	$13                     ; 0x2013 <main+0x1aa9>
    640a: 0a           	asl
    640b: aa           	tax
    640c: a5 14        	lda	$14                     ; 0x2014 <main+0x1aaa>
    640e: 2a           	rol
    640f: a8           	tay
    6410: a5 12        	lda	$12                     ; 0x2012 <main+0x1aa8>
    6412: 2a           	rol
    6413: 85 16        	sta	$16                     ; 0x2016 <main+0x1aac>
    6415: a5 13        	lda	$13                     ; 0x2013 <main+0x1aa9>
    6417: 2a           	rol
    6418: 85 17        	sta	$17                     ; 0x2017 <main+0x1aad>
    641a: 18           	clc
    641b: 8a           	txa
    641c: 65 15        	adc	$15                     ; 0x2015 <main+0x1aab>
    641e: 85 15        	sta	$15                     ; 0x2015 <main+0x1aab>
    6420: 98           	tya
    6421: 65 14        	adc	$14                     ; 0x2014 <main+0x1aaa>
    6423: 85 14        	sta	$14                     ; 0x2014 <main+0x1aaa>
    6425: a5 16        	lda	$16                     ; 0x2016 <main+0x1aac>
    6427: 65 12        	adc	$12                     ; 0x2012 <main+0x1aa8>
    6429: 85 12        	sta	$12                     ; 0x2012 <main+0x1aa8>
    642b: a5 17        	lda	$17                     ; 0x2017 <main+0x1aad>
    642d: 65 13        	adc	$13                     ; 0x2013 <main+0x1aa9>
    642f: a6 15        	ldx	$15                     ; 0x2015 <main+0x1aab>
    6431: 86 53        	stx	$53                     ; 0x2053 <main+0x1ae9>
    6433: a6 14        	ldx	$14                     ; 0x2014 <main+0x1aaa>
    6435: 86 54        	stx	$54                     ; 0x2054 <main+0x1aea>
    6437: a6 12        	ldx	$12                     ; 0x2012 <main+0x1aa8>
    6439: 86 55        	stx	$55                     ; 0x2055 <main+0x1aeb>
    643b: 85 56        	sta	$56                     ; 0x2056 <main+0x1aec>
    643d: 60           	rts
    643e: a6 1a        	ldx	$1a                     ; 0x201a <main+0x1ab0>
    6440: 86 77        	stx	$77                     ; 0x2077 <main+0x1b0d>
    6442: a0 01        	ldy	#$1
    6444: a5 74        	lda	$74                     ; 0x2074 <main+0x1b0a>
    6446: 0a           	asl
    6447: 85 12        	sta	$12                     ; 0x2012 <main+0x1aa8>
    6449: a9 00        	lda	#$0
    644b: 2a           	rol
    644c: 85 13        	sta	$13                     ; 0x2013 <main+0x1aa9>
    644e: a9 b0        	lda	#$b0
    6450: 18           	clc
    6451: 65 12        	adc	$12                     ; 0x2012 <main+0x1aa8>
    6453: 85 12        	sta	$12                     ; 0x2012 <main+0x1aa8>
    6455: a9 8f        	lda	#$8f
    6457: 65 13        	adc	$13                     ; 0x2013 <main+0x1aa9>
    6459: 85 13        	sta	$13                     ; 0x2013 <main+0x1aa9>
    645b: b2 12        	lda	($12)                   ; 0x2012 <main+0x1aa8>
    645d: aa           	tax
    645e: b1 12        	lda	($12),y                 ; 0x2012 <main+0x1aa8>
    6460: 86 12        	stx	$12                     ; 0x2012 <main+0x1aa8>
    6462: 85 13        	sta	$13                     ; 0x2013 <main+0x1aa9>
    6464: b2 12        	lda	($12)                   ; 0x2012 <main+0x1aa8>
    6466: d0 03        	bne	$646b <performMIDICmd+0x239>
    6468: 4c c6 65     	jmp	$65c6 <performMIDICmd+0x394>
    646b: 85 42        	sta	$42                     ; 0x2042 <main+0x1ad8>
    646d: 86 75        	stx	$75                     ; 0x2075 <main+0x1b0b>
    646f: a6 13        	ldx	$13                     ; 0x2013 <main+0x1aa9>
    6471: 86 76        	stx	$76                     ; 0x2076 <main+0x1b0c>
    6473: a2 42        	ldx	#$42
    6475: 86 12        	stx	$12                     ; 0x2012 <main+0x1aa8>
    6477: a2 00        	ldx	#$0
    6479: 86 13        	stx	$13                     ; 0x2013 <main+0x1aa9>
    647b: 20 84 31     	jsr	$3184 <textPrint>
    647e: a6 75        	ldx	$75                     ; 0x2075 <main+0x1b0b>
    6480: 86 12        	stx	$12                     ; 0x2012 <main+0x1aa8>
    6482: a6 76        	ldx	$76                     ; 0x2076 <main+0x1b0c>
    6484: 86 13        	stx	$13                     ; 0x2013 <main+0x1aa9>
    6486: a0 01        	ldy	#$1
    6488: b1 12        	lda	($12),y                 ; 0x2012 <main+0x1aa8>
    648a: d0 03        	bne	$648f <performMIDICmd+0x25d>
    648c: 4c ca 65     	jmp	$65ca <performMIDICmd+0x398>
    648f: 85 42        	sta	$42                     ; 0x2042 <main+0x1ad8>
    6491: a2 42        	ldx	#$42
    6493: 86 12        	stx	$12                     ; 0x2012 <main+0x1aa8>
    6495: a2 00        	ldx	#$0
    6497: 86 13        	stx	$13                     ; 0x2013 <main+0x1aa9>
    6499: 20 84 31     	jsr	$3184 <textPrint>
    649c: a0 02        	ldy	#$2
    649e: a6 75        	ldx	$75                     ; 0x2075 <main+0x1b0b>
    64a0: 86 12        	stx	$12                     ; 0x2012 <main+0x1aa8>
    64a2: a6 76        	ldx	$76                     ; 0x2076 <main+0x1b0c>
    64a4: 86 13        	stx	$13                     ; 0x2013 <main+0x1aa9>
    64a6: b1 12        	lda	($12),y                 ; 0x2012 <main+0x1aa8>
    64a8: d0 03        	bne	$64ad <performMIDICmd+0x27b>
    64aa: 4c ce 65     	jmp	$65ce <performMIDICmd+0x39c>
    64ad: 85 42        	sta	$42                     ; 0x2042 <main+0x1ad8>
    64af: a2 42        	ldx	#$42
    64b1: 86 12        	stx	$12                     ; 0x2012 <main+0x1aa8>
    64b3: a2 00        	ldx	#$0
    64b5: 86 13        	stx	$13                     ; 0x2013 <main+0x1aa9>
    64b7: 20 84 31     	jsr	$3184 <textPrint>
    64ba: a0 03        	ldy	#$3
    64bc: a6 75        	ldx	$75                     ; 0x2075 <main+0x1b0b>
    64be: 86 12        	stx	$12                     ; 0x2012 <main+0x1aa8>
    64c0: a6 76        	ldx	$76                     ; 0x2076 <main+0x1b0c>
    64c2: 86 13        	stx	$13                     ; 0x2013 <main+0x1aa9>
    64c4: b1 12        	lda	($12),y                 ; 0x2012 <main+0x1aa8>
    64c6: d0 03        	bne	$64cb <performMIDICmd+0x299>
    64c8: 4c d2 65     	jmp	$65d2 <performMIDICmd+0x3a0>
    64cb: 85 42        	sta	$42                     ; 0x2042 <main+0x1ad8>
    64cd: a2 42        	ldx	#$42
    64cf: 86 12        	stx	$12                     ; 0x2012 <main+0x1aa8>
    64d1: a2 00        	ldx	#$0
    64d3: 86 13        	stx	$13                     ; 0x2013 <main+0x1aa9>
    64d5: 20 84 31     	jsr	$3184 <textPrint>
    64d8: a0 04        	ldy	#$4
    64da: a6 75        	ldx	$75                     ; 0x2075 <main+0x1b0b>
    64dc: 86 12        	stx	$12                     ; 0x2012 <main+0x1aa8>
    64de: a6 76        	ldx	$76                     ; 0x2076 <main+0x1b0c>
    64e0: 86 13        	stx	$13                     ; 0x2013 <main+0x1aa9>
    64e2: b1 12        	lda	($12),y                 ; 0x2012 <main+0x1aa8>
    64e4: d0 03        	bne	$64e9 <performMIDICmd+0x2b7>
    64e6: 4c d6 65     	jmp	$65d6 <performMIDICmd+0x3a4>
    64e9: 85 42        	sta	$42                     ; 0x2042 <main+0x1ad8>
    64eb: a2 42        	ldx	#$42
    64ed: 86 12        	stx	$12                     ; 0x2012 <main+0x1aa8>
    64ef: a2 00        	ldx	#$0
    64f1: 86 13        	stx	$13                     ; 0x2013 <main+0x1aa9>
    64f3: 20 84 31     	jsr	$3184 <textPrint>
    64f6: a0 05        	ldy	#$5
    64f8: a6 75        	ldx	$75                     ; 0x2075 <main+0x1b0b>
    64fa: 86 12        	stx	$12                     ; 0x2012 <main+0x1aa8>
    64fc: a6 76        	ldx	$76                     ; 0x2076 <main+0x1b0c>
    64fe: 86 13        	stx	$13                     ; 0x2013 <main+0x1aa9>
    6500: b1 12        	lda	($12),y                 ; 0x2012 <main+0x1aa8>
    6502: d0 03        	bne	$6507 <performMIDICmd+0x2d5>
    6504: 4c da 65     	jmp	$65da <performMIDICmd+0x3a8>
    6507: 85 42        	sta	$42                     ; 0x2042 <main+0x1ad8>
    6509: a2 42        	ldx	#$42
    650b: 86 12        	stx	$12                     ; 0x2012 <main+0x1aa8>
    650d: a2 00        	ldx	#$0
    650f: 86 13        	stx	$13                     ; 0x2013 <main+0x1aa9>
    6511: 20 84 31     	jsr	$3184 <textPrint>
    6514: a0 06        	ldy	#$6
    6516: a6 75        	ldx	$75                     ; 0x2075 <main+0x1b0b>
    6518: 86 12        	stx	$12                     ; 0x2012 <main+0x1aa8>
    651a: a6 76        	ldx	$76                     ; 0x2076 <main+0x1b0c>
    651c: 86 13        	stx	$13                     ; 0x2013 <main+0x1aa9>
    651e: b1 12        	lda	($12),y                 ; 0x2012 <main+0x1aa8>
    6520: d0 03        	bne	$6525 <performMIDICmd+0x2f3>
    6522: 4c de 65     	jmp	$65de <performMIDICmd+0x3ac>
    6525: 85 42        	sta	$42                     ; 0x2042 <main+0x1ad8>
    6527: a2 42        	ldx	#$42
    6529: 86 12        	stx	$12                     ; 0x2012 <main+0x1aa8>
    652b: a2 00        	ldx	#$0
    652d: 86 13        	stx	$13                     ; 0x2013 <main+0x1aa9>
    652f: 20 84 31     	jsr	$3184 <textPrint>
    6532: a0 07        	ldy	#$7
    6534: a6 75        	ldx	$75                     ; 0x2075 <main+0x1b0b>
    6536: 86 12        	stx	$12                     ; 0x2012 <main+0x1aa8>
    6538: a6 76        	ldx	$76                     ; 0x2076 <main+0x1b0c>
    653a: 86 13        	stx	$13                     ; 0x2013 <main+0x1aa9>
    653c: b1 12        	lda	($12),y                 ; 0x2012 <main+0x1aa8>
    653e: d0 03        	bne	$6543 <performMIDICmd+0x311>
    6540: 4c e2 65     	jmp	$65e2 <performMIDICmd+0x3b0>
    6543: 85 42        	sta	$42                     ; 0x2042 <main+0x1ad8>
    6545: a2 42        	ldx	#$42
    6547: 86 12        	stx	$12                     ; 0x2012 <main+0x1aa8>
    6549: a2 00        	ldx	#$0
    654b: 86 13        	stx	$13                     ; 0x2013 <main+0x1aa9>
    654d: 20 84 31     	jsr	$3184 <textPrint>
    6550: a0 08        	ldy	#$8
    6552: a6 75        	ldx	$75                     ; 0x2075 <main+0x1b0b>
    6554: 86 12        	stx	$12                     ; 0x2012 <main+0x1aa8>
    6556: a6 76        	ldx	$76                     ; 0x2076 <main+0x1b0c>
    6558: 86 13        	stx	$13                     ; 0x2013 <main+0x1aa9>
    655a: b1 12        	lda	($12),y                 ; 0x2012 <main+0x1aa8>
    655c: d0 03        	bne	$6561 <performMIDICmd+0x32f>
    655e: 4c e6 65     	jmp	$65e6 <performMIDICmd+0x3b4>
    6561: 85 42        	sta	$42                     ; 0x2042 <main+0x1ad8>
    6563: a2 42        	ldx	#$42
    6565: 86 12        	stx	$12                     ; 0x2012 <main+0x1aa8>
    6567: a2 00        	ldx	#$0
    6569: 86 13        	stx	$13                     ; 0x2013 <main+0x1aa9>
    656b: 20 84 31     	jsr	$3184 <textPrint>
    656e: a0 09        	ldy	#$9
    6570: a6 75        	ldx	$75                     ; 0x2075 <main+0x1b0b>
    6572: 86 12        	stx	$12                     ; 0x2012 <main+0x1aa8>
    6574: a6 76        	ldx	$76                     ; 0x2076 <main+0x1b0c>
    6576: 86 13        	stx	$13                     ; 0x2013 <main+0x1aa9>
    6578: b1 12        	lda	($12),y                 ; 0x2012 <main+0x1aa8>
    657a: d0 03        	bne	$657f <performMIDICmd+0x34d>
    657c: 4c ea 65     	jmp	$65ea <performMIDICmd+0x3b8>
    657f: 85 42        	sta	$42                     ; 0x2042 <main+0x1ad8>
    6581: a2 42        	ldx	#$42
    6583: 86 12        	stx	$12                     ; 0x2012 <main+0x1aa8>
    6585: a2 00        	ldx	#$0
    6587: 86 13        	stx	$13                     ; 0x2013 <main+0x1aa9>
    6589: 20 84 31     	jsr	$3184 <textPrint>
    658c: a6 75        	ldx	$75                     ; 0x2075 <main+0x1b0b>
    658e: 86 12        	stx	$12                     ; 0x2012 <main+0x1aa8>
    6590: a6 76        	ldx	$76                     ; 0x2076 <main+0x1b0c>
    6592: 86 13        	stx	$13                     ; 0x2013 <main+0x1aa9>
    6594: a0 0a        	ldy	#$a
    6596: b1 12        	lda	($12),y                 ; 0x2012 <main+0x1aa8>
    6598: f0 54        	beq	$65ee <performMIDICmd+0x3bc>
    659a: 85 42        	sta	$42                     ; 0x2042 <main+0x1ad8>
    659c: a6 12        	ldx	$12                     ; 0x2012 <main+0x1aa8>
    659e: 86 71        	stx	$71                     ; 0x2071 <main+0x1b07>
    65a0: a6 13        	ldx	$13                     ; 0x2013 <main+0x1aa9>
    65a2: 86 72        	stx	$72                     ; 0x2072 <main+0x1b08>
    65a4: a2 42        	ldx	#$42
    65a6: 86 12        	stx	$12                     ; 0x2012 <main+0x1aa8>
    65a8: a2 00        	ldx	#$0
    65aa: 86 13        	stx	$13                     ; 0x2013 <main+0x1aa9>
    65ac: 20 84 31     	jsr	$3184 <textPrint>
    65af: a0 0b        	ldy	#$b
    65b1: b1 71        	lda	($71),y                 ; 0x2071 <main+0x1b07>
    65b3: f0 3d        	beq	$65f2 <performMIDICmd+0x3c0>
    65b5: 85 42        	sta	$42                     ; 0x2042 <main+0x1ad8>
    65b7: a2 42        	ldx	#$42
    65b9: 86 12        	stx	$12                     ; 0x2012 <main+0x1aa8>
    65bb: a2 00        	ldx	#$0
    65bd: 86 13        	stx	$13                     ; 0x2013 <main+0x1aa9>
    65bf: a4 77        	ldy	$77                     ; 0x2077 <main+0x1b0d>
    65c1: 84 1a        	sty	$1a                     ; 0x201a <main+0x1ab0>
    65c3: 4c af 63     	jmp	$63af <performMIDICmd+0x17d>
    65c6: a0 f4        	ldy	#$f4
    65c8: 80 2a        	bra	$65f4 <performMIDICmd+0x3c2>
    65ca: a0 f5        	ldy	#$f5
    65cc: 80 26        	bra	$65f4 <performMIDICmd+0x3c2>
    65ce: a0 f6        	ldy	#$f6
    65d0: 80 22        	bra	$65f4 <performMIDICmd+0x3c2>
    65d2: a0 f7        	ldy	#$f7
    65d4: 80 1e        	bra	$65f4 <performMIDICmd+0x3c2>
    65d6: a0 f8        	ldy	#$f8
    65d8: 80 1a        	bra	$65f4 <performMIDICmd+0x3c2>
    65da: a0 f9        	ldy	#$f9
    65dc: 80 16        	bra	$65f4 <performMIDICmd+0x3c2>
    65de: a0 fa        	ldy	#$fa
    65e0: 80 12        	bra	$65f4 <performMIDICmd+0x3c2>
    65e2: a0 fb        	ldy	#$fb
    65e4: 80 0e        	bra	$65f4 <performMIDICmd+0x3c2>
    65e6: a0 fc        	ldy	#$fc
    65e8: 80 0a        	bra	$65f4 <performMIDICmd+0x3c2>
    65ea: a0 fd        	ldy	#$fd
    65ec: 80 06        	bra	$65f4 <performMIDICmd+0x3c2>
    65ee: a0 fe        	ldy	#$fe
    65f0: 80 02        	bra	$65f4 <performMIDICmd+0x3c2>
    65f2: a0 ff        	ldy	#$ff
    65f4: a2 48        	ldx	#$48
    65f6: 86 12        	stx	$12                     ; 0x2012 <main+0x1aa8>
    65f8: a2 87        	ldx	#$87
    65fa: 86 13        	stx	$13                     ; 0x2013 <main+0x1aa9>
    65fc: 84 71        	sty	$71                     ; 0x2071 <main+0x1b07>
    65fe: 20 84 31     	jsr	$3184 <textPrint>
    6601: a4 71        	ldy	$71                     ; 0x2071 <main+0x1b07>
    6603: c8           	iny
    6604: d0 ee        	bne	$65f4 <performMIDICmd+0x3c2>
    6606: a2 b1        	ldx	#$b1
    6608: 86 12        	stx	$12                     ; 0x2012 <main+0x1aa8>
    660a: a2 dd        	ldx	#$dd
    660c: 86 13        	stx	$13                     ; 0x2013 <main+0x1aa9>
    660e: a6 77        	ldx	$77                     ; 0x2077 <main+0x1b0d>
    6610: f0 08        	beq	$661a <performMIDICmd+0x3e8>
    6612: a2 a1        	ldx	#$a1
    6614: 86 12        	stx	$12                     ; 0x2012 <main+0x1aa8>
    6616: a2 dd        	ldx	#$dd
    6618: 86 13        	stx	$13                     ; 0x2013 <main+0x1aa9>
    661a: a5 73        	lda	$73                     ; 0x2073 <main+0x1b09>
    661c: 92 12        	sta	($12)                   ; 0x2012 <main+0x1aa8>
    661e: a5 74        	lda	$74                     ; 0x2074 <main+0x1b0a>
    6620: 92 12        	sta	($12)                   ; 0x2012 <main+0x1aa8>
    6622: 60           	rts

00006623 <initTrack>:
    6623: 18           	clc
    6624: a5 10        	lda	$10                     ; 0x2010 <main+0x1aa6>
    6626: 69 fa        	adc	#$fa
    6628: 85 10        	sta	$10                     ; 0x2010 <main+0x1aa6>
    662a: a5 11        	lda	$11                     ; 0x2011 <main+0x1aa7>
    662c: 69 ff        	adc	#$ff
    662e: 85 11        	sta	$11                     ; 0x2011 <main+0x1aa7>
    6630: a6 24        	ldx	$24                     ; 0x2024 <main+0x1aba>
    6632: da           	phx
    6633: a6 25        	ldx	$25                     ; 0x2025 <main+0x1abb>
    6635: da           	phx
    6636: a6 26        	ldx	$26                     ; 0x2026 <main+0x1abc>
    6638: da           	phx
    6639: a6 27        	ldx	$27                     ; 0x2027 <main+0x1abd>
    663b: da           	phx
    663c: a5 28        	lda	$28                     ; 0x2028 <main+0x1abe>
    663e: a0 01        	ldy	#$1
    6640: 91 10        	sta	($10),y                 ; 0x2010 <main+0x1aa6>
    6642: a5 29        	lda	$29                     ; 0x2029 <main+0x1abf>
    6644: 88           	dey
    6645: 91 10        	sta	($10),y                 ; 0x2010 <main+0x1aa6>
    6647: a4 0f        	ldy	$f                      ; 0x200f <main+0x1aa5>
    6649: 78           	sei
    664a: a9 28        	lda	#$28
    664c: 85 0f        	sta	$f                      ; 0x200f <main+0x1aa5>
    664e: ae 0a e0     	ldx	$e00a                   ; 0xe00a <__heap_start+0x3a76>
    6651: 84 0f        	sty	$f                      ; 0x200f <main+0x1aa5>
    6653: 58           	cli
    6654: a4 0f        	ldy	$f                      ; 0x200f <main+0x1aa5>
    6656: 78           	sei
    6657: 85 0f        	sta	$f                      ; 0x200f <main+0x1aa5>
    6659: ad 0b e0     	lda	$e00b                   ; 0xe00b <__heap_start+0x3a77>
    665c: 84 0f        	sty	$f                      ; 0x200f <main+0x1aa5>
    665e: 58           	cli
    665f: 85 4f        	sta	$4f                     ; 0x204f <main+0x1ae5>
    6661: 86 50        	stx	$50                     ; 0x2050 <main+0x1ae6>
    6663: a0 19        	ldy	#$19
    6665: 64 13        	stz	$13                     ; 0x2013 <main+0x1aa9>
    6667: 84 12        	sty	$12                     ; 0x2012 <main+0x1aa8>
    6669: 20 7c 82     	jsr	$827c <__mulhi3>
    666c: 20 c6 7e     	jsr	$7ec6 <malloc>
    666f: a6 12        	ldx	$12                     ; 0x2012 <main+0x1aa8>
    6671: a4 13        	ldy	$13                     ; 0x2013 <main+0x1aa9>
    6673: 86 60        	stx	$60                     ; 0x2060 <main+0x1af6>
    6675: 84 61        	sty	$61                     ; 0x2061 <main+0x1af7>
    6677: 64 57        	stz	$57                     ; 0x2057 <main+0x1aed>
    6679: a2 20        	ldx	#$20
    667b: 86 53        	stx	$53                     ; 0x2053 <main+0x1ae9>
    667d: a2 a1        	ldx	#$a1
    667f: 86 54        	stx	$54                     ; 0x2054 <main+0x1aea>
    6681: a2 07        	ldx	#$7
    6683: 86 55        	stx	$55                     ; 0x2055 <main+0x1aeb>
    6685: 64 56        	stz	$56                     ; 0x2056 <main+0x1aec>
    6687: a2 ff        	ldx	#$ff
    6689: 86 58        	stx	$58                     ; 0x2058 <main+0x1aee>
    668b: 86 59        	stx	$59                     ; 0x2059 <main+0x1aef>
    668d: 86 5a        	stx	$5a                     ; 0x205a <main+0x1af0>
    668f: 86 5b        	stx	$5b                     ; 0x205b <main+0x1af1>
    6691: 64 5c        	stz	$5c                     ; 0x205c <main+0x1af2>
    6693: 64 5d        	stz	$5d                     ; 0x205d <main+0x1af3>
    6695: a2 30        	ldx	#$30
    6697: 86 51        	stx	$51                     ; 0x2051 <main+0x1ae7>
    6699: 64 52        	stz	$52                     ; 0x2052 <main+0x1ae8>
    669b: 64 5e        	stz	$5e                     ; 0x205e <main+0x1af4>
    669d: 64 5f        	stz	$5f                     ; 0x205f <main+0x1af5>
    669f: a4 0f        	ldy	$f                      ; 0x200f <main+0x1aa5>
    66a1: 78           	sei
    66a2: a9 28        	lda	#$28
    66a4: 85 0f        	sta	$f                      ; 0x200f <main+0x1aa5>
    66a6: ae 0c e0     	ldx	$e00c                   ; 0xe00c <__heap_start+0x3a78>
    66a9: 84 0f        	sty	$f                      ; 0x200f <main+0x1aa5>
    66ab: 58           	cli
    66ac: a4 0f        	ldy	$f                      ; 0x200f <main+0x1aa5>
    66ae: 78           	sei
    66af: 85 0f        	sta	$f                      ; 0x200f <main+0x1aa5>
    66b1: ad 0d e0     	lda	$e00d                   ; 0xe00d <__heap_start+0x3a79>
    66b4: 84 0f        	sty	$f                      ; 0x200f <main+0x1aa5>
    66b6: 58           	cli
    66b7: 85 51        	sta	$51                     ; 0x2051 <main+0x1ae7>
    66b9: 86 52        	stx	$52                     ; 0x2052 <main+0x1ae8>
    66bb: a6 4f        	ldx	$4f                     ; 0x204f <main+0x1ae5>
    66bd: a4 50        	ldy	$50                     ; 0x2050 <main+0x1ae6>
    66bf: d0 06        	bne	$66c7 <initTrack+0xa4>
    66c1: 8a           	txa
    66c2: d0 03        	bne	$66c7 <initTrack+0xa4>
    66c4: 4c e5 6a     	jmp	$6ae5 <initTrack+0x4c2>
    66c7: a5 60        	lda	$60                     ; 0x2060 <main+0x1af6>
    66c9: 85 24        	sta	$24                     ; 0x2024 <main+0x1aba>
    66cb: a5 61        	lda	$61                     ; 0x2061 <main+0x1af7>
    66cd: 85 25        	sta	$25                     ; 0x2025 <main+0x1abb>
    66cf: 86 26        	stx	$26                     ; 0x2026 <main+0x1abc>
    66d1: 84 27        	sty	$27                     ; 0x2027 <main+0x1abd>
    66d3: 80 06        	bra	$66db <initTrack+0xb8>
    66d5: 85 25        	sta	$25                     ; 0x2025 <main+0x1abb>
    66d7: a5 27        	lda	$27                     ; 0x2027 <main+0x1abd>
    66d9: f0 32        	beq	$670d <initTrack+0xea>
    66db: a6 24        	ldx	$24                     ; 0x2024 <main+0x1aba>
    66dd: 86 12        	stx	$12                     ; 0x2012 <main+0x1aa8>
    66df: a6 25        	ldx	$25                     ; 0x2025 <main+0x1abb>
    66e1: 86 13        	stx	$13                     ; 0x2013 <main+0x1aa9>
    66e3: 64 14        	stz	$14                     ; 0x2014 <main+0x1aaa>
    66e5: a9 00        	lda	#$0
    66e7: a2 17        	ldx	#$17
    66e9: 20 51 82     	jsr	$8251 <__memset>
    66ec: a9 01        	lda	#$1
    66ee: a0 17        	ldy	#$17
    66f0: 91 24        	sta	($24),y                 ; 0x2024 <main+0x1aba>
    66f2: c8           	iny
    66f3: 3a           	dec
    66f4: 91 24        	sta	($24),y                 ; 0x2024 <main+0x1aba>
    66f6: a5 24        	lda	$24                     ; 0x2024 <main+0x1aba>
    66f8: 18           	clc
    66f9: 69 19        	adc	#$19
    66fb: 85 24        	sta	$24                     ; 0x2024 <main+0x1aba>
    66fd: a5 25        	lda	$25                     ; 0x2025 <main+0x1abb>
    66ff: 69 00        	adc	#$0
    6701: a2 ff        	ldx	#$ff
    6703: c6 26        	dec	$26                     ; 0x2026 <main+0x1abc>
    6705: e4 26        	cpx	$26                     ; 0x2026 <main+0x1abc>
    6707: d0 cc        	bne	$66d5 <initTrack+0xb2>
    6709: c6 27        	dec	$27                     ; 0x2027 <main+0x1abd>
    670b: 80 c8        	bra	$66d5 <initTrack+0xb2>
    670d: a5 26        	lda	$26                     ; 0x2026 <main+0x1abc>
    670f: d0 ca        	bne	$66db <initTrack+0xb8>
    6711: a2 0e        	ldx	#$e
    6713: 8a           	txa
    6714: a0 04        	ldy	#$4
    6716: 91 10        	sta	($10),y                 ; 0x2010 <main+0x1aa6>
    6718: 64 18        	stz	$18                     ; 0x2018 <main+0x1aae>
    671a: a2 08        	ldx	#$8
    671c: 8a           	txa
    671d: c8           	iny
    671e: 91 10        	sta	($10),y                 ; 0x2010 <main+0x1aa6>
    6720: 64 17        	stz	$17                     ; 0x2017 <main+0x1aad>
    6722: 64 16        	stz	$16                     ; 0x2016 <main+0x1aac>
    6724: a9 00        	lda	#$0
    6726: aa           	tax
    6727: 64 27        	stz	$27                     ; 0x2027 <main+0x1abd>
    6729: 85 12        	sta	$12                     ; 0x2012 <main+0x1aa8>
    672b: a4 16        	ldy	$16                     ; 0x2016 <main+0x1aac>
    672d: 84 13        	sty	$13                     ; 0x2013 <main+0x1aa9>
    672f: a4 17        	ldy	$17                     ; 0x2017 <main+0x1aad>
    6731: 84 14        	sty	$14                     ; 0x2014 <main+0x1aaa>
    6733: a0 04        	ldy	#$4
    6735: b1 10        	lda	($10),y                 ; 0x2010 <main+0x1aa6>
    6737: 85 15        	sta	$15                     ; 0x2015 <main+0x1aab>
    6739: 18           	clc
    673a: 69 04        	adc	#$4
    673c: 85 17        	sta	$17                     ; 0x2017 <main+0x1aad>
    673e: a5 14        	lda	$14                     ; 0x2014 <main+0x1aaa>
    6740: 69 00        	adc	#$0
    6742: 85 19        	sta	$19                     ; 0x2019 <main+0x1aaf>
    6744: a5 16        	lda	$16                     ; 0x2016 <main+0x1aac>
    6746: 69 05        	adc	#$5
    6748: a4 19        	ldy	$19                     ; 0x2019 <main+0x1aaf>
    674a: 84 16        	sty	$16                     ; 0x2016 <main+0x1aac>
    674c: 06 16        	asl	$16                     ; 0x2016 <main+0x1aac>
    674e: 2a           	rol
    674f: 06 16        	asl	$16                     ; 0x2016 <main+0x1aac>
    6751: 2a           	rol
    6752: 06 16        	asl	$16                     ; 0x2016 <main+0x1aac>
    6754: 2a           	rol
    6755: 86 1a        	stx	$1a                     ; 0x201a <main+0x1ab0>
    6757: a6 0f        	ldx	$f                      ; 0x200f <main+0x1aa5>
    6759: 78           	sei
    675a: 85 0f        	sta	$f                      ; 0x200f <main+0x1aa5>
    675c: a5 19        	lda	$19                     ; 0x2019 <main+0x1aaf>
    675e: 09 e0        	ora	#$e0
    6760: a4 17        	ldy	$17                     ; 0x2017 <main+0x1aad>
    6762: 84 16        	sty	$16                     ; 0x2016 <main+0x1aac>
    6764: 85 17        	sta	$17                     ; 0x2017 <main+0x1aad>
    6766: b2 16        	lda	($16)                   ; 0x2016 <main+0x1aac>
    6768: 85 1c        	sta	$1c                     ; 0x201c <main+0x1ab2>
    676a: 86 0f        	stx	$f                      ; 0x200f <main+0x1aa5>
    676c: 18           	clc
    676d: a5 15        	lda	$15                     ; 0x2015 <main+0x1aab>
    676f: 69 05        	adc	#$5
    6771: 85 17        	sta	$17                     ; 0x2017 <main+0x1aad>
    6773: a5 14        	lda	$14                     ; 0x2014 <main+0x1aaa>
    6775: 69 00        	adc	#$0
    6777: 85 19        	sta	$19                     ; 0x2019 <main+0x1aaf>
    6779: a5 13        	lda	$13                     ; 0x2013 <main+0x1aa9>
    677b: 69 05        	adc	#$5
    677d: a6 19        	ldx	$19                     ; 0x2019 <main+0x1aaf>
    677f: 86 16        	stx	$16                     ; 0x2016 <main+0x1aac>
    6781: 06 16        	asl	$16                     ; 0x2016 <main+0x1aac>
    6783: 2a           	rol
    6784: 06 16        	asl	$16                     ; 0x2016 <main+0x1aac>
    6786: 2a           	rol
    6787: 06 16        	asl	$16                     ; 0x2016 <main+0x1aac>
    6789: 2a           	rol
    678a: 58           	cli
    678b: a6 0f        	ldx	$f                      ; 0x200f <main+0x1aa5>
    678d: 78           	sei
    678e: 85 0f        	sta	$f                      ; 0x200f <main+0x1aa5>
    6790: a5 19        	lda	$19                     ; 0x2019 <main+0x1aaf>
    6792: 09 e0        	ora	#$e0
    6794: a4 17        	ldy	$17                     ; 0x2017 <main+0x1aad>
    6796: 84 16        	sty	$16                     ; 0x2016 <main+0x1aac>
    6798: 85 17        	sta	$17                     ; 0x2017 <main+0x1aad>
    679a: b2 16        	lda	($16)                   ; 0x2016 <main+0x1aac>
    679c: 85 1d        	sta	$1d                     ; 0x201d <main+0x1ab3>
    679e: 86 0f        	stx	$f                      ; 0x200f <main+0x1aa5>
    67a0: 18           	clc
    67a1: a5 15        	lda	$15                     ; 0x2015 <main+0x1aab>
    67a3: 69 06        	adc	#$6
    67a5: 85 17        	sta	$17                     ; 0x2017 <main+0x1aad>
    67a7: a5 14        	lda	$14                     ; 0x2014 <main+0x1aaa>
    67a9: 69 00        	adc	#$0
    67ab: 85 19        	sta	$19                     ; 0x2019 <main+0x1aaf>
    67ad: a5 13        	lda	$13                     ; 0x2013 <main+0x1aa9>
    67af: 69 05        	adc	#$5
    67b1: a6 19        	ldx	$19                     ; 0x2019 <main+0x1aaf>
    67b3: 86 16        	stx	$16                     ; 0x2016 <main+0x1aac>
    67b5: 06 16        	asl	$16                     ; 0x2016 <main+0x1aac>
    67b7: 2a           	rol
    67b8: 06 16        	asl	$16                     ; 0x2016 <main+0x1aac>
    67ba: 2a           	rol
    67bb: 06 16        	asl	$16                     ; 0x2016 <main+0x1aac>
    67bd: 2a           	rol
    67be: 58           	cli
    67bf: a6 0f        	ldx	$f                      ; 0x200f <main+0x1aa5>
    67c1: 78           	sei
    67c2: 85 0f        	sta	$f                      ; 0x200f <main+0x1aa5>
    67c4: a4 17        	ldy	$17                     ; 0x2017 <main+0x1aad>
    67c6: 84 16        	sty	$16                     ; 0x2016 <main+0x1aac>
    67c8: a5 19        	lda	$19                     ; 0x2019 <main+0x1aaf>
    67ca: 09 e0        	ora	#$e0
    67cc: 85 17        	sta	$17                     ; 0x2017 <main+0x1aad>
    67ce: b2 16        	lda	($16)                   ; 0x2016 <main+0x1aac>
    67d0: 85 1e        	sta	$1e                     ; 0x201e <main+0x1ab4>
    67d2: 86 0f        	stx	$f                      ; 0x200f <main+0x1aa5>
    67d4: 18           	clc
    67d5: a5 15        	lda	$15                     ; 0x2015 <main+0x1aab>
    67d7: 69 07        	adc	#$7
    67d9: 85 17        	sta	$17                     ; 0x2017 <main+0x1aad>
    67db: a5 14        	lda	$14                     ; 0x2014 <main+0x1aaa>
    67dd: 69 00        	adc	#$0
    67df: 85 19        	sta	$19                     ; 0x2019 <main+0x1aaf>
    67e1: a5 13        	lda	$13                     ; 0x2013 <main+0x1aa9>
    67e3: 69 05        	adc	#$5
    67e5: a6 19        	ldx	$19                     ; 0x2019 <main+0x1aaf>
    67e7: 86 16        	stx	$16                     ; 0x2016 <main+0x1aac>
    67e9: 06 16        	asl	$16                     ; 0x2016 <main+0x1aac>
    67eb: 2a           	rol
    67ec: 06 16        	asl	$16                     ; 0x2016 <main+0x1aac>
    67ee: 2a           	rol
    67ef: 06 16        	asl	$16                     ; 0x2016 <main+0x1aac>
    67f1: 2a           	rol
    67f2: 58           	cli
    67f3: a6 0f        	ldx	$f                      ; 0x200f <main+0x1aa5>
    67f5: 78           	sei
    67f6: 85 0f        	sta	$f                      ; 0x200f <main+0x1aa5>
    67f8: a4 17        	ldy	$17                     ; 0x2017 <main+0x1aad>
    67fa: 84 16        	sty	$16                     ; 0x2016 <main+0x1aac>
    67fc: a5 19        	lda	$19                     ; 0x2019 <main+0x1aaf>
    67fe: 09 e0        	ora	#$e0
    6800: 85 17        	sta	$17                     ; 0x2017 <main+0x1aad>
    6802: b2 16        	lda	($16)                   ; 0x2016 <main+0x1aac>
    6804: 85 23        	sta	$23                     ; 0x2023 <main+0x1ab9>
    6806: 86 0f        	stx	$f                      ; 0x200f <main+0x1aa5>
    6808: 58           	cli
    6809: a6 60        	ldx	$60                     ; 0x2060 <main+0x1af6>
    680b: 86 24        	stx	$24                     ; 0x2024 <main+0x1aba>
    680d: a6 61        	ldx	$61                     ; 0x2061 <main+0x1af7>
    680f: 86 25        	stx	$25                     ; 0x2025 <main+0x1abb>
    6811: 18           	clc
    6812: a0 05        	ldy	#$5
    6814: b1 10        	lda	($10),y                 ; 0x2010 <main+0x1aa6>
    6816: 85 22        	sta	$22                     ; 0x2022 <main+0x1ab8>
    6818: 65 60        	adc	$60                     ; 0x2060 <main+0x1af6>
    681a: aa           	tax
    681b: a4 18        	ldy	$18                     ; 0x2018 <main+0x1aae>
    681d: 84 1f        	sty	$1f                     ; 0x201f <main+0x1ab5>
    681f: a5 18        	lda	$18                     ; 0x2018 <main+0x1aae>
    6821: 65 61        	adc	$61                     ; 0x2061 <main+0x1af7>
    6823: 86 16        	stx	$16                     ; 0x2016 <main+0x1aac>
    6825: 85 17        	sta	$17                     ; 0x2017 <main+0x1aad>
    6827: 85 19        	sta	$19                     ; 0x2019 <main+0x1aaf>
    6829: 18           	clc
    682a: 8a           	txa
    682b: 69 f8        	adc	#$f8
    682d: 85 18        	sta	$18                     ; 0x2018 <main+0x1aae>
    682f: a5 19        	lda	$19                     ; 0x2019 <main+0x1aaf>
    6831: 69 ff        	adc	#$ff
    6833: 85 19        	sta	$19                     ; 0x2019 <main+0x1aaf>
    6835: 18           	clc
    6836: a5 15        	lda	$15                     ; 0x2015 <main+0x1aab>
    6838: 69 08        	adc	#$8
    683a: aa           	tax
    683b: a5 14        	lda	$14                     ; 0x2014 <main+0x1aaa>
    683d: 69 00        	adc	#$0
    683f: 85 1b        	sta	$1b                     ; 0x201b <main+0x1ab1>
    6841: a5 13        	lda	$13                     ; 0x2013 <main+0x1aa9>
    6843: 69 05        	adc	#$5
    6845: 85 26        	sta	$26                     ; 0x2026 <main+0x1abc>
    6847: a5 12        	lda	$12                     ; 0x2012 <main+0x1aa8>
    6849: 69 00        	adc	#$0
    684b: 85 28        	sta	$28                     ; 0x2028 <main+0x1abe>
    684d: 8a           	txa
    684e: 92 16        	sta	($16)                   ; 0x2016 <main+0x1aac>
    6850: a0 01        	ldy	#$1
    6852: a5 1b        	lda	$1b                     ; 0x201b <main+0x1ab1>
    6854: 91 16        	sta	($16),y                 ; 0x2016 <main+0x1aac>
    6856: c8           	iny
    6857: a5 26        	lda	$26                     ; 0x2026 <main+0x1abc>
    6859: 91 16        	sta	($16),y                 ; 0x2016 <main+0x1aac>
    685b: c8           	iny
    685c: a5 28        	lda	$28                     ; 0x2028 <main+0x1abe>
    685e: 91 16        	sta	($16),y                 ; 0x2016 <main+0x1aac>
    6860: a5 23        	lda	$23                     ; 0x2023 <main+0x1ab9>
    6862: 92 18        	sta	($18)                   ; 0x2018 <main+0x1aae>
    6864: a5 1e        	lda	$1e                     ; 0x201e <main+0x1ab4>
    6866: a0 01        	ldy	#$1
    6868: 91 18        	sta	($18),y                 ; 0x2018 <main+0x1aae>
    686a: a5 1d        	lda	$1d                     ; 0x201d <main+0x1ab3>
    686c: c8           	iny
    686d: 91 18        	sta	($18),y                 ; 0x2018 <main+0x1aae>
    686f: a5 1c        	lda	$1c                     ; 0x201c <main+0x1ab2>
    6871: c8           	iny
    6872: 91 18        	sta	($18),y                 ; 0x2018 <main+0x1aae>
    6874: 85 16        	sta	$16                     ; 0x2016 <main+0x1aac>
    6876: 18           	clc
    6877: a5 23        	lda	$23                     ; 0x2023 <main+0x1ab9>
    6879: 65 15        	adc	$15                     ; 0x2015 <main+0x1aab>
    687b: 85 15        	sta	$15                     ; 0x2015 <main+0x1aab>
    687d: a5 1e        	lda	$1e                     ; 0x201e <main+0x1ab4>
    687f: 65 14        	adc	$14                     ; 0x2014 <main+0x1aaa>
    6881: a8           	tay
    6882: a5 1d        	lda	$1d                     ; 0x201d <main+0x1ab3>
    6884: 65 13        	adc	$13                     ; 0x2013 <main+0x1aa9>
    6886: aa           	tax
    6887: a5 16        	lda	$16                     ; 0x2016 <main+0x1aac>
    6889: 65 12        	adc	$12                     ; 0x2012 <main+0x1aa8>
    688b: 85 14        	sta	$14                     ; 0x2014 <main+0x1aaa>
    688d: 18           	clc
    688e: a5 15        	lda	$15                     ; 0x2015 <main+0x1aab>
    6890: 69 08        	adc	#$8
    6892: 5a           	phy
    6893: a0 04        	ldy	#$4
    6895: 91 10        	sta	($10),y                 ; 0x2010 <main+0x1aa6>
    6897: 7a           	ply
    6898: 98           	tya
    6899: 69 00        	adc	#$0
    689b: 85 17        	sta	$17                     ; 0x2017 <main+0x1aad>
    689d: 8a           	txa
    689e: 69 00        	adc	#$0
    68a0: 85 16        	sta	$16                     ; 0x2016 <main+0x1aac>
    68a2: a5 14        	lda	$14                     ; 0x2014 <main+0x1aaa>
    68a4: 69 00        	adc	#$0
    68a6: 85 13        	sta	$13                     ; 0x2013 <main+0x1aa9>
    68a8: a4 27        	ldy	$27                     ; 0x2027 <main+0x1abd>
    68aa: a6 1a        	ldx	$1a                     ; 0x201a <main+0x1ab0>
    68ac: e8           	inx
    68ad: d0 01        	bne	$68b0 <initTrack+0x28d>
    68af: c8           	iny
    68b0: a5 4f        	lda	$4f                     ; 0x204f <main+0x1ae5>
    68b2: 85 12        	sta	$12                     ; 0x2012 <main+0x1aa8>
    68b4: 18           	clc
    68b5: a5 22        	lda	$22                     ; 0x2022 <main+0x1ab8>
    68b7: 69 19        	adc	#$19
    68b9: 5a           	phy
    68ba: a0 05        	ldy	#$5
    68bc: 91 10        	sta	($10),y                 ; 0x2010 <main+0x1aa6>
    68be: 7a           	ply
    68bf: a5 1f        	lda	$1f                     ; 0x201f <main+0x1ab5>
    68c1: 69 00        	adc	#$0
    68c3: 85 18        	sta	$18                     ; 0x2018 <main+0x1aae>
    68c5: 84 27        	sty	$27                     ; 0x2027 <main+0x1abd>
    68c7: c4 50        	cpy	$50                     ; 0x2050 <main+0x1ae6>
    68c9: d0 09        	bne	$68d4 <initTrack+0x2b1>
    68cb: e4 12        	cpx	$12                     ; 0x2012 <main+0x1aa8>
    68cd: a5 13        	lda	$13                     ; 0x2013 <main+0x1aa9>
    68cf: b0 0c        	bcs	$68dd <initTrack+0x2ba>
    68d1: 4c 29 67     	jmp	$6729 <initTrack+0x106>
    68d4: c4 50        	cpy	$50                     ; 0x2050 <main+0x1ae6>
    68d6: a5 13        	lda	$13                     ; 0x2013 <main+0x1aa9>
    68d8: b0 03        	bcs	$68dd <initTrack+0x2ba>
    68da: 4c 29 67     	jmp	$6729 <initTrack+0x106>
    68dd: a6 50        	ldx	$50                     ; 0x2050 <main+0x1ae6>
    68df: d0 07        	bne	$68e8 <initTrack+0x2c5>
    68e1: a5 12        	lda	$12                     ; 0x2012 <main+0x1aa8>
    68e3: d0 03        	bne	$68e8 <initTrack+0x2c5>
    68e5: 4c e5 6a     	jmp	$6ae5 <initTrack+0x4c2>
    68e8: a2 00        	ldx	#$0
    68ea: 64 27        	stz	$27                     ; 0x2027 <main+0x1abd>
    68ec: a0 00        	ldy	#$0
    68ee: 64 29        	stz	$29                     ; 0x2029 <main+0x1abf>
    68f0: 84 28        	sty	$28                     ; 0x2028 <main+0x1abe>
    68f2: 8a           	txa
    68f3: 18           	clc
    68f4: 65 24        	adc	$24                     ; 0x2024 <main+0x1aba>
    68f6: 85 12        	sta	$12                     ; 0x2012 <main+0x1aa8>
    68f8: a5 27        	lda	$27                     ; 0x2027 <main+0x1abd>
    68fa: 65 25        	adc	$25                     ; 0x2025 <main+0x1abb>
    68fc: 85 13        	sta	$13                     ; 0x2013 <main+0x1aa9>
    68fe: a0 18        	ldy	#$18
    6900: b1 12        	lda	($12),y                 ; 0x2012 <main+0x1aa8>
    6902: f0 35        	beq	$6939 <initTrack+0x316>
    6904: 86 26        	stx	$26                     ; 0x2026 <main+0x1abc>
    6906: a4 28        	ldy	$28                     ; 0x2028 <main+0x1abe>
    6908: a6 29        	ldx	$29                     ; 0x2029 <main+0x1abf>
    690a: c8           	iny
    690b: d0 01        	bne	$690e <initTrack+0x2eb>
    690d: e8           	inx
    690e: 18           	clc
    690f: a5 26        	lda	$26                     ; 0x2026 <main+0x1abc>
    6911: 69 19        	adc	#$19
    6913: 85 13        	sta	$13                     ; 0x2013 <main+0x1aa9>
    6915: a5 27        	lda	$27                     ; 0x2027 <main+0x1abd>
    6917: 69 00        	adc	#$0
    6919: 85 27        	sta	$27                     ; 0x2027 <main+0x1abd>
    691b: e4 50        	cpx	$50                     ; 0x2050 <main+0x1ae6>
    691d: d0 0f        	bne	$692e <initTrack+0x30b>
    691f: 86 29        	stx	$29                     ; 0x2029 <main+0x1abf>
    6921: a6 4f        	ldx	$4f                     ; 0x204f <main+0x1ae5>
    6923: 86 12        	stx	$12                     ; 0x2012 <main+0x1aa8>
    6925: c4 12        	cpy	$12                     ; 0x2012 <main+0x1aa8>
    6927: a6 13        	ldx	$13                     ; 0x2013 <main+0x1aa9>
    6929: 90 c5        	bcc	$68f0 <initTrack+0x2cd>
    692b: 4c e5 6a     	jmp	$6ae5 <initTrack+0x4c2>
    692e: 86 29        	stx	$29                     ; 0x2029 <main+0x1abf>
    6930: e4 50        	cpx	$50                     ; 0x2050 <main+0x1ae6>
    6932: a6 13        	ldx	$13                     ; 0x2013 <main+0x1aa9>
    6934: 90 ba        	bcc	$68f0 <initTrack+0x2cd>
    6936: 4c e5 6a     	jmp	$6ae5 <initTrack+0x4c2>
    6939: 86 26        	stx	$26                     ; 0x2026 <main+0x1abc>
    693b: 8a           	txa
    693c: 18           	clc
    693d: 65 24        	adc	$24                     ; 0x2024 <main+0x1aba>
    693f: aa           	tax
    6940: a5 27        	lda	$27                     ; 0x2027 <main+0x1abd>
    6942: 65 25        	adc	$25                     ; 0x2025 <main+0x1abb>
    6944: a8           	tay
    6945: 18           	clc
    6946: 8a           	txa
    6947: 69 04        	adc	#$4
    6949: 85 14        	sta	$14                     ; 0x2014 <main+0x1aaa>
    694b: 98           	tya
    694c: 84 18        	sty	$18                     ; 0x2018 <main+0x1aae>
    694e: 69 00        	adc	#$0
    6950: 85 15        	sta	$15                     ; 0x2015 <main+0x1aab>
    6952: a0 03        	ldy	#$3
    6954: b1 14        	lda	($14),y                 ; 0x2014 <main+0x1aaa>
    6956: d1 12        	cmp	($12),y                 ; 0x2012 <main+0x1aa8>
    6958: d0 33        	bne	$698d <initTrack+0x36a>
    695a: 86 17        	stx	$17                     ; 0x2017 <main+0x1aad>
    695c: a0 02        	ldy	#$2
    695e: b1 14        	lda	($14),y                 ; 0x2014 <main+0x1aaa>
    6960: 85 19        	sta	$19                     ; 0x2019 <main+0x1aaf>
    6962: b1 12        	lda	($12),y                 ; 0x2012 <main+0x1aa8>
    6964: 85 16        	sta	$16                     ; 0x2016 <main+0x1aac>
    6966: a4 19        	ldy	$19                     ; 0x2019 <main+0x1aaf>
    6968: a6 29        	ldx	$29                     ; 0x2029 <main+0x1abf>
    696a: c4 16        	cpy	$16                     ; 0x2016 <main+0x1aac>
    696c: f0 03        	beq	$6971 <initTrack+0x34e>
    696e: 4c ff 69     	jmp	$69ff <initTrack+0x3dc>
    6971: a0 01        	ldy	#$1
    6973: b1 14        	lda	($14),y                 ; 0x2014 <main+0x1aaa>
    6975: 85 15        	sta	$15                     ; 0x2015 <main+0x1aab>
    6977: b1 12        	lda	($12),y                 ; 0x2012 <main+0x1aa8>
    6979: 85 14        	sta	$14                     ; 0x2014 <main+0x1aaa>
    697b: a4 15        	ldy	$15                     ; 0x2015 <main+0x1aab>
    697d: c4 14        	cpy	$14                     ; 0x2014 <main+0x1aaa>
    697f: d0 03        	bne	$6984 <initTrack+0x361>
    6981: 4c 0a 6b     	jmp	$6b0a <initTrack+0x4e7>
    6984: c4 14        	cpy	$14                     ; 0x2014 <main+0x1aaa>
    6986: a4 28        	ldy	$28                     ; 0x2028 <main+0x1abe>
    6988: 90 0e        	bcc	$6998 <initTrack+0x375>
    698a: 4c 08 6a     	jmp	$6a08 <initTrack+0x3e5>
    698d: d1 12        	cmp	($12),y                 ; 0x2012 <main+0x1aa8>
    698f: a4 28        	ldy	$28                     ; 0x2028 <main+0x1abe>
    6991: a6 29        	ldx	$29                     ; 0x2029 <main+0x1abf>
    6993: 90 03        	bcc	$6998 <initTrack+0x375>
    6995: 4c 08 6a     	jmp	$6a08 <initTrack+0x3e5>
    6998: 64 38        	stz	$38                     ; 0x2038 <main+0x1ace>
    699a: 9c 14 d0     	stz	$d014                   ; 0xd014 <__heap_start+0x2a80>
    699d: 9c 15 d0     	stz	$d015                   ; 0xd015 <__heap_start+0x2a81>
    69a0: 98           	tya
    69a1: 18           	clc
    69a2: 69 0f        	adc	#$f
    69a4: 85 39        	sta	$39                     ; 0x2039 <main+0x1acf>
    69a6: 8d 16 d0     	sta	$d016                   ; 0xd016 <__heap_start+0x2a82>
    69a9: 9c 17 d0     	stz	$d017                   ; 0xd017 <__heap_start+0x2a83>
    69ac: a6 60        	ldx	$60                     ; 0x2060 <main+0x1af6>
    69ae: 86 25        	stx	$25                     ; 0x2025 <main+0x1abb>
    69b0: a6 61        	ldx	$61                     ; 0x2061 <main+0x1af7>
    69b2: 86 24        	stx	$24                     ; 0x2024 <main+0x1aba>
    69b4: a2 19        	ldx	#$19
    69b6: 86 12        	stx	$12                     ; 0x2012 <main+0x1aa8>
    69b8: 64 13        	stz	$13                     ; 0x2013 <main+0x1aa9>
    69ba: a2 00        	ldx	#$0
    69bc: 98           	tya
    69bd: 20 7c 82     	jsr	$827c <__mulhi3>
    69c0: 85 12        	sta	$12                     ; 0x2012 <main+0x1aa8>
    69c2: 86 13        	stx	$13                     ; 0x2013 <main+0x1aa9>
    69c4: a6 25        	ldx	$25                     ; 0x2025 <main+0x1abb>
    69c6: 86 17        	stx	$17                     ; 0x2017 <main+0x1aad>
    69c8: a5 25        	lda	$25                     ; 0x2025 <main+0x1abb>
    69ca: 18           	clc
    69cb: 65 12        	adc	$12                     ; 0x2012 <main+0x1aa8>
    69cd: aa           	tax
    69ce: a5 24        	lda	$24                     ; 0x2024 <main+0x1aba>
    69d0: 85 18        	sta	$18                     ; 0x2018 <main+0x1aae>
    69d2: 65 13        	adc	$13                     ; 0x2013 <main+0x1aa9>
    69d4: 86 12        	stx	$12                     ; 0x2012 <main+0x1aa8>
    69d6: 85 13        	sta	$13                     ; 0x2013 <main+0x1aa9>
    69d8: a8           	tay
    69d9: 18           	clc
    69da: 8a           	txa
    69db: 69 04        	adc	#$4
    69dd: 85 14        	sta	$14                     ; 0x2014 <main+0x1aaa>
    69df: 98           	tya
    69e0: 69 00        	adc	#$0
    69e2: 85 15        	sta	$15                     ; 0x2015 <main+0x1aab>
    69e4: a0 03        	ldy	#$3
    69e6: b1 14        	lda	($14),y                 ; 0x2014 <main+0x1aaa>
    69e8: d1 12        	cmp	($12),y                 ; 0x2012 <main+0x1aa8>
    69ea: d0 2f        	bne	$6a1b <initTrack+0x3f8>
    69ec: a0 02        	ldy	#$2
    69ee: b1 14        	lda	($14),y                 ; 0x2014 <main+0x1aaa>
    69f0: aa           	tax
    69f1: b1 12        	lda	($12),y                 ; 0x2012 <main+0x1aa8>
    69f3: 85 16        	sta	$16                     ; 0x2016 <main+0x1aac>
    69f5: e4 16        	cpx	$16                     ; 0x2016 <main+0x1aac>
    69f7: f0 03        	beq	$69fc <initTrack+0x3d9>
    69f9: 4c 3f 6b     	jmp	$6b3f <initTrack+0x51c>
    69fc: 4c 21 6b     	jmp	$6b21 <initTrack+0x4fe>
    69ff: c4 16        	cpy	$16                     ; 0x2016 <main+0x1aac>
    6a01: a4 28        	ldy	$28                     ; 0x2028 <main+0x1abe>
    6a03: b0 03        	bcs	$6a08 <initTrack+0x3e5>
    6a05: 4c 98 69     	jmp	$6998 <initTrack+0x375>
    6a08: 84 14        	sty	$14                     ; 0x2014 <main+0x1aaa>
    6a0a: a9 01        	lda	#$1
    6a0c: a0 18        	ldy	#$18
    6a0e: 91 12        	sta	($12),y                 ; 0x2012 <main+0x1aa8>
    6a10: a4 14        	ldy	$14                     ; 0x2014 <main+0x1aaa>
    6a12: c8           	iny
    6a13: f0 03        	beq	$6a18 <initTrack+0x3f5>
    6a15: 4c 0e 69     	jmp	$690e <initTrack+0x2eb>
    6a18: 4c 0d 69     	jmp	$690d <initTrack+0x2ea>
    6a1b: d1 12        	cmp	($12),y                 ; 0x2012 <main+0x1aa8>
    6a1d: a5 28        	lda	$28                     ; 0x2028 <main+0x1abe>
    6a1f: 90 44        	bcc	$6a65 <initTrack+0x442>
    6a21: a6 17        	ldx	$17                     ; 0x2017 <main+0x1aad>
    6a23: 48           	pha
    6a24: 8a           	txa
    6a25: a0 04        	ldy	#$4
    6a27: 91 10        	sta	($10),y                 ; 0x2010 <main+0x1aa6>
    6a29: 86 24        	stx	$24                     ; 0x2024 <main+0x1aba>
    6a2b: a6 18        	ldx	$18                     ; 0x2018 <main+0x1aae>
    6a2d: 8a           	txa
    6a2e: c8           	iny
    6a2f: 91 10        	sta	($10),y                 ; 0x2010 <main+0x1aa6>
    6a31: 68           	pla
    6a32: 86 25        	stx	$25                     ; 0x2025 <main+0x1abb>
    6a34: a2 19        	ldx	#$19
    6a36: 86 12        	stx	$12                     ; 0x2012 <main+0x1aa8>
    6a38: 64 13        	stz	$13                     ; 0x2013 <main+0x1aa9>
    6a3a: a2 00        	ldx	#$0
    6a3c: 20 7c 82     	jsr	$827c <__mulhi3>
    6a3f: 85 12        	sta	$12                     ; 0x2012 <main+0x1aa8>
    6a41: 86 13        	stx	$13                     ; 0x2013 <main+0x1aa9>
    6a43: 18           	clc
    6a44: a0 04        	ldy	#$4
    6a46: b1 10        	lda	($10),y                 ; 0x2010 <main+0x1aa6>
    6a48: 65 12        	adc	$12                     ; 0x2012 <main+0x1aa8>
    6a4a: 85 12        	sta	$12                     ; 0x2012 <main+0x1aa8>
    6a4c: c8           	iny
    6a4d: b1 10        	lda	($10),y                 ; 0x2010 <main+0x1aa6>
    6a4f: 65 13        	adc	$13                     ; 0x2013 <main+0x1aa9>
    6a51: 85 13        	sta	$13                     ; 0x2013 <main+0x1aa9>
    6a53: a0 18        	ldy	#$18
    6a55: a9 01        	lda	#$1
    6a57: 91 12        	sta	($12),y                 ; 0x2012 <main+0x1aa8>
    6a59: a4 28        	ldy	$28                     ; 0x2028 <main+0x1abe>
    6a5b: e6 5e        	inc	$5e                     ; 0x205e <main+0x1af4>
    6a5d: f0 03        	beq	$6a62 <initTrack+0x43f>
    6a5f: 4c 08 69     	jmp	$6908 <initTrack+0x2e5>
    6a62: 4c 44 6b     	jmp	$6b44 <initTrack+0x521>
    6a65: 20 8e 55     	jsr	$558e <readDelta>
    6a68: a0 02        	ldy	#$2
    6a6a: 91 10        	sta	($10),y                 ; 0x2010 <main+0x1aa6>
    6a6c: 8a           	txa
    6a6d: c8           	iny
    6a6e: 91 10        	sta	($10),y                 ; 0x2010 <main+0x1aa6>
    6a70: a5 12        	lda	$12                     ; 0x2012 <main+0x1aa8>
    6a72: a0 05        	ldy	#$5
    6a74: 91 10        	sta	($10),y                 ; 0x2010 <main+0x1aa6>
    6a76: a5 13        	lda	$13                     ; 0x2013 <main+0x1aa9>
    6a78: 88           	dey
    6a79: 91 10        	sta	($10),y                 ; 0x2010 <main+0x1aa6>
    6a7b: a6 60        	ldx	$60                     ; 0x2060 <main+0x1af6>
    6a7d: 86 24        	stx	$24                     ; 0x2024 <main+0x1aba>
    6a7f: a6 61        	ldx	$61                     ; 0x2061 <main+0x1af7>
    6a81: 86 25        	stx	$25                     ; 0x2025 <main+0x1abb>
    6a83: a2 19        	ldx	#$19
    6a85: 86 12        	stx	$12                     ; 0x2012 <main+0x1aa8>
    6a87: 64 13        	stz	$13                     ; 0x2013 <main+0x1aa9>
    6a89: a2 00        	ldx	#$0
    6a8b: a5 28        	lda	$28                     ; 0x2028 <main+0x1abe>
    6a8d: 20 7c 82     	jsr	$827c <__mulhi3>
    6a90: 85 12        	sta	$12                     ; 0x2012 <main+0x1aa8>
    6a92: 86 13        	stx	$13                     ; 0x2013 <main+0x1aa9>
    6a94: 18           	clc
    6a95: a5 24        	lda	$24                     ; 0x2024 <main+0x1aba>
    6a97: 65 12        	adc	$12                     ; 0x2012 <main+0x1aa8>
    6a99: a8           	tay
    6a9a: a5 25        	lda	$25                     ; 0x2025 <main+0x1abb>
    6a9c: 65 13        	adc	$13                     ; 0x2013 <main+0x1aa9>
    6a9e: aa           	tax
    6a9f: 98           	tya
    6aa0: 84 12        	sty	$12                     ; 0x2012 <main+0x1aa8>
    6aa2: 86 13        	stx	$13                     ; 0x2013 <main+0x1aa9>
    6aa4: 18           	clc
    6aa5: 69 0c        	adc	#$c
    6aa7: 85 14        	sta	$14                     ; 0x2014 <main+0x1aaa>
    6aa9: 8a           	txa
    6aaa: 69 00        	adc	#$0
    6aac: 85 15        	sta	$15                     ; 0x2015 <main+0x1aab>
    6aae: a0 0c        	ldy	#$c
    6ab0: 5a           	phy
    6ab1: a0 02        	ldy	#$2
    6ab3: b1 10        	lda	($10),y                 ; 0x2010 <main+0x1aa6>
    6ab5: 7a           	ply
    6ab6: 91 12        	sta	($12),y                 ; 0x2012 <main+0x1aa8>
    6ab8: a0 01        	ldy	#$1
    6aba: 5a           	phy
    6abb: a0 03        	ldy	#$3
    6abd: b1 10        	lda	($10),y                 ; 0x2010 <main+0x1aa6>
    6abf: 7a           	ply
    6ac0: 91 14        	sta	($14),y                 ; 0x2014 <main+0x1aaa>
    6ac2: a0 02        	ldy	#$2
    6ac4: 5a           	phy
    6ac5: a0 05        	ldy	#$5
    6ac7: b1 10        	lda	($10),y                 ; 0x2010 <main+0x1aa6>
    6ac9: 7a           	ply
    6aca: 91 14        	sta	($14),y                 ; 0x2014 <main+0x1aaa>
    6acc: a0 03        	ldy	#$3
    6ace: 5a           	phy
    6acf: c8           	iny
    6ad0: b1 10        	lda	($10),y                 ; 0x2010 <main+0x1aa6>
    6ad2: 7a           	ply
    6ad3: 91 14        	sta	($14),y                 ; 0x2014 <main+0x1aaa>
    6ad5: a5 28        	lda	$28                     ; 0x2028 <main+0x1abe>
    6ad7: 20 fe 59     	jsr	$59fe <readMIDICmd>
    6ada: a6 60        	ldx	$60                     ; 0x2060 <main+0x1af6>
    6adc: a4 61        	ldy	$61                     ; 0x2061 <main+0x1af7>
    6ade: 86 24        	stx	$24                     ; 0x2024 <main+0x1aba>
    6ae0: 84 25        	sty	$25                     ; 0x2025 <main+0x1abb>
    6ae2: 4c 06 69     	jmp	$6906 <initTrack+0x2e3>
    6ae5: a0 00        	ldy	#$0
    6ae7: b1 10        	lda	($10),y                 ; 0x2010 <main+0x1aa6>
    6ae9: 85 29        	sta	$29                     ; 0x2029 <main+0x1abf>
    6aeb: c8           	iny
    6aec: b1 10        	lda	($10),y                 ; 0x2010 <main+0x1aa6>
    6aee: 85 28        	sta	$28                     ; 0x2028 <main+0x1abe>
    6af0: fa           	plx
    6af1: 86 27        	stx	$27                     ; 0x2027 <main+0x1abd>
    6af3: fa           	plx
    6af4: 86 26        	stx	$26                     ; 0x2026 <main+0x1abc>
    6af6: fa           	plx
    6af7: 86 25        	stx	$25                     ; 0x2025 <main+0x1abb>
    6af9: fa           	plx
    6afa: 86 24        	stx	$24                     ; 0x2024 <main+0x1aba>
    6afc: 18           	clc
    6afd: a5 10        	lda	$10                     ; 0x2010 <main+0x1aa6>
    6aff: 69 06        	adc	#$6
    6b01: 85 10        	sta	$10                     ; 0x2010 <main+0x1aa6>
    6b03: a5 11        	lda	$11                     ; 0x2011 <main+0x1aa7>
    6b05: 69 00        	adc	#$0
    6b07: 85 11        	sta	$11                     ; 0x2011 <main+0x1aa7>
    6b09: 60           	rts
    6b0a: a4 17        	ldy	$17                     ; 0x2017 <main+0x1aad>
    6b0c: 84 14        	sty	$14                     ; 0x2014 <main+0x1aaa>
    6b0e: a4 18        	ldy	$18                     ; 0x2018 <main+0x1aae>
    6b10: 84 15        	sty	$15                     ; 0x2015 <main+0x1aab>
    6b12: a0 04        	ldy	#$4
    6b14: b1 14        	lda	($14),y                 ; 0x2014 <main+0x1aaa>
    6b16: 85 15        	sta	$15                     ; 0x2015 <main+0x1aab>
    6b18: b2 12        	lda	($12)                   ; 0x2012 <main+0x1aa8>
    6b1a: 85 14        	sta	$14                     ; 0x2014 <main+0x1aaa>
    6b1c: a4 15        	ldy	$15                     ; 0x2015 <main+0x1aab>
    6b1e: 4c 84 69     	jmp	$6984 <initTrack+0x361>
    6b21: a0 01        	ldy	#$1
    6b23: b1 14        	lda	($14),y                 ; 0x2014 <main+0x1aaa>
    6b25: aa           	tax
    6b26: b1 12        	lda	($12),y                 ; 0x2012 <main+0x1aa8>
    6b28: 85 14        	sta	$14                     ; 0x2014 <main+0x1aaa>
    6b2a: e4 14        	cpx	$14                     ; 0x2014 <main+0x1aaa>
    6b2c: d0 1b        	bne	$6b49 <initTrack+0x526>
    6b2e: a0 04        	ldy	#$4
    6b30: b1 12        	lda	($12),y                 ; 0x2012 <main+0x1aa8>
    6b32: 85 14        	sta	$14                     ; 0x2014 <main+0x1aaa>
    6b34: b2 12        	lda	($12)                   ; 0x2012 <main+0x1aa8>
    6b36: 85 12        	sta	$12                     ; 0x2012 <main+0x1aa8>
    6b38: a6 14        	ldx	$14                     ; 0x2014 <main+0x1aaa>
    6b3a: e4 12        	cpx	$12                     ; 0x2012 <main+0x1aa8>
    6b3c: 4c 1d 6a     	jmp	$6a1d <initTrack+0x3fa>
    6b3f: e4 16        	cpx	$16                     ; 0x2016 <main+0x1aac>
    6b41: 4c 1d 6a     	jmp	$6a1d <initTrack+0x3fa>
    6b44: e6 5f        	inc	$5f                     ; 0x205f <main+0x1af5>
    6b46: 4c 08 69     	jmp	$6908 <initTrack+0x2e5>
    6b49: e4 14        	cpx	$14                     ; 0x2014 <main+0x1aaa>
    6b4b: 4c 1d 6a     	jmp	$6a1d <initTrack+0x3fa>

00006b4e <displayInfo>:
    6b4e: 18           	clc
    6b4f: a5 10        	lda	$10                     ; 0x2010 <main+0x1aa6>
    6b51: 69 fe        	adc	#$fe
    6b53: 85 10        	sta	$10                     ; 0x2010 <main+0x1aa6>
    6b55: a5 11        	lda	$11                     ; 0x2011 <main+0x1aa7>
    6b57: 69 ff        	adc	#$ff
    6b59: 85 11        	sta	$11                     ; 0x2011 <main+0x1aa7>
    6b5b: 64 38        	stz	$38                     ; 0x2038 <main+0x1ace>
    6b5d: 9c 14 d0     	stz	$d014                   ; 0xd014 <__heap_start+0x2a80>
    6b60: 9c 15 d0     	stz	$d015                   ; 0xd015 <__heap_start+0x2a81>
    6b63: a2 19        	ldx	#$19
    6b65: 86 39        	stx	$39                     ; 0x2039 <main+0x1acf>
    6b67: 8e 16 d0     	stx	$d016                   ; 0xd016 <__heap_start+0x2a82>
    6b6a: 9c 17 d0     	stz	$d017                   ; 0xd017 <__heap_start+0x2a83>
    6b6d: a2 16        	ldx	#$16
    6b6f: 86 12        	stx	$12                     ; 0x2012 <main+0x1aa8>
    6b71: a2 8b        	ldx	#$8b
    6b73: 86 13        	stx	$13                     ; 0x2013 <main+0x1aa9>
    6b75: 20 84 31     	jsr	$3184 <textPrint>
    6b78: a2 01        	ldx	#$1
    6b7a: 86 38        	stx	$38                     ; 0x2038 <main+0x1ace>
    6b7c: 8e 14 d0     	stx	$d014                   ; 0xd014 <__heap_start+0x2a80>
    6b7f: 9c 15 d0     	stz	$d015                   ; 0xd015 <__heap_start+0x2a81>
    6b82: 86 39        	stx	$39                     ; 0x2039 <main+0x1acf>
    6b84: 8e 16 d0     	stx	$d016                   ; 0xd016 <__heap_start+0x2a82>
    6b87: 9c 17 d0     	stz	$d017                   ; 0xd017 <__heap_start+0x2a83>
    6b8a: a2 10        	ldx	#$10
    6b8c: 86 30        	stx	$30                     ; 0x2030 <main+0x1ac6>
    6b8e: a2 f4        	ldx	#$f4
    6b90: 86 12        	stx	$12                     ; 0x2012 <main+0x1aa8>
    6b92: a2 88        	ldx	#$88
    6b94: 86 13        	stx	$13                     ; 0x2013 <main+0x1aa9>
    6b96: 20 84 31     	jsr	$3184 <textPrint>
    6b99: 64 30        	stz	$30                     ; 0x2030 <main+0x1ac6>
    6b9b: a5 48        	lda	$48                     ; 0x2048 <main+0x1ade>
    6b9d: a6 49        	ldx	$49                     ; 0x2049 <main+0x1adf>
    6b9f: 92 10        	sta	($10)                   ; 0x2010 <main+0x1aa6>
    6ba1: a0 01        	ldy	#$1
    6ba3: 8a           	txa
    6ba4: 91 10        	sta	($10),y                 ; 0x2010 <main+0x1aa6>
    6ba6: a2 8d        	ldx	#$8d
    6ba8: 86 12        	stx	$12                     ; 0x2012 <main+0x1aa8>
    6baa: a2 8a        	ldx	#$8a
    6bac: 86 13        	stx	$13                     ; 0x2013 <main+0x1aa9>
    6bae: 20 64 7d     	jsr	$7d64 <printf>
    6bb1: a2 01        	ldx	#$1
    6bb3: 86 38        	stx	$38                     ; 0x2038 <main+0x1ace>
    6bb5: 8e 14 d0     	stx	$d014                   ; 0xd014 <__heap_start+0x2a80>
    6bb8: 9c 15 d0     	stz	$d015                   ; 0xd015 <__heap_start+0x2a81>
    6bbb: e8           	inx
    6bbc: 86 39        	stx	$39                     ; 0x2039 <main+0x1acf>
    6bbe: 8e 16 d0     	stx	$d016                   ; 0xd016 <__heap_start+0x2a82>
    6bc1: 9c 17 d0     	stz	$d017                   ; 0xd017 <__heap_start+0x2a83>
    6bc4: a2 10        	ldx	#$10
    6bc6: 86 30        	stx	$30                     ; 0x2030 <main+0x1ac6>
    6bc8: a2 e9        	ldx	#$e9
    6bca: 86 12        	stx	$12                     ; 0x2012 <main+0x1aa8>
    6bcc: a2 8b        	ldx	#$8b
    6bce: 86 13        	stx	$13                     ; 0x2013 <main+0x1aa9>
    6bd0: 20 84 31     	jsr	$3184 <textPrint>
    6bd3: 64 30        	stz	$30                     ; 0x2030 <main+0x1ac6>
    6bd5: a5 4a        	lda	$4a                     ; 0x204a <main+0x1ae0>
    6bd7: a6 4b        	ldx	$4b                     ; 0x204b <main+0x1ae1>
    6bd9: 92 10        	sta	($10)                   ; 0x2010 <main+0x1aa6>
    6bdb: a0 01        	ldy	#$1
    6bdd: 8a           	txa
    6bde: 91 10        	sta	($10),y                 ; 0x2010 <main+0x1aa6>
    6be0: a2 85        	ldx	#$85
    6be2: 86 12        	stx	$12                     ; 0x2012 <main+0x1aa8>
    6be4: a2 8b        	ldx	#$8b
    6be6: 86 13        	stx	$13                     ; 0x2013 <main+0x1aa9>
    6be8: 20 64 7d     	jsr	$7d64 <printf>
    6beb: a2 10        	ldx	#$10
    6bed: 86 30        	stx	$30                     ; 0x2030 <main+0x1ac6>
    6bef: a2 53        	ldx	#$53
    6bf1: 86 12        	stx	$12                     ; 0x2012 <main+0x1aa8>
    6bf3: a2 89        	ldx	#$89
    6bf5: 86 13        	stx	$13                     ; 0x2013 <main+0x1aa9>
    6bf7: 20 84 31     	jsr	$3184 <textPrint>
    6bfa: 64 30        	stz	$30                     ; 0x2030 <main+0x1ac6>
    6bfc: a5 4c        	lda	$4c                     ; 0x204c <main+0x1ae2>
    6bfe: a6 4d        	ldx	$4d                     ; 0x204d <main+0x1ae3>
    6c00: 92 10        	sta	($10)                   ; 0x2010 <main+0x1aa6>
    6c02: a0 01        	ldy	#$1
    6c04: 8a           	txa
    6c05: 91 10        	sta	($10),y                 ; 0x2010 <main+0x1aa6>
    6c07: a2 b3        	ldx	#$b3
    6c09: 86 12        	stx	$12                     ; 0x2012 <main+0x1aa8>
    6c0b: a2 8d        	ldx	#$8d
    6c0d: 86 13        	stx	$13                     ; 0x2013 <main+0x1aa9>
    6c0f: 20 64 7d     	jsr	$7d64 <printf>
    6c12: a2 10        	ldx	#$10
    6c14: 86 30        	stx	$30                     ; 0x2030 <main+0x1ac6>
    6c16: a6 4d        	ldx	$4d                     ; 0x204d <main+0x1ae3>
    6c18: d0 06        	bne	$6c20 <displayInfo+0xd2>
    6c1a: a6 4c        	ldx	$4c                     ; 0x204c <main+0x1ae2>
    6c1c: e0 02        	cpx	#$2
    6c1e: 80 02        	bra	$6c22 <displayInfo+0xd4>
    6c20: e0 00        	cpx	#$0
    6c22: a2 6d        	ldx	#$6d
    6c24: 86 12        	stx	$12                     ; 0x2012 <main+0x1aa8>
    6c26: a2 87        	ldx	#$87
    6c28: 86 13        	stx	$13                     ; 0x2013 <main+0x1aa9>
    6c2a: b0 08        	bcs	$6c34 <displayInfo+0xe6>
    6c2c: a2 3f        	ldx	#$3f
    6c2e: 86 12        	stx	$12                     ; 0x2012 <main+0x1aa8>
    6c30: a2 88        	ldx	#$88
    6c32: 86 13        	stx	$13                     ; 0x2013 <main+0x1aa9>
    6c34: 20 84 31     	jsr	$3184 <textPrint>
    6c37: 64 30        	stz	$30                     ; 0x2030 <main+0x1ac6>
    6c39: a2 01        	ldx	#$1
    6c3b: 86 38        	stx	$38                     ; 0x2038 <main+0x1ace>
    6c3d: 8e 14 d0     	stx	$d014                   ; 0xd014 <__heap_start+0x2a80>
    6c40: 9c 15 d0     	stz	$d015                   ; 0xd015 <__heap_start+0x2a81>
    6c43: a2 07        	ldx	#$7
    6c45: 86 39        	stx	$39                     ; 0x2039 <main+0x1acf>
    6c47: 8e 16 d0     	stx	$d016                   ; 0xd016 <__heap_start+0x2a82>
    6c4a: 9c 17 d0     	stz	$d017                   ; 0xd017 <__heap_start+0x2a83>
    6c4d: a2 01        	ldx	#$1
    6c4f: 86 12        	stx	$12                     ; 0x2012 <main+0x1aa8>
    6c51: a2 8d        	ldx	#$8d
    6c53: 86 13        	stx	$13                     ; 0x2013 <main+0x1aa9>
    6c55: 20 84 31     	jsr	$3184 <textPrint>
    6c58: a2 01        	ldx	#$1
    6c5a: 86 38        	stx	$38                     ; 0x2038 <main+0x1ace>
    6c5c: 8e 14 d0     	stx	$d014                   ; 0xd014 <__heap_start+0x2a80>
    6c5f: a0 01        	ldy	#$1
    6c61: 9c 15 d0     	stz	$d015                   ; 0xd015 <__heap_start+0x2a81>
    6c64: a2 08        	ldx	#$8
    6c66: 86 39        	stx	$39                     ; 0x2039 <main+0x1acf>
    6c68: 8e 16 d0     	stx	$d016                   ; 0xd016 <__heap_start+0x2a82>
    6c6b: 9c 17 d0     	stz	$d017                   ; 0xd017 <__heap_start+0x2a83>
    6c6e: a9 00        	lda	#$0
    6c70: 92 10        	sta	($10)                   ; 0x2010 <main+0x1aa6>
    6c72: 91 10        	sta	($10),y                 ; 0x2010 <main+0x1aa6>
    6c74: a2 a1        	ldx	#$a1
    6c76: 86 12        	stx	$12                     ; 0x2012 <main+0x1aa8>
    6c78: a2 88        	ldx	#$88
    6c7a: 86 13        	stx	$13                     ; 0x2013 <main+0x1aa9>
    6c7c: 20 64 7d     	jsr	$7d64 <printf>
    6c7f: a0 01        	ldy	#$1
    6c81: 84 38        	sty	$38                     ; 0x2038 <main+0x1ace>
    6c83: 8c 14 d0     	sty	$d014                   ; 0xd014 <__heap_start+0x2a80>
    6c86: 9c 15 d0     	stz	$d015                   ; 0xd015 <__heap_start+0x2a81>
    6c89: a2 09        	ldx	#$9
    6c8b: 86 39        	stx	$39                     ; 0x2039 <main+0x1acf>
    6c8d: 8e 16 d0     	stx	$d016                   ; 0xd016 <__heap_start+0x2a82>
    6c90: 9c 17 d0     	stz	$d017                   ; 0xd017 <__heap_start+0x2a83>
    6c93: 98           	tya
    6c94: 92 10        	sta	($10)                   ; 0x2010 <main+0x1aa6>
    6c96: a9 00        	lda	#$0
    6c98: 91 10        	sta	($10),y                 ; 0x2010 <main+0x1aa6>
    6c9a: a2 a1        	ldx	#$a1
    6c9c: 86 12        	stx	$12                     ; 0x2012 <main+0x1aa8>
    6c9e: a2 88        	ldx	#$88
    6ca0: 86 13        	stx	$13                     ; 0x2013 <main+0x1aa9>
    6ca2: 20 64 7d     	jsr	$7d64 <printf>
    6ca5: a2 01        	ldx	#$1
    6ca7: 86 38        	stx	$38                     ; 0x2038 <main+0x1ace>
    6ca9: 8e 14 d0     	stx	$d014                   ; 0xd014 <__heap_start+0x2a80>
    6cac: a0 01        	ldy	#$1
    6cae: 9c 15 d0     	stz	$d015                   ; 0xd015 <__heap_start+0x2a81>
    6cb1: a2 0a        	ldx	#$a
    6cb3: 86 39        	stx	$39                     ; 0x2039 <main+0x1acf>
    6cb5: 8e 16 d0     	stx	$d016                   ; 0xd016 <__heap_start+0x2a82>
    6cb8: 9c 17 d0     	stz	$d017                   ; 0xd017 <__heap_start+0x2a83>
    6cbb: a9 02        	lda	#$2
    6cbd: 92 10        	sta	($10)                   ; 0x2010 <main+0x1aa6>
    6cbf: a9 00        	lda	#$0
    6cc1: 91 10        	sta	($10),y                 ; 0x2010 <main+0x1aa6>
    6cc3: a2 a1        	ldx	#$a1
    6cc5: 86 12        	stx	$12                     ; 0x2012 <main+0x1aa8>
    6cc7: a2 88        	ldx	#$88
    6cc9: 86 13        	stx	$13                     ; 0x2013 <main+0x1aa9>
    6ccb: 20 64 7d     	jsr	$7d64 <printf>
    6cce: a2 01        	ldx	#$1
    6cd0: 86 38        	stx	$38                     ; 0x2038 <main+0x1ace>
    6cd2: 8e 14 d0     	stx	$d014                   ; 0xd014 <__heap_start+0x2a80>
    6cd5: a0 01        	ldy	#$1
    6cd7: 9c 15 d0     	stz	$d015                   ; 0xd015 <__heap_start+0x2a81>
    6cda: a2 0b        	ldx	#$b
    6cdc: 86 39        	stx	$39                     ; 0x2039 <main+0x1acf>
    6cde: 8e 16 d0     	stx	$d016                   ; 0xd016 <__heap_start+0x2a82>
    6ce1: 9c 17 d0     	stz	$d017                   ; 0xd017 <__heap_start+0x2a83>
    6ce4: a9 03        	lda	#$3
    6ce6: 92 10        	sta	($10)                   ; 0x2010 <main+0x1aa6>
    6ce8: a9 00        	lda	#$0
    6cea: 91 10        	sta	($10),y                 ; 0x2010 <main+0x1aa6>
    6cec: a2 a1        	ldx	#$a1
    6cee: 86 12        	stx	$12                     ; 0x2012 <main+0x1aa8>
    6cf0: a2 88        	ldx	#$88
    6cf2: 86 13        	stx	$13                     ; 0x2013 <main+0x1aa9>
    6cf4: 20 64 7d     	jsr	$7d64 <printf>
    6cf7: a2 01        	ldx	#$1
    6cf9: 86 38        	stx	$38                     ; 0x2038 <main+0x1ace>
    6cfb: 8e 14 d0     	stx	$d014                   ; 0xd014 <__heap_start+0x2a80>
    6cfe: a0 01        	ldy	#$1
    6d00: 9c 15 d0     	stz	$d015                   ; 0xd015 <__heap_start+0x2a81>
    6d03: a2 0c        	ldx	#$c
    6d05: 86 39        	stx	$39                     ; 0x2039 <main+0x1acf>
    6d07: 8e 16 d0     	stx	$d016                   ; 0xd016 <__heap_start+0x2a82>
    6d0a: 9c 17 d0     	stz	$d017                   ; 0xd017 <__heap_start+0x2a83>
    6d0d: a9 04        	lda	#$4
    6d0f: 92 10        	sta	($10)                   ; 0x2010 <main+0x1aa6>
    6d11: a9 00        	lda	#$0
    6d13: 91 10        	sta	($10),y                 ; 0x2010 <main+0x1aa6>
    6d15: a2 a1        	ldx	#$a1
    6d17: 86 12        	stx	$12                     ; 0x2012 <main+0x1aa8>
    6d19: a2 88        	ldx	#$88
    6d1b: 86 13        	stx	$13                     ; 0x2013 <main+0x1aa9>
    6d1d: 20 64 7d     	jsr	$7d64 <printf>
    6d20: a2 01        	ldx	#$1
    6d22: 86 38        	stx	$38                     ; 0x2038 <main+0x1ace>
    6d24: 8e 14 d0     	stx	$d014                   ; 0xd014 <__heap_start+0x2a80>
    6d27: a0 01        	ldy	#$1
    6d29: 9c 15 d0     	stz	$d015                   ; 0xd015 <__heap_start+0x2a81>
    6d2c: a2 0d        	ldx	#$d
    6d2e: 86 39        	stx	$39                     ; 0x2039 <main+0x1acf>
    6d30: 8e 16 d0     	stx	$d016                   ; 0xd016 <__heap_start+0x2a82>
    6d33: 9c 17 d0     	stz	$d017                   ; 0xd017 <__heap_start+0x2a83>
    6d36: a9 05        	lda	#$5
    6d38: 92 10        	sta	($10)                   ; 0x2010 <main+0x1aa6>
    6d3a: a9 00        	lda	#$0
    6d3c: 91 10        	sta	($10),y                 ; 0x2010 <main+0x1aa6>
    6d3e: a2 a1        	ldx	#$a1
    6d40: 86 12        	stx	$12                     ; 0x2012 <main+0x1aa8>
    6d42: a2 88        	ldx	#$88
    6d44: 86 13        	stx	$13                     ; 0x2013 <main+0x1aa9>
    6d46: 20 64 7d     	jsr	$7d64 <printf>
    6d49: a2 01        	ldx	#$1
    6d4b: 86 38        	stx	$38                     ; 0x2038 <main+0x1ace>
    6d4d: 8e 14 d0     	stx	$d014                   ; 0xd014 <__heap_start+0x2a80>
    6d50: a0 01        	ldy	#$1
    6d52: 9c 15 d0     	stz	$d015                   ; 0xd015 <__heap_start+0x2a81>
    6d55: a2 0e        	ldx	#$e
    6d57: 86 39        	stx	$39                     ; 0x2039 <main+0x1acf>
    6d59: 8e 16 d0     	stx	$d016                   ; 0xd016 <__heap_start+0x2a82>
    6d5c: 9c 17 d0     	stz	$d017                   ; 0xd017 <__heap_start+0x2a83>
    6d5f: a9 06        	lda	#$6
    6d61: 92 10        	sta	($10)                   ; 0x2010 <main+0x1aa6>
    6d63: a9 00        	lda	#$0
    6d65: 91 10        	sta	($10),y                 ; 0x2010 <main+0x1aa6>
    6d67: a2 a1        	ldx	#$a1
    6d69: 86 12        	stx	$12                     ; 0x2012 <main+0x1aa8>
    6d6b: a2 88        	ldx	#$88
    6d6d: 86 13        	stx	$13                     ; 0x2013 <main+0x1aa9>
    6d6f: 20 64 7d     	jsr	$7d64 <printf>
    6d72: a2 01        	ldx	#$1
    6d74: 86 38        	stx	$38                     ; 0x2038 <main+0x1ace>
    6d76: 8e 14 d0     	stx	$d014                   ; 0xd014 <__heap_start+0x2a80>
    6d79: a0 01        	ldy	#$1
    6d7b: 9c 15 d0     	stz	$d015                   ; 0xd015 <__heap_start+0x2a81>
    6d7e: a2 0f        	ldx	#$f
    6d80: 86 39        	stx	$39                     ; 0x2039 <main+0x1acf>
    6d82: 8e 16 d0     	stx	$d016                   ; 0xd016 <__heap_start+0x2a82>
    6d85: 9c 17 d0     	stz	$d017                   ; 0xd017 <__heap_start+0x2a83>
    6d88: a9 07        	lda	#$7
    6d8a: 92 10        	sta	($10)                   ; 0x2010 <main+0x1aa6>
    6d8c: a9 00        	lda	#$0
    6d8e: 91 10        	sta	($10),y                 ; 0x2010 <main+0x1aa6>
    6d90: a2 a1        	ldx	#$a1
    6d92: 86 12        	stx	$12                     ; 0x2012 <main+0x1aa8>
    6d94: a2 88        	ldx	#$88
    6d96: 86 13        	stx	$13                     ; 0x2013 <main+0x1aa9>
    6d98: 20 64 7d     	jsr	$7d64 <printf>
    6d9b: a2 01        	ldx	#$1
    6d9d: 86 38        	stx	$38                     ; 0x2038 <main+0x1ace>
    6d9f: 8e 14 d0     	stx	$d014                   ; 0xd014 <__heap_start+0x2a80>
    6da2: a0 01        	ldy	#$1
    6da4: 9c 15 d0     	stz	$d015                   ; 0xd015 <__heap_start+0x2a81>
    6da7: a2 10        	ldx	#$10
    6da9: 86 39        	stx	$39                     ; 0x2039 <main+0x1acf>
    6dab: 8e 16 d0     	stx	$d016                   ; 0xd016 <__heap_start+0x2a82>
    6dae: 9c 17 d0     	stz	$d017                   ; 0xd017 <__heap_start+0x2a83>
    6db1: a9 08        	lda	#$8
    6db3: 92 10        	sta	($10)                   ; 0x2010 <main+0x1aa6>
    6db5: a9 00        	lda	#$0
    6db7: 91 10        	sta	($10),y                 ; 0x2010 <main+0x1aa6>
    6db9: a2 a1        	ldx	#$a1
    6dbb: 86 12        	stx	$12                     ; 0x2012 <main+0x1aa8>
    6dbd: a2 88        	ldx	#$88
    6dbf: 86 13        	stx	$13                     ; 0x2013 <main+0x1aa9>
    6dc1: 20 64 7d     	jsr	$7d64 <printf>
    6dc4: a2 01        	ldx	#$1
    6dc6: 86 38        	stx	$38                     ; 0x2038 <main+0x1ace>
    6dc8: 8e 14 d0     	stx	$d014                   ; 0xd014 <__heap_start+0x2a80>
    6dcb: a0 01        	ldy	#$1
    6dcd: 9c 15 d0     	stz	$d015                   ; 0xd015 <__heap_start+0x2a81>
    6dd0: a2 11        	ldx	#$11
    6dd2: 86 39        	stx	$39                     ; 0x2039 <main+0x1acf>
    6dd4: 8e 16 d0     	stx	$d016                   ; 0xd016 <__heap_start+0x2a82>
    6dd7: 9c 17 d0     	stz	$d017                   ; 0xd017 <__heap_start+0x2a83>
    6dda: a9 09        	lda	#$9
    6ddc: 92 10        	sta	($10)                   ; 0x2010 <main+0x1aa6>
    6dde: a9 00        	lda	#$0
    6de0: 91 10        	sta	($10),y                 ; 0x2010 <main+0x1aa6>
    6de2: a2 a1        	ldx	#$a1
    6de4: 86 12        	stx	$12                     ; 0x2012 <main+0x1aa8>
    6de6: a2 88        	ldx	#$88
    6de8: 86 13        	stx	$13                     ; 0x2013 <main+0x1aa9>
    6dea: 20 64 7d     	jsr	$7d64 <printf>
    6ded: a2 01        	ldx	#$1
    6def: 86 38        	stx	$38                     ; 0x2038 <main+0x1ace>
    6df1: 8e 14 d0     	stx	$d014                   ; 0xd014 <__heap_start+0x2a80>
    6df4: a0 01        	ldy	#$1
    6df6: 9c 15 d0     	stz	$d015                   ; 0xd015 <__heap_start+0x2a81>
    6df9: a2 12        	ldx	#$12
    6dfb: 86 39        	stx	$39                     ; 0x2039 <main+0x1acf>
    6dfd: 8e 16 d0     	stx	$d016                   ; 0xd016 <__heap_start+0x2a82>
    6e00: 9c 17 d0     	stz	$d017                   ; 0xd017 <__heap_start+0x2a83>
    6e03: a9 0a        	lda	#$a
    6e05: 92 10        	sta	($10)                   ; 0x2010 <main+0x1aa6>
    6e07: a9 00        	lda	#$0
    6e09: 91 10        	sta	($10),y                 ; 0x2010 <main+0x1aa6>
    6e0b: a2 a1        	ldx	#$a1
    6e0d: 86 12        	stx	$12                     ; 0x2012 <main+0x1aa8>
    6e0f: a2 88        	ldx	#$88
    6e11: 86 13        	stx	$13                     ; 0x2013 <main+0x1aa9>
    6e13: 20 64 7d     	jsr	$7d64 <printf>
    6e16: a2 01        	ldx	#$1
    6e18: 86 38        	stx	$38                     ; 0x2038 <main+0x1ace>
    6e1a: 8e 14 d0     	stx	$d014                   ; 0xd014 <__heap_start+0x2a80>
    6e1d: a0 01        	ldy	#$1
    6e1f: 9c 15 d0     	stz	$d015                   ; 0xd015 <__heap_start+0x2a81>
    6e22: a2 13        	ldx	#$13
    6e24: 86 39        	stx	$39                     ; 0x2039 <main+0x1acf>
    6e26: 8e 16 d0     	stx	$d016                   ; 0xd016 <__heap_start+0x2a82>
    6e29: 9c 17 d0     	stz	$d017                   ; 0xd017 <__heap_start+0x2a83>
    6e2c: a9 0b        	lda	#$b
    6e2e: 92 10        	sta	($10)                   ; 0x2010 <main+0x1aa6>
    6e30: a9 00        	lda	#$0
    6e32: 91 10        	sta	($10),y                 ; 0x2010 <main+0x1aa6>
    6e34: a2 a1        	ldx	#$a1
    6e36: 86 12        	stx	$12                     ; 0x2012 <main+0x1aa8>
    6e38: a2 88        	ldx	#$88
    6e3a: 86 13        	stx	$13                     ; 0x2013 <main+0x1aa9>
    6e3c: 20 64 7d     	jsr	$7d64 <printf>
    6e3f: a2 01        	ldx	#$1
    6e41: 86 38        	stx	$38                     ; 0x2038 <main+0x1ace>
    6e43: 8e 14 d0     	stx	$d014                   ; 0xd014 <__heap_start+0x2a80>
    6e46: a0 01        	ldy	#$1
    6e48: 9c 15 d0     	stz	$d015                   ; 0xd015 <__heap_start+0x2a81>
    6e4b: a2 14        	ldx	#$14
    6e4d: 86 39        	stx	$39                     ; 0x2039 <main+0x1acf>
    6e4f: 8e 16 d0     	stx	$d016                   ; 0xd016 <__heap_start+0x2a82>
    6e52: 9c 17 d0     	stz	$d017                   ; 0xd017 <__heap_start+0x2a83>
    6e55: a9 0c        	lda	#$c
    6e57: 92 10        	sta	($10)                   ; 0x2010 <main+0x1aa6>
    6e59: a9 00        	lda	#$0
    6e5b: 91 10        	sta	($10),y                 ; 0x2010 <main+0x1aa6>
    6e5d: a2 a1        	ldx	#$a1
    6e5f: 86 12        	stx	$12                     ; 0x2012 <main+0x1aa8>
    6e61: a2 88        	ldx	#$88
    6e63: 86 13        	stx	$13                     ; 0x2013 <main+0x1aa9>
    6e65: 20 64 7d     	jsr	$7d64 <printf>
    6e68: a2 01        	ldx	#$1
    6e6a: 86 38        	stx	$38                     ; 0x2038 <main+0x1ace>
    6e6c: 8e 14 d0     	stx	$d014                   ; 0xd014 <__heap_start+0x2a80>
    6e6f: a0 01        	ldy	#$1
    6e71: 9c 15 d0     	stz	$d015                   ; 0xd015 <__heap_start+0x2a81>
    6e74: a2 15        	ldx	#$15
    6e76: 86 39        	stx	$39                     ; 0x2039 <main+0x1acf>
    6e78: 8e 16 d0     	stx	$d016                   ; 0xd016 <__heap_start+0x2a82>
    6e7b: 9c 17 d0     	stz	$d017                   ; 0xd017 <__heap_start+0x2a83>
    6e7e: a9 0d        	lda	#$d
    6e80: 92 10        	sta	($10)                   ; 0x2010 <main+0x1aa6>
    6e82: a9 00        	lda	#$0
    6e84: 91 10        	sta	($10),y                 ; 0x2010 <main+0x1aa6>
    6e86: a2 a1        	ldx	#$a1
    6e88: 86 12        	stx	$12                     ; 0x2012 <main+0x1aa8>
    6e8a: a2 88        	ldx	#$88
    6e8c: 86 13        	stx	$13                     ; 0x2013 <main+0x1aa9>
    6e8e: 20 64 7d     	jsr	$7d64 <printf>
    6e91: a2 01        	ldx	#$1
    6e93: 86 38        	stx	$38                     ; 0x2038 <main+0x1ace>
    6e95: 8e 14 d0     	stx	$d014                   ; 0xd014 <__heap_start+0x2a80>
    6e98: a0 01        	ldy	#$1
    6e9a: 9c 15 d0     	stz	$d015                   ; 0xd015 <__heap_start+0x2a81>
    6e9d: a2 16        	ldx	#$16
    6e9f: 86 39        	stx	$39                     ; 0x2039 <main+0x1acf>
    6ea1: 8e 16 d0     	stx	$d016                   ; 0xd016 <__heap_start+0x2a82>
    6ea4: 9c 17 d0     	stz	$d017                   ; 0xd017 <__heap_start+0x2a83>
    6ea7: a9 0e        	lda	#$e
    6ea9: 92 10        	sta	($10)                   ; 0x2010 <main+0x1aa6>
    6eab: a9 00        	lda	#$0
    6ead: 91 10        	sta	($10),y                 ; 0x2010 <main+0x1aa6>
    6eaf: a2 a1        	ldx	#$a1
    6eb1: 86 12        	stx	$12                     ; 0x2012 <main+0x1aa8>
    6eb3: a2 88        	ldx	#$88
    6eb5: 86 13        	stx	$13                     ; 0x2013 <main+0x1aa9>
    6eb7: 20 64 7d     	jsr	$7d64 <printf>
    6eba: a2 01        	ldx	#$1
    6ebc: 86 38        	stx	$38                     ; 0x2038 <main+0x1ace>
    6ebe: 8e 14 d0     	stx	$d014                   ; 0xd014 <__heap_start+0x2a80>
    6ec1: a0 01        	ldy	#$1
    6ec3: 9c 15 d0     	stz	$d015                   ; 0xd015 <__heap_start+0x2a81>
    6ec6: a2 17        	ldx	#$17
    6ec8: 86 39        	stx	$39                     ; 0x2039 <main+0x1acf>
    6eca: 8e 16 d0     	stx	$d016                   ; 0xd016 <__heap_start+0x2a82>
    6ecd: 9c 17 d0     	stz	$d017                   ; 0xd017 <__heap_start+0x2a83>
    6ed0: a9 0f        	lda	#$f
    6ed2: 92 10        	sta	($10)                   ; 0x2010 <main+0x1aa6>
    6ed4: a9 00        	lda	#$0
    6ed6: 91 10        	sta	($10),y                 ; 0x2010 <main+0x1aa6>
    6ed8: a2 a1        	ldx	#$a1
    6eda: 86 12        	stx	$12                     ; 0x2012 <main+0x1aa8>
    6edc: a2 88        	ldx	#$88
    6ede: 86 13        	stx	$13                     ; 0x2013 <main+0x1aa9>
    6ee0: 20 64 7d     	jsr	$7d64 <printf>
    6ee3: a2 04        	ldx	#$4
    6ee5: 86 38        	stx	$38                     ; 0x2038 <main+0x1ace>
    6ee7: 8e 14 d0     	stx	$d014                   ; 0xd014 <__heap_start+0x2a80>
    6eea: 9c 15 d0     	stz	$d015                   ; 0xd015 <__heap_start+0x2a81>
    6eed: a2 11        	ldx	#$11
    6eef: 86 39        	stx	$39                     ; 0x2039 <main+0x1acf>
    6ef1: 8e 16 d0     	stx	$d016                   ; 0xd016 <__heap_start+0x2a82>
    6ef4: 9c 17 d0     	stz	$d017                   ; 0xd017 <__heap_start+0x2a83>
    6ef7: a2 a0        	ldx	#$a0
    6ef9: 86 30        	stx	$30                     ; 0x2030 <main+0x1ac6>
    6efb: a2 8a        	ldx	#$8a
    6efd: 86 12        	stx	$12                     ; 0x2012 <main+0x1aa8>
    6eff: a2 8b        	ldx	#$8b
    6f01: 86 13        	stx	$13                     ; 0x2013 <main+0x1aa9>
    6f03: 20 84 31     	jsr	$3184 <textPrint>
    6f06: 64 38        	stz	$38                     ; 0x2038 <main+0x1ace>
    6f08: 9c 14 d0     	stz	$d014                   ; 0xd014 <__heap_start+0x2a80>
    6f0b: 9c 15 d0     	stz	$d015                   ; 0xd015 <__heap_start+0x2a81>
    6f0e: a2 19        	ldx	#$19
    6f10: 86 39        	stx	$39                     ; 0x2039 <main+0x1acf>
    6f12: 8e 16 d0     	stx	$d016                   ; 0xd016 <__heap_start+0x2a82>
    6f15: 9c 17 d0     	stz	$d017                   ; 0xd017 <__heap_start+0x2a83>
    6f18: a5 48        	lda	$48                     ; 0x2048 <main+0x1ade>
    6f1a: a6 49        	ldx	$49                     ; 0x2049 <main+0x1adf>
    6f1c: 92 10        	sta	($10)                   ; 0x2010 <main+0x1aa6>
    6f1e: a0 01        	ldy	#$1
    6f20: 8a           	txa
    6f21: 91 10        	sta	($10),y                 ; 0x2010 <main+0x1aa6>
    6f23: a2 ee        	ldx	#$ee
    6f25: 86 12        	stx	$12                     ; 0x2012 <main+0x1aa8>
    6f27: a2 8a        	ldx	#$8a
    6f29: 86 13        	stx	$13                     ; 0x2013 <main+0x1aa9>
    6f2b: 20 64 7d     	jsr	$7d64 <printf>
    6f2e: 18           	clc
    6f2f: a5 10        	lda	$10                     ; 0x2010 <main+0x1aa6>
    6f31: 69 02        	adc	#$2
    6f33: 85 10        	sta	$10                     ; 0x2010 <main+0x1aa6>
    6f35: a5 11        	lda	$11                     ; 0x2011 <main+0x1aa7>
    6f37: 69 00        	adc	#$0
    6f39: 85 11        	sta	$11                     ; 0x2011 <main+0x1aa7>
    6f3b: 60           	rts

00006f3c <superExtraInfo>:
    6f3c: 18           	clc
    6f3d: a5 10        	lda	$10                     ; 0x2010 <main+0x1aa6>
    6f3f: 69 fe        	adc	#$fe
    6f41: 85 10        	sta	$10                     ; 0x2010 <main+0x1aa6>
    6f43: a5 11        	lda	$11                     ; 0x2011 <main+0x1aa7>
    6f45: 69 ff        	adc	#$ff
    6f47: 85 11        	sta	$11                     ; 0x2011 <main+0x1aa7>
    6f49: a2 10        	ldx	#$10
    6f4b: 86 30        	stx	$30                     ; 0x2030 <main+0x1ac6>
    6f4d: a2 01        	ldx	#$1
    6f4f: 86 38        	stx	$38                     ; 0x2038 <main+0x1ace>
    6f51: 8e 14 d0     	stx	$d014                   ; 0xd014 <__heap_start+0x2a80>
    6f54: 9c 15 d0     	stz	$d015                   ; 0xd015 <__heap_start+0x2a81>
    6f57: a2 1d        	ldx	#$1d
    6f59: 86 39        	stx	$39                     ; 0x2039 <main+0x1acf>
    6f5b: 8e 16 d0     	stx	$d016                   ; 0xd016 <__heap_start+0x2a82>
    6f5e: 9c 17 d0     	stz	$d017                   ; 0xd017 <__heap_start+0x2a83>
    6f61: a2 0e        	ldx	#$e
    6f63: 86 12        	stx	$12                     ; 0x2012 <main+0x1aa8>
    6f65: a2 8b        	ldx	#$8b
    6f67: 86 13        	stx	$13                     ; 0x2013 <main+0x1aa9>
    6f69: 20 84 31     	jsr	$3184 <textPrint>
    6f6c: 64 30        	stz	$30                     ; 0x2030 <main+0x1ac6>
    6f6e: a2 9c        	ldx	#$9c
    6f70: 86 12        	stx	$12                     ; 0x2012 <main+0x1aa8>
    6f72: a2 8e        	ldx	#$8e
    6f74: 86 13        	stx	$13                     ; 0x2013 <main+0x1aa9>
    6f76: 20 84 31     	jsr	$3184 <textPrint>
    6f79: a2 10        	ldx	#$10
    6f7b: 86 30        	stx	$30                     ; 0x2030 <main+0x1ac6>
    6f7d: a2 37        	ldx	#$37
    6f7f: 86 12        	stx	$12                     ; 0x2012 <main+0x1aa8>
    6f81: a2 8f        	ldx	#$8f
    6f83: 86 13        	stx	$13                     ; 0x2013 <main+0x1aa9>
    6f85: 20 84 31     	jsr	$3184 <textPrint>
    6f88: 64 30        	stz	$30                     ; 0x2030 <main+0x1ac6>
    6f8a: a2 c7        	ldx	#$c7
    6f8c: 86 12        	stx	$12                     ; 0x2012 <main+0x1aa8>
    6f8e: a2 89        	ldx	#$89
    6f90: 86 13        	stx	$13                     ; 0x2013 <main+0x1aa9>
    6f92: 20 84 31     	jsr	$3184 <textPrint>
    6f95: a2 10        	ldx	#$10
    6f97: 86 30        	stx	$30                     ; 0x2030 <main+0x1ac6>
    6f99: a2 7d        	ldx	#$7d
    6f9b: 86 12        	stx	$12                     ; 0x2012 <main+0x1aa8>
    6f9d: a2 8c        	ldx	#$8c
    6f9f: 86 13        	stx	$13                     ; 0x2013 <main+0x1aa9>
    6fa1: 20 84 31     	jsr	$3184 <textPrint>
    6fa4: a2 10        	ldx	#$10
    6fa6: 86 30        	stx	$30                     ; 0x2030 <main+0x1ac6>
    6fa8: a2 0b        	ldx	#$b
    6faa: 86 12        	stx	$12                     ; 0x2012 <main+0x1aa8>
    6fac: a2 8a        	ldx	#$8a
    6fae: 86 13        	stx	$13                     ; 0x2013 <main+0x1aa9>
    6fb0: 20 84 31     	jsr	$3184 <textPrint>
    6fb3: 64 30        	stz	$30                     ; 0x2030 <main+0x1ac6>
    6fb5: a2 45        	ldx	#$45
    6fb7: 86 12        	stx	$12                     ; 0x2012 <main+0x1aa8>
    6fb9: a2 88        	ldx	#$88
    6fbb: 86 13        	stx	$13                     ; 0x2013 <main+0x1aa9>
    6fbd: 20 84 31     	jsr	$3184 <textPrint>
    6fc0: 64 38        	stz	$38                     ; 0x2038 <main+0x1ace>
    6fc2: 9c 14 d0     	stz	$d014                   ; 0xd014 <__heap_start+0x2a80>
    6fc5: 9c 15 d0     	stz	$d015                   ; 0xd015 <__heap_start+0x2a81>
    6fc8: a2 19        	ldx	#$19
    6fca: 86 39        	stx	$39                     ; 0x2039 <main+0x1acf>
    6fcc: 8e 16 d0     	stx	$d016                   ; 0xd016 <__heap_start+0x2a82>
    6fcf: 9c 17 d0     	stz	$d017                   ; 0xd017 <__heap_start+0x2a83>
    6fd2: a9 e8        	lda	#$e8
    6fd4: 92 10        	sta	($10)                   ; 0x2010 <main+0x1aa6>
    6fd6: a0 01        	ldy	#$1
    6fd8: a9 90        	lda	#$90
    6fda: 91 10        	sta	($10),y                 ; 0x2010 <main+0x1aa6>
    6fdc: a2 8d        	ldx	#$8d
    6fde: 86 12        	stx	$12                     ; 0x2012 <main+0x1aa8>
    6fe0: a2 8a        	ldx	#$8a
    6fe2: 86 13        	stx	$13                     ; 0x2013 <main+0x1aa9>
    6fe4: 20 64 7d     	jsr	$7d64 <printf>
    6fe7: a2 10        	ldx	#$10
    6fe9: 86 30        	stx	$30                     ; 0x2030 <main+0x1ac6>
    6feb: a2 3e        	ldx	#$3e
    6fed: 86 38        	stx	$38                     ; 0x2038 <main+0x1ace>
    6fef: 8e 14 d0     	stx	$d014                   ; 0xd014 <__heap_start+0x2a80>
    6ff2: 9c 15 d0     	stz	$d015                   ; 0xd015 <__heap_start+0x2a81>
    6ff5: a2 1d        	ldx	#$1d
    6ff7: 86 39        	stx	$39                     ; 0x2039 <main+0x1acf>
    6ff9: 8e 16 d0     	stx	$d016                   ; 0xd016 <__heap_start+0x2a82>
    6ffc: 9c 17 d0     	stz	$d017                   ; 0xd017 <__heap_start+0x2a83>
    6fff: a2 90        	ldx	#$90
    7001: 86 12        	stx	$12                     ; 0x2012 <main+0x1aa8>
    7003: a2 8a        	ldx	#$8a
    7005: 86 13        	stx	$13                     ; 0x2013 <main+0x1aa9>
    7007: 20 84 31     	jsr	$3184 <textPrint>
    700a: 64 30        	stz	$30                     ; 0x2030 <main+0x1ac6>
    700c: a2 9c        	ldx	#$9c
    700e: 86 12        	stx	$12                     ; 0x2012 <main+0x1aa8>
    7010: a2 86        	ldx	#$86
    7012: 86 13        	stx	$13                     ; 0x2013 <main+0x1aa9>
    7014: 20 84 31     	jsr	$3184 <textPrint>
    7017: a2 01        	ldx	#$1
    7019: 86 38        	stx	$38                     ; 0x2038 <main+0x1ace>
    701b: 8e 14 d0     	stx	$d014                   ; 0xd014 <__heap_start+0x2a80>
    701e: 9c 15 d0     	stz	$d015                   ; 0xd015 <__heap_start+0x2a81>
    7021: a2 1a        	ldx	#$1a
    7023: 86 39        	stx	$39                     ; 0x2039 <main+0x1acf>
    7025: 8e 16 d0     	stx	$d016                   ; 0xd016 <__heap_start+0x2a82>
    7028: 9c 17 d0     	stz	$d017                   ; 0xd017 <__heap_start+0x2a83>
    702b: a2 d3        	ldx	#$d3
    702d: 86 12        	stx	$12                     ; 0x2012 <main+0x1aa8>
    702f: a2 8d        	ldx	#$8d
    7031: 86 13        	stx	$13                     ; 0x2013 <main+0x1aa9>
    7033: 20 84 31     	jsr	$3184 <textPrint>
    7036: 18           	clc
    7037: a5 10        	lda	$10                     ; 0x2010 <main+0x1aa6>
    7039: 69 02        	adc	#$2
    703b: 85 10        	sta	$10                     ; 0x2010 <main+0x1aa6>
    703d: a5 11        	lda	$11                     ; 0x2011 <main+0x1aa7>
    703f: 69 00        	adc	#$0
    7041: 85 11        	sta	$11                     ; 0x2011 <main+0x1aa7>
    7043: 60           	rts

00007044 <exit>:
    7044: 20 1f 03     	jsr	$31f <_fini>
    7047: 80 fe        	bra	$7047 <exit+0x3>

00007049 <_ZN12_GLOBAL__N_15printEPKcP6Status>:
    7049: a6 14        	ldx	$14                     ; 0x2014 <main+0x1aaa>
    704b: 86 a2        	stx	$a2                     ; 0x20a2 <main+0x1b38>
    704d: a6 15        	ldx	$15                     ; 0x2015 <main+0x1aab>
    704f: 86 a3        	stx	$a3                     ; 0x20a3 <main+0x1b39>
    7051: a6 12        	ldx	$12                     ; 0x2012 <main+0x1aa8>
    7053: 86 14        	stx	$14                     ; 0x2014 <main+0x1aaa>
    7055: a6 13        	ldx	$13                     ; 0x2013 <main+0x1aa9>
    7057: 86 15        	stx	$15                     ; 0x2015 <main+0x1aab>
    7059: e6 14        	inc	$14                     ; 0x2014 <main+0x1aaa>
    705b: d0 02        	bne	$705f <_ZN12_GLOBAL__N_15printEPKcP6Status+0x16>
    705d: e6 15        	inc	$15                     ; 0x2015 <main+0x1aab>
    705f: a0 01        	ldy	#$1
    7061: b1 12        	lda	($12),y                 ; 0x2012 <main+0x1aa8>
    7063: c9 25        	cmp	#$25
    7065: d0 23        	bne	$708a <_ZN12_GLOBAL__N_15printEPKcP6Status+0x41>
    7067: a9 25        	lda	#$25
    7069: a6 12        	ldx	$12                     ; 0x2012 <main+0x1aa8>
    706b: 86 a4        	stx	$a4                     ; 0x20a4 <main+0x1b3a>
    706d: a6 13        	ldx	$13                     ; 0x2013 <main+0x1aa9>
    706f: 86 a5        	stx	$a5                     ; 0x20a5 <main+0x1b3b>
    7071: a6 a2        	ldx	$a2                     ; 0x20a2 <main+0x1b38>
    7073: 86 12        	stx	$12                     ; 0x2012 <main+0x1aa8>
    7075: a6 a3        	ldx	$a3                     ; 0x20a3 <main+0x1b39>
    7077: 86 13        	stx	$13                     ; 0x2013 <main+0x1aa9>
    7079: 20 7d 7b     	jsr	$7b7d <_ZN12_GLOBAL__N_13putEcP6Status>
    707c: a5 a4        	lda	$a4                     ; 0x20a4 <main+0x1b3a>
    707e: 18           	clc
    707f: 69 02        	adc	#$2
    7081: 85 12        	sta	$12                     ; 0x2012 <main+0x1aa8>
    7083: a5 a5        	lda	$a5                     ; 0x20a5 <main+0x1b3b>
    7085: 69 00        	adc	#$0
    7087: 85 13        	sta	$13                     ; 0x2013 <main+0x1aa9>
    7089: 60           	rts
    708a: 18           	clc
    708b: a5 a2        	lda	$a2                     ; 0x20a2 <main+0x1b38>
    708d: 69 0b        	adc	#$b
    708f: 85 18        	sta	$18                     ; 0x2018 <main+0x1aae>
    7091: a5 a3        	lda	$a3                     ; 0x20a3 <main+0x1b39>
    7093: 69 00        	adc	#$0
    7095: 85 19        	sta	$19                     ; 0x2019 <main+0x1aaf>
    7097: a2 10        	ldx	#$10
    7099: 86 cb        	stx	$cb                     ; 0x20cb <main+0x1b61>
    709b: a9 00        	lda	#$0
    709d: a0 0b        	ldy	#$b
    709f: 91 a2        	sta	($a2),y                 ; 0x20a2 <main+0x1b38>
    70a1: 18           	clc
    70a2: a5 a2        	lda	$a2                     ; 0x20a2 <main+0x1b38>
    70a4: 69 0d        	adc	#$d
    70a6: aa           	tax
    70a7: a5 a3        	lda	$a3                     ; 0x20a3 <main+0x1b39>
    70a9: 69 00        	adc	#$0
    70ab: 86 16        	stx	$16                     ; 0x2016 <main+0x1aac>
    70ad: a0 0d        	ldy	#$d
    70af: 85 17        	sta	$17                     ; 0x2017 <main+0x1aad>
    70b1: a9 ff        	lda	#$ff
    70b3: 91 a2        	sta	($a2),y                 ; 0x20a2 <main+0x1b38>
    70b5: a0 01        	ldy	#$1
    70b7: 91 16        	sta	($16),y                 ; 0x2016 <main+0x1aac>
    70b9: a2 00        	ldx	#$0
    70bb: 86 ce        	stx	$ce                     ; 0x20ce <main+0x1b64>
    70bd: a6 a2        	ldx	$a2                     ; 0x20a2 <main+0x1b38>
    70bf: 86 16        	stx	$16                     ; 0x2016 <main+0x1aac>
    70c1: a6 a3        	ldx	$a3                     ; 0x20a3 <main+0x1b39>
    70c3: 86 17        	stx	$17                     ; 0x2017 <main+0x1aad>
    70c5: e6 16        	inc	$16                     ; 0x2016 <main+0x1aac>
    70c7: d0 02        	bne	$70cb <_ZN12_GLOBAL__N_15printEPKcP6Status+0x82>
    70c9: e6 17        	inc	$17                     ; 0x2017 <main+0x1aad>
    70cb: a9 00        	lda	#$0
    70cd: 91 a2        	sta	($a2),y                 ; 0x20a2 <main+0x1b38>
    70cf: 91 16        	sta	($16),y                 ; 0x2016 <main+0x1aac>
    70d1: 92 a2        	sta	($a2)                   ; 0x20a2 <main+0x1b38>
    70d3: 91 18        	sta	($18),y                 ; 0x2018 <main+0x1aae>
    70d5: 64 a8        	stz	$a8                     ; 0x20a8 <main+0x1b3e>
    70d7: 80 33        	bra	$710c <_ZN12_GLOBAL__N_15printEPKcP6Status+0xc3>
    70d9: a2 02        	ldx	#$2
    70db: 80 15        	bra	$70f2 <_ZN12_GLOBAL__N_15printEPKcP6Status+0xa9>
    70dd: e0 20        	cpx	#$20
    70df: f0 15        	beq	$70f6 <_ZN12_GLOBAL__N_15printEPKcP6Status+0xad>
    70e1: 86 19        	stx	$19                     ; 0x2019 <main+0x1aaf>
    70e3: e0 23        	cpx	#$23
    70e5: f0 03        	beq	$70ea <_ZN12_GLOBAL__N_15printEPKcP6Status+0xa1>
    70e7: 4c 59 71     	jmp	$7159 <_ZN12_GLOBAL__N_15printEPKcP6Status+0x110>
    70ea: a5 a8        	lda	$a8                     ; 0x20a8 <main+0x1b3e>
    70ec: a2 04        	ldx	#$4
    70ee: 80 02        	bra	$70f2 <_ZN12_GLOBAL__N_15printEPKcP6Status+0xa9>
    70f0: a2 10        	ldx	#$10
    70f2: 86 18        	stx	$18                     ; 0x2018 <main+0x1aae>
    70f4: 80 06        	bra	$70fc <_ZN12_GLOBAL__N_15printEPKcP6Status+0xb3>
    70f6: a2 08        	ldx	#$8
    70f8: 86 18        	stx	$18                     ; 0x2018 <main+0x1aae>
    70fa: a5 a8        	lda	$a8                     ; 0x20a8 <main+0x1b3e>
    70fc: 05 18        	ora	$18                     ; 0x2018 <main+0x1aae>
    70fe: 85 a8        	sta	$a8                     ; 0x20a8 <main+0x1b3e>
    7100: 91 a2        	sta	($a2),y                 ; 0x20a2 <main+0x1b38>
    7102: a9 00        	lda	#$0
    7104: 91 16        	sta	($16),y                 ; 0x2016 <main+0x1aac>
    7106: e6 14        	inc	$14                     ; 0x2014 <main+0x1aaa>
    7108: d0 02        	bne	$710c <_ZN12_GLOBAL__N_15printEPKcP6Status+0xc3>
    710a: e6 15        	inc	$15                     ; 0x2015 <main+0x1aab>
    710c: b2 14        	lda	($14)                   ; 0x2014 <main+0x1aaa>
    710e: aa           	tax
    710f: 18           	clc
    7110: 69 d6        	adc	#$d6
    7112: c9 07        	cmp	#$7
    7114: b0 c7        	bcs	$70dd <_ZN12_GLOBAL__N_15printEPKcP6Status+0x94>
    7116: 86 19        	stx	$19                     ; 0x2019 <main+0x1aaf>
    7118: 0a           	asl
    7119: aa           	tax
    711a: a9 01        	lda	#$1
    711c: 85 18        	sta	$18                     ; 0x2018 <main+0x1aae>
    711e: a5 a8        	lda	$a8                     ; 0x20a8 <main+0x1b3e>
    7120: 7c b0 85     	jmp	($85b0,x)               ; 0x85b0 <__set_v+0x123>
    7123: a0 11        	ldy	#$11
    7125: a5 a2        	lda	$a2                     ; 0x20a2 <main+0x1b38>
    7127: 18           	clc
    7128: 69 11        	adc	#$11
    712a: 85 16        	sta	$16                     ; 0x2016 <main+0x1aac>
    712c: a5 a3        	lda	$a3                     ; 0x20a3 <main+0x1b39>
    712e: 69 00        	adc	#$0
    7130: 85 17        	sta	$17                     ; 0x2017 <main+0x1aad>
    7132: b1 a2        	lda	($a2),y                 ; 0x20a2 <main+0x1b38>
    7134: 85 18        	sta	$18                     ; 0x2018 <main+0x1aae>
    7136: 18           	clc
    7137: 69 02        	adc	#$2
    7139: 91 a2        	sta	($a2),y                 ; 0x20a2 <main+0x1b38>
    713b: a0 01        	ldy	#$1
    713d: b1 16        	lda	($16),y                 ; 0x2016 <main+0x1aac>
    713f: 85 19        	sta	$19                     ; 0x2019 <main+0x1aaf>
    7141: 69 00        	adc	#$0
    7143: 91 16        	sta	($16),y                 ; 0x2016 <main+0x1aac>
    7145: b2 18        	lda	($18)                   ; 0x2018 <main+0x1aae>
    7147: 85 17        	sta	$17                     ; 0x2017 <main+0x1aad>
    7149: b1 18        	lda	($18),y                 ; 0x2018 <main+0x1aae>
    714b: 85 16        	sta	$16                     ; 0x2016 <main+0x1aac>
    714d: 10 03        	bpl	$7152 <_ZN12_GLOBAL__N_15printEPKcP6Status+0x109>
    714f: 4c e0 71     	jmp	$71e0 <_ZN12_GLOBAL__N_15printEPKcP6Status+0x197>
    7152: a6 17        	ldx	$17                     ; 0x2017 <main+0x1aad>
    7154: 85 1a        	sta	$1a                     ; 0x201a <main+0x1ab0>
    7156: 4c 0a 72     	jmp	$720a <_ZN12_GLOBAL__N_15printEPKcP6Status+0x1c1>
    7159: 18           	clc
    715a: a5 19        	lda	$19                     ; 0x2019 <main+0x1aaf>
    715c: 69 d0        	adc	#$d0
    715e: c9 0a        	cmp	#$a
    7160: 90 03        	bcc	$7165 <_ZN12_GLOBAL__N_15printEPKcP6Status+0x11c>
    7162: 4c bb 71     	jmp	$71bb <_ZN12_GLOBAL__N_15printEPKcP6Status+0x172>
    7165: a6 19        	ldx	$19                     ; 0x2019 <main+0x1aaf>
    7167: 86 16        	stx	$16                     ; 0x2016 <main+0x1aac>
    7169: 64 18        	stz	$18                     ; 0x2018 <main+0x1aae>
    716b: a0 01        	ldy	#$1
    716d: 64 17        	stz	$17                     ; 0x2017 <main+0x1aad>
    716f: 64 19        	stz	$19                     ; 0x2019 <main+0x1aaf>
    7171: 06 18        	asl	$18                     ; 0x2018 <main+0x1aae>
    7173: 26 19        	rol	$19                     ; 0x2019 <main+0x1aaf>
    7175: a5 18        	lda	$18                     ; 0x2018 <main+0x1aae>
    7177: 0a           	asl
    7178: aa           	tax
    7179: a5 19        	lda	$19                     ; 0x2019 <main+0x1aaf>
    717b: 2a           	rol
    717c: 86 1a        	stx	$1a                     ; 0x201a <main+0x1ab0>
    717e: 06 1a        	asl	$1a                     ; 0x201a <main+0x1ab0>
    7180: 2a           	rol
    7181: aa           	tax
    7182: a5 1a        	lda	$1a                     ; 0x201a <main+0x1ab0>
    7184: 18           	clc
    7185: 65 18        	adc	$18                     ; 0x2018 <main+0x1aae>
    7187: 85 18        	sta	$18                     ; 0x2018 <main+0x1aae>
    7189: 8a           	txa
    718a: 65 19        	adc	$19                     ; 0x2019 <main+0x1aaf>
    718c: 85 19        	sta	$19                     ; 0x2019 <main+0x1aaf>
    718e: a5 18        	lda	$18                     ; 0x2018 <main+0x1aae>
    7190: 18           	clc
    7191: 65 16        	adc	$16                     ; 0x2016 <main+0x1aac>
    7193: 85 16        	sta	$16                     ; 0x2016 <main+0x1aac>
    7195: a5 19        	lda	$19                     ; 0x2019 <main+0x1aaf>
    7197: 65 17        	adc	$17                     ; 0x2017 <main+0x1aad>
    7199: aa           	tax
    719a: 18           	clc
    719b: a5 16        	lda	$16                     ; 0x2016 <main+0x1aac>
    719d: 69 d0        	adc	#$d0
    719f: 85 18        	sta	$18                     ; 0x2018 <main+0x1aae>
    71a1: 8a           	txa
    71a2: 69 ff        	adc	#$ff
    71a4: 85 19        	sta	$19                     ; 0x2019 <main+0x1aaf>
    71a6: b1 14        	lda	($14),y                 ; 0x2014 <main+0x1aaa>
    71a8: 85 16        	sta	$16                     ; 0x2016 <main+0x1aac>
    71aa: 18           	clc
    71ab: 69 d0        	adc	#$d0
    71ad: e6 14        	inc	$14                     ; 0x2014 <main+0x1aaa>
    71af: d0 02        	bne	$71b3 <_ZN12_GLOBAL__N_15printEPKcP6Status+0x16a>
    71b1: e6 15        	inc	$15                     ; 0x2015 <main+0x1aab>
    71b3: c9 0a        	cmp	#$a
    71b5: 64 17        	stz	$17                     ; 0x2017 <main+0x1aad>
    71b7: 90 b8        	bcc	$7171 <_ZN12_GLOBAL__N_15printEPKcP6Status+0x128>
    71b9: 80 04        	bra	$71bf <_ZN12_GLOBAL__N_15printEPKcP6Status+0x176>
    71bb: 64 18        	stz	$18                     ; 0x2018 <main+0x1aae>
    71bd: 64 19        	stz	$19                     ; 0x2019 <main+0x1aaf>
    71bf: a5 a2        	lda	$a2                     ; 0x20a2 <main+0x1b38>
    71c1: 18           	clc
    71c2: 69 0b        	adc	#$b
    71c4: 85 16        	sta	$16                     ; 0x2016 <main+0x1aac>
    71c6: a5 a3        	lda	$a3                     ; 0x20a3 <main+0x1b39>
    71c8: 69 00        	adc	#$0
    71ca: 85 17        	sta	$17                     ; 0x2017 <main+0x1aad>
    71cc: a0 0b        	ldy	#$b
    71ce: a5 18        	lda	$18                     ; 0x2018 <main+0x1aae>
    71d0: 91 a2        	sta	($a2),y                 ; 0x20a2 <main+0x1b38>
    71d2: a6 18        	ldx	$18                     ; 0x2018 <main+0x1aae>
    71d4: a0 01        	ldy	#$1
    71d6: a5 19        	lda	$19                     ; 0x2019 <main+0x1aaf>
    71d8: 91 16        	sta	($16),y                 ; 0x2016 <main+0x1aac>
    71da: 86 16        	stx	$16                     ; 0x2016 <main+0x1aac>
    71dc: 85 17        	sta	$17                     ; 0x2017 <main+0x1aad>
    71de: 80 4c        	bra	$722c <_ZN12_GLOBAL__N_15printEPKcP6Status+0x1e3>
    71e0: a5 a8        	lda	$a8                     ; 0x20a8 <main+0x1b3e>
    71e2: 09 01        	ora	#$1
    71e4: 85 1b        	sta	$1b                     ; 0x201b <main+0x1ab1>
    71e6: a6 a2        	ldx	$a2                     ; 0x20a2 <main+0x1b38>
    71e8: 86 18        	stx	$18                     ; 0x2018 <main+0x1aae>
    71ea: a6 a3        	ldx	$a3                     ; 0x20a3 <main+0x1b39>
    71ec: 86 19        	stx	$19                     ; 0x2019 <main+0x1aaf>
    71ee: 38           	sec
    71ef: a9 00        	lda	#$0
    71f1: e5 17        	sbc	$17                     ; 0x2017 <main+0x1aad>
    71f3: aa           	tax
    71f4: a9 00        	lda	#$0
    71f6: e5 16        	sbc	$16                     ; 0x2016 <main+0x1aac>
    71f8: 85 1a        	sta	$1a                     ; 0x201a <main+0x1ab0>
    71fa: e6 18        	inc	$18                     ; 0x2018 <main+0x1aae>
    71fc: d0 02        	bne	$7200 <_ZN12_GLOBAL__N_15printEPKcP6Status+0x1b7>
    71fe: e6 19        	inc	$19                     ; 0x2019 <main+0x1aaf>
    7200: a5 1b        	lda	$1b                     ; 0x201b <main+0x1ab1>
    7202: 85 a8        	sta	$a8                     ; 0x20a8 <main+0x1b3e>
    7204: 91 a2        	sta	($a2),y                 ; 0x20a2 <main+0x1b38>
    7206: a9 00        	lda	#$0
    7208: 91 18        	sta	($18),y                 ; 0x2018 <main+0x1aae>
    720a: a5 a2        	lda	$a2                     ; 0x20a2 <main+0x1b38>
    720c: 18           	clc
    720d: 69 0b        	adc	#$b
    720f: 85 16        	sta	$16                     ; 0x2016 <main+0x1aac>
    7211: a5 a3        	lda	$a3                     ; 0x20a3 <main+0x1b39>
    7213: 69 00        	adc	#$0
    7215: 85 17        	sta	$17                     ; 0x2017 <main+0x1aad>
    7217: a0 0b        	ldy	#$b
    7219: 8a           	txa
    721a: 91 a2        	sta	($a2),y                 ; 0x20a2 <main+0x1b38>
    721c: a5 1a        	lda	$1a                     ; 0x201a <main+0x1ab0>
    721e: a0 01        	ldy	#$1
    7220: 91 16        	sta	($16),y                 ; 0x2016 <main+0x1aac>
    7222: 86 16        	stx	$16                     ; 0x2016 <main+0x1aac>
    7224: 85 17        	sta	$17                     ; 0x2017 <main+0x1aad>
    7226: e6 14        	inc	$14                     ; 0x2014 <main+0x1aaa>
    7228: d0 02        	bne	$722c <_ZN12_GLOBAL__N_15printEPKcP6Status+0x1e3>
    722a: e6 15        	inc	$15                     ; 0x2015 <main+0x1aab>
    722c: b2 14        	lda	($14)                   ; 0x2014 <main+0x1aaa>
    722e: a2 ff        	ldx	#$ff
    7230: c9 2e        	cmp	#$2e
    7232: f0 03        	beq	$7237 <_ZN12_GLOBAL__N_15printEPKcP6Status+0x1ee>
    7234: 4c b6 72     	jmp	$72b6 <_ZN12_GLOBAL__N_15printEPKcP6Status+0x26d>
    7237: a6 14        	ldx	$14                     ; 0x2014 <main+0x1aaa>
    7239: 86 18        	stx	$18                     ; 0x2018 <main+0x1aae>
    723b: a6 15        	ldx	$15                     ; 0x2015 <main+0x1aab>
    723d: 86 19        	stx	$19                     ; 0x2019 <main+0x1aaf>
    723f: e6 18        	inc	$18                     ; 0x2018 <main+0x1aae>
    7241: d0 02        	bne	$7245 <_ZN12_GLOBAL__N_15printEPKcP6Status+0x1fc>
    7243: e6 19        	inc	$19                     ; 0x2019 <main+0x1aaf>
    7245: b1 14        	lda	($14),y                 ; 0x2014 <main+0x1aaa>
    7247: c9 2a        	cmp	#$2a
    7249: f0 03        	beq	$724e <_ZN12_GLOBAL__N_15printEPKcP6Status+0x205>
    724b: 4c bd 72     	jmp	$72bd <_ZN12_GLOBAL__N_15printEPKcP6Status+0x274>
    724e: a0 11        	ldy	#$11
    7250: b1 a2        	lda	($a2),y                 ; 0x20a2 <main+0x1b38>
    7252: 85 18        	sta	$18                     ; 0x2018 <main+0x1aae>
    7254: 18           	clc
    7255: 69 02        	adc	#$2
    7257: a2 01        	ldx	#$1
    7259: b0 02        	bcs	$725d <_ZN12_GLOBAL__N_15printEPKcP6Status+0x214>
    725b: a2 00        	ldx	#$0
    725d: 86 1d        	stx	$1d                     ; 0x201d <main+0x1ab3>
    725f: 91 a2        	sta	($a2),y                 ; 0x20a2 <main+0x1b38>
    7261: 18           	clc
    7262: a5 a2        	lda	$a2                     ; 0x20a2 <main+0x1b38>
    7264: 69 11        	adc	#$11
    7266: 85 1a        	sta	$1a                     ; 0x201a <main+0x1ab0>
    7268: a5 a3        	lda	$a3                     ; 0x20a3 <main+0x1b39>
    726a: 69 00        	adc	#$0
    726c: 85 1b        	sta	$1b                     ; 0x201b <main+0x1ab1>
    726e: a0 01        	ldy	#$1
    7270: b1 1a        	lda	($1a),y                 ; 0x201a <main+0x1ab0>
    7272: 85 19        	sta	$19                     ; 0x2019 <main+0x1aaf>
    7274: a6 1d        	ldx	$1d                     ; 0x201d <main+0x1ab3>
    7276: e0 01        	cpx	#$1
    7278: 69 00        	adc	#$0
    727a: 91 1a        	sta	($1a),y                 ; 0x201a <main+0x1ab0>
    727c: b2 18        	lda	($18)                   ; 0x2018 <main+0x1aae>
    727e: 85 1b        	sta	$1b                     ; 0x201b <main+0x1ab1>
    7280: 18           	clc
    7281: a5 a2        	lda	$a2                     ; 0x20a2 <main+0x1b38>
    7283: 69 0d        	adc	#$d
    7285: 85 1a        	sta	$1a                     ; 0x201a <main+0x1ab0>
    7287: a5 a3        	lda	$a3                     ; 0x20a3 <main+0x1b39>
    7289: 69 00        	adc	#$0
    728b: aa           	tax
    728c: b1 18        	lda	($18),y                 ; 0x2018 <main+0x1aae>
    728e: 85 1c        	sta	$1c                     ; 0x201c <main+0x1ab2>
    7290: a4 1a        	ldy	$1a                     ; 0x201a <main+0x1ab0>
    7292: 84 18        	sty	$18                     ; 0x2018 <main+0x1aae>
    7294: 86 19        	stx	$19                     ; 0x2019 <main+0x1aaf>
    7296: a5 1b        	lda	$1b                     ; 0x201b <main+0x1ab1>
    7298: 85 1a        	sta	$1a                     ; 0x201a <main+0x1ab0>
    729a: a0 0d        	ldy	#$d
    729c: 91 a2        	sta	($a2),y                 ; 0x20a2 <main+0x1b38>
    729e: a5 1c        	lda	$1c                     ; 0x201c <main+0x1ab2>
    72a0: 85 1e        	sta	$1e                     ; 0x201e <main+0x1ab4>
    72a2: a0 01        	ldy	#$1
    72a4: 91 18        	sta	($18),y                 ; 0x2018 <main+0x1aae>
    72a6: a5 14        	lda	$14                     ; 0x2014 <main+0x1aaa>
    72a8: 18           	clc
    72a9: 69 02        	adc	#$2
    72ab: 85 18        	sta	$18                     ; 0x2018 <main+0x1aae>
    72ad: a5 15        	lda	$15                     ; 0x2015 <main+0x1aab>
    72af: 69 00        	adc	#$0
    72b1: 85 19        	sta	$19                     ; 0x2019 <main+0x1aaf>
    72b3: 4c 83 73     	jmp	$7383 <_ZN12_GLOBAL__N_15printEPKcP6Status+0x33a>
    72b6: 86 1a        	stx	$1a                     ; 0x201a <main+0x1ab0>
    72b8: 86 1b        	stx	$1b                     ; 0x201b <main+0x1ab1>
    72ba: 4c ab 73     	jmp	$73ab <_ZN12_GLOBAL__N_15printEPKcP6Status+0x362>
    72bd: 18           	clc
    72be: 85 1c        	sta	$1c                     ; 0x201c <main+0x1ab2>
    72c0: 69 d0        	adc	#$d0
    72c2: c9 0a        	cmp	#$a
    72c4: 90 03        	bcc	$72c9 <_ZN12_GLOBAL__N_15printEPKcP6Status+0x280>
    72c6: 4c 68 73     	jmp	$7368 <_ZN12_GLOBAL__N_15printEPKcP6Status+0x31f>
    72c9: 64 1b        	stz	$1b                     ; 0x201b <main+0x1ab1>
    72cb: 64 1f        	stz	$1f                     ; 0x201f <main+0x1ab5>
    72cd: 64 1e        	stz	$1e                     ; 0x201e <main+0x1ab4>
    72cf: a2 01        	ldx	#$1
    72d1: 64 1a        	stz	$1a                     ; 0x201a <main+0x1ab0>
    72d3: 5a           	phy
    72d4: a4 1a        	ldy	$1a                     ; 0x201a <main+0x1ab0>
    72d6: 84 18        	sty	$18                     ; 0x2018 <main+0x1aae>
    72d8: 86 19        	stx	$19                     ; 0x2019 <main+0x1aaf>
    72da: a5 1f        	lda	$1f                     ; 0x201f <main+0x1ab5>
    72dc: 0a           	asl
    72dd: 85 1d        	sta	$1d                     ; 0x201d <main+0x1ab3>
    72df: 26 1e        	rol	$1e                     ; 0x201e <main+0x1ab4>
    72e1: 0a           	asl
    72e2: a4 1e        	ldy	$1e                     ; 0x201e <main+0x1ab4>
    72e4: 84 1f        	sty	$1f                     ; 0x201f <main+0x1ab5>
    72e6: 7a           	ply
    72e7: 26 1f        	rol	$1f                     ; 0x201f <main+0x1ab5>
    72e9: 0a           	asl
    72ea: 26 1f        	rol	$1f                     ; 0x201f <main+0x1ab5>
    72ec: 18           	clc
    72ed: 65 1d        	adc	$1d                     ; 0x201d <main+0x1ab3>
    72ef: 85 22        	sta	$22                     ; 0x2022 <main+0x1ab8>
    72f1: a5 1f        	lda	$1f                     ; 0x201f <main+0x1ab5>
    72f3: 65 1e        	adc	$1e                     ; 0x201e <main+0x1ab4>
    72f5: 85 1d        	sta	$1d                     ; 0x201d <main+0x1ab3>
    72f7: 18           	clc
    72f8: a5 22        	lda	$22                     ; 0x2022 <main+0x1ab8>
    72fa: 65 1c        	adc	$1c                     ; 0x201c <main+0x1ab2>
    72fc: 85 1c        	sta	$1c                     ; 0x201c <main+0x1ab2>
    72fe: a5 1d        	lda	$1d                     ; 0x201d <main+0x1ab3>
    7300: 65 1b        	adc	$1b                     ; 0x201b <main+0x1ab1>
    7302: 85 1b        	sta	$1b                     ; 0x201b <main+0x1ab1>
    7304: 18           	clc
    7305: a5 1c        	lda	$1c                     ; 0x201c <main+0x1ab2>
    7307: 69 d0        	adc	#$d0
    7309: 85 1c        	sta	$1c                     ; 0x201c <main+0x1ab2>
    730b: a5 1b        	lda	$1b                     ; 0x201b <main+0x1ab1>
    730d: 69 ff        	adc	#$ff
    730f: 85 1e        	sta	$1e                     ; 0x201e <main+0x1ab4>
    7311: a5 1c        	lda	$1c                     ; 0x201c <main+0x1ab2>
    7313: 85 1f        	sta	$1f                     ; 0x201f <main+0x1ab5>
    7315: e8           	inx
    7316: d0 02        	bne	$731a <_ZN12_GLOBAL__N_15printEPKcP6Status+0x2d1>
    7318: e6 1a        	inc	$1a                     ; 0x201a <main+0x1ab0>
    731a: a5 14        	lda	$14                     ; 0x2014 <main+0x1aaa>
    731c: 18           	clc
    731d: 65 19        	adc	$19                     ; 0x2019 <main+0x1aaf>
    731f: 85 1c        	sta	$1c                     ; 0x201c <main+0x1ab2>
    7321: a5 15        	lda	$15                     ; 0x2015 <main+0x1aab>
    7323: 65 18        	adc	$18                     ; 0x2018 <main+0x1aae>
    7325: 85 1d        	sta	$1d                     ; 0x201d <main+0x1ab3>
    7327: b1 1c        	lda	($1c),y                 ; 0x201c <main+0x1ab2>
    7329: 85 1c        	sta	$1c                     ; 0x201c <main+0x1ab2>
    732b: 18           	clc
    732c: 69 d0        	adc	#$d0
    732e: c9 0a        	cmp	#$a
    7330: 64 1b        	stz	$1b                     ; 0x201b <main+0x1ab1>
    7332: b0 03        	bcs	$7337 <_ZN12_GLOBAL__N_15printEPKcP6Status+0x2ee>
    7334: 4c d3 72     	jmp	$72d3 <_ZN12_GLOBAL__N_15printEPKcP6Status+0x28a>
    7337: a5 14        	lda	$14                     ; 0x2014 <main+0x1aaa>
    7339: 18           	clc
    733a: 65 19        	adc	$19                     ; 0x2019 <main+0x1aaf>
    733c: aa           	tax
    733d: a5 15        	lda	$15                     ; 0x2015 <main+0x1aab>
    733f: 65 18        	adc	$18                     ; 0x2018 <main+0x1aae>
    7341: 86 18        	stx	$18                     ; 0x2018 <main+0x1aae>
    7343: 85 19        	sta	$19                     ; 0x2019 <main+0x1aaf>
    7345: a5 a2        	lda	$a2                     ; 0x20a2 <main+0x1b38>
    7347: 18           	clc
    7348: 69 0d        	adc	#$d
    734a: 85 14        	sta	$14                     ; 0x2014 <main+0x1aaa>
    734c: a5 a3        	lda	$a3                     ; 0x20a3 <main+0x1b39>
    734e: 69 00        	adc	#$0
    7350: a0 0d        	ldy	#$d
    7352: 85 15        	sta	$15                     ; 0x2015 <main+0x1aab>
    7354: a5 1f        	lda	$1f                     ; 0x201f <main+0x1ab5>
    7356: 85 1a        	sta	$1a                     ; 0x201a <main+0x1ab0>
    7358: 91 a2        	sta	($a2),y                 ; 0x20a2 <main+0x1b38>
    735a: a0 01        	ldy	#$1
    735c: a5 1e        	lda	$1e                     ; 0x201e <main+0x1ab4>
    735e: 91 14        	sta	($14),y                 ; 0x2014 <main+0x1aaa>
    7360: e6 18        	inc	$18                     ; 0x2018 <main+0x1aae>
    7362: d0 1f        	bne	$7383 <_ZN12_GLOBAL__N_15printEPKcP6Status+0x33a>
    7364: e6 19        	inc	$19                     ; 0x2019 <main+0x1aaf>
    7366: 80 1b        	bra	$7383 <_ZN12_GLOBAL__N_15printEPKcP6Status+0x33a>
    7368: a0 0d        	ldy	#$d
    736a: a5 a2        	lda	$a2                     ; 0x20a2 <main+0x1b38>
    736c: 18           	clc
    736d: 69 0d        	adc	#$d
    736f: 85 14        	sta	$14                     ; 0x2014 <main+0x1aaa>
    7371: a5 a3        	lda	$a3                     ; 0x20a3 <main+0x1b39>
    7373: 69 00        	adc	#$0
    7375: 85 15        	sta	$15                     ; 0x2015 <main+0x1aab>
    7377: a9 00        	lda	#$0
    7379: 91 a2        	sta	($a2),y                 ; 0x20a2 <main+0x1b38>
    737b: a0 01        	ldy	#$1
    737d: 64 1a        	stz	$1a                     ; 0x201a <main+0x1ab0>
    737f: 91 14        	sta	($14),y                 ; 0x2014 <main+0x1aaa>
    7381: 64 1e        	stz	$1e                     ; 0x201e <main+0x1ab4>
    7383: a5 a8        	lda	$a8                     ; 0x20a8 <main+0x1b3e>
    7385: 29 ef        	and	#$ef
    7387: a6 a2        	ldx	$a2                     ; 0x20a2 <main+0x1b38>
    7389: 86 14        	stx	$14                     ; 0x2014 <main+0x1aaa>
    738b: a6 a3        	ldx	$a3                     ; 0x20a3 <main+0x1b39>
    738d: 86 15        	stx	$15                     ; 0x2015 <main+0x1aab>
    738f: e6 14        	inc	$14                     ; 0x2014 <main+0x1aaa>
    7391: d0 02        	bne	$7395 <_ZN12_GLOBAL__N_15printEPKcP6Status+0x34c>
    7393: e6 15        	inc	$15                     ; 0x2015 <main+0x1aab>
    7395: 85 a8        	sta	$a8                     ; 0x20a8 <main+0x1b3e>
    7397: 91 a2        	sta	($a2),y                 ; 0x20a2 <main+0x1b38>
    7399: a9 00        	lda	#$0
    739b: 91 14        	sta	($14),y                 ; 0x2014 <main+0x1aaa>
    739d: b2 18        	lda	($18)                   ; 0x2018 <main+0x1aae>
    739f: a6 1e        	ldx	$1e                     ; 0x201e <main+0x1ab4>
    73a1: 86 1b        	stx	$1b                     ; 0x201b <main+0x1ab1>
    73a3: a6 18        	ldx	$18                     ; 0x2018 <main+0x1aae>
    73a5: 86 14        	stx	$14                     ; 0x2014 <main+0x1aaa>
    73a7: a6 19        	ldx	$19                     ; 0x2019 <main+0x1aaf>
    73a9: 86 15        	stx	$15                     ; 0x2015 <main+0x1aab>
    73ab: a6 14        	ldx	$14                     ; 0x2014 <main+0x1aaa>
    73ad: 86 18        	stx	$18                     ; 0x2018 <main+0x1aae>
    73af: a6 15        	ldx	$15                     ; 0x2015 <main+0x1aab>
    73b1: 86 19        	stx	$19                     ; 0x2019 <main+0x1aaf>
    73b3: e6 18        	inc	$18                     ; 0x2018 <main+0x1aae>
    73b5: d0 02        	bne	$73b9 <_ZN12_GLOBAL__N_15printEPKcP6Status+0x370>
    73b7: e6 19        	inc	$19                     ; 0x2019 <main+0x1aaf>
    73b9: 38           	sec
    73ba: aa           	tax
    73bb: e9 6c        	sbc	#$6c
    73bd: 50 02        	bvc	$73c1 <_ZN12_GLOBAL__N_15printEPKcP6Status+0x378>
    73bf: 49 80        	eor	#$80
    73c1: c9 00        	cmp	#$0
    73c3: 10 20        	bpl	$73e5 <_ZN12_GLOBAL__N_15printEPKcP6Status+0x39c>
    73c5: e0 4c        	cpx	#$4c
    73c7: f0 3a        	beq	$7403 <_ZN12_GLOBAL__N_15printEPKcP6Status+0x3ba>
    73c9: 8a           	txa
    73ca: e0 68        	cpx	#$68
    73cc: d0 03        	bne	$73d1 <_ZN12_GLOBAL__N_15printEPKcP6Status+0x388>
    73ce: 4c 95 74     	jmp	$7495 <_ZN12_GLOBAL__N_15printEPKcP6Status+0x44c>
    73d1: a0 08        	ldy	#$8
    73d3: a2 02        	ldx	#$2
    73d5: c9 6a        	cmp	#$6a
    73d7: d0 26        	bne	$73ff <_ZN12_GLOBAL__N_15printEPKcP6Status+0x3b6>
    73d9: a6 18        	ldx	$18                     ; 0x2018 <main+0x1aae>
    73db: 86 14        	stx	$14                     ; 0x2014 <main+0x1aaa>
    73dd: a6 19        	ldx	$19                     ; 0x2019 <main+0x1aaf>
    73df: 86 15        	stx	$15                     ; 0x2015 <main+0x1aab>
    73e1: a2 08        	ldx	#$8
    73e3: 80 44        	bra	$7429 <_ZN12_GLOBAL__N_15printEPKcP6Status+0x3e0>
    73e5: e0 6c        	cpx	#$6c
    73e7: d0 03        	bne	$73ec <_ZN12_GLOBAL__N_15printEPKcP6Status+0x3a3>
    73e9: 4c 79 74     	jmp	$7479 <_ZN12_GLOBAL__N_15printEPKcP6Status+0x430>
    73ec: 8a           	txa
    73ed: e0 74        	cpx	#$74
    73ef: f0 2c        	beq	$741d <_ZN12_GLOBAL__N_15printEPKcP6Status+0x3d4>
    73f1: a2 02        	ldx	#$2
    73f3: c9 7a        	cmp	#$7a
    73f5: d0 08        	bne	$73ff <_ZN12_GLOBAL__N_15printEPKcP6Status+0x3b6>
    73f7: a4 18        	ldy	$18                     ; 0x2018 <main+0x1aae>
    73f9: 84 14        	sty	$14                     ; 0x2014 <main+0x1aaa>
    73fb: a4 19        	ldy	$19                     ; 0x2019 <main+0x1aaf>
    73fd: 84 15        	sty	$15                     ; 0x2015 <main+0x1aab>
    73ff: a0 02        	ldy	#$2
    7401: 80 26        	bra	$7429 <_ZN12_GLOBAL__N_15printEPKcP6Status+0x3e0>
    7403: a5 a8        	lda	$a8                     ; 0x20a8 <main+0x1b3e>
    7405: 09 40        	ora	#$40
    7407: a6 a2        	ldx	$a2                     ; 0x20a2 <main+0x1b38>
    7409: 86 14        	stx	$14                     ; 0x2014 <main+0x1aaa>
    740b: a6 a3        	ldx	$a3                     ; 0x20a3 <main+0x1b39>
    740d: 86 15        	stx	$15                     ; 0x2015 <main+0x1aab>
    740f: e6 14        	inc	$14                     ; 0x2014 <main+0x1aaa>
    7411: d0 02        	bne	$7415 <_ZN12_GLOBAL__N_15printEPKcP6Status+0x3cc>
    7413: e6 15        	inc	$15                     ; 0x2015 <main+0x1aab>
    7415: 85 a8        	sta	$a8                     ; 0x20a8 <main+0x1b3e>
    7417: 91 a2        	sta	($a2),y                 ; 0x20a2 <main+0x1b38>
    7419: a9 00        	lda	#$0
    741b: 91 14        	sta	($14),y                 ; 0x2014 <main+0x1aaa>
    741d: a6 18        	ldx	$18                     ; 0x2018 <main+0x1aae>
    741f: 86 14        	stx	$14                     ; 0x2014 <main+0x1aaa>
    7421: a6 19        	ldx	$19                     ; 0x2019 <main+0x1aaf>
    7423: 86 15        	stx	$15                     ; 0x2015 <main+0x1aab>
    7425: a0 02        	ldy	#$2
    7427: a2 02        	ldx	#$2
    7429: b2 14        	lda	($14)                   ; 0x2014 <main+0x1aaa>
    742b: 5a           	phy
    742c: a4 14        	ldy	$14                     ; 0x2014 <main+0x1aaa>
    742e: 84 18        	sty	$18                     ; 0x2018 <main+0x1aae>
    7430: a4 15        	ldy	$15                     ; 0x2015 <main+0x1aab>
    7432: 84 19        	sty	$19                     ; 0x2019 <main+0x1aaf>
    7434: 7a           	ply
    7435: 86 a4        	stx	$a4                     ; 0x20a4 <main+0x1b3a>
    7437: 5a           	phy
    7438: fa           	plx
    7439: 18           	clc
    743a: a8           	tay
    743b: 69 9d        	adc	#$9d
    743d: c9 16        	cmp	#$16
    743f: 86 a9        	stx	$a9                     ; 0x20a9 <main+0x1b3f>
    7441: 90 03        	bcc	$7446 <_ZN12_GLOBAL__N_15printEPKcP6Status+0x3fd>
    7443: 4c b2 74     	jmp	$74b2 <_ZN12_GLOBAL__N_15printEPKcP6Status+0x469>
    7446: 0a           	asl
    7447: aa           	tax
    7448: 7c be 85     	jmp	($85be,x)               ; 0x85be <__set_v+0x131>
    744b: a5 1b        	lda	$1b                     ; 0x201b <main+0x1ab1>
    744d: 85 d0        	sta	$d0                     ; 0x20d0 <main+0x1b66>
    744f: a4 1a        	ldy	$1a                     ; 0x201a <main+0x1ab0>
    7451: 84 d1        	sty	$d1                     ; 0x20d1 <main+0x1b67>
    7453: a6 16        	ldx	$16                     ; 0x2016 <main+0x1aac>
    7455: 86 d3        	stx	$d3                     ; 0x20d3 <main+0x1b69>
    7457: a6 17        	ldx	$17                     ; 0x2017 <main+0x1aad>
    7459: 86 d2        	stx	$d2                     ; 0x20d2 <main+0x1b68>
    745b: a6 18        	ldx	$18                     ; 0x2018 <main+0x1aae>
    745d: 86 12        	stx	$12                     ; 0x2012 <main+0x1aa8>
    745f: a6 19        	ldx	$19                     ; 0x2019 <main+0x1aaf>
    7461: 86 13        	stx	$13                     ; 0x2013 <main+0x1aa9>
    7463: a6 12        	ldx	$12                     ; 0x2012 <main+0x1aa8>
    7465: 86 cc        	stx	$cc                     ; 0x20cc <main+0x1b62>
    7467: a6 13        	ldx	$13                     ; 0x2013 <main+0x1aa9>
    7469: 86 cd        	stx	$cd                     ; 0x20cd <main+0x1b63>
    746b: a9 0a        	lda	#$a
    746d: aa           	tax
    746e: 86 cb        	stx	$cb                     ; 0x20cb <main+0x1b61>
    7470: 92 a2        	sta	($a2)                   ; 0x20a2 <main+0x1b38>
    7472: a2 00        	ldx	#$0
    7474: 86 d4        	stx	$d4                     ; 0x20d4 <main+0x1b6a>
    7476: 4c d6 76     	jmp	$76d6 <_ZN12_GLOBAL__N_15printEPKcP6Status+0x68d>
    7479: b1 14        	lda	($14),y                 ; 0x2014 <main+0x1aaa>
    747b: a2 04        	ldx	#$4
    747d: c9 6c        	cmp	#$6c
    747f: d0 2c        	bne	$74ad <_ZN12_GLOBAL__N_15printEPKcP6Status+0x464>
    7481: a5 14        	lda	$14                     ; 0x2014 <main+0x1aaa>
    7483: 18           	clc
    7484: 69 02        	adc	#$2
    7486: 85 14        	sta	$14                     ; 0x2014 <main+0x1aaa>
    7488: a5 15        	lda	$15                     ; 0x2015 <main+0x1aab>
    748a: 69 00        	adc	#$0
    748c: 85 15        	sta	$15                     ; 0x2015 <main+0x1aab>
    748e: a2 08        	ldx	#$8
    7490: a0 08        	ldy	#$8
    7492: 4c 29 74     	jmp	$7429 <_ZN12_GLOBAL__N_15printEPKcP6Status+0x3e0>
    7495: b1 14        	lda	($14),y                 ; 0x2014 <main+0x1aaa>
    7497: a2 02        	ldx	#$2
    7499: c9 68        	cmp	#$68
    749b: d0 10        	bne	$74ad <_ZN12_GLOBAL__N_15printEPKcP6Status+0x464>
    749d: a5 14        	lda	$14                     ; 0x2014 <main+0x1aaa>
    749f: 18           	clc
    74a0: 69 02        	adc	#$2
    74a2: 85 14        	sta	$14                     ; 0x2014 <main+0x1aaa>
    74a4: a5 15        	lda	$15                     ; 0x2015 <main+0x1aab>
    74a6: 69 00        	adc	#$0
    74a8: 85 15        	sta	$15                     ; 0x2015 <main+0x1aab>
    74aa: 4c 29 74     	jmp	$7429 <_ZN12_GLOBAL__N_15printEPKcP6Status+0x3e0>
    74ad: 86 a4        	stx	$a4                     ; 0x20a4 <main+0x1b3a>
    74af: 4c 39 74     	jmp	$7439 <_ZN12_GLOBAL__N_15printEPKcP6Status+0x3f0>
    74b2: c0 58        	cpy	#$58
    74b4: f0 03        	beq	$74b9 <_ZN12_GLOBAL__N_15printEPKcP6Status+0x470>
    74b6: 4c 7c 7b     	jmp	$7b7c <_ZN12_GLOBAL__N_15printEPKcP6Status+0xb33>
    74b9: a5 1b        	lda	$1b                     ; 0x201b <main+0x1ab1>
    74bb: 85 d0        	sta	$d0                     ; 0x20d0 <main+0x1b66>
    74bd: a4 1a        	ldy	$1a                     ; 0x201a <main+0x1ab0>
    74bf: 84 d1        	sty	$d1                     ; 0x20d1 <main+0x1b67>
    74c1: a6 16        	ldx	$16                     ; 0x2016 <main+0x1aac>
    74c3: 86 d3        	stx	$d3                     ; 0x20d3 <main+0x1b69>
    74c5: a6 17        	ldx	$17                     ; 0x2017 <main+0x1aad>
    74c7: 86 d2        	stx	$d2                     ; 0x20d2 <main+0x1b68>
    74c9: a6 18        	ldx	$18                     ; 0x2018 <main+0x1aae>
    74cb: 86 12        	stx	$12                     ; 0x2012 <main+0x1aa8>
    74cd: a6 19        	ldx	$19                     ; 0x2019 <main+0x1aaf>
    74cf: 86 13        	stx	$13                     ; 0x2013 <main+0x1aa9>
    74d1: a6 12        	ldx	$12                     ; 0x2012 <main+0x1aa8>
    74d3: 86 cc        	stx	$cc                     ; 0x20cc <main+0x1b62>
    74d5: a6 13        	ldx	$13                     ; 0x2013 <main+0x1aa9>
    74d7: 86 cd        	stx	$cd                     ; 0x20cd <main+0x1b63>
    74d9: a9 10        	lda	#$10
    74db: 4c b6 76     	jmp	$76b6 <_ZN12_GLOBAL__N_15printEPKcP6Status+0x66d>
    74de: a5 1b        	lda	$1b                     ; 0x201b <main+0x1ab1>
    74e0: 85 d0        	sta	$d0                     ; 0x20d0 <main+0x1b66>
    74e2: a4 1a        	ldy	$1a                     ; 0x201a <main+0x1ab0>
    74e4: 84 d1        	sty	$d1                     ; 0x20d1 <main+0x1b67>
    74e6: a6 16        	ldx	$16                     ; 0x2016 <main+0x1aac>
    74e8: 86 d3        	stx	$d3                     ; 0x20d3 <main+0x1b69>
    74ea: a6 17        	ldx	$17                     ; 0x2017 <main+0x1aad>
    74ec: 86 d2        	stx	$d2                     ; 0x20d2 <main+0x1b68>
    74ee: a6 18        	ldx	$18                     ; 0x2018 <main+0x1aae>
    74f0: 86 12        	stx	$12                     ; 0x2012 <main+0x1aa8>
    74f2: a6 19        	ldx	$19                     ; 0x2019 <main+0x1aaf>
    74f4: 86 13        	stx	$13                     ; 0x2013 <main+0x1aa9>
    74f6: a6 12        	ldx	$12                     ; 0x2012 <main+0x1aa8>
    74f8: 86 cc        	stx	$cc                     ; 0x20cc <main+0x1b62>
    74fa: a6 13        	ldx	$13                     ; 0x2013 <main+0x1aa9>
    74fc: 86 cd        	stx	$cd                     ; 0x20cd <main+0x1b63>
    74fe: a9 10        	lda	#$10
    7500: 92 a2        	sta	($a2)                   ; 0x20a2 <main+0x1b38>
    7502: a5 a8        	lda	$a8                     ; 0x20a8 <main+0x1b3e>
    7504: 09 84        	ora	#$84
    7506: aa           	tax
    7507: a9 00        	lda	#$0
    7509: 09 01        	ora	#$1
    750b: 85 14        	sta	$14                     ; 0x2014 <main+0x1aaa>
    750d: a4 a2        	ldy	$a2                     ; 0x20a2 <main+0x1b38>
    750f: 84 12        	sty	$12                     ; 0x2012 <main+0x1aa8>
    7511: a4 a3        	ldy	$a3                     ; 0x20a3 <main+0x1b39>
    7513: 84 13        	sty	$13                     ; 0x2013 <main+0x1aa9>
    7515: e6 12        	inc	$12                     ; 0x2012 <main+0x1aa8>
    7517: d0 02        	bne	$751b <_ZN12_GLOBAL__N_15printEPKcP6Status+0x4d2>
    7519: e6 13        	inc	$13                     ; 0x2013 <main+0x1aa9>
    751b: a0 01        	ldy	#$1
    751d: 86 a8        	stx	$a8                     ; 0x20a8 <main+0x1b3e>
    751f: 8a           	txa
    7520: 91 a2        	sta	($a2),y                 ; 0x20a2 <main+0x1b38>
    7522: a5 14        	lda	$14                     ; 0x2014 <main+0x1aaa>
    7524: a6 14        	ldx	$14                     ; 0x2014 <main+0x1aaa>
    7526: 4c d2 76     	jmp	$76d2 <_ZN12_GLOBAL__N_15printEPKcP6Status+0x689>
    7529: a5 1b        	lda	$1b                     ; 0x201b <main+0x1ab1>
    752b: 85 d0        	sta	$d0                     ; 0x20d0 <main+0x1b66>
    752d: a4 1a        	ldy	$1a                     ; 0x201a <main+0x1ab0>
    752f: 84 d1        	sty	$d1                     ; 0x20d1 <main+0x1b67>
    7531: a6 16        	ldx	$16                     ; 0x2016 <main+0x1aac>
    7533: 86 d3        	stx	$d3                     ; 0x20d3 <main+0x1b69>
    7535: a6 17        	ldx	$17                     ; 0x2017 <main+0x1aad>
    7537: 86 d2        	stx	$d2                     ; 0x20d2 <main+0x1b68>
    7539: a6 18        	ldx	$18                     ; 0x2018 <main+0x1aae>
    753b: 86 12        	stx	$12                     ; 0x2012 <main+0x1aa8>
    753d: a6 19        	ldx	$19                     ; 0x2019 <main+0x1aaf>
    753f: 86 13        	stx	$13                     ; 0x2013 <main+0x1aa9>
    7541: a6 12        	ldx	$12                     ; 0x2012 <main+0x1aa8>
    7543: 86 cc        	stx	$cc                     ; 0x20cc <main+0x1b62>
    7545: a6 13        	ldx	$13                     ; 0x2013 <main+0x1aa9>
    7547: 86 cd        	stx	$cd                     ; 0x20cd <main+0x1b63>
    7549: a9 10        	lda	#$10
    754b: 92 a2        	sta	($a2)                   ; 0x20a2 <main+0x1b38>
    754d: a5 a8        	lda	$a8                     ; 0x20a8 <main+0x1b3e>
    754f: 09 80        	ora	#$80
    7551: 85 14        	sta	$14                     ; 0x2014 <main+0x1aaa>
    7553: a9 00        	lda	#$0
    7555: 09 01        	ora	#$1
    7557: aa           	tax
    7558: a4 a2        	ldy	$a2                     ; 0x20a2 <main+0x1b38>
    755a: 84 12        	sty	$12                     ; 0x2012 <main+0x1aa8>
    755c: a4 a3        	ldy	$a3                     ; 0x20a3 <main+0x1b39>
    755e: 84 13        	sty	$13                     ; 0x2013 <main+0x1aa9>
    7560: e6 12        	inc	$12                     ; 0x2012 <main+0x1aa8>
    7562: d0 02        	bne	$7566 <_ZN12_GLOBAL__N_15printEPKcP6Status+0x51d>
    7564: e6 13        	inc	$13                     ; 0x2013 <main+0x1aa9>
    7566: a0 01        	ldy	#$1
    7568: a5 14        	lda	$14                     ; 0x2014 <main+0x1aaa>
    756a: 85 a8        	sta	$a8                     ; 0x20a8 <main+0x1b3e>
    756c: 4c cf 76     	jmp	$76cf <_ZN12_GLOBAL__N_15printEPKcP6Status+0x686>
    756f: a4 a2        	ldy	$a2                     ; 0x20a2 <main+0x1b38>
    7571: a5 a2        	lda	$a2                     ; 0x20a2 <main+0x1b38>
    7573: 84 16        	sty	$16                     ; 0x2016 <main+0x1aac>
    7575: 18           	clc
    7576: 69 11        	adc	#$11
    7578: 85 12        	sta	$12                     ; 0x2012 <main+0x1aa8>
    757a: a5 a3        	lda	$a3                     ; 0x20a3 <main+0x1b39>
    757c: 69 00        	adc	#$0
    757e: 85 13        	sta	$13                     ; 0x2013 <main+0x1aa9>
    7580: a0 11        	ldy	#$11
    7582: b1 a2        	lda	($a2),y                 ; 0x20a2 <main+0x1b38>
    7584: 85 14        	sta	$14                     ; 0x2014 <main+0x1aaa>
    7586: 18           	clc
    7587: 69 02        	adc	#$2
    7589: 91 a2        	sta	($a2),y                 ; 0x20a2 <main+0x1b38>
    758b: a0 01        	ldy	#$1
    758d: b1 12        	lda	($12),y                 ; 0x2012 <main+0x1aa8>
    758f: 85 15        	sta	$15                     ; 0x2015 <main+0x1aab>
    7591: 69 00        	adc	#$0
    7593: 18           	clc
    7594: 91 12        	sta	($12),y                 ; 0x2012 <main+0x1aa8>
    7596: b2 14        	lda	($14)                   ; 0x2014 <main+0x1aaa>
    7598: 85 12        	sta	$12                     ; 0x2012 <main+0x1aa8>
    759a: b1 14        	lda	($14),y                 ; 0x2014 <main+0x1aaa>
    759c: 85 13        	sta	$13                     ; 0x2013 <main+0x1aa9>
    759e: a5 16        	lda	$16                     ; 0x2016 <main+0x1aac>
    75a0: 69 05        	adc	#$5
    75a2: 85 14        	sta	$14                     ; 0x2014 <main+0x1aaa>
    75a4: a5 a3        	lda	$a3                     ; 0x20a3 <main+0x1b39>
    75a6: 69 00        	adc	#$0
    75a8: 85 15        	sta	$15                     ; 0x2015 <main+0x1aab>
    75aa: a0 05        	ldy	#$5
    75ac: b1 a2        	lda	($a2),y                 ; 0x20a2 <main+0x1b38>
    75ae: 85 16        	sta	$16                     ; 0x2016 <main+0x1aac>
    75b0: a0 01        	ldy	#$1
    75b2: b1 14        	lda	($14),y                 ; 0x2014 <main+0x1aaa>
    75b4: 85 14        	sta	$14                     ; 0x2014 <main+0x1aaa>
    75b6: a5 16        	lda	$16                     ; 0x2016 <main+0x1aac>
    75b8: 92 12        	sta	($12)                   ; 0x2012 <main+0x1aa8>
    75ba: a5 14        	lda	$14                     ; 0x2014 <main+0x1aaa>
    75bc: 91 12        	sta	($12),y                 ; 0x2012 <main+0x1aa8>
    75be: e6 18        	inc	$18                     ; 0x2018 <main+0x1aae>
    75c0: d0 02        	bne	$75c4 <_ZN12_GLOBAL__N_15printEPKcP6Status+0x57b>
    75c2: e6 19        	inc	$19                     ; 0x2019 <main+0x1aaf>
    75c4: a6 18        	ldx	$18                     ; 0x2018 <main+0x1aae>
    75c6: 86 12        	stx	$12                     ; 0x2012 <main+0x1aa8>
    75c8: a6 19        	ldx	$19                     ; 0x2019 <main+0x1aaf>
    75ca: 4c 8e 76     	jmp	$768e <_ZN12_GLOBAL__N_15printEPKcP6Status+0x645>
    75cd: a0 11        	ldy	#$11
    75cf: a5 a2        	lda	$a2                     ; 0x20a2 <main+0x1b38>
    75d1: 18           	clc
    75d2: 69 11        	adc	#$11
    75d4: 85 12        	sta	$12                     ; 0x2012 <main+0x1aa8>
    75d6: a5 a3        	lda	$a3                     ; 0x20a3 <main+0x1b39>
    75d8: 69 00        	adc	#$0
    75da: 85 13        	sta	$13                     ; 0x2013 <main+0x1aa9>
    75dc: b1 a2        	lda	($a2),y                 ; 0x20a2 <main+0x1b38>
    75de: aa           	tax
    75df: a0 01        	ldy	#$1
    75e1: b1 12        	lda	($12),y                 ; 0x2012 <main+0x1aa8>
    75e3: 86 14        	stx	$14                     ; 0x2014 <main+0x1aaa>
    75e5: 85 15        	sta	$15                     ; 0x2015 <main+0x1aab>
    75e7: a8           	tay
    75e8: 18           	clc
    75e9: 8a           	txa
    75ea: 69 02        	adc	#$2
    75ec: 85 16        	sta	$16                     ; 0x2016 <main+0x1aac>
    75ee: 98           	tya
    75ef: 69 00        	adc	#$0
    75f1: 85 17        	sta	$17                     ; 0x2017 <main+0x1aad>
    75f3: a5 16        	lda	$16                     ; 0x2016 <main+0x1aac>
    75f5: a0 11        	ldy	#$11
    75f7: 91 a2        	sta	($a2),y                 ; 0x20a2 <main+0x1b38>
    75f9: a0 01        	ldy	#$1
    75fb: a5 17        	lda	$17                     ; 0x2017 <main+0x1aad>
    75fd: 91 12        	sta	($12),y                 ; 0x2012 <main+0x1aa8>
    75ff: b2 14        	lda	($14)                   ; 0x2014 <main+0x1aaa>
    7601: 85 12        	sta	$12                     ; 0x2012 <main+0x1aa8>
    7603: b1 14        	lda	($14),y                 ; 0x2014 <main+0x1aaa>
    7605: 85 13        	sta	$13                     ; 0x2013 <main+0x1aa9>
    7607: 4c 6f 76     	jmp	$766f <_ZN12_GLOBAL__N_15printEPKcP6Status+0x626>
    760a: a5 1b        	lda	$1b                     ; 0x201b <main+0x1ab1>
    760c: 85 d0        	sta	$d0                     ; 0x20d0 <main+0x1b66>
    760e: a4 1a        	ldy	$1a                     ; 0x201a <main+0x1ab0>
    7610: 84 d1        	sty	$d1                     ; 0x20d1 <main+0x1b67>
    7612: a6 16        	ldx	$16                     ; 0x2016 <main+0x1aac>
    7614: 86 d3        	stx	$d3                     ; 0x20d3 <main+0x1b69>
    7616: a6 17        	ldx	$17                     ; 0x2017 <main+0x1aad>
    7618: 86 d2        	stx	$d2                     ; 0x20d2 <main+0x1b68>
    761a: a6 18        	ldx	$18                     ; 0x2018 <main+0x1aae>
    761c: 86 12        	stx	$12                     ; 0x2012 <main+0x1aa8>
    761e: a6 19        	ldx	$19                     ; 0x2019 <main+0x1aaf>
    7620: 86 13        	stx	$13                     ; 0x2013 <main+0x1aa9>
    7622: a6 12        	ldx	$12                     ; 0x2012 <main+0x1aa8>
    7624: 86 cc        	stx	$cc                     ; 0x20cc <main+0x1b62>
    7626: a6 13        	ldx	$13                     ; 0x2013 <main+0x1aa9>
    7628: 86 cd        	stx	$cd                     ; 0x20cd <main+0x1b63>
    762a: a9 08        	lda	#$8
    762c: 4c b3 76     	jmp	$76b3 <_ZN12_GLOBAL__N_15printEPKcP6Status+0x66a>
    762f: a0 11        	ldy	#$11
    7631: a5 a2        	lda	$a2                     ; 0x20a2 <main+0x1b38>
    7633: 18           	clc
    7634: 69 11        	adc	#$11
    7636: 85 12        	sta	$12                     ; 0x2012 <main+0x1aa8>
    7638: a5 a3        	lda	$a3                     ; 0x20a3 <main+0x1b39>
    763a: 69 00        	adc	#$0
    763c: 85 13        	sta	$13                     ; 0x2013 <main+0x1aa9>
    763e: b1 a2        	lda	($a2),y                 ; 0x20a2 <main+0x1b38>
    7640: aa           	tax
    7641: a0 01        	ldy	#$1
    7643: b1 12        	lda	($12),y                 ; 0x2012 <main+0x1aa8>
    7645: 86 14        	stx	$14                     ; 0x2014 <main+0x1aaa>
    7647: 85 15        	sta	$15                     ; 0x2015 <main+0x1aab>
    7649: a8           	tay
    764a: 18           	clc
    764b: 8a           	txa
    764c: 69 02        	adc	#$2
    764e: 85 16        	sta	$16                     ; 0x2016 <main+0x1aac>
    7650: 98           	tya
    7651: 69 00        	adc	#$0
    7653: 85 17        	sta	$17                     ; 0x2017 <main+0x1aad>
    7655: a5 16        	lda	$16                     ; 0x2016 <main+0x1aac>
    7657: a0 11        	ldy	#$11
    7659: 91 a2        	sta	($a2),y                 ; 0x20a2 <main+0x1b38>
    765b: a0 01        	ldy	#$1
    765d: a5 17        	lda	$17                     ; 0x2017 <main+0x1aad>
    765f: 91 12        	sta	($12),y                 ; 0x2012 <main+0x1aa8>
    7661: b2 14        	lda	($14)                   ; 0x2014 <main+0x1aaa>
    7663: 85 ab        	sta	$ab                     ; 0x20ab <main+0x1b41>
    7665: 64 ac        	stz	$ac                     ; 0x20ac <main+0x1b42>
    7667: a2 ab        	ldx	#$ab
    7669: a0 00        	ldy	#$0
    766b: 86 12        	stx	$12                     ; 0x2012 <main+0x1aa8>
    766d: 84 13        	sty	$13                     ; 0x2013 <main+0x1aa9>
    766f: a6 18        	ldx	$18                     ; 0x2018 <main+0x1aae>
    7671: 86 a4        	stx	$a4                     ; 0x20a4 <main+0x1b3a>
    7673: a6 19        	ldx	$19                     ; 0x2019 <main+0x1aaf>
    7675: 86 a5        	stx	$a5                     ; 0x20a5 <main+0x1b3b>
    7677: a6 a2        	ldx	$a2                     ; 0x20a2 <main+0x1b38>
    7679: 86 14        	stx	$14                     ; 0x2014 <main+0x1aaa>
    767b: a6 a3        	ldx	$a3                     ; 0x20a3 <main+0x1b39>
    767d: 86 15        	stx	$15                     ; 0x2015 <main+0x1aab>
    767f: 20 58 7c     	jsr	$7c58 <_ZN12_GLOBAL__N_112print_stringEPKcP6Status>
    7682: e6 a4        	inc	$a4                     ; 0x20a4 <main+0x1b3a>
    7684: d0 02        	bne	$7688 <_ZN12_GLOBAL__N_15printEPKcP6Status+0x63f>
    7686: e6 a5        	inc	$a5                     ; 0x20a5 <main+0x1b3b>
    7688: a6 a4        	ldx	$a4                     ; 0x20a4 <main+0x1b3a>
    768a: 86 12        	stx	$12                     ; 0x2012 <main+0x1aa8>
    768c: a6 a5        	ldx	$a5                     ; 0x20a5 <main+0x1b3b>
    768e: 86 13        	stx	$13                     ; 0x2013 <main+0x1aa9>
    7690: 60           	rts
    7691: a5 1b        	lda	$1b                     ; 0x201b <main+0x1ab1>
    7693: 85 d0        	sta	$d0                     ; 0x20d0 <main+0x1b66>
    7695: a4 1a        	ldy	$1a                     ; 0x201a <main+0x1ab0>
    7697: 84 d1        	sty	$d1                     ; 0x20d1 <main+0x1b67>
    7699: a6 16        	ldx	$16                     ; 0x2016 <main+0x1aac>
    769b: 86 d3        	stx	$d3                     ; 0x20d3 <main+0x1b69>
    769d: a6 17        	ldx	$17                     ; 0x2017 <main+0x1aad>
    769f: 86 d2        	stx	$d2                     ; 0x20d2 <main+0x1b68>
    76a1: a6 18        	ldx	$18                     ; 0x2018 <main+0x1aae>
    76a3: 86 12        	stx	$12                     ; 0x2012 <main+0x1aa8>
    76a5: a6 19        	ldx	$19                     ; 0x2019 <main+0x1aaf>
    76a7: 86 13        	stx	$13                     ; 0x2013 <main+0x1aa9>
    76a9: a6 12        	ldx	$12                     ; 0x2012 <main+0x1aa8>
    76ab: 86 cc        	stx	$cc                     ; 0x20cc <main+0x1b62>
    76ad: a6 13        	ldx	$13                     ; 0x2013 <main+0x1aa9>
    76af: 86 cd        	stx	$cd                     ; 0x20cd <main+0x1b63>
    76b1: a9 0a        	lda	#$a
    76b3: aa           	tax
    76b4: 86 cb        	stx	$cb                     ; 0x20cb <main+0x1b61>
    76b6: 92 a2        	sta	($a2)                   ; 0x20a2 <main+0x1b38>
    76b8: a9 00        	lda	#$0
    76ba: 09 01        	ora	#$1
    76bc: aa           	tax
    76bd: a4 a2        	ldy	$a2                     ; 0x20a2 <main+0x1b38>
    76bf: 84 12        	sty	$12                     ; 0x2012 <main+0x1aa8>
    76c1: a4 a3        	ldy	$a3                     ; 0x20a3 <main+0x1b39>
    76c3: 84 13        	sty	$13                     ; 0x2013 <main+0x1aa9>
    76c5: e6 12        	inc	$12                     ; 0x2012 <main+0x1aa8>
    76c7: d0 02        	bne	$76cb <_ZN12_GLOBAL__N_15printEPKcP6Status+0x682>
    76c9: e6 13        	inc	$13                     ; 0x2013 <main+0x1aa9>
    76cb: a0 01        	ldy	#$1
    76cd: a5 a8        	lda	$a8                     ; 0x20a8 <main+0x1b3e>
    76cf: 91 a2        	sta	($a2),y                 ; 0x20a2 <main+0x1b38>
    76d1: 8a           	txa
    76d2: 86 d4        	stx	$d4                     ; 0x20d4 <main+0x1b6a>
    76d4: 91 12        	sta	($12),y                 ; 0x2012 <main+0x1aa8>
    76d6: a2 c2        	ldx	#$c2
    76d8: a0 00        	ldy	#$0
    76da: 86 12        	stx	$12                     ; 0x2012 <main+0x1aa8>
    76dc: 84 13        	sty	$13                     ; 0x2013 <main+0x1aa9>
    76de: e6 12        	inc	$12                     ; 0x2012 <main+0x1aa8>
    76e0: d0 02        	bne	$76e4 <_ZN12_GLOBAL__N_15printEPKcP6Status+0x69b>
    76e2: e6 13        	inc	$13                     ; 0x2013 <main+0x1aa9>
    76e4: a0 11        	ldy	#$11
    76e6: a2 00        	ldx	#$0
    76e8: a5 a2        	lda	$a2                     ; 0x20a2 <main+0x1b38>
    76ea: 18           	clc
    76eb: 69 11        	adc	#$11
    76ed: 85 a6        	sta	$a6                     ; 0x20a6 <main+0x1b3c>
    76ef: a5 a3        	lda	$a3                     ; 0x20a3 <main+0x1b39>
    76f1: 69 00        	adc	#$0
    76f3: 85 a7        	sta	$a7                     ; 0x20a7 <main+0x1b3d>
    76f5: b1 a2        	lda	($a2),y                 ; 0x20a2 <main+0x1b38>
    76f7: 85 a5        	sta	$a5                     ; 0x20a5 <main+0x1b3b>
    76f9: a0 01        	ldy	#$1
    76fb: b1 a6        	lda	($a6),y                 ; 0x20a6 <main+0x1b3c>
    76fd: 85 d5        	sta	$d5                     ; 0x20d5 <main+0x1b6b>
    76ff: a4 a5        	ldy	$a5                     ; 0x20a5 <main+0x1b3b>
    7701: 84 14        	sty	$14                     ; 0x2014 <main+0x1aaa>
    7703: 85 15        	sta	$15                     ; 0x2015 <main+0x1aab>
    7705: 64 aa        	stz	$aa                     ; 0x20aa <main+0x1b40>
    7707: a5 a9        	lda	$a9                     ; 0x20a9 <main+0x1b3f>
    7709: a4 a9        	ldy	$a9                     ; 0x20a9 <main+0x1b3f>
    770b: 84 d6        	sty	$d6                     ; 0x20d6 <main+0x1b6c>
    770d: 20 25 82     	jsr	$8225 <memcpy>
    7710: a2 00        	ldx	#$0
    7712: 86 cf        	stx	$cf                     ; 0x20cf <main+0x1b65>
    7714: 18           	clc
    7715: a5 a5        	lda	$a5                     ; 0x20a5 <main+0x1b3b>
    7717: 65 a4        	adc	$a4                     ; 0x20a4 <main+0x1b3a>
    7719: 85 13        	sta	$13                     ; 0x2013 <main+0x1aa9>
    771b: a5 d5        	lda	$d5                     ; 0x20d5 <main+0x1b6b>
    771d: 69 00        	adc	#$0
    771f: 85 12        	sta	$12                     ; 0x2012 <main+0x1aa8>
    7721: a0 11        	ldy	#$11
    7723: a5 13        	lda	$13                     ; 0x2013 <main+0x1aa9>
    7725: 91 a2        	sta	($a2),y                 ; 0x20a2 <main+0x1b38>
    7727: a0 01        	ldy	#$1
    7729: a5 12        	lda	$12                     ; 0x2012 <main+0x1aa8>
    772b: 91 a6        	sta	($a6),y                 ; 0x20a6 <main+0x1b3c>
    772d: a5 d4        	lda	$d4                     ; 0x20d4 <main+0x1b6a>
    772f: 29 01        	and	#$1
    7731: d0 4c        	bne	$777f <_ZN12_GLOBAL__N_15printEPKcP6Status+0x736>
    7733: a6 d6        	ldx	$d6                     ; 0x20d6 <main+0x1b6c>
    7735: b4 c2        	ldy	$c2,x                   ; 0x20c2 <main+0x1b58>
    7737: a6 d2        	ldx	$d2                     ; 0x20d2 <main+0x1b68>
    7739: 86 12        	stx	$12                     ; 0x2012 <main+0x1aa8>
    773b: a6 d3        	ldx	$d3                     ; 0x20d3 <main+0x1b69>
    773d: 86 13        	stx	$13                     ; 0x2013 <main+0x1aa9>
    773f: a6 d1        	ldx	$d1                     ; 0x20d1 <main+0x1b67>
    7741: 86 a4        	stx	$a4                     ; 0x20a4 <main+0x1b3a>
    7743: a6 d0        	ldx	$d0                     ; 0x20d0 <main+0x1b66>
    7745: 86 a5        	stx	$a5                     ; 0x20a5 <main+0x1b3b>
    7747: 98           	tya
    7748: 10 45        	bpl	$778f <_ZN12_GLOBAL__N_15printEPKcP6Status+0x746>
    774a: a2 00        	ldx	#$0
    774c: 64 14        	stz	$14                     ; 0x2014 <main+0x1aaa>
    774e: 38           	sec
    774f: a9 00        	lda	#$0
    7751: f5 c3        	sbc	$c3,x                   ; 0x20c3 <main+0x1b59>
    7753: a0 00        	ldy	#$0
    7755: b0 02        	bcs	$7759 <_ZN12_GLOBAL__N_15printEPKcP6Status+0x710>
    7757: a0 01        	ldy	#$1
    7759: 38           	sec
    775a: e5 14        	sbc	$14                     ; 0x2014 <main+0x1aaa>
    775c: 85 15        	sta	$15                     ; 0x2015 <main+0x1aab>
    775e: 64 14        	stz	$14                     ; 0x2014 <main+0x1aaa>
    7760: b0 04        	bcs	$7766 <_ZN12_GLOBAL__N_15printEPKcP6Status+0x71d>
    7762: a9 01        	lda	#$1
    7764: 85 14        	sta	$14                     ; 0x2014 <main+0x1aaa>
    7766: 98           	tya
    7767: 05 14        	ora	$14                     ; 0x2014 <main+0x1aaa>
    7769: 85 14        	sta	$14                     ; 0x2014 <main+0x1aaa>
    776b: a5 15        	lda	$15                     ; 0x2015 <main+0x1aab>
    776d: 9d c3 00     	sta	$c3,x                   ; 0xc3 <__data_size+0x7c>
    7770: e8           	inx
    7771: 86 15        	stx	$15                     ; 0x2015 <main+0x1aab>
    7773: a4 a9        	ldy	$a9                     ; 0x20a9 <main+0x1b3f>
    7775: c4 15        	cpy	$15                     ; 0x2015 <main+0x1aab>
    7777: d0 d5        	bne	$774e <_ZN12_GLOBAL__N_15printEPKcP6Status+0x705>
    7779: a2 01        	ldx	#$1
    777b: 86 cf        	stx	$cf                     ; 0x20cf <main+0x1b65>
    777d: 80 10        	bra	$778f <_ZN12_GLOBAL__N_15printEPKcP6Status+0x746>
    777f: a6 d2        	ldx	$d2                     ; 0x20d2 <main+0x1b68>
    7781: 86 12        	stx	$12                     ; 0x2012 <main+0x1aa8>
    7783: a6 d3        	ldx	$d3                     ; 0x20d3 <main+0x1b69>
    7785: 86 13        	stx	$13                     ; 0x2013 <main+0x1aa9>
    7787: a6 d1        	ldx	$d1                     ; 0x20d1 <main+0x1b67>
    7789: 86 a4        	stx	$a4                     ; 0x20a4 <main+0x1b3a>
    778b: a6 d0        	ldx	$d0                     ; 0x20d0 <main+0x1b66>
    778d: 86 a5        	stx	$a5                     ; 0x20a5 <main+0x1b3b>
    778f: a5 a9        	lda	$a9                     ; 0x20a9 <main+0x1b3f>
    7791: 0a           	asl
    7792: 0a           	asl
    7793: 0a           	asl
    7794: 85 14        	sta	$14                     ; 0x2014 <main+0x1aaa>
    7796: 64 a7        	stz	$a7                     ; 0x20a7 <main+0x1b3d>
    7798: a5 a7        	lda	$a7                     ; 0x20a7 <main+0x1b3d>
    779a: f0 50        	beq	$77ec <_ZN12_GLOBAL__N_15printEPKcP6Status+0x7a3>
    779c: a6 a7        	ldx	$a7                     ; 0x20a7 <main+0x1b3d>
    779e: ca           	dex
    779f: 86 17        	stx	$17                     ; 0x2017 <main+0x1aad>
    77a1: a2 00        	ldx	#$0
    77a3: 64 15        	stz	$15                     ; 0x2015 <main+0x1aab>
    77a5: 80 0d        	bra	$77b4 <_ZN12_GLOBAL__N_15printEPKcP6Status+0x76b>
    77a7: a4 15        	ldy	$15                     ; 0x2015 <main+0x1aab>
    77a9: 99 ad 00     	sta	$ad,y                   ; 0xad <__data_size+0x66>
    77ac: a4 17        	ldy	$17                     ; 0x2017 <main+0x1aad>
    77ae: c4 15        	cpy	$15                     ; 0x2015 <main+0x1aab>
    77b0: f0 46        	beq	$77f8 <_ZN12_GLOBAL__N_15printEPKcP6Status+0x7af>
    77b2: e6 15        	inc	$15                     ; 0x2015 <main+0x1aab>
    77b4: a4 15        	ldy	$15                     ; 0x2015 <main+0x1aab>
    77b6: b9 ad 00     	lda	$ad,y                   ; 0xad <__data_size+0x66>
    77b9: 0a           	asl
    77ba: e0 00        	cpx	#$0
    77bc: f0 02        	beq	$77c0 <_ZN12_GLOBAL__N_15printEPKcP6Status+0x777>
    77be: 09 01        	ora	#$1
    77c0: a4 cb        	ldy	$cb                     ; 0x20cb <main+0x1b61>
    77c2: 84 16        	sty	$16                     ; 0x2016 <main+0x1aac>
    77c4: c5 16        	cmp	$16                     ; 0x2016 <main+0x1aac>
    77c6: a2 01        	ldx	#$1
    77c8: b0 02        	bcs	$77cc <_ZN12_GLOBAL__N_15printEPKcP6Status+0x783>
    77ca: a2 00        	ldx	#$0
    77cc: 90 d9        	bcc	$77a7 <_ZN12_GLOBAL__N_15printEPKcP6Status+0x75e>
    77ce: 84 16        	sty	$16                     ; 0x2016 <main+0x1aac>
    77d0: 38           	sec
    77d1: e5 16        	sbc	$16                     ; 0x2016 <main+0x1aac>
    77d3: a4 15        	ldy	$15                     ; 0x2015 <main+0x1aab>
    77d5: 99 ad 00     	sta	$ad,y                   ; 0xad <__data_size+0x66>
    77d8: a4 17        	ldy	$17                     ; 0x2017 <main+0x1aad>
    77da: c4 15        	cpy	$15                     ; 0x2015 <main+0x1aab>
    77dc: d0 d4        	bne	$77b2 <_ZN12_GLOBAL__N_15printEPKcP6Status+0x769>
    77de: a4 a7        	ldy	$a7                     ; 0x20a7 <main+0x1b3d>
    77e0: a6 a7        	ldx	$a7                     ; 0x20a7 <main+0x1b3d>
    77e2: e8           	inx
    77e3: a9 01        	lda	#$1
    77e5: 99 ad 00     	sta	$ad,y                   ; 0xad <__data_size+0x66>
    77e8: da           	phx
    77e9: 7a           	ply
    77ea: 80 0e        	bra	$77fa <_ZN12_GLOBAL__N_15printEPKcP6Status+0x7b1>
    77ec: a6 a9        	ldx	$a9                     ; 0x20a9 <main+0x1b3f>
    77ee: b5 c2        	lda	$c2,x                   ; 0x20c2 <main+0x1b58>
    77f0: aa           	tax
    77f1: a0 00        	ldy	#$0
    77f3: 8a           	txa
    77f4: 30 36        	bmi	$782c <_ZN12_GLOBAL__N_15printEPKcP6Status+0x7e3>
    77f6: 80 3e        	bra	$7836 <_ZN12_GLOBAL__N_15printEPKcP6Status+0x7ed>
    77f8: a4 a7        	ldy	$a7                     ; 0x20a7 <main+0x1b3d>
    77fa: a6 a9        	ldx	$a9                     ; 0x20a9 <main+0x1b3f>
    77fc: b5 c2        	lda	$c2,x                   ; 0x20c2 <main+0x1b58>
    77fe: aa           	tax
    77ff: 10 35        	bpl	$7836 <_ZN12_GLOBAL__N_15printEPKcP6Status+0x7ed>
    7801: 98           	tya
    7802: f0 26        	beq	$782a <_ZN12_GLOBAL__N_15printEPKcP6Status+0x7e1>
    7804: 84 16        	sty	$16                     ; 0x2016 <main+0x1aac>
    7806: a2 00        	ldx	#$0
    7808: a4 cb        	ldy	$cb                     ; 0x20cb <main+0x1b61>
    780a: b5 ad        	lda	$ad,x                   ; 0x20ad <main+0x1b43>
    780c: 1a           	inc
    780d: f6 ad        	inc	$ad,x                   ; 0x20ad <main+0x1b43>
    780f: 84 15        	sty	$15                     ; 0x2015 <main+0x1aab>
    7811: c5 15        	cmp	$15                     ; 0x2015 <main+0x1aab>
    7813: 90 4a        	bcc	$785f <_ZN12_GLOBAL__N_15printEPKcP6Status+0x816>
    7815: 84 15        	sty	$15                     ; 0x2015 <main+0x1aab>
    7817: 38           	sec
    7818: e5 15        	sbc	$15                     ; 0x2015 <main+0x1aab>
    781a: 9d ad 00     	sta	$ad,x                   ; 0xad <__data_size+0x66>
    781d: e8           	inx
    781e: 86 15        	stx	$15                     ; 0x2015 <main+0x1aab>
    7820: a5 16        	lda	$16                     ; 0x2016 <main+0x1aac>
    7822: c5 15        	cmp	$15                     ; 0x2015 <main+0x1aab>
    7824: d0 e4        	bne	$780a <_ZN12_GLOBAL__N_15printEPKcP6Status+0x7c1>
    7826: a4 16        	ldy	$16                     ; 0x2016 <main+0x1aac>
    7828: 80 02        	bra	$782c <_ZN12_GLOBAL__N_15printEPKcP6Status+0x7e3>
    782a: a0 00        	ldy	#$0
    782c: 5a           	phy
    782d: fa           	plx
    782e: e8           	inx
    782f: a9 01        	lda	#$1
    7831: 99 ad 00     	sta	$ad,y                   ; 0xad <__data_size+0x66>
    7834: da           	phx
    7835: 7a           	ply
    7836: 84 a7        	sty	$a7                     ; 0x20a7 <main+0x1b3d>
    7838: a2 01        	ldx	#$1
    783a: 64 15        	stz	$15                     ; 0x2015 <main+0x1aab>
    783c: a4 a9        	ldy	$a9                     ; 0x20a9 <main+0x1b3f>
    783e: b5 c2        	lda	$c2,x                   ; 0x20c2 <main+0x1b58>
    7840: 0a           	asl
    7841: 64 16        	stz	$16                     ; 0x2016 <main+0x1aac>
    7843: 26 16        	rol	$16                     ; 0x2016 <main+0x1aac>
    7845: 05 15        	ora	$15                     ; 0x2015 <main+0x1aab>
    7847: 9d c2 00     	sta	$c2,x                   ; 0xc2 <__data_size+0x7b>
    784a: e8           	inx
    784b: 88           	dey
    784c: a5 16        	lda	$16                     ; 0x2016 <main+0x1aac>
    784e: 85 15        	sta	$15                     ; 0x2015 <main+0x1aab>
    7850: 98           	tya
    7851: d0 eb        	bne	$783e <_ZN12_GLOBAL__N_15printEPKcP6Status+0x7f5>
    7853: a6 aa        	ldx	$aa                     ; 0x20aa <main+0x1b40>
    7855: e8           	inx
    7856: 86 aa        	stx	$aa                     ; 0x20aa <main+0x1b40>
    7858: e4 14        	cpx	$14                     ; 0x2014 <main+0x1aaa>
    785a: b0 07        	bcs	$7863 <_ZN12_GLOBAL__N_15printEPKcP6Status+0x81a>
    785c: 4c 98 77     	jmp	$7798 <_ZN12_GLOBAL__N_15printEPKcP6Status+0x74f>
    785f: a4 16        	ldy	$16                     ; 0x2016 <main+0x1aac>
    7861: 80 d3        	bra	$7836 <_ZN12_GLOBAL__N_15printEPKcP6Status+0x7ed>
    7863: a5 a8        	lda	$a8                     ; 0x20a8 <main+0x1b3e>
    7865: a6 a5        	ldx	$a5                     ; 0x20a5 <main+0x1b3b>
    7867: 10 06        	bpl	$786f <_ZN12_GLOBAL__N_15printEPKcP6Status+0x826>
    7869: a2 01        	ldx	#$1
    786b: 64 a5        	stz	$a5                     ; 0x20a5 <main+0x1b3b>
    786d: 86 a4        	stx	$a4                     ; 0x20a4 <main+0x1b3a>
    786f: 29 04        	and	#$4
    7871: f0 2c        	beq	$789f <_ZN12_GLOBAL__N_15printEPKcP6Status+0x856>
    7873: a6 cb        	ldx	$cb                     ; 0x20cb <main+0x1b61>
    7875: e0 10        	cpx	#$10
    7877: f0 14        	beq	$788d <_ZN12_GLOBAL__N_15printEPKcP6Status+0x844>
    7879: e0 08        	cpx	#$8
    787b: d0 22        	bne	$789f <_ZN12_GLOBAL__N_15printEPKcP6Status+0x856>
    787d: a2 00        	ldx	#$0
    787f: e4 a5        	cpx	$a5                     ; 0x20a5 <main+0x1b3b>
    7881: f0 03        	beq	$7886 <_ZN12_GLOBAL__N_15printEPKcP6Status+0x83d>
    7883: 4c c6 79     	jmp	$79c6 <_ZN12_GLOBAL__N_15printEPKcP6Status+0x97d>
    7886: a5 a7        	lda	$a7                     ; 0x20a7 <main+0x1b3d>
    7888: c5 a4        	cmp	$a4                     ; 0x20a4 <main+0x1b3a>
    788a: 4c c8 79     	jmp	$79c8 <_ZN12_GLOBAL__N_15printEPKcP6Status+0x97f>
    788d: a5 a7        	lda	$a7                     ; 0x20a7 <main+0x1b3d>
    788f: f0 0e        	beq	$789f <_ZN12_GLOBAL__N_15printEPKcP6Status+0x856>
    7891: a5 a8        	lda	$a8                     ; 0x20a8 <main+0x1b3e>
    7893: 29 80        	and	#$80
    7895: d0 03        	bne	$789a <_ZN12_GLOBAL__N_15printEPKcP6Status+0x851>
    7897: 4c dd 79     	jmp	$79dd <_ZN12_GLOBAL__N_15printEPKcP6Status+0x994>
    789a: a2 78        	ldx	#$78
    789c: 4c df 79     	jmp	$79df <_ZN12_GLOBAL__N_15printEPKcP6Status+0x996>
    789f: a5 a8        	lda	$a8                     ; 0x20a8 <main+0x1b3e>
    78a1: a2 2d        	ldx	#$2d
    78a3: 86 cb        	stx	$cb                     ; 0x20cb <main+0x1b61>
    78a5: a6 cf        	ldx	$cf                     ; 0x20cf <main+0x1b65>
    78a7: d0 1b        	bne	$78c4 <_ZN12_GLOBAL__N_15printEPKcP6Status+0x87b>
    78a9: aa           	tax
    78aa: 29 02        	and	#$2
    78ac: a0 2b        	ldy	#$2b
    78ae: 84 cb        	sty	$cb                     ; 0x20cb <main+0x1b61>
    78b0: a8           	tay
    78b1: d0 11        	bne	$78c4 <_ZN12_GLOBAL__N_15printEPKcP6Status+0x87b>
    78b3: 8a           	txa
    78b4: 29 08        	and	#$8
    78b6: d0 08        	bne	$78c0 <_ZN12_GLOBAL__N_15printEPKcP6Status+0x877>
    78b8: a2 01        	ldx	#$1
    78ba: 86 cf        	stx	$cf                     ; 0x20cf <main+0x1b65>
    78bc: a9 00        	lda	#$0
    78be: 80 0a        	bra	$78ca <_ZN12_GLOBAL__N_15printEPKcP6Status+0x881>
    78c0: a2 20        	ldx	#$20
    78c2: 86 cb        	stx	$cb                     ; 0x20cb <main+0x1b61>
    78c4: a2 00        	ldx	#$0
    78c6: 86 cf        	stx	$cf                     ; 0x20cf <main+0x1b65>
    78c8: a9 01        	lda	#$1
    78ca: a4 a7        	ldy	$a7                     ; 0x20a7 <main+0x1b3d>
    78cc: a6 a5        	ldx	$a5                     ; 0x20a5 <main+0x1b3b>
    78ce: d0 08        	bne	$78d8 <_ZN12_GLOBAL__N_15printEPKcP6Status+0x88f>
    78d0: a6 a4        	ldx	$a4                     ; 0x20a4 <main+0x1b3a>
    78d2: 84 14        	sty	$14                     ; 0x2014 <main+0x1aaa>
    78d4: e4 14        	cpx	$14                     ; 0x2014 <main+0x1aaa>
    78d6: 80 04        	bra	$78dc <_ZN12_GLOBAL__N_15printEPKcP6Status+0x893>
    78d8: a6 a5        	ldx	$a5                     ; 0x20a5 <main+0x1b3b>
    78da: e0 00        	cpx	#$0
    78dc: a6 a4        	ldx	$a4                     ; 0x20a4 <main+0x1b3a>
    78de: 86 14        	stx	$14                     ; 0x2014 <main+0x1aaa>
    78e0: a6 a5        	ldx	$a5                     ; 0x20a5 <main+0x1b3b>
    78e2: 86 15        	stx	$15                     ; 0x2015 <main+0x1aab>
    78e4: b0 04        	bcs	$78ea <_ZN12_GLOBAL__N_15printEPKcP6Status+0x8a1>
    78e6: 84 14        	sty	$14                     ; 0x2014 <main+0x1aaa>
    78e8: 64 15        	stz	$15                     ; 0x2015 <main+0x1aab>
    78ea: 18           	clc
    78eb: aa           	tax
    78ec: 65 14        	adc	$14                     ; 0x2014 <main+0x1aaa>
    78ee: a8           	tay
    78ef: 85 16        	sta	$16                     ; 0x2016 <main+0x1aac>
    78f1: a5 15        	lda	$15                     ; 0x2015 <main+0x1aab>
    78f3: 69 00        	adc	#$0
    78f5: 85 17        	sta	$17                     ; 0x2017 <main+0x1aad>
    78f7: c5 12        	cmp	$12                     ; 0x2012 <main+0x1aa8>
    78f9: d0 04        	bne	$78ff <_ZN12_GLOBAL__N_15printEPKcP6Status+0x8b6>
    78fb: c4 13        	cpy	$13                     ; 0x2013 <main+0x1aa9>
    78fd: 80 02        	bra	$7901 <_ZN12_GLOBAL__N_15printEPKcP6Status+0x8b8>
    78ff: c5 12        	cmp	$12                     ; 0x2012 <main+0x1aa8>
    7901: 64 a6        	stz	$a6                     ; 0x20a6 <main+0x1b3c>
    7903: 90 04        	bcc	$7909 <_ZN12_GLOBAL__N_15printEPKcP6Status+0x8c0>
    7905: 64 a8        	stz	$a8                     ; 0x20a8 <main+0x1b3e>
    7907: 80 4d        	bra	$7956 <_ZN12_GLOBAL__N_15printEPKcP6Status+0x90d>
    7909: a5 a8        	lda	$a8                     ; 0x20a8 <main+0x1b3e>
    790b: 29 11        	and	#$11
    790d: f0 0f        	beq	$791e <_ZN12_GLOBAL__N_15printEPKcP6Status+0x8d5>
    790f: a5 13        	lda	$13                     ; 0x2013 <main+0x1aa9>
    7911: 38           	sec
    7912: e5 16        	sbc	$16                     ; 0x2016 <main+0x1aac>
    7914: 85 a6        	sta	$a6                     ; 0x20a6 <main+0x1b3c>
    7916: a5 12        	lda	$12                     ; 0x2012 <main+0x1aa8>
    7918: e5 17        	sbc	$17                     ; 0x2017 <main+0x1aad>
    791a: 85 a8        	sta	$a8                     ; 0x20a8 <main+0x1b3e>
    791c: 80 38        	bra	$7956 <_ZN12_GLOBAL__N_15printEPKcP6Status+0x90d>
    791e: 8a           	txa
    791f: 38           	sec
    7920: e5 13        	sbc	$13                     ; 0x2013 <main+0x1aa9>
    7922: aa           	tax
    7923: a9 00        	lda	#$0
    7925: e5 12        	sbc	$12                     ; 0x2012 <main+0x1aa8>
    7927: 85 12        	sta	$12                     ; 0x2012 <main+0x1aa8>
    7929: 18           	clc
    792a: 8a           	txa
    792b: 65 14        	adc	$14                     ; 0x2014 <main+0x1aaa>
    792d: 85 a6        	sta	$a6                     ; 0x20a6 <main+0x1b3c>
    792f: a5 12        	lda	$12                     ; 0x2012 <main+0x1aa8>
    7931: 65 15        	adc	$15                     ; 0x2015 <main+0x1aab>
    7933: 85 a8        	sta	$a8                     ; 0x20a8 <main+0x1b3e>
    7935: a6 a2        	ldx	$a2                     ; 0x20a2 <main+0x1b38>
    7937: 86 12        	stx	$12                     ; 0x2012 <main+0x1aa8>
    7939: a6 a3        	ldx	$a3                     ; 0x20a3 <main+0x1b39>
    793b: 86 13        	stx	$13                     ; 0x2013 <main+0x1aa9>
    793d: a9 20        	lda	#$20
    793f: 20 7d 7b     	jsr	$7b7d <_ZN12_GLOBAL__N_13putEcP6Status>
    7942: a6 a8        	ldx	$a8                     ; 0x20a8 <main+0x1b3e>
    7944: e6 a6        	inc	$a6                     ; 0x20a6 <main+0x1b3c>
    7946: d0 01        	bne	$7949 <_ZN12_GLOBAL__N_15printEPKcP6Status+0x900>
    7948: e8           	inx
    7949: 86 a8        	stx	$a8                     ; 0x20a8 <main+0x1b3e>
    794b: 8a           	txa
    794c: d0 e7        	bne	$7935 <_ZN12_GLOBAL__N_15printEPKcP6Status+0x8ec>
    794e: a5 a6        	lda	$a6                     ; 0x20a6 <main+0x1b3c>
    7950: d0 e3        	bne	$7935 <_ZN12_GLOBAL__N_15printEPKcP6Status+0x8ec>
    7952: 64 a8        	stz	$a8                     ; 0x20a8 <main+0x1b3e>
    7954: 64 a6        	stz	$a6                     ; 0x20a6 <main+0x1b3c>
    7956: a6 cf        	ldx	$cf                     ; 0x20cf <main+0x1b65>
    7958: d0 0d        	bne	$7967 <_ZN12_GLOBAL__N_15printEPKcP6Status+0x91e>
    795a: a6 a2        	ldx	$a2                     ; 0x20a2 <main+0x1b38>
    795c: 86 12        	stx	$12                     ; 0x2012 <main+0x1aa8>
    795e: a6 a3        	ldx	$a3                     ; 0x20a3 <main+0x1b39>
    7960: 86 13        	stx	$13                     ; 0x2013 <main+0x1aa9>
    7962: a5 cb        	lda	$cb                     ; 0x20cb <main+0x1b61>
    7964: 20 7d 7b     	jsr	$7b7d <_ZN12_GLOBAL__N_13putEcP6Status>
    7967: a6 ce        	ldx	$ce                     ; 0x20ce <main+0x1b64>
    7969: f0 0d        	beq	$7978 <_ZN12_GLOBAL__N_15printEPKcP6Status+0x92f>
    796b: a6 a2        	ldx	$a2                     ; 0x20a2 <main+0x1b38>
    796d: 86 12        	stx	$12                     ; 0x2012 <main+0x1aa8>
    796f: a6 a3        	ldx	$a3                     ; 0x20a3 <main+0x1b39>
    7971: 86 13        	stx	$13                     ; 0x2013 <main+0x1aa9>
    7973: a5 d0        	lda	$d0                     ; 0x20d0 <main+0x1b66>
    7975: 20 7d 7b     	jsr	$7b7d <_ZN12_GLOBAL__N_13putEcP6Status>
    7978: a0 01        	ldy	#$1
    797a: b1 a2        	lda	($a2),y                 ; 0x20a2 <main+0x1b38>
    797c: aa           	tax
    797d: 29 10        	and	#$10
    797f: f0 36        	beq	$79b7 <_ZN12_GLOBAL__N_15printEPKcP6Status+0x96e>
    7981: 8a           	txa
    7982: 29 01        	and	#$1
    7984: a6 a7        	ldx	$a7                     ; 0x20a7 <main+0x1b3d>
    7986: a8           	tay
    7987: d0 30        	bne	$79b9 <_ZN12_GLOBAL__N_15printEPKcP6Status+0x970>
    7989: a5 a8        	lda	$a8                     ; 0x20a8 <main+0x1b3e>
    798b: d0 07        	bne	$7994 <_ZN12_GLOBAL__N_15printEPKcP6Status+0x94b>
    798d: a5 a6        	lda	$a6                     ; 0x20a6 <main+0x1b3c>
    798f: d0 03        	bne	$7994 <_ZN12_GLOBAL__N_15printEPKcP6Status+0x94b>
    7991: 4c f4 79     	jmp	$79f4 <_ZN12_GLOBAL__N_15printEPKcP6Status+0x9ab>
    7994: a6 a2        	ldx	$a2                     ; 0x20a2 <main+0x1b38>
    7996: 86 12        	stx	$12                     ; 0x2012 <main+0x1aa8>
    7998: a6 a3        	ldx	$a3                     ; 0x20a3 <main+0x1b39>
    799a: 86 13        	stx	$13                     ; 0x2013 <main+0x1aa9>
    799c: a9 30        	lda	#$30
    799e: 20 7d 7b     	jsr	$7b7d <_ZN12_GLOBAL__N_13putEcP6Status>
    79a1: a2 ff        	ldx	#$ff
    79a3: c6 a6        	dec	$a6                     ; 0x20a6 <main+0x1b3c>
    79a5: e4 a6        	cpx	$a6                     ; 0x20a6 <main+0x1b3c>
    79a7: d0 02        	bne	$79ab <_ZN12_GLOBAL__N_15printEPKcP6Status+0x962>
    79a9: c6 a8        	dec	$a8                     ; 0x20a8 <main+0x1b3e>
    79ab: a5 a8        	lda	$a8                     ; 0x20a8 <main+0x1b3e>
    79ad: d0 e5        	bne	$7994 <_ZN12_GLOBAL__N_15printEPKcP6Status+0x94b>
    79af: a5 a6        	lda	$a6                     ; 0x20a6 <main+0x1b3c>
    79b1: d0 e1        	bne	$7994 <_ZN12_GLOBAL__N_15printEPKcP6Status+0x94b>
    79b3: 64 a6        	stz	$a6                     ; 0x20a6 <main+0x1b3c>
    79b5: 64 a8        	stz	$a8                     ; 0x20a8 <main+0x1b3e>
    79b7: a6 a7        	ldx	$a7                     ; 0x20a7 <main+0x1b3d>
    79b9: a0 00        	ldy	#$0
    79bb: c4 a5        	cpy	$a5                     ; 0x20a5 <main+0x1b3b>
    79bd: f0 3d        	beq	$79fc <_ZN12_GLOBAL__N_15printEPKcP6Status+0x9b3>
    79bf: c4 a5        	cpy	$a5                     ; 0x20a5 <main+0x1b3b>
    79c1: 90 3d        	bcc	$7a00 <_ZN12_GLOBAL__N_15printEPKcP6Status+0x9b7>
    79c3: 4c 23 7a     	jmp	$7a23 <_ZN12_GLOBAL__N_15printEPKcP6Status+0x9da>
    79c6: e4 a5        	cpx	$a5                     ; 0x20a5 <main+0x1b3b>
    79c8: a5 a8        	lda	$a8                     ; 0x20a8 <main+0x1b3e>
    79ca: b0 03        	bcs	$79cf <_ZN12_GLOBAL__N_15printEPKcP6Status+0x986>
    79cc: 4c a1 78     	jmp	$78a1 <_ZN12_GLOBAL__N_15printEPKcP6Status+0x858>
    79cf: a4 a7        	ldy	$a7                     ; 0x20a7 <main+0x1b3d>
    79d1: 84 a4        	sty	$a4                     ; 0x20a4 <main+0x1b3a>
    79d3: e6 a4        	inc	$a4                     ; 0x20a4 <main+0x1b3a>
    79d5: d0 01        	bne	$79d8 <_ZN12_GLOBAL__N_15printEPKcP6Status+0x98f>
    79d7: e8           	inx
    79d8: 86 a5        	stx	$a5                     ; 0x20a5 <main+0x1b3b>
    79da: 4c a1 78     	jmp	$78a1 <_ZN12_GLOBAL__N_15printEPKcP6Status+0x858>
    79dd: a2 58        	ldx	#$58
    79df: 86 d0        	stx	$d0                     ; 0x20d0 <main+0x1b66>
    79e1: a4 a7        	ldy	$a7                     ; 0x20a7 <main+0x1b3d>
    79e3: a2 01        	ldx	#$1
    79e5: 86 ce        	stx	$ce                     ; 0x20ce <main+0x1b64>
    79e7: a2 30        	ldx	#$30
    79e9: 86 cb        	stx	$cb                     ; 0x20cb <main+0x1b61>
    79eb: a9 02        	lda	#$2
    79ed: a2 00        	ldx	#$0
    79ef: 86 cf        	stx	$cf                     ; 0x20cf <main+0x1b65>
    79f1: 4c cc 78     	jmp	$78cc <_ZN12_GLOBAL__N_15printEPKcP6Status+0x883>
    79f4: 64 a6        	stz	$a6                     ; 0x20a6 <main+0x1b3c>
    79f6: 64 a8        	stz	$a8                     ; 0x20a8 <main+0x1b3e>
    79f8: 80 bf        	bra	$79b9 <_ZN12_GLOBAL__N_15printEPKcP6Status+0x970>
    79fa: a6 a7        	ldx	$a7                     ; 0x20a7 <main+0x1b3d>
    79fc: e4 a4        	cpx	$a4                     ; 0x20a4 <main+0x1b3a>
    79fe: b0 23        	bcs	$7a23 <_ZN12_GLOBAL__N_15printEPKcP6Status+0x9da>
    7a00: a2 ff        	ldx	#$ff
    7a02: c6 a4        	dec	$a4                     ; 0x20a4 <main+0x1b3a>
    7a04: e4 a4        	cpx	$a4                     ; 0x20a4 <main+0x1b3a>
    7a06: d0 02        	bne	$7a0a <_ZN12_GLOBAL__N_15printEPKcP6Status+0x9c1>
    7a08: c6 a5        	dec	$a5                     ; 0x20a5 <main+0x1b3b>
    7a0a: a6 a2        	ldx	$a2                     ; 0x20a2 <main+0x1b38>
    7a0c: 86 12        	stx	$12                     ; 0x2012 <main+0x1aa8>
    7a0e: a6 a3        	ldx	$a3                     ; 0x20a3 <main+0x1b39>
    7a10: 86 13        	stx	$13                     ; 0x2013 <main+0x1aa9>
    7a12: a9 30        	lda	#$30
    7a14: 20 7d 7b     	jsr	$7b7d <_ZN12_GLOBAL__N_13putEcP6Status>
    7a17: a2 00        	ldx	#$0
    7a19: e4 a5        	cpx	$a5                     ; 0x20a5 <main+0x1b3b>
    7a1b: f0 dd        	beq	$79fa <_ZN12_GLOBAL__N_15printEPKcP6Status+0x9b1>
    7a1d: e4 a5        	cpx	$a5                     ; 0x20a5 <main+0x1b3b>
    7a1f: a6 a7        	ldx	$a7                     ; 0x20a7 <main+0x1b3d>
    7a21: 90 dd        	bcc	$7a00 <_ZN12_GLOBAL__N_15printEPKcP6Status+0x9b7>
    7a23: a4 a6        	ldy	$a6                     ; 0x20a6 <main+0x1b3c>
    7a25: 84 a7        	sty	$a7                     ; 0x20a7 <main+0x1b3d>
    7a27: 8a           	txa
    7a28: d0 03        	bne	$7a2d <_ZN12_GLOBAL__N_15printEPKcP6Status+0x9e4>
    7a2a: 4c bd 7a     	jmp	$7abd <_ZN12_GLOBAL__N_15printEPKcP6Status+0xa74>
    7a2d: ca           	dex
    7a2e: d0 03        	bne	$7a33 <_ZN12_GLOBAL__N_15printEPKcP6Status+0x9ea>
    7a30: 4c 8e 7a     	jmp	$7a8e <_ZN12_GLOBAL__N_15printEPKcP6Status+0xa45>
    7a33: 86 a6        	stx	$a6                     ; 0x20a6 <main+0x1b3c>
    7a35: a9 ab        	lda	#$ab
    7a37: 18           	clc
    7a38: 65 a6        	adc	$a6                     ; 0x20a6 <main+0x1b3c>
    7a3a: aa           	tax
    7a3b: a9 00        	lda	#$0
    7a3d: 69 00        	adc	#$0
    7a3f: 85 12        	sta	$12                     ; 0x2012 <main+0x1aa8>
    7a41: 18           	clc
    7a42: 8a           	txa
    7a43: 69 02        	adc	#$2
    7a45: 85 a4        	sta	$a4                     ; 0x20a4 <main+0x1b3a>
    7a47: a5 12        	lda	$12                     ; 0x2012 <main+0x1aa8>
    7a49: 69 00        	adc	#$0
    7a4b: 85 a5        	sta	$a5                     ; 0x20a5 <main+0x1b3b>
    7a4d: 80 35        	bra	$7a84 <_ZN12_GLOBAL__N_15printEPKcP6Status+0xa3b>
    7a4f: 85 13        	sta	$13                     ; 0x2013 <main+0x1aa9>
    7a51: a9 80        	lda	#$80
    7a53: a0 01        	ldy	#$1
    7a55: 31 a2        	and	($a2),y                 ; 0x20a2 <main+0x1b38>
    7a57: f0 04        	beq	$7a5d <_ZN12_GLOBAL__N_15printEPKcP6Status+0xa14>
    7a59: a2 61        	ldx	#$61
    7a5b: 80 02        	bra	$7a5f <_ZN12_GLOBAL__N_15printEPKcP6Status+0xa16>
    7a5d: a2 41        	ldx	#$41
    7a5f: 86 12        	stx	$12                     ; 0x2012 <main+0x1aa8>
    7a61: 18           	clc
    7a62: a5 13        	lda	$13                     ; 0x2013 <main+0x1aa9>
    7a64: 65 12        	adc	$12                     ; 0x2012 <main+0x1aa8>
    7a66: 18           	clc
    7a67: 69 f6        	adc	#$f6
    7a69: a6 a2        	ldx	$a2                     ; 0x20a2 <main+0x1b38>
    7a6b: 86 12        	stx	$12                     ; 0x2012 <main+0x1aa8>
    7a6d: a6 a3        	ldx	$a3                     ; 0x20a3 <main+0x1b39>
    7a6f: 86 13        	stx	$13                     ; 0x2013 <main+0x1aa9>
    7a71: 20 7d 7b     	jsr	$7b7d <_ZN12_GLOBAL__N_13putEcP6Status>
    7a74: c6 a6        	dec	$a6                     ; 0x20a6 <main+0x1b3c>
    7a76: a2 ff        	ldx	#$ff
    7a78: c6 a4        	dec	$a4                     ; 0x20a4 <main+0x1b3a>
    7a7a: e4 a4        	cpx	$a4                     ; 0x20a4 <main+0x1b3a>
    7a7c: d0 02        	bne	$7a80 <_ZN12_GLOBAL__N_15printEPKcP6Status+0xa37>
    7a7e: c6 a5        	dec	$a5                     ; 0x20a5 <main+0x1b3b>
    7a80: a5 a6        	lda	$a6                     ; 0x20a6 <main+0x1b3c>
    7a82: f0 0a        	beq	$7a8e <_ZN12_GLOBAL__N_15printEPKcP6Status+0xa45>
    7a84: b2 a4        	lda	($a4)                   ; 0x20a4 <main+0x1b3a>
    7a86: c9 0a        	cmp	#$a
    7a88: b0 c5        	bcs	$7a4f <_ZN12_GLOBAL__N_15printEPKcP6Status+0xa06>
    7a8a: 09 30        	ora	#$30
    7a8c: 80 db        	bra	$7a69 <_ZN12_GLOBAL__N_15printEPKcP6Status+0xa20>
    7a8e: a5 ad        	lda	$ad                     ; 0x20ad <main+0x1b43>
    7a90: c9 0a        	cmp	#$a
    7a92: b0 04        	bcs	$7a98 <_ZN12_GLOBAL__N_15printEPKcP6Status+0xa4f>
    7a94: 09 30        	ora	#$30
    7a96: 80 1a        	bra	$7ab2 <_ZN12_GLOBAL__N_15printEPKcP6Status+0xa69>
    7a98: 85 13        	sta	$13                     ; 0x2013 <main+0x1aa9>
    7a9a: a0 01        	ldy	#$1
    7a9c: a9 80        	lda	#$80
    7a9e: 31 a2        	and	($a2),y                 ; 0x20a2 <main+0x1b38>
    7aa0: f0 04        	beq	$7aa6 <_ZN12_GLOBAL__N_15printEPKcP6Status+0xa5d>
    7aa2: a2 61        	ldx	#$61
    7aa4: 80 02        	bra	$7aa8 <_ZN12_GLOBAL__N_15printEPKcP6Status+0xa5f>
    7aa6: a2 41        	ldx	#$41
    7aa8: 86 12        	stx	$12                     ; 0x2012 <main+0x1aa8>
    7aaa: a5 13        	lda	$13                     ; 0x2013 <main+0x1aa9>
    7aac: 18           	clc
    7aad: 65 12        	adc	$12                     ; 0x2012 <main+0x1aa8>
    7aaf: 18           	clc
    7ab0: 69 f6        	adc	#$f6
    7ab2: a6 a2        	ldx	$a2                     ; 0x20a2 <main+0x1b38>
    7ab4: 86 12        	stx	$12                     ; 0x2012 <main+0x1aa8>
    7ab6: a6 a3        	ldx	$a3                     ; 0x20a3 <main+0x1b39>
    7ab8: 86 13        	stx	$13                     ; 0x2013 <main+0x1aa9>
    7aba: 20 7d 7b     	jsr	$7b7d <_ZN12_GLOBAL__N_13putEcP6Status>
    7abd: a0 01        	ldy	#$1
    7abf: 98           	tya
    7ac0: 31 a2        	and	($a2),y                 ; 0x20a2 <main+0x1b38>
    7ac2: f0 21        	beq	$7ae5 <_ZN12_GLOBAL__N_15printEPKcP6Status+0xa9c>
    7ac4: a5 a8        	lda	$a8                     ; 0x20a8 <main+0x1b3e>
    7ac6: f0 19        	beq	$7ae1 <_ZN12_GLOBAL__N_15printEPKcP6Status+0xa98>
    7ac8: a6 a2        	ldx	$a2                     ; 0x20a2 <main+0x1b38>
    7aca: 86 12        	stx	$12                     ; 0x2012 <main+0x1aa8>
    7acc: a6 a3        	ldx	$a3                     ; 0x20a3 <main+0x1b39>
    7ace: 86 13        	stx	$13                     ; 0x2013 <main+0x1aa9>
    7ad0: a9 20        	lda	#$20
    7ad2: 20 7d 7b     	jsr	$7b7d <_ZN12_GLOBAL__N_13putEcP6Status>
    7ad5: a2 ff        	ldx	#$ff
    7ad7: c6 a7        	dec	$a7                     ; 0x20a7 <main+0x1b3d>
    7ad9: e4 a7        	cpx	$a7                     ; 0x20a7 <main+0x1b3d>
    7adb: d0 e7        	bne	$7ac4 <_ZN12_GLOBAL__N_15printEPKcP6Status+0xa7b>
    7add: c6 a8        	dec	$a8                     ; 0x20a8 <main+0x1b3e>
    7adf: 80 e3        	bra	$7ac4 <_ZN12_GLOBAL__N_15printEPKcP6Status+0xa7b>
    7ae1: a5 a7        	lda	$a7                     ; 0x20a7 <main+0x1b3d>
    7ae3: d0 e3        	bne	$7ac8 <_ZN12_GLOBAL__N_15printEPKcP6Status+0xa7f>
    7ae5: a4 a2        	ldy	$a2                     ; 0x20a2 <main+0x1b38>
    7ae7: a5 a2        	lda	$a2                     ; 0x20a2 <main+0x1b38>
    7ae9: 84 14        	sty	$14                     ; 0x2014 <main+0x1aaa>
    7aeb: 18           	clc
    7aec: 69 05        	adc	#$5
    7aee: 85 12        	sta	$12                     ; 0x2012 <main+0x1aa8>
    7af0: a5 a3        	lda	$a3                     ; 0x20a3 <main+0x1b39>
    7af2: 69 00        	adc	#$0
    7af4: 18           	clc
    7af5: 85 13        	sta	$13                     ; 0x2013 <main+0x1aa9>
    7af7: a0 01        	ldy	#$1
    7af9: a5 14        	lda	$14                     ; 0x2014 <main+0x1aaa>
    7afb: 69 03        	adc	#$3
    7afd: 85 14        	sta	$14                     ; 0x2014 <main+0x1aaa>
    7aff: a5 a3        	lda	$a3                     ; 0x20a3 <main+0x1b39>
    7b01: 69 00        	adc	#$0
    7b03: aa           	tax
    7b04: b1 12        	lda	($12),y                 ; 0x2012 <main+0x1aa8>
    7b06: 85 15        	sta	$15                     ; 0x2015 <main+0x1aab>
    7b08: a4 14        	ldy	$14                     ; 0x2014 <main+0x1aaa>
    7b0a: 84 12        	sty	$12                     ; 0x2012 <main+0x1aa8>
    7b0c: 86 13        	stx	$13                     ; 0x2013 <main+0x1aa9>
    7b0e: a0 03        	ldy	#$3
    7b10: b1 a2        	lda	($a2),y                 ; 0x20a2 <main+0x1b38>
    7b12: 85 16        	sta	$16                     ; 0x2016 <main+0x1aac>
    7b14: a0 01        	ldy	#$1
    7b16: b1 12        	lda	($12),y                 ; 0x2012 <main+0x1aa8>
    7b18: 85 17        	sta	$17                     ; 0x2017 <main+0x1aad>
    7b1a: 85 12        	sta	$12                     ; 0x2012 <main+0x1aa8>
    7b1c: a4 15        	ldy	$15                     ; 0x2015 <main+0x1aab>
    7b1e: c4 12        	cpy	$12                     ; 0x2012 <main+0x1aa8>
    7b20: d0 0c        	bne	$7b2e <_ZN12_GLOBAL__N_15printEPKcP6Status+0xae5>
    7b22: a6 16        	ldx	$16                     ; 0x2016 <main+0x1aac>
    7b24: a0 05        	ldy	#$5
    7b26: b1 a2        	lda	($a2),y                 ; 0x20a2 <main+0x1b38>
    7b28: 86 12        	stx	$12                     ; 0x2012 <main+0x1aa8>
    7b2a: c5 12        	cmp	$12                     ; 0x2012 <main+0x1aa8>
    7b2c: 80 08        	bra	$7b36 <_ZN12_GLOBAL__N_15printEPKcP6Status+0xaed>
    7b2e: 84 13        	sty	$13                     ; 0x2013 <main+0x1aa9>
    7b30: 85 12        	sta	$12                     ; 0x2012 <main+0x1aa8>
    7b32: a6 13        	ldx	$13                     ; 0x2013 <main+0x1aa9>
    7b34: e4 12        	cpx	$12                     ; 0x2012 <main+0x1aa8>
    7b36: a6 cc        	ldx	$cc                     ; 0x20cc <main+0x1b62>
    7b38: 86 12        	stx	$12                     ; 0x2012 <main+0x1aa8>
    7b3a: a6 cd        	ldx	$cd                     ; 0x20cd <main+0x1b63>
    7b3c: 86 13        	stx	$13                     ; 0x2013 <main+0x1aa9>
    7b3e: 90 36        	bcc	$7b76 <_ZN12_GLOBAL__N_15printEPKcP6Status+0xb2d>
    7b40: a6 16        	ldx	$16                     ; 0x2016 <main+0x1aac>
    7b42: a5 17        	lda	$17                     ; 0x2017 <main+0x1aad>
    7b44: d0 03        	bne	$7b49 <_ZN12_GLOBAL__N_15printEPKcP6Status+0xb00>
    7b46: 8a           	txa
    7b47: f0 2d        	beq	$7b76 <_ZN12_GLOBAL__N_15printEPKcP6Status+0xb2d>
    7b49: a5 a2        	lda	$a2                     ; 0x20a2 <main+0x1b38>
    7b4b: 18           	clc
    7b4c: 69 09        	adc	#$9
    7b4e: 85 14        	sta	$14                     ; 0x2014 <main+0x1aaa>
    7b50: a5 a3        	lda	$a3                     ; 0x20a3 <main+0x1b39>
    7b52: 69 00        	adc	#$0
    7b54: a0 09        	ldy	#$9
    7b56: 85 15        	sta	$15                     ; 0x2015 <main+0x1aab>
    7b58: 18           	clc
    7b59: a5 16        	lda	$16                     ; 0x2016 <main+0x1aac>
    7b5b: 71 a2        	adc	($a2),y                 ; 0x20a2 <main+0x1b38>
    7b5d: aa           	tax
    7b5e: a0 01        	ldy	#$1
    7b60: a5 17        	lda	$17                     ; 0x2017 <main+0x1aad>
    7b62: 71 14        	adc	($14),y                 ; 0x2014 <main+0x1aaa>
    7b64: 86 14        	stx	$14                     ; 0x2014 <main+0x1aaa>
    7b66: 85 15        	sta	$15                     ; 0x2015 <main+0x1aab>
    7b68: a2 ff        	ldx	#$ff
    7b6a: c6 14        	dec	$14                     ; 0x2014 <main+0x1aaa>
    7b6c: e4 14        	cpx	$14                     ; 0x2014 <main+0x1aaa>
    7b6e: d0 02        	bne	$7b72 <_ZN12_GLOBAL__N_15printEPKcP6Status+0xb29>
    7b70: c6 15        	dec	$15                     ; 0x2015 <main+0x1aab>
    7b72: a9 00        	lda	#$0
    7b74: 92 14        	sta	($14)                   ; 0x2014 <main+0x1aaa>
    7b76: e6 12        	inc	$12                     ; 0x2012 <main+0x1aa8>
    7b78: d0 02        	bne	$7b7c <_ZN12_GLOBAL__N_15printEPKcP6Status+0xb33>
    7b7a: e6 13        	inc	$13                     ; 0x2013 <main+0x1aa9>
    7b7c: 60           	rts

00007b7d <_ZN12_GLOBAL__N_13putEcP6Status>:
    7b7d: 85 18        	sta	$18                     ; 0x2018 <main+0x1aae>
    7b7f: a6 13        	ldx	$13                     ; 0x2013 <main+0x1aa9>
    7b81: 18           	clc
    7b82: a5 12        	lda	$12                     ; 0x2012 <main+0x1aa8>
    7b84: 69 05        	adc	#$5
    7b86: a8           	tay
    7b87: a5 13        	lda	$13                     ; 0x2013 <main+0x1aa9>
    7b89: 86 15        	stx	$15                     ; 0x2015 <main+0x1aab>
    7b8b: 69 00        	adc	#$0
    7b8d: 18           	clc
    7b8e: 84 16        	sty	$16                     ; 0x2016 <main+0x1aac>
    7b90: a0 05        	ldy	#$5
    7b92: 85 17        	sta	$17                     ; 0x2017 <main+0x1aad>
    7b94: b1 12        	lda	($12),y                 ; 0x2012 <main+0x1aa8>
    7b96: aa           	tax
    7b97: a5 12        	lda	$12                     ; 0x2012 <main+0x1aa8>
    7b99: 69 03        	adc	#$3
    7b9b: 85 14        	sta	$14                     ; 0x2014 <main+0x1aaa>
    7b9d: a5 15        	lda	$15                     ; 0x2015 <main+0x1aab>
    7b9f: 69 00        	adc	#$0
    7ba1: 85 15        	sta	$15                     ; 0x2015 <main+0x1aab>
    7ba3: a0 01        	ldy	#$1
    7ba5: b1 16        	lda	($16),y                 ; 0x2016 <main+0x1aac>
    7ba7: d1 14        	cmp	($14),y                 ; 0x2014 <main+0x1aaa>
    7ba9: d0 11        	bne	$7bbc <_ZN12_GLOBAL__N_13putEcP6Status+0x3f>
    7bab: a0 03        	ldy	#$3
    7bad: 85 17        	sta	$17                     ; 0x2017 <main+0x1aad>
    7baf: b1 12        	lda	($12),y                 ; 0x2012 <main+0x1aa8>
    7bb1: 85 14        	sta	$14                     ; 0x2014 <main+0x1aaa>
    7bb3: 86 16        	stx	$16                     ; 0x2016 <main+0x1aac>
    7bb5: e4 14        	cpx	$14                     ; 0x2014 <main+0x1aaa>
    7bb7: 90 0e        	bcc	$7bc7 <_ZN12_GLOBAL__N_13putEcP6Status+0x4a>
    7bb9: 4c 30 7c     	jmp	$7c30 <_ZN12_GLOBAL__N_13putEcP6Status+0xb3>
    7bbc: 86 16        	stx	$16                     ; 0x2016 <main+0x1aac>
    7bbe: d1 14        	cmp	($14),y                 ; 0x2014 <main+0x1aaa>
    7bc0: 85 17        	sta	$17                     ; 0x2017 <main+0x1aad>
    7bc2: 90 03        	bcc	$7bc7 <_ZN12_GLOBAL__N_13putEcP6Status+0x4a>
    7bc4: 4c 30 7c     	jmp	$7c30 <_ZN12_GLOBAL__N_13putEcP6Status+0xb3>
    7bc7: a5 12        	lda	$12                     ; 0x2012 <main+0x1aa8>
    7bc9: 18           	clc
    7bca: 69 0f        	adc	#$f
    7bcc: 85 14        	sta	$14                     ; 0x2014 <main+0x1aaa>
    7bce: a5 13        	lda	$13                     ; 0x2013 <main+0x1aa9>
    7bd0: 69 00        	adc	#$0
    7bd2: 85 15        	sta	$15                     ; 0x2015 <main+0x1aab>
    7bd4: a0 01        	ldy	#$1
    7bd6: b1 14        	lda	($14),y                 ; 0x2014 <main+0x1aaa>
    7bd8: a2 00        	ldx	#$0
    7bda: 86 14        	stx	$14                     ; 0x2014 <main+0x1aaa>
    7bdc: a2 00        	ldx	#$0
    7bde: 86 15        	stx	$15                     ; 0x2015 <main+0x1aab>
    7be0: c5 15        	cmp	$15                     ; 0x2015 <main+0x1aab>
    7be2: d0 2d        	bne	$7c11 <_ZN12_GLOBAL__N_13putEcP6Status+0x94>
    7be4: a0 0f        	ldy	#$f
    7be6: b1 12        	lda	($12),y                 ; 0x2012 <main+0x1aa8>
    7be8: c5 14        	cmp	$14                     ; 0x2014 <main+0x1aaa>
    7bea: d0 25        	bne	$7c11 <_ZN12_GLOBAL__N_13putEcP6Status+0x94>
    7bec: a5 12        	lda	$12                     ; 0x2012 <main+0x1aa8>
    7bee: 18           	clc
    7bef: 69 09        	adc	#$9
    7bf1: 85 14        	sta	$14                     ; 0x2014 <main+0x1aaa>
    7bf3: a5 13        	lda	$13                     ; 0x2013 <main+0x1aa9>
    7bf5: 69 00        	adc	#$0
    7bf7: a0 09        	ldy	#$9
    7bf9: 85 15        	sta	$15                     ; 0x2015 <main+0x1aab>
    7bfb: 18           	clc
    7bfc: a5 16        	lda	$16                     ; 0x2016 <main+0x1aac>
    7bfe: 71 12        	adc	($12),y                 ; 0x2012 <main+0x1aa8>
    7c00: aa           	tax
    7c01: a0 01        	ldy	#$1
    7c03: a5 17        	lda	$17                     ; 0x2017 <main+0x1aad>
    7c05: 71 14        	adc	($14),y                 ; 0x2014 <main+0x1aaa>
    7c07: 86 14        	stx	$14                     ; 0x2014 <main+0x1aaa>
    7c09: 85 15        	sta	$15                     ; 0x2015 <main+0x1aab>
    7c0b: a5 18        	lda	$18                     ; 0x2018 <main+0x1aae>
    7c0d: 92 14        	sta	($14)                   ; 0x2014 <main+0x1aaa>
    7c0f: 80 1f        	bra	$7c30 <_ZN12_GLOBAL__N_13putEcP6Status+0xb3>
    7c11: a6 12        	ldx	$12                     ; 0x2012 <main+0x1aa8>
    7c13: 86 df        	stx	$df                     ; 0x20df <main+0x1b75>
    7c15: a6 13        	ldx	$13                     ; 0x2013 <main+0x1aa9>
    7c17: 86 e0        	stx	$e0                     ; 0x20e0 <main+0x1b76>
    7c19: a5 18        	lda	$18                     ; 0x2018 <main+0x1aae>
    7c1b: 85 42        	sta	$42                     ; 0x2042 <main+0x1ad8>
    7c1d: a2 42        	ldx	#$42
    7c1f: 86 12        	stx	$12                     ; 0x2012 <main+0x1aa8>
    7c21: a2 00        	ldx	#$0
    7c23: 86 13        	stx	$13                     ; 0x2013 <main+0x1aa9>
    7c25: 20 84 31     	jsr	$3184 <textPrint>
    7c28: a6 df        	ldx	$df                     ; 0x20df <main+0x1b75>
    7c2a: 86 12        	stx	$12                     ; 0x2012 <main+0x1aa8>
    7c2c: a6 e0        	ldx	$e0                     ; 0x20e0 <main+0x1b76>
    7c2e: 86 13        	stx	$13                     ; 0x2013 <main+0x1aa9>
    7c30: a0 05        	ldy	#$5
    7c32: a5 12        	lda	$12                     ; 0x2012 <main+0x1aa8>
    7c34: 18           	clc
    7c35: 69 05        	adc	#$5
    7c37: 85 14        	sta	$14                     ; 0x2014 <main+0x1aaa>
    7c39: a5 13        	lda	$13                     ; 0x2013 <main+0x1aa9>
    7c3b: 69 00        	adc	#$0
    7c3d: 85 15        	sta	$15                     ; 0x2015 <main+0x1aab>
    7c3f: b1 12        	lda	($12),y                 ; 0x2012 <main+0x1aa8>
    7c41: aa           	tax
    7c42: a0 01        	ldy	#$1
    7c44: b1 14        	lda	($14),y                 ; 0x2014 <main+0x1aaa>
    7c46: e8           	inx
    7c47: d0 01        	bne	$7c4a <_ZN12_GLOBAL__N_13putEcP6Status+0xcd>
    7c49: 1a           	inc
    7c4a: 85 16        	sta	$16                     ; 0x2016 <main+0x1aac>
    7c4c: 8a           	txa
    7c4d: a0 05        	ldy	#$5
    7c4f: 91 12        	sta	($12),y                 ; 0x2012 <main+0x1aa8>
    7c51: a0 01        	ldy	#$1
    7c53: a5 16        	lda	$16                     ; 0x2016 <main+0x1aac>
    7c55: 91 14        	sta	($14),y                 ; 0x2014 <main+0x1aaa>
    7c57: 60           	rts

00007c58 <_ZN12_GLOBAL__N_112print_stringEPKcP6Status>:
    7c58: a6 12        	ldx	$12                     ; 0x2012 <main+0x1aa8>
    7c5a: 86 d7        	stx	$d7                     ; 0x20d7 <main+0x1b6d>
    7c5c: a6 13        	ldx	$13                     ; 0x2013 <main+0x1aa9>
    7c5e: 86 d8        	stx	$d8                     ; 0x20d8 <main+0x1b6e>
    7c60: a6 14        	ldx	$14                     ; 0x2014 <main+0x1aaa>
    7c62: 86 d9        	stx	$d9                     ; 0x20d9 <main+0x1b6f>
    7c64: a6 15        	ldx	$15                     ; 0x2015 <main+0x1aab>
    7c66: 86 da        	stx	$da                     ; 0x20da <main+0x1b70>
    7c68: a5 d9        	lda	$d9                     ; 0x20d9 <main+0x1b6f>
    7c6a: 18           	clc
    7c6b: 69 0d        	adc	#$d
    7c6d: 85 12        	sta	$12                     ; 0x2012 <main+0x1aa8>
    7c6f: a5 da        	lda	$da                     ; 0x20da <main+0x1b70>
    7c71: 69 00        	adc	#$0
    7c73: 85 13        	sta	$13                     ; 0x2013 <main+0x1aa9>
    7c75: a0 01        	ldy	#$1
    7c77: b1 12        	lda	($12),y                 ; 0x2012 <main+0x1aa8>
    7c79: 30 16        	bmi	$7c91 <_ZN12_GLOBAL__N_112print_stringEPKcP6Status+0x39>
    7c7b: a0 0d        	ldy	#$d
    7c7d: 85 12        	sta	$12                     ; 0x2012 <main+0x1aa8>
    7c7f: b1 d9        	lda	($d9),y                 ; 0x20d9 <main+0x1b6f>
    7c81: a6 12        	ldx	$12                     ; 0x2012 <main+0x1aa8>
    7c83: 86 de        	stx	$de                     ; 0x20de <main+0x1b74>
    7c85: d0 0f        	bne	$7c96 <_ZN12_GLOBAL__N_112print_stringEPKcP6Status+0x3e>
    7c87: aa           	tax
    7c88: d0 0c        	bne	$7c96 <_ZN12_GLOBAL__N_112print_stringEPKcP6Status+0x3e>
    7c8a: 64 db        	stz	$db                     ; 0x20db <main+0x1b71>
    7c8c: a2 00        	ldx	#$0
    7c8e: 4c 5f 7d     	jmp	$7d5f <_ZN12_GLOBAL__N_112print_stringEPKcP6Status+0x107>
    7c91: a9 ff        	lda	#$ff
    7c93: aa           	tax
    7c94: 86 de        	stx	$de                     ; 0x20de <main+0x1b74>
    7c96: 85 db        	sta	$db                     ; 0x20db <main+0x1b71>
    7c98: 64 12        	stz	$12                     ; 0x2012 <main+0x1aa8>
    7c9a: a4 d7        	ldy	$d7                     ; 0x20d7 <main+0x1b6d>
    7c9c: a6 d8        	ldx	$d8                     ; 0x20d8 <main+0x1b6e>
    7c9e: 86 16        	stx	$16                     ; 0x2016 <main+0x1aac>
    7ca0: 64 13        	stz	$13                     ; 0x2013 <main+0x1aa9>
    7ca2: 98           	tya
    7ca3: 18           	clc
    7ca4: 65 12        	adc	$12                     ; 0x2012 <main+0x1aa8>
    7ca6: 85 14        	sta	$14                     ; 0x2014 <main+0x1aaa>
    7ca8: a5 d8        	lda	$d8                     ; 0x20d8 <main+0x1b6e>
    7caa: 65 13        	adc	$13                     ; 0x2013 <main+0x1aa9>
    7cac: 85 15        	sta	$15                     ; 0x2015 <main+0x1aab>
    7cae: b2 14        	lda	($14)                   ; 0x2014 <main+0x1aaa>
    7cb0: d0 03        	bne	$7cb5 <_ZN12_GLOBAL__N_112print_stringEPKcP6Status+0x5d>
    7cb2: 4c 59 7d     	jmp	$7d59 <_ZN12_GLOBAL__N_112print_stringEPKcP6Status+0x101>
    7cb5: e6 12        	inc	$12                     ; 0x2012 <main+0x1aa8>
    7cb7: d0 02        	bne	$7cbb <_ZN12_GLOBAL__N_112print_stringEPKcP6Status+0x63>
    7cb9: e6 13        	inc	$13                     ; 0x2013 <main+0x1aa9>
    7cbb: a6 de        	ldx	$de                     ; 0x20de <main+0x1b74>
    7cbd: e4 13        	cpx	$13                     ; 0x2013 <main+0x1aa9>
    7cbf: d0 e1        	bne	$7ca2 <_ZN12_GLOBAL__N_112print_stringEPKcP6Status+0x4a>
    7cc1: a6 db        	ldx	$db                     ; 0x20db <main+0x1b71>
    7cc3: e4 12        	cpx	$12                     ; 0x2012 <main+0x1aa8>
    7cc5: d0 db        	bne	$7ca2 <_ZN12_GLOBAL__N_112print_stringEPKcP6Status+0x4a>
    7cc7: a0 01        	ldy	#$1
    7cc9: b1 d9        	lda	($d9),y                 ; 0x20d9 <main+0x1b6f>
    7ccb: 29 01        	and	#$1
    7ccd: f0 03        	beq	$7cd2 <_ZN12_GLOBAL__N_112print_stringEPKcP6Status+0x7a>
    7ccf: 4c 2a 7d     	jmp	$7d2a <_ZN12_GLOBAL__N_112print_stringEPKcP6Status+0xd2>
    7cd2: a5 d9        	lda	$d9                     ; 0x20d9 <main+0x1b6f>
    7cd4: 18           	clc
    7cd5: 69 0b        	adc	#$b
    7cd7: 85 14        	sta	$14                     ; 0x2014 <main+0x1aaa>
    7cd9: a5 da        	lda	$da                     ; 0x20da <main+0x1b70>
    7cdb: 69 00        	adc	#$0
    7cdd: 85 15        	sta	$15                     ; 0x2015 <main+0x1aab>
    7cdf: a0 0b        	ldy	#$b
    7ce1: b1 d9        	lda	($d9),y                 ; 0x20d9 <main+0x1b6f>
    7ce3: 85 13        	sta	$13                     ; 0x2013 <main+0x1aa9>
    7ce5: a0 01        	ldy	#$1
    7ce7: b1 14        	lda	($14),y                 ; 0x2014 <main+0x1aaa>
    7ce9: 85 12        	sta	$12                     ; 0x2012 <main+0x1aa8>
    7ceb: a6 de        	ldx	$de                     ; 0x20de <main+0x1b74>
    7ced: e4 12        	cpx	$12                     ; 0x2012 <main+0x1aa8>
    7cef: d0 08        	bne	$7cf9 <_ZN12_GLOBAL__N_112print_stringEPKcP6Status+0xa1>
    7cf1: a6 db        	ldx	$db                     ; 0x20db <main+0x1b71>
    7cf3: e4 13        	cpx	$13                     ; 0x2013 <main+0x1aa9>
    7cf5: 90 06        	bcc	$7cfd <_ZN12_GLOBAL__N_112print_stringEPKcP6Status+0xa5>
    7cf7: 80 31        	bra	$7d2a <_ZN12_GLOBAL__N_112print_stringEPKcP6Status+0xd2>
    7cf9: e4 12        	cpx	$12                     ; 0x2012 <main+0x1aa8>
    7cfb: b0 2d        	bcs	$7d2a <_ZN12_GLOBAL__N_112print_stringEPKcP6Status+0xd2>
    7cfd: 38           	sec
    7cfe: a5 db        	lda	$db                     ; 0x20db <main+0x1b71>
    7d00: e5 13        	sbc	$13                     ; 0x2013 <main+0x1aa9>
    7d02: a8           	tay
    7d03: a5 de        	lda	$de                     ; 0x20de <main+0x1b74>
    7d05: e5 12        	sbc	$12                     ; 0x2012 <main+0x1aa8>
    7d07: 85 dd        	sta	$dd                     ; 0x20dd <main+0x1b73>
    7d09: a6 d9        	ldx	$d9                     ; 0x20d9 <main+0x1b6f>
    7d0b: 86 12        	stx	$12                     ; 0x2012 <main+0x1aa8>
    7d0d: a6 da        	ldx	$da                     ; 0x20da <main+0x1b70>
    7d0f: 86 13        	stx	$13                     ; 0x2013 <main+0x1aa9>
    7d11: 84 dc        	sty	$dc                     ; 0x20dc <main+0x1b72>
    7d13: a9 20        	lda	#$20
    7d15: 20 7d 7b     	jsr	$7b7d <_ZN12_GLOBAL__N_13putEcP6Status>
    7d18: a6 dd        	ldx	$dd                     ; 0x20dd <main+0x1b73>
    7d1a: e6 dc        	inc	$dc                     ; 0x20dc <main+0x1b72>
    7d1c: d0 01        	bne	$7d1f <_ZN12_GLOBAL__N_112print_stringEPKcP6Status+0xc7>
    7d1e: e8           	inx
    7d1f: 86 dd        	stx	$dd                     ; 0x20dd <main+0x1b73>
    7d21: a4 dc        	ldy	$dc                     ; 0x20dc <main+0x1b72>
    7d23: 8a           	txa
    7d24: d0 e3        	bne	$7d09 <_ZN12_GLOBAL__N_112print_stringEPKcP6Status+0xb1>
    7d26: a5 dc        	lda	$dc                     ; 0x20dc <main+0x1b72>
    7d28: d0 df        	bne	$7d09 <_ZN12_GLOBAL__N_112print_stringEPKcP6Status+0xb1>
    7d2a: a4 de        	ldy	$de                     ; 0x20de <main+0x1b74>
    7d2c: d0 04        	bne	$7d32 <_ZN12_GLOBAL__N_112print_stringEPKcP6Status+0xda>
    7d2e: a5 db        	lda	$db                     ; 0x20db <main+0x1b71>
    7d30: f0 26        	beq	$7d58 <_ZN12_GLOBAL__N_112print_stringEPKcP6Status+0x100>
    7d32: a2 ff        	ldx	#$ff
    7d34: c6 db        	dec	$db                     ; 0x20db <main+0x1b71>
    7d36: e4 db        	cpx	$db                     ; 0x20db <main+0x1b71>
    7d38: d0 01        	bne	$7d3b <_ZN12_GLOBAL__N_112print_stringEPKcP6Status+0xe3>
    7d3a: 88           	dey
    7d3b: 84 dc        	sty	$dc                     ; 0x20dc <main+0x1b72>
    7d3d: b2 d7        	lda	($d7)                   ; 0x20d7 <main+0x1b6d>
    7d3f: e6 d7        	inc	$d7                     ; 0x20d7 <main+0x1b6d>
    7d41: d0 02        	bne	$7d45 <_ZN12_GLOBAL__N_112print_stringEPKcP6Status+0xed>
    7d43: e6 d8        	inc	$d8                     ; 0x20d8 <main+0x1b6e>
    7d45: a6 d9        	ldx	$d9                     ; 0x20d9 <main+0x1b6f>
    7d47: 86 12        	stx	$12                     ; 0x2012 <main+0x1aa8>
    7d49: a6 da        	ldx	$da                     ; 0x20da <main+0x1b70>
    7d4b: 86 13        	stx	$13                     ; 0x2013 <main+0x1aa9>
    7d4d: 20 7d 7b     	jsr	$7b7d <_ZN12_GLOBAL__N_13putEcP6Status>
    7d50: a4 dc        	ldy	$dc                     ; 0x20dc <main+0x1b72>
    7d52: d0 de        	bne	$7d32 <_ZN12_GLOBAL__N_112print_stringEPKcP6Status+0xda>
    7d54: a5 db        	lda	$db                     ; 0x20db <main+0x1b71>
    7d56: d0 da        	bne	$7d32 <_ZN12_GLOBAL__N_112print_stringEPKcP6Status+0xda>
    7d58: 60           	rts
    7d59: a6 12        	ldx	$12                     ; 0x2012 <main+0x1aa8>
    7d5b: 86 db        	stx	$db                     ; 0x20db <main+0x1b71>
    7d5d: a6 13        	ldx	$13                     ; 0x2013 <main+0x1aa9>
    7d5f: 86 de        	stx	$de                     ; 0x20de <main+0x1b74>
    7d61: 4c c7 7c     	jmp	$7cc7 <_ZN12_GLOBAL__N_112print_stringEPKcP6Status+0x6f>

00007d64 <printf>:
    7d64: 18           	clc
    7d65: a6 10        	ldx	$10                     ; 0x2010 <main+0x1aa6>
    7d67: a4 11        	ldy	$11                     ; 0x2011 <main+0x1aa7>
    7d69: 86 a0        	stx	$a0                     ; 0x20a0 <main+0x1b36>
    7d6b: 84 a1        	sty	$a1                     ; 0x20a1 <main+0x1b37>
    7d6d: a6 a0        	ldx	$a0                     ; 0x20a0 <main+0x1b36>
    7d6f: a4 a1        	ldy	$a1                     ; 0x20a1 <main+0x1b37>
    7d71: 86 8b        	stx	$8b                     ; 0x208b <main+0x1b21>
    7d73: 84 8c        	sty	$8c                     ; 0x208c <main+0x1b22>
    7d75: a2 ff        	ldx	#$ff
    7d77: 86 90        	stx	$90                     ; 0x2090 <main+0x1b26>
    7d79: 86 91        	stx	$91                     ; 0x2091 <main+0x1b27>
    7d7b: 64 92        	stz	$92                     ; 0x2092 <main+0x1b28>
    7d7d: 64 93        	stz	$93                     ; 0x2093 <main+0x1b29>
    7d7f: e8           	inx
    7d80: 86 14        	stx	$14                     ; 0x2014 <main+0x1aaa>
    7d82: a2 00        	ldx	#$0
    7d84: 86 15        	stx	$15                     ; 0x2015 <main+0x1aab>
    7d86: a6 14        	ldx	$14                     ; 0x2014 <main+0x1aaa>
    7d88: a4 15        	ldy	$15                     ; 0x2015 <main+0x1aab>
    7d8a: 86 96        	stx	$96                     ; 0x2096 <main+0x1b2c>
    7d8c: 84 97        	sty	$97                     ; 0x2097 <main+0x1b2d>
    7d8e: a2 02        	ldx	#$2
    7d90: 86 9c        	stx	$9c                     ; 0x209c <main+0x1b32>
    7d92: 64 9d        	stz	$9d                     ; 0x209d <main+0x1b33>
    7d94: a6 8b        	ldx	$8b                     ; 0x208b <main+0x1b21>
    7d96: a4 8c        	ldy	$8c                     ; 0x208c <main+0x1b22>
    7d98: 86 9e        	stx	$9e                     ; 0x209e <main+0x1b34>
    7d9a: 84 9f        	sty	$9f                     ; 0x209f <main+0x1b35>
    7d9c: a6 12        	ldx	$12                     ; 0x2012 <main+0x1aa8>
    7d9e: 86 89        	stx	$89                     ; 0x2089 <main+0x1b1f>
    7da0: a6 13        	ldx	$13                     ; 0x2013 <main+0x1aa9>
    7da2: 86 8a        	stx	$8a                     ; 0x208a <main+0x1b20>
    7da4: b2 12        	lda	($12)                   ; 0x2012 <main+0x1aa8>
    7da6: c9 25        	cmp	#$25
    7da8: f0 26        	beq	$7dd0 <printf+0x6c>
    7daa: aa           	tax
    7dab: f0 3e        	beq	$7deb <printf+0x87>
    7dad: 85 42        	sta	$42                     ; 0x2042 <main+0x1ad8>
    7daf: a2 42        	ldx	#$42
    7db1: 86 12        	stx	$12                     ; 0x2012 <main+0x1aa8>
    7db3: a2 00        	ldx	#$0
    7db5: 86 13        	stx	$13                     ; 0x2013 <main+0x1aa9>
    7db7: 20 84 31     	jsr	$3184 <textPrint>
    7dba: e6 89        	inc	$89                     ; 0x2089 <main+0x1b1f>
    7dbc: d0 02        	bne	$7dc0 <printf+0x5c>
    7dbe: e6 8a        	inc	$8a                     ; 0x208a <main+0x1b20>
    7dc0: e6 92        	inc	$92                     ; 0x2092 <main+0x1b28>
    7dc2: d0 02        	bne	$7dc6 <printf+0x62>
    7dc4: e6 93        	inc	$93                     ; 0x2093 <main+0x1b29>
    7dc6: a6 89        	ldx	$89                     ; 0x2089 <main+0x1b1f>
    7dc8: 86 12        	stx	$12                     ; 0x2012 <main+0x1aa8>
    7dca: a6 8a        	ldx	$8a                     ; 0x208a <main+0x1b20>
    7dcc: 86 13        	stx	$13                     ; 0x2013 <main+0x1aa9>
    7dce: 80 cc        	bra	$7d9c <printf+0x38>
    7dd0: a2 8d        	ldx	#$8d
    7dd2: 86 14        	stx	$14                     ; 0x2014 <main+0x1aaa>
    7dd4: a2 00        	ldx	#$0
    7dd6: 86 15        	stx	$15                     ; 0x2015 <main+0x1aab>
    7dd8: 20 49 70     	jsr	$7049 <_ZN12_GLOBAL__N_15printEPKcP6Status>
    7ddb: a6 13        	ldx	$13                     ; 0x2013 <main+0x1aa9>
    7ddd: e4 8a        	cpx	$8a                     ; 0x208a <main+0x1b20>
    7ddf: d0 bb        	bne	$7d9c <printf+0x38>
    7de1: a6 12        	ldx	$12                     ; 0x2012 <main+0x1aa8>
    7de3: e4 89        	cpx	$89                     ; 0x2089 <main+0x1b1f>
    7de5: d0 b5        	bne	$7d9c <printf+0x38>
    7de7: b2 89        	lda	($89)                   ; 0x2089 <main+0x1b1f>
    7de9: 80 c2        	bra	$7dad <printf+0x49>
    7deb: 60           	rts

00007dec <sprintf>:
    7dec: a6 12        	ldx	$12                     ; 0x2012 <main+0x1aa8>
    7dee: 86 76        	stx	$76                     ; 0x2076 <main+0x1b0c>
    7df0: a6 13        	ldx	$13                     ; 0x2013 <main+0x1aa9>
    7df2: 86 77        	stx	$77                     ; 0x2077 <main+0x1b0d>
    7df4: a6 14        	ldx	$14                     ; 0x2014 <main+0x1aaa>
    7df6: 86 12        	stx	$12                     ; 0x2012 <main+0x1aa8>
    7df8: a6 15        	ldx	$15                     ; 0x2015 <main+0x1aab>
    7dfa: 86 13        	stx	$13                     ; 0x2013 <main+0x1aa9>
    7dfc: 18           	clc
    7dfd: a6 10        	ldx	$10                     ; 0x2010 <main+0x1aa6>
    7dff: a4 11        	ldy	$11                     ; 0x2011 <main+0x1aa7>
    7e01: 86 8f        	stx	$8f                     ; 0x208f <main+0x1b25>
    7e03: 84 90        	sty	$90                     ; 0x2090 <main+0x1b26>
    7e05: a6 8f        	ldx	$8f                     ; 0x208f <main+0x1b25>
    7e07: a4 90        	ldy	$90                     ; 0x2090 <main+0x1b26>
    7e09: 86 7a        	stx	$7a                     ; 0x207a <main+0x1b10>
    7e0b: 84 7b        	sty	$7b                     ; 0x207b <main+0x1b11>
    7e0d: a2 ff        	ldx	#$ff
    7e0f: 86 7f        	stx	$7f                     ; 0x207f <main+0x1b15>
    7e11: 86 80        	stx	$80                     ; 0x2080 <main+0x1b16>
    7e13: 64 81        	stz	$81                     ; 0x2081 <main+0x1b17>
    7e15: 64 82        	stz	$82                     ; 0x2082 <main+0x1b18>
    7e17: a6 76        	ldx	$76                     ; 0x2076 <main+0x1b0c>
    7e19: a4 77        	ldy	$77                     ; 0x2077 <main+0x1b0d>
    7e1b: 86 85        	stx	$85                     ; 0x2085 <main+0x1b1b>
    7e1d: 84 86        	sty	$86                     ; 0x2086 <main+0x1b1c>
    7e1f: a2 00        	ldx	#$0
    7e21: 86 14        	stx	$14                     ; 0x2014 <main+0x1aaa>
    7e23: a2 00        	ldx	#$0
    7e25: 86 15        	stx	$15                     ; 0x2015 <main+0x1aab>
    7e27: a6 14        	ldx	$14                     ; 0x2014 <main+0x1aaa>
    7e29: a4 15        	ldy	$15                     ; 0x2015 <main+0x1aab>
    7e2b: 86 8b        	stx	$8b                     ; 0x208b <main+0x1b21>
    7e2d: 84 8c        	sty	$8c                     ; 0x208c <main+0x1b22>
    7e2f: a6 7a        	ldx	$7a                     ; 0x207a <main+0x1b10>
    7e31: a4 7b        	ldy	$7b                     ; 0x207b <main+0x1b11>
    7e33: 86 8d        	stx	$8d                     ; 0x208d <main+0x1b23>
    7e35: 84 8e        	sty	$8e                     ; 0x208e <main+0x1b24>
    7e37: 80 17        	bra	$7e50 <sprintf+0x64>
    7e39: a2 7c        	ldx	#$7c
    7e3b: 86 14        	stx	$14                     ; 0x2014 <main+0x1aaa>
    7e3d: a2 00        	ldx	#$0
    7e3f: 86 15        	stx	$15                     ; 0x2015 <main+0x1aab>
    7e41: 20 49 70     	jsr	$7049 <_ZN12_GLOBAL__N_15printEPKcP6Status>
    7e44: a6 13        	ldx	$13                     ; 0x2013 <main+0x1aa9>
    7e46: e4 79        	cpx	$79                     ; 0x2079 <main+0x1b0f>
    7e48: d0 06        	bne	$7e50 <sprintf+0x64>
    7e4a: a6 12        	ldx	$12                     ; 0x2012 <main+0x1aa8>
    7e4c: e4 78        	cpx	$78                     ; 0x2078 <main+0x1b0e>
    7e4e: f0 11        	beq	$7e61 <sprintf+0x75>
    7e50: a6 12        	ldx	$12                     ; 0x2012 <main+0x1aa8>
    7e52: 86 78        	stx	$78                     ; 0x2078 <main+0x1b0e>
    7e54: a6 13        	ldx	$13                     ; 0x2013 <main+0x1aa9>
    7e56: 86 79        	stx	$79                     ; 0x2079 <main+0x1b0f>
    7e58: b2 12        	lda	($12)                   ; 0x2012 <main+0x1aa8>
    7e5a: c9 25        	cmp	#$25
    7e5c: f0 db        	beq	$7e39 <sprintf+0x4d>
    7e5e: aa           	tax
    7e5f: f0 43        	beq	$7ea4 <sprintf+0xb8>
    7e61: a6 81        	ldx	$81                     ; 0x2081 <main+0x1b17>
    7e63: 86 12        	stx	$12                     ; 0x2012 <main+0x1aa8>
    7e65: a4 82        	ldy	$82                     ; 0x2082 <main+0x1b18>
    7e67: 84 13        	sty	$13                     ; 0x2013 <main+0x1aa9>
    7e69: c0 ff        	cpy	#$ff
    7e6b: d0 04        	bne	$7e71 <sprintf+0x85>
    7e6d: e0 ff        	cpx	#$ff
    7e6f: f0 15        	beq	$7e86 <sprintf+0x9a>
    7e71: b2 78        	lda	($78)                   ; 0x2078 <main+0x1b0e>
    7e73: 85 16        	sta	$16                     ; 0x2016 <main+0x1aac>
    7e75: a5 76        	lda	$76                     ; 0x2076 <main+0x1b0c>
    7e77: 18           	clc
    7e78: 65 12        	adc	$12                     ; 0x2012 <main+0x1aa8>
    7e7a: 85 14        	sta	$14                     ; 0x2014 <main+0x1aaa>
    7e7c: a5 77        	lda	$77                     ; 0x2077 <main+0x1b0d>
    7e7e: 65 13        	adc	$13                     ; 0x2013 <main+0x1aa9>
    7e80: 85 15        	sta	$15                     ; 0x2015 <main+0x1aab>
    7e82: a5 16        	lda	$16                     ; 0x2016 <main+0x1aac>
    7e84: 92 14        	sta	($14)                   ; 0x2014 <main+0x1aaa>
    7e86: e6 12        	inc	$12                     ; 0x2012 <main+0x1aa8>
    7e88: d0 02        	bne	$7e8c <sprintf+0xa0>
    7e8a: e6 13        	inc	$13                     ; 0x2013 <main+0x1aa9>
    7e8c: a6 12        	ldx	$12                     ; 0x2012 <main+0x1aa8>
    7e8e: a4 13        	ldy	$13                     ; 0x2013 <main+0x1aa9>
    7e90: 86 81        	stx	$81                     ; 0x2081 <main+0x1b17>
    7e92: 84 82        	sty	$82                     ; 0x2082 <main+0x1b18>
    7e94: e6 78        	inc	$78                     ; 0x2078 <main+0x1b0e>
    7e96: d0 02        	bne	$7e9a <sprintf+0xae>
    7e98: e6 79        	inc	$79                     ; 0x2079 <main+0x1b0f>
    7e9a: a6 78        	ldx	$78                     ; 0x2078 <main+0x1b0e>
    7e9c: 86 12        	stx	$12                     ; 0x2012 <main+0x1aa8>
    7e9e: a6 79        	ldx	$79                     ; 0x2079 <main+0x1b0f>
    7ea0: 86 13        	stx	$13                     ; 0x2013 <main+0x1aa9>
    7ea2: 80 ac        	bra	$7e50 <sprintf+0x64>
    7ea4: a6 81        	ldx	$81                     ; 0x2081 <main+0x1b17>
    7ea6: 86 12        	stx	$12                     ; 0x2012 <main+0x1aa8>
    7ea8: a4 82        	ldy	$82                     ; 0x2082 <main+0x1b18>
    7eaa: 84 13        	sty	$13                     ; 0x2013 <main+0x1aa9>
    7eac: c0 ff        	cpy	#$ff
    7eae: d0 04        	bne	$7eb4 <sprintf+0xc8>
    7eb0: e0 ff        	cpx	#$ff
    7eb2: f0 11        	beq	$7ec5 <sprintf+0xd9>
    7eb4: a5 76        	lda	$76                     ; 0x2076 <main+0x1b0c>
    7eb6: 18           	clc
    7eb7: 65 12        	adc	$12                     ; 0x2012 <main+0x1aa8>
    7eb9: 85 12        	sta	$12                     ; 0x2012 <main+0x1aa8>
    7ebb: a5 77        	lda	$77                     ; 0x2077 <main+0x1b0d>
    7ebd: 65 13        	adc	$13                     ; 0x2013 <main+0x1aa9>
    7ebf: 85 13        	sta	$13                     ; 0x2013 <main+0x1aa9>
    7ec1: a9 00        	lda	#$0
    7ec3: 92 12        	sta	($12)                   ; 0x2012 <main+0x1aa8>
    7ec5: 60           	rts

00007ec6 <malloc>:
    7ec6: a8           	tay
    7ec7: 8a           	txa
    7ec8: a2 00        	ldx	#$0
    7eca: 86 12        	stx	$12                     ; 0x2012 <main+0x1aa8>
    7ecc: a2 00        	ldx	#$0
    7ece: 86 13        	stx	$13                     ; 0x2013 <main+0x1aa9>
    7ed0: aa           	tax
    7ed1: d0 07        	bne	$7eda <malloc+0x14>
    7ed3: c0 00        	cpy	#$0
    7ed5: d0 03        	bne	$7eda <malloc+0x14>
    7ed7: 4c c7 7f     	jmp	$7fc7 <malloc+0x101>
    7eda: 84 16        	sty	$16                     ; 0x2016 <main+0x1aac>
    7edc: aa           	tax
    7edd: d0 0e        	bne	$7eed <malloc+0x27>
    7edf: a6 16        	ldx	$16                     ; 0x2016 <main+0x1aac>
    7ee1: e0 07        	cpx	#$7
    7ee3: b0 0c        	bcs	$7ef1 <malloc+0x2b>
    7ee5: a2 08        	ldx	#$8
    7ee7: 86 72        	stx	$72                     ; 0x2072 <main+0x1b08>
    7ee9: a9 00        	lda	#$0
    7eeb: 80 2f        	bra	$7f1c <malloc+0x56>
    7eed: c9 00        	cmp	#$0
    7eef: 90 f4        	bcc	$7ee5 <malloc+0x1f>
    7ef1: a8           	tay
    7ef2: a5 16        	lda	$16                     ; 0x2016 <main+0x1aac>
    7ef4: 29 01        	and	#$1
    7ef6: a2 02        	ldx	#$2
    7ef8: 64 14        	stz	$14                     ; 0x2014 <main+0x1aaa>
    7efa: c9 00        	cmp	#$0
    7efc: f0 02        	beq	$7f00 <malloc+0x3a>
    7efe: a2 03        	ldx	#$3
    7f00: 86 15        	stx	$15                     ; 0x2015 <main+0x1aab>
    7f02: 18           	clc
    7f03: a5 16        	lda	$16                     ; 0x2016 <main+0x1aac>
    7f05: 65 15        	adc	$15                     ; 0x2015 <main+0x1aab>
    7f07: aa           	tax
    7f08: 98           	tya
    7f09: 65 14        	adc	$14                     ; 0x2014 <main+0x1aaa>
    7f0b: 90 03        	bcc	$7f10 <malloc+0x4a>
    7f0d: 4c c7 7f     	jmp	$7fc7 <malloc+0x101>
    7f10: 86 72        	stx	$72                     ; 0x2072 <main+0x1b08>
    7f12: a8           	tay
    7f13: d0 07        	bne	$7f1c <malloc+0x56>
    7f15: e0 00        	cpx	#$0
    7f17: d0 03        	bne	$7f1c <malloc+0x56>
    7f19: 4c c7 7f     	jmp	$7fc7 <malloc+0x101>
    7f1c: 85 71        	sta	$71                     ; 0x2071 <main+0x1b07>
    7f1e: a5 6b        	lda	$6b                     ; 0x206b <main+0x1b01>
    7f20: 29 01        	and	#$1
    7f22: d0 2b        	bne	$7f4f <malloc+0x89>
    7f24: a9 00        	lda	#$0
    7f26: a2 10        	ldx	#$10
    7f28: a0 94        	ldy	#$94
    7f2a: 84 12        	sty	$12                     ; 0x2012 <main+0x1aa8>
    7f2c: a0 a5        	ldy	#$a5
    7f2e: 84 13        	sty	$13                     ; 0x2013 <main+0x1aa9>
    7f30: 20 20 03     	jsr	$320 <_ZN12_GLOBAL__N_19FreeChunk6insertEPvj>
    7f33: a2 00        	ldx	#$0
    7f35: 86 12        	stx	$12                     ; 0x2012 <main+0x1aa8>
    7f37: a2 00        	ldx	#$0
    7f39: 86 13        	stx	$13                     ; 0x2013 <main+0x1aa9>
    7f3b: ae 95 a5     	ldx	$a595                   ; 0xa595 <__heap_start+0x1>
    7f3e: a9 fe        	lda	#$fe
    7f40: 2d 94 a5     	and	$a594                   ; 0xa594 <__heap_start>
    7f43: 8d 94 a5     	sta	$a594                   ; 0xa594 <__heap_start>
    7f46: 8e 95 a5     	stx	$a595                   ; 0xa595 <__heap_start+0x1>
    7f49: a2 01        	ldx	#$1
    7f4b: 86 6c        	stx	$6c                     ; 0x206c <main+0x1b02>
    7f4d: 86 6b        	stx	$6b                     ; 0x206b <main+0x1b01>
    7f4f: a6 6f        	ldx	$6f                     ; 0x206f <main+0x1b05>
    7f51: 86 16        	stx	$16                     ; 0x2016 <main+0x1aac>
    7f53: a4 70        	ldy	$70                     ; 0x2070 <main+0x1b06>
    7f55: 84 17        	sty	$17                     ; 0x2017 <main+0x1aad>
    7f57: a9 00        	lda	#$0
    7f59: 85 14        	sta	$14                     ; 0x2014 <main+0x1aaa>
    7f5b: a9 00        	lda	#$0
    7f5d: 85 15        	sta	$15                     ; 0x2015 <main+0x1aab>
    7f5f: c4 15        	cpy	$15                     ; 0x2015 <main+0x1aab>
    7f61: d0 07        	bne	$7f6a <malloc+0xa4>
    7f63: e4 14        	cpx	$14                     ; 0x2014 <main+0x1aaa>
    7f65: d0 03        	bne	$7f6a <malloc+0xa4>
    7f67: 4c c7 7f     	jmp	$7fc7 <malloc+0x101>
    7f6a: a2 00        	ldx	#$0
    7f6c: a0 10        	ldy	#$10
    7f6e: 86 14        	stx	$14                     ; 0x2014 <main+0x1aaa>
    7f70: 84 15        	sty	$15                     ; 0x2015 <main+0x1aab>
    7f72: 18           	clc
    7f73: a9 94        	lda	#$94
    7f75: 65 14        	adc	$14                     ; 0x2014 <main+0x1aaa>
    7f77: 85 18        	sta	$18                     ; 0x2018 <main+0x1aae>
    7f79: a9 a5        	lda	#$a5
    7f7b: 65 15        	adc	$15                     ; 0x2015 <main+0x1aab>
    7f7d: 85 75        	sta	$75                     ; 0x2075 <main+0x1b0b>
    7f7f: a0 01        	ldy	#$1
    7f81: a6 71        	ldx	$71                     ; 0x2071 <main+0x1b07>
    7f83: 86 19        	stx	$19                     ; 0x2019 <main+0x1aaf>
    7f85: a6 16        	ldx	$16                     ; 0x2016 <main+0x1aac>
    7f87: 86 14        	stx	$14                     ; 0x2014 <main+0x1aaa>
    7f89: a6 17        	ldx	$17                     ; 0x2017 <main+0x1aad>
    7f8b: 86 15        	stx	$15                     ; 0x2015 <main+0x1aab>
    7f8d: b1 14        	lda	($14),y                 ; 0x2014 <main+0x1aaa>
    7f8f: c5 19        	cmp	$19                     ; 0x2019 <main+0x1aaf>
    7f91: d0 0e        	bne	$7fa1 <malloc+0xdb>
    7f93: b2 14        	lda	($14)                   ; 0x2014 <main+0x1aaa>
    7f95: 29 fe        	and	#$fe
    7f97: a6 72        	ldx	$72                     ; 0x2072 <main+0x1b08>
    7f99: 86 1a        	stx	$1a                     ; 0x201a <main+0x1ab0>
    7f9b: c5 1a        	cmp	$1a                     ; 0x201a <main+0x1ab0>
    7f9d: b0 29        	bcs	$7fc8 <malloc+0x102>
    7f9f: 80 04        	bra	$7fa5 <malloc+0xdf>
    7fa1: c5 19        	cmp	$19                     ; 0x2019 <main+0x1aaf>
    7fa3: b0 23        	bcs	$7fc8 <malloc+0x102>
    7fa5: a5 14        	lda	$14                     ; 0x2014 <main+0x1aaa>
    7fa7: 18           	clc
    7fa8: 69 02        	adc	#$2
    7faa: 85 1a        	sta	$1a                     ; 0x201a <main+0x1ab0>
    7fac: a5 15        	lda	$15                     ; 0x2015 <main+0x1aab>
    7fae: 69 00        	adc	#$0
    7fb0: 85 1b        	sta	$1b                     ; 0x201b <main+0x1ab1>
    7fb2: a0 02        	ldy	#$2
    7fb4: b1 14        	lda	($14),y                 ; 0x2014 <main+0x1aaa>
    7fb6: 85 14        	sta	$14                     ; 0x2014 <main+0x1aaa>
    7fb8: 88           	dey
    7fb9: b1 1a        	lda	($1a),y                 ; 0x201a <main+0x1ab0>
    7fbb: 85 15        	sta	$15                     ; 0x2015 <main+0x1aab>
    7fbd: c5 17        	cmp	$17                     ; 0x2017 <main+0x1aad>
    7fbf: d0 cc        	bne	$7f8d <malloc+0xc7>
    7fc1: a5 14        	lda	$14                     ; 0x2014 <main+0x1aaa>
    7fc3: c5 16        	cmp	$16                     ; 0x2016 <main+0x1aac>
    7fc5: d0 c6        	bne	$7f8d <malloc+0xc7>
    7fc7: 60           	rts
    7fc8: a6 18        	ldx	$18                     ; 0x2018 <main+0x1aae>
    7fca: 86 76        	stx	$76                     ; 0x2076 <main+0x1b0c>
    7fcc: a6 14        	ldx	$14                     ; 0x2014 <main+0x1aaa>
    7fce: 86 12        	stx	$12                     ; 0x2012 <main+0x1aa8>
    7fd0: a6 15        	ldx	$15                     ; 0x2015 <main+0x1aab>
    7fd2: 86 13        	stx	$13                     ; 0x2013 <main+0x1aa9>
    7fd4: a6 14        	ldx	$14                     ; 0x2014 <main+0x1aaa>
    7fd6: 86 73        	stx	$73                     ; 0x2073 <main+0x1b09>
    7fd8: a6 15        	ldx	$15                     ; 0x2015 <main+0x1aab>
    7fda: 86 74        	stx	$74                     ; 0x2074 <main+0x1b0a>
    7fdc: 20 56 04     	jsr	$456 <_ZN12_GLOBAL__N_19FreeChunk6removeEv>
    7fdf: a6 73        	ldx	$73                     ; 0x2073 <main+0x1b09>
    7fe1: 86 12        	stx	$12                     ; 0x2012 <main+0x1aa8>
    7fe3: a6 74        	ldx	$74                     ; 0x2074 <main+0x1b0a>
    7fe5: 86 13        	stx	$13                     ; 0x2013 <main+0x1aa9>
    7fe7: a0 01        	ldy	#$1
    7fe9: b1 12        	lda	($12),y                 ; 0x2012 <main+0x1aa8>
    7feb: 85 15        	sta	$15                     ; 0x2015 <main+0x1aab>
    7fed: a9 fe        	lda	#$fe
    7fef: 32 12        	and	($12)                   ; 0x2012 <main+0x1aa8>
    7ff1: 38           	sec
    7ff2: a6 72        	ldx	$72                     ; 0x2072 <main+0x1b08>
    7ff4: 86 14        	stx	$14                     ; 0x2014 <main+0x1aaa>
    7ff6: 85 17        	sta	$17                     ; 0x2017 <main+0x1aad>
    7ff8: e5 14        	sbc	$14                     ; 0x2014 <main+0x1aaa>
    7ffa: a8           	tay
    7ffb: a6 71        	ldx	$71                     ; 0x2071 <main+0x1b07>
    7ffd: 86 14        	stx	$14                     ; 0x2014 <main+0x1aaa>
    7fff: a5 15        	lda	$15                     ; 0x2015 <main+0x1aab>
    8001: 85 16        	sta	$16                     ; 0x2016 <main+0x1aac>
    8003: e5 14        	sbc	$14                     ; 0x2014 <main+0x1aaa>
    8005: d0 06        	bne	$800d <malloc+0x147>
    8007: 85 18        	sta	$18                     ; 0x2018 <main+0x1aae>
    8009: c0 08        	cpy	#$8
    800b: 80 04        	bra	$8011 <malloc+0x14b>
    800d: 85 18        	sta	$18                     ; 0x2018 <main+0x1aae>
    800f: c9 00        	cmp	#$0
    8011: a6 76        	ldx	$76                     ; 0x2076 <main+0x1b0c>
    8013: 86 14        	stx	$14                     ; 0x2014 <main+0x1aaa>
    8015: a6 75        	ldx	$75                     ; 0x2075 <main+0x1b0b>
    8017: 86 15        	stx	$15                     ; 0x2015 <main+0x1aab>
    8019: a5 17        	lda	$17                     ; 0x2017 <main+0x1aad>
    801b: 90 42        	bcc	$805f <malloc+0x199>
    801d: 18           	clc
    801e: a5 72        	lda	$72                     ; 0x2072 <main+0x1b08>
    8020: 85 72        	sta	$72                     ; 0x2072 <main+0x1b08>
    8022: 65 12        	adc	$12                     ; 0x2012 <main+0x1aa8>
    8024: 85 12        	sta	$12                     ; 0x2012 <main+0x1aa8>
    8026: a6 71        	ldx	$71                     ; 0x2071 <main+0x1b07>
    8028: 86 71        	stx	$71                     ; 0x2071 <main+0x1b07>
    802a: a5 71        	lda	$71                     ; 0x2071 <main+0x1b07>
    802c: 65 13        	adc	$13                     ; 0x2013 <main+0x1aa9>
    802e: 85 13        	sta	$13                     ; 0x2013 <main+0x1aa9>
    8030: a6 18        	ldx	$18                     ; 0x2018 <main+0x1aae>
    8032: 98           	tya
    8033: 20 20 03     	jsr	$320 <_ZN12_GLOBAL__N_19FreeChunk6insertEPvj>
    8036: a6 73        	ldx	$73                     ; 0x2073 <main+0x1b09>
    8038: 86 12        	stx	$12                     ; 0x2012 <main+0x1aa8>
    803a: a6 74        	ldx	$74                     ; 0x2074 <main+0x1b0a>
    803c: 86 13        	stx	$13                     ; 0x2013 <main+0x1aa9>
    803e: a5 72        	lda	$72                     ; 0x2072 <main+0x1b08>
    8040: 29 fe        	and	#$fe
    8042: 85 14        	sta	$14                     ; 0x2014 <main+0x1aaa>
    8044: a0 01        	ldy	#$1
    8046: 98           	tya
    8047: 32 12        	and	($12)                   ; 0x2012 <main+0x1aa8>
    8049: 05 14        	ora	$14                     ; 0x2014 <main+0x1aaa>
    804b: 92 12        	sta	($12)                   ; 0x2012 <main+0x1aa8>
    804d: a5 71        	lda	$71                     ; 0x2071 <main+0x1b07>
    804f: 91 12        	sta	($12),y                 ; 0x2012 <main+0x1aa8>
    8051: a5 14        	lda	$14                     ; 0x2014 <main+0x1aaa>
    8053: a6 71        	ldx	$71                     ; 0x2071 <main+0x1b07>
    8055: 86 16        	stx	$16                     ; 0x2016 <main+0x1aac>
    8057: a6 76        	ldx	$76                     ; 0x2076 <main+0x1b0c>
    8059: 86 14        	stx	$14                     ; 0x2014 <main+0x1aaa>
    805b: a6 75        	ldx	$75                     ; 0x2075 <main+0x1b0b>
    805d: 86 15        	stx	$15                     ; 0x2015 <main+0x1aab>
    805f: 18           	clc
    8060: 65 12        	adc	$12                     ; 0x2012 <main+0x1aa8>
    8062: a8           	tay
    8063: a5 16        	lda	$16                     ; 0x2016 <main+0x1aac>
    8065: 65 13        	adc	$13                     ; 0x2013 <main+0x1aa9>
    8067: c5 15        	cmp	$15                     ; 0x2015 <main+0x1aab>
    8069: d0 08        	bne	$8073 <malloc+0x1ad>
    806b: c4 14        	cpy	$14                     ; 0x2014 <main+0x1aaa>
    806d: d0 04        	bne	$8073 <malloc+0x1ad>
    806f: 64 6c        	stz	$6c                     ; 0x206c <main+0x1b02>
    8071: 80 14        	bra	$8087 <malloc+0x1c1>
    8073: 84 14        	sty	$14                     ; 0x2014 <main+0x1aaa>
    8075: 85 15        	sta	$15                     ; 0x2015 <main+0x1aab>
    8077: a0 01        	ldy	#$1
    8079: b1 14        	lda	($14),y                 ; 0x2014 <main+0x1aaa>
    807b: 85 16        	sta	$16                     ; 0x2016 <main+0x1aac>
    807d: a9 fe        	lda	#$fe
    807f: 32 14        	and	($14)                   ; 0x2014 <main+0x1aaa>
    8081: 92 14        	sta	($14)                   ; 0x2014 <main+0x1aaa>
    8083: a5 16        	lda	$16                     ; 0x2016 <main+0x1aac>
    8085: 91 14        	sta	($14),y                 ; 0x2014 <main+0x1aaa>
    8087: a5 12        	lda	$12                     ; 0x2012 <main+0x1aa8>
    8089: 18           	clc
    808a: 69 02        	adc	#$2
    808c: 85 12        	sta	$12                     ; 0x2012 <main+0x1aa8>
    808e: a5 13        	lda	$13                     ; 0x2013 <main+0x1aa9>
    8090: 69 00        	adc	#$0
    8092: 85 13        	sta	$13                     ; 0x2013 <main+0x1aa9>
    8094: 60           	rts

00008095 <free>:
    8095: a6 12        	ldx	$12                     ; 0x2012 <main+0x1aa8>
    8097: 86 14        	stx	$14                     ; 0x2014 <main+0x1aaa>
    8099: a6 13        	ldx	$13                     ; 0x2013 <main+0x1aa9>
    809b: 86 15        	stx	$15                     ; 0x2015 <main+0x1aab>
    809d: a2 00        	ldx	#$0
    809f: 86 12        	stx	$12                     ; 0x2012 <main+0x1aa8>
    80a1: a2 00        	ldx	#$0
    80a3: 86 13        	stx	$13                     ; 0x2013 <main+0x1aa9>
    80a5: a6 15        	ldx	$15                     ; 0x2015 <main+0x1aab>
    80a7: e4 13        	cpx	$13                     ; 0x2013 <main+0x1aa9>
    80a9: d0 09        	bne	$80b4 <free+0x1f>
    80ab: a6 14        	ldx	$14                     ; 0x2014 <main+0x1aaa>
    80ad: e4 12        	cpx	$12                     ; 0x2012 <main+0x1aa8>
    80af: d0 03        	bne	$80b4 <free+0x1f>
    80b1: 4c 16 82     	jmp	$8216 <free+0x181>
    80b4: a2 00        	ldx	#$0
    80b6: a0 10        	ldy	#$10
    80b8: a9 94        	lda	#$94
    80ba: 86 12        	stx	$12                     ; 0x2012 <main+0x1aa8>
    80bc: 84 13        	sty	$13                     ; 0x2013 <main+0x1aa9>
    80be: 18           	clc
    80bf: 65 12        	adc	$12                     ; 0x2012 <main+0x1aa8>
    80c1: 85 18        	sta	$18                     ; 0x2018 <main+0x1aae>
    80c3: a9 a5        	lda	#$a5
    80c5: 65 13        	adc	$13                     ; 0x2013 <main+0x1aa9>
    80c7: 85 19        	sta	$19                     ; 0x2019 <main+0x1aaf>
    80c9: a5 14        	lda	$14                     ; 0x2014 <main+0x1aaa>
    80cb: 18           	clc
    80cc: 69 fe        	adc	#$fe
    80ce: 85 12        	sta	$12                     ; 0x2012 <main+0x1aa8>
    80d0: a5 15        	lda	$15                     ; 0x2015 <main+0x1aab>
    80d2: 69 ff        	adc	#$ff
    80d4: a6 12        	ldx	$12                     ; 0x2012 <main+0x1aa8>
    80d6: 86 71        	stx	$71                     ; 0x2071 <main+0x1b07>
    80d8: aa           	tax
    80d9: 85 72        	sta	$72                     ; 0x2072 <main+0x1b08>
    80db: b2 71        	lda	($71)                   ; 0x2071 <main+0x1b07>
    80dd: 85 1a        	sta	$1a                     ; 0x201a <main+0x1ab0>
    80df: a0 01        	ldy	#$1
    80e1: b1 71        	lda	($71),y                 ; 0x2071 <main+0x1b07>
    80e3: 85 16        	sta	$16                     ; 0x2016 <main+0x1aac>
    80e5: a9 fe        	lda	#$fe
    80e7: 32 71        	and	($71)                   ; 0x2071 <main+0x1b07>
    80e9: 85 17        	sta	$17                     ; 0x2017 <main+0x1aad>
    80eb: a4 12        	ldy	$12                     ; 0x2012 <main+0x1aa8>
    80ed: 84 1b        	sty	$1b                     ; 0x201b <main+0x1ab1>
    80ef: a5 12        	lda	$12                     ; 0x2012 <main+0x1aa8>
    80f1: 18           	clc
    80f2: 65 17        	adc	$17                     ; 0x2017 <main+0x1aad>
    80f4: 85 12        	sta	$12                     ; 0x2012 <main+0x1aa8>
    80f6: 8a           	txa
    80f7: 86 1c        	stx	$1c                     ; 0x201c <main+0x1ab2>
    80f9: 65 16        	adc	$16                     ; 0x2016 <main+0x1aac>
    80fb: c5 19        	cmp	$19                     ; 0x2019 <main+0x1aaf>
    80fd: d0 10        	bne	$810f <free+0x7a>
    80ff: a6 12        	ldx	$12                     ; 0x2012 <main+0x1aa8>
    8101: e4 18        	cpx	$18                     ; 0x2018 <main+0x1aae>
    8103: d0 0a        	bne	$810f <free+0x7a>
    8105: a2 00        	ldx	#$0
    8107: 86 12        	stx	$12                     ; 0x2012 <main+0x1aa8>
    8109: a2 00        	ldx	#$0
    810b: 86 13        	stx	$13                     ; 0x2013 <main+0x1aa9>
    810d: 80 02        	bra	$8111 <free+0x7c>
    810f: 85 13        	sta	$13                     ; 0x2013 <main+0x1aa9>
    8111: a5 1a        	lda	$1a                     ; 0x201a <main+0x1ab0>
    8113: 29 01        	and	#$1
    8115: d0 03        	bne	$811a <free+0x85>
    8117: 4c 95 81     	jmp	$8195 <free+0x100>
    811a: a5 14        	lda	$14                     ; 0x2014 <main+0x1aaa>
    811c: 18           	clc
    811d: 69 fc        	adc	#$fc
    811f: 85 14        	sta	$14                     ; 0x2014 <main+0x1aaa>
    8121: a5 15        	lda	$15                     ; 0x2015 <main+0x1aab>
    8123: 69 ff        	adc	#$ff
    8125: 85 15        	sta	$15                     ; 0x2015 <main+0x1aab>
    8127: a0 01        	ldy	#$1
    8129: 38           	sec
    812a: a9 00        	lda	#$0
    812c: f2 14        	sbc	($14)                   ; 0x2014 <main+0x1aaa>
    812e: 85 1a        	sta	$1a                     ; 0x201a <main+0x1ab0>
    8130: a9 00        	lda	#$0
    8132: f1 14        	sbc	($14),y                 ; 0x2014 <main+0x1aaa>
    8134: 85 14        	sta	$14                     ; 0x2014 <main+0x1aaa>
    8136: a5 1b        	lda	$1b                     ; 0x201b <main+0x1ab1>
    8138: 18           	clc
    8139: 65 1a        	adc	$1a                     ; 0x201a <main+0x1ab0>
    813b: 85 71        	sta	$71                     ; 0x2071 <main+0x1b07>
    813d: a5 1c        	lda	$1c                     ; 0x201c <main+0x1ab2>
    813f: 65 14        	adc	$14                     ; 0x2014 <main+0x1aaa>
    8141: 85 72        	sta	$72                     ; 0x2072 <main+0x1b08>
    8143: b1 71        	lda	($71),y                 ; 0x2071 <main+0x1b07>
    8145: 85 79        	sta	$79                     ; 0x2079 <main+0x1b0f>
    8147: a9 fe        	lda	#$fe
    8149: 32 71        	and	($71)                   ; 0x2071 <main+0x1b07>
    814b: 85 7a        	sta	$7a                     ; 0x207a <main+0x1b10>
    814d: a6 12        	ldx	$12                     ; 0x2012 <main+0x1aa8>
    814f: 86 73        	stx	$73                     ; 0x2073 <main+0x1b09>
    8151: a6 13        	ldx	$13                     ; 0x2013 <main+0x1aa9>
    8153: 86 74        	stx	$74                     ; 0x2074 <main+0x1b0a>
    8155: a6 71        	ldx	$71                     ; 0x2071 <main+0x1b07>
    8157: 86 12        	stx	$12                     ; 0x2012 <main+0x1aa8>
    8159: a6 72        	ldx	$72                     ; 0x2072 <main+0x1b08>
    815b: 86 13        	stx	$13                     ; 0x2013 <main+0x1aa9>
    815d: a6 16        	ldx	$16                     ; 0x2016 <main+0x1aac>
    815f: 86 75        	stx	$75                     ; 0x2075 <main+0x1b0b>
    8161: a6 17        	ldx	$17                     ; 0x2017 <main+0x1aad>
    8163: 86 76        	stx	$76                     ; 0x2076 <main+0x1b0c>
    8165: a6 18        	ldx	$18                     ; 0x2018 <main+0x1aae>
    8167: 86 77        	stx	$77                     ; 0x2077 <main+0x1b0d>
    8169: a6 19        	ldx	$19                     ; 0x2019 <main+0x1aaf>
    816b: 86 78        	stx	$78                     ; 0x2078 <main+0x1b0e>
    816d: 20 56 04     	jsr	$456 <_ZN12_GLOBAL__N_19FreeChunk6removeEv>
    8170: a6 78        	ldx	$78                     ; 0x2078 <main+0x1b0e>
    8172: 86 19        	stx	$19                     ; 0x2019 <main+0x1aaf>
    8174: a6 77        	ldx	$77                     ; 0x2077 <main+0x1b0d>
    8176: 86 18        	stx	$18                     ; 0x2018 <main+0x1aae>
    8178: a6 73        	ldx	$73                     ; 0x2073 <main+0x1b09>
    817a: 86 12        	stx	$12                     ; 0x2012 <main+0x1aa8>
    817c: a6 74        	ldx	$74                     ; 0x2074 <main+0x1b0a>
    817e: 86 13        	stx	$13                     ; 0x2013 <main+0x1aa9>
    8180: 18           	clc
    8181: a5 7a        	lda	$7a                     ; 0x207a <main+0x1b10>
    8183: a6 76        	ldx	$76                     ; 0x2076 <main+0x1b0c>
    8185: 86 14        	stx	$14                     ; 0x2014 <main+0x1aaa>
    8187: 65 14        	adc	$14                     ; 0x2014 <main+0x1aaa>
    8189: 85 17        	sta	$17                     ; 0x2017 <main+0x1aad>
    818b: a5 79        	lda	$79                     ; 0x2079 <main+0x1b0f>
    818d: a6 75        	ldx	$75                     ; 0x2075 <main+0x1b0b>
    818f: 86 14        	stx	$14                     ; 0x2014 <main+0x1aaa>
    8191: 65 14        	adc	$14                     ; 0x2014 <main+0x1aaa>
    8193: 85 16        	sta	$16                     ; 0x2016 <main+0x1aac>
    8195: a2 00        	ldx	#$0
    8197: 86 14        	stx	$14                     ; 0x2014 <main+0x1aaa>
    8199: a2 00        	ldx	#$0
    819b: 86 15        	stx	$15                     ; 0x2015 <main+0x1aab>
    819d: a6 13        	ldx	$13                     ; 0x2013 <main+0x1aa9>
    819f: e4 15        	cpx	$15                     ; 0x2015 <main+0x1aab>
    81a1: d0 0d        	bne	$81b0 <free+0x11b>
    81a3: a6 12        	ldx	$12                     ; 0x2012 <main+0x1aa8>
    81a5: e4 14        	cpx	$14                     ; 0x2014 <main+0x1aaa>
    81a7: d0 07        	bne	$81b0 <free+0x11b>
    81a9: a2 01        	ldx	#$1
    81ab: 86 6c        	stx	$6c                     ; 0x206c <main+0x1b02>
    81ad: 4c 07 82     	jmp	$8207 <free+0x172>
    81b0: a0 01        	ldy	#$1
    81b2: b1 12        	lda	($12),y                 ; 0x2012 <main+0x1aa8>
    81b4: a8           	tay
    81b5: a9 fe        	lda	#$fe
    81b7: 32 12        	and	($12)                   ; 0x2012 <main+0x1aa8>
    81b9: 18           	clc
    81ba: 85 77        	sta	$77                     ; 0x2077 <main+0x1b0d>
    81bc: 65 12        	adc	$12                     ; 0x2012 <main+0x1aa8>
    81be: 85 14        	sta	$14                     ; 0x2014 <main+0x1aaa>
    81c0: 98           	tya
    81c1: 85 73        	sta	$73                     ; 0x2073 <main+0x1b09>
    81c3: 65 13        	adc	$13                     ; 0x2013 <main+0x1aa9>
    81c5: c5 19        	cmp	$19                     ; 0x2019 <main+0x1aaf>
    81c7: d0 0e        	bne	$81d7 <free+0x142>
    81c9: a6 14        	ldx	$14                     ; 0x2014 <main+0x1aaa>
    81cb: e4 18        	cpx	$18                     ; 0x2018 <main+0x1aae>
    81cd: d0 08        	bne	$81d7 <free+0x142>
    81cf: a9 01        	lda	#$1
    81d1: 64 14        	stz	$14                     ; 0x2014 <main+0x1aaa>
    81d3: 25 6c        	and	$6c                     ; 0x206c <main+0x1b02>
    81d5: 80 08        	bra	$81df <free+0x14a>
    81d7: 85 15        	sta	$15                     ; 0x2015 <main+0x1aab>
    81d9: a9 01        	lda	#$1
    81db: 32 14        	and	($14)                   ; 0x2014 <main+0x1aaa>
    81dd: 64 14        	stz	$14                     ; 0x2014 <main+0x1aaa>
    81df: a6 14        	ldx	$14                     ; 0x2014 <main+0x1aaa>
    81e1: d0 03        	bne	$81e6 <free+0x151>
    81e3: aa           	tax
    81e4: f0 31        	beq	$8217 <free+0x182>
    81e6: a6 16        	ldx	$16                     ; 0x2016 <main+0x1aac>
    81e8: 86 75        	stx	$75                     ; 0x2075 <main+0x1b0b>
    81ea: a6 17        	ldx	$17                     ; 0x2017 <main+0x1aad>
    81ec: 86 76        	stx	$76                     ; 0x2076 <main+0x1b0c>
    81ee: 20 56 04     	jsr	$456 <_ZN12_GLOBAL__N_19FreeChunk6removeEv>
    81f1: 18           	clc
    81f2: a6 77        	ldx	$77                     ; 0x2077 <main+0x1b0d>
    81f4: 8a           	txa
    81f5: a6 76        	ldx	$76                     ; 0x2076 <main+0x1b0c>
    81f7: 86 12        	stx	$12                     ; 0x2012 <main+0x1aa8>
    81f9: 65 12        	adc	$12                     ; 0x2012 <main+0x1aa8>
    81fb: 85 17        	sta	$17                     ; 0x2017 <main+0x1aad>
    81fd: a5 73        	lda	$73                     ; 0x2073 <main+0x1b09>
    81ff: a6 75        	ldx	$75                     ; 0x2075 <main+0x1b0b>
    8201: 86 12        	stx	$12                     ; 0x2012 <main+0x1aa8>
    8203: 65 12        	adc	$12                     ; 0x2012 <main+0x1aa8>
    8205: 85 16        	sta	$16                     ; 0x2016 <main+0x1aac>
    8207: a6 71        	ldx	$71                     ; 0x2071 <main+0x1b07>
    8209: 86 12        	stx	$12                     ; 0x2012 <main+0x1aa8>
    820b: a6 72        	ldx	$72                     ; 0x2072 <main+0x1b08>
    820d: 86 13        	stx	$13                     ; 0x2013 <main+0x1aa9>
    820f: a6 16        	ldx	$16                     ; 0x2016 <main+0x1aac>
    8211: a5 17        	lda	$17                     ; 0x2017 <main+0x1aad>
    8213: 20 20 03     	jsr	$320 <_ZN12_GLOBAL__N_19FreeChunk6insertEPvj>
    8216: 60           	rts
    8217: b2 12        	lda	($12)                   ; 0x2012 <main+0x1aa8>
    8219: 09 01        	ora	#$1
    821b: 92 12        	sta	($12)                   ; 0x2012 <main+0x1aa8>
    821d: a0 01        	ldy	#$1
    821f: a5 73        	lda	$73                     ; 0x2073 <main+0x1b09>
    8221: 91 12        	sta	($12),y                 ; 0x2012 <main+0x1aa8>
    8223: 80 e2        	bra	$8207 <free+0x172>

00008225 <memcpy>:
    8225: a8           	tay
    8226: 8a           	txa
    8227: d0 03        	bne	$822c <memcpy+0x7>
    8229: 98           	tya
    822a: f0 24        	beq	$8250 <memcpy+0x2b>
    822c: a5 12        	lda	$12                     ; 0x2012 <main+0x1aa8>
    822e: 85 16        	sta	$16                     ; 0x2016 <main+0x1aac>
    8230: a5 13        	lda	$13                     ; 0x2013 <main+0x1aa9>
    8232: 85 17        	sta	$17                     ; 0x2017 <main+0x1aad>
    8234: b2 14        	lda	($14)                   ; 0x2014 <main+0x1aaa>
    8236: 92 16        	sta	($16)                   ; 0x2016 <main+0x1aac>
    8238: e6 16        	inc	$16                     ; 0x2016 <main+0x1aac>
    823a: d0 02        	bne	$823e <memcpy+0x19>
    823c: e6 17        	inc	$17                     ; 0x2017 <main+0x1aad>
    823e: e6 14        	inc	$14                     ; 0x2014 <main+0x1aaa>
    8240: d0 02        	bne	$8244 <memcpy+0x1f>
    8242: e6 15        	inc	$15                     ; 0x2015 <main+0x1aab>
    8244: 88           	dey
    8245: c0 ff        	cpy	#$ff
    8247: d0 01        	bne	$824a <memcpy+0x25>
    8249: ca           	dex
    824a: 8a           	txa
    824b: d0 e7        	bne	$8234 <memcpy+0xf>
    824d: 98           	tya
    824e: d0 e4        	bne	$8234 <memcpy+0xf>
    8250: 60           	rts

00008251 <__memset>:
    8251: a4 14        	ldy	$14                     ; 0x2014 <main+0x1aaa>
    8253: d0 04        	bne	$8259 <__memset+0x8>
    8255: e0 00        	cpx	#$0
    8257: f0 17        	beq	$8270 <__memset+0x1f>
    8259: 92 12        	sta	($12)                   ; 0x2012 <main+0x1aa8>
    825b: e6 12        	inc	$12                     ; 0x2012 <main+0x1aa8>
    825d: d0 02        	bne	$8261 <__memset+0x10>
    825f: e6 13        	inc	$13                     ; 0x2013 <main+0x1aa9>
    8261: ca           	dex
    8262: e0 ff        	cpx	#$ff
    8264: d0 02        	bne	$8268 <__memset+0x17>
    8266: c6 14        	dec	$14                     ; 0x2014 <main+0x1aaa>
    8268: a4 14        	ldy	$14                     ; 0x2014 <main+0x1aaa>
    826a: d0 ed        	bne	$8259 <__memset+0x8>
    826c: e0 00        	cpx	#$0
    826e: d0 e9        	bne	$8259 <__memset+0x8>
    8270: 60           	rts

00008271 <__ashlqi3>:
    8271: e0 00        	cpx	#$0
    8273: f0 06        	beq	$827b <__ashlqi3+0xa>
    8275: ca           	dex
    8276: 0a           	asl
    8277: e0 00        	cpx	#$0
    8279: d0 fa        	bne	$8275 <__ashlqi3+0x4>
    827b: 60           	rts

0000827c <__mulhi3>:
    827c: a4 13        	ldy	$13                     ; 0x2013 <main+0x1aa9>
    827e: d0 04        	bne	$8284 <__mulhi3+0x8>
    8280: a4 12        	ldy	$12                     ; 0x2012 <main+0x1aa8>
    8282: f0 25        	beq	$82a9 <__mulhi3+0x2d>
    8284: 85 14        	sta	$14                     ; 0x2014 <main+0x1aaa>
    8286: 86 15        	stx	$15                     ; 0x2015 <main+0x1aab>
    8288: a0 00        	ldy	#$0
    828a: 98           	tya
    828b: 46 13        	lsr	$13                     ; 0x2013 <main+0x1aa9>
    828d: 66 12        	ror	$12                     ; 0x2012 <main+0x1aa8>
    828f: 90 09        	bcc	$829a <__mulhi3+0x1e>
    8291: aa           	tax
    8292: 98           	tya
    8293: 18           	clc
    8294: 65 14        	adc	$14                     ; 0x2014 <main+0x1aaa>
    8296: a8           	tay
    8297: 8a           	txa
    8298: 65 15        	adc	$15                     ; 0x2015 <main+0x1aab>
    829a: 06 14        	asl	$14                     ; 0x2014 <main+0x1aaa>
    829c: 26 15        	rol	$15                     ; 0x2015 <main+0x1aab>
    829e: a6 13        	ldx	$13                     ; 0x2013 <main+0x1aa9>
    82a0: d0 e9        	bne	$828b <__mulhi3+0xf>
    82a2: a6 12        	ldx	$12                     ; 0x2012 <main+0x1aa8>
    82a4: d0 e5        	bne	$828b <__mulhi3+0xf>
    82a6: aa           	tax
    82a7: 98           	tya
    82a8: 60           	rts
    82a9: a0 00        	ldy	#$0
    82ab: 98           	tya
    82ac: 80 f8        	bra	$82a6 <__mulhi3+0x2a>

000082ae <__mulsi3>:
    82ae: a4 17        	ldy	$17                     ; 0x2017 <main+0x1aad>
    82b0: d0 0f        	bne	$82c1 <__mulsi3+0x13>
    82b2: a4 16        	ldy	$16                     ; 0x2016 <main+0x1aac>
    82b4: d0 0b        	bne	$82c1 <__mulsi3+0x13>
    82b6: a4 15        	ldy	$15                     ; 0x2015 <main+0x1aab>
    82b8: d0 07        	bne	$82c1 <__mulsi3+0x13>
    82ba: a4 14        	ldy	$14                     ; 0x2014 <main+0x1aaa>
    82bc: d0 03        	bne	$82c1 <__mulsi3+0x13>
    82be: 4c 15 83     	jmp	$8315 <__mulsi3+0x67>
    82c1: 85 18        	sta	$18                     ; 0x2018 <main+0x1aae>
    82c3: 86 19        	stx	$19                     ; 0x2019 <main+0x1aaf>
    82c5: a0 00        	ldy	#$0
    82c7: a2 00        	ldx	#$0
    82c9: 64 1a        	stz	$1a                     ; 0x201a <main+0x1ab0>
    82cb: 98           	tya
    82cc: 46 17        	lsr	$17                     ; 0x2017 <main+0x1aad>
    82ce: 66 16        	ror	$16                     ; 0x2016 <main+0x1aac>
    82d0: 66 15        	ror	$15                     ; 0x2015 <main+0x1aab>
    82d2: 66 14        	ror	$14                     ; 0x2014 <main+0x1aaa>
    82d4: 90 15        	bcc	$82eb <__mulsi3+0x3d>
    82d6: 85 1b        	sta	$1b                     ; 0x201b <main+0x1ab1>
    82d8: 98           	tya
    82d9: 18           	clc
    82da: 65 18        	adc	$18                     ; 0x2018 <main+0x1aae>
    82dc: a8           	tay
    82dd: 8a           	txa
    82de: 65 19        	adc	$19                     ; 0x2019 <main+0x1aaf>
    82e0: aa           	tax
    82e1: a5 1a        	lda	$1a                     ; 0x201a <main+0x1ab0>
    82e3: 65 12        	adc	$12                     ; 0x2012 <main+0x1aa8>
    82e5: 85 1a        	sta	$1a                     ; 0x201a <main+0x1ab0>
    82e7: a5 1b        	lda	$1b                     ; 0x201b <main+0x1ab1>
    82e9: 65 13        	adc	$13                     ; 0x2013 <main+0x1aa9>
    82eb: 06 18        	asl	$18                     ; 0x2018 <main+0x1aae>
    82ed: 26 19        	rol	$19                     ; 0x2019 <main+0x1aaf>
    82ef: 26 12        	rol	$12                     ; 0x2012 <main+0x1aa8>
    82f1: 26 13        	rol	$13                     ; 0x2013 <main+0x1aa9>
    82f3: e6 17        	inc	$17                     ; 0x2017 <main+0x1aad>
    82f5: c6 17        	dec	$17                     ; 0x2017 <main+0x1aad>
    82f7: d0 d3        	bne	$82cc <__mulsi3+0x1e>
    82f9: e6 16        	inc	$16                     ; 0x2016 <main+0x1aac>
    82fb: c6 16        	dec	$16                     ; 0x2016 <main+0x1aac>
    82fd: d0 cd        	bne	$82cc <__mulsi3+0x1e>
    82ff: e6 15        	inc	$15                     ; 0x2015 <main+0x1aab>
    8301: c6 15        	dec	$15                     ; 0x2015 <main+0x1aab>
    8303: d0 c7        	bne	$82cc <__mulsi3+0x1e>
    8305: e6 14        	inc	$14                     ; 0x2014 <main+0x1aaa>
    8307: c6 14        	dec	$14                     ; 0x2014 <main+0x1aaa>
    8309: d0 c1        	bne	$82cc <__mulsi3+0x1e>
    830b: 5a           	phy
    830c: a4 1a        	ldy	$1a                     ; 0x201a <main+0x1ab0>
    830e: 84 12        	sty	$12                     ; 0x2012 <main+0x1aa8>
    8310: 7a           	ply
    8311: 85 13        	sta	$13                     ; 0x2013 <main+0x1aa9>
    8313: 98           	tya
    8314: 60           	rts
    8315: a0 00        	ldy	#$0
    8317: a2 00        	ldx	#$0
    8319: 64 1a        	stz	$1a                     ; 0x201a <main+0x1ab0>
    831b: 98           	tya
    831c: 80 ed        	bra	$830b <__mulsi3+0x5d>

0000831e <__udivsi3>:
    831e: 64 18        	stz	$18                     ; 0x2018 <main+0x1aae>
    8320: a4 17        	ldy	$17                     ; 0x2017 <main+0x1aad>
    8322: d0 0c        	bne	$8330 <__udivsi3+0x12>
    8324: a4 16        	ldy	$16                     ; 0x2016 <main+0x1aac>
    8326: d0 08        	bne	$8330 <__udivsi3+0x12>
    8328: a4 15        	ldy	$15                     ; 0x2015 <main+0x1aab>
    832a: d0 04        	bne	$8330 <__udivsi3+0x12>
    832c: a4 14        	ldy	$14                     ; 0x2014 <main+0x1aaa>
    832e: f0 27        	beq	$8357 <__udivsi3+0x39>
    8330: 86 1e        	stx	$1e                     ; 0x201e <main+0x1ab4>
    8332: a6 12        	ldx	$12                     ; 0x2012 <main+0x1aa8>
    8334: 86 1f        	stx	$1f                     ; 0x201f <main+0x1ab5>
    8336: a6 13        	ldx	$13                     ; 0x2013 <main+0x1aa9>
    8338: 86 22        	stx	$22                     ; 0x2022 <main+0x1ab8>
    833a: e4 17        	cpx	$17                     ; 0x2017 <main+0x1aad>
    833c: d0 15        	bne	$8353 <__udivsi3+0x35>
    833e: a6 12        	ldx	$12                     ; 0x2012 <main+0x1aa8>
    8340: e4 16        	cpx	$16                     ; 0x2016 <main+0x1aac>
    8342: d0 1a        	bne	$835e <__udivsi3+0x40>
    8344: a6 1e        	ldx	$1e                     ; 0x201e <main+0x1ab4>
    8346: e4 15        	cpx	$15                     ; 0x2015 <main+0x1aab>
    8348: f0 03        	beq	$834d <__udivsi3+0x2f>
    834a: 4c 83 84     	jmp	$8483 <__udivsi3+0x165>
    834d: c5 14        	cmp	$14                     ; 0x2014 <main+0x1aaa>
    834f: 90 06        	bcc	$8357 <__udivsi3+0x39>
    8351: 80 0f        	bra	$8362 <__udivsi3+0x44>
    8353: e4 17        	cpx	$17                     ; 0x2017 <main+0x1aad>
    8355: b0 0b        	bcs	$8362 <__udivsi3+0x44>
    8357: a2 00        	ldx	#$0
    8359: 86 78        	stx	$78                     ; 0x2078 <main+0x1b0e>
    835b: 4c c8 83     	jmp	$83c8 <__udivsi3+0xaa>
    835e: e4 16        	cpx	$16                     ; 0x2016 <main+0x1aac>
    8360: 90 f5        	bcc	$8357 <__udivsi3+0x39>
    8362: a2 01        	ldx	#$1
    8364: 86 78        	stx	$78                     ; 0x2078 <main+0x1b0e>
    8366: a6 17        	ldx	$17                     ; 0x2017 <main+0x1aad>
    8368: 10 03        	bpl	$836d <__udivsi3+0x4f>
    836a: 4c c8 83     	jmp	$83c8 <__udivsi3+0xaa>
    836d: 85 1d        	sta	$1d                     ; 0x201d <main+0x1ab3>
    836f: a5 1e        	lda	$1e                     ; 0x201e <main+0x1ab4>
    8371: a2 00        	ldx	#$0
    8373: a4 14        	ldy	$14                     ; 0x2014 <main+0x1aaa>
    8375: 84 19        	sty	$19                     ; 0x2019 <main+0x1aaf>
    8377: a4 15        	ldy	$15                     ; 0x2015 <main+0x1aab>
    8379: 84 1a        	sty	$1a                     ; 0x201a <main+0x1ab0>
    837b: a4 16        	ldy	$16                     ; 0x2016 <main+0x1aac>
    837d: 84 1b        	sty	$1b                     ; 0x201b <main+0x1ab1>
    837f: a4 17        	ldy	$17                     ; 0x2017 <main+0x1aad>
    8381: 84 1c        	sty	$1c                     ; 0x201c <main+0x1ab2>
    8383: 06 19        	asl	$19                     ; 0x2019 <main+0x1aaf>
    8385: 26 1a        	rol	$1a                     ; 0x201a <main+0x1ab0>
    8387: 26 1b        	rol	$1b                     ; 0x201b <main+0x1ab1>
    8389: 26 1c        	rol	$1c                     ; 0x201c <main+0x1ab2>
    838b: a4 22        	ldy	$22                     ; 0x2022 <main+0x1ab8>
    838d: c4 1c        	cpy	$1c                     ; 0x201c <main+0x1ab2>
    838f: d0 12        	bne	$83a3 <__udivsi3+0x85>
    8391: a4 12        	ldy	$12                     ; 0x2012 <main+0x1aa8>
    8393: c4 1b        	cpy	$1b                     ; 0x201b <main+0x1ab1>
    8395: d0 12        	bne	$83a9 <__udivsi3+0x8b>
    8397: c5 1a        	cmp	$1a                     ; 0x201a <main+0x1ab0>
    8399: d0 14        	bne	$83af <__udivsi3+0x91>
    839b: a4 1d        	ldy	$1d                     ; 0x201d <main+0x1ab3>
    839d: c4 19        	cpy	$19                     ; 0x2019 <main+0x1aaf>
    839f: 90 30        	bcc	$83d1 <__udivsi3+0xb3>
    83a1: 80 10        	bra	$83b3 <__udivsi3+0x95>
    83a3: c4 1c        	cpy	$1c                     ; 0x201c <main+0x1ab2>
    83a5: 90 2a        	bcc	$83d1 <__udivsi3+0xb3>
    83a7: 80 0a        	bra	$83b3 <__udivsi3+0x95>
    83a9: c4 1b        	cpy	$1b                     ; 0x201b <main+0x1ab1>
    83ab: 90 24        	bcc	$83d1 <__udivsi3+0xb3>
    83ad: 80 04        	bra	$83b3 <__udivsi3+0x95>
    83af: c5 1a        	cmp	$1a                     ; 0x201a <main+0x1ab0>
    83b1: 90 1e        	bcc	$83d1 <__udivsi3+0xb3>
    83b3: e8           	inx
    83b4: a4 19        	ldy	$19                     ; 0x2019 <main+0x1aaf>
    83b6: 84 14        	sty	$14                     ; 0x2014 <main+0x1aaa>
    83b8: a4 1a        	ldy	$1a                     ; 0x201a <main+0x1ab0>
    83ba: 84 15        	sty	$15                     ; 0x2015 <main+0x1aab>
    83bc: a4 1b        	ldy	$1b                     ; 0x201b <main+0x1ab1>
    83be: 84 16        	sty	$16                     ; 0x2016 <main+0x1aac>
    83c0: a4 1c        	ldy	$1c                     ; 0x201c <main+0x1ab2>
    83c2: 84 17        	sty	$17                     ; 0x2017 <main+0x1aad>
    83c4: 10 bd        	bpl	$8383 <__udivsi3+0x65>
    83c6: 80 19        	bra	$83e1 <__udivsi3+0xc3>
    83c8: 64 12        	stz	$12                     ; 0x2012 <main+0x1aa8>
    83ca: 64 13        	stz	$13                     ; 0x2013 <main+0x1aa9>
    83cc: a6 18        	ldx	$18                     ; 0x2018 <main+0x1aae>
    83ce: a5 78        	lda	$78                     ; 0x2078 <main+0x1b0e>
    83d0: 60           	rts
    83d1: a4 14        	ldy	$14                     ; 0x2014 <main+0x1aaa>
    83d3: 84 19        	sty	$19                     ; 0x2019 <main+0x1aaf>
    83d5: a4 15        	ldy	$15                     ; 0x2015 <main+0x1aab>
    83d7: 84 1a        	sty	$1a                     ; 0x201a <main+0x1ab0>
    83d9: a4 16        	ldy	$16                     ; 0x2016 <main+0x1aac>
    83db: 84 1b        	sty	$1b                     ; 0x201b <main+0x1ab1>
    83dd: a4 17        	ldy	$17                     ; 0x2017 <main+0x1aad>
    83df: 84 1c        	sty	$1c                     ; 0x201c <main+0x1ab2>
    83e1: 64 12        	stz	$12                     ; 0x2012 <main+0x1aa8>
    83e3: 64 13        	stz	$13                     ; 0x2013 <main+0x1aa9>
    83e5: 8a           	txa
    83e6: f0 e4        	beq	$83cc <__udivsi3+0xae>
    83e8: 38           	sec
    83e9: a5 1d        	lda	$1d                     ; 0x201d <main+0x1ab3>
    83eb: e5 19        	sbc	$19                     ; 0x2019 <main+0x1aaf>
    83ed: 85 14        	sta	$14                     ; 0x2014 <main+0x1aaa>
    83ef: a5 1e        	lda	$1e                     ; 0x201e <main+0x1ab4>
    83f1: e5 1a        	sbc	$1a                     ; 0x201a <main+0x1ab0>
    83f3: 85 17        	sta	$17                     ; 0x2017 <main+0x1aad>
    83f5: a5 1f        	lda	$1f                     ; 0x201f <main+0x1ab5>
    83f7: e5 1b        	sbc	$1b                     ; 0x201b <main+0x1ab1>
    83f9: 85 15        	sta	$15                     ; 0x2015 <main+0x1aab>
    83fb: a5 22        	lda	$22                     ; 0x2022 <main+0x1ab8>
    83fd: e5 1c        	sbc	$1c                     ; 0x201c <main+0x1ab2>
    83ff: a0 01        	ldy	#$1
    8401: 84 78        	sty	$78                     ; 0x2078 <main+0x1b0e>
    8403: 64 18        	stz	$18                     ; 0x2018 <main+0x1aae>
    8405: 46 1c        	lsr	$1c                     ; 0x201c <main+0x1ab2>
    8407: 66 1b        	ror	$1b                     ; 0x201b <main+0x1ab1>
    8409: 66 1a        	ror	$1a                     ; 0x201a <main+0x1ab0>
    840b: 66 19        	ror	$19                     ; 0x2019 <main+0x1aaf>
    840d: a4 78        	ldy	$78                     ; 0x2078 <main+0x1b0e>
    840f: 84 16        	sty	$16                     ; 0x2016 <main+0x1aac>
    8411: 06 16        	asl	$16                     ; 0x2016 <main+0x1aac>
    8413: a0 01        	ldy	#$1
    8415: b0 02        	bcs	$8419 <__udivsi3+0xfb>
    8417: a0 00        	ldy	#$0
    8419: 84 1d        	sty	$1d                     ; 0x201d <main+0x1ab3>
    841b: a4 16        	ldy	$16                     ; 0x2016 <main+0x1aac>
    841d: 84 78        	sty	$78                     ; 0x2078 <main+0x1b0e>
    841f: c5 1c        	cmp	$1c                     ; 0x201c <main+0x1ab2>
    8421: d0 16        	bne	$8439 <__udivsi3+0x11b>
    8423: 85 16        	sta	$16                     ; 0x2016 <main+0x1aac>
    8425: a4 15        	ldy	$15                     ; 0x2015 <main+0x1aab>
    8427: a5 17        	lda	$17                     ; 0x2017 <main+0x1aad>
    8429: c4 1b        	cpy	$1b                     ; 0x201b <main+0x1ab1>
    842b: d0 4a        	bne	$8477 <__udivsi3+0x159>
    842d: c5 1a        	cmp	$1a                     ; 0x201a <main+0x1ab0>
    842f: d0 4c        	bne	$847d <__udivsi3+0x15f>
    8431: a4 14        	ldy	$14                     ; 0x2014 <main+0x1aaa>
    8433: c4 19        	cpy	$19                     ; 0x2019 <main+0x1aaf>
    8435: b0 0a        	bcs	$8441 <__udivsi3+0x123>
    8437: 80 27        	bra	$8460 <__udivsi3+0x142>
    8439: 85 16        	sta	$16                     ; 0x2016 <main+0x1aac>
    843b: c5 1c        	cmp	$1c                     ; 0x201c <main+0x1ab2>
    843d: a5 17        	lda	$17                     ; 0x2017 <main+0x1aad>
    843f: 90 1f        	bcc	$8460 <__udivsi3+0x142>
    8441: a8           	tay
    8442: 38           	sec
    8443: a5 14        	lda	$14                     ; 0x2014 <main+0x1aaa>
    8445: e5 19        	sbc	$19                     ; 0x2019 <main+0x1aaf>
    8447: 85 14        	sta	$14                     ; 0x2014 <main+0x1aaa>
    8449: 98           	tya
    844a: e5 1a        	sbc	$1a                     ; 0x201a <main+0x1ab0>
    844c: 85 17        	sta	$17                     ; 0x2017 <main+0x1aad>
    844e: a5 15        	lda	$15                     ; 0x2015 <main+0x1aab>
    8450: e5 1b        	sbc	$1b                     ; 0x201b <main+0x1ab1>
    8452: 85 15        	sta	$15                     ; 0x2015 <main+0x1aab>
    8454: a5 16        	lda	$16                     ; 0x2016 <main+0x1aac>
    8456: e5 1c        	sbc	$1c                     ; 0x201c <main+0x1ab2>
    8458: 85 16        	sta	$16                     ; 0x2016 <main+0x1aac>
    845a: a5 78        	lda	$78                     ; 0x2078 <main+0x1b0e>
    845c: 09 01        	ora	#$1
    845e: 85 78        	sta	$78                     ; 0x2078 <main+0x1b0e>
    8460: a4 1d        	ldy	$1d                     ; 0x201d <main+0x1ab3>
    8462: c0 01        	cpy	#$1
    8464: 26 18        	rol	$18                     ; 0x2018 <main+0x1aae>
    8466: 26 12        	rol	$12                     ; 0x2012 <main+0x1aa8>
    8468: 26 13        	rol	$13                     ; 0x2013 <main+0x1aa9>
    846a: ca           	dex
    846b: a5 16        	lda	$16                     ; 0x2016 <main+0x1aac>
    846d: e0 00        	cpx	#$0
    846f: f0 03        	beq	$8474 <__udivsi3+0x156>
    8471: 4c 05 84     	jmp	$8405 <__udivsi3+0xe7>
    8474: 4c cc 83     	jmp	$83cc <__udivsi3+0xae>
    8477: c4 1b        	cpy	$1b                     ; 0x201b <main+0x1ab1>
    8479: b0 c6        	bcs	$8441 <__udivsi3+0x123>
    847b: 80 e3        	bra	$8460 <__udivsi3+0x142>
    847d: c5 1a        	cmp	$1a                     ; 0x201a <main+0x1ab0>
    847f: b0 c0        	bcs	$8441 <__udivsi3+0x123>
    8481: 80 dd        	bra	$8460 <__udivsi3+0x142>
    8483: e4 15        	cpx	$15                     ; 0x2015 <main+0x1aab>
    8485: b0 03        	bcs	$848a <__udivsi3+0x16c>
    8487: 4c 57 83     	jmp	$8357 <__udivsi3+0x39>
    848a: 4c 62 83     	jmp	$8362 <__udivsi3+0x44>
