
midisam2.elf:	file format elf32-mos

SYMBOL TABLE:
00000000 l    df *ABS*	00000000 zero-zp-bss.c
00000000 l    df *ABS*	00000000 copy-zp-data.c
00000000 l    df *ABS*	00000000 ld-temp.o
00000086 l     O .zp.bss	00000007 kernelEventData
00000060 l     O .zp.data	00000001 _ccolor
00000030 l     O .zp.data	00000030 textColors
00000061 l     O .zp.bss	00000001 _col
00000062 l     O .zp.bss	00000001 _row
00000063 l     O .zp.bss	00000004 _BITMAP_BASE.0
00000067 l     O .zp.bss	00000004 _BITMAP_BASE.1
0000006b l     O .zp.bss	00000004 _BITMAP_BASE.2
00000085 l     O .zp.bss	00000001 kernelError
00000084 l     O .zp.bss	00000001 midiChip
00006863 l     O .rodata	00000038 rtmplugin
0000008d l     O .zp.bss	00000001 _ZN12_GLOBAL__N_111initializedE
00000091 l     O .zp.bss	00000002 _ZN12_GLOBAL__N_19free_listE
0000008f l     O .zp.bss	00000002 _ZN12_GLOBAL__N_19free_sizeE
0000008e l     O .zp.bss	00000001 _ZN12_GLOBAL__N_19last_freeE
0000006f l     O .zp.bss	00000002 __putchar.s
00004035 l     F .text	0000036f textPrint
0000554e l     F .text	00000c2c printf
00000348 l     F .text	00000135 _ZN12_GLOBAL__N_19FreeChunk6insertEPvj
00000073 l     O .zp.bss	00000002 theOne.0
00006395 l     F .text	00000032 __mulhi3
0000617a l     F .text	000001cf malloc
00000082 l     O .zp.bss	00000002 theOne.6
0000007b l     O .zp.bss	00000001 theOne.3
00000077 l     O .zp.bss	00000004 theOne.2
0000007c l     O .zp.bss	00000004 theOne.4
00000080 l     O .zp.bss	00000002 theOne.5
00000075 l     O .zp.bss	00000002 theOne.1
000043a4 l     F .text	00000470 readDelta
00004814 l     F .text	00000636 readMIDICmd
0000504f l     F .text	00000313 exhaustZeroes
000063c7 l     F .text	00000070 __mulsi3
00000071 l     O .zp.bss	00000001 isPaused
00000072 l     O .zp.bss	00000001 repeatFlag
00006437 l     F .text	0000016f __udivsi3
00004e4a l     F .text	00000205 skipWhenFFCmd
00005367 l     F .text	000000db _ZN12_GLOBAL__N_13putEcP6Status
00005442 l     F .text	0000010c _ZN12_GLOBAL__N_112print_stringEPKcP6Status
0000047e l     F .text	000000d7 _ZN12_GLOBAL__N_19FreeChunk6removeEv
0000057f g     F .text	00003ab6 main
00000343 g       .text	00000000 __after_main
00000332 g       .text	00000000 __do_init_stack
0000033d g       .text	00000000 __do_copy_zp_data
00000568 g     F .text	00000017 __copy_zp_data
0000033a g       .text	00000000 __do_zero_zp_bss
00000555 g     F .text	00000013 __zero_zp_bss
00005362 g     F .text	00000005 exit
00000346 g       .text	00000000 _fini
000065a6 g       .rodata	00000000 __set_v
00006375  w    F .text	00000020 __memset
00001000  w      *ABS*	00000000 __heap_default_limit
0000689c g       .noinit	00000000 __heap_start
00006349  w    F .text	0000002c memcpy
00000010 g       *ABS*	00000000 __rc0
00000012 g       *ABS*	00000000 __rc2
00000014 g       *ABS*	00000000 __rc4
00000016 g       *ABS*	00000000 __rc6
00000018 g       *ABS*	00000000 __rc8
0000001a g       *ABS*	00000000 __rc10
0000001c g       *ABS*	00000000 __rc12
0000001e g       *ABS*	00000000 __rc14
00000020 g       *ABS*	00000000 __rc16
00000022 g       *ABS*	00000000 __rc18
00000024 g       *ABS*	00000000 __rc20
00000026 g       *ABS*	00000000 __rc22
00000028 g       *ABS*	00000000 __rc24
0000002a g       *ABS*	00000000 __rc26
0000002c g       *ABS*	00000000 __rc28
0000002e g       *ABS*	00000000 __rc30
0000002f g       *ABS*	00000000 __rc31
00000300 g       *ABS*	00000000 __f256_start
0000c000 g       *ABS*	00000000 __stack
0000c000 g       *ABS*	00000000 __SLOT_ADDR
0800c000 g       *ABS*	00000000 __block8_lma
00002000 g       *ABS*	00000000 __BLOCK_SIZE
0900c000 g       *ABS*	00000000 __block9_lma
0a00c000 g       *ABS*	00000000 __block10_lma
0b00c000 g       *ABS*	00000000 __block11_lma
0c00c000 g       *ABS*	00000000 __block12_lma
0d00c000 g       *ABS*	00000000 __block13_lma
0e00c000 g       *ABS*	00000000 __block14_lma
0f00c000 g       *ABS*	00000000 __block15_lma
1000c000 g       *ABS*	00000000 __block16_lma
1100c000 g       *ABS*	00000000 __block17_lma
1200c000 g       *ABS*	00000000 __block18_lma
1300c000 g       *ABS*	00000000 __block19_lma
1400c000 g       *ABS*	00000000 __block20_lma
1500c000 g       *ABS*	00000000 __block21_lma
1600c000 g       *ABS*	00000000 __block22_lma
1700c000 g       *ABS*	00000000 __block23_lma
0000689b g       .bss	00000000 __bss_start
00000332 g       .text	00000000 _start
0000002d g       *ABS*	00000000 __rc29
0000002b g       *ABS*	00000000 __rc27
00000029 g       *ABS*	00000000 __rc25
00000027 g       *ABS*	00000000 __rc23
00000025 g       *ABS*	00000000 __rc21
00000023 g       *ABS*	00000000 __rc19
00000021 g       *ABS*	00000000 __rc17
0000001f g       *ABS*	00000000 __rc15
0000001d g       *ABS*	00000000 __rc13
0000001b g       *ABS*	00000000 __rc11
00000019 g       *ABS*	00000000 __rc9
00000017 g       *ABS*	00000000 __rc7
00000015 g       *ABS*	00000000 __rc5
00000013 g       *ABS*	00000000 __rc3
00000011 g       *ABS*	00000000 __rc1
00000030 g       .zp.data	00000000 __zp_data_start
00000300 g       *ABS*	00000000 __zp_data_load_start
00000031 g       *ABS*	00000000 __zp_data_size
00000061 g       .zp.bss	00000000 __zp_bss_start
00000032 g       *ABS*	00000000 __zp_bss_size
00000332 g       .text	00000000 _init
000065a6 g       .text	00000000 __init_array_start
000065a6 g       .text	00000000 __init_array_end
000065a6 g       .text	00000000 __fini_array_start
000065a6 g       .text	00000000 __fini_array_end
0000689b g       .data	00000000 __data_start
0000689b g       .data	00000000 __data_end
0000689b g       *ABS*	00000000 __data_load_start
00000000 g       *ABS*	00000000 __data_size
0000689b g       .bss	00000000 __bss_end
00000000 g       *ABS*	00000000 __bss_size
0000689b g       .noinit	00000000 end_block8
0000689b g       .noinit	00000000 end_block9
0000689b g       .noinit	00000000 end_block10
0000689b g       .noinit	00000000 end_block11
0000689b g       .noinit	00000000 end_block12
0000689b g       .noinit	00000000 end_block13
0000689b g       .noinit	00000000 end_block14
0000689b g       .noinit	00000000 end_block15
0000689b g       .noinit	00000000 end_block16
0000689b g       .noinit	00000000 end_block17
0000689b g       .noinit	00000000 end_block18
0000689b g       .noinit	00000000 end_block19
0000689b g       .noinit	00000000 end_block20
0000689b g       .noinit	00000000 end_block21
0000689b g       .noinit	00000000 end_block22
0000689b g       .noinit	00000000 end_block23

Disassembly of section .text:

00000332 <_start>:
     332: a9 00        	lda	#$0
     334: 85 10        	sta	$10                     ; 0x2010 <main+0x1a91>
     336: a9 c0        	lda	#$c0
     338: 85 11        	sta	$11                     ; 0x2011 <main+0x1a92>

0000033a <__do_zero_zp_bss>:
     33a: 20 55 05     	jsr	$555 <__zero_zp_bss>

0000033d <__do_copy_zp_data>:
     33d: 20 68 05     	jsr	$568 <__copy_zp_data>
     340: 20 7f 05     	jsr	$57f <main>

00000343 <__after_main>:
     343: 4c 62 53     	jmp	$5362 <exit>

00000346 <_fini>:
     346: 60           	rts
     347: 00           	brk

00000348 <_ZN12_GLOBAL__N_19FreeChunk6insertEPvj>:
     348: 85 16        	sta	$16                     ; 0x2016 <main+0x1a97>
     34a: 29 fe        	and	#$fe
     34c: 85 14        	sta	$14                     ; 0x2014 <main+0x1a95>
     34e: a0 01        	ldy	#$1
     350: 98           	tya
     351: 32 12        	and	($12)                   ; 0x2012 <main+0x1a93>
     353: 05 14        	ora	$14                     ; 0x2014 <main+0x1a95>
     355: 92 12        	sta	($12)                   ; 0x2012 <main+0x1a93>
     357: a5 12        	lda	$12                     ; 0x2012 <main+0x1a93>
     359: 18           	clc
     35a: 65 14        	adc	$14                     ; 0x2014 <main+0x1a95>
     35c: 85 15        	sta	$15                     ; 0x2015 <main+0x1a96>
     35e: 8a           	txa
     35f: 65 13        	adc	$13                     ; 0x2013 <main+0x1a94>
     361: 85 14        	sta	$14                     ; 0x2014 <main+0x1a95>
     363: 18           	clc
     364: a5 15        	lda	$15                     ; 0x2015 <main+0x1a96>
     366: 69 fe        	adc	#$fe
     368: 85 17        	sta	$17                     ; 0x2017 <main+0x1a98>
     36a: a5 14        	lda	$14                     ; 0x2014 <main+0x1a95>
     36c: 69 ff        	adc	#$ff
     36e: 85 15        	sta	$15                     ; 0x2015 <main+0x1a96>
     370: a5 17        	lda	$17                     ; 0x2017 <main+0x1a98>
     372: 85 14        	sta	$14                     ; 0x2014 <main+0x1a95>
     374: 8a           	txa
     375: 91 12        	sta	($12),y                 ; 0x2012 <main+0x1a93>
     377: a5 16        	lda	$16                     ; 0x2016 <main+0x1a97>
     379: 92 14        	sta	($14)                   ; 0x2014 <main+0x1a95>
     37b: 8a           	txa
     37c: 91 14        	sta	($14),y                 ; 0x2014 <main+0x1a95>
     37e: b1 12        	lda	($12),y                 ; 0x2012 <main+0x1a93>
     380: 85 14        	sta	$14                     ; 0x2014 <main+0x1a95>
     382: a9 fe        	lda	#$fe
     384: 32 12        	and	($12)                   ; 0x2012 <main+0x1a93>
     386: 18           	clc
     387: 65 8f        	adc	$8f                     ; 0x208f <main+0x1b10>
     389: aa           	tax
     38a: a5 14        	lda	$14                     ; 0x2014 <main+0x1a95>
     38c: 65 90        	adc	$90                     ; 0x2090 <main+0x1b11>
     38e: a8           	tay
     38f: 18           	clc
     390: 8a           	txa
     391: 69 fe        	adc	#$fe
     393: aa           	tax
     394: 98           	tya
     395: 69 ff        	adc	#$ff
     397: 86 8f        	stx	$8f                     ; 0x208f <main+0x1b10>
     399: 85 90        	sta	$90                     ; 0x2090 <main+0x1b11>
     39b: a6 91        	ldx	$91                     ; 0x2091 <main+0x1b12>
     39d: 86 16        	stx	$16                     ; 0x2016 <main+0x1a97>
     39f: a4 92        	ldy	$92                     ; 0x2092 <main+0x1b13>
     3a1: a2 00        	ldx	#$0
     3a3: 86 14        	stx	$14                     ; 0x2014 <main+0x1a95>
     3a5: a2 00        	ldx	#$0
     3a7: 86 15        	stx	$15                     ; 0x2015 <main+0x1a96>
     3a9: c4 15        	cpy	$15                     ; 0x2015 <main+0x1a96>
     3ab: d0 3c        	bne	$3e9 <_ZN12_GLOBAL__N_19FreeChunk6insertEPvj+0xa1>
     3ad: a6 16        	ldx	$16                     ; 0x2016 <main+0x1a97>
     3af: e4 14        	cpx	$14                     ; 0x2014 <main+0x1a95>
     3b1: d0 36        	bne	$3e9 <_ZN12_GLOBAL__N_19FreeChunk6insertEPvj+0xa1>
     3b3: a0 04        	ldy	#$4
     3b5: a5 12        	lda	$12                     ; 0x2012 <main+0x1a93>
     3b7: 18           	clc
     3b8: 69 04        	adc	#$4
     3ba: 85 14        	sta	$14                     ; 0x2014 <main+0x1a95>
     3bc: a5 13        	lda	$13                     ; 0x2013 <main+0x1a94>
     3be: 69 00        	adc	#$0
     3c0: 18           	clc
     3c1: 85 15        	sta	$15                     ; 0x2015 <main+0x1a96>
     3c3: a5 12        	lda	$12                     ; 0x2012 <main+0x1a93>
     3c5: 91 12        	sta	($12),y                 ; 0x2012 <main+0x1a93>
     3c7: a0 02        	ldy	#$2
     3c9: 85 17        	sta	$17                     ; 0x2017 <main+0x1a98>
     3cb: 69 02        	adc	#$2
     3cd: 85 16        	sta	$16                     ; 0x2016 <main+0x1a97>
     3cf: a5 17        	lda	$17                     ; 0x2017 <main+0x1a98>
     3d1: 91 12        	sta	($12),y                 ; 0x2012 <main+0x1a93>
     3d3: a5 13        	lda	$13                     ; 0x2013 <main+0x1a94>
     3d5: 69 00        	adc	#$0
     3d7: 85 17        	sta	$17                     ; 0x2017 <main+0x1a98>
     3d9: 88           	dey
     3da: a5 13        	lda	$13                     ; 0x2013 <main+0x1a94>
     3dc: 91 14        	sta	($14),y                 ; 0x2014 <main+0x1a95>
     3de: 91 16        	sta	($16),y                 ; 0x2016 <main+0x1a97>
     3e0: a6 12        	ldx	$12                     ; 0x2012 <main+0x1a93>
     3e2: 86 91        	stx	$91                     ; 0x2091 <main+0x1b12>
     3e4: a6 13        	ldx	$13                     ; 0x2013 <main+0x1a94>
     3e6: 86 92        	stx	$92                     ; 0x2092 <main+0x1b13>
     3e8: 60           	rts
     3e9: a6 12        	ldx	$12                     ; 0x2012 <main+0x1a93>
     3eb: a5 12        	lda	$12                     ; 0x2012 <main+0x1a93>
     3ed: 18           	clc
     3ee: 69 02        	adc	#$2
     3f0: 85 14        	sta	$14                     ; 0x2014 <main+0x1a95>
     3f2: 84 18        	sty	$18                     ; 0x2018 <main+0x1a99>
     3f4: a5 13        	lda	$13                     ; 0x2013 <main+0x1a94>
     3f6: 69 00        	adc	#$0
     3f8: 85 15        	sta	$15                     ; 0x2015 <main+0x1a96>
     3fa: a5 16        	lda	$16                     ; 0x2016 <main+0x1a97>
     3fc: 84 17        	sty	$17                     ; 0x2017 <main+0x1a98>
     3fe: a0 02        	ldy	#$2
     400: 91 12        	sta	($12),y                 ; 0x2012 <main+0x1a93>
     402: 85 19        	sta	$19                     ; 0x2019 <main+0x1a9a>
     404: 88           	dey
     405: a5 18        	lda	$18                     ; 0x2018 <main+0x1a99>
     407: 91 14        	sta	($14),y                 ; 0x2014 <main+0x1a95>
     409: 18           	clc
     40a: a5 19        	lda	$19                     ; 0x2019 <main+0x1a9a>
     40c: 69 04        	adc	#$4
     40e: a8           	tay
     40f: a5 18        	lda	$18                     ; 0x2018 <main+0x1a99>
     411: 69 00        	adc	#$0
     413: 85 19        	sta	$19                     ; 0x2019 <main+0x1a9a>
     415: 84 18        	sty	$18                     ; 0x2018 <main+0x1a99>
     417: 8a           	txa
     418: 18           	clc
     419: 69 04        	adc	#$4
     41b: 85 1a        	sta	$1a                     ; 0x201a <main+0x1a9b>
     41d: a5 13        	lda	$13                     ; 0x2013 <main+0x1a94>
     41f: 69 00        	adc	#$0
     421: 85 1b        	sta	$1b                     ; 0x201b <main+0x1a9c>
     423: a0 04        	ldy	#$4
     425: b1 16        	lda	($16),y                 ; 0x2016 <main+0x1a97>
     427: 85 16        	sta	$16                     ; 0x2016 <main+0x1a97>
     429: 85 1d        	sta	$1d                     ; 0x201d <main+0x1a9e>
     42b: a0 01        	ldy	#$1
     42d: b1 18        	lda	($18),y                 ; 0x2018 <main+0x1a99>
     42f: 85 17        	sta	$17                     ; 0x2017 <main+0x1a98>
     431: 85 19        	sta	$19                     ; 0x2019 <main+0x1a9a>
     433: a0 04        	ldy	#$4
     435: a5 1d        	lda	$1d                     ; 0x201d <main+0x1a9e>
     437: 91 12        	sta	($12),y                 ; 0x2012 <main+0x1a93>
     439: a5 19        	lda	$19                     ; 0x2019 <main+0x1a9a>
     43b: a0 01        	ldy	#$1
     43d: 91 1a        	sta	($1a),y                 ; 0x201a <main+0x1a9b>
     43f: 18           	clc
     440: a5 1d        	lda	$1d                     ; 0x201d <main+0x1a9e>
     442: 69 02        	adc	#$2
     444: 85 18        	sta	$18                     ; 0x2018 <main+0x1a99>
     446: a5 19        	lda	$19                     ; 0x2019 <main+0x1a9a>
     448: 69 00        	adc	#$0
     44a: 85 19        	sta	$19                     ; 0x2019 <main+0x1a9a>
     44c: 8a           	txa
     44d: c8           	iny
     44e: 91 16        	sta	($16),y                 ; 0x2016 <main+0x1a97>
     450: a5 13        	lda	$13                     ; 0x2013 <main+0x1a94>
     452: 88           	dey
     453: 91 18        	sta	($18),y                 ; 0x2018 <main+0x1a99>
     455: c8           	iny
     456: b1 12        	lda	($12),y                 ; 0x2012 <main+0x1a93>
     458: 85 16        	sta	$16                     ; 0x2016 <main+0x1a97>
     45a: 85 18        	sta	$18                     ; 0x2018 <main+0x1a99>
     45c: 88           	dey
     45d: b1 14        	lda	($14),y                 ; 0x2014 <main+0x1a95>
     45f: 85 17        	sta	$17                     ; 0x2017 <main+0x1a98>
     461: 85 14        	sta	$14                     ; 0x2014 <main+0x1a95>
     463: 8a           	txa
     464: a0 04        	ldy	#$4
     466: 91 16        	sta	($16),y                 ; 0x2016 <main+0x1a97>
     468: 18           	clc
     469: a5 18        	lda	$18                     ; 0x2018 <main+0x1a99>
     46b: 69 04        	adc	#$4
     46d: a8           	tay
     46e: a5 14        	lda	$14                     ; 0x2014 <main+0x1a95>
     470: 69 00        	adc	#$0
     472: 84 14        	sty	$14                     ; 0x2014 <main+0x1a95>
     474: 85 15        	sta	$15                     ; 0x2015 <main+0x1a96>
     476: a5 13        	lda	$13                     ; 0x2013 <main+0x1a94>
     478: a0 01        	ldy	#$1
     47a: 91 14        	sta	($14),y                 ; 0x2014 <main+0x1a95>
     47c: 60           	rts
     47d: 00           	brk

0000047e <_ZN12_GLOBAL__N_19FreeChunk6removeEv>:
     47e: a0 01        	ldy	#$1
     480: a9 fe        	lda	#$fe
     482: 32 12        	and	($12)                   ; 0x2012 <main+0x1a93>
     484: 85 14        	sta	$14                     ; 0x2014 <main+0x1a95>
     486: a5 8f        	lda	$8f                     ; 0x208f <main+0x1b10>
     488: a6 90        	ldx	$90                     ; 0x2090 <main+0x1b11>
     48a: 86 15        	stx	$15                     ; 0x2015 <main+0x1a96>
     48c: 38           	sec
     48d: e5 14        	sbc	$14                     ; 0x2014 <main+0x1a95>
     48f: aa           	tax
     490: a5 15        	lda	$15                     ; 0x2015 <main+0x1a96>
     492: f1 12        	sbc	($12),y                 ; 0x2012 <main+0x1a93>
     494: 85 14        	sta	$14                     ; 0x2014 <main+0x1a95>
     496: 18           	clc
     497: 8a           	txa
     498: 69 02        	adc	#$2
     49a: 85 15        	sta	$15                     ; 0x2015 <main+0x1a96>
     49c: a5 14        	lda	$14                     ; 0x2014 <main+0x1a95>
     49e: 69 00        	adc	#$0
     4a0: a6 15        	ldx	$15                     ; 0x2015 <main+0x1a96>
     4a2: 86 8f        	stx	$8f                     ; 0x208f <main+0x1b10>
     4a4: 85 90        	sta	$90                     ; 0x2090 <main+0x1b11>
     4a6: a5 12        	lda	$12                     ; 0x2012 <main+0x1a93>
     4a8: 18           	clc
     4a9: 69 02        	adc	#$2
     4ab: 85 14        	sta	$14                     ; 0x2014 <main+0x1a95>
     4ad: a5 13        	lda	$13                     ; 0x2013 <main+0x1a94>
     4af: 69 00        	adc	#$0
     4b1: c8           	iny
     4b2: 85 15        	sta	$15                     ; 0x2015 <main+0x1a96>
     4b4: b1 12        	lda	($12),y                 ; 0x2012 <main+0x1a93>
     4b6: aa           	tax
     4b7: 88           	dey
     4b8: b1 14        	lda	($14),y                 ; 0x2014 <main+0x1a95>
     4ba: 85 19        	sta	$19                     ; 0x2019 <main+0x1a9a>
     4bc: c5 13        	cmp	$13                     ; 0x2013 <main+0x1a94>
     4be: d0 0f        	bne	$4cf <_ZN12_GLOBAL__N_19FreeChunk6removeEv+0x51>
     4c0: e4 12        	cpx	$12                     ; 0x2012 <main+0x1a93>
     4c2: d0 0b        	bne	$4cf <_ZN12_GLOBAL__N_19FreeChunk6removeEv+0x51>
     4c4: a2 00        	ldx	#$0
     4c6: 86 14        	stx	$14                     ; 0x2014 <main+0x1a95>
     4c8: a2 00        	ldx	#$0
     4ca: 86 15        	stx	$15                     ; 0x2015 <main+0x1a96>
     4cc: 4c 4c 05     	jmp	$54c <_ZN12_GLOBAL__N_19FreeChunk6removeEv+0xce>
     4cf: 86 18        	stx	$18                     ; 0x2018 <main+0x1a99>
     4d1: a6 12        	ldx	$12                     ; 0x2012 <main+0x1a93>
     4d3: a5 12        	lda	$12                     ; 0x2012 <main+0x1a93>
     4d5: 86 1b        	stx	$1b                     ; 0x201b <main+0x1a9c>
     4d7: 18           	clc
     4d8: 69 04        	adc	#$4
     4da: 85 14        	sta	$14                     ; 0x2014 <main+0x1a95>
     4dc: a5 13        	lda	$13                     ; 0x2013 <main+0x1a94>
     4de: 69 00        	adc	#$0
     4e0: a0 04        	ldy	#$4
     4e2: 85 15        	sta	$15                     ; 0x2015 <main+0x1a96>
     4e4: b1 12        	lda	($12),y                 ; 0x2012 <main+0x1a93>
     4e6: 85 1c        	sta	$1c                     ; 0x201c <main+0x1a9d>
     4e8: 18           	clc
     4e9: 69 02        	adc	#$2
     4eb: 85 16        	sta	$16                     ; 0x2016 <main+0x1a97>
     4ed: a0 01        	ldy	#$1
     4ef: b1 14        	lda	($14),y                 ; 0x2014 <main+0x1a95>
     4f1: aa           	tax
     4f2: 69 00        	adc	#$0
     4f4: a4 16        	ldy	$16                     ; 0x2016 <main+0x1a97>
     4f6: 84 14        	sty	$14                     ; 0x2014 <main+0x1a95>
     4f8: 85 15        	sta	$15                     ; 0x2015 <main+0x1a96>
     4fa: a4 1c        	ldy	$1c                     ; 0x201c <main+0x1a9d>
     4fc: 84 16        	sty	$16                     ; 0x2016 <main+0x1a97>
     4fe: 86 17        	stx	$17                     ; 0x2017 <main+0x1a98>
     500: a0 02        	ldy	#$2
     502: a5 18        	lda	$18                     ; 0x2018 <main+0x1a99>
     504: 91 16        	sta	($16),y                 ; 0x2016 <main+0x1a97>
     506: a5 19        	lda	$19                     ; 0x2019 <main+0x1a9a>
     508: 88           	dey
     509: 91 14        	sta	($14),y                 ; 0x2014 <main+0x1a95>
     50b: 18           	clc
     50c: a5 1b        	lda	$1b                     ; 0x201b <main+0x1a9c>
     50e: 69 02        	adc	#$2
     510: 85 14        	sta	$14                     ; 0x2014 <main+0x1a95>
     512: a5 13        	lda	$13                     ; 0x2013 <main+0x1a94>
     514: 69 00        	adc	#$0
     516: 85 15        	sta	$15                     ; 0x2015 <main+0x1a96>
     518: c8           	iny
     519: b1 12        	lda	($12),y                 ; 0x2012 <main+0x1a93>
     51b: 85 16        	sta	$16                     ; 0x2016 <main+0x1a97>
     51d: 88           	dey
     51e: b1 14        	lda	($14),y                 ; 0x2014 <main+0x1a95>
     520: a4 16        	ldy	$16                     ; 0x2016 <main+0x1a97>
     522: 84 14        	sty	$14                     ; 0x2014 <main+0x1a95>
     524: 85 15        	sta	$15                     ; 0x2015 <main+0x1a96>
     526: 85 17        	sta	$17                     ; 0x2017 <main+0x1a98>
     528: a0 04        	ldy	#$4
     52a: a5 1c        	lda	$1c                     ; 0x201c <main+0x1a9d>
     52c: 91 14        	sta	($14),y                 ; 0x2014 <main+0x1a95>
     52e: 18           	clc
     52f: a5 16        	lda	$16                     ; 0x2016 <main+0x1a97>
     531: 69 04        	adc	#$4
     533: 85 16        	sta	$16                     ; 0x2016 <main+0x1a97>
     535: a5 17        	lda	$17                     ; 0x2017 <main+0x1a98>
     537: 69 00        	adc	#$0
     539: 85 17        	sta	$17                     ; 0x2017 <main+0x1a98>
     53b: 8a           	txa
     53c: a0 01        	ldy	#$1
     53e: 91 16        	sta	($16),y                 ; 0x2016 <main+0x1a97>
     540: a6 92        	ldx	$92                     ; 0x2092 <main+0x1b13>
     542: e4 13        	cpx	$13                     ; 0x2013 <main+0x1a94>
     544: d0 0e        	bne	$554 <_ZN12_GLOBAL__N_19FreeChunk6removeEv+0xd6>
     546: a6 91        	ldx	$91                     ; 0x2091 <main+0x1b12>
     548: e4 12        	cpx	$12                     ; 0x2012 <main+0x1a93>
     54a: d0 08        	bne	$554 <_ZN12_GLOBAL__N_19FreeChunk6removeEv+0xd6>
     54c: a6 14        	ldx	$14                     ; 0x2014 <main+0x1a95>
     54e: a4 15        	ldy	$15                     ; 0x2015 <main+0x1a96>
     550: 86 91        	stx	$91                     ; 0x2091 <main+0x1b12>
     552: 84 92        	sty	$92                     ; 0x2092 <main+0x1b13>
     554: 60           	rts

00000555 <__zero_zp_bss>:
     555: a2 32        	ldx	#$32
     557: a0 00        	ldy	#$0
     559: a9 61        	lda	#$61
     55b: 85 12        	sta	$12                     ; 0x2012 <main+0x1a93>
     55d: a9 00        	lda	#$0
     55f: 85 13        	sta	$13                     ; 0x2013 <main+0x1a94>
     561: a9 00        	lda	#$0
     563: 84 14        	sty	$14                     ; 0x2014 <main+0x1a95>
     565: 4c 75 63     	jmp	$6375 <__memset>

00000568 <__copy_zp_data>:
     568: a9 31        	lda	#$31
     56a: a2 00        	ldx	#$0
     56c: a0 30        	ldy	#$30
     56e: 84 12        	sty	$12                     ; 0x2012 <main+0x1a93>
     570: a0 00        	ldy	#$0
     572: 84 13        	sty	$13                     ; 0x2013 <main+0x1a94>
     574: a0 00        	ldy	#$0
     576: 84 14        	sty	$14                     ; 0x2014 <main+0x1a95>
     578: a0 03        	ldy	#$3
     57a: 84 15        	sty	$15                     ; 0x2015 <main+0x1a96>
     57c: 4c 49 63     	jmp	$6349 <memcpy>

0000057f <main>:
     57f: 18           	clc
     580: a5 10        	lda	$10                     ; 0x2010 <main+0x1a91>
     582: 69 eb        	adc	#$eb
     584: 85 10        	sta	$10                     ; 0x2010 <main+0x1a91>
     586: a5 11        	lda	$11                     ; 0x2011 <main+0x1a92>
     588: 69 fe        	adc	#$fe
     58a: 85 11        	sta	$11                     ; 0x2011 <main+0x1a92>
     58c: a6 24        	ldx	$24                     ; 0x2024 <main+0x1aa5>
     58e: da           	phx
     58f: a6 25        	ldx	$25                     ; 0x2025 <main+0x1aa6>
     591: da           	phx
     592: a6 26        	ldx	$26                     ; 0x2026 <main+0x1aa7>
     594: da           	phx
     595: a6 27        	ldx	$27                     ; 0x2027 <main+0x1aa8>
     597: da           	phx
     598: a5 28        	lda	$28                     ; 0x2028 <main+0x1aa9>
     59a: a0 0b        	ldy	#$b
     59c: 91 10        	sta	($10),y                 ; 0x2010 <main+0x1a91>
     59e: a5 29        	lda	$29                     ; 0x2029 <main+0x1aaa>
     5a0: 88           	dey
     5a1: 91 10        	sta	($10),y                 ; 0x2010 <main+0x1a91>
     5a3: a5 2a        	lda	$2a                     ; 0x202a <main+0x1aab>
     5a5: 88           	dey
     5a6: 91 10        	sta	($10),y                 ; 0x2010 <main+0x1a91>
     5a8: a5 2b        	lda	$2b                     ; 0x202b <main+0x1aac>
     5aa: 88           	dey
     5ab: 91 10        	sta	($10),y                 ; 0x2010 <main+0x1a91>
     5ad: a5 2c        	lda	$2c                     ; 0x202c <main+0x1aad>
     5af: 88           	dey
     5b0: 91 10        	sta	($10),y                 ; 0x2010 <main+0x1a91>
     5b2: a5 2d        	lda	$2d                     ; 0x202d <main+0x1aae>
     5b4: 88           	dey
     5b5: 91 10        	sta	($10),y                 ; 0x2010 <main+0x1a91>
     5b7: a5 2e        	lda	$2e                     ; 0x202e <main+0x1aaf>
     5b9: 88           	dey
     5ba: 91 10        	sta	($10),y                 ; 0x2010 <main+0x1a91>
     5bc: a5 2f        	lda	$2f                     ; 0x202f <main+0x1ab0>
     5be: 88           	dey
     5bf: 91 10        	sta	($10),y                 ; 0x2010 <main+0x1a91>
     5c1: 64 12        	stz	$12                     ; 0x2012 <main+0x1a93>
     5c3: a9 00        	lda	#$0
     5c5: a0 12        	ldy	#$12
     5c7: 91 10        	sta	($10),y                 ; 0x2010 <main+0x1a91>
     5c9: aa           	tax
     5ca: 86 16        	stx	$16                     ; 0x2016 <main+0x1a97>
     5cc: a2 d0        	ldx	#$d0
     5ce: 86 17        	stx	$17                     ; 0x2017 <main+0x1a98>
     5d0: aa           	tax
     5d1: 86 12        	stx	$12                     ; 0x2012 <main+0x1a93>
     5d3: a2 d8        	ldx	#$d8
     5d5: 86 13        	stx	$13                     ; 0x2013 <main+0x1a94>
     5d7: a2 00        	ldx	#$0
     5d9: a0 10        	ldy	#$10
     5db: a9 9c        	lda	#$9c
     5dd: 86 14        	stx	$14                     ; 0x2014 <main+0x1a95>
     5df: 84 15        	sty	$15                     ; 0x2015 <main+0x1a96>
     5e1: 18           	clc
     5e2: 65 14        	adc	$14                     ; 0x2014 <main+0x1a95>
     5e4: 85 1a        	sta	$1a                     ; 0x201a <main+0x1a9b>
     5e6: a9 68        	lda	#$68
     5e8: 65 15        	adc	$15                     ; 0x2015 <main+0x1a96>
     5ea: 85 1b        	sta	$1b                     ; 0x201b <main+0x1a9c>
     5ec: 64 01        	stz	$1                      ; 0x2001 <main+0x1a82>
     5ee: a2 3f        	ldx	#$3f
     5f0: 8e 00 d0     	stx	$d000                   ; 0xd000 <__heap_start+0x6764>
     5f3: a2 b3        	ldx	#$b3
     5f5: 86 00        	stx	$0                      ; 0x2000 <main+0x1a81>
     5f7: 64 08        	stz	$8                      ; 0x2008 <main+0x1a89>
     5f9: a2 01        	ldx	#$1
     5fb: 86 09        	stx	$9                      ; 0x2009 <main+0x1a8a>
     5fd: e8           	inx
     5fe: 86 0a        	stx	$a                      ; 0x200a <main+0x1a8b>
     600: e8           	inx
     601: 86 0b        	stx	$b                      ; 0x200b <main+0x1a8c>
     603: e8           	inx
     604: 86 0c        	stx	$c                      ; 0x200c <main+0x1a8d>
     606: e8           	inx
     607: 86 0d        	stx	$d                      ; 0x200d <main+0x1a8e>
     609: a2 86        	ldx	#$86
     60b: 86 f0        	stx	$f0                     ; 0x20f0 <main+0x1b71>
     60d: a2 00        	ldx	#$0
     60f: 86 f1        	stx	$f1                     ; 0x20f1 <main+0x1b72>
     611: a2 00        	ldx	#$0
     613: 86 18        	stx	$18                     ; 0x2018 <main+0x1a99>
     615: a2 d4        	ldx	#$d4
     617: 86 19        	stx	$19                     ; 0x2019 <main+0x1a9a>
     619: a2 00        	ldx	#$0
     61b: 86 14        	stx	$14                     ; 0x2014 <main+0x1a95>
     61d: a2 dc        	ldx	#$dc
     61f: 86 15        	stx	$15                     ; 0x2015 <main+0x1a96>
     621: a2 00        	ldx	#$0
     623: 86 26        	stx	$26                     ; 0x2026 <main+0x1aa7>
     625: a2 c0        	ldx	#$c0
     627: 86 27        	stx	$27                     ; 0x2027 <main+0x1aa8>
     629: a9 00        	lda	#$0
     62b: a6 01        	ldx	$1                      ; 0x2001 <main+0x1a82>
     62d: a0 01        	ldy	#$1
     62f: 84 01        	sty	$1                      ; 0x2001 <main+0x1a82>
     631: 92 16        	sta	($16)                   ; 0x2016 <main+0x1a97>
     633: 91 16        	sta	($16),y                 ; 0x2016 <main+0x1a97>
     635: c8           	iny
     636: 91 16        	sta	($16),y                 ; 0x2016 <main+0x1a97>
     638: c8           	iny
     639: 85 1c        	sta	$1c                     ; 0x201c <main+0x1a9d>
     63b: a9 ff        	lda	#$ff
     63d: 91 16        	sta	($16),y                 ; 0x2016 <main+0x1a97>
     63f: 86 01        	stx	$1                      ; 0x2001 <main+0x1a82>
     641: a5 16        	lda	$16                     ; 0x2016 <main+0x1a97>
     643: 18           	clc
     644: 69 04        	adc	#$4
     646: 85 16        	sta	$16                     ; 0x2016 <main+0x1a97>
     648: a5 17        	lda	$17                     ; 0x2017 <main+0x1a98>
     64a: 69 00        	adc	#$0
     64c: e6 1c        	inc	$1c                     ; 0x201c <main+0x1a9d>
     64e: 85 17        	sta	$17                     ; 0x2017 <main+0x1a98>
     650: a5 1c        	lda	$1c                     ; 0x201c <main+0x1a9d>
     652: d0 d7        	bne	$62b <main+0xac>
     654: a9 00        	lda	#$0
     656: a6 01        	ldx	$1                      ; 0x2001 <main+0x1a82>
     658: a0 01        	ldy	#$1
     65a: 84 01        	sty	$1                      ; 0x2001 <main+0x1a82>
     65c: 92 18        	sta	($18)                   ; 0x2018 <main+0x1a99>
     65e: 91 18        	sta	($18),y                 ; 0x2018 <main+0x1a99>
     660: c8           	iny
     661: 91 18        	sta	($18),y                 ; 0x2018 <main+0x1a99>
     663: c8           	iny
     664: 85 16        	sta	$16                     ; 0x2016 <main+0x1a97>
     666: a9 ff        	lda	#$ff
     668: 91 18        	sta	($18),y                 ; 0x2018 <main+0x1a99>
     66a: 86 01        	stx	$1                      ; 0x2001 <main+0x1a82>
     66c: a5 18        	lda	$18                     ; 0x2018 <main+0x1a99>
     66e: 18           	clc
     66f: 69 04        	adc	#$4
     671: 85 18        	sta	$18                     ; 0x2018 <main+0x1a99>
     673: a5 19        	lda	$19                     ; 0x2019 <main+0x1a9a>
     675: 69 00        	adc	#$0
     677: e6 16        	inc	$16                     ; 0x2016 <main+0x1a97>
     679: 85 19        	sta	$19                     ; 0x2019 <main+0x1a9a>
     67b: a5 16        	lda	$16                     ; 0x2016 <main+0x1a97>
     67d: d0 d7        	bne	$656 <main+0xd7>
     67f: a9 00        	lda	#$0
     681: a6 01        	ldx	$1                      ; 0x2001 <main+0x1a82>
     683: a0 01        	ldy	#$1
     685: 84 01        	sty	$1                      ; 0x2001 <main+0x1a82>
     687: 92 12        	sta	($12)                   ; 0x2012 <main+0x1a93>
     689: 91 12        	sta	($12),y                 ; 0x2012 <main+0x1a93>
     68b: c8           	iny
     68c: 91 12        	sta	($12),y                 ; 0x2012 <main+0x1a93>
     68e: c8           	iny
     68f: 85 16        	sta	$16                     ; 0x2016 <main+0x1a97>
     691: a9 ff        	lda	#$ff
     693: 91 12        	sta	($12),y                 ; 0x2012 <main+0x1a93>
     695: 86 01        	stx	$1                      ; 0x2001 <main+0x1a82>
     697: a5 12        	lda	$12                     ; 0x2012 <main+0x1a93>
     699: 18           	clc
     69a: 69 04        	adc	#$4
     69c: 85 12        	sta	$12                     ; 0x2012 <main+0x1a93>
     69e: a5 13        	lda	$13                     ; 0x2013 <main+0x1a94>
     6a0: 69 00        	adc	#$0
     6a2: e6 16        	inc	$16                     ; 0x2016 <main+0x1a97>
     6a4: 85 13        	sta	$13                     ; 0x2013 <main+0x1a94>
     6a6: a5 16        	lda	$16                     ; 0x2016 <main+0x1a97>
     6a8: d0 d7        	bne	$681 <main+0x102>
     6aa: a9 00        	lda	#$0
     6ac: a6 01        	ldx	$1                      ; 0x2001 <main+0x1a82>
     6ae: a0 01        	ldy	#$1
     6b0: 84 01        	sty	$1                      ; 0x2001 <main+0x1a82>
     6b2: 92 14        	sta	($14)                   ; 0x2014 <main+0x1a95>
     6b4: 91 14        	sta	($14),y                 ; 0x2014 <main+0x1a95>
     6b6: c8           	iny
     6b7: 91 14        	sta	($14),y                 ; 0x2014 <main+0x1a95>
     6b9: c8           	iny
     6ba: 85 12        	sta	$12                     ; 0x2012 <main+0x1a93>
     6bc: a9 ff        	lda	#$ff
     6be: 91 14        	sta	($14),y                 ; 0x2014 <main+0x1a95>
     6c0: 86 01        	stx	$1                      ; 0x2001 <main+0x1a82>
     6c2: a5 14        	lda	$14                     ; 0x2014 <main+0x1a95>
     6c4: 18           	clc
     6c5: 69 04        	adc	#$4
     6c7: 85 14        	sta	$14                     ; 0x2014 <main+0x1a95>
     6c9: a5 15        	lda	$15                     ; 0x2015 <main+0x1a96>
     6cb: 69 00        	adc	#$0
     6cd: e6 12        	inc	$12                     ; 0x2012 <main+0x1a93>
     6cf: 85 15        	sta	$15                     ; 0x2015 <main+0x1a96>
     6d1: a5 12        	lda	$12                     ; 0x2012 <main+0x1a93>
     6d3: d0 d7        	bne	$6ac <main+0x12d>
     6d5: ad 02 d0     	lda	$d002                   ; 0xd002 <__heap_start+0x6766>
     6d8: a2 f0        	ldx	#$f0
     6da: 29 f0        	and	#$f0
     6dc: 8d 02 d0     	sta	$d002                   ; 0xd002 <__heap_start+0x6766>
     6df: ad 02 d0     	lda	$d002                   ; 0xd002 <__heap_start+0x6766>
     6e2: 29 0f        	and	#$f
     6e4: 09 10        	ora	#$10
     6e6: 8d 02 d0     	sta	$d002                   ; 0xd002 <__heap_start+0x6766>
     6e9: a0 02        	ldy	#$2
     6eb: 8c 03 d0     	sty	$d003                   ; 0xd003 <__heap_start+0x6767>
     6ee: 86 60        	stx	$60                     ; 0x2060 <main+0x1ae1>
     6f0: ad 01 d0     	lda	$d001                   ; 0xd001 <__heap_start+0x6765>
     6f3: 29 f9        	and	#$f9
     6f5: 09 04        	ora	#$4
     6f7: 8d 01 d0     	sta	$d001                   ; 0xd001 <__heap_start+0x6765>
     6fa: 64 12        	stz	$12                     ; 0x2012 <main+0x1a93>
     6fc: 9c 10 d0     	stz	$d010                   ; 0xd010 <__heap_start+0x6774>
     6ff: a2 00        	ldx	#$0
     701: 64 13        	stz	$13                     ; 0x2013 <main+0x1a94>
     703: 86 16        	stx	$16                     ; 0x2016 <main+0x1a97>
     705: a4 16        	ldy	$16                     ; 0x2016 <main+0x1a97>
     707: b6 30        	ldx	$30,y                   ; 0x2030 <main+0x1ab1>
     709: 86 17        	stx	$17                     ; 0x2017 <main+0x1a98>
     70b: b6 31        	ldx	$31,y                   ; 0x2031 <main+0x1ab2>
     70d: 86 18        	stx	$18                     ; 0x2018 <main+0x1a99>
     70f: b6 32        	ldx	$32,y                   ; 0x2032 <main+0x1ab3>
     711: 86 19        	stx	$19                     ; 0x2019 <main+0x1a9a>
     713: a6 13        	ldx	$13                     ; 0x2013 <main+0x1a94>
     715: 8e 00 de     	stx	$de00                   ; 0xde00 <__heap_start+0x7564>
     718: 86 15        	stx	$15                     ; 0x2015 <main+0x1a96>
     71a: 9c 01 de     	stz	$de01                   ; 0xde01 <__heap_start+0x7565>
     71d: a2 04        	ldx	#$4
     71f: 8e 02 de     	stx	$de02                   ; 0xde02 <__heap_start+0x7566>
     722: 9c 03 de     	stz	$de03                   ; 0xde03 <__heap_start+0x7567>
     725: ad 10 de     	lda	$de10                   ; 0xde10 <__heap_start+0x7574>
     728: ac 11 de     	ldy	$de11                   ; 0xde11 <__heap_start+0x7575>
     72b: 84 13        	sty	$13                     ; 0x2013 <main+0x1a94>
     72d: ac 12 de     	ldy	$de12                   ; 0xde12 <__heap_start+0x7576>
     730: ac 13 de     	ldy	$de13                   ; 0xde13 <__heap_start+0x7577>
     733: 18           	clc
     734: 65 12        	adc	$12                     ; 0x2012 <main+0x1a93>
     736: 85 14        	sta	$14                     ; 0x2014 <main+0x1a95>
     738: a6 15        	ldx	$15                     ; 0x2015 <main+0x1a96>
     73a: a9 d8        	lda	#$d8
     73c: 65 13        	adc	$13                     ; 0x2013 <main+0x1a94>
     73e: 85 15        	sta	$15                     ; 0x2015 <main+0x1a96>
     740: a5 19        	lda	$19                     ; 0x2019 <main+0x1a9a>
     742: 92 14        	sta	($14)                   ; 0x2014 <main+0x1a95>
     744: a0 01        	ldy	#$1
     746: a5 18        	lda	$18                     ; 0x2018 <main+0x1a99>
     748: 91 14        	sta	($14),y                 ; 0x2014 <main+0x1a95>
     74a: c8           	iny
     74b: a5 17        	lda	$17                     ; 0x2017 <main+0x1a98>
     74d: 91 14        	sta	($14),y                 ; 0x2014 <main+0x1a95>
     74f: c8           	iny
     750: a9 ff        	lda	#$ff
     752: 91 14        	sta	($14),y                 ; 0x2014 <main+0x1a95>
     754: 8e 00 de     	stx	$de00                   ; 0xde00 <__heap_start+0x7564>
     757: 9c 01 de     	stz	$de01                   ; 0xde01 <__heap_start+0x7565>
     75a: c8           	iny
     75b: 8c 02 de     	sty	$de02                   ; 0xde02 <__heap_start+0x7566>
     75e: 9c 03 de     	stz	$de03                   ; 0xde03 <__heap_start+0x7567>
     761: ad 10 de     	lda	$de10                   ; 0xde10 <__heap_start+0x7574>
     764: 85 13        	sta	$13                     ; 0x2013 <main+0x1a94>
     766: ad 11 de     	lda	$de11                   ; 0xde11 <__heap_start+0x7575>
     769: 85 14        	sta	$14                     ; 0x2014 <main+0x1a95>
     76b: a9 40        	lda	#$40
     76d: 18           	clc
     76e: 65 13        	adc	$13                     ; 0x2013 <main+0x1a94>
     770: a8           	tay
     771: a9 d8        	lda	#$d8
     773: 65 14        	adc	$14                     ; 0x2014 <main+0x1a95>
     775: 85 15        	sta	$15                     ; 0x2015 <main+0x1a96>
     777: 84 14        	sty	$14                     ; 0x2014 <main+0x1a95>
     779: ad 12 de     	lda	$de12                   ; 0xde12 <__heap_start+0x7576>
     77c: ad 13 de     	lda	$de13                   ; 0xde13 <__heap_start+0x7577>
     77f: a5 19        	lda	$19                     ; 0x2019 <main+0x1a9a>
     781: 92 14        	sta	($14)                   ; 0x2014 <main+0x1a95>
     783: a5 18        	lda	$18                     ; 0x2018 <main+0x1a99>
     785: a0 01        	ldy	#$1
     787: 91 14        	sta	($14),y                 ; 0x2014 <main+0x1a95>
     789: a5 17        	lda	$17                     ; 0x2017 <main+0x1a98>
     78b: c8           	iny
     78c: 91 14        	sta	($14),y                 ; 0x2014 <main+0x1a95>
     78e: c8           	iny
     78f: a9 ff        	lda	#$ff
     791: 91 14        	sta	($14),y                 ; 0x2014 <main+0x1a95>
     793: e8           	inx
     794: 86 13        	stx	$13                     ; 0x2013 <main+0x1a94>
     796: 18           	clc
     797: a5 16        	lda	$16                     ; 0x2016 <main+0x1a97>
     799: 69 03        	adc	#$3
     79b: aa           	tax
     79c: c9 30        	cmp	#$30
     79e: f0 03        	beq	$7a3 <main+0x224>
     7a0: 4c 03 07     	jmp	$703 <main+0x184>
     7a3: a6 01        	ldx	$1                      ; 0x2001 <main+0x1a82>
     7a5: 86 16        	stx	$16                     ; 0x2016 <main+0x1a97>
     7a7: a2 50        	ldx	#$50
     7a9: 8e 00 de     	stx	$de00                   ; 0xde00 <__heap_start+0x7564>
     7ac: 9c 01 de     	stz	$de01                   ; 0xde01 <__heap_start+0x7565>
     7af: a2 1e        	ldx	#$1e
     7b1: 8e 02 de     	stx	$de02                   ; 0xde02 <__heap_start+0x7566>
     7b4: 9c 03 de     	stz	$de03                   ; 0xde03 <__heap_start+0x7567>
     7b7: ae 10 de     	ldx	$de10                   ; 0xde10 <__heap_start+0x7574>
     7ba: ac 11 de     	ldy	$de11                   ; 0xde11 <__heap_start+0x7575>
     7bd: ad 12 de     	lda	$de12                   ; 0xde12 <__heap_start+0x7576>
     7c0: ad 13 de     	lda	$de13                   ; 0xde13 <__heap_start+0x7577>
     7c3: a9 02        	lda	#$2
     7c5: 85 01        	sta	$1                      ; 0x2001 <main+0x1a82>
     7c7: e0 01        	cpx	#$1
     7c9: 98           	tya
     7ca: e9 00        	sbc	#$0
     7cc: 50 02        	bvc	$7d0 <main+0x251>
     7ce: 49 80        	eor	#$80
     7d0: c9 00        	cmp	#$0
     7d2: 10 03        	bpl	$7d7 <main+0x258>
     7d4: 4c 3a 08     	jmp	$83a <main+0x2bb>
     7d7: a9 20        	lda	#$20
     7d9: 86 17        	stx	$17                     ; 0x2017 <main+0x1a98>
     7db: 86 12        	stx	$12                     ; 0x2012 <main+0x1a93>
     7dd: 84 13        	sty	$13                     ; 0x2013 <main+0x1a94>
     7df: a2 00        	ldx	#$0
     7e1: 86 14        	stx	$14                     ; 0x2014 <main+0x1a95>
     7e3: a2 c0        	ldx	#$c0
     7e5: 86 15        	stx	$15                     ; 0x2015 <main+0x1a96>
     7e7: 80 04        	bra	$7ed <main+0x26e>
     7e9: a6 13        	ldx	$13                     ; 0x2013 <main+0x1a94>
     7eb: f0 14        	beq	$801 <main+0x282>
     7ed: 92 14        	sta	($14)                   ; 0x2014 <main+0x1a95>
     7ef: e6 14        	inc	$14                     ; 0x2014 <main+0x1a95>
     7f1: d0 02        	bne	$7f5 <main+0x276>
     7f3: e6 15        	inc	$15                     ; 0x2015 <main+0x1a96>
     7f5: a2 ff        	ldx	#$ff
     7f7: c6 12        	dec	$12                     ; 0x2012 <main+0x1a93>
     7f9: e4 12        	cpx	$12                     ; 0x2012 <main+0x1a93>
     7fb: d0 ec        	bne	$7e9 <main+0x26a>
     7fd: c6 13        	dec	$13                     ; 0x2013 <main+0x1a94>
     7ff: 80 e8        	bra	$7e9 <main+0x26a>
     801: a6 12        	ldx	$12                     ; 0x2012 <main+0x1a93>
     803: d0 e8        	bne	$7ed <main+0x26e>
     805: a2 03        	ldx	#$3
     807: 86 01        	stx	$1                      ; 0x2001 <main+0x1a82>
     809: a6 60        	ldx	$60                     ; 0x2060 <main+0x1ae1>
     80b: 86 14        	stx	$14                     ; 0x2014 <main+0x1a95>
     80d: a6 17        	ldx	$17                     ; 0x2017 <main+0x1a98>
     80f: a9 00        	lda	#$0
     811: 85 12        	sta	$12                     ; 0x2012 <main+0x1a93>
     813: a9 c0        	lda	#$c0
     815: 85 13        	sta	$13                     ; 0x2013 <main+0x1a94>
     817: 80 03        	bra	$81c <main+0x29d>
     819: 98           	tya
     81a: f0 19        	beq	$835 <main+0x2b6>
     81c: a5 14        	lda	$14                     ; 0x2014 <main+0x1a95>
     81e: 92 12        	sta	($12)                   ; 0x2012 <main+0x1a93>
     820: e6 12        	inc	$12                     ; 0x2012 <main+0x1a93>
     822: f0 07        	beq	$82b <main+0x2ac>
     824: ca           	dex
     825: e0 ff        	cpx	#$ff
     827: d0 f0        	bne	$819 <main+0x29a>
     829: 80 07        	bra	$832 <main+0x2b3>
     82b: e6 13        	inc	$13                     ; 0x2013 <main+0x1a94>
     82d: ca           	dex
     82e: e0 ff        	cpx	#$ff
     830: d0 e7        	bne	$819 <main+0x29a>
     832: 88           	dey
     833: 80 e4        	bra	$819 <main+0x29a>
     835: 8a           	txa
     836: d0 e4        	bne	$81c <main+0x29d>
     838: 80 04        	bra	$83e <main+0x2bf>
     83a: a2 03        	ldx	#$3
     83c: 86 01        	stx	$1                      ; 0x2001 <main+0x1a82>
     83e: a6 16        	ldx	$16                     ; 0x2016 <main+0x1a97>
     840: 86 01        	stx	$1                      ; 0x2001 <main+0x1a82>
     842: 64 61        	stz	$61                     ; 0x2061 <main+0x1ae2>
     844: 9c 14 d0     	stz	$d014                   ; 0xd014 <__heap_start+0x6778>
     847: 9c 15 d0     	stz	$d015                   ; 0xd015 <__heap_start+0x6779>
     84a: 64 62        	stz	$62                     ; 0x2062 <main+0x1ae3>
     84c: 9c 16 d0     	stz	$d016                   ; 0xd016 <__heap_start+0x677a>
     84f: 9c 17 d0     	stz	$d017                   ; 0xd017 <__heap_start+0x677b>
     852: a2 40        	ldx	#$40
     854: 8e 00 de     	stx	$de00                   ; 0xde00 <__heap_start+0x7564>
     857: a2 01        	ldx	#$1
     859: 8e 01 de     	stx	$de01                   ; 0xde01 <__heap_start+0x7565>
     85c: a2 f0        	ldx	#$f0
     85e: 8e 02 de     	stx	$de02                   ; 0xde02 <__heap_start+0x7566>
     861: 9c 03 de     	stz	$de03                   ; 0xde03 <__heap_start+0x7567>
     864: ae 10 de     	ldx	$de10                   ; 0xde10 <__heap_start+0x7574>
     867: 86 17        	stx	$17                     ; 0x2017 <main+0x1a98>
     869: ae 11 de     	ldx	$de11                   ; 0xde11 <__heap_start+0x7575>
     86c: 86 12        	stx	$12                     ; 0x2012 <main+0x1a93>
     86e: ae 12 de     	ldx	$de12                   ; 0xde12 <__heap_start+0x7576>
     871: 86 13        	stx	$13                     ; 0x2013 <main+0x1a94>
     873: ae 13 de     	ldx	$de13                   ; 0xde13 <__heap_start+0x7577>
     876: 86 14        	stx	$14                     ; 0x2014 <main+0x1a95>
     878: a4 12        	ldy	$12                     ; 0x2012 <main+0x1a93>
     87a: 84 15        	sty	$15                     ; 0x2015 <main+0x1a96>
     87c: 06 15        	asl	$15                     ; 0x2015 <main+0x1a96>
     87e: a5 13        	lda	$13                     ; 0x2013 <main+0x1a94>
     880: 2a           	rol
     881: 86 16        	stx	$16                     ; 0x2016 <main+0x1a97>
     883: 26 16        	rol	$16                     ; 0x2016 <main+0x1a97>
     885: 06 15        	asl	$15                     ; 0x2015 <main+0x1a96>
     887: 2a           	rol
     888: 26 16        	rol	$16                     ; 0x2016 <main+0x1a97>
     88a: 06 15        	asl	$15                     ; 0x2015 <main+0x1a96>
     88c: 2a           	rol
     88d: 26 16        	rol	$16                     ; 0x2016 <main+0x1a97>
     88f: 85 15        	sta	$15                     ; 0x2015 <main+0x1a96>
     891: 8d 00 de     	sta	$de00                   ; 0xde00 <__heap_start+0x7564>
     894: a5 16        	lda	$16                     ; 0x2016 <main+0x1a97>
     896: 8d 01 de     	sta	$de01                   ; 0xde01 <__heap_start+0x7565>
     899: 9c 02 de     	stz	$de02                   ; 0xde02 <__heap_start+0x7566>
     89c: a2 20        	ldx	#$20
     89e: 8e 03 de     	stx	$de03                   ; 0xde03 <__heap_start+0x7567>
     8a1: ae 10 de     	ldx	$de10                   ; 0xde10 <__heap_start+0x7574>
     8a4: 86 16        	stx	$16                     ; 0x2016 <main+0x1a97>
     8a6: ae 11 de     	ldx	$de11                   ; 0xde11 <__heap_start+0x7575>
     8a9: 86 18        	stx	$18                     ; 0x2018 <main+0x1a99>
     8ab: ac 12 de     	ldy	$de12                   ; 0xde12 <__heap_start+0x7576>
     8ae: ae 13 de     	ldx	$de13                   ; 0xde13 <__heap_start+0x7577>
     8b1: e4 14        	cpx	$14                     ; 0x2014 <main+0x1a95>
     8b3: d0 14        	bne	$8c9 <main+0x34a>
     8b5: c4 13        	cpy	$13                     ; 0x2013 <main+0x1a94>
     8b7: d0 10        	bne	$8c9 <main+0x34a>
     8b9: a6 18        	ldx	$18                     ; 0x2018 <main+0x1a99>
     8bb: e4 12        	cpx	$12                     ; 0x2012 <main+0x1a93>
     8bd: d0 0a        	bne	$8c9 <main+0x34a>
     8bf: a6 16        	ldx	$16                     ; 0x2016 <main+0x1a97>
     8c1: e4 17        	cpx	$17                     ; 0x2017 <main+0x1a98>
     8c3: d0 04        	bne	$8c9 <main+0x34a>
     8c5: a6 15        	ldx	$15                     ; 0x2015 <main+0x1a96>
     8c7: 80 06        	bra	$8cf <main+0x350>
     8c9: a6 15        	ldx	$15                     ; 0x2015 <main+0x1a96>
     8cb: e8           	inx
     8cc: d0 01        	bne	$8cf <main+0x350>
     8ce: 1a           	inc
     8cf: 8e 00 de     	stx	$de00                   ; 0xde00 <__heap_start+0x7564>
     8d2: 8d 01 de     	sta	$de01                   ; 0xde01 <__heap_start+0x7565>
     8d5: 9c 02 de     	stz	$de02                   ; 0xde02 <__heap_start+0x7566>
     8d8: a2 20        	ldx	#$20
     8da: 8e 03 de     	stx	$de03                   ; 0xde03 <__heap_start+0x7567>
     8dd: ae 10 de     	ldx	$de10                   ; 0xde10 <__heap_start+0x7574>
     8e0: 86 12        	stx	$12                     ; 0x2012 <main+0x1a93>
     8e2: ae 11 de     	ldx	$de11                   ; 0xde11 <__heap_start+0x7575>
     8e5: 86 13        	stx	$13                     ; 0x2013 <main+0x1a94>
     8e7: ae 12 de     	ldx	$de12                   ; 0xde12 <__heap_start+0x7576>
     8ea: 86 14        	stx	$14                     ; 0x2014 <main+0x1a95>
     8ec: ae 13 de     	ldx	$de13                   ; 0xde13 <__heap_start+0x7577>
     8ef: 86 15        	stx	$15                     ; 0x2015 <main+0x1a96>
     8f1: a9 00        	lda	#$0
     8f3: 38           	sec
     8f4: e5 12        	sbc	$12                     ; 0x2012 <main+0x1a93>
     8f6: 85 19        	sta	$19                     ; 0x2019 <main+0x1a9a>
     8f8: a9 00        	lda	#$0
     8fa: e5 13        	sbc	$13                     ; 0x2013 <main+0x1a94>
     8fc: aa           	tax
     8fd: a9 08        	lda	#$8
     8ff: e5 14        	sbc	$14                     ; 0x2014 <main+0x1a95>
     901: 85 16        	sta	$16                     ; 0x2016 <main+0x1a97>
     903: a9 00        	lda	#$0
     905: e5 15        	sbc	$15                     ; 0x2015 <main+0x1a96>
     907: 86 64        	stx	$64                     ; 0x2064 <main+0x1ae5>
     909: a4 16        	ldy	$16                     ; 0x2016 <main+0x1a97>
     90b: 84 65        	sty	$65                     ; 0x2065 <main+0x1ae6>
     90d: 85 66        	sta	$66                     ; 0x2066 <main+0x1ae7>
     90f: a8           	tay
     910: a5 19        	lda	$19                     ; 0x2019 <main+0x1a9a>
     912: 38           	sec
     913: e5 12        	sbc	$12                     ; 0x2012 <main+0x1a93>
     915: 85 18        	sta	$18                     ; 0x2018 <main+0x1a99>
     917: 8a           	txa
     918: e5 13        	sbc	$13                     ; 0x2013 <main+0x1a94>
     91a: 85 1c        	sta	$1c                     ; 0x201c <main+0x1a9d>
     91c: a5 16        	lda	$16                     ; 0x2016 <main+0x1a97>
     91e: e5 14        	sbc	$14                     ; 0x2014 <main+0x1a95>
     920: 85 16        	sta	$16                     ; 0x2016 <main+0x1a97>
     922: 98           	tya
     923: e5 15        	sbc	$15                     ; 0x2015 <main+0x1a96>
     925: 85 17        	sta	$17                     ; 0x2017 <main+0x1a98>
     927: 38           	sec
     928: a4 18        	ldy	$18                     ; 0x2018 <main+0x1a99>
     92a: 84 67        	sty	$67                     ; 0x2067 <main+0x1ae8>
     92c: a6 1c        	ldx	$1c                     ; 0x201c <main+0x1a9d>
     92e: 86 68        	stx	$68                     ; 0x2068 <main+0x1ae9>
     930: a4 16        	ldy	$16                     ; 0x2016 <main+0x1a97>
     932: 84 69        	sty	$69                     ; 0x2069 <main+0x1aea>
     934: 85 6a        	sta	$6a                     ; 0x206a <main+0x1aeb>
     936: a5 18        	lda	$18                     ; 0x2018 <main+0x1a99>
     938: e5 12        	sbc	$12                     ; 0x2012 <main+0x1a93>
     93a: 85 18        	sta	$18                     ; 0x2018 <main+0x1a99>
     93c: a5 1c        	lda	$1c                     ; 0x201c <main+0x1a9d>
     93e: e5 13        	sbc	$13                     ; 0x2013 <main+0x1a94>
     940: a8           	tay
     941: a5 16        	lda	$16                     ; 0x2016 <main+0x1a97>
     943: e5 14        	sbc	$14                     ; 0x2014 <main+0x1a95>
     945: 85 12        	sta	$12                     ; 0x2012 <main+0x1a93>
     947: a5 17        	lda	$17                     ; 0x2017 <main+0x1a98>
     949: e5 15        	sbc	$15                     ; 0x2015 <main+0x1a96>
     94b: a6 18        	ldx	$18                     ; 0x2018 <main+0x1a99>
     94d: 86 6b        	stx	$6b                     ; 0x206b <main+0x1aec>
     94f: 84 6c        	sty	$6c                     ; 0x206c <main+0x1aed>
     951: a6 19        	ldx	$19                     ; 0x2019 <main+0x1a9a>
     953: 86 63        	stx	$63                     ; 0x2063 <main+0x1ae4>
     955: a4 12        	ldy	$12                     ; 0x2012 <main+0x1a93>
     957: 84 6d        	sty	$6d                     ; 0x206d <main+0x1aee>
     959: 85 6e        	sta	$6e                     ; 0x206e <main+0x1aef>
     95b: 8e 01 d1     	stx	$d101                   ; 0xd101 <__heap_start+0x6865>
     95e: a6 64        	ldx	$64                     ; 0x2064 <main+0x1ae5>
     960: 8e 02 d1     	stx	$d102                   ; 0xd102 <__heap_start+0x6866>
     963: a6 65        	ldx	$65                     ; 0x2065 <main+0x1ae6>
     965: 8e 03 d1     	stx	$d103                   ; 0xd103 <__heap_start+0x6867>
     968: a6 67        	ldx	$67                     ; 0x2067 <main+0x1ae8>
     96a: 8e 09 d1     	stx	$d109                   ; 0xd109 <__heap_start+0x686d>
     96d: a6 68        	ldx	$68                     ; 0x2068 <main+0x1ae9>
     96f: 8e 0a d1     	stx	$d10a                   ; 0xd10a <__heap_start+0x686e>
     972: a6 69        	ldx	$69                     ; 0x2069 <main+0x1aea>
     974: 8e 0b d1     	stx	$d10b                   ; 0xd10b <__heap_start+0x686f>
     977: a6 6b        	ldx	$6b                     ; 0x206b <main+0x1aec>
     979: 8e 11 d1     	stx	$d111                   ; 0xd111 <__heap_start+0x6875>
     97c: a6 6c        	ldx	$6c                     ; 0x206c <main+0x1aed>
     97e: 8e 12 d1     	stx	$d112                   ; 0xd112 <__heap_start+0x6876>
     981: a6 6d        	ldx	$6d                     ; 0x206d <main+0x1aee>
     983: 8e 13 d1     	stx	$d113                   ; 0xd113 <__heap_start+0x6877>
     986: 9c 00 d1     	stz	$d100                   ; 0xd100 <__heap_start+0x6864>
     989: 9c 08 d1     	stz	$d108                   ; 0xd108 <__heap_start+0x686c>
     98c: 9c 10 d1     	stz	$d110                   ; 0xd110 <__heap_start+0x6874>
     98f: a2 10        	ldx	#$10
     991: 8e 00 d2     	stx	$d200                   ; 0xd200 <__heap_start+0x6964>
     994: 8e 0c d2     	stx	$d20c                   ; 0xd20c <__heap_start+0x6970>
     997: 8e 18 d2     	stx	$d218                   ; 0xd218 <__heap_start+0x697c>
     99a: a0 d9        	ldy	#$d9
     99c: a2 40        	ldx	#$40
     99e: 64 12        	stz	$12                     ; 0x2012 <main+0x1a93>
     9a0: 84 13        	sty	$13                     ; 0x2013 <main+0x1a94>
     9a2: a9 00        	lda	#$0
     9a4: 92 12        	sta	($12)                   ; 0x2012 <main+0x1a93>
     9a6: ca           	dex
     9a7: 18           	clc
     9a8: a5 12        	lda	$12                     ; 0x2012 <main+0x1a93>
     9aa: 69 08        	adc	#$8
     9ac: 85 12        	sta	$12                     ; 0x2012 <main+0x1a93>
     9ae: 98           	tya
     9af: 69 00        	adc	#$0
     9b1: a8           	tay
     9b2: 8a           	txa
     9b3: d0 eb        	bne	$9a0 <main+0x421>
     9b5: 18           	clc
     9b6: a5 10        	lda	$10                     ; 0x2010 <main+0x1a91>
     9b8: 69 15        	adc	#$15
     9ba: 85 2e        	sta	$2e                     ; 0x202e <main+0x1aaf>
     9bc: a5 11        	lda	$11                     ; 0x2011 <main+0x1a92>
     9be: 69 00        	adc	#$0
     9c0: 85 2f        	sta	$2f                     ; 0x202f <main+0x1ab0>
     9c2: a6 2e        	ldx	$2e                     ; 0x202e <main+0x1aaf>
     9c4: 86 fb        	stx	$fb                     ; 0x20fb <main+0x1b7c>
     9c6: 85 fc        	sta	$fc                     ; 0x20fc <main+0x1b7d>
     9c8: a2 08        	ldx	#$8
     9ca: 86 fd        	stx	$fd                     ; 0x20fd <main+0x1b7e>
     9cc: 18           	clc
     9cd: a5 10        	lda	$10                     ; 0x2010 <main+0x1a91>
     9cf: 69 14        	adc	#$14
     9d1: 85 2c        	sta	$2c                     ; 0x202c <main+0x1aad>
     9d3: a5 11        	lda	$11                     ; 0x2011 <main+0x1a92>
     9d5: 69 01        	adc	#$1
     9d7: 85 2d        	sta	$2d                     ; 0x202d <main+0x1aae>
     9d9: a2 85        	ldx	#$85
     9db: 86 12        	stx	$12                     ; 0x2012 <main+0x1a93>
     9dd: a2 00        	ldx	#$0
     9df: 86 13        	stx	$13                     ; 0x2013 <main+0x1a94>
     9e1: a0 06        	ldy	#$6
     9e3: 20 dc ff     	jsr	$ffdc <__heap_start+0x9740>
     9e6: 92 2c        	sta	($2c)                   ; 0x202c <main+0x1aad>
     9e8: a9 00        	lda	#$0
     9ea: 6a           	ror
     9eb: 85 12        	sta	$12                     ; 0x2012 <main+0x1a93>
     9ed: b1 2e        	lda	($2e),y                 ; 0x202e <main+0x1aaf>
     9ef: 85 12        	sta	$12                     ; 0x2012 <main+0x1a93>
     9f1: c8           	iny
     9f2: b1 2e        	lda	($2e),y                 ; 0x202e <main+0x1aaf>
     9f4: a6 12        	ldx	$12                     ; 0x2012 <main+0x1a93>
     9f6: 8e 00 de     	stx	$de00                   ; 0xde00 <__heap_start+0x7564>
     9f9: 9c 01 de     	stz	$de01                   ; 0xde01 <__heap_start+0x7565>
     9fc: 8d 02 de     	sta	$de02                   ; 0xde02 <__heap_start+0x7566>
     9ff: 9c 03 de     	stz	$de03                   ; 0xde03 <__heap_start+0x7567>
     a02: ae 10 de     	ldx	$de10                   ; 0xde10 <__heap_start+0x7574>
     a05: ac 11 de     	ldy	$de11                   ; 0xde11 <__heap_start+0x7575>
     a08: ad 12 de     	lda	$de12                   ; 0xde12 <__heap_start+0x7576>
     a0b: ad 13 de     	lda	$de13                   ; 0xde13 <__heap_start+0x7577>
     a0e: 8e a4 d6     	stx	$d6a4                   ; 0xd6a4 <__heap_start+0x6e08>
     a11: 8c a5 d6     	sty	$d6a5                   ; 0xd6a5 <__heap_start+0x6e09>
     a14: a2 03        	ldx	#$3
     a16: 8e a6 d6     	stx	$d6a6                   ; 0xd6a6 <__heap_start+0x6e0a>
     a19: a6 fa        	ldx	$fa                     ; 0x20fa <main+0x1b7b>
     a1b: 86 1e        	stx	$1e                     ; 0x201e <main+0x1a9f>
     a1d: a6 f8        	ldx	$f8                     ; 0x20f8 <main+0x1b79>
     a1f: a4 f9        	ldy	$f9                     ; 0x20f9 <main+0x1b7a>
     a21: 8a           	txa
     a22: 5a           	phy
     a23: a0 14        	ldy	#$14
     a25: 91 10        	sta	($10),y                 ; 0x2010 <main+0x1a91>
     a27: 7a           	ply
     a28: 86 1c        	stx	$1c                     ; 0x201c <main+0x1a9d>
     a2a: 98           	tya
     a2b: 5a           	phy
     a2c: a0 13        	ldy	#$13
     a2e: 91 10        	sta	($10),y                 ; 0x2010 <main+0x1a91>
     a30: 7a           	ply
     a31: 84 1d        	sty	$1d                     ; 0x201d <main+0x1a9e>
     a33: a2 1f        	ldx	#$1f
     a35: 8e 20 d6     	stx	$d620                   ; 0xd620 <__heap_start+0x6d84>
     a38: a2 2a        	ldx	#$2a
     a3a: 8e 21 d6     	stx	$d621                   ; 0xd621 <__heap_start+0x6d85>
     a3d: a2 01        	ldx	#$1
     a3f: 8e 22 d6     	stx	$d622                   ; 0xd622 <__heap_start+0x6d86>
     a42: ad 22 d6     	lda	$d622                   ; 0xd622 <__heap_start+0x6d86>
     a45: 29 01        	and	#$1
     a47: d0 f9        	bne	$a42 <main+0x4c3>
     a49: 64 84        	stz	$84                     ; 0x2084 <main+0x1b05>
     a4b: 64 01        	stz	$1                      ; 0x2001 <main+0x1a82>
     a4d: a2 01        	ldx	#$1
     a4f: 8e 00 d0     	stx	$d000                   ; 0xd000 <__heap_start+0x6764>
     a52: a0 04        	ldy	#$4
     a54: 8c 01 d0     	sty	$d001                   ; 0xd001 <__heap_start+0x6765>
     a57: ad a7 d6     	lda	$d6a7                   ; 0xd6a7 <__heap_start+0x6e0b>
     a5a: 29 3f        	and	#$3f
     a5c: c9 22        	cmp	#$22
     a5e: f0 07        	beq	$a67 <main+0x4e8>
     a60: c9 11        	cmp	#$11
     a62: f0 03        	beq	$a67 <main+0x4e8>
     a64: 4c 18 0c     	jmp	$c18 <main+0x699>
     a67: a0 03        	ldy	#$3
     a69: 8c 01 d7     	sty	$d701                   ; 0xd701 <__heap_start+0x6e65>
     a6c: 9c 02 d7     	stz	$d702                   ; 0xd702 <__heap_start+0x6e66>
     a6f: 9c 02 d7     	stz	$d702                   ; 0xd702 <__heap_start+0x6e66>
     a72: a0 e0        	ldy	#$e0
     a74: 8c 03 d7     	sty	$d703                   ; 0xd703 <__heap_start+0x6e67>
     a77: 8e 00 d7     	stx	$d700                   ; 0xd700 <__heap_start+0x6e64>
     a7a: 9c 00 d7     	stz	$d700                   ; 0xd700 <__heap_start+0x6e64>
     a7d: ae 00 d7     	ldx	$d700                   ; 0xd700 <__heap_start+0x6e64>
     a80: 30 fb        	bmi	$a7d <main+0x4fe>
     a82: 64 12        	stz	$12                     ; 0x2012 <main+0x1a93>
     a84: a0 01        	ldy	#$1
     a86: a2 00        	ldx	#$0
     a88: a5 12        	lda	$12                     ; 0x2012 <main+0x1a93>
     a8a: 85 14        	sta	$14                     ; 0x2014 <main+0x1a95>
     a8c: a5 12        	lda	$12                     ; 0x2012 <main+0x1a93>
     a8e: 0a           	asl
     a8f: 85 12        	sta	$12                     ; 0x2012 <main+0x1a93>
     a91: 8a           	txa
     a92: 2a           	rol
     a93: 85 13        	sta	$13                     ; 0x2013 <main+0x1a94>
     a95: a9 63        	lda	#$63
     a97: 18           	clc
     a98: 65 12        	adc	$12                     ; 0x2012 <main+0x1a93>
     a9a: 85 12        	sta	$12                     ; 0x2012 <main+0x1a93>
     a9c: a9 68        	lda	#$68
     a9e: 65 13        	adc	$13                     ; 0x2013 <main+0x1a94>
     aa0: 85 15        	sta	$15                     ; 0x2015 <main+0x1a96>
     aa2: a5 12        	lda	$12                     ; 0x2012 <main+0x1a93>
     aa4: 85 17        	sta	$17                     ; 0x2017 <main+0x1a98>
     aa6: a5 15        	lda	$15                     ; 0x2015 <main+0x1a96>
     aa8: 85 13        	sta	$13                     ; 0x2013 <main+0x1a94>
     aaa: b2 12        	lda	($12)                   ; 0x2012 <main+0x1a93>
     aac: 85 16        	sta	$16                     ; 0x2016 <main+0x1a97>
     aae: a5 14        	lda	$14                     ; 0x2014 <main+0x1a95>
     ab0: 85 1f        	sta	$1f                     ; 0x201f <main+0x1aa0>
     ab2: a5 14        	lda	$14                     ; 0x2014 <main+0x1a95>
     ab4: 18           	clc
     ab5: 69 02        	adc	#$2
     ab7: 85 18        	sta	$18                     ; 0x2018 <main+0x1a99>
     ab9: 86 19        	stx	$19                     ; 0x2019 <main+0x1a9a>
     abb: 8a           	txa
     abc: 69 00        	adc	#$0
     abe: aa           	tax
     abf: 18           	clc
     ac0: a5 17        	lda	$17                     ; 0x2017 <main+0x1a98>
     ac2: 69 02        	adc	#$2
     ac4: 85 14        	sta	$14                     ; 0x2014 <main+0x1a95>
     ac6: a5 15        	lda	$15                     ; 0x2015 <main+0x1a96>
     ac8: 69 00        	adc	#$0
     aca: 85 15        	sta	$15                     ; 0x2015 <main+0x1a96>
     acc: b1 12        	lda	($12),y                 ; 0x2012 <main+0x1a93>
     ace: 85 17        	sta	$17                     ; 0x2017 <main+0x1a98>
     ad0: a0 02        	ldy	#$2
     ad2: b1 12        	lda	($12),y                 ; 0x2012 <main+0x1a93>
     ad4: 85 13        	sta	$13                     ; 0x2013 <main+0x1a94>
     ad6: 88           	dey
     ad7: b1 14        	lda	($14),y                 ; 0x2014 <main+0x1a95>
     ad9: 10 03        	bpl	$ade <main+0x55f>
     adb: 4c 7e 0b     	jmp	$b7e <main+0x5ff>
     ade: 85 12        	sta	$12                     ; 0x2012 <main+0x1a93>
     ae0: 85 15        	sta	$15                     ; 0x2015 <main+0x1a96>
     ae2: a5 13        	lda	$13                     ; 0x2013 <main+0x1a94>
     ae4: e6 12        	inc	$12                     ; 0x2012 <main+0x1a93>
     ae6: c6 12        	dec	$12                     ; 0x2012 <main+0x1a93>
     ae8: d0 16        	bne	$b00 <main+0x581>
     aea: c9 00        	cmp	#$0
     aec: d0 12        	bne	$b00 <main+0x581>
     aee: 4c 69 0b     	jmp	$b69 <main+0x5ea>
     af1: a5 12        	lda	$12                     ; 0x2012 <main+0x1a93>
     af3: 85 15        	sta	$15                     ; 0x2015 <main+0x1a96>
     af5: a5 14        	lda	$14                     ; 0x2014 <main+0x1a95>
     af7: 85 13        	sta	$13                     ; 0x2013 <main+0x1a94>
     af9: a5 12        	lda	$12                     ; 0x2012 <main+0x1a93>
     afb: d0 03        	bne	$b00 <main+0x581>
     afd: 4c 62 0b     	jmp	$b62 <main+0x5e3>
     b00: a5 13        	lda	$13                     ; 0x2013 <main+0x1a94>
     b02: 85 14        	sta	$14                     ; 0x2014 <main+0x1a95>
     b04: a5 18        	lda	$18                     ; 0x2018 <main+0x1a99>
     b06: 85 19        	sta	$19                     ; 0x2019 <main+0x1a9a>
     b08: a5 18        	lda	$18                     ; 0x2018 <main+0x1a99>
     b0a: 0a           	asl
     b0b: 85 12        	sta	$12                     ; 0x2012 <main+0x1a93>
     b0d: 86 18        	stx	$18                     ; 0x2018 <main+0x1a99>
     b0f: 8a           	txa
     b10: 2a           	rol
     b11: 85 13        	sta	$13                     ; 0x2013 <main+0x1a94>
     b13: a9 63        	lda	#$63
     b15: 18           	clc
     b16: 65 12        	adc	$12                     ; 0x2012 <main+0x1a93>
     b18: 85 12        	sta	$12                     ; 0x2012 <main+0x1a93>
     b1a: a9 68        	lda	#$68
     b1c: 65 13        	adc	$13                     ; 0x2013 <main+0x1a94>
     b1e: 85 13        	sta	$13                     ; 0x2013 <main+0x1a94>
     b20: b2 12        	lda	($12)                   ; 0x2012 <main+0x1a93>
     b22: 85 1f        	sta	$1f                     ; 0x201f <main+0x1aa0>
     b24: b1 12        	lda	($12),y                 ; 0x2012 <main+0x1a93>
     b26: a6 16        	ldx	$16                     ; 0x2016 <main+0x1a97>
     b28: 8e 01 d7     	stx	$d701                   ; 0xd701 <__heap_start+0x6e65>
     b2b: a6 17        	ldx	$17                     ; 0x2017 <main+0x1a98>
     b2d: 8e 02 d7     	stx	$d702                   ; 0xd702 <__heap_start+0x6e66>
     b30: a6 1f        	ldx	$1f                     ; 0x201f <main+0x1aa0>
     b32: 8e 02 d7     	stx	$d702                   ; 0xd702 <__heap_start+0x6e66>
     b35: 8d 03 d7     	sta	$d703                   ; 0xd703 <__heap_start+0x6e67>
     b38: 8c 00 d7     	sty	$d700                   ; 0xd700 <__heap_start+0x6e64>
     b3b: 9c 00 d7     	stz	$d700                   ; 0xd700 <__heap_start+0x6e64>
     b3e: ae 00 d7     	ldx	$d700                   ; 0xd700 <__heap_start+0x6e64>
     b41: 30 fb        	bmi	$b3e <main+0x5bf>
     b43: a6 15        	ldx	$15                     ; 0x2015 <main+0x1a96>
     b45: 86 12        	stx	$12                     ; 0x2012 <main+0x1a93>
     b47: a2 ff        	ldx	#$ff
     b49: c6 14        	dec	$14                     ; 0x2014 <main+0x1a95>
     b4b: e4 14        	cpx	$14                     ; 0x2014 <main+0x1a95>
     b4d: d0 02        	bne	$b51 <main+0x5d2>
     b4f: c6 12        	dec	$12                     ; 0x2012 <main+0x1a93>
     b51: a6 18        	ldx	$18                     ; 0x2018 <main+0x1a99>
     b53: a5 19        	lda	$19                     ; 0x2019 <main+0x1a9a>
     b55: 85 18        	sta	$18                     ; 0x2018 <main+0x1a99>
     b57: e6 18        	inc	$18                     ; 0x2018 <main+0x1a99>
     b59: f0 03        	beq	$b5e <main+0x5df>
     b5b: 4c f1 0a     	jmp	$af1 <main+0x572>
     b5e: e8           	inx
     b5f: 4c f1 0a     	jmp	$af1 <main+0x572>
     b62: a5 14        	lda	$14                     ; 0x2014 <main+0x1a95>
     b64: f0 03        	beq	$b69 <main+0x5ea>
     b66: 4c 00 0b     	jmp	$b00 <main+0x581>
     b69: a5 18        	lda	$18                     ; 0x2018 <main+0x1a99>
     b6b: e0 00        	cpx	#$0
     b6d: f0 03        	beq	$b72 <main+0x5f3>
     b6f: 4c 0f 0c     	jmp	$c0f <main+0x690>
     b72: c9 1c        	cmp	#$1c
     b74: 85 12        	sta	$12                     ; 0x2012 <main+0x1a93>
     b76: b0 03        	bcs	$b7b <main+0x5fc>
     b78: 4c 88 0a     	jmp	$a88 <main+0x509>
     b7b: 4c 18 0c     	jmp	$c18 <main+0x699>
     b7e: 29 7f        	and	#$7f
     b80: 85 22        	sta	$22                     ; 0x2022 <main+0x1aa3>
     b82: 18           	clc
     b83: a5 1f        	lda	$1f                     ; 0x201f <main+0x1aa0>
     b85: 69 03        	adc	#$3
     b87: 85 15        	sta	$15                     ; 0x2015 <main+0x1a96>
     b89: a5 19        	lda	$19                     ; 0x2019 <main+0x1a9a>
     b8b: 69 00        	adc	#$0
     b8d: 5a           	phy
     b8e: a4 13        	ldy	$13                     ; 0x2013 <main+0x1a94>
     b90: 84 1f        	sty	$1f                     ; 0x201f <main+0x1aa0>
     b92: 7a           	ply
     b93: e6 22        	inc	$22                     ; 0x2022 <main+0x1aa3>
     b95: c6 22        	dec	$22                     ; 0x2022 <main+0x1aa3>
     b97: d0 09        	bne	$ba2 <main+0x623>
     b99: e6 1f        	inc	$1f                     ; 0x201f <main+0x1aa0>
     b9b: c6 1f        	dec	$1f                     ; 0x201f <main+0x1aa0>
     b9d: d0 03        	bne	$ba2 <main+0x623>
     b9f: 4c d3 18     	jmp	$18d3 <main+0x1354>
     ba2: 5a           	phy
     ba3: a4 22        	ldy	$22                     ; 0x2022 <main+0x1aa3>
     ba5: 84 14        	sty	$14                     ; 0x2014 <main+0x1a95>
     ba7: 7a           	ply
     ba8: 85 19        	sta	$19                     ; 0x2019 <main+0x1a9a>
     baa: a5 18        	lda	$18                     ; 0x2018 <main+0x1a99>
     bac: 85 12        	sta	$12                     ; 0x2012 <main+0x1a93>
     bae: 06 12        	asl	$12                     ; 0x2012 <main+0x1a93>
     bb0: 86 13        	stx	$13                     ; 0x2013 <main+0x1a94>
     bb2: 26 13        	rol	$13                     ; 0x2013 <main+0x1a94>
     bb4: 18           	clc
     bb5: a9 63        	lda	#$63
     bb7: 65 12        	adc	$12                     ; 0x2012 <main+0x1a93>
     bb9: 85 12        	sta	$12                     ; 0x2012 <main+0x1a93>
     bbb: a9 68        	lda	#$68
     bbd: 65 13        	adc	$13                     ; 0x2013 <main+0x1a94>
     bbf: 85 13        	sta	$13                     ; 0x2013 <main+0x1a94>
     bc1: b2 12        	lda	($12)                   ; 0x2012 <main+0x1a93>
     bc3: 85 18        	sta	$18                     ; 0x2018 <main+0x1a99>
     bc5: b1 12        	lda	($12),y                 ; 0x2012 <main+0x1a93>
     bc7: 80 06        	bra	$bcf <main+0x650>
     bc9: a6 12        	ldx	$12                     ; 0x2012 <main+0x1a93>
     bcb: 86 14        	stx	$14                     ; 0x2014 <main+0x1a95>
     bcd: f0 2d        	beq	$bfc <main+0x67d>
     bcf: a6 16        	ldx	$16                     ; 0x2016 <main+0x1a97>
     bd1: 8e 01 d7     	stx	$d701                   ; 0xd701 <__heap_start+0x6e65>
     bd4: a6 17        	ldx	$17                     ; 0x2017 <main+0x1a98>
     bd6: 8e 02 d7     	stx	$d702                   ; 0xd702 <__heap_start+0x6e66>
     bd9: a6 18        	ldx	$18                     ; 0x2018 <main+0x1a99>
     bdb: 8e 02 d7     	stx	$d702                   ; 0xd702 <__heap_start+0x6e66>
     bde: 8d 03 d7     	sta	$d703                   ; 0xd703 <__heap_start+0x6e67>
     be1: 8c 00 d7     	sty	$d700                   ; 0xd700 <__heap_start+0x6e64>
     be4: 9c 00 d7     	stz	$d700                   ; 0xd700 <__heap_start+0x6e64>
     be7: ae 00 d7     	ldx	$d700                   ; 0xd700 <__heap_start+0x6e64>
     bea: 30 fb        	bmi	$be7 <main+0x668>
     bec: a6 14        	ldx	$14                     ; 0x2014 <main+0x1a95>
     bee: 86 12        	stx	$12                     ; 0x2012 <main+0x1a93>
     bf0: a2 ff        	ldx	#$ff
     bf2: c6 1f        	dec	$1f                     ; 0x201f <main+0x1aa0>
     bf4: e4 1f        	cpx	$1f                     ; 0x201f <main+0x1aa0>
     bf6: d0 d1        	bne	$bc9 <main+0x64a>
     bf8: c6 12        	dec	$12                     ; 0x2012 <main+0x1a93>
     bfa: 80 cd        	bra	$bc9 <main+0x64a>
     bfc: a6 1f        	ldx	$1f                     ; 0x201f <main+0x1aa0>
     bfe: d0 cf        	bne	$bcf <main+0x650>
     c00: a6 15        	ldx	$15                     ; 0x2015 <main+0x1a96>
     c02: 86 18        	stx	$18                     ; 0x2018 <main+0x1a99>
     c04: a6 19        	ldx	$19                     ; 0x2019 <main+0x1a9a>
     c06: a5 18        	lda	$18                     ; 0x2018 <main+0x1a99>
     c08: e0 00        	cpx	#$0
     c0a: d0 03        	bne	$c0f <main+0x690>
     c0c: 4c 72 0b     	jmp	$b72 <main+0x5f3>
     c0f: e0 00        	cpx	#$0
     c11: 85 12        	sta	$12                     ; 0x2012 <main+0x1a93>
     c13: b0 03        	bcs	$c18 <main+0x699>
     c15: 4c 88 0a     	jmp	$a88 <main+0x509>
     c18: a5 8d        	lda	$8d                     ; 0x208d <main+0x1b0e>
     c1a: 29 01        	and	#$1
     c1c: a6 91        	ldx	$91                     ; 0x2091 <main+0x1b12>
     c1e: a4 92        	ldy	$92                     ; 0x2092 <main+0x1b13>
     c20: 86 16        	stx	$16                     ; 0x2016 <main+0x1a97>
     c22: 86 12        	stx	$12                     ; 0x2012 <main+0x1a93>
     c24: 84 13        	sty	$13                     ; 0x2013 <main+0x1a94>
     c26: aa           	tax
     c27: f0 1b        	beq	$c44 <main+0x6c5>
     c29: a2 00        	ldx	#$0
     c2b: 86 14        	stx	$14                     ; 0x2014 <main+0x1a95>
     c2d: a2 00        	ldx	#$0
     c2f: 86 15        	stx	$15                     ; 0x2015 <main+0x1a96>
     c31: c4 15        	cpy	$15                     ; 0x2015 <main+0x1a96>
     c33: f0 03        	beq	$c38 <main+0x6b9>
     c35: 4c 56 0d     	jmp	$d56 <main+0x7d7>
     c38: a6 16        	ldx	$16                     ; 0x2016 <main+0x1a97>
     c3a: e4 14        	cpx	$14                     ; 0x2014 <main+0x1a95>
     c3c: f0 03        	beq	$c41 <main+0x6c2>
     c3e: 4c 56 0d     	jmp	$d56 <main+0x7d7>
     c41: 4c 9b 0d     	jmp	$d9b <main+0x81c>
     c44: a2 10        	ldx	#$10
     c46: 86 14        	stx	$14                     ; 0x2014 <main+0x1a95>
     c48: a9 00        	lda	#$0
     c4a: 29 fe        	and	#$fe
     c4c: 85 15        	sta	$15                     ; 0x2015 <main+0x1a96>
     c4e: a9 01        	lda	#$1
     c50: 2d 9c 68     	and	$689c                   ; 0x689c <__heap_start>
     c53: 05 15        	ora	$15                     ; 0x2015 <main+0x1a96>
     c55: 8d 9c 68     	sta	$689c                   ; 0x689c <__heap_start>
     c58: 8e 9d 68     	stx	$689d                   ; 0x689d <__heap_start+0x1>
     c5b: a9 9c        	lda	#$9c
     c5d: 18           	clc
     c5e: 65 15        	adc	$15                     ; 0x2015 <main+0x1a96>
     c60: aa           	tax
     c61: a9 68        	lda	#$68
     c63: 65 14        	adc	$14                     ; 0x2014 <main+0x1a95>
     c65: 85 14        	sta	$14                     ; 0x2014 <main+0x1a95>
     c67: 18           	clc
     c68: 8a           	txa
     c69: 69 fe        	adc	#$fe
     c6b: aa           	tax
     c6c: a5 14        	lda	$14                     ; 0x2014 <main+0x1a95>
     c6e: 69 ff        	adc	#$ff
     c70: 85 15        	sta	$15                     ; 0x2015 <main+0x1a96>
     c72: 86 14        	stx	$14                     ; 0x2014 <main+0x1a95>
     c74: a9 00        	lda	#$0
     c76: 92 14        	sta	($14)                   ; 0x2014 <main+0x1a95>
     c78: 5a           	phy
     c79: fa           	plx
     c7a: a0 01        	ldy	#$1
     c7c: a9 10        	lda	#$10
     c7e: 91 14        	sta	($14),y                 ; 0x2014 <main+0x1a95>
     c80: ac 9d 68     	ldy	$689d                   ; 0x689d <__heap_start+0x1>
     c83: 84 19        	sty	$19                     ; 0x2019 <main+0x1a9a>
     c85: a9 fe        	lda	#$fe
     c87: 2d 9c 68     	and	$689c                   ; 0x689c <__heap_start>
     c8a: a4 90        	ldy	$90                     ; 0x2090 <main+0x1b11>
     c8c: 84 14        	sty	$14                     ; 0x2014 <main+0x1a95>
     c8e: 18           	clc
     c8f: 85 18        	sta	$18                     ; 0x2018 <main+0x1a99>
     c91: 65 8f        	adc	$8f                     ; 0x208f <main+0x1b10>
     c93: a8           	tay
     c94: a5 14        	lda	$14                     ; 0x2014 <main+0x1a95>
     c96: 6d 9d 68     	adc	$689d                   ; 0x689d <__heap_start+0x1>
     c99: 85 14        	sta	$14                     ; 0x2014 <main+0x1a95>
     c9b: 18           	clc
     c9c: 98           	tya
     c9d: 69 fe        	adc	#$fe
     c9f: 85 15        	sta	$15                     ; 0x2015 <main+0x1a96>
     ca1: a5 14        	lda	$14                     ; 0x2014 <main+0x1a95>
     ca3: 69 ff        	adc	#$ff
     ca5: a4 15        	ldy	$15                     ; 0x2015 <main+0x1a96>
     ca7: 84 8f        	sty	$8f                     ; 0x208f <main+0x1b10>
     ca9: 85 90        	sta	$90                     ; 0x2090 <main+0x1b11>
     cab: a0 00        	ldy	#$0
     cad: 84 14        	sty	$14                     ; 0x2014 <main+0x1a95>
     caf: a0 00        	ldy	#$0
     cb1: 84 15        	sty	$15                     ; 0x2015 <main+0x1a96>
     cb3: 8a           	txa
     cb4: e4 15        	cpx	$15                     ; 0x2015 <main+0x1a96>
     cb6: d0 25        	bne	$cdd <main+0x75e>
     cb8: a6 16        	ldx	$16                     ; 0x2016 <main+0x1a97>
     cba: e4 14        	cpx	$14                     ; 0x2014 <main+0x1a95>
     cbc: d0 1f        	bne	$cdd <main+0x75e>
     cbe: a2 9c        	ldx	#$9c
     cc0: a9 68        	lda	#$68
     cc2: a0 9c        	ldy	#$9c
     cc4: 84 12        	sty	$12                     ; 0x2012 <main+0x1a93>
     cc6: a0 68        	ldy	#$68
     cc8: 84 13        	sty	$13                     ; 0x2013 <main+0x1a94>
     cca: 8e a0 68     	stx	$68a0                   ; 0x68a0 <__heap_start+0x4>
     ccd: 8d a1 68     	sta	$68a1                   ; 0x68a1 <__heap_start+0x5>
     cd0: 8e 9e 68     	stx	$689e                   ; 0x689e <__heap_start+0x2>
     cd3: 8d 9f 68     	sta	$689f                   ; 0x689f <__heap_start+0x3>
     cd6: 86 91        	stx	$91                     ; 0x2091 <main+0x1b12>
     cd8: 85 92        	sta	$92                     ; 0x2092 <main+0x1b13>
     cda: 4c 46 0d     	jmp	$d46 <main+0x7c7>
     cdd: a6 16        	ldx	$16                     ; 0x2016 <main+0x1a97>
     cdf: 8e 9e 68     	stx	$689e                   ; 0x689e <__heap_start+0x2>
     ce2: 8d 9f 68     	sta	$689f                   ; 0x689f <__heap_start+0x3>
     ce5: 85 15        	sta	$15                     ; 0x2015 <main+0x1a96>
     ce7: a0 04        	ldy	#$4
     ce9: 18           	clc
     cea: a5 16        	lda	$16                     ; 0x2016 <main+0x1a97>
     cec: 69 04        	adc	#$4
     cee: 85 14        	sta	$14                     ; 0x2014 <main+0x1a95>
     cf0: a5 15        	lda	$15                     ; 0x2015 <main+0x1a96>
     cf2: 69 00        	adc	#$0
     cf4: 85 15        	sta	$15                     ; 0x2015 <main+0x1a96>
     cf6: b1 12        	lda	($12),y                 ; 0x2012 <main+0x1a93>
     cf8: 85 16        	sta	$16                     ; 0x2016 <main+0x1a97>
     cfa: a0 01        	ldy	#$1
     cfc: b1 14        	lda	($14),y                 ; 0x2014 <main+0x1a95>
     cfe: aa           	tax
     cff: a4 16        	ldy	$16                     ; 0x2016 <main+0x1a97>
     d01: 84 14        	sty	$14                     ; 0x2014 <main+0x1a95>
     d03: 85 15        	sta	$15                     ; 0x2015 <main+0x1a96>
     d05: 8c a0 68     	sty	$68a0                   ; 0x68a0 <__heap_start+0x4>
     d08: 8d a1 68     	sta	$68a1                   ; 0x68a1 <__heap_start+0x5>
     d0b: 18           	clc
     d0c: a5 16        	lda	$16                     ; 0x2016 <main+0x1a97>
     d0e: 69 02        	adc	#$2
     d10: 85 16        	sta	$16                     ; 0x2016 <main+0x1a97>
     d12: 8a           	txa
     d13: 69 00        	adc	#$0
     d15: a0 02        	ldy	#$2
     d17: 85 17        	sta	$17                     ; 0x2017 <main+0x1a98>
     d19: a9 9c        	lda	#$9c
     d1b: 91 14        	sta	($14),y                 ; 0x2014 <main+0x1a95>
     d1d: a9 68        	lda	#$68
     d1f: 88           	dey
     d20: 91 16        	sta	($16),y                 ; 0x2016 <main+0x1a97>
     d22: ae 9e 68     	ldx	$689e                   ; 0x689e <__heap_start+0x2>
     d25: ac 9f 68     	ldy	$689f                   ; 0x689f <__heap_start+0x3>
     d28: 86 14        	stx	$14                     ; 0x2014 <main+0x1a95>
     d2a: 84 15        	sty	$15                     ; 0x2015 <main+0x1a96>
     d2c: 84 16        	sty	$16                     ; 0x2016 <main+0x1a97>
     d2e: a0 04        	ldy	#$4
     d30: a9 9c        	lda	#$9c
     d32: 91 14        	sta	($14),y                 ; 0x2014 <main+0x1a95>
     d34: 18           	clc
     d35: 8a           	txa
     d36: 69 04        	adc	#$4
     d38: 85 14        	sta	$14                     ; 0x2014 <main+0x1a95>
     d3a: a5 16        	lda	$16                     ; 0x2016 <main+0x1a97>
     d3c: 69 00        	adc	#$0
     d3e: 85 15        	sta	$15                     ; 0x2015 <main+0x1a96>
     d40: a9 68        	lda	#$68
     d42: a0 01        	ldy	#$1
     d44: 91 14        	sta	($14),y                 ; 0x2014 <main+0x1a95>
     d46: a4 18        	ldy	$18                     ; 0x2018 <main+0x1a99>
     d48: 8c 9c 68     	sty	$689c                   ; 0x689c <__heap_start>
     d4b: a6 19        	ldx	$19                     ; 0x2019 <main+0x1a9a>
     d4d: 8e 9d 68     	stx	$689d                   ; 0x689d <__heap_start+0x1>
     d50: a2 01        	ldx	#$1
     d52: 86 8e        	stx	$8e                     ; 0x208e <main+0x1b0f>
     d54: 86 8d        	stx	$8d                     ; 0x208d <main+0x1b0e>
     d56: a0 01        	ldy	#$1
     d58: a6 12        	ldx	$12                     ; 0x2012 <main+0x1a93>
     d5a: 86 14        	stx	$14                     ; 0x2014 <main+0x1a95>
     d5c: a6 13        	ldx	$13                     ; 0x2013 <main+0x1a94>
     d5e: 86 15        	stx	$15                     ; 0x2015 <main+0x1a96>
     d60: b2 14        	lda	($14)                   ; 0x2014 <main+0x1a95>
     d62: aa           	tax
     d63: b1 14        	lda	($14),y                 ; 0x2014 <main+0x1a95>
     d65: 85 16        	sta	$16                     ; 0x2016 <main+0x1a97>
     d67: d0 08        	bne	$d71 <main+0x7f2>
     d69: 8a           	txa
     d6a: e0 42        	cpx	#$42
     d6c: 90 0b        	bcc	$d79 <main+0x7fa>
     d6e: 4c e8 0d     	jmp	$de8 <main+0x869>
     d71: c9 00        	cmp	#$0
     d73: 8a           	txa
     d74: 90 03        	bcc	$d79 <main+0x7fa>
     d76: 4c e8 0d     	jmp	$de8 <main+0x869>
     d79: a5 14        	lda	$14                     ; 0x2014 <main+0x1a95>
     d7b: 18           	clc
     d7c: 69 02        	adc	#$2
     d7e: 85 16        	sta	$16                     ; 0x2016 <main+0x1a97>
     d80: a5 15        	lda	$15                     ; 0x2015 <main+0x1a96>
     d82: 69 00        	adc	#$0
     d84: 85 17        	sta	$17                     ; 0x2017 <main+0x1a98>
     d86: a0 02        	ldy	#$2
     d88: b1 14        	lda	($14),y                 ; 0x2014 <main+0x1a95>
     d8a: 85 14        	sta	$14                     ; 0x2014 <main+0x1a95>
     d8c: 88           	dey
     d8d: b1 16        	lda	($16),y                 ; 0x2016 <main+0x1a97>
     d8f: 85 15        	sta	$15                     ; 0x2015 <main+0x1a96>
     d91: c5 13        	cmp	$13                     ; 0x2013 <main+0x1a94>
     d93: d0 cb        	bne	$d60 <main+0x7e1>
     d95: a5 14        	lda	$14                     ; 0x2014 <main+0x1a95>
     d97: c5 12        	cmp	$12                     ; 0x2012 <main+0x1a93>
     d99: d0 c5        	bne	$d60 <main+0x7e1>
     d9b: a2 00        	ldx	#$0
     d9d: 86 2a        	stx	$2a                     ; 0x202a <main+0x1aab>
     d9f: a2 00        	ldx	#$0
     da1: 86 2b        	stx	$2b                     ; 0x202b <main+0x1aac>
     da3: a6 1e        	ldx	$1e                     ; 0x201e <main+0x1a9f>
     da5: e0 04        	cpx	#$4
     da7: 90 03        	bcc	$dac <main+0x82d>
     da9: 4c 81 10     	jmp	$1081 <main+0xb02>
     dac: a2 49        	ldx	#$49
     dae: a0 01        	ldy	#$1
     db0: 98           	tya
     db1: a0 14        	ldy	#$14
     db3: 91 10        	sta	($10),y                 ; 0x2010 <main+0x1a91>
     db5: 86 6f        	stx	$6f                     ; 0x206f <main+0x1af0>
     db7: a2 6f        	ldx	#$6f
     db9: 86 12        	stx	$12                     ; 0x2012 <main+0x1a93>
     dbb: a2 00        	ldx	#$0
     dbd: 86 13        	stx	$13                     ; 0x2013 <main+0x1a94>
     dbf: 20 35 40     	jsr	$4035 <textPrint>
     dc2: a0 14        	ldy	#$14
     dc4: b1 10        	lda	($10),y                 ; 0x2010 <main+0x1a91>
     dc6: a8           	tay
     dc7: be c7 66     	ldx	$66c7,y                 ; 0x66c7 <__set_v+0x121>
     dca: c8           	iny
     dcb: 98           	tya
     dcc: 5a           	phy
     dcd: a0 14        	ldy	#$14
     dcf: 91 10        	sta	($10),y                 ; 0x2010 <main+0x1a91>
     dd1: 7a           	ply
     dd2: c0 39        	cpy	#$39
     dd4: d0 df        	bne	$db5 <main+0x836>
     dd6: a2 0a        	ldx	#$a
     dd8: 86 6f        	stx	$6f                     ; 0x206f <main+0x1af0>
     dda: a2 6f        	ldx	#$6f
     ddc: 86 12        	stx	$12                     ; 0x2012 <main+0x1a93>
     dde: a2 00        	ldx	#$0
     de0: 86 13        	stx	$13                     ; 0x2013 <main+0x1a94>
     de2: 20 35 40     	jsr	$4035 <textPrint>
     de5: 4c ff 17     	jmp	$17ff <main+0x1280>
     de8: 29 fe        	and	#$fe
     dea: 85 17        	sta	$17                     ; 0x2017 <main+0x1a98>
     dec: a5 8f        	lda	$8f                     ; 0x208f <main+0x1b10>
     dee: a6 90        	ldx	$90                     ; 0x2090 <main+0x1b11>
     df0: 86 18        	stx	$18                     ; 0x2018 <main+0x1a99>
     df2: 38           	sec
     df3: e5 17        	sbc	$17                     ; 0x2017 <main+0x1a98>
     df5: aa           	tax
     df6: a5 18        	lda	$18                     ; 0x2018 <main+0x1a99>
     df8: e5 16        	sbc	$16                     ; 0x2016 <main+0x1a97>
     dfa: 85 16        	sta	$16                     ; 0x2016 <main+0x1a97>
     dfc: 18           	clc
     dfd: 8a           	txa
     dfe: 69 02        	adc	#$2
     e00: 85 17        	sta	$17                     ; 0x2017 <main+0x1a98>
     e02: a5 16        	lda	$16                     ; 0x2016 <main+0x1a97>
     e04: 69 00        	adc	#$0
     e06: a6 17        	ldx	$17                     ; 0x2017 <main+0x1a98>
     e08: 86 8f        	stx	$8f                     ; 0x208f <main+0x1b10>
     e0a: 85 90        	sta	$90                     ; 0x2090 <main+0x1b11>
     e0c: a0 02        	ldy	#$2
     e0e: a5 14        	lda	$14                     ; 0x2014 <main+0x1a95>
     e10: 18           	clc
     e11: 69 02        	adc	#$2
     e13: 85 2a        	sta	$2a                     ; 0x202a <main+0x1aab>
     e15: a5 15        	lda	$15                     ; 0x2015 <main+0x1a96>
     e17: 69 00        	adc	#$0
     e19: 85 2b        	sta	$2b                     ; 0x202b <main+0x1aac>
     e1b: b1 14        	lda	($14),y                 ; 0x2014 <main+0x1a95>
     e1d: aa           	tax
     e1e: 88           	dey
     e1f: b1 2a        	lda	($2a),y                 ; 0x202a <main+0x1aab>
     e21: 85 22        	sta	$22                     ; 0x2022 <main+0x1aa3>
     e23: c5 15        	cmp	$15                     ; 0x2015 <main+0x1a96>
     e25: d0 0f        	bne	$e36 <main+0x8b7>
     e27: e4 14        	cpx	$14                     ; 0x2014 <main+0x1a95>
     e29: d0 0b        	bne	$e36 <main+0x8b7>
     e2b: a2 00        	ldx	#$0
     e2d: 86 16        	stx	$16                     ; 0x2016 <main+0x1a97>
     e2f: a2 00        	ldx	#$0
     e31: 86 17        	stx	$17                     ; 0x2017 <main+0x1a98>
     e33: 4c ad 0e     	jmp	$ead <main+0x92e>
     e36: 18           	clc
     e37: a5 14        	lda	$14                     ; 0x2014 <main+0x1a95>
     e39: 69 04        	adc	#$4
     e3b: 85 16        	sta	$16                     ; 0x2016 <main+0x1a97>
     e3d: a5 15        	lda	$15                     ; 0x2015 <main+0x1a96>
     e3f: 69 00        	adc	#$0
     e41: a0 04        	ldy	#$4
     e43: 85 17        	sta	$17                     ; 0x2017 <main+0x1a98>
     e45: b1 14        	lda	($14),y                 ; 0x2014 <main+0x1a95>
     e47: 85 25        	sta	$25                     ; 0x2025 <main+0x1aa6>
     e49: 18           	clc
     e4a: 69 02        	adc	#$2
     e4c: 85 18        	sta	$18                     ; 0x2018 <main+0x1a99>
     e4e: a0 01        	ldy	#$1
     e50: b1 16        	lda	($16),y                 ; 0x2016 <main+0x1a97>
     e52: 85 24        	sta	$24                     ; 0x2024 <main+0x1aa5>
     e54: 69 00        	adc	#$0
     e56: a4 18        	ldy	$18                     ; 0x2018 <main+0x1a99>
     e58: 84 16        	sty	$16                     ; 0x2016 <main+0x1a97>
     e5a: 85 17        	sta	$17                     ; 0x2017 <main+0x1a98>
     e5c: a4 25        	ldy	$25                     ; 0x2025 <main+0x1aa6>
     e5e: 84 18        	sty	$18                     ; 0x2018 <main+0x1a99>
     e60: a4 24        	ldy	$24                     ; 0x2024 <main+0x1aa5>
     e62: 84 19        	sty	$19                     ; 0x2019 <main+0x1a9a>
     e64: a0 02        	ldy	#$2
     e66: 8a           	txa
     e67: 91 18        	sta	($18),y                 ; 0x2018 <main+0x1a99>
     e69: a5 22        	lda	$22                     ; 0x2022 <main+0x1aa3>
     e6b: 88           	dey
     e6c: 91 16        	sta	($16),y                 ; 0x2016 <main+0x1a97>
     e6e: 18           	clc
     e6f: a5 14        	lda	$14                     ; 0x2014 <main+0x1a95>
     e71: 69 02        	adc	#$2
     e73: 85 16        	sta	$16                     ; 0x2016 <main+0x1a97>
     e75: a5 15        	lda	$15                     ; 0x2015 <main+0x1a96>
     e77: 69 00        	adc	#$0
     e79: 85 17        	sta	$17                     ; 0x2017 <main+0x1a98>
     e7b: c8           	iny
     e7c: b1 14        	lda	($14),y                 ; 0x2014 <main+0x1a95>
     e7e: aa           	tax
     e7f: 88           	dey
     e80: b1 16        	lda	($16),y                 ; 0x2016 <main+0x1a97>
     e82: 86 16        	stx	$16                     ; 0x2016 <main+0x1a97>
     e84: 85 17        	sta	$17                     ; 0x2017 <main+0x1a98>
     e86: 85 18        	sta	$18                     ; 0x2018 <main+0x1a99>
     e88: a0 04        	ldy	#$4
     e8a: a5 25        	lda	$25                     ; 0x2025 <main+0x1aa6>
     e8c: 91 16        	sta	($16),y                 ; 0x2016 <main+0x1a97>
     e8e: 18           	clc
     e8f: 8a           	txa
     e90: 69 04        	adc	#$4
     e92: aa           	tax
     e93: a5 18        	lda	$18                     ; 0x2018 <main+0x1a99>
     e95: 69 00        	adc	#$0
     e97: 86 18        	stx	$18                     ; 0x2018 <main+0x1a99>
     e99: 85 19        	sta	$19                     ; 0x2019 <main+0x1a9a>
     e9b: a5 24        	lda	$24                     ; 0x2024 <main+0x1aa5>
     e9d: a0 01        	ldy	#$1
     e9f: 91 18        	sta	($18),y                 ; 0x2018 <main+0x1a99>
     ea1: a6 13        	ldx	$13                     ; 0x2013 <main+0x1a94>
     ea3: e4 15        	cpx	$15                     ; 0x2015 <main+0x1a96>
     ea5: d0 16        	bne	$ebd <main+0x93e>
     ea7: a6 12        	ldx	$12                     ; 0x2012 <main+0x1a93>
     ea9: e4 14        	cpx	$14                     ; 0x2014 <main+0x1a95>
     eab: d0 10        	bne	$ebd <main+0x93e>
     ead: a6 16        	ldx	$16                     ; 0x2016 <main+0x1a97>
     eaf: a4 17        	ldy	$17                     ; 0x2017 <main+0x1a98>
     eb1: 86 91        	stx	$91                     ; 0x2091 <main+0x1b12>
     eb3: 84 92        	sty	$92                     ; 0x2092 <main+0x1b13>
     eb5: a6 16        	ldx	$16                     ; 0x2016 <main+0x1a97>
     eb7: 86 12        	stx	$12                     ; 0x2012 <main+0x1a93>
     eb9: a6 17        	ldx	$17                     ; 0x2017 <main+0x1a98>
     ebb: 86 13        	stx	$13                     ; 0x2013 <main+0x1a94>
     ebd: a0 01        	ldy	#$1
     ebf: b1 14        	lda	($14),y                 ; 0x2014 <main+0x1a95>
     ec1: 85 16        	sta	$16                     ; 0x2016 <main+0x1a97>
     ec3: a9 fe        	lda	#$fe
     ec5: 32 14        	and	($14)                   ; 0x2014 <main+0x1a95>
     ec7: 18           	clc
     ec8: aa           	tax
     ec9: 69 be        	adc	#$be
     ecb: a8           	tay
     ecc: a5 16        	lda	$16                     ; 0x2016 <main+0x1a97>
     ece: 85 17        	sta	$17                     ; 0x2017 <main+0x1a98>
     ed0: 69 ff        	adc	#$ff
     ed2: d0 0d        	bne	$ee1 <main+0x962>
     ed4: 85 23        	sta	$23                     ; 0x2023 <main+0x1aa4>
     ed6: 84 16        	sty	$16                     ; 0x2016 <main+0x1a97>
     ed8: c0 08        	cpy	#$8
     eda: b0 0d        	bcs	$ee9 <main+0x96a>
     edc: a5 17        	lda	$17                     ; 0x2017 <main+0x1a98>
     ede: 4c 46 10     	jmp	$1046 <main+0xac7>
     ee1: 84 16        	sty	$16                     ; 0x2016 <main+0x1a97>
     ee3: 85 23        	sta	$23                     ; 0x2023 <main+0x1aa4>
     ee5: c9 00        	cmp	#$0
     ee7: 90 f3        	bcc	$edc <main+0x95d>
     ee9: 18           	clc
     eea: a5 14        	lda	$14                     ; 0x2014 <main+0x1a95>
     eec: 69 42        	adc	#$42
     eee: 85 18        	sta	$18                     ; 0x2018 <main+0x1a99>
     ef0: a5 15        	lda	$15                     ; 0x2015 <main+0x1a96>
     ef2: 69 00        	adc	#$0
     ef4: 85 19        	sta	$19                     ; 0x2019 <main+0x1a9a>
     ef6: a0 42        	ldy	#$42
     ef8: a9 01        	lda	#$1
     efa: 31 14        	and	($14),y                 ; 0x2014 <main+0x1a95>
     efc: 5a           	phy
     efd: a4 16        	ldy	$16                     ; 0x2016 <main+0x1a97>
     eff: 84 24        	sty	$24                     ; 0x2024 <main+0x1aa5>
     f01: 7a           	ply
     f02: 05 16        	ora	$16                     ; 0x2016 <main+0x1a97>
     f04: 91 14        	sta	($14),y                 ; 0x2014 <main+0x1a95>
     f06: 18           	clc
     f07: 8a           	txa
     f08: 65 14        	adc	$14                     ; 0x2014 <main+0x1a95>
     f0a: aa           	tax
     f0b: a5 17        	lda	$17                     ; 0x2017 <main+0x1a98>
     f0d: 65 15        	adc	$15                     ; 0x2015 <main+0x1a96>
     f0f: a8           	tay
     f10: 18           	clc
     f11: 8a           	txa
     f12: 69 fe        	adc	#$fe
     f14: 85 16        	sta	$16                     ; 0x2016 <main+0x1a97>
     f16: 98           	tya
     f17: 69 ff        	adc	#$ff
     f19: 85 17        	sta	$17                     ; 0x2017 <main+0x1a98>
     f1b: a6 18        	ldx	$18                     ; 0x2018 <main+0x1a99>
     f1d: 86 22        	stx	$22                     ; 0x2022 <main+0x1aa3>
     f1f: a6 19        	ldx	$19                     ; 0x2019 <main+0x1a9a>
     f21: 86 1f        	stx	$1f                     ; 0x201f <main+0x1aa0>
     f23: a0 01        	ldy	#$1
     f25: a5 23        	lda	$23                     ; 0x2023 <main+0x1aa4>
     f27: 91 18        	sta	($18),y                 ; 0x2018 <main+0x1a99>
     f29: a5 24        	lda	$24                     ; 0x2024 <main+0x1aa5>
     f2b: 92 16        	sta	($16)                   ; 0x2016 <main+0x1a97>
     f2d: a5 23        	lda	$23                     ; 0x2023 <main+0x1aa4>
     f2f: 91 16        	sta	($16),y                 ; 0x2016 <main+0x1a97>
     f31: b1 18        	lda	($18),y                 ; 0x2018 <main+0x1a99>
     f33: 85 16        	sta	$16                     ; 0x2016 <main+0x1a97>
     f35: a9 fe        	lda	#$fe
     f37: a0 42        	ldy	#$42
     f39: 31 14        	and	($14),y                 ; 0x2014 <main+0x1a95>
     f3b: 18           	clc
     f3c: 65 8f        	adc	$8f                     ; 0x208f <main+0x1b10>
     f3e: aa           	tax
     f3f: a5 16        	lda	$16                     ; 0x2016 <main+0x1a97>
     f41: 65 90        	adc	$90                     ; 0x2090 <main+0x1b11>
     f43: 85 16        	sta	$16                     ; 0x2016 <main+0x1a97>
     f45: 18           	clc
     f46: 8a           	txa
     f47: 69 fe        	adc	#$fe
     f49: 85 17        	sta	$17                     ; 0x2017 <main+0x1a98>
     f4b: a5 16        	lda	$16                     ; 0x2016 <main+0x1a97>
     f4d: 69 ff        	adc	#$ff
     f4f: a6 17        	ldx	$17                     ; 0x2017 <main+0x1a98>
     f51: 86 8f        	stx	$8f                     ; 0x208f <main+0x1b10>
     f53: 85 90        	sta	$90                     ; 0x2090 <main+0x1b11>
     f55: a2 00        	ldx	#$0
     f57: 86 16        	stx	$16                     ; 0x2016 <main+0x1a97>
     f59: a2 00        	ldx	#$0
     f5b: 86 17        	stx	$17                     ; 0x2017 <main+0x1a98>
     f5d: a6 13        	ldx	$13                     ; 0x2013 <main+0x1a94>
     f5f: e4 17        	cpx	$17                     ; 0x2017 <main+0x1a98>
     f61: d0 40        	bne	$fa3 <main+0xa24>
     f63: a6 12        	ldx	$12                     ; 0x2012 <main+0x1a93>
     f65: e4 16        	cpx	$16                     ; 0x2016 <main+0x1a97>
     f67: d0 3a        	bne	$fa3 <main+0xa24>
     f69: a5 14        	lda	$14                     ; 0x2014 <main+0x1a95>
     f6b: 18           	clc
     f6c: 69 46        	adc	#$46
     f6e: 85 12        	sta	$12                     ; 0x2012 <main+0x1a93>
     f70: a5 15        	lda	$15                     ; 0x2015 <main+0x1a96>
     f72: 69 00        	adc	#$0
     f74: a0 46        	ldy	#$46
     f76: 85 13        	sta	$13                     ; 0x2013 <main+0x1a94>
     f78: 18           	clc
     f79: a5 22        	lda	$22                     ; 0x2022 <main+0x1aa3>
     f7b: 91 14        	sta	($14),y                 ; 0x2014 <main+0x1a95>
     f7d: 85 18        	sta	$18                     ; 0x2018 <main+0x1a99>
     f7f: a5 14        	lda	$14                     ; 0x2014 <main+0x1a95>
     f81: 69 44        	adc	#$44
     f83: aa           	tax
     f84: a5 15        	lda	$15                     ; 0x2015 <main+0x1a96>
     f86: 69 00        	adc	#$0
     f88: 86 16        	stx	$16                     ; 0x2016 <main+0x1a97>
     f8a: 85 17        	sta	$17                     ; 0x2017 <main+0x1a98>
     f8c: a0 44        	ldy	#$44
     f8e: a5 18        	lda	$18                     ; 0x2018 <main+0x1a99>
     f90: 91 14        	sta	($14),y                 ; 0x2014 <main+0x1a95>
     f92: a0 01        	ldy	#$1
     f94: a5 1f        	lda	$1f                     ; 0x201f <main+0x1aa0>
     f96: 91 12        	sta	($12),y                 ; 0x2012 <main+0x1a93>
     f98: 91 16        	sta	($16),y                 ; 0x2016 <main+0x1a97>
     f9a: a6 18        	ldx	$18                     ; 0x2018 <main+0x1a99>
     f9c: 86 91        	stx	$91                     ; 0x2091 <main+0x1b12>
     f9e: 85 92        	sta	$92                     ; 0x2092 <main+0x1b13>
     fa0: 4c 38 10     	jmp	$1038 <main+0xab9>
     fa3: 18           	clc
     fa4: a5 14        	lda	$14                     ; 0x2014 <main+0x1a95>
     fa6: 69 44        	adc	#$44
     fa8: 85 16        	sta	$16                     ; 0x2016 <main+0x1a97>
     faa: a5 15        	lda	$15                     ; 0x2015 <main+0x1a96>
     fac: 69 00        	adc	#$0
     fae: 85 17        	sta	$17                     ; 0x2017 <main+0x1a98>
     fb0: a0 44        	ldy	#$44
     fb2: a5 12        	lda	$12                     ; 0x2012 <main+0x1a93>
     fb4: 91 14        	sta	($14),y                 ; 0x2014 <main+0x1a95>
     fb6: 85 18        	sta	$18                     ; 0x2018 <main+0x1a99>
     fb8: a5 13        	lda	$13                     ; 0x2013 <main+0x1a94>
     fba: a0 01        	ldy	#$1
     fbc: 91 16        	sta	($16),y                 ; 0x2016 <main+0x1a97>
     fbe: 18           	clc
     fbf: a5 18        	lda	$18                     ; 0x2018 <main+0x1a99>
     fc1: 69 04        	adc	#$4
     fc3: 85 18        	sta	$18                     ; 0x2018 <main+0x1a99>
     fc5: a5 13        	lda	$13                     ; 0x2013 <main+0x1a94>
     fc7: 69 00        	adc	#$0
     fc9: 85 19        	sta	$19                     ; 0x2019 <main+0x1a9a>
     fcb: a0 04        	ldy	#$4
     fcd: b1 12        	lda	($12),y                 ; 0x2012 <main+0x1a93>
     fcf: 85 12        	sta	$12                     ; 0x2012 <main+0x1a93>
     fd1: a0 01        	ldy	#$1
     fd3: b1 18        	lda	($18),y                 ; 0x2018 <main+0x1a99>
     fd5: 85 19        	sta	$19                     ; 0x2019 <main+0x1a9a>
     fd7: a0 46        	ldy	#$46
     fd9: a5 12        	lda	$12                     ; 0x2012 <main+0x1a93>
     fdb: 91 14        	sta	($14),y                 ; 0x2014 <main+0x1a95>
     fdd: a4 12        	ldy	$12                     ; 0x2012 <main+0x1a93>
     fdf: 18           	clc
     fe0: a5 14        	lda	$14                     ; 0x2014 <main+0x1a95>
     fe2: 69 46        	adc	#$46
     fe4: 85 12        	sta	$12                     ; 0x2012 <main+0x1a93>
     fe6: a5 15        	lda	$15                     ; 0x2015 <main+0x1a96>
     fe8: 69 00        	adc	#$0
     fea: 85 13        	sta	$13                     ; 0x2013 <main+0x1a94>
     fec: 84 23        	sty	$23                     ; 0x2023 <main+0x1aa4>
     fee: 84 18        	sty	$18                     ; 0x2018 <main+0x1a99>
     ff0: a5 19        	lda	$19                     ; 0x2019 <main+0x1a9a>
     ff2: a0 01        	ldy	#$1
     ff4: 91 12        	sta	($12),y                 ; 0x2012 <main+0x1a93>
     ff6: c8           	iny
     ff7: a5 22        	lda	$22                     ; 0x2022 <main+0x1aa3>
     ff9: 91 18        	sta	($18),y                 ; 0x2018 <main+0x1a99>
     ffb: 85 18        	sta	$18                     ; 0x2018 <main+0x1a99>
     ffd: 18           	clc
     ffe: a5 23        	lda	$23                     ; 0x2023 <main+0x1aa4>
    1000: 69 02        	adc	#$2
    1002: 85 12        	sta	$12                     ; 0x2012 <main+0x1a93>
    1004: a5 19        	lda	$19                     ; 0x2019 <main+0x1a9a>
    1006: 69 00        	adc	#$0
    1008: 85 13        	sta	$13                     ; 0x2013 <main+0x1a94>
    100a: a5 1f        	lda	$1f                     ; 0x201f <main+0x1aa0>
    100c: 88           	dey
    100d: 91 12        	sta	($12),y                 ; 0x2012 <main+0x1a93>
    100f: a0 44        	ldy	#$44
    1011: b1 14        	lda	($14),y                 ; 0x2014 <main+0x1a95>
    1013: 85 12        	sta	$12                     ; 0x2012 <main+0x1a93>
    1015: 85 19        	sta	$19                     ; 0x2019 <main+0x1a9a>
    1017: a0 01        	ldy	#$1
    1019: b1 16        	lda	($16),y                 ; 0x2016 <main+0x1a97>
    101b: 85 13        	sta	$13                     ; 0x2013 <main+0x1a94>
    101d: 85 16        	sta	$16                     ; 0x2016 <main+0x1a97>
    101f: a0 04        	ldy	#$4
    1021: a5 18        	lda	$18                     ; 0x2018 <main+0x1a99>
    1023: 91 12        	sta	($12),y                 ; 0x2012 <main+0x1a93>
    1025: 18           	clc
    1026: a5 19        	lda	$19                     ; 0x2019 <main+0x1a9a>
    1028: 69 04        	adc	#$4
    102a: 85 12        	sta	$12                     ; 0x2012 <main+0x1a93>
    102c: a5 16        	lda	$16                     ; 0x2016 <main+0x1a97>
    102e: 69 00        	adc	#$0
    1030: 85 13        	sta	$13                     ; 0x2013 <main+0x1a94>
    1032: a5 1f        	lda	$1f                     ; 0x201f <main+0x1aa0>
    1034: a0 01        	ldy	#$1
    1036: 91 12        	sta	($12),y                 ; 0x2012 <main+0x1a93>
    1038: a9 01        	lda	#$1
    103a: 32 14        	and	($14)                   ; 0x2014 <main+0x1a95>
    103c: a2 42        	ldx	#$42
    103e: 09 42        	ora	#$42
    1040: 92 14        	sta	($14)                   ; 0x2014 <main+0x1a95>
    1042: a9 00        	lda	#$0
    1044: 91 14        	sta	($14),y                 ; 0x2014 <main+0x1a95>
    1046: 85 12        	sta	$12                     ; 0x2012 <main+0x1a93>
    1048: 18           	clc
    1049: 8a           	txa
    104a: 65 14        	adc	$14                     ; 0x2014 <main+0x1a95>
    104c: aa           	tax
    104d: a5 15        	lda	$15                     ; 0x2015 <main+0x1a96>
    104f: 65 12        	adc	$12                     ; 0x2012 <main+0x1a93>
    1051: 85 13        	sta	$13                     ; 0x2013 <main+0x1a94>
    1053: c5 1b        	cmp	$1b                     ; 0x201b <main+0x1a9c>
    1055: d0 0f        	bne	$1066 <main+0xae7>
    1057: e4 1a        	cpx	$1a                     ; 0x201a <main+0x1a9b>
    1059: d0 0b        	bne	$1066 <main+0xae7>
    105b: 64 8e        	stz	$8e                     ; 0x208e <main+0x1b0f>
    105d: a6 1e        	ldx	$1e                     ; 0x201e <main+0x1a9f>
    105f: e0 04        	cpx	#$4
    1061: b0 1e        	bcs	$1081 <main+0xb02>
    1063: 4c ac 0d     	jmp	$dac <main+0x82d>
    1066: 86 12        	stx	$12                     ; 0x2012 <main+0x1a93>
    1068: a0 01        	ldy	#$1
    106a: b1 12        	lda	($12),y                 ; 0x2012 <main+0x1a93>
    106c: 85 14        	sta	$14                     ; 0x2014 <main+0x1a95>
    106e: a9 fe        	lda	#$fe
    1070: 32 12        	and	($12)                   ; 0x2012 <main+0x1a93>
    1072: 92 12        	sta	($12)                   ; 0x2012 <main+0x1a93>
    1074: a5 14        	lda	$14                     ; 0x2014 <main+0x1a95>
    1076: 91 12        	sta	($12),y                 ; 0x2012 <main+0x1a93>
    1078: a6 1e        	ldx	$1e                     ; 0x201e <main+0x1a9f>
    107a: e0 04        	cpx	#$4
    107c: b0 03        	bcs	$1081 <main+0xb02>
    107e: 4c ac 0d     	jmp	$dac <main+0x82d>
    1081: a5 1b        	lda	$1b                     ; 0x201b <main+0x1a9c>
    1083: a0 0c        	ldy	#$c
    1085: 91 10        	sta	($10),y                 ; 0x2010 <main+0x1a91>
    1087: a5 1a        	lda	$1a                     ; 0x201a <main+0x1a9b>
    1089: a0 11        	ldy	#$11
    108b: 91 10        	sta	($10),y                 ; 0x2010 <main+0x1a91>
    108d: a0 02        	ldy	#$2
    108f: 18           	clc
    1090: 5a           	phy
    1091: a0 14        	ldy	#$14
    1093: b1 10        	lda	($10),y                 ; 0x2010 <main+0x1a91>
    1095: 69 02        	adc	#$2
    1097: aa           	tax
    1098: 88           	dey
    1099: b1 10        	lda	($10),y                 ; 0x2010 <main+0x1a91>
    109b: 7a           	ply
    109c: 69 00        	adc	#$0
    109e: 86 14        	stx	$14                     ; 0x2014 <main+0x1a95>
    10a0: 85 17        	sta	$17                     ; 0x2017 <main+0x1a98>
    10a2: 85 15        	sta	$15                     ; 0x2015 <main+0x1a96>
    10a4: b1 1c        	lda	($1c),y                 ; 0x201c <main+0x1a9d>
    10a6: 85 12        	sta	$12                     ; 0x2012 <main+0x1a93>
    10a8: a0 01        	ldy	#$1
    10aa: b1 14        	lda	($14),y                 ; 0x2014 <main+0x1a95>
    10ac: 85 13        	sta	$13                     ; 0x2013 <main+0x1a94>
    10ae: b2 12        	lda	($12)                   ; 0x2012 <main+0x1a93>
    10b0: 88           	dey
    10b1: c9 00        	cmp	#$0
    10b3: f0 2d        	beq	$10e2 <main+0xb63>
    10b5: 86 16        	stx	$16                     ; 0x2016 <main+0x1a97>
    10b7: a2 01        	ldx	#$1
    10b9: 86 18        	stx	$18                     ; 0x2018 <main+0x1a99>
    10bb: a4 18        	ldy	$18                     ; 0x2018 <main+0x1a99>
    10bd: 88           	dey
    10be: 91 2a        	sta	($2a),y                 ; 0x202a <main+0x1aab>
    10c0: a4 16        	ldy	$16                     ; 0x2016 <main+0x1a97>
    10c2: 84 12        	sty	$12                     ; 0x2012 <main+0x1a93>
    10c4: a4 17        	ldy	$17                     ; 0x2017 <main+0x1a98>
    10c6: 84 13        	sty	$13                     ; 0x2013 <main+0x1a94>
    10c8: a0 02        	ldy	#$2
    10ca: b1 1c        	lda	($1c),y                 ; 0x201c <main+0x1a9d>
    10cc: 85 19        	sta	$19                     ; 0x2019 <main+0x1a9a>
    10ce: 88           	dey
    10cf: b1 12        	lda	($12),y                 ; 0x2012 <main+0x1a93>
    10d1: a4 18        	ldy	$18                     ; 0x2018 <main+0x1a99>
    10d3: 48           	pha
    10d4: a5 19        	lda	$19                     ; 0x2019 <main+0x1a9a>
    10d6: 85 12        	sta	$12                     ; 0x2012 <main+0x1a93>
    10d8: 68           	pla
    10d9: 85 13        	sta	$13                     ; 0x2013 <main+0x1a94>
    10db: b1 12        	lda	($12),y                 ; 0x2012 <main+0x1a93>
    10dd: e8           	inx
    10de: c9 00        	cmp	#$0
    10e0: d0 d7        	bne	$10b9 <main+0xb3a>
    10e2: a9 00        	lda	#$0
    10e4: 91 2a        	sta	($2a),y                 ; 0x202a <main+0x1aab>
    10e6: a6 01        	ldx	$1                      ; 0x2001 <main+0x1a82>
    10e8: 86 12        	stx	$12                     ; 0x2012 <main+0x1a93>
    10ea: 64 01        	stz	$1                      ; 0x2001 <main+0x1a82>
    10ec: a2 ff        	ldx	#$ff
    10ee: 8e 00 d8     	stx	$d800                   ; 0xd800 <__heap_start+0x6f64>
    10f1: 8e 01 d8     	stx	$d801                   ; 0xd801 <__heap_start+0x6f65>
    10f4: 8e 02 d8     	stx	$d802                   ; 0xd802 <__heap_start+0x6f66>
    10f7: 9c 03 d8     	stz	$d803                   ; 0xd803 <__heap_start+0x6f67>
    10fa: 9c 04 d8     	stz	$d804                   ; 0xd804 <__heap_start+0x6f68>
    10fd: a2 cd        	ldx	#$cd
    10ff: 8e 05 d8     	stx	$d805                   ; 0xd805 <__heap_start+0x6f69>
    1102: 8e 06 d8     	stx	$d806                   ; 0xd806 <__heap_start+0x6f6a>
    1105: 9c 07 d8     	stz	$d807                   ; 0xd807 <__heap_start+0x6f6b>
    1108: 9c 08 d8     	stz	$d808                   ; 0xd808 <__heap_start+0x6f6c>
    110b: a2 d7        	ldx	#$d7
    110d: 8e 09 d8     	stx	$d809                   ; 0xd809 <__heap_start+0x6f6d>
    1110: 8e 0a d8     	stx	$d80a                   ; 0xd80a <__heap_start+0x6f6e>
    1113: 9c 0b d8     	stz	$d80b                   ; 0xd80b <__heap_start+0x6f6f>
    1116: 9c 0c d8     	stz	$d80c                   ; 0xd80c <__heap_start+0x6f70>
    1119: a2 e1        	ldx	#$e1
    111b: 8e 0d d8     	stx	$d80d                   ; 0xd80d <__heap_start+0x6f71>
    111e: 8e 0e d8     	stx	$d80e                   ; 0xd80e <__heap_start+0x6f72>
    1121: 9c 0f d8     	stz	$d80f                   ; 0xd80f <__heap_start+0x6f73>
    1124: 9c 10 d8     	stz	$d810                   ; 0xd810 <__heap_start+0x6f74>
    1127: a0 eb        	ldy	#$eb
    1129: 8c 11 d8     	sty	$d811                   ; 0xd811 <__heap_start+0x6f75>
    112c: 8c 12 d8     	sty	$d812                   ; 0xd812 <__heap_start+0x6f76>
    112f: 9c 13 d8     	stz	$d813                   ; 0xd813 <__heap_start+0x6f77>
    1132: 9c 14 d8     	stz	$d814                   ; 0xd814 <__heap_start+0x6f78>
    1135: a2 f5        	ldx	#$f5
    1137: 8e 15 d8     	stx	$d815                   ; 0xd815 <__heap_start+0x6f79>
    113a: 8e 16 d8     	stx	$d816                   ; 0xd816 <__heap_start+0x6f7a>
    113d: 9c 17 d8     	stz	$d817                   ; 0xd817 <__heap_start+0x6f7b>
    1140: 9c 18 d8     	stz	$d818                   ; 0xd818 <__heap_start+0x6f7c>
    1143: a9 66        	lda	#$66
    1145: 8d 19 d8     	sta	$d819                   ; 0xd819 <__heap_start+0x6f7d>
    1148: a9 cd        	lda	#$cd
    114a: 8d 1a d8     	sta	$d81a                   ; 0xd81a <__heap_start+0x6f7e>
    114d: 9c 1b d8     	stz	$d81b                   ; 0xd81b <__heap_start+0x6f7f>
    1150: 9c 1c d8     	stz	$d81c                   ; 0xd81c <__heap_start+0x6f80>
    1153: a9 6b        	lda	#$6b
    1155: 8d 1d d8     	sta	$d81d                   ; 0xd81d <__heap_start+0x6f81>
    1158: a9 d7        	lda	#$d7
    115a: 8d 1e d8     	sta	$d81e                   ; 0xd81e <__heap_start+0x6f82>
    115d: 9c 1f d8     	stz	$d81f                   ; 0xd81f <__heap_start+0x6f83>
    1160: 9c 20 d8     	stz	$d820                   ; 0xd820 <__heap_start+0x6f84>
    1163: a9 70        	lda	#$70
    1165: 8d 21 d8     	sta	$d821                   ; 0xd821 <__heap_start+0x6f85>
    1168: a9 e1        	lda	#$e1
    116a: 8d 22 d8     	sta	$d822                   ; 0xd822 <__heap_start+0x6f86>
    116d: 9c 23 d8     	stz	$d823                   ; 0xd823 <__heap_start+0x6f87>
    1170: 9c 24 d8     	stz	$d824                   ; 0xd824 <__heap_start+0x6f88>
    1173: a9 75        	lda	#$75
    1175: 8d 25 d8     	sta	$d825                   ; 0xd825 <__heap_start+0x6f89>
    1178: 8c 26 d8     	sty	$d826                   ; 0xd826 <__heap_start+0x6f8a>
    117b: 9c 27 d8     	stz	$d827                   ; 0xd827 <__heap_start+0x6f8b>
    117e: 9c 28 d8     	stz	$d828                   ; 0xd828 <__heap_start+0x6f8c>
    1181: a9 7a        	lda	#$7a
    1183: 8d 29 d8     	sta	$d829                   ; 0xd829 <__heap_start+0x6f8d>
    1186: 8e 2a d8     	stx	$d82a                   ; 0xd82a <__heap_start+0x6f8e>
    1189: 9c 2b d8     	stz	$d82b                   ; 0xd82b <__heap_start+0x6f8f>
    118c: 9c 2c d8     	stz	$d82c                   ; 0xd82c <__heap_start+0x6f90>
    118f: 9c 2d d8     	stz	$d82d                   ; 0xd82d <__heap_start+0x6f91>
    1192: a9 cd        	lda	#$cd
    1194: 8d 2e d8     	sta	$d82e                   ; 0xd82e <__heap_start+0x6f92>
    1197: 9c 2f d8     	stz	$d82f                   ; 0xd82f <__heap_start+0x6f93>
    119a: 9c 30 d8     	stz	$d830                   ; 0xd830 <__heap_start+0x6f94>
    119d: 9c 31 d8     	stz	$d831                   ; 0xd831 <__heap_start+0x6f95>
    11a0: a9 d7        	lda	#$d7
    11a2: 8d 32 d8     	sta	$d832                   ; 0xd832 <__heap_start+0x6f96>
    11a5: 9c 33 d8     	stz	$d833                   ; 0xd833 <__heap_start+0x6f97>
    11a8: 9c 34 d8     	stz	$d834                   ; 0xd834 <__heap_start+0x6f98>
    11ab: 9c 35 d8     	stz	$d835                   ; 0xd835 <__heap_start+0x6f99>
    11ae: a9 e1        	lda	#$e1
    11b0: 8d 36 d8     	sta	$d836                   ; 0xd836 <__heap_start+0x6f9a>
    11b3: 9c 37 d8     	stz	$d837                   ; 0xd837 <__heap_start+0x6f9b>
    11b6: 9c 38 d8     	stz	$d838                   ; 0xd838 <__heap_start+0x6f9c>
    11b9: 9c 39 d8     	stz	$d839                   ; 0xd839 <__heap_start+0x6f9d>
    11bc: 8c 3a d8     	sty	$d83a                   ; 0xd83a <__heap_start+0x6f9e>
    11bf: 9c 3b d8     	stz	$d83b                   ; 0xd83b <__heap_start+0x6f9f>
    11c2: 9c 3c d8     	stz	$d83c                   ; 0xd83c <__heap_start+0x6fa0>
    11c5: 9c 3d d8     	stz	$d83d                   ; 0xd83d <__heap_start+0x6fa1>
    11c8: 8e 3e d8     	stx	$d83e                   ; 0xd83e <__heap_start+0x6fa2>
    11cb: 9c 3f d8     	stz	$d83f                   ; 0xd83f <__heap_start+0x6fa3>
    11ce: a6 12        	ldx	$12                     ; 0x2012 <main+0x1a93>
    11d0: 86 01        	stx	$1                      ; 0x2001 <main+0x1a82>
    11d2: 64 61        	stz	$61                     ; 0x2061 <main+0x1ae2>
    11d4: 9c 14 d0     	stz	$d014                   ; 0xd014 <__heap_start+0x6778>
    11d7: 9c 15 d0     	stz	$d015                   ; 0xd015 <__heap_start+0x6779>
    11da: a2 19        	ldx	#$19
    11dc: 86 62        	stx	$62                     ; 0x2062 <main+0x1ae3>
    11de: 8e 16 d0     	stx	$d016                   ; 0xd016 <__heap_start+0x677a>
    11e1: 9c 17 d0     	stz	$d017                   ; 0xd017 <__heap_start+0x677b>
    11e4: a0 02        	ldy	#$2
    11e6: b1 1c        	lda	($1c),y                 ; 0x201c <main+0x1a9d>
    11e8: 85 12        	sta	$12                     ; 0x2012 <main+0x1a93>
    11ea: 88           	dey
    11eb: b1 14        	lda	($14),y                 ; 0x2014 <main+0x1a95>
    11ed: 85 13        	sta	$13                     ; 0x2013 <main+0x1a94>
    11ef: a5 12        	lda	$12                     ; 0x2012 <main+0x1a93>
    11f1: 92 10        	sta	($10)                   ; 0x2010 <main+0x1a91>
    11f3: a5 13        	lda	$13                     ; 0x2013 <main+0x1a94>
    11f5: 91 10        	sta	($10),y                 ; 0x2010 <main+0x1a91>
    11f7: a2 ba        	ldx	#$ba
    11f9: 86 12        	stx	$12                     ; 0x2012 <main+0x1a93>
    11fb: a2 67        	ldx	#$67
    11fd: 86 13        	stx	$13                     ; 0x2013 <main+0x1a94>
    11ff: a5 1c        	lda	$1c                     ; 0x201c <main+0x1a9d>
    1201: a0 0d        	ldy	#$d
    1203: 91 10        	sta	($10),y                 ; 0x2010 <main+0x1a91>
    1205: a5 1d        	lda	$1d                     ; 0x201d <main+0x1a9e>
    1207: c8           	iny
    1208: 91 10        	sta	($10),y                 ; 0x2010 <main+0x1a91>
    120a: a5 14        	lda	$14                     ; 0x2014 <main+0x1a95>
    120c: c8           	iny
    120d: 91 10        	sta	($10),y                 ; 0x2010 <main+0x1a91>
    120f: a5 15        	lda	$15                     ; 0x2015 <main+0x1a96>
    1211: c8           	iny
    1212: 91 10        	sta	($10),y                 ; 0x2010 <main+0x1a91>
    1214: 20 4e 55     	jsr	$554e <printf>
    1217: a4 0f        	ldy	$f                      ; 0x200f <main+0x1a90>
    1219: 78           	sei
    121a: a2 28        	ldx	#$28
    121c: 86 0f        	stx	$f                      ; 0x200f <main+0x1a90>
    121e: ad 09 e0     	lda	$e009                   ; 0xe009 <__heap_start+0x776d>
    1221: 85 25        	sta	$25                     ; 0x2025 <main+0x1aa6>
    1223: 84 0f        	sty	$f                      ; 0x200f <main+0x1a90>
    1225: 58           	cli
    1226: a4 0f        	ldy	$f                      ; 0x200f <main+0x1a90>
    1228: 78           	sei
    1229: 86 0f        	stx	$f                      ; 0x200f <main+0x1a90>
    122b: ad 08 e0     	lda	$e008                   ; 0xe008 <__heap_start+0x776c>
    122e: 85 29        	sta	$29                     ; 0x2029 <main+0x1aaa>
    1230: 84 0f        	sty	$f                      ; 0x200f <main+0x1a90>
    1232: 58           	cli
    1233: a4 0f        	ldy	$f                      ; 0x200f <main+0x1a90>
    1235: 78           	sei
    1236: 86 0f        	stx	$f                      ; 0x200f <main+0x1a90>
    1238: ad 0b e0     	lda	$e00b                   ; 0xe00b <__heap_start+0x776f>
    123b: 85 24        	sta	$24                     ; 0x2024 <main+0x1aa5>
    123d: 84 0f        	sty	$f                      ; 0x200f <main+0x1a90>
    123f: 58           	cli
    1240: a4 0f        	ldy	$f                      ; 0x200f <main+0x1a90>
    1242: 78           	sei
    1243: 86 0f        	stx	$f                      ; 0x200f <main+0x1a90>
    1245: ad 0a e0     	lda	$e00a                   ; 0xe00a <__heap_start+0x776e>
    1248: 85 28        	sta	$28                     ; 0x2028 <main+0x1aa9>
    124a: 84 0f        	sty	$f                      ; 0x200f <main+0x1a90>
    124c: 58           	cli
    124d: a4 0f        	ldy	$f                      ; 0x200f <main+0x1a90>
    124f: 78           	sei
    1250: 86 0f        	stx	$f                      ; 0x200f <main+0x1a90>
    1252: ad 0d e0     	lda	$e00d                   ; 0xe00d <__heap_start+0x7771>
    1255: 84 0f        	sty	$f                      ; 0x200f <main+0x1a90>
    1257: 58           	cli
    1258: a4 0f        	ldy	$f                      ; 0x200f <main+0x1a90>
    125a: 78           	sei
    125b: 86 0f        	stx	$f                      ; 0x200f <main+0x1a90>
    125d: ae 0c e0     	ldx	$e00c                   ; 0xe00c <__heap_start+0x7770>
    1260: 84 0f        	sty	$f                      ; 0x200f <main+0x1a90>
    1262: 58           	cli
    1263: 64 61        	stz	$61                     ; 0x2061 <main+0x1ae2>
    1265: 9c 14 d0     	stz	$d014                   ; 0xd014 <__heap_start+0x6778>
    1268: 9c 15 d0     	stz	$d015                   ; 0xd015 <__heap_start+0x6779>
    126b: a2 19        	ldx	#$19
    126d: 86 62        	stx	$62                     ; 0x2062 <main+0x1ae3>
    126f: 8e 16 d0     	stx	$d016                   ; 0xd016 <__heap_start+0x677a>
    1272: 9c 17 d0     	stz	$d017                   ; 0xd017 <__heap_start+0x677b>
    1275: a2 77        	ldx	#$77
    1277: 86 12        	stx	$12                     ; 0x2012 <main+0x1a93>
    1279: a2 67        	ldx	#$67
    127b: 86 13        	stx	$13                     ; 0x2013 <main+0x1a94>
    127d: 20 35 40     	jsr	$4035 <textPrint>
    1280: a2 01        	ldx	#$1
    1282: 86 61        	stx	$61                     ; 0x2061 <main+0x1ae2>
    1284: 8e 14 d0     	stx	$d014                   ; 0xd014 <__heap_start+0x6778>
    1287: 9c 15 d0     	stz	$d015                   ; 0xd015 <__heap_start+0x6779>
    128a: 86 62        	stx	$62                     ; 0x2062 <main+0x1ae3>
    128c: 8e 16 d0     	stx	$d016                   ; 0xd016 <__heap_start+0x677a>
    128f: 9c 17 d0     	stz	$d017                   ; 0xd017 <__heap_start+0x677b>
    1292: a2 10        	ldx	#$10
    1294: 86 60        	stx	$60                     ; 0x2060 <main+0x1ae1>
    1296: a2 00        	ldx	#$0
    1298: 86 12        	stx	$12                     ; 0x2012 <main+0x1a93>
    129a: a2 67        	ldx	#$67
    129c: 86 13        	stx	$13                     ; 0x2013 <main+0x1a94>
    129e: 20 35 40     	jsr	$4035 <textPrint>
    12a1: 64 60        	stz	$60                     ; 0x2060 <main+0x1ae1>
    12a3: a5 2a        	lda	$2a                     ; 0x202a <main+0x1aab>
    12a5: 92 10        	sta	($10)                   ; 0x2010 <main+0x1a91>
    12a7: a5 2b        	lda	$2b                     ; 0x202b <main+0x1aac>
    12a9: a0 01        	ldy	#$1
    12ab: 91 10        	sta	($10),y                 ; 0x2010 <main+0x1a91>
    12ad: a2 48        	ldx	#$48
    12af: 86 12        	stx	$12                     ; 0x2012 <main+0x1a93>
    12b1: a2 67        	ldx	#$67
    12b3: 86 13        	stx	$13                     ; 0x2013 <main+0x1a94>
    12b5: 20 4e 55     	jsr	$554e <printf>
    12b8: a2 01        	ldx	#$1
    12ba: 86 61        	stx	$61                     ; 0x2061 <main+0x1ae2>
    12bc: 8e 14 d0     	stx	$d014                   ; 0xd014 <__heap_start+0x6778>
    12bf: 9c 15 d0     	stz	$d015                   ; 0xd015 <__heap_start+0x6779>
    12c2: e8           	inx
    12c3: 86 62        	stx	$62                     ; 0x2062 <main+0x1ae3>
    12c5: 8e 16 d0     	stx	$d016                   ; 0xd016 <__heap_start+0x677a>
    12c8: 9c 17 d0     	stz	$d017                   ; 0xd017 <__heap_start+0x677b>
    12cb: a2 10        	ldx	#$10
    12cd: 86 60        	stx	$60                     ; 0x2060 <main+0x1ae1>
    12cf: a2 b2        	ldx	#$b2
    12d1: 86 12        	stx	$12                     ; 0x2012 <main+0x1a93>
    12d3: a2 67        	ldx	#$67
    12d5: 86 13        	stx	$13                     ; 0x2013 <main+0x1a94>
    12d7: 20 35 40     	jsr	$4035 <textPrint>
    12da: 64 60        	stz	$60                     ; 0x2060 <main+0x1ae1>
    12dc: a5 25        	lda	$25                     ; 0x2025 <main+0x1aa6>
    12de: 92 10        	sta	($10)                   ; 0x2010 <main+0x1a91>
    12e0: a5 29        	lda	$29                     ; 0x2029 <main+0x1aaa>
    12e2: a0 01        	ldy	#$1
    12e4: 91 10        	sta	($10),y                 ; 0x2010 <main+0x1a91>
    12e6: a2 a0        	ldx	#$a0
    12e8: 86 12        	stx	$12                     ; 0x2012 <main+0x1a93>
    12ea: a2 67        	ldx	#$67
    12ec: 86 13        	stx	$13                     ; 0x2013 <main+0x1a94>
    12ee: 20 4e 55     	jsr	$554e <printf>
    12f1: a2 10        	ldx	#$10
    12f3: 86 60        	stx	$60                     ; 0x2060 <main+0x1ae1>
    12f5: a2 0b        	ldx	#$b
    12f7: 86 12        	stx	$12                     ; 0x2012 <main+0x1a93>
    12f9: a2 67        	ldx	#$67
    12fb: 86 13        	stx	$13                     ; 0x2013 <main+0x1a94>
    12fd: 20 35 40     	jsr	$4035 <textPrint>
    1300: 64 60        	stz	$60                     ; 0x2060 <main+0x1ae1>
    1302: a5 24        	lda	$24                     ; 0x2024 <main+0x1aa5>
    1304: 92 10        	sta	($10)                   ; 0x2010 <main+0x1a91>
    1306: a5 28        	lda	$28                     ; 0x2028 <main+0x1aa9>
    1308: a0 01        	ldy	#$1
    130a: 91 10        	sta	($10),y                 ; 0x2010 <main+0x1a91>
    130c: a2 e9        	ldx	#$e9
    130e: 86 12        	stx	$12                     ; 0x2012 <main+0x1a93>
    1310: a2 67        	ldx	#$67
    1312: 86 13        	stx	$13                     ; 0x2013 <main+0x1a94>
    1314: 20 4e 55     	jsr	$554e <printf>
    1317: a2 10        	ldx	#$10
    1319: 86 60        	stx	$60                     ; 0x2060 <main+0x1ae1>
    131b: a2 9d        	ldx	#$9d
    131d: 86 12        	stx	$12                     ; 0x2012 <main+0x1a93>
    131f: a2 66        	ldx	#$66
    1321: 86 13        	stx	$13                     ; 0x2013 <main+0x1a94>
    1323: 20 35 40     	jsr	$4035 <textPrint>
    1326: 64 60        	stz	$60                     ; 0x2060 <main+0x1ae1>
    1328: a2 01        	ldx	#$1
    132a: 86 61        	stx	$61                     ; 0x2061 <main+0x1ae2>
    132c: 8e 14 d0     	stx	$d014                   ; 0xd014 <__heap_start+0x6778>
    132f: 9c 15 d0     	stz	$d015                   ; 0xd015 <__heap_start+0x6779>
    1332: a2 07        	ldx	#$7
    1334: 86 62        	stx	$62                     ; 0x2062 <main+0x1ae3>
    1336: 8e 16 d0     	stx	$d016                   ; 0xd016 <__heap_start+0x677a>
    1339: 9c 17 d0     	stz	$d017                   ; 0xd017 <__heap_start+0x677b>
    133c: a2 db        	ldx	#$db
    133e: 86 12        	stx	$12                     ; 0x2012 <main+0x1a93>
    1340: a2 67        	ldx	#$67
    1342: 86 13        	stx	$13                     ; 0x2013 <main+0x1a94>
    1344: 20 35 40     	jsr	$4035 <textPrint>
    1347: a2 01        	ldx	#$1
    1349: 86 61        	stx	$61                     ; 0x2061 <main+0x1ae2>
    134b: 8e 14 d0     	stx	$d014                   ; 0xd014 <__heap_start+0x6778>
    134e: a0 01        	ldy	#$1
    1350: 9c 15 d0     	stz	$d015                   ; 0xd015 <__heap_start+0x6779>
    1353: a2 08        	ldx	#$8
    1355: 86 62        	stx	$62                     ; 0x2062 <main+0x1ae3>
    1357: 8e 16 d0     	stx	$d016                   ; 0xd016 <__heap_start+0x677a>
    135a: 9c 17 d0     	stz	$d017                   ; 0xd017 <__heap_start+0x677b>
    135d: a9 00        	lda	#$0
    135f: 92 10        	sta	($10)                   ; 0x2010 <main+0x1a91>
    1361: 91 10        	sta	($10),y                 ; 0x2010 <main+0x1a91>
    1363: a2 ae        	ldx	#$ae
    1365: 86 12        	stx	$12                     ; 0x2012 <main+0x1a93>
    1367: a2 66        	ldx	#$66
    1369: 86 13        	stx	$13                     ; 0x2013 <main+0x1a94>
    136b: 20 4e 55     	jsr	$554e <printf>
    136e: a0 01        	ldy	#$1
    1370: 84 61        	sty	$61                     ; 0x2061 <main+0x1ae2>
    1372: 8c 14 d0     	sty	$d014                   ; 0xd014 <__heap_start+0x6778>
    1375: 9c 15 d0     	stz	$d015                   ; 0xd015 <__heap_start+0x6779>
    1378: a2 09        	ldx	#$9
    137a: 86 62        	stx	$62                     ; 0x2062 <main+0x1ae3>
    137c: 8e 16 d0     	stx	$d016                   ; 0xd016 <__heap_start+0x677a>
    137f: 9c 17 d0     	stz	$d017                   ; 0xd017 <__heap_start+0x677b>
    1382: 98           	tya
    1383: 92 10        	sta	($10)                   ; 0x2010 <main+0x1a91>
    1385: a9 00        	lda	#$0
    1387: 91 10        	sta	($10),y                 ; 0x2010 <main+0x1a91>
    1389: a2 ae        	ldx	#$ae
    138b: 86 12        	stx	$12                     ; 0x2012 <main+0x1a93>
    138d: a2 66        	ldx	#$66
    138f: 86 13        	stx	$13                     ; 0x2013 <main+0x1a94>
    1391: 20 4e 55     	jsr	$554e <printf>
    1394: a2 01        	ldx	#$1
    1396: 86 61        	stx	$61                     ; 0x2061 <main+0x1ae2>
    1398: 8e 14 d0     	stx	$d014                   ; 0xd014 <__heap_start+0x6778>
    139b: a0 01        	ldy	#$1
    139d: 9c 15 d0     	stz	$d015                   ; 0xd015 <__heap_start+0x6779>
    13a0: a2 0a        	ldx	#$a
    13a2: 86 62        	stx	$62                     ; 0x2062 <main+0x1ae3>
    13a4: 8e 16 d0     	stx	$d016                   ; 0xd016 <__heap_start+0x677a>
    13a7: 9c 17 d0     	stz	$d017                   ; 0xd017 <__heap_start+0x677b>
    13aa: a9 02        	lda	#$2
    13ac: 92 10        	sta	($10)                   ; 0x2010 <main+0x1a91>
    13ae: a9 00        	lda	#$0
    13b0: 91 10        	sta	($10),y                 ; 0x2010 <main+0x1a91>
    13b2: a2 ae        	ldx	#$ae
    13b4: 86 12        	stx	$12                     ; 0x2012 <main+0x1a93>
    13b6: a2 66        	ldx	#$66
    13b8: 86 13        	stx	$13                     ; 0x2013 <main+0x1a94>
    13ba: 20 4e 55     	jsr	$554e <printf>
    13bd: a2 01        	ldx	#$1
    13bf: 86 61        	stx	$61                     ; 0x2061 <main+0x1ae2>
    13c1: 8e 14 d0     	stx	$d014                   ; 0xd014 <__heap_start+0x6778>
    13c4: a0 01        	ldy	#$1
    13c6: 9c 15 d0     	stz	$d015                   ; 0xd015 <__heap_start+0x6779>
    13c9: a2 0b        	ldx	#$b
    13cb: 86 62        	stx	$62                     ; 0x2062 <main+0x1ae3>
    13cd: 8e 16 d0     	stx	$d016                   ; 0xd016 <__heap_start+0x677a>
    13d0: 9c 17 d0     	stz	$d017                   ; 0xd017 <__heap_start+0x677b>
    13d3: a9 03        	lda	#$3
    13d5: 92 10        	sta	($10)                   ; 0x2010 <main+0x1a91>
    13d7: a9 00        	lda	#$0
    13d9: 91 10        	sta	($10),y                 ; 0x2010 <main+0x1a91>
    13db: a2 ae        	ldx	#$ae
    13dd: 86 12        	stx	$12                     ; 0x2012 <main+0x1a93>
    13df: a2 66        	ldx	#$66
    13e1: 86 13        	stx	$13                     ; 0x2013 <main+0x1a94>
    13e3: 20 4e 55     	jsr	$554e <printf>
    13e6: a2 01        	ldx	#$1
    13e8: 86 61        	stx	$61                     ; 0x2061 <main+0x1ae2>
    13ea: 8e 14 d0     	stx	$d014                   ; 0xd014 <__heap_start+0x6778>
    13ed: a0 01        	ldy	#$1
    13ef: 9c 15 d0     	stz	$d015                   ; 0xd015 <__heap_start+0x6779>
    13f2: a2 0c        	ldx	#$c
    13f4: 86 62        	stx	$62                     ; 0x2062 <main+0x1ae3>
    13f6: 8e 16 d0     	stx	$d016                   ; 0xd016 <__heap_start+0x677a>
    13f9: 9c 17 d0     	stz	$d017                   ; 0xd017 <__heap_start+0x677b>
    13fc: a9 04        	lda	#$4
    13fe: 92 10        	sta	($10)                   ; 0x2010 <main+0x1a91>
    1400: a9 00        	lda	#$0
    1402: 91 10        	sta	($10),y                 ; 0x2010 <main+0x1a91>
    1404: a2 ae        	ldx	#$ae
    1406: 86 12        	stx	$12                     ; 0x2012 <main+0x1a93>
    1408: a2 66        	ldx	#$66
    140a: 86 13        	stx	$13                     ; 0x2013 <main+0x1a94>
    140c: 20 4e 55     	jsr	$554e <printf>
    140f: a2 01        	ldx	#$1
    1411: 86 61        	stx	$61                     ; 0x2061 <main+0x1ae2>
    1413: 8e 14 d0     	stx	$d014                   ; 0xd014 <__heap_start+0x6778>
    1416: a0 01        	ldy	#$1
    1418: 9c 15 d0     	stz	$d015                   ; 0xd015 <__heap_start+0x6779>
    141b: a2 0d        	ldx	#$d
    141d: 86 62        	stx	$62                     ; 0x2062 <main+0x1ae3>
    141f: 8e 16 d0     	stx	$d016                   ; 0xd016 <__heap_start+0x677a>
    1422: 9c 17 d0     	stz	$d017                   ; 0xd017 <__heap_start+0x677b>
    1425: a9 05        	lda	#$5
    1427: 92 10        	sta	($10)                   ; 0x2010 <main+0x1a91>
    1429: a9 00        	lda	#$0
    142b: 91 10        	sta	($10),y                 ; 0x2010 <main+0x1a91>
    142d: a2 ae        	ldx	#$ae
    142f: 86 12        	stx	$12                     ; 0x2012 <main+0x1a93>
    1431: a2 66        	ldx	#$66
    1433: 86 13        	stx	$13                     ; 0x2013 <main+0x1a94>
    1435: 20 4e 55     	jsr	$554e <printf>
    1438: a2 01        	ldx	#$1
    143a: 86 61        	stx	$61                     ; 0x2061 <main+0x1ae2>
    143c: 8e 14 d0     	stx	$d014                   ; 0xd014 <__heap_start+0x6778>
    143f: a0 01        	ldy	#$1
    1441: 9c 15 d0     	stz	$d015                   ; 0xd015 <__heap_start+0x6779>
    1444: a2 0e        	ldx	#$e
    1446: 86 62        	stx	$62                     ; 0x2062 <main+0x1ae3>
    1448: 8e 16 d0     	stx	$d016                   ; 0xd016 <__heap_start+0x677a>
    144b: 9c 17 d0     	stz	$d017                   ; 0xd017 <__heap_start+0x677b>
    144e: a9 06        	lda	#$6
    1450: 92 10        	sta	($10)                   ; 0x2010 <main+0x1a91>
    1452: a9 00        	lda	#$0
    1454: 91 10        	sta	($10),y                 ; 0x2010 <main+0x1a91>
    1456: a2 ae        	ldx	#$ae
    1458: 86 12        	stx	$12                     ; 0x2012 <main+0x1a93>
    145a: a2 66        	ldx	#$66
    145c: 86 13        	stx	$13                     ; 0x2013 <main+0x1a94>
    145e: 20 4e 55     	jsr	$554e <printf>
    1461: a2 01        	ldx	#$1
    1463: 86 61        	stx	$61                     ; 0x2061 <main+0x1ae2>
    1465: 8e 14 d0     	stx	$d014                   ; 0xd014 <__heap_start+0x6778>
    1468: a0 01        	ldy	#$1
    146a: 9c 15 d0     	stz	$d015                   ; 0xd015 <__heap_start+0x6779>
    146d: a2 0f        	ldx	#$f
    146f: 86 62        	stx	$62                     ; 0x2062 <main+0x1ae3>
    1471: 8e 16 d0     	stx	$d016                   ; 0xd016 <__heap_start+0x677a>
    1474: 9c 17 d0     	stz	$d017                   ; 0xd017 <__heap_start+0x677b>
    1477: a9 07        	lda	#$7
    1479: 92 10        	sta	($10)                   ; 0x2010 <main+0x1a91>
    147b: a9 00        	lda	#$0
    147d: 91 10        	sta	($10),y                 ; 0x2010 <main+0x1a91>
    147f: a2 ae        	ldx	#$ae
    1481: 86 12        	stx	$12                     ; 0x2012 <main+0x1a93>
    1483: a2 66        	ldx	#$66
    1485: 86 13        	stx	$13                     ; 0x2013 <main+0x1a94>
    1487: 20 4e 55     	jsr	$554e <printf>
    148a: a2 01        	ldx	#$1
    148c: 86 61        	stx	$61                     ; 0x2061 <main+0x1ae2>
    148e: 8e 14 d0     	stx	$d014                   ; 0xd014 <__heap_start+0x6778>
    1491: a0 01        	ldy	#$1
    1493: 9c 15 d0     	stz	$d015                   ; 0xd015 <__heap_start+0x6779>
    1496: a2 10        	ldx	#$10
    1498: 86 62        	stx	$62                     ; 0x2062 <main+0x1ae3>
    149a: 8e 16 d0     	stx	$d016                   ; 0xd016 <__heap_start+0x677a>
    149d: 9c 17 d0     	stz	$d017                   ; 0xd017 <__heap_start+0x677b>
    14a0: a9 08        	lda	#$8
    14a2: 92 10        	sta	($10)                   ; 0x2010 <main+0x1a91>
    14a4: a9 00        	lda	#$0
    14a6: 91 10        	sta	($10),y                 ; 0x2010 <main+0x1a91>
    14a8: a2 ae        	ldx	#$ae
    14aa: 86 12        	stx	$12                     ; 0x2012 <main+0x1a93>
    14ac: a2 66        	ldx	#$66
    14ae: 86 13        	stx	$13                     ; 0x2013 <main+0x1a94>
    14b0: 20 4e 55     	jsr	$554e <printf>
    14b3: a2 01        	ldx	#$1
    14b5: 86 61        	stx	$61                     ; 0x2061 <main+0x1ae2>
    14b7: 8e 14 d0     	stx	$d014                   ; 0xd014 <__heap_start+0x6778>
    14ba: a0 01        	ldy	#$1
    14bc: 9c 15 d0     	stz	$d015                   ; 0xd015 <__heap_start+0x6779>
    14bf: a2 11        	ldx	#$11
    14c1: 86 62        	stx	$62                     ; 0x2062 <main+0x1ae3>
    14c3: 8e 16 d0     	stx	$d016                   ; 0xd016 <__heap_start+0x677a>
    14c6: 9c 17 d0     	stz	$d017                   ; 0xd017 <__heap_start+0x677b>
    14c9: a9 09        	lda	#$9
    14cb: 92 10        	sta	($10)                   ; 0x2010 <main+0x1a91>
    14cd: a9 00        	lda	#$0
    14cf: 91 10        	sta	($10),y                 ; 0x2010 <main+0x1a91>
    14d1: a2 ae        	ldx	#$ae
    14d3: 86 12        	stx	$12                     ; 0x2012 <main+0x1a93>
    14d5: a2 66        	ldx	#$66
    14d7: 86 13        	stx	$13                     ; 0x2013 <main+0x1a94>
    14d9: 20 4e 55     	jsr	$554e <printf>
    14dc: a2 01        	ldx	#$1
    14de: 86 61        	stx	$61                     ; 0x2061 <main+0x1ae2>
    14e0: 8e 14 d0     	stx	$d014                   ; 0xd014 <__heap_start+0x6778>
    14e3: a0 01        	ldy	#$1
    14e5: 9c 15 d0     	stz	$d015                   ; 0xd015 <__heap_start+0x6779>
    14e8: a2 12        	ldx	#$12
    14ea: 86 62        	stx	$62                     ; 0x2062 <main+0x1ae3>
    14ec: 8e 16 d0     	stx	$d016                   ; 0xd016 <__heap_start+0x677a>
    14ef: 9c 17 d0     	stz	$d017                   ; 0xd017 <__heap_start+0x677b>
    14f2: a9 0a        	lda	#$a
    14f4: 92 10        	sta	($10)                   ; 0x2010 <main+0x1a91>
    14f6: a9 00        	lda	#$0
    14f8: 91 10        	sta	($10),y                 ; 0x2010 <main+0x1a91>
    14fa: a2 ae        	ldx	#$ae
    14fc: 86 12        	stx	$12                     ; 0x2012 <main+0x1a93>
    14fe: a2 66        	ldx	#$66
    1500: 86 13        	stx	$13                     ; 0x2013 <main+0x1a94>
    1502: 20 4e 55     	jsr	$554e <printf>
    1505: a2 01        	ldx	#$1
    1507: 86 61        	stx	$61                     ; 0x2061 <main+0x1ae2>
    1509: 8e 14 d0     	stx	$d014                   ; 0xd014 <__heap_start+0x6778>
    150c: a0 01        	ldy	#$1
    150e: 9c 15 d0     	stz	$d015                   ; 0xd015 <__heap_start+0x6779>
    1511: a2 13        	ldx	#$13
    1513: 86 62        	stx	$62                     ; 0x2062 <main+0x1ae3>
    1515: 8e 16 d0     	stx	$d016                   ; 0xd016 <__heap_start+0x677a>
    1518: 9c 17 d0     	stz	$d017                   ; 0xd017 <__heap_start+0x677b>
    151b: a9 0b        	lda	#$b
    151d: 92 10        	sta	($10)                   ; 0x2010 <main+0x1a91>
    151f: a9 00        	lda	#$0
    1521: 91 10        	sta	($10),y                 ; 0x2010 <main+0x1a91>
    1523: a2 ae        	ldx	#$ae
    1525: 86 12        	stx	$12                     ; 0x2012 <main+0x1a93>
    1527: a2 66        	ldx	#$66
    1529: 86 13        	stx	$13                     ; 0x2013 <main+0x1a94>
    152b: 20 4e 55     	jsr	$554e <printf>
    152e: a2 01        	ldx	#$1
    1530: 86 61        	stx	$61                     ; 0x2061 <main+0x1ae2>
    1532: 8e 14 d0     	stx	$d014                   ; 0xd014 <__heap_start+0x6778>
    1535: a0 01        	ldy	#$1
    1537: 9c 15 d0     	stz	$d015                   ; 0xd015 <__heap_start+0x6779>
    153a: a2 14        	ldx	#$14
    153c: 86 62        	stx	$62                     ; 0x2062 <main+0x1ae3>
    153e: 8e 16 d0     	stx	$d016                   ; 0xd016 <__heap_start+0x677a>
    1541: 9c 17 d0     	stz	$d017                   ; 0xd017 <__heap_start+0x677b>
    1544: a9 0c        	lda	#$c
    1546: 92 10        	sta	($10)                   ; 0x2010 <main+0x1a91>
    1548: a9 00        	lda	#$0
    154a: 91 10        	sta	($10),y                 ; 0x2010 <main+0x1a91>
    154c: a2 ae        	ldx	#$ae
    154e: 86 12        	stx	$12                     ; 0x2012 <main+0x1a93>
    1550: a2 66        	ldx	#$66
    1552: 86 13        	stx	$13                     ; 0x2013 <main+0x1a94>
    1554: 20 4e 55     	jsr	$554e <printf>
    1557: a2 01        	ldx	#$1
    1559: 86 61        	stx	$61                     ; 0x2061 <main+0x1ae2>
    155b: 8e 14 d0     	stx	$d014                   ; 0xd014 <__heap_start+0x6778>
    155e: a0 01        	ldy	#$1
    1560: 9c 15 d0     	stz	$d015                   ; 0xd015 <__heap_start+0x6779>
    1563: a2 15        	ldx	#$15
    1565: 86 62        	stx	$62                     ; 0x2062 <main+0x1ae3>
    1567: 8e 16 d0     	stx	$d016                   ; 0xd016 <__heap_start+0x677a>
    156a: 9c 17 d0     	stz	$d017                   ; 0xd017 <__heap_start+0x677b>
    156d: a9 0d        	lda	#$d
    156f: 92 10        	sta	($10)                   ; 0x2010 <main+0x1a91>
    1571: a9 00        	lda	#$0
    1573: 91 10        	sta	($10),y                 ; 0x2010 <main+0x1a91>
    1575: a2 ae        	ldx	#$ae
    1577: 86 12        	stx	$12                     ; 0x2012 <main+0x1a93>
    1579: a2 66        	ldx	#$66
    157b: 86 13        	stx	$13                     ; 0x2013 <main+0x1a94>
    157d: 20 4e 55     	jsr	$554e <printf>
    1580: a2 01        	ldx	#$1
    1582: 86 61        	stx	$61                     ; 0x2061 <main+0x1ae2>
    1584: 8e 14 d0     	stx	$d014                   ; 0xd014 <__heap_start+0x6778>
    1587: a0 01        	ldy	#$1
    1589: 9c 15 d0     	stz	$d015                   ; 0xd015 <__heap_start+0x6779>
    158c: a2 16        	ldx	#$16
    158e: 86 62        	stx	$62                     ; 0x2062 <main+0x1ae3>
    1590: 8e 16 d0     	stx	$d016                   ; 0xd016 <__heap_start+0x677a>
    1593: 9c 17 d0     	stz	$d017                   ; 0xd017 <__heap_start+0x677b>
    1596: a9 0e        	lda	#$e
    1598: 92 10        	sta	($10)                   ; 0x2010 <main+0x1a91>
    159a: a9 00        	lda	#$0
    159c: 91 10        	sta	($10),y                 ; 0x2010 <main+0x1a91>
    159e: a2 ae        	ldx	#$ae
    15a0: 86 12        	stx	$12                     ; 0x2012 <main+0x1a93>
    15a2: a2 66        	ldx	#$66
    15a4: 86 13        	stx	$13                     ; 0x2013 <main+0x1a94>
    15a6: 20 4e 55     	jsr	$554e <printf>
    15a9: a2 01        	ldx	#$1
    15ab: 86 61        	stx	$61                     ; 0x2061 <main+0x1ae2>
    15ad: 8e 14 d0     	stx	$d014                   ; 0xd014 <__heap_start+0x6778>
    15b0: a0 01        	ldy	#$1
    15b2: 9c 15 d0     	stz	$d015                   ; 0xd015 <__heap_start+0x6779>
    15b5: a2 17        	ldx	#$17
    15b7: 86 62        	stx	$62                     ; 0x2062 <main+0x1ae3>
    15b9: 8e 16 d0     	stx	$d016                   ; 0xd016 <__heap_start+0x677a>
    15bc: 9c 17 d0     	stz	$d017                   ; 0xd017 <__heap_start+0x677b>
    15bf: a9 0f        	lda	#$f
    15c1: 92 10        	sta	($10)                   ; 0x2010 <main+0x1a91>
    15c3: a9 00        	lda	#$0
    15c5: 91 10        	sta	($10),y                 ; 0x2010 <main+0x1a91>
    15c7: a2 ae        	ldx	#$ae
    15c9: 86 12        	stx	$12                     ; 0x2012 <main+0x1a93>
    15cb: a2 66        	ldx	#$66
    15cd: 86 13        	stx	$13                     ; 0x2013 <main+0x1a94>
    15cf: 20 4e 55     	jsr	$554e <printf>
    15d2: a2 04        	ldx	#$4
    15d4: 86 61        	stx	$61                     ; 0x2061 <main+0x1ae2>
    15d6: 8e 14 d0     	stx	$d014                   ; 0xd014 <__heap_start+0x6778>
    15d9: 9c 15 d0     	stz	$d015                   ; 0xd015 <__heap_start+0x6779>
    15dc: a2 11        	ldx	#$11
    15de: 86 62        	stx	$62                     ; 0x2062 <main+0x1ae3>
    15e0: 8e 16 d0     	stx	$d016                   ; 0xd016 <__heap_start+0x677a>
    15e3: 9c 17 d0     	stz	$d017                   ; 0xd017 <__heap_start+0x677b>
    15e6: a2 a0        	ldx	#$a0
    15e8: 86 60        	stx	$60                     ; 0x2060 <main+0x1ae1>
    15ea: a2 a5        	ldx	#$a5
    15ec: 86 12        	stx	$12                     ; 0x2012 <main+0x1a93>
    15ee: a2 67        	ldx	#$67
    15f0: 86 13        	stx	$13                     ; 0x2013 <main+0x1a94>
    15f2: 20 35 40     	jsr	$4035 <textPrint>
    15f5: 64 61        	stz	$61                     ; 0x2061 <main+0x1ae2>
    15f7: 9c 14 d0     	stz	$d014                   ; 0xd014 <__heap_start+0x6778>
    15fa: 9c 15 d0     	stz	$d015                   ; 0xd015 <__heap_start+0x6779>
    15fd: a2 19        	ldx	#$19
    15ff: 86 62        	stx	$62                     ; 0x2062 <main+0x1ae3>
    1601: 8e 16 d0     	stx	$d016                   ; 0xd016 <__heap_start+0x677a>
    1604: 9c 17 d0     	stz	$d017                   ; 0xd017 <__heap_start+0x677b>
    1607: a5 2a        	lda	$2a                     ; 0x202a <main+0x1aab>
    1609: 92 10        	sta	($10)                   ; 0x2010 <main+0x1a91>
    160b: a5 2b        	lda	$2b                     ; 0x202b <main+0x1aac>
    160d: a0 01        	ldy	#$1
    160f: 91 10        	sta	($10),y                 ; 0x2010 <main+0x1a91>
    1611: a2 4f        	ldx	#$4f
    1613: 86 12        	stx	$12                     ; 0x2012 <main+0x1a93>
    1615: a2 67        	ldx	#$67
    1617: 86 13        	stx	$13                     ; 0x2013 <main+0x1a94>
    1619: 20 4e 55     	jsr	$554e <printf>
    161c: a0 0d        	ldy	#$d
    161e: b1 10        	lda	($10),y                 ; 0x2010 <main+0x1a91>
    1620: 85 28        	sta	$28                     ; 0x2028 <main+0x1aa9>
    1622: c8           	iny
    1623: b1 10        	lda	($10),y                 ; 0x2010 <main+0x1a91>
    1625: 85 29        	sta	$29                     ; 0x2029 <main+0x1aaa>
    1627: a2 c0        	ldx	#$c0
    1629: 8e a1 dd     	stx	$dda1                   ; 0xdda1 <__heap_start+0x7505>
    162c: 9c a1 dd     	stz	$dda1                   ; 0xdda1 <__heap_start+0x7505>
    162f: e8           	inx
    1630: 8e a1 dd     	stx	$dda1                   ; 0xdda1 <__heap_start+0x7505>
    1633: 9c a1 dd     	stz	$dda1                   ; 0xdda1 <__heap_start+0x7505>
    1636: e8           	inx
    1637: 8e a1 dd     	stx	$dda1                   ; 0xdda1 <__heap_start+0x7505>
    163a: 9c a1 dd     	stz	$dda1                   ; 0xdda1 <__heap_start+0x7505>
    163d: e8           	inx
    163e: 8e a1 dd     	stx	$dda1                   ; 0xdda1 <__heap_start+0x7505>
    1641: 9c a1 dd     	stz	$dda1                   ; 0xdda1 <__heap_start+0x7505>
    1644: e8           	inx
    1645: 8e a1 dd     	stx	$dda1                   ; 0xdda1 <__heap_start+0x7505>
    1648: 9c a1 dd     	stz	$dda1                   ; 0xdda1 <__heap_start+0x7505>
    164b: e8           	inx
    164c: 8e a1 dd     	stx	$dda1                   ; 0xdda1 <__heap_start+0x7505>
    164f: 9c a1 dd     	stz	$dda1                   ; 0xdda1 <__heap_start+0x7505>
    1652: e8           	inx
    1653: 8e a1 dd     	stx	$dda1                   ; 0xdda1 <__heap_start+0x7505>
    1656: 9c a1 dd     	stz	$dda1                   ; 0xdda1 <__heap_start+0x7505>
    1659: e8           	inx
    165a: 8e a1 dd     	stx	$dda1                   ; 0xdda1 <__heap_start+0x7505>
    165d: 9c a1 dd     	stz	$dda1                   ; 0xdda1 <__heap_start+0x7505>
    1660: e8           	inx
    1661: 8e a1 dd     	stx	$dda1                   ; 0xdda1 <__heap_start+0x7505>
    1664: 9c a1 dd     	stz	$dda1                   ; 0xdda1 <__heap_start+0x7505>
    1667: e8           	inx
    1668: 8e a1 dd     	stx	$dda1                   ; 0xdda1 <__heap_start+0x7505>
    166b: 9c a1 dd     	stz	$dda1                   ; 0xdda1 <__heap_start+0x7505>
    166e: e8           	inx
    166f: 8e a1 dd     	stx	$dda1                   ; 0xdda1 <__heap_start+0x7505>
    1672: 9c a1 dd     	stz	$dda1                   ; 0xdda1 <__heap_start+0x7505>
    1675: e8           	inx
    1676: 8e a1 dd     	stx	$dda1                   ; 0xdda1 <__heap_start+0x7505>
    1679: 9c a1 dd     	stz	$dda1                   ; 0xdda1 <__heap_start+0x7505>
    167c: e8           	inx
    167d: 8e a1 dd     	stx	$dda1                   ; 0xdda1 <__heap_start+0x7505>
    1680: 9c a1 dd     	stz	$dda1                   ; 0xdda1 <__heap_start+0x7505>
    1683: e8           	inx
    1684: 8e a1 dd     	stx	$dda1                   ; 0xdda1 <__heap_start+0x7505>
    1687: 9c a1 dd     	stz	$dda1                   ; 0xdda1 <__heap_start+0x7505>
    168a: e8           	inx
    168b: 8e a1 dd     	stx	$dda1                   ; 0xdda1 <__heap_start+0x7505>
    168e: 9c a1 dd     	stz	$dda1                   ; 0xdda1 <__heap_start+0x7505>
    1691: e8           	inx
    1692: 8e a1 dd     	stx	$dda1                   ; 0xdda1 <__heap_start+0x7505>
    1695: 9c a1 dd     	stz	$dda1                   ; 0xdda1 <__heap_start+0x7505>
    1698: a2 ff        	ldx	#$ff
    169a: 8e a1 dd     	stx	$dda1                   ; 0xdda1 <__heap_start+0x7505>
    169d: 8e a1 dd     	stx	$dda1                   ; 0xdda1 <__heap_start+0x7505>
    16a0: a0 02        	ldy	#$2
    16a2: b1 28        	lda	($28),y                 ; 0x2028 <main+0x1aa9>
    16a4: aa           	tax
    16a5: a0 0f        	ldy	#$f
    16a7: b1 10        	lda	($10),y                 ; 0x2010 <main+0x1a91>
    16a9: 85 12        	sta	$12                     ; 0x2012 <main+0x1a93>
    16ab: c8           	iny
    16ac: b1 10        	lda	($10),y                 ; 0x2010 <main+0x1a91>
    16ae: 85 13        	sta	$13                     ; 0x2013 <main+0x1a94>
    16b0: a0 01        	ldy	#$1
    16b2: b1 12        	lda	($12),y                 ; 0x2012 <main+0x1a93>
    16b4: 86 12        	stx	$12                     ; 0x2012 <main+0x1a93>
    16b6: 85 17        	sta	$17                     ; 0x2017 <main+0x1a98>
    16b8: 85 13        	sta	$13                     ; 0x2013 <main+0x1a94>
    16ba: b2 12        	lda	($12)                   ; 0x2012 <main+0x1a93>
    16bc: f0 46        	beq	$1704 <main+0x1185>
    16be: 86 16        	stx	$16                     ; 0x2016 <main+0x1a97>
    16c0: 85 19        	sta	$19                     ; 0x2019 <main+0x1a9a>
    16c2: 64 14        	stz	$14                     ; 0x2014 <main+0x1a95>
    16c4: 64 15        	stz	$15                     ; 0x2015 <main+0x1a96>
    16c6: a6 14        	ldx	$14                     ; 0x2014 <main+0x1a95>
    16c8: a4 15        	ldy	$15                     ; 0x2015 <main+0x1a96>
    16ca: e8           	inx
    16cb: d0 01        	bne	$16ce <main+0x114f>
    16cd: c8           	iny
    16ce: a5 16        	lda	$16                     ; 0x2016 <main+0x1a97>
    16d0: 18           	clc
    16d1: 65 14        	adc	$14                     ; 0x2014 <main+0x1a95>
    16d3: 85 1a        	sta	$1a                     ; 0x201a <main+0x1a9b>
    16d5: a5 17        	lda	$17                     ; 0x2017 <main+0x1a98>
    16d7: 65 15        	adc	$15                     ; 0x2015 <main+0x1a96>
    16d9: 86 1b        	stx	$1b                     ; 0x201b <main+0x1a9c>
    16db: a6 1a        	ldx	$1a                     ; 0x201a <main+0x1a9b>
    16dd: 86 14        	stx	$14                     ; 0x2014 <main+0x1a95>
    16df: 5a           	phy
    16e0: fa           	plx
    16e1: 85 15        	sta	$15                     ; 0x2015 <main+0x1a96>
    16e3: a0 01        	ldy	#$1
    16e5: b1 14        	lda	($14),y                 ; 0x2014 <main+0x1a95>
    16e7: a8           	tay
    16e8: a5 1b        	lda	$1b                     ; 0x201b <main+0x1a9c>
    16ea: 85 14        	sta	$14                     ; 0x2014 <main+0x1a95>
    16ec: 86 15        	stx	$15                     ; 0x2015 <main+0x1a96>
    16ee: c0 00        	cpy	#$0
    16f0: d0 d4        	bne	$16c6 <main+0x1147>
    16f2: 48           	pha
    16f3: a0 11        	ldy	#$11
    16f5: b1 10        	lda	($10),y                 ; 0x2010 <main+0x1a91>
    16f7: 85 1a        	sta	$1a                     ; 0x201a <main+0x1a9b>
    16f9: 68           	pla
    16fa: e0 00        	cpx	#$0
    16fc: d0 0e        	bne	$170c <main+0x118d>
    16fe: c9 02        	cmp	#$2
    1700: b0 0e        	bcs	$1710 <main+0x1191>
    1702: 80 38        	bra	$173c <main+0x11bd>
    1704: a0 11        	ldy	#$11
    1706: b1 10        	lda	($10),y                 ; 0x2010 <main+0x1a91>
    1708: 85 1a        	sta	$1a                     ; 0x201a <main+0x1a9b>
    170a: 80 30        	bra	$173c <main+0x11bd>
    170c: e0 00        	cpx	#$0
    170e: 90 2c        	bcc	$173c <main+0x11bd>
    1710: a0 01        	ldy	#$1
    1712: b1 12        	lda	($12),y                 ; 0x2012 <main+0x1a93>
    1714: c9 3a        	cmp	#$3a
    1716: d0 24        	bne	$173c <main+0x11bd>
    1718: a5 19        	lda	$19                     ; 0x2019 <main+0x1a9a>
    171a: c9 30        	cmp	#$30
    171c: 64 12        	stz	$12                     ; 0x2012 <main+0x1a93>
    171e: 90 09        	bcc	$1729 <main+0x11aa>
    1720: c9 38        	cmp	#$38
    1722: b0 05        	bcs	$1729 <main+0x11aa>
    1724: 18           	clc
    1725: 69 d0        	adc	#$d0
    1727: 85 12        	sta	$12                     ; 0x2012 <main+0x1a93>
    1729: a5 12        	lda	$12                     ; 0x2012 <main+0x1a93>
    172b: a0 12        	ldy	#$12
    172d: 91 10        	sta	($10),y                 ; 0x2010 <main+0x1a91>
    172f: 18           	clc
    1730: a5 16        	lda	$16                     ; 0x2016 <main+0x1a97>
    1732: 69 02        	adc	#$2
    1734: 85 12        	sta	$12                     ; 0x2012 <main+0x1a93>
    1736: a5 17        	lda	$17                     ; 0x2017 <main+0x1a98>
    1738: 69 00        	adc	#$0
    173a: 85 13        	sta	$13                     ; 0x2013 <main+0x1a94>
    173c: a2 d9        	ldx	#$d9
    173e: 86 14        	stx	$14                     ; 0x2014 <main+0x1a95>
    1740: a2 67        	ldx	#$67
    1742: 86 15        	stx	$15                     ; 0x2015 <main+0x1a96>
    1744: a2 00        	ldx	#$0
    1746: 80 0a        	bra	$1752 <main+0x11d3>
    1748: a0 02        	ldy	#$2
    174a: e6 14        	inc	$14                     ; 0x2014 <main+0x1a95>
    174c: d0 02        	bne	$1750 <main+0x11d1>
    174e: e6 15        	inc	$15                     ; 0x2015 <main+0x1a96>
    1750: 5a           	phy
    1751: fa           	plx
    1752: b2 14        	lda	($14)                   ; 0x2014 <main+0x1a95>
    1754: c9 61        	cmp	#$61
    1756: f0 f0        	beq	$1748 <main+0x11c9>
    1758: a0 01        	ldy	#$1
    175a: c9 77        	cmp	#$77
    175c: f0 05        	beq	$1763 <main+0x11e4>
    175e: a8           	tay
    175f: f0 08        	beq	$1769 <main+0x11ea>
    1761: da           	phx
    1762: 7a           	ply
    1763: e6 14        	inc	$14                     ; 0x2014 <main+0x1a95>
    1765: f0 e7        	beq	$174e <main+0x11cf>
    1767: 80 e7        	bra	$1750 <main+0x11d1>
    1769: a4 12        	ldy	$12                     ; 0x2012 <main+0x1a93>
    176b: a5 13        	lda	$13                     ; 0x2013 <main+0x1a94>
    176d: 84 fb        	sty	$fb                     ; 0x20fb <main+0x1b7c>
    176f: 85 fc        	sta	$fc                     ; 0x20fc <main+0x1b7d>
    1771: b2 12        	lda	($12)                   ; 0x2012 <main+0x1a93>
    1773: f0 33        	beq	$17a8 <main+0x1229>
    1775: 64 15        	stz	$15                     ; 0x2015 <main+0x1a96>
    1777: a0 01        	ldy	#$1
    1779: a9 00        	lda	#$0
    177b: 64 14        	stz	$14                     ; 0x2014 <main+0x1a95>
    177d: 5a           	phy
    177e: a4 15        	ldy	$15                     ; 0x2015 <main+0x1a96>
    1780: 84 16        	sty	$16                     ; 0x2016 <main+0x1a97>
    1782: 7a           	ply
    1783: e6 15        	inc	$15                     ; 0x2015 <main+0x1a96>
    1785: d0 02        	bne	$1789 <main+0x120a>
    1787: e6 14        	inc	$14                     ; 0x2014 <main+0x1a95>
    1789: 18           	clc
    178a: 85 17        	sta	$17                     ; 0x2017 <main+0x1a98>
    178c: a5 16        	lda	$16                     ; 0x2016 <main+0x1a97>
    178e: 65 12        	adc	$12                     ; 0x2012 <main+0x1a93>
    1790: 85 16        	sta	$16                     ; 0x2016 <main+0x1a97>
    1792: a5 17        	lda	$17                     ; 0x2017 <main+0x1a98>
    1794: 65 13        	adc	$13                     ; 0x2013 <main+0x1a94>
    1796: 85 17        	sta	$17                     ; 0x2017 <main+0x1a98>
    1798: b1 16        	lda	($16),y                 ; 0x2016 <main+0x1a97>
    179a: 85 16        	sta	$16                     ; 0x2016 <main+0x1a97>
    179c: a5 14        	lda	$14                     ; 0x2014 <main+0x1a95>
    179e: e6 16        	inc	$16                     ; 0x2016 <main+0x1a97>
    17a0: c6 16        	dec	$16                     ; 0x2016 <main+0x1a97>
    17a2: d0 d9        	bne	$177d <main+0x11fe>
    17a4: a4 15        	ldy	$15                     ; 0x2015 <main+0x1a96>
    17a6: 80 02        	bra	$17aa <main+0x122b>
    17a8: a0 00        	ldy	#$0
    17aa: 84 fd        	sty	$fd                     ; 0x20fd <main+0x1b7e>
    17ac: a0 12        	ldy	#$12
    17ae: b1 10        	lda	($10),y                 ; 0x2010 <main+0x1a91>
    17b0: 85 f3        	sta	$f3                     ; 0x20f3 <main+0x1b74>
    17b2: 86 f5        	stx	$f5                     ; 0x20f5 <main+0x1b76>
    17b4: a2 85        	ldx	#$85
    17b6: 86 12        	stx	$12                     ; 0x2012 <main+0x1a93>
    17b8: a2 00        	ldx	#$0
    17ba: 86 13        	stx	$13                     ; 0x2013 <main+0x1a94>
    17bc: 20 5c ff     	jsr	$ff5c <__heap_start+0x96c0>
    17bf: 92 2c        	sta	($2c)                   ; 0x202c <main+0x1aad>
    17c1: a9 00        	lda	#$0
    17c3: 6a           	ror
    17c4: 85 12        	sta	$12                     ; 0x2012 <main+0x1a93>
    17c6: a6 85        	ldx	$85                     ; 0x2085 <main+0x1b06>
    17c8: d0 03        	bne	$17cd <main+0x124e>
    17ca: 4c 92 18     	jmp	$1892 <main+0x1313>
    17cd: a0 02        	ldy	#$2
    17cf: 18           	clc
    17d0: 5a           	phy
    17d1: a0 14        	ldy	#$14
    17d3: b1 10        	lda	($10),y                 ; 0x2010 <main+0x1a91>
    17d5: 69 02        	adc	#$2
    17d7: aa           	tax
    17d8: 88           	dey
    17d9: b1 10        	lda	($10),y                 ; 0x2010 <main+0x1a91>
    17db: 7a           	ply
    17dc: 69 00        	adc	#$0
    17de: 86 12        	stx	$12                     ; 0x2012 <main+0x1a93>
    17e0: 85 13        	sta	$13                     ; 0x2013 <main+0x1a94>
    17e2: b1 28        	lda	($28),y                 ; 0x2028 <main+0x1aa9>
    17e4: 85 14        	sta	$14                     ; 0x2014 <main+0x1a95>
    17e6: a0 01        	ldy	#$1
    17e8: b1 12        	lda	($12),y                 ; 0x2012 <main+0x1a93>
    17ea: 85 12        	sta	$12                     ; 0x2012 <main+0x1a93>
    17ec: a5 14        	lda	$14                     ; 0x2014 <main+0x1a95>
    17ee: 92 10        	sta	($10)                   ; 0x2010 <main+0x1a91>
    17f0: a5 12        	lda	$12                     ; 0x2012 <main+0x1a93>
    17f2: 91 10        	sta	($10),y                 ; 0x2010 <main+0x1a91>
    17f4: a2 b4        	ldx	#$b4
    17f6: 86 12        	stx	$12                     ; 0x2012 <main+0x1a93>
    17f8: a2 66        	ldx	#$66
    17fa: 86 13        	stx	$13                     ; 0x2013 <main+0x1a94>
    17fc: 20 4e 55     	jsr	$554e <printf>
    17ff: a2 0b        	ldx	#$b
    1801: 86 12        	stx	$12                     ; 0x2012 <main+0x1a93>
    1803: a2 68        	ldx	#$68
    1805: 86 13        	stx	$13                     ; 0x2013 <main+0x1a94>
    1807: 20 4e 55     	jsr	$554e <printf>
    180a: a2 85        	ldx	#$85
    180c: 86 12        	stx	$12                     ; 0x2012 <main+0x1a93>
    180e: a2 00        	ldx	#$0
    1810: 86 13        	stx	$13                     ; 0x2013 <main+0x1a94>
    1812: 64 86        	stz	$86                     ; 0x2086 <main+0x1b07>
    1814: 20 00 ff     	jsr	$ff00 <__heap_start+0x9664>
    1817: 92 2e        	sta	($2e)                   ; 0x202e <main+0x1aaf>
    1819: a9 00        	lda	#$0
    181b: 6a           	ror
    181c: 85 12        	sta	$12                     ; 0x2012 <main+0x1a93>
    181e: a6 86        	ldx	$86                     ; 0x2086 <main+0x1b07>
    1820: e0 08        	cpx	#$8
    1822: d0 ee        	bne	$1812 <main+0x1293>
    1824: a6 8a        	ldx	$8a                     ; 0x208a <main+0x1b0b>
    1826: e0 20        	cpx	#$20
    1828: f0 04        	beq	$182e <main+0x12af>
    182a: e0 94        	cpx	#$94
    182c: d0 e4        	bne	$1812 <main+0x1293>
    182e: 78           	sei
    182f: a2 07        	ldx	#$7
    1831: 86 0f        	stx	$f                      ; 0x200f <main+0x1a90>
    1833: a2 de        	ldx	#$de
    1835: 8e a2 d6     	stx	$d6a2                   ; 0xd6a2 <__heap_start+0x6e06>
    1838: a2 ad        	ldx	#$ad
    183a: 8e a3 d6     	stx	$d6a3                   ; 0xd6a3 <__heap_start+0x6e07>
    183d: a2 f0        	ldx	#$f0
    183f: 8e a0 d6     	stx	$d6a0                   ; 0xd6a0 <__heap_start+0x6e04>
    1842: 9c a0 d6     	stz	$d6a0                   ; 0xd6a0 <__heap_start+0x6e04>
    1845: 6c fc ff     	jmp	($fffc)                 ; 0xfffc <__heap_start+0x9760>
    1848: a2 00        	ldx	#$0
    184a: 8a           	txa
    184b: 85 20        	sta	$20                     ; 0x2020 <main+0x1aa1>
    184d: a0 04        	ldy	#$4
    184f: b1 10        	lda	($10),y                 ; 0x2010 <main+0x1a91>
    1851: 85 2f        	sta	$2f                     ; 0x202f <main+0x1ab0>
    1853: c8           	iny
    1854: b1 10        	lda	($10),y                 ; 0x2010 <main+0x1a91>
    1856: 85 2e        	sta	$2e                     ; 0x202e <main+0x1aaf>
    1858: c8           	iny
    1859: b1 10        	lda	($10),y                 ; 0x2010 <main+0x1a91>
    185b: 85 2d        	sta	$2d                     ; 0x202d <main+0x1aae>
    185d: c8           	iny
    185e: b1 10        	lda	($10),y                 ; 0x2010 <main+0x1a91>
    1860: 85 2c        	sta	$2c                     ; 0x202c <main+0x1aad>
    1862: c8           	iny
    1863: b1 10        	lda	($10),y                 ; 0x2010 <main+0x1a91>
    1865: 85 2b        	sta	$2b                     ; 0x202b <main+0x1aac>
    1867: c8           	iny
    1868: b1 10        	lda	($10),y                 ; 0x2010 <main+0x1a91>
    186a: 85 2a        	sta	$2a                     ; 0x202a <main+0x1aab>
    186c: c8           	iny
    186d: b1 10        	lda	($10),y                 ; 0x2010 <main+0x1a91>
    186f: 85 29        	sta	$29                     ; 0x2029 <main+0x1aaa>
    1871: c8           	iny
    1872: b1 10        	lda	($10),y                 ; 0x2010 <main+0x1a91>
    1874: 85 28        	sta	$28                     ; 0x2028 <main+0x1aa9>
    1876: 7a           	ply
    1877: 84 27        	sty	$27                     ; 0x2027 <main+0x1aa8>
    1879: 7a           	ply
    187a: 84 26        	sty	$26                     ; 0x2026 <main+0x1aa7>
    187c: 7a           	ply
    187d: 84 25        	sty	$25                     ; 0x2025 <main+0x1aa6>
    187f: 7a           	ply
    1880: 84 24        	sty	$24                     ; 0x2024 <main+0x1aa5>
    1882: 18           	clc
    1883: a5 10        	lda	$10                     ; 0x2010 <main+0x1a91>
    1885: 69 15        	adc	#$15
    1887: 85 10        	sta	$10                     ; 0x2010 <main+0x1a91>
    1889: a5 11        	lda	$11                     ; 0x2011 <main+0x1a92>
    188b: 69 01        	adc	#$1
    188d: 85 11        	sta	$11                     ; 0x2011 <main+0x1a92>
    188f: a5 20        	lda	$20                     ; 0x2020 <main+0x1aa1>
    1891: 60           	rts
    1892: b2 2c        	lda	($2c)                   ; 0x202c <main+0x1aad>
    1894: a0 12        	ldy	#$12
    1896: 91 10        	sta	($10),y                 ; 0x2010 <main+0x1a91>
    1898: 64 86        	stz	$86                     ; 0x2086 <main+0x1b07>
    189a: 20 00 ff     	jsr	$ff00 <__heap_start+0x9664>
    189d: 92 2c        	sta	($2c)                   ; 0x202c <main+0x1aad>
    189f: a9 00        	lda	#$0
    18a1: 6a           	ror
    18a2: 85 12        	sta	$12                     ; 0x2012 <main+0x1a93>
    18a4: a6 86        	ldx	$86                     ; 0x2086 <main+0x1b07>
    18a6: e0 28        	cpx	#$28
    18a8: d0 03        	bne	$18ad <main+0x132e>
    18aa: 4c cd 17     	jmp	$17cd <main+0x124e>
    18ad: e0 38        	cpx	#$38
    18af: d0 03        	bne	$18b4 <main+0x1335>
    18b1: 4c cd 17     	jmp	$17cd <main+0x124e>
    18b4: e0 2a        	cpx	#$2a
    18b6: d0 e0        	bne	$1898 <main+0x1319>
    18b8: a5 8d        	lda	$8d                     ; 0x208d <main+0x1b0e>
    18ba: 29 01        	and	#$1
    18bc: a6 91        	ldx	$91                     ; 0x2091 <main+0x1b12>
    18be: a4 92        	ldy	$92                     ; 0x2092 <main+0x1b13>
    18c0: 86 12        	stx	$12                     ; 0x2012 <main+0x1a93>
    18c2: 84 13        	sty	$13                     ; 0x2013 <main+0x1a94>
    18c4: c9 00        	cmp	#$0
    18c6: f0 1c        	beq	$18e4 <main+0x1365>
    18c8: a2 b1        	ldx	#$b1
    18ca: 86 2e        	stx	$2e                     ; 0x202e <main+0x1aaf>
    18cc: a2 dd        	ldx	#$dd
    18ce: 86 2f        	stx	$2f                     ; 0x202f <main+0x1ab0>
    18d0: 4c f8 19     	jmp	$19f8 <main+0x1479>
    18d3: a6 15        	ldx	$15                     ; 0x2015 <main+0x1a96>
    18d5: 86 18        	stx	$18                     ; 0x2018 <main+0x1a99>
    18d7: aa           	tax
    18d8: a5 18        	lda	$18                     ; 0x2018 <main+0x1a99>
    18da: e0 00        	cpx	#$0
    18dc: d0 03        	bne	$18e1 <main+0x1362>
    18de: 4c 72 0b     	jmp	$b72 <main+0x5f3>
    18e1: 4c 0f 0c     	jmp	$c0f <main+0x690>
    18e4: 86 16        	stx	$16                     ; 0x2016 <main+0x1a97>
    18e6: a2 10        	ldx	#$10
    18e8: 86 14        	stx	$14                     ; 0x2014 <main+0x1a95>
    18ea: a9 00        	lda	#$0
    18ec: 29 fe        	and	#$fe
    18ee: 85 15        	sta	$15                     ; 0x2015 <main+0x1a96>
    18f0: a9 01        	lda	#$1
    18f2: 2d 9c 68     	and	$689c                   ; 0x689c <__heap_start>
    18f5: 05 15        	ora	$15                     ; 0x2015 <main+0x1a96>
    18f7: 8d 9c 68     	sta	$689c                   ; 0x689c <__heap_start>
    18fa: 8e 9d 68     	stx	$689d                   ; 0x689d <__heap_start+0x1>
    18fd: a9 9c        	lda	#$9c
    18ff: 18           	clc
    1900: 65 15        	adc	$15                     ; 0x2015 <main+0x1a96>
    1902: aa           	tax
    1903: a9 68        	lda	#$68
    1905: 65 14        	adc	$14                     ; 0x2014 <main+0x1a95>
    1907: 85 14        	sta	$14                     ; 0x2014 <main+0x1a95>
    1909: 18           	clc
    190a: 8a           	txa
    190b: 69 fe        	adc	#$fe
    190d: aa           	tax
    190e: a5 14        	lda	$14                     ; 0x2014 <main+0x1a95>
    1910: 69 ff        	adc	#$ff
    1912: 85 15        	sta	$15                     ; 0x2015 <main+0x1a96>
    1914: 86 14        	stx	$14                     ; 0x2014 <main+0x1a95>
    1916: a9 00        	lda	#$0
    1918: 92 14        	sta	($14)                   ; 0x2014 <main+0x1a95>
    191a: 5a           	phy
    191b: fa           	plx
    191c: a0 01        	ldy	#$1
    191e: a9 10        	lda	#$10
    1920: 91 14        	sta	($14),y                 ; 0x2014 <main+0x1a95>
    1922: ac 9d 68     	ldy	$689d                   ; 0x689d <__heap_start+0x1>
    1925: 84 19        	sty	$19                     ; 0x2019 <main+0x1a9a>
    1927: a9 fe        	lda	#$fe
    1929: 2d 9c 68     	and	$689c                   ; 0x689c <__heap_start>
    192c: a4 90        	ldy	$90                     ; 0x2090 <main+0x1b11>
    192e: 84 14        	sty	$14                     ; 0x2014 <main+0x1a95>
    1930: 18           	clc
    1931: 85 18        	sta	$18                     ; 0x2018 <main+0x1a99>
    1933: 65 8f        	adc	$8f                     ; 0x208f <main+0x1b10>
    1935: a8           	tay
    1936: a5 14        	lda	$14                     ; 0x2014 <main+0x1a95>
    1938: 6d 9d 68     	adc	$689d                   ; 0x689d <__heap_start+0x1>
    193b: 85 14        	sta	$14                     ; 0x2014 <main+0x1a95>
    193d: 18           	clc
    193e: 98           	tya
    193f: 69 fe        	adc	#$fe
    1941: 85 15        	sta	$15                     ; 0x2015 <main+0x1a96>
    1943: a5 14        	lda	$14                     ; 0x2014 <main+0x1a95>
    1945: 69 ff        	adc	#$ff
    1947: a4 15        	ldy	$15                     ; 0x2015 <main+0x1a96>
    1949: 84 8f        	sty	$8f                     ; 0x208f <main+0x1b10>
    194b: 85 90        	sta	$90                     ; 0x2090 <main+0x1b11>
    194d: a0 00        	ldy	#$0
    194f: 84 14        	sty	$14                     ; 0x2014 <main+0x1a95>
    1951: a0 00        	ldy	#$0
    1953: 84 15        	sty	$15                     ; 0x2015 <main+0x1a96>
    1955: a0 b1        	ldy	#$b1
    1957: 84 2e        	sty	$2e                     ; 0x202e <main+0x1aaf>
    1959: a0 dd        	ldy	#$dd
    195b: 84 2f        	sty	$2f                     ; 0x202f <main+0x1ab0>
    195d: a5 16        	lda	$16                     ; 0x2016 <main+0x1a97>
    195f: e4 15        	cpx	$15                     ; 0x2015 <main+0x1a96>
    1961: d0 23        	bne	$1986 <main+0x1407>
    1963: c5 14        	cmp	$14                     ; 0x2014 <main+0x1a95>
    1965: d0 1f        	bne	$1986 <main+0x1407>
    1967: a2 9c        	ldx	#$9c
    1969: a9 68        	lda	#$68
    196b: a0 9c        	ldy	#$9c
    196d: 84 12        	sty	$12                     ; 0x2012 <main+0x1a93>
    196f: a0 68        	ldy	#$68
    1971: 84 13        	sty	$13                     ; 0x2013 <main+0x1a94>
    1973: 8e a0 68     	stx	$68a0                   ; 0x68a0 <__heap_start+0x4>
    1976: 8d a1 68     	sta	$68a1                   ; 0x68a1 <__heap_start+0x5>
    1979: 8e 9e 68     	stx	$689e                   ; 0x689e <__heap_start+0x2>
    197c: 8d 9f 68     	sta	$689f                   ; 0x689f <__heap_start+0x3>
    197f: 86 91        	stx	$91                     ; 0x2091 <main+0x1b12>
    1981: 85 92        	sta	$92                     ; 0x2092 <main+0x1b13>
    1983: 4c e8 19     	jmp	$19e8 <main+0x1469>
    1986: 8d 9e 68     	sta	$689e                   ; 0x689e <__heap_start+0x2>
    1989: 8e 9f 68     	stx	$689f                   ; 0x689f <__heap_start+0x3>
    198c: a0 04        	ldy	#$4
    198e: 18           	clc
    198f: 69 04        	adc	#$4
    1991: 85 14        	sta	$14                     ; 0x2014 <main+0x1a95>
    1993: 8a           	txa
    1994: 69 00        	adc	#$0
    1996: 85 15        	sta	$15                     ; 0x2015 <main+0x1a96>
    1998: b1 12        	lda	($12),y                 ; 0x2012 <main+0x1a93>
    199a: 85 16        	sta	$16                     ; 0x2016 <main+0x1a97>
    199c: a0 01        	ldy	#$1
    199e: b1 14        	lda	($14),y                 ; 0x2014 <main+0x1a95>
    19a0: aa           	tax
    19a1: a4 16        	ldy	$16                     ; 0x2016 <main+0x1a97>
    19a3: 84 14        	sty	$14                     ; 0x2014 <main+0x1a95>
    19a5: 85 15        	sta	$15                     ; 0x2015 <main+0x1a96>
    19a7: 8c a0 68     	sty	$68a0                   ; 0x68a0 <__heap_start+0x4>
    19aa: 8d a1 68     	sta	$68a1                   ; 0x68a1 <__heap_start+0x5>
    19ad: 18           	clc
    19ae: a5 16        	lda	$16                     ; 0x2016 <main+0x1a97>
    19b0: 69 02        	adc	#$2
    19b2: 85 16        	sta	$16                     ; 0x2016 <main+0x1a97>
    19b4: 8a           	txa
    19b5: 69 00        	adc	#$0
    19b7: a0 02        	ldy	#$2
    19b9: 85 17        	sta	$17                     ; 0x2017 <main+0x1a98>
    19bb: a9 9c        	lda	#$9c
    19bd: 91 14        	sta	($14),y                 ; 0x2014 <main+0x1a95>
    19bf: a9 68        	lda	#$68
    19c1: 88           	dey
    19c2: 91 16        	sta	($16),y                 ; 0x2016 <main+0x1a97>
    19c4: ae 9e 68     	ldx	$689e                   ; 0x689e <__heap_start+0x2>
    19c7: ac 9f 68     	ldy	$689f                   ; 0x689f <__heap_start+0x3>
    19ca: 86 14        	stx	$14                     ; 0x2014 <main+0x1a95>
    19cc: 84 15        	sty	$15                     ; 0x2015 <main+0x1a96>
    19ce: 84 16        	sty	$16                     ; 0x2016 <main+0x1a97>
    19d0: a0 04        	ldy	#$4
    19d2: a9 9c        	lda	#$9c
    19d4: 91 14        	sta	($14),y                 ; 0x2014 <main+0x1a95>
    19d6: 18           	clc
    19d7: 8a           	txa
    19d8: 69 04        	adc	#$4
    19da: 85 14        	sta	$14                     ; 0x2014 <main+0x1a95>
    19dc: a5 16        	lda	$16                     ; 0x2016 <main+0x1a97>
    19de: 69 00        	adc	#$0
    19e0: 85 15        	sta	$15                     ; 0x2015 <main+0x1a96>
    19e2: a9 68        	lda	#$68
    19e4: a0 01        	ldy	#$1
    19e6: 91 14        	sta	($14),y                 ; 0x2014 <main+0x1a95>
    19e8: a4 18        	ldy	$18                     ; 0x2018 <main+0x1a99>
    19ea: 8c 9c 68     	sty	$689c                   ; 0x689c <__heap_start>
    19ed: a6 19        	ldx	$19                     ; 0x2019 <main+0x1a9a>
    19ef: 8e 9d 68     	stx	$689d                   ; 0x689d <__heap_start+0x1>
    19f2: a2 01        	ldx	#$1
    19f4: 86 8e        	stx	$8e                     ; 0x208e <main+0x1b0f>
    19f6: 86 8d        	stx	$8d                     ; 0x208d <main+0x1b0e>
    19f8: a0 01        	ldy	#$1
    19fa: a6 12        	ldx	$12                     ; 0x2012 <main+0x1a93>
    19fc: 86 24        	stx	$24                     ; 0x2024 <main+0x1aa5>
    19fe: a6 13        	ldx	$13                     ; 0x2013 <main+0x1a94>
    1a00: 86 25        	stx	$25                     ; 0x2025 <main+0x1aa6>
    1a02: 80 1d        	bra	$1a21 <main+0x14a2>
    1a04: c9 00        	cmp	#$0
    1a06: 8a           	txa
    1a07: b0 26        	bcs	$1a2f <main+0x14b0>
    1a09: a5 24        	lda	$24                     ; 0x2024 <main+0x1aa5>
    1a0b: 18           	clc
    1a0c: 69 02        	adc	#$2
    1a0e: 85 14        	sta	$14                     ; 0x2014 <main+0x1a95>
    1a10: a5 25        	lda	$25                     ; 0x2025 <main+0x1aa6>
    1a12: 69 00        	adc	#$0
    1a14: 85 15        	sta	$15                     ; 0x2015 <main+0x1a96>
    1a16: a0 02        	ldy	#$2
    1a18: b1 24        	lda	($24),y                 ; 0x2024 <main+0x1aa5>
    1a1a: 85 24        	sta	$24                     ; 0x2024 <main+0x1aa5>
    1a1c: 88           	dey
    1a1d: b1 14        	lda	($14),y                 ; 0x2014 <main+0x1a95>
    1a1f: 85 25        	sta	$25                     ; 0x2025 <main+0x1aa6>
    1a21: b2 24        	lda	($24)                   ; 0x2024 <main+0x1aa5>
    1a23: aa           	tax
    1a24: b1 24        	lda	($24),y                 ; 0x2024 <main+0x1aa5>
    1a26: 85 14        	sta	$14                     ; 0x2014 <main+0x1a95>
    1a28: d0 da        	bne	$1a04 <main+0x1485>
    1a2a: 8a           	txa
    1a2b: e0 08        	cpx	#$8
    1a2d: 90 da        	bcc	$1a09 <main+0x148a>
    1a2f: 29 fe        	and	#$fe
    1a31: 85 15        	sta	$15                     ; 0x2015 <main+0x1a96>
    1a33: a5 8f        	lda	$8f                     ; 0x208f <main+0x1b10>
    1a35: a6 90        	ldx	$90                     ; 0x2090 <main+0x1b11>
    1a37: 86 16        	stx	$16                     ; 0x2016 <main+0x1a97>
    1a39: 38           	sec
    1a3a: e5 15        	sbc	$15                     ; 0x2015 <main+0x1a96>
    1a3c: aa           	tax
    1a3d: a5 16        	lda	$16                     ; 0x2016 <main+0x1a97>
    1a3f: e5 14        	sbc	$14                     ; 0x2014 <main+0x1a95>
    1a41: 85 14        	sta	$14                     ; 0x2014 <main+0x1a95>
    1a43: 18           	clc
    1a44: 8a           	txa
    1a45: 69 02        	adc	#$2
    1a47: 85 15        	sta	$15                     ; 0x2015 <main+0x1a96>
    1a49: a5 14        	lda	$14                     ; 0x2014 <main+0x1a95>
    1a4b: 69 00        	adc	#$0
    1a4d: a6 15        	ldx	$15                     ; 0x2015 <main+0x1a96>
    1a4f: 86 8f        	stx	$8f                     ; 0x208f <main+0x1b10>
    1a51: 85 90        	sta	$90                     ; 0x2090 <main+0x1b11>
    1a53: a0 02        	ldy	#$2
    1a55: a5 24        	lda	$24                     ; 0x2024 <main+0x1aa5>
    1a57: 18           	clc
    1a58: 69 02        	adc	#$2
    1a5a: 85 14        	sta	$14                     ; 0x2014 <main+0x1a95>
    1a5c: a5 25        	lda	$25                     ; 0x2025 <main+0x1aa6>
    1a5e: 69 00        	adc	#$0
    1a60: 85 15        	sta	$15                     ; 0x2015 <main+0x1a96>
    1a62: b1 24        	lda	($24),y                 ; 0x2024 <main+0x1aa5>
    1a64: aa           	tax
    1a65: 88           	dey
    1a66: b1 14        	lda	($14),y                 ; 0x2014 <main+0x1a95>
    1a68: 85 19        	sta	$19                     ; 0x2019 <main+0x1a9a>
    1a6a: c5 25        	cmp	$25                     ; 0x2025 <main+0x1aa6>
    1a6c: d0 0f        	bne	$1a7d <main+0x14fe>
    1a6e: e4 24        	cpx	$24                     ; 0x2024 <main+0x1aa5>
    1a70: d0 0b        	bne	$1a7d <main+0x14fe>
    1a72: a2 00        	ldx	#$0
    1a74: 86 14        	stx	$14                     ; 0x2014 <main+0x1a95>
    1a76: a2 00        	ldx	#$0
    1a78: 86 15        	stx	$15                     ; 0x2015 <main+0x1a96>
    1a7a: 4c fa 1a     	jmp	$1afa <main+0x157b>
    1a7d: 86 18        	stx	$18                     ; 0x2018 <main+0x1a99>
    1a7f: a6 24        	ldx	$24                     ; 0x2024 <main+0x1aa5>
    1a81: a5 24        	lda	$24                     ; 0x2024 <main+0x1aa5>
    1a83: 86 1c        	stx	$1c                     ; 0x201c <main+0x1a9d>
    1a85: 18           	clc
    1a86: 69 04        	adc	#$4
    1a88: 85 14        	sta	$14                     ; 0x2014 <main+0x1a95>
    1a8a: a5 25        	lda	$25                     ; 0x2025 <main+0x1aa6>
    1a8c: 69 00        	adc	#$0
    1a8e: a0 04        	ldy	#$4
    1a90: 85 15        	sta	$15                     ; 0x2015 <main+0x1a96>
    1a92: b1 24        	lda	($24),y                 ; 0x2024 <main+0x1aa5>
    1a94: 85 1d        	sta	$1d                     ; 0x201d <main+0x1a9e>
    1a96: 18           	clc
    1a97: 69 02        	adc	#$2
    1a99: 85 16        	sta	$16                     ; 0x2016 <main+0x1a97>
    1a9b: a0 01        	ldy	#$1
    1a9d: b1 14        	lda	($14),y                 ; 0x2014 <main+0x1a95>
    1a9f: aa           	tax
    1aa0: 69 00        	adc	#$0
    1aa2: a4 16        	ldy	$16                     ; 0x2016 <main+0x1a97>
    1aa4: 84 14        	sty	$14                     ; 0x2014 <main+0x1a95>
    1aa6: 85 15        	sta	$15                     ; 0x2015 <main+0x1a96>
    1aa8: a4 1d        	ldy	$1d                     ; 0x201d <main+0x1a9e>
    1aaa: 84 16        	sty	$16                     ; 0x2016 <main+0x1a97>
    1aac: 86 17        	stx	$17                     ; 0x2017 <main+0x1a98>
    1aae: a0 02        	ldy	#$2
    1ab0: a5 18        	lda	$18                     ; 0x2018 <main+0x1a99>
    1ab2: 91 16        	sta	($16),y                 ; 0x2016 <main+0x1a97>
    1ab4: a5 19        	lda	$19                     ; 0x2019 <main+0x1a9a>
    1ab6: 88           	dey
    1ab7: 91 14        	sta	($14),y                 ; 0x2014 <main+0x1a95>
    1ab9: 18           	clc
    1aba: a5 1c        	lda	$1c                     ; 0x201c <main+0x1a9d>
    1abc: 69 02        	adc	#$2
    1abe: 85 14        	sta	$14                     ; 0x2014 <main+0x1a95>
    1ac0: a5 25        	lda	$25                     ; 0x2025 <main+0x1aa6>
    1ac2: 69 00        	adc	#$0
    1ac4: 85 15        	sta	$15                     ; 0x2015 <main+0x1a96>
    1ac6: c8           	iny
    1ac7: b1 24        	lda	($24),y                 ; 0x2024 <main+0x1aa5>
    1ac9: 85 16        	sta	$16                     ; 0x2016 <main+0x1a97>
    1acb: 88           	dey
    1acc: b1 14        	lda	($14),y                 ; 0x2014 <main+0x1a95>
    1ace: a4 16        	ldy	$16                     ; 0x2016 <main+0x1a97>
    1ad0: 84 14        	sty	$14                     ; 0x2014 <main+0x1a95>
    1ad2: 85 15        	sta	$15                     ; 0x2015 <main+0x1a96>
    1ad4: 85 17        	sta	$17                     ; 0x2017 <main+0x1a98>
    1ad6: a0 04        	ldy	#$4
    1ad8: a5 1d        	lda	$1d                     ; 0x201d <main+0x1a9e>
    1ada: 91 14        	sta	($14),y                 ; 0x2014 <main+0x1a95>
    1adc: 18           	clc
    1add: a5 16        	lda	$16                     ; 0x2016 <main+0x1a97>
    1adf: 69 04        	adc	#$4
    1ae1: 85 16        	sta	$16                     ; 0x2016 <main+0x1a97>
    1ae3: a5 17        	lda	$17                     ; 0x2017 <main+0x1a98>
    1ae5: 69 00        	adc	#$0
    1ae7: 85 17        	sta	$17                     ; 0x2017 <main+0x1a98>
    1ae9: 8a           	txa
    1aea: a0 01        	ldy	#$1
    1aec: 91 16        	sta	($16),y                 ; 0x2016 <main+0x1a97>
    1aee: a6 13        	ldx	$13                     ; 0x2013 <main+0x1a94>
    1af0: e4 25        	cpx	$25                     ; 0x2025 <main+0x1aa6>
    1af2: d0 0e        	bne	$1b02 <main+0x1583>
    1af4: a6 12        	ldx	$12                     ; 0x2012 <main+0x1a93>
    1af6: e4 24        	cpx	$24                     ; 0x2024 <main+0x1aa5>
    1af8: d0 08        	bne	$1b02 <main+0x1583>
    1afa: a6 14        	ldx	$14                     ; 0x2014 <main+0x1a95>
    1afc: a4 15        	ldy	$15                     ; 0x2015 <main+0x1a96>
    1afe: 86 91        	stx	$91                     ; 0x2091 <main+0x1b12>
    1b00: 84 92        	sty	$92                     ; 0x2092 <main+0x1b13>
    1b02: a0 01        	ldy	#$1
    1b04: b1 24        	lda	($24),y                 ; 0x2024 <main+0x1aa5>
    1b06: 85 12        	sta	$12                     ; 0x2012 <main+0x1a93>
    1b08: a9 fe        	lda	#$fe
    1b0a: 32 24        	and	($24)                   ; 0x2024 <main+0x1aa5>
    1b0c: 18           	clc
    1b0d: aa           	tax
    1b0e: 69 f8        	adc	#$f8
    1b10: a8           	tay
    1b11: a5 12        	lda	$12                     ; 0x2012 <main+0x1a93>
    1b13: 85 14        	sta	$14                     ; 0x2014 <main+0x1a95>
    1b15: 69 ff        	adc	#$ff
    1b17: f0 03        	beq	$1b1c <main+0x159d>
    1b19: 4c 5e 1d     	jmp	$1d5e <main+0x17df>
    1b1c: 85 15        	sta	$15                     ; 0x2015 <main+0x1a96>
    1b1e: c0 08        	cpy	#$8
    1b20: 90 2a        	bcc	$1b4c <main+0x15cd>
    1b22: a5 24        	lda	$24                     ; 0x2024 <main+0x1aa5>
    1b24: 18           	clc
    1b25: 69 08        	adc	#$8
    1b27: 85 12        	sta	$12                     ; 0x2012 <main+0x1a93>
    1b29: a5 25        	lda	$25                     ; 0x2025 <main+0x1aa6>
    1b2b: 69 00        	adc	#$0
    1b2d: 85 13        	sta	$13                     ; 0x2013 <main+0x1a94>
    1b2f: a6 15        	ldx	$15                     ; 0x2015 <main+0x1a96>
    1b31: 98           	tya
    1b32: 20 48 03     	jsr	$348 <_ZN12_GLOBAL__N_19FreeChunk6insertEPvj>
    1b35: a0 01        	ldy	#$1
    1b37: 98           	tya
    1b38: 32 24        	and	($24)                   ; 0x2024 <main+0x1aa5>
    1b3a: 09 08        	ora	#$8
    1b3c: 92 24        	sta	($24)                   ; 0x2024 <main+0x1aa5>
    1b3e: a2 08        	ldx	#$8
    1b40: 64 14        	stz	$14                     ; 0x2014 <main+0x1a95>
    1b42: a9 00        	lda	#$0
    1b44: 91 24        	sta	($24),y                 ; 0x2024 <main+0x1aa5>
    1b46: a0 11        	ldy	#$11
    1b48: b1 10        	lda	($10),y                 ; 0x2010 <main+0x1a91>
    1b4a: 85 1a        	sta	$1a                     ; 0x201a <main+0x1a9b>
    1b4c: 18           	clc
    1b4d: 8a           	txa
    1b4e: 65 24        	adc	$24                     ; 0x2024 <main+0x1aa5>
    1b50: aa           	tax
    1b51: a5 14        	lda	$14                     ; 0x2014 <main+0x1a95>
    1b53: 65 25        	adc	$25                     ; 0x2025 <main+0x1aa6>
    1b55: 48           	pha
    1b56: a0 0c        	ldy	#$c
    1b58: b1 10        	lda	($10),y                 ; 0x2010 <main+0x1a91>
    1b5a: 85 18        	sta	$18                     ; 0x2018 <main+0x1a99>
    1b5c: 68           	pla
    1b5d: 85 13        	sta	$13                     ; 0x2013 <main+0x1a94>
    1b5f: c5 18        	cmp	$18                     ; 0x2018 <main+0x1a99>
    1b61: d0 08        	bne	$1b6b <main+0x15ec>
    1b63: e4 1a        	cpx	$1a                     ; 0x201a <main+0x1a9b>
    1b65: d0 04        	bne	$1b6b <main+0x15ec>
    1b67: 64 8e        	stz	$8e                     ; 0x208e <main+0x1b0f>
    1b69: 80 12        	bra	$1b7d <main+0x15fe>
    1b6b: 86 12        	stx	$12                     ; 0x2012 <main+0x1a93>
    1b6d: a0 01        	ldy	#$1
    1b6f: b1 12        	lda	($12),y                 ; 0x2012 <main+0x1a93>
    1b71: 85 14        	sta	$14                     ; 0x2014 <main+0x1a95>
    1b73: a9 fe        	lda	#$fe
    1b75: 32 12        	and	($12)                   ; 0x2012 <main+0x1a93>
    1b77: 92 12        	sta	($12)                   ; 0x2012 <main+0x1a93>
    1b79: a5 14        	lda	$14                     ; 0x2014 <main+0x1a95>
    1b7b: 91 12        	sta	($12),y                 ; 0x2012 <main+0x1a93>
    1b7d: a0 02        	ldy	#$2
    1b7f: 5a           	phy
    1b80: a0 12        	ldy	#$12
    1b82: b1 10        	lda	($10),y                 ; 0x2010 <main+0x1a91>
    1b84: 7a           	ply
    1b85: 91 24        	sta	($24),y                 ; 0x2024 <main+0x1aa5>
    1b87: 64 19        	stz	$19                     ; 0x2019 <main+0x1a9a>
    1b89: a2 85        	ldx	#$85
    1b8b: 86 12        	stx	$12                     ; 0x2012 <main+0x1a93>
    1b8d: a2 00        	ldx	#$0
    1b8f: 86 13        	stx	$13                     ; 0x2013 <main+0x1a94>
    1b91: 64 1b        	stz	$1b                     ; 0x201b <main+0x1a9c>
    1b93: 64 1c        	stz	$1c                     ; 0x201c <main+0x1a9d>
    1b95: a9 00        	lda	#$0
    1b97: 85 1d        	sta	$1d                     ; 0x201d <main+0x1a9e>
    1b99: 64 14        	stz	$14                     ; 0x2014 <main+0x1a95>
    1b9b: 64 15        	stz	$15                     ; 0x2015 <main+0x1a96>
    1b9d: a0 02        	ldy	#$2
    1b9f: b1 24        	lda	($24),y                 ; 0x2024 <main+0x1aa5>
    1ba1: 85 16        	sta	$16                     ; 0x2016 <main+0x1a97>
    1ba3: 18           	clc
    1ba4: a5 10        	lda	$10                     ; 0x2010 <main+0x1a91>
    1ba6: 69 15        	adc	#$15
    1ba8: aa           	tax
    1ba9: a5 11        	lda	$11                     ; 0x2011 <main+0x1a92>
    1bab: 69 00        	adc	#$0
    1bad: a8           	tay
    1bae: 86 2a        	stx	$2a                     ; 0x202a <main+0x1aab>
    1bb0: 8a           	txa
    1bb1: 18           	clc
    1bb2: 65 14        	adc	$14                     ; 0x2014 <main+0x1a95>
    1bb4: 85 17        	sta	$17                     ; 0x2017 <main+0x1a98>
    1bb6: 84 29        	sty	$29                     ; 0x2029 <main+0x1aaa>
    1bb8: 98           	tya
    1bb9: 65 15        	adc	$15                     ; 0x2015 <main+0x1a96>
    1bbb: a6 16        	ldx	$16                     ; 0x2016 <main+0x1a97>
    1bbd: d0 03        	bne	$1bc2 <main+0x1643>
    1bbf: 4c 21 1c     	jmp	$1c21 <main+0x16a2>
    1bc2: a6 16        	ldx	$16                     ; 0x2016 <main+0x1a97>
    1bc4: 85 16        	sta	$16                     ; 0x2016 <main+0x1a97>
    1bc6: a9 fa        	lda	#$fa
    1bc8: 38           	sec
    1bc9: e5 14        	sbc	$14                     ; 0x2014 <main+0x1a95>
    1bcb: 86 f3        	stx	$f3                     ; 0x20f3 <main+0x1b74>
    1bcd: 85 f4        	sta	$f4                     ; 0x20f4 <main+0x1b75>
    1bcf: 20 60 ff     	jsr	$ff60 <__heap_start+0x96c4>
    1bd2: 92 2c        	sta	($2c)                   ; 0x202c <main+0x1aad>
    1bd4: a9 00        	lda	#$0
    1bd6: 6a           	ror
    1bd7: 85 12        	sta	$12                     ; 0x2012 <main+0x1a93>
    1bd9: a6 85        	ldx	$85                     ; 0x2085 <main+0x1b06>
    1bdb: a9 ff        	lda	#$ff
    1bdd: e0 00        	cpx	#$0
    1bdf: f0 03        	beq	$1be4 <main+0x1665>
    1be1: 4c 6a 1d     	jmp	$1d6a <main+0x17eb>
    1be4: a4 17        	ldy	$17                     ; 0x2017 <main+0x1a98>
    1be6: 64 86        	stz	$86                     ; 0x2086 <main+0x1b07>
    1be8: 20 00 ff     	jsr	$ff00 <__heap_start+0x9664>
    1beb: 92 2c        	sta	($2c)                   ; 0x202c <main+0x1aad>
    1bed: a9 00        	lda	#$0
    1bef: 6a           	ror
    1bf0: 85 12        	sta	$12                     ; 0x2012 <main+0x1a93>
    1bf2: a6 86        	ldx	$86                     ; 0x2086 <main+0x1b07>
    1bf4: e0 38        	cpx	#$38
    1bf6: d0 03        	bne	$1bfb <main+0x167c>
    1bf8: 4c 74 1c     	jmp	$1c74 <main+0x16f5>
    1bfb: e0 30        	cpx	#$30
    1bfd: d0 03        	bne	$1c02 <main+0x1683>
    1bff: 4c 7e 1c     	jmp	$1c7e <main+0x16ff>
    1c02: e0 2c        	cpx	#$2c
    1c04: d0 e0        	bne	$1be6 <main+0x1667>
    1c06: 84 fb        	sty	$fb                     ; 0x20fb <main+0x1b7c>
    1c08: a6 16        	ldx	$16                     ; 0x2016 <main+0x1a97>
    1c0a: 86 fc        	stx	$fc                     ; 0x20fc <main+0x1b7d>
    1c0c: a6 8c        	ldx	$8c                     ; 0x208c <main+0x1b0d>
    1c0e: 86 fd        	stx	$fd                     ; 0x20fd <main+0x1b7e>
    1c10: 20 04 ff     	jsr	$ff04 <__heap_start+0x9668>
    1c13: 92 2c        	sta	($2c)                   ; 0x202c <main+0x1aad>
    1c15: a9 00        	lda	#$0
    1c17: 6a           	ror
    1c18: 85 12        	sta	$12                     ; 0x2012 <main+0x1a93>
    1c1a: a5 8c        	lda	$8c                     ; 0x208c <main+0x1b0d>
    1c1c: d0 35        	bne	$1c53 <main+0x16d4>
    1c1e: 4c 57 1d     	jmp	$1d57 <main+0x17d8>
    1c21: a6 17        	ldx	$17                     ; 0x2017 <main+0x1a98>
    1c23: 86 16        	stx	$16                     ; 0x2016 <main+0x1a97>
    1c25: 85 17        	sta	$17                     ; 0x2017 <main+0x1a98>
    1c27: 80 0a        	bra	$1c33 <main+0x16b4>
    1c29: 20 0c ff     	jsr	$ff0c <__heap_start+0x9670>
    1c2c: 92 2c        	sta	($2c)                   ; 0x202c <main+0x1aad>
    1c2e: a9 00        	lda	#$0
    1c30: 6a           	ror
    1c31: 85 12        	sta	$12                     ; 0x2012 <main+0x1a93>
    1c33: 64 86        	stz	$86                     ; 0x2086 <main+0x1b07>
    1c35: 20 00 ff     	jsr	$ff00 <__heap_start+0x9664>
    1c38: 92 2c        	sta	($2c)                   ; 0x202c <main+0x1aad>
    1c3a: a9 00        	lda	#$0
    1c3c: 6a           	ror
    1c3d: 85 12        	sta	$12                     ; 0x2012 <main+0x1a93>
    1c3f: a6 85        	ldx	$85                     ; 0x2085 <main+0x1b06>
    1c41: d0 e6        	bne	$1c29 <main+0x16aa>
    1c43: a6 86        	ldx	$86                     ; 0x2086 <main+0x1b07>
    1c45: e0 08        	cpx	#$8
    1c47: d0 ea        	bne	$1c33 <main+0x16b4>
    1c49: a6 8c        	ldx	$8c                     ; 0x208c <main+0x1b0d>
    1c4b: d0 e6        	bne	$1c33 <main+0x16b4>
    1c4d: a5 8b        	lda	$8b                     ; 0x208b <main+0x1b0c>
    1c4f: 92 16        	sta	($16)                   ; 0x2016 <main+0x1a97>
    1c51: a9 01        	lda	#$1
    1c53: a2 00        	ldx	#$0
    1c55: 18           	clc
    1c56: 65 14        	adc	$14                     ; 0x2014 <main+0x1a95>
    1c58: a8           	tay
    1c59: 8a           	txa
    1c5a: 65 15        	adc	$15                     ; 0x2015 <main+0x1a96>
    1c5c: d0 04        	bne	$1c62 <main+0x16e3>
    1c5e: c0 fa        	cpy	#$fa
    1c60: 80 02        	bra	$1c64 <main+0x16e5>
    1c62: c9 00        	cmp	#$0
    1c64: 84 14        	sty	$14                     ; 0x2014 <main+0x1a95>
    1c66: 5a           	phy
    1c67: a0 14        	ldy	#$14
    1c69: 91 10        	sta	($10),y                 ; 0x2010 <main+0x1a91>
    1c6b: 7a           	ply
    1c6c: 85 15        	sta	$15                     ; 0x2015 <main+0x1a96>
    1c6e: 98           	tya
    1c6f: b0 1f        	bcs	$1c90 <main+0x1711>
    1c71: 4c 9d 1b     	jmp	$1b9d <main+0x161e>
    1c74: a2 ff        	ldx	#$ff
    1c76: 8a           	txa
    1c77: a0 14        	ldy	#$14
    1c79: 91 10        	sta	($10),y                 ; 0x2010 <main+0x1a91>
    1c7b: 8a           	txa
    1c7c: 80 12        	bra	$1c90 <main+0x1711>
    1c7e: a5 14        	lda	$14                     ; 0x2014 <main+0x1a95>
    1c80: a6 15        	ldx	$15                     ; 0x2015 <main+0x1a96>
    1c82: 48           	pha
    1c83: 8a           	txa
    1c84: a0 14        	ldy	#$14
    1c86: 91 10        	sta	($10),y                 ; 0x2010 <main+0x1a91>
    1c88: 68           	pla
    1c89: a6 15        	ldx	$15                     ; 0x2015 <main+0x1a96>
    1c8b: d0 03        	bne	$1c90 <main+0x1711>
    1c8d: 4c 76 1d     	jmp	$1d76 <main+0x17f7>
    1c90: 85 1e        	sta	$1e                     ; 0x201e <main+0x1a9f>
    1c92: 64 14        	stz	$14                     ; 0x2014 <main+0x1a95>
    1c94: 64 15        	stz	$15                     ; 0x2015 <main+0x1a96>
    1c96: a5 19        	lda	$19                     ; 0x2019 <main+0x1a9a>
    1c98: 18           	clc
    1c99: 65 14        	adc	$14                     ; 0x2014 <main+0x1a95>
    1c9b: 85 16        	sta	$16                     ; 0x2016 <main+0x1a97>
    1c9d: a5 1b        	lda	$1b                     ; 0x201b <main+0x1a9c>
    1c9f: 65 15        	adc	$15                     ; 0x2015 <main+0x1a96>
    1ca1: aa           	tax
    1ca2: a5 1c        	lda	$1c                     ; 0x201c <main+0x1a9d>
    1ca4: 69 00        	adc	#$0
    1ca6: a8           	tay
    1ca7: 18           	clc
    1ca8: a5 16        	lda	$16                     ; 0x2016 <main+0x1a97>
    1caa: 69 00        	adc	#$0
    1cac: 85 1f        	sta	$1f                     ; 0x201f <main+0x1aa0>
    1cae: 8a           	txa
    1caf: 69 00        	adc	#$0
    1cb1: 85 23        	sta	$23                     ; 0x2023 <main+0x1aa4>
    1cb3: 98           	tya
    1cb4: 69 05        	adc	#$5
    1cb6: aa           	tax
    1cb7: 18           	clc
    1cb8: a5 10        	lda	$10                     ; 0x2010 <main+0x1a91>
    1cba: 69 15        	adc	#$15
    1cbc: 48           	pha
    1cbd: a5 11        	lda	$11                     ; 0x2011 <main+0x1a92>
    1cbf: 69 00        	adc	#$0
    1cc1: 85 16        	sta	$16                     ; 0x2016 <main+0x1a97>
    1cc3: 68           	pla
    1cc4: 18           	clc
    1cc5: 65 14        	adc	$14                     ; 0x2014 <main+0x1a95>
    1cc7: a8           	tay
    1cc8: a5 16        	lda	$16                     ; 0x2016 <main+0x1a97>
    1cca: 65 15        	adc	$15                     ; 0x2015 <main+0x1a96>
    1ccc: 84 16        	sty	$16                     ; 0x2016 <main+0x1a97>
    1cce: 85 17        	sta	$17                     ; 0x2017 <main+0x1a98>
    1cd0: b2 16        	lda	($16)                   ; 0x2016 <main+0x1a97>
    1cd2: 85 22        	sta	$22                     ; 0x2022 <main+0x1aa3>
    1cd4: a5 23        	lda	$23                     ; 0x2023 <main+0x1aa4>
    1cd6: 85 16        	sta	$16                     ; 0x2016 <main+0x1a97>
    1cd8: 06 16        	asl	$16                     ; 0x2016 <main+0x1a97>
    1cda: 86 17        	stx	$17                     ; 0x2017 <main+0x1a98>
    1cdc: 26 17        	rol	$17                     ; 0x2017 <main+0x1a98>
    1cde: 06 16        	asl	$16                     ; 0x2016 <main+0x1a97>
    1ce0: 26 17        	rol	$17                     ; 0x2017 <main+0x1a98>
    1ce2: 06 16        	asl	$16                     ; 0x2016 <main+0x1a97>
    1ce4: 26 17        	rol	$17                     ; 0x2017 <main+0x1a98>
    1ce6: a4 17        	ldy	$17                     ; 0x2017 <main+0x1a98>
    1ce8: a6 0f        	ldx	$f                      ; 0x200f <main+0x1a90>
    1cea: 78           	sei
    1ceb: 84 0f        	sty	$f                      ; 0x200f <main+0x1a90>
    1ced: a4 1f        	ldy	$1f                     ; 0x201f <main+0x1aa0>
    1cef: 84 16        	sty	$16                     ; 0x2016 <main+0x1a97>
    1cf1: 09 e0        	ora	#$e0
    1cf3: 85 17        	sta	$17                     ; 0x2017 <main+0x1a98>
    1cf5: a5 22        	lda	$22                     ; 0x2022 <main+0x1aa3>
    1cf7: 92 16        	sta	($16)                   ; 0x2016 <main+0x1a97>
    1cf9: 86 0f        	stx	$f                      ; 0x200f <main+0x1a90>
    1cfb: 58           	cli
    1cfc: e6 14        	inc	$14                     ; 0x2014 <main+0x1a95>
    1cfe: f0 0b        	beq	$1d0b <main+0x178c>
    1d00: a0 14        	ldy	#$14
    1d02: b1 10        	lda	($10),y                 ; 0x2010 <main+0x1a91>
    1d04: c5 15        	cmp	$15                     ; 0x2015 <main+0x1a96>
    1d06: f0 10        	beq	$1d18 <main+0x1799>
    1d08: 4c 96 1c     	jmp	$1c96 <main+0x1717>
    1d0b: e6 15        	inc	$15                     ; 0x2015 <main+0x1a96>
    1d0d: a0 14        	ldy	#$14
    1d0f: b1 10        	lda	($10),y                 ; 0x2010 <main+0x1a91>
    1d11: c5 15        	cmp	$15                     ; 0x2015 <main+0x1a96>
    1d13: f0 03        	beq	$1d18 <main+0x1799>
    1d15: 4c 96 1c     	jmp	$1c96 <main+0x1717>
    1d18: a6 1e        	ldx	$1e                     ; 0x201e <main+0x1a9f>
    1d1a: e4 14        	cpx	$14                     ; 0x2014 <main+0x1a95>
    1d1c: f0 03        	beq	$1d21 <main+0x17a2>
    1d1e: 4c 96 1c     	jmp	$1c96 <main+0x1717>
    1d21: a4 1e        	ldy	$1e                     ; 0x201e <main+0x1a9f>
    1d23: 84 14        	sty	$14                     ; 0x2014 <main+0x1a95>
    1d25: a5 19        	lda	$19                     ; 0x2019 <main+0x1a9a>
    1d27: 18           	clc
    1d28: 65 14        	adc	$14                     ; 0x2014 <main+0x1a95>
    1d2a: 85 19        	sta	$19                     ; 0x2019 <main+0x1a9a>
    1d2c: 5a           	phy
    1d2d: a0 14        	ldy	#$14
    1d2f: b1 10        	lda	($10),y                 ; 0x2010 <main+0x1a91>
    1d31: 7a           	ply
    1d32: aa           	tax
    1d33: 85 14        	sta	$14                     ; 0x2014 <main+0x1a95>
    1d35: a5 1b        	lda	$1b                     ; 0x201b <main+0x1a9c>
    1d37: 65 14        	adc	$14                     ; 0x2014 <main+0x1a95>
    1d39: 85 1b        	sta	$1b                     ; 0x201b <main+0x1a9c>
    1d3b: a5 1c        	lda	$1c                     ; 0x201c <main+0x1a9d>
    1d3d: 69 00        	adc	#$0
    1d3f: 85 1c        	sta	$1c                     ; 0x201c <main+0x1a9d>
    1d41: a5 1d        	lda	$1d                     ; 0x201d <main+0x1a9e>
    1d43: 69 00        	adc	#$0
    1d45: e0 00        	cpx	#$0
    1d47: d0 07        	bne	$1d50 <main+0x17d1>
    1d49: c0 fa        	cpy	#$fa
    1d4b: 90 30        	bcc	$1d7d <main+0x17fe>
    1d4d: 4c 97 1b     	jmp	$1b97 <main+0x1618>
    1d50: e0 00        	cpx	#$0
    1d52: 90 29        	bcc	$1d7d <main+0x17fe>
    1d54: 4c 97 1b     	jmp	$1b97 <main+0x1618>
    1d57: a9 00        	lda	#$0
    1d59: a2 01        	ldx	#$1
    1d5b: 4c 55 1c     	jmp	$1c55 <main+0x16d6>
    1d5e: 85 15        	sta	$15                     ; 0x2015 <main+0x1a96>
    1d60: c9 00        	cmp	#$0
    1d62: 90 03        	bcc	$1d67 <main+0x17e8>
    1d64: 4c 22 1b     	jmp	$1b22 <main+0x15a3>
    1d67: 4c 4c 1b     	jmp	$1b4c <main+0x15cd>
    1d6a: a2 ff        	ldx	#$ff
    1d6c: 48           	pha
    1d6d: 8a           	txa
    1d6e: a0 14        	ldy	#$14
    1d70: 91 10        	sta	($10),y                 ; 0x2010 <main+0x1a91>
    1d72: 68           	pla
    1d73: 4c 90 1c     	jmp	$1c90 <main+0x1711>
    1d76: a6 14        	ldx	$14                     ; 0x2014 <main+0x1a95>
    1d78: f0 03        	beq	$1d7d <main+0x17fe>
    1d7a: 4c 90 1c     	jmp	$1c90 <main+0x1711>
    1d7d: a0 02        	ldy	#$2
    1d7f: b1 24        	lda	($24),y                 ; 0x2024 <main+0x1aa5>
    1d81: 85 f3        	sta	$f3                     ; 0x20f3 <main+0x1b74>
    1d83: a2 85        	ldx	#$85
    1d85: 86 12        	stx	$12                     ; 0x2012 <main+0x1a93>
    1d87: a2 00        	ldx	#$0
    1d89: 86 13        	stx	$13                     ; 0x2013 <main+0x1a94>
    1d8b: 20 68 ff     	jsr	$ff68 <__heap_start+0x96cc>
    1d8e: 92 2c        	sta	($2c)                   ; 0x202c <main+0x1aad>
    1d90: a9 00        	lda	#$0
    1d92: 6a           	ror
    1d93: 85 12        	sta	$12                     ; 0x2012 <main+0x1a93>
    1d95: b2 24        	lda	($24)                   ; 0x2024 <main+0x1aa5>
    1d97: 85 16        	sta	$16                     ; 0x2016 <main+0x1a97>
    1d99: 88           	dey
    1d9a: b1 24        	lda	($24),y                 ; 0x2024 <main+0x1aa5>
    1d9c: 85 12        	sta	$12                     ; 0x2012 <main+0x1a93>
    1d9e: a9 fe        	lda	#$fe
    1da0: 32 24        	and	($24)                   ; 0x2024 <main+0x1aa5>
    1da2: 85 13        	sta	$13                     ; 0x2013 <main+0x1a94>
    1da4: a5 24        	lda	$24                     ; 0x2024 <main+0x1aa5>
    1da6: 18           	clc
    1da7: 65 13        	adc	$13                     ; 0x2013 <main+0x1a94>
    1da9: aa           	tax
    1daa: a5 25        	lda	$25                     ; 0x2025 <main+0x1aa6>
    1dac: 65 12        	adc	$12                     ; 0x2012 <main+0x1a93>
    1dae: 5a           	phy
    1daf: a4 18        	ldy	$18                     ; 0x2018 <main+0x1a99>
    1db1: 84 1b        	sty	$1b                     ; 0x201b <main+0x1a9c>
    1db3: 7a           	ply
    1db4: 85 15        	sta	$15                     ; 0x2015 <main+0x1a96>
    1db6: c5 18        	cmp	$18                     ; 0x2018 <main+0x1a99>
    1db8: d0 0e        	bne	$1dc8 <main+0x1849>
    1dba: e4 1a        	cpx	$1a                     ; 0x201a <main+0x1a9b>
    1dbc: d0 0a        	bne	$1dc8 <main+0x1849>
    1dbe: a2 00        	ldx	#$0
    1dc0: 86 14        	stx	$14                     ; 0x2014 <main+0x1a95>
    1dc2: a2 00        	ldx	#$0
    1dc4: 86 15        	stx	$15                     ; 0x2015 <main+0x1a96>
    1dc6: 80 02        	bra	$1dca <main+0x184b>
    1dc8: 86 14        	stx	$14                     ; 0x2014 <main+0x1a95>
    1dca: a5 16        	lda	$16                     ; 0x2016 <main+0x1a97>
    1dcc: 29 01        	and	#$1
    1dce: d0 03        	bne	$1dd3 <main+0x1854>
    1dd0: 4c ea 1e     	jmp	$1eea <main+0x196b>
    1dd3: a5 24        	lda	$24                     ; 0x2024 <main+0x1aa5>
    1dd5: 18           	clc
    1dd6: 69 fe        	adc	#$fe
    1dd8: 85 16        	sta	$16                     ; 0x2016 <main+0x1a97>
    1dda: a5 25        	lda	$25                     ; 0x2025 <main+0x1aa6>
    1ddc: 69 ff        	adc	#$ff
    1dde: 85 17        	sta	$17                     ; 0x2017 <main+0x1a98>
    1de0: 38           	sec
    1de1: a9 00        	lda	#$0
    1de3: f2 16        	sbc	($16)                   ; 0x2016 <main+0x1a97>
    1de5: 85 18        	sta	$18                     ; 0x2018 <main+0x1a99>
    1de7: a9 00        	lda	#$0
    1de9: f1 16        	sbc	($16),y                 ; 0x2016 <main+0x1a97>
    1deb: aa           	tax
    1dec: a5 18        	lda	$18                     ; 0x2018 <main+0x1a99>
    1dee: 18           	clc
    1def: 65 24        	adc	$24                     ; 0x2024 <main+0x1aa5>
    1df1: 85 17        	sta	$17                     ; 0x2017 <main+0x1a98>
    1df3: 85 24        	sta	$24                     ; 0x2024 <main+0x1aa5>
    1df5: 8a           	txa
    1df6: 65 25        	adc	$25                     ; 0x2025 <main+0x1aa6>
    1df8: 85 25        	sta	$25                     ; 0x2025 <main+0x1aa6>
    1dfa: aa           	tax
    1dfb: a9 fe        	lda	#$fe
    1dfd: 32 24        	and	($24)                   ; 0x2024 <main+0x1aa5>
    1dff: 85 1c        	sta	$1c                     ; 0x201c <main+0x1a9d>
    1e01: 85 16        	sta	$16                     ; 0x2016 <main+0x1a97>
    1e03: a5 8f        	lda	$8f                     ; 0x208f <main+0x1b10>
    1e05: 38           	sec
    1e06: e5 16        	sbc	$16                     ; 0x2016 <main+0x1a97>
    1e08: 85 18        	sta	$18                     ; 0x2018 <main+0x1a99>
    1e0a: b1 24        	lda	($24),y                 ; 0x2024 <main+0x1aa5>
    1e0c: 85 1d        	sta	$1d                     ; 0x201d <main+0x1a9e>
    1e0e: 85 16        	sta	$16                     ; 0x2016 <main+0x1a97>
    1e10: a5 90        	lda	$90                     ; 0x2090 <main+0x1b11>
    1e12: e5 16        	sbc	$16                     ; 0x2016 <main+0x1a97>
    1e14: a8           	tay
    1e15: 18           	clc
    1e16: a5 18        	lda	$18                     ; 0x2018 <main+0x1a99>
    1e18: 69 02        	adc	#$2
    1e1a: 85 16        	sta	$16                     ; 0x2016 <main+0x1a97>
    1e1c: 98           	tya
    1e1d: 69 00        	adc	#$0
    1e1f: a4 16        	ldy	$16                     ; 0x2016 <main+0x1a97>
    1e21: 84 8f        	sty	$8f                     ; 0x208f <main+0x1b10>
    1e23: 85 90        	sta	$90                     ; 0x2090 <main+0x1b11>
    1e25: a4 17        	ldy	$17                     ; 0x2017 <main+0x1a98>
    1e27: 84 19        	sty	$19                     ; 0x2019 <main+0x1a9a>
    1e29: a5 17        	lda	$17                     ; 0x2017 <main+0x1a98>
    1e2b: 18           	clc
    1e2c: 69 02        	adc	#$2
    1e2e: 85 16        	sta	$16                     ; 0x2016 <main+0x1a97>
    1e30: 86 18        	stx	$18                     ; 0x2018 <main+0x1a99>
    1e32: 8a           	txa
    1e33: 69 00        	adc	#$0
    1e35: 85 17        	sta	$17                     ; 0x2017 <main+0x1a98>
    1e37: a0 02        	ldy	#$2
    1e39: b1 24        	lda	($24),y                 ; 0x2024 <main+0x1aa5>
    1e3b: aa           	tax
    1e3c: 88           	dey
    1e3d: b1 16        	lda	($16),y                 ; 0x2016 <main+0x1a97>
    1e3f: 85 1f        	sta	$1f                     ; 0x201f <main+0x1aa0>
    1e41: c5 25        	cmp	$25                     ; 0x2025 <main+0x1aa6>
    1e43: d0 0f        	bne	$1e54 <main+0x18d5>
    1e45: e4 24        	cpx	$24                     ; 0x2024 <main+0x1aa5>
    1e47: d0 0b        	bne	$1e54 <main+0x18d5>
    1e49: a2 00        	ldx	#$0
    1e4b: 86 16        	stx	$16                     ; 0x2016 <main+0x1a97>
    1e4d: a2 00        	ldx	#$0
    1e4f: 86 17        	stx	$17                     ; 0x2017 <main+0x1a98>
    1e51: 4c d5 1e     	jmp	$1ed5 <main+0x1956>
    1e54: 86 1e        	stx	$1e                     ; 0x201e <main+0x1a9f>
    1e56: 18           	clc
    1e57: a5 19        	lda	$19                     ; 0x2019 <main+0x1a9a>
    1e59: a6 19        	ldx	$19                     ; 0x2019 <main+0x1a9a>
    1e5b: 86 22        	stx	$22                     ; 0x2022 <main+0x1aa3>
    1e5d: 69 04        	adc	#$4
    1e5f: 85 16        	sta	$16                     ; 0x2016 <main+0x1a97>
    1e61: a6 18        	ldx	$18                     ; 0x2018 <main+0x1a99>
    1e63: 86 23        	stx	$23                     ; 0x2023 <main+0x1aa4>
    1e65: a5 18        	lda	$18                     ; 0x2018 <main+0x1a99>
    1e67: 69 00        	adc	#$0
    1e69: a0 04        	ldy	#$4
    1e6b: 85 17        	sta	$17                     ; 0x2017 <main+0x1a98>
    1e6d: b1 24        	lda	($24),y                 ; 0x2024 <main+0x1aa5>
    1e6f: 85 28        	sta	$28                     ; 0x2028 <main+0x1aa9>
    1e71: 18           	clc
    1e72: 69 02        	adc	#$2
    1e74: 85 18        	sta	$18                     ; 0x2018 <main+0x1a99>
    1e76: a0 01        	ldy	#$1
    1e78: b1 16        	lda	($16),y                 ; 0x2016 <main+0x1a97>
    1e7a: aa           	tax
    1e7b: 69 00        	adc	#$0
    1e7d: a4 18        	ldy	$18                     ; 0x2018 <main+0x1a99>
    1e7f: 84 16        	sty	$16                     ; 0x2016 <main+0x1a97>
    1e81: 85 17        	sta	$17                     ; 0x2017 <main+0x1a98>
    1e83: a4 28        	ldy	$28                     ; 0x2028 <main+0x1aa9>
    1e85: 84 18        	sty	$18                     ; 0x2018 <main+0x1a99>
    1e87: 86 19        	stx	$19                     ; 0x2019 <main+0x1a9a>
    1e89: a0 02        	ldy	#$2
    1e8b: a5 1e        	lda	$1e                     ; 0x201e <main+0x1a9f>
    1e8d: 91 18        	sta	($18),y                 ; 0x2018 <main+0x1a99>
    1e8f: a5 1f        	lda	$1f                     ; 0x201f <main+0x1aa0>
    1e91: 88           	dey
    1e92: 91 16        	sta	($16),y                 ; 0x2016 <main+0x1a97>
    1e94: 18           	clc
    1e95: a5 22        	lda	$22                     ; 0x2022 <main+0x1aa3>
    1e97: 69 02        	adc	#$2
    1e99: 85 16        	sta	$16                     ; 0x2016 <main+0x1a97>
    1e9b: a5 23        	lda	$23                     ; 0x2023 <main+0x1aa4>
    1e9d: 69 00        	adc	#$0
    1e9f: 85 17        	sta	$17                     ; 0x2017 <main+0x1a98>
    1ea1: c8           	iny
    1ea2: b1 24        	lda	($24),y                 ; 0x2024 <main+0x1aa5>
    1ea4: 85 18        	sta	$18                     ; 0x2018 <main+0x1a99>
    1ea6: 88           	dey
    1ea7: b1 16        	lda	($16),y                 ; 0x2016 <main+0x1a97>
    1ea9: a4 18        	ldy	$18                     ; 0x2018 <main+0x1a99>
    1eab: 84 16        	sty	$16                     ; 0x2016 <main+0x1a97>
    1ead: 85 17        	sta	$17                     ; 0x2017 <main+0x1a98>
    1eaf: 85 19        	sta	$19                     ; 0x2019 <main+0x1a9a>
    1eb1: a0 04        	ldy	#$4
    1eb3: a5 28        	lda	$28                     ; 0x2028 <main+0x1aa9>
    1eb5: 91 16        	sta	($16),y                 ; 0x2016 <main+0x1a97>
    1eb7: 18           	clc
    1eb8: a5 18        	lda	$18                     ; 0x2018 <main+0x1a99>
    1eba: 69 04        	adc	#$4
    1ebc: 85 18        	sta	$18                     ; 0x2018 <main+0x1a99>
    1ebe: a5 19        	lda	$19                     ; 0x2019 <main+0x1a9a>
    1ec0: 69 00        	adc	#$0
    1ec2: 85 19        	sta	$19                     ; 0x2019 <main+0x1a9a>
    1ec4: 8a           	txa
    1ec5: a0 01        	ldy	#$1
    1ec7: 91 18        	sta	($18),y                 ; 0x2018 <main+0x1a99>
    1ec9: a6 92        	ldx	$92                     ; 0x2092 <main+0x1b13>
    1ecb: e4 25        	cpx	$25                     ; 0x2025 <main+0x1aa6>
    1ecd: d0 0e        	bne	$1edd <main+0x195e>
    1ecf: a6 91        	ldx	$91                     ; 0x2091 <main+0x1b12>
    1ed1: e4 24        	cpx	$24                     ; 0x2024 <main+0x1aa5>
    1ed3: d0 08        	bne	$1edd <main+0x195e>
    1ed5: a6 16        	ldx	$16                     ; 0x2016 <main+0x1a97>
    1ed7: a4 17        	ldy	$17                     ; 0x2017 <main+0x1a98>
    1ed9: 86 91        	stx	$91                     ; 0x2091 <main+0x1b12>
    1edb: 84 92        	sty	$92                     ; 0x2092 <main+0x1b13>
    1edd: 18           	clc
    1ede: a5 1c        	lda	$1c                     ; 0x201c <main+0x1a9d>
    1ee0: 65 13        	adc	$13                     ; 0x2013 <main+0x1a94>
    1ee2: 85 13        	sta	$13                     ; 0x2013 <main+0x1a94>
    1ee4: a5 1d        	lda	$1d                     ; 0x201d <main+0x1a9e>
    1ee6: 65 12        	adc	$12                     ; 0x2012 <main+0x1a93>
    1ee8: 85 12        	sta	$12                     ; 0x2012 <main+0x1a93>
    1eea: a2 00        	ldx	#$0
    1eec: 86 16        	stx	$16                     ; 0x2016 <main+0x1a97>
    1eee: a2 00        	ldx	#$0
    1ef0: 86 17        	stx	$17                     ; 0x2017 <main+0x1a98>
    1ef2: a6 15        	ldx	$15                     ; 0x2015 <main+0x1a96>
    1ef4: e4 17        	cpx	$17                     ; 0x2017 <main+0x1a98>
    1ef6: d0 0d        	bne	$1f05 <main+0x1986>
    1ef8: a6 14        	ldx	$14                     ; 0x2014 <main+0x1a95>
    1efa: e4 16        	cpx	$16                     ; 0x2016 <main+0x1a97>
    1efc: d0 07        	bne	$1f05 <main+0x1986>
    1efe: a2 01        	ldx	#$1
    1f00: 86 8e        	stx	$8e                     ; 0x208e <main+0x1b0f>
    1f02: 4c 25 20     	jmp	$2025 <main+0x1aa6>
    1f05: a0 01        	ldy	#$1
    1f07: b1 14        	lda	($14),y                 ; 0x2014 <main+0x1a95>
    1f09: aa           	tax
    1f0a: a9 fe        	lda	#$fe
    1f0c: 32 14        	and	($14)                   ; 0x2014 <main+0x1a95>
    1f0e: 18           	clc
    1f0f: 85 1d        	sta	$1d                     ; 0x201d <main+0x1a9e>
    1f11: 65 14        	adc	$14                     ; 0x2014 <main+0x1a95>
    1f13: 85 16        	sta	$16                     ; 0x2016 <main+0x1a97>
    1f15: 8a           	txa
    1f16: 86 1c        	stx	$1c                     ; 0x201c <main+0x1a9d>
    1f18: 65 15        	adc	$15                     ; 0x2015 <main+0x1a96>
    1f1a: c5 1b        	cmp	$1b                     ; 0x201b <main+0x1a9c>
    1f1c: d0 0e        	bne	$1f2c <main+0x19ad>
    1f1e: a6 16        	ldx	$16                     ; 0x2016 <main+0x1a97>
    1f20: e4 1a        	cpx	$1a                     ; 0x201a <main+0x1a9b>
    1f22: d0 08        	bne	$1f2c <main+0x19ad>
    1f24: a9 01        	lda	#$1
    1f26: 64 16        	stz	$16                     ; 0x2016 <main+0x1a97>
    1f28: 25 8e        	and	$8e                     ; 0x208e <main+0x1b0f>
    1f2a: 80 08        	bra	$1f34 <main+0x19b5>
    1f2c: 85 17        	sta	$17                     ; 0x2017 <main+0x1a98>
    1f2e: a9 01        	lda	#$1
    1f30: 32 16        	and	($16)                   ; 0x2016 <main+0x1a97>
    1f32: 64 16        	stz	$16                     ; 0x2016 <main+0x1a97>
    1f34: a6 16        	ldx	$16                     ; 0x2016 <main+0x1a97>
    1f36: d0 06        	bne	$1f3e <main+0x19bf>
    1f38: aa           	tax
    1f39: d0 03        	bne	$1f3e <main+0x19bf>
    1f3b: 4c 1b 20     	jmp	$201b <main+0x1a9c>
    1f3e: a5 8f        	lda	$8f                     ; 0x208f <main+0x1b10>
    1f40: a6 90        	ldx	$90                     ; 0x2090 <main+0x1b11>
    1f42: 86 17        	stx	$17                     ; 0x2017 <main+0x1a98>
    1f44: 38           	sec
    1f45: e5 1d        	sbc	$1d                     ; 0x201d <main+0x1a9e>
    1f47: aa           	tax
    1f48: a5 17        	lda	$17                     ; 0x2017 <main+0x1a98>
    1f4a: e5 1c        	sbc	$1c                     ; 0x201c <main+0x1a9d>
    1f4c: 85 16        	sta	$16                     ; 0x2016 <main+0x1a97>
    1f4e: 18           	clc
    1f4f: 8a           	txa
    1f50: 69 02        	adc	#$2
    1f52: 85 17        	sta	$17                     ; 0x2017 <main+0x1a98>
    1f54: a5 16        	lda	$16                     ; 0x2016 <main+0x1a97>
    1f56: 69 00        	adc	#$0
    1f58: a6 17        	ldx	$17                     ; 0x2017 <main+0x1a98>
    1f5a: 86 8f        	stx	$8f                     ; 0x208f <main+0x1b10>
    1f5c: 85 90        	sta	$90                     ; 0x2090 <main+0x1b11>
    1f5e: a5 14        	lda	$14                     ; 0x2014 <main+0x1a95>
    1f60: 18           	clc
    1f61: 69 02        	adc	#$2
    1f63: 85 16        	sta	$16                     ; 0x2016 <main+0x1a97>
    1f65: a5 15        	lda	$15                     ; 0x2015 <main+0x1a96>
    1f67: 69 00        	adc	#$0
    1f69: a0 02        	ldy	#$2
    1f6b: 85 17        	sta	$17                     ; 0x2017 <main+0x1a98>
    1f6d: b1 14        	lda	($14),y                 ; 0x2014 <main+0x1a95>
    1f6f: aa           	tax
    1f70: 88           	dey
    1f71: b1 16        	lda	($16),y                 ; 0x2016 <main+0x1a97>
    1f73: 85 1b        	sta	$1b                     ; 0x201b <main+0x1a9c>
    1f75: c5 15        	cmp	$15                     ; 0x2015 <main+0x1a96>
    1f77: d0 0f        	bne	$1f88 <main+0x1a09>
    1f79: e4 14        	cpx	$14                     ; 0x2014 <main+0x1a95>
    1f7b: d0 0b        	bne	$1f88 <main+0x1a09>
    1f7d: a2 00        	ldx	#$0
    1f7f: 86 16        	stx	$16                     ; 0x2016 <main+0x1a97>
    1f81: a2 00        	ldx	#$0
    1f83: 86 17        	stx	$17                     ; 0x2017 <main+0x1a98>
    1f85: 4c 05 20     	jmp	$2005 <main+0x1a86>
    1f88: 86 1a        	stx	$1a                     ; 0x201a <main+0x1a9b>
    1f8a: a6 14        	ldx	$14                     ; 0x2014 <main+0x1a95>
    1f8c: a5 14        	lda	$14                     ; 0x2014 <main+0x1a95>
    1f8e: 86 1f        	stx	$1f                     ; 0x201f <main+0x1aa0>
    1f90: 18           	clc
    1f91: 69 04        	adc	#$4
    1f93: 85 16        	sta	$16                     ; 0x2016 <main+0x1a97>
    1f95: a5 15        	lda	$15                     ; 0x2015 <main+0x1a96>
    1f97: 69 00        	adc	#$0
    1f99: a0 04        	ldy	#$4
    1f9b: 85 17        	sta	$17                     ; 0x2017 <main+0x1a98>
    1f9d: b1 14        	lda	($14),y                 ; 0x2014 <main+0x1a95>
    1f9f: 85 22        	sta	$22                     ; 0x2022 <main+0x1aa3>
    1fa1: 18           	clc
    1fa2: 69 02        	adc	#$2
    1fa4: 85 18        	sta	$18                     ; 0x2018 <main+0x1a99>
    1fa6: a0 01        	ldy	#$1
    1fa8: b1 16        	lda	($16),y                 ; 0x2016 <main+0x1a97>
    1faa: aa           	tax
    1fab: 69 00        	adc	#$0
    1fad: a4 18        	ldy	$18                     ; 0x2018 <main+0x1a99>
    1faf: 84 16        	sty	$16                     ; 0x2016 <main+0x1a97>
    1fb1: 85 17        	sta	$17                     ; 0x2017 <main+0x1a98>
    1fb3: a4 22        	ldy	$22                     ; 0x2022 <main+0x1aa3>
    1fb5: 84 18        	sty	$18                     ; 0x2018 <main+0x1a99>
    1fb7: 86 19        	stx	$19                     ; 0x2019 <main+0x1a9a>
    1fb9: a0 02        	ldy	#$2
    1fbb: a5 1a        	lda	$1a                     ; 0x201a <main+0x1a9b>
    1fbd: 91 18        	sta	($18),y                 ; 0x2018 <main+0x1a99>
    1fbf: a5 1b        	lda	$1b                     ; 0x201b <main+0x1a9c>
    1fc1: 88           	dey
    1fc2: 91 16        	sta	($16),y                 ; 0x2016 <main+0x1a97>
    1fc4: 18           	clc
    1fc5: a5 1f        	lda	$1f                     ; 0x201f <main+0x1aa0>
    1fc7: 69 02        	adc	#$2
    1fc9: 85 16        	sta	$16                     ; 0x2016 <main+0x1a97>
    1fcb: a5 15        	lda	$15                     ; 0x2015 <main+0x1a96>
    1fcd: 69 00        	adc	#$0
    1fcf: 85 17        	sta	$17                     ; 0x2017 <main+0x1a98>
    1fd1: c8           	iny
    1fd2: b1 14        	lda	($14),y                 ; 0x2014 <main+0x1a95>
    1fd4: 85 18        	sta	$18                     ; 0x2018 <main+0x1a99>
    1fd6: 88           	dey
    1fd7: b1 16        	lda	($16),y                 ; 0x2016 <main+0x1a97>
    1fd9: a4 18        	ldy	$18                     ; 0x2018 <main+0x1a99>
    1fdb: 84 16        	sty	$16                     ; 0x2016 <main+0x1a97>
    1fdd: 85 17        	sta	$17                     ; 0x2017 <main+0x1a98>
    1fdf: 85 19        	sta	$19                     ; 0x2019 <main+0x1a9a>
    1fe1: a0 04        	ldy	#$4
    1fe3: a5 22        	lda	$22                     ; 0x2022 <main+0x1aa3>
    1fe5: 91 16        	sta	($16),y                 ; 0x2016 <main+0x1a97>
    1fe7: 18           	clc
    1fe8: a5 18        	lda	$18                     ; 0x2018 <main+0x1a99>
    1fea: 69 04        	adc	#$4
    1fec: 85 18        	sta	$18                     ; 0x2018 <main+0x1a99>
    1fee: a5 19        	lda	$19                     ; 0x2019 <main+0x1a9a>
    1ff0: 69 00        	adc	#$0
    1ff2: 85 19        	sta	$19                     ; 0x2019 <main+0x1a9a>
    1ff4: 8a           	txa
    1ff5: a0 01        	ldy	#$1
    1ff7: 91 18        	sta	($18),y                 ; 0x2018 <main+0x1a99>
    1ff9: a6 92        	ldx	$92                     ; 0x2092 <main+0x1b13>
    1ffb: e4 15        	cpx	$15                     ; 0x2015 <main+0x1a96>
    1ffd: d0 0e        	bne	$200d <main+0x1a8e>
    1fff: a6 91        	ldx	$91                     ; 0x2091 <main+0x1b12>
    2001: e4 14        	cpx	$14                     ; 0x2014 <main+0x1a95>
    2003: d0 08        	bne	$200d <main+0x1a8e>
    2005: a6 16        	ldx	$16                     ; 0x2016 <main+0x1a97>
    2007: a4 17        	ldy	$17                     ; 0x2017 <main+0x1a98>
    2009: 86 91        	stx	$91                     ; 0x2091 <main+0x1b12>
    200b: 84 92        	sty	$92                     ; 0x2092 <main+0x1b13>
    200d: 18           	clc
    200e: a5 1d        	lda	$1d                     ; 0x201d <main+0x1a9e>
    2010: 65 13        	adc	$13                     ; 0x2013 <main+0x1a94>
    2012: 85 13        	sta	$13                     ; 0x2013 <main+0x1a94>
    2014: a5 1c        	lda	$1c                     ; 0x201c <main+0x1a9d>
    2016: 65 12        	adc	$12                     ; 0x2012 <main+0x1a93>
    2018: aa           	tax
    2019: 80 0c        	bra	$2027 <main+0x1aa8>
    201b: b2 14        	lda	($14)                   ; 0x2014 <main+0x1a95>
    201d: 09 01        	ora	#$1
    201f: 92 14        	sta	($14)                   ; 0x2014 <main+0x1a95>
    2021: a5 1c        	lda	$1c                     ; 0x201c <main+0x1a9d>
    2023: 91 14        	sta	($14),y                 ; 0x2014 <main+0x1a95>
    2025: a6 12        	ldx	$12                     ; 0x2012 <main+0x1a93>
    2027: a9 01        	lda	#$1
    2029: 32 24        	and	($24)                   ; 0x2024 <main+0x1aa5>
    202b: a4 13        	ldy	$13                     ; 0x2013 <main+0x1a94>
    202d: 84 14        	sty	$14                     ; 0x2014 <main+0x1a95>
    202f: 05 13        	ora	$13                     ; 0x2013 <main+0x1a94>
    2031: 92 24        	sta	($24)                   ; 0x2024 <main+0x1aa5>
    2033: a5 24        	lda	$24                     ; 0x2024 <main+0x1aa5>
    2035: 18           	clc
    2036: 65 13        	adc	$13                     ; 0x2013 <main+0x1a94>
    2038: a8           	tay
    2039: 8a           	txa
    203a: 65 25        	adc	$25                     ; 0x2025 <main+0x1aa6>
    203c: 85 13        	sta	$13                     ; 0x2013 <main+0x1a94>
    203e: 18           	clc
    203f: 98           	tya
    2040: 69 fe        	adc	#$fe
    2042: 85 12        	sta	$12                     ; 0x2012 <main+0x1a93>
    2044: a5 13        	lda	$13                     ; 0x2013 <main+0x1a94>
    2046: 69 ff        	adc	#$ff
    2048: 85 13        	sta	$13                     ; 0x2013 <main+0x1a94>
    204a: a0 01        	ldy	#$1
    204c: 8a           	txa
    204d: 91 24        	sta	($24),y                 ; 0x2024 <main+0x1aa5>
    204f: a5 14        	lda	$14                     ; 0x2014 <main+0x1a95>
    2051: 92 12        	sta	($12)                   ; 0x2012 <main+0x1a93>
    2053: 8a           	txa
    2054: 91 12        	sta	($12),y                 ; 0x2012 <main+0x1a93>
    2056: b1 24        	lda	($24),y                 ; 0x2024 <main+0x1aa5>
    2058: 85 12        	sta	$12                     ; 0x2012 <main+0x1a93>
    205a: a9 fe        	lda	#$fe
    205c: 32 24        	and	($24)                   ; 0x2024 <main+0x1aa5>
    205e: 18           	clc
    205f: 65 8f        	adc	$8f                     ; 0x208f <main+0x1b10>
    2061: aa           	tax
    2062: a5 12        	lda	$12                     ; 0x2012 <main+0x1a93>
    2064: 65 90        	adc	$90                     ; 0x2090 <main+0x1b11>
    2066: 85 12        	sta	$12                     ; 0x2012 <main+0x1a93>
    2068: 18           	clc
    2069: 8a           	txa
    206a: 69 fe        	adc	#$fe
    206c: 85 13        	sta	$13                     ; 0x2013 <main+0x1a94>
    206e: a5 12        	lda	$12                     ; 0x2012 <main+0x1a93>
    2070: 69 ff        	adc	#$ff
    2072: a6 13        	ldx	$13                     ; 0x2013 <main+0x1a94>
    2074: 86 8f        	stx	$8f                     ; 0x208f <main+0x1b10>
    2076: 85 90        	sta	$90                     ; 0x2090 <main+0x1b11>
    2078: a5 91        	lda	$91                     ; 0x2091 <main+0x1b12>
    207a: a4 92        	ldy	$92                     ; 0x2092 <main+0x1b13>
    207c: a2 00        	ldx	#$0
    207e: 86 12        	stx	$12                     ; 0x2012 <main+0x1a93>
    2080: a2 00        	ldx	#$0
    2082: 86 13        	stx	$13                     ; 0x2013 <main+0x1a94>
    2084: 84 15        	sty	$15                     ; 0x2015 <main+0x1a96>
    2086: c4 13        	cpy	$13                     ; 0x2013 <main+0x1a94>
    2088: d0 3c        	bne	$20c6 <main+0x1b47>
    208a: c5 12        	cmp	$12                     ; 0x2012 <main+0x1a93>
    208c: d0 38        	bne	$20c6 <main+0x1b47>
    208e: a0 04        	ldy	#$4
    2090: 18           	clc
    2091: a5 24        	lda	$24                     ; 0x2024 <main+0x1aa5>
    2093: 69 04        	adc	#$4
    2095: 85 12        	sta	$12                     ; 0x2012 <main+0x1a93>
    2097: a5 25        	lda	$25                     ; 0x2025 <main+0x1aa6>
    2099: 69 00        	adc	#$0
    209b: 18           	clc
    209c: 85 13        	sta	$13                     ; 0x2013 <main+0x1a94>
    209e: a5 24        	lda	$24                     ; 0x2024 <main+0x1aa5>
    20a0: 91 24        	sta	($24),y                 ; 0x2024 <main+0x1aa5>
    20a2: a0 02        	ldy	#$2
    20a4: 85 15        	sta	$15                     ; 0x2015 <main+0x1a96>
    20a6: 69 02        	adc	#$2
    20a8: 85 14        	sta	$14                     ; 0x2014 <main+0x1a95>
    20aa: a5 15        	lda	$15                     ; 0x2015 <main+0x1a96>
    20ac: 91 24        	sta	($24),y                 ; 0x2024 <main+0x1aa5>
    20ae: a5 25        	lda	$25                     ; 0x2025 <main+0x1aa6>
    20b0: 69 00        	adc	#$0
    20b2: 85 15        	sta	$15                     ; 0x2015 <main+0x1a96>
    20b4: 88           	dey
    20b5: a5 25        	lda	$25                     ; 0x2025 <main+0x1aa6>
    20b7: 91 12        	sta	($12),y                 ; 0x2012 <main+0x1a93>
    20b9: 91 14        	sta	($14),y                 ; 0x2014 <main+0x1a95>
    20bb: a6 24        	ldx	$24                     ; 0x2024 <main+0x1aa5>
    20bd: 86 91        	stx	$91                     ; 0x2091 <main+0x1b12>
    20bf: a6 25        	ldx	$25                     ; 0x2025 <main+0x1aa6>
    20c1: 86 92        	stx	$92                     ; 0x2092 <main+0x1b13>
    20c3: 4c 5c 21     	jmp	$215c <main+0x1bdd>
    20c6: 18           	clc
    20c7: a8           	tay
    20c8: a5 24        	lda	$24                     ; 0x2024 <main+0x1aa5>
    20ca: 69 02        	adc	#$2
    20cc: 85 12        	sta	$12                     ; 0x2012 <main+0x1a93>
    20ce: a5 25        	lda	$25                     ; 0x2025 <main+0x1aa6>
    20d0: 69 00        	adc	#$0
    20d2: 84 14        	sty	$14                     ; 0x2014 <main+0x1a95>
    20d4: 84 16        	sty	$16                     ; 0x2016 <main+0x1a97>
    20d6: a4 15        	ldy	$15                     ; 0x2015 <main+0x1a96>
    20d8: 84 17        	sty	$17                     ; 0x2017 <main+0x1a98>
    20da: 85 13        	sta	$13                     ; 0x2013 <main+0x1a94>
    20dc: a0 02        	ldy	#$2
    20de: a5 16        	lda	$16                     ; 0x2016 <main+0x1a97>
    20e0: 91 24        	sta	($24),y                 ; 0x2024 <main+0x1aa5>
    20e2: 88           	dey
    20e3: a5 17        	lda	$17                     ; 0x2017 <main+0x1a98>
    20e5: 91 12        	sta	($12),y                 ; 0x2012 <main+0x1a93>
    20e7: 18           	clc
    20e8: a5 16        	lda	$16                     ; 0x2016 <main+0x1a97>
    20ea: 69 04        	adc	#$4
    20ec: 85 16        	sta	$16                     ; 0x2016 <main+0x1a97>
    20ee: a5 17        	lda	$17                     ; 0x2017 <main+0x1a98>
    20f0: 69 00        	adc	#$0
    20f2: 85 17        	sta	$17                     ; 0x2017 <main+0x1a98>
    20f4: 18           	clc
    20f5: a5 24        	lda	$24                     ; 0x2024 <main+0x1aa5>
    20f7: 69 04        	adc	#$4
    20f9: 85 18        	sta	$18                     ; 0x2018 <main+0x1a99>
    20fb: a5 25        	lda	$25                     ; 0x2025 <main+0x1aa6>
    20fd: 69 00        	adc	#$0
    20ff: 85 19        	sta	$19                     ; 0x2019 <main+0x1a9a>
    2101: a0 04        	ldy	#$4
    2103: b1 14        	lda	($14),y                 ; 0x2014 <main+0x1a95>
    2105: 85 14        	sta	$14                     ; 0x2014 <main+0x1a95>
    2107: 85 1b        	sta	$1b                     ; 0x201b <main+0x1a9c>
    2109: a0 01        	ldy	#$1
    210b: b1 16        	lda	($16),y                 ; 0x2016 <main+0x1a97>
    210d: 85 15        	sta	$15                     ; 0x2015 <main+0x1a96>
    210f: 85 17        	sta	$17                     ; 0x2017 <main+0x1a98>
    2111: a0 04        	ldy	#$4
    2113: a5 1b        	lda	$1b                     ; 0x201b <main+0x1a9c>
    2115: 91 24        	sta	($24),y                 ; 0x2024 <main+0x1aa5>
    2117: a5 17        	lda	$17                     ; 0x2017 <main+0x1a98>
    2119: a0 01        	ldy	#$1
    211b: 91 18        	sta	($18),y                 ; 0x2018 <main+0x1a99>
    211d: 18           	clc
    211e: a5 1b        	lda	$1b                     ; 0x201b <main+0x1a9c>
    2120: 69 02        	adc	#$2
    2122: 85 16        	sta	$16                     ; 0x2016 <main+0x1a97>
    2124: a5 17        	lda	$17                     ; 0x2017 <main+0x1a98>
    2126: 69 00        	adc	#$0
    2128: 85 17        	sta	$17                     ; 0x2017 <main+0x1a98>
    212a: a5 24        	lda	$24                     ; 0x2024 <main+0x1aa5>
    212c: c8           	iny
    212d: 91 14        	sta	($14),y                 ; 0x2014 <main+0x1a95>
    212f: a5 25        	lda	$25                     ; 0x2025 <main+0x1aa6>
    2131: 88           	dey
    2132: 91 16        	sta	($16),y                 ; 0x2016 <main+0x1a97>
    2134: c8           	iny
    2135: b1 24        	lda	($24),y                 ; 0x2024 <main+0x1aa5>
    2137: 85 14        	sta	$14                     ; 0x2014 <main+0x1a95>
    2139: 85 16        	sta	$16                     ; 0x2016 <main+0x1a97>
    213b: 88           	dey
    213c: b1 12        	lda	($12),y                 ; 0x2012 <main+0x1a93>
    213e: 85 15        	sta	$15                     ; 0x2015 <main+0x1a96>
    2140: 85 12        	sta	$12                     ; 0x2012 <main+0x1a93>
    2142: a5 24        	lda	$24                     ; 0x2024 <main+0x1aa5>
    2144: a0 04        	ldy	#$4
    2146: 91 14        	sta	($14),y                 ; 0x2014 <main+0x1a95>
    2148: 18           	clc
    2149: a5 16        	lda	$16                     ; 0x2016 <main+0x1a97>
    214b: 69 04        	adc	#$4
    214d: aa           	tax
    214e: a5 12        	lda	$12                     ; 0x2012 <main+0x1a93>
    2150: 69 00        	adc	#$0
    2152: 86 12        	stx	$12                     ; 0x2012 <main+0x1a93>
    2154: 85 13        	sta	$13                     ; 0x2013 <main+0x1a94>
    2156: a5 25        	lda	$25                     ; 0x2025 <main+0x1aa6>
    2158: a0 01        	ldy	#$1
    215a: 91 12        	sta	($12),y                 ; 0x2012 <main+0x1a93>
    215c: a2 85        	ldx	#$85
    215e: 86 12        	stx	$12                     ; 0x2012 <main+0x1a93>
    2160: a2 00        	ldx	#$0
    2162: 86 13        	stx	$13                     ; 0x2013 <main+0x1a94>
    2164: 64 86        	stz	$86                     ; 0x2086 <main+0x1b07>
    2166: 20 00 ff     	jsr	$ff00 <__heap_start+0x9664>
    2169: 92 2c        	sta	($2c)                   ; 0x202c <main+0x1aad>
    216b: a9 00        	lda	#$0
    216d: 6a           	ror
    216e: 85 12        	sta	$12                     ; 0x2012 <main+0x1a93>
    2170: a6 86        	ldx	$86                     ; 0x2086 <main+0x1b07>
    2172: e0 32        	cpx	#$32
    2174: f0 04        	beq	$217a <main+0x1bfb>
    2176: e0 38        	cpx	#$38
    2178: d0 ea        	bne	$2164 <main+0x1be5>
    217a: a4 0f        	ldy	$f                      ; 0x200f <main+0x1a90>
    217c: 78           	sei
    217d: a9 28        	lda	#$28
    217f: 85 0f        	sta	$f                      ; 0x200f <main+0x1a90>
    2181: ae 0a e0     	ldx	$e00a                   ; 0xe00a <__heap_start+0x776e>
    2184: 84 0f        	sty	$f                      ; 0x200f <main+0x1a90>
    2186: 58           	cli
    2187: a4 0f        	ldy	$f                      ; 0x200f <main+0x1a90>
    2189: 78           	sei
    218a: 85 0f        	sta	$f                      ; 0x200f <main+0x1a90>
    218c: ad 0b e0     	lda	$e00b                   ; 0xe00b <__heap_start+0x776f>
    218f: 84 0f        	sty	$f                      ; 0x200f <main+0x1a90>
    2191: 58           	cli
    2192: 85 73        	sta	$73                     ; 0x2073 <main+0x1af4>
    2194: 86 74        	stx	$74                     ; 0x2074 <main+0x1af5>
    2196: a0 19        	ldy	#$19
    2198: 64 13        	stz	$13                     ; 0x2013 <main+0x1a94>
    219a: 84 12        	sty	$12                     ; 0x2012 <main+0x1a93>
    219c: 20 95 63     	jsr	$6395 <__mulhi3>
    219f: 20 7a 61     	jsr	$617a <malloc>
    21a2: a6 12        	ldx	$12                     ; 0x2012 <main+0x1a93>
    21a4: a4 13        	ldy	$13                     ; 0x2013 <main+0x1a94>
    21a6: 86 82        	stx	$82                     ; 0x2082 <main+0x1b03>
    21a8: 84 83        	sty	$83                     ; 0x2083 <main+0x1b04>
    21aa: 64 7b        	stz	$7b                     ; 0x207b <main+0x1afc>
    21ac: a2 20        	ldx	#$20
    21ae: 86 77        	stx	$77                     ; 0x2077 <main+0x1af8>
    21b0: a2 a1        	ldx	#$a1
    21b2: 86 78        	stx	$78                     ; 0x2078 <main+0x1af9>
    21b4: a2 07        	ldx	#$7
    21b6: 86 79        	stx	$79                     ; 0x2079 <main+0x1afa>
    21b8: 64 7a        	stz	$7a                     ; 0x207a <main+0x1afb>
    21ba: a2 ff        	ldx	#$ff
    21bc: 86 7c        	stx	$7c                     ; 0x207c <main+0x1afd>
    21be: 86 7d        	stx	$7d                     ; 0x207d <main+0x1afe>
    21c0: 86 7e        	stx	$7e                     ; 0x207e <main+0x1aff>
    21c2: 86 7f        	stx	$7f                     ; 0x207f <main+0x1b00>
    21c4: 64 80        	stz	$80                     ; 0x2080 <main+0x1b01>
    21c6: 64 81        	stz	$81                     ; 0x2081 <main+0x1b02>
    21c8: a2 30        	ldx	#$30
    21ca: 86 75        	stx	$75                     ; 0x2075 <main+0x1af6>
    21cc: 64 76        	stz	$76                     ; 0x2076 <main+0x1af7>
    21ce: a4 0f        	ldy	$f                      ; 0x200f <main+0x1a90>
    21d0: 78           	sei
    21d1: a9 28        	lda	#$28
    21d3: 85 0f        	sta	$f                      ; 0x200f <main+0x1a90>
    21d5: ae 0c e0     	ldx	$e00c                   ; 0xe00c <__heap_start+0x7770>
    21d8: 84 0f        	sty	$f                      ; 0x200f <main+0x1a90>
    21da: 58           	cli
    21db: a4 0f        	ldy	$f                      ; 0x200f <main+0x1a90>
    21dd: 78           	sei
    21de: 85 0f        	sta	$f                      ; 0x200f <main+0x1a90>
    21e0: ad 0d e0     	lda	$e00d                   ; 0xe00d <__heap_start+0x7771>
    21e3: 84 0f        	sty	$f                      ; 0x200f <main+0x1a90>
    21e5: 58           	cli
    21e6: 85 75        	sta	$75                     ; 0x2075 <main+0x1af6>
    21e8: 86 76        	stx	$76                     ; 0x2076 <main+0x1af7>
    21ea: a6 73        	ldx	$73                     ; 0x2073 <main+0x1af4>
    21ec: a4 74        	ldy	$74                     ; 0x2074 <main+0x1af5>
    21ee: a9 a1        	lda	#$a1
    21f0: 85 24        	sta	$24                     ; 0x2024 <main+0x1aa5>
    21f2: a9 dd        	lda	#$dd
    21f4: 85 25        	sta	$25                     ; 0x2025 <main+0x1aa6>
    21f6: 98           	tya
    21f7: d0 06        	bne	$21ff <main+0x1c80>
    21f9: 8a           	txa
    21fa: d0 03        	bne	$21ff <main+0x1c80>
    21fc: 4c ce 25     	jmp	$25ce <main+0x204f>
    21ff: a5 82        	lda	$82                     ; 0x2082 <main+0x1b03>
    2201: 85 24        	sta	$24                     ; 0x2024 <main+0x1aa5>
    2203: a5 83        	lda	$83                     ; 0x2083 <main+0x1b04>
    2205: 85 25        	sta	$25                     ; 0x2025 <main+0x1aa6>
    2207: 86 26        	stx	$26                     ; 0x2026 <main+0x1aa7>
    2209: 84 27        	sty	$27                     ; 0x2027 <main+0x1aa8>
    220b: 80 06        	bra	$2213 <main+0x1c94>
    220d: 85 25        	sta	$25                     ; 0x2025 <main+0x1aa6>
    220f: a5 27        	lda	$27                     ; 0x2027 <main+0x1aa8>
    2211: f0 32        	beq	$2245 <main+0x1cc6>
    2213: a6 24        	ldx	$24                     ; 0x2024 <main+0x1aa5>
    2215: 86 12        	stx	$12                     ; 0x2012 <main+0x1a93>
    2217: a6 25        	ldx	$25                     ; 0x2025 <main+0x1aa6>
    2219: 86 13        	stx	$13                     ; 0x2013 <main+0x1a94>
    221b: 64 14        	stz	$14                     ; 0x2014 <main+0x1a95>
    221d: a9 00        	lda	#$0
    221f: a2 17        	ldx	#$17
    2221: 20 75 63     	jsr	$6375 <__memset>
    2224: a9 01        	lda	#$1
    2226: a0 17        	ldy	#$17
    2228: 91 24        	sta	($24),y                 ; 0x2024 <main+0x1aa5>
    222a: c8           	iny
    222b: 3a           	dec
    222c: 91 24        	sta	($24),y                 ; 0x2024 <main+0x1aa5>
    222e: a5 24        	lda	$24                     ; 0x2024 <main+0x1aa5>
    2230: 18           	clc
    2231: 69 19        	adc	#$19
    2233: 85 24        	sta	$24                     ; 0x2024 <main+0x1aa5>
    2235: a5 25        	lda	$25                     ; 0x2025 <main+0x1aa6>
    2237: 69 00        	adc	#$0
    2239: a2 ff        	ldx	#$ff
    223b: c6 26        	dec	$26                     ; 0x2026 <main+0x1aa7>
    223d: e4 26        	cpx	$26                     ; 0x2026 <main+0x1aa7>
    223f: d0 cc        	bne	$220d <main+0x1c8e>
    2241: c6 27        	dec	$27                     ; 0x2027 <main+0x1aa8>
    2243: 80 c8        	bra	$220d <main+0x1c8e>
    2245: a5 26        	lda	$26                     ; 0x2026 <main+0x1aa7>
    2247: d0 ca        	bne	$2213 <main+0x1c94>
    2249: a2 0e        	ldx	#$e
    224b: 8a           	txa
    224c: a0 13        	ldy	#$13
    224e: 91 10        	sta	($10),y                 ; 0x2010 <main+0x1a91>
    2250: a2 08        	ldx	#$8
    2252: 8a           	txa
    2253: c8           	iny
    2254: 91 10        	sta	($10),y                 ; 0x2010 <main+0x1a91>
    2256: 64 18        	stz	$18                     ; 0x2018 <main+0x1a99>
    2258: 64 19        	stz	$19                     ; 0x2019 <main+0x1a9a>
    225a: 64 17        	stz	$17                     ; 0x2017 <main+0x1a98>
    225c: a9 00        	lda	#$0
    225e: aa           	tax
    225f: 64 2d        	stz	$2d                     ; 0x202d <main+0x1aae>
    2261: a0 a1        	ldy	#$a1
    2263: 84 24        	sty	$24                     ; 0x2024 <main+0x1aa5>
    2265: a0 dd        	ldy	#$dd
    2267: 84 25        	sty	$25                     ; 0x2025 <main+0x1aa6>
    2269: a8           	tay
    226a: 84 26        	sty	$26                     ; 0x2026 <main+0x1aa7>
    226c: a0 c0        	ldy	#$c0
    226e: 84 27        	sty	$27                     ; 0x2027 <main+0x1aa8>
    2270: a0 b1        	ldy	#$b1
    2272: 84 2e        	sty	$2e                     ; 0x202e <main+0x1aaf>
    2274: a0 dd        	ldy	#$dd
    2276: 84 2f        	sty	$2f                     ; 0x202f <main+0x1ab0>
    2278: 85 12        	sta	$12                     ; 0x2012 <main+0x1a93>
    227a: a4 17        	ldy	$17                     ; 0x2017 <main+0x1a98>
    227c: 84 13        	sty	$13                     ; 0x2013 <main+0x1a94>
    227e: a4 19        	ldy	$19                     ; 0x2019 <main+0x1a9a>
    2280: 84 14        	sty	$14                     ; 0x2014 <main+0x1a95>
    2282: a0 13        	ldy	#$13
    2284: b1 10        	lda	($10),y                 ; 0x2010 <main+0x1a91>
    2286: 85 15        	sta	$15                     ; 0x2015 <main+0x1a96>
    2288: 18           	clc
    2289: 69 04        	adc	#$4
    228b: 85 17        	sta	$17                     ; 0x2017 <main+0x1a98>
    228d: a5 19        	lda	$19                     ; 0x2019 <main+0x1a9a>
    228f: 69 00        	adc	#$0
    2291: 85 19        	sta	$19                     ; 0x2019 <main+0x1a9a>
    2293: a5 13        	lda	$13                     ; 0x2013 <main+0x1a94>
    2295: 69 05        	adc	#$5
    2297: a4 19        	ldy	$19                     ; 0x2019 <main+0x1a9a>
    2299: 84 16        	sty	$16                     ; 0x2016 <main+0x1a97>
    229b: 06 16        	asl	$16                     ; 0x2016 <main+0x1a97>
    229d: 2a           	rol
    229e: 06 16        	asl	$16                     ; 0x2016 <main+0x1a97>
    22a0: 2a           	rol
    22a1: 06 16        	asl	$16                     ; 0x2016 <main+0x1a97>
    22a3: 2a           	rol
    22a4: 86 1a        	stx	$1a                     ; 0x201a <main+0x1a9b>
    22a6: a6 0f        	ldx	$f                      ; 0x200f <main+0x1a90>
    22a8: 78           	sei
    22a9: 85 0f        	sta	$f                      ; 0x200f <main+0x1a90>
    22ab: a5 19        	lda	$19                     ; 0x2019 <main+0x1a9a>
    22ad: 09 e0        	ora	#$e0
    22af: a4 17        	ldy	$17                     ; 0x2017 <main+0x1a98>
    22b1: 84 16        	sty	$16                     ; 0x2016 <main+0x1a97>
    22b3: 85 17        	sta	$17                     ; 0x2017 <main+0x1a98>
    22b5: b2 16        	lda	($16)                   ; 0x2016 <main+0x1a97>
    22b7: 85 1c        	sta	$1c                     ; 0x201c <main+0x1a9d>
    22b9: 86 0f        	stx	$f                      ; 0x200f <main+0x1a90>
    22bb: 18           	clc
    22bc: a5 15        	lda	$15                     ; 0x2015 <main+0x1a96>
    22be: 69 05        	adc	#$5
    22c0: 85 17        	sta	$17                     ; 0x2017 <main+0x1a98>
    22c2: a5 14        	lda	$14                     ; 0x2014 <main+0x1a95>
    22c4: 69 00        	adc	#$0
    22c6: 85 19        	sta	$19                     ; 0x2019 <main+0x1a9a>
    22c8: a5 13        	lda	$13                     ; 0x2013 <main+0x1a94>
    22ca: 69 05        	adc	#$5
    22cc: a6 19        	ldx	$19                     ; 0x2019 <main+0x1a9a>
    22ce: 86 16        	stx	$16                     ; 0x2016 <main+0x1a97>
    22d0: 06 16        	asl	$16                     ; 0x2016 <main+0x1a97>
    22d2: 2a           	rol
    22d3: 06 16        	asl	$16                     ; 0x2016 <main+0x1a97>
    22d5: 2a           	rol
    22d6: 06 16        	asl	$16                     ; 0x2016 <main+0x1a97>
    22d8: 2a           	rol
    22d9: 58           	cli
    22da: a6 0f        	ldx	$f                      ; 0x200f <main+0x1a90>
    22dc: 78           	sei
    22dd: 85 0f        	sta	$f                      ; 0x200f <main+0x1a90>
    22df: a5 19        	lda	$19                     ; 0x2019 <main+0x1a9a>
    22e1: 09 e0        	ora	#$e0
    22e3: a4 17        	ldy	$17                     ; 0x2017 <main+0x1a98>
    22e5: 84 16        	sty	$16                     ; 0x2016 <main+0x1a97>
    22e7: 85 17        	sta	$17                     ; 0x2017 <main+0x1a98>
    22e9: b2 16        	lda	($16)                   ; 0x2016 <main+0x1a97>
    22eb: 85 1d        	sta	$1d                     ; 0x201d <main+0x1a9e>
    22ed: 86 0f        	stx	$f                      ; 0x200f <main+0x1a90>
    22ef: 18           	clc
    22f0: a5 15        	lda	$15                     ; 0x2015 <main+0x1a96>
    22f2: 69 06        	adc	#$6
    22f4: 85 17        	sta	$17                     ; 0x2017 <main+0x1a98>
    22f6: a5 14        	lda	$14                     ; 0x2014 <main+0x1a95>
    22f8: 69 00        	adc	#$0
    22fa: 85 19        	sta	$19                     ; 0x2019 <main+0x1a9a>
    22fc: a5 13        	lda	$13                     ; 0x2013 <main+0x1a94>
    22fe: 69 05        	adc	#$5
    2300: a6 19        	ldx	$19                     ; 0x2019 <main+0x1a9a>
    2302: 86 16        	stx	$16                     ; 0x2016 <main+0x1a97>
    2304: 06 16        	asl	$16                     ; 0x2016 <main+0x1a97>
    2306: 2a           	rol
    2307: 06 16        	asl	$16                     ; 0x2016 <main+0x1a97>
    2309: 2a           	rol
    230a: 06 16        	asl	$16                     ; 0x2016 <main+0x1a97>
    230c: 2a           	rol
    230d: 58           	cli
    230e: a6 0f        	ldx	$f                      ; 0x200f <main+0x1a90>
    2310: 78           	sei
    2311: 85 0f        	sta	$f                      ; 0x200f <main+0x1a90>
    2313: a4 17        	ldy	$17                     ; 0x2017 <main+0x1a98>
    2315: 84 16        	sty	$16                     ; 0x2016 <main+0x1a97>
    2317: a5 19        	lda	$19                     ; 0x2019 <main+0x1a9a>
    2319: 09 e0        	ora	#$e0
    231b: 85 17        	sta	$17                     ; 0x2017 <main+0x1a98>
    231d: b2 16        	lda	($16)                   ; 0x2016 <main+0x1a97>
    231f: 85 22        	sta	$22                     ; 0x2022 <main+0x1aa3>
    2321: 86 0f        	stx	$f                      ; 0x200f <main+0x1a90>
    2323: 18           	clc
    2324: a5 15        	lda	$15                     ; 0x2015 <main+0x1a96>
    2326: 69 07        	adc	#$7
    2328: 85 17        	sta	$17                     ; 0x2017 <main+0x1a98>
    232a: a5 14        	lda	$14                     ; 0x2014 <main+0x1a95>
    232c: 69 00        	adc	#$0
    232e: 85 19        	sta	$19                     ; 0x2019 <main+0x1a9a>
    2330: a5 13        	lda	$13                     ; 0x2013 <main+0x1a94>
    2332: 69 05        	adc	#$5
    2334: a6 19        	ldx	$19                     ; 0x2019 <main+0x1a9a>
    2336: 86 16        	stx	$16                     ; 0x2016 <main+0x1a97>
    2338: 06 16        	asl	$16                     ; 0x2016 <main+0x1a97>
    233a: 2a           	rol
    233b: 06 16        	asl	$16                     ; 0x2016 <main+0x1a97>
    233d: 2a           	rol
    233e: 06 16        	asl	$16                     ; 0x2016 <main+0x1a97>
    2340: 2a           	rol
    2341: 58           	cli
    2342: a6 0f        	ldx	$f                      ; 0x200f <main+0x1a90>
    2344: 78           	sei
    2345: 85 0f        	sta	$f                      ; 0x200f <main+0x1a90>
    2347: a4 17        	ldy	$17                     ; 0x2017 <main+0x1a98>
    2349: 84 16        	sty	$16                     ; 0x2016 <main+0x1a97>
    234b: a5 19        	lda	$19                     ; 0x2019 <main+0x1a9a>
    234d: 09 e0        	ora	#$e0
    234f: 85 17        	sta	$17                     ; 0x2017 <main+0x1a98>
    2351: b2 16        	lda	($16)                   ; 0x2016 <main+0x1a97>
    2353: 85 2b        	sta	$2b                     ; 0x202b <main+0x1aac>
    2355: 86 0f        	stx	$f                      ; 0x200f <main+0x1a90>
    2357: 58           	cli
    2358: a6 82        	ldx	$82                     ; 0x2082 <main+0x1b03>
    235a: 86 1e        	stx	$1e                     ; 0x201e <main+0x1a9f>
    235c: a6 83        	ldx	$83                     ; 0x2083 <main+0x1b04>
    235e: 86 1f        	stx	$1f                     ; 0x201f <main+0x1aa0>
    2360: 18           	clc
    2361: a0 14        	ldy	#$14
    2363: b1 10        	lda	($10),y                 ; 0x2010 <main+0x1a91>
    2365: 85 28        	sta	$28                     ; 0x2028 <main+0x1aa9>
    2367: 65 82        	adc	$82                     ; 0x2082 <main+0x1b03>
    2369: aa           	tax
    236a: a4 18        	ldy	$18                     ; 0x2018 <main+0x1a99>
    236c: 84 23        	sty	$23                     ; 0x2023 <main+0x1aa4>
    236e: a5 18        	lda	$18                     ; 0x2018 <main+0x1a99>
    2370: 65 83        	adc	$83                     ; 0x2083 <main+0x1b04>
    2372: 86 16        	stx	$16                     ; 0x2016 <main+0x1a97>
    2374: 85 17        	sta	$17                     ; 0x2017 <main+0x1a98>
    2376: 85 19        	sta	$19                     ; 0x2019 <main+0x1a9a>
    2378: 18           	clc
    2379: 8a           	txa
    237a: 69 f8        	adc	#$f8
    237c: 85 18        	sta	$18                     ; 0x2018 <main+0x1a99>
    237e: a5 19        	lda	$19                     ; 0x2019 <main+0x1a9a>
    2380: 69 ff        	adc	#$ff
    2382: 85 19        	sta	$19                     ; 0x2019 <main+0x1a9a>
    2384: 18           	clc
    2385: a5 15        	lda	$15                     ; 0x2015 <main+0x1a96>
    2387: 69 08        	adc	#$8
    2389: a8           	tay
    238a: a5 14        	lda	$14                     ; 0x2014 <main+0x1a95>
    238c: 69 00        	adc	#$0
    238e: 85 1b        	sta	$1b                     ; 0x201b <main+0x1a9c>
    2390: a5 13        	lda	$13                     ; 0x2013 <main+0x1a94>
    2392: 69 05        	adc	#$5
    2394: 85 2c        	sta	$2c                     ; 0x202c <main+0x1aad>
    2396: a5 12        	lda	$12                     ; 0x2012 <main+0x1a93>
    2398: 69 00        	adc	#$0
    239a: aa           	tax
    239b: 98           	tya
    239c: 92 16        	sta	($16)                   ; 0x2016 <main+0x1a97>
    239e: a0 01        	ldy	#$1
    23a0: a5 1b        	lda	$1b                     ; 0x201b <main+0x1a9c>
    23a2: 91 16        	sta	($16),y                 ; 0x2016 <main+0x1a97>
    23a4: c8           	iny
    23a5: a5 2c        	lda	$2c                     ; 0x202c <main+0x1aad>
    23a7: 91 16        	sta	($16),y                 ; 0x2016 <main+0x1a97>
    23a9: c8           	iny
    23aa: 8a           	txa
    23ab: 91 16        	sta	($16),y                 ; 0x2016 <main+0x1a97>
    23ad: a5 2b        	lda	$2b                     ; 0x202b <main+0x1aac>
    23af: 92 18        	sta	($18)                   ; 0x2018 <main+0x1a99>
    23b1: a5 22        	lda	$22                     ; 0x2022 <main+0x1aa3>
    23b3: a0 01        	ldy	#$1
    23b5: 91 18        	sta	($18),y                 ; 0x2018 <main+0x1a99>
    23b7: a5 1d        	lda	$1d                     ; 0x201d <main+0x1a9e>
    23b9: c8           	iny
    23ba: 91 18        	sta	($18),y                 ; 0x2018 <main+0x1a99>
    23bc: a5 1c        	lda	$1c                     ; 0x201c <main+0x1a9d>
    23be: c8           	iny
    23bf: 91 18        	sta	($18),y                 ; 0x2018 <main+0x1a99>
    23c1: 85 16        	sta	$16                     ; 0x2016 <main+0x1a97>
    23c3: 18           	clc
    23c4: a5 2b        	lda	$2b                     ; 0x202b <main+0x1aac>
    23c6: 65 15        	adc	$15                     ; 0x2015 <main+0x1a96>
    23c8: 85 15        	sta	$15                     ; 0x2015 <main+0x1a96>
    23ca: a5 22        	lda	$22                     ; 0x2022 <main+0x1aa3>
    23cc: 65 14        	adc	$14                     ; 0x2014 <main+0x1a95>
    23ce: a8           	tay
    23cf: a5 1d        	lda	$1d                     ; 0x201d <main+0x1a9e>
    23d1: 65 13        	adc	$13                     ; 0x2013 <main+0x1a94>
    23d3: aa           	tax
    23d4: a5 16        	lda	$16                     ; 0x2016 <main+0x1a97>
    23d6: 65 12        	adc	$12                     ; 0x2012 <main+0x1a93>
    23d8: 85 14        	sta	$14                     ; 0x2014 <main+0x1a95>
    23da: 18           	clc
    23db: a5 15        	lda	$15                     ; 0x2015 <main+0x1a96>
    23dd: 69 08        	adc	#$8
    23df: 5a           	phy
    23e0: a0 13        	ldy	#$13
    23e2: 91 10        	sta	($10),y                 ; 0x2010 <main+0x1a91>
    23e4: 7a           	ply
    23e5: 98           	tya
    23e6: 69 00        	adc	#$0
    23e8: 85 19        	sta	$19                     ; 0x2019 <main+0x1a9a>
    23ea: 8a           	txa
    23eb: 69 00        	adc	#$0
    23ed: 85 17        	sta	$17                     ; 0x2017 <main+0x1a98>
    23ef: a5 14        	lda	$14                     ; 0x2014 <main+0x1a95>
    23f1: 69 00        	adc	#$0
    23f3: 85 16        	sta	$16                     ; 0x2016 <main+0x1a97>
    23f5: a4 2d        	ldy	$2d                     ; 0x202d <main+0x1aae>
    23f7: a6 1a        	ldx	$1a                     ; 0x201a <main+0x1a9b>
    23f9: e8           	inx
    23fa: d0 01        	bne	$23fd <main+0x1e7e>
    23fc: c8           	iny
    23fd: a5 73        	lda	$73                     ; 0x2073 <main+0x1af4>
    23ff: 85 12        	sta	$12                     ; 0x2012 <main+0x1a93>
    2401: a5 74        	lda	$74                     ; 0x2074 <main+0x1af5>
    2403: 85 13        	sta	$13                     ; 0x2013 <main+0x1a94>
    2405: 18           	clc
    2406: a5 28        	lda	$28                     ; 0x2028 <main+0x1aa9>
    2408: 69 19        	adc	#$19
    240a: 5a           	phy
    240b: a0 14        	ldy	#$14
    240d: 91 10        	sta	($10),y                 ; 0x2010 <main+0x1a91>
    240f: 7a           	ply
    2410: a5 23        	lda	$23                     ; 0x2023 <main+0x1aa4>
    2412: 69 00        	adc	#$0
    2414: 85 18        	sta	$18                     ; 0x2018 <main+0x1a99>
    2416: 84 2d        	sty	$2d                     ; 0x202d <main+0x1aae>
    2418: c4 13        	cpy	$13                     ; 0x2013 <main+0x1a94>
    241a: d0 09        	bne	$2425 <main+0x1ea6>
    241c: e4 12        	cpx	$12                     ; 0x2012 <main+0x1a93>
    241e: a5 16        	lda	$16                     ; 0x2016 <main+0x1a97>
    2420: b0 0c        	bcs	$242e <main+0x1eaf>
    2422: 4c 78 22     	jmp	$2278 <main+0x1cf9>
    2425: c4 13        	cpy	$13                     ; 0x2013 <main+0x1a94>
    2427: a5 16        	lda	$16                     ; 0x2016 <main+0x1a97>
    2429: b0 03        	bcs	$242e <main+0x1eaf>
    242b: 4c 78 22     	jmp	$2278 <main+0x1cf9>
    242e: a5 13        	lda	$13                     ; 0x2013 <main+0x1a94>
    2430: d0 07        	bne	$2439 <main+0x1eba>
    2432: a5 12        	lda	$12                     ; 0x2012 <main+0x1a93>
    2434: d0 03        	bne	$2439 <main+0x1eba>
    2436: 4c ce 25     	jmp	$25ce <main+0x204f>
    2439: a6 1e        	ldx	$1e                     ; 0x201e <main+0x1a9f>
    243b: 86 14        	stx	$14                     ; 0x2014 <main+0x1a95>
    243d: a6 1f        	ldx	$1f                     ; 0x201f <main+0x1aa0>
    243f: 86 15        	stx	$15                     ; 0x2015 <main+0x1a96>
    2441: 64 18        	stz	$18                     ; 0x2018 <main+0x1a99>
    2443: 64 2b        	stz	$2b                     ; 0x202b <main+0x1aac>
    2445: a0 00        	ldy	#$0
    2447: a2 00        	ldx	#$0
    2449: 8a           	txa
    244a: 5a           	phy
    244b: a0 14        	ldy	#$14
    244d: 91 10        	sta	($10),y                 ; 0x2010 <main+0x1a91>
    244f: 7a           	ply
    2450: 84 2d        	sty	$2d                     ; 0x202d <main+0x1aae>
    2452: a5 18        	lda	$18                     ; 0x2018 <main+0x1a99>
    2454: 18           	clc
    2455: 65 14        	adc	$14                     ; 0x2014 <main+0x1a95>
    2457: 85 16        	sta	$16                     ; 0x2016 <main+0x1a97>
    2459: a6 18        	ldx	$18                     ; 0x2018 <main+0x1a99>
    245b: a5 2b        	lda	$2b                     ; 0x202b <main+0x1aac>
    245d: 65 15        	adc	$15                     ; 0x2015 <main+0x1a96>
    245f: 85 17        	sta	$17                     ; 0x2017 <main+0x1a98>
    2461: a0 18        	ldy	#$18
    2463: b1 16        	lda	($16),y                 ; 0x2016 <main+0x1a97>
    2465: f0 05        	beq	$246c <main+0x1eed>
    2467: 86 2c        	stx	$2c                     ; 0x202c <main+0x1aad>
    2469: 4c 6e 25     	jmp	$256e <main+0x1fef>
    246c: 86 2c        	stx	$2c                     ; 0x202c <main+0x1aad>
    246e: 8a           	txa
    246f: 18           	clc
    2470: 65 14        	adc	$14                     ; 0x2014 <main+0x1a95>
    2472: aa           	tax
    2473: a5 2b        	lda	$2b                     ; 0x202b <main+0x1aac>
    2475: 65 15        	adc	$15                     ; 0x2015 <main+0x1a96>
    2477: a8           	tay
    2478: 8a           	txa
    2479: 18           	clc
    247a: 69 04        	adc	#$4
    247c: 85 18        	sta	$18                     ; 0x2018 <main+0x1a99>
    247e: 98           	tya
    247f: 84 1b        	sty	$1b                     ; 0x201b <main+0x1a9c>
    2481: 69 00        	adc	#$0
    2483: 85 19        	sta	$19                     ; 0x2019 <main+0x1a9a>
    2485: a0 03        	ldy	#$3
    2487: b1 18        	lda	($18),y                 ; 0x2018 <main+0x1a99>
    2489: d1 16        	cmp	($16),y                 ; 0x2016 <main+0x1a97>
    248b: d0 26        	bne	$24b3 <main+0x1f34>
    248d: a0 02        	ldy	#$2
    248f: b1 18        	lda	($18),y                 ; 0x2018 <main+0x1a99>
    2491: 85 1c        	sta	$1c                     ; 0x201c <main+0x1a9d>
    2493: b1 16        	lda	($16),y                 ; 0x2016 <main+0x1a97>
    2495: 85 1a        	sta	$1a                     ; 0x201a <main+0x1a9b>
    2497: a4 1c        	ldy	$1c                     ; 0x201c <main+0x1a9d>
    2499: c4 1a        	cpy	$1a                     ; 0x201a <main+0x1a9b>
    249b: d0 1a        	bne	$24b7 <main+0x1f38>
    249d: a0 01        	ldy	#$1
    249f: b1 18        	lda	($18),y                 ; 0x2018 <main+0x1a99>
    24a1: 85 19        	sta	$19                     ; 0x2019 <main+0x1a9a>
    24a3: b1 16        	lda	($16),y                 ; 0x2016 <main+0x1a97>
    24a5: 85 18        	sta	$18                     ; 0x2018 <main+0x1a99>
    24a7: a4 19        	ldy	$19                     ; 0x2019 <main+0x1a9a>
    24a9: c4 18        	cpy	$18                     ; 0x2018 <main+0x1a99>
    24ab: f0 03        	beq	$24b0 <main+0x1f31>
    24ad: 4c 30 40     	jmp	$4030 <main+0x3ab1>
    24b0: 4c 19 40     	jmp	$4019 <main+0x3a9a>
    24b3: d1 16        	cmp	($16),y                 ; 0x2016 <main+0x1a97>
    24b5: 80 02        	bra	$24b9 <main+0x1f3a>
    24b7: c4 1a        	cpy	$1a                     ; 0x201a <main+0x1a9b>
    24b9: 90 03        	bcc	$24be <main+0x1f3f>
    24bb: 4c 68 25     	jmp	$2568 <main+0x1fe9>
    24be: 64 61        	stz	$61                     ; 0x2061 <main+0x1ae2>
    24c0: 9c 14 d0     	stz	$d014                   ; 0xd014 <__heap_start+0x6778>
    24c3: 9c 15 d0     	stz	$d015                   ; 0xd015 <__heap_start+0x6779>
    24c6: a5 2d        	lda	$2d                     ; 0x202d <main+0x1aae>
    24c8: 18           	clc
    24c9: 69 0f        	adc	#$f
    24cb: 85 62        	sta	$62                     ; 0x2062 <main+0x1ae3>
    24cd: 8d 16 d0     	sta	$d016                   ; 0xd016 <__heap_start+0x677a>
    24d0: 9c 17 d0     	stz	$d017                   ; 0xd017 <__heap_start+0x677b>
    24d3: a5 2d        	lda	$2d                     ; 0x202d <main+0x1aae>
    24d5: 20 a4 43     	jsr	$43a4 <readDelta>
    24d8: a0 13        	ldy	#$13
    24da: 91 10        	sta	($10),y                 ; 0x2010 <main+0x1a91>
    24dc: 8a           	txa
    24dd: 88           	dey
    24de: 91 10        	sta	($10),y                 ; 0x2010 <main+0x1a91>
    24e0: a5 12        	lda	$12                     ; 0x2012 <main+0x1a93>
    24e2: 88           	dey
    24e3: 91 10        	sta	($10),y                 ; 0x2010 <main+0x1a91>
    24e5: a5 13        	lda	$13                     ; 0x2013 <main+0x1a94>
    24e7: a0 0f        	ldy	#$f
    24e9: 91 10        	sta	($10),y                 ; 0x2010 <main+0x1a91>
    24eb: a6 82        	ldx	$82                     ; 0x2082 <main+0x1b03>
    24ed: 8a           	txa
    24ee: a0 0c        	ldy	#$c
    24f0: 91 10        	sta	($10),y                 ; 0x2010 <main+0x1a91>
    24f2: a6 83        	ldx	$83                     ; 0x2083 <main+0x1b04>
    24f4: 8a           	txa
    24f5: c8           	iny
    24f6: 91 10        	sta	($10),y                 ; 0x2010 <main+0x1a91>
    24f8: a2 19        	ldx	#$19
    24fa: 86 12        	stx	$12                     ; 0x2012 <main+0x1a93>
    24fc: 64 13        	stz	$13                     ; 0x2013 <main+0x1a94>
    24fe: a2 00        	ldx	#$0
    2500: a5 2d        	lda	$2d                     ; 0x202d <main+0x1aae>
    2502: 20 95 63     	jsr	$6395 <__mulhi3>
    2505: 85 12        	sta	$12                     ; 0x2012 <main+0x1a93>
    2507: 86 13        	stx	$13                     ; 0x2013 <main+0x1a94>
    2509: 18           	clc
    250a: a0 0c        	ldy	#$c
    250c: b1 10        	lda	($10),y                 ; 0x2010 <main+0x1a91>
    250e: 65 12        	adc	$12                     ; 0x2012 <main+0x1a93>
    2510: a8           	tay
    2511: 5a           	phy
    2512: a0 0d        	ldy	#$d
    2514: b1 10        	lda	($10),y                 ; 0x2010 <main+0x1a91>
    2516: 7a           	ply
    2517: 65 13        	adc	$13                     ; 0x2013 <main+0x1a94>
    2519: aa           	tax
    251a: 98           	tya
    251b: 84 12        	sty	$12                     ; 0x2012 <main+0x1a93>
    251d: 86 13        	stx	$13                     ; 0x2013 <main+0x1a94>
    251f: 18           	clc
    2520: 69 0c        	adc	#$c
    2522: 85 14        	sta	$14                     ; 0x2014 <main+0x1a95>
    2524: 8a           	txa
    2525: 69 00        	adc	#$0
    2527: 85 15        	sta	$15                     ; 0x2015 <main+0x1a96>
    2529: a0 0c        	ldy	#$c
    252b: 5a           	phy
    252c: a0 13        	ldy	#$13
    252e: b1 10        	lda	($10),y                 ; 0x2010 <main+0x1a91>
    2530: 7a           	ply
    2531: 91 12        	sta	($12),y                 ; 0x2012 <main+0x1a93>
    2533: a0 01        	ldy	#$1
    2535: 5a           	phy
    2536: a0 12        	ldy	#$12
    2538: b1 10        	lda	($10),y                 ; 0x2010 <main+0x1a91>
    253a: 7a           	ply
    253b: 91 14        	sta	($14),y                 ; 0x2014 <main+0x1a95>
    253d: a0 02        	ldy	#$2
    253f: 5a           	phy
    2540: a0 11        	ldy	#$11
    2542: b1 10        	lda	($10),y                 ; 0x2010 <main+0x1a91>
    2544: 7a           	ply
    2545: 91 14        	sta	($14),y                 ; 0x2014 <main+0x1a95>
    2547: a0 03        	ldy	#$3
    2549: 5a           	phy
    254a: a0 0f        	ldy	#$f
    254c: b1 10        	lda	($10),y                 ; 0x2010 <main+0x1a91>
    254e: 7a           	ply
    254f: 91 14        	sta	($14),y                 ; 0x2014 <main+0x1a95>
    2551: a5 2d        	lda	$2d                     ; 0x202d <main+0x1aae>
    2553: 20 14 48     	jsr	$4814 <readMIDICmd>
    2556: a6 82        	ldx	$82                     ; 0x2082 <main+0x1b03>
    2558: a4 83        	ldy	$83                     ; 0x2083 <main+0x1b04>
    255a: 86 14        	stx	$14                     ; 0x2014 <main+0x1a95>
    255c: 84 15        	sty	$15                     ; 0x2015 <main+0x1a96>
    255e: a6 73        	ldx	$73                     ; 0x2073 <main+0x1af4>
    2560: a4 74        	ldy	$74                     ; 0x2074 <main+0x1af5>
    2562: 86 12        	stx	$12                     ; 0x2012 <main+0x1a93>
    2564: 84 13        	sty	$13                     ; 0x2013 <main+0x1a94>
    2566: 80 06        	bra	$256e <main+0x1fef>
    2568: a0 18        	ldy	#$18
    256a: a9 01        	lda	#$1
    256c: 91 16        	sta	($16),y                 ; 0x2016 <main+0x1a97>
    256e: a0 14        	ldy	#$14
    2570: b1 10        	lda	($10),y                 ; 0x2010 <main+0x1a91>
    2572: aa           	tax
    2573: a4 2d        	ldy	$2d                     ; 0x202d <main+0x1aae>
    2575: c8           	iny
    2576: d0 01        	bne	$2579 <main+0x1ffa>
    2578: e8           	inx
    2579: 18           	clc
    257a: a5 2c        	lda	$2c                     ; 0x202c <main+0x1aad>
    257c: 69 19        	adc	#$19
    257e: 85 16        	sta	$16                     ; 0x2016 <main+0x1a97>
    2580: a5 2b        	lda	$2b                     ; 0x202b <main+0x1aac>
    2582: 69 00        	adc	#$0
    2584: 85 2b        	sta	$2b                     ; 0x202b <main+0x1aac>
    2586: e4 13        	cpx	$13                     ; 0x2013 <main+0x1a94>
    2588: d0 0b        	bne	$2595 <main+0x2016>
    258a: c4 12        	cpy	$12                     ; 0x2012 <main+0x1a93>
    258c: a5 16        	lda	$16                     ; 0x2016 <main+0x1a97>
    258e: 85 18        	sta	$18                     ; 0x2018 <main+0x1a99>
    2590: b0 0e        	bcs	$25a0 <main+0x2021>
    2592: 4c 49 24     	jmp	$2449 <main+0x1eca>
    2595: e4 13        	cpx	$13                     ; 0x2013 <main+0x1a94>
    2597: a5 16        	lda	$16                     ; 0x2016 <main+0x1a97>
    2599: 85 18        	sta	$18                     ; 0x2018 <main+0x1a99>
    259b: b0 03        	bcs	$25a0 <main+0x2021>
    259d: 4c 49 24     	jmp	$2449 <main+0x1eca>
    25a0: a5 13        	lda	$13                     ; 0x2013 <main+0x1a94>
    25a2: d0 04        	bne	$25a8 <main+0x2029>
    25a4: a5 12        	lda	$12                     ; 0x2012 <main+0x1a93>
    25a6: f0 26        	beq	$25ce <main+0x204f>
    25a8: a0 00        	ldy	#$0
    25aa: 98           	tya
    25ab: 85 2b        	sta	$2b                     ; 0x202b <main+0x1aac>
    25ad: 98           	tya
    25ae: 84 28        	sty	$28                     ; 0x2028 <main+0x1aa9>
    25b0: 20 4f 50     	jsr	$504f <exhaustZeroes>
    25b3: a6 2b        	ldx	$2b                     ; 0x202b <main+0x1aac>
    25b5: a4 28        	ldy	$28                     ; 0x2028 <main+0x1aa9>
    25b7: c8           	iny
    25b8: d0 01        	bne	$25bb <main+0x203c>
    25ba: e8           	inx
    25bb: 8a           	txa
    25bc: e4 74        	cpx	$74                     ; 0x2074 <main+0x1af5>
    25be: d0 0a        	bne	$25ca <main+0x204b>
    25c0: a6 73        	ldx	$73                     ; 0x2073 <main+0x1af4>
    25c2: 86 12        	stx	$12                     ; 0x2012 <main+0x1a93>
    25c4: c4 12        	cpy	$12                     ; 0x2012 <main+0x1a93>
    25c6: 90 e3        	bcc	$25ab <main+0x202c>
    25c8: 80 04        	bra	$25ce <main+0x204f>
    25ca: c5 74        	cmp	$74                     ; 0x2074 <main+0x1af5>
    25cc: 90 dd        	bcc	$25ab <main+0x202c>
    25ce: a0 02        	ldy	#$2
    25d0: 8c 50 d6     	sty	$d650                   ; 0xd650 <__heap_start+0x6db4>
    25d3: a2 ff        	ldx	#$ff
    25d5: 8e 55 d6     	stx	$d655                   ; 0xd655 <__heap_start+0x6db9>
    25d8: 8e 56 d6     	stx	$d656                   ; 0xd656 <__heap_start+0x6dba>
    25db: 8e 57 d6     	stx	$d657                   ; 0xd657 <__heap_start+0x6dbb>
    25de: a2 01        	ldx	#$1
    25e0: 8e 54 d6     	stx	$d654                   ; 0xd654 <__heap_start+0x6db8>
    25e3: 8c 50 d6     	sty	$d650                   ; 0xd650 <__heap_start+0x6db4>
    25e6: a2 89        	ldx	#$89
    25e8: 8e 50 d6     	stx	$d650                   ; 0xd650 <__heap_start+0x6db4>
    25eb: 64 61        	stz	$61                     ; 0x2061 <main+0x1ae2>
    25ed: 9c 14 d0     	stz	$d014                   ; 0xd014 <__heap_start+0x6778>
    25f0: 9c 15 d0     	stz	$d015                   ; 0xd015 <__heap_start+0x6779>
    25f3: a2 19        	ldx	#$19
    25f5: 86 62        	stx	$62                     ; 0x2062 <main+0x1ae3>
    25f7: 8e 16 d0     	stx	$d016                   ; 0xd016 <__heap_start+0x677a>
    25fa: 9c 17 d0     	stz	$d017                   ; 0xd017 <__heap_start+0x677b>
    25fd: a2 77        	ldx	#$77
    25ff: 86 12        	stx	$12                     ; 0x2012 <main+0x1a93>
    2601: a2 67        	ldx	#$67
    2603: 86 13        	stx	$13                     ; 0x2013 <main+0x1a94>
    2605: 20 35 40     	jsr	$4035 <textPrint>
    2608: a2 44        	ldx	#$44
    260a: 86 61        	stx	$61                     ; 0x2061 <main+0x1ae2>
    260c: 8e 14 d0     	stx	$d014                   ; 0xd014 <__heap_start+0x6778>
    260f: 9c 15 d0     	stz	$d015                   ; 0xd015 <__heap_start+0x6779>
    2612: a2 05        	ldx	#$5
    2614: 86 62        	stx	$62                     ; 0x2062 <main+0x1ae3>
    2616: 8e 16 d0     	stx	$d016                   ; 0xd016 <__heap_start+0x677a>
    2619: 9c 17 d0     	stz	$d017                   ; 0xd017 <__heap_start+0x677b>
    261c: a9 00        	lda	#$0
    261e: 92 10        	sta	($10)                   ; 0x2010 <main+0x1a91>
    2620: a0 01        	ldy	#$1
    2622: 91 10        	sta	($10),y                 ; 0x2010 <main+0x1a91>
    2624: c8           	iny
    2625: 91 10        	sta	($10),y                 ; 0x2010 <main+0x1a91>
    2627: c8           	iny
    2628: 91 10        	sta	($10),y                 ; 0x2010 <main+0x1a91>
    262a: a2 6f        	ldx	#$6f
    262c: 86 12        	stx	$12                     ; 0x2012 <main+0x1a93>
    262e: a2 67        	ldx	#$67
    2630: 86 13        	stx	$13                     ; 0x2013 <main+0x1a94>
    2632: 20 4e 55     	jsr	$554e <printf>
    2635: a2 01        	ldx	#$1
    2637: 86 61        	stx	$61                     ; 0x2061 <main+0x1ae2>
    2639: 8e 14 d0     	stx	$d014                   ; 0xd014 <__heap_start+0x6778>
    263c: 9c 15 d0     	stz	$d015                   ; 0xd015 <__heap_start+0x6779>
    263f: a2 18        	ldx	#$18
    2641: 86 62        	stx	$62                     ; 0x2062 <main+0x1ae3>
    2643: 8e 16 d0     	stx	$d016                   ; 0xd016 <__heap_start+0x677a>
    2646: 9c 17 d0     	stz	$d017                   ; 0xd017 <__heap_start+0x677b>
    2649: a2 26        	ldx	#$26
    264b: 86 12        	stx	$12                     ; 0x2012 <main+0x1a93>
    264d: a2 68        	ldx	#$68
    264f: 86 13        	stx	$13                     ; 0x2013 <main+0x1a94>
    2651: 20 35 40     	jsr	$4035 <textPrint>
    2654: a2 10        	ldx	#$10
    2656: 86 60        	stx	$60                     ; 0x2060 <main+0x1ae1>
    2658: a2 40        	ldx	#$40
    265a: 86 12        	stx	$12                     ; 0x2012 <main+0x1a93>
    265c: a2 67        	ldx	#$67
    265e: 86 13        	stx	$13                     ; 0x2013 <main+0x1a94>
    2660: 20 35 40     	jsr	$4035 <textPrint>
    2663: 64 60        	stz	$60                     ; 0x2060 <main+0x1ae1>
    2665: a2 a3        	ldx	#$a3
    2667: 86 12        	stx	$12                     ; 0x2012 <main+0x1a93>
    2669: a2 66        	ldx	#$66
    266b: 86 13        	stx	$13                     ; 0x2013 <main+0x1a94>
    266d: 20 35 40     	jsr	$4035 <textPrint>
    2670: a2 01        	ldx	#$1
    2672: 86 61        	stx	$61                     ; 0x2061 <main+0x1ae2>
    2674: 8e 14 d0     	stx	$d014                   ; 0xd014 <__heap_start+0x6778>
    2677: 9c 15 d0     	stz	$d015                   ; 0xd015 <__heap_start+0x6779>
    267a: a2 19        	ldx	#$19
    267c: 86 62        	stx	$62                     ; 0x2062 <main+0x1ae3>
    267e: 8e 16 d0     	stx	$d016                   ; 0xd016 <__heap_start+0x677a>
    2681: 9c 17 d0     	stz	$d017                   ; 0xd017 <__heap_start+0x677b>
    2684: a2 1b        	ldx	#$1b
    2686: 86 12        	stx	$12                     ; 0x2012 <main+0x1a93>
    2688: a2 67        	ldx	#$67
    268a: 86 13        	stx	$13                     ; 0x2013 <main+0x1a94>
    268c: 20 35 40     	jsr	$4035 <textPrint>
    268f: a2 01        	ldx	#$1
    2691: 86 61        	stx	$61                     ; 0x2061 <main+0x1ae2>
    2693: 8e 14 d0     	stx	$d014                   ; 0xd014 <__heap_start+0x6778>
    2696: 9c 15 d0     	stz	$d015                   ; 0xd015 <__heap_start+0x6779>
    2699: a2 1a        	ldx	#$1a
    269b: 86 62        	stx	$62                     ; 0x2062 <main+0x1ae3>
    269d: 8e 16 d0     	stx	$d016                   ; 0xd016 <__heap_start+0x677a>
    26a0: 9c 17 d0     	stz	$d017                   ; 0xd017 <__heap_start+0x677b>
    26a3: a2 ed        	ldx	#$ed
    26a5: 86 12        	stx	$12                     ; 0x2012 <main+0x1a93>
    26a7: a2 67        	ldx	#$67
    26a9: 86 13        	stx	$13                     ; 0x2013 <main+0x1a94>
    26ab: 20 35 40     	jsr	$4035 <textPrint>
    26ae: a2 f0        	ldx	#$f0
    26b0: 86 60        	stx	$60                     ; 0x2060 <main+0x1ae1>
    26b2: a2 0f        	ldx	#$f
    26b4: 86 61        	stx	$61                     ; 0x2061 <main+0x1ae2>
    26b6: 8e 14 d0     	stx	$d014                   ; 0xd014 <__heap_start+0x6778>
    26b9: 9c 15 d0     	stz	$d015                   ; 0xd015 <__heap_start+0x6779>
    26bc: a2 05        	ldx	#$5
    26be: 86 62        	stx	$62                     ; 0x2062 <main+0x1ae3>
    26c0: 8e 16 d0     	stx	$d016                   ; 0xd016 <__heap_start+0x677a>
    26c3: 9c 17 d0     	stz	$d017                   ; 0xd017 <__heap_start+0x677b>
    26c6: a2 3e        	ldx	#$3e
    26c8: 86 12        	stx	$12                     ; 0x2012 <main+0x1a93>
    26ca: a2 67        	ldx	#$67
    26cc: 86 13        	stx	$13                     ; 0x2013 <main+0x1a94>
    26ce: 20 35 40     	jsr	$4035 <textPrint>
    26d1: a2 b0        	ldx	#$b0
    26d3: 86 12        	stx	$12                     ; 0x2012 <main+0x1a93>
    26d5: a2 67        	ldx	#$67
    26d7: 86 13        	stx	$13                     ; 0x2013 <main+0x1a94>
    26d9: 20 35 40     	jsr	$4035 <textPrint>
    26dc: a2 b0        	ldx	#$b0
    26de: 86 12        	stx	$12                     ; 0x2012 <main+0x1a93>
    26e0: a2 67        	ldx	#$67
    26e2: 86 13        	stx	$13                     ; 0x2013 <main+0x1a94>
    26e4: 20 35 40     	jsr	$4035 <textPrint>
    26e7: a2 b0        	ldx	#$b0
    26e9: 86 12        	stx	$12                     ; 0x2012 <main+0x1a93>
    26eb: a2 67        	ldx	#$67
    26ed: 86 13        	stx	$13                     ; 0x2013 <main+0x1a94>
    26ef: 20 35 40     	jsr	$4035 <textPrint>
    26f2: a2 b0        	ldx	#$b0
    26f4: 86 12        	stx	$12                     ; 0x2012 <main+0x1a93>
    26f6: a2 67        	ldx	#$67
    26f8: 86 13        	stx	$13                     ; 0x2013 <main+0x1a94>
    26fa: 20 35 40     	jsr	$4035 <textPrint>
    26fd: a2 b0        	ldx	#$b0
    26ff: 86 12        	stx	$12                     ; 0x2012 <main+0x1a93>
    2701: a2 67        	ldx	#$67
    2703: 86 13        	stx	$13                     ; 0x2013 <main+0x1a94>
    2705: 20 35 40     	jsr	$4035 <textPrint>
    2708: a2 b0        	ldx	#$b0
    270a: 86 12        	stx	$12                     ; 0x2012 <main+0x1a93>
    270c: a2 67        	ldx	#$67
    270e: 86 13        	stx	$13                     ; 0x2013 <main+0x1a94>
    2710: 20 35 40     	jsr	$4035 <textPrint>
    2713: a2 b0        	ldx	#$b0
    2715: 86 12        	stx	$12                     ; 0x2012 <main+0x1a93>
    2717: a2 67        	ldx	#$67
    2719: 86 13        	stx	$13                     ; 0x2013 <main+0x1a94>
    271b: 20 35 40     	jsr	$4035 <textPrint>
    271e: a2 b0        	ldx	#$b0
    2720: 86 12        	stx	$12                     ; 0x2012 <main+0x1a93>
    2722: a2 67        	ldx	#$67
    2724: 86 13        	stx	$13                     ; 0x2013 <main+0x1a94>
    2726: 20 35 40     	jsr	$4035 <textPrint>
    2729: a2 b0        	ldx	#$b0
    272b: 86 12        	stx	$12                     ; 0x2012 <main+0x1a93>
    272d: a2 67        	ldx	#$67
    272f: 86 13        	stx	$13                     ; 0x2013 <main+0x1a94>
    2731: 20 35 40     	jsr	$4035 <textPrint>
    2734: a2 b0        	ldx	#$b0
    2736: 86 12        	stx	$12                     ; 0x2012 <main+0x1a93>
    2738: a2 67        	ldx	#$67
    273a: 86 13        	stx	$13                     ; 0x2013 <main+0x1a94>
    273c: 20 35 40     	jsr	$4035 <textPrint>
    273f: a2 b0        	ldx	#$b0
    2741: 86 12        	stx	$12                     ; 0x2012 <main+0x1a93>
    2743: a2 67        	ldx	#$67
    2745: 86 13        	stx	$13                     ; 0x2013 <main+0x1a94>
    2747: 20 35 40     	jsr	$4035 <textPrint>
    274a: a2 b0        	ldx	#$b0
    274c: 86 12        	stx	$12                     ; 0x2012 <main+0x1a93>
    274e: a2 67        	ldx	#$67
    2750: 86 13        	stx	$13                     ; 0x2013 <main+0x1a94>
    2752: 20 35 40     	jsr	$4035 <textPrint>
    2755: a2 b0        	ldx	#$b0
    2757: 86 12        	stx	$12                     ; 0x2012 <main+0x1a93>
    2759: a2 67        	ldx	#$67
    275b: 86 13        	stx	$13                     ; 0x2013 <main+0x1a94>
    275d: 20 35 40     	jsr	$4035 <textPrint>
    2760: a2 b0        	ldx	#$b0
    2762: 86 12        	stx	$12                     ; 0x2012 <main+0x1a93>
    2764: a2 67        	ldx	#$67
    2766: 86 13        	stx	$13                     ; 0x2013 <main+0x1a94>
    2768: 20 35 40     	jsr	$4035 <textPrint>
    276b: a2 b0        	ldx	#$b0
    276d: 86 12        	stx	$12                     ; 0x2012 <main+0x1a93>
    276f: a2 67        	ldx	#$67
    2771: 86 13        	stx	$13                     ; 0x2013 <main+0x1a94>
    2773: 20 35 40     	jsr	$4035 <textPrint>
    2776: a2 b0        	ldx	#$b0
    2778: 86 12        	stx	$12                     ; 0x2012 <main+0x1a93>
    277a: a2 67        	ldx	#$67
    277c: 86 13        	stx	$13                     ; 0x2013 <main+0x1a94>
    277e: 20 35 40     	jsr	$4035 <textPrint>
    2781: a2 b0        	ldx	#$b0
    2783: 86 12        	stx	$12                     ; 0x2012 <main+0x1a93>
    2785: a2 67        	ldx	#$67
    2787: 86 13        	stx	$13                     ; 0x2013 <main+0x1a94>
    2789: 20 35 40     	jsr	$4035 <textPrint>
    278c: a2 b0        	ldx	#$b0
    278e: 86 12        	stx	$12                     ; 0x2012 <main+0x1a93>
    2790: a2 67        	ldx	#$67
    2792: 86 13        	stx	$13                     ; 0x2013 <main+0x1a94>
    2794: 20 35 40     	jsr	$4035 <textPrint>
    2797: a2 b0        	ldx	#$b0
    2799: 86 12        	stx	$12                     ; 0x2012 <main+0x1a93>
    279b: a2 67        	ldx	#$67
    279d: 86 13        	stx	$13                     ; 0x2013 <main+0x1a94>
    279f: 20 35 40     	jsr	$4035 <textPrint>
    27a2: a2 b0        	ldx	#$b0
    27a4: 86 12        	stx	$12                     ; 0x2012 <main+0x1a93>
    27a6: a2 67        	ldx	#$67
    27a8: 86 13        	stx	$13                     ; 0x2013 <main+0x1a94>
    27aa: 20 35 40     	jsr	$4035 <textPrint>
    27ad: a2 b0        	ldx	#$b0
    27af: 86 12        	stx	$12                     ; 0x2012 <main+0x1a93>
    27b1: a2 67        	ldx	#$67
    27b3: 86 13        	stx	$13                     ; 0x2013 <main+0x1a94>
    27b5: 20 35 40     	jsr	$4035 <textPrint>
    27b8: a2 b0        	ldx	#$b0
    27ba: 86 12        	stx	$12                     ; 0x2012 <main+0x1a93>
    27bc: a2 67        	ldx	#$67
    27be: 86 13        	stx	$13                     ; 0x2013 <main+0x1a94>
    27c0: 20 35 40     	jsr	$4035 <textPrint>
    27c3: a2 b0        	ldx	#$b0
    27c5: 86 12        	stx	$12                     ; 0x2012 <main+0x1a93>
    27c7: a2 67        	ldx	#$67
    27c9: 86 13        	stx	$13                     ; 0x2013 <main+0x1a94>
    27cb: 20 35 40     	jsr	$4035 <textPrint>
    27ce: a2 b0        	ldx	#$b0
    27d0: 86 12        	stx	$12                     ; 0x2012 <main+0x1a93>
    27d2: a2 67        	ldx	#$67
    27d4: 86 13        	stx	$13                     ; 0x2013 <main+0x1a94>
    27d6: 20 35 40     	jsr	$4035 <textPrint>
    27d9: a2 b0        	ldx	#$b0
    27db: 86 12        	stx	$12                     ; 0x2012 <main+0x1a93>
    27dd: a2 67        	ldx	#$67
    27df: 86 13        	stx	$13                     ; 0x2013 <main+0x1a94>
    27e1: 20 35 40     	jsr	$4035 <textPrint>
    27e4: a2 b0        	ldx	#$b0
    27e6: 86 12        	stx	$12                     ; 0x2012 <main+0x1a93>
    27e8: a2 67        	ldx	#$67
    27ea: 86 13        	stx	$13                     ; 0x2013 <main+0x1a94>
    27ec: 20 35 40     	jsr	$4035 <textPrint>
    27ef: a2 b0        	ldx	#$b0
    27f1: 86 12        	stx	$12                     ; 0x2012 <main+0x1a93>
    27f3: a2 67        	ldx	#$67
    27f5: 86 13        	stx	$13                     ; 0x2013 <main+0x1a94>
    27f7: 20 35 40     	jsr	$4035 <textPrint>
    27fa: a2 b0        	ldx	#$b0
    27fc: 86 12        	stx	$12                     ; 0x2012 <main+0x1a93>
    27fe: a2 67        	ldx	#$67
    2800: 86 13        	stx	$13                     ; 0x2013 <main+0x1a94>
    2802: 20 35 40     	jsr	$4035 <textPrint>
    2805: a2 b0        	ldx	#$b0
    2807: 86 12        	stx	$12                     ; 0x2012 <main+0x1a93>
    2809: a2 67        	ldx	#$67
    280b: 86 13        	stx	$13                     ; 0x2013 <main+0x1a94>
    280d: 20 35 40     	jsr	$4035 <textPrint>
    2810: a2 b0        	ldx	#$b0
    2812: 86 12        	stx	$12                     ; 0x2012 <main+0x1a93>
    2814: a2 67        	ldx	#$67
    2816: 86 13        	stx	$13                     ; 0x2013 <main+0x1a94>
    2818: 20 35 40     	jsr	$4035 <textPrint>
    281b: a2 b0        	ldx	#$b0
    281d: 86 12        	stx	$12                     ; 0x2012 <main+0x1a93>
    281f: a2 67        	ldx	#$67
    2821: 86 13        	stx	$13                     ; 0x2013 <main+0x1a94>
    2823: 20 35 40     	jsr	$4035 <textPrint>
    2826: a2 b0        	ldx	#$b0
    2828: 86 12        	stx	$12                     ; 0x2012 <main+0x1a93>
    282a: a2 67        	ldx	#$67
    282c: 86 13        	stx	$13                     ; 0x2013 <main+0x1a94>
    282e: 20 35 40     	jsr	$4035 <textPrint>
    2831: a2 b0        	ldx	#$b0
    2833: 86 12        	stx	$12                     ; 0x2012 <main+0x1a93>
    2835: a2 67        	ldx	#$67
    2837: 86 13        	stx	$13                     ; 0x2013 <main+0x1a94>
    2839: 20 35 40     	jsr	$4035 <textPrint>
    283c: a2 b0        	ldx	#$b0
    283e: 86 12        	stx	$12                     ; 0x2012 <main+0x1a93>
    2840: a2 67        	ldx	#$67
    2842: 86 13        	stx	$13                     ; 0x2013 <main+0x1a94>
    2844: 20 35 40     	jsr	$4035 <textPrint>
    2847: a2 b0        	ldx	#$b0
    2849: 86 12        	stx	$12                     ; 0x2012 <main+0x1a93>
    284b: a2 67        	ldx	#$67
    284d: 86 13        	stx	$13                     ; 0x2013 <main+0x1a94>
    284f: 20 35 40     	jsr	$4035 <textPrint>
    2852: a2 b0        	ldx	#$b0
    2854: 86 12        	stx	$12                     ; 0x2012 <main+0x1a93>
    2856: a2 67        	ldx	#$67
    2858: 86 13        	stx	$13                     ; 0x2013 <main+0x1a94>
    285a: 20 35 40     	jsr	$4035 <textPrint>
    285d: a2 b0        	ldx	#$b0
    285f: 86 12        	stx	$12                     ; 0x2012 <main+0x1a93>
    2861: a2 67        	ldx	#$67
    2863: 86 13        	stx	$13                     ; 0x2013 <main+0x1a94>
    2865: 20 35 40     	jsr	$4035 <textPrint>
    2868: a2 b0        	ldx	#$b0
    286a: 86 12        	stx	$12                     ; 0x2012 <main+0x1a93>
    286c: a2 67        	ldx	#$67
    286e: 86 13        	stx	$13                     ; 0x2013 <main+0x1a94>
    2870: 20 35 40     	jsr	$4035 <textPrint>
    2873: a2 b0        	ldx	#$b0
    2875: 86 12        	stx	$12                     ; 0x2012 <main+0x1a93>
    2877: a2 67        	ldx	#$67
    2879: 86 13        	stx	$13                     ; 0x2013 <main+0x1a94>
    287b: 20 35 40     	jsr	$4035 <textPrint>
    287e: a2 b0        	ldx	#$b0
    2880: 86 12        	stx	$12                     ; 0x2012 <main+0x1a93>
    2882: a2 67        	ldx	#$67
    2884: 86 13        	stx	$13                     ; 0x2013 <main+0x1a94>
    2886: 20 35 40     	jsr	$4035 <textPrint>
    2889: a2 b0        	ldx	#$b0
    288b: 86 12        	stx	$12                     ; 0x2012 <main+0x1a93>
    288d: a2 67        	ldx	#$67
    288f: 86 13        	stx	$13                     ; 0x2013 <main+0x1a94>
    2891: 20 35 40     	jsr	$4035 <textPrint>
    2894: a2 b0        	ldx	#$b0
    2896: 86 12        	stx	$12                     ; 0x2012 <main+0x1a93>
    2898: a2 67        	ldx	#$67
    289a: 86 13        	stx	$13                     ; 0x2013 <main+0x1a94>
    289c: 20 35 40     	jsr	$4035 <textPrint>
    289f: a2 b0        	ldx	#$b0
    28a1: 86 12        	stx	$12                     ; 0x2012 <main+0x1a93>
    28a3: a2 67        	ldx	#$67
    28a5: 86 13        	stx	$13                     ; 0x2013 <main+0x1a94>
    28a7: 20 35 40     	jsr	$4035 <textPrint>
    28aa: a2 b0        	ldx	#$b0
    28ac: 86 12        	stx	$12                     ; 0x2012 <main+0x1a93>
    28ae: a2 67        	ldx	#$67
    28b0: 86 13        	stx	$13                     ; 0x2013 <main+0x1a94>
    28b2: 20 35 40     	jsr	$4035 <textPrint>
    28b5: a2 b0        	ldx	#$b0
    28b7: 86 12        	stx	$12                     ; 0x2012 <main+0x1a93>
    28b9: a2 67        	ldx	#$67
    28bb: 86 13        	stx	$13                     ; 0x2013 <main+0x1a94>
    28bd: 20 35 40     	jsr	$4035 <textPrint>
    28c0: a2 b0        	ldx	#$b0
    28c2: 86 12        	stx	$12                     ; 0x2012 <main+0x1a93>
    28c4: a2 67        	ldx	#$67
    28c6: 86 13        	stx	$13                     ; 0x2013 <main+0x1a94>
    28c8: 20 35 40     	jsr	$4035 <textPrint>
    28cb: a2 b0        	ldx	#$b0
    28cd: 86 12        	stx	$12                     ; 0x2012 <main+0x1a93>
    28cf: a2 67        	ldx	#$67
    28d1: 86 13        	stx	$13                     ; 0x2013 <main+0x1a94>
    28d3: 20 35 40     	jsr	$4035 <textPrint>
    28d6: a2 b0        	ldx	#$b0
    28d8: 86 12        	stx	$12                     ; 0x2012 <main+0x1a93>
    28da: a2 67        	ldx	#$67
    28dc: 86 13        	stx	$13                     ; 0x2013 <main+0x1a94>
    28de: 20 35 40     	jsr	$4035 <textPrint>
    28e1: a2 b0        	ldx	#$b0
    28e3: 86 12        	stx	$12                     ; 0x2012 <main+0x1a93>
    28e5: a2 67        	ldx	#$67
    28e7: 86 13        	stx	$13                     ; 0x2013 <main+0x1a94>
    28e9: 20 35 40     	jsr	$4035 <textPrint>
    28ec: a2 b0        	ldx	#$b0
    28ee: 86 12        	stx	$12                     ; 0x2012 <main+0x1a93>
    28f0: a2 67        	ldx	#$67
    28f2: 86 13        	stx	$13                     ; 0x2013 <main+0x1a94>
    28f4: 20 35 40     	jsr	$4035 <textPrint>
    28f7: a2 b0        	ldx	#$b0
    28f9: 86 12        	stx	$12                     ; 0x2012 <main+0x1a93>
    28fb: a2 67        	ldx	#$67
    28fd: 86 13        	stx	$13                     ; 0x2013 <main+0x1a94>
    28ff: 20 35 40     	jsr	$4035 <textPrint>
    2902: a2 b8        	ldx	#$b8
    2904: 86 12        	stx	$12                     ; 0x2012 <main+0x1a93>
    2906: a2 67        	ldx	#$67
    2908: 86 13        	stx	$13                     ; 0x2013 <main+0x1a94>
    290a: 20 35 40     	jsr	$4035 <textPrint>
    290d: a2 85        	ldx	#$85
    290f: 86 2c        	stx	$2c                     ; 0x202c <main+0x1aad>
    2911: a2 00        	ldx	#$0
    2913: 86 2d        	stx	$2d                     ; 0x202d <main+0x1aae>
    2915: 80 58        	bra	$296f <main+0x23f0>
    2917: a6 7c        	ldx	$7c                     ; 0x207c <main+0x1afd>
    2919: 86 12        	stx	$12                     ; 0x2012 <main+0x1a93>
    291b: a5 7d        	lda	$7d                     ; 0x207d <main+0x1afe>
    291d: a4 7e        	ldy	$7e                     ; 0x207e <main+0x1aff>
    291f: a6 7f        	ldx	$7f                     ; 0x207f <main+0x1b00>
    2921: f0 51        	beq	$2974 <main+0x23f5>
    2923: 86 17        	stx	$17                     ; 0x2017 <main+0x1a98>
    2925: 84 16        	sty	$16                     ; 0x2016 <main+0x1a97>
    2927: a6 12        	ldx	$12                     ; 0x2012 <main+0x1a93>
    2929: 86 14        	stx	$14                     ; 0x2014 <main+0x1a95>
    292b: 85 15        	sta	$15                     ; 0x2015 <main+0x1a96>
    292d: a5 77        	lda	$77                     ; 0x2077 <main+0x1af8>
    292f: a6 78        	ldx	$78                     ; 0x2078 <main+0x1af9>
    2931: a4 79        	ldy	$79                     ; 0x2079 <main+0x1afa>
    2933: 84 12        	sty	$12                     ; 0x2012 <main+0x1a93>
    2935: a4 7a        	ldy	$7a                     ; 0x207a <main+0x1afb>
    2937: 84 13        	sty	$13                     ; 0x2013 <main+0x1a94>
    2939: 20 c7 63     	jsr	$63c7 <__mulsi3>
    293c: a4 12        	ldy	$12                     ; 0x2012 <main+0x1a93>
    293e: 85 12        	sta	$12                     ; 0x2012 <main+0x1a93>
    2940: 85 7c        	sta	$7c                     ; 0x207c <main+0x1afd>
    2942: 86 15        	stx	$15                     ; 0x2015 <main+0x1a96>
    2944: 86 7d        	stx	$7d                     ; 0x207d <main+0x1afe>
    2946: 84 14        	sty	$14                     ; 0x2014 <main+0x1a95>
    2948: 84 7e        	sty	$7e                     ; 0x207e <main+0x1aff>
    294a: a6 13        	ldx	$13                     ; 0x2013 <main+0x1a94>
    294c: 86 7f        	stx	$7f                     ; 0x207f <main+0x1b00>
    294e: a0 02        	ldy	#$2
    2950: 8c 50 d6     	sty	$d650                   ; 0xd650 <__heap_start+0x6db4>
    2953: a5 12        	lda	$12                     ; 0x2012 <main+0x1a93>
    2955: 8d 55 d6     	sta	$d655                   ; 0xd655 <__heap_start+0x6db9>
    2958: a6 15        	ldx	$15                     ; 0x2015 <main+0x1a96>
    295a: 8e 56 d6     	stx	$d656                   ; 0xd656 <__heap_start+0x6dba>
    295d: a6 14        	ldx	$14                     ; 0x2014 <main+0x1a95>
    295f: 8e 57 d6     	stx	$d657                   ; 0xd657 <__heap_start+0x6dbb>
    2962: a2 01        	ldx	#$1
    2964: 8e 54 d6     	stx	$d654                   ; 0xd654 <__heap_start+0x6db8>
    2967: 8c 50 d6     	sty	$d650                   ; 0xd650 <__heap_start+0x6db4>
    296a: a2 89        	ldx	#$89
    296c: 8e 50 d6     	stx	$d650                   ; 0xd650 <__heap_start+0x6db4>
    296f: a0 50        	ldy	#$50
    2971: 4c 4e 2a     	jmp	$2a4e <main+0x24cf>
    2974: c0 00        	cpy	#$0
    2976: d0 ab        	bne	$2923 <main+0x23a4>
    2978: c9 00        	cmp	#$0
    297a: d0 a7        	bne	$2923 <main+0x23a4>
    297c: e6 12        	inc	$12                     ; 0x2012 <main+0x1a93>
    297e: c6 12        	dec	$12                     ; 0x2012 <main+0x1a93>
    2980: d0 a1        	bne	$2923 <main+0x23a4>
    2982: 64 12        	stz	$12                     ; 0x2012 <main+0x1a93>
    2984: 64 15        	stz	$15                     ; 0x2015 <main+0x1a96>
    2986: 64 14        	stz	$14                     ; 0x2014 <main+0x1a95>
    2988: 80 c4        	bra	$294e <main+0x23cf>
    298a: a9 b0        	lda	#$b0
    298c: 92 12        	sta	($12)                   ; 0x2012 <main+0x1a93>
    298e: a9 7b        	lda	#$7b
    2990: 92 12        	sta	($12)                   ; 0x2012 <main+0x1a93>
    2992: a9 00        	lda	#$0
    2994: 92 12        	sta	($12)                   ; 0x2012 <main+0x1a93>
    2996: a9 b1        	lda	#$b1
    2998: 92 12        	sta	($12)                   ; 0x2012 <main+0x1a93>
    299a: a9 7b        	lda	#$7b
    299c: 92 12        	sta	($12)                   ; 0x2012 <main+0x1a93>
    299e: a9 00        	lda	#$0
    29a0: 92 12        	sta	($12)                   ; 0x2012 <main+0x1a93>
    29a2: a9 b2        	lda	#$b2
    29a4: 92 12        	sta	($12)                   ; 0x2012 <main+0x1a93>
    29a6: a9 7b        	lda	#$7b
    29a8: 92 12        	sta	($12)                   ; 0x2012 <main+0x1a93>
    29aa: a9 00        	lda	#$0
    29ac: 92 12        	sta	($12)                   ; 0x2012 <main+0x1a93>
    29ae: a9 b3        	lda	#$b3
    29b0: 92 12        	sta	($12)                   ; 0x2012 <main+0x1a93>
    29b2: a9 7b        	lda	#$7b
    29b4: 92 12        	sta	($12)                   ; 0x2012 <main+0x1a93>
    29b6: a9 00        	lda	#$0
    29b8: 92 12        	sta	($12)                   ; 0x2012 <main+0x1a93>
    29ba: a9 b4        	lda	#$b4
    29bc: 92 12        	sta	($12)                   ; 0x2012 <main+0x1a93>
    29be: a9 7b        	lda	#$7b
    29c0: 92 12        	sta	($12)                   ; 0x2012 <main+0x1a93>
    29c2: a9 00        	lda	#$0
    29c4: 92 12        	sta	($12)                   ; 0x2012 <main+0x1a93>
    29c6: a9 b5        	lda	#$b5
    29c8: 92 12        	sta	($12)                   ; 0x2012 <main+0x1a93>
    29ca: a9 7b        	lda	#$7b
    29cc: 92 12        	sta	($12)                   ; 0x2012 <main+0x1a93>
    29ce: a9 00        	lda	#$0
    29d0: 92 12        	sta	($12)                   ; 0x2012 <main+0x1a93>
    29d2: a9 b6        	lda	#$b6
    29d4: 92 12        	sta	($12)                   ; 0x2012 <main+0x1a93>
    29d6: a9 7b        	lda	#$7b
    29d8: 92 12        	sta	($12)                   ; 0x2012 <main+0x1a93>
    29da: a9 00        	lda	#$0
    29dc: 92 12        	sta	($12)                   ; 0x2012 <main+0x1a93>
    29de: a9 b7        	lda	#$b7
    29e0: 92 12        	sta	($12)                   ; 0x2012 <main+0x1a93>
    29e2: a9 7b        	lda	#$7b
    29e4: 92 12        	sta	($12)                   ; 0x2012 <main+0x1a93>
    29e6: a9 00        	lda	#$0
    29e8: 92 12        	sta	($12)                   ; 0x2012 <main+0x1a93>
    29ea: a9 b8        	lda	#$b8
    29ec: 92 12        	sta	($12)                   ; 0x2012 <main+0x1a93>
    29ee: a9 7b        	lda	#$7b
    29f0: 92 12        	sta	($12)                   ; 0x2012 <main+0x1a93>
    29f2: a9 00        	lda	#$0
    29f4: 92 12        	sta	($12)                   ; 0x2012 <main+0x1a93>
    29f6: a9 b9        	lda	#$b9
    29f8: 92 12        	sta	($12)                   ; 0x2012 <main+0x1a93>
    29fa: a9 7b        	lda	#$7b
    29fc: 92 12        	sta	($12)                   ; 0x2012 <main+0x1a93>
    29fe: a9 00        	lda	#$0
    2a00: 92 12        	sta	($12)                   ; 0x2012 <main+0x1a93>
    2a02: a9 ba        	lda	#$ba
    2a04: 92 12        	sta	($12)                   ; 0x2012 <main+0x1a93>
    2a06: a9 7b        	lda	#$7b
    2a08: 92 12        	sta	($12)                   ; 0x2012 <main+0x1a93>
    2a0a: a9 00        	lda	#$0
    2a0c: 92 12        	sta	($12)                   ; 0x2012 <main+0x1a93>
    2a0e: a9 bb        	lda	#$bb
    2a10: 92 12        	sta	($12)                   ; 0x2012 <main+0x1a93>
    2a12: a9 7b        	lda	#$7b
    2a14: 92 12        	sta	($12)                   ; 0x2012 <main+0x1a93>
    2a16: a9 00        	lda	#$0
    2a18: 92 12        	sta	($12)                   ; 0x2012 <main+0x1a93>
    2a1a: a9 bc        	lda	#$bc
    2a1c: 92 12        	sta	($12)                   ; 0x2012 <main+0x1a93>
    2a1e: a9 7b        	lda	#$7b
    2a20: 92 12        	sta	($12)                   ; 0x2012 <main+0x1a93>
    2a22: a9 00        	lda	#$0
    2a24: 92 12        	sta	($12)                   ; 0x2012 <main+0x1a93>
    2a26: a9 bd        	lda	#$bd
    2a28: 92 12        	sta	($12)                   ; 0x2012 <main+0x1a93>
    2a2a: a9 7b        	lda	#$7b
    2a2c: 92 12        	sta	($12)                   ; 0x2012 <main+0x1a93>
    2a2e: a9 00        	lda	#$0
    2a30: 92 12        	sta	($12)                   ; 0x2012 <main+0x1a93>
    2a32: a9 be        	lda	#$be
    2a34: 92 12        	sta	($12)                   ; 0x2012 <main+0x1a93>
    2a36: a9 7b        	lda	#$7b
    2a38: 92 12        	sta	($12)                   ; 0x2012 <main+0x1a93>
    2a3a: a9 00        	lda	#$0
    2a3c: 92 12        	sta	($12)                   ; 0x2012 <main+0x1a93>
    2a3e: a9 bf        	lda	#$bf
    2a40: 92 12        	sta	($12)                   ; 0x2012 <main+0x1a93>
    2a42: a9 7b        	lda	#$7b
    2a44: 92 12        	sta	($12)                   ; 0x2012 <main+0x1a93>
    2a46: a9 00        	lda	#$0
    2a48: 92 12        	sta	($12)                   ; 0x2012 <main+0x1a93>
    2a4a: a6 71        	ldx	$71                     ; 0x2071 <main+0x1af2>
    2a4c: f0 42        	beq	$2a90 <main+0x2511>
    2a4e: 64 86        	stz	$86                     ; 0x2086 <main+0x1b07>
    2a50: a6 2a        	ldx	$2a                     ; 0x202a <main+0x1aab>
    2a52: 86 12        	stx	$12                     ; 0x2012 <main+0x1a93>
    2a54: a6 29        	ldx	$29                     ; 0x2029 <main+0x1aaa>
    2a56: 86 13        	stx	$13                     ; 0x2013 <main+0x1a94>
    2a58: 20 00 ff     	jsr	$ff00 <__heap_start+0x9664>
    2a5b: 92 12        	sta	($12)                   ; 0x2012 <main+0x1a93>
    2a5d: a9 00        	lda	#$0
    2a5f: 6a           	ror
    2a60: 85 2c        	sta	$2c                     ; 0x202c <main+0x1aad>
    2a62: a6 86        	ldx	$86                     ; 0x2086 <main+0x1b07>
    2a64: e0 08        	cpx	#$8
    2a66: d0 e2        	bne	$2a4a <main+0x24cb>
    2a68: a6 8a        	ldx	$8a                     ; 0x208a <main+0x1b0b>
    2a6a: e0 20        	cpx	#$20
    2a6c: f0 57        	beq	$2ac5 <main+0x2546>
    2a6e: e0 92        	cpx	#$92
    2a70: f0 03        	beq	$2a75 <main+0x24f6>
    2a72: 4c 27 2f     	jmp	$2f27 <main+0x29a8>
    2a75: a6 84        	ldx	$84                     ; 0x2084 <main+0x1b05>
    2a77: a9 a1        	lda	#$a1
    2a79: 85 12        	sta	$12                     ; 0x2012 <main+0x1a93>
    2a7b: a9 dd        	lda	#$dd
    2a7d: 85 13        	sta	$13                     ; 0x2013 <main+0x1a94>
    2a7f: 8a           	txa
    2a80: d0 03        	bne	$2a85 <main+0x2506>
    2a82: 4c 8a 29     	jmp	$298a <main+0x240b>
    2a85: a2 b1        	ldx	#$b1
    2a87: 86 12        	stx	$12                     ; 0x2012 <main+0x1a93>
    2a89: a2 dd        	ldx	#$dd
    2a8b: 86 13        	stx	$13                     ; 0x2013 <main+0x1a94>
    2a8d: 4c 8a 29     	jmp	$298a <main+0x240b>
    2a90: ad 60 d6     	lda	$d660                   ; 0xd660 <__heap_start+0x6dc4>
    2a93: 29 10        	and	#$10
    2a95: d0 03        	bne	$2a9a <main+0x251b>
    2a97: 4c 7d 3b     	jmp	$3b7d <main+0x35fe>
    2a9a: a2 10        	ldx	#$10
    2a9c: 8e 60 d6     	stx	$d660                   ; 0xd660 <__heap_start+0x6dc4>
    2a9f: a5 7c        	lda	$7c                     ; 0x207c <main+0x1afd>
    2aa1: a6 7d        	ldx	$7d                     ; 0x207d <main+0x1afe>
    2aa3: 86 15        	stx	$15                     ; 0x2015 <main+0x1a96>
    2aa5: a6 7e        	ldx	$7e                     ; 0x207e <main+0x1aff>
    2aa7: a4 7f        	ldy	$7f                     ; 0x207f <main+0x1b00>
    2aa9: c0 01        	cpy	#$1
    2aab: f0 03        	beq	$2ab0 <main+0x2531>
    2aad: 4c 03 37     	jmp	$3703 <main+0x3184>
    2ab0: 84 14        	sty	$14                     ; 0x2014 <main+0x1a95>
    2ab2: e0 00        	cpx	#$0
    2ab4: f0 03        	beq	$2ab9 <main+0x253a>
    2ab6: 4c 30 3b     	jmp	$3b30 <main+0x35b1>
    2ab9: 86 12        	stx	$12                     ; 0x2012 <main+0x1a93>
    2abb: a6 15        	ldx	$15                     ; 0x2015 <main+0x1a96>
    2abd: f0 03        	beq	$2ac2 <main+0x2543>
    2abf: 4c 65 3c     	jmp	$3c65 <main+0x36e6>
    2ac2: 4c 5b 3c     	jmp	$3c5b <main+0x36dc>
    2ac5: a5 71        	lda	$71                     ; 0x2071 <main+0x1af2>
    2ac7: 64 12        	stz	$12                     ; 0x2012 <main+0x1a93>
    2ac9: a0 00        	ldy	#$0
    2acb: a2 00        	ldx	#$0
    2acd: c9 00        	cmp	#$0
    2acf: f0 03        	beq	$2ad4 <main+0x2555>
    2ad1: 4c ad 2b     	jmp	$2bad <main+0x262e>
    2ad4: a6 84        	ldx	$84                     ; 0x2084 <main+0x1b05>
    2ad6: a0 a1        	ldy	#$a1
    2ad8: 84 14        	sty	$14                     ; 0x2014 <main+0x1a95>
    2ada: a0 dd        	ldy	#$dd
    2adc: 84 15        	sty	$15                     ; 0x2015 <main+0x1a96>
    2ade: 8a           	txa
    2adf: f0 08        	beq	$2ae9 <main+0x256a>
    2ae1: a2 b1        	ldx	#$b1
    2ae3: 86 14        	stx	$14                     ; 0x2014 <main+0x1a95>
    2ae5: a2 dd        	ldx	#$dd
    2ae7: 86 15        	stx	$15                     ; 0x2015 <main+0x1a96>
    2ae9: a9 b0        	lda	#$b0
    2aeb: 92 14        	sta	($14)                   ; 0x2014 <main+0x1a95>
    2aed: a9 7b        	lda	#$7b
    2aef: 92 14        	sta	($14)                   ; 0x2014 <main+0x1a95>
    2af1: a9 00        	lda	#$0
    2af3: 92 14        	sta	($14)                   ; 0x2014 <main+0x1a95>
    2af5: a9 b1        	lda	#$b1
    2af7: 92 14        	sta	($14)                   ; 0x2014 <main+0x1a95>
    2af9: a9 7b        	lda	#$7b
    2afb: 92 14        	sta	($14)                   ; 0x2014 <main+0x1a95>
    2afd: a9 00        	lda	#$0
    2aff: 92 14        	sta	($14)                   ; 0x2014 <main+0x1a95>
    2b01: a9 b2        	lda	#$b2
    2b03: 92 14        	sta	($14)                   ; 0x2014 <main+0x1a95>
    2b05: a9 7b        	lda	#$7b
    2b07: 92 14        	sta	($14)                   ; 0x2014 <main+0x1a95>
    2b09: a9 00        	lda	#$0
    2b0b: 92 14        	sta	($14)                   ; 0x2014 <main+0x1a95>
    2b0d: a9 b3        	lda	#$b3
    2b0f: 92 14        	sta	($14)                   ; 0x2014 <main+0x1a95>
    2b11: a9 7b        	lda	#$7b
    2b13: 92 14        	sta	($14)                   ; 0x2014 <main+0x1a95>
    2b15: a9 00        	lda	#$0
    2b17: 92 14        	sta	($14)                   ; 0x2014 <main+0x1a95>
    2b19: a9 b4        	lda	#$b4
    2b1b: 92 14        	sta	($14)                   ; 0x2014 <main+0x1a95>
    2b1d: a9 7b        	lda	#$7b
    2b1f: 92 14        	sta	($14)                   ; 0x2014 <main+0x1a95>
    2b21: a9 00        	lda	#$0
    2b23: 92 14        	sta	($14)                   ; 0x2014 <main+0x1a95>
    2b25: a9 b5        	lda	#$b5
    2b27: 92 14        	sta	($14)                   ; 0x2014 <main+0x1a95>
    2b29: a9 7b        	lda	#$7b
    2b2b: 92 14        	sta	($14)                   ; 0x2014 <main+0x1a95>
    2b2d: a9 00        	lda	#$0
    2b2f: 92 14        	sta	($14)                   ; 0x2014 <main+0x1a95>
    2b31: a9 b6        	lda	#$b6
    2b33: 92 14        	sta	($14)                   ; 0x2014 <main+0x1a95>
    2b35: a9 7b        	lda	#$7b
    2b37: 92 14        	sta	($14)                   ; 0x2014 <main+0x1a95>
    2b39: a9 00        	lda	#$0
    2b3b: 92 14        	sta	($14)                   ; 0x2014 <main+0x1a95>
    2b3d: a9 b7        	lda	#$b7
    2b3f: 92 14        	sta	($14)                   ; 0x2014 <main+0x1a95>
    2b41: a9 7b        	lda	#$7b
    2b43: 92 14        	sta	($14)                   ; 0x2014 <main+0x1a95>
    2b45: a9 00        	lda	#$0
    2b47: 92 14        	sta	($14)                   ; 0x2014 <main+0x1a95>
    2b49: a9 b8        	lda	#$b8
    2b4b: 92 14        	sta	($14)                   ; 0x2014 <main+0x1a95>
    2b4d: a9 7b        	lda	#$7b
    2b4f: 92 14        	sta	($14)                   ; 0x2014 <main+0x1a95>
    2b51: a9 00        	lda	#$0
    2b53: 92 14        	sta	($14)                   ; 0x2014 <main+0x1a95>
    2b55: a9 b9        	lda	#$b9
    2b57: 92 14        	sta	($14)                   ; 0x2014 <main+0x1a95>
    2b59: a9 7b        	lda	#$7b
    2b5b: 92 14        	sta	($14)                   ; 0x2014 <main+0x1a95>
    2b5d: a9 00        	lda	#$0
    2b5f: 92 14        	sta	($14)                   ; 0x2014 <main+0x1a95>
    2b61: a9 ba        	lda	#$ba
    2b63: 92 14        	sta	($14)                   ; 0x2014 <main+0x1a95>
    2b65: a9 7b        	lda	#$7b
    2b67: 92 14        	sta	($14)                   ; 0x2014 <main+0x1a95>
    2b69: a9 00        	lda	#$0
    2b6b: 92 14        	sta	($14)                   ; 0x2014 <main+0x1a95>
    2b6d: a9 bb        	lda	#$bb
    2b6f: 92 14        	sta	($14)                   ; 0x2014 <main+0x1a95>
    2b71: a9 7b        	lda	#$7b
    2b73: 92 14        	sta	($14)                   ; 0x2014 <main+0x1a95>
    2b75: a9 00        	lda	#$0
    2b77: 92 14        	sta	($14)                   ; 0x2014 <main+0x1a95>
    2b79: a9 bc        	lda	#$bc
    2b7b: 92 14        	sta	($14)                   ; 0x2014 <main+0x1a95>
    2b7d: a9 7b        	lda	#$7b
    2b7f: 92 14        	sta	($14)                   ; 0x2014 <main+0x1a95>
    2b81: a9 00        	lda	#$0
    2b83: 92 14        	sta	($14)                   ; 0x2014 <main+0x1a95>
    2b85: a9 bd        	lda	#$bd
    2b87: 92 14        	sta	($14)                   ; 0x2014 <main+0x1a95>
    2b89: a9 7b        	lda	#$7b
    2b8b: 92 14        	sta	($14)                   ; 0x2014 <main+0x1a95>
    2b8d: a9 00        	lda	#$0
    2b8f: 92 14        	sta	($14)                   ; 0x2014 <main+0x1a95>
    2b91: a9 be        	lda	#$be
    2b93: 92 14        	sta	($14)                   ; 0x2014 <main+0x1a95>
    2b95: a9 7b        	lda	#$7b
    2b97: 92 14        	sta	($14)                   ; 0x2014 <main+0x1a95>
    2b99: a9 00        	lda	#$0
    2b9b: 92 14        	sta	($14)                   ; 0x2014 <main+0x1a95>
    2b9d: a9 bf        	lda	#$bf
    2b9f: 92 14        	sta	($14)                   ; 0x2014 <main+0x1a95>
    2ba1: a9 7b        	lda	#$7b
    2ba3: 92 14        	sta	($14)                   ; 0x2014 <main+0x1a95>
    2ba5: a9 00        	lda	#$0
    2ba7: 92 14        	sta	($14)                   ; 0x2014 <main+0x1a95>
    2ba9: a2 10        	ldx	#$10
    2bab: a0 01        	ldy	#$1
    2bad: 84 71        	sty	$71                     ; 0x2071 <main+0x1af2>
    2baf: 86 60        	stx	$60                     ; 0x2060 <main+0x1ae1>
    2bb1: a2 1a        	ldx	#$1a
    2bb3: 86 61        	stx	$61                     ; 0x2061 <main+0x1ae2>
    2bb5: 8e 14 d0     	stx	$d014                   ; 0xd014 <__heap_start+0x6778>
    2bb8: 9c 15 d0     	stz	$d015                   ; 0xd015 <__heap_start+0x6779>
    2bbb: a2 18        	ldx	#$18
    2bbd: 86 62        	stx	$62                     ; 0x2062 <main+0x1ae3>
    2bbf: 8e 16 d0     	stx	$d016                   ; 0xd016 <__heap_start+0x677a>
    2bc2: 9c 17 d0     	stz	$d017                   ; 0xd017 <__heap_start+0x677b>
    2bc5: a6 01        	ldx	$1                      ; 0x2001 <main+0x1a82>
    2bc7: 86 18        	stx	$18                     ; 0x2018 <main+0x1a99>
    2bc9: a6 62        	ldx	$62                     ; 0x2062 <main+0x1ae3>
    2bcb: a0 50        	ldy	#$50
    2bcd: 8c 00 de     	sty	$de00                   ; 0xde00 <__heap_start+0x7564>
    2bd0: 9c 01 de     	stz	$de01                   ; 0xde01 <__heap_start+0x7565>
    2bd3: 8e 02 de     	stx	$de02                   ; 0xde02 <__heap_start+0x7566>
    2bd6: 9c 03 de     	stz	$de03                   ; 0xde03 <__heap_start+0x7567>
    2bd9: ac 10 de     	ldy	$de10                   ; 0xde10 <__heap_start+0x7574>
    2bdc: ad 11 de     	lda	$de11                   ; 0xde11 <__heap_start+0x7575>
    2bdf: ae 12 de     	ldx	$de12                   ; 0xde12 <__heap_start+0x7576>
    2be2: 86 13        	stx	$13                     ; 0x2013 <main+0x1a94>
    2be4: ae 13 de     	ldx	$de13                   ; 0xde13 <__heap_start+0x7577>
    2be7: 86 14        	stx	$14                     ; 0x2014 <main+0x1a95>
    2be9: 9c 08 de     	stz	$de08                   ; 0xde08 <__heap_start+0x756c>
    2bec: a2 c0        	ldx	#$c0
    2bee: 8e 09 de     	stx	$de09                   ; 0xde09 <__heap_start+0x756d>
    2bf1: 9c 0a de     	stz	$de0a                   ; 0xde0a <__heap_start+0x756e>
    2bf4: 9c 0b de     	stz	$de0b                   ; 0xde0b <__heap_start+0x756f>
    2bf7: 8c 0c de     	sty	$de0c                   ; 0xde0c <__heap_start+0x7570>
    2bfa: 8d 0d de     	sta	$de0d                   ; 0xde0d <__heap_start+0x7571>
    2bfd: a6 13        	ldx	$13                     ; 0x2013 <main+0x1a94>
    2bff: 8e 0e de     	stx	$de0e                   ; 0xde0e <__heap_start+0x7572>
    2c02: a6 14        	ldx	$14                     ; 0x2014 <main+0x1a95>
    2c04: 8e 0f de     	stx	$de0f                   ; 0xde0f <__heap_start+0x7573>
    2c07: ae 18 de     	ldx	$de18                   ; 0xde18 <__heap_start+0x757c>
    2c0a: ac 19 de     	ldy	$de19                   ; 0xde19 <__heap_start+0x757d>
    2c0d: 86 14        	stx	$14                     ; 0x2014 <main+0x1a95>
    2c0f: ae 1a de     	ldx	$de1a                   ; 0xde1a <__heap_start+0x757e>
    2c12: 84 15        	sty	$15                     ; 0x2015 <main+0x1a96>
    2c14: ae 1b de     	ldx	$de1b                   ; 0xde1b <__heap_start+0x757f>
    2c17: 64 13        	stz	$13                     ; 0x2013 <main+0x1a94>
    2c19: 4c ae 2e     	jmp	$2eae <main+0x292f>
    2c1c: 8a           	txa
    2c1d: f0 1b        	beq	$2c3a <main+0x26bb>
    2c1f: b1 14        	lda	($14),y                 ; 0x2014 <main+0x1a95>
    2c21: 92 14        	sta	($14)                   ; 0x2014 <main+0x1a95>
    2c23: a9 ff        	lda	#$ff
    2c25: c6 16        	dec	$16                     ; 0x2016 <main+0x1a97>
    2c27: c5 16        	cmp	$16                     ; 0x2016 <main+0x1a97>
    2c29: f0 06        	beq	$2c31 <main+0x26b2>
    2c2b: e6 14        	inc	$14                     ; 0x2014 <main+0x1a95>
    2c2d: d0 ed        	bne	$2c1c <main+0x269d>
    2c2f: 80 05        	bra	$2c36 <main+0x26b7>
    2c31: ca           	dex
    2c32: e6 14        	inc	$14                     ; 0x2014 <main+0x1a95>
    2c34: d0 e6        	bne	$2c1c <main+0x269d>
    2c36: e6 15        	inc	$15                     ; 0x2015 <main+0x1a96>
    2c38: 80 e2        	bra	$2c1c <main+0x269d>
    2c3a: a5 16        	lda	$16                     ; 0x2016 <main+0x1a97>
    2c3c: d0 e1        	bne	$2c1f <main+0x26a0>
    2c3e: a2 02        	ldx	#$2
    2c40: 86 01        	stx	$1                      ; 0x2001 <main+0x1a82>
    2c42: a9 09        	lda	#$9
    2c44: a2 10        	ldx	#$10
    2c46: 5a           	phy
    2c47: a4 26        	ldy	$26                     ; 0x2026 <main+0x1aa7>
    2c49: 84 14        	sty	$14                     ; 0x2014 <main+0x1a95>
    2c4b: a4 27        	ldy	$27                     ; 0x2027 <main+0x1aa8>
    2c4d: 84 15        	sty	$15                     ; 0x2015 <main+0x1a96>
    2c4f: 7a           	ply
    2c50: 86 16        	stx	$16                     ; 0x2016 <main+0x1a97>
    2c52: aa           	tax
    2c53: 80 03        	bra	$2c58 <main+0x26d9>
    2c55: 8a           	txa
    2c56: f0 1b        	beq	$2c73 <main+0x26f4>
    2c58: b1 14        	lda	($14),y                 ; 0x2014 <main+0x1a95>
    2c5a: 92 14        	sta	($14)                   ; 0x2014 <main+0x1a95>
    2c5c: a9 ff        	lda	#$ff
    2c5e: c6 16        	dec	$16                     ; 0x2016 <main+0x1a97>
    2c60: c5 16        	cmp	$16                     ; 0x2016 <main+0x1a97>
    2c62: f0 06        	beq	$2c6a <main+0x26eb>
    2c64: e6 14        	inc	$14                     ; 0x2014 <main+0x1a95>
    2c66: d0 ed        	bne	$2c55 <main+0x26d6>
    2c68: 80 05        	bra	$2c6f <main+0x26f0>
    2c6a: ca           	dex
    2c6b: e6 14        	inc	$14                     ; 0x2014 <main+0x1a95>
    2c6d: d0 e6        	bne	$2c55 <main+0x26d6>
    2c6f: e6 15        	inc	$15                     ; 0x2015 <main+0x1a96>
    2c71: 80 e2        	bra	$2c55 <main+0x26d6>
    2c73: a5 16        	lda	$16                     ; 0x2016 <main+0x1a97>
    2c75: d0 e1        	bne	$2c58 <main+0x26d9>
    2c77: a2 02        	ldx	#$2
    2c79: 86 01        	stx	$1                      ; 0x2001 <main+0x1a82>
    2c7b: a0 03        	ldy	#$3
    2c7d: 84 01        	sty	$1                      ; 0x2001 <main+0x1a82>
    2c7f: a4 60        	ldy	$60                     ; 0x2060 <main+0x1ae1>
    2c81: 8c 10 c9     	sty	$c910                   ; 0xc910 <__heap_start+0x6074>
    2c84: 8c 11 c9     	sty	$c911                   ; 0xc911 <__heap_start+0x6075>
    2c87: 8c 12 c9     	sty	$c912                   ; 0xc912 <__heap_start+0x6076>
    2c8a: 8c 13 c9     	sty	$c913                   ; 0xc913 <__heap_start+0x6077>
    2c8d: 8c 14 c9     	sty	$c914                   ; 0xc914 <__heap_start+0x6078>
    2c90: 8c 15 c9     	sty	$c915                   ; 0xc915 <__heap_start+0x6079>
    2c93: 8c 16 c9     	sty	$c916                   ; 0xc916 <__heap_start+0x607a>
    2c96: 8c 17 c9     	sty	$c917                   ; 0xc917 <__heap_start+0x607b>
    2c99: 8c 18 c9     	sty	$c918                   ; 0xc918 <__heap_start+0x607c>
    2c9c: 8c 19 c9     	sty	$c919                   ; 0xc919 <__heap_start+0x607d>
    2c9f: 8c 1a c9     	sty	$c91a                   ; 0xc91a <__heap_start+0x607e>
    2ca2: 8c 1b c9     	sty	$c91b                   ; 0xc91b <__heap_start+0x607f>
    2ca5: 8c 1c c9     	sty	$c91c                   ; 0xc91c <__heap_start+0x6080>
    2ca8: 8c 1d c9     	sty	$c91d                   ; 0xc91d <__heap_start+0x6081>
    2cab: 8c 1e c9     	sty	$c91e                   ; 0xc91e <__heap_start+0x6082>
    2cae: 8c 1f c9     	sty	$c91f                   ; 0xc91f <__heap_start+0x6083>
    2cb1: 8c 20 c9     	sty	$c920                   ; 0xc920 <__heap_start+0x6084>
    2cb4: 8c 21 c9     	sty	$c921                   ; 0xc921 <__heap_start+0x6085>
    2cb7: 8c 22 c9     	sty	$c922                   ; 0xc922 <__heap_start+0x6086>
    2cba: 8c 23 c9     	sty	$c923                   ; 0xc923 <__heap_start+0x6087>
    2cbd: 8c 24 c9     	sty	$c924                   ; 0xc924 <__heap_start+0x6088>
    2cc0: 8c 25 c9     	sty	$c925                   ; 0xc925 <__heap_start+0x6089>
    2cc3: 8c 26 c9     	sty	$c926                   ; 0xc926 <__heap_start+0x608a>
    2cc6: 8c 27 c9     	sty	$c927                   ; 0xc927 <__heap_start+0x608b>
    2cc9: 8c 28 c9     	sty	$c928                   ; 0xc928 <__heap_start+0x608c>
    2ccc: 8c 29 c9     	sty	$c929                   ; 0xc929 <__heap_start+0x608d>
    2ccf: 8c 2a c9     	sty	$c92a                   ; 0xc92a <__heap_start+0x608e>
    2cd2: 8c 2b c9     	sty	$c92b                   ; 0xc92b <__heap_start+0x608f>
    2cd5: 8c 2c c9     	sty	$c92c                   ; 0xc92c <__heap_start+0x6090>
    2cd8: 8c 2d c9     	sty	$c92d                   ; 0xc92d <__heap_start+0x6091>
    2cdb: 8c 2e c9     	sty	$c92e                   ; 0xc92e <__heap_start+0x6092>
    2cde: 8c 2f c9     	sty	$c92f                   ; 0xc92f <__heap_start+0x6093>
    2ce1: 8c 30 c9     	sty	$c930                   ; 0xc930 <__heap_start+0x6094>
    2ce4: 8c 31 c9     	sty	$c931                   ; 0xc931 <__heap_start+0x6095>
    2ce7: 8c 32 c9     	sty	$c932                   ; 0xc932 <__heap_start+0x6096>
    2cea: 8c 33 c9     	sty	$c933                   ; 0xc933 <__heap_start+0x6097>
    2ced: 8c 34 c9     	sty	$c934                   ; 0xc934 <__heap_start+0x6098>
    2cf0: 8c 35 c9     	sty	$c935                   ; 0xc935 <__heap_start+0x6099>
    2cf3: 8c 36 c9     	sty	$c936                   ; 0xc936 <__heap_start+0x609a>
    2cf6: 8c 37 c9     	sty	$c937                   ; 0xc937 <__heap_start+0x609b>
    2cf9: 8c 38 c9     	sty	$c938                   ; 0xc938 <__heap_start+0x609c>
    2cfc: 8c 39 c9     	sty	$c939                   ; 0xc939 <__heap_start+0x609d>
    2cff: 8c 3a c9     	sty	$c93a                   ; 0xc93a <__heap_start+0x609e>
    2d02: 8c 3b c9     	sty	$c93b                   ; 0xc93b <__heap_start+0x609f>
    2d05: 8c 3c c9     	sty	$c93c                   ; 0xc93c <__heap_start+0x60a0>
    2d08: 8c 3d c9     	sty	$c93d                   ; 0xc93d <__heap_start+0x60a1>
    2d0b: 8c 3e c9     	sty	$c93e                   ; 0xc93e <__heap_start+0x60a2>
    2d0e: 8c 3f c9     	sty	$c93f                   ; 0xc93f <__heap_start+0x60a3>
    2d11: 8c 40 c9     	sty	$c940                   ; 0xc940 <__heap_start+0x60a4>
    2d14: 8c 41 c9     	sty	$c941                   ; 0xc941 <__heap_start+0x60a5>
    2d17: 8c 42 c9     	sty	$c942                   ; 0xc942 <__heap_start+0x60a6>
    2d1a: 8c 43 c9     	sty	$c943                   ; 0xc943 <__heap_start+0x60a7>
    2d1d: 8c 44 c9     	sty	$c944                   ; 0xc944 <__heap_start+0x60a8>
    2d20: 8c 45 c9     	sty	$c945                   ; 0xc945 <__heap_start+0x60a9>
    2d23: 8c 46 c9     	sty	$c946                   ; 0xc946 <__heap_start+0x60aa>
    2d26: 8c 47 c9     	sty	$c947                   ; 0xc947 <__heap_start+0x60ab>
    2d29: 8c 48 c9     	sty	$c948                   ; 0xc948 <__heap_start+0x60ac>
    2d2c: 8c 49 c9     	sty	$c949                   ; 0xc949 <__heap_start+0x60ad>
    2d2f: 8c 4a c9     	sty	$c94a                   ; 0xc94a <__heap_start+0x60ae>
    2d32: 8c 4b c9     	sty	$c94b                   ; 0xc94b <__heap_start+0x60af>
    2d35: 8c 4c c9     	sty	$c94c                   ; 0xc94c <__heap_start+0x60b0>
    2d38: 8c 4d c9     	sty	$c94d                   ; 0xc94d <__heap_start+0x60b1>
    2d3b: 8c 4e c9     	sty	$c94e                   ; 0xc94e <__heap_start+0x60b2>
    2d3e: 8c 4f c9     	sty	$c94f                   ; 0xc94f <__heap_start+0x60b3>
    2d41: 8c 50 c9     	sty	$c950                   ; 0xc950 <__heap_start+0x60b4>
    2d44: 8c 51 c9     	sty	$c951                   ; 0xc951 <__heap_start+0x60b5>
    2d47: 8c 52 c9     	sty	$c952                   ; 0xc952 <__heap_start+0x60b6>
    2d4a: 8c 53 c9     	sty	$c953                   ; 0xc953 <__heap_start+0x60b7>
    2d4d: 8c 54 c9     	sty	$c954                   ; 0xc954 <__heap_start+0x60b8>
    2d50: 8c 55 c9     	sty	$c955                   ; 0xc955 <__heap_start+0x60b9>
    2d53: 8c 56 c9     	sty	$c956                   ; 0xc956 <__heap_start+0x60ba>
    2d56: 8c 57 c9     	sty	$c957                   ; 0xc957 <__heap_start+0x60bb>
    2d59: 8c 58 c9     	sty	$c958                   ; 0xc958 <__heap_start+0x60bc>
    2d5c: 8c 59 c9     	sty	$c959                   ; 0xc959 <__heap_start+0x60bd>
    2d5f: 8c 5a c9     	sty	$c95a                   ; 0xc95a <__heap_start+0x60be>
    2d62: 8c 5b c9     	sty	$c95b                   ; 0xc95b <__heap_start+0x60bf>
    2d65: 8c 5c c9     	sty	$c95c                   ; 0xc95c <__heap_start+0x60c0>
    2d68: 8c 5d c9     	sty	$c95d                   ; 0xc95d <__heap_start+0x60c1>
    2d6b: 8c 5e c9     	sty	$c95e                   ; 0xc95e <__heap_start+0x60c2>
    2d6e: 8c 5f c9     	sty	$c95f                   ; 0xc95f <__heap_start+0x60c3>
    2d71: 86 01        	stx	$1                      ; 0x2001 <main+0x1a82>
    2d73: a2 20        	ldx	#$20
    2d75: 8e 10 c9     	stx	$c910                   ; 0xc910 <__heap_start+0x6074>
    2d78: 8e 11 c9     	stx	$c911                   ; 0xc911 <__heap_start+0x6075>
    2d7b: 8e 12 c9     	stx	$c912                   ; 0xc912 <__heap_start+0x6076>
    2d7e: 8e 13 c9     	stx	$c913                   ; 0xc913 <__heap_start+0x6077>
    2d81: 8e 14 c9     	stx	$c914                   ; 0xc914 <__heap_start+0x6078>
    2d84: 8e 15 c9     	stx	$c915                   ; 0xc915 <__heap_start+0x6079>
    2d87: 8e 16 c9     	stx	$c916                   ; 0xc916 <__heap_start+0x607a>
    2d8a: 8e 17 c9     	stx	$c917                   ; 0xc917 <__heap_start+0x607b>
    2d8d: 8e 18 c9     	stx	$c918                   ; 0xc918 <__heap_start+0x607c>
    2d90: 8e 19 c9     	stx	$c919                   ; 0xc919 <__heap_start+0x607d>
    2d93: 8e 1a c9     	stx	$c91a                   ; 0xc91a <__heap_start+0x607e>
    2d96: 8e 1b c9     	stx	$c91b                   ; 0xc91b <__heap_start+0x607f>
    2d99: 8e 1c c9     	stx	$c91c                   ; 0xc91c <__heap_start+0x6080>
    2d9c: 8e 1d c9     	stx	$c91d                   ; 0xc91d <__heap_start+0x6081>
    2d9f: 8e 1e c9     	stx	$c91e                   ; 0xc91e <__heap_start+0x6082>
    2da2: 8e 1f c9     	stx	$c91f                   ; 0xc91f <__heap_start+0x6083>
    2da5: 8e 20 c9     	stx	$c920                   ; 0xc920 <__heap_start+0x6084>
    2da8: 8e 21 c9     	stx	$c921                   ; 0xc921 <__heap_start+0x6085>
    2dab: 8e 22 c9     	stx	$c922                   ; 0xc922 <__heap_start+0x6086>
    2dae: 8e 23 c9     	stx	$c923                   ; 0xc923 <__heap_start+0x6087>
    2db1: 8e 24 c9     	stx	$c924                   ; 0xc924 <__heap_start+0x6088>
    2db4: 8e 25 c9     	stx	$c925                   ; 0xc925 <__heap_start+0x6089>
    2db7: 8e 26 c9     	stx	$c926                   ; 0xc926 <__heap_start+0x608a>
    2dba: 8e 27 c9     	stx	$c927                   ; 0xc927 <__heap_start+0x608b>
    2dbd: 8e 28 c9     	stx	$c928                   ; 0xc928 <__heap_start+0x608c>
    2dc0: 8e 29 c9     	stx	$c929                   ; 0xc929 <__heap_start+0x608d>
    2dc3: 8e 2a c9     	stx	$c92a                   ; 0xc92a <__heap_start+0x608e>
    2dc6: 8e 2b c9     	stx	$c92b                   ; 0xc92b <__heap_start+0x608f>
    2dc9: 8e 2c c9     	stx	$c92c                   ; 0xc92c <__heap_start+0x6090>
    2dcc: 8e 2d c9     	stx	$c92d                   ; 0xc92d <__heap_start+0x6091>
    2dcf: 8e 2e c9     	stx	$c92e                   ; 0xc92e <__heap_start+0x6092>
    2dd2: 8e 2f c9     	stx	$c92f                   ; 0xc92f <__heap_start+0x6093>
    2dd5: 8e 30 c9     	stx	$c930                   ; 0xc930 <__heap_start+0x6094>
    2dd8: 8e 31 c9     	stx	$c931                   ; 0xc931 <__heap_start+0x6095>
    2ddb: 8e 32 c9     	stx	$c932                   ; 0xc932 <__heap_start+0x6096>
    2dde: 8e 33 c9     	stx	$c933                   ; 0xc933 <__heap_start+0x6097>
    2de1: 8e 34 c9     	stx	$c934                   ; 0xc934 <__heap_start+0x6098>
    2de4: 8e 35 c9     	stx	$c935                   ; 0xc935 <__heap_start+0x6099>
    2de7: 8e 36 c9     	stx	$c936                   ; 0xc936 <__heap_start+0x609a>
    2dea: 8e 37 c9     	stx	$c937                   ; 0xc937 <__heap_start+0x609b>
    2ded: 8e 38 c9     	stx	$c938                   ; 0xc938 <__heap_start+0x609c>
    2df0: 8e 39 c9     	stx	$c939                   ; 0xc939 <__heap_start+0x609d>
    2df3: 8e 3a c9     	stx	$c93a                   ; 0xc93a <__heap_start+0x609e>
    2df6: 8e 3b c9     	stx	$c93b                   ; 0xc93b <__heap_start+0x609f>
    2df9: 8e 3c c9     	stx	$c93c                   ; 0xc93c <__heap_start+0x60a0>
    2dfc: 8e 3d c9     	stx	$c93d                   ; 0xc93d <__heap_start+0x60a1>
    2dff: 8e 3e c9     	stx	$c93e                   ; 0xc93e <__heap_start+0x60a2>
    2e02: 8e 3f c9     	stx	$c93f                   ; 0xc93f <__heap_start+0x60a3>
    2e05: 8e 40 c9     	stx	$c940                   ; 0xc940 <__heap_start+0x60a4>
    2e08: 8e 41 c9     	stx	$c941                   ; 0xc941 <__heap_start+0x60a5>
    2e0b: 8e 42 c9     	stx	$c942                   ; 0xc942 <__heap_start+0x60a6>
    2e0e: 8e 43 c9     	stx	$c943                   ; 0xc943 <__heap_start+0x60a7>
    2e11: 8e 44 c9     	stx	$c944                   ; 0xc944 <__heap_start+0x60a8>
    2e14: 8e 45 c9     	stx	$c945                   ; 0xc945 <__heap_start+0x60a9>
    2e17: 8e 46 c9     	stx	$c946                   ; 0xc946 <__heap_start+0x60aa>
    2e1a: 8e 47 c9     	stx	$c947                   ; 0xc947 <__heap_start+0x60ab>
    2e1d: 8e 48 c9     	stx	$c948                   ; 0xc948 <__heap_start+0x60ac>
    2e20: 8e 49 c9     	stx	$c949                   ; 0xc949 <__heap_start+0x60ad>
    2e23: 8e 4a c9     	stx	$c94a                   ; 0xc94a <__heap_start+0x60ae>
    2e26: 8e 4b c9     	stx	$c94b                   ; 0xc94b <__heap_start+0x60af>
    2e29: 8e 4c c9     	stx	$c94c                   ; 0xc94c <__heap_start+0x60b0>
    2e2c: 8e 4d c9     	stx	$c94d                   ; 0xc94d <__heap_start+0x60b1>
    2e2f: 8e 4e c9     	stx	$c94e                   ; 0xc94e <__heap_start+0x60b2>
    2e32: 8e 4f c9     	stx	$c94f                   ; 0xc94f <__heap_start+0x60b3>
    2e35: 8e 50 c9     	stx	$c950                   ; 0xc950 <__heap_start+0x60b4>
    2e38: 8e 51 c9     	stx	$c951                   ; 0xc951 <__heap_start+0x60b5>
    2e3b: 8e 52 c9     	stx	$c952                   ; 0xc952 <__heap_start+0x60b6>
    2e3e: 8e 53 c9     	stx	$c953                   ; 0xc953 <__heap_start+0x60b7>
    2e41: 8e 54 c9     	stx	$c954                   ; 0xc954 <__heap_start+0x60b8>
    2e44: 8e 55 c9     	stx	$c955                   ; 0xc955 <__heap_start+0x60b9>
    2e47: 8e 56 c9     	stx	$c956                   ; 0xc956 <__heap_start+0x60ba>
    2e4a: 8e 57 c9     	stx	$c957                   ; 0xc957 <__heap_start+0x60bb>
    2e4d: 8e 58 c9     	stx	$c958                   ; 0xc958 <__heap_start+0x60bc>
    2e50: 8e 59 c9     	stx	$c959                   ; 0xc959 <__heap_start+0x60bd>
    2e53: 8e 5a c9     	stx	$c95a                   ; 0xc95a <__heap_start+0x60be>
    2e56: 8e 5b c9     	stx	$c95b                   ; 0xc95b <__heap_start+0x60bf>
    2e59: 8e 5c c9     	stx	$c95c                   ; 0xc95c <__heap_start+0x60c0>
    2e5c: 8e 5d c9     	stx	$c95d                   ; 0xc95d <__heap_start+0x60c1>
    2e5f: 8e 5e c9     	stx	$c95e                   ; 0xc95e <__heap_start+0x60c2>
    2e62: 8e 5f c9     	stx	$c95f                   ; 0xc95f <__heap_start+0x60c3>
    2e65: c6 62        	dec	$62                     ; 0x2062 <main+0x1ae3>
    2e67: 9c 08 de     	stz	$de08                   ; 0xde08 <__heap_start+0x756c>
    2e6a: a2 c0        	ldx	#$c0
    2e6c: 8e 09 de     	stx	$de09                   ; 0xde09 <__heap_start+0x756d>
    2e6f: 9c 0a de     	stz	$de0a                   ; 0xde0a <__heap_start+0x756e>
    2e72: 9c 0b de     	stz	$de0b                   ; 0xde0b <__heap_start+0x756f>
    2e75: a2 1d        	ldx	#$1d
    2e77: 8e 0c de     	stx	$de0c                   ; 0xde0c <__heap_start+0x7570>
    2e7a: 9c 0d de     	stz	$de0d                   ; 0xde0d <__heap_start+0x7571>
    2e7d: 9c 0e de     	stz	$de0e                   ; 0xde0e <__heap_start+0x7572>
    2e80: 9c 0f de     	stz	$de0f                   ; 0xde0f <__heap_start+0x7573>
    2e83: ae 18 de     	ldx	$de18                   ; 0xde18 <__heap_start+0x757c>
    2e86: ac 19 de     	ldy	$de19                   ; 0xde19 <__heap_start+0x757d>
    2e89: ad 1a de     	lda	$de1a                   ; 0xde1a <__heap_start+0x757e>
    2e8c: 86 14        	stx	$14                     ; 0x2014 <main+0x1a95>
    2e8e: ae 1b de     	ldx	$de1b                   ; 0xde1b <__heap_start+0x757f>
    2e91: 84 15        	sty	$15                     ; 0x2015 <main+0x1a96>
    2e93: e6 12        	inc	$12                     ; 0x2012 <main+0x1a93>
    2e95: d0 17        	bne	$2eae <main+0x292f>
    2e97: e6 13        	inc	$13                     ; 0x2013 <main+0x1a94>
    2e99: 80 13        	bra	$2eae <main+0x292f>
    2e9b: a5 14        	lda	$14                     ; 0x2014 <main+0x1a95>
    2e9d: 18           	clc
    2e9e: 69 50        	adc	#$50
    2ea0: 85 14        	sta	$14                     ; 0x2014 <main+0x1a95>
    2ea2: a5 15        	lda	$15                     ; 0x2015 <main+0x1a96>
    2ea4: 69 00        	adc	#$0
    2ea6: 85 15        	sta	$15                     ; 0x2015 <main+0x1a96>
    2ea8: e6 12        	inc	$12                     ; 0x2012 <main+0x1a93>
    2eaa: d0 02        	bne	$2eae <main+0x292f>
    2eac: e6 13        	inc	$13                     ; 0x2013 <main+0x1a94>
    2eae: a9 20        	lda	#$20
    2eb0: 18           	clc
    2eb1: 65 12        	adc	$12                     ; 0x2012 <main+0x1a93>
    2eb3: 85 16        	sta	$16                     ; 0x2016 <main+0x1a97>
    2eb5: a9 68        	lda	#$68
    2eb7: 65 13        	adc	$13                     ; 0x2013 <main+0x1a94>
    2eb9: 85 17        	sta	$17                     ; 0x2017 <main+0x1a98>
    2ebb: b2 16        	lda	($16)                   ; 0x2016 <main+0x1a97>
    2ebd: c9 0a        	cmp	#$a
    2ebf: f0 27        	beq	$2ee8 <main+0x2969>
    2ec1: c9 0d        	cmp	#$d
    2ec3: f0 23        	beq	$2ee8 <main+0x2969>
    2ec5: aa           	tax
    2ec6: f0 45        	beq	$2f0d <main+0x298e>
    2ec8: a2 03        	ldx	#$3
    2eca: 86 01        	stx	$1                      ; 0x2001 <main+0x1a82>
    2ecc: a6 60        	ldx	$60                     ; 0x2060 <main+0x1ae1>
    2ece: a4 61        	ldy	$61                     ; 0x2061 <main+0x1ae2>
    2ed0: 85 17        	sta	$17                     ; 0x2017 <main+0x1a98>
    2ed2: 8a           	txa
    2ed3: 91 14        	sta	($14),y                 ; 0x2014 <main+0x1a95>
    2ed5: a2 02        	ldx	#$2
    2ed7: 86 01        	stx	$1                      ; 0x2001 <main+0x1a82>
    2ed9: a4 61        	ldy	$61                     ; 0x2061 <main+0x1ae2>
    2edb: a5 17        	lda	$17                     ; 0x2017 <main+0x1a98>
    2edd: 91 14        	sta	($14),y                 ; 0x2014 <main+0x1a95>
    2edf: a6 61        	ldx	$61                     ; 0x2061 <main+0x1ae2>
    2ee1: e8           	inx
    2ee2: e6 61        	inc	$61                     ; 0x2061 <main+0x1ae2>
    2ee4: e0 50        	cpx	#$50
    2ee6: d0 c0        	bne	$2ea8 <main+0x2929>
    2ee8: 64 61        	stz	$61                     ; 0x2061 <main+0x1ae2>
    2eea: a6 62        	ldx	$62                     ; 0x2062 <main+0x1ae3>
    2eec: e8           	inx
    2eed: e6 62        	inc	$62                     ; 0x2062 <main+0x1ae3>
    2eef: e0 1e        	cpx	#$1e
    2ef1: f0 03        	beq	$2ef6 <main+0x2977>
    2ef3: 4c 9b 2e     	jmp	$2e9b <main+0x291c>
    2ef6: a2 03        	ldx	#$3
    2ef8: 86 01        	stx	$1                      ; 0x2001 <main+0x1a82>
    2efa: a2 09        	ldx	#$9
    2efc: a0 10        	ldy	#$10
    2efe: a5 26        	lda	$26                     ; 0x2026 <main+0x1aa7>
    2f00: 85 14        	sta	$14                     ; 0x2014 <main+0x1a95>
    2f02: a5 27        	lda	$27                     ; 0x2027 <main+0x1aa8>
    2f04: 85 15        	sta	$15                     ; 0x2015 <main+0x1a96>
    2f06: 84 16        	sty	$16                     ; 0x2016 <main+0x1a97>
    2f08: a0 50        	ldy	#$50
    2f0a: 4c 1f 2c     	jmp	$2c1f <main+0x26a0>
    2f0d: a6 18        	ldx	$18                     ; 0x2018 <main+0x1a99>
    2f0f: 86 01        	stx	$1                      ; 0x2001 <main+0x1a82>
    2f11: a6 61        	ldx	$61                     ; 0x2061 <main+0x1ae2>
    2f13: a4 62        	ldy	$62                     ; 0x2062 <main+0x1ae3>
    2f15: 8e 14 d0     	stx	$d014                   ; 0xd014 <__heap_start+0x6778>
    2f18: 9c 15 d0     	stz	$d015                   ; 0xd015 <__heap_start+0x6779>
    2f1b: 84 62        	sty	$62                     ; 0x2062 <main+0x1ae3>
    2f1d: 8c 16 d0     	sty	$d016                   ; 0xd016 <__heap_start+0x677a>
    2f20: 9c 17 d0     	stz	$d017                   ; 0xd017 <__heap_start+0x677b>
    2f23: a6 8a        	ldx	$8a                     ; 0x208a <main+0x1b0b>
    2f25: a0 50        	ldy	#$50
    2f27: e0 81        	cpx	#$81
    2f29: f0 03        	beq	$2f2e <main+0x29af>
    2f2b: 4c 66 37     	jmp	$3766 <main+0x31e7>
    2f2e: a6 84        	ldx	$84                     ; 0x2084 <main+0x1b05>
    2f30: a9 a1        	lda	#$a1
    2f32: 85 12        	sta	$12                     ; 0x2012 <main+0x1a93>
    2f34: a9 dd        	lda	#$dd
    2f36: 85 13        	sta	$13                     ; 0x2013 <main+0x1a94>
    2f38: 8a           	txa
    2f39: f0 08        	beq	$2f43 <main+0x29c4>
    2f3b: a2 b1        	ldx	#$b1
    2f3d: 86 12        	stx	$12                     ; 0x2012 <main+0x1a93>
    2f3f: a2 dd        	ldx	#$dd
    2f41: 86 13        	stx	$13                     ; 0x2013 <main+0x1a94>
    2f43: a9 b0        	lda	#$b0
    2f45: 92 12        	sta	($12)                   ; 0x2012 <main+0x1a93>
    2f47: a9 7b        	lda	#$7b
    2f49: 92 12        	sta	($12)                   ; 0x2012 <main+0x1a93>
    2f4b: a9 00        	lda	#$0
    2f4d: 92 12        	sta	($12)                   ; 0x2012 <main+0x1a93>
    2f4f: a9 b1        	lda	#$b1
    2f51: 92 12        	sta	($12)                   ; 0x2012 <main+0x1a93>
    2f53: a9 7b        	lda	#$7b
    2f55: 92 12        	sta	($12)                   ; 0x2012 <main+0x1a93>
    2f57: a9 00        	lda	#$0
    2f59: 92 12        	sta	($12)                   ; 0x2012 <main+0x1a93>
    2f5b: a9 b2        	lda	#$b2
    2f5d: 92 12        	sta	($12)                   ; 0x2012 <main+0x1a93>
    2f5f: a9 7b        	lda	#$7b
    2f61: 92 12        	sta	($12)                   ; 0x2012 <main+0x1a93>
    2f63: a9 00        	lda	#$0
    2f65: 92 12        	sta	($12)                   ; 0x2012 <main+0x1a93>
    2f67: a9 b3        	lda	#$b3
    2f69: 92 12        	sta	($12)                   ; 0x2012 <main+0x1a93>
    2f6b: a9 7b        	lda	#$7b
    2f6d: 92 12        	sta	($12)                   ; 0x2012 <main+0x1a93>
    2f6f: a9 00        	lda	#$0
    2f71: 92 12        	sta	($12)                   ; 0x2012 <main+0x1a93>
    2f73: a9 b4        	lda	#$b4
    2f75: 92 12        	sta	($12)                   ; 0x2012 <main+0x1a93>
    2f77: a9 7b        	lda	#$7b
    2f79: 92 12        	sta	($12)                   ; 0x2012 <main+0x1a93>
    2f7b: a9 00        	lda	#$0
    2f7d: 92 12        	sta	($12)                   ; 0x2012 <main+0x1a93>
    2f7f: a9 b5        	lda	#$b5
    2f81: 92 12        	sta	($12)                   ; 0x2012 <main+0x1a93>
    2f83: a9 7b        	lda	#$7b
    2f85: 92 12        	sta	($12)                   ; 0x2012 <main+0x1a93>
    2f87: a9 00        	lda	#$0
    2f89: 92 12        	sta	($12)                   ; 0x2012 <main+0x1a93>
    2f8b: a9 b6        	lda	#$b6
    2f8d: 92 12        	sta	($12)                   ; 0x2012 <main+0x1a93>
    2f8f: a9 7b        	lda	#$7b
    2f91: 92 12        	sta	($12)                   ; 0x2012 <main+0x1a93>
    2f93: a9 00        	lda	#$0
    2f95: 92 12        	sta	($12)                   ; 0x2012 <main+0x1a93>
    2f97: a9 b7        	lda	#$b7
    2f99: 92 12        	sta	($12)                   ; 0x2012 <main+0x1a93>
    2f9b: a9 7b        	lda	#$7b
    2f9d: 92 12        	sta	($12)                   ; 0x2012 <main+0x1a93>
    2f9f: a9 00        	lda	#$0
    2fa1: 92 12        	sta	($12)                   ; 0x2012 <main+0x1a93>
    2fa3: a9 b8        	lda	#$b8
    2fa5: 92 12        	sta	($12)                   ; 0x2012 <main+0x1a93>
    2fa7: a9 7b        	lda	#$7b
    2fa9: 92 12        	sta	($12)                   ; 0x2012 <main+0x1a93>
    2fab: a9 00        	lda	#$0
    2fad: 92 12        	sta	($12)                   ; 0x2012 <main+0x1a93>
    2faf: a9 b9        	lda	#$b9
    2fb1: 92 12        	sta	($12)                   ; 0x2012 <main+0x1a93>
    2fb3: a9 7b        	lda	#$7b
    2fb5: 92 12        	sta	($12)                   ; 0x2012 <main+0x1a93>
    2fb7: a9 00        	lda	#$0
    2fb9: 92 12        	sta	($12)                   ; 0x2012 <main+0x1a93>
    2fbb: a9 ba        	lda	#$ba
    2fbd: 92 12        	sta	($12)                   ; 0x2012 <main+0x1a93>
    2fbf: a9 7b        	lda	#$7b
    2fc1: 92 12        	sta	($12)                   ; 0x2012 <main+0x1a93>
    2fc3: a9 00        	lda	#$0
    2fc5: 92 12        	sta	($12)                   ; 0x2012 <main+0x1a93>
    2fc7: a9 bb        	lda	#$bb
    2fc9: 92 12        	sta	($12)                   ; 0x2012 <main+0x1a93>
    2fcb: a9 7b        	lda	#$7b
    2fcd: 92 12        	sta	($12)                   ; 0x2012 <main+0x1a93>
    2fcf: a9 00        	lda	#$0
    2fd1: 92 12        	sta	($12)                   ; 0x2012 <main+0x1a93>
    2fd3: a9 bc        	lda	#$bc
    2fd5: 92 12        	sta	($12)                   ; 0x2012 <main+0x1a93>
    2fd7: a9 7b        	lda	#$7b
    2fd9: 92 12        	sta	($12)                   ; 0x2012 <main+0x1a93>
    2fdb: a9 00        	lda	#$0
    2fdd: 92 12        	sta	($12)                   ; 0x2012 <main+0x1a93>
    2fdf: a9 bd        	lda	#$bd
    2fe1: 92 12        	sta	($12)                   ; 0x2012 <main+0x1a93>
    2fe3: a9 7b        	lda	#$7b
    2fe5: 92 12        	sta	($12)                   ; 0x2012 <main+0x1a93>
    2fe7: a9 00        	lda	#$0
    2fe9: 92 12        	sta	($12)                   ; 0x2012 <main+0x1a93>
    2feb: a9 be        	lda	#$be
    2fed: 92 12        	sta	($12)                   ; 0x2012 <main+0x1a93>
    2fef: a9 7b        	lda	#$7b
    2ff1: 92 12        	sta	($12)                   ; 0x2012 <main+0x1a93>
    2ff3: a9 00        	lda	#$0
    2ff5: 92 12        	sta	($12)                   ; 0x2012 <main+0x1a93>
    2ff7: a9 bf        	lda	#$bf
    2ff9: 92 12        	sta	($12)                   ; 0x2012 <main+0x1a93>
    2ffb: a9 7b        	lda	#$7b
    2ffd: 92 12        	sta	($12)                   ; 0x2012 <main+0x1a93>
    2fff: a9 00        	lda	#$0
    3001: 92 12        	sta	($12)                   ; 0x2012 <main+0x1a93>
    3003: a5 84        	lda	$84                     ; 0x2084 <main+0x1b05>
    3005: a2 00        	ldx	#$0
    3007: 85 18        	sta	$18                     ; 0x2018 <main+0x1a99>
    3009: c9 01        	cmp	#$1
    300b: d0 02        	bne	$300f <main+0x2a90>
    300d: a2 10        	ldx	#$10
    300f: 86 60        	stx	$60                     ; 0x2060 <main+0x1ae1>
    3011: a2 3d        	ldx	#$3d
    3013: 86 61        	stx	$61                     ; 0x2061 <main+0x1ae2>
    3015: 8e 14 d0     	stx	$d014                   ; 0xd014 <__heap_start+0x6778>
    3018: 9c 15 d0     	stz	$d015                   ; 0xd015 <__heap_start+0x6779>
    301b: a2 18        	ldx	#$18
    301d: 86 62        	stx	$62                     ; 0x2062 <main+0x1ae3>
    301f: 8e 16 d0     	stx	$d016                   ; 0xd016 <__heap_start+0x677a>
    3022: 9c 17 d0     	stz	$d017                   ; 0xd017 <__heap_start+0x677b>
    3025: a6 01        	ldx	$1                      ; 0x2001 <main+0x1a82>
    3027: 86 19        	stx	$19                     ; 0x2019 <main+0x1a9a>
    3029: a6 62        	ldx	$62                     ; 0x2062 <main+0x1ae3>
    302b: 8c 00 de     	sty	$de00                   ; 0xde00 <__heap_start+0x7564>
    302e: 9c 01 de     	stz	$de01                   ; 0xde01 <__heap_start+0x7565>
    3031: 8e 02 de     	stx	$de02                   ; 0xde02 <__heap_start+0x7566>
    3034: 9c 03 de     	stz	$de03                   ; 0xde03 <__heap_start+0x7567>
    3037: ae 10 de     	ldx	$de10                   ; 0xde10 <__heap_start+0x7574>
    303a: ac 11 de     	ldy	$de11                   ; 0xde11 <__heap_start+0x7575>
    303d: ad 12 de     	lda	$de12                   ; 0xde12 <__heap_start+0x7576>
    3040: 85 12        	sta	$12                     ; 0x2012 <main+0x1a93>
    3042: ad 13 de     	lda	$de13                   ; 0xde13 <__heap_start+0x7577>
    3045: 85 13        	sta	$13                     ; 0x2013 <main+0x1a94>
    3047: 9c 08 de     	stz	$de08                   ; 0xde08 <__heap_start+0x756c>
    304a: a9 c0        	lda	#$c0
    304c: 8d 09 de     	sta	$de09                   ; 0xde09 <__heap_start+0x756d>
    304f: 9c 0a de     	stz	$de0a                   ; 0xde0a <__heap_start+0x756e>
    3052: 9c 0b de     	stz	$de0b                   ; 0xde0b <__heap_start+0x756f>
    3055: 8e 0c de     	stx	$de0c                   ; 0xde0c <__heap_start+0x7570>
    3058: 8c 0d de     	sty	$de0d                   ; 0xde0d <__heap_start+0x7571>
    305b: a6 12        	ldx	$12                     ; 0x2012 <main+0x1a93>
    305d: 8e 0e de     	stx	$de0e                   ; 0xde0e <__heap_start+0x7572>
    3060: a6 13        	ldx	$13                     ; 0x2013 <main+0x1a94>
    3062: 8e 0f de     	stx	$de0f                   ; 0xde0f <__heap_start+0x7573>
    3065: ae 18 de     	ldx	$de18                   ; 0xde18 <__heap_start+0x757c>
    3068: 86 14        	stx	$14                     ; 0x2014 <main+0x1a95>
    306a: ae 19 de     	ldx	$de19                   ; 0xde19 <__heap_start+0x757d>
    306d: 86 15        	stx	$15                     ; 0x2015 <main+0x1a96>
    306f: ae 1a de     	ldx	$de1a                   ; 0xde1a <__heap_start+0x757e>
    3072: 64 12        	stz	$12                     ; 0x2012 <main+0x1a93>
    3074: 64 13        	stz	$13                     ; 0x2013 <main+0x1a94>
    3076: ae 1b de     	ldx	$de1b                   ; 0xde1b <__heap_start+0x757f>
    3079: 4c 13 33     	jmp	$3313 <main+0x2d94>
    307c: a5 16        	lda	$16                     ; 0x2016 <main+0x1a97>
    307e: f0 1c        	beq	$309c <main+0x2b1d>
    3080: b1 14        	lda	($14),y                 ; 0x2014 <main+0x1a95>
    3082: 92 14        	sta	($14)                   ; 0x2014 <main+0x1a95>
    3084: a2 ff        	ldx	#$ff
    3086: c6 17        	dec	$17                     ; 0x2017 <main+0x1a98>
    3088: e4 17        	cpx	$17                     ; 0x2017 <main+0x1a98>
    308a: f0 06        	beq	$3092 <main+0x2b13>
    308c: e6 14        	inc	$14                     ; 0x2014 <main+0x1a95>
    308e: d0 ec        	bne	$307c <main+0x2afd>
    3090: 80 06        	bra	$3098 <main+0x2b19>
    3092: c6 16        	dec	$16                     ; 0x2016 <main+0x1a97>
    3094: e6 14        	inc	$14                     ; 0x2014 <main+0x1a95>
    3096: d0 e4        	bne	$307c <main+0x2afd>
    3098: e6 15        	inc	$15                     ; 0x2015 <main+0x1a96>
    309a: 80 e0        	bra	$307c <main+0x2afd>
    309c: a5 17        	lda	$17                     ; 0x2017 <main+0x1a98>
    309e: d0 e0        	bne	$3080 <main+0x2b01>
    30a0: a2 02        	ldx	#$2
    30a2: 86 01        	stx	$1                      ; 0x2001 <main+0x1a82>
    30a4: a2 09        	ldx	#$9
    30a6: a9 10        	lda	#$10
    30a8: 5a           	phy
    30a9: a4 26        	ldy	$26                     ; 0x2026 <main+0x1aa7>
    30ab: 84 14        	sty	$14                     ; 0x2014 <main+0x1a95>
    30ad: a4 27        	ldy	$27                     ; 0x2027 <main+0x1aa8>
    30af: 84 15        	sty	$15                     ; 0x2015 <main+0x1a96>
    30b1: 7a           	ply
    30b2: 85 17        	sta	$17                     ; 0x2017 <main+0x1a98>
    30b4: 86 16        	stx	$16                     ; 0x2016 <main+0x1a97>
    30b6: 80 04        	bra	$30bc <main+0x2b3d>
    30b8: a5 16        	lda	$16                     ; 0x2016 <main+0x1a97>
    30ba: f0 1c        	beq	$30d8 <main+0x2b59>
    30bc: b1 14        	lda	($14),y                 ; 0x2014 <main+0x1a95>
    30be: 92 14        	sta	($14)                   ; 0x2014 <main+0x1a95>
    30c0: a2 ff        	ldx	#$ff
    30c2: c6 17        	dec	$17                     ; 0x2017 <main+0x1a98>
    30c4: e4 17        	cpx	$17                     ; 0x2017 <main+0x1a98>
    30c6: f0 06        	beq	$30ce <main+0x2b4f>
    30c8: e6 14        	inc	$14                     ; 0x2014 <main+0x1a95>
    30ca: d0 ec        	bne	$30b8 <main+0x2b39>
    30cc: 80 06        	bra	$30d4 <main+0x2b55>
    30ce: c6 16        	dec	$16                     ; 0x2016 <main+0x1a97>
    30d0: e6 14        	inc	$14                     ; 0x2014 <main+0x1a95>
    30d2: d0 e4        	bne	$30b8 <main+0x2b39>
    30d4: e6 15        	inc	$15                     ; 0x2015 <main+0x1a96>
    30d6: 80 e0        	bra	$30b8 <main+0x2b39>
    30d8: a5 17        	lda	$17                     ; 0x2017 <main+0x1a98>
    30da: d0 e0        	bne	$30bc <main+0x2b3d>
    30dc: a2 02        	ldx	#$2
    30de: 86 01        	stx	$1                      ; 0x2001 <main+0x1a82>
    30e0: a0 03        	ldy	#$3
    30e2: 84 01        	sty	$1                      ; 0x2001 <main+0x1a82>
    30e4: a5 60        	lda	$60                     ; 0x2060 <main+0x1ae1>
    30e6: 8d 10 c9     	sta	$c910                   ; 0xc910 <__heap_start+0x6074>
    30e9: 8d 11 c9     	sta	$c911                   ; 0xc911 <__heap_start+0x6075>
    30ec: 8d 12 c9     	sta	$c912                   ; 0xc912 <__heap_start+0x6076>
    30ef: 8d 13 c9     	sta	$c913                   ; 0xc913 <__heap_start+0x6077>
    30f2: 8d 14 c9     	sta	$c914                   ; 0xc914 <__heap_start+0x6078>
    30f5: 8d 15 c9     	sta	$c915                   ; 0xc915 <__heap_start+0x6079>
    30f8: 8d 16 c9     	sta	$c916                   ; 0xc916 <__heap_start+0x607a>
    30fb: 8d 17 c9     	sta	$c917                   ; 0xc917 <__heap_start+0x607b>
    30fe: 8d 18 c9     	sta	$c918                   ; 0xc918 <__heap_start+0x607c>
    3101: 8d 19 c9     	sta	$c919                   ; 0xc919 <__heap_start+0x607d>
    3104: 8d 1a c9     	sta	$c91a                   ; 0xc91a <__heap_start+0x607e>
    3107: 8d 1b c9     	sta	$c91b                   ; 0xc91b <__heap_start+0x607f>
    310a: 8d 1c c9     	sta	$c91c                   ; 0xc91c <__heap_start+0x6080>
    310d: 8d 1d c9     	sta	$c91d                   ; 0xc91d <__heap_start+0x6081>
    3110: 8d 1e c9     	sta	$c91e                   ; 0xc91e <__heap_start+0x6082>
    3113: 8d 1f c9     	sta	$c91f                   ; 0xc91f <__heap_start+0x6083>
    3116: 8d 20 c9     	sta	$c920                   ; 0xc920 <__heap_start+0x6084>
    3119: 8d 21 c9     	sta	$c921                   ; 0xc921 <__heap_start+0x6085>
    311c: 8d 22 c9     	sta	$c922                   ; 0xc922 <__heap_start+0x6086>
    311f: 8d 23 c9     	sta	$c923                   ; 0xc923 <__heap_start+0x6087>
    3122: 8d 24 c9     	sta	$c924                   ; 0xc924 <__heap_start+0x6088>
    3125: 8d 25 c9     	sta	$c925                   ; 0xc925 <__heap_start+0x6089>
    3128: 8d 26 c9     	sta	$c926                   ; 0xc926 <__heap_start+0x608a>
    312b: 8d 27 c9     	sta	$c927                   ; 0xc927 <__heap_start+0x608b>
    312e: 8d 28 c9     	sta	$c928                   ; 0xc928 <__heap_start+0x608c>
    3131: 8d 29 c9     	sta	$c929                   ; 0xc929 <__heap_start+0x608d>
    3134: 8d 2a c9     	sta	$c92a                   ; 0xc92a <__heap_start+0x608e>
    3137: 8d 2b c9     	sta	$c92b                   ; 0xc92b <__heap_start+0x608f>
    313a: 8d 2c c9     	sta	$c92c                   ; 0xc92c <__heap_start+0x6090>
    313d: 8d 2d c9     	sta	$c92d                   ; 0xc92d <__heap_start+0x6091>
    3140: 8d 2e c9     	sta	$c92e                   ; 0xc92e <__heap_start+0x6092>
    3143: 8d 2f c9     	sta	$c92f                   ; 0xc92f <__heap_start+0x6093>
    3146: 8d 30 c9     	sta	$c930                   ; 0xc930 <__heap_start+0x6094>
    3149: 8d 31 c9     	sta	$c931                   ; 0xc931 <__heap_start+0x6095>
    314c: 8d 32 c9     	sta	$c932                   ; 0xc932 <__heap_start+0x6096>
    314f: 8d 33 c9     	sta	$c933                   ; 0xc933 <__heap_start+0x6097>
    3152: 8d 34 c9     	sta	$c934                   ; 0xc934 <__heap_start+0x6098>
    3155: 8d 35 c9     	sta	$c935                   ; 0xc935 <__heap_start+0x6099>
    3158: 8d 36 c9     	sta	$c936                   ; 0xc936 <__heap_start+0x609a>
    315b: 8d 37 c9     	sta	$c937                   ; 0xc937 <__heap_start+0x609b>
    315e: 8d 38 c9     	sta	$c938                   ; 0xc938 <__heap_start+0x609c>
    3161: 8d 39 c9     	sta	$c939                   ; 0xc939 <__heap_start+0x609d>
    3164: 8d 3a c9     	sta	$c93a                   ; 0xc93a <__heap_start+0x609e>
    3167: 8d 3b c9     	sta	$c93b                   ; 0xc93b <__heap_start+0x609f>
    316a: 8d 3c c9     	sta	$c93c                   ; 0xc93c <__heap_start+0x60a0>
    316d: 8d 3d c9     	sta	$c93d                   ; 0xc93d <__heap_start+0x60a1>
    3170: 8d 3e c9     	sta	$c93e                   ; 0xc93e <__heap_start+0x60a2>
    3173: 8d 3f c9     	sta	$c93f                   ; 0xc93f <__heap_start+0x60a3>
    3176: 8d 40 c9     	sta	$c940                   ; 0xc940 <__heap_start+0x60a4>
    3179: 8d 41 c9     	sta	$c941                   ; 0xc941 <__heap_start+0x60a5>
    317c: 8d 42 c9     	sta	$c942                   ; 0xc942 <__heap_start+0x60a6>
    317f: 8d 43 c9     	sta	$c943                   ; 0xc943 <__heap_start+0x60a7>
    3182: 8d 44 c9     	sta	$c944                   ; 0xc944 <__heap_start+0x60a8>
    3185: 8d 45 c9     	sta	$c945                   ; 0xc945 <__heap_start+0x60a9>
    3188: 8d 46 c9     	sta	$c946                   ; 0xc946 <__heap_start+0x60aa>
    318b: 8d 47 c9     	sta	$c947                   ; 0xc947 <__heap_start+0x60ab>
    318e: 8d 48 c9     	sta	$c948                   ; 0xc948 <__heap_start+0x60ac>
    3191: 8d 49 c9     	sta	$c949                   ; 0xc949 <__heap_start+0x60ad>
    3194: 8d 4a c9     	sta	$c94a                   ; 0xc94a <__heap_start+0x60ae>
    3197: 8d 4b c9     	sta	$c94b                   ; 0xc94b <__heap_start+0x60af>
    319a: 8d 4c c9     	sta	$c94c                   ; 0xc94c <__heap_start+0x60b0>
    319d: 8d 4d c9     	sta	$c94d                   ; 0xc94d <__heap_start+0x60b1>
    31a0: 8d 4e c9     	sta	$c94e                   ; 0xc94e <__heap_start+0x60b2>
    31a3: 8d 4f c9     	sta	$c94f                   ; 0xc94f <__heap_start+0x60b3>
    31a6: 8d 50 c9     	sta	$c950                   ; 0xc950 <__heap_start+0x60b4>
    31a9: 8d 51 c9     	sta	$c951                   ; 0xc951 <__heap_start+0x60b5>
    31ac: 8d 52 c9     	sta	$c952                   ; 0xc952 <__heap_start+0x60b6>
    31af: 8d 53 c9     	sta	$c953                   ; 0xc953 <__heap_start+0x60b7>
    31b2: 8d 54 c9     	sta	$c954                   ; 0xc954 <__heap_start+0x60b8>
    31b5: 8d 55 c9     	sta	$c955                   ; 0xc955 <__heap_start+0x60b9>
    31b8: 8d 56 c9     	sta	$c956                   ; 0xc956 <__heap_start+0x60ba>
    31bb: 8d 57 c9     	sta	$c957                   ; 0xc957 <__heap_start+0x60bb>
    31be: 8d 58 c9     	sta	$c958                   ; 0xc958 <__heap_start+0x60bc>
    31c1: 8d 59 c9     	sta	$c959                   ; 0xc959 <__heap_start+0x60bd>
    31c4: 8d 5a c9     	sta	$c95a                   ; 0xc95a <__heap_start+0x60be>
    31c7: 8d 5b c9     	sta	$c95b                   ; 0xc95b <__heap_start+0x60bf>
    31ca: 8d 5c c9     	sta	$c95c                   ; 0xc95c <__heap_start+0x60c0>
    31cd: 8d 5d c9     	sta	$c95d                   ; 0xc95d <__heap_start+0x60c1>
    31d0: 8d 5e c9     	sta	$c95e                   ; 0xc95e <__heap_start+0x60c2>
    31d3: 8d 5f c9     	sta	$c95f                   ; 0xc95f <__heap_start+0x60c3>
    31d6: 86 01        	stx	$1                      ; 0x2001 <main+0x1a82>
    31d8: a2 20        	ldx	#$20
    31da: 8e 10 c9     	stx	$c910                   ; 0xc910 <__heap_start+0x6074>
    31dd: 8e 11 c9     	stx	$c911                   ; 0xc911 <__heap_start+0x6075>
    31e0: 8e 12 c9     	stx	$c912                   ; 0xc912 <__heap_start+0x6076>
    31e3: 8e 13 c9     	stx	$c913                   ; 0xc913 <__heap_start+0x6077>
    31e6: 8e 14 c9     	stx	$c914                   ; 0xc914 <__heap_start+0x6078>
    31e9: 8e 15 c9     	stx	$c915                   ; 0xc915 <__heap_start+0x6079>
    31ec: 8e 16 c9     	stx	$c916                   ; 0xc916 <__heap_start+0x607a>
    31ef: 8e 17 c9     	stx	$c917                   ; 0xc917 <__heap_start+0x607b>
    31f2: 8e 18 c9     	stx	$c918                   ; 0xc918 <__heap_start+0x607c>
    31f5: 8e 19 c9     	stx	$c919                   ; 0xc919 <__heap_start+0x607d>
    31f8: 8e 1a c9     	stx	$c91a                   ; 0xc91a <__heap_start+0x607e>
    31fb: 8e 1b c9     	stx	$c91b                   ; 0xc91b <__heap_start+0x607f>
    31fe: 8e 1c c9     	stx	$c91c                   ; 0xc91c <__heap_start+0x6080>
    3201: 8e 1d c9     	stx	$c91d                   ; 0xc91d <__heap_start+0x6081>
    3204: 8e 1e c9     	stx	$c91e                   ; 0xc91e <__heap_start+0x6082>
    3207: 8e 1f c9     	stx	$c91f                   ; 0xc91f <__heap_start+0x6083>
    320a: 8e 20 c9     	stx	$c920                   ; 0xc920 <__heap_start+0x6084>
    320d: 8e 21 c9     	stx	$c921                   ; 0xc921 <__heap_start+0x6085>
    3210: 8e 22 c9     	stx	$c922                   ; 0xc922 <__heap_start+0x6086>
    3213: 8e 23 c9     	stx	$c923                   ; 0xc923 <__heap_start+0x6087>
    3216: 8e 24 c9     	stx	$c924                   ; 0xc924 <__heap_start+0x6088>
    3219: 8e 25 c9     	stx	$c925                   ; 0xc925 <__heap_start+0x6089>
    321c: 8e 26 c9     	stx	$c926                   ; 0xc926 <__heap_start+0x608a>
    321f: 8e 27 c9     	stx	$c927                   ; 0xc927 <__heap_start+0x608b>
    3222: 8e 28 c9     	stx	$c928                   ; 0xc928 <__heap_start+0x608c>
    3225: 8e 29 c9     	stx	$c929                   ; 0xc929 <__heap_start+0x608d>
    3228: 8e 2a c9     	stx	$c92a                   ; 0xc92a <__heap_start+0x608e>
    322b: 8e 2b c9     	stx	$c92b                   ; 0xc92b <__heap_start+0x608f>
    322e: 8e 2c c9     	stx	$c92c                   ; 0xc92c <__heap_start+0x6090>
    3231: 8e 2d c9     	stx	$c92d                   ; 0xc92d <__heap_start+0x6091>
    3234: 8e 2e c9     	stx	$c92e                   ; 0xc92e <__heap_start+0x6092>
    3237: 8e 2f c9     	stx	$c92f                   ; 0xc92f <__heap_start+0x6093>
    323a: 8e 30 c9     	stx	$c930                   ; 0xc930 <__heap_start+0x6094>
    323d: 8e 31 c9     	stx	$c931                   ; 0xc931 <__heap_start+0x6095>
    3240: 8e 32 c9     	stx	$c932                   ; 0xc932 <__heap_start+0x6096>
    3243: 8e 33 c9     	stx	$c933                   ; 0xc933 <__heap_start+0x6097>
    3246: 8e 34 c9     	stx	$c934                   ; 0xc934 <__heap_start+0x6098>
    3249: 8e 35 c9     	stx	$c935                   ; 0xc935 <__heap_start+0x6099>
    324c: 8e 36 c9     	stx	$c936                   ; 0xc936 <__heap_start+0x609a>
    324f: 8e 37 c9     	stx	$c937                   ; 0xc937 <__heap_start+0x609b>
    3252: 8e 38 c9     	stx	$c938                   ; 0xc938 <__heap_start+0x609c>
    3255: 8e 39 c9     	stx	$c939                   ; 0xc939 <__heap_start+0x609d>
    3258: 8e 3a c9     	stx	$c93a                   ; 0xc93a <__heap_start+0x609e>
    325b: 8e 3b c9     	stx	$c93b                   ; 0xc93b <__heap_start+0x609f>
    325e: 8e 3c c9     	stx	$c93c                   ; 0xc93c <__heap_start+0x60a0>
    3261: 8e 3d c9     	stx	$c93d                   ; 0xc93d <__heap_start+0x60a1>
    3264: 8e 3e c9     	stx	$c93e                   ; 0xc93e <__heap_start+0x60a2>
    3267: 8e 3f c9     	stx	$c93f                   ; 0xc93f <__heap_start+0x60a3>
    326a: 8e 40 c9     	stx	$c940                   ; 0xc940 <__heap_start+0x60a4>
    326d: 8e 41 c9     	stx	$c941                   ; 0xc941 <__heap_start+0x60a5>
    3270: 8e 42 c9     	stx	$c942                   ; 0xc942 <__heap_start+0x60a6>
    3273: 8e 43 c9     	stx	$c943                   ; 0xc943 <__heap_start+0x60a7>
    3276: 8e 44 c9     	stx	$c944                   ; 0xc944 <__heap_start+0x60a8>
    3279: 8e 45 c9     	stx	$c945                   ; 0xc945 <__heap_start+0x60a9>
    327c: 8e 46 c9     	stx	$c946                   ; 0xc946 <__heap_start+0x60aa>
    327f: 8e 47 c9     	stx	$c947                   ; 0xc947 <__heap_start+0x60ab>
    3282: 8e 48 c9     	stx	$c948                   ; 0xc948 <__heap_start+0x60ac>
    3285: 8e 49 c9     	stx	$c949                   ; 0xc949 <__heap_start+0x60ad>
    3288: 8e 4a c9     	stx	$c94a                   ; 0xc94a <__heap_start+0x60ae>
    328b: 8e 4b c9     	stx	$c94b                   ; 0xc94b <__heap_start+0x60af>
    328e: 8e 4c c9     	stx	$c94c                   ; 0xc94c <__heap_start+0x60b0>
    3291: 8e 4d c9     	stx	$c94d                   ; 0xc94d <__heap_start+0x60b1>
    3294: 8e 4e c9     	stx	$c94e                   ; 0xc94e <__heap_start+0x60b2>
    3297: 8e 4f c9     	stx	$c94f                   ; 0xc94f <__heap_start+0x60b3>
    329a: 8e 50 c9     	stx	$c950                   ; 0xc950 <__heap_start+0x60b4>
    329d: 8e 51 c9     	stx	$c951                   ; 0xc951 <__heap_start+0x60b5>
    32a0: 8e 52 c9     	stx	$c952                   ; 0xc952 <__heap_start+0x60b6>
    32a3: 8e 53 c9     	stx	$c953                   ; 0xc953 <__heap_start+0x60b7>
    32a6: 8e 54 c9     	stx	$c954                   ; 0xc954 <__heap_start+0x60b8>
    32a9: 8e 55 c9     	stx	$c955                   ; 0xc955 <__heap_start+0x60b9>
    32ac: 8e 56 c9     	stx	$c956                   ; 0xc956 <__heap_start+0x60ba>
    32af: 8e 57 c9     	stx	$c957                   ; 0xc957 <__heap_start+0x60bb>
    32b2: 8e 58 c9     	stx	$c958                   ; 0xc958 <__heap_start+0x60bc>
    32b5: 8e 59 c9     	stx	$c959                   ; 0xc959 <__heap_start+0x60bd>
    32b8: 8e 5a c9     	stx	$c95a                   ; 0xc95a <__heap_start+0x60be>
    32bb: 8e 5b c9     	stx	$c95b                   ; 0xc95b <__heap_start+0x60bf>
    32be: 8e 5c c9     	stx	$c95c                   ; 0xc95c <__heap_start+0x60c0>
    32c1: 8e 5d c9     	stx	$c95d                   ; 0xc95d <__heap_start+0x60c1>
    32c4: 8e 5e c9     	stx	$c95e                   ; 0xc95e <__heap_start+0x60c2>
    32c7: 8e 5f c9     	stx	$c95f                   ; 0xc95f <__heap_start+0x60c3>
    32ca: c6 62        	dec	$62                     ; 0x2062 <main+0x1ae3>
    32cc: 9c 08 de     	stz	$de08                   ; 0xde08 <__heap_start+0x756c>
    32cf: a2 c0        	ldx	#$c0
    32d1: 8e 09 de     	stx	$de09                   ; 0xde09 <__heap_start+0x756d>
    32d4: 9c 0a de     	stz	$de0a                   ; 0xde0a <__heap_start+0x756e>
    32d7: 9c 0b de     	stz	$de0b                   ; 0xde0b <__heap_start+0x756f>
    32da: a2 1d        	ldx	#$1d
    32dc: 8e 0c de     	stx	$de0c                   ; 0xde0c <__heap_start+0x7570>
    32df: 9c 0d de     	stz	$de0d                   ; 0xde0d <__heap_start+0x7571>
    32e2: 9c 0e de     	stz	$de0e                   ; 0xde0e <__heap_start+0x7572>
    32e5: 9c 0f de     	stz	$de0f                   ; 0xde0f <__heap_start+0x7573>
    32e8: ae 18 de     	ldx	$de18                   ; 0xde18 <__heap_start+0x757c>
    32eb: ac 19 de     	ldy	$de19                   ; 0xde19 <__heap_start+0x757d>
    32ee: ad 1a de     	lda	$de1a                   ; 0xde1a <__heap_start+0x757e>
    32f1: 86 14        	stx	$14                     ; 0x2014 <main+0x1a95>
    32f3: ae 1b de     	ldx	$de1b                   ; 0xde1b <__heap_start+0x757f>
    32f6: 84 15        	sty	$15                     ; 0x2015 <main+0x1a96>
    32f8: e6 12        	inc	$12                     ; 0x2012 <main+0x1a93>
    32fa: d0 17        	bne	$3313 <main+0x2d94>
    32fc: e6 13        	inc	$13                     ; 0x2013 <main+0x1a94>
    32fe: 80 13        	bra	$3313 <main+0x2d94>
    3300: a5 14        	lda	$14                     ; 0x2014 <main+0x1a95>
    3302: 18           	clc
    3303: 69 50        	adc	#$50
    3305: 85 14        	sta	$14                     ; 0x2014 <main+0x1a95>
    3307: a5 15        	lda	$15                     ; 0x2015 <main+0x1a96>
    3309: 69 00        	adc	#$0
    330b: 85 15        	sta	$15                     ; 0x2015 <main+0x1a96>
    330d: e6 12        	inc	$12                     ; 0x2012 <main+0x1a93>
    330f: d0 02        	bne	$3313 <main+0x2d94>
    3311: e6 13        	inc	$13                     ; 0x2013 <main+0x1a94>
    3313: a9 40        	lda	#$40
    3315: 18           	clc
    3316: 65 12        	adc	$12                     ; 0x2012 <main+0x1a93>
    3318: 85 16        	sta	$16                     ; 0x2016 <main+0x1a97>
    331a: a9 67        	lda	#$67
    331c: 65 13        	adc	$13                     ; 0x2013 <main+0x1a94>
    331e: 85 17        	sta	$17                     ; 0x2017 <main+0x1a98>
    3320: b2 16        	lda	($16)                   ; 0x2016 <main+0x1a97>
    3322: c9 0a        	cmp	#$a
    3324: f0 27        	beq	$334d <main+0x2dce>
    3326: c9 0d        	cmp	#$d
    3328: f0 23        	beq	$334d <main+0x2dce>
    332a: aa           	tax
    332b: f0 47        	beq	$3374 <main+0x2df5>
    332d: a2 03        	ldx	#$3
    332f: 86 01        	stx	$1                      ; 0x2001 <main+0x1a82>
    3331: a6 60        	ldx	$60                     ; 0x2060 <main+0x1ae1>
    3333: a4 61        	ldy	$61                     ; 0x2061 <main+0x1ae2>
    3335: 85 17        	sta	$17                     ; 0x2017 <main+0x1a98>
    3337: 8a           	txa
    3338: 91 14        	sta	($14),y                 ; 0x2014 <main+0x1a95>
    333a: a2 02        	ldx	#$2
    333c: 86 01        	stx	$1                      ; 0x2001 <main+0x1a82>
    333e: a4 61        	ldy	$61                     ; 0x2061 <main+0x1ae2>
    3340: a5 17        	lda	$17                     ; 0x2017 <main+0x1a98>
    3342: 91 14        	sta	($14),y                 ; 0x2014 <main+0x1a95>
    3344: a6 61        	ldx	$61                     ; 0x2061 <main+0x1ae2>
    3346: e8           	inx
    3347: e6 61        	inc	$61                     ; 0x2061 <main+0x1ae2>
    3349: e0 50        	cpx	#$50
    334b: d0 c0        	bne	$330d <main+0x2d8e>
    334d: 64 61        	stz	$61                     ; 0x2061 <main+0x1ae2>
    334f: a6 62        	ldx	$62                     ; 0x2062 <main+0x1ae3>
    3351: e8           	inx
    3352: e6 62        	inc	$62                     ; 0x2062 <main+0x1ae3>
    3354: e0 1e        	cpx	#$1e
    3356: f0 03        	beq	$335b <main+0x2ddc>
    3358: 4c 00 33     	jmp	$3300 <main+0x2d81>
    335b: a2 03        	ldx	#$3
    335d: 86 01        	stx	$1                      ; 0x2001 <main+0x1a82>
    335f: a2 09        	ldx	#$9
    3361: a9 10        	lda	#$10
    3363: a4 26        	ldy	$26                     ; 0x2026 <main+0x1aa7>
    3365: 84 14        	sty	$14                     ; 0x2014 <main+0x1a95>
    3367: a4 27        	ldy	$27                     ; 0x2027 <main+0x1aa8>
    3369: 84 15        	sty	$15                     ; 0x2015 <main+0x1a96>
    336b: 85 17        	sta	$17                     ; 0x2017 <main+0x1a98>
    336d: 86 16        	stx	$16                     ; 0x2016 <main+0x1a97>
    336f: a0 50        	ldy	#$50
    3371: 4c 80 30     	jmp	$3080 <main+0x2b01>
    3374: a9 10        	lda	#$10
    3376: a6 18        	ldx	$18                     ; 0x2018 <main+0x1a99>
    3378: e0 01        	cpx	#$1
    337a: d0 02        	bne	$337e <main+0x2dff>
    337c: a9 00        	lda	#$0
    337e: a6 19        	ldx	$19                     ; 0x2019 <main+0x1a9a>
    3380: 86 01        	stx	$1                      ; 0x2001 <main+0x1a82>
    3382: a6 61        	ldx	$61                     ; 0x2061 <main+0x1ae2>
    3384: a4 62        	ldy	$62                     ; 0x2062 <main+0x1ae3>
    3386: 8e 14 d0     	stx	$d014                   ; 0xd014 <__heap_start+0x6778>
    3389: 9c 15 d0     	stz	$d015                   ; 0xd015 <__heap_start+0x6779>
    338c: 8c 16 d0     	sty	$d016                   ; 0xd016 <__heap_start+0x677a>
    338f: 9c 17 d0     	stz	$d017                   ; 0xd017 <__heap_start+0x677b>
    3392: 85 60        	sta	$60                     ; 0x2060 <main+0x1ae1>
    3394: a2 47        	ldx	#$47
    3396: 86 61        	stx	$61                     ; 0x2061 <main+0x1ae2>
    3398: 8e 14 d0     	stx	$d014                   ; 0xd014 <__heap_start+0x6778>
    339b: 9c 15 d0     	stz	$d015                   ; 0xd015 <__heap_start+0x6779>
    339e: a2 18        	ldx	#$18
    33a0: 86 62        	stx	$62                     ; 0x2062 <main+0x1ae3>
    33a2: 8e 16 d0     	stx	$d016                   ; 0xd016 <__heap_start+0x677a>
    33a5: 9c 17 d0     	stz	$d017                   ; 0xd017 <__heap_start+0x677b>
    33a8: a6 01        	ldx	$1                      ; 0x2001 <main+0x1a82>
    33aa: 86 19        	stx	$19                     ; 0x2019 <main+0x1a9a>
    33ac: a6 62        	ldx	$62                     ; 0x2062 <main+0x1ae3>
    33ae: a0 50        	ldy	#$50
    33b0: 8c 00 de     	sty	$de00                   ; 0xde00 <__heap_start+0x7564>
    33b3: 9c 01 de     	stz	$de01                   ; 0xde01 <__heap_start+0x7565>
    33b6: 8e 02 de     	stx	$de02                   ; 0xde02 <__heap_start+0x7566>
    33b9: 9c 03 de     	stz	$de03                   ; 0xde03 <__heap_start+0x7567>
    33bc: ae 10 de     	ldx	$de10                   ; 0xde10 <__heap_start+0x7574>
    33bf: ac 11 de     	ldy	$de11                   ; 0xde11 <__heap_start+0x7575>
    33c2: ad 12 de     	lda	$de12                   ; 0xde12 <__heap_start+0x7576>
    33c5: 85 13        	sta	$13                     ; 0x2013 <main+0x1a94>
    33c7: ad 13 de     	lda	$de13                   ; 0xde13 <__heap_start+0x7577>
    33ca: 85 14        	sta	$14                     ; 0x2014 <main+0x1a95>
    33cc: 9c 08 de     	stz	$de08                   ; 0xde08 <__heap_start+0x756c>
    33cf: a9 c0        	lda	#$c0
    33d1: 8d 09 de     	sta	$de09                   ; 0xde09 <__heap_start+0x756d>
    33d4: 9c 0a de     	stz	$de0a                   ; 0xde0a <__heap_start+0x756e>
    33d7: 9c 0b de     	stz	$de0b                   ; 0xde0b <__heap_start+0x756f>
    33da: 8e 0c de     	stx	$de0c                   ; 0xde0c <__heap_start+0x7570>
    33dd: 8c 0d de     	sty	$de0d                   ; 0xde0d <__heap_start+0x7571>
    33e0: 64 12        	stz	$12                     ; 0x2012 <main+0x1a93>
    33e2: a6 13        	ldx	$13                     ; 0x2013 <main+0x1a94>
    33e4: 8e 0e de     	stx	$de0e                   ; 0xde0e <__heap_start+0x7572>
    33e7: a6 14        	ldx	$14                     ; 0x2014 <main+0x1a95>
    33e9: 8e 0f de     	stx	$de0f                   ; 0xde0f <__heap_start+0x7573>
    33ec: ae 18 de     	ldx	$de18                   ; 0xde18 <__heap_start+0x757c>
    33ef: ac 19 de     	ldy	$de19                   ; 0xde19 <__heap_start+0x757d>
    33f2: 86 14        	stx	$14                     ; 0x2014 <main+0x1a95>
    33f4: ae 1a de     	ldx	$de1a                   ; 0xde1a <__heap_start+0x757e>
    33f7: 84 15        	sty	$15                     ; 0x2015 <main+0x1a96>
    33f9: ae 1b de     	ldx	$de1b                   ; 0xde1b <__heap_start+0x757f>
    33fc: 64 13        	stz	$13                     ; 0x2013 <main+0x1a94>
    33fe: 4c 98 36     	jmp	$3698 <main+0x3119>
    3401: a5 16        	lda	$16                     ; 0x2016 <main+0x1a97>
    3403: f0 1c        	beq	$3421 <main+0x2ea2>
    3405: b1 14        	lda	($14),y                 ; 0x2014 <main+0x1a95>
    3407: 92 14        	sta	($14)                   ; 0x2014 <main+0x1a95>
    3409: a2 ff        	ldx	#$ff
    340b: c6 17        	dec	$17                     ; 0x2017 <main+0x1a98>
    340d: e4 17        	cpx	$17                     ; 0x2017 <main+0x1a98>
    340f: f0 06        	beq	$3417 <main+0x2e98>
    3411: e6 14        	inc	$14                     ; 0x2014 <main+0x1a95>
    3413: d0 ec        	bne	$3401 <main+0x2e82>
    3415: 80 06        	bra	$341d <main+0x2e9e>
    3417: c6 16        	dec	$16                     ; 0x2016 <main+0x1a97>
    3419: e6 14        	inc	$14                     ; 0x2014 <main+0x1a95>
    341b: d0 e4        	bne	$3401 <main+0x2e82>
    341d: e6 15        	inc	$15                     ; 0x2015 <main+0x1a96>
    341f: 80 e0        	bra	$3401 <main+0x2e82>
    3421: a5 17        	lda	$17                     ; 0x2017 <main+0x1a98>
    3423: d0 e0        	bne	$3405 <main+0x2e86>
    3425: a2 02        	ldx	#$2
    3427: 86 01        	stx	$1                      ; 0x2001 <main+0x1a82>
    3429: a2 09        	ldx	#$9
    342b: a9 10        	lda	#$10
    342d: 5a           	phy
    342e: a4 26        	ldy	$26                     ; 0x2026 <main+0x1aa7>
    3430: 84 14        	sty	$14                     ; 0x2014 <main+0x1a95>
    3432: a4 27        	ldy	$27                     ; 0x2027 <main+0x1aa8>
    3434: 84 15        	sty	$15                     ; 0x2015 <main+0x1a96>
    3436: 7a           	ply
    3437: 85 17        	sta	$17                     ; 0x2017 <main+0x1a98>
    3439: 86 16        	stx	$16                     ; 0x2016 <main+0x1a97>
    343b: 80 04        	bra	$3441 <main+0x2ec2>
    343d: a5 16        	lda	$16                     ; 0x2016 <main+0x1a97>
    343f: f0 1c        	beq	$345d <main+0x2ede>
    3441: b1 14        	lda	($14),y                 ; 0x2014 <main+0x1a95>
    3443: 92 14        	sta	($14)                   ; 0x2014 <main+0x1a95>
    3445: a2 ff        	ldx	#$ff
    3447: c6 17        	dec	$17                     ; 0x2017 <main+0x1a98>
    3449: e4 17        	cpx	$17                     ; 0x2017 <main+0x1a98>
    344b: f0 06        	beq	$3453 <main+0x2ed4>
    344d: e6 14        	inc	$14                     ; 0x2014 <main+0x1a95>
    344f: d0 ec        	bne	$343d <main+0x2ebe>
    3451: 80 06        	bra	$3459 <main+0x2eda>
    3453: c6 16        	dec	$16                     ; 0x2016 <main+0x1a97>
    3455: e6 14        	inc	$14                     ; 0x2014 <main+0x1a95>
    3457: d0 e4        	bne	$343d <main+0x2ebe>
    3459: e6 15        	inc	$15                     ; 0x2015 <main+0x1a96>
    345b: 80 e0        	bra	$343d <main+0x2ebe>
    345d: a5 17        	lda	$17                     ; 0x2017 <main+0x1a98>
    345f: d0 e0        	bne	$3441 <main+0x2ec2>
    3461: a2 02        	ldx	#$2
    3463: 86 01        	stx	$1                      ; 0x2001 <main+0x1a82>
    3465: a0 03        	ldy	#$3
    3467: 84 01        	sty	$1                      ; 0x2001 <main+0x1a82>
    3469: a5 60        	lda	$60                     ; 0x2060 <main+0x1ae1>
    346b: 8d 10 c9     	sta	$c910                   ; 0xc910 <__heap_start+0x6074>
    346e: 8d 11 c9     	sta	$c911                   ; 0xc911 <__heap_start+0x6075>
    3471: 8d 12 c9     	sta	$c912                   ; 0xc912 <__heap_start+0x6076>
    3474: 8d 13 c9     	sta	$c913                   ; 0xc913 <__heap_start+0x6077>
    3477: 8d 14 c9     	sta	$c914                   ; 0xc914 <__heap_start+0x6078>
    347a: 8d 15 c9     	sta	$c915                   ; 0xc915 <__heap_start+0x6079>
    347d: 8d 16 c9     	sta	$c916                   ; 0xc916 <__heap_start+0x607a>
    3480: 8d 17 c9     	sta	$c917                   ; 0xc917 <__heap_start+0x607b>
    3483: 8d 18 c9     	sta	$c918                   ; 0xc918 <__heap_start+0x607c>
    3486: 8d 19 c9     	sta	$c919                   ; 0xc919 <__heap_start+0x607d>
    3489: 8d 1a c9     	sta	$c91a                   ; 0xc91a <__heap_start+0x607e>
    348c: 8d 1b c9     	sta	$c91b                   ; 0xc91b <__heap_start+0x607f>
    348f: 8d 1c c9     	sta	$c91c                   ; 0xc91c <__heap_start+0x6080>
    3492: 8d 1d c9     	sta	$c91d                   ; 0xc91d <__heap_start+0x6081>
    3495: 8d 1e c9     	sta	$c91e                   ; 0xc91e <__heap_start+0x6082>
    3498: 8d 1f c9     	sta	$c91f                   ; 0xc91f <__heap_start+0x6083>
    349b: 8d 20 c9     	sta	$c920                   ; 0xc920 <__heap_start+0x6084>
    349e: 8d 21 c9     	sta	$c921                   ; 0xc921 <__heap_start+0x6085>
    34a1: 8d 22 c9     	sta	$c922                   ; 0xc922 <__heap_start+0x6086>
    34a4: 8d 23 c9     	sta	$c923                   ; 0xc923 <__heap_start+0x6087>
    34a7: 8d 24 c9     	sta	$c924                   ; 0xc924 <__heap_start+0x6088>
    34aa: 8d 25 c9     	sta	$c925                   ; 0xc925 <__heap_start+0x6089>
    34ad: 8d 26 c9     	sta	$c926                   ; 0xc926 <__heap_start+0x608a>
    34b0: 8d 27 c9     	sta	$c927                   ; 0xc927 <__heap_start+0x608b>
    34b3: 8d 28 c9     	sta	$c928                   ; 0xc928 <__heap_start+0x608c>
    34b6: 8d 29 c9     	sta	$c929                   ; 0xc929 <__heap_start+0x608d>
    34b9: 8d 2a c9     	sta	$c92a                   ; 0xc92a <__heap_start+0x608e>
    34bc: 8d 2b c9     	sta	$c92b                   ; 0xc92b <__heap_start+0x608f>
    34bf: 8d 2c c9     	sta	$c92c                   ; 0xc92c <__heap_start+0x6090>
    34c2: 8d 2d c9     	sta	$c92d                   ; 0xc92d <__heap_start+0x6091>
    34c5: 8d 2e c9     	sta	$c92e                   ; 0xc92e <__heap_start+0x6092>
    34c8: 8d 2f c9     	sta	$c92f                   ; 0xc92f <__heap_start+0x6093>
    34cb: 8d 30 c9     	sta	$c930                   ; 0xc930 <__heap_start+0x6094>
    34ce: 8d 31 c9     	sta	$c931                   ; 0xc931 <__heap_start+0x6095>
    34d1: 8d 32 c9     	sta	$c932                   ; 0xc932 <__heap_start+0x6096>
    34d4: 8d 33 c9     	sta	$c933                   ; 0xc933 <__heap_start+0x6097>
    34d7: 8d 34 c9     	sta	$c934                   ; 0xc934 <__heap_start+0x6098>
    34da: 8d 35 c9     	sta	$c935                   ; 0xc935 <__heap_start+0x6099>
    34dd: 8d 36 c9     	sta	$c936                   ; 0xc936 <__heap_start+0x609a>
    34e0: 8d 37 c9     	sta	$c937                   ; 0xc937 <__heap_start+0x609b>
    34e3: 8d 38 c9     	sta	$c938                   ; 0xc938 <__heap_start+0x609c>
    34e6: 8d 39 c9     	sta	$c939                   ; 0xc939 <__heap_start+0x609d>
    34e9: 8d 3a c9     	sta	$c93a                   ; 0xc93a <__heap_start+0x609e>
    34ec: 8d 3b c9     	sta	$c93b                   ; 0xc93b <__heap_start+0x609f>
    34ef: 8d 3c c9     	sta	$c93c                   ; 0xc93c <__heap_start+0x60a0>
    34f2: 8d 3d c9     	sta	$c93d                   ; 0xc93d <__heap_start+0x60a1>
    34f5: 8d 3e c9     	sta	$c93e                   ; 0xc93e <__heap_start+0x60a2>
    34f8: 8d 3f c9     	sta	$c93f                   ; 0xc93f <__heap_start+0x60a3>
    34fb: 8d 40 c9     	sta	$c940                   ; 0xc940 <__heap_start+0x60a4>
    34fe: 8d 41 c9     	sta	$c941                   ; 0xc941 <__heap_start+0x60a5>
    3501: 8d 42 c9     	sta	$c942                   ; 0xc942 <__heap_start+0x60a6>
    3504: 8d 43 c9     	sta	$c943                   ; 0xc943 <__heap_start+0x60a7>
    3507: 8d 44 c9     	sta	$c944                   ; 0xc944 <__heap_start+0x60a8>
    350a: 8d 45 c9     	sta	$c945                   ; 0xc945 <__heap_start+0x60a9>
    350d: 8d 46 c9     	sta	$c946                   ; 0xc946 <__heap_start+0x60aa>
    3510: 8d 47 c9     	sta	$c947                   ; 0xc947 <__heap_start+0x60ab>
    3513: 8d 48 c9     	sta	$c948                   ; 0xc948 <__heap_start+0x60ac>
    3516: 8d 49 c9     	sta	$c949                   ; 0xc949 <__heap_start+0x60ad>
    3519: 8d 4a c9     	sta	$c94a                   ; 0xc94a <__heap_start+0x60ae>
    351c: 8d 4b c9     	sta	$c94b                   ; 0xc94b <__heap_start+0x60af>
    351f: 8d 4c c9     	sta	$c94c                   ; 0xc94c <__heap_start+0x60b0>
    3522: 8d 4d c9     	sta	$c94d                   ; 0xc94d <__heap_start+0x60b1>
    3525: 8d 4e c9     	sta	$c94e                   ; 0xc94e <__heap_start+0x60b2>
    3528: 8d 4f c9     	sta	$c94f                   ; 0xc94f <__heap_start+0x60b3>
    352b: 8d 50 c9     	sta	$c950                   ; 0xc950 <__heap_start+0x60b4>
    352e: 8d 51 c9     	sta	$c951                   ; 0xc951 <__heap_start+0x60b5>
    3531: 8d 52 c9     	sta	$c952                   ; 0xc952 <__heap_start+0x60b6>
    3534: 8d 53 c9     	sta	$c953                   ; 0xc953 <__heap_start+0x60b7>
    3537: 8d 54 c9     	sta	$c954                   ; 0xc954 <__heap_start+0x60b8>
    353a: 8d 55 c9     	sta	$c955                   ; 0xc955 <__heap_start+0x60b9>
    353d: 8d 56 c9     	sta	$c956                   ; 0xc956 <__heap_start+0x60ba>
    3540: 8d 57 c9     	sta	$c957                   ; 0xc957 <__heap_start+0x60bb>
    3543: 8d 58 c9     	sta	$c958                   ; 0xc958 <__heap_start+0x60bc>
    3546: 8d 59 c9     	sta	$c959                   ; 0xc959 <__heap_start+0x60bd>
    3549: 8d 5a c9     	sta	$c95a                   ; 0xc95a <__heap_start+0x60be>
    354c: 8d 5b c9     	sta	$c95b                   ; 0xc95b <__heap_start+0x60bf>
    354f: 8d 5c c9     	sta	$c95c                   ; 0xc95c <__heap_start+0x60c0>
    3552: 8d 5d c9     	sta	$c95d                   ; 0xc95d <__heap_start+0x60c1>
    3555: 8d 5e c9     	sta	$c95e                   ; 0xc95e <__heap_start+0x60c2>
    3558: 8d 5f c9     	sta	$c95f                   ; 0xc95f <__heap_start+0x60c3>
    355b: 86 01        	stx	$1                      ; 0x2001 <main+0x1a82>
    355d: a2 20        	ldx	#$20
    355f: 8e 10 c9     	stx	$c910                   ; 0xc910 <__heap_start+0x6074>
    3562: 8e 11 c9     	stx	$c911                   ; 0xc911 <__heap_start+0x6075>
    3565: 8e 12 c9     	stx	$c912                   ; 0xc912 <__heap_start+0x6076>
    3568: 8e 13 c9     	stx	$c913                   ; 0xc913 <__heap_start+0x6077>
    356b: 8e 14 c9     	stx	$c914                   ; 0xc914 <__heap_start+0x6078>
    356e: 8e 15 c9     	stx	$c915                   ; 0xc915 <__heap_start+0x6079>
    3571: 8e 16 c9     	stx	$c916                   ; 0xc916 <__heap_start+0x607a>
    3574: 8e 17 c9     	stx	$c917                   ; 0xc917 <__heap_start+0x607b>
    3577: 8e 18 c9     	stx	$c918                   ; 0xc918 <__heap_start+0x607c>
    357a: 8e 19 c9     	stx	$c919                   ; 0xc919 <__heap_start+0x607d>
    357d: 8e 1a c9     	stx	$c91a                   ; 0xc91a <__heap_start+0x607e>
    3580: 8e 1b c9     	stx	$c91b                   ; 0xc91b <__heap_start+0x607f>
    3583: 8e 1c c9     	stx	$c91c                   ; 0xc91c <__heap_start+0x6080>
    3586: 8e 1d c9     	stx	$c91d                   ; 0xc91d <__heap_start+0x6081>
    3589: 8e 1e c9     	stx	$c91e                   ; 0xc91e <__heap_start+0x6082>
    358c: 8e 1f c9     	stx	$c91f                   ; 0xc91f <__heap_start+0x6083>
    358f: 8e 20 c9     	stx	$c920                   ; 0xc920 <__heap_start+0x6084>
    3592: 8e 21 c9     	stx	$c921                   ; 0xc921 <__heap_start+0x6085>
    3595: 8e 22 c9     	stx	$c922                   ; 0xc922 <__heap_start+0x6086>
    3598: 8e 23 c9     	stx	$c923                   ; 0xc923 <__heap_start+0x6087>
    359b: 8e 24 c9     	stx	$c924                   ; 0xc924 <__heap_start+0x6088>
    359e: 8e 25 c9     	stx	$c925                   ; 0xc925 <__heap_start+0x6089>
    35a1: 8e 26 c9     	stx	$c926                   ; 0xc926 <__heap_start+0x608a>
    35a4: 8e 27 c9     	stx	$c927                   ; 0xc927 <__heap_start+0x608b>
    35a7: 8e 28 c9     	stx	$c928                   ; 0xc928 <__heap_start+0x608c>
    35aa: 8e 29 c9     	stx	$c929                   ; 0xc929 <__heap_start+0x608d>
    35ad: 8e 2a c9     	stx	$c92a                   ; 0xc92a <__heap_start+0x608e>
    35b0: 8e 2b c9     	stx	$c92b                   ; 0xc92b <__heap_start+0x608f>
    35b3: 8e 2c c9     	stx	$c92c                   ; 0xc92c <__heap_start+0x6090>
    35b6: 8e 2d c9     	stx	$c92d                   ; 0xc92d <__heap_start+0x6091>
    35b9: 8e 2e c9     	stx	$c92e                   ; 0xc92e <__heap_start+0x6092>
    35bc: 8e 2f c9     	stx	$c92f                   ; 0xc92f <__heap_start+0x6093>
    35bf: 8e 30 c9     	stx	$c930                   ; 0xc930 <__heap_start+0x6094>
    35c2: 8e 31 c9     	stx	$c931                   ; 0xc931 <__heap_start+0x6095>
    35c5: 8e 32 c9     	stx	$c932                   ; 0xc932 <__heap_start+0x6096>
    35c8: 8e 33 c9     	stx	$c933                   ; 0xc933 <__heap_start+0x6097>
    35cb: 8e 34 c9     	stx	$c934                   ; 0xc934 <__heap_start+0x6098>
    35ce: 8e 35 c9     	stx	$c935                   ; 0xc935 <__heap_start+0x6099>
    35d1: 8e 36 c9     	stx	$c936                   ; 0xc936 <__heap_start+0x609a>
    35d4: 8e 37 c9     	stx	$c937                   ; 0xc937 <__heap_start+0x609b>
    35d7: 8e 38 c9     	stx	$c938                   ; 0xc938 <__heap_start+0x609c>
    35da: 8e 39 c9     	stx	$c939                   ; 0xc939 <__heap_start+0x609d>
    35dd: 8e 3a c9     	stx	$c93a                   ; 0xc93a <__heap_start+0x609e>
    35e0: 8e 3b c9     	stx	$c93b                   ; 0xc93b <__heap_start+0x609f>
    35e3: 8e 3c c9     	stx	$c93c                   ; 0xc93c <__heap_start+0x60a0>
    35e6: 8e 3d c9     	stx	$c93d                   ; 0xc93d <__heap_start+0x60a1>
    35e9: 8e 3e c9     	stx	$c93e                   ; 0xc93e <__heap_start+0x60a2>
    35ec: 8e 3f c9     	stx	$c93f                   ; 0xc93f <__heap_start+0x60a3>
    35ef: 8e 40 c9     	stx	$c940                   ; 0xc940 <__heap_start+0x60a4>
    35f2: 8e 41 c9     	stx	$c941                   ; 0xc941 <__heap_start+0x60a5>
    35f5: 8e 42 c9     	stx	$c942                   ; 0xc942 <__heap_start+0x60a6>
    35f8: 8e 43 c9     	stx	$c943                   ; 0xc943 <__heap_start+0x60a7>
    35fb: 8e 44 c9     	stx	$c944                   ; 0xc944 <__heap_start+0x60a8>
    35fe: 8e 45 c9     	stx	$c945                   ; 0xc945 <__heap_start+0x60a9>
    3601: 8e 46 c9     	stx	$c946                   ; 0xc946 <__heap_start+0x60aa>
    3604: 8e 47 c9     	stx	$c947                   ; 0xc947 <__heap_start+0x60ab>
    3607: 8e 48 c9     	stx	$c948                   ; 0xc948 <__heap_start+0x60ac>
    360a: 8e 49 c9     	stx	$c949                   ; 0xc949 <__heap_start+0x60ad>
    360d: 8e 4a c9     	stx	$c94a                   ; 0xc94a <__heap_start+0x60ae>
    3610: 8e 4b c9     	stx	$c94b                   ; 0xc94b <__heap_start+0x60af>
    3613: 8e 4c c9     	stx	$c94c                   ; 0xc94c <__heap_start+0x60b0>
    3616: 8e 4d c9     	stx	$c94d                   ; 0xc94d <__heap_start+0x60b1>
    3619: 8e 4e c9     	stx	$c94e                   ; 0xc94e <__heap_start+0x60b2>
    361c: 8e 4f c9     	stx	$c94f                   ; 0xc94f <__heap_start+0x60b3>
    361f: 8e 50 c9     	stx	$c950                   ; 0xc950 <__heap_start+0x60b4>
    3622: 8e 51 c9     	stx	$c951                   ; 0xc951 <__heap_start+0x60b5>
    3625: 8e 52 c9     	stx	$c952                   ; 0xc952 <__heap_start+0x60b6>
    3628: 8e 53 c9     	stx	$c953                   ; 0xc953 <__heap_start+0x60b7>
    362b: 8e 54 c9     	stx	$c954                   ; 0xc954 <__heap_start+0x60b8>
    362e: 8e 55 c9     	stx	$c955                   ; 0xc955 <__heap_start+0x60b9>
    3631: 8e 56 c9     	stx	$c956                   ; 0xc956 <__heap_start+0x60ba>
    3634: 8e 57 c9     	stx	$c957                   ; 0xc957 <__heap_start+0x60bb>
    3637: 8e 58 c9     	stx	$c958                   ; 0xc958 <__heap_start+0x60bc>
    363a: 8e 59 c9     	stx	$c959                   ; 0xc959 <__heap_start+0x60bd>
    363d: 8e 5a c9     	stx	$c95a                   ; 0xc95a <__heap_start+0x60be>
    3640: 8e 5b c9     	stx	$c95b                   ; 0xc95b <__heap_start+0x60bf>
    3643: 8e 5c c9     	stx	$c95c                   ; 0xc95c <__heap_start+0x60c0>
    3646: 8e 5d c9     	stx	$c95d                   ; 0xc95d <__heap_start+0x60c1>
    3649: 8e 5e c9     	stx	$c95e                   ; 0xc95e <__heap_start+0x60c2>
    364c: 8e 5f c9     	stx	$c95f                   ; 0xc95f <__heap_start+0x60c3>
    364f: c6 62        	dec	$62                     ; 0x2062 <main+0x1ae3>
    3651: 9c 08 de     	stz	$de08                   ; 0xde08 <__heap_start+0x756c>
    3654: a2 c0        	ldx	#$c0
    3656: 8e 09 de     	stx	$de09                   ; 0xde09 <__heap_start+0x756d>
    3659: 9c 0a de     	stz	$de0a                   ; 0xde0a <__heap_start+0x756e>
    365c: 9c 0b de     	stz	$de0b                   ; 0xde0b <__heap_start+0x756f>
    365f: a2 1d        	ldx	#$1d
    3661: 8e 0c de     	stx	$de0c                   ; 0xde0c <__heap_start+0x7570>
    3664: 9c 0d de     	stz	$de0d                   ; 0xde0d <__heap_start+0x7571>
    3667: 9c 0e de     	stz	$de0e                   ; 0xde0e <__heap_start+0x7572>
    366a: 9c 0f de     	stz	$de0f                   ; 0xde0f <__heap_start+0x7573>
    366d: ae 18 de     	ldx	$de18                   ; 0xde18 <__heap_start+0x757c>
    3670: ac 19 de     	ldy	$de19                   ; 0xde19 <__heap_start+0x757d>
    3673: ad 1a de     	lda	$de1a                   ; 0xde1a <__heap_start+0x757e>
    3676: 86 14        	stx	$14                     ; 0x2014 <main+0x1a95>
    3678: ae 1b de     	ldx	$de1b                   ; 0xde1b <__heap_start+0x757f>
    367b: 84 15        	sty	$15                     ; 0x2015 <main+0x1a96>
    367d: e6 12        	inc	$12                     ; 0x2012 <main+0x1a93>
    367f: d0 17        	bne	$3698 <main+0x3119>
    3681: e6 13        	inc	$13                     ; 0x2013 <main+0x1a94>
    3683: 80 13        	bra	$3698 <main+0x3119>
    3685: a5 14        	lda	$14                     ; 0x2014 <main+0x1a95>
    3687: 18           	clc
    3688: 69 50        	adc	#$50
    368a: 85 14        	sta	$14                     ; 0x2014 <main+0x1a95>
    368c: a5 15        	lda	$15                     ; 0x2015 <main+0x1a96>
    368e: 69 00        	adc	#$0
    3690: 85 15        	sta	$15                     ; 0x2015 <main+0x1a96>
    3692: e6 12        	inc	$12                     ; 0x2012 <main+0x1a93>
    3694: d0 02        	bne	$3698 <main+0x3119>
    3696: e6 13        	inc	$13                     ; 0x2013 <main+0x1a94>
    3698: a9 95        	lda	#$95
    369a: 18           	clc
    369b: 65 12        	adc	$12                     ; 0x2012 <main+0x1a93>
    369d: 85 16        	sta	$16                     ; 0x2016 <main+0x1a97>
    369f: a9 66        	lda	#$66
    36a1: 65 13        	adc	$13                     ; 0x2013 <main+0x1a94>
    36a3: 85 17        	sta	$17                     ; 0x2017 <main+0x1a98>
    36a5: b2 16        	lda	($16)                   ; 0x2016 <main+0x1a97>
    36a7: c9 0a        	cmp	#$a
    36a9: f0 27        	beq	$36d2 <main+0x3153>
    36ab: c9 0d        	cmp	#$d
    36ad: f0 23        	beq	$36d2 <main+0x3153>
    36af: aa           	tax
    36b0: f0 47        	beq	$36f9 <main+0x317a>
    36b2: a2 03        	ldx	#$3
    36b4: 86 01        	stx	$1                      ; 0x2001 <main+0x1a82>
    36b6: a6 60        	ldx	$60                     ; 0x2060 <main+0x1ae1>
    36b8: a4 61        	ldy	$61                     ; 0x2061 <main+0x1ae2>
    36ba: 85 17        	sta	$17                     ; 0x2017 <main+0x1a98>
    36bc: 8a           	txa
    36bd: 91 14        	sta	($14),y                 ; 0x2014 <main+0x1a95>
    36bf: a2 02        	ldx	#$2
    36c1: 86 01        	stx	$1                      ; 0x2001 <main+0x1a82>
    36c3: a4 61        	ldy	$61                     ; 0x2061 <main+0x1ae2>
    36c5: a5 17        	lda	$17                     ; 0x2017 <main+0x1a98>
    36c7: 91 14        	sta	($14),y                 ; 0x2014 <main+0x1a95>
    36c9: a6 61        	ldx	$61                     ; 0x2061 <main+0x1ae2>
    36cb: e8           	inx
    36cc: e6 61        	inc	$61                     ; 0x2061 <main+0x1ae2>
    36ce: e0 50        	cpx	#$50
    36d0: d0 c0        	bne	$3692 <main+0x3113>
    36d2: 64 61        	stz	$61                     ; 0x2061 <main+0x1ae2>
    36d4: a6 62        	ldx	$62                     ; 0x2062 <main+0x1ae3>
    36d6: e8           	inx
    36d7: e6 62        	inc	$62                     ; 0x2062 <main+0x1ae3>
    36d9: e0 1e        	cpx	#$1e
    36db: f0 03        	beq	$36e0 <main+0x3161>
    36dd: 4c 85 36     	jmp	$3685 <main+0x3106>
    36e0: a2 03        	ldx	#$3
    36e2: 86 01        	stx	$1                      ; 0x2001 <main+0x1a82>
    36e4: a2 09        	ldx	#$9
    36e6: a9 10        	lda	#$10
    36e8: a4 26        	ldy	$26                     ; 0x2026 <main+0x1aa7>
    36ea: 84 14        	sty	$14                     ; 0x2014 <main+0x1a95>
    36ec: a4 27        	ldy	$27                     ; 0x2027 <main+0x1aa8>
    36ee: 84 15        	sty	$15                     ; 0x2015 <main+0x1a96>
    36f0: 85 17        	sta	$17                     ; 0x2017 <main+0x1a98>
    36f2: 86 16        	stx	$16                     ; 0x2016 <main+0x1a97>
    36f4: a0 50        	ldy	#$50
    36f6: 4c 05 34     	jmp	$3405 <main+0x2e86>
    36f9: a6 18        	ldx	$18                     ; 0x2018 <main+0x1a99>
    36fb: e0 01        	cpx	#$1
    36fd: d0 49        	bne	$3748 <main+0x31c9>
    36ff: a2 00        	ldx	#$0
    3701: 80 47        	bra	$374a <main+0x31cb>
    3703: 86 12        	stx	$12                     ; 0x2012 <main+0x1a93>
    3705: 84 14        	sty	$14                     ; 0x2014 <main+0x1a95>
    3707: c0 01        	cpy	#$1
    3709: 90 03        	bcc	$370e <main+0x318f>
    370b: 4c 39 3b     	jmp	$3b39 <main+0x35ba>
    370e: a4 12        	ldy	$12                     ; 0x2012 <main+0x1a93>
    3710: aa           	tax
    3711: a5 15        	lda	$15                     ; 0x2015 <main+0x1a96>
    3713: e6 14        	inc	$14                     ; 0x2014 <main+0x1a95>
    3715: c6 14        	dec	$14                     ; 0x2014 <main+0x1a95>
    3717: d0 07        	bne	$3720 <main+0x31a1>
    3719: c0 00        	cpy	#$0
    371b: d0 03        	bne	$3720 <main+0x31a1>
    371d: 4c 6a 3c     	jmp	$3c6a <main+0x36eb>
    3720: a9 02        	lda	#$2
    3722: 8d 50 d6     	sta	$d650                   ; 0xd650 <__heap_start+0x6db4>
    3725: 8e 55 d6     	stx	$d655                   ; 0xd655 <__heap_start+0x6db9>
    3728: a6 15        	ldx	$15                     ; 0x2015 <main+0x1a96>
    372a: 8e 56 d6     	stx	$d656                   ; 0xd656 <__heap_start+0x6dba>
    372d: 8c 57 d6     	sty	$d657                   ; 0xd657 <__heap_start+0x6dbb>
    3730: a0 01        	ldy	#$1
    3732: 8c 54 d6     	sty	$d654                   ; 0xd654 <__heap_start+0x6db8>
    3735: 8d 50 d6     	sta	$d650                   ; 0xd650 <__heap_start+0x6db4>
    3738: a2 89        	ldx	#$89
    373a: 8e 50 d6     	stx	$d650                   ; 0xd650 <__heap_start+0x6db4>
    373d: 64 7c        	stz	$7c                     ; 0x207c <main+0x1afd>
    373f: 64 7d        	stz	$7d                     ; 0x207d <main+0x1afe>
    3741: 64 7e        	stz	$7e                     ; 0x207e <main+0x1aff>
    3743: 64 7f        	stz	$7f                     ; 0x207f <main+0x1b00>
    3745: 4c 7b 3b     	jmp	$3b7b <main+0x35fc>
    3748: a2 01        	ldx	#$1
    374a: a4 19        	ldy	$19                     ; 0x2019 <main+0x1a9a>
    374c: 84 01        	sty	$1                      ; 0x2001 <main+0x1a82>
    374e: a4 61        	ldy	$61                     ; 0x2061 <main+0x1ae2>
    3750: a5 62        	lda	$62                     ; 0x2062 <main+0x1ae3>
    3752: 8c 14 d0     	sty	$d014                   ; 0xd014 <__heap_start+0x6778>
    3755: 9c 15 d0     	stz	$d015                   ; 0xd015 <__heap_start+0x6779>
    3758: 85 62        	sta	$62                     ; 0x2062 <main+0x1ae3>
    375a: 8d 16 d0     	sta	$d016                   ; 0xd016 <__heap_start+0x677a>
    375d: 9c 17 d0     	stz	$d017                   ; 0xd017 <__heap_start+0x677b>
    3760: 86 84        	stx	$84                     ; 0x2084 <main+0x1b05>
    3762: a6 8a        	ldx	$8a                     ; 0x208a <main+0x1b0b>
    3764: a0 50        	ldy	#$50
    3766: e0 72        	cpx	#$72
    3768: f0 03        	beq	$376d <main+0x31ee>
    376a: 4c 4a 2a     	jmp	$2a4a <main+0x24cb>
    376d: a4 72        	ldy	$72                     ; 0x2072 <main+0x1af3>
    376f: a2 01        	ldx	#$1
    3771: 98           	tya
    3772: f0 02        	beq	$3776 <main+0x31f7>
    3774: a2 00        	ldx	#$0
    3776: 8a           	txa
    3777: d0 03        	bne	$377c <main+0x31fd>
    3779: 4c fe 3a     	jmp	$3afe <main+0x357f>
    377c: a0 01        	ldy	#$1
    377e: 84 72        	sty	$72                     ; 0x2072 <main+0x1af3>
    3780: 8a           	txa
    3781: f0 03        	beq	$3786 <main+0x3207>
    3783: 4c 08 3b     	jmp	$3b08 <main+0x3589>
    3786: 64 60        	stz	$60                     ; 0x2060 <main+0x1ae1>
    3788: a2 03        	ldx	#$3
    378a: 86 61        	stx	$61                     ; 0x2061 <main+0x1ae2>
    378c: 8e 14 d0     	stx	$d014                   ; 0xd014 <__heap_start+0x6778>
    378f: 9c 15 d0     	stz	$d015                   ; 0xd015 <__heap_start+0x6779>
    3792: a2 1a        	ldx	#$1a
    3794: 86 62        	stx	$62                     ; 0x2062 <main+0x1ae3>
    3796: 8e 16 d0     	stx	$d016                   ; 0xd016 <__heap_start+0x677a>
    3799: 9c 17 d0     	stz	$d017                   ; 0xd017 <__heap_start+0x677b>
    379c: a6 01        	ldx	$1                      ; 0x2001 <main+0x1a82>
    379e: 86 18        	stx	$18                     ; 0x2018 <main+0x1a99>
    37a0: a6 62        	ldx	$62                     ; 0x2062 <main+0x1ae3>
    37a2: a0 50        	ldy	#$50
    37a4: 8c 00 de     	sty	$de00                   ; 0xde00 <__heap_start+0x7564>
    37a7: 9c 01 de     	stz	$de01                   ; 0xde01 <__heap_start+0x7565>
    37aa: 8e 02 de     	stx	$de02                   ; 0xde02 <__heap_start+0x7566>
    37ad: 9c 03 de     	stz	$de03                   ; 0xde03 <__heap_start+0x7567>
    37b0: ae 10 de     	ldx	$de10                   ; 0xde10 <__heap_start+0x7574>
    37b3: ac 11 de     	ldy	$de11                   ; 0xde11 <__heap_start+0x7575>
    37b6: ad 12 de     	lda	$de12                   ; 0xde12 <__heap_start+0x7576>
    37b9: 85 13        	sta	$13                     ; 0x2013 <main+0x1a94>
    37bb: ad 13 de     	lda	$de13                   ; 0xde13 <__heap_start+0x7577>
    37be: 85 14        	sta	$14                     ; 0x2014 <main+0x1a95>
    37c0: 9c 08 de     	stz	$de08                   ; 0xde08 <__heap_start+0x756c>
    37c3: a9 c0        	lda	#$c0
    37c5: 8d 09 de     	sta	$de09                   ; 0xde09 <__heap_start+0x756d>
    37c8: 9c 0a de     	stz	$de0a                   ; 0xde0a <__heap_start+0x756e>
    37cb: 9c 0b de     	stz	$de0b                   ; 0xde0b <__heap_start+0x756f>
    37ce: 8e 0c de     	stx	$de0c                   ; 0xde0c <__heap_start+0x7570>
    37d1: 8c 0d de     	sty	$de0d                   ; 0xde0d <__heap_start+0x7571>
    37d4: 64 12        	stz	$12                     ; 0x2012 <main+0x1a93>
    37d6: a6 13        	ldx	$13                     ; 0x2013 <main+0x1a94>
    37d8: 8e 0e de     	stx	$de0e                   ; 0xde0e <__heap_start+0x7572>
    37db: a6 14        	ldx	$14                     ; 0x2014 <main+0x1a95>
    37dd: 8e 0f de     	stx	$de0f                   ; 0xde0f <__heap_start+0x7573>
    37e0: ae 18 de     	ldx	$de18                   ; 0xde18 <__heap_start+0x757c>
    37e3: ac 19 de     	ldy	$de19                   ; 0xde19 <__heap_start+0x757d>
    37e6: 86 14        	stx	$14                     ; 0x2014 <main+0x1a95>
    37e8: ae 1a de     	ldx	$de1a                   ; 0xde1a <__heap_start+0x757e>
    37eb: 84 15        	sty	$15                     ; 0x2015 <main+0x1a96>
    37ed: ae 1b de     	ldx	$de1b                   ; 0xde1b <__heap_start+0x757f>
    37f0: 64 13        	stz	$13                     ; 0x2013 <main+0x1a94>
    37f2: 4c 87 3a     	jmp	$3a87 <main+0x3508>
    37f5: 8a           	txa
    37f6: f0 1b        	beq	$3813 <main+0x3294>
    37f8: b1 14        	lda	($14),y                 ; 0x2014 <main+0x1a95>
    37fa: 92 14        	sta	($14)                   ; 0x2014 <main+0x1a95>
    37fc: a9 ff        	lda	#$ff
    37fe: c6 16        	dec	$16                     ; 0x2016 <main+0x1a97>
    3800: c5 16        	cmp	$16                     ; 0x2016 <main+0x1a97>
    3802: f0 06        	beq	$380a <main+0x328b>
    3804: e6 14        	inc	$14                     ; 0x2014 <main+0x1a95>
    3806: d0 ed        	bne	$37f5 <main+0x3276>
    3808: 80 05        	bra	$380f <main+0x3290>
    380a: ca           	dex
    380b: e6 14        	inc	$14                     ; 0x2014 <main+0x1a95>
    380d: d0 e6        	bne	$37f5 <main+0x3276>
    380f: e6 15        	inc	$15                     ; 0x2015 <main+0x1a96>
    3811: 80 e2        	bra	$37f5 <main+0x3276>
    3813: a5 16        	lda	$16                     ; 0x2016 <main+0x1a97>
    3815: d0 e1        	bne	$37f8 <main+0x3279>
    3817: a2 02        	ldx	#$2
    3819: 86 01        	stx	$1                      ; 0x2001 <main+0x1a82>
    381b: a9 09        	lda	#$9
    381d: a2 10        	ldx	#$10
    381f: 5a           	phy
    3820: a4 26        	ldy	$26                     ; 0x2026 <main+0x1aa7>
    3822: 84 14        	sty	$14                     ; 0x2014 <main+0x1a95>
    3824: a4 27        	ldy	$27                     ; 0x2027 <main+0x1aa8>
    3826: 84 15        	sty	$15                     ; 0x2015 <main+0x1a96>
    3828: 7a           	ply
    3829: 86 16        	stx	$16                     ; 0x2016 <main+0x1a97>
    382b: aa           	tax
    382c: 80 03        	bra	$3831 <main+0x32b2>
    382e: 8a           	txa
    382f: f0 1b        	beq	$384c <main+0x32cd>
    3831: b1 14        	lda	($14),y                 ; 0x2014 <main+0x1a95>
    3833: 92 14        	sta	($14)                   ; 0x2014 <main+0x1a95>
    3835: a9 ff        	lda	#$ff
    3837: c6 16        	dec	$16                     ; 0x2016 <main+0x1a97>
    3839: c5 16        	cmp	$16                     ; 0x2016 <main+0x1a97>
    383b: f0 06        	beq	$3843 <main+0x32c4>
    383d: e6 14        	inc	$14                     ; 0x2014 <main+0x1a95>
    383f: d0 ed        	bne	$382e <main+0x32af>
    3841: 80 05        	bra	$3848 <main+0x32c9>
    3843: ca           	dex
    3844: e6 14        	inc	$14                     ; 0x2014 <main+0x1a95>
    3846: d0 e6        	bne	$382e <main+0x32af>
    3848: e6 15        	inc	$15                     ; 0x2015 <main+0x1a96>
    384a: 80 e2        	bra	$382e <main+0x32af>
    384c: a5 16        	lda	$16                     ; 0x2016 <main+0x1a97>
    384e: d0 e1        	bne	$3831 <main+0x32b2>
    3850: a2 02        	ldx	#$2
    3852: 86 01        	stx	$1                      ; 0x2001 <main+0x1a82>
    3854: a0 03        	ldy	#$3
    3856: 84 01        	sty	$1                      ; 0x2001 <main+0x1a82>
    3858: a4 60        	ldy	$60                     ; 0x2060 <main+0x1ae1>
    385a: 8c 10 c9     	sty	$c910                   ; 0xc910 <__heap_start+0x6074>
    385d: 8c 11 c9     	sty	$c911                   ; 0xc911 <__heap_start+0x6075>
    3860: 8c 12 c9     	sty	$c912                   ; 0xc912 <__heap_start+0x6076>
    3863: 8c 13 c9     	sty	$c913                   ; 0xc913 <__heap_start+0x6077>
    3866: 8c 14 c9     	sty	$c914                   ; 0xc914 <__heap_start+0x6078>
    3869: 8c 15 c9     	sty	$c915                   ; 0xc915 <__heap_start+0x6079>
    386c: 8c 16 c9     	sty	$c916                   ; 0xc916 <__heap_start+0x607a>
    386f: 8c 17 c9     	sty	$c917                   ; 0xc917 <__heap_start+0x607b>
    3872: 8c 18 c9     	sty	$c918                   ; 0xc918 <__heap_start+0x607c>
    3875: 8c 19 c9     	sty	$c919                   ; 0xc919 <__heap_start+0x607d>
    3878: 8c 1a c9     	sty	$c91a                   ; 0xc91a <__heap_start+0x607e>
    387b: 8c 1b c9     	sty	$c91b                   ; 0xc91b <__heap_start+0x607f>
    387e: 8c 1c c9     	sty	$c91c                   ; 0xc91c <__heap_start+0x6080>
    3881: 8c 1d c9     	sty	$c91d                   ; 0xc91d <__heap_start+0x6081>
    3884: 8c 1e c9     	sty	$c91e                   ; 0xc91e <__heap_start+0x6082>
    3887: 8c 1f c9     	sty	$c91f                   ; 0xc91f <__heap_start+0x6083>
    388a: 8c 20 c9     	sty	$c920                   ; 0xc920 <__heap_start+0x6084>
    388d: 8c 21 c9     	sty	$c921                   ; 0xc921 <__heap_start+0x6085>
    3890: 8c 22 c9     	sty	$c922                   ; 0xc922 <__heap_start+0x6086>
    3893: 8c 23 c9     	sty	$c923                   ; 0xc923 <__heap_start+0x6087>
    3896: 8c 24 c9     	sty	$c924                   ; 0xc924 <__heap_start+0x6088>
    3899: 8c 25 c9     	sty	$c925                   ; 0xc925 <__heap_start+0x6089>
    389c: 8c 26 c9     	sty	$c926                   ; 0xc926 <__heap_start+0x608a>
    389f: 8c 27 c9     	sty	$c927                   ; 0xc927 <__heap_start+0x608b>
    38a2: 8c 28 c9     	sty	$c928                   ; 0xc928 <__heap_start+0x608c>
    38a5: 8c 29 c9     	sty	$c929                   ; 0xc929 <__heap_start+0x608d>
    38a8: 8c 2a c9     	sty	$c92a                   ; 0xc92a <__heap_start+0x608e>
    38ab: 8c 2b c9     	sty	$c92b                   ; 0xc92b <__heap_start+0x608f>
    38ae: 8c 2c c9     	sty	$c92c                   ; 0xc92c <__heap_start+0x6090>
    38b1: 8c 2d c9     	sty	$c92d                   ; 0xc92d <__heap_start+0x6091>
    38b4: 8c 2e c9     	sty	$c92e                   ; 0xc92e <__heap_start+0x6092>
    38b7: 8c 2f c9     	sty	$c92f                   ; 0xc92f <__heap_start+0x6093>
    38ba: 8c 30 c9     	sty	$c930                   ; 0xc930 <__heap_start+0x6094>
    38bd: 8c 31 c9     	sty	$c931                   ; 0xc931 <__heap_start+0x6095>
    38c0: 8c 32 c9     	sty	$c932                   ; 0xc932 <__heap_start+0x6096>
    38c3: 8c 33 c9     	sty	$c933                   ; 0xc933 <__heap_start+0x6097>
    38c6: 8c 34 c9     	sty	$c934                   ; 0xc934 <__heap_start+0x6098>
    38c9: 8c 35 c9     	sty	$c935                   ; 0xc935 <__heap_start+0x6099>
    38cc: 8c 36 c9     	sty	$c936                   ; 0xc936 <__heap_start+0x609a>
    38cf: 8c 37 c9     	sty	$c937                   ; 0xc937 <__heap_start+0x609b>
    38d2: 8c 38 c9     	sty	$c938                   ; 0xc938 <__heap_start+0x609c>
    38d5: 8c 39 c9     	sty	$c939                   ; 0xc939 <__heap_start+0x609d>
    38d8: 8c 3a c9     	sty	$c93a                   ; 0xc93a <__heap_start+0x609e>
    38db: 8c 3b c9     	sty	$c93b                   ; 0xc93b <__heap_start+0x609f>
    38de: 8c 3c c9     	sty	$c93c                   ; 0xc93c <__heap_start+0x60a0>
    38e1: 8c 3d c9     	sty	$c93d                   ; 0xc93d <__heap_start+0x60a1>
    38e4: 8c 3e c9     	sty	$c93e                   ; 0xc93e <__heap_start+0x60a2>
    38e7: 8c 3f c9     	sty	$c93f                   ; 0xc93f <__heap_start+0x60a3>
    38ea: 8c 40 c9     	sty	$c940                   ; 0xc940 <__heap_start+0x60a4>
    38ed: 8c 41 c9     	sty	$c941                   ; 0xc941 <__heap_start+0x60a5>
    38f0: 8c 42 c9     	sty	$c942                   ; 0xc942 <__heap_start+0x60a6>
    38f3: 8c 43 c9     	sty	$c943                   ; 0xc943 <__heap_start+0x60a7>
    38f6: 8c 44 c9     	sty	$c944                   ; 0xc944 <__heap_start+0x60a8>
    38f9: 8c 45 c9     	sty	$c945                   ; 0xc945 <__heap_start+0x60a9>
    38fc: 8c 46 c9     	sty	$c946                   ; 0xc946 <__heap_start+0x60aa>
    38ff: 8c 47 c9     	sty	$c947                   ; 0xc947 <__heap_start+0x60ab>
    3902: 8c 48 c9     	sty	$c948                   ; 0xc948 <__heap_start+0x60ac>
    3905: 8c 49 c9     	sty	$c949                   ; 0xc949 <__heap_start+0x60ad>
    3908: 8c 4a c9     	sty	$c94a                   ; 0xc94a <__heap_start+0x60ae>
    390b: 8c 4b c9     	sty	$c94b                   ; 0xc94b <__heap_start+0x60af>
    390e: 8c 4c c9     	sty	$c94c                   ; 0xc94c <__heap_start+0x60b0>
    3911: 8c 4d c9     	sty	$c94d                   ; 0xc94d <__heap_start+0x60b1>
    3914: 8c 4e c9     	sty	$c94e                   ; 0xc94e <__heap_start+0x60b2>
    3917: 8c 4f c9     	sty	$c94f                   ; 0xc94f <__heap_start+0x60b3>
    391a: 8c 50 c9     	sty	$c950                   ; 0xc950 <__heap_start+0x60b4>
    391d: 8c 51 c9     	sty	$c951                   ; 0xc951 <__heap_start+0x60b5>
    3920: 8c 52 c9     	sty	$c952                   ; 0xc952 <__heap_start+0x60b6>
    3923: 8c 53 c9     	sty	$c953                   ; 0xc953 <__heap_start+0x60b7>
    3926: 8c 54 c9     	sty	$c954                   ; 0xc954 <__heap_start+0x60b8>
    3929: 8c 55 c9     	sty	$c955                   ; 0xc955 <__heap_start+0x60b9>
    392c: 8c 56 c9     	sty	$c956                   ; 0xc956 <__heap_start+0x60ba>
    392f: 8c 57 c9     	sty	$c957                   ; 0xc957 <__heap_start+0x60bb>
    3932: 8c 58 c9     	sty	$c958                   ; 0xc958 <__heap_start+0x60bc>
    3935: 8c 59 c9     	sty	$c959                   ; 0xc959 <__heap_start+0x60bd>
    3938: 8c 5a c9     	sty	$c95a                   ; 0xc95a <__heap_start+0x60be>
    393b: 8c 5b c9     	sty	$c95b                   ; 0xc95b <__heap_start+0x60bf>
    393e: 8c 5c c9     	sty	$c95c                   ; 0xc95c <__heap_start+0x60c0>
    3941: 8c 5d c9     	sty	$c95d                   ; 0xc95d <__heap_start+0x60c1>
    3944: 8c 5e c9     	sty	$c95e                   ; 0xc95e <__heap_start+0x60c2>
    3947: 8c 5f c9     	sty	$c95f                   ; 0xc95f <__heap_start+0x60c3>
    394a: 86 01        	stx	$1                      ; 0x2001 <main+0x1a82>
    394c: a2 20        	ldx	#$20
    394e: 8e 10 c9     	stx	$c910                   ; 0xc910 <__heap_start+0x6074>
    3951: 8e 11 c9     	stx	$c911                   ; 0xc911 <__heap_start+0x6075>
    3954: 8e 12 c9     	stx	$c912                   ; 0xc912 <__heap_start+0x6076>
    3957: 8e 13 c9     	stx	$c913                   ; 0xc913 <__heap_start+0x6077>
    395a: 8e 14 c9     	stx	$c914                   ; 0xc914 <__heap_start+0x6078>
    395d: 8e 15 c9     	stx	$c915                   ; 0xc915 <__heap_start+0x6079>
    3960: 8e 16 c9     	stx	$c916                   ; 0xc916 <__heap_start+0x607a>
    3963: 8e 17 c9     	stx	$c917                   ; 0xc917 <__heap_start+0x607b>
    3966: 8e 18 c9     	stx	$c918                   ; 0xc918 <__heap_start+0x607c>
    3969: 8e 19 c9     	stx	$c919                   ; 0xc919 <__heap_start+0x607d>
    396c: 8e 1a c9     	stx	$c91a                   ; 0xc91a <__heap_start+0x607e>
    396f: 8e 1b c9     	stx	$c91b                   ; 0xc91b <__heap_start+0x607f>
    3972: 8e 1c c9     	stx	$c91c                   ; 0xc91c <__heap_start+0x6080>
    3975: 8e 1d c9     	stx	$c91d                   ; 0xc91d <__heap_start+0x6081>
    3978: 8e 1e c9     	stx	$c91e                   ; 0xc91e <__heap_start+0x6082>
    397b: 8e 1f c9     	stx	$c91f                   ; 0xc91f <__heap_start+0x6083>
    397e: 8e 20 c9     	stx	$c920                   ; 0xc920 <__heap_start+0x6084>
    3981: 8e 21 c9     	stx	$c921                   ; 0xc921 <__heap_start+0x6085>
    3984: 8e 22 c9     	stx	$c922                   ; 0xc922 <__heap_start+0x6086>
    3987: 8e 23 c9     	stx	$c923                   ; 0xc923 <__heap_start+0x6087>
    398a: 8e 24 c9     	stx	$c924                   ; 0xc924 <__heap_start+0x6088>
    398d: 8e 25 c9     	stx	$c925                   ; 0xc925 <__heap_start+0x6089>
    3990: 8e 26 c9     	stx	$c926                   ; 0xc926 <__heap_start+0x608a>
    3993: 8e 27 c9     	stx	$c927                   ; 0xc927 <__heap_start+0x608b>
    3996: 8e 28 c9     	stx	$c928                   ; 0xc928 <__heap_start+0x608c>
    3999: 8e 29 c9     	stx	$c929                   ; 0xc929 <__heap_start+0x608d>
    399c: 8e 2a c9     	stx	$c92a                   ; 0xc92a <__heap_start+0x608e>
    399f: 8e 2b c9     	stx	$c92b                   ; 0xc92b <__heap_start+0x608f>
    39a2: 8e 2c c9     	stx	$c92c                   ; 0xc92c <__heap_start+0x6090>
    39a5: 8e 2d c9     	stx	$c92d                   ; 0xc92d <__heap_start+0x6091>
    39a8: 8e 2e c9     	stx	$c92e                   ; 0xc92e <__heap_start+0x6092>
    39ab: 8e 2f c9     	stx	$c92f                   ; 0xc92f <__heap_start+0x6093>
    39ae: 8e 30 c9     	stx	$c930                   ; 0xc930 <__heap_start+0x6094>
    39b1: 8e 31 c9     	stx	$c931                   ; 0xc931 <__heap_start+0x6095>
    39b4: 8e 32 c9     	stx	$c932                   ; 0xc932 <__heap_start+0x6096>
    39b7: 8e 33 c9     	stx	$c933                   ; 0xc933 <__heap_start+0x6097>
    39ba: 8e 34 c9     	stx	$c934                   ; 0xc934 <__heap_start+0x6098>
    39bd: 8e 35 c9     	stx	$c935                   ; 0xc935 <__heap_start+0x6099>
    39c0: 8e 36 c9     	stx	$c936                   ; 0xc936 <__heap_start+0x609a>
    39c3: 8e 37 c9     	stx	$c937                   ; 0xc937 <__heap_start+0x609b>
    39c6: 8e 38 c9     	stx	$c938                   ; 0xc938 <__heap_start+0x609c>
    39c9: 8e 39 c9     	stx	$c939                   ; 0xc939 <__heap_start+0x609d>
    39cc: 8e 3a c9     	stx	$c93a                   ; 0xc93a <__heap_start+0x609e>
    39cf: 8e 3b c9     	stx	$c93b                   ; 0xc93b <__heap_start+0x609f>
    39d2: 8e 3c c9     	stx	$c93c                   ; 0xc93c <__heap_start+0x60a0>
    39d5: 8e 3d c9     	stx	$c93d                   ; 0xc93d <__heap_start+0x60a1>
    39d8: 8e 3e c9     	stx	$c93e                   ; 0xc93e <__heap_start+0x60a2>
    39db: 8e 3f c9     	stx	$c93f                   ; 0xc93f <__heap_start+0x60a3>
    39de: 8e 40 c9     	stx	$c940                   ; 0xc940 <__heap_start+0x60a4>
    39e1: 8e 41 c9     	stx	$c941                   ; 0xc941 <__heap_start+0x60a5>
    39e4: 8e 42 c9     	stx	$c942                   ; 0xc942 <__heap_start+0x60a6>
    39e7: 8e 43 c9     	stx	$c943                   ; 0xc943 <__heap_start+0x60a7>
    39ea: 8e 44 c9     	stx	$c944                   ; 0xc944 <__heap_start+0x60a8>
    39ed: 8e 45 c9     	stx	$c945                   ; 0xc945 <__heap_start+0x60a9>
    39f0: 8e 46 c9     	stx	$c946                   ; 0xc946 <__heap_start+0x60aa>
    39f3: 8e 47 c9     	stx	$c947                   ; 0xc947 <__heap_start+0x60ab>
    39f6: 8e 48 c9     	stx	$c948                   ; 0xc948 <__heap_start+0x60ac>
    39f9: 8e 49 c9     	stx	$c949                   ; 0xc949 <__heap_start+0x60ad>
    39fc: 8e 4a c9     	stx	$c94a                   ; 0xc94a <__heap_start+0x60ae>
    39ff: 8e 4b c9     	stx	$c94b                   ; 0xc94b <__heap_start+0x60af>
    3a02: 8e 4c c9     	stx	$c94c                   ; 0xc94c <__heap_start+0x60b0>
    3a05: 8e 4d c9     	stx	$c94d                   ; 0xc94d <__heap_start+0x60b1>
    3a08: 8e 4e c9     	stx	$c94e                   ; 0xc94e <__heap_start+0x60b2>
    3a0b: 8e 4f c9     	stx	$c94f                   ; 0xc94f <__heap_start+0x60b3>
    3a0e: 8e 50 c9     	stx	$c950                   ; 0xc950 <__heap_start+0x60b4>
    3a11: 8e 51 c9     	stx	$c951                   ; 0xc951 <__heap_start+0x60b5>
    3a14: 8e 52 c9     	stx	$c952                   ; 0xc952 <__heap_start+0x60b6>
    3a17: 8e 53 c9     	stx	$c953                   ; 0xc953 <__heap_start+0x60b7>
    3a1a: 8e 54 c9     	stx	$c954                   ; 0xc954 <__heap_start+0x60b8>
    3a1d: 8e 55 c9     	stx	$c955                   ; 0xc955 <__heap_start+0x60b9>
    3a20: 8e 56 c9     	stx	$c956                   ; 0xc956 <__heap_start+0x60ba>
    3a23: 8e 57 c9     	stx	$c957                   ; 0xc957 <__heap_start+0x60bb>
    3a26: 8e 58 c9     	stx	$c958                   ; 0xc958 <__heap_start+0x60bc>
    3a29: 8e 59 c9     	stx	$c959                   ; 0xc959 <__heap_start+0x60bd>
    3a2c: 8e 5a c9     	stx	$c95a                   ; 0xc95a <__heap_start+0x60be>
    3a2f: 8e 5b c9     	stx	$c95b                   ; 0xc95b <__heap_start+0x60bf>
    3a32: 8e 5c c9     	stx	$c95c                   ; 0xc95c <__heap_start+0x60c0>
    3a35: 8e 5d c9     	stx	$c95d                   ; 0xc95d <__heap_start+0x60c1>
    3a38: 8e 5e c9     	stx	$c95e                   ; 0xc95e <__heap_start+0x60c2>
    3a3b: 8e 5f c9     	stx	$c95f                   ; 0xc95f <__heap_start+0x60c3>
    3a3e: c6 62        	dec	$62                     ; 0x2062 <main+0x1ae3>
    3a40: 9c 08 de     	stz	$de08                   ; 0xde08 <__heap_start+0x756c>
    3a43: a2 c0        	ldx	#$c0
    3a45: 8e 09 de     	stx	$de09                   ; 0xde09 <__heap_start+0x756d>
    3a48: 9c 0a de     	stz	$de0a                   ; 0xde0a <__heap_start+0x756e>
    3a4b: 9c 0b de     	stz	$de0b                   ; 0xde0b <__heap_start+0x756f>
    3a4e: a2 1d        	ldx	#$1d
    3a50: 8e 0c de     	stx	$de0c                   ; 0xde0c <__heap_start+0x7570>
    3a53: 9c 0d de     	stz	$de0d                   ; 0xde0d <__heap_start+0x7571>
    3a56: 9c 0e de     	stz	$de0e                   ; 0xde0e <__heap_start+0x7572>
    3a59: 9c 0f de     	stz	$de0f                   ; 0xde0f <__heap_start+0x7573>
    3a5c: ae 18 de     	ldx	$de18                   ; 0xde18 <__heap_start+0x757c>
    3a5f: ac 19 de     	ldy	$de19                   ; 0xde19 <__heap_start+0x757d>
    3a62: ad 1a de     	lda	$de1a                   ; 0xde1a <__heap_start+0x757e>
    3a65: 86 14        	stx	$14                     ; 0x2014 <main+0x1a95>
    3a67: ae 1b de     	ldx	$de1b                   ; 0xde1b <__heap_start+0x757f>
    3a6a: 84 15        	sty	$15                     ; 0x2015 <main+0x1a96>
    3a6c: e6 12        	inc	$12                     ; 0x2012 <main+0x1a93>
    3a6e: d0 17        	bne	$3a87 <main+0x3508>
    3a70: e6 13        	inc	$13                     ; 0x2013 <main+0x1a94>
    3a72: 80 13        	bra	$3a87 <main+0x3508>
    3a74: a5 14        	lda	$14                     ; 0x2014 <main+0x1a95>
    3a76: 18           	clc
    3a77: 69 50        	adc	#$50
    3a79: 85 14        	sta	$14                     ; 0x2014 <main+0x1a95>
    3a7b: a5 15        	lda	$15                     ; 0x2015 <main+0x1a96>
    3a7d: 69 00        	adc	#$0
    3a7f: 85 15        	sta	$15                     ; 0x2015 <main+0x1a96>
    3a81: e6 12        	inc	$12                     ; 0x2012 <main+0x1a93>
    3a83: d0 02        	bne	$3a87 <main+0x3508>
    3a85: e6 13        	inc	$13                     ; 0x2013 <main+0x1a94>
    3a87: a9 4b        	lda	#$4b
    3a89: 18           	clc
    3a8a: 65 12        	adc	$12                     ; 0x2012 <main+0x1a93>
    3a8c: 85 16        	sta	$16                     ; 0x2016 <main+0x1a97>
    3a8e: a9 67        	lda	#$67
    3a90: 65 13        	adc	$13                     ; 0x2013 <main+0x1a94>
    3a92: 85 17        	sta	$17                     ; 0x2017 <main+0x1a98>
    3a94: b2 16        	lda	($16)                   ; 0x2016 <main+0x1a97>
    3a96: c9 0a        	cmp	#$a
    3a98: f0 27        	beq	$3ac1 <main+0x3542>
    3a9a: c9 0d        	cmp	#$d
    3a9c: f0 23        	beq	$3ac1 <main+0x3542>
    3a9e: aa           	tax
    3a9f: f0 45        	beq	$3ae6 <main+0x3567>
    3aa1: a2 03        	ldx	#$3
    3aa3: 86 01        	stx	$1                      ; 0x2001 <main+0x1a82>
    3aa5: a6 60        	ldx	$60                     ; 0x2060 <main+0x1ae1>
    3aa7: a4 61        	ldy	$61                     ; 0x2061 <main+0x1ae2>
    3aa9: 85 17        	sta	$17                     ; 0x2017 <main+0x1a98>
    3aab: 8a           	txa
    3aac: 91 14        	sta	($14),y                 ; 0x2014 <main+0x1a95>
    3aae: a2 02        	ldx	#$2
    3ab0: 86 01        	stx	$1                      ; 0x2001 <main+0x1a82>
    3ab2: a4 61        	ldy	$61                     ; 0x2061 <main+0x1ae2>
    3ab4: a5 17        	lda	$17                     ; 0x2017 <main+0x1a98>
    3ab6: 91 14        	sta	($14),y                 ; 0x2014 <main+0x1a95>
    3ab8: a6 61        	ldx	$61                     ; 0x2061 <main+0x1ae2>
    3aba: e8           	inx
    3abb: e6 61        	inc	$61                     ; 0x2061 <main+0x1ae2>
    3abd: e0 50        	cpx	#$50
    3abf: d0 c0        	bne	$3a81 <main+0x3502>
    3ac1: 64 61        	stz	$61                     ; 0x2061 <main+0x1ae2>
    3ac3: a6 62        	ldx	$62                     ; 0x2062 <main+0x1ae3>
    3ac5: e8           	inx
    3ac6: e6 62        	inc	$62                     ; 0x2062 <main+0x1ae3>
    3ac8: e0 1e        	cpx	#$1e
    3aca: f0 03        	beq	$3acf <main+0x3550>
    3acc: 4c 74 3a     	jmp	$3a74 <main+0x34f5>
    3acf: a2 03        	ldx	#$3
    3ad1: 86 01        	stx	$1                      ; 0x2001 <main+0x1a82>
    3ad3: a2 09        	ldx	#$9
    3ad5: a0 10        	ldy	#$10
    3ad7: a5 26        	lda	$26                     ; 0x2026 <main+0x1aa7>
    3ad9: 85 14        	sta	$14                     ; 0x2014 <main+0x1a95>
    3adb: a5 27        	lda	$27                     ; 0x2027 <main+0x1aa8>
    3add: 85 15        	sta	$15                     ; 0x2015 <main+0x1a96>
    3adf: 84 16        	sty	$16                     ; 0x2016 <main+0x1a97>
    3ae1: a0 50        	ldy	#$50
    3ae3: 4c f8 37     	jmp	$37f8 <main+0x3279>
    3ae6: a6 18        	ldx	$18                     ; 0x2018 <main+0x1a99>
    3ae8: 86 01        	stx	$1                      ; 0x2001 <main+0x1a82>
    3aea: a6 61        	ldx	$61                     ; 0x2061 <main+0x1ae2>
    3aec: a4 62        	ldy	$62                     ; 0x2062 <main+0x1ae3>
    3aee: 8e 14 d0     	stx	$d014                   ; 0xd014 <__heap_start+0x6778>
    3af1: 9c 15 d0     	stz	$d015                   ; 0xd015 <__heap_start+0x6779>
    3af4: 84 62        	sty	$62                     ; 0x2062 <main+0x1ae3>
    3af6: 8c 16 d0     	sty	$d016                   ; 0xd016 <__heap_start+0x677a>
    3af9: 9c 17 d0     	stz	$d017                   ; 0xd017 <__heap_start+0x677b>
    3afc: 80 2d        	bra	$3b2b <main+0x35ac>
    3afe: a0 00        	ldy	#$0
    3b00: 84 72        	sty	$72                     ; 0x2072 <main+0x1af3>
    3b02: 8a           	txa
    3b03: d0 03        	bne	$3b08 <main+0x3589>
    3b05: 4c 86 37     	jmp	$3786 <main+0x3207>
    3b08: a2 10        	ldx	#$10
    3b0a: 86 60        	stx	$60                     ; 0x2060 <main+0x1ae1>
    3b0c: a2 03        	ldx	#$3
    3b0e: 86 61        	stx	$61                     ; 0x2061 <main+0x1ae2>
    3b10: 8e 14 d0     	stx	$d014                   ; 0xd014 <__heap_start+0x6778>
    3b13: 9c 15 d0     	stz	$d015                   ; 0xd015 <__heap_start+0x6779>
    3b16: a2 1a        	ldx	#$1a
    3b18: 86 62        	stx	$62                     ; 0x2062 <main+0x1ae3>
    3b1a: 8e 16 d0     	stx	$d016                   ; 0xd016 <__heap_start+0x677a>
    3b1d: 9c 17 d0     	stz	$d017                   ; 0xd017 <__heap_start+0x677b>
    3b20: a2 4b        	ldx	#$4b
    3b22: 86 12        	stx	$12                     ; 0x2012 <main+0x1a93>
    3b24: a2 67        	ldx	#$67
    3b26: 86 13        	stx	$13                     ; 0x2013 <main+0x1a94>
    3b28: 20 35 40     	jsr	$4035 <textPrint>
    3b2b: a0 50        	ldy	#$50
    3b2d: 4c 4a 2a     	jmp	$2a4a <main+0x24cb>
    3b30: 86 12        	stx	$12                     ; 0x2012 <main+0x1a93>
    3b32: e0 00        	cpx	#$0
    3b34: b0 03        	bcs	$3b39 <main+0x35ba>
    3b36: 4c 0e 37     	jmp	$370e <main+0x318f>
    3b39: 18           	clc
    3b3a: 69 01        	adc	#$1
    3b3c: aa           	tax
    3b3d: a5 15        	lda	$15                     ; 0x2015 <main+0x1a96>
    3b3f: 69 00        	adc	#$0
    3b41: 85 13        	sta	$13                     ; 0x2013 <main+0x1a94>
    3b43: a5 12        	lda	$12                     ; 0x2012 <main+0x1a93>
    3b45: 69 00        	adc	#$0
    3b47: a8           	tay
    3b48: a5 14        	lda	$14                     ; 0x2014 <main+0x1a95>
    3b4a: 69 ff        	adc	#$ff
    3b4c: 85 12        	sta	$12                     ; 0x2012 <main+0x1a93>
    3b4e: 86 7c        	stx	$7c                     ; 0x207c <main+0x1afd>
    3b50: 86 14        	stx	$14                     ; 0x2014 <main+0x1a95>
    3b52: a5 13        	lda	$13                     ; 0x2013 <main+0x1a94>
    3b54: 85 7d        	sta	$7d                     ; 0x207d <main+0x1afe>
    3b56: 84 7e        	sty	$7e                     ; 0x207e <main+0x1aff>
    3b58: a6 12        	ldx	$12                     ; 0x2012 <main+0x1a93>
    3b5a: 86 7f        	stx	$7f                     ; 0x207f <main+0x1b00>
    3b5c: a2 02        	ldx	#$2
    3b5e: 8e 50 d6     	stx	$d650                   ; 0xd650 <__heap_start+0x6db4>
    3b61: a6 14        	ldx	$14                     ; 0x2014 <main+0x1a95>
    3b63: 8e 55 d6     	stx	$d655                   ; 0xd655 <__heap_start+0x6db9>
    3b66: 8d 56 d6     	sta	$d656                   ; 0xd656 <__heap_start+0x6dba>
    3b69: 8c 57 d6     	sty	$d657                   ; 0xd657 <__heap_start+0x6dbb>
    3b6c: a0 01        	ldy	#$1
    3b6e: 8c 54 d6     	sty	$d654                   ; 0xd654 <__heap_start+0x6db8>
    3b71: a2 02        	ldx	#$2
    3b73: 8e 50 d6     	stx	$d650                   ; 0xd650 <__heap_start+0x6db4>
    3b76: a2 89        	ldx	#$89
    3b78: 8e 50 d6     	stx	$d650                   ; 0xd650 <__heap_start+0x6db4>
    3b7b: a0 50        	ldy	#$50
    3b7d: a5 7b        	lda	$7b                     ; 0x207b <main+0x1afc>
    3b7f: 29 01        	and	#$1
    3b81: f0 03        	beq	$3b86 <main+0x3607>
    3b83: 4c 4e 2a     	jmp	$2a4e <main+0x24cf>
    3b86: a6 73        	ldx	$73                     ; 0x2073 <main+0x1af4>
    3b88: a4 74        	ldy	$74                     ; 0x2074 <main+0x1af5>
    3b8a: d0 06        	bne	$3b92 <main+0x3613>
    3b8c: 8a           	txa
    3b8d: d0 03        	bne	$3b92 <main+0x3613>
    3b8f: 4c 17 29     	jmp	$2917 <main+0x2398>
    3b92: 86 1a        	stx	$1a                     ; 0x201a <main+0x1a9b>
    3b94: 84 1b        	sty	$1b                     ; 0x201b <main+0x1a9c>
    3b96: a5 82        	lda	$82                     ; 0x2082 <main+0x1b03>
    3b98: a6 83        	ldx	$83                     ; 0x2083 <main+0x1b04>
    3b9a: 86 12        	stx	$12                     ; 0x2012 <main+0x1a93>
    3b9c: 18           	clc
    3b9d: 69 0c        	adc	#$c
    3b9f: aa           	tax
    3ba0: a5 12        	lda	$12                     ; 0x2012 <main+0x1a93>
    3ba2: 69 00        	adc	#$0
    3ba4: 86 12        	stx	$12                     ; 0x2012 <main+0x1a93>
    3ba6: 85 13        	sta	$13                     ; 0x2013 <main+0x1a94>
    3ba8: a9 ff        	lda	#$ff
    3baa: a2 00        	ldx	#$0
    3bac: 85 14        	sta	$14                     ; 0x2014 <main+0x1a95>
    3bae: 85 15        	sta	$15                     ; 0x2015 <main+0x1a96>
    3bb0: 85 16        	sta	$16                     ; 0x2016 <main+0x1a97>
    3bb2: 85 17        	sta	$17                     ; 0x2017 <main+0x1a98>
    3bb4: 8a           	txa
    3bb5: 85 18        	sta	$18                     ; 0x2018 <main+0x1a99>
    3bb7: a0 0c        	ldy	#$c
    3bb9: b1 12        	lda	($12),y                 ; 0x2012 <main+0x1a93>
    3bbb: f0 05        	beq	$3bc2 <main+0x3643>
    3bbd: a5 18        	lda	$18                     ; 0x2018 <main+0x1a99>
    3bbf: 4c 1e 3c     	jmp	$3c1e <main+0x369f>
    3bc2: b2 12        	lda	($12)                   ; 0x2012 <main+0x1a93>
    3bc4: 85 1e        	sta	$1e                     ; 0x201e <main+0x1a9f>
    3bc6: a0 01        	ldy	#$1
    3bc8: b1 12        	lda	($12),y                 ; 0x2012 <main+0x1a93>
    3bca: 85 1c        	sta	$1c                     ; 0x201c <main+0x1a9d>
    3bcc: c8           	iny
    3bcd: b1 12        	lda	($12),y                 ; 0x2012 <main+0x1a93>
    3bcf: 85 1d        	sta	$1d                     ; 0x201d <main+0x1a9e>
    3bd1: c8           	iny
    3bd2: b1 12        	lda	($12),y                 ; 0x2012 <main+0x1a93>
    3bd4: c5 17        	cmp	$17                     ; 0x2017 <main+0x1a98>
    3bd6: d0 1e        	bne	$3bf6 <main+0x3677>
    3bd8: 85 19        	sta	$19                     ; 0x2019 <main+0x1a9a>
    3bda: a5 18        	lda	$18                     ; 0x2018 <main+0x1a99>
    3bdc: a4 1d        	ldy	$1d                     ; 0x201d <main+0x1a9e>
    3bde: c4 16        	cpy	$16                     ; 0x2016 <main+0x1a97>
    3be0: f0 03        	beq	$3be5 <main+0x3666>
    3be2: 4c 4c 3c     	jmp	$3c4c <main+0x36cd>
    3be5: a4 1c        	ldy	$1c                     ; 0x201c <main+0x1a9d>
    3be7: c4 15        	cpy	$15                     ; 0x2015 <main+0x1a96>
    3be9: f0 03        	beq	$3bee <main+0x366f>
    3beb: 4c 54 3c     	jmp	$3c54 <main+0x36d5>
    3bee: a4 1e        	ldy	$1e                     ; 0x201e <main+0x1a9f>
    3bf0: c4 14        	cpy	$14                     ; 0x2014 <main+0x1a95>
    3bf2: 90 0a        	bcc	$3bfe <main+0x367f>
    3bf4: 80 28        	bra	$3c1e <main+0x369f>
    3bf6: 85 19        	sta	$19                     ; 0x2019 <main+0x1a9a>
    3bf8: c5 17        	cmp	$17                     ; 0x2017 <main+0x1a98>
    3bfa: a5 18        	lda	$18                     ; 0x2018 <main+0x1a99>
    3bfc: b0 20        	bcs	$3c1e <main+0x369f>
    3bfe: a4 1e        	ldy	$1e                     ; 0x201e <main+0x1a9f>
    3c00: 84 7c        	sty	$7c                     ; 0x207c <main+0x1afd>
    3c02: 84 14        	sty	$14                     ; 0x2014 <main+0x1a95>
    3c04: a4 1c        	ldy	$1c                     ; 0x201c <main+0x1a9d>
    3c06: 84 7d        	sty	$7d                     ; 0x207d <main+0x1afe>
    3c08: 84 15        	sty	$15                     ; 0x2015 <main+0x1a96>
    3c0a: a4 1d        	ldy	$1d                     ; 0x201d <main+0x1a9e>
    3c0c: 84 7e        	sty	$7e                     ; 0x207e <main+0x1aff>
    3c0e: 84 16        	sty	$16                     ; 0x2016 <main+0x1a97>
    3c10: a4 19        	ldy	$19                     ; 0x2019 <main+0x1a9a>
    3c12: 84 7f        	sty	$7f                     ; 0x207f <main+0x1b00>
    3c14: 84 17        	sty	$17                     ; 0x2017 <main+0x1a98>
    3c16: a0 01        	ldy	#$1
    3c18: 84 7b        	sty	$7b                     ; 0x207b <main+0x1afc>
    3c1a: 85 80        	sta	$80                     ; 0x2080 <main+0x1b01>
    3c1c: 86 81        	stx	$81                     ; 0x2081 <main+0x1b02>
    3c1e: a8           	tay
    3c1f: c8           	iny
    3c20: d0 01        	bne	$3c23 <main+0x36a4>
    3c22: e8           	inx
    3c23: 84 18        	sty	$18                     ; 0x2018 <main+0x1a99>
    3c25: 86 19        	stx	$19                     ; 0x2019 <main+0x1a9a>
    3c27: a5 12        	lda	$12                     ; 0x2012 <main+0x1a93>
    3c29: 18           	clc
    3c2a: 69 19        	adc	#$19
    3c2c: 85 12        	sta	$12                     ; 0x2012 <main+0x1a93>
    3c2e: a5 13        	lda	$13                     ; 0x2013 <main+0x1a94>
    3c30: 69 00        	adc	#$0
    3c32: 85 13        	sta	$13                     ; 0x2013 <main+0x1a94>
    3c34: 98           	tya
    3c35: a4 1b        	ldy	$1b                     ; 0x201b <main+0x1a9c>
    3c37: c4 19        	cpy	$19                     ; 0x2019 <main+0x1a9a>
    3c39: f0 03        	beq	$3c3e <main+0x36bf>
    3c3b: 4c b5 3b     	jmp	$3bb5 <main+0x3636>
    3c3e: a5 18        	lda	$18                     ; 0x2018 <main+0x1a99>
    3c40: a4 1a        	ldy	$1a                     ; 0x201a <main+0x1a9b>
    3c42: c4 18        	cpy	$18                     ; 0x2018 <main+0x1a99>
    3c44: f0 03        	beq	$3c49 <main+0x36ca>
    3c46: 4c b5 3b     	jmp	$3bb5 <main+0x3636>
    3c49: 4c 17 29     	jmp	$2917 <main+0x2398>
    3c4c: a4 1d        	ldy	$1d                     ; 0x201d <main+0x1a9e>
    3c4e: c4 16        	cpy	$16                     ; 0x2016 <main+0x1a97>
    3c50: 90 ac        	bcc	$3bfe <main+0x367f>
    3c52: 80 ca        	bra	$3c1e <main+0x369f>
    3c54: c4 15        	cpy	$15                     ; 0x2015 <main+0x1a96>
    3c56: b0 c6        	bcs	$3c1e <main+0x369f>
    3c58: 4c fe 3b     	jmp	$3bfe <main+0x367f>
    3c5b: c9 00        	cmp	#$0
    3c5d: b0 03        	bcs	$3c62 <main+0x36e3>
    3c5f: 4c 0e 37     	jmp	$370e <main+0x318f>
    3c62: 4c 39 3b     	jmp	$3b39 <main+0x35ba>
    3c65: a6 15        	ldx	$15                     ; 0x2015 <main+0x1a96>
    3c67: 4c 32 3b     	jmp	$3b32 <main+0x35b3>
    3c6a: c9 00        	cmp	#$0
    3c6c: f0 03        	beq	$3c71 <main+0x36f2>
    3c6e: 4c 20 37     	jmp	$3720 <main+0x31a1>
    3c71: 8a           	txa
    3c72: f0 03        	beq	$3c77 <main+0x36f8>
    3c74: 4c 20 37     	jmp	$3720 <main+0x31a1>
    3c77: a5 80        	lda	$80                     ; 0x2080 <main+0x1b01>
    3c79: a6 82        	ldx	$82                     ; 0x2082 <main+0x1b03>
    3c7b: 86 2c        	stx	$2c                     ; 0x202c <main+0x1aad>
    3c7d: a6 83        	ldx	$83                     ; 0x2083 <main+0x1b04>
    3c7f: 86 2b        	stx	$2b                     ; 0x202b <main+0x1aac>
    3c81: a2 19        	ldx	#$19
    3c83: 86 12        	stx	$12                     ; 0x2012 <main+0x1a93>
    3c85: 64 13        	stz	$13                     ; 0x2013 <main+0x1a94>
    3c87: a2 00        	ldx	#$0
    3c89: 85 28        	sta	$28                     ; 0x2028 <main+0x1aa9>
    3c8b: 20 95 63     	jsr	$6395 <__mulhi3>
    3c8e: 85 12        	sta	$12                     ; 0x2012 <main+0x1a93>
    3c90: 86 13        	stx	$13                     ; 0x2013 <main+0x1a94>
    3c92: a5 2c        	lda	$2c                     ; 0x202c <main+0x1aad>
    3c94: 18           	clc
    3c95: 65 12        	adc	$12                     ; 0x2012 <main+0x1a93>
    3c97: 85 12        	sta	$12                     ; 0x2012 <main+0x1a93>
    3c99: a5 2b        	lda	$2b                     ; 0x202b <main+0x1aac>
    3c9b: 85 14        	sta	$14                     ; 0x2014 <main+0x1a95>
    3c9d: 65 13        	adc	$13                     ; 0x2013 <main+0x1a94>
    3c9f: 85 13        	sta	$13                     ; 0x2013 <main+0x1a94>
    3ca1: a0 10        	ldy	#$10
    3ca3: b1 12        	lda	($12),y                 ; 0x2012 <main+0x1a93>
    3ca5: c9 ff        	cmp	#$ff
    3ca7: d0 03        	bne	$3cac <main+0x372d>
    3ca9: 4c 55 3d     	jmp	$3d55 <main+0x37d6>
    3cac: a6 84        	ldx	$84                     ; 0x2084 <main+0x1b05>
    3cae: a0 a1        	ldy	#$a1
    3cb0: 84 12        	sty	$12                     ; 0x2012 <main+0x1a93>
    3cb2: a0 dd        	ldy	#$dd
    3cb4: 84 13        	sty	$13                     ; 0x2013 <main+0x1a94>
    3cb6: e0 00        	cpx	#$0
    3cb8: f0 08        	beq	$3cc2 <main+0x3743>
    3cba: a2 b1        	ldx	#$b1
    3cbc: 86 12        	stx	$12                     ; 0x2012 <main+0x1a93>
    3cbe: a2 dd        	ldx	#$dd
    3cc0: 86 13        	stx	$13                     ; 0x2013 <main+0x1a94>
    3cc2: 92 12        	sta	($12)                   ; 0x2012 <main+0x1a93>
    3cc4: a6 82        	ldx	$82                     ; 0x2082 <main+0x1b03>
    3cc6: 86 2c        	stx	$2c                     ; 0x202c <main+0x1aad>
    3cc8: a6 83        	ldx	$83                     ; 0x2083 <main+0x1b04>
    3cca: 86 2b        	stx	$2b                     ; 0x202b <main+0x1aac>
    3ccc: a2 19        	ldx	#$19
    3cce: 86 12        	stx	$12                     ; 0x2012 <main+0x1a93>
    3cd0: 64 13        	stz	$13                     ; 0x2013 <main+0x1a94>
    3cd2: a2 00        	ldx	#$0
    3cd4: a5 28        	lda	$28                     ; 0x2028 <main+0x1aa9>
    3cd6: 20 95 63     	jsr	$6395 <__mulhi3>
    3cd9: 85 12        	sta	$12                     ; 0x2012 <main+0x1a93>
    3cdb: 86 13        	stx	$13                     ; 0x2013 <main+0x1a94>
    3cdd: 18           	clc
    3cde: a5 2c        	lda	$2c                     ; 0x202c <main+0x1aad>
    3ce0: 65 12        	adc	$12                     ; 0x2012 <main+0x1a93>
    3ce2: 85 12        	sta	$12                     ; 0x2012 <main+0x1a93>
    3ce4: a5 2b        	lda	$2b                     ; 0x202b <main+0x1aac>
    3ce6: 65 13        	adc	$13                     ; 0x2013 <main+0x1a94>
    3ce8: 85 13        	sta	$13                     ; 0x2013 <main+0x1a94>
    3cea: a6 84        	ldx	$84                     ; 0x2084 <main+0x1b05>
    3cec: a0 a1        	ldy	#$a1
    3cee: 84 14        	sty	$14                     ; 0x2014 <main+0x1a95>
    3cf0: a0 dd        	ldy	#$dd
    3cf2: 84 15        	sty	$15                     ; 0x2015 <main+0x1a96>
    3cf4: 8a           	txa
    3cf5: f0 08        	beq	$3cff <main+0x3780>
    3cf7: a2 b1        	ldx	#$b1
    3cf9: 86 14        	stx	$14                     ; 0x2014 <main+0x1a95>
    3cfb: a2 dd        	ldx	#$dd
    3cfd: 86 15        	stx	$15                     ; 0x2015 <main+0x1a96>
    3cff: a0 11        	ldy	#$11
    3d01: b1 12        	lda	($12),y                 ; 0x2012 <main+0x1a93>
    3d03: 92 14        	sta	($14)                   ; 0x2014 <main+0x1a95>
    3d05: a6 82        	ldx	$82                     ; 0x2082 <main+0x1b03>
    3d07: 86 2c        	stx	$2c                     ; 0x202c <main+0x1aad>
    3d09: a6 83        	ldx	$83                     ; 0x2083 <main+0x1b04>
    3d0b: 86 2b        	stx	$2b                     ; 0x202b <main+0x1aac>
    3d0d: a2 19        	ldx	#$19
    3d0f: 86 12        	stx	$12                     ; 0x2012 <main+0x1a93>
    3d11: 64 13        	stz	$13                     ; 0x2013 <main+0x1a94>
    3d13: a2 00        	ldx	#$0
    3d15: a5 28        	lda	$28                     ; 0x2028 <main+0x1aa9>
    3d17: 20 95 63     	jsr	$6395 <__mulhi3>
    3d1a: 85 12        	sta	$12                     ; 0x2012 <main+0x1a93>
    3d1c: 86 13        	stx	$13                     ; 0x2013 <main+0x1a94>
    3d1e: 18           	clc
    3d1f: a5 2c        	lda	$2c                     ; 0x202c <main+0x1aad>
    3d21: 65 12        	adc	$12                     ; 0x2012 <main+0x1a93>
    3d23: 85 12        	sta	$12                     ; 0x2012 <main+0x1a93>
    3d25: a5 2b        	lda	$2b                     ; 0x202b <main+0x1aac>
    3d27: 65 13        	adc	$13                     ; 0x2013 <main+0x1a94>
    3d29: 85 13        	sta	$13                     ; 0x2013 <main+0x1a94>
    3d2b: a0 17        	ldy	#$17
    3d2d: b1 12        	lda	($12),y                 ; 0x2012 <main+0x1a93>
    3d2f: d0 39        	bne	$3d6a <main+0x37eb>
    3d31: a6 84        	ldx	$84                     ; 0x2084 <main+0x1b05>
    3d33: a0 a1        	ldy	#$a1
    3d35: 84 14        	sty	$14                     ; 0x2014 <main+0x1a95>
    3d37: a0 dd        	ldy	#$dd
    3d39: 84 15        	sty	$15                     ; 0x2015 <main+0x1a96>
    3d3b: 8a           	txa
    3d3c: f0 08        	beq	$3d46 <main+0x37c7>
    3d3e: a2 b1        	ldx	#$b1
    3d40: 86 14        	stx	$14                     ; 0x2014 <main+0x1a95>
    3d42: a2 dd        	ldx	#$dd
    3d44: 86 15        	stx	$15                     ; 0x2015 <main+0x1a96>
    3d46: a0 12        	ldy	#$12
    3d48: b1 12        	lda	($12),y                 ; 0x2012 <main+0x1a93>
    3d4a: 92 14        	sta	($14)                   ; 0x2014 <main+0x1a95>
    3d4c: a6 73        	ldx	$73                     ; 0x2073 <main+0x1af4>
    3d4e: a4 74        	ldy	$74                     ; 0x2074 <main+0x1af5>
    3d50: f0 21        	beq	$3d73 <main+0x37f4>
    3d52: 4c 9a 3e     	jmp	$3e9a <main+0x391b>
    3d55: a0 11        	ldy	#$11
    3d57: b1 12        	lda	($12),y                 ; 0x2012 <main+0x1a93>
    3d59: c9 51        	cmp	#$51
    3d5b: d0 03        	bne	$3d60 <main+0x37e1>
    3d5d: 4c 05 3e     	jmp	$3e05 <main+0x3886>
    3d60: c9 2f        	cmp	#$2f
    3d62: d0 06        	bne	$3d6a <main+0x37eb>
    3d64: a0 18        	ldy	#$18
    3d66: a9 01        	lda	#$1
    3d68: 91 12        	sta	($12),y                 ; 0x2012 <main+0x1a93>
    3d6a: a6 73        	ldx	$73                     ; 0x2073 <main+0x1af4>
    3d6c: a4 74        	ldy	$74                     ; 0x2074 <main+0x1af5>
    3d6e: f0 03        	beq	$3d73 <main+0x37f4>
    3d70: 4c 9a 3e     	jmp	$3e9a <main+0x391b>
    3d73: 8a           	txa
    3d74: f0 03        	beq	$3d79 <main+0x37fa>
    3d76: 4c 9a 3e     	jmp	$3e9a <main+0x391b>
    3d79: a5 80        	lda	$80                     ; 0x2080 <main+0x1b01>
    3d7b: 85 24        	sta	$24                     ; 0x2024 <main+0x1aa5>
    3d7d: 20 a4 43     	jsr	$43a4 <readDelta>
    3d80: 85 25        	sta	$25                     ; 0x2025 <main+0x1aa6>
    3d82: 86 28        	stx	$28                     ; 0x2028 <main+0x1aa9>
    3d84: a6 12        	ldx	$12                     ; 0x2012 <main+0x1a93>
    3d86: 86 2b        	stx	$2b                     ; 0x202b <main+0x1aac>
    3d88: a6 13        	ldx	$13                     ; 0x2013 <main+0x1a94>
    3d8a: 86 2c        	stx	$2c                     ; 0x202c <main+0x1aad>
    3d8c: a6 82        	ldx	$82                     ; 0x2082 <main+0x1b03>
    3d8e: 86 2e        	stx	$2e                     ; 0x202e <main+0x1aaf>
    3d90: a6 83        	ldx	$83                     ; 0x2083 <main+0x1b04>
    3d92: 86 2d        	stx	$2d                     ; 0x202d <main+0x1aae>
    3d94: a2 19        	ldx	#$19
    3d96: 86 12        	stx	$12                     ; 0x2012 <main+0x1a93>
    3d98: 64 13        	stz	$13                     ; 0x2013 <main+0x1a94>
    3d9a: a2 00        	ldx	#$0
    3d9c: a5 24        	lda	$24                     ; 0x2024 <main+0x1aa5>
    3d9e: 20 95 63     	jsr	$6395 <__mulhi3>
    3da1: 85 12        	sta	$12                     ; 0x2012 <main+0x1a93>
    3da3: 86 13        	stx	$13                     ; 0x2013 <main+0x1a94>
    3da5: 18           	clc
    3da6: a5 2e        	lda	$2e                     ; 0x202e <main+0x1aaf>
    3da8: 65 12        	adc	$12                     ; 0x2012 <main+0x1a93>
    3daa: a8           	tay
    3dab: a5 2d        	lda	$2d                     ; 0x202d <main+0x1aae>
    3dad: 65 13        	adc	$13                     ; 0x2013 <main+0x1a94>
    3daf: aa           	tax
    3db0: 98           	tya
    3db1: 84 12        	sty	$12                     ; 0x2012 <main+0x1a93>
    3db3: 86 13        	stx	$13                     ; 0x2013 <main+0x1a94>
    3db5: 18           	clc
    3db6: 69 0c        	adc	#$c
    3db8: 85 14        	sta	$14                     ; 0x2014 <main+0x1a95>
    3dba: 8a           	txa
    3dbb: 69 00        	adc	#$0
    3dbd: 85 15        	sta	$15                     ; 0x2015 <main+0x1a96>
    3dbf: a0 0c        	ldy	#$c
    3dc1: a5 25        	lda	$25                     ; 0x2025 <main+0x1aa6>
    3dc3: 91 12        	sta	($12),y                 ; 0x2012 <main+0x1a93>
    3dc5: a0 01        	ldy	#$1
    3dc7: a5 28        	lda	$28                     ; 0x2028 <main+0x1aa9>
    3dc9: 91 14        	sta	($14),y                 ; 0x2014 <main+0x1a95>
    3dcb: c8           	iny
    3dcc: a5 2b        	lda	$2b                     ; 0x202b <main+0x1aac>
    3dce: 91 14        	sta	($14),y                 ; 0x2014 <main+0x1a95>
    3dd0: c8           	iny
    3dd1: a5 2c        	lda	$2c                     ; 0x202c <main+0x1aad>
    3dd3: 91 14        	sta	($14),y                 ; 0x2014 <main+0x1a95>
    3dd5: a5 24        	lda	$24                     ; 0x2024 <main+0x1aa5>
    3dd7: 20 14 48     	jsr	$4814 <readMIDICmd>
    3dda: a5 80        	lda	$80                     ; 0x2080 <main+0x1b01>
    3ddc: 20 4f 50     	jsr	$504f <exhaustZeroes>
    3ddf: 64 7b        	stz	$7b                     ; 0x207b <main+0x1afc>
    3de1: a2 b1        	ldx	#$b1
    3de3: 86 2e        	stx	$2e                     ; 0x202e <main+0x1aaf>
    3de5: a2 dd        	ldx	#$dd
    3de7: 86 2f        	stx	$2f                     ; 0x202f <main+0x1ab0>
    3de9: a2 a1        	ldx	#$a1
    3deb: 86 24        	stx	$24                     ; 0x2024 <main+0x1aa5>
    3ded: a2 dd        	ldx	#$dd
    3def: 86 25        	stx	$25                     ; 0x2025 <main+0x1aa6>
    3df1: a2 85        	ldx	#$85
    3df3: 86 2c        	stx	$2c                     ; 0x202c <main+0x1aad>
    3df5: a2 00        	ldx	#$0
    3df7: 86 2d        	stx	$2d                     ; 0x202d <main+0x1aae>
    3df9: a6 73        	ldx	$73                     ; 0x2073 <main+0x1af4>
    3dfb: a4 74        	ldy	$74                     ; 0x2074 <main+0x1af5>
    3dfd: f0 03        	beq	$3e02 <main+0x3883>
    3dff: 4c 92 3b     	jmp	$3b92 <main+0x3613>
    3e02: 4c 8c 3b     	jmp	$3b8c <main+0x360d>
    3e05: a6 2c        	ldx	$2c                     ; 0x202c <main+0x1aad>
    3e07: a4 14        	ldy	$14                     ; 0x2014 <main+0x1a95>
    3e09: 84 25        	sty	$25                     ; 0x2025 <main+0x1aa6>
    3e0b: 86 24        	stx	$24                     ; 0x2024 <main+0x1aa5>
    3e0d: a2 19        	ldx	#$19
    3e0f: 86 12        	stx	$12                     ; 0x2012 <main+0x1a93>
    3e11: 64 13        	stz	$13                     ; 0x2013 <main+0x1a94>
    3e13: a2 00        	ldx	#$0
    3e15: a5 28        	lda	$28                     ; 0x2028 <main+0x1aa9>
    3e17: 20 95 63     	jsr	$6395 <__mulhi3>
    3e1a: 85 12        	sta	$12                     ; 0x2012 <main+0x1a93>
    3e1c: 86 13        	stx	$13                     ; 0x2013 <main+0x1a94>
    3e1e: 18           	clc
    3e1f: a5 24        	lda	$24                     ; 0x2024 <main+0x1aa5>
    3e21: 65 12        	adc	$12                     ; 0x2012 <main+0x1a93>
    3e23: 85 14        	sta	$14                     ; 0x2014 <main+0x1a95>
    3e25: a5 25        	lda	$25                     ; 0x2025 <main+0x1aa6>
    3e27: 65 13        	adc	$13                     ; 0x2013 <main+0x1a94>
    3e29: 85 15        	sta	$15                     ; 0x2015 <main+0x1a96>
    3e2b: a0 13        	ldy	#$13
    3e2d: b1 14        	lda	($14),y                 ; 0x2014 <main+0x1a95>
    3e2f: 85 12        	sta	$12                     ; 0x2012 <main+0x1a93>
    3e31: c8           	iny
    3e32: b1 14        	lda	($14),y                 ; 0x2014 <main+0x1a95>
    3e34: 85 19        	sta	$19                     ; 0x2019 <main+0x1a9a>
    3e36: c8           	iny
    3e37: b1 14        	lda	($14),y                 ; 0x2014 <main+0x1a95>
    3e39: a6 75        	ldx	$75                     ; 0x2075 <main+0x1af6>
    3e3b: a4 76        	ldy	$76                     ; 0x2076 <main+0x1af7>
    3e3d: 64 13        	stz	$13                     ; 0x2013 <main+0x1a94>
    3e3f: 86 14        	stx	$14                     ; 0x2014 <main+0x1a95>
    3e41: 84 15        	sty	$15                     ; 0x2015 <main+0x1a96>
    3e43: 64 16        	stz	$16                     ; 0x2016 <main+0x1a97>
    3e45: 64 17        	stz	$17                     ; 0x2017 <main+0x1a98>
    3e47: a6 19        	ldx	$19                     ; 0x2019 <main+0x1a9a>
    3e49: 20 37 64     	jsr	$6437 <__udivsi3>
    3e4c: 86 14        	stx	$14                     ; 0x2014 <main+0x1a95>
    3e4e: 0a           	asl
    3e4f: 26 14        	rol	$14                     ; 0x2014 <main+0x1a95>
    3e51: 26 12        	rol	$12                     ; 0x2012 <main+0x1a93>
    3e53: 26 13        	rol	$13                     ; 0x2013 <main+0x1a94>
    3e55: 0a           	asl
    3e56: 85 15        	sta	$15                     ; 0x2015 <main+0x1a96>
    3e58: 26 14        	rol	$14                     ; 0x2014 <main+0x1a95>
    3e5a: 26 12        	rol	$12                     ; 0x2012 <main+0x1a93>
    3e5c: 26 13        	rol	$13                     ; 0x2013 <main+0x1a94>
    3e5e: 0a           	asl
    3e5f: aa           	tax
    3e60: a5 14        	lda	$14                     ; 0x2014 <main+0x1a95>
    3e62: 2a           	rol
    3e63: a8           	tay
    3e64: a5 12        	lda	$12                     ; 0x2012 <main+0x1a93>
    3e66: 2a           	rol
    3e67: 85 16        	sta	$16                     ; 0x2016 <main+0x1a97>
    3e69: a5 13        	lda	$13                     ; 0x2013 <main+0x1a94>
    3e6b: 2a           	rol
    3e6c: 85 17        	sta	$17                     ; 0x2017 <main+0x1a98>
    3e6e: 18           	clc
    3e6f: 8a           	txa
    3e70: 65 15        	adc	$15                     ; 0x2015 <main+0x1a96>
    3e72: 85 15        	sta	$15                     ; 0x2015 <main+0x1a96>
    3e74: 98           	tya
    3e75: 65 14        	adc	$14                     ; 0x2014 <main+0x1a95>
    3e77: 85 14        	sta	$14                     ; 0x2014 <main+0x1a95>
    3e79: a5 16        	lda	$16                     ; 0x2016 <main+0x1a97>
    3e7b: 65 12        	adc	$12                     ; 0x2012 <main+0x1a93>
    3e7d: 85 12        	sta	$12                     ; 0x2012 <main+0x1a93>
    3e7f: a5 17        	lda	$17                     ; 0x2017 <main+0x1a98>
    3e81: 65 13        	adc	$13                     ; 0x2013 <main+0x1a94>
    3e83: a6 15        	ldx	$15                     ; 0x2015 <main+0x1a96>
    3e85: 86 77        	stx	$77                     ; 0x2077 <main+0x1af8>
    3e87: a6 14        	ldx	$14                     ; 0x2014 <main+0x1a95>
    3e89: 86 78        	stx	$78                     ; 0x2078 <main+0x1af9>
    3e8b: a6 12        	ldx	$12                     ; 0x2012 <main+0x1a93>
    3e8d: 86 79        	stx	$79                     ; 0x2079 <main+0x1afa>
    3e8f: 85 7a        	sta	$7a                     ; 0x207a <main+0x1afb>
    3e91: a6 73        	ldx	$73                     ; 0x2073 <main+0x1af4>
    3e93: a4 74        	ldy	$74                     ; 0x2074 <main+0x1af5>
    3e95: d0 03        	bne	$3e9a <main+0x391b>
    3e97: 4c 73 3d     	jmp	$3d73 <main+0x37f4>
    3e9a: a5 82        	lda	$82                     ; 0x2082 <main+0x1b03>
    3e9c: 85 2c        	sta	$2c                     ; 0x202c <main+0x1aad>
    3e9e: a5 83        	lda	$83                     ; 0x2083 <main+0x1b04>
    3ea0: 85 2d        	sta	$2d                     ; 0x202d <main+0x1aae>
    3ea2: a9 0c        	lda	#$c
    3ea4: 64 25        	stz	$25                     ; 0x2025 <main+0x1aa6>
    3ea6: 86 2e        	stx	$2e                     ; 0x202e <main+0x1aaf>
    3ea8: 84 2f        	sty	$2f                     ; 0x202f <main+0x1ab0>
    3eaa: a0 00        	ldy	#$0
    3eac: a2 00        	ldx	#$0
    3eae: 84 28        	sty	$28                     ; 0x2028 <main+0x1aa9>
    3eb0: 85 24        	sta	$24                     ; 0x2024 <main+0x1aa5>
    3eb2: 18           	clc
    3eb3: 65 2c        	adc	$2c                     ; 0x202c <main+0x1aad>
    3eb5: 85 12        	sta	$12                     ; 0x2012 <main+0x1a93>
    3eb7: a5 25        	lda	$25                     ; 0x2025 <main+0x1aa6>
    3eb9: 65 2d        	adc	$2d                     ; 0x202d <main+0x1aae>
    3ebb: 85 13        	sta	$13                     ; 0x2013 <main+0x1a94>
    3ebd: a0 0c        	ldy	#$c
    3ebf: b1 12        	lda	($12),y                 ; 0x2012 <main+0x1a93>
    3ec1: f0 0d        	beq	$3ed0 <main+0x3951>
    3ec3: a5 24        	lda	$24                     ; 0x2024 <main+0x1aa5>
    3ec5: a4 28        	ldy	$28                     ; 0x2028 <main+0x1aa9>
    3ec7: 84 13        	sty	$13                     ; 0x2013 <main+0x1a94>
    3ec9: a4 13        	ldy	$13                     ; 0x2013 <main+0x1a94>
    3ecb: c8           	iny
    3ecc: f0 22        	beq	$3ef0 <main+0x3971>
    3ece: 80 21        	bra	$3ef1 <main+0x3972>
    3ed0: 8a           	txa
    3ed1: a6 80        	ldx	$80                     ; 0x2080 <main+0x1b01>
    3ed3: 86 14        	stx	$14                     ; 0x2014 <main+0x1a95>
    3ed5: a6 81        	ldx	$81                     ; 0x2081 <main+0x1b02>
    3ed7: 85 2b        	sta	$2b                     ; 0x202b <main+0x1aac>
    3ed9: c5 81        	cmp	$81                     ; 0x2081 <main+0x1b02>
    3edb: d0 3b        	bne	$3f18 <main+0x3999>
    3edd: a4 28        	ldy	$28                     ; 0x2028 <main+0x1aa9>
    3edf: 64 13        	stz	$13                     ; 0x2013 <main+0x1a94>
    3ee1: c4 14        	cpy	$14                     ; 0x2014 <main+0x1a95>
    3ee3: d0 35        	bne	$3f1a <main+0x399b>
    3ee5: a5 24        	lda	$24                     ; 0x2024 <main+0x1aa5>
    3ee7: a6 2b        	ldx	$2b                     ; 0x202b <main+0x1aac>
    3ee9: 84 13        	sty	$13                     ; 0x2013 <main+0x1a94>
    3eeb: a4 13        	ldy	$13                     ; 0x2013 <main+0x1a94>
    3eed: c8           	iny
    3eee: d0 01        	bne	$3ef1 <main+0x3972>
    3ef0: e8           	inx
    3ef1: 18           	clc
    3ef2: 69 19        	adc	#$19
    3ef4: 85 12        	sta	$12                     ; 0x2012 <main+0x1a93>
    3ef6: a5 25        	lda	$25                     ; 0x2025 <main+0x1aa6>
    3ef8: 69 00        	adc	#$0
    3efa: 85 25        	sta	$25                     ; 0x2025 <main+0x1aa6>
    3efc: e4 2f        	cpx	$2f                     ; 0x202f <main+0x1ab0>
    3efe: d0 0c        	bne	$3f0c <main+0x398d>
    3f00: c4 2e        	cpy	$2e                     ; 0x202e <main+0x1aaf>
    3f02: a5 12        	lda	$12                     ; 0x2012 <main+0x1a93>
    3f04: b0 03        	bcs	$3f09 <main+0x398a>
    3f06: 4c ae 3e     	jmp	$3eae <main+0x392f>
    3f09: 4c 79 3d     	jmp	$3d79 <main+0x37fa>
    3f0c: e4 2f        	cpx	$2f                     ; 0x202f <main+0x1ab0>
    3f0e: a5 12        	lda	$12                     ; 0x2012 <main+0x1a93>
    3f10: b0 03        	bcs	$3f15 <main+0x3996>
    3f12: 4c ae 3e     	jmp	$3eae <main+0x392f>
    3f15: 4c 79 3d     	jmp	$3d79 <main+0x37fa>
    3f18: 64 13        	stz	$13                     ; 0x2013 <main+0x1a94>
    3f1a: a0 19        	ldy	#$19
    3f1c: 84 12        	sty	$12                     ; 0x2012 <main+0x1a93>
    3f1e: a5 14        	lda	$14                     ; 0x2014 <main+0x1a95>
    3f20: 20 95 63     	jsr	$6395 <__mulhi3>
    3f23: 85 12        	sta	$12                     ; 0x2012 <main+0x1a93>
    3f25: 86 13        	stx	$13                     ; 0x2013 <main+0x1a94>
    3f27: a5 2c        	lda	$2c                     ; 0x202c <main+0x1aad>
    3f29: 18           	clc
    3f2a: 65 12        	adc	$12                     ; 0x2012 <main+0x1a93>
    3f2c: aa           	tax
    3f2d: a5 2d        	lda	$2d                     ; 0x202d <main+0x1aae>
    3f2f: 65 13        	adc	$13                     ; 0x2013 <main+0x1a94>
    3f31: 86 12        	stx	$12                     ; 0x2012 <main+0x1a93>
    3f33: 85 13        	sta	$13                     ; 0x2013 <main+0x1a94>
    3f35: a8           	tay
    3f36: 18           	clc
    3f37: 8a           	txa
    3f38: 69 0c        	adc	#$c
    3f3a: 85 16        	sta	$16                     ; 0x2016 <main+0x1a97>
    3f3c: 98           	tya
    3f3d: 69 00        	adc	#$0
    3f3f: 85 17        	sta	$17                     ; 0x2017 <main+0x1a98>
    3f41: a0 0c        	ldy	#$c
    3f43: b1 12        	lda	($12),y                 ; 0x2012 <main+0x1a93>
    3f45: 85 12        	sta	$12                     ; 0x2012 <main+0x1a93>
    3f47: a0 01        	ldy	#$1
    3f49: b1 16        	lda	($16),y                 ; 0x2016 <main+0x1a97>
    3f4b: 85 13        	sta	$13                     ; 0x2013 <main+0x1a94>
    3f4d: c8           	iny
    3f4e: b1 16        	lda	($16),y                 ; 0x2016 <main+0x1a97>
    3f50: 85 14        	sta	$14                     ; 0x2014 <main+0x1a95>
    3f52: c8           	iny
    3f53: b1 16        	lda	($16),y                 ; 0x2016 <main+0x1a97>
    3f55: 85 15        	sta	$15                     ; 0x2015 <main+0x1a96>
    3f57: a5 24        	lda	$24                     ; 0x2024 <main+0x1aa5>
    3f59: 18           	clc
    3f5a: 65 2c        	adc	$2c                     ; 0x202c <main+0x1aad>
    3f5c: 85 16        	sta	$16                     ; 0x2016 <main+0x1a97>
    3f5e: a5 25        	lda	$25                     ; 0x2025 <main+0x1aa6>
    3f60: 65 2d        	adc	$2d                     ; 0x202d <main+0x1aae>
    3f62: 85 17        	sta	$17                     ; 0x2017 <main+0x1a98>
    3f64: b2 16        	lda	($16)                   ; 0x2016 <main+0x1a97>
    3f66: 85 18        	sta	$18                     ; 0x2018 <main+0x1a99>
    3f68: a0 01        	ldy	#$1
    3f6a: b1 16        	lda	($16),y                 ; 0x2016 <main+0x1a97>
    3f6c: 85 19        	sta	$19                     ; 0x2019 <main+0x1a9a>
    3f6e: c8           	iny
    3f6f: b1 16        	lda	($16),y                 ; 0x2016 <main+0x1a97>
    3f71: aa           	tax
    3f72: a5 18        	lda	$18                     ; 0x2018 <main+0x1a99>
    3f74: 38           	sec
    3f75: e5 12        	sbc	$12                     ; 0x2012 <main+0x1a93>
    3f77: 85 1c        	sta	$1c                     ; 0x201c <main+0x1a9d>
    3f79: a5 19        	lda	$19                     ; 0x2019 <main+0x1a9a>
    3f7b: e5 13        	sbc	$13                     ; 0x2013 <main+0x1a94>
    3f7d: 85 1b        	sta	$1b                     ; 0x201b <main+0x1a9c>
    3f7f: 8a           	txa
    3f80: 86 1a        	stx	$1a                     ; 0x201a <main+0x1a9b>
    3f82: e5 14        	sbc	$14                     ; 0x2014 <main+0x1a95>
    3f84: 85 1d        	sta	$1d                     ; 0x201d <main+0x1a9e>
    3f86: c8           	iny
    3f87: b1 16        	lda	($16),y                 ; 0x2016 <main+0x1a97>
    3f89: aa           	tax
    3f8a: e5 15        	sbc	$15                     ; 0x2015 <main+0x1a96>
    3f8c: 85 1e        	sta	$1e                     ; 0x201e <main+0x1a9f>
    3f8e: a5 1c        	lda	$1c                     ; 0x201c <main+0x1a9d>
    3f90: 92 16        	sta	($16)                   ; 0x2016 <main+0x1a97>
    3f92: a0 01        	ldy	#$1
    3f94: a5 1b        	lda	$1b                     ; 0x201b <main+0x1a9c>
    3f96: 91 16        	sta	($16),y                 ; 0x2016 <main+0x1a97>
    3f98: c8           	iny
    3f99: a5 1d        	lda	$1d                     ; 0x201d <main+0x1a9e>
    3f9b: 91 16        	sta	($16),y                 ; 0x2016 <main+0x1a97>
    3f9d: c8           	iny
    3f9e: a5 1e        	lda	$1e                     ; 0x201e <main+0x1a9f>
    3fa0: 91 16        	sta	($16),y                 ; 0x2016 <main+0x1a97>
    3fa2: e4 15        	cpx	$15                     ; 0x2015 <main+0x1a96>
    3fa4: d0 0c        	bne	$3fb2 <main+0x3a33>
    3fa6: a4 28        	ldy	$28                     ; 0x2028 <main+0x1aa9>
    3fa8: a6 2b        	ldx	$2b                     ; 0x202b <main+0x1aac>
    3faa: a5 1a        	lda	$1a                     ; 0x201a <main+0x1a9b>
    3fac: c5 14        	cmp	$14                     ; 0x2014 <main+0x1a95>
    3fae: d0 4b        	bne	$3ffb <main+0x3a7c>
    3fb0: 80 13        	bra	$3fc5 <main+0x3a46>
    3fb2: a5 24        	lda	$24                     ; 0x2024 <main+0x1aa5>
    3fb4: a6 28        	ldx	$28                     ; 0x2028 <main+0x1aa9>
    3fb6: 86 13        	stx	$13                     ; 0x2013 <main+0x1a94>
    3fb8: a6 2b        	ldx	$2b                     ; 0x202b <main+0x1aac>
    3fba: a4 13        	ldy	$13                     ; 0x2013 <main+0x1a94>
    3fbc: c8           	iny
    3fbd: d0 03        	bne	$3fc2 <main+0x3a43>
    3fbf: 4c f0 3e     	jmp	$3ef0 <main+0x3971>
    3fc2: 4c f1 3e     	jmp	$3ef1 <main+0x3972>
    3fc5: 84 14        	sty	$14                     ; 0x2014 <main+0x1a95>
    3fc7: a5 24        	lda	$24                     ; 0x2024 <main+0x1aa5>
    3fc9: a4 19        	ldy	$19                     ; 0x2019 <main+0x1a9a>
    3fcb: c4 13        	cpy	$13                     ; 0x2013 <main+0x1a94>
    3fcd: d0 3b        	bne	$400a <main+0x3a8b>
    3fcf: a4 18        	ldy	$18                     ; 0x2018 <main+0x1a99>
    3fd1: 48           	pha
    3fd2: a5 14        	lda	$14                     ; 0x2014 <main+0x1a95>
    3fd4: 85 13        	sta	$13                     ; 0x2013 <main+0x1a94>
    3fd6: 68           	pla
    3fd7: c4 12        	cpy	$12                     ; 0x2012 <main+0x1a93>
    3fd9: f0 03        	beq	$3fde <main+0x3a5f>
    3fdb: 4c eb 3e     	jmp	$3eeb <main+0x396c>
    3fde: a5 14        	lda	$14                     ; 0x2014 <main+0x1a95>
    3fe0: 20 4f 50     	jsr	$504f <exhaustZeroes>
    3fe3: a6 82        	ldx	$82                     ; 0x2082 <main+0x1b03>
    3fe5: a4 83        	ldy	$83                     ; 0x2083 <main+0x1b04>
    3fe7: 86 2c        	stx	$2c                     ; 0x202c <main+0x1aad>
    3fe9: 84 2d        	sty	$2d                     ; 0x202d <main+0x1aae>
    3feb: a6 73        	ldx	$73                     ; 0x2073 <main+0x1af4>
    3fed: a4 74        	ldy	$74                     ; 0x2074 <main+0x1af5>
    3fef: 86 2e        	stx	$2e                     ; 0x202e <main+0x1aaf>
    3ff1: 84 2f        	sty	$2f                     ; 0x202f <main+0x1ab0>
    3ff3: a6 28        	ldx	$28                     ; 0x2028 <main+0x1aa9>
    3ff5: 86 13        	stx	$13                     ; 0x2013 <main+0x1a94>
    3ff7: a5 24        	lda	$24                     ; 0x2024 <main+0x1aa5>
    3ff9: 80 bd        	bra	$3fb8 <main+0x3a39>
    3ffb: a5 24        	lda	$24                     ; 0x2024 <main+0x1aa5>
    3ffd: 84 13        	sty	$13                     ; 0x2013 <main+0x1a94>
    3fff: a4 13        	ldy	$13                     ; 0x2013 <main+0x1a94>
    4001: c8           	iny
    4002: d0 03        	bne	$4007 <main+0x3a88>
    4004: 4c f0 3e     	jmp	$3ef0 <main+0x3971>
    4007: 4c f1 3e     	jmp	$3ef1 <main+0x3972>
    400a: a4 14        	ldy	$14                     ; 0x2014 <main+0x1a95>
    400c: 84 13        	sty	$13                     ; 0x2013 <main+0x1a94>
    400e: a4 13        	ldy	$13                     ; 0x2013 <main+0x1a94>
    4010: c8           	iny
    4011: d0 03        	bne	$4016 <main+0x3a97>
    4013: 4c f0 3e     	jmp	$3ef0 <main+0x3971>
    4016: 4c f1 3e     	jmp	$3ef1 <main+0x3972>
    4019: 86 18        	stx	$18                     ; 0x2018 <main+0x1a99>
    401b: a6 1b        	ldx	$1b                     ; 0x201b <main+0x1a9c>
    401d: 86 19        	stx	$19                     ; 0x2019 <main+0x1a9a>
    401f: a0 04        	ldy	#$4
    4021: b1 18        	lda	($18),y                 ; 0x2018 <main+0x1a99>
    4023: 85 19        	sta	$19                     ; 0x2019 <main+0x1a9a>
    4025: b2 16        	lda	($16)                   ; 0x2016 <main+0x1a97>
    4027: 85 18        	sta	$18                     ; 0x2018 <main+0x1a99>
    4029: a6 19        	ldx	$19                     ; 0x2019 <main+0x1a9a>
    402b: e4 18        	cpx	$18                     ; 0x2018 <main+0x1a99>
    402d: 4c b9 24     	jmp	$24b9 <main+0x1f3a>
    4030: c4 18        	cpy	$18                     ; 0x2018 <main+0x1a99>
    4032: 4c b9 24     	jmp	$24b9 <main+0x1f3a>

00004035 <textPrint>:
    4035: a6 01        	ldx	$1                      ; 0x2001 <main+0x1a82>
    4037: 86 1c        	stx	$1c                     ; 0x201c <main+0x1a9d>
    4039: a6 62        	ldx	$62                     ; 0x2062 <main+0x1ae3>
    403b: a0 50        	ldy	#$50
    403d: 8c 00 de     	sty	$de00                   ; 0xde00 <__heap_start+0x7564>
    4040: 9c 01 de     	stz	$de01                   ; 0xde01 <__heap_start+0x7565>
    4043: 8e 02 de     	stx	$de02                   ; 0xde02 <__heap_start+0x7566>
    4046: 9c 03 de     	stz	$de03                   ; 0xde03 <__heap_start+0x7567>
    4049: ae 10 de     	ldx	$de10                   ; 0xde10 <__heap_start+0x7574>
    404c: ac 11 de     	ldy	$de11                   ; 0xde11 <__heap_start+0x7575>
    404f: 84 15        	sty	$15                     ; 0x2015 <main+0x1a96>
    4051: ad 12 de     	lda	$de12                   ; 0xde12 <__heap_start+0x7576>
    4054: ac 13 de     	ldy	$de13                   ; 0xde13 <__heap_start+0x7577>
    4057: 84 18        	sty	$18                     ; 0x2018 <main+0x1a99>
    4059: 9c 08 de     	stz	$de08                   ; 0xde08 <__heap_start+0x756c>
    405c: a0 c0        	ldy	#$c0
    405e: 8c 09 de     	sty	$de09                   ; 0xde09 <__heap_start+0x756d>
    4061: 9c 0a de     	stz	$de0a                   ; 0xde0a <__heap_start+0x756e>
    4064: 9c 0b de     	stz	$de0b                   ; 0xde0b <__heap_start+0x756f>
    4067: 8e 0c de     	stx	$de0c                   ; 0xde0c <__heap_start+0x7570>
    406a: 64 14        	stz	$14                     ; 0x2014 <main+0x1a95>
    406c: a2 00        	ldx	#$0
    406e: 86 16        	stx	$16                     ; 0x2016 <main+0x1a97>
    4070: a2 c0        	ldx	#$c0
    4072: 86 17        	stx	$17                     ; 0x2017 <main+0x1a98>
    4074: a6 15        	ldx	$15                     ; 0x2015 <main+0x1a96>
    4076: 8e 0d de     	stx	$de0d                   ; 0xde0d <__heap_start+0x7571>
    4079: 8d 0e de     	sta	$de0e                   ; 0xde0e <__heap_start+0x7572>
    407c: a6 18        	ldx	$18                     ; 0x2018 <main+0x1a99>
    407e: 8e 0f de     	stx	$de0f                   ; 0xde0f <__heap_start+0x7573>
    4081: ac 18 de     	ldy	$de18                   ; 0xde18 <__heap_start+0x757c>
    4084: ad 19 de     	lda	$de19                   ; 0xde19 <__heap_start+0x757d>
    4087: ae 1a de     	ldx	$de1a                   ; 0xde1a <__heap_start+0x757e>
    408a: ae 1b de     	ldx	$de1b                   ; 0xde1b <__heap_start+0x757f>
    408d: 84 18        	sty	$18                     ; 0x2018 <main+0x1a99>
    408f: 85 19        	sta	$19                     ; 0x2019 <main+0x1a9a>
    4091: 64 15        	stz	$15                     ; 0x2015 <main+0x1a96>
    4093: a2 20        	ldx	#$20
    4095: 4c 2d 43     	jmp	$432d <textPrint+0x2f8>
    4098: a5 1a        	lda	$1a                     ; 0x201a <main+0x1a9b>
    409a: f0 1c        	beq	$40b8 <textPrint+0x83>
    409c: b1 18        	lda	($18),y                 ; 0x2018 <main+0x1a99>
    409e: 92 18        	sta	($18)                   ; 0x2018 <main+0x1a99>
    40a0: a9 ff        	lda	#$ff
    40a2: c6 1b        	dec	$1b                     ; 0x201b <main+0x1a9c>
    40a4: c5 1b        	cmp	$1b                     ; 0x201b <main+0x1a9c>
    40a6: f0 06        	beq	$40ae <textPrint+0x79>
    40a8: e6 18        	inc	$18                     ; 0x2018 <main+0x1a99>
    40aa: d0 ec        	bne	$4098 <textPrint+0x63>
    40ac: 80 06        	bra	$40b4 <textPrint+0x7f>
    40ae: c6 1a        	dec	$1a                     ; 0x201a <main+0x1a9b>
    40b0: e6 18        	inc	$18                     ; 0x2018 <main+0x1a99>
    40b2: d0 e4        	bne	$4098 <textPrint+0x63>
    40b4: e6 19        	inc	$19                     ; 0x2019 <main+0x1a9a>
    40b6: 80 e0        	bra	$4098 <textPrint+0x63>
    40b8: a5 1b        	lda	$1b                     ; 0x201b <main+0x1a9c>
    40ba: d0 e0        	bne	$409c <textPrint+0x67>
    40bc: a9 02        	lda	#$2
    40be: 85 01        	sta	$1                      ; 0x2001 <main+0x1a82>
    40c0: a9 10        	lda	#$10
    40c2: 5a           	phy
    40c3: a0 00        	ldy	#$0
    40c5: 84 18        	sty	$18                     ; 0x2018 <main+0x1a99>
    40c7: a0 c0        	ldy	#$c0
    40c9: 84 19        	sty	$19                     ; 0x2019 <main+0x1a9a>
    40cb: 7a           	ply
    40cc: 85 1b        	sta	$1b                     ; 0x201b <main+0x1a9c>
    40ce: a9 09        	lda	#$9
    40d0: 85 1a        	sta	$1a                     ; 0x201a <main+0x1a9b>
    40d2: 80 04        	bra	$40d8 <textPrint+0xa3>
    40d4: a5 1a        	lda	$1a                     ; 0x201a <main+0x1a9b>
    40d6: f0 1c        	beq	$40f4 <textPrint+0xbf>
    40d8: b1 18        	lda	($18),y                 ; 0x2018 <main+0x1a99>
    40da: 92 18        	sta	($18)                   ; 0x2018 <main+0x1a99>
    40dc: a9 ff        	lda	#$ff
    40de: c6 1b        	dec	$1b                     ; 0x201b <main+0x1a9c>
    40e0: c5 1b        	cmp	$1b                     ; 0x201b <main+0x1a9c>
    40e2: f0 06        	beq	$40ea <textPrint+0xb5>
    40e4: e6 18        	inc	$18                     ; 0x2018 <main+0x1a99>
    40e6: d0 ec        	bne	$40d4 <textPrint+0x9f>
    40e8: 80 06        	bra	$40f0 <textPrint+0xbb>
    40ea: c6 1a        	dec	$1a                     ; 0x201a <main+0x1a9b>
    40ec: e6 18        	inc	$18                     ; 0x2018 <main+0x1a99>
    40ee: d0 e4        	bne	$40d4 <textPrint+0x9f>
    40f0: e6 19        	inc	$19                     ; 0x2019 <main+0x1a9a>
    40f2: 80 e0        	bra	$40d4 <textPrint+0x9f>
    40f4: a5 1b        	lda	$1b                     ; 0x201b <main+0x1a9c>
    40f6: d0 e0        	bne	$40d8 <textPrint+0xa3>
    40f8: a0 02        	ldy	#$2
    40fa: 84 01        	sty	$1                      ; 0x2001 <main+0x1a82>
    40fc: c8           	iny
    40fd: 84 01        	sty	$1                      ; 0x2001 <main+0x1a82>
    40ff: a5 60        	lda	$60                     ; 0x2060 <main+0x1ae1>
    4101: 8d 10 c9     	sta	$c910                   ; 0xc910 <__heap_start+0x6074>
    4104: 8d 11 c9     	sta	$c911                   ; 0xc911 <__heap_start+0x6075>
    4107: 8d 12 c9     	sta	$c912                   ; 0xc912 <__heap_start+0x6076>
    410a: 8d 13 c9     	sta	$c913                   ; 0xc913 <__heap_start+0x6077>
    410d: 8d 14 c9     	sta	$c914                   ; 0xc914 <__heap_start+0x6078>
    4110: 8d 15 c9     	sta	$c915                   ; 0xc915 <__heap_start+0x6079>
    4113: 8d 16 c9     	sta	$c916                   ; 0xc916 <__heap_start+0x607a>
    4116: 8d 17 c9     	sta	$c917                   ; 0xc917 <__heap_start+0x607b>
    4119: 8d 18 c9     	sta	$c918                   ; 0xc918 <__heap_start+0x607c>
    411c: 8d 19 c9     	sta	$c919                   ; 0xc919 <__heap_start+0x607d>
    411f: 8d 1a c9     	sta	$c91a                   ; 0xc91a <__heap_start+0x607e>
    4122: 8d 1b c9     	sta	$c91b                   ; 0xc91b <__heap_start+0x607f>
    4125: 8d 1c c9     	sta	$c91c                   ; 0xc91c <__heap_start+0x6080>
    4128: 8d 1d c9     	sta	$c91d                   ; 0xc91d <__heap_start+0x6081>
    412b: 8d 1e c9     	sta	$c91e                   ; 0xc91e <__heap_start+0x6082>
    412e: 8d 1f c9     	sta	$c91f                   ; 0xc91f <__heap_start+0x6083>
    4131: 8d 20 c9     	sta	$c920                   ; 0xc920 <__heap_start+0x6084>
    4134: 8d 21 c9     	sta	$c921                   ; 0xc921 <__heap_start+0x6085>
    4137: 8d 22 c9     	sta	$c922                   ; 0xc922 <__heap_start+0x6086>
    413a: 8d 23 c9     	sta	$c923                   ; 0xc923 <__heap_start+0x6087>
    413d: 8d 24 c9     	sta	$c924                   ; 0xc924 <__heap_start+0x6088>
    4140: 8d 25 c9     	sta	$c925                   ; 0xc925 <__heap_start+0x6089>
    4143: 8d 26 c9     	sta	$c926                   ; 0xc926 <__heap_start+0x608a>
    4146: 8d 27 c9     	sta	$c927                   ; 0xc927 <__heap_start+0x608b>
    4149: 8d 28 c9     	sta	$c928                   ; 0xc928 <__heap_start+0x608c>
    414c: 8d 29 c9     	sta	$c929                   ; 0xc929 <__heap_start+0x608d>
    414f: 8d 2a c9     	sta	$c92a                   ; 0xc92a <__heap_start+0x608e>
    4152: 8d 2b c9     	sta	$c92b                   ; 0xc92b <__heap_start+0x608f>
    4155: 8d 2c c9     	sta	$c92c                   ; 0xc92c <__heap_start+0x6090>
    4158: 8d 2d c9     	sta	$c92d                   ; 0xc92d <__heap_start+0x6091>
    415b: 8d 2e c9     	sta	$c92e                   ; 0xc92e <__heap_start+0x6092>
    415e: 8d 2f c9     	sta	$c92f                   ; 0xc92f <__heap_start+0x6093>
    4161: 8d 30 c9     	sta	$c930                   ; 0xc930 <__heap_start+0x6094>
    4164: 8d 31 c9     	sta	$c931                   ; 0xc931 <__heap_start+0x6095>
    4167: 8d 32 c9     	sta	$c932                   ; 0xc932 <__heap_start+0x6096>
    416a: 8d 33 c9     	sta	$c933                   ; 0xc933 <__heap_start+0x6097>
    416d: 8d 34 c9     	sta	$c934                   ; 0xc934 <__heap_start+0x6098>
    4170: 8d 35 c9     	sta	$c935                   ; 0xc935 <__heap_start+0x6099>
    4173: 8d 36 c9     	sta	$c936                   ; 0xc936 <__heap_start+0x609a>
    4176: 8d 37 c9     	sta	$c937                   ; 0xc937 <__heap_start+0x609b>
    4179: 8d 38 c9     	sta	$c938                   ; 0xc938 <__heap_start+0x609c>
    417c: 8d 39 c9     	sta	$c939                   ; 0xc939 <__heap_start+0x609d>
    417f: 8d 3a c9     	sta	$c93a                   ; 0xc93a <__heap_start+0x609e>
    4182: 8d 3b c9     	sta	$c93b                   ; 0xc93b <__heap_start+0x609f>
    4185: 8d 3c c9     	sta	$c93c                   ; 0xc93c <__heap_start+0x60a0>
    4188: 8d 3d c9     	sta	$c93d                   ; 0xc93d <__heap_start+0x60a1>
    418b: 8d 3e c9     	sta	$c93e                   ; 0xc93e <__heap_start+0x60a2>
    418e: 8d 3f c9     	sta	$c93f                   ; 0xc93f <__heap_start+0x60a3>
    4191: 8d 40 c9     	sta	$c940                   ; 0xc940 <__heap_start+0x60a4>
    4194: 8d 41 c9     	sta	$c941                   ; 0xc941 <__heap_start+0x60a5>
    4197: 8d 42 c9     	sta	$c942                   ; 0xc942 <__heap_start+0x60a6>
    419a: 8d 43 c9     	sta	$c943                   ; 0xc943 <__heap_start+0x60a7>
    419d: 8d 44 c9     	sta	$c944                   ; 0xc944 <__heap_start+0x60a8>
    41a0: 8d 45 c9     	sta	$c945                   ; 0xc945 <__heap_start+0x60a9>
    41a3: 8d 46 c9     	sta	$c946                   ; 0xc946 <__heap_start+0x60aa>
    41a6: 8d 47 c9     	sta	$c947                   ; 0xc947 <__heap_start+0x60ab>
    41a9: 8d 48 c9     	sta	$c948                   ; 0xc948 <__heap_start+0x60ac>
    41ac: 8d 49 c9     	sta	$c949                   ; 0xc949 <__heap_start+0x60ad>
    41af: 8d 4a c9     	sta	$c94a                   ; 0xc94a <__heap_start+0x60ae>
    41b2: 8d 4b c9     	sta	$c94b                   ; 0xc94b <__heap_start+0x60af>
    41b5: 8d 4c c9     	sta	$c94c                   ; 0xc94c <__heap_start+0x60b0>
    41b8: 8d 4d c9     	sta	$c94d                   ; 0xc94d <__heap_start+0x60b1>
    41bb: 8d 4e c9     	sta	$c94e                   ; 0xc94e <__heap_start+0x60b2>
    41be: 8d 4f c9     	sta	$c94f                   ; 0xc94f <__heap_start+0x60b3>
    41c1: 8d 50 c9     	sta	$c950                   ; 0xc950 <__heap_start+0x60b4>
    41c4: 8d 51 c9     	sta	$c951                   ; 0xc951 <__heap_start+0x60b5>
    41c7: 8d 52 c9     	sta	$c952                   ; 0xc952 <__heap_start+0x60b6>
    41ca: 8d 53 c9     	sta	$c953                   ; 0xc953 <__heap_start+0x60b7>
    41cd: 8d 54 c9     	sta	$c954                   ; 0xc954 <__heap_start+0x60b8>
    41d0: 8d 55 c9     	sta	$c955                   ; 0xc955 <__heap_start+0x60b9>
    41d3: 8d 56 c9     	sta	$c956                   ; 0xc956 <__heap_start+0x60ba>
    41d6: 8d 57 c9     	sta	$c957                   ; 0xc957 <__heap_start+0x60bb>
    41d9: 8d 58 c9     	sta	$c958                   ; 0xc958 <__heap_start+0x60bc>
    41dc: 8d 59 c9     	sta	$c959                   ; 0xc959 <__heap_start+0x60bd>
    41df: 8d 5a c9     	sta	$c95a                   ; 0xc95a <__heap_start+0x60be>
    41e2: 8d 5b c9     	sta	$c95b                   ; 0xc95b <__heap_start+0x60bf>
    41e5: 8d 5c c9     	sta	$c95c                   ; 0xc95c <__heap_start+0x60c0>
    41e8: 8d 5d c9     	sta	$c95d                   ; 0xc95d <__heap_start+0x60c1>
    41eb: 8d 5e c9     	sta	$c95e                   ; 0xc95e <__heap_start+0x60c2>
    41ee: 8d 5f c9     	sta	$c95f                   ; 0xc95f <__heap_start+0x60c3>
    41f1: 88           	dey
    41f2: 84 01        	sty	$1                      ; 0x2001 <main+0x1a82>
    41f4: 8e 10 c9     	stx	$c910                   ; 0xc910 <__heap_start+0x6074>
    41f7: 8e 11 c9     	stx	$c911                   ; 0xc911 <__heap_start+0x6075>
    41fa: 8e 12 c9     	stx	$c912                   ; 0xc912 <__heap_start+0x6076>
    41fd: 8e 13 c9     	stx	$c913                   ; 0xc913 <__heap_start+0x6077>
    4200: 8e 14 c9     	stx	$c914                   ; 0xc914 <__heap_start+0x6078>
    4203: 8e 15 c9     	stx	$c915                   ; 0xc915 <__heap_start+0x6079>
    4206: 8e 16 c9     	stx	$c916                   ; 0xc916 <__heap_start+0x607a>
    4209: 8e 17 c9     	stx	$c917                   ; 0xc917 <__heap_start+0x607b>
    420c: 8e 18 c9     	stx	$c918                   ; 0xc918 <__heap_start+0x607c>
    420f: 8e 19 c9     	stx	$c919                   ; 0xc919 <__heap_start+0x607d>
    4212: 8e 1a c9     	stx	$c91a                   ; 0xc91a <__heap_start+0x607e>
    4215: 8e 1b c9     	stx	$c91b                   ; 0xc91b <__heap_start+0x607f>
    4218: 8e 1c c9     	stx	$c91c                   ; 0xc91c <__heap_start+0x6080>
    421b: 8e 1d c9     	stx	$c91d                   ; 0xc91d <__heap_start+0x6081>
    421e: 8e 1e c9     	stx	$c91e                   ; 0xc91e <__heap_start+0x6082>
    4221: 8e 1f c9     	stx	$c91f                   ; 0xc91f <__heap_start+0x6083>
    4224: 8e 20 c9     	stx	$c920                   ; 0xc920 <__heap_start+0x6084>
    4227: 8e 21 c9     	stx	$c921                   ; 0xc921 <__heap_start+0x6085>
    422a: 8e 22 c9     	stx	$c922                   ; 0xc922 <__heap_start+0x6086>
    422d: 8e 23 c9     	stx	$c923                   ; 0xc923 <__heap_start+0x6087>
    4230: 8e 24 c9     	stx	$c924                   ; 0xc924 <__heap_start+0x6088>
    4233: 8e 25 c9     	stx	$c925                   ; 0xc925 <__heap_start+0x6089>
    4236: 8e 26 c9     	stx	$c926                   ; 0xc926 <__heap_start+0x608a>
    4239: 8e 27 c9     	stx	$c927                   ; 0xc927 <__heap_start+0x608b>
    423c: 8e 28 c9     	stx	$c928                   ; 0xc928 <__heap_start+0x608c>
    423f: 8e 29 c9     	stx	$c929                   ; 0xc929 <__heap_start+0x608d>
    4242: 8e 2a c9     	stx	$c92a                   ; 0xc92a <__heap_start+0x608e>
    4245: 8e 2b c9     	stx	$c92b                   ; 0xc92b <__heap_start+0x608f>
    4248: 8e 2c c9     	stx	$c92c                   ; 0xc92c <__heap_start+0x6090>
    424b: 8e 2d c9     	stx	$c92d                   ; 0xc92d <__heap_start+0x6091>
    424e: 8e 2e c9     	stx	$c92e                   ; 0xc92e <__heap_start+0x6092>
    4251: 8e 2f c9     	stx	$c92f                   ; 0xc92f <__heap_start+0x6093>
    4254: 8e 30 c9     	stx	$c930                   ; 0xc930 <__heap_start+0x6094>
    4257: 8e 31 c9     	stx	$c931                   ; 0xc931 <__heap_start+0x6095>
    425a: 8e 32 c9     	stx	$c932                   ; 0xc932 <__heap_start+0x6096>
    425d: 8e 33 c9     	stx	$c933                   ; 0xc933 <__heap_start+0x6097>
    4260: 8e 34 c9     	stx	$c934                   ; 0xc934 <__heap_start+0x6098>
    4263: 8e 35 c9     	stx	$c935                   ; 0xc935 <__heap_start+0x6099>
    4266: 8e 36 c9     	stx	$c936                   ; 0xc936 <__heap_start+0x609a>
    4269: 8e 37 c9     	stx	$c937                   ; 0xc937 <__heap_start+0x609b>
    426c: 8e 38 c9     	stx	$c938                   ; 0xc938 <__heap_start+0x609c>
    426f: 8e 39 c9     	stx	$c939                   ; 0xc939 <__heap_start+0x609d>
    4272: 8e 3a c9     	stx	$c93a                   ; 0xc93a <__heap_start+0x609e>
    4275: 8e 3b c9     	stx	$c93b                   ; 0xc93b <__heap_start+0x609f>
    4278: 8e 3c c9     	stx	$c93c                   ; 0xc93c <__heap_start+0x60a0>
    427b: 8e 3d c9     	stx	$c93d                   ; 0xc93d <__heap_start+0x60a1>
    427e: 8e 3e c9     	stx	$c93e                   ; 0xc93e <__heap_start+0x60a2>
    4281: 8e 3f c9     	stx	$c93f                   ; 0xc93f <__heap_start+0x60a3>
    4284: 8e 40 c9     	stx	$c940                   ; 0xc940 <__heap_start+0x60a4>
    4287: 8e 41 c9     	stx	$c941                   ; 0xc941 <__heap_start+0x60a5>
    428a: 8e 42 c9     	stx	$c942                   ; 0xc942 <__heap_start+0x60a6>
    428d: 8e 43 c9     	stx	$c943                   ; 0xc943 <__heap_start+0x60a7>
    4290: 8e 44 c9     	stx	$c944                   ; 0xc944 <__heap_start+0x60a8>
    4293: 8e 45 c9     	stx	$c945                   ; 0xc945 <__heap_start+0x60a9>
    4296: 8e 46 c9     	stx	$c946                   ; 0xc946 <__heap_start+0x60aa>
    4299: 8e 47 c9     	stx	$c947                   ; 0xc947 <__heap_start+0x60ab>
    429c: 8e 48 c9     	stx	$c948                   ; 0xc948 <__heap_start+0x60ac>
    429f: 8e 49 c9     	stx	$c949                   ; 0xc949 <__heap_start+0x60ad>
    42a2: 8e 4a c9     	stx	$c94a                   ; 0xc94a <__heap_start+0x60ae>
    42a5: 8e 4b c9     	stx	$c94b                   ; 0xc94b <__heap_start+0x60af>
    42a8: 8e 4c c9     	stx	$c94c                   ; 0xc94c <__heap_start+0x60b0>
    42ab: 8e 4d c9     	stx	$c94d                   ; 0xc94d <__heap_start+0x60b1>
    42ae: 8e 4e c9     	stx	$c94e                   ; 0xc94e <__heap_start+0x60b2>
    42b1: 8e 4f c9     	stx	$c94f                   ; 0xc94f <__heap_start+0x60b3>
    42b4: 8e 50 c9     	stx	$c950                   ; 0xc950 <__heap_start+0x60b4>
    42b7: 8e 51 c9     	stx	$c951                   ; 0xc951 <__heap_start+0x60b5>
    42ba: 8e 52 c9     	stx	$c952                   ; 0xc952 <__heap_start+0x60b6>
    42bd: 8e 53 c9     	stx	$c953                   ; 0xc953 <__heap_start+0x60b7>
    42c0: 8e 54 c9     	stx	$c954                   ; 0xc954 <__heap_start+0x60b8>
    42c3: 8e 55 c9     	stx	$c955                   ; 0xc955 <__heap_start+0x60b9>
    42c6: 8e 56 c9     	stx	$c956                   ; 0xc956 <__heap_start+0x60ba>
    42c9: 8e 57 c9     	stx	$c957                   ; 0xc957 <__heap_start+0x60bb>
    42cc: 8e 58 c9     	stx	$c958                   ; 0xc958 <__heap_start+0x60bc>
    42cf: 8e 59 c9     	stx	$c959                   ; 0xc959 <__heap_start+0x60bd>
    42d2: 8e 5a c9     	stx	$c95a                   ; 0xc95a <__heap_start+0x60be>
    42d5: 8e 5b c9     	stx	$c95b                   ; 0xc95b <__heap_start+0x60bf>
    42d8: 8e 5c c9     	stx	$c95c                   ; 0xc95c <__heap_start+0x60c0>
    42db: 8e 5d c9     	stx	$c95d                   ; 0xc95d <__heap_start+0x60c1>
    42de: 8e 5e c9     	stx	$c95e                   ; 0xc95e <__heap_start+0x60c2>
    42e1: 8e 5f c9     	stx	$c95f                   ; 0xc95f <__heap_start+0x60c3>
    42e4: c6 62        	dec	$62                     ; 0x2062 <main+0x1ae3>
    42e6: 9c 08 de     	stz	$de08                   ; 0xde08 <__heap_start+0x756c>
    42e9: a0 c0        	ldy	#$c0
    42eb: 8c 09 de     	sty	$de09                   ; 0xde09 <__heap_start+0x756d>
    42ee: 9c 0a de     	stz	$de0a                   ; 0xde0a <__heap_start+0x756e>
    42f1: 9c 0b de     	stz	$de0b                   ; 0xde0b <__heap_start+0x756f>
    42f4: a0 1d        	ldy	#$1d
    42f6: 8c 0c de     	sty	$de0c                   ; 0xde0c <__heap_start+0x7570>
    42f9: 9c 0d de     	stz	$de0d                   ; 0xde0d <__heap_start+0x7571>
    42fc: 9c 0e de     	stz	$de0e                   ; 0xde0e <__heap_start+0x7572>
    42ff: 9c 0f de     	stz	$de0f                   ; 0xde0f <__heap_start+0x7573>
    4302: ac 18 de     	ldy	$de18                   ; 0xde18 <__heap_start+0x757c>
    4305: ad 19 de     	lda	$de19                   ; 0xde19 <__heap_start+0x757d>
    4308: 85 19        	sta	$19                     ; 0x2019 <main+0x1a9a>
    430a: ad 1a de     	lda	$de1a                   ; 0xde1a <__heap_start+0x757e>
    430d: 84 18        	sty	$18                     ; 0x2018 <main+0x1a99>
    430f: ac 1b de     	ldy	$de1b                   ; 0xde1b <__heap_start+0x757f>
    4312: e6 14        	inc	$14                     ; 0x2014 <main+0x1a95>
    4314: d0 02        	bne	$4318 <textPrint+0x2e3>
    4316: e6 15        	inc	$15                     ; 0x2015 <main+0x1a96>
    4318: 80 13        	bra	$432d <textPrint+0x2f8>
    431a: a5 18        	lda	$18                     ; 0x2018 <main+0x1a99>
    431c: 18           	clc
    431d: 69 50        	adc	#$50
    431f: 85 18        	sta	$18                     ; 0x2018 <main+0x1a99>
    4321: a5 19        	lda	$19                     ; 0x2019 <main+0x1a9a>
    4323: 69 00        	adc	#$0
    4325: 85 19        	sta	$19                     ; 0x2019 <main+0x1a9a>
    4327: e6 14        	inc	$14                     ; 0x2014 <main+0x1a95>
    4329: d0 02        	bne	$432d <textPrint+0x2f8>
    432b: e6 15        	inc	$15                     ; 0x2015 <main+0x1a96>
    432d: a5 12        	lda	$12                     ; 0x2012 <main+0x1a93>
    432f: 18           	clc
    4330: 65 14        	adc	$14                     ; 0x2014 <main+0x1a95>
    4332: 85 1a        	sta	$1a                     ; 0x201a <main+0x1a9b>
    4334: a5 13        	lda	$13                     ; 0x2013 <main+0x1a94>
    4336: 65 15        	adc	$15                     ; 0x2015 <main+0x1a96>
    4338: 85 1b        	sta	$1b                     ; 0x201b <main+0x1a9c>
    433a: b2 1a        	lda	($1a)                   ; 0x201a <main+0x1a9b>
    433c: c9 0a        	cmp	#$a
    433e: f0 24        	beq	$4364 <textPrint+0x32f>
    4340: c9 0d        	cmp	#$d
    4342: f0 20        	beq	$4364 <textPrint+0x32f>
    4344: a8           	tay
    4345: f0 46        	beq	$438d <textPrint+0x358>
    4347: a0 03        	ldy	#$3
    4349: 84 01        	sty	$1                      ; 0x2001 <main+0x1a82>
    434b: a5 60        	lda	$60                     ; 0x2060 <main+0x1ae1>
    434d: a4 61        	ldy	$61                     ; 0x2061 <main+0x1ae2>
    434f: 91 18        	sta	($18),y                 ; 0x2018 <main+0x1a99>
    4351: a0 02        	ldy	#$2
    4353: 84 01        	sty	$1                      ; 0x2001 <main+0x1a82>
    4355: b2 1a        	lda	($1a)                   ; 0x201a <main+0x1a9b>
    4357: a4 61        	ldy	$61                     ; 0x2061 <main+0x1ae2>
    4359: 91 18        	sta	($18),y                 ; 0x2018 <main+0x1a99>
    435b: a4 61        	ldy	$61                     ; 0x2061 <main+0x1ae2>
    435d: c8           	iny
    435e: e6 61        	inc	$61                     ; 0x2061 <main+0x1ae2>
    4360: c0 50        	cpy	#$50
    4362: d0 c3        	bne	$4327 <textPrint+0x2f2>
    4364: 64 61        	stz	$61                     ; 0x2061 <main+0x1ae2>
    4366: a4 62        	ldy	$62                     ; 0x2062 <main+0x1ae3>
    4368: c8           	iny
    4369: e6 62        	inc	$62                     ; 0x2062 <main+0x1ae3>
    436b: c0 1e        	cpy	#$1e
    436d: f0 03        	beq	$4372 <textPrint+0x33d>
    436f: 4c 1a 43     	jmp	$431a <textPrint+0x2e5>
    4372: a0 03        	ldy	#$3
    4374: 84 01        	sty	$1                      ; 0x2001 <main+0x1a82>
    4376: a0 09        	ldy	#$9
    4378: a9 10        	lda	#$10
    437a: 5a           	phy
    437b: a0 00        	ldy	#$0
    437d: 84 18        	sty	$18                     ; 0x2018 <main+0x1a99>
    437f: a0 c0        	ldy	#$c0
    4381: 84 19        	sty	$19                     ; 0x2019 <main+0x1a9a>
    4383: 7a           	ply
    4384: 85 1b        	sta	$1b                     ; 0x201b <main+0x1a9c>
    4386: 84 1a        	sty	$1a                     ; 0x201a <main+0x1a9b>
    4388: a0 50        	ldy	#$50
    438a: 4c 9c 40     	jmp	$409c <textPrint+0x67>
    438d: a6 1c        	ldx	$1c                     ; 0x201c <main+0x1a9d>
    438f: 86 01        	stx	$1                      ; 0x2001 <main+0x1a82>
    4391: a6 61        	ldx	$61                     ; 0x2061 <main+0x1ae2>
    4393: a4 62        	ldy	$62                     ; 0x2062 <main+0x1ae3>
    4395: 8e 14 d0     	stx	$d014                   ; 0xd014 <__heap_start+0x6778>
    4398: 9c 15 d0     	stz	$d015                   ; 0xd015 <__heap_start+0x6779>
    439b: 84 62        	sty	$62                     ; 0x2062 <main+0x1ae3>
    439d: 8c 16 d0     	sty	$d016                   ; 0xd016 <__heap_start+0x677a>
    43a0: 9c 17 d0     	stz	$d017                   ; 0xd017 <__heap_start+0x677b>
    43a3: 60           	rts

000043a4 <readDelta>:
    43a4: 48           	pha
    43a5: 18           	clc
    43a6: a5 10        	lda	$10                     ; 0x2010 <main+0x1a91>
    43a8: 69 f7        	adc	#$f7
    43aa: 85 10        	sta	$10                     ; 0x2010 <main+0x1a91>
    43ac: a5 11        	lda	$11                     ; 0x2011 <main+0x1a92>
    43ae: 69 ff        	adc	#$ff
    43b0: 85 11        	sta	$11                     ; 0x2011 <main+0x1a92>
    43b2: 68           	pla
    43b3: a6 24        	ldx	$24                     ; 0x2024 <main+0x1aa5>
    43b5: da           	phx
    43b6: a6 25        	ldx	$25                     ; 0x2025 <main+0x1aa6>
    43b8: da           	phx
    43b9: a6 26        	ldx	$26                     ; 0x2026 <main+0x1aa7>
    43bb: da           	phx
    43bc: a6 27        	ldx	$27                     ; 0x2027 <main+0x1aa8>
    43be: da           	phx
    43bf: 48           	pha
    43c0: a5 28        	lda	$28                     ; 0x2028 <main+0x1aa9>
    43c2: a0 02        	ldy	#$2
    43c4: 91 10        	sta	($10),y                 ; 0x2010 <main+0x1a91>
    43c6: a5 29        	lda	$29                     ; 0x2029 <main+0x1aaa>
    43c8: 88           	dey
    43c9: 91 10        	sta	($10),y                 ; 0x2010 <main+0x1a91>
    43cb: a5 2a        	lda	$2a                     ; 0x202a <main+0x1aab>
    43cd: 88           	dey
    43ce: 91 10        	sta	($10),y                 ; 0x2010 <main+0x1a91>
    43d0: 68           	pla
    43d1: 85 25        	sta	$25                     ; 0x2025 <main+0x1aa6>
    43d3: a6 82        	ldx	$82                     ; 0x2082 <main+0x1b03>
    43d5: 86 27        	stx	$27                     ; 0x2027 <main+0x1aa8>
    43d7: a6 83        	ldx	$83                     ; 0x2083 <main+0x1b04>
    43d9: 86 26        	stx	$26                     ; 0x2026 <main+0x1aa7>
    43db: 64 24        	stz	$24                     ; 0x2024 <main+0x1aa5>
    43dd: a2 19        	ldx	#$19
    43df: 86 12        	stx	$12                     ; 0x2012 <main+0x1a93>
    43e1: 64 13        	stz	$13                     ; 0x2013 <main+0x1a94>
    43e3: a2 00        	ldx	#$0
    43e5: 20 95 63     	jsr	$6395 <__mulhi3>
    43e8: 85 12        	sta	$12                     ; 0x2012 <main+0x1a93>
    43ea: 86 13        	stx	$13                     ; 0x2013 <main+0x1a94>
    43ec: 18           	clc
    43ed: a5 27        	lda	$27                     ; 0x2027 <main+0x1aa8>
    43ef: 65 12        	adc	$12                     ; 0x2012 <main+0x1a93>
    43f1: a8           	tay
    43f2: a5 26        	lda	$26                     ; 0x2026 <main+0x1aa7>
    43f4: 65 13        	adc	$13                     ; 0x2013 <main+0x1a94>
    43f6: aa           	tax
    43f7: 84 12        	sty	$12                     ; 0x2012 <main+0x1a93>
    43f9: 85 13        	sta	$13                     ; 0x2013 <main+0x1a94>
    43fb: 98           	tya
    43fc: 18           	clc
    43fd: 69 08        	adc	#$8
    43ff: 85 14        	sta	$14                     ; 0x2014 <main+0x1a95>
    4401: 8a           	txa
    4402: 69 00        	adc	#$0
    4404: 85 15        	sta	$15                     ; 0x2015 <main+0x1a96>
    4406: 18           	clc
    4407: 98           	tya
    4408: 69 04        	adc	#$4
    440a: 85 16        	sta	$16                     ; 0x2016 <main+0x1a97>
    440c: 8a           	txa
    440d: 69 00        	adc	#$0
    440f: a0 04        	ldy	#$4
    4411: 85 17        	sta	$17                     ; 0x2017 <main+0x1a98>
    4413: b1 12        	lda	($12),y                 ; 0x2012 <main+0x1a93>
    4415: 85 18        	sta	$18                     ; 0x2018 <main+0x1a99>
    4417: a0 01        	ldy	#$1
    4419: b1 16        	lda	($16),y                 ; 0x2016 <main+0x1a97>
    441b: 85 19        	sta	$19                     ; 0x2019 <main+0x1a9a>
    441d: c8           	iny
    441e: b1 16        	lda	($16),y                 ; 0x2016 <main+0x1a97>
    4420: aa           	tax
    4421: c8           	iny
    4422: b1 16        	lda	($16),y                 ; 0x2016 <main+0x1a97>
    4424: a4 18        	ldy	$18                     ; 0x2018 <main+0x1a99>
    4426: 84 1a        	sty	$1a                     ; 0x201a <main+0x1a9b>
    4428: a4 19        	ldy	$19                     ; 0x2019 <main+0x1a9a>
    442a: 84 1b        	sty	$1b                     ; 0x201b <main+0x1a9c>
    442c: 86 1c        	stx	$1c                     ; 0x201c <main+0x1a9d>
    442e: e6 1a        	inc	$1a                     ; 0x201a <main+0x1a9b>
    4430: d0 09        	bne	$443b <readDelta+0x97>
    4432: e6 1b        	inc	$1b                     ; 0x201b <main+0x1a9c>
    4434: d0 05        	bne	$443b <readDelta+0x97>
    4436: e6 1c        	inc	$1c                     ; 0x201c <main+0x1a9d>
    4438: d0 01        	bne	$443b <readDelta+0x97>
    443a: 1a           	inc
    443b: 85 1d        	sta	$1d                     ; 0x201d <main+0x1a9e>
    443d: a0 04        	ldy	#$4
    443f: a5 1a        	lda	$1a                     ; 0x201a <main+0x1a9b>
    4441: 91 12        	sta	($12),y                 ; 0x2012 <main+0x1a93>
    4443: a0 01        	ldy	#$1
    4445: a5 1b        	lda	$1b                     ; 0x201b <main+0x1a9c>
    4447: 91 16        	sta	($16),y                 ; 0x2016 <main+0x1a97>
    4449: c8           	iny
    444a: a5 1c        	lda	$1c                     ; 0x201c <main+0x1a9d>
    444c: 91 16        	sta	($16),y                 ; 0x2016 <main+0x1a97>
    444e: c8           	iny
    444f: a5 1d        	lda	$1d                     ; 0x201d <main+0x1a9e>
    4451: 91 16        	sta	($16),y                 ; 0x2016 <main+0x1a97>
    4453: 18           	clc
    4454: a0 08        	ldy	#$8
    4456: a5 18        	lda	$18                     ; 0x2018 <main+0x1a99>
    4458: 71 12        	adc	($12),y                 ; 0x2012 <main+0x1a93>
    445a: 85 16        	sta	$16                     ; 0x2016 <main+0x1a97>
    445c: a5 19        	lda	$19                     ; 0x2019 <main+0x1a9a>
    445e: a0 01        	ldy	#$1
    4460: 71 14        	adc	($14),y                 ; 0x2014 <main+0x1a95>
    4462: 85 12        	sta	$12                     ; 0x2012 <main+0x1a93>
    4464: 8a           	txa
    4465: c8           	iny
    4466: 71 14        	adc	($14),y                 ; 0x2014 <main+0x1a95>
    4468: 85 13        	sta	$13                     ; 0x2013 <main+0x1a94>
    446a: a5 12        	lda	$12                     ; 0x2012 <main+0x1a93>
    446c: 06 12        	asl	$12                     ; 0x2012 <main+0x1a93>
    446e: 26 13        	rol	$13                     ; 0x2013 <main+0x1a94>
    4470: 06 12        	asl	$12                     ; 0x2012 <main+0x1a93>
    4472: 26 13        	rol	$13                     ; 0x2013 <main+0x1a94>
    4474: 06 12        	asl	$12                     ; 0x2012 <main+0x1a93>
    4476: 26 13        	rol	$13                     ; 0x2013 <main+0x1a94>
    4478: a4 13        	ldy	$13                     ; 0x2013 <main+0x1a94>
    447a: a6 0f        	ldx	$f                      ; 0x200f <main+0x1a90>
    447c: 78           	sei
    447d: 84 0f        	sty	$f                      ; 0x200f <main+0x1a90>
    447f: a4 16        	ldy	$16                     ; 0x2016 <main+0x1a97>
    4481: 84 12        	sty	$12                     ; 0x2012 <main+0x1a93>
    4483: 09 e0        	ora	#$e0
    4485: 85 13        	sta	$13                     ; 0x2013 <main+0x1a94>
    4487: b2 12        	lda	($12)                   ; 0x2012 <main+0x1a93>
    4489: 86 0f        	stx	$f                      ; 0x200f <main+0x1a90>
    448b: 58           	cli
    448c: aa           	tax
    448d: 30 15        	bmi	$44a4 <readDelta+0x100>
    448f: 64 2a        	stz	$2a                     ; 0x202a <main+0x1aab>
    4491: 64 27        	stz	$27                     ; 0x2027 <main+0x1aa8>
    4493: 64 13        	stz	$13                     ; 0x2013 <main+0x1a94>
    4495: 85 29        	sta	$29                     ; 0x2029 <main+0x1aaa>
    4497: a9 00        	lda	#$0
    4499: 64 28        	stz	$28                     ; 0x2028 <main+0x1aa9>
    449b: 64 15        	stz	$15                     ; 0x2015 <main+0x1a96>
    449d: 64 12        	stz	$12                     ; 0x2012 <main+0x1a93>
    449f: 64 14        	stz	$14                     ; 0x2014 <main+0x1a95>
    44a1: 4c c4 47     	jmp	$47c4 <readDelta+0x420>
    44a4: 4a           	lsr
    44a5: aa           	tax
    44a6: a9 00        	lda	#$0
    44a8: 6a           	ror
    44a9: 29 80        	and	#$80
    44ab: 85 29        	sta	$29                     ; 0x2029 <main+0x1aaa>
    44ad: 8a           	txa
    44ae: 29 3f        	and	#$3f
    44b0: 85 2a        	sta	$2a                     ; 0x202a <main+0x1aab>
    44b2: a6 82        	ldx	$82                     ; 0x2082 <main+0x1b03>
    44b4: 86 28        	stx	$28                     ; 0x2028 <main+0x1aa9>
    44b6: a6 83        	ldx	$83                     ; 0x2083 <main+0x1b04>
    44b8: 86 27        	stx	$27                     ; 0x2027 <main+0x1aa8>
    44ba: a2 19        	ldx	#$19
    44bc: 86 12        	stx	$12                     ; 0x2012 <main+0x1a93>
    44be: 64 13        	stz	$13                     ; 0x2013 <main+0x1a94>
    44c0: a2 00        	ldx	#$0
    44c2: a5 25        	lda	$25                     ; 0x2025 <main+0x1aa6>
    44c4: 20 95 63     	jsr	$6395 <__mulhi3>
    44c7: 85 12        	sta	$12                     ; 0x2012 <main+0x1a93>
    44c9: 86 13        	stx	$13                     ; 0x2013 <main+0x1a94>
    44cb: 18           	clc
    44cc: a5 28        	lda	$28                     ; 0x2028 <main+0x1aa9>
    44ce: 65 12        	adc	$12                     ; 0x2012 <main+0x1a93>
    44d0: a8           	tay
    44d1: a5 27        	lda	$27                     ; 0x2027 <main+0x1aa8>
    44d3: 65 13        	adc	$13                     ; 0x2013 <main+0x1a94>
    44d5: aa           	tax
    44d6: 98           	tya
    44d7: 84 12        	sty	$12                     ; 0x2012 <main+0x1a93>
    44d9: 86 13        	stx	$13                     ; 0x2013 <main+0x1a94>
    44db: 84 17        	sty	$17                     ; 0x2017 <main+0x1a98>
    44dd: 18           	clc
    44de: 69 04        	adc	#$4
    44e0: 85 14        	sta	$14                     ; 0x2014 <main+0x1a95>
    44e2: 8a           	txa
    44e3: 86 18        	stx	$18                     ; 0x2018 <main+0x1a99>
    44e5: 69 00        	adc	#$0
    44e7: 85 15        	sta	$15                     ; 0x2015 <main+0x1a96>
    44e9: a0 04        	ldy	#$4
    44eb: b1 12        	lda	($12),y                 ; 0x2012 <main+0x1a93>
    44ed: 85 16        	sta	$16                     ; 0x2016 <main+0x1a97>
    44ef: a0 01        	ldy	#$1
    44f1: b1 14        	lda	($14),y                 ; 0x2014 <main+0x1a95>
    44f3: 85 1a        	sta	$1a                     ; 0x201a <main+0x1a9b>
    44f5: c8           	iny
    44f6: b1 14        	lda	($14),y                 ; 0x2014 <main+0x1a95>
    44f8: 85 19        	sta	$19                     ; 0x2019 <main+0x1a9a>
    44fa: c8           	iny
    44fb: b1 14        	lda	($14),y                 ; 0x2014 <main+0x1a95>
    44fd: a6 16        	ldx	$16                     ; 0x2016 <main+0x1a97>
    44ff: 86 1c        	stx	$1c                     ; 0x201c <main+0x1a9d>
    4501: a6 1a        	ldx	$1a                     ; 0x201a <main+0x1a9b>
    4503: a4 19        	ldy	$19                     ; 0x2019 <main+0x1a9a>
    4505: 84 1b        	sty	$1b                     ; 0x201b <main+0x1a9c>
    4507: e6 1c        	inc	$1c                     ; 0x201c <main+0x1a9d>
    4509: d0 08        	bne	$4513 <readDelta+0x16f>
    450b: e8           	inx
    450c: d0 05        	bne	$4513 <readDelta+0x16f>
    450e: e6 1b        	inc	$1b                     ; 0x201b <main+0x1a9c>
    4510: d0 01        	bne	$4513 <readDelta+0x16f>
    4512: 1a           	inc
    4513: 85 1d        	sta	$1d                     ; 0x201d <main+0x1a9e>
    4515: a0 04        	ldy	#$4
    4517: a5 1c        	lda	$1c                     ; 0x201c <main+0x1a9d>
    4519: 91 12        	sta	($12),y                 ; 0x2012 <main+0x1a93>
    451b: 88           	dey
    451c: a5 1d        	lda	$1d                     ; 0x201d <main+0x1a9e>
    451e: 91 14        	sta	($14),y                 ; 0x2014 <main+0x1a95>
    4520: a0 01        	ldy	#$1
    4522: 8a           	txa
    4523: 91 14        	sta	($14),y                 ; 0x2014 <main+0x1a95>
    4525: c8           	iny
    4526: a5 1b        	lda	$1b                     ; 0x201b <main+0x1a9c>
    4528: 91 14        	sta	($14),y                 ; 0x2014 <main+0x1a95>
    452a: a5 16        	lda	$16                     ; 0x2016 <main+0x1a97>
    452c: 18           	clc
    452d: a0 08        	ldy	#$8
    452f: 71 12        	adc	($12),y                 ; 0x2012 <main+0x1a93>
    4531: a2 01        	ldx	#$1
    4533: b0 02        	bcs	$4537 <readDelta+0x193>
    4535: a2 00        	ldx	#$0
    4537: 85 14        	sta	$14                     ; 0x2014 <main+0x1a95>
    4539: 18           	clc
    453a: a5 17        	lda	$17                     ; 0x2017 <main+0x1a98>
    453c: 69 08        	adc	#$8
    453e: 85 12        	sta	$12                     ; 0x2012 <main+0x1a93>
    4540: a5 18        	lda	$18                     ; 0x2018 <main+0x1a99>
    4542: 69 00        	adc	#$0
    4544: 85 13        	sta	$13                     ; 0x2013 <main+0x1a94>
    4546: a5 1a        	lda	$1a                     ; 0x201a <main+0x1a9b>
    4548: e0 01        	cpx	#$1
    454a: a0 01        	ldy	#$1
    454c: 71 12        	adc	($12),y                 ; 0x2012 <main+0x1a93>
    454e: aa           	tax
    454f: a5 19        	lda	$19                     ; 0x2019 <main+0x1a9a>
    4551: c8           	iny
    4552: 71 12        	adc	($12),y                 ; 0x2012 <main+0x1a93>
    4554: 85 13        	sta	$13                     ; 0x2013 <main+0x1a94>
    4556: 8a           	txa
    4557: 86 12        	stx	$12                     ; 0x2012 <main+0x1a93>
    4559: 06 12        	asl	$12                     ; 0x2012 <main+0x1a93>
    455b: 26 13        	rol	$13                     ; 0x2013 <main+0x1a94>
    455d: 06 12        	asl	$12                     ; 0x2012 <main+0x1a93>
    455f: 26 13        	rol	$13                     ; 0x2013 <main+0x1a94>
    4561: 06 12        	asl	$12                     ; 0x2012 <main+0x1a93>
    4563: 26 13        	rol	$13                     ; 0x2013 <main+0x1a94>
    4565: a4 13        	ldy	$13                     ; 0x2013 <main+0x1a94>
    4567: a6 0f        	ldx	$f                      ; 0x200f <main+0x1a90>
    4569: 78           	sei
    456a: 84 0f        	sty	$f                      ; 0x200f <main+0x1a90>
    456c: a4 14        	ldy	$14                     ; 0x2014 <main+0x1a95>
    456e: 84 12        	sty	$12                     ; 0x2012 <main+0x1a93>
    4570: 09 e0        	ora	#$e0
    4572: 85 13        	sta	$13                     ; 0x2013 <main+0x1a94>
    4574: b2 12        	lda	($12)                   ; 0x2012 <main+0x1a93>
    4576: 86 0f        	stx	$f                      ; 0x200f <main+0x1a90>
    4578: 58           	cli
    4579: aa           	tax
    457a: 30 0f        	bmi	$458b <readDelta+0x1e7>
    457c: 64 13        	stz	$13                     ; 0x2013 <main+0x1a94>
    457e: 64 28        	stz	$28                     ; 0x2028 <main+0x1aa9>
    4580: 64 15        	stz	$15                     ; 0x2015 <main+0x1a96>
    4582: 64 12        	stz	$12                     ; 0x2012 <main+0x1a93>
    4584: 64 27        	stz	$27                     ; 0x2027 <main+0x1aa8>
    4586: 64 14        	stz	$14                     ; 0x2014 <main+0x1a95>
    4588: 4c c4 47     	jmp	$47c4 <readDelta+0x420>
    458b: 4a           	lsr
    458c: aa           	tax
    458d: a9 00        	lda	#$0
    458f: 6a           	ror
    4590: a4 2a        	ldy	$2a                     ; 0x202a <main+0x1aab>
    4592: 84 26        	sty	$26                     ; 0x2026 <main+0x1aa7>
    4594: 46 26        	lsr	$26                     ; 0x2026 <main+0x1aa7>
    4596: a4 26        	ldy	$26                     ; 0x2026 <main+0x1aa7>
    4598: 84 27        	sty	$27                     ; 0x2027 <main+0x1aa8>
    459a: a4 29        	ldy	$29                     ; 0x2029 <main+0x1aaa>
    459c: 84 26        	sty	$26                     ; 0x2026 <main+0x1aa7>
    459e: 66 26        	ror	$26                     ; 0x2026 <main+0x1aa7>
    45a0: a4 26        	ldy	$26                     ; 0x2026 <main+0x1aa7>
    45a2: 84 2a        	sty	$2a                     ; 0x202a <main+0x1aab>
    45a4: 64 14        	stz	$14                     ; 0x2014 <main+0x1a95>
    45a6: 66 14        	ror	$14                     ; 0x2014 <main+0x1a95>
    45a8: 48           	pha
    45a9: a5 14        	lda	$14                     ; 0x2014 <main+0x1a95>
    45ab: a0 07        	ldy	#$7
    45ad: 91 10        	sta	($10),y                 ; 0x2010 <main+0x1a91>
    45af: 68           	pla
    45b0: 64 13        	stz	$13                     ; 0x2013 <main+0x1a94>
    45b2: 29 80        	and	#$80
    45b4: c8           	iny
    45b5: 91 10        	sta	($10),y                 ; 0x2010 <main+0x1a91>
    45b7: 8a           	txa
    45b8: 29 3f        	and	#$3f
    45ba: 85 28        	sta	$28                     ; 0x2028 <main+0x1aa9>
    45bc: a6 82        	ldx	$82                     ; 0x2082 <main+0x1b03>
    45be: 86 26        	stx	$26                     ; 0x2026 <main+0x1aa7>
    45c0: a6 83        	ldx	$83                     ; 0x2083 <main+0x1b04>
    45c2: 86 29        	stx	$29                     ; 0x2029 <main+0x1aaa>
    45c4: a0 19        	ldy	#$19
    45c6: a2 00        	ldx	#$0
    45c8: 84 12        	sty	$12                     ; 0x2012 <main+0x1a93>
    45ca: a5 25        	lda	$25                     ; 0x2025 <main+0x1aa6>
    45cc: 20 95 63     	jsr	$6395 <__mulhi3>
    45cf: 85 12        	sta	$12                     ; 0x2012 <main+0x1a93>
    45d1: 86 13        	stx	$13                     ; 0x2013 <main+0x1a94>
    45d3: a5 26        	lda	$26                     ; 0x2026 <main+0x1aa7>
    45d5: 18           	clc
    45d6: 65 12        	adc	$12                     ; 0x2012 <main+0x1a93>
    45d8: a8           	tay
    45d9: a5 29        	lda	$29                     ; 0x2029 <main+0x1aaa>
    45db: 65 13        	adc	$13                     ; 0x2013 <main+0x1a94>
    45dd: aa           	tax
    45de: 84 12        	sty	$12                     ; 0x2012 <main+0x1a93>
    45e0: 85 13        	sta	$13                     ; 0x2013 <main+0x1a94>
    45e2: 18           	clc
    45e3: 98           	tya
    45e4: 84 16        	sty	$16                     ; 0x2016 <main+0x1a97>
    45e6: 69 08        	adc	#$8
    45e8: 85 14        	sta	$14                     ; 0x2014 <main+0x1a95>
    45ea: 8a           	txa
    45eb: 69 00        	adc	#$0
    45ed: 85 15        	sta	$15                     ; 0x2015 <main+0x1a96>
    45ef: a0 04        	ldy	#$4
    45f1: 18           	clc
    45f2: a5 16        	lda	$16                     ; 0x2016 <main+0x1a97>
    45f4: 69 04        	adc	#$4
    45f6: 85 16        	sta	$16                     ; 0x2016 <main+0x1a97>
    45f8: 8a           	txa
    45f9: 69 00        	adc	#$0
    45fb: 85 17        	sta	$17                     ; 0x2017 <main+0x1a98>
    45fd: b1 12        	lda	($12),y                 ; 0x2012 <main+0x1a93>
    45ff: 85 18        	sta	$18                     ; 0x2018 <main+0x1a99>
    4601: a0 01        	ldy	#$1
    4603: b1 16        	lda	($16),y                 ; 0x2016 <main+0x1a97>
    4605: 85 19        	sta	$19                     ; 0x2019 <main+0x1a9a>
    4607: c8           	iny
    4608: b1 16        	lda	($16),y                 ; 0x2016 <main+0x1a97>
    460a: aa           	tax
    460b: c8           	iny
    460c: b1 16        	lda	($16),y                 ; 0x2016 <main+0x1a97>
    460e: 85 1b        	sta	$1b                     ; 0x201b <main+0x1a9c>
    4610: a4 18        	ldy	$18                     ; 0x2018 <main+0x1a99>
    4612: 84 1a        	sty	$1a                     ; 0x201a <main+0x1a9b>
    4614: a4 19        	ldy	$19                     ; 0x2019 <main+0x1a9a>
    4616: 8a           	txa
    4617: e6 1a        	inc	$1a                     ; 0x201a <main+0x1a9b>
    4619: d0 08        	bne	$4623 <readDelta+0x27f>
    461b: c8           	iny
    461c: d0 05        	bne	$4623 <readDelta+0x27f>
    461e: 1a           	inc
    461f: d0 02        	bne	$4623 <readDelta+0x27f>
    4621: e6 1b        	inc	$1b                     ; 0x201b <main+0x1a9c>
    4623: 85 1c        	sta	$1c                     ; 0x201c <main+0x1a9d>
    4625: 84 1d        	sty	$1d                     ; 0x201d <main+0x1a9e>
    4627: a0 04        	ldy	#$4
    4629: a5 1a        	lda	$1a                     ; 0x201a <main+0x1a9b>
    462b: 91 12        	sta	($12),y                 ; 0x2012 <main+0x1a93>
    462d: a0 01        	ldy	#$1
    462f: a5 1d        	lda	$1d                     ; 0x201d <main+0x1a9e>
    4631: 91 16        	sta	($16),y                 ; 0x2016 <main+0x1a97>
    4633: c8           	iny
    4634: a5 1c        	lda	$1c                     ; 0x201c <main+0x1a9d>
    4636: 91 16        	sta	($16),y                 ; 0x2016 <main+0x1a97>
    4638: c8           	iny
    4639: a5 1b        	lda	$1b                     ; 0x201b <main+0x1a9c>
    463b: 91 16        	sta	($16),y                 ; 0x2016 <main+0x1a97>
    463d: 18           	clc
    463e: a0 08        	ldy	#$8
    4640: a5 18        	lda	$18                     ; 0x2018 <main+0x1a99>
    4642: 71 12        	adc	($12),y                 ; 0x2012 <main+0x1a93>
    4644: 85 16        	sta	$16                     ; 0x2016 <main+0x1a97>
    4646: a5 19        	lda	$19                     ; 0x2019 <main+0x1a9a>
    4648: a0 01        	ldy	#$1
    464a: 71 14        	adc	($14),y                 ; 0x2014 <main+0x1a95>
    464c: 85 12        	sta	$12                     ; 0x2012 <main+0x1a93>
    464e: c8           	iny
    464f: 8a           	txa
    4650: 71 14        	adc	($14),y                 ; 0x2014 <main+0x1a95>
    4652: 85 13        	sta	$13                     ; 0x2013 <main+0x1a94>
    4654: a5 12        	lda	$12                     ; 0x2012 <main+0x1a93>
    4656: 06 12        	asl	$12                     ; 0x2012 <main+0x1a93>
    4658: 26 13        	rol	$13                     ; 0x2013 <main+0x1a94>
    465a: 06 12        	asl	$12                     ; 0x2012 <main+0x1a93>
    465c: 26 13        	rol	$13                     ; 0x2013 <main+0x1a94>
    465e: 06 12        	asl	$12                     ; 0x2012 <main+0x1a93>
    4660: 26 13        	rol	$13                     ; 0x2013 <main+0x1a94>
    4662: a4 13        	ldy	$13                     ; 0x2013 <main+0x1a94>
    4664: a6 0f        	ldx	$f                      ; 0x200f <main+0x1a90>
    4666: 78           	sei
    4667: 84 0f        	sty	$f                      ; 0x200f <main+0x1a90>
    4669: a4 16        	ldy	$16                     ; 0x2016 <main+0x1a97>
    466b: 84 12        	sty	$12                     ; 0x2012 <main+0x1a93>
    466d: 09 e0        	ora	#$e0
    466f: 85 13        	sta	$13                     ; 0x2013 <main+0x1a94>
    4671: b2 12        	lda	($12)                   ; 0x2012 <main+0x1a93>
    4673: 86 0f        	stx	$f                      ; 0x200f <main+0x1a90>
    4675: 58           	cli
    4676: aa           	tax
    4677: 30 14        	bmi	$468d <readDelta+0x2e9>
    4679: 64 15        	stz	$15                     ; 0x2015 <main+0x1a96>
    467b: 85 12        	sta	$12                     ; 0x2012 <main+0x1a93>
    467d: 64 14        	stz	$14                     ; 0x2014 <main+0x1a95>
    467f: 64 13        	stz	$13                     ; 0x2013 <main+0x1a94>
    4681: a0 07        	ldy	#$7
    4683: b1 10        	lda	($10),y                 ; 0x2010 <main+0x1a91>
    4685: 85 29        	sta	$29                     ; 0x2029 <main+0x1aaa>
    4687: c8           	iny
    4688: b1 10        	lda	($10),y                 ; 0x2010 <main+0x1a91>
    468a: 4c c4 47     	jmp	$47c4 <readDelta+0x420>
    468d: 4a           	lsr
    468e: 64 14        	stz	$14                     ; 0x2014 <main+0x1a95>
    4690: 66 14        	ror	$14                     ; 0x2014 <main+0x1a95>
    4692: 46 28        	lsr	$28                     ; 0x2028 <main+0x1aa9>
    4694: 48           	pha
    4695: a5 28        	lda	$28                     ; 0x2028 <main+0x1aa9>
    4697: a0 06        	ldy	#$6
    4699: 91 10        	sta	($10),y                 ; 0x2010 <main+0x1a91>
    469b: a0 08        	ldy	#$8
    469d: b1 10        	lda	($10),y                 ; 0x2010 <main+0x1a91>
    469f: 85 28        	sta	$28                     ; 0x2028 <main+0x1aa9>
    46a1: 68           	pla
    46a2: 66 28        	ror	$28                     ; 0x2028 <main+0x1aa9>
    46a4: aa           	tax
    46a5: a9 00        	lda	#$0
    46a7: 6a           	ror
    46a8: 91 10        	sta	($10),y                 ; 0x2010 <main+0x1a91>
    46aa: a4 27        	ldy	$27                     ; 0x2027 <main+0x1aa8>
    46ac: 84 24        	sty	$24                     ; 0x2024 <main+0x1aa5>
    46ae: 46 24        	lsr	$24                     ; 0x2024 <main+0x1aa5>
    46b0: a4 2a        	ldy	$2a                     ; 0x202a <main+0x1aab>
    46b2: 84 26        	sty	$26                     ; 0x2026 <main+0x1aa7>
    46b4: 66 26        	ror	$26                     ; 0x2026 <main+0x1aa7>
    46b6: a4 26        	ldy	$26                     ; 0x2026 <main+0x1aa7>
    46b8: 84 27        	sty	$27                     ; 0x2027 <main+0x1aa8>
    46ba: a0 07        	ldy	#$7
    46bc: b1 10        	lda	($10),y                 ; 0x2010 <main+0x1a91>
    46be: 85 26        	sta	$26                     ; 0x2026 <main+0x1aa7>
    46c0: 66 26        	ror	$26                     ; 0x2026 <main+0x1aa7>
    46c2: a5 26        	lda	$26                     ; 0x2026 <main+0x1aa7>
    46c4: 85 2a        	sta	$2a                     ; 0x202a <main+0x1aab>
    46c6: a9 00        	lda	#$0
    46c8: 6a           	ror
    46c9: 91 10        	sta	($10),y                 ; 0x2010 <main+0x1a91>
    46cb: a5 14        	lda	$14                     ; 0x2014 <main+0x1a95>
    46cd: 29 80        	and	#$80
    46cf: 85 29        	sta	$29                     ; 0x2029 <main+0x1aaa>
    46d1: 8a           	txa
    46d2: 29 3f        	and	#$3f
    46d4: a0 04        	ldy	#$4
    46d6: 91 10        	sta	($10),y                 ; 0x2010 <main+0x1a91>
    46d8: a6 82        	ldx	$82                     ; 0x2082 <main+0x1b03>
    46da: 8a           	txa
    46db: 88           	dey
    46dc: 91 10        	sta	($10),y                 ; 0x2010 <main+0x1a91>
    46de: a6 83        	ldx	$83                     ; 0x2083 <main+0x1b04>
    46e0: 8a           	txa
    46e1: a0 05        	ldy	#$5
    46e3: 91 10        	sta	($10),y                 ; 0x2010 <main+0x1a91>
    46e5: a0 19        	ldy	#$19
    46e7: a2 00        	ldx	#$0
    46e9: 84 12        	sty	$12                     ; 0x2012 <main+0x1a93>
    46eb: 64 13        	stz	$13                     ; 0x2013 <main+0x1a94>
    46ed: a5 25        	lda	$25                     ; 0x2025 <main+0x1aa6>
    46ef: 20 95 63     	jsr	$6395 <__mulhi3>
    46f2: a4 24        	ldy	$24                     ; 0x2024 <main+0x1aa5>
    46f4: 84 13        	sty	$13                     ; 0x2013 <main+0x1a94>
    46f6: 85 15        	sta	$15                     ; 0x2015 <main+0x1a96>
    46f8: 86 16        	stx	$16                     ; 0x2016 <main+0x1a97>
    46fa: a6 29        	ldx	$29                     ; 0x2029 <main+0x1aaa>
    46fc: 86 12        	stx	$12                     ; 0x2012 <main+0x1a93>
    46fe: a0 04        	ldy	#$4
    4700: b1 10        	lda	($10),y                 ; 0x2010 <main+0x1a91>
    4702: 85 14        	sta	$14                     ; 0x2014 <main+0x1a95>
    4704: 18           	clc
    4705: 88           	dey
    4706: b1 10        	lda	($10),y                 ; 0x2010 <main+0x1a91>
    4708: 65 15        	adc	$15                     ; 0x2015 <main+0x1a96>
    470a: a8           	tay
    470b: 5a           	phy
    470c: a0 05        	ldy	#$5
    470e: b1 10        	lda	($10),y                 ; 0x2010 <main+0x1a91>
    4710: 7a           	ply
    4711: 65 16        	adc	$16                     ; 0x2016 <main+0x1a97>
    4713: aa           	tax
    4714: 98           	tya
    4715: 84 16        	sty	$16                     ; 0x2016 <main+0x1a97>
    4717: 86 17        	stx	$17                     ; 0x2017 <main+0x1a98>
    4719: 84 1b        	sty	$1b                     ; 0x201b <main+0x1a9c>
    471b: 18           	clc
    471c: 69 04        	adc	#$4
    471e: 85 18        	sta	$18                     ; 0x2018 <main+0x1a99>
    4720: 8a           	txa
    4721: 86 1c        	stx	$1c                     ; 0x201c <main+0x1a9d>
    4723: 69 00        	adc	#$0
    4725: 85 19        	sta	$19                     ; 0x2019 <main+0x1a9a>
    4727: a0 04        	ldy	#$4
    4729: b1 16        	lda	($16),y                 ; 0x2016 <main+0x1a97>
    472b: aa           	tax
    472c: a0 01        	ldy	#$1
    472e: b1 18        	lda	($18),y                 ; 0x2018 <main+0x1a99>
    4730: 85 1a        	sta	$1a                     ; 0x201a <main+0x1a9b>
    4732: c8           	iny
    4733: b1 18        	lda	($18),y                 ; 0x2018 <main+0x1a99>
    4735: 85 15        	sta	$15                     ; 0x2015 <main+0x1a96>
    4737: c8           	iny
    4738: b1 18        	lda	($18),y                 ; 0x2018 <main+0x1a99>
    473a: 85 1d        	sta	$1d                     ; 0x201d <main+0x1a9e>
    473c: a4 1a        	ldy	$1a                     ; 0x201a <main+0x1a9b>
    473e: 84 1e        	sty	$1e                     ; 0x201e <main+0x1a9f>
    4740: a4 15        	ldy	$15                     ; 0x2015 <main+0x1a96>
    4742: 84 1f        	sty	$1f                     ; 0x201f <main+0x1aa0>
    4744: 8a           	txa
    4745: 1a           	inc
    4746: d0 0a        	bne	$4752 <readDelta+0x3ae>
    4748: e6 1e        	inc	$1e                     ; 0x201e <main+0x1a9f>
    474a: d0 06        	bne	$4752 <readDelta+0x3ae>
    474c: e6 1f        	inc	$1f                     ; 0x201f <main+0x1aa0>
    474e: d0 02        	bne	$4752 <readDelta+0x3ae>
    4750: e6 1d        	inc	$1d                     ; 0x201d <main+0x1a9e>
    4752: a0 04        	ldy	#$4
    4754: 91 16        	sta	($16),y                 ; 0x2016 <main+0x1a97>
    4756: a5 1d        	lda	$1d                     ; 0x201d <main+0x1a9e>
    4758: 88           	dey
    4759: 91 18        	sta	($18),y                 ; 0x2018 <main+0x1a99>
    475b: a0 01        	ldy	#$1
    475d: a5 1e        	lda	$1e                     ; 0x201e <main+0x1a9f>
    475f: 91 18        	sta	($18),y                 ; 0x2018 <main+0x1a99>
    4761: c8           	iny
    4762: a5 1f        	lda	$1f                     ; 0x201f <main+0x1aa0>
    4764: 91 18        	sta	($18),y                 ; 0x2018 <main+0x1a99>
    4766: a0 08        	ldy	#$8
    4768: 8a           	txa
    4769: 18           	clc
    476a: 71 16        	adc	($16),y                 ; 0x2016 <main+0x1a97>
    476c: a2 01        	ldx	#$1
    476e: b0 02        	bcs	$4772 <readDelta+0x3ce>
    4770: a2 00        	ldx	#$0
    4772: 85 19        	sta	$19                     ; 0x2019 <main+0x1a9a>
    4774: 18           	clc
    4775: a5 1b        	lda	$1b                     ; 0x201b <main+0x1a9c>
    4777: 69 08        	adc	#$8
    4779: 85 16        	sta	$16                     ; 0x2016 <main+0x1a97>
    477b: a5 1c        	lda	$1c                     ; 0x201c <main+0x1a9d>
    477d: 69 00        	adc	#$0
    477f: 85 17        	sta	$17                     ; 0x2017 <main+0x1a98>
    4781: e0 01        	cpx	#$1
    4783: a5 1a        	lda	$1a                     ; 0x201a <main+0x1a9b>
    4785: a0 01        	ldy	#$1
    4787: 71 16        	adc	($16),y                 ; 0x2016 <main+0x1a97>
    4789: 85 18        	sta	$18                     ; 0x2018 <main+0x1a99>
    478b: a5 15        	lda	$15                     ; 0x2015 <main+0x1a96>
    478d: c8           	iny
    478e: 71 16        	adc	($16),y                 ; 0x2016 <main+0x1a97>
    4790: 85 15        	sta	$15                     ; 0x2015 <main+0x1a96>
    4792: a6 0f        	ldx	$f                      ; 0x200f <main+0x1a90>
    4794: 78           	sei
    4795: a5 18        	lda	$18                     ; 0x2018 <main+0x1a99>
    4797: 0a           	asl
    4798: 26 15        	rol	$15                     ; 0x2015 <main+0x1a96>
    479a: 0a           	asl
    479b: 26 15        	rol	$15                     ; 0x2015 <main+0x1a96>
    479d: 0a           	asl
    479e: a5 15        	lda	$15                     ; 0x2015 <main+0x1a96>
    47a0: 2a           	rol
    47a1: 85 0f        	sta	$f                      ; 0x200f <main+0x1a90>
    47a3: a5 18        	lda	$18                     ; 0x2018 <main+0x1a99>
    47a5: 09 e0        	ora	#$e0
    47a7: a4 19        	ldy	$19                     ; 0x2019 <main+0x1a9a>
    47a9: 84 16        	sty	$16                     ; 0x2016 <main+0x1a97>
    47ab: 85 17        	sta	$17                     ; 0x2017 <main+0x1a98>
    47ad: b2 16        	lda	($16)                   ; 0x2016 <main+0x1a97>
    47af: 86 0f        	stx	$f                      ; 0x200f <main+0x1a90>
    47b1: 58           	cli
    47b2: 85 24        	sta	$24                     ; 0x2024 <main+0x1aa5>
    47b4: a0 08        	ldy	#$8
    47b6: b1 10        	lda	($10),y                 ; 0x2010 <main+0x1a91>
    47b8: 48           	pha
    47b9: 88           	dey
    47ba: b1 10        	lda	($10),y                 ; 0x2010 <main+0x1a91>
    47bc: 85 29        	sta	$29                     ; 0x2029 <main+0x1aaa>
    47be: 88           	dey
    47bf: b1 10        	lda	($10),y                 ; 0x2010 <main+0x1a91>
    47c1: 85 15        	sta	$15                     ; 0x2015 <main+0x1a96>
    47c3: 68           	pla
    47c4: 85 17        	sta	$17                     ; 0x2017 <main+0x1a98>
    47c6: a5 29        	lda	$29                     ; 0x2029 <main+0x1aaa>
    47c8: 05 17        	ora	$17                     ; 0x2017 <main+0x1a98>
    47ca: aa           	tax
    47cb: a5 2a        	lda	$2a                     ; 0x202a <main+0x1aab>
    47cd: 05 28        	ora	$28                     ; 0x2028 <main+0x1aa9>
    47cf: 85 16        	sta	$16                     ; 0x2016 <main+0x1a97>
    47d1: a5 27        	lda	$27                     ; 0x2027 <main+0x1aa8>
    47d3: 05 15        	ora	$15                     ; 0x2015 <main+0x1a96>
    47d5: a8           	tay
    47d6: 8a           	txa
    47d7: 05 12        	ora	$12                     ; 0x2012 <main+0x1a93>
    47d9: 85 12        	sta	$12                     ; 0x2012 <main+0x1a93>
    47db: a5 16        	lda	$16                     ; 0x2016 <main+0x1a97>
    47dd: 05 14        	ora	$14                     ; 0x2014 <main+0x1a95>
    47df: aa           	tax
    47e0: a5 12        	lda	$12                     ; 0x2012 <main+0x1a93>
    47e2: 05 24        	ora	$24                     ; 0x2024 <main+0x1aa5>
    47e4: 84 12        	sty	$12                     ; 0x2012 <main+0x1a93>
    47e6: 85 20        	sta	$20                     ; 0x2020 <main+0x1aa1>
    47e8: a0 00        	ldy	#$0
    47ea: b1 10        	lda	($10),y                 ; 0x2010 <main+0x1a91>
    47ec: 85 2a        	sta	$2a                     ; 0x202a <main+0x1aab>
    47ee: c8           	iny
    47ef: b1 10        	lda	($10),y                 ; 0x2010 <main+0x1a91>
    47f1: 85 29        	sta	$29                     ; 0x2029 <main+0x1aaa>
    47f3: c8           	iny
    47f4: b1 10        	lda	($10),y                 ; 0x2010 <main+0x1a91>
    47f6: 85 28        	sta	$28                     ; 0x2028 <main+0x1aa9>
    47f8: 7a           	ply
    47f9: 84 27        	sty	$27                     ; 0x2027 <main+0x1aa8>
    47fb: 7a           	ply
    47fc: 84 26        	sty	$26                     ; 0x2026 <main+0x1aa7>
    47fe: 7a           	ply
    47ff: 84 25        	sty	$25                     ; 0x2025 <main+0x1aa6>
    4801: 7a           	ply
    4802: 84 24        	sty	$24                     ; 0x2024 <main+0x1aa5>
    4804: 18           	clc
    4805: a5 10        	lda	$10                     ; 0x2010 <main+0x1a91>
    4807: 69 09        	adc	#$9
    4809: 85 10        	sta	$10                     ; 0x2010 <main+0x1a91>
    480b: a5 11        	lda	$11                     ; 0x2011 <main+0x1a92>
    480d: 69 00        	adc	#$0
    480f: 85 11        	sta	$11                     ; 0x2011 <main+0x1a92>
    4811: a5 20        	lda	$20                     ; 0x2020 <main+0x1aa1>
    4813: 60           	rts

00004814 <readMIDICmd>:
    4814: 48           	pha
    4815: 18           	clc
    4816: a5 10        	lda	$10                     ; 0x2010 <main+0x1a91>
    4818: 69 f2        	adc	#$f2
    481a: 85 10        	sta	$10                     ; 0x2010 <main+0x1a91>
    481c: a5 11        	lda	$11                     ; 0x2011 <main+0x1a92>
    481e: 69 ff        	adc	#$ff
    4820: 85 11        	sta	$11                     ; 0x2011 <main+0x1a92>
    4822: 68           	pla
    4823: a6 24        	ldx	$24                     ; 0x2024 <main+0x1aa5>
    4825: da           	phx
    4826: a6 25        	ldx	$25                     ; 0x2025 <main+0x1aa6>
    4828: da           	phx
    4829: a6 26        	ldx	$26                     ; 0x2026 <main+0x1aa7>
    482b: da           	phx
    482c: a6 27        	ldx	$27                     ; 0x2027 <main+0x1aa8>
    482e: da           	phx
    482f: 48           	pha
    4830: a5 28        	lda	$28                     ; 0x2028 <main+0x1aa9>
    4832: a0 07        	ldy	#$7
    4834: 91 10        	sta	($10),y                 ; 0x2010 <main+0x1a91>
    4836: a5 29        	lda	$29                     ; 0x2029 <main+0x1aaa>
    4838: 88           	dey
    4839: 91 10        	sta	($10),y                 ; 0x2010 <main+0x1a91>
    483b: a5 2a        	lda	$2a                     ; 0x202a <main+0x1aab>
    483d: 88           	dey
    483e: 91 10        	sta	($10),y                 ; 0x2010 <main+0x1a91>
    4840: a5 2b        	lda	$2b                     ; 0x202b <main+0x1aac>
    4842: 88           	dey
    4843: 91 10        	sta	($10),y                 ; 0x2010 <main+0x1a91>
    4845: a5 2c        	lda	$2c                     ; 0x202c <main+0x1aad>
    4847: 88           	dey
    4848: 91 10        	sta	($10),y                 ; 0x2010 <main+0x1a91>
    484a: a5 2d        	lda	$2d                     ; 0x202d <main+0x1aae>
    484c: 88           	dey
    484d: 91 10        	sta	($10),y                 ; 0x2010 <main+0x1a91>
    484f: a5 2e        	lda	$2e                     ; 0x202e <main+0x1aaf>
    4851: 88           	dey
    4852: 91 10        	sta	($10),y                 ; 0x2010 <main+0x1a91>
    4854: a5 2f        	lda	$2f                     ; 0x202f <main+0x1ab0>
    4856: 88           	dey
    4857: 91 10        	sta	($10),y                 ; 0x2010 <main+0x1a91>
    4859: 68           	pla
    485a: a6 82        	ldx	$82                     ; 0x2082 <main+0x1b03>
    485c: 86 24        	stx	$24                     ; 0x2024 <main+0x1aa5>
    485e: a6 83        	ldx	$83                     ; 0x2083 <main+0x1b04>
    4860: 86 25        	stx	$25                     ; 0x2025 <main+0x1aa6>
    4862: a2 19        	ldx	#$19
    4864: 86 12        	stx	$12                     ; 0x2012 <main+0x1a93>
    4866: 64 13        	stz	$13                     ; 0x2013 <main+0x1a94>
    4868: a2 00        	ldx	#$0
    486a: a0 0d        	ldy	#$d
    486c: 91 10        	sta	($10),y                 ; 0x2010 <main+0x1a91>
    486e: 20 95 63     	jsr	$6395 <__mulhi3>
    4871: 85 13        	sta	$13                     ; 0x2013 <main+0x1a94>
    4873: 86 12        	stx	$12                     ; 0x2012 <main+0x1a93>
    4875: 18           	clc
    4876: a5 24        	lda	$24                     ; 0x2024 <main+0x1aa5>
    4878: 65 13        	adc	$13                     ; 0x2013 <main+0x1a94>
    487a: aa           	tax
    487b: a5 25        	lda	$25                     ; 0x2025 <main+0x1aa6>
    487d: 65 12        	adc	$12                     ; 0x2012 <main+0x1a93>
    487f: 86 14        	stx	$14                     ; 0x2014 <main+0x1a95>
    4881: 85 15        	sta	$15                     ; 0x2015 <main+0x1a96>
    4883: 85 18        	sta	$18                     ; 0x2018 <main+0x1a99>
    4885: 18           	clc
    4886: 8a           	txa
    4887: 69 08        	adc	#$8
    4889: 85 16        	sta	$16                     ; 0x2016 <main+0x1a97>
    488b: a5 18        	lda	$18                     ; 0x2018 <main+0x1a99>
    488d: 69 00        	adc	#$0
    488f: a0 08        	ldy	#$8
    4891: 85 17        	sta	$17                     ; 0x2017 <main+0x1a98>
    4893: b1 14        	lda	($14),y                 ; 0x2014 <main+0x1a95>
    4895: 85 1a        	sta	$1a                     ; 0x201a <main+0x1a9b>
    4897: 18           	clc
    4898: 8a           	txa
    4899: 69 04        	adc	#$4
    489b: aa           	tax
    489c: a5 18        	lda	$18                     ; 0x2018 <main+0x1a99>
    489e: 69 00        	adc	#$0
    48a0: 85 19        	sta	$19                     ; 0x2019 <main+0x1a9a>
    48a2: a0 01        	ldy	#$1
    48a4: 86 18        	stx	$18                     ; 0x2018 <main+0x1a99>
    48a6: b1 16        	lda	($16),y                 ; 0x2016 <main+0x1a97>
    48a8: 85 1b        	sta	$1b                     ; 0x201b <main+0x1a9c>
    48aa: c8           	iny
    48ab: b1 16        	lda	($16),y                 ; 0x2016 <main+0x1a97>
    48ad: 85 16        	sta	$16                     ; 0x2016 <main+0x1a97>
    48af: 18           	clc
    48b0: a0 04        	ldy	#$4
    48b2: a5 1a        	lda	$1a                     ; 0x201a <main+0x1a9b>
    48b4: 71 14        	adc	($14),y                 ; 0x2014 <main+0x1a95>
    48b6: 85 15        	sta	$15                     ; 0x2015 <main+0x1a96>
    48b8: a5 1b        	lda	$1b                     ; 0x201b <main+0x1a9c>
    48ba: a0 01        	ldy	#$1
    48bc: 71 18        	adc	($18),y                 ; 0x2018 <main+0x1a99>
    48be: aa           	tax
    48bf: c8           	iny
    48c0: a5 16        	lda	$16                     ; 0x2016 <main+0x1a97>
    48c2: 71 18        	adc	($18),y                 ; 0x2018 <main+0x1a99>
    48c4: 85 16        	sta	$16                     ; 0x2016 <main+0x1a97>
    48c6: 8a           	txa
    48c7: 86 14        	stx	$14                     ; 0x2014 <main+0x1a95>
    48c9: 06 14        	asl	$14                     ; 0x2014 <main+0x1a95>
    48cb: 26 16        	rol	$16                     ; 0x2016 <main+0x1a97>
    48cd: 06 14        	asl	$14                     ; 0x2014 <main+0x1a95>
    48cf: 26 16        	rol	$16                     ; 0x2016 <main+0x1a97>
    48d1: 06 14        	asl	$14                     ; 0x2014 <main+0x1a95>
    48d3: 26 16        	rol	$16                     ; 0x2016 <main+0x1a97>
    48d5: a4 16        	ldy	$16                     ; 0x2016 <main+0x1a97>
    48d7: a6 0f        	ldx	$f                      ; 0x200f <main+0x1a90>
    48d9: 78           	sei
    48da: 84 0f        	sty	$f                      ; 0x200f <main+0x1a90>
    48dc: a4 15        	ldy	$15                     ; 0x2015 <main+0x1a96>
    48de: 84 14        	sty	$14                     ; 0x2014 <main+0x1a95>
    48e0: 09 e0        	ora	#$e0
    48e2: 85 15        	sta	$15                     ; 0x2015 <main+0x1a96>
    48e4: b2 14        	lda	($14)                   ; 0x2014 <main+0x1a95>
    48e6: 85 25        	sta	$25                     ; 0x2025 <main+0x1aa6>
    48e8: 86 0f        	stx	$f                      ; 0x200f <main+0x1a90>
    48ea: 58           	cli
    48eb: a5 13        	lda	$13                     ; 0x2013 <main+0x1a94>
    48ed: 18           	clc
    48ee: 65 82        	adc	$82                     ; 0x2082 <main+0x1b03>
    48f0: aa           	tax
    48f1: a5 12        	lda	$12                     ; 0x2012 <main+0x1a93>
    48f3: 65 83        	adc	$83                     ; 0x2083 <main+0x1b04>
    48f5: a8           	tay
    48f6: 18           	clc
    48f7: 8a           	txa
    48f8: 69 08        	adc	#$8
    48fa: 85 14        	sta	$14                     ; 0x2014 <main+0x1a95>
    48fc: 98           	tya
    48fd: 69 00        	adc	#$0
    48ff: 85 15        	sta	$15                     ; 0x2015 <main+0x1a96>
    4901: 86 16        	stx	$16                     ; 0x2016 <main+0x1a97>
    4903: 84 17        	sty	$17                     ; 0x2017 <main+0x1a98>
    4905: 18           	clc
    4906: 8a           	txa
    4907: 69 04        	adc	#$4
    4909: 85 18        	sta	$18                     ; 0x2018 <main+0x1a99>
    490b: 98           	tya
    490c: 69 00        	adc	#$0
    490e: 85 19        	sta	$19                     ; 0x2019 <main+0x1a9a>
    4910: a0 04        	ldy	#$4
    4912: b1 16        	lda	($16),y                 ; 0x2016 <main+0x1a97>
    4914: 85 1b        	sta	$1b                     ; 0x201b <main+0x1a9c>
    4916: a0 01        	ldy	#$1
    4918: b1 18        	lda	($18),y                 ; 0x2018 <main+0x1a99>
    491a: aa           	tax
    491b: c8           	iny
    491c: b1 18        	lda	($18),y                 ; 0x2018 <main+0x1a99>
    491e: 85 1d        	sta	$1d                     ; 0x201d <main+0x1a9e>
    4920: c8           	iny
    4921: b1 18        	lda	($18),y                 ; 0x2018 <main+0x1a99>
    4923: 85 18        	sta	$18                     ; 0x2018 <main+0x1a99>
    4925: 18           	clc
    4926: a0 08        	ldy	#$8
    4928: a5 1b        	lda	$1b                     ; 0x201b <main+0x1a9c>
    492a: 71 16        	adc	($16),y                 ; 0x2016 <main+0x1a97>
    492c: 85 16        	sta	$16                     ; 0x2016 <main+0x1a97>
    492e: a0 01        	ldy	#$1
    4930: 8a           	txa
    4931: 71 14        	adc	($14),y                 ; 0x2014 <main+0x1a95>
    4933: 85 17        	sta	$17                     ; 0x2017 <main+0x1a98>
    4935: c8           	iny
    4936: a5 1d        	lda	$1d                     ; 0x201d <main+0x1a9e>
    4938: 71 14        	adc	($14),y                 ; 0x2014 <main+0x1a95>
    493a: aa           	tax
    493b: a5 18        	lda	$18                     ; 0x2018 <main+0x1a99>
    493d: c8           	iny
    493e: 71 14        	adc	($14),y                 ; 0x2014 <main+0x1a95>
    4940: a8           	tay
    4941: a5 17        	lda	$17                     ; 0x2017 <main+0x1a98>
    4943: e6 16        	inc	$16                     ; 0x2016 <main+0x1a97>
    4945: d0 07        	bne	$494e <readMIDICmd+0x13a>
    4947: 1a           	inc
    4948: d0 04        	bne	$494e <readMIDICmd+0x13a>
    494a: e8           	inx
    494b: d0 01        	bne	$494e <readMIDICmd+0x13a>
    494d: c8           	iny
    494e: 85 14        	sta	$14                     ; 0x2014 <main+0x1a95>
    4950: 06 14        	asl	$14                     ; 0x2014 <main+0x1a95>
    4952: 86 15        	stx	$15                     ; 0x2015 <main+0x1a96>
    4954: 26 15        	rol	$15                     ; 0x2015 <main+0x1a96>
    4956: 06 14        	asl	$14                     ; 0x2014 <main+0x1a95>
    4958: 26 15        	rol	$15                     ; 0x2015 <main+0x1a96>
    495a: 06 14        	asl	$14                     ; 0x2014 <main+0x1a95>
    495c: 26 15        	rol	$15                     ; 0x2015 <main+0x1a96>
    495e: a4 15        	ldy	$15                     ; 0x2015 <main+0x1a96>
    4960: a6 0f        	ldx	$f                      ; 0x200f <main+0x1a90>
    4962: 78           	sei
    4963: 84 0f        	sty	$f                      ; 0x200f <main+0x1a90>
    4965: a4 16        	ldy	$16                     ; 0x2016 <main+0x1a97>
    4967: 84 14        	sty	$14                     ; 0x2014 <main+0x1a95>
    4969: 09 e0        	ora	#$e0
    496b: 85 15        	sta	$15                     ; 0x2015 <main+0x1a96>
    496d: b2 14        	lda	($14)                   ; 0x2014 <main+0x1a95>
    496f: 85 1b        	sta	$1b                     ; 0x201b <main+0x1a9c>
    4971: 86 0f        	stx	$f                      ; 0x200f <main+0x1a90>
    4973: 58           	cli
    4974: 18           	clc
    4975: a5 13        	lda	$13                     ; 0x2013 <main+0x1a94>
    4977: 65 82        	adc	$82                     ; 0x2082 <main+0x1b03>
    4979: aa           	tax
    497a: a5 12        	lda	$12                     ; 0x2012 <main+0x1a93>
    497c: 65 83        	adc	$83                     ; 0x2083 <main+0x1b04>
    497e: a8           	tay
    497f: 18           	clc
    4980: 8a           	txa
    4981: 69 08        	adc	#$8
    4983: 85 14        	sta	$14                     ; 0x2014 <main+0x1a95>
    4985: 98           	tya
    4986: 69 00        	adc	#$0
    4988: 85 15        	sta	$15                     ; 0x2015 <main+0x1a96>
    498a: 86 16        	stx	$16                     ; 0x2016 <main+0x1a97>
    498c: 84 17        	sty	$17                     ; 0x2017 <main+0x1a98>
    498e: 18           	clc
    498f: 8a           	txa
    4990: 69 04        	adc	#$4
    4992: 85 18        	sta	$18                     ; 0x2018 <main+0x1a99>
    4994: 98           	tya
    4995: 69 00        	adc	#$0
    4997: 85 19        	sta	$19                     ; 0x2019 <main+0x1a9a>
    4999: a0 04        	ldy	#$4
    499b: b1 16        	lda	($16),y                 ; 0x2016 <main+0x1a97>
    499d: 85 1d        	sta	$1d                     ; 0x201d <main+0x1a9e>
    499f: a0 01        	ldy	#$1
    49a1: b1 18        	lda	($18),y                 ; 0x2018 <main+0x1a99>
    49a3: 85 1e        	sta	$1e                     ; 0x201e <main+0x1a9f>
    49a5: c8           	iny
    49a6: b1 18        	lda	($18),y                 ; 0x2018 <main+0x1a99>
    49a8: 85 18        	sta	$18                     ; 0x2018 <main+0x1a99>
    49aa: 18           	clc
    49ab: a0 08        	ldy	#$8
    49ad: a5 1d        	lda	$1d                     ; 0x201d <main+0x1a9e>
    49af: 71 16        	adc	($16),y                 ; 0x2016 <main+0x1a97>
    49b1: 85 16        	sta	$16                     ; 0x2016 <main+0x1a97>
    49b3: a5 1e        	lda	$1e                     ; 0x201e <main+0x1a9f>
    49b5: a0 01        	ldy	#$1
    49b7: 71 14        	adc	($14),y                 ; 0x2014 <main+0x1a95>
    49b9: 85 17        	sta	$17                     ; 0x2017 <main+0x1a98>
    49bb: a5 18        	lda	$18                     ; 0x2018 <main+0x1a99>
    49bd: c8           	iny
    49be: 71 14        	adc	($14),y                 ; 0x2014 <main+0x1a95>
    49c0: 85 14        	sta	$14                     ; 0x2014 <main+0x1a95>
    49c2: 18           	clc
    49c3: a5 16        	lda	$16                     ; 0x2016 <main+0x1a97>
    49c5: 69 02        	adc	#$2
    49c7: 85 16        	sta	$16                     ; 0x2016 <main+0x1a97>
    49c9: a5 17        	lda	$17                     ; 0x2017 <main+0x1a98>
    49cb: 69 00        	adc	#$0
    49cd: aa           	tax
    49ce: a5 14        	lda	$14                     ; 0x2014 <main+0x1a95>
    49d0: 69 00        	adc	#$0
    49d2: 85 15        	sta	$15                     ; 0x2015 <main+0x1a96>
    49d4: 8a           	txa
    49d5: 86 14        	stx	$14                     ; 0x2014 <main+0x1a95>
    49d7: 06 14        	asl	$14                     ; 0x2014 <main+0x1a95>
    49d9: 26 15        	rol	$15                     ; 0x2015 <main+0x1a96>
    49db: 06 14        	asl	$14                     ; 0x2014 <main+0x1a95>
    49dd: 26 15        	rol	$15                     ; 0x2015 <main+0x1a96>
    49df: 06 14        	asl	$14                     ; 0x2014 <main+0x1a95>
    49e1: 26 15        	rol	$15                     ; 0x2015 <main+0x1a96>
    49e3: a4 15        	ldy	$15                     ; 0x2015 <main+0x1a96>
    49e5: a6 0f        	ldx	$f                      ; 0x200f <main+0x1a90>
    49e7: 78           	sei
    49e8: 84 0f        	sty	$f                      ; 0x200f <main+0x1a90>
    49ea: a4 16        	ldy	$16                     ; 0x2016 <main+0x1a97>
    49ec: 84 14        	sty	$14                     ; 0x2014 <main+0x1a95>
    49ee: 09 e0        	ora	#$e0
    49f0: 85 15        	sta	$15                     ; 0x2015 <main+0x1a96>
    49f2: b2 14        	lda	($14)                   ; 0x2014 <main+0x1a95>
    49f4: 85 1d        	sta	$1d                     ; 0x201d <main+0x1a9e>
    49f6: 86 0f        	stx	$f                      ; 0x200f <main+0x1a90>
    49f8: 58           	cli
    49f9: 18           	clc
    49fa: a5 13        	lda	$13                     ; 0x2013 <main+0x1a94>
    49fc: 65 82        	adc	$82                     ; 0x2082 <main+0x1b03>
    49fe: aa           	tax
    49ff: a5 12        	lda	$12                     ; 0x2012 <main+0x1a93>
    4a01: 65 83        	adc	$83                     ; 0x2083 <main+0x1b04>
    4a03: a8           	tay
    4a04: 18           	clc
    4a05: 8a           	txa
    4a06: 69 08        	adc	#$8
    4a08: 85 14        	sta	$14                     ; 0x2014 <main+0x1a95>
    4a0a: 98           	tya
    4a0b: 69 00        	adc	#$0
    4a0d: 85 15        	sta	$15                     ; 0x2015 <main+0x1a96>
    4a0f: 86 16        	stx	$16                     ; 0x2016 <main+0x1a97>
    4a11: 84 17        	sty	$17                     ; 0x2017 <main+0x1a98>
    4a13: 18           	clc
    4a14: 8a           	txa
    4a15: 69 04        	adc	#$4
    4a17: 85 18        	sta	$18                     ; 0x2018 <main+0x1a99>
    4a19: 98           	tya
    4a1a: 69 00        	adc	#$0
    4a1c: 85 19        	sta	$19                     ; 0x2019 <main+0x1a9a>
    4a1e: a0 04        	ldy	#$4
    4a20: b1 16        	lda	($16),y                 ; 0x2016 <main+0x1a97>
    4a22: 85 1e        	sta	$1e                     ; 0x201e <main+0x1a9f>
    4a24: a0 01        	ldy	#$1
    4a26: b1 18        	lda	($18),y                 ; 0x2018 <main+0x1a99>
    4a28: 85 1f        	sta	$1f                     ; 0x201f <main+0x1aa0>
    4a2a: c8           	iny
    4a2b: b1 18        	lda	($18),y                 ; 0x2018 <main+0x1a99>
    4a2d: 85 18        	sta	$18                     ; 0x2018 <main+0x1a99>
    4a2f: 18           	clc
    4a30: a0 08        	ldy	#$8
    4a32: a5 1e        	lda	$1e                     ; 0x201e <main+0x1a9f>
    4a34: 71 16        	adc	($16),y                 ; 0x2016 <main+0x1a97>
    4a36: 85 16        	sta	$16                     ; 0x2016 <main+0x1a97>
    4a38: a5 1f        	lda	$1f                     ; 0x201f <main+0x1aa0>
    4a3a: a0 01        	ldy	#$1
    4a3c: 71 14        	adc	($14),y                 ; 0x2014 <main+0x1a95>
    4a3e: 85 17        	sta	$17                     ; 0x2017 <main+0x1a98>
    4a40: a5 18        	lda	$18                     ; 0x2018 <main+0x1a99>
    4a42: c8           	iny
    4a43: 71 14        	adc	($14),y                 ; 0x2014 <main+0x1a95>
    4a45: 85 14        	sta	$14                     ; 0x2014 <main+0x1a95>
    4a47: 18           	clc
    4a48: a5 16        	lda	$16                     ; 0x2016 <main+0x1a97>
    4a4a: 69 03        	adc	#$3
    4a4c: 85 16        	sta	$16                     ; 0x2016 <main+0x1a97>
    4a4e: a5 17        	lda	$17                     ; 0x2017 <main+0x1a98>
    4a50: 69 00        	adc	#$0
    4a52: aa           	tax
    4a53: a5 14        	lda	$14                     ; 0x2014 <main+0x1a95>
    4a55: 69 00        	adc	#$0
    4a57: 85 15        	sta	$15                     ; 0x2015 <main+0x1a96>
    4a59: 8a           	txa
    4a5a: 86 14        	stx	$14                     ; 0x2014 <main+0x1a95>
    4a5c: 06 14        	asl	$14                     ; 0x2014 <main+0x1a95>
    4a5e: 26 15        	rol	$15                     ; 0x2015 <main+0x1a96>
    4a60: 06 14        	asl	$14                     ; 0x2014 <main+0x1a95>
    4a62: 26 15        	rol	$15                     ; 0x2015 <main+0x1a96>
    4a64: 06 14        	asl	$14                     ; 0x2014 <main+0x1a95>
    4a66: 26 15        	rol	$15                     ; 0x2015 <main+0x1a96>
    4a68: a4 15        	ldy	$15                     ; 0x2015 <main+0x1a96>
    4a6a: a6 0f        	ldx	$f                      ; 0x200f <main+0x1a90>
    4a6c: 78           	sei
    4a6d: 84 0f        	sty	$f                      ; 0x200f <main+0x1a90>
    4a6f: a4 16        	ldy	$16                     ; 0x2016 <main+0x1a97>
    4a71: 84 14        	sty	$14                     ; 0x2014 <main+0x1a95>
    4a73: 09 e0        	ora	#$e0
    4a75: 85 15        	sta	$15                     ; 0x2015 <main+0x1a96>
    4a77: b2 14        	lda	($14)                   ; 0x2014 <main+0x1a95>
    4a79: a0 0a        	ldy	#$a
    4a7b: 91 10        	sta	($10),y                 ; 0x2010 <main+0x1a91>
    4a7d: 86 0f        	stx	$f                      ; 0x200f <main+0x1a90>
    4a7f: 58           	cli
    4a80: 18           	clc
    4a81: a5 13        	lda	$13                     ; 0x2013 <main+0x1a94>
    4a83: 65 82        	adc	$82                     ; 0x2082 <main+0x1b03>
    4a85: aa           	tax
    4a86: a5 12        	lda	$12                     ; 0x2012 <main+0x1a93>
    4a88: 65 83        	adc	$83                     ; 0x2083 <main+0x1b04>
    4a8a: a8           	tay
    4a8b: 8a           	txa
    4a8c: 18           	clc
    4a8d: 69 08        	adc	#$8
    4a8f: 85 14        	sta	$14                     ; 0x2014 <main+0x1a95>
    4a91: 98           	tya
    4a92: 69 00        	adc	#$0
    4a94: 85 15        	sta	$15                     ; 0x2015 <main+0x1a96>
    4a96: 86 16        	stx	$16                     ; 0x2016 <main+0x1a97>
    4a98: 84 17        	sty	$17                     ; 0x2017 <main+0x1a98>
    4a9a: 18           	clc
    4a9b: 8a           	txa
    4a9c: 69 04        	adc	#$4
    4a9e: 85 18        	sta	$18                     ; 0x2018 <main+0x1a99>
    4aa0: 98           	tya
    4aa1: 69 00        	adc	#$0
    4aa3: 85 19        	sta	$19                     ; 0x2019 <main+0x1a9a>
    4aa5: a0 04        	ldy	#$4
    4aa7: b1 16        	lda	($16),y                 ; 0x2016 <main+0x1a97>
    4aa9: 85 1e        	sta	$1e                     ; 0x201e <main+0x1a9f>
    4aab: a0 01        	ldy	#$1
    4aad: b1 18        	lda	($18),y                 ; 0x2018 <main+0x1a99>
    4aaf: 85 1f        	sta	$1f                     ; 0x201f <main+0x1aa0>
    4ab1: c8           	iny
    4ab2: b1 18        	lda	($18),y                 ; 0x2018 <main+0x1a99>
    4ab4: 85 18        	sta	$18                     ; 0x2018 <main+0x1a99>
    4ab6: 18           	clc
    4ab7: a0 08        	ldy	#$8
    4ab9: a5 1e        	lda	$1e                     ; 0x201e <main+0x1a9f>
    4abb: 71 16        	adc	($16),y                 ; 0x2016 <main+0x1a97>
    4abd: 85 16        	sta	$16                     ; 0x2016 <main+0x1a97>
    4abf: a0 01        	ldy	#$1
    4ac1: a5 1f        	lda	$1f                     ; 0x201f <main+0x1aa0>
    4ac3: 71 14        	adc	($14),y                 ; 0x2014 <main+0x1a95>
    4ac5: 85 17        	sta	$17                     ; 0x2017 <main+0x1a98>
    4ac7: c8           	iny
    4ac8: a5 18        	lda	$18                     ; 0x2018 <main+0x1a99>
    4aca: 71 14        	adc	($14),y                 ; 0x2014 <main+0x1a95>
    4acc: 85 14        	sta	$14                     ; 0x2014 <main+0x1a95>
    4ace: 18           	clc
    4acf: a5 16        	lda	$16                     ; 0x2016 <main+0x1a97>
    4ad1: 69 04        	adc	#$4
    4ad3: 85 16        	sta	$16                     ; 0x2016 <main+0x1a97>
    4ad5: a5 17        	lda	$17                     ; 0x2017 <main+0x1a98>
    4ad7: 69 00        	adc	#$0
    4ad9: aa           	tax
    4ada: a5 14        	lda	$14                     ; 0x2014 <main+0x1a95>
    4adc: 69 00        	adc	#$0
    4ade: 85 15        	sta	$15                     ; 0x2015 <main+0x1a96>
    4ae0: 8a           	txa
    4ae1: 86 14        	stx	$14                     ; 0x2014 <main+0x1a95>
    4ae3: 06 14        	asl	$14                     ; 0x2014 <main+0x1a95>
    4ae5: 26 15        	rol	$15                     ; 0x2015 <main+0x1a96>
    4ae7: 06 14        	asl	$14                     ; 0x2014 <main+0x1a95>
    4ae9: 26 15        	rol	$15                     ; 0x2015 <main+0x1a96>
    4aeb: 06 14        	asl	$14                     ; 0x2014 <main+0x1a95>
    4aed: 26 15        	rol	$15                     ; 0x2015 <main+0x1a96>
    4aef: a4 15        	ldy	$15                     ; 0x2015 <main+0x1a96>
    4af1: a6 0f        	ldx	$f                      ; 0x200f <main+0x1a90>
    4af3: 78           	sei
    4af4: 84 0f        	sty	$f                      ; 0x200f <main+0x1a90>
    4af6: a4 16        	ldy	$16                     ; 0x2016 <main+0x1a97>
    4af8: 84 14        	sty	$14                     ; 0x2014 <main+0x1a95>
    4afa: 09 e0        	ora	#$e0
    4afc: 85 15        	sta	$15                     ; 0x2015 <main+0x1a96>
    4afe: b2 14        	lda	($14)                   ; 0x2014 <main+0x1a95>
    4b00: a0 09        	ldy	#$9
    4b02: 91 10        	sta	($10),y                 ; 0x2010 <main+0x1a91>
    4b04: 86 0f        	stx	$f                      ; 0x200f <main+0x1a90>
    4b06: 58           	cli
    4b07: 18           	clc
    4b08: a5 13        	lda	$13                     ; 0x2013 <main+0x1a94>
    4b0a: 65 82        	adc	$82                     ; 0x2082 <main+0x1b03>
    4b0c: a8           	tay
    4b0d: a5 12        	lda	$12                     ; 0x2012 <main+0x1a93>
    4b0f: 65 83        	adc	$83                     ; 0x2083 <main+0x1b04>
    4b11: aa           	tax
    4b12: 98           	tya
    4b13: 84 14        	sty	$14                     ; 0x2014 <main+0x1a95>
    4b15: 86 15        	stx	$15                     ; 0x2015 <main+0x1a96>
    4b17: 84 19        	sty	$19                     ; 0x2019 <main+0x1a9a>
    4b19: 18           	clc
    4b1a: 69 04        	adc	#$4
    4b1c: 85 16        	sta	$16                     ; 0x2016 <main+0x1a97>
    4b1e: 8a           	txa
    4b1f: 69 00        	adc	#$0
    4b21: 85 17        	sta	$17                     ; 0x2017 <main+0x1a98>
    4b23: a0 04        	ldy	#$4
    4b25: b1 14        	lda	($14),y                 ; 0x2014 <main+0x1a95>
    4b27: 85 18        	sta	$18                     ; 0x2018 <main+0x1a99>
    4b29: a0 01        	ldy	#$1
    4b2b: b1 16        	lda	($16),y                 ; 0x2016 <main+0x1a97>
    4b2d: 85 1a        	sta	$1a                     ; 0x201a <main+0x1a9b>
    4b2f: c8           	iny
    4b30: b1 16        	lda	($16),y                 ; 0x2016 <main+0x1a97>
    4b32: 85 17        	sta	$17                     ; 0x2017 <main+0x1a98>
    4b34: 18           	clc
    4b35: a0 08        	ldy	#$8
    4b37: a5 18        	lda	$18                     ; 0x2018 <main+0x1a99>
    4b39: 71 14        	adc	($14),y                 ; 0x2014 <main+0x1a95>
    4b3b: a0 01        	ldy	#$1
    4b3d: b0 02        	bcs	$4b41 <readMIDICmd+0x32d>
    4b3f: a0 00        	ldy	#$0
    4b41: 84 18        	sty	$18                     ; 0x2018 <main+0x1a99>
    4b43: 85 16        	sta	$16                     ; 0x2016 <main+0x1a97>
    4b45: 18           	clc
    4b46: a5 19        	lda	$19                     ; 0x2019 <main+0x1a9a>
    4b48: 69 08        	adc	#$8
    4b4a: 85 14        	sta	$14                     ; 0x2014 <main+0x1a95>
    4b4c: 8a           	txa
    4b4d: 69 00        	adc	#$0
    4b4f: 85 15        	sta	$15                     ; 0x2015 <main+0x1a96>
    4b51: a0 01        	ldy	#$1
    4b53: a5 1a        	lda	$1a                     ; 0x201a <main+0x1a9b>
    4b55: a6 18        	ldx	$18                     ; 0x2018 <main+0x1a99>
    4b57: e0 01        	cpx	#$1
    4b59: 71 14        	adc	($14),y                 ; 0x2014 <main+0x1a95>
    4b5b: 85 18        	sta	$18                     ; 0x2018 <main+0x1a99>
    4b5d: c8           	iny
    4b5e: a5 17        	lda	$17                     ; 0x2017 <main+0x1a98>
    4b60: 71 14        	adc	($14),y                 ; 0x2014 <main+0x1a95>
    4b62: 85 14        	sta	$14                     ; 0x2014 <main+0x1a95>
    4b64: 18           	clc
    4b65: a5 16        	lda	$16                     ; 0x2016 <main+0x1a97>
    4b67: 69 05        	adc	#$5
    4b69: 85 16        	sta	$16                     ; 0x2016 <main+0x1a97>
    4b6b: a5 18        	lda	$18                     ; 0x2018 <main+0x1a99>
    4b6d: 69 00        	adc	#$0
    4b6f: aa           	tax
    4b70: a5 14        	lda	$14                     ; 0x2014 <main+0x1a95>
    4b72: 69 00        	adc	#$0
    4b74: 85 15        	sta	$15                     ; 0x2015 <main+0x1a96>
    4b76: 8a           	txa
    4b77: 86 14        	stx	$14                     ; 0x2014 <main+0x1a95>
    4b79: 06 14        	asl	$14                     ; 0x2014 <main+0x1a95>
    4b7b: 26 15        	rol	$15                     ; 0x2015 <main+0x1a96>
    4b7d: 06 14        	asl	$14                     ; 0x2014 <main+0x1a95>
    4b7f: 26 15        	rol	$15                     ; 0x2015 <main+0x1a96>
    4b81: 06 14        	asl	$14                     ; 0x2014 <main+0x1a95>
    4b83: 26 15        	rol	$15                     ; 0x2015 <main+0x1a96>
    4b85: a4 15        	ldy	$15                     ; 0x2015 <main+0x1a96>
    4b87: a6 0f        	ldx	$f                      ; 0x200f <main+0x1a90>
    4b89: 78           	sei
    4b8a: 84 0f        	sty	$f                      ; 0x200f <main+0x1a90>
    4b8c: a4 16        	ldy	$16                     ; 0x2016 <main+0x1a97>
    4b8e: 84 14        	sty	$14                     ; 0x2014 <main+0x1a95>
    4b90: 09 e0        	ora	#$e0
    4b92: 85 15        	sta	$15                     ; 0x2015 <main+0x1a96>
    4b94: b2 14        	lda	($14)                   ; 0x2014 <main+0x1a95>
    4b96: a0 08        	ldy	#$8
    4b98: 91 10        	sta	($10),y                 ; 0x2010 <main+0x1a91>
    4b9a: 86 0f        	stx	$f                      ; 0x200f <main+0x1a90>
    4b9c: 58           	cli
    4b9d: a4 82        	ldy	$82                     ; 0x2082 <main+0x1b03>
    4b9f: a6 83        	ldx	$83                     ; 0x2083 <main+0x1b04>
    4ba1: 84 2e        	sty	$2e                     ; 0x202e <main+0x1aaf>
    4ba3: 98           	tya
    4ba4: 18           	clc
    4ba5: 65 13        	adc	$13                     ; 0x2013 <main+0x1a94>
    4ba7: a8           	tay
    4ba8: 8a           	txa
    4ba9: 65 12        	adc	$12                     ; 0x2012 <main+0x1a93>
    4bab: 84 28        	sty	$28                     ; 0x2028 <main+0x1aa9>
    4bad: 85 29        	sta	$29                     ; 0x2029 <main+0x1aaa>
    4baf: 85 12        	sta	$12                     ; 0x2012 <main+0x1a93>
    4bb1: 18           	clc
    4bb2: 98           	tya
    4bb3: 69 04        	adc	#$4
    4bb5: 85 26        	sta	$26                     ; 0x2026 <main+0x1aa7>
    4bb7: a5 12        	lda	$12                     ; 0x2012 <main+0x1a93>
    4bb9: 69 00        	adc	#$0
    4bbb: 85 27        	sta	$27                     ; 0x2027 <main+0x1aa8>
    4bbd: a0 10        	ldy	#$10
    4bbf: a5 25        	lda	$25                     ; 0x2025 <main+0x1aa6>
    4bc1: 91 28        	sta	($28),y                 ; 0x2028 <main+0x1aa9>
    4bc3: c8           	iny
    4bc4: a5 1b        	lda	$1b                     ; 0x201b <main+0x1a9c>
    4bc6: 85 2a        	sta	$2a                     ; 0x202a <main+0x1aab>
    4bc8: 91 28        	sta	($28),y                 ; 0x2028 <main+0x1aa9>
    4bca: c8           	iny
    4bcb: a5 1d        	lda	$1d                     ; 0x201d <main+0x1a9e>
    4bcd: 85 13        	sta	$13                     ; 0x2013 <main+0x1a94>
    4bcf: 91 28        	sta	($28),y                 ; 0x2028 <main+0x1aa9>
    4bd1: a0 04        	ldy	#$4
    4bd3: b1 28        	lda	($28),y                 ; 0x2028 <main+0x1aa9>
    4bd5: 85 14        	sta	$14                     ; 0x2014 <main+0x1a95>
    4bd7: a0 01        	ldy	#$1
    4bd9: b1 26        	lda	($26),y                 ; 0x2026 <main+0x1aa7>
    4bdb: 85 12        	sta	$12                     ; 0x2012 <main+0x1a93>
    4bdd: c8           	iny
    4bde: b1 26        	lda	($26),y                 ; 0x2026 <main+0x1aa7>
    4be0: 85 18        	sta	$18                     ; 0x2018 <main+0x1a99>
    4be2: c8           	iny
    4be3: b1 26        	lda	($26),y                 ; 0x2026 <main+0x1aa7>
    4be5: 85 17        	sta	$17                     ; 0x2017 <main+0x1a98>
    4be7: a5 14        	lda	$14                     ; 0x2014 <main+0x1a95>
    4be9: 85 2b        	sta	$2b                     ; 0x202b <main+0x1aac>
    4beb: a4 12        	ldy	$12                     ; 0x2012 <main+0x1a93>
    4bed: 84 2c        	sty	$2c                     ; 0x202c <main+0x1aad>
    4bef: 84 16        	sty	$16                     ; 0x2016 <main+0x1a97>
    4bf1: a4 18        	ldy	$18                     ; 0x2018 <main+0x1a99>
    4bf3: 84 2d        	sty	$2d                     ; 0x202d <main+0x1aae>
    4bf5: 84 12        	sty	$12                     ; 0x2012 <main+0x1a93>
    4bf7: a4 17        	ldy	$17                     ; 0x2017 <main+0x1a98>
    4bf9: 84 24        	sty	$24                     ; 0x2024 <main+0x1aa5>
    4bfb: 84 14        	sty	$14                     ; 0x2014 <main+0x1a95>
    4bfd: 1a           	inc
    4bfe: d0 0a        	bne	$4c0a <readMIDICmd+0x3f6>
    4c00: e6 16        	inc	$16                     ; 0x2016 <main+0x1a97>
    4c02: d0 06        	bne	$4c0a <readMIDICmd+0x3f6>
    4c04: e6 12        	inc	$12                     ; 0x2012 <main+0x1a93>
    4c06: d0 02        	bne	$4c0a <readMIDICmd+0x3f6>
    4c08: e6 14        	inc	$14                     ; 0x2014 <main+0x1a95>
    4c0a: a0 04        	ldy	#$4
    4c0c: 85 17        	sta	$17                     ; 0x2017 <main+0x1a98>
    4c0e: 91 28        	sta	($28),y                 ; 0x2028 <main+0x1aa9>
    4c10: a0 01        	ldy	#$1
    4c12: a5 16        	lda	$16                     ; 0x2016 <main+0x1a97>
    4c14: 91 26        	sta	($26),y                 ; 0x2026 <main+0x1aa7>
    4c16: a5 12        	lda	$12                     ; 0x2012 <main+0x1a93>
    4c18: c8           	iny
    4c19: 85 2f        	sta	$2f                     ; 0x202f <main+0x1ab0>
    4c1b: 91 26        	sta	($26),y                 ; 0x2026 <main+0x1aa7>
    4c1d: c8           	iny
    4c1e: a5 14        	lda	$14                     ; 0x2014 <main+0x1a95>
    4c20: 91 26        	sta	($26),y                 ; 0x2026 <main+0x1aa7>
    4c22: a4 25        	ldy	$25                     ; 0x2025 <main+0x1aa6>
    4c24: 10 03        	bpl	$4c29 <readMIDICmd+0x415>
    4c26: 4c 01 4d     	jmp	$4d01 <readMIDICmd+0x4ed>
    4c29: a0 19        	ldy	#$19
    4c2b: 64 13        	stz	$13                     ; 0x2013 <main+0x1a94>
    4c2d: 86 2f        	stx	$2f                     ; 0x202f <main+0x1ab0>
    4c2f: a2 00        	ldx	#$0
    4c31: 84 12        	sty	$12                     ; 0x2012 <main+0x1a93>
    4c33: a0 0d        	ldy	#$d
    4c35: b1 10        	lda	($10),y                 ; 0x2010 <main+0x1a91>
    4c37: 20 95 63     	jsr	$6395 <__mulhi3>
    4c3a: 85 12        	sta	$12                     ; 0x2012 <main+0x1a93>
    4c3c: 86 13        	stx	$13                     ; 0x2013 <main+0x1a94>
    4c3e: a5 25        	lda	$25                     ; 0x2025 <main+0x1aa6>
    4c40: a0 11        	ldy	#$11
    4c42: 91 28        	sta	($28),y                 ; 0x2028 <main+0x1aa9>
    4c44: 85 16        	sta	$16                     ; 0x2016 <main+0x1a97>
    4c46: a5 2a        	lda	$2a                     ; 0x202a <main+0x1aab>
    4c48: c8           	iny
    4c49: 91 28        	sta	($28),y                 ; 0x2028 <main+0x1aa9>
    4c4b: 85 17        	sta	$17                     ; 0x2017 <main+0x1a98>
    4c4d: a0 04        	ldy	#$4
    4c4f: a5 2b        	lda	$2b                     ; 0x202b <main+0x1aac>
    4c51: 85 2a        	sta	$2a                     ; 0x202a <main+0x1aab>
    4c53: 91 28        	sta	($28),y                 ; 0x2028 <main+0x1aa9>
    4c55: a0 01        	ldy	#$1
    4c57: a5 2c        	lda	$2c                     ; 0x202c <main+0x1aad>
    4c59: 5a           	phy
    4c5a: a0 0c        	ldy	#$c
    4c5c: 91 10        	sta	($10),y                 ; 0x2010 <main+0x1a91>
    4c5e: 7a           	ply
    4c5f: 91 26        	sta	($26),y                 ; 0x2026 <main+0x1aa7>
    4c61: a5 2e        	lda	$2e                     ; 0x202e <main+0x1aaf>
    4c63: 18           	clc
    4c64: 65 12        	adc	$12                     ; 0x2012 <main+0x1a93>
    4c66: 85 12        	sta	$12                     ; 0x2012 <main+0x1a93>
    4c68: a5 2f        	lda	$2f                     ; 0x202f <main+0x1ab0>
    4c6a: a0 0b        	ldy	#$b
    4c6c: 91 10        	sta	($10),y                 ; 0x2010 <main+0x1a91>
    4c6e: 65 13        	adc	$13                     ; 0x2013 <main+0x1a94>
    4c70: 85 13        	sta	$13                     ; 0x2013 <main+0x1a94>
    4c72: a0 16        	ldy	#$16
    4c74: b1 12        	lda	($12),y                 ; 0x2012 <main+0x1a93>
    4c76: a0 10        	ldy	#$10
    4c78: 91 12        	sta	($12),y                 ; 0x2012 <main+0x1a93>
    4c7a: aa           	tax
    4c7b: a0 02        	ldy	#$2
    4c7d: a5 2d        	lda	$2d                     ; 0x202d <main+0x1aae>
    4c7f: 85 2f        	sta	$2f                     ; 0x202f <main+0x1ab0>
    4c81: 91 26        	sta	($26),y                 ; 0x2026 <main+0x1aa7>
    4c83: c8           	iny
    4c84: a5 24        	lda	$24                     ; 0x2024 <main+0x1aa5>
    4c86: 91 26        	sta	($26),y                 ; 0x2026 <main+0x1aa7>
    4c88: a4 17        	ldy	$17                     ; 0x2017 <main+0x1a98>
    4c8a: 84 13        	sty	$13                     ; 0x2013 <main+0x1a94>
    4c8c: a4 16        	ldy	$16                     ; 0x2016 <main+0x1a97>
    4c8e: 84 12        	sty	$12                     ; 0x2012 <main+0x1a93>
    4c90: 86 25        	stx	$25                     ; 0x2025 <main+0x1aa6>
    4c92: a6 25        	ldx	$25                     ; 0x2025 <main+0x1aa6>
    4c94: e0 ff        	cpx	#$ff
    4c96: d0 03        	bne	$4c9b <readMIDICmd+0x487>
    4c98: 4c 22 4d     	jmp	$4d22 <readMIDICmd+0x50e>
    4c9b: a6 25        	ldx	$25                     ; 0x2025 <main+0x1aa6>
    4c9d: e0 c0        	cpx	#$c0
    4c9f: b0 03        	bcs	$4ca4 <readMIDICmd+0x490>
    4ca1: 4c 9f 4d     	jmp	$4d9f <readMIDICmd+0x58b>
    4ca4: a6 25        	ldx	$25                     ; 0x2025 <main+0x1aa6>
    4ca6: e0 e0        	cpx	#$e0
    4ca8: 90 03        	bcc	$4cad <readMIDICmd+0x499>
    4caa: 4c b2 4d     	jmp	$4db2 <readMIDICmd+0x59e>
    4cad: a0 0c        	ldy	#$c
    4caf: b1 10        	lda	($10),y                 ; 0x2010 <main+0x1a91>
    4cb1: aa           	tax
    4cb2: a5 2a        	lda	$2a                     ; 0x202a <main+0x1aab>
    4cb4: 1a           	inc
    4cb5: d0 09        	bne	$4cc0 <readMIDICmd+0x4ac>
    4cb7: e8           	inx
    4cb8: d0 06        	bne	$4cc0 <readMIDICmd+0x4ac>
    4cba: e6 2f        	inc	$2f                     ; 0x202f <main+0x1ab0>
    4cbc: d0 02        	bne	$4cc0 <readMIDICmd+0x4ac>
    4cbe: e6 24        	inc	$24                     ; 0x2024 <main+0x1aa5>
    4cc0: a0 04        	ldy	#$4
    4cc2: 91 28        	sta	($28),y                 ; 0x2028 <main+0x1aa9>
    4cc4: a0 01        	ldy	#$1
    4cc6: 8a           	txa
    4cc7: 91 26        	sta	($26),y                 ; 0x2026 <main+0x1aa7>
    4cc9: c8           	iny
    4cca: a5 2f        	lda	$2f                     ; 0x202f <main+0x1ab0>
    4ccc: 91 26        	sta	($26),y                 ; 0x2026 <main+0x1aa7>
    4cce: c8           	iny
    4ccf: a5 24        	lda	$24                     ; 0x2024 <main+0x1aa5>
    4cd1: 91 26        	sta	($26),y                 ; 0x2026 <main+0x1aa7>
    4cd3: a0 19        	ldy	#$19
    4cd5: 64 13        	stz	$13                     ; 0x2013 <main+0x1a94>
    4cd7: a2 00        	ldx	#$0
    4cd9: 84 12        	sty	$12                     ; 0x2012 <main+0x1a93>
    4cdb: a0 0d        	ldy	#$d
    4cdd: b1 10        	lda	($10),y                 ; 0x2010 <main+0x1a91>
    4cdf: 20 95 63     	jsr	$6395 <__mulhi3>
    4ce2: 85 12        	sta	$12                     ; 0x2012 <main+0x1a93>
    4ce4: 86 13        	stx	$13                     ; 0x2013 <main+0x1a94>
    4ce6: 18           	clc
    4ce7: a5 2e        	lda	$2e                     ; 0x202e <main+0x1aaf>
    4ce9: 65 12        	adc	$12                     ; 0x2012 <main+0x1a93>
    4ceb: 85 12        	sta	$12                     ; 0x2012 <main+0x1a93>
    4ced: a0 0b        	ldy	#$b
    4cef: b1 10        	lda	($10),y                 ; 0x2010 <main+0x1a91>
    4cf1: 65 13        	adc	$13                     ; 0x2013 <main+0x1a94>
    4cf3: 85 13        	sta	$13                     ; 0x2013 <main+0x1a94>
    4cf5: a0 17        	ldy	#$17
    4cf7: a9 01        	lda	#$1
    4cf9: 91 12        	sta	($12),y                 ; 0x2012 <main+0x1a93>
    4cfb: 88           	dey
    4cfc: a5 25        	lda	$25                     ; 0x2025 <main+0x1aa6>
    4cfe: 4c 05 4e     	jmp	$4e05 <readMIDICmd+0x5f1>
    4d01: 85 18        	sta	$18                     ; 0x2018 <main+0x1a99>
    4d03: 8a           	txa
    4d04: a0 0b        	ldy	#$b
    4d06: 91 10        	sta	($10),y                 ; 0x2010 <main+0x1a91>
    4d08: a6 2a        	ldx	$2a                     ; 0x202a <main+0x1aab>
    4d0a: 86 12        	stx	$12                     ; 0x2012 <main+0x1a93>
    4d0c: a6 17        	ldx	$17                     ; 0x2017 <main+0x1a98>
    4d0e: 86 2a        	stx	$2a                     ; 0x202a <main+0x1aab>
    4d10: a5 16        	lda	$16                     ; 0x2016 <main+0x1a97>
    4d12: c8           	iny
    4d13: 91 10        	sta	($10),y                 ; 0x2010 <main+0x1a91>
    4d15: a6 18        	ldx	$18                     ; 0x2018 <main+0x1a99>
    4d17: 86 24        	stx	$24                     ; 0x2024 <main+0x1aa5>
    4d19: a6 25        	ldx	$25                     ; 0x2025 <main+0x1aa6>
    4d1b: e0 ff        	cpx	#$ff
    4d1d: f0 03        	beq	$4d22 <readMIDICmd+0x50e>
    4d1f: 4c 9b 4c     	jmp	$4c9b <readMIDICmd+0x487>
    4d22: a0 10        	ldy	#$10
    4d24: a9 ff        	lda	#$ff
    4d26: 91 28        	sta	($28),y                 ; 0x2028 <main+0x1aa9>
    4d28: c8           	iny
    4d29: a5 12        	lda	$12                     ; 0x2012 <main+0x1a93>
    4d2b: 91 28        	sta	($28),y                 ; 0x2028 <main+0x1aa9>
    4d2d: a6 12        	ldx	$12                     ; 0x2012 <main+0x1a93>
    4d2f: c8           	iny
    4d30: a5 13        	lda	$13                     ; 0x2013 <main+0x1a94>
    4d32: 91 28        	sta	($28),y                 ; 0x2028 <main+0x1aa9>
    4d34: e0 51        	cpx	#$51
    4d36: f0 03        	beq	$4d3b <readMIDICmd+0x527>
    4d38: 4c a6 4d     	jmp	$4da6 <readMIDICmd+0x592>
    4d3b: a0 19        	ldy	#$19
    4d3d: 64 13        	stz	$13                     ; 0x2013 <main+0x1a94>
    4d3f: a2 00        	ldx	#$0
    4d41: 84 12        	sty	$12                     ; 0x2012 <main+0x1a93>
    4d43: a0 0d        	ldy	#$d
    4d45: b1 10        	lda	($10),y                 ; 0x2010 <main+0x1a91>
    4d47: 20 95 63     	jsr	$6395 <__mulhi3>
    4d4a: 85 12        	sta	$12                     ; 0x2012 <main+0x1a93>
    4d4c: 86 13        	stx	$13                     ; 0x2013 <main+0x1a94>
    4d4e: 18           	clc
    4d4f: a5 2e        	lda	$2e                     ; 0x202e <main+0x1aaf>
    4d51: 65 12        	adc	$12                     ; 0x2012 <main+0x1a93>
    4d53: 85 12        	sta	$12                     ; 0x2012 <main+0x1a93>
    4d55: a0 0b        	ldy	#$b
    4d57: b1 10        	lda	($10),y                 ; 0x2010 <main+0x1a91>
    4d59: 65 13        	adc	$13                     ; 0x2013 <main+0x1a94>
    4d5b: 85 13        	sta	$13                     ; 0x2013 <main+0x1a94>
    4d5d: a0 13        	ldy	#$13
    4d5f: 5a           	phy
    4d60: a0 0a        	ldy	#$a
    4d62: b1 10        	lda	($10),y                 ; 0x2010 <main+0x1a91>
    4d64: 7a           	ply
    4d65: 91 12        	sta	($12),y                 ; 0x2012 <main+0x1a93>
    4d67: a0 14        	ldy	#$14
    4d69: 5a           	phy
    4d6a: a0 09        	ldy	#$9
    4d6c: b1 10        	lda	($10),y                 ; 0x2010 <main+0x1a91>
    4d6e: 7a           	ply
    4d6f: 91 12        	sta	($12),y                 ; 0x2012 <main+0x1a93>
    4d71: a0 15        	ldy	#$15
    4d73: 5a           	phy
    4d74: a0 08        	ldy	#$8
    4d76: b1 10        	lda	($10),y                 ; 0x2010 <main+0x1a91>
    4d78: 7a           	ply
    4d79: 91 12        	sta	($12),y                 ; 0x2012 <main+0x1a93>
    4d7b: a5 2a        	lda	$2a                     ; 0x202a <main+0x1aab>
    4d7d: 18           	clc
    4d7e: 69 05        	adc	#$5
    4d80: a0 04        	ldy	#$4
    4d82: 91 28        	sta	($28),y                 ; 0x2028 <main+0x1aa9>
    4d84: a0 0c        	ldy	#$c
    4d86: b1 10        	lda	($10),y                 ; 0x2010 <main+0x1a91>
    4d88: 69 00        	adc	#$0
    4d8a: a0 01        	ldy	#$1
    4d8c: 91 26        	sta	($26),y                 ; 0x2026 <main+0x1aa7>
    4d8e: a5 2f        	lda	$2f                     ; 0x202f <main+0x1ab0>
    4d90: 69 00        	adc	#$0
    4d92: c8           	iny
    4d93: 91 26        	sta	($26),y                 ; 0x2026 <main+0x1aa7>
    4d95: a5 24        	lda	$24                     ; 0x2024 <main+0x1aa5>
    4d97: 69 00        	adc	#$0
    4d99: c8           	iny
    4d9a: 91 26        	sta	($26),y                 ; 0x2026 <main+0x1aa7>
    4d9c: 4c 07 4e     	jmp	$4e07 <readMIDICmd+0x5f3>
    4d9f: a5 25        	lda	$25                     ; 0x2025 <main+0x1aa6>
    4da1: 30 15        	bmi	$4db8 <readMIDICmd+0x5a4>
    4da3: 4c 07 4e     	jmp	$4e07 <readMIDICmd+0x5f3>
    4da6: 85 12        	sta	$12                     ; 0x2012 <main+0x1a93>
    4da8: a0 0d        	ldy	#$d
    4daa: b1 10        	lda	($10),y                 ; 0x2010 <main+0x1a91>
    4dac: 20 4a 4e     	jsr	$4e4a <skipWhenFFCmd>
    4daf: 4c 07 4e     	jmp	$4e07 <readMIDICmd+0x5f3>
    4db2: a6 25        	ldx	$25                     ; 0x2025 <main+0x1aa6>
    4db4: e0 f0        	cpx	#$f0
    4db6: b0 4f        	bcs	$4e07 <readMIDICmd+0x5f3>
    4db8: a2 19        	ldx	#$19
    4dba: 86 12        	stx	$12                     ; 0x2012 <main+0x1a93>
    4dbc: 64 13        	stz	$13                     ; 0x2013 <main+0x1a94>
    4dbe: a2 00        	ldx	#$0
    4dc0: a0 0d        	ldy	#$d
    4dc2: b1 10        	lda	($10),y                 ; 0x2010 <main+0x1a91>
    4dc4: 20 95 63     	jsr	$6395 <__mulhi3>
    4dc7: 85 12        	sta	$12                     ; 0x2012 <main+0x1a93>
    4dc9: 86 13        	stx	$13                     ; 0x2013 <main+0x1a94>
    4dcb: 18           	clc
    4dcc: a5 2e        	lda	$2e                     ; 0x202e <main+0x1aaf>
    4dce: 65 12        	adc	$12                     ; 0x2012 <main+0x1a93>
    4dd0: 85 12        	sta	$12                     ; 0x2012 <main+0x1a93>
    4dd2: a0 0b        	ldy	#$b
    4dd4: b1 10        	lda	($10),y                 ; 0x2010 <main+0x1a91>
    4dd6: 65 13        	adc	$13                     ; 0x2013 <main+0x1a94>
    4dd8: 85 13        	sta	$13                     ; 0x2013 <main+0x1a94>
    4dda: a0 16        	ldy	#$16
    4ddc: a5 25        	lda	$25                     ; 0x2025 <main+0x1aa6>
    4dde: 91 12        	sta	($12),y                 ; 0x2012 <main+0x1a93>
    4de0: a5 2a        	lda	$2a                     ; 0x202a <main+0x1aab>
    4de2: 18           	clc
    4de3: 69 02        	adc	#$2
    4de5: a0 04        	ldy	#$4
    4de7: 91 28        	sta	($28),y                 ; 0x2028 <main+0x1aa9>
    4de9: a0 0c        	ldy	#$c
    4deb: b1 10        	lda	($10),y                 ; 0x2010 <main+0x1a91>
    4ded: 69 00        	adc	#$0
    4def: a0 01        	ldy	#$1
    4df1: 91 26        	sta	($26),y                 ; 0x2026 <main+0x1aa7>
    4df3: a5 2f        	lda	$2f                     ; 0x202f <main+0x1ab0>
    4df5: 69 00        	adc	#$0
    4df7: c8           	iny
    4df8: 91 26        	sta	($26),y                 ; 0x2026 <main+0x1aa7>
    4dfa: a5 24        	lda	$24                     ; 0x2024 <main+0x1aa5>
    4dfc: 69 00        	adc	#$0
    4dfe: c8           	iny
    4dff: 91 26        	sta	($26),y                 ; 0x2026 <main+0x1aa7>
    4e01: a0 17        	ldy	#$17
    4e03: a9 00        	lda	#$0
    4e05: 91 12        	sta	($12),y                 ; 0x2012 <main+0x1a93>
    4e07: a0 00        	ldy	#$0
    4e09: b1 10        	lda	($10),y                 ; 0x2010 <main+0x1a91>
    4e0b: 85 2f        	sta	$2f                     ; 0x202f <main+0x1ab0>
    4e0d: c8           	iny
    4e0e: b1 10        	lda	($10),y                 ; 0x2010 <main+0x1a91>
    4e10: 85 2e        	sta	$2e                     ; 0x202e <main+0x1aaf>
    4e12: c8           	iny
    4e13: b1 10        	lda	($10),y                 ; 0x2010 <main+0x1a91>
    4e15: 85 2d        	sta	$2d                     ; 0x202d <main+0x1aae>
    4e17: c8           	iny
    4e18: b1 10        	lda	($10),y                 ; 0x2010 <main+0x1a91>
    4e1a: 85 2c        	sta	$2c                     ; 0x202c <main+0x1aad>
    4e1c: c8           	iny
    4e1d: b1 10        	lda	($10),y                 ; 0x2010 <main+0x1a91>
    4e1f: 85 2b        	sta	$2b                     ; 0x202b <main+0x1aac>
    4e21: c8           	iny
    4e22: b1 10        	lda	($10),y                 ; 0x2010 <main+0x1a91>
    4e24: 85 2a        	sta	$2a                     ; 0x202a <main+0x1aab>
    4e26: c8           	iny
    4e27: b1 10        	lda	($10),y                 ; 0x2010 <main+0x1a91>
    4e29: 85 29        	sta	$29                     ; 0x2029 <main+0x1aaa>
    4e2b: c8           	iny
    4e2c: b1 10        	lda	($10),y                 ; 0x2010 <main+0x1a91>
    4e2e: 85 28        	sta	$28                     ; 0x2028 <main+0x1aa9>
    4e30: fa           	plx
    4e31: 86 27        	stx	$27                     ; 0x2027 <main+0x1aa8>
    4e33: fa           	plx
    4e34: 86 26        	stx	$26                     ; 0x2026 <main+0x1aa7>
    4e36: fa           	plx
    4e37: 86 25        	stx	$25                     ; 0x2025 <main+0x1aa6>
    4e39: fa           	plx
    4e3a: 86 24        	stx	$24                     ; 0x2024 <main+0x1aa5>
    4e3c: 18           	clc
    4e3d: a5 10        	lda	$10                     ; 0x2010 <main+0x1a91>
    4e3f: 69 0e        	adc	#$e
    4e41: 85 10        	sta	$10                     ; 0x2010 <main+0x1a91>
    4e43: a5 11        	lda	$11                     ; 0x2011 <main+0x1a92>
    4e45: 69 00        	adc	#$0
    4e47: 85 11        	sta	$11                     ; 0x2011 <main+0x1a92>
    4e49: 60           	rts

00004e4a <skipWhenFFCmd>:
    4e4a: a8           	tay
    4e4b: 8a           	txa
    4e4c: a6 12        	ldx	$12                     ; 0x2012 <main+0x1a93>
    4e4e: 86 93        	stx	$93                     ; 0x2093 <main+0x1b14>
    4e50: c9 5a        	cmp	#$5a
    4e52: 90 03        	bcc	$4e57 <skipWhenFFCmd+0xd>
    4e54: 4c 4e 50     	jmp	$504e <skipWhenFFCmd+0x204>
    4e57: 0a           	asl
    4e58: aa           	tax
    4e59: 7c a7 65     	jmp	($65a7,x)               ; 0x65a7 <__set_v+0x1>
    4e5c: a6 82        	ldx	$82                     ; 0x2082 <main+0x1b03>
    4e5e: 86 95        	stx	$95                     ; 0x2095 <main+0x1b16>
    4e60: a6 83        	ldx	$83                     ; 0x2083 <main+0x1b04>
    4e62: 86 94        	stx	$94                     ; 0x2094 <main+0x1b15>
    4e64: a2 19        	ldx	#$19
    4e66: 86 12        	stx	$12                     ; 0x2012 <main+0x1a93>
    4e68: 64 13        	stz	$13                     ; 0x2013 <main+0x1a94>
    4e6a: a2 00        	ldx	#$0
    4e6c: 98           	tya
    4e6d: 20 95 63     	jsr	$6395 <__mulhi3>
    4e70: 85 12        	sta	$12                     ; 0x2012 <main+0x1a93>
    4e72: 86 13        	stx	$13                     ; 0x2013 <main+0x1a94>
    4e74: 18           	clc
    4e75: a6 95        	ldx	$95                     ; 0x2095 <main+0x1b16>
    4e77: 8a           	txa
    4e78: 65 12        	adc	$12                     ; 0x2012 <main+0x1a93>
    4e7a: a8           	tay
    4e7b: a5 94        	lda	$94                     ; 0x2094 <main+0x1b15>
    4e7d: 65 13        	adc	$13                     ; 0x2013 <main+0x1a94>
    4e7f: aa           	tax
    4e80: 98           	tya
    4e81: 84 12        	sty	$12                     ; 0x2012 <main+0x1a93>
    4e83: 86 13        	stx	$13                     ; 0x2013 <main+0x1a94>
    4e85: 18           	clc
    4e86: 69 04        	adc	#$4
    4e88: 85 14        	sta	$14                     ; 0x2014 <main+0x1a95>
    4e8a: 8a           	txa
    4e8b: 69 00        	adc	#$0
    4e8d: 85 15        	sta	$15                     ; 0x2015 <main+0x1a96>
    4e8f: 18           	clc
    4e90: a6 93        	ldx	$93                     ; 0x2093 <main+0x1b14>
    4e92: 8a           	txa
    4e93: a0 04        	ldy	#$4
    4e95: 71 12        	adc	($12),y                 ; 0x2012 <main+0x1a93>
    4e97: 85 16        	sta	$16                     ; 0x2016 <main+0x1a97>
    4e99: a9 00        	lda	#$0
    4e9b: a0 01        	ldy	#$1
    4e9d: 71 14        	adc	($14),y                 ; 0x2014 <main+0x1a95>
    4e9f: 85 17        	sta	$17                     ; 0x2017 <main+0x1a98>
    4ea1: c8           	iny
    4ea2: a9 00        	lda	#$0
    4ea4: 71 14        	adc	($14),y                 ; 0x2014 <main+0x1a95>
    4ea6: 85 18        	sta	$18                     ; 0x2018 <main+0x1a99>
    4ea8: c8           	iny
    4ea9: a9 00        	lda	#$0
    4eab: 71 14        	adc	($14),y                 ; 0x2014 <main+0x1a95>
    4ead: aa           	tax
    4eae: 18           	clc
    4eaf: a5 16        	lda	$16                     ; 0x2016 <main+0x1a97>
    4eb1: 69 02        	adc	#$2
    4eb3: c8           	iny
    4eb4: 91 12        	sta	($12),y                 ; 0x2012 <main+0x1a93>
    4eb6: a5 17        	lda	$17                     ; 0x2017 <main+0x1a98>
    4eb8: 69 00        	adc	#$0
    4eba: a0 01        	ldy	#$1
    4ebc: 91 14        	sta	($14),y                 ; 0x2014 <main+0x1a95>
    4ebe: a5 18        	lda	$18                     ; 0x2018 <main+0x1a99>
    4ec0: 69 00        	adc	#$0
    4ec2: c8           	iny
    4ec3: 91 14        	sta	($14),y                 ; 0x2014 <main+0x1a95>
    4ec5: 8a           	txa
    4ec6: 69 00        	adc	#$0
    4ec8: c8           	iny
    4ec9: 91 14        	sta	($14),y                 ; 0x2014 <main+0x1a95>
    4ecb: 60           	rts
    4ecc: a6 82        	ldx	$82                     ; 0x2082 <main+0x1b03>
    4ece: 86 94        	stx	$94                     ; 0x2094 <main+0x1b15>
    4ed0: a6 83        	ldx	$83                     ; 0x2083 <main+0x1b04>
    4ed2: 86 93        	stx	$93                     ; 0x2093 <main+0x1b14>
    4ed4: a2 19        	ldx	#$19
    4ed6: 86 12        	stx	$12                     ; 0x2012 <main+0x1a93>
    4ed8: 64 13        	stz	$13                     ; 0x2013 <main+0x1a94>
    4eda: a2 00        	ldx	#$0
    4edc: 98           	tya
    4edd: 20 95 63     	jsr	$6395 <__mulhi3>
    4ee0: 85 12        	sta	$12                     ; 0x2012 <main+0x1a93>
    4ee2: 86 13        	stx	$13                     ; 0x2013 <main+0x1a94>
    4ee4: 18           	clc
    4ee5: a6 94        	ldx	$94                     ; 0x2094 <main+0x1b15>
    4ee7: 8a           	txa
    4ee8: 65 12        	adc	$12                     ; 0x2012 <main+0x1a93>
    4eea: a8           	tay
    4eeb: a5 93        	lda	$93                     ; 0x2093 <main+0x1b14>
    4eed: 65 13        	adc	$13                     ; 0x2013 <main+0x1a94>
    4eef: aa           	tax
    4ef0: 98           	tya
    4ef1: 84 14        	sty	$14                     ; 0x2014 <main+0x1a95>
    4ef3: 86 15        	stx	$15                     ; 0x2015 <main+0x1a96>
    4ef5: 18           	clc
    4ef6: 69 04        	adc	#$4
    4ef8: 85 12        	sta	$12                     ; 0x2012 <main+0x1a93>
    4efa: 8a           	txa
    4efb: 69 00        	adc	#$0
    4efd: a0 04        	ldy	#$4
    4eff: 85 13        	sta	$13                     ; 0x2013 <main+0x1a94>
    4f01: b1 14        	lda	($14),y                 ; 0x2014 <main+0x1a95>
    4f03: 18           	clc
    4f04: 69 03        	adc	#$3
    4f06: 4c 36 50     	jmp	$5036 <skipWhenFFCmd+0x1ec>
    4f09: a6 82        	ldx	$82                     ; 0x2082 <main+0x1b03>
    4f0b: 86 94        	stx	$94                     ; 0x2094 <main+0x1b15>
    4f0d: a6 83        	ldx	$83                     ; 0x2083 <main+0x1b04>
    4f0f: 86 93        	stx	$93                     ; 0x2093 <main+0x1b14>
    4f11: a2 19        	ldx	#$19
    4f13: 86 12        	stx	$12                     ; 0x2012 <main+0x1a93>
    4f15: 64 13        	stz	$13                     ; 0x2013 <main+0x1a94>
    4f17: a2 00        	ldx	#$0
    4f19: 98           	tya
    4f1a: 20 95 63     	jsr	$6395 <__mulhi3>
    4f1d: 85 12        	sta	$12                     ; 0x2012 <main+0x1a93>
    4f1f: 86 13        	stx	$13                     ; 0x2013 <main+0x1a94>
    4f21: 18           	clc
    4f22: a6 94        	ldx	$94                     ; 0x2094 <main+0x1b15>
    4f24: 8a           	txa
    4f25: 65 12        	adc	$12                     ; 0x2012 <main+0x1a93>
    4f27: a8           	tay
    4f28: a5 93        	lda	$93                     ; 0x2093 <main+0x1b14>
    4f2a: 65 13        	adc	$13                     ; 0x2013 <main+0x1a94>
    4f2c: aa           	tax
    4f2d: 98           	tya
    4f2e: 84 14        	sty	$14                     ; 0x2014 <main+0x1a95>
    4f30: 86 15        	stx	$15                     ; 0x2015 <main+0x1a96>
    4f32: 18           	clc
    4f33: 69 04        	adc	#$4
    4f35: 85 12        	sta	$12                     ; 0x2012 <main+0x1a93>
    4f37: 8a           	txa
    4f38: 69 00        	adc	#$0
    4f3a: a0 04        	ldy	#$4
    4f3c: 85 13        	sta	$13                     ; 0x2013 <main+0x1a94>
    4f3e: b1 14        	lda	($14),y                 ; 0x2014 <main+0x1a95>
    4f40: 18           	clc
    4f41: 69 07        	adc	#$7
    4f43: 4c 36 50     	jmp	$5036 <skipWhenFFCmd+0x1ec>
    4f46: a6 82        	ldx	$82                     ; 0x2082 <main+0x1b03>
    4f48: 86 94        	stx	$94                     ; 0x2094 <main+0x1b15>
    4f4a: a6 83        	ldx	$83                     ; 0x2083 <main+0x1b04>
    4f4c: 86 93        	stx	$93                     ; 0x2093 <main+0x1b14>
    4f4e: a2 19        	ldx	#$19
    4f50: 86 12        	stx	$12                     ; 0x2012 <main+0x1a93>
    4f52: 64 13        	stz	$13                     ; 0x2013 <main+0x1a94>
    4f54: a2 00        	ldx	#$0
    4f56: 98           	tya
    4f57: 20 95 63     	jsr	$6395 <__mulhi3>
    4f5a: 85 12        	sta	$12                     ; 0x2012 <main+0x1a93>
    4f5c: 86 13        	stx	$13                     ; 0x2013 <main+0x1a94>
    4f5e: 18           	clc
    4f5f: a6 94        	ldx	$94                     ; 0x2094 <main+0x1b15>
    4f61: 8a           	txa
    4f62: 65 12        	adc	$12                     ; 0x2012 <main+0x1a93>
    4f64: a8           	tay
    4f65: a5 93        	lda	$93                     ; 0x2093 <main+0x1b14>
    4f67: 65 13        	adc	$13                     ; 0x2013 <main+0x1a94>
    4f69: aa           	tax
    4f6a: 98           	tya
    4f6b: 84 14        	sty	$14                     ; 0x2014 <main+0x1a95>
    4f6d: 86 15        	stx	$15                     ; 0x2015 <main+0x1a96>
    4f6f: 18           	clc
    4f70: 69 04        	adc	#$4
    4f72: 85 12        	sta	$12                     ; 0x2012 <main+0x1a93>
    4f74: 8a           	txa
    4f75: 69 00        	adc	#$0
    4f77: a0 04        	ldy	#$4
    4f79: 85 13        	sta	$13                     ; 0x2013 <main+0x1a94>
    4f7b: b1 14        	lda	($14),y                 ; 0x2014 <main+0x1a95>
    4f7d: 18           	clc
    4f7e: 69 05        	adc	#$5
    4f80: 4c 36 50     	jmp	$5036 <skipWhenFFCmd+0x1ec>
    4f83: a6 82        	ldx	$82                     ; 0x2082 <main+0x1b03>
    4f85: 86 94        	stx	$94                     ; 0x2094 <main+0x1b15>
    4f87: a6 83        	ldx	$83                     ; 0x2083 <main+0x1b04>
    4f89: 86 93        	stx	$93                     ; 0x2093 <main+0x1b14>
    4f8b: a2 19        	ldx	#$19
    4f8d: 86 12        	stx	$12                     ; 0x2012 <main+0x1a93>
    4f8f: 64 13        	stz	$13                     ; 0x2013 <main+0x1a94>
    4f91: a2 00        	ldx	#$0
    4f93: 98           	tya
    4f94: 20 95 63     	jsr	$6395 <__mulhi3>
    4f97: 85 12        	sta	$12                     ; 0x2012 <main+0x1a93>
    4f99: 86 13        	stx	$13                     ; 0x2013 <main+0x1a94>
    4f9b: 18           	clc
    4f9c: a6 94        	ldx	$94                     ; 0x2094 <main+0x1b15>
    4f9e: 8a           	txa
    4f9f: 65 12        	adc	$12                     ; 0x2012 <main+0x1a93>
    4fa1: a8           	tay
    4fa2: a5 93        	lda	$93                     ; 0x2093 <main+0x1b14>
    4fa4: 65 13        	adc	$13                     ; 0x2013 <main+0x1a94>
    4fa6: aa           	tax
    4fa7: 98           	tya
    4fa8: 84 14        	sty	$14                     ; 0x2014 <main+0x1a95>
    4faa: 86 15        	stx	$15                     ; 0x2015 <main+0x1a96>
    4fac: 18           	clc
    4fad: 69 04        	adc	#$4
    4faf: 85 12        	sta	$12                     ; 0x2012 <main+0x1a93>
    4fb1: 8a           	txa
    4fb2: 69 00        	adc	#$0
    4fb4: a0 04        	ldy	#$4
    4fb6: 85 13        	sta	$13                     ; 0x2013 <main+0x1a94>
    4fb8: b1 14        	lda	($14),y                 ; 0x2014 <main+0x1a95>
    4fba: 18           	clc
    4fbb: 69 04        	adc	#$4
    4fbd: 4c 36 50     	jmp	$5036 <skipWhenFFCmd+0x1ec>
    4fc0: a6 82        	ldx	$82                     ; 0x2082 <main+0x1b03>
    4fc2: 86 94        	stx	$94                     ; 0x2094 <main+0x1b15>
    4fc4: a6 83        	ldx	$83                     ; 0x2083 <main+0x1b04>
    4fc6: 86 93        	stx	$93                     ; 0x2093 <main+0x1b14>
    4fc8: a2 19        	ldx	#$19
    4fca: 86 12        	stx	$12                     ; 0x2012 <main+0x1a93>
    4fcc: 64 13        	stz	$13                     ; 0x2013 <main+0x1a94>
    4fce: a2 00        	ldx	#$0
    4fd0: 98           	tya
    4fd1: 20 95 63     	jsr	$6395 <__mulhi3>
    4fd4: 85 12        	sta	$12                     ; 0x2012 <main+0x1a93>
    4fd6: 86 13        	stx	$13                     ; 0x2013 <main+0x1a94>
    4fd8: 18           	clc
    4fd9: a6 94        	ldx	$94                     ; 0x2094 <main+0x1b15>
    4fdb: 8a           	txa
    4fdc: 65 12        	adc	$12                     ; 0x2012 <main+0x1a93>
    4fde: a8           	tay
    4fdf: a5 93        	lda	$93                     ; 0x2093 <main+0x1b14>
    4fe1: 65 13        	adc	$13                     ; 0x2013 <main+0x1a94>
    4fe3: aa           	tax
    4fe4: 98           	tya
    4fe5: 84 14        	sty	$14                     ; 0x2014 <main+0x1a95>
    4fe7: 86 15        	stx	$15                     ; 0x2015 <main+0x1a96>
    4fe9: 18           	clc
    4fea: 69 04        	adc	#$4
    4fec: 85 12        	sta	$12                     ; 0x2012 <main+0x1a93>
    4fee: 8a           	txa
    4fef: 69 00        	adc	#$0
    4ff1: a0 04        	ldy	#$4
    4ff3: 85 13        	sta	$13                     ; 0x2013 <main+0x1a94>
    4ff5: b1 14        	lda	($14),y                 ; 0x2014 <main+0x1a95>
    4ff7: 18           	clc
    4ff8: 69 02        	adc	#$2
    4ffa: 80 3a        	bra	$5036 <skipWhenFFCmd+0x1ec>
    4ffc: a6 82        	ldx	$82                     ; 0x2082 <main+0x1b03>
    4ffe: 86 94        	stx	$94                     ; 0x2094 <main+0x1b15>
    5000: a6 83        	ldx	$83                     ; 0x2083 <main+0x1b04>
    5002: 86 93        	stx	$93                     ; 0x2093 <main+0x1b14>
    5004: a2 19        	ldx	#$19
    5006: 86 12        	stx	$12                     ; 0x2012 <main+0x1a93>
    5008: 64 13        	stz	$13                     ; 0x2013 <main+0x1a94>
    500a: a2 00        	ldx	#$0
    500c: 98           	tya
    500d: 20 95 63     	jsr	$6395 <__mulhi3>
    5010: 85 12        	sta	$12                     ; 0x2012 <main+0x1a93>
    5012: 86 13        	stx	$13                     ; 0x2013 <main+0x1a94>
    5014: 18           	clc
    5015: a6 94        	ldx	$94                     ; 0x2094 <main+0x1b15>
    5017: 8a           	txa
    5018: 65 12        	adc	$12                     ; 0x2012 <main+0x1a93>
    501a: a8           	tay
    501b: a5 93        	lda	$93                     ; 0x2093 <main+0x1b14>
    501d: 65 13        	adc	$13                     ; 0x2013 <main+0x1a94>
    501f: aa           	tax
    5020: 98           	tya
    5021: 84 14        	sty	$14                     ; 0x2014 <main+0x1a95>
    5023: 86 15        	stx	$15                     ; 0x2015 <main+0x1a96>
    5025: 18           	clc
    5026: 69 04        	adc	#$4
    5028: 85 12        	sta	$12                     ; 0x2012 <main+0x1a93>
    502a: 8a           	txa
    502b: 69 00        	adc	#$0
    502d: a0 04        	ldy	#$4
    502f: 85 13        	sta	$13                     ; 0x2013 <main+0x1a94>
    5031: b1 14        	lda	($14),y                 ; 0x2014 <main+0x1a95>
    5033: 18           	clc
    5034: 69 06        	adc	#$6
    5036: 91 14        	sta	($14),y                 ; 0x2014 <main+0x1a95>
    5038: a0 01        	ldy	#$1
    503a: b1 12        	lda	($12),y                 ; 0x2012 <main+0x1a93>
    503c: 69 00        	adc	#$0
    503e: 91 12        	sta	($12),y                 ; 0x2012 <main+0x1a93>
    5040: c8           	iny
    5041: b1 12        	lda	($12),y                 ; 0x2012 <main+0x1a93>
    5043: 69 00        	adc	#$0
    5045: 91 12        	sta	($12),y                 ; 0x2012 <main+0x1a93>
    5047: c8           	iny
    5048: b1 12        	lda	($12),y                 ; 0x2012 <main+0x1a93>
    504a: 69 00        	adc	#$0
    504c: 91 12        	sta	($12),y                 ; 0x2012 <main+0x1a93>
    504e: 60           	rts

0000504f <exhaustZeroes>:
    504f: 48           	pha
    5050: 18           	clc
    5051: a5 10        	lda	$10                     ; 0x2010 <main+0x1a91>
    5053: 69 f9        	adc	#$f9
    5055: 85 10        	sta	$10                     ; 0x2010 <main+0x1a91>
    5057: a5 11        	lda	$11                     ; 0x2011 <main+0x1a92>
    5059: 69 ff        	adc	#$ff
    505b: 85 11        	sta	$11                     ; 0x2011 <main+0x1a92>
    505d: 68           	pla
    505e: a6 24        	ldx	$24                     ; 0x2024 <main+0x1aa5>
    5060: da           	phx
    5061: a6 25        	ldx	$25                     ; 0x2025 <main+0x1aa6>
    5063: da           	phx
    5064: a6 26        	ldx	$26                     ; 0x2026 <main+0x1aa7>
    5066: da           	phx
    5067: a6 27        	ldx	$27                     ; 0x2027 <main+0x1aa8>
    5069: da           	phx
    506a: 48           	pha
    506b: a5 28        	lda	$28                     ; 0x2028 <main+0x1aa9>
    506d: a0 06        	ldy	#$6
    506f: 91 10        	sta	($10),y                 ; 0x2010 <main+0x1a91>
    5071: a5 2a        	lda	$2a                     ; 0x202a <main+0x1aab>
    5073: 88           	dey
    5074: 91 10        	sta	($10),y                 ; 0x2010 <main+0x1a91>
    5076: a5 2b        	lda	$2b                     ; 0x202b <main+0x1aac>
    5078: 88           	dey
    5079: 91 10        	sta	($10),y                 ; 0x2010 <main+0x1a91>
    507b: a5 2c        	lda	$2c                     ; 0x202c <main+0x1aad>
    507d: 88           	dey
    507e: 91 10        	sta	($10),y                 ; 0x2010 <main+0x1a91>
    5080: a5 2d        	lda	$2d                     ; 0x202d <main+0x1aae>
    5082: 88           	dey
    5083: 91 10        	sta	($10),y                 ; 0x2010 <main+0x1a91>
    5085: a5 2e        	lda	$2e                     ; 0x202e <main+0x1aaf>
    5087: 88           	dey
    5088: 91 10        	sta	($10),y                 ; 0x2010 <main+0x1a91>
    508a: a5 2f        	lda	$2f                     ; 0x202f <main+0x1ab0>
    508c: 88           	dey
    508d: 91 10        	sta	($10),y                 ; 0x2010 <main+0x1a91>
    508f: 68           	pla
    5090: 85 24        	sta	$24                     ; 0x2024 <main+0x1aa5>
    5092: a6 82        	ldx	$82                     ; 0x2082 <main+0x1b03>
    5094: 86 26        	stx	$26                     ; 0x2026 <main+0x1aa7>
    5096: a6 83        	ldx	$83                     ; 0x2083 <main+0x1b04>
    5098: 86 25        	stx	$25                     ; 0x2025 <main+0x1aa6>
    509a: a2 19        	ldx	#$19
    509c: 86 12        	stx	$12                     ; 0x2012 <main+0x1a93>
    509e: 64 13        	stz	$13                     ; 0x2013 <main+0x1a94>
    50a0: a2 00        	ldx	#$0
    50a2: 20 95 63     	jsr	$6395 <__mulhi3>
    50a5: 85 12        	sta	$12                     ; 0x2012 <main+0x1a93>
    50a7: 86 13        	stx	$13                     ; 0x2013 <main+0x1a94>
    50a9: 18           	clc
    50aa: a6 26        	ldx	$26                     ; 0x2026 <main+0x1aa7>
    50ac: 86 2a        	stx	$2a                     ; 0x202a <main+0x1aab>
    50ae: a5 26        	lda	$26                     ; 0x2026 <main+0x1aa7>
    50b0: 65 12        	adc	$12                     ; 0x2012 <main+0x1a93>
    50b2: aa           	tax
    50b3: a5 25        	lda	$25                     ; 0x2025 <main+0x1aa6>
    50b5: 65 13        	adc	$13                     ; 0x2013 <main+0x1a94>
    50b7: 86 12        	stx	$12                     ; 0x2012 <main+0x1a93>
    50b9: 85 15        	sta	$15                     ; 0x2015 <main+0x1a96>
    50bb: 85 13        	sta	$13                     ; 0x2013 <main+0x1a94>
    50bd: a0 18        	ldy	#$18
    50bf: b1 12        	lda	($12),y                 ; 0x2012 <main+0x1a93>
    50c1: d0 2e        	bne	$50f1 <exhaustZeroes+0xa2>
    50c3: a0 0c        	ldy	#$c
    50c5: 18           	clc
    50c6: 8a           	txa
    50c7: 69 0c        	adc	#$c
    50c9: 85 14        	sta	$14                     ; 0x2014 <main+0x1a95>
    50cb: a5 15        	lda	$15                     ; 0x2015 <main+0x1a96>
    50cd: 69 00        	adc	#$0
    50cf: 85 15        	sta	$15                     ; 0x2015 <main+0x1a96>
    50d1: b1 12        	lda	($12),y                 ; 0x2012 <main+0x1a93>
    50d3: 85 12        	sta	$12                     ; 0x2012 <main+0x1a93>
    50d5: a0 01        	ldy	#$1
    50d7: b1 14        	lda	($14),y                 ; 0x2014 <main+0x1a95>
    50d9: 85 13        	sta	$13                     ; 0x2013 <main+0x1a94>
    50db: c8           	iny
    50dc: b1 14        	lda	($14),y                 ; 0x2014 <main+0x1a95>
    50de: 85 16        	sta	$16                     ; 0x2016 <main+0x1a97>
    50e0: c8           	iny
    50e1: b1 14        	lda	($14),y                 ; 0x2014 <main+0x1a95>
    50e3: d0 0c        	bne	$50f1 <exhaustZeroes+0xa2>
    50e5: a5 16        	lda	$16                     ; 0x2016 <main+0x1a97>
    50e7: d0 08        	bne	$50f1 <exhaustZeroes+0xa2>
    50e9: a5 13        	lda	$13                     ; 0x2013 <main+0x1a94>
    50eb: d0 04        	bne	$50f1 <exhaustZeroes+0xa2>
    50ed: a5 12        	lda	$12                     ; 0x2012 <main+0x1a93>
    50ef: f0 3e        	beq	$512f <exhaustZeroes+0xe0>
    50f1: a0 00        	ldy	#$0
    50f3: b1 10        	lda	($10),y                 ; 0x2010 <main+0x1a91>
    50f5: 85 2f        	sta	$2f                     ; 0x202f <main+0x1ab0>
    50f7: c8           	iny
    50f8: b1 10        	lda	($10),y                 ; 0x2010 <main+0x1a91>
    50fa: 85 2e        	sta	$2e                     ; 0x202e <main+0x1aaf>
    50fc: c8           	iny
    50fd: b1 10        	lda	($10),y                 ; 0x2010 <main+0x1a91>
    50ff: 85 2d        	sta	$2d                     ; 0x202d <main+0x1aae>
    5101: c8           	iny
    5102: b1 10        	lda	($10),y                 ; 0x2010 <main+0x1a91>
    5104: 85 2c        	sta	$2c                     ; 0x202c <main+0x1aad>
    5106: c8           	iny
    5107: b1 10        	lda	($10),y                 ; 0x2010 <main+0x1a91>
    5109: 85 2b        	sta	$2b                     ; 0x202b <main+0x1aac>
    510b: c8           	iny
    510c: b1 10        	lda	($10),y                 ; 0x2010 <main+0x1a91>
    510e: 85 2a        	sta	$2a                     ; 0x202a <main+0x1aab>
    5110: c8           	iny
    5111: b1 10        	lda	($10),y                 ; 0x2010 <main+0x1a91>
    5113: 85 28        	sta	$28                     ; 0x2028 <main+0x1aa9>
    5115: fa           	plx
    5116: 86 27        	stx	$27                     ; 0x2027 <main+0x1aa8>
    5118: fa           	plx
    5119: 86 26        	stx	$26                     ; 0x2026 <main+0x1aa7>
    511b: fa           	plx
    511c: 86 25        	stx	$25                     ; 0x2025 <main+0x1aa6>
    511e: fa           	plx
    511f: 86 24        	stx	$24                     ; 0x2024 <main+0x1aa5>
    5121: 18           	clc
    5122: a5 10        	lda	$10                     ; 0x2010 <main+0x1a91>
    5124: 69 07        	adc	#$7
    5126: 85 10        	sta	$10                     ; 0x2010 <main+0x1a91>
    5128: a5 11        	lda	$11                     ; 0x2011 <main+0x1a92>
    512a: 69 00        	adc	#$0
    512c: 85 11        	sta	$11                     ; 0x2011 <main+0x1a92>
    512e: 60           	rts
    512f: a2 a1        	ldx	#$a1
    5131: 86 26        	stx	$26                     ; 0x2026 <main+0x1aa7>
    5133: a2 dd        	ldx	#$dd
    5135: 86 27        	stx	$27                     ; 0x2027 <main+0x1aa8>
    5137: a2 19        	ldx	#$19
    5139: 86 12        	stx	$12                     ; 0x2012 <main+0x1a93>
    513b: 64 13        	stz	$13                     ; 0x2013 <main+0x1a94>
    513d: a2 00        	ldx	#$0
    513f: a5 24        	lda	$24                     ; 0x2024 <main+0x1aa5>
    5141: 20 95 63     	jsr	$6395 <__mulhi3>
    5144: 18           	clc
    5145: 65 2a        	adc	$2a                     ; 0x202a <main+0x1aab>
    5147: 85 12        	sta	$12                     ; 0x2012 <main+0x1a93>
    5149: 8a           	txa
    514a: 65 25        	adc	$25                     ; 0x2025 <main+0x1aa6>
    514c: 85 13        	sta	$13                     ; 0x2013 <main+0x1a94>
    514e: a0 10        	ldy	#$10
    5150: b1 12        	lda	($12),y                 ; 0x2012 <main+0x1a93>
    5152: c9 ff        	cmp	#$ff
    5154: d0 03        	bne	$5159 <exhaustZeroes+0x10a>
    5156: 4c ff 51     	jmp	$51ff <exhaustZeroes+0x1b0>
    5159: a6 84        	ldx	$84                     ; 0x2084 <main+0x1b05>
    515b: a0 a1        	ldy	#$a1
    515d: 84 12        	sty	$12                     ; 0x2012 <main+0x1a93>
    515f: a0 dd        	ldy	#$dd
    5161: 84 13        	sty	$13                     ; 0x2013 <main+0x1a94>
    5163: e0 00        	cpx	#$0
    5165: f0 08        	beq	$516f <exhaustZeroes+0x120>
    5167: a2 b1        	ldx	#$b1
    5169: 86 12        	stx	$12                     ; 0x2012 <main+0x1a93>
    516b: a2 dd        	ldx	#$dd
    516d: 86 13        	stx	$13                     ; 0x2013 <main+0x1a94>
    516f: 92 12        	sta	($12)                   ; 0x2012 <main+0x1a93>
    5171: a6 82        	ldx	$82                     ; 0x2082 <main+0x1b03>
    5173: 86 28        	stx	$28                     ; 0x2028 <main+0x1aa9>
    5175: a6 83        	ldx	$83                     ; 0x2083 <main+0x1b04>
    5177: 86 25        	stx	$25                     ; 0x2025 <main+0x1aa6>
    5179: a2 19        	ldx	#$19
    517b: 86 12        	stx	$12                     ; 0x2012 <main+0x1a93>
    517d: 64 13        	stz	$13                     ; 0x2013 <main+0x1a94>
    517f: a2 00        	ldx	#$0
    5181: a5 24        	lda	$24                     ; 0x2024 <main+0x1aa5>
    5183: 20 95 63     	jsr	$6395 <__mulhi3>
    5186: 85 12        	sta	$12                     ; 0x2012 <main+0x1a93>
    5188: 86 13        	stx	$13                     ; 0x2013 <main+0x1a94>
    518a: 18           	clc
    518b: a5 28        	lda	$28                     ; 0x2028 <main+0x1aa9>
    518d: 65 12        	adc	$12                     ; 0x2012 <main+0x1a93>
    518f: 85 12        	sta	$12                     ; 0x2012 <main+0x1a93>
    5191: a5 25        	lda	$25                     ; 0x2025 <main+0x1aa6>
    5193: 65 13        	adc	$13                     ; 0x2013 <main+0x1a94>
    5195: 85 13        	sta	$13                     ; 0x2013 <main+0x1a94>
    5197: a6 84        	ldx	$84                     ; 0x2084 <main+0x1b05>
    5199: a0 a1        	ldy	#$a1
    519b: 84 14        	sty	$14                     ; 0x2014 <main+0x1a95>
    519d: a0 dd        	ldy	#$dd
    519f: 84 15        	sty	$15                     ; 0x2015 <main+0x1a96>
    51a1: 8a           	txa
    51a2: f0 08        	beq	$51ac <exhaustZeroes+0x15d>
    51a4: a2 b1        	ldx	#$b1
    51a6: 86 14        	stx	$14                     ; 0x2014 <main+0x1a95>
    51a8: a2 dd        	ldx	#$dd
    51aa: 86 15        	stx	$15                     ; 0x2015 <main+0x1a96>
    51ac: a0 11        	ldy	#$11
    51ae: b1 12        	lda	($12),y                 ; 0x2012 <main+0x1a93>
    51b0: 92 14        	sta	($14)                   ; 0x2014 <main+0x1a95>
    51b2: a6 82        	ldx	$82                     ; 0x2082 <main+0x1b03>
    51b4: 86 28        	stx	$28                     ; 0x2028 <main+0x1aa9>
    51b6: a6 83        	ldx	$83                     ; 0x2083 <main+0x1b04>
    51b8: 86 25        	stx	$25                     ; 0x2025 <main+0x1aa6>
    51ba: a2 19        	ldx	#$19
    51bc: 86 12        	stx	$12                     ; 0x2012 <main+0x1a93>
    51be: 64 13        	stz	$13                     ; 0x2013 <main+0x1a94>
    51c0: a2 00        	ldx	#$0
    51c2: a5 24        	lda	$24                     ; 0x2024 <main+0x1aa5>
    51c4: 20 95 63     	jsr	$6395 <__mulhi3>
    51c7: 85 12        	sta	$12                     ; 0x2012 <main+0x1a93>
    51c9: 86 13        	stx	$13                     ; 0x2013 <main+0x1a94>
    51cb: 18           	clc
    51cc: a5 28        	lda	$28                     ; 0x2028 <main+0x1aa9>
    51ce: 65 12        	adc	$12                     ; 0x2012 <main+0x1a93>
    51d0: 85 12        	sta	$12                     ; 0x2012 <main+0x1a93>
    51d2: a5 25        	lda	$25                     ; 0x2025 <main+0x1aa6>
    51d4: 65 13        	adc	$13                     ; 0x2013 <main+0x1a94>
    51d6: 85 13        	sta	$13                     ; 0x2013 <main+0x1a94>
    51d8: a0 17        	ldy	#$17
    51da: b1 12        	lda	($12),y                 ; 0x2012 <main+0x1a93>
    51dc: f0 03        	beq	$51e1 <exhaustZeroes+0x192>
    51de: 4c 98 52     	jmp	$5298 <exhaustZeroes+0x249>
    51e1: a6 84        	ldx	$84                     ; 0x2084 <main+0x1b05>
    51e3: a0 a1        	ldy	#$a1
    51e5: 84 14        	sty	$14                     ; 0x2014 <main+0x1a95>
    51e7: a0 dd        	ldy	#$dd
    51e9: 84 15        	sty	$15                     ; 0x2015 <main+0x1a96>
    51eb: 8a           	txa
    51ec: f0 08        	beq	$51f6 <exhaustZeroes+0x1a7>
    51ee: a2 b1        	ldx	#$b1
    51f0: 86 14        	stx	$14                     ; 0x2014 <main+0x1a95>
    51f2: a2 dd        	ldx	#$dd
    51f4: 86 15        	stx	$15                     ; 0x2015 <main+0x1a96>
    51f6: a0 12        	ldy	#$12
    51f8: b1 12        	lda	($12),y                 ; 0x2012 <main+0x1a93>
    51fa: 92 14        	sta	($14)                   ; 0x2014 <main+0x1a95>
    51fc: 4c 98 52     	jmp	$5298 <exhaustZeroes+0x249>
    51ff: a0 11        	ldy	#$11
    5201: b1 12        	lda	($12),y                 ; 0x2012 <main+0x1a93>
    5203: c9 51        	cmp	#$51
    5205: f0 10        	beq	$5217 <exhaustZeroes+0x1c8>
    5207: c9 2f        	cmp	#$2f
    5209: f0 03        	beq	$520e <exhaustZeroes+0x1bf>
    520b: 4c 98 52     	jmp	$5298 <exhaustZeroes+0x249>
    520e: a9 01        	lda	#$1
    5210: a0 18        	ldy	#$18
    5212: 91 12        	sta	($12),y                 ; 0x2012 <main+0x1a93>
    5214: 4c 98 52     	jmp	$5298 <exhaustZeroes+0x249>
    5217: a2 19        	ldx	#$19
    5219: 86 12        	stx	$12                     ; 0x2012 <main+0x1a93>
    521b: 64 13        	stz	$13                     ; 0x2013 <main+0x1a94>
    521d: a2 00        	ldx	#$0
    521f: a5 24        	lda	$24                     ; 0x2024 <main+0x1aa5>
    5221: 20 95 63     	jsr	$6395 <__mulhi3>
    5224: 86 12        	stx	$12                     ; 0x2012 <main+0x1a93>
    5226: 18           	clc
    5227: 65 2a        	adc	$2a                     ; 0x202a <main+0x1aab>
    5229: aa           	tax
    522a: a5 25        	lda	$25                     ; 0x2025 <main+0x1aa6>
    522c: 65 12        	adc	$12                     ; 0x2012 <main+0x1a93>
    522e: 86 14        	stx	$14                     ; 0x2014 <main+0x1a95>
    5230: 85 15        	sta	$15                     ; 0x2015 <main+0x1a96>
    5232: a0 13        	ldy	#$13
    5234: b1 14        	lda	($14),y                 ; 0x2014 <main+0x1a95>
    5236: 85 12        	sta	$12                     ; 0x2012 <main+0x1a93>
    5238: c8           	iny
    5239: b1 14        	lda	($14),y                 ; 0x2014 <main+0x1a95>
    523b: 85 19        	sta	$19                     ; 0x2019 <main+0x1a9a>
    523d: c8           	iny
    523e: b1 14        	lda	($14),y                 ; 0x2014 <main+0x1a95>
    5240: a6 75        	ldx	$75                     ; 0x2075 <main+0x1af6>
    5242: a4 76        	ldy	$76                     ; 0x2076 <main+0x1af7>
    5244: 64 13        	stz	$13                     ; 0x2013 <main+0x1a94>
    5246: 86 14        	stx	$14                     ; 0x2014 <main+0x1a95>
    5248: 84 15        	sty	$15                     ; 0x2015 <main+0x1a96>
    524a: 64 16        	stz	$16                     ; 0x2016 <main+0x1a97>
    524c: 64 17        	stz	$17                     ; 0x2017 <main+0x1a98>
    524e: a6 19        	ldx	$19                     ; 0x2019 <main+0x1a9a>
    5250: 20 37 64     	jsr	$6437 <__udivsi3>
    5253: 86 14        	stx	$14                     ; 0x2014 <main+0x1a95>
    5255: 0a           	asl
    5256: 26 14        	rol	$14                     ; 0x2014 <main+0x1a95>
    5258: 26 12        	rol	$12                     ; 0x2012 <main+0x1a93>
    525a: 26 13        	rol	$13                     ; 0x2013 <main+0x1a94>
    525c: 0a           	asl
    525d: 85 15        	sta	$15                     ; 0x2015 <main+0x1a96>
    525f: 26 14        	rol	$14                     ; 0x2014 <main+0x1a95>
    5261: 26 12        	rol	$12                     ; 0x2012 <main+0x1a93>
    5263: 26 13        	rol	$13                     ; 0x2013 <main+0x1a94>
    5265: 0a           	asl
    5266: aa           	tax
    5267: a5 14        	lda	$14                     ; 0x2014 <main+0x1a95>
    5269: 2a           	rol
    526a: a8           	tay
    526b: a5 12        	lda	$12                     ; 0x2012 <main+0x1a93>
    526d: 2a           	rol
    526e: 85 16        	sta	$16                     ; 0x2016 <main+0x1a97>
    5270: a5 13        	lda	$13                     ; 0x2013 <main+0x1a94>
    5272: 2a           	rol
    5273: 85 17        	sta	$17                     ; 0x2017 <main+0x1a98>
    5275: 18           	clc
    5276: 8a           	txa
    5277: 65 15        	adc	$15                     ; 0x2015 <main+0x1a96>
    5279: 85 15        	sta	$15                     ; 0x2015 <main+0x1a96>
    527b: 98           	tya
    527c: 65 14        	adc	$14                     ; 0x2014 <main+0x1a95>
    527e: 85 14        	sta	$14                     ; 0x2014 <main+0x1a95>
    5280: a5 16        	lda	$16                     ; 0x2016 <main+0x1a97>
    5282: 65 12        	adc	$12                     ; 0x2012 <main+0x1a93>
    5284: 85 12        	sta	$12                     ; 0x2012 <main+0x1a93>
    5286: a5 17        	lda	$17                     ; 0x2017 <main+0x1a98>
    5288: 65 13        	adc	$13                     ; 0x2013 <main+0x1a94>
    528a: a6 15        	ldx	$15                     ; 0x2015 <main+0x1a96>
    528c: 86 77        	stx	$77                     ; 0x2077 <main+0x1af8>
    528e: a6 14        	ldx	$14                     ; 0x2014 <main+0x1a95>
    5290: 86 78        	stx	$78                     ; 0x2078 <main+0x1af9>
    5292: a6 12        	ldx	$12                     ; 0x2012 <main+0x1a93>
    5294: 86 79        	stx	$79                     ; 0x2079 <main+0x1afa>
    5296: 85 7a        	sta	$7a                     ; 0x207a <main+0x1afb>
    5298: a5 24        	lda	$24                     ; 0x2024 <main+0x1aa5>
    529a: 20 a4 43     	jsr	$43a4 <readDelta>
    529d: 85 2a        	sta	$2a                     ; 0x202a <main+0x1aab>
    529f: 86 2b        	stx	$2b                     ; 0x202b <main+0x1aac>
    52a1: a6 12        	ldx	$12                     ; 0x2012 <main+0x1a93>
    52a3: 86 2c        	stx	$2c                     ; 0x202c <main+0x1aad>
    52a5: a6 13        	ldx	$13                     ; 0x2013 <main+0x1a94>
    52a7: 86 2d        	stx	$2d                     ; 0x202d <main+0x1aae>
    52a9: a6 82        	ldx	$82                     ; 0x2082 <main+0x1b03>
    52ab: 86 28        	stx	$28                     ; 0x2028 <main+0x1aa9>
    52ad: a6 83        	ldx	$83                     ; 0x2083 <main+0x1b04>
    52af: 86 2f        	stx	$2f                     ; 0x202f <main+0x1ab0>
    52b1: a2 19        	ldx	#$19
    52b3: 86 12        	stx	$12                     ; 0x2012 <main+0x1a93>
    52b5: 64 13        	stz	$13                     ; 0x2013 <main+0x1a94>
    52b7: a2 00        	ldx	#$0
    52b9: a5 24        	lda	$24                     ; 0x2024 <main+0x1aa5>
    52bb: 20 95 63     	jsr	$6395 <__mulhi3>
    52be: 85 25        	sta	$25                     ; 0x2025 <main+0x1aa6>
    52c0: 85 12        	sta	$12                     ; 0x2012 <main+0x1a93>
    52c2: 86 13        	stx	$13                     ; 0x2013 <main+0x1a94>
    52c4: 86 2e        	stx	$2e                     ; 0x202e <main+0x1aaf>
    52c6: 18           	clc
    52c7: a5 28        	lda	$28                     ; 0x2028 <main+0x1aa9>
    52c9: 65 12        	adc	$12                     ; 0x2012 <main+0x1a93>
    52cb: a8           	tay
    52cc: a5 2f        	lda	$2f                     ; 0x202f <main+0x1ab0>
    52ce: 65 13        	adc	$13                     ; 0x2013 <main+0x1a94>
    52d0: aa           	tax
    52d1: 98           	tya
    52d2: 84 12        	sty	$12                     ; 0x2012 <main+0x1a93>
    52d4: 86 13        	stx	$13                     ; 0x2013 <main+0x1a94>
    52d6: 18           	clc
    52d7: 69 0c        	adc	#$c
    52d9: 85 14        	sta	$14                     ; 0x2014 <main+0x1a95>
    52db: 8a           	txa
    52dc: 69 00        	adc	#$0
    52de: 85 15        	sta	$15                     ; 0x2015 <main+0x1a96>
    52e0: a0 0c        	ldy	#$c
    52e2: a5 2a        	lda	$2a                     ; 0x202a <main+0x1aab>
    52e4: 91 12        	sta	($12),y                 ; 0x2012 <main+0x1a93>
    52e6: a0 01        	ldy	#$1
    52e8: a5 2b        	lda	$2b                     ; 0x202b <main+0x1aac>
    52ea: 91 14        	sta	($14),y                 ; 0x2014 <main+0x1a95>
    52ec: c8           	iny
    52ed: a5 2c        	lda	$2c                     ; 0x202c <main+0x1aad>
    52ef: 91 14        	sta	($14),y                 ; 0x2014 <main+0x1a95>
    52f1: c8           	iny
    52f2: a5 2d        	lda	$2d                     ; 0x202d <main+0x1aae>
    52f4: 91 14        	sta	($14),y                 ; 0x2014 <main+0x1a95>
    52f6: a5 24        	lda	$24                     ; 0x2024 <main+0x1aa5>
    52f8: 20 14 48     	jsr	$4814 <readMIDICmd>
    52fb: a6 82        	ldx	$82                     ; 0x2082 <main+0x1b03>
    52fd: a4 83        	ldy	$83                     ; 0x2083 <main+0x1b04>
    52ff: 84 16        	sty	$16                     ; 0x2016 <main+0x1a97>
    5301: 18           	clc
    5302: a5 25        	lda	$25                     ; 0x2025 <main+0x1aa6>
    5304: 65 82        	adc	$82                     ; 0x2082 <main+0x1b03>
    5306: 85 12        	sta	$12                     ; 0x2012 <main+0x1a93>
    5308: a5 2e        	lda	$2e                     ; 0x202e <main+0x1aaf>
    530a: 65 83        	adc	$83                     ; 0x2083 <main+0x1b04>
    530c: a8           	tay
    530d: a5 12        	lda	$12                     ; 0x2012 <main+0x1a93>
    530f: 85 14        	sta	$14                     ; 0x2014 <main+0x1a95>
    5311: 84 15        	sty	$15                     ; 0x2015 <main+0x1a96>
    5313: 84 13        	sty	$13                     ; 0x2013 <main+0x1a94>
    5315: a0 18        	ldy	#$18
    5317: b1 12        	lda	($12),y                 ; 0x2012 <main+0x1a93>
    5319: f0 03        	beq	$531e <exhaustZeroes+0x2cf>
    531b: 4c f1 50     	jmp	$50f1 <exhaustZeroes+0xa2>
    531e: 86 2a        	stx	$2a                     ; 0x202a <main+0x1aab>
    5320: a6 16        	ldx	$16                     ; 0x2016 <main+0x1a97>
    5322: 86 25        	stx	$25                     ; 0x2025 <main+0x1aa6>
    5324: 18           	clc
    5325: a5 14        	lda	$14                     ; 0x2014 <main+0x1a95>
    5327: 69 0c        	adc	#$c
    5329: 85 14        	sta	$14                     ; 0x2014 <main+0x1a95>
    532b: a5 15        	lda	$15                     ; 0x2015 <main+0x1a96>
    532d: 69 00        	adc	#$0
    532f: 85 15        	sta	$15                     ; 0x2015 <main+0x1a96>
    5331: a0 0c        	ldy	#$c
    5333: b1 12        	lda	($12),y                 ; 0x2012 <main+0x1a93>
    5335: 85 12        	sta	$12                     ; 0x2012 <main+0x1a93>
    5337: a0 01        	ldy	#$1
    5339: b1 14        	lda	($14),y                 ; 0x2014 <main+0x1a95>
    533b: 85 13        	sta	$13                     ; 0x2013 <main+0x1a94>
    533d: c8           	iny
    533e: b1 14        	lda	($14),y                 ; 0x2014 <main+0x1a95>
    5340: 85 16        	sta	$16                     ; 0x2016 <main+0x1a97>
    5342: c8           	iny
    5343: b1 14        	lda	($14),y                 ; 0x2014 <main+0x1a95>
    5345: f0 03        	beq	$534a <exhaustZeroes+0x2fb>
    5347: 4c f1 50     	jmp	$50f1 <exhaustZeroes+0xa2>
    534a: a5 16        	lda	$16                     ; 0x2016 <main+0x1a97>
    534c: f0 03        	beq	$5351 <exhaustZeroes+0x302>
    534e: 4c f1 50     	jmp	$50f1 <exhaustZeroes+0xa2>
    5351: a5 13        	lda	$13                     ; 0x2013 <main+0x1a94>
    5353: f0 03        	beq	$5358 <exhaustZeroes+0x309>
    5355: 4c f1 50     	jmp	$50f1 <exhaustZeroes+0xa2>
    5358: a5 12        	lda	$12                     ; 0x2012 <main+0x1a93>
    535a: d0 03        	bne	$535f <exhaustZeroes+0x310>
    535c: 4c 37 51     	jmp	$5137 <exhaustZeroes+0xe8>
    535f: 4c f1 50     	jmp	$50f1 <exhaustZeroes+0xa2>

00005362 <exit>:
    5362: 20 46 03     	jsr	$346 <_fini>
    5365: 80 fe        	bra	$5365 <exit+0x3>

00005367 <_ZN12_GLOBAL__N_13putEcP6Status>:
    5367: 85 18        	sta	$18                     ; 0x2018 <main+0x1a99>
    5369: a6 13        	ldx	$13                     ; 0x2013 <main+0x1a94>
    536b: 18           	clc
    536c: a5 12        	lda	$12                     ; 0x2012 <main+0x1a93>
    536e: 69 05        	adc	#$5
    5370: a8           	tay
    5371: a5 13        	lda	$13                     ; 0x2013 <main+0x1a94>
    5373: 86 15        	stx	$15                     ; 0x2015 <main+0x1a96>
    5375: 69 00        	adc	#$0
    5377: 18           	clc
    5378: 84 16        	sty	$16                     ; 0x2016 <main+0x1a97>
    537a: a0 05        	ldy	#$5
    537c: 85 17        	sta	$17                     ; 0x2017 <main+0x1a98>
    537e: b1 12        	lda	($12),y                 ; 0x2012 <main+0x1a93>
    5380: aa           	tax
    5381: a5 12        	lda	$12                     ; 0x2012 <main+0x1a93>
    5383: 69 03        	adc	#$3
    5385: 85 14        	sta	$14                     ; 0x2014 <main+0x1a95>
    5387: a5 15        	lda	$15                     ; 0x2015 <main+0x1a96>
    5389: 69 00        	adc	#$0
    538b: 85 15        	sta	$15                     ; 0x2015 <main+0x1a96>
    538d: a0 01        	ldy	#$1
    538f: b1 16        	lda	($16),y                 ; 0x2016 <main+0x1a97>
    5391: d1 14        	cmp	($14),y                 ; 0x2014 <main+0x1a95>
    5393: d0 11        	bne	$53a6 <_ZN12_GLOBAL__N_13putEcP6Status+0x3f>
    5395: a0 03        	ldy	#$3
    5397: 85 17        	sta	$17                     ; 0x2017 <main+0x1a98>
    5399: b1 12        	lda	($12),y                 ; 0x2012 <main+0x1a93>
    539b: 85 14        	sta	$14                     ; 0x2014 <main+0x1a95>
    539d: 86 16        	stx	$16                     ; 0x2016 <main+0x1a97>
    539f: e4 14        	cpx	$14                     ; 0x2014 <main+0x1a95>
    53a1: 90 0e        	bcc	$53b1 <_ZN12_GLOBAL__N_13putEcP6Status+0x4a>
    53a3: 4c 1a 54     	jmp	$541a <_ZN12_GLOBAL__N_13putEcP6Status+0xb3>
    53a6: 86 16        	stx	$16                     ; 0x2016 <main+0x1a97>
    53a8: d1 14        	cmp	($14),y                 ; 0x2014 <main+0x1a95>
    53aa: 85 17        	sta	$17                     ; 0x2017 <main+0x1a98>
    53ac: 90 03        	bcc	$53b1 <_ZN12_GLOBAL__N_13putEcP6Status+0x4a>
    53ae: 4c 1a 54     	jmp	$541a <_ZN12_GLOBAL__N_13putEcP6Status+0xb3>
    53b1: a5 12        	lda	$12                     ; 0x2012 <main+0x1a93>
    53b3: 18           	clc
    53b4: 69 0f        	adc	#$f
    53b6: 85 14        	sta	$14                     ; 0x2014 <main+0x1a95>
    53b8: a5 13        	lda	$13                     ; 0x2013 <main+0x1a94>
    53ba: 69 00        	adc	#$0
    53bc: 85 15        	sta	$15                     ; 0x2015 <main+0x1a96>
    53be: a0 01        	ldy	#$1
    53c0: b1 14        	lda	($14),y                 ; 0x2014 <main+0x1a95>
    53c2: a2 00        	ldx	#$0
    53c4: 86 14        	stx	$14                     ; 0x2014 <main+0x1a95>
    53c6: a2 00        	ldx	#$0
    53c8: 86 15        	stx	$15                     ; 0x2015 <main+0x1a96>
    53ca: c5 15        	cmp	$15                     ; 0x2015 <main+0x1a96>
    53cc: d0 2d        	bne	$53fb <_ZN12_GLOBAL__N_13putEcP6Status+0x94>
    53ce: a0 0f        	ldy	#$f
    53d0: b1 12        	lda	($12),y                 ; 0x2012 <main+0x1a93>
    53d2: c5 14        	cmp	$14                     ; 0x2014 <main+0x1a95>
    53d4: d0 25        	bne	$53fb <_ZN12_GLOBAL__N_13putEcP6Status+0x94>
    53d6: a5 12        	lda	$12                     ; 0x2012 <main+0x1a93>
    53d8: 18           	clc
    53d9: 69 09        	adc	#$9
    53db: 85 14        	sta	$14                     ; 0x2014 <main+0x1a95>
    53dd: a5 13        	lda	$13                     ; 0x2013 <main+0x1a94>
    53df: 69 00        	adc	#$0
    53e1: a0 09        	ldy	#$9
    53e3: 85 15        	sta	$15                     ; 0x2015 <main+0x1a96>
    53e5: 18           	clc
    53e6: a5 16        	lda	$16                     ; 0x2016 <main+0x1a97>
    53e8: 71 12        	adc	($12),y                 ; 0x2012 <main+0x1a93>
    53ea: aa           	tax
    53eb: a0 01        	ldy	#$1
    53ed: a5 17        	lda	$17                     ; 0x2017 <main+0x1a98>
    53ef: 71 14        	adc	($14),y                 ; 0x2014 <main+0x1a95>
    53f1: 86 14        	stx	$14                     ; 0x2014 <main+0x1a95>
    53f3: 85 15        	sta	$15                     ; 0x2015 <main+0x1a96>
    53f5: a5 18        	lda	$18                     ; 0x2018 <main+0x1a99>
    53f7: 92 14        	sta	($14)                   ; 0x2014 <main+0x1a95>
    53f9: 80 1f        	bra	$541a <_ZN12_GLOBAL__N_13putEcP6Status+0xb3>
    53fb: a6 12        	ldx	$12                     ; 0x2012 <main+0x1a93>
    53fd: 86 e8        	stx	$e8                     ; 0x20e8 <main+0x1b69>
    53ff: a6 13        	ldx	$13                     ; 0x2013 <main+0x1a94>
    5401: 86 e9        	stx	$e9                     ; 0x20e9 <main+0x1b6a>
    5403: a5 18        	lda	$18                     ; 0x2018 <main+0x1a99>
    5405: 85 6f        	sta	$6f                     ; 0x206f <main+0x1af0>
    5407: a2 6f        	ldx	#$6f
    5409: 86 12        	stx	$12                     ; 0x2012 <main+0x1a93>
    540b: a2 00        	ldx	#$0
    540d: 86 13        	stx	$13                     ; 0x2013 <main+0x1a94>
    540f: 20 35 40     	jsr	$4035 <textPrint>
    5412: a6 e8        	ldx	$e8                     ; 0x20e8 <main+0x1b69>
    5414: 86 12        	stx	$12                     ; 0x2012 <main+0x1a93>
    5416: a6 e9        	ldx	$e9                     ; 0x20e9 <main+0x1b6a>
    5418: 86 13        	stx	$13                     ; 0x2013 <main+0x1a94>
    541a: a0 05        	ldy	#$5
    541c: a5 12        	lda	$12                     ; 0x2012 <main+0x1a93>
    541e: 18           	clc
    541f: 69 05        	adc	#$5
    5421: 85 14        	sta	$14                     ; 0x2014 <main+0x1a95>
    5423: a5 13        	lda	$13                     ; 0x2013 <main+0x1a94>
    5425: 69 00        	adc	#$0
    5427: 85 15        	sta	$15                     ; 0x2015 <main+0x1a96>
    5429: b1 12        	lda	($12),y                 ; 0x2012 <main+0x1a93>
    542b: aa           	tax
    542c: a0 01        	ldy	#$1
    542e: b1 14        	lda	($14),y                 ; 0x2014 <main+0x1a95>
    5430: e8           	inx
    5431: d0 01        	bne	$5434 <_ZN12_GLOBAL__N_13putEcP6Status+0xcd>
    5433: 1a           	inc
    5434: 85 16        	sta	$16                     ; 0x2016 <main+0x1a97>
    5436: 8a           	txa
    5437: a0 05        	ldy	#$5
    5439: 91 12        	sta	($12),y                 ; 0x2012 <main+0x1a93>
    543b: a0 01        	ldy	#$1
    543d: a5 16        	lda	$16                     ; 0x2016 <main+0x1a97>
    543f: 91 14        	sta	($14),y                 ; 0x2014 <main+0x1a95>
    5441: 60           	rts

00005442 <_ZN12_GLOBAL__N_112print_stringEPKcP6Status>:
    5442: a6 12        	ldx	$12                     ; 0x2012 <main+0x1a93>
    5444: 86 e0        	stx	$e0                     ; 0x20e0 <main+0x1b61>
    5446: a6 13        	ldx	$13                     ; 0x2013 <main+0x1a94>
    5448: 86 e1        	stx	$e1                     ; 0x20e1 <main+0x1b62>
    544a: a6 14        	ldx	$14                     ; 0x2014 <main+0x1a95>
    544c: 86 e2        	stx	$e2                     ; 0x20e2 <main+0x1b63>
    544e: a6 15        	ldx	$15                     ; 0x2015 <main+0x1a96>
    5450: 86 e3        	stx	$e3                     ; 0x20e3 <main+0x1b64>
    5452: a5 e2        	lda	$e2                     ; 0x20e2 <main+0x1b63>
    5454: 18           	clc
    5455: 69 0d        	adc	#$d
    5457: 85 12        	sta	$12                     ; 0x2012 <main+0x1a93>
    5459: a5 e3        	lda	$e3                     ; 0x20e3 <main+0x1b64>
    545b: 69 00        	adc	#$0
    545d: 85 13        	sta	$13                     ; 0x2013 <main+0x1a94>
    545f: a0 01        	ldy	#$1
    5461: b1 12        	lda	($12),y                 ; 0x2012 <main+0x1a93>
    5463: 30 16        	bmi	$547b <_ZN12_GLOBAL__N_112print_stringEPKcP6Status+0x39>
    5465: a0 0d        	ldy	#$d
    5467: 85 12        	sta	$12                     ; 0x2012 <main+0x1a93>
    5469: b1 e2        	lda	($e2),y                 ; 0x20e2 <main+0x1b63>
    546b: a6 12        	ldx	$12                     ; 0x2012 <main+0x1a93>
    546d: 86 e7        	stx	$e7                     ; 0x20e7 <main+0x1b68>
    546f: d0 0f        	bne	$5480 <_ZN12_GLOBAL__N_112print_stringEPKcP6Status+0x3e>
    5471: aa           	tax
    5472: d0 0c        	bne	$5480 <_ZN12_GLOBAL__N_112print_stringEPKcP6Status+0x3e>
    5474: 64 e4        	stz	$e4                     ; 0x20e4 <main+0x1b65>
    5476: a2 00        	ldx	#$0
    5478: 4c 49 55     	jmp	$5549 <_ZN12_GLOBAL__N_112print_stringEPKcP6Status+0x107>
    547b: a9 ff        	lda	#$ff
    547d: aa           	tax
    547e: 86 e7        	stx	$e7                     ; 0x20e7 <main+0x1b68>
    5480: 85 e4        	sta	$e4                     ; 0x20e4 <main+0x1b65>
    5482: 64 12        	stz	$12                     ; 0x2012 <main+0x1a93>
    5484: a4 e0        	ldy	$e0                     ; 0x20e0 <main+0x1b61>
    5486: a6 e1        	ldx	$e1                     ; 0x20e1 <main+0x1b62>
    5488: 86 16        	stx	$16                     ; 0x2016 <main+0x1a97>
    548a: 64 13        	stz	$13                     ; 0x2013 <main+0x1a94>
    548c: 98           	tya
    548d: 18           	clc
    548e: 65 12        	adc	$12                     ; 0x2012 <main+0x1a93>
    5490: 85 14        	sta	$14                     ; 0x2014 <main+0x1a95>
    5492: a5 e1        	lda	$e1                     ; 0x20e1 <main+0x1b62>
    5494: 65 13        	adc	$13                     ; 0x2013 <main+0x1a94>
    5496: 85 15        	sta	$15                     ; 0x2015 <main+0x1a96>
    5498: b2 14        	lda	($14)                   ; 0x2014 <main+0x1a95>
    549a: d0 03        	bne	$549f <_ZN12_GLOBAL__N_112print_stringEPKcP6Status+0x5d>
    549c: 4c 43 55     	jmp	$5543 <_ZN12_GLOBAL__N_112print_stringEPKcP6Status+0x101>
    549f: e6 12        	inc	$12                     ; 0x2012 <main+0x1a93>
    54a1: d0 02        	bne	$54a5 <_ZN12_GLOBAL__N_112print_stringEPKcP6Status+0x63>
    54a3: e6 13        	inc	$13                     ; 0x2013 <main+0x1a94>
    54a5: a6 e7        	ldx	$e7                     ; 0x20e7 <main+0x1b68>
    54a7: e4 13        	cpx	$13                     ; 0x2013 <main+0x1a94>
    54a9: d0 e1        	bne	$548c <_ZN12_GLOBAL__N_112print_stringEPKcP6Status+0x4a>
    54ab: a6 e4        	ldx	$e4                     ; 0x20e4 <main+0x1b65>
    54ad: e4 12        	cpx	$12                     ; 0x2012 <main+0x1a93>
    54af: d0 db        	bne	$548c <_ZN12_GLOBAL__N_112print_stringEPKcP6Status+0x4a>
    54b1: a0 01        	ldy	#$1
    54b3: b1 e2        	lda	($e2),y                 ; 0x20e2 <main+0x1b63>
    54b5: 29 01        	and	#$1
    54b7: f0 03        	beq	$54bc <_ZN12_GLOBAL__N_112print_stringEPKcP6Status+0x7a>
    54b9: 4c 14 55     	jmp	$5514 <_ZN12_GLOBAL__N_112print_stringEPKcP6Status+0xd2>
    54bc: a5 e2        	lda	$e2                     ; 0x20e2 <main+0x1b63>
    54be: 18           	clc
    54bf: 69 0b        	adc	#$b
    54c1: 85 14        	sta	$14                     ; 0x2014 <main+0x1a95>
    54c3: a5 e3        	lda	$e3                     ; 0x20e3 <main+0x1b64>
    54c5: 69 00        	adc	#$0
    54c7: 85 15        	sta	$15                     ; 0x2015 <main+0x1a96>
    54c9: a0 0b        	ldy	#$b
    54cb: b1 e2        	lda	($e2),y                 ; 0x20e2 <main+0x1b63>
    54cd: 85 13        	sta	$13                     ; 0x2013 <main+0x1a94>
    54cf: a0 01        	ldy	#$1
    54d1: b1 14        	lda	($14),y                 ; 0x2014 <main+0x1a95>
    54d3: 85 12        	sta	$12                     ; 0x2012 <main+0x1a93>
    54d5: a6 e7        	ldx	$e7                     ; 0x20e7 <main+0x1b68>
    54d7: e4 12        	cpx	$12                     ; 0x2012 <main+0x1a93>
    54d9: d0 08        	bne	$54e3 <_ZN12_GLOBAL__N_112print_stringEPKcP6Status+0xa1>
    54db: a6 e4        	ldx	$e4                     ; 0x20e4 <main+0x1b65>
    54dd: e4 13        	cpx	$13                     ; 0x2013 <main+0x1a94>
    54df: 90 06        	bcc	$54e7 <_ZN12_GLOBAL__N_112print_stringEPKcP6Status+0xa5>
    54e1: 80 31        	bra	$5514 <_ZN12_GLOBAL__N_112print_stringEPKcP6Status+0xd2>
    54e3: e4 12        	cpx	$12                     ; 0x2012 <main+0x1a93>
    54e5: b0 2d        	bcs	$5514 <_ZN12_GLOBAL__N_112print_stringEPKcP6Status+0xd2>
    54e7: 38           	sec
    54e8: a5 e4        	lda	$e4                     ; 0x20e4 <main+0x1b65>
    54ea: e5 13        	sbc	$13                     ; 0x2013 <main+0x1a94>
    54ec: a8           	tay
    54ed: a5 e7        	lda	$e7                     ; 0x20e7 <main+0x1b68>
    54ef: e5 12        	sbc	$12                     ; 0x2012 <main+0x1a93>
    54f1: 85 e6        	sta	$e6                     ; 0x20e6 <main+0x1b67>
    54f3: a6 e2        	ldx	$e2                     ; 0x20e2 <main+0x1b63>
    54f5: 86 12        	stx	$12                     ; 0x2012 <main+0x1a93>
    54f7: a6 e3        	ldx	$e3                     ; 0x20e3 <main+0x1b64>
    54f9: 86 13        	stx	$13                     ; 0x2013 <main+0x1a94>
    54fb: 84 e5        	sty	$e5                     ; 0x20e5 <main+0x1b66>
    54fd: a9 20        	lda	#$20
    54ff: 20 67 53     	jsr	$5367 <_ZN12_GLOBAL__N_13putEcP6Status>
    5502: a6 e6        	ldx	$e6                     ; 0x20e6 <main+0x1b67>
    5504: e6 e5        	inc	$e5                     ; 0x20e5 <main+0x1b66>
    5506: d0 01        	bne	$5509 <_ZN12_GLOBAL__N_112print_stringEPKcP6Status+0xc7>
    5508: e8           	inx
    5509: 86 e6        	stx	$e6                     ; 0x20e6 <main+0x1b67>
    550b: a4 e5        	ldy	$e5                     ; 0x20e5 <main+0x1b66>
    550d: 8a           	txa
    550e: d0 e3        	bne	$54f3 <_ZN12_GLOBAL__N_112print_stringEPKcP6Status+0xb1>
    5510: a5 e5        	lda	$e5                     ; 0x20e5 <main+0x1b66>
    5512: d0 df        	bne	$54f3 <_ZN12_GLOBAL__N_112print_stringEPKcP6Status+0xb1>
    5514: a4 e7        	ldy	$e7                     ; 0x20e7 <main+0x1b68>
    5516: d0 04        	bne	$551c <_ZN12_GLOBAL__N_112print_stringEPKcP6Status+0xda>
    5518: a5 e4        	lda	$e4                     ; 0x20e4 <main+0x1b65>
    551a: f0 26        	beq	$5542 <_ZN12_GLOBAL__N_112print_stringEPKcP6Status+0x100>
    551c: a2 ff        	ldx	#$ff
    551e: c6 e4        	dec	$e4                     ; 0x20e4 <main+0x1b65>
    5520: e4 e4        	cpx	$e4                     ; 0x20e4 <main+0x1b65>
    5522: d0 01        	bne	$5525 <_ZN12_GLOBAL__N_112print_stringEPKcP6Status+0xe3>
    5524: 88           	dey
    5525: 84 e5        	sty	$e5                     ; 0x20e5 <main+0x1b66>
    5527: b2 e0        	lda	($e0)                   ; 0x20e0 <main+0x1b61>
    5529: e6 e0        	inc	$e0                     ; 0x20e0 <main+0x1b61>
    552b: d0 02        	bne	$552f <_ZN12_GLOBAL__N_112print_stringEPKcP6Status+0xed>
    552d: e6 e1        	inc	$e1                     ; 0x20e1 <main+0x1b62>
    552f: a6 e2        	ldx	$e2                     ; 0x20e2 <main+0x1b63>
    5531: 86 12        	stx	$12                     ; 0x2012 <main+0x1a93>
    5533: a6 e3        	ldx	$e3                     ; 0x20e3 <main+0x1b64>
    5535: 86 13        	stx	$13                     ; 0x2013 <main+0x1a94>
    5537: 20 67 53     	jsr	$5367 <_ZN12_GLOBAL__N_13putEcP6Status>
    553a: a4 e5        	ldy	$e5                     ; 0x20e5 <main+0x1b66>
    553c: d0 de        	bne	$551c <_ZN12_GLOBAL__N_112print_stringEPKcP6Status+0xda>
    553e: a5 e4        	lda	$e4                     ; 0x20e4 <main+0x1b65>
    5540: d0 da        	bne	$551c <_ZN12_GLOBAL__N_112print_stringEPKcP6Status+0xda>
    5542: 60           	rts
    5543: a6 12        	ldx	$12                     ; 0x2012 <main+0x1a93>
    5545: 86 e4        	stx	$e4                     ; 0x20e4 <main+0x1b65>
    5547: a6 13        	ldx	$13                     ; 0x2013 <main+0x1a94>
    5549: 86 e7        	stx	$e7                     ; 0x20e7 <main+0x1b68>
    554b: 4c b1 54     	jmp	$54b1 <_ZN12_GLOBAL__N_112print_stringEPKcP6Status+0x6f>

0000554e <printf>:
    554e: a6 12        	ldx	$12                     ; 0x2012 <main+0x1a93>
    5550: 86 95        	stx	$95                     ; 0x2095 <main+0x1b16>
    5552: a6 13        	ldx	$13                     ; 0x2013 <main+0x1a94>
    5554: 86 96        	stx	$96                     ; 0x2096 <main+0x1b17>
    5556: 18           	clc
    5557: a6 10        	ldx	$10                     ; 0x2010 <main+0x1a91>
    5559: a4 11        	ldy	$11                     ; 0x2011 <main+0x1a92>
    555b: 86 d6        	stx	$d6                     ; 0x20d6 <main+0x1b57>
    555d: 84 d7        	sty	$d7                     ; 0x20d7 <main+0x1b58>
    555f: a6 d6        	ldx	$d6                     ; 0x20d6 <main+0x1b57>
    5561: a4 d7        	ldy	$d7                     ; 0x20d7 <main+0x1b58>
    5563: 86 c1        	stx	$c1                     ; 0x20c1 <main+0x1b42>
    5565: 84 c2        	sty	$c2                     ; 0x20c2 <main+0x1b43>
    5567: a2 ff        	ldx	#$ff
    5569: 86 c6        	stx	$c6                     ; 0x20c6 <main+0x1b47>
    556b: 86 c7        	stx	$c7                     ; 0x20c7 <main+0x1b48>
    556d: 64 c8        	stz	$c8                     ; 0x20c8 <main+0x1b49>
    556f: 64 c9        	stz	$c9                     ; 0x20c9 <main+0x1b4a>
    5571: e8           	inx
    5572: 86 97        	stx	$97                     ; 0x2097 <main+0x1b18>
    5574: a2 00        	ldx	#$0
    5576: 86 98        	stx	$98                     ; 0x2098 <main+0x1b19>
    5578: a6 97        	ldx	$97                     ; 0x2097 <main+0x1b18>
    557a: a4 98        	ldy	$98                     ; 0x2098 <main+0x1b19>
    557c: 86 cc        	stx	$cc                     ; 0x20cc <main+0x1b4d>
    557e: 84 cd        	sty	$cd                     ; 0x20cd <main+0x1b4e>
    5580: a2 02        	ldx	#$2
    5582: 86 d2        	stx	$d2                     ; 0x20d2 <main+0x1b53>
    5584: 64 d3        	stz	$d3                     ; 0x20d3 <main+0x1b54>
    5586: a6 c1        	ldx	$c1                     ; 0x20c1 <main+0x1b42>
    5588: a4 c2        	ldy	$c2                     ; 0x20c2 <main+0x1b43>
    558a: 86 d4        	stx	$d4                     ; 0x20d4 <main+0x1b55>
    558c: 84 d5        	sty	$d5                     ; 0x20d5 <main+0x1b56>
    558e: a2 b8        	ldx	#$b8
    5590: a0 00        	ldy	#$0
    5592: 86 12        	stx	$12                     ; 0x2012 <main+0x1a93>
    5594: 84 13        	sty	$13                     ; 0x2013 <main+0x1a94>
    5596: a0 01        	ldy	#$1
    5598: a9 9f        	lda	#$9f
    559a: 18           	clc
    559b: 69 02        	adc	#$2
    559d: 85 de        	sta	$de                     ; 0x20de <main+0x1b5f>
    559f: a9 00        	lda	#$0
    55a1: 69 00        	adc	#$0
    55a3: 85 df        	sta	$df                     ; 0x20df <main+0x1b60>
    55a5: e6 12        	inc	$12                     ; 0x2012 <main+0x1a93>
    55a7: d0 02        	bne	$55ab <printf+0x5d>
    55a9: e6 13        	inc	$13                     ; 0x2013 <main+0x1a94>
    55ab: a6 12        	ldx	$12                     ; 0x2012 <main+0x1a93>
    55ad: 86 da        	stx	$da                     ; 0x20da <main+0x1b5b>
    55af: a6 13        	ldx	$13                     ; 0x2013 <main+0x1a94>
    55b1: 86 db        	stx	$db                     ; 0x20db <main+0x1b5c>
    55b3: a6 95        	ldx	$95                     ; 0x2095 <main+0x1b16>
    55b5: 86 99        	stx	$99                     ; 0x2099 <main+0x1b1a>
    55b7: a6 96        	ldx	$96                     ; 0x2096 <main+0x1b17>
    55b9: 86 9a        	stx	$9a                     ; 0x209a <main+0x1b1b>
    55bb: b2 95        	lda	($95)                   ; 0x2095 <main+0x1b16>
    55bd: c9 25        	cmp	#$25
    55bf: f0 2b        	beq	$55ec <printf+0x9e>
    55c1: aa           	tax
    55c2: d0 03        	bne	$55c7 <printf+0x79>
    55c4: 4c 79 61     	jmp	$6179 <printf+0xc2b>
    55c7: 85 6f        	sta	$6f                     ; 0x206f <main+0x1af0>
    55c9: a2 6f        	ldx	#$6f
    55cb: 86 12        	stx	$12                     ; 0x2012 <main+0x1a93>
    55cd: a2 00        	ldx	#$0
    55cf: 86 13        	stx	$13                     ; 0x2013 <main+0x1a94>
    55d1: 20 35 40     	jsr	$4035 <textPrint>
    55d4: a0 01        	ldy	#$1
    55d6: e6 99        	inc	$99                     ; 0x2099 <main+0x1b1a>
    55d8: d0 02        	bne	$55dc <printf+0x8e>
    55da: e6 9a        	inc	$9a                     ; 0x209a <main+0x1b1b>
    55dc: e6 c8        	inc	$c8                     ; 0x20c8 <main+0x1b49>
    55de: d0 02        	bne	$55e2 <printf+0x94>
    55e0: e6 c9        	inc	$c9                     ; 0x20c9 <main+0x1b4a>
    55e2: a6 99        	ldx	$99                     ; 0x2099 <main+0x1b1a>
    55e4: 86 95        	stx	$95                     ; 0x2095 <main+0x1b16>
    55e6: a6 9a        	ldx	$9a                     ; 0x209a <main+0x1b1b>
    55e8: 86 96        	stx	$96                     ; 0x2096 <main+0x1b17>
    55ea: 80 c7        	bra	$55b3 <printf+0x65>
    55ec: a6 95        	ldx	$95                     ; 0x2095 <main+0x1b16>
    55ee: 86 12        	stx	$12                     ; 0x2012 <main+0x1a93>
    55f0: a6 96        	ldx	$96                     ; 0x2096 <main+0x1b17>
    55f2: 86 13        	stx	$13                     ; 0x2013 <main+0x1a94>
    55f4: e6 12        	inc	$12                     ; 0x2012 <main+0x1a93>
    55f6: d0 02        	bne	$55fa <printf+0xac>
    55f8: e6 13        	inc	$13                     ; 0x2013 <main+0x1a94>
    55fa: b1 99        	lda	($99),y                 ; 0x2099 <main+0x1b1a>
    55fc: c9 25        	cmp	#$25
    55fe: d0 16        	bne	$5616 <printf+0xc8>
    5600: a4 c8        	ldy	$c8                     ; 0x20c8 <main+0x1b49>
    5602: a5 c9        	lda	$c9                     ; 0x20c9 <main+0x1b4a>
    5604: c5 c7        	cmp	$c7                     ; 0x20c7 <main+0x1b48>
    5606: f0 03        	beq	$560b <printf+0xbd>
    5608: 4c 1d 57     	jmp	$571d <printf+0x1cf>
    560b: a6 c6        	ldx	$c6                     ; 0x20c6 <main+0x1b47>
    560d: 86 12        	stx	$12                     ; 0x2012 <main+0x1a93>
    560f: 84 13        	sty	$13                     ; 0x2013 <main+0x1a94>
    5611: c4 12        	cpy	$12                     ; 0x2012 <main+0x1a93>
    5613: 4c 21 57     	jmp	$5721 <printf+0x1d3>
    5616: 64 c4        	stz	$c4                     ; 0x20c4 <main+0x1b45>
    5618: 64 c5        	stz	$c5                     ; 0x20c5 <main+0x1b46>
    561a: 64 c3        	stz	$c3                     ; 0x20c3 <main+0x1b44>
    561c: 64 ce        	stz	$ce                     ; 0x20ce <main+0x1b4f>
    561e: 64 cf        	stz	$cf                     ; 0x20cf <main+0x1b50>
    5620: a2 ff        	ldx	#$ff
    5622: 86 d0        	stx	$d0                     ; 0x20d0 <main+0x1b51>
    5624: 86 d1        	stx	$d1                     ; 0x20d1 <main+0x1b52>
    5626: 64 94        	stz	$94                     ; 0x2094 <main+0x1b15>
    5628: 80 33        	bra	$565d <printf+0x10f>
    562a: a2 02        	ldx	#$2
    562c: 80 15        	bra	$5643 <printf+0xf5>
    562e: e0 20        	cpx	#$20
    5630: f0 15        	beq	$5647 <printf+0xf9>
    5632: 86 15        	stx	$15                     ; 0x2015 <main+0x1a96>
    5634: e0 23        	cpx	#$23
    5636: f0 03        	beq	$563b <printf+0xed>
    5638: 4c ba 56     	jmp	$56ba <printf+0x16c>
    563b: a5 94        	lda	$94                     ; 0x2094 <main+0x1b15>
    563d: a2 04        	ldx	#$4
    563f: 80 02        	bra	$5643 <printf+0xf5>
    5641: a2 10        	ldx	#$10
    5643: 86 14        	stx	$14                     ; 0x2014 <main+0x1a95>
    5645: 80 06        	bra	$564d <printf+0xff>
    5647: a2 08        	ldx	#$8
    5649: 86 14        	stx	$14                     ; 0x2014 <main+0x1a95>
    564b: a5 94        	lda	$94                     ; 0x2094 <main+0x1b15>
    564d: 05 14        	ora	$14                     ; 0x2014 <main+0x1a95>
    564f: 85 94        	sta	$94                     ; 0x2094 <main+0x1b15>
    5651: 85 c4        	sta	$c4                     ; 0x20c4 <main+0x1b45>
    5653: a2 00        	ldx	#$0
    5655: 86 c5        	stx	$c5                     ; 0x20c5 <main+0x1b46>
    5657: e6 12        	inc	$12                     ; 0x2012 <main+0x1a93>
    5659: d0 02        	bne	$565d <printf+0x10f>
    565b: e6 13        	inc	$13                     ; 0x2013 <main+0x1a94>
    565d: b2 12        	lda	($12)                   ; 0x2012 <main+0x1a93>
    565f: aa           	tax
    5660: 18           	clc
    5661: 69 d6        	adc	#$d6
    5663: c9 07        	cmp	#$7
    5665: b0 c7        	bcs	$562e <printf+0xe0>
    5667: 86 15        	stx	$15                     ; 0x2015 <main+0x1a96>
    5669: 0a           	asl
    566a: aa           	tax
    566b: a0 01        	ldy	#$1
    566d: 84 14        	sty	$14                     ; 0x2014 <main+0x1a95>
    566f: a5 94        	lda	$94                     ; 0x2094 <main+0x1b15>
    5671: 7c 5b 66     	jmp	($665b,x)               ; 0x665b <__set_v+0xb5>
    5674: a5 d4        	lda	$d4                     ; 0x20d4 <main+0x1b55>
    5676: a6 d5        	ldx	$d5                     ; 0x20d5 <main+0x1b56>
    5678: 85 16        	sta	$16                     ; 0x2016 <main+0x1a97>
    567a: 86 17        	stx	$17                     ; 0x2017 <main+0x1a98>
    567c: 18           	clc
    567d: 69 02        	adc	#$2
    567f: a8           	tay
    5680: 8a           	txa
    5681: 69 00        	adc	#$0
    5683: 84 d4        	sty	$d4                     ; 0x20d4 <main+0x1b55>
    5685: 85 d5        	sta	$d5                     ; 0x20d5 <main+0x1b56>
    5687: b2 16        	lda	($16)                   ; 0x2016 <main+0x1a97>
    5689: 85 15        	sta	$15                     ; 0x2015 <main+0x1a96>
    568b: a0 01        	ldy	#$1
    568d: b1 16        	lda	($16),y                 ; 0x2016 <main+0x1a97>
    568f: 85 14        	sta	$14                     ; 0x2014 <main+0x1a95>
    5691: 10 15        	bpl	$56a8 <printf+0x15a>
    5693: a5 94        	lda	$94                     ; 0x2094 <main+0x1b15>
    5695: 09 01        	ora	#$1
    5697: 85 94        	sta	$94                     ; 0x2094 <main+0x1b15>
    5699: 85 c4        	sta	$c4                     ; 0x20c4 <main+0x1b45>
    569b: a2 00        	ldx	#$0
    569d: 86 c5        	stx	$c5                     ; 0x20c5 <main+0x1b46>
    569f: 8a           	txa
    56a0: 38           	sec
    56a1: e5 15        	sbc	$15                     ; 0x2015 <main+0x1a96>
    56a3: 85 15        	sta	$15                     ; 0x2015 <main+0x1a96>
    56a5: 8a           	txa
    56a6: e5 14        	sbc	$14                     ; 0x2014 <main+0x1a95>
    56a8: a6 15        	ldx	$15                     ; 0x2015 <main+0x1a96>
    56aa: 86 ce        	stx	$ce                     ; 0x20ce <main+0x1b4f>
    56ac: 85 cf        	sta	$cf                     ; 0x20cf <main+0x1b50>
    56ae: e6 12        	inc	$12                     ; 0x2012 <main+0x1a93>
    56b0: f0 03        	beq	$56b5 <printf+0x167>
    56b2: 4c 79 57     	jmp	$5779 <printf+0x22b>
    56b5: e6 13        	inc	$13                     ; 0x2013 <main+0x1a94>
    56b7: 4c 79 57     	jmp	$5779 <printf+0x22b>
    56ba: a5 15        	lda	$15                     ; 0x2015 <main+0x1a96>
    56bc: 18           	clc
    56bd: 69 d0        	adc	#$d0
    56bf: c9 0a        	cmp	#$a
    56c1: 90 03        	bcc	$56c6 <printf+0x178>
    56c3: 4c 6b 57     	jmp	$576b <printf+0x21d>
    56c6: a6 15        	ldx	$15                     ; 0x2015 <main+0x1a96>
    56c8: 86 14        	stx	$14                     ; 0x2014 <main+0x1a95>
    56ca: 64 16        	stz	$16                     ; 0x2016 <main+0x1a97>
    56cc: 64 15        	stz	$15                     ; 0x2015 <main+0x1a96>
    56ce: 64 17        	stz	$17                     ; 0x2017 <main+0x1a98>
    56d0: a0 01        	ldy	#$1
    56d2: 06 16        	asl	$16                     ; 0x2016 <main+0x1a97>
    56d4: 26 17        	rol	$17                     ; 0x2017 <main+0x1a98>
    56d6: a5 16        	lda	$16                     ; 0x2016 <main+0x1a97>
    56d8: 0a           	asl
    56d9: aa           	tax
    56da: a5 17        	lda	$17                     ; 0x2017 <main+0x1a98>
    56dc: 2a           	rol
    56dd: 86 18        	stx	$18                     ; 0x2018 <main+0x1a99>
    56df: 06 18        	asl	$18                     ; 0x2018 <main+0x1a99>
    56e1: 2a           	rol
    56e2: aa           	tax
    56e3: a5 18        	lda	$18                     ; 0x2018 <main+0x1a99>
    56e5: 18           	clc
    56e6: 65 16        	adc	$16                     ; 0x2016 <main+0x1a97>
    56e8: 85 16        	sta	$16                     ; 0x2016 <main+0x1a97>
    56ea: 8a           	txa
    56eb: 65 17        	adc	$17                     ; 0x2017 <main+0x1a98>
    56ed: 85 17        	sta	$17                     ; 0x2017 <main+0x1a98>
    56ef: a5 16        	lda	$16                     ; 0x2016 <main+0x1a97>
    56f1: 18           	clc
    56f2: 65 14        	adc	$14                     ; 0x2014 <main+0x1a95>
    56f4: 85 14        	sta	$14                     ; 0x2014 <main+0x1a95>
    56f6: a5 17        	lda	$17                     ; 0x2017 <main+0x1a98>
    56f8: 65 15        	adc	$15                     ; 0x2015 <main+0x1a96>
    56fa: aa           	tax
    56fb: 18           	clc
    56fc: a5 14        	lda	$14                     ; 0x2014 <main+0x1a95>
    56fe: 69 d0        	adc	#$d0
    5700: 85 16        	sta	$16                     ; 0x2016 <main+0x1a97>
    5702: 8a           	txa
    5703: 69 ff        	adc	#$ff
    5705: 85 17        	sta	$17                     ; 0x2017 <main+0x1a98>
    5707: b1 12        	lda	($12),y                 ; 0x2012 <main+0x1a93>
    5709: 85 14        	sta	$14                     ; 0x2014 <main+0x1a95>
    570b: 18           	clc
    570c: 69 d0        	adc	#$d0
    570e: e6 12        	inc	$12                     ; 0x2012 <main+0x1a93>
    5710: d0 02        	bne	$5714 <printf+0x1c6>
    5712: e6 13        	inc	$13                     ; 0x2013 <main+0x1a94>
    5714: c9 0a        	cmp	#$a
    5716: 64 15        	stz	$15                     ; 0x2015 <main+0x1a96>
    5718: 90 b8        	bcc	$56d2 <printf+0x184>
    571a: 4c 71 57     	jmp	$5771 <printf+0x223>
    571d: 84 13        	sty	$13                     ; 0x2013 <main+0x1a94>
    571f: c5 c7        	cmp	$c7                     ; 0x20c7 <main+0x1b48>
    5721: a0 01        	ldy	#$1
    5723: b0 30        	bcs	$5755 <printf+0x207>
    5725: a6 d3        	ldx	$d3                     ; 0x20d3 <main+0x1b54>
    5727: e4 98        	cpx	$98                     ; 0x2098 <main+0x1b19>
    5729: d0 19        	bne	$5744 <printf+0x1f6>
    572b: a6 d2        	ldx	$d2                     ; 0x20d2 <main+0x1b53>
    572d: e4 97        	cpx	$97                     ; 0x2097 <main+0x1b18>
    572f: d0 13        	bne	$5744 <printf+0x1f6>
    5731: 18           	clc
    5732: aa           	tax
    5733: a5 13        	lda	$13                     ; 0x2013 <main+0x1a94>
    5735: 65 cc        	adc	$cc                     ; 0x20cc <main+0x1b4d>
    5737: 85 12        	sta	$12                     ; 0x2012 <main+0x1a93>
    5739: 8a           	txa
    573a: 65 cd        	adc	$cd                     ; 0x20cd <main+0x1b4e>
    573c: 85 13        	sta	$13                     ; 0x2013 <main+0x1a94>
    573e: a9 25        	lda	#$25
    5740: 92 12        	sta	($12)                   ; 0x2012 <main+0x1a93>
    5742: 80 11        	bra	$5755 <printf+0x207>
    5744: a2 25        	ldx	#$25
    5746: 86 6f        	stx	$6f                     ; 0x206f <main+0x1af0>
    5748: a2 6f        	ldx	#$6f
    574a: 86 12        	stx	$12                     ; 0x2012 <main+0x1a93>
    574c: a2 00        	ldx	#$0
    574e: 86 13        	stx	$13                     ; 0x2013 <main+0x1a94>
    5750: 20 35 40     	jsr	$4035 <textPrint>
    5753: a0 01        	ldy	#$1
    5755: e6 c8        	inc	$c8                     ; 0x20c8 <main+0x1b49>
    5757: d0 02        	bne	$575b <printf+0x20d>
    5759: e6 c9        	inc	$c9                     ; 0x20c9 <main+0x1b4a>
    575b: a5 99        	lda	$99                     ; 0x2099 <main+0x1b1a>
    575d: 18           	clc
    575e: 69 02        	adc	#$2
    5760: 85 95        	sta	$95                     ; 0x2095 <main+0x1b16>
    5762: a5 9a        	lda	$9a                     ; 0x209a <main+0x1b1b>
    5764: 69 00        	adc	#$0
    5766: 85 96        	sta	$96                     ; 0x2096 <main+0x1b17>
    5768: 4c b3 55     	jmp	$55b3 <printf+0x65>
    576b: 64 16        	stz	$16                     ; 0x2016 <main+0x1a97>
    576d: 64 17        	stz	$17                     ; 0x2017 <main+0x1a98>
    576f: a0 01        	ldy	#$1
    5771: a6 16        	ldx	$16                     ; 0x2016 <main+0x1a97>
    5773: 86 ce        	stx	$ce                     ; 0x20ce <main+0x1b4f>
    5775: a5 17        	lda	$17                     ; 0x2017 <main+0x1a98>
    5777: 85 cf        	sta	$cf                     ; 0x20cf <main+0x1b50>
    5779: 86 9d        	stx	$9d                     ; 0x209d <main+0x1b1e>
    577b: 85 9b        	sta	$9b                     ; 0x209b <main+0x1b1c>
    577d: b2 12        	lda	($12)                   ; 0x2012 <main+0x1a93>
    577f: a2 ff        	ldx	#$ff
    5781: c9 2e        	cmp	#$2e
    5783: d0 39        	bne	$57be <printf+0x270>
    5785: b1 12        	lda	($12),y                 ; 0x2012 <main+0x1a93>
    5787: c9 2a        	cmp	#$2a
    5789: d0 38        	bne	$57c3 <printf+0x275>
    578b: a5 d4        	lda	$d4                     ; 0x20d4 <main+0x1b55>
    578d: a6 d5        	ldx	$d5                     ; 0x20d5 <main+0x1b56>
    578f: 85 14        	sta	$14                     ; 0x2014 <main+0x1a95>
    5791: 86 15        	stx	$15                     ; 0x2015 <main+0x1a96>
    5793: 18           	clc
    5794: 69 02        	adc	#$2
    5796: 85 16        	sta	$16                     ; 0x2016 <main+0x1a97>
    5798: 8a           	txa
    5799: 69 00        	adc	#$0
    579b: a6 16        	ldx	$16                     ; 0x2016 <main+0x1a97>
    579d: 86 d4        	stx	$d4                     ; 0x20d4 <main+0x1b55>
    579f: 85 d5        	sta	$d5                     ; 0x20d5 <main+0x1b56>
    57a1: a5 12        	lda	$12                     ; 0x2012 <main+0x1a93>
    57a3: 18           	clc
    57a4: 69 02        	adc	#$2
    57a6: 85 12        	sta	$12                     ; 0x2012 <main+0x1a93>
    57a8: a5 13        	lda	$13                     ; 0x2013 <main+0x1a94>
    57aa: 69 00        	adc	#$0
    57ac: 85 13        	sta	$13                     ; 0x2013 <main+0x1a94>
    57ae: b2 14        	lda	($14)                   ; 0x2014 <main+0x1a95>
    57b0: aa           	tax
    57b1: b1 14        	lda	($14),y                 ; 0x2014 <main+0x1a95>
    57b3: 86 18        	stx	$18                     ; 0x2018 <main+0x1a99>
    57b5: 86 d0        	stx	$d0                     ; 0x20d0 <main+0x1b51>
    57b7: 85 19        	sta	$19                     ; 0x2019 <main+0x1a9a>
    57b9: 85 d1        	sta	$d1                     ; 0x20d1 <main+0x1b52>
    57bb: 4c 6e 58     	jmp	$586e <printf+0x320>
    57be: 86 18        	stx	$18                     ; 0x2018 <main+0x1a99>
    57c0: 4c 7e 58     	jmp	$587e <printf+0x330>
    57c3: 85 17        	sta	$17                     ; 0x2017 <main+0x1a98>
    57c5: 18           	clc
    57c6: 69 d0        	adc	#$d0
    57c8: c9 0a        	cmp	#$a
    57ca: 90 03        	bcc	$57cf <printf+0x281>
    57cc: 4c 60 58     	jmp	$5860 <printf+0x312>
    57cf: 64 16        	stz	$16                     ; 0x2016 <main+0x1a97>
    57d1: a2 01        	ldx	#$1
    57d3: 64 18        	stz	$18                     ; 0x2018 <main+0x1a99>
    57d5: 64 19        	stz	$19                     ; 0x2019 <main+0x1a9a>
    57d7: a0 01        	ldy	#$1
    57d9: 64 1a        	stz	$1a                     ; 0x201a <main+0x1a9b>
    57db: 5a           	phy
    57dc: a4 1a        	ldy	$1a                     ; 0x201a <main+0x1a9b>
    57de: 84 14        	sty	$14                     ; 0x2014 <main+0x1a95>
    57e0: 86 15        	stx	$15                     ; 0x2015 <main+0x1a96>
    57e2: 06 18        	asl	$18                     ; 0x2018 <main+0x1a99>
    57e4: 26 19        	rol	$19                     ; 0x2019 <main+0x1a9a>
    57e6: a5 18        	lda	$18                     ; 0x2018 <main+0x1a99>
    57e8: 0a           	asl
    57e9: 85 1d        	sta	$1d                     ; 0x201d <main+0x1a9e>
    57eb: a5 19        	lda	$19                     ; 0x2019 <main+0x1a9a>
    57ed: 2a           	rol
    57ee: 06 1d        	asl	$1d                     ; 0x201d <main+0x1a9e>
    57f0: 2a           	rol
    57f1: 85 1e        	sta	$1e                     ; 0x201e <main+0x1a9f>
    57f3: a5 1d        	lda	$1d                     ; 0x201d <main+0x1a9e>
    57f5: 18           	clc
    57f6: 65 18        	adc	$18                     ; 0x2018 <main+0x1a99>
    57f8: 85 18        	sta	$18                     ; 0x2018 <main+0x1a99>
    57fa: a5 1e        	lda	$1e                     ; 0x201e <main+0x1a9f>
    57fc: 65 19        	adc	$19                     ; 0x2019 <main+0x1a9a>
    57fe: 85 19        	sta	$19                     ; 0x2019 <main+0x1a9a>
    5800: a5 18        	lda	$18                     ; 0x2018 <main+0x1a99>
    5802: 18           	clc
    5803: 65 17        	adc	$17                     ; 0x2017 <main+0x1a98>
    5805: 85 17        	sta	$17                     ; 0x2017 <main+0x1a98>
    5807: a5 19        	lda	$19                     ; 0x2019 <main+0x1a9a>
    5809: 65 16        	adc	$16                     ; 0x2016 <main+0x1a97>
    580b: 85 16        	sta	$16                     ; 0x2016 <main+0x1a97>
    580d: 18           	clc
    580e: a5 17        	lda	$17                     ; 0x2017 <main+0x1a98>
    5810: 69 d0        	adc	#$d0
    5812: 85 18        	sta	$18                     ; 0x2018 <main+0x1a99>
    5814: a5 16        	lda	$16                     ; 0x2016 <main+0x1a97>
    5816: 69 ff        	adc	#$ff
    5818: 85 19        	sta	$19                     ; 0x2019 <main+0x1a9a>
    581a: e8           	inx
    581b: d0 02        	bne	$581f <printf+0x2d1>
    581d: e6 1a        	inc	$1a                     ; 0x201a <main+0x1a9b>
    581f: a5 12        	lda	$12                     ; 0x2012 <main+0x1a93>
    5821: 18           	clc
    5822: 65 15        	adc	$15                     ; 0x2015 <main+0x1a96>
    5824: 85 1d        	sta	$1d                     ; 0x201d <main+0x1a9e>
    5826: a5 13        	lda	$13                     ; 0x2013 <main+0x1a94>
    5828: 65 14        	adc	$14                     ; 0x2014 <main+0x1a95>
    582a: a4 1d        	ldy	$1d                     ; 0x201d <main+0x1a9e>
    582c: 84 16        	sty	$16                     ; 0x2016 <main+0x1a97>
    582e: 7a           	ply
    582f: 85 17        	sta	$17                     ; 0x2017 <main+0x1a98>
    5831: b1 16        	lda	($16),y                 ; 0x2016 <main+0x1a97>
    5833: 85 17        	sta	$17                     ; 0x2017 <main+0x1a98>
    5835: 18           	clc
    5836: 69 d0        	adc	#$d0
    5838: c9 0a        	cmp	#$a
    583a: 64 16        	stz	$16                     ; 0x2016 <main+0x1a97>
    583c: b0 03        	bcs	$5841 <printf+0x2f3>
    583e: 4c db 57     	jmp	$57db <printf+0x28d>
    5841: a5 12        	lda	$12                     ; 0x2012 <main+0x1a93>
    5843: 18           	clc
    5844: 65 15        	adc	$15                     ; 0x2015 <main+0x1a96>
    5846: 85 12        	sta	$12                     ; 0x2012 <main+0x1a93>
    5848: a5 13        	lda	$13                     ; 0x2013 <main+0x1a94>
    584a: 65 14        	adc	$14                     ; 0x2014 <main+0x1a95>
    584c: 85 13        	sta	$13                     ; 0x2013 <main+0x1a94>
    584e: e6 12        	inc	$12                     ; 0x2012 <main+0x1a93>
    5850: d0 02        	bne	$5854 <printf+0x306>
    5852: e6 13        	inc	$13                     ; 0x2013 <main+0x1a94>
    5854: a6 18        	ldx	$18                     ; 0x2018 <main+0x1a99>
    5856: 86 d0        	stx	$d0                     ; 0x20d0 <main+0x1b51>
    5858: a6 19        	ldx	$19                     ; 0x2019 <main+0x1a9a>
    585a: 86 d1        	stx	$d1                     ; 0x20d1 <main+0x1b52>
    585c: a0 01        	ldy	#$1
    585e: 80 0e        	bra	$586e <printf+0x320>
    5860: e6 12        	inc	$12                     ; 0x2012 <main+0x1a93>
    5862: d0 02        	bne	$5866 <printf+0x318>
    5864: e6 13        	inc	$13                     ; 0x2013 <main+0x1a94>
    5866: 64 18        	stz	$18                     ; 0x2018 <main+0x1a99>
    5868: 64 d0        	stz	$d0                     ; 0x20d0 <main+0x1b51>
    586a: 64 d1        	stz	$d1                     ; 0x20d1 <main+0x1b52>
    586c: 64 19        	stz	$19                     ; 0x2019 <main+0x1a9a>
    586e: a5 94        	lda	$94                     ; 0x2094 <main+0x1b15>
    5870: 29 ef        	and	#$ef
    5872: 85 94        	sta	$94                     ; 0x2094 <main+0x1b15>
    5874: 85 c4        	sta	$c4                     ; 0x20c4 <main+0x1b45>
    5876: a2 00        	ldx	#$0
    5878: 86 c5        	stx	$c5                     ; 0x20c5 <main+0x1b46>
    587a: b2 12        	lda	($12)                   ; 0x2012 <main+0x1a93>
    587c: a6 19        	ldx	$19                     ; 0x2019 <main+0x1a9a>
    587e: 86 15        	stx	$15                     ; 0x2015 <main+0x1a96>
    5880: a6 12        	ldx	$12                     ; 0x2012 <main+0x1a93>
    5882: 86 95        	stx	$95                     ; 0x2095 <main+0x1b16>
    5884: a6 13        	ldx	$13                     ; 0x2013 <main+0x1a94>
    5886: 86 96        	stx	$96                     ; 0x2096 <main+0x1b17>
    5888: e6 95        	inc	$95                     ; 0x2095 <main+0x1b16>
    588a: d0 02        	bne	$588e <printf+0x340>
    588c: e6 96        	inc	$96                     ; 0x2096 <main+0x1b17>
    588e: 85 14        	sta	$14                     ; 0x2014 <main+0x1a95>
    5890: 38           	sec
    5891: e9 6c        	sbc	#$6c
    5893: 50 02        	bvc	$5897 <printf+0x349>
    5895: 49 80        	eor	#$80
    5897: aa           	tax
    5898: 10 1d        	bpl	$58b7 <printf+0x369>
    589a: a5 14        	lda	$14                     ; 0x2014 <main+0x1a95>
    589c: c9 4c        	cmp	#$4c
    589e: f0 27        	beq	$58c7 <printf+0x379>
    58a0: c9 68        	cmp	#$68
    58a2: d0 03        	bne	$58a7 <printf+0x359>
    58a4: 4c 2e 59     	jmp	$592e <printf+0x3e0>
    58a7: a2 08        	ldx	#$8
    58a9: c9 6a        	cmp	#$6a
    58ab: d0 2e        	bne	$58db <printf+0x38d>
    58ad: a5 95        	lda	$95                     ; 0x2095 <main+0x1b16>
    58af: 85 12        	sta	$12                     ; 0x2012 <main+0x1a93>
    58b1: a5 96        	lda	$96                     ; 0x2096 <main+0x1b17>
    58b3: 85 13        	sta	$13                     ; 0x2013 <main+0x1a94>
    58b5: 80 43        	bra	$58fa <printf+0x3ac>
    58b7: a6 14        	ldx	$14                     ; 0x2014 <main+0x1a95>
    58b9: e0 6c        	cpx	#$6c
    58bb: f0 23        	beq	$58e0 <printf+0x392>
    58bd: e0 74        	cpx	#$74
    58bf: f0 12        	beq	$58d3 <printf+0x385>
    58c1: e0 7a        	cpx	#$7a
    58c3: f0 0e        	beq	$58d3 <printf+0x385>
    58c5: 80 14        	bra	$58db <printf+0x38d>
    58c7: a5 94        	lda	$94                     ; 0x2094 <main+0x1b15>
    58c9: 09 40        	ora	#$40
    58cb: 85 94        	sta	$94                     ; 0x2094 <main+0x1b15>
    58cd: 85 c4        	sta	$c4                     ; 0x20c4 <main+0x1b45>
    58cf: a2 00        	ldx	#$0
    58d1: 86 c5        	stx	$c5                     ; 0x20c5 <main+0x1b46>
    58d3: a6 95        	ldx	$95                     ; 0x2095 <main+0x1b16>
    58d5: 86 12        	stx	$12                     ; 0x2012 <main+0x1a93>
    58d7: a6 96        	ldx	$96                     ; 0x2096 <main+0x1b17>
    58d9: 86 13        	stx	$13                     ; 0x2013 <main+0x1a94>
    58db: a2 02        	ldx	#$2
    58dd: 8a           	txa
    58de: 80 1c        	bra	$58fc <printf+0x3ae>
    58e0: b1 12        	lda	($12),y                 ; 0x2012 <main+0x1a93>
    58e2: a2 04        	ldx	#$4
    58e4: c9 6c        	cmp	#$6c
    58e6: f0 03        	beq	$58eb <printf+0x39d>
    58e8: 4c 3d 5c     	jmp	$5c3d <printf+0x6ef>
    58eb: a5 12        	lda	$12                     ; 0x2012 <main+0x1a93>
    58ed: 18           	clc
    58ee: 69 02        	adc	#$2
    58f0: 85 12        	sta	$12                     ; 0x2012 <main+0x1a93>
    58f2: a5 13        	lda	$13                     ; 0x2013 <main+0x1a94>
    58f4: 69 00        	adc	#$0
    58f6: 85 13        	sta	$13                     ; 0x2013 <main+0x1a94>
    58f8: a2 08        	ldx	#$8
    58fa: a9 08        	lda	#$8
    58fc: 85 d9        	sta	$d9                     ; 0x20d9 <main+0x1b5a>
    58fe: b2 12        	lda	($12)                   ; 0x2012 <main+0x1a93>
    5900: 5a           	phy
    5901: a4 12        	ldy	$12                     ; 0x2012 <main+0x1a93>
    5903: 84 95        	sty	$95                     ; 0x2095 <main+0x1b16>
    5905: a4 13        	ldy	$13                     ; 0x2013 <main+0x1a94>
    5907: 84 96        	sty	$96                     ; 0x2096 <main+0x1b17>
    5909: 7a           	ply
    590a: 86 97        	stx	$97                     ; 0x2097 <main+0x1b18>
    590c: aa           	tax
    590d: 18           	clc
    590e: 69 9d        	adc	#$9d
    5910: c9 16        	cmp	#$16
    5912: b0 39        	bcs	$594d <printf+0x3ff>
    5914: 0a           	asl
    5915: aa           	tax
    5916: 7c 69 66     	jmp	($6669,x)               ; 0x6669 <__set_v+0xc3>
    5919: a6 15        	ldx	$15                     ; 0x2015 <main+0x1a96>
    591b: 86 dc        	stx	$dc                     ; 0x20dc <main+0x1b5d>
    591d: a6 18        	ldx	$18                     ; 0x2018 <main+0x1a99>
    591f: 86 dd        	stx	$dd                     ; 0x20dd <main+0x1b5e>
    5921: a0 0a        	ldy	#$a
    5923: a2 0a        	ldx	#$a
    5925: 86 d8        	stx	$d8                     ; 0x20d8 <main+0x1b59>
    5927: 84 c3        	sty	$c3                     ; 0x20c3 <main+0x1b44>
    5929: 64 9e        	stz	$9e                     ; 0x209e <main+0x1b1f>
    592b: 4c 4d 5a     	jmp	$5a4d <printf+0x4ff>
    592e: b1 12        	lda	($12),y                 ; 0x2012 <main+0x1a93>
    5930: a2 02        	ldx	#$2
    5932: c9 68        	cmp	#$68
    5934: f0 03        	beq	$5939 <printf+0x3eb>
    5936: 4c 43 5c     	jmp	$5c43 <printf+0x6f5>
    5939: a5 12        	lda	$12                     ; 0x2012 <main+0x1a93>
    593b: 18           	clc
    593c: 69 02        	adc	#$2
    593e: 85 12        	sta	$12                     ; 0x2012 <main+0x1a93>
    5940: a5 13        	lda	$13                     ; 0x2013 <main+0x1a94>
    5942: 69 00        	adc	#$0
    5944: 85 13        	sta	$13                     ; 0x2013 <main+0x1a94>
    5946: a2 01        	ldx	#$1
    5948: 86 d9        	stx	$d9                     ; 0x20d9 <main+0x1b5a>
    594a: e8           	inx
    594b: 80 b1        	bra	$58fe <printf+0x3b0>
    594d: e0 58        	cpx	#$58
    594f: f0 03        	beq	$5954 <printf+0x406>
    5951: 4c 35 61     	jmp	$6135 <printf+0xbe7>
    5954: a6 15        	ldx	$15                     ; 0x2015 <main+0x1a96>
    5956: 86 dc        	stx	$dc                     ; 0x20dc <main+0x1b5d>
    5958: a6 18        	ldx	$18                     ; 0x2018 <main+0x1a99>
    595a: 86 dd        	stx	$dd                     ; 0x20dd <main+0x1b5e>
    595c: a2 10        	ldx	#$10
    595e: 86 c3        	stx	$c3                     ; 0x20c3 <main+0x1b44>
    5960: a9 00        	lda	#$0
    5962: 09 01        	ora	#$1
    5964: a6 94        	ldx	$94                     ; 0x2094 <main+0x1b15>
    5966: 80 29        	bra	$5991 <printf+0x443>
    5968: a6 15        	ldx	$15                     ; 0x2015 <main+0x1a96>
    596a: 86 dc        	stx	$dc                     ; 0x20dc <main+0x1b5d>
    596c: a6 18        	ldx	$18                     ; 0x2018 <main+0x1a99>
    596e: 86 dd        	stx	$dd                     ; 0x20dd <main+0x1b5e>
    5970: a2 10        	ldx	#$10
    5972: 86 c3        	stx	$c3                     ; 0x20c3 <main+0x1b44>
    5974: a5 94        	lda	$94                     ; 0x2094 <main+0x1b15>
    5976: 09 84        	ora	#$84
    5978: 80 10        	bra	$598a <printf+0x43c>
    597a: a6 15        	ldx	$15                     ; 0x2015 <main+0x1a96>
    597c: 86 dc        	stx	$dc                     ; 0x20dc <main+0x1b5d>
    597e: a6 18        	ldx	$18                     ; 0x2018 <main+0x1a99>
    5980: 86 dd        	stx	$dd                     ; 0x20dd <main+0x1b5e>
    5982: a2 10        	ldx	#$10
    5984: 86 c3        	stx	$c3                     ; 0x20c3 <main+0x1b44>
    5986: a5 94        	lda	$94                     ; 0x2094 <main+0x1b15>
    5988: 09 80        	ora	#$80
    598a: aa           	tax
    598b: a9 00        	lda	#$0
    598d: 09 01        	ora	#$1
    598f: 86 94        	stx	$94                     ; 0x2094 <main+0x1b15>
    5991: 86 c4        	stx	$c4                     ; 0x20c4 <main+0x1b45>
    5993: 85 9e        	sta	$9e                     ; 0x209e <main+0x1b1f>
    5995: 85 c5        	sta	$c5                     ; 0x20c5 <main+0x1b46>
    5997: a2 10        	ldx	#$10
    5999: 86 d8        	stx	$d8                     ; 0x20d8 <main+0x1b59>
    599b: 4c 4d 5a     	jmp	$5a4d <printf+0x4ff>
    599e: a5 d4        	lda	$d4                     ; 0x20d4 <main+0x1b55>
    59a0: a6 d5        	ldx	$d5                     ; 0x20d5 <main+0x1b56>
    59a2: 85 12        	sta	$12                     ; 0x2012 <main+0x1a93>
    59a4: 86 13        	stx	$13                     ; 0x2013 <main+0x1a94>
    59a6: 18           	clc
    59a7: 69 02        	adc	#$2
    59a9: 85 14        	sta	$14                     ; 0x2014 <main+0x1a95>
    59ab: 8a           	txa
    59ac: 69 00        	adc	#$0
    59ae: a6 14        	ldx	$14                     ; 0x2014 <main+0x1a95>
    59b0: 86 d4        	stx	$d4                     ; 0x20d4 <main+0x1b55>
    59b2: 85 d5        	sta	$d5                     ; 0x20d5 <main+0x1b56>
    59b4: b2 12        	lda	($12)                   ; 0x2012 <main+0x1a93>
    59b6: aa           	tax
    59b7: b1 12        	lda	($12),y                 ; 0x2012 <main+0x1a93>
    59b9: 86 12        	stx	$12                     ; 0x2012 <main+0x1a93>
    59bb: 85 13        	sta	$13                     ; 0x2013 <main+0x1a94>
    59bd: a5 c8        	lda	$c8                     ; 0x20c8 <main+0x1b49>
    59bf: a6 c9        	ldx	$c9                     ; 0x20c9 <main+0x1b4a>
    59c1: 92 12        	sta	($12)                   ; 0x2012 <main+0x1a93>
    59c3: 8a           	txa
    59c4: 91 12        	sta	($12),y                 ; 0x2012 <main+0x1a93>
    59c6: 4c 26 5a     	jmp	$5a26 <printf+0x4d8>
    59c9: a5 d4        	lda	$d4                     ; 0x20d4 <main+0x1b55>
    59cb: a6 d5        	ldx	$d5                     ; 0x20d5 <main+0x1b56>
    59cd: 85 12        	sta	$12                     ; 0x2012 <main+0x1a93>
    59cf: 86 13        	stx	$13                     ; 0x2013 <main+0x1a94>
    59d1: 18           	clc
    59d2: 69 02        	adc	#$2
    59d4: 85 14        	sta	$14                     ; 0x2014 <main+0x1a95>
    59d6: 8a           	txa
    59d7: 69 00        	adc	#$0
    59d9: a6 14        	ldx	$14                     ; 0x2014 <main+0x1a95>
    59db: 86 d4        	stx	$d4                     ; 0x20d4 <main+0x1b55>
    59dd: 85 d5        	sta	$d5                     ; 0x20d5 <main+0x1b56>
    59df: b2 12        	lda	($12)                   ; 0x2012 <main+0x1a93>
    59e1: aa           	tax
    59e2: b1 12        	lda	($12),y                 ; 0x2012 <main+0x1a93>
    59e4: 86 12        	stx	$12                     ; 0x2012 <main+0x1a93>
    59e6: 85 13        	sta	$13                     ; 0x2013 <main+0x1a94>
    59e8: 80 2f        	bra	$5a19 <printf+0x4cb>
    59ea: a6 15        	ldx	$15                     ; 0x2015 <main+0x1a96>
    59ec: 86 dc        	stx	$dc                     ; 0x20dc <main+0x1b5d>
    59ee: a6 18        	ldx	$18                     ; 0x2018 <main+0x1a99>
    59f0: 86 dd        	stx	$dd                     ; 0x20dd <main+0x1b5e>
    59f2: a0 08        	ldy	#$8
    59f4: a2 08        	ldx	#$8
    59f6: 80 45        	bra	$5a3d <printf+0x4ef>
    59f8: a5 d4        	lda	$d4                     ; 0x20d4 <main+0x1b55>
    59fa: a6 d5        	ldx	$d5                     ; 0x20d5 <main+0x1b56>
    59fc: 85 12        	sta	$12                     ; 0x2012 <main+0x1a93>
    59fe: 86 13        	stx	$13                     ; 0x2013 <main+0x1a94>
    5a00: 18           	clc
    5a01: 69 02        	adc	#$2
    5a03: a8           	tay
    5a04: 8a           	txa
    5a05: 69 00        	adc	#$0
    5a07: 84 d4        	sty	$d4                     ; 0x20d4 <main+0x1b55>
    5a09: 85 d5        	sta	$d5                     ; 0x20d5 <main+0x1b56>
    5a0b: b2 12        	lda	($12)                   ; 0x2012 <main+0x1a93>
    5a0d: 85 b6        	sta	$b6                     ; 0x20b6 <main+0x1b37>
    5a0f: 64 b7        	stz	$b7                     ; 0x20b7 <main+0x1b38>
    5a11: a2 b6        	ldx	#$b6
    5a13: 86 12        	stx	$12                     ; 0x2012 <main+0x1a93>
    5a15: a2 00        	ldx	#$0
    5a17: 86 13        	stx	$13                     ; 0x2013 <main+0x1a94>
    5a19: a2 c3        	ldx	#$c3
    5a1b: 86 14        	stx	$14                     ; 0x2014 <main+0x1a95>
    5a1d: a2 00        	ldx	#$0
    5a1f: 86 15        	stx	$15                     ; 0x2015 <main+0x1a96>
    5a21: 20 42 54     	jsr	$5442 <_ZN12_GLOBAL__N_112print_stringEPKcP6Status>
    5a24: a0 01        	ldy	#$1
    5a26: a2 00        	ldx	#$0
    5a28: 86 97        	stx	$97                     ; 0x2097 <main+0x1b18>
    5a2a: a2 00        	ldx	#$0
    5a2c: 86 98        	stx	$98                     ; 0x2098 <main+0x1b19>
    5a2e: 4c 1d 61     	jmp	$611d <printf+0xbcf>
    5a31: a6 15        	ldx	$15                     ; 0x2015 <main+0x1a96>
    5a33: 86 dc        	stx	$dc                     ; 0x20dc <main+0x1b5d>
    5a35: a6 18        	ldx	$18                     ; 0x2018 <main+0x1a99>
    5a37: 86 dd        	stx	$dd                     ; 0x20dd <main+0x1b5e>
    5a39: a0 0a        	ldy	#$a
    5a3b: a2 0a        	ldx	#$a
    5a3d: 86 d8        	stx	$d8                     ; 0x20d8 <main+0x1b59>
    5a3f: 84 c3        	sty	$c3                     ; 0x20c3 <main+0x1b44>
    5a41: a9 00        	lda	#$0
    5a43: 09 01        	ora	#$1
    5a45: a6 94        	ldx	$94                     ; 0x2094 <main+0x1b15>
    5a47: 86 c4        	stx	$c4                     ; 0x20c4 <main+0x1b45>
    5a49: 85 9e        	sta	$9e                     ; 0x209e <main+0x1b1f>
    5a4b: 85 c5        	sta	$c5                     ; 0x20c5 <main+0x1b46>
    5a4d: a5 d9        	lda	$d9                     ; 0x20d9 <main+0x1b5a>
    5a4f: 85 b8        	sta	$b8                     ; 0x20b8 <main+0x1b39>
    5a51: a4 d4        	ldy	$d4                     ; 0x20d4 <main+0x1b55>
    5a53: a6 d5        	ldx	$d5                     ; 0x20d5 <main+0x1b56>
    5a55: 86 9c        	stx	$9c                     ; 0x209c <main+0x1b1d>
    5a57: 84 14        	sty	$14                     ; 0x2014 <main+0x1a95>
    5a59: 84 93        	sty	$93                     ; 0x2093 <main+0x1b14>
    5a5b: 86 15        	stx	$15                     ; 0x2015 <main+0x1a96>
    5a5d: a6 da        	ldx	$da                     ; 0x20da <main+0x1b5b>
    5a5f: 86 12        	stx	$12                     ; 0x2012 <main+0x1a93>
    5a61: a6 db        	ldx	$db                     ; 0x20db <main+0x1b5c>
    5a63: 86 13        	stx	$13                     ; 0x2013 <main+0x1a94>
    5a65: a2 00        	ldx	#$0
    5a67: 85 98        	sta	$98                     ; 0x2098 <main+0x1b19>
    5a69: 20 49 63     	jsr	$6349 <memcpy>
    5a6c: 18           	clc
    5a6d: a5 93        	lda	$93                     ; 0x2093 <main+0x1b14>
    5a6f: 65 97        	adc	$97                     ; 0x2097 <main+0x1b18>
    5a71: aa           	tax
    5a72: a5 9c        	lda	$9c                     ; 0x209c <main+0x1b1d>
    5a74: 69 00        	adc	#$0
    5a76: 86 d4        	stx	$d4                     ; 0x20d4 <main+0x1b55>
    5a78: 85 d5        	sta	$d5                     ; 0x20d5 <main+0x1b56>
    5a7a: a5 9e        	lda	$9e                     ; 0x209e <main+0x1b1f>
    5a7c: 29 01        	and	#$1
    5a7e: b8           	clv
    5a7f: f0 03        	beq	$5a84 <printf+0x536>
    5a81: 4c d8 5a     	jmp	$5ad8 <printf+0x58a>
    5a84: a6 98        	ldx	$98                     ; 0x2098 <main+0x1b19>
    5a86: b5 b8        	lda	$b8,x                   ; 0x20b8 <main+0x1b39>
    5a88: aa           	tax
    5a89: a0 01        	ldy	#$1
    5a8b: a5 9b        	lda	$9b                     ; 0x209b <main+0x1b1c>
    5a8d: 85 1a        	sta	$1a                     ; 0x201a <main+0x1a9b>
    5a8f: a5 dd        	lda	$dd                     ; 0x20dd <main+0x1b5e>
    5a91: 85 9b        	sta	$9b                     ; 0x209b <main+0x1b1c>
    5a93: a9 00        	lda	#$0
    5a95: 85 97        	sta	$97                     ; 0x2097 <main+0x1b18>
    5a97: a9 00        	lda	#$0
    5a99: 85 98        	sta	$98                     ; 0x2098 <main+0x1b19>
    5a9b: a5 dc        	lda	$dc                     ; 0x20dc <main+0x1b5d>
    5a9d: 85 9c        	sta	$9c                     ; 0x209c <main+0x1b1d>
    5a9f: 8a           	txa
    5aa0: 10 4c        	bpl	$5aee <printf+0x5a0>
    5aa2: a2 00        	ldx	#$0
    5aa4: 64 12        	stz	$12                     ; 0x2012 <main+0x1a93>
    5aa6: a9 00        	lda	#$0
    5aa8: 38           	sec
    5aa9: f5 b9        	sbc	$b9,x                   ; 0x20b9 <main+0x1b3a>
    5aab: a0 00        	ldy	#$0
    5aad: b0 02        	bcs	$5ab1 <printf+0x563>
    5aaf: a0 01        	ldy	#$1
    5ab1: 38           	sec
    5ab2: e5 12        	sbc	$12                     ; 0x2012 <main+0x1a93>
    5ab4: 85 13        	sta	$13                     ; 0x2013 <main+0x1a94>
    5ab6: 64 12        	stz	$12                     ; 0x2012 <main+0x1a93>
    5ab8: b0 04        	bcs	$5abe <printf+0x570>
    5aba: a9 01        	lda	#$1
    5abc: 85 12        	sta	$12                     ; 0x2012 <main+0x1a93>
    5abe: 98           	tya
    5abf: 05 12        	ora	$12                     ; 0x2012 <main+0x1a93>
    5ac1: 85 12        	sta	$12                     ; 0x2012 <main+0x1a93>
    5ac3: a5 13        	lda	$13                     ; 0x2013 <main+0x1a94>
    5ac5: 9d b9 00     	sta	$b9,x                   ; 0xb9 <__zp_bss_size+0x87>
    5ac8: e8           	inx
    5ac9: 86 13        	stx	$13                     ; 0x2013 <main+0x1a94>
    5acb: a4 d9        	ldy	$d9                     ; 0x20d9 <main+0x1b5a>
    5acd: c4 13        	cpy	$13                     ; 0x2013 <main+0x1a94>
    5acf: d0 d5        	bne	$5aa6 <printf+0x558>
    5ad1: 2c a6 65     	bit	$65a6                   ; 0x65a6 <__set_v>
    5ad4: a0 01        	ldy	#$1
    5ad6: 80 16        	bra	$5aee <printf+0x5a0>
    5ad8: a0 01        	ldy	#$1
    5ada: a6 9b        	ldx	$9b                     ; 0x209b <main+0x1b1c>
    5adc: 86 1a        	stx	$1a                     ; 0x201a <main+0x1a9b>
    5ade: a6 dd        	ldx	$dd                     ; 0x20dd <main+0x1b5e>
    5ae0: 86 9b        	stx	$9b                     ; 0x209b <main+0x1b1c>
    5ae2: a2 00        	ldx	#$0
    5ae4: 86 97        	stx	$97                     ; 0x2097 <main+0x1b18>
    5ae6: a2 00        	ldx	#$0
    5ae8: 86 98        	stx	$98                     ; 0x2098 <main+0x1b19>
    5aea: a6 dc        	ldx	$dc                     ; 0x20dc <main+0x1b5d>
    5aec: 86 9c        	stx	$9c                     ; 0x209c <main+0x1b1d>
    5aee: a2 01        	ldx	#$1
    5af0: 70 02        	bvs	$5af4 <printf+0x5a6>
    5af2: a2 00        	ldx	#$0
    5af4: 86 16        	stx	$16                     ; 0x2016 <main+0x1a97>
    5af6: a5 d9        	lda	$d9                     ; 0x20d9 <main+0x1b5a>
    5af8: 0a           	asl
    5af9: 0a           	asl
    5afa: 0a           	asl
    5afb: 85 12        	sta	$12                     ; 0x2012 <main+0x1a93>
    5afd: a2 00        	ldx	#$0
    5aff: 8a           	txa
    5b00: e0 00        	cpx	#$0
    5b02: d0 03        	bne	$5b07 <printf+0x5b9>
    5b04: 4c 8c 5b     	jmp	$5b8c <printf+0x63e>
    5b07: 85 17        	sta	$17                     ; 0x2017 <main+0x1a98>
    5b09: 86 93        	stx	$93                     ; 0x2093 <main+0x1b14>
    5b0b: ca           	dex
    5b0c: 86 15        	stx	$15                     ; 0x2015 <main+0x1a96>
    5b0e: a2 00        	ldx	#$0
    5b10: 64 13        	stz	$13                     ; 0x2013 <main+0x1a94>
    5b12: 80 0d        	bra	$5b21 <printf+0x5d3>
    5b14: a4 13        	ldy	$13                     ; 0x2013 <main+0x1a94>
    5b16: 99 a1 00     	sta	$a1,y                   ; 0xa1 <__zp_bss_size+0x6f>
    5b19: a4 15        	ldy	$15                     ; 0x2015 <main+0x1a96>
    5b1b: c4 13        	cpy	$13                     ; 0x2013 <main+0x1a94>
    5b1d: f0 38        	beq	$5b57 <printf+0x609>
    5b1f: e6 13        	inc	$13                     ; 0x2013 <main+0x1a94>
    5b21: a4 13        	ldy	$13                     ; 0x2013 <main+0x1a94>
    5b23: b9 a1 00     	lda	$a1,y                   ; 0xa1 <__zp_bss_size+0x6f>
    5b26: 0a           	asl
    5b27: e0 00        	cpx	#$0
    5b29: f0 02        	beq	$5b2d <printf+0x5df>
    5b2b: 09 01        	ora	#$1
    5b2d: a4 d8        	ldy	$d8                     ; 0x20d8 <main+0x1b59>
    5b2f: 84 14        	sty	$14                     ; 0x2014 <main+0x1a95>
    5b31: c5 14        	cmp	$14                     ; 0x2014 <main+0x1a95>
    5b33: a2 01        	ldx	#$1
    5b35: b0 02        	bcs	$5b39 <printf+0x5eb>
    5b37: a2 00        	ldx	#$0
    5b39: 90 d9        	bcc	$5b14 <printf+0x5c6>
    5b3b: 84 14        	sty	$14                     ; 0x2014 <main+0x1a95>
    5b3d: 38           	sec
    5b3e: e5 14        	sbc	$14                     ; 0x2014 <main+0x1a95>
    5b40: a4 13        	ldy	$13                     ; 0x2013 <main+0x1a94>
    5b42: 99 a1 00     	sta	$a1,y                   ; 0xa1 <__zp_bss_size+0x6f>
    5b45: a4 15        	ldy	$15                     ; 0x2015 <main+0x1a96>
    5b47: c4 13        	cpy	$13                     ; 0x2013 <main+0x1a94>
    5b49: d0 d4        	bne	$5b1f <printf+0x5d1>
    5b4b: a4 93        	ldy	$93                     ; 0x2093 <main+0x1b14>
    5b4d: a6 93        	ldx	$93                     ; 0x2093 <main+0x1b14>
    5b4f: e8           	inx
    5b50: a9 01        	lda	#$1
    5b52: 99 a1 00     	sta	$a1,y                   ; 0xa1 <__zp_bss_size+0x6f>
    5b55: 86 93        	stx	$93                     ; 0x2093 <main+0x1b14>
    5b57: a6 d9        	ldx	$d9                     ; 0x20d9 <main+0x1b5a>
    5b59: b5 b8        	lda	$b8,x                   ; 0x20b8 <main+0x1b39>
    5b5b: aa           	tax
    5b5c: a0 01        	ldy	#$1
    5b5e: 8a           	txa
    5b5f: 10 47        	bpl	$5ba8 <printf+0x65a>
    5b61: a5 93        	lda	$93                     ; 0x2093 <main+0x1b14>
    5b63: f0 34        	beq	$5b99 <printf+0x64b>
    5b65: a2 00        	ldx	#$0
    5b67: a4 d8        	ldy	$d8                     ; 0x20d8 <main+0x1b59>
    5b69: 84 14        	sty	$14                     ; 0x2014 <main+0x1a95>
    5b6b: b5 a1        	lda	$a1,x                   ; 0x20a1 <main+0x1b22>
    5b6d: 1a           	inc
    5b6e: f6 a1        	inc	$a1,x                   ; 0x20a1 <main+0x1b22>
    5b70: c5 14        	cmp	$14                     ; 0x2014 <main+0x1a95>
    5b72: b0 03        	bcs	$5b77 <printf+0x629>
    5b74: 4c d3 5b     	jmp	$5bd3 <printf+0x685>
    5b77: a4 14        	ldy	$14                     ; 0x2014 <main+0x1a95>
    5b79: 84 13        	sty	$13                     ; 0x2013 <main+0x1a94>
    5b7b: 38           	sec
    5b7c: e5 13        	sbc	$13                     ; 0x2013 <main+0x1a94>
    5b7e: 9d a1 00     	sta	$a1,x                   ; 0xa1 <__zp_bss_size+0x6f>
    5b81: e8           	inx
    5b82: 86 13        	stx	$13                     ; 0x2013 <main+0x1a94>
    5b84: a4 93        	ldy	$93                     ; 0x2093 <main+0x1b14>
    5b86: c4 13        	cpy	$13                     ; 0x2013 <main+0x1a94>
    5b88: d0 e1        	bne	$5b6b <printf+0x61d>
    5b8a: 80 0f        	bra	$5b9b <printf+0x64d>
    5b8c: 85 17        	sta	$17                     ; 0x2017 <main+0x1a98>
    5b8e: a6 d9        	ldx	$d9                     ; 0x20d9 <main+0x1b5a>
    5b90: b5 b8        	lda	$b8,x                   ; 0x20b8 <main+0x1b39>
    5b92: aa           	tax
    5b93: 64 93        	stz	$93                     ; 0x2093 <main+0x1b14>
    5b95: 30 04        	bmi	$5b9b <printf+0x64d>
    5b97: 80 0f        	bra	$5ba8 <printf+0x65a>
    5b99: 64 93        	stz	$93                     ; 0x2093 <main+0x1b14>
    5b9b: a4 93        	ldy	$93                     ; 0x2093 <main+0x1b14>
    5b9d: a6 93        	ldx	$93                     ; 0x2093 <main+0x1b14>
    5b9f: e8           	inx
    5ba0: a9 01        	lda	#$1
    5ba2: 99 a1 00     	sta	$a1,y                   ; 0xa1 <__zp_bss_size+0x6f>
    5ba5: a8           	tay
    5ba6: 86 93        	stx	$93                     ; 0x2093 <main+0x1b14>
    5ba8: a2 01        	ldx	#$1
    5baa: 64 13        	stz	$13                     ; 0x2013 <main+0x1a94>
    5bac: a5 d9        	lda	$d9                     ; 0x20d9 <main+0x1b5a>
    5bae: 85 14        	sta	$14                     ; 0x2014 <main+0x1a95>
    5bb0: b5 b8        	lda	$b8,x                   ; 0x20b8 <main+0x1b39>
    5bb2: 0a           	asl
    5bb3: 64 15        	stz	$15                     ; 0x2015 <main+0x1a96>
    5bb5: 26 15        	rol	$15                     ; 0x2015 <main+0x1a96>
    5bb7: 05 13        	ora	$13                     ; 0x2013 <main+0x1a94>
    5bb9: 9d b8 00     	sta	$b8,x                   ; 0xb8 <__zp_bss_size+0x86>
    5bbc: e8           	inx
    5bbd: c6 14        	dec	$14                     ; 0x2014 <main+0x1a95>
    5bbf: a5 15        	lda	$15                     ; 0x2015 <main+0x1a96>
    5bc1: 85 13        	sta	$13                     ; 0x2013 <main+0x1a94>
    5bc3: a5 14        	lda	$14                     ; 0x2014 <main+0x1a95>
    5bc5: d0 e9        	bne	$5bb0 <printf+0x662>
    5bc7: a5 17        	lda	$17                     ; 0x2017 <main+0x1a98>
    5bc9: 1a           	inc
    5bca: c5 12        	cmp	$12                     ; 0x2012 <main+0x1a93>
    5bcc: a6 93        	ldx	$93                     ; 0x2093 <main+0x1b14>
    5bce: b0 07        	bcs	$5bd7 <printf+0x689>
    5bd0: 4c 00 5b     	jmp	$5b00 <printf+0x5b2>
    5bd3: a0 01        	ldy	#$1
    5bd5: 80 d1        	bra	$5ba8 <printf+0x65a>
    5bd7: a5 94        	lda	$94                     ; 0x2094 <main+0x1b15>
    5bd9: e6 9c        	inc	$9c                     ; 0x209c <main+0x1b1d>
    5bdb: c6 9c        	dec	$9c                     ; 0x209c <main+0x1b1d>
    5bdd: 10 08        	bpl	$5be7 <printf+0x699>
    5bdf: a2 01        	ldx	#$1
    5be1: 64 9c        	stz	$9c                     ; 0x209c <main+0x1b1d>
    5be3: 86 9b        	stx	$9b                     ; 0x209b <main+0x1b1c>
    5be5: a6 93        	ldx	$93                     ; 0x2093 <main+0x1b14>
    5be7: 29 04        	and	#$4
    5be9: f0 2b        	beq	$5c16 <printf+0x6c8>
    5beb: a5 d8        	lda	$d8                     ; 0x20d8 <main+0x1b59>
    5bed: c9 10        	cmp	#$10
    5bef: f0 14        	beq	$5c05 <printf+0x6b7>
    5bf1: c9 08        	cmp	#$8
    5bf3: d0 21        	bne	$5c16 <printf+0x6c8>
    5bf5: a2 00        	ldx	#$0
    5bf7: e4 9c        	cpx	$9c                     ; 0x209c <main+0x1b1d>
    5bf9: f0 03        	beq	$5bfe <printf+0x6b0>
    5bfb: 4c 42 61     	jmp	$6142 <printf+0xbf4>
    5bfe: a6 93        	ldx	$93                     ; 0x2093 <main+0x1b14>
    5c00: e4 9b        	cpx	$9b                     ; 0x209b <main+0x1b1c>
    5c02: 4c 44 61     	jmp	$6144 <printf+0xbf6>
    5c05: 8a           	txa
    5c06: f0 0e        	beq	$5c16 <printf+0x6c8>
    5c08: a5 94        	lda	$94                     ; 0x2094 <main+0x1b15>
    5c0a: 29 80        	and	#$80
    5c0c: d0 03        	bne	$5c11 <printf+0x6c3>
    5c0e: 4c 5d 61     	jmp	$615d <printf+0xc0f>
    5c11: a2 78        	ldx	#$78
    5c13: 4c 5f 61     	jmp	$615f <printf+0xc11>
    5c16: a6 94        	ldx	$94                     ; 0x2094 <main+0x1b15>
    5c18: a9 2d        	lda	#$2d
    5c1a: 85 dc        	sta	$dc                     ; 0x20dc <main+0x1b5d>
    5c1c: a5 16        	lda	$16                     ; 0x2016 <main+0x1a97>
    5c1e: d0 32        	bne	$5c52 <printf+0x704>
    5c20: 86 12        	stx	$12                     ; 0x2012 <main+0x1a93>
    5c22: 8a           	txa
    5c23: 29 02        	and	#$2
    5c25: a2 2b        	ldx	#$2b
    5c27: 86 dc        	stx	$dc                     ; 0x20dc <main+0x1b5d>
    5c29: aa           	tax
    5c2a: d0 26        	bne	$5c52 <printf+0x704>
    5c2c: a5 12        	lda	$12                     ; 0x2012 <main+0x1a93>
    5c2e: 29 08        	and	#$8
    5c30: d0 1c        	bne	$5c4e <printf+0x700>
    5c32: a2 01        	ldx	#$1
    5c34: 86 d9        	stx	$d9                     ; 0x20d9 <main+0x1b5a>
    5c36: a9 00        	lda	#$0
    5c38: aa           	tax
    5c39: 86 d8        	stx	$d8                     ; 0x20d8 <main+0x1b59>
    5c3b: 80 1c        	bra	$5c59 <printf+0x70b>
    5c3d: 85 12        	sta	$12                     ; 0x2012 <main+0x1a93>
    5c3f: a9 04        	lda	#$4
    5c41: 80 04        	bra	$5c47 <printf+0x6f9>
    5c43: 85 12        	sta	$12                     ; 0x2012 <main+0x1a93>
    5c45: a9 02        	lda	#$2
    5c47: 85 d9        	sta	$d9                     ; 0x20d9 <main+0x1b5a>
    5c49: a5 12        	lda	$12                     ; 0x2012 <main+0x1a93>
    5c4b: 4c 0a 59     	jmp	$590a <printf+0x3bc>
    5c4e: a2 20        	ldx	#$20
    5c50: 86 dc        	stx	$dc                     ; 0x20dc <main+0x1b5d>
    5c52: a2 00        	ldx	#$0
    5c54: 86 d9        	stx	$d9                     ; 0x20d9 <main+0x1b5a>
    5c56: 86 d8        	stx	$d8                     ; 0x20d8 <main+0x1b59>
    5c58: 98           	tya
    5c59: a6 9c        	ldx	$9c                     ; 0x209c <main+0x1b1d>
    5c5b: d0 35        	bne	$5c92 <printf+0x744>
    5c5d: a6 9b        	ldx	$9b                     ; 0x209b <main+0x1b1c>
    5c5f: a4 93        	ldy	$93                     ; 0x2093 <main+0x1b14>
    5c61: 84 12        	sty	$12                     ; 0x2012 <main+0x1a93>
    5c63: e4 12        	cpx	$12                     ; 0x2012 <main+0x1a93>
    5c65: a6 9b        	ldx	$9b                     ; 0x209b <main+0x1b1c>
    5c67: 86 12        	stx	$12                     ; 0x2012 <main+0x1a93>
    5c69: a6 9c        	ldx	$9c                     ; 0x209c <main+0x1b1d>
    5c6b: 86 13        	stx	$13                     ; 0x2013 <main+0x1a94>
    5c6d: b0 04        	bcs	$5c73 <printf+0x725>
    5c6f: 84 12        	sty	$12                     ; 0x2012 <main+0x1a93>
    5c71: 64 13        	stz	$13                     ; 0x2013 <main+0x1a94>
    5c73: 85 18        	sta	$18                     ; 0x2018 <main+0x1a99>
    5c75: 18           	clc
    5c76: 65 12        	adc	$12                     ; 0x2012 <main+0x1a93>
    5c78: 85 16        	sta	$16                     ; 0x2016 <main+0x1a97>
    5c7a: 85 14        	sta	$14                     ; 0x2014 <main+0x1a95>
    5c7c: a5 13        	lda	$13                     ; 0x2013 <main+0x1a94>
    5c7e: 69 00        	adc	#$0
    5c80: 85 15        	sta	$15                     ; 0x2015 <main+0x1a96>
    5c82: c5 1a        	cmp	$1a                     ; 0x201a <main+0x1a9b>
    5c84: d0 1e        	bne	$5ca4 <printf+0x756>
    5c86: a6 1a        	ldx	$1a                     ; 0x201a <main+0x1a9b>
    5c88: 86 17        	stx	$17                     ; 0x2017 <main+0x1a98>
    5c8a: a6 9d        	ldx	$9d                     ; 0x209d <main+0x1b1e>
    5c8c: a5 16        	lda	$16                     ; 0x2016 <main+0x1a97>
    5c8e: c5 9d        	cmp	$9d                     ; 0x209d <main+0x1b1e>
    5c90: 80 1c        	bra	$5cae <printf+0x760>
    5c92: a6 9c        	ldx	$9c                     ; 0x209c <main+0x1b1d>
    5c94: e0 00        	cpx	#$0
    5c96: a6 9b        	ldx	$9b                     ; 0x209b <main+0x1b1c>
    5c98: 86 12        	stx	$12                     ; 0x2012 <main+0x1a93>
    5c9a: a6 9c        	ldx	$9c                     ; 0x209c <main+0x1b1d>
    5c9c: 86 13        	stx	$13                     ; 0x2013 <main+0x1a94>
    5c9e: a4 93        	ldy	$93                     ; 0x2093 <main+0x1b14>
    5ca0: 90 cd        	bcc	$5c6f <printf+0x721>
    5ca2: 80 cf        	bra	$5c73 <printf+0x725>
    5ca4: a6 9d        	ldx	$9d                     ; 0x209d <main+0x1b1e>
    5ca6: 5a           	phy
    5ca7: a4 1a        	ldy	$1a                     ; 0x201a <main+0x1a9b>
    5ca9: 84 17        	sty	$17                     ; 0x2017 <main+0x1a98>
    5cab: 7a           	ply
    5cac: c5 1a        	cmp	$1a                     ; 0x201a <main+0x1a9b>
    5cae: 64 9e        	stz	$9e                     ; 0x209e <main+0x1b1f>
    5cb0: 64 9d        	stz	$9d                     ; 0x209d <main+0x1b1e>
    5cb2: 90 03        	bcc	$5cb7 <printf+0x769>
    5cb4: 4c 58 5d     	jmp	$5d58 <printf+0x80a>
    5cb7: a5 94        	lda	$94                     ; 0x2094 <main+0x1b15>
    5cb9: 29 11        	and	#$11
    5cbb: 86 16        	stx	$16                     ; 0x2016 <main+0x1a97>
    5cbd: f0 0f        	beq	$5cce <printf+0x780>
    5cbf: 8a           	txa
    5cc0: 38           	sec
    5cc1: e5 14        	sbc	$14                     ; 0x2014 <main+0x1a95>
    5cc3: 85 9e        	sta	$9e                     ; 0x209e <main+0x1b1f>
    5cc5: a5 1a        	lda	$1a                     ; 0x201a <main+0x1a9b>
    5cc7: e5 15        	sbc	$15                     ; 0x2015 <main+0x1a96>
    5cc9: 85 9d        	sta	$9d                     ; 0x209d <main+0x1b1e>
    5ccb: 4c 58 5d     	jmp	$5d58 <printf+0x80a>
    5cce: a6 c8        	ldx	$c8                     ; 0x20c8 <main+0x1b49>
    5cd0: 86 14        	stx	$14                     ; 0x2014 <main+0x1a95>
    5cd2: 38           	sec
    5cd3: a5 18        	lda	$18                     ; 0x2018 <main+0x1a99>
    5cd5: e5 16        	sbc	$16                     ; 0x2016 <main+0x1a97>
    5cd7: aa           	tax
    5cd8: a9 00        	lda	#$0
    5cda: e5 17        	sbc	$17                     ; 0x2017 <main+0x1a98>
    5cdc: a8           	tay
    5cdd: 18           	clc
    5cde: 8a           	txa
    5cdf: 65 12        	adc	$12                     ; 0x2012 <main+0x1a93>
    5ce1: 85 94        	sta	$94                     ; 0x2094 <main+0x1b15>
    5ce3: 98           	tya
    5ce4: 65 13        	adc	$13                     ; 0x2013 <main+0x1a94>
    5ce6: a4 c9        	ldy	$c9                     ; 0x20c9 <main+0x1b4a>
    5ce8: 4c 3c 5d     	jmp	$5d3c <printf+0x7ee>
    5ceb: c4 c7        	cpy	$c7                     ; 0x20c7 <main+0x1b48>
    5ced: b0 2f        	bcs	$5d1e <printf+0x7d0>
    5cef: a6 d3        	ldx	$d3                     ; 0x20d3 <main+0x1b54>
    5cf1: e4 98        	cpx	$98                     ; 0x2098 <main+0x1b19>
    5cf3: d0 18        	bne	$5d0d <printf+0x7bf>
    5cf5: a6 d2        	ldx	$d2                     ; 0x20d2 <main+0x1b53>
    5cf7: e4 97        	cpx	$97                     ; 0x2097 <main+0x1b18>
    5cf9: d0 12        	bne	$5d0d <printf+0x7bf>
    5cfb: 18           	clc
    5cfc: a5 14        	lda	$14                     ; 0x2014 <main+0x1a95>
    5cfe: 65 cc        	adc	$cc                     ; 0x20cc <main+0x1b4d>
    5d00: 85 12        	sta	$12                     ; 0x2012 <main+0x1a93>
    5d02: 98           	tya
    5d03: 65 cd        	adc	$cd                     ; 0x20cd <main+0x1b4e>
    5d05: 85 13        	sta	$13                     ; 0x2013 <main+0x1a94>
    5d07: a9 20        	lda	#$20
    5d09: 92 12        	sta	($12)                   ; 0x2012 <main+0x1a93>
    5d0b: 80 0f        	bra	$5d1c <printf+0x7ce>
    5d0d: a2 20        	ldx	#$20
    5d0f: 86 6f        	stx	$6f                     ; 0x206f <main+0x1af0>
    5d11: a2 6f        	ldx	#$6f
    5d13: 86 12        	stx	$12                     ; 0x2012 <main+0x1a93>
    5d15: a2 00        	ldx	#$0
    5d17: 86 13        	stx	$13                     ; 0x2013 <main+0x1a94>
    5d19: 20 35 40     	jsr	$4035 <textPrint>
    5d1c: a5 9d        	lda	$9d                     ; 0x209d <main+0x1b1e>
    5d1e: a6 c8        	ldx	$c8                     ; 0x20c8 <main+0x1b49>
    5d20: a4 c9        	ldy	$c9                     ; 0x20c9 <main+0x1b4a>
    5d22: e8           	inx
    5d23: d0 01        	bne	$5d26 <printf+0x7d8>
    5d25: c8           	iny
    5d26: 86 14        	stx	$14                     ; 0x2014 <main+0x1a95>
    5d28: 86 c8        	stx	$c8                     ; 0x20c8 <main+0x1b49>
    5d2a: 84 c9        	sty	$c9                     ; 0x20c9 <main+0x1b4a>
    5d2c: a6 94        	ldx	$94                     ; 0x2094 <main+0x1b15>
    5d2e: e8           	inx
    5d2f: d0 01        	bne	$5d32 <printf+0x7e4>
    5d31: 1a           	inc
    5d32: 86 94        	stx	$94                     ; 0x2094 <main+0x1b15>
    5d34: c9 00        	cmp	#$0
    5d36: d0 04        	bne	$5d3c <printf+0x7ee>
    5d38: e0 00        	cpx	#$0
    5d3a: f0 16        	beq	$5d52 <printf+0x804>
    5d3c: 85 9d        	sta	$9d                     ; 0x209d <main+0x1b1e>
    5d3e: c4 c7        	cpy	$c7                     ; 0x20c7 <main+0x1b48>
    5d40: f0 03        	beq	$5d45 <printf+0x7f7>
    5d42: 4c eb 5c     	jmp	$5ceb <printf+0x79d>
    5d45: a6 c6        	ldx	$c6                     ; 0x20c6 <main+0x1b47>
    5d47: 86 12        	stx	$12                     ; 0x2012 <main+0x1a93>
    5d49: a6 14        	ldx	$14                     ; 0x2014 <main+0x1a95>
    5d4b: e4 12        	cpx	$12                     ; 0x2012 <main+0x1a93>
    5d4d: b0 cf        	bcs	$5d1e <printf+0x7d0>
    5d4f: 4c ef 5c     	jmp	$5cef <printf+0x7a1>
    5d52: 64 9e        	stz	$9e                     ; 0x209e <main+0x1b1f>
    5d54: 64 9d        	stz	$9d                     ; 0x209d <main+0x1b1e>
    5d56: a4 93        	ldy	$93                     ; 0x2093 <main+0x1b14>
    5d58: a6 d9        	ldx	$d9                     ; 0x20d9 <main+0x1b5a>
    5d5a: f0 03        	beq	$5d5f <printf+0x811>
    5d5c: 4c b6 5d     	jmp	$5db6 <printf+0x868>
    5d5f: a6 c8        	ldx	$c8                     ; 0x20c8 <main+0x1b49>
    5d61: a5 c9        	lda	$c9                     ; 0x20c9 <main+0x1b4a>
    5d63: c5 c7        	cmp	$c7                     ; 0x20c7 <main+0x1b48>
    5d65: d0 10        	bne	$5d77 <printf+0x829>
    5d67: 86 13        	stx	$13                     ; 0x2013 <main+0x1a94>
    5d69: a6 c6        	ldx	$c6                     ; 0x20c6 <main+0x1b47>
    5d6b: 86 12        	stx	$12                     ; 0x2012 <main+0x1a93>
    5d6d: a4 93        	ldy	$93                     ; 0x2093 <main+0x1b14>
    5d6f: a6 13        	ldx	$13                     ; 0x2013 <main+0x1a94>
    5d71: e4 12        	cpx	$12                     ; 0x2012 <main+0x1a93>
    5d73: 90 08        	bcc	$5d7d <printf+0x82f>
    5d75: 80 39        	bra	$5db0 <printf+0x862>
    5d77: 86 13        	stx	$13                     ; 0x2013 <main+0x1a94>
    5d79: c5 c7        	cmp	$c7                     ; 0x20c7 <main+0x1b48>
    5d7b: b0 33        	bcs	$5db0 <printf+0x862>
    5d7d: a6 d3        	ldx	$d3                     ; 0x20d3 <main+0x1b54>
    5d7f: e4 98        	cpx	$98                     ; 0x2098 <main+0x1b19>
    5d81: d0 1c        	bne	$5d9f <printf+0x851>
    5d83: a6 d2        	ldx	$d2                     ; 0x20d2 <main+0x1b53>
    5d85: e4 97        	cpx	$97                     ; 0x2097 <main+0x1b18>
    5d87: d0 16        	bne	$5d9f <printf+0x851>
    5d89: 18           	clc
    5d8a: 85 12        	sta	$12                     ; 0x2012 <main+0x1a93>
    5d8c: a5 13        	lda	$13                     ; 0x2013 <main+0x1a94>
    5d8e: 65 cc        	adc	$cc                     ; 0x20cc <main+0x1b4d>
    5d90: aa           	tax
    5d91: a5 12        	lda	$12                     ; 0x2012 <main+0x1a93>
    5d93: 65 cd        	adc	$cd                     ; 0x20cd <main+0x1b4e>
    5d95: 86 12        	stx	$12                     ; 0x2012 <main+0x1a93>
    5d97: 85 13        	sta	$13                     ; 0x2013 <main+0x1a94>
    5d99: a5 dc        	lda	$dc                     ; 0x20dc <main+0x1b5d>
    5d9b: 92 12        	sta	($12)                   ; 0x2012 <main+0x1a93>
    5d9d: 80 0f        	bra	$5dae <printf+0x860>
    5d9f: a6 dc        	ldx	$dc                     ; 0x20dc <main+0x1b5d>
    5da1: 86 6f        	stx	$6f                     ; 0x206f <main+0x1af0>
    5da3: a2 6f        	ldx	#$6f
    5da5: 86 12        	stx	$12                     ; 0x2012 <main+0x1a93>
    5da7: a2 00        	ldx	#$0
    5da9: 86 13        	stx	$13                     ; 0x2013 <main+0x1a94>
    5dab: 20 35 40     	jsr	$4035 <textPrint>
    5dae: a4 93        	ldy	$93                     ; 0x2093 <main+0x1b14>
    5db0: e6 c8        	inc	$c8                     ; 0x20c8 <main+0x1b49>
    5db2: d0 02        	bne	$5db6 <printf+0x868>
    5db4: e6 c9        	inc	$c9                     ; 0x20c9 <main+0x1b4a>
    5db6: a6 d8        	ldx	$d8                     ; 0x20d8 <main+0x1b59>
    5db8: d0 03        	bne	$5dbd <printf+0x86f>
    5dba: 4c 14 5e     	jmp	$5e14 <printf+0x8c6>
    5dbd: a6 c8        	ldx	$c8                     ; 0x20c8 <main+0x1b49>
    5dbf: a5 c9        	lda	$c9                     ; 0x20c9 <main+0x1b4a>
    5dc1: c5 c7        	cmp	$c7                     ; 0x20c7 <main+0x1b48>
    5dc3: d0 10        	bne	$5dd5 <printf+0x887>
    5dc5: 86 13        	stx	$13                     ; 0x2013 <main+0x1a94>
    5dc7: a6 c6        	ldx	$c6                     ; 0x20c6 <main+0x1b47>
    5dc9: 86 12        	stx	$12                     ; 0x2012 <main+0x1a93>
    5dcb: a4 93        	ldy	$93                     ; 0x2093 <main+0x1b14>
    5dcd: a6 13        	ldx	$13                     ; 0x2013 <main+0x1a94>
    5dcf: e4 12        	cpx	$12                     ; 0x2012 <main+0x1a93>
    5dd1: 90 08        	bcc	$5ddb <printf+0x88d>
    5dd3: 80 39        	bra	$5e0e <printf+0x8c0>
    5dd5: 86 13        	stx	$13                     ; 0x2013 <main+0x1a94>
    5dd7: c5 c7        	cmp	$c7                     ; 0x20c7 <main+0x1b48>
    5dd9: b0 33        	bcs	$5e0e <printf+0x8c0>
    5ddb: a6 d3        	ldx	$d3                     ; 0x20d3 <main+0x1b54>
    5ddd: e4 98        	cpx	$98                     ; 0x2098 <main+0x1b19>
    5ddf: d0 1c        	bne	$5dfd <printf+0x8af>
    5de1: a6 d2        	ldx	$d2                     ; 0x20d2 <main+0x1b53>
    5de3: e4 97        	cpx	$97                     ; 0x2097 <main+0x1b18>
    5de5: d0 16        	bne	$5dfd <printf+0x8af>
    5de7: 18           	clc
    5de8: 85 12        	sta	$12                     ; 0x2012 <main+0x1a93>
    5dea: a5 13        	lda	$13                     ; 0x2013 <main+0x1a94>
    5dec: 65 cc        	adc	$cc                     ; 0x20cc <main+0x1b4d>
    5dee: aa           	tax
    5def: a5 12        	lda	$12                     ; 0x2012 <main+0x1a93>
    5df1: 65 cd        	adc	$cd                     ; 0x20cd <main+0x1b4e>
    5df3: 86 12        	stx	$12                     ; 0x2012 <main+0x1a93>
    5df5: 85 13        	sta	$13                     ; 0x2013 <main+0x1a94>
    5df7: a5 dd        	lda	$dd                     ; 0x20dd <main+0x1b5e>
    5df9: 92 12        	sta	($12)                   ; 0x2012 <main+0x1a93>
    5dfb: 80 0f        	bra	$5e0c <printf+0x8be>
    5dfd: a6 dd        	ldx	$dd                     ; 0x20dd <main+0x1b5e>
    5dff: 86 6f        	stx	$6f                     ; 0x206f <main+0x1af0>
    5e01: a2 6f        	ldx	#$6f
    5e03: 86 12        	stx	$12                     ; 0x2012 <main+0x1a93>
    5e05: a2 00        	ldx	#$0
    5e07: 86 13        	stx	$13                     ; 0x2013 <main+0x1a94>
    5e09: 20 35 40     	jsr	$4035 <textPrint>
    5e0c: a4 93        	ldy	$93                     ; 0x2093 <main+0x1b14>
    5e0e: e6 c8        	inc	$c8                     ; 0x20c8 <main+0x1b49>
    5e10: d0 02        	bne	$5e14 <printf+0x8c6>
    5e12: e6 c9        	inc	$c9                     ; 0x20c9 <main+0x1b4a>
    5e14: a9 10        	lda	#$10
    5e16: 25 c4        	and	$c4                     ; 0x20c4 <main+0x1b45>
    5e18: d0 03        	bne	$5e1d <printf+0x8cf>
    5e1a: 4c ae 5e     	jmp	$5eae <printf+0x960>
    5e1d: a5 c4        	lda	$c4                     ; 0x20c4 <main+0x1b45>
    5e1f: 29 01        	and	#$1
    5e21: f0 03        	beq	$5e26 <printf+0x8d8>
    5e23: 4c ae 5e     	jmp	$5eae <printf+0x960>
    5e26: a6 9e        	ldx	$9e                     ; 0x209e <main+0x1b1f>
    5e28: a5 9d        	lda	$9d                     ; 0x209d <main+0x1b1e>
    5e2a: d0 06        	bne	$5e32 <printf+0x8e4>
    5e2c: 8a           	txa
    5e2d: d0 03        	bne	$5e32 <printf+0x8e4>
    5e2f: 4c 72 61     	jmp	$6172 <printf+0xc24>
    5e32: a6 c8        	ldx	$c8                     ; 0x20c8 <main+0x1b49>
    5e34: 86 13        	stx	$13                     ; 0x2013 <main+0x1a94>
    5e36: a5 c9        	lda	$c9                     ; 0x20c9 <main+0x1b4a>
    5e38: 4c 94 5e     	jmp	$5e94 <printf+0x946>
    5e3b: c5 c7        	cmp	$c7                     ; 0x20c7 <main+0x1b48>
    5e3d: b0 2e        	bcs	$5e6d <printf+0x91f>
    5e3f: a6 d3        	ldx	$d3                     ; 0x20d3 <main+0x1b54>
    5e41: e4 98        	cpx	$98                     ; 0x2098 <main+0x1b19>
    5e43: d0 19        	bne	$5e5e <printf+0x910>
    5e45: a6 d2        	ldx	$d2                     ; 0x20d2 <main+0x1b53>
    5e47: e4 97        	cpx	$97                     ; 0x2097 <main+0x1b18>
    5e49: d0 13        	bne	$5e5e <printf+0x910>
    5e4b: 18           	clc
    5e4c: aa           	tax
    5e4d: a5 13        	lda	$13                     ; 0x2013 <main+0x1a94>
    5e4f: 65 cc        	adc	$cc                     ; 0x20cc <main+0x1b4d>
    5e51: 85 12        	sta	$12                     ; 0x2012 <main+0x1a93>
    5e53: 8a           	txa
    5e54: 65 cd        	adc	$cd                     ; 0x20cd <main+0x1b4e>
    5e56: 85 13        	sta	$13                     ; 0x2013 <main+0x1a94>
    5e58: a9 30        	lda	#$30
    5e5a: 92 12        	sta	($12)                   ; 0x2012 <main+0x1a93>
    5e5c: 80 0f        	bra	$5e6d <printf+0x91f>
    5e5e: a2 30        	ldx	#$30
    5e60: 86 6f        	stx	$6f                     ; 0x206f <main+0x1af0>
    5e62: a2 6f        	ldx	#$6f
    5e64: 86 12        	stx	$12                     ; 0x2012 <main+0x1a93>
    5e66: a2 00        	ldx	#$0
    5e68: 86 13        	stx	$13                     ; 0x2013 <main+0x1a94>
    5e6a: 20 35 40     	jsr	$4035 <textPrint>
    5e6d: a6 c8        	ldx	$c8                     ; 0x20c8 <main+0x1b49>
    5e6f: a5 c9        	lda	$c9                     ; 0x20c9 <main+0x1b4a>
    5e71: e8           	inx
    5e72: d0 01        	bne	$5e75 <printf+0x927>
    5e74: 1a           	inc
    5e75: 86 13        	stx	$13                     ; 0x2013 <main+0x1a94>
    5e77: 86 c8        	stx	$c8                     ; 0x20c8 <main+0x1b49>
    5e79: 85 c9        	sta	$c9                     ; 0x20c9 <main+0x1b4a>
    5e7b: a4 9e        	ldy	$9e                     ; 0x209e <main+0x1b1f>
    5e7d: a6 9d        	ldx	$9d                     ; 0x209d <main+0x1b1e>
    5e7f: 86 12        	stx	$12                     ; 0x2012 <main+0x1a93>
    5e81: 88           	dey
    5e82: c0 ff        	cpy	#$ff
    5e84: d0 02        	bne	$5e88 <printf+0x93a>
    5e86: c6 12        	dec	$12                     ; 0x2012 <main+0x1a93>
    5e88: 84 9e        	sty	$9e                     ; 0x209e <main+0x1b1f>
    5e8a: a6 12        	ldx	$12                     ; 0x2012 <main+0x1a93>
    5e8c: 86 9d        	stx	$9d                     ; 0x209d <main+0x1b1e>
    5e8e: d0 04        	bne	$5e94 <printf+0x946>
    5e90: c0 00        	cpy	#$0
    5e92: f0 14        	beq	$5ea8 <printf+0x95a>
    5e94: c5 c7        	cmp	$c7                     ; 0x20c7 <main+0x1b48>
    5e96: f0 03        	beq	$5e9b <printf+0x94d>
    5e98: 4c 3b 5e     	jmp	$5e3b <printf+0x8ed>
    5e9b: a6 c6        	ldx	$c6                     ; 0x20c6 <main+0x1b47>
    5e9d: 86 12        	stx	$12                     ; 0x2012 <main+0x1a93>
    5e9f: a6 13        	ldx	$13                     ; 0x2013 <main+0x1a94>
    5ea1: e4 12        	cpx	$12                     ; 0x2012 <main+0x1a93>
    5ea3: b0 c8        	bcs	$5e6d <printf+0x91f>
    5ea5: 4c 3f 5e     	jmp	$5e3f <printf+0x8f1>
    5ea8: 64 9e        	stz	$9e                     ; 0x209e <main+0x1b1f>
    5eaa: 64 9d        	stz	$9d                     ; 0x209d <main+0x1b1e>
    5eac: a4 93        	ldy	$93                     ; 0x2093 <main+0x1b14>
    5eae: a2 00        	ldx	#$0
    5eb0: e4 9c        	cpx	$9c                     ; 0x209c <main+0x1b1d>
    5eb2: d0 07        	bne	$5ebb <printf+0x96d>
    5eb4: c4 9b        	cpy	$9b                     ; 0x209b <main+0x1b1c>
    5eb6: 90 0a        	bcc	$5ec2 <printf+0x974>
    5eb8: 4c 3a 5f     	jmp	$5f3a <printf+0x9ec>
    5ebb: e4 9c        	cpx	$9c                     ; 0x209c <main+0x1b1d>
    5ebd: 90 03        	bcc	$5ec2 <printf+0x974>
    5ebf: 4c 3a 5f     	jmp	$5f3a <printf+0x9ec>
    5ec2: a6 c8        	ldx	$c8                     ; 0x20c8 <main+0x1b49>
    5ec4: 86 13        	stx	$13                     ; 0x2013 <main+0x1a94>
    5ec6: a5 c9        	lda	$c9                     ; 0x20c9 <main+0x1b4a>
    5ec8: a2 ff        	ldx	#$ff
    5eca: c6 9b        	dec	$9b                     ; 0x209b <main+0x1b1c>
    5ecc: e4 9b        	cpx	$9b                     ; 0x209b <main+0x1b1c>
    5ece: d0 02        	bne	$5ed2 <printf+0x984>
    5ed0: c6 9c        	dec	$9c                     ; 0x209c <main+0x1b1d>
    5ed2: c5 c7        	cmp	$c7                     ; 0x20c7 <main+0x1b48>
    5ed4: d0 0c        	bne	$5ee2 <printf+0x994>
    5ed6: a6 c6        	ldx	$c6                     ; 0x20c6 <main+0x1b47>
    5ed8: 86 12        	stx	$12                     ; 0x2012 <main+0x1a93>
    5eda: a6 13        	ldx	$13                     ; 0x2013 <main+0x1a94>
    5edc: e4 12        	cpx	$12                     ; 0x2012 <main+0x1a93>
    5ede: 90 06        	bcc	$5ee6 <printf+0x998>
    5ee0: 80 32        	bra	$5f14 <printf+0x9c6>
    5ee2: c5 c7        	cmp	$c7                     ; 0x20c7 <main+0x1b48>
    5ee4: b0 2e        	bcs	$5f14 <printf+0x9c6>
    5ee6: a6 d3        	ldx	$d3                     ; 0x20d3 <main+0x1b54>
    5ee8: e4 98        	cpx	$98                     ; 0x2098 <main+0x1b19>
    5eea: d0 19        	bne	$5f05 <printf+0x9b7>
    5eec: a6 d2        	ldx	$d2                     ; 0x20d2 <main+0x1b53>
    5eee: e4 97        	cpx	$97                     ; 0x2097 <main+0x1b18>
    5ef0: d0 13        	bne	$5f05 <printf+0x9b7>
    5ef2: 18           	clc
    5ef3: aa           	tax
    5ef4: a5 13        	lda	$13                     ; 0x2013 <main+0x1a94>
    5ef6: 65 cc        	adc	$cc                     ; 0x20cc <main+0x1b4d>
    5ef8: 85 12        	sta	$12                     ; 0x2012 <main+0x1a93>
    5efa: 8a           	txa
    5efb: 65 cd        	adc	$cd                     ; 0x20cd <main+0x1b4e>
    5efd: 85 13        	sta	$13                     ; 0x2013 <main+0x1a94>
    5eff: a9 30        	lda	#$30
    5f01: 92 12        	sta	($12)                   ; 0x2012 <main+0x1a93>
    5f03: 80 0f        	bra	$5f14 <printf+0x9c6>
    5f05: a2 30        	ldx	#$30
    5f07: 86 6f        	stx	$6f                     ; 0x206f <main+0x1af0>
    5f09: a2 6f        	ldx	#$6f
    5f0b: 86 12        	stx	$12                     ; 0x2012 <main+0x1a93>
    5f0d: a2 00        	ldx	#$0
    5f0f: 86 13        	stx	$13                     ; 0x2013 <main+0x1a94>
    5f11: 20 35 40     	jsr	$4035 <textPrint>
    5f14: a6 c8        	ldx	$c8                     ; 0x20c8 <main+0x1b49>
    5f16: a5 c9        	lda	$c9                     ; 0x20c9 <main+0x1b4a>
    5f18: e8           	inx
    5f19: d0 01        	bne	$5f1c <printf+0x9ce>
    5f1b: 1a           	inc
    5f1c: 86 13        	stx	$13                     ; 0x2013 <main+0x1a94>
    5f1e: 86 c8        	stx	$c8                     ; 0x20c8 <main+0x1b49>
    5f20: 85 c9        	sta	$c9                     ; 0x20c9 <main+0x1b4a>
    5f22: a2 00        	ldx	#$0
    5f24: e4 9c        	cpx	$9c                     ; 0x209c <main+0x1b1d>
    5f26: d0 09        	bne	$5f31 <printf+0x9e3>
    5f28: a4 93        	ldy	$93                     ; 0x2093 <main+0x1b14>
    5f2a: c4 9b        	cpy	$9b                     ; 0x209b <main+0x1b1c>
    5f2c: b0 0c        	bcs	$5f3a <printf+0x9ec>
    5f2e: 4c c8 5e     	jmp	$5ec8 <printf+0x97a>
    5f31: e4 9c        	cpx	$9c                     ; 0x209c <main+0x1b1d>
    5f33: a4 93        	ldy	$93                     ; 0x2093 <main+0x1b14>
    5f35: b0 03        	bcs	$5f3a <printf+0x9ec>
    5f37: 4c c8 5e     	jmp	$5ec8 <printf+0x97a>
    5f3a: 98           	tya
    5f3b: d0 03        	bne	$5f40 <printf+0x9f2>
    5f3d: 4c 43 60     	jmp	$6043 <printf+0xaf5>
    5f40: 88           	dey
    5f41: d0 03        	bne	$5f46 <printf+0x9f8>
    5f43: 4c d8 5f     	jmp	$5fd8 <printf+0xa8a>
    5f46: 84 9b        	sty	$9b                     ; 0x209b <main+0x1b1c>
    5f48: a6 de        	ldx	$de                     ; 0x20de <main+0x1b5f>
    5f4a: 8a           	txa
    5f4b: 18           	clc
    5f4c: 65 9b        	adc	$9b                     ; 0x209b <main+0x1b1c>
    5f4e: 85 93        	sta	$93                     ; 0x2093 <main+0x1b14>
    5f50: a5 df        	lda	$df                     ; 0x20df <main+0x1b60>
    5f52: 69 00        	adc	#$0
    5f54: 85 94        	sta	$94                     ; 0x2094 <main+0x1b15>
    5f56: 4c ca 5f     	jmp	$5fca <printf+0xa7c>
    5f59: a8           	tay
    5f5a: a9 80        	lda	#$80
    5f5c: 25 c4        	and	$c4                     ; 0x20c4 <main+0x1b45>
    5f5e: f0 04        	beq	$5f64 <printf+0xa16>
    5f60: a2 61        	ldx	#$61
    5f62: 80 02        	bra	$5f66 <printf+0xa18>
    5f64: a2 41        	ldx	#$41
    5f66: 86 12        	stx	$12                     ; 0x2012 <main+0x1a93>
    5f68: 18           	clc
    5f69: 98           	tya
    5f6a: 65 12        	adc	$12                     ; 0x2012 <main+0x1a93>
    5f6c: 18           	clc
    5f6d: 69 f6        	adc	#$f6
    5f6f: a4 c8        	ldy	$c8                     ; 0x20c8 <main+0x1b49>
    5f71: a6 c9        	ldx	$c9                     ; 0x20c9 <main+0x1b4a>
    5f73: e4 c7        	cpx	$c7                     ; 0x20c7 <main+0x1b48>
    5f75: d0 0c        	bne	$5f83 <printf+0xa35>
    5f77: 86 14        	stx	$14                     ; 0x2014 <main+0x1a95>
    5f79: a6 c6        	ldx	$c6                     ; 0x20c6 <main+0x1b47>
    5f7b: 86 12        	stx	$12                     ; 0x2012 <main+0x1a93>
    5f7d: c4 12        	cpy	$12                     ; 0x2012 <main+0x1a93>
    5f7f: 90 08        	bcc	$5f89 <printf+0xa3b>
    5f81: 80 31        	bra	$5fb4 <printf+0xa66>
    5f83: 86 14        	stx	$14                     ; 0x2014 <main+0x1a95>
    5f85: e4 c7        	cpx	$c7                     ; 0x20c7 <main+0x1b48>
    5f87: b0 2b        	bcs	$5fb4 <printf+0xa66>
    5f89: a6 d3        	ldx	$d3                     ; 0x20d3 <main+0x1b54>
    5f8b: e4 98        	cpx	$98                     ; 0x2098 <main+0x1b19>
    5f8d: d0 18        	bne	$5fa7 <printf+0xa59>
    5f8f: a6 d2        	ldx	$d2                     ; 0x20d2 <main+0x1b53>
    5f91: e4 97        	cpx	$97                     ; 0x2097 <main+0x1b18>
    5f93: d0 12        	bne	$5fa7 <printf+0xa59>
    5f95: 18           	clc
    5f96: aa           	tax
    5f97: 98           	tya
    5f98: 65 cc        	adc	$cc                     ; 0x20cc <main+0x1b4d>
    5f9a: 85 12        	sta	$12                     ; 0x2012 <main+0x1a93>
    5f9c: a5 14        	lda	$14                     ; 0x2014 <main+0x1a95>
    5f9e: 65 cd        	adc	$cd                     ; 0x20cd <main+0x1b4e>
    5fa0: 85 13        	sta	$13                     ; 0x2013 <main+0x1a94>
    5fa2: 8a           	txa
    5fa3: 92 12        	sta	($12)                   ; 0x2012 <main+0x1a93>
    5fa5: 80 0d        	bra	$5fb4 <printf+0xa66>
    5fa7: 85 6f        	sta	$6f                     ; 0x206f <main+0x1af0>
    5fa9: a2 6f        	ldx	#$6f
    5fab: 86 12        	stx	$12                     ; 0x2012 <main+0x1a93>
    5fad: a2 00        	ldx	#$0
    5faf: 86 13        	stx	$13                     ; 0x2013 <main+0x1a94>
    5fb1: 20 35 40     	jsr	$4035 <textPrint>
    5fb4: e6 c8        	inc	$c8                     ; 0x20c8 <main+0x1b49>
    5fb6: d0 02        	bne	$5fba <printf+0xa6c>
    5fb8: e6 c9        	inc	$c9                     ; 0x20c9 <main+0x1b4a>
    5fba: c6 9b        	dec	$9b                     ; 0x209b <main+0x1b1c>
    5fbc: a2 ff        	ldx	#$ff
    5fbe: c6 93        	dec	$93                     ; 0x2093 <main+0x1b14>
    5fc0: e4 93        	cpx	$93                     ; 0x2093 <main+0x1b14>
    5fc2: d0 02        	bne	$5fc6 <printf+0xa78>
    5fc4: c6 94        	dec	$94                     ; 0x2094 <main+0x1b15>
    5fc6: a5 9b        	lda	$9b                     ; 0x209b <main+0x1b1c>
    5fc8: f0 0e        	beq	$5fd8 <printf+0xa8a>
    5fca: b2 93        	lda	($93)                   ; 0x2093 <main+0x1b14>
    5fcc: c9 0a        	cmp	#$a
    5fce: 90 03        	bcc	$5fd3 <printf+0xa85>
    5fd0: 4c 59 5f     	jmp	$5f59 <printf+0xa0b>
    5fd3: 09 30        	ora	#$30
    5fd5: 4c 6f 5f     	jmp	$5f6f <printf+0xa21>
    5fd8: a5 a1        	lda	$a1                     ; 0x20a1 <main+0x1b22>
    5fda: c9 0a        	cmp	#$a
    5fdc: b0 04        	bcs	$5fe2 <printf+0xa94>
    5fde: 09 30        	ora	#$30
    5fe0: 80 16        	bra	$5ff8 <printf+0xaaa>
    5fe2: a8           	tay
    5fe3: a9 80        	lda	#$80
    5fe5: 25 c4        	and	$c4                     ; 0x20c4 <main+0x1b45>
    5fe7: f0 04        	beq	$5fed <printf+0xa9f>
    5fe9: a2 61        	ldx	#$61
    5feb: 80 02        	bra	$5fef <printf+0xaa1>
    5fed: a2 41        	ldx	#$41
    5fef: 86 12        	stx	$12                     ; 0x2012 <main+0x1a93>
    5ff1: 18           	clc
    5ff2: 98           	tya
    5ff3: 65 12        	adc	$12                     ; 0x2012 <main+0x1a93>
    5ff5: 18           	clc
    5ff6: 69 f6        	adc	#$f6
    5ff8: a4 c8        	ldy	$c8                     ; 0x20c8 <main+0x1b49>
    5ffa: a6 c9        	ldx	$c9                     ; 0x20c9 <main+0x1b4a>
    5ffc: e4 c7        	cpx	$c7                     ; 0x20c7 <main+0x1b48>
    5ffe: d0 0c        	bne	$600c <printf+0xabe>
    6000: 86 14        	stx	$14                     ; 0x2014 <main+0x1a95>
    6002: a6 c6        	ldx	$c6                     ; 0x20c6 <main+0x1b47>
    6004: 86 12        	stx	$12                     ; 0x2012 <main+0x1a93>
    6006: c4 12        	cpy	$12                     ; 0x2012 <main+0x1a93>
    6008: 90 08        	bcc	$6012 <printf+0xac4>
    600a: 80 31        	bra	$603d <printf+0xaef>
    600c: 86 14        	stx	$14                     ; 0x2014 <main+0x1a95>
    600e: e4 c7        	cpx	$c7                     ; 0x20c7 <main+0x1b48>
    6010: b0 2b        	bcs	$603d <printf+0xaef>
    6012: a6 d3        	ldx	$d3                     ; 0x20d3 <main+0x1b54>
    6014: e4 98        	cpx	$98                     ; 0x2098 <main+0x1b19>
    6016: d0 18        	bne	$6030 <printf+0xae2>
    6018: a6 d2        	ldx	$d2                     ; 0x20d2 <main+0x1b53>
    601a: e4 97        	cpx	$97                     ; 0x2097 <main+0x1b18>
    601c: d0 12        	bne	$6030 <printf+0xae2>
    601e: 18           	clc
    601f: aa           	tax
    6020: 98           	tya
    6021: 65 cc        	adc	$cc                     ; 0x20cc <main+0x1b4d>
    6023: 85 12        	sta	$12                     ; 0x2012 <main+0x1a93>
    6025: a5 14        	lda	$14                     ; 0x2014 <main+0x1a95>
    6027: 65 cd        	adc	$cd                     ; 0x20cd <main+0x1b4e>
    6029: 85 13        	sta	$13                     ; 0x2013 <main+0x1a94>
    602b: 8a           	txa
    602c: 92 12        	sta	($12)                   ; 0x2012 <main+0x1a93>
    602e: 80 0d        	bra	$603d <printf+0xaef>
    6030: 85 6f        	sta	$6f                     ; 0x206f <main+0x1af0>
    6032: a2 6f        	ldx	#$6f
    6034: 86 12        	stx	$12                     ; 0x2012 <main+0x1a93>
    6036: a2 00        	ldx	#$0
    6038: 86 13        	stx	$13                     ; 0x2013 <main+0x1a94>
    603a: 20 35 40     	jsr	$4035 <textPrint>
    603d: e6 c8        	inc	$c8                     ; 0x20c8 <main+0x1b49>
    603f: d0 02        	bne	$6043 <printf+0xaf5>
    6041: e6 c9        	inc	$c9                     ; 0x20c9 <main+0x1b4a>
    6043: a5 c4        	lda	$c4                     ; 0x20c4 <main+0x1b45>
    6045: 29 01        	and	#$1
    6047: d0 1e        	bne	$6067 <printf+0xb19>
    6049: a6 c8        	ldx	$c8                     ; 0x20c8 <main+0x1b49>
    604b: 86 14        	stx	$14                     ; 0x2014 <main+0x1a95>
    604d: a5 c9        	lda	$c9                     ; 0x20c9 <main+0x1b4a>
    604f: a4 c6        	ldy	$c6                     ; 0x20c6 <main+0x1b47>
    6051: a6 c7        	ldx	$c7                     ; 0x20c7 <main+0x1b48>
    6053: 86 12        	stx	$12                     ; 0x2012 <main+0x1a93>
    6055: 86 13        	stx	$13                     ; 0x2013 <main+0x1a94>
    6057: c5 12        	cmp	$12                     ; 0x2012 <main+0x1a93>
    6059: f0 03        	beq	$605e <printf+0xb10>
    605b: 4c f4 60     	jmp	$60f4 <printf+0xba6>
    605e: 84 12        	sty	$12                     ; 0x2012 <main+0x1a93>
    6060: a6 14        	ldx	$14                     ; 0x2014 <main+0x1a95>
    6062: e4 12        	cpx	$12                     ; 0x2012 <main+0x1a93>
    6064: 4c f8 60     	jmp	$60f8 <printf+0xbaa>
    6067: a6 c8        	ldx	$c8                     ; 0x20c8 <main+0x1b49>
    6069: 86 14        	stx	$14                     ; 0x2014 <main+0x1a95>
    606b: a5 c9        	lda	$c9                     ; 0x20c9 <main+0x1b4a>
    606d: a6 9e        	ldx	$9e                     ; 0x209e <main+0x1b1f>
    606f: a4 9d        	ldy	$9d                     ; 0x209d <main+0x1b1e>
    6071: f0 03        	beq	$6076 <printf+0xb28>
    6073: 4c e0 60     	jmp	$60e0 <printf+0xb92>
    6076: e0 00        	cpx	#$0
    6078: f0 d5        	beq	$604f <printf+0xb01>
    607a: 4c e0 60     	jmp	$60e0 <printf+0xb92>
    607d: c5 c7        	cmp	$c7                     ; 0x20c7 <main+0x1b48>
    607f: b0 2e        	bcs	$60af <printf+0xb61>
    6081: a6 d3        	ldx	$d3                     ; 0x20d3 <main+0x1b54>
    6083: e4 98        	cpx	$98                     ; 0x2098 <main+0x1b19>
    6085: d0 19        	bne	$60a0 <printf+0xb52>
    6087: a6 d2        	ldx	$d2                     ; 0x20d2 <main+0x1b53>
    6089: e4 97        	cpx	$97                     ; 0x2097 <main+0x1b18>
    608b: d0 13        	bne	$60a0 <printf+0xb52>
    608d: 18           	clc
    608e: aa           	tax
    608f: a5 14        	lda	$14                     ; 0x2014 <main+0x1a95>
    6091: 65 cc        	adc	$cc                     ; 0x20cc <main+0x1b4d>
    6093: 85 12        	sta	$12                     ; 0x2012 <main+0x1a93>
    6095: 8a           	txa
    6096: 65 cd        	adc	$cd                     ; 0x20cd <main+0x1b4e>
    6098: 85 13        	sta	$13                     ; 0x2013 <main+0x1a94>
    609a: a9 20        	lda	#$20
    609c: 92 12        	sta	($12)                   ; 0x2012 <main+0x1a93>
    609e: 80 0f        	bra	$60af <printf+0xb61>
    60a0: a2 20        	ldx	#$20
    60a2: 86 6f        	stx	$6f                     ; 0x206f <main+0x1af0>
    60a4: a2 6f        	ldx	#$6f
    60a6: 86 12        	stx	$12                     ; 0x2012 <main+0x1a93>
    60a8: a2 00        	ldx	#$0
    60aa: 86 13        	stx	$13                     ; 0x2013 <main+0x1a94>
    60ac: 20 35 40     	jsr	$4035 <textPrint>
    60af: a6 c8        	ldx	$c8                     ; 0x20c8 <main+0x1b49>
    60b1: a5 c9        	lda	$c9                     ; 0x20c9 <main+0x1b4a>
    60b3: e8           	inx
    60b4: d0 01        	bne	$60b7 <printf+0xb69>
    60b6: 1a           	inc
    60b7: 86 14        	stx	$14                     ; 0x2014 <main+0x1a95>
    60b9: 86 c8        	stx	$c8                     ; 0x20c8 <main+0x1b49>
    60bb: 85 c9        	sta	$c9                     ; 0x20c9 <main+0x1b4a>
    60bd: a6 9e        	ldx	$9e                     ; 0x209e <main+0x1b1f>
    60bf: 86 12        	stx	$12                     ; 0x2012 <main+0x1a93>
    60c1: a6 9d        	ldx	$9d                     ; 0x209d <main+0x1b1e>
    60c3: 86 13        	stx	$13                     ; 0x2013 <main+0x1a94>
    60c5: a2 ff        	ldx	#$ff
    60c7: c6 12        	dec	$12                     ; 0x2012 <main+0x1a93>
    60c9: e4 12        	cpx	$12                     ; 0x2012 <main+0x1a93>
    60cb: d0 02        	bne	$60cf <printf+0xb81>
    60cd: c6 13        	dec	$13                     ; 0x2013 <main+0x1a94>
    60cf: a6 12        	ldx	$12                     ; 0x2012 <main+0x1a93>
    60d1: 86 9e        	stx	$9e                     ; 0x209e <main+0x1b1f>
    60d3: a6 13        	ldx	$13                     ; 0x2013 <main+0x1a94>
    60d5: 86 9d        	stx	$9d                     ; 0x209d <main+0x1b1e>
    60d7: d0 07        	bne	$60e0 <printf+0xb92>
    60d9: a6 12        	ldx	$12                     ; 0x2012 <main+0x1a93>
    60db: d0 03        	bne	$60e0 <printf+0xb92>
    60dd: 4c 4f 60     	jmp	$604f <printf+0xb01>
    60e0: c5 c7        	cmp	$c7                     ; 0x20c7 <main+0x1b48>
    60e2: f0 03        	beq	$60e7 <printf+0xb99>
    60e4: 4c 7d 60     	jmp	$607d <printf+0xb2f>
    60e7: a6 c6        	ldx	$c6                     ; 0x20c6 <main+0x1b47>
    60e9: 86 12        	stx	$12                     ; 0x2012 <main+0x1a93>
    60eb: a6 14        	ldx	$14                     ; 0x2014 <main+0x1a95>
    60ed: e4 12        	cpx	$12                     ; 0x2012 <main+0x1a93>
    60ef: b0 be        	bcs	$60af <printf+0xb61>
    60f1: 4c 81 60     	jmp	$6081 <printf+0xb33>
    60f4: 86 12        	stx	$12                     ; 0x2012 <main+0x1a93>
    60f6: c5 12        	cmp	$12                     ; 0x2012 <main+0x1a93>
    60f8: 98           	tya
    60f9: a0 01        	ldy	#$1
    60fb: 90 20        	bcc	$611d <printf+0xbcf>
    60fd: a6 13        	ldx	$13                     ; 0x2013 <main+0x1a94>
    60ff: d0 03        	bne	$6104 <printf+0xbb6>
    6101: aa           	tax
    6102: f0 19        	beq	$611d <printf+0xbcf>
    6104: 18           	clc
    6105: 65 cc        	adc	$cc                     ; 0x20cc <main+0x1b4d>
    6107: 85 12        	sta	$12                     ; 0x2012 <main+0x1a93>
    6109: a5 13        	lda	$13                     ; 0x2013 <main+0x1a94>
    610b: 65 cd        	adc	$cd                     ; 0x20cd <main+0x1b4e>
    610d: 85 13        	sta	$13                     ; 0x2013 <main+0x1a94>
    610f: a2 ff        	ldx	#$ff
    6111: c6 12        	dec	$12                     ; 0x2012 <main+0x1a93>
    6113: e4 12        	cpx	$12                     ; 0x2012 <main+0x1a93>
    6115: d0 02        	bne	$6119 <printf+0xbcb>
    6117: c6 13        	dec	$13                     ; 0x2013 <main+0x1a94>
    6119: a9 00        	lda	#$0
    611b: 92 12        	sta	($12)                   ; 0x2012 <main+0x1a93>
    611d: e6 95        	inc	$95                     ; 0x2095 <main+0x1b16>
    611f: d0 02        	bne	$6123 <printf+0xbd5>
    6121: e6 96        	inc	$96                     ; 0x2096 <main+0x1b17>
    6123: a6 96        	ldx	$96                     ; 0x2096 <main+0x1b17>
    6125: e4 9a        	cpx	$9a                     ; 0x209a <main+0x1b1b>
    6127: f0 03        	beq	$612c <printf+0xbde>
    6129: 4c b3 55     	jmp	$55b3 <printf+0x65>
    612c: a6 95        	ldx	$95                     ; 0x2095 <main+0x1b16>
    612e: e4 99        	cpx	$99                     ; 0x2099 <main+0x1b1a>
    6130: f0 03        	beq	$6135 <printf+0xbe7>
    6132: 4c b3 55     	jmp	$55b3 <printf+0x65>
    6135: b2 99        	lda	($99)                   ; 0x2099 <main+0x1b1a>
    6137: a2 00        	ldx	#$0
    6139: 86 97        	stx	$97                     ; 0x2097 <main+0x1b18>
    613b: a2 00        	ldx	#$0
    613d: 86 98        	stx	$98                     ; 0x2098 <main+0x1b19>
    613f: 4c c7 55     	jmp	$55c7 <printf+0x79>
    6142: e4 9c        	cpx	$9c                     ; 0x209c <main+0x1b1d>
    6144: a6 94        	ldx	$94                     ; 0x2094 <main+0x1b15>
    6146: b0 03        	bcs	$614b <printf+0xbfd>
    6148: 4c 18 5c     	jmp	$5c18 <printf+0x6ca>
    614b: a5 93        	lda	$93                     ; 0x2093 <main+0x1b14>
    614d: 85 9b        	sta	$9b                     ; 0x209b <main+0x1b1c>
    614f: 64 9c        	stz	$9c                     ; 0x209c <main+0x1b1d>
    6151: e6 9b        	inc	$9b                     ; 0x209b <main+0x1b1c>
    6153: f0 03        	beq	$6158 <printf+0xc0a>
    6155: 4c 18 5c     	jmp	$5c18 <printf+0x6ca>
    6158: e6 9c        	inc	$9c                     ; 0x209c <main+0x1b1d>
    615a: 4c 18 5c     	jmp	$5c18 <printf+0x6ca>
    615d: a2 58        	ldx	#$58
    615f: 86 dd        	stx	$dd                     ; 0x20dd <main+0x1b5e>
    6161: a2 01        	ldx	#$1
    6163: 86 d8        	stx	$d8                     ; 0x20d8 <main+0x1b59>
    6165: a2 30        	ldx	#$30
    6167: 86 dc        	stx	$dc                     ; 0x20dc <main+0x1b5d>
    6169: a9 02        	lda	#$2
    616b: a2 00        	ldx	#$0
    616d: 86 d9        	stx	$d9                     ; 0x20d9 <main+0x1b5a>
    616f: 4c 59 5c     	jmp	$5c59 <printf+0x70b>
    6172: 64 9e        	stz	$9e                     ; 0x209e <main+0x1b1f>
    6174: 64 9d        	stz	$9d                     ; 0x209d <main+0x1b1e>
    6176: 4c ae 5e     	jmp	$5eae <printf+0x960>
    6179: 60           	rts

0000617a <malloc>:
    617a: a8           	tay
    617b: 8a           	txa
    617c: a2 00        	ldx	#$0
    617e: 86 12        	stx	$12                     ; 0x2012 <main+0x1a93>
    6180: a2 00        	ldx	#$0
    6182: 86 13        	stx	$13                     ; 0x2013 <main+0x1a94>
    6184: aa           	tax
    6185: d0 07        	bne	$618e <malloc+0x14>
    6187: c0 00        	cpy	#$0
    6189: d0 03        	bne	$618e <malloc+0x14>
    618b: 4c 7b 62     	jmp	$627b <malloc+0x101>
    618e: 84 16        	sty	$16                     ; 0x2016 <main+0x1a97>
    6190: aa           	tax
    6191: d0 0e        	bne	$61a1 <malloc+0x27>
    6193: a6 16        	ldx	$16                     ; 0x2016 <main+0x1a97>
    6195: e0 07        	cpx	#$7
    6197: b0 0c        	bcs	$61a5 <malloc+0x2b>
    6199: a2 08        	ldx	#$8
    619b: 86 94        	stx	$94                     ; 0x2094 <main+0x1b15>
    619d: a9 00        	lda	#$0
    619f: 80 2f        	bra	$61d0 <malloc+0x56>
    61a1: c9 00        	cmp	#$0
    61a3: 90 f4        	bcc	$6199 <malloc+0x1f>
    61a5: a8           	tay
    61a6: a5 16        	lda	$16                     ; 0x2016 <main+0x1a97>
    61a8: 29 01        	and	#$1
    61aa: a2 02        	ldx	#$2
    61ac: 64 14        	stz	$14                     ; 0x2014 <main+0x1a95>
    61ae: c9 00        	cmp	#$0
    61b0: f0 02        	beq	$61b4 <malloc+0x3a>
    61b2: a2 03        	ldx	#$3
    61b4: 86 15        	stx	$15                     ; 0x2015 <main+0x1a96>
    61b6: 18           	clc
    61b7: a5 16        	lda	$16                     ; 0x2016 <main+0x1a97>
    61b9: 65 15        	adc	$15                     ; 0x2015 <main+0x1a96>
    61bb: aa           	tax
    61bc: 98           	tya
    61bd: 65 14        	adc	$14                     ; 0x2014 <main+0x1a95>
    61bf: 90 03        	bcc	$61c4 <malloc+0x4a>
    61c1: 4c 7b 62     	jmp	$627b <malloc+0x101>
    61c4: 86 94        	stx	$94                     ; 0x2094 <main+0x1b15>
    61c6: a8           	tay
    61c7: d0 07        	bne	$61d0 <malloc+0x56>
    61c9: e0 00        	cpx	#$0
    61cb: d0 03        	bne	$61d0 <malloc+0x56>
    61cd: 4c 7b 62     	jmp	$627b <malloc+0x101>
    61d0: 85 93        	sta	$93                     ; 0x2093 <main+0x1b14>
    61d2: a5 8d        	lda	$8d                     ; 0x208d <main+0x1b0e>
    61d4: 29 01        	and	#$1
    61d6: d0 2b        	bne	$6203 <malloc+0x89>
    61d8: a9 00        	lda	#$0
    61da: a2 10        	ldx	#$10
    61dc: a0 9c        	ldy	#$9c
    61de: 84 12        	sty	$12                     ; 0x2012 <main+0x1a93>
    61e0: a0 68        	ldy	#$68
    61e2: 84 13        	sty	$13                     ; 0x2013 <main+0x1a94>
    61e4: 20 48 03     	jsr	$348 <_ZN12_GLOBAL__N_19FreeChunk6insertEPvj>
    61e7: a2 00        	ldx	#$0
    61e9: 86 12        	stx	$12                     ; 0x2012 <main+0x1a93>
    61eb: a2 00        	ldx	#$0
    61ed: 86 13        	stx	$13                     ; 0x2013 <main+0x1a94>
    61ef: ae 9d 68     	ldx	$689d                   ; 0x689d <__heap_start+0x1>
    61f2: a9 fe        	lda	#$fe
    61f4: 2d 9c 68     	and	$689c                   ; 0x689c <__heap_start>
    61f7: 8d 9c 68     	sta	$689c                   ; 0x689c <__heap_start>
    61fa: 8e 9d 68     	stx	$689d                   ; 0x689d <__heap_start+0x1>
    61fd: a2 01        	ldx	#$1
    61ff: 86 8e        	stx	$8e                     ; 0x208e <main+0x1b0f>
    6201: 86 8d        	stx	$8d                     ; 0x208d <main+0x1b0e>
    6203: a6 91        	ldx	$91                     ; 0x2091 <main+0x1b12>
    6205: 86 16        	stx	$16                     ; 0x2016 <main+0x1a97>
    6207: a4 92        	ldy	$92                     ; 0x2092 <main+0x1b13>
    6209: 84 17        	sty	$17                     ; 0x2017 <main+0x1a98>
    620b: a9 00        	lda	#$0
    620d: 85 14        	sta	$14                     ; 0x2014 <main+0x1a95>
    620f: a9 00        	lda	#$0
    6211: 85 15        	sta	$15                     ; 0x2015 <main+0x1a96>
    6213: c4 15        	cpy	$15                     ; 0x2015 <main+0x1a96>
    6215: d0 07        	bne	$621e <malloc+0xa4>
    6217: e4 14        	cpx	$14                     ; 0x2014 <main+0x1a95>
    6219: d0 03        	bne	$621e <malloc+0xa4>
    621b: 4c 7b 62     	jmp	$627b <malloc+0x101>
    621e: a2 00        	ldx	#$0
    6220: a0 10        	ldy	#$10
    6222: 86 14        	stx	$14                     ; 0x2014 <main+0x1a95>
    6224: 84 15        	sty	$15                     ; 0x2015 <main+0x1a96>
    6226: 18           	clc
    6227: a9 9c        	lda	#$9c
    6229: 65 14        	adc	$14                     ; 0x2014 <main+0x1a95>
    622b: 85 18        	sta	$18                     ; 0x2018 <main+0x1a99>
    622d: a9 68        	lda	#$68
    622f: 65 15        	adc	$15                     ; 0x2015 <main+0x1a96>
    6231: 85 97        	sta	$97                     ; 0x2097 <main+0x1b18>
    6233: a0 01        	ldy	#$1
    6235: a6 93        	ldx	$93                     ; 0x2093 <main+0x1b14>
    6237: 86 19        	stx	$19                     ; 0x2019 <main+0x1a9a>
    6239: a6 16        	ldx	$16                     ; 0x2016 <main+0x1a97>
    623b: 86 14        	stx	$14                     ; 0x2014 <main+0x1a95>
    623d: a6 17        	ldx	$17                     ; 0x2017 <main+0x1a98>
    623f: 86 15        	stx	$15                     ; 0x2015 <main+0x1a96>
    6241: b1 14        	lda	($14),y                 ; 0x2014 <main+0x1a95>
    6243: c5 19        	cmp	$19                     ; 0x2019 <main+0x1a9a>
    6245: d0 0e        	bne	$6255 <malloc+0xdb>
    6247: b2 14        	lda	($14)                   ; 0x2014 <main+0x1a95>
    6249: 29 fe        	and	#$fe
    624b: a6 94        	ldx	$94                     ; 0x2094 <main+0x1b15>
    624d: 86 1a        	stx	$1a                     ; 0x201a <main+0x1a9b>
    624f: c5 1a        	cmp	$1a                     ; 0x201a <main+0x1a9b>
    6251: b0 29        	bcs	$627c <malloc+0x102>
    6253: 80 04        	bra	$6259 <malloc+0xdf>
    6255: c5 19        	cmp	$19                     ; 0x2019 <main+0x1a9a>
    6257: b0 23        	bcs	$627c <malloc+0x102>
    6259: a5 14        	lda	$14                     ; 0x2014 <main+0x1a95>
    625b: 18           	clc
    625c: 69 02        	adc	#$2
    625e: 85 1a        	sta	$1a                     ; 0x201a <main+0x1a9b>
    6260: a5 15        	lda	$15                     ; 0x2015 <main+0x1a96>
    6262: 69 00        	adc	#$0
    6264: 85 1b        	sta	$1b                     ; 0x201b <main+0x1a9c>
    6266: a0 02        	ldy	#$2
    6268: b1 14        	lda	($14),y                 ; 0x2014 <main+0x1a95>
    626a: 85 14        	sta	$14                     ; 0x2014 <main+0x1a95>
    626c: 88           	dey
    626d: b1 1a        	lda	($1a),y                 ; 0x201a <main+0x1a9b>
    626f: 85 15        	sta	$15                     ; 0x2015 <main+0x1a96>
    6271: c5 17        	cmp	$17                     ; 0x2017 <main+0x1a98>
    6273: d0 cc        	bne	$6241 <malloc+0xc7>
    6275: a5 14        	lda	$14                     ; 0x2014 <main+0x1a95>
    6277: c5 16        	cmp	$16                     ; 0x2016 <main+0x1a97>
    6279: d0 c6        	bne	$6241 <malloc+0xc7>
    627b: 60           	rts
    627c: a6 18        	ldx	$18                     ; 0x2018 <main+0x1a99>
    627e: 86 98        	stx	$98                     ; 0x2098 <main+0x1b19>
    6280: a6 14        	ldx	$14                     ; 0x2014 <main+0x1a95>
    6282: 86 12        	stx	$12                     ; 0x2012 <main+0x1a93>
    6284: a6 15        	ldx	$15                     ; 0x2015 <main+0x1a96>
    6286: 86 13        	stx	$13                     ; 0x2013 <main+0x1a94>
    6288: a6 14        	ldx	$14                     ; 0x2014 <main+0x1a95>
    628a: 86 95        	stx	$95                     ; 0x2095 <main+0x1b16>
    628c: a6 15        	ldx	$15                     ; 0x2015 <main+0x1a96>
    628e: 86 96        	stx	$96                     ; 0x2096 <main+0x1b17>
    6290: 20 7e 04     	jsr	$47e <_ZN12_GLOBAL__N_19FreeChunk6removeEv>
    6293: a6 95        	ldx	$95                     ; 0x2095 <main+0x1b16>
    6295: 86 12        	stx	$12                     ; 0x2012 <main+0x1a93>
    6297: a6 96        	ldx	$96                     ; 0x2096 <main+0x1b17>
    6299: 86 13        	stx	$13                     ; 0x2013 <main+0x1a94>
    629b: a0 01        	ldy	#$1
    629d: b1 12        	lda	($12),y                 ; 0x2012 <main+0x1a93>
    629f: 85 15        	sta	$15                     ; 0x2015 <main+0x1a96>
    62a1: a9 fe        	lda	#$fe
    62a3: 32 12        	and	($12)                   ; 0x2012 <main+0x1a93>
    62a5: 38           	sec
    62a6: a6 94        	ldx	$94                     ; 0x2094 <main+0x1b15>
    62a8: 86 14        	stx	$14                     ; 0x2014 <main+0x1a95>
    62aa: 85 17        	sta	$17                     ; 0x2017 <main+0x1a98>
    62ac: e5 14        	sbc	$14                     ; 0x2014 <main+0x1a95>
    62ae: a8           	tay
    62af: a6 93        	ldx	$93                     ; 0x2093 <main+0x1b14>
    62b1: 86 14        	stx	$14                     ; 0x2014 <main+0x1a95>
    62b3: a5 15        	lda	$15                     ; 0x2015 <main+0x1a96>
    62b5: 85 16        	sta	$16                     ; 0x2016 <main+0x1a97>
    62b7: e5 14        	sbc	$14                     ; 0x2014 <main+0x1a95>
    62b9: d0 06        	bne	$62c1 <malloc+0x147>
    62bb: 85 18        	sta	$18                     ; 0x2018 <main+0x1a99>
    62bd: c0 08        	cpy	#$8
    62bf: 80 04        	bra	$62c5 <malloc+0x14b>
    62c1: 85 18        	sta	$18                     ; 0x2018 <main+0x1a99>
    62c3: c9 00        	cmp	#$0
    62c5: a6 98        	ldx	$98                     ; 0x2098 <main+0x1b19>
    62c7: 86 14        	stx	$14                     ; 0x2014 <main+0x1a95>
    62c9: a6 97        	ldx	$97                     ; 0x2097 <main+0x1b18>
    62cb: 86 15        	stx	$15                     ; 0x2015 <main+0x1a96>
    62cd: a5 17        	lda	$17                     ; 0x2017 <main+0x1a98>
    62cf: 90 42        	bcc	$6313 <malloc+0x199>
    62d1: 18           	clc
    62d2: a5 94        	lda	$94                     ; 0x2094 <main+0x1b15>
    62d4: 85 94        	sta	$94                     ; 0x2094 <main+0x1b15>
    62d6: 65 12        	adc	$12                     ; 0x2012 <main+0x1a93>
    62d8: 85 12        	sta	$12                     ; 0x2012 <main+0x1a93>
    62da: a6 93        	ldx	$93                     ; 0x2093 <main+0x1b14>
    62dc: 86 93        	stx	$93                     ; 0x2093 <main+0x1b14>
    62de: a5 93        	lda	$93                     ; 0x2093 <main+0x1b14>
    62e0: 65 13        	adc	$13                     ; 0x2013 <main+0x1a94>
    62e2: 85 13        	sta	$13                     ; 0x2013 <main+0x1a94>
    62e4: a6 18        	ldx	$18                     ; 0x2018 <main+0x1a99>
    62e6: 98           	tya
    62e7: 20 48 03     	jsr	$348 <_ZN12_GLOBAL__N_19FreeChunk6insertEPvj>
    62ea: a6 95        	ldx	$95                     ; 0x2095 <main+0x1b16>
    62ec: 86 12        	stx	$12                     ; 0x2012 <main+0x1a93>
    62ee: a6 96        	ldx	$96                     ; 0x2096 <main+0x1b17>
    62f0: 86 13        	stx	$13                     ; 0x2013 <main+0x1a94>
    62f2: a5 94        	lda	$94                     ; 0x2094 <main+0x1b15>
    62f4: 29 fe        	and	#$fe
    62f6: 85 14        	sta	$14                     ; 0x2014 <main+0x1a95>
    62f8: a0 01        	ldy	#$1
    62fa: 98           	tya
    62fb: 32 12        	and	($12)                   ; 0x2012 <main+0x1a93>
    62fd: 05 14        	ora	$14                     ; 0x2014 <main+0x1a95>
    62ff: 92 12        	sta	($12)                   ; 0x2012 <main+0x1a93>
    6301: a5 93        	lda	$93                     ; 0x2093 <main+0x1b14>
    6303: 91 12        	sta	($12),y                 ; 0x2012 <main+0x1a93>
    6305: a5 14        	lda	$14                     ; 0x2014 <main+0x1a95>
    6307: a6 93        	ldx	$93                     ; 0x2093 <main+0x1b14>
    6309: 86 16        	stx	$16                     ; 0x2016 <main+0x1a97>
    630b: a6 98        	ldx	$98                     ; 0x2098 <main+0x1b19>
    630d: 86 14        	stx	$14                     ; 0x2014 <main+0x1a95>
    630f: a6 97        	ldx	$97                     ; 0x2097 <main+0x1b18>
    6311: 86 15        	stx	$15                     ; 0x2015 <main+0x1a96>
    6313: 18           	clc
    6314: 65 12        	adc	$12                     ; 0x2012 <main+0x1a93>
    6316: a8           	tay
    6317: a5 16        	lda	$16                     ; 0x2016 <main+0x1a97>
    6319: 65 13        	adc	$13                     ; 0x2013 <main+0x1a94>
    631b: c5 15        	cmp	$15                     ; 0x2015 <main+0x1a96>
    631d: d0 08        	bne	$6327 <malloc+0x1ad>
    631f: c4 14        	cpy	$14                     ; 0x2014 <main+0x1a95>
    6321: d0 04        	bne	$6327 <malloc+0x1ad>
    6323: 64 8e        	stz	$8e                     ; 0x208e <main+0x1b0f>
    6325: 80 14        	bra	$633b <malloc+0x1c1>
    6327: 84 14        	sty	$14                     ; 0x2014 <main+0x1a95>
    6329: 85 15        	sta	$15                     ; 0x2015 <main+0x1a96>
    632b: a0 01        	ldy	#$1
    632d: b1 14        	lda	($14),y                 ; 0x2014 <main+0x1a95>
    632f: 85 16        	sta	$16                     ; 0x2016 <main+0x1a97>
    6331: a9 fe        	lda	#$fe
    6333: 32 14        	and	($14)                   ; 0x2014 <main+0x1a95>
    6335: 92 14        	sta	($14)                   ; 0x2014 <main+0x1a95>
    6337: a5 16        	lda	$16                     ; 0x2016 <main+0x1a97>
    6339: 91 14        	sta	($14),y                 ; 0x2014 <main+0x1a95>
    633b: a5 12        	lda	$12                     ; 0x2012 <main+0x1a93>
    633d: 18           	clc
    633e: 69 02        	adc	#$2
    6340: 85 12        	sta	$12                     ; 0x2012 <main+0x1a93>
    6342: a5 13        	lda	$13                     ; 0x2013 <main+0x1a94>
    6344: 69 00        	adc	#$0
    6346: 85 13        	sta	$13                     ; 0x2013 <main+0x1a94>
    6348: 60           	rts

00006349 <memcpy>:
    6349: a8           	tay
    634a: 8a           	txa
    634b: d0 03        	bne	$6350 <memcpy+0x7>
    634d: 98           	tya
    634e: f0 24        	beq	$6374 <memcpy+0x2b>
    6350: a5 12        	lda	$12                     ; 0x2012 <main+0x1a93>
    6352: 85 16        	sta	$16                     ; 0x2016 <main+0x1a97>
    6354: a5 13        	lda	$13                     ; 0x2013 <main+0x1a94>
    6356: 85 17        	sta	$17                     ; 0x2017 <main+0x1a98>
    6358: b2 14        	lda	($14)                   ; 0x2014 <main+0x1a95>
    635a: 92 16        	sta	($16)                   ; 0x2016 <main+0x1a97>
    635c: e6 16        	inc	$16                     ; 0x2016 <main+0x1a97>
    635e: d0 02        	bne	$6362 <memcpy+0x19>
    6360: e6 17        	inc	$17                     ; 0x2017 <main+0x1a98>
    6362: e6 14        	inc	$14                     ; 0x2014 <main+0x1a95>
    6364: d0 02        	bne	$6368 <memcpy+0x1f>
    6366: e6 15        	inc	$15                     ; 0x2015 <main+0x1a96>
    6368: 88           	dey
    6369: c0 ff        	cpy	#$ff
    636b: d0 01        	bne	$636e <memcpy+0x25>
    636d: ca           	dex
    636e: 8a           	txa
    636f: d0 e7        	bne	$6358 <memcpy+0xf>
    6371: 98           	tya
    6372: d0 e4        	bne	$6358 <memcpy+0xf>
    6374: 60           	rts

00006375 <__memset>:
    6375: a4 14        	ldy	$14                     ; 0x2014 <main+0x1a95>
    6377: d0 04        	bne	$637d <__memset+0x8>
    6379: e0 00        	cpx	#$0
    637b: f0 17        	beq	$6394 <__memset+0x1f>
    637d: 92 12        	sta	($12)                   ; 0x2012 <main+0x1a93>
    637f: e6 12        	inc	$12                     ; 0x2012 <main+0x1a93>
    6381: d0 02        	bne	$6385 <__memset+0x10>
    6383: e6 13        	inc	$13                     ; 0x2013 <main+0x1a94>
    6385: ca           	dex
    6386: e0 ff        	cpx	#$ff
    6388: d0 02        	bne	$638c <__memset+0x17>
    638a: c6 14        	dec	$14                     ; 0x2014 <main+0x1a95>
    638c: a4 14        	ldy	$14                     ; 0x2014 <main+0x1a95>
    638e: d0 ed        	bne	$637d <__memset+0x8>
    6390: e0 00        	cpx	#$0
    6392: d0 e9        	bne	$637d <__memset+0x8>
    6394: 60           	rts

00006395 <__mulhi3>:
    6395: a4 13        	ldy	$13                     ; 0x2013 <main+0x1a94>
    6397: d0 04        	bne	$639d <__mulhi3+0x8>
    6399: a4 12        	ldy	$12                     ; 0x2012 <main+0x1a93>
    639b: f0 25        	beq	$63c2 <__mulhi3+0x2d>
    639d: 85 14        	sta	$14                     ; 0x2014 <main+0x1a95>
    639f: 86 15        	stx	$15                     ; 0x2015 <main+0x1a96>
    63a1: a0 00        	ldy	#$0
    63a3: 98           	tya
    63a4: 46 13        	lsr	$13                     ; 0x2013 <main+0x1a94>
    63a6: 66 12        	ror	$12                     ; 0x2012 <main+0x1a93>
    63a8: 90 09        	bcc	$63b3 <__mulhi3+0x1e>
    63aa: aa           	tax
    63ab: 98           	tya
    63ac: 18           	clc
    63ad: 65 14        	adc	$14                     ; 0x2014 <main+0x1a95>
    63af: a8           	tay
    63b0: 8a           	txa
    63b1: 65 15        	adc	$15                     ; 0x2015 <main+0x1a96>
    63b3: 06 14        	asl	$14                     ; 0x2014 <main+0x1a95>
    63b5: 26 15        	rol	$15                     ; 0x2015 <main+0x1a96>
    63b7: a6 13        	ldx	$13                     ; 0x2013 <main+0x1a94>
    63b9: d0 e9        	bne	$63a4 <__mulhi3+0xf>
    63bb: a6 12        	ldx	$12                     ; 0x2012 <main+0x1a93>
    63bd: d0 e5        	bne	$63a4 <__mulhi3+0xf>
    63bf: aa           	tax
    63c0: 98           	tya
    63c1: 60           	rts
    63c2: a0 00        	ldy	#$0
    63c4: 98           	tya
    63c5: 80 f8        	bra	$63bf <__mulhi3+0x2a>

000063c7 <__mulsi3>:
    63c7: a4 17        	ldy	$17                     ; 0x2017 <main+0x1a98>
    63c9: d0 0f        	bne	$63da <__mulsi3+0x13>
    63cb: a4 16        	ldy	$16                     ; 0x2016 <main+0x1a97>
    63cd: d0 0b        	bne	$63da <__mulsi3+0x13>
    63cf: a4 15        	ldy	$15                     ; 0x2015 <main+0x1a96>
    63d1: d0 07        	bne	$63da <__mulsi3+0x13>
    63d3: a4 14        	ldy	$14                     ; 0x2014 <main+0x1a95>
    63d5: d0 03        	bne	$63da <__mulsi3+0x13>
    63d7: 4c 2e 64     	jmp	$642e <__mulsi3+0x67>
    63da: 85 18        	sta	$18                     ; 0x2018 <main+0x1a99>
    63dc: 86 19        	stx	$19                     ; 0x2019 <main+0x1a9a>
    63de: a0 00        	ldy	#$0
    63e0: a2 00        	ldx	#$0
    63e2: 64 1a        	stz	$1a                     ; 0x201a <main+0x1a9b>
    63e4: 98           	tya
    63e5: 46 17        	lsr	$17                     ; 0x2017 <main+0x1a98>
    63e7: 66 16        	ror	$16                     ; 0x2016 <main+0x1a97>
    63e9: 66 15        	ror	$15                     ; 0x2015 <main+0x1a96>
    63eb: 66 14        	ror	$14                     ; 0x2014 <main+0x1a95>
    63ed: 90 15        	bcc	$6404 <__mulsi3+0x3d>
    63ef: 85 1b        	sta	$1b                     ; 0x201b <main+0x1a9c>
    63f1: 98           	tya
    63f2: 18           	clc
    63f3: 65 18        	adc	$18                     ; 0x2018 <main+0x1a99>
    63f5: a8           	tay
    63f6: 8a           	txa
    63f7: 65 19        	adc	$19                     ; 0x2019 <main+0x1a9a>
    63f9: aa           	tax
    63fa: a5 1a        	lda	$1a                     ; 0x201a <main+0x1a9b>
    63fc: 65 12        	adc	$12                     ; 0x2012 <main+0x1a93>
    63fe: 85 1a        	sta	$1a                     ; 0x201a <main+0x1a9b>
    6400: a5 1b        	lda	$1b                     ; 0x201b <main+0x1a9c>
    6402: 65 13        	adc	$13                     ; 0x2013 <main+0x1a94>
    6404: 06 18        	asl	$18                     ; 0x2018 <main+0x1a99>
    6406: 26 19        	rol	$19                     ; 0x2019 <main+0x1a9a>
    6408: 26 12        	rol	$12                     ; 0x2012 <main+0x1a93>
    640a: 26 13        	rol	$13                     ; 0x2013 <main+0x1a94>
    640c: e6 17        	inc	$17                     ; 0x2017 <main+0x1a98>
    640e: c6 17        	dec	$17                     ; 0x2017 <main+0x1a98>
    6410: d0 d3        	bne	$63e5 <__mulsi3+0x1e>
    6412: e6 16        	inc	$16                     ; 0x2016 <main+0x1a97>
    6414: c6 16        	dec	$16                     ; 0x2016 <main+0x1a97>
    6416: d0 cd        	bne	$63e5 <__mulsi3+0x1e>
    6418: e6 15        	inc	$15                     ; 0x2015 <main+0x1a96>
    641a: c6 15        	dec	$15                     ; 0x2015 <main+0x1a96>
    641c: d0 c7        	bne	$63e5 <__mulsi3+0x1e>
    641e: e6 14        	inc	$14                     ; 0x2014 <main+0x1a95>
    6420: c6 14        	dec	$14                     ; 0x2014 <main+0x1a95>
    6422: d0 c1        	bne	$63e5 <__mulsi3+0x1e>
    6424: 5a           	phy
    6425: a4 1a        	ldy	$1a                     ; 0x201a <main+0x1a9b>
    6427: 84 12        	sty	$12                     ; 0x2012 <main+0x1a93>
    6429: 7a           	ply
    642a: 85 13        	sta	$13                     ; 0x2013 <main+0x1a94>
    642c: 98           	tya
    642d: 60           	rts
    642e: a0 00        	ldy	#$0
    6430: a2 00        	ldx	#$0
    6432: 64 1a        	stz	$1a                     ; 0x201a <main+0x1a9b>
    6434: 98           	tya
    6435: 80 ed        	bra	$6424 <__mulsi3+0x5d>

00006437 <__udivsi3>:
    6437: 64 18        	stz	$18                     ; 0x2018 <main+0x1a99>
    6439: a4 17        	ldy	$17                     ; 0x2017 <main+0x1a98>
    643b: d0 0c        	bne	$6449 <__udivsi3+0x12>
    643d: a4 16        	ldy	$16                     ; 0x2016 <main+0x1a97>
    643f: d0 08        	bne	$6449 <__udivsi3+0x12>
    6441: a4 15        	ldy	$15                     ; 0x2015 <main+0x1a96>
    6443: d0 04        	bne	$6449 <__udivsi3+0x12>
    6445: a4 14        	ldy	$14                     ; 0x2014 <main+0x1a95>
    6447: f0 27        	beq	$6470 <__udivsi3+0x39>
    6449: 86 1e        	stx	$1e                     ; 0x201e <main+0x1a9f>
    644b: a6 12        	ldx	$12                     ; 0x2012 <main+0x1a93>
    644d: 86 1f        	stx	$1f                     ; 0x201f <main+0x1aa0>
    644f: a6 13        	ldx	$13                     ; 0x2013 <main+0x1a94>
    6451: 86 22        	stx	$22                     ; 0x2022 <main+0x1aa3>
    6453: e4 17        	cpx	$17                     ; 0x2017 <main+0x1a98>
    6455: d0 15        	bne	$646c <__udivsi3+0x35>
    6457: a6 12        	ldx	$12                     ; 0x2012 <main+0x1a93>
    6459: e4 16        	cpx	$16                     ; 0x2016 <main+0x1a97>
    645b: d0 1a        	bne	$6477 <__udivsi3+0x40>
    645d: a6 1e        	ldx	$1e                     ; 0x201e <main+0x1a9f>
    645f: e4 15        	cpx	$15                     ; 0x2015 <main+0x1a96>
    6461: f0 03        	beq	$6466 <__udivsi3+0x2f>
    6463: 4c 9c 65     	jmp	$659c <__udivsi3+0x165>
    6466: c5 14        	cmp	$14                     ; 0x2014 <main+0x1a95>
    6468: 90 06        	bcc	$6470 <__udivsi3+0x39>
    646a: 80 0f        	bra	$647b <__udivsi3+0x44>
    646c: e4 17        	cpx	$17                     ; 0x2017 <main+0x1a98>
    646e: b0 0b        	bcs	$647b <__udivsi3+0x44>
    6470: a2 00        	ldx	#$0
    6472: 86 93        	stx	$93                     ; 0x2093 <main+0x1b14>
    6474: 4c e1 64     	jmp	$64e1 <__udivsi3+0xaa>
    6477: e4 16        	cpx	$16                     ; 0x2016 <main+0x1a97>
    6479: 90 f5        	bcc	$6470 <__udivsi3+0x39>
    647b: a2 01        	ldx	#$1
    647d: 86 93        	stx	$93                     ; 0x2093 <main+0x1b14>
    647f: a6 17        	ldx	$17                     ; 0x2017 <main+0x1a98>
    6481: 10 03        	bpl	$6486 <__udivsi3+0x4f>
    6483: 4c e1 64     	jmp	$64e1 <__udivsi3+0xaa>
    6486: 85 1d        	sta	$1d                     ; 0x201d <main+0x1a9e>
    6488: a5 1e        	lda	$1e                     ; 0x201e <main+0x1a9f>
    648a: a2 00        	ldx	#$0
    648c: a4 14        	ldy	$14                     ; 0x2014 <main+0x1a95>
    648e: 84 19        	sty	$19                     ; 0x2019 <main+0x1a9a>
    6490: a4 15        	ldy	$15                     ; 0x2015 <main+0x1a96>
    6492: 84 1a        	sty	$1a                     ; 0x201a <main+0x1a9b>
    6494: a4 16        	ldy	$16                     ; 0x2016 <main+0x1a97>
    6496: 84 1b        	sty	$1b                     ; 0x201b <main+0x1a9c>
    6498: a4 17        	ldy	$17                     ; 0x2017 <main+0x1a98>
    649a: 84 1c        	sty	$1c                     ; 0x201c <main+0x1a9d>
    649c: 06 19        	asl	$19                     ; 0x2019 <main+0x1a9a>
    649e: 26 1a        	rol	$1a                     ; 0x201a <main+0x1a9b>
    64a0: 26 1b        	rol	$1b                     ; 0x201b <main+0x1a9c>
    64a2: 26 1c        	rol	$1c                     ; 0x201c <main+0x1a9d>
    64a4: a4 22        	ldy	$22                     ; 0x2022 <main+0x1aa3>
    64a6: c4 1c        	cpy	$1c                     ; 0x201c <main+0x1a9d>
    64a8: d0 12        	bne	$64bc <__udivsi3+0x85>
    64aa: a4 12        	ldy	$12                     ; 0x2012 <main+0x1a93>
    64ac: c4 1b        	cpy	$1b                     ; 0x201b <main+0x1a9c>
    64ae: d0 12        	bne	$64c2 <__udivsi3+0x8b>
    64b0: c5 1a        	cmp	$1a                     ; 0x201a <main+0x1a9b>
    64b2: d0 14        	bne	$64c8 <__udivsi3+0x91>
    64b4: a4 1d        	ldy	$1d                     ; 0x201d <main+0x1a9e>
    64b6: c4 19        	cpy	$19                     ; 0x2019 <main+0x1a9a>
    64b8: 90 30        	bcc	$64ea <__udivsi3+0xb3>
    64ba: 80 10        	bra	$64cc <__udivsi3+0x95>
    64bc: c4 1c        	cpy	$1c                     ; 0x201c <main+0x1a9d>
    64be: 90 2a        	bcc	$64ea <__udivsi3+0xb3>
    64c0: 80 0a        	bra	$64cc <__udivsi3+0x95>
    64c2: c4 1b        	cpy	$1b                     ; 0x201b <main+0x1a9c>
    64c4: 90 24        	bcc	$64ea <__udivsi3+0xb3>
    64c6: 80 04        	bra	$64cc <__udivsi3+0x95>
    64c8: c5 1a        	cmp	$1a                     ; 0x201a <main+0x1a9b>
    64ca: 90 1e        	bcc	$64ea <__udivsi3+0xb3>
    64cc: e8           	inx
    64cd: a4 19        	ldy	$19                     ; 0x2019 <main+0x1a9a>
    64cf: 84 14        	sty	$14                     ; 0x2014 <main+0x1a95>
    64d1: a4 1a        	ldy	$1a                     ; 0x201a <main+0x1a9b>
    64d3: 84 15        	sty	$15                     ; 0x2015 <main+0x1a96>
    64d5: a4 1b        	ldy	$1b                     ; 0x201b <main+0x1a9c>
    64d7: 84 16        	sty	$16                     ; 0x2016 <main+0x1a97>
    64d9: a4 1c        	ldy	$1c                     ; 0x201c <main+0x1a9d>
    64db: 84 17        	sty	$17                     ; 0x2017 <main+0x1a98>
    64dd: 10 bd        	bpl	$649c <__udivsi3+0x65>
    64df: 80 19        	bra	$64fa <__udivsi3+0xc3>
    64e1: 64 12        	stz	$12                     ; 0x2012 <main+0x1a93>
    64e3: 64 13        	stz	$13                     ; 0x2013 <main+0x1a94>
    64e5: a6 18        	ldx	$18                     ; 0x2018 <main+0x1a99>
    64e7: a5 93        	lda	$93                     ; 0x2093 <main+0x1b14>
    64e9: 60           	rts
    64ea: a4 14        	ldy	$14                     ; 0x2014 <main+0x1a95>
    64ec: 84 19        	sty	$19                     ; 0x2019 <main+0x1a9a>
    64ee: a4 15        	ldy	$15                     ; 0x2015 <main+0x1a96>
    64f0: 84 1a        	sty	$1a                     ; 0x201a <main+0x1a9b>
    64f2: a4 16        	ldy	$16                     ; 0x2016 <main+0x1a97>
    64f4: 84 1b        	sty	$1b                     ; 0x201b <main+0x1a9c>
    64f6: a4 17        	ldy	$17                     ; 0x2017 <main+0x1a98>
    64f8: 84 1c        	sty	$1c                     ; 0x201c <main+0x1a9d>
    64fa: 64 12        	stz	$12                     ; 0x2012 <main+0x1a93>
    64fc: 64 13        	stz	$13                     ; 0x2013 <main+0x1a94>
    64fe: 8a           	txa
    64ff: f0 e4        	beq	$64e5 <__udivsi3+0xae>
    6501: 38           	sec
    6502: a5 1d        	lda	$1d                     ; 0x201d <main+0x1a9e>
    6504: e5 19        	sbc	$19                     ; 0x2019 <main+0x1a9a>
    6506: 85 14        	sta	$14                     ; 0x2014 <main+0x1a95>
    6508: a5 1e        	lda	$1e                     ; 0x201e <main+0x1a9f>
    650a: e5 1a        	sbc	$1a                     ; 0x201a <main+0x1a9b>
    650c: 85 17        	sta	$17                     ; 0x2017 <main+0x1a98>
    650e: a5 1f        	lda	$1f                     ; 0x201f <main+0x1aa0>
    6510: e5 1b        	sbc	$1b                     ; 0x201b <main+0x1a9c>
    6512: 85 15        	sta	$15                     ; 0x2015 <main+0x1a96>
    6514: a5 22        	lda	$22                     ; 0x2022 <main+0x1aa3>
    6516: e5 1c        	sbc	$1c                     ; 0x201c <main+0x1a9d>
    6518: a0 01        	ldy	#$1
    651a: 84 93        	sty	$93                     ; 0x2093 <main+0x1b14>
    651c: 64 18        	stz	$18                     ; 0x2018 <main+0x1a99>
    651e: 46 1c        	lsr	$1c                     ; 0x201c <main+0x1a9d>
    6520: 66 1b        	ror	$1b                     ; 0x201b <main+0x1a9c>
    6522: 66 1a        	ror	$1a                     ; 0x201a <main+0x1a9b>
    6524: 66 19        	ror	$19                     ; 0x2019 <main+0x1a9a>
    6526: a4 93        	ldy	$93                     ; 0x2093 <main+0x1b14>
    6528: 84 16        	sty	$16                     ; 0x2016 <main+0x1a97>
    652a: 06 16        	asl	$16                     ; 0x2016 <main+0x1a97>
    652c: a0 01        	ldy	#$1
    652e: b0 02        	bcs	$6532 <__udivsi3+0xfb>
    6530: a0 00        	ldy	#$0
    6532: 84 1d        	sty	$1d                     ; 0x201d <main+0x1a9e>
    6534: a4 16        	ldy	$16                     ; 0x2016 <main+0x1a97>
    6536: 84 93        	sty	$93                     ; 0x2093 <main+0x1b14>
    6538: c5 1c        	cmp	$1c                     ; 0x201c <main+0x1a9d>
    653a: d0 16        	bne	$6552 <__udivsi3+0x11b>
    653c: 85 16        	sta	$16                     ; 0x2016 <main+0x1a97>
    653e: a4 15        	ldy	$15                     ; 0x2015 <main+0x1a96>
    6540: a5 17        	lda	$17                     ; 0x2017 <main+0x1a98>
    6542: c4 1b        	cpy	$1b                     ; 0x201b <main+0x1a9c>
    6544: d0 4a        	bne	$6590 <__udivsi3+0x159>
    6546: c5 1a        	cmp	$1a                     ; 0x201a <main+0x1a9b>
    6548: d0 4c        	bne	$6596 <__udivsi3+0x15f>
    654a: a4 14        	ldy	$14                     ; 0x2014 <main+0x1a95>
    654c: c4 19        	cpy	$19                     ; 0x2019 <main+0x1a9a>
    654e: b0 0a        	bcs	$655a <__udivsi3+0x123>
    6550: 80 27        	bra	$6579 <__udivsi3+0x142>
    6552: 85 16        	sta	$16                     ; 0x2016 <main+0x1a97>
    6554: c5 1c        	cmp	$1c                     ; 0x201c <main+0x1a9d>
    6556: a5 17        	lda	$17                     ; 0x2017 <main+0x1a98>
    6558: 90 1f        	bcc	$6579 <__udivsi3+0x142>
    655a: a8           	tay
    655b: 38           	sec
    655c: a5 14        	lda	$14                     ; 0x2014 <main+0x1a95>
    655e: e5 19        	sbc	$19                     ; 0x2019 <main+0x1a9a>
    6560: 85 14        	sta	$14                     ; 0x2014 <main+0x1a95>
    6562: 98           	tya
    6563: e5 1a        	sbc	$1a                     ; 0x201a <main+0x1a9b>
    6565: 85 17        	sta	$17                     ; 0x2017 <main+0x1a98>
    6567: a5 15        	lda	$15                     ; 0x2015 <main+0x1a96>
    6569: e5 1b        	sbc	$1b                     ; 0x201b <main+0x1a9c>
    656b: 85 15        	sta	$15                     ; 0x2015 <main+0x1a96>
    656d: a5 16        	lda	$16                     ; 0x2016 <main+0x1a97>
    656f: e5 1c        	sbc	$1c                     ; 0x201c <main+0x1a9d>
    6571: 85 16        	sta	$16                     ; 0x2016 <main+0x1a97>
    6573: a5 93        	lda	$93                     ; 0x2093 <main+0x1b14>
    6575: 09 01        	ora	#$1
    6577: 85 93        	sta	$93                     ; 0x2093 <main+0x1b14>
    6579: a4 1d        	ldy	$1d                     ; 0x201d <main+0x1a9e>
    657b: c0 01        	cpy	#$1
    657d: 26 18        	rol	$18                     ; 0x2018 <main+0x1a99>
    657f: 26 12        	rol	$12                     ; 0x2012 <main+0x1a93>
    6581: 26 13        	rol	$13                     ; 0x2013 <main+0x1a94>
    6583: ca           	dex
    6584: a5 16        	lda	$16                     ; 0x2016 <main+0x1a97>
    6586: e0 00        	cpx	#$0
    6588: f0 03        	beq	$658d <__udivsi3+0x156>
    658a: 4c 1e 65     	jmp	$651e <__udivsi3+0xe7>
    658d: 4c e5 64     	jmp	$64e5 <__udivsi3+0xae>
    6590: c4 1b        	cpy	$1b                     ; 0x201b <main+0x1a9c>
    6592: b0 c6        	bcs	$655a <__udivsi3+0x123>
    6594: 80 e3        	bra	$6579 <__udivsi3+0x142>
    6596: c5 1a        	cmp	$1a                     ; 0x201a <main+0x1a9b>
    6598: b0 c0        	bcs	$655a <__udivsi3+0x123>
    659a: 80 dd        	bra	$6579 <__udivsi3+0x142>
    659c: e4 15        	cpx	$15                     ; 0x2015 <main+0x1a96>
    659e: b0 03        	bcs	$65a3 <__udivsi3+0x16c>
    65a0: 4c 70 64     	jmp	$6470 <__udivsi3+0x39>
    65a3: 4c 7b 64     	jmp	$647b <__udivsi3+0x44>
