
midisam2.elf:	file format elf32-mos

SYMBOL TABLE:
00000000 l    df *ABS*	00000000 zero-bss.c
00000000 l    df *ABS*	00000000 zero-zp-bss.c
00000000 l    df *ABS*	00000000 copy-zp-data.c
00000000 l    df *ABS*	00000000 ld-temp.o
00000599 l     F .text	00000021 FAR_PEEK
000005ba l     F .text	0000002a FAR_PEEKW
000005e4 l     F .text	00000023 FAR_POKE
00000607 l     F .text	0000001c FAR_POKEW
00008812 l     O .bss	00000078 name
00000072 l     O .zp.bss	00000007 kernelEventData
00000030 l     O .zp.data	00000001 _ccolor
00007c84 l     O .rodata	00000030 textColors
00000040 l     O .zp.bss	00000001 _col
00000041 l     O .zp.bss	00000001 _row
00008706 l     O .bss	00000008 _dirStream
00000071 l     O .zp.bss	00000001 kernelError
00004549 l     F .text	000004a7 displayImage
00006529 l     F .text	0000005c lilpause
00000070 l     O .zp.bss	00000001 midiChip
00008684 l     O .rodata	00000038 rtmplugin
000019e9 l     F .text	00000043 zeroOutStuff
00006585 l     F .text	000000f7 setColors
00001a2c l     F .text	00000120 fileOpenDir
00001e69 l     F .text	00000048 fpr_set_currentPath
00001b4c l     F .text	0000004b fileCloseDir
00001eb1 l     F .text	000005b4 getTheFile_far
000073e5 l     F .text	00000090 printf
00004c6e l     F .text	000003b5 loadSMFile
000049f0 l     F .text	0000027e detectStructure
00006289 l     F .text	00000198 displayInfo
00005e97 l     F .text	000003f2 initTrack
0000005f l     O .zp.bss	00000002 theOne.0
00005da1 l     F .text	000000f6 exhaustZeroes
00000047 l     O .zp.bss	00000001 shimmerTimer.1
00000045 l     O .zp.bss	00000001 isTrulyDone
00001b97 l     F .text	000001ce textPrint
00006421 l     F .text	00000108 superExtraInfo
0000004f l     O .zp.bss	00000010 shimmerBuffer
00000042 l     O .zp.bss	00000002 __putchar.s
00000044 l     O .zp.bss	00000001 isPaused
0000006e l     O .zp.bss	00000002 theOne.8
00007739 l     F .text	0000018b free
00000046 l     O .zp.bss	00000001 repeatFlag
00000066 l     O .zp.bss	00000004 theOne.5
00000065 l     O .zp.bss	00000001 theOne.4
0000006a l     O .zp.bss	00000002 theOne.6
00000061 l     O .zp.bss	00000004 theOne.2
00007b5a l     F .text	00000070 __mulsi3
0000006c l     O .zp.bss	00000002 theOne.7
00007b28 l     F .text	00000032 __mulhi3
00005baf l     F .text	000001f2 performMIDICmd
00005023 l     F .text	00000b8c chainEvent
00000048 l     O .zp.bss	00000002 myRecord.0
00007557 l     F .text	000001e2 malloc
0000004a l     O .zp.bss	00000002 myRecord.1
0000004c l     O .zp.bss	00000002 myRecord.2
0000004e l     O .zp.bss	00000001 myRecord.14
00001d65 l     F .text	00000011 textGotoXY
00001d76 l     F .text	000000f3 fileReadDir
0000870e l     O .bss	00000102 fileReadDir.fileDirEntS
0000439a l     F .text	00000116 reprepFPR_far
00002465 l     F .text	00000508 readDirectory_far
0000296d l     F .text	000005b7 sortFileList_far
00007475 l     F .text	000000e2 sprintf
00002f24 l     F .text	0000044d displayFileList_far
00003371 l     F .text	00001029 pickFile_far
000044b0 l     F .text	00000099 wipeArea_far
00007910 l     F .text	000000b9 __udivhi3
00008810 l     O .bss	00000002 theOne.1
000079c9 l     F .text	0000015f __udivsi3
00008584 l     O .rodata	00000100 midi_instruments
000086bc l     O .data	0000004a nameVersion
00006681 l     F .text	00000b76 _ZN12_GLOBAL__N_15printEPKcP6Status
000071f7 l     F .text	000000df _ZN12_GLOBAL__N_13putEcP6Status
000072d6 l     F .text	0000010f _ZN12_GLOBAL__N_112print_stringEPKcP6Status
00000079 l     O .zp.bss	00000001 _ZN12_GLOBAL__N_111initializedE
00000328 l     F .text	0000014b _ZN12_GLOBAL__N_19FreeChunk6insertEPvj
0000007a l     O .zp.bss	00000001 _ZN12_GLOBAL__N_19last_freeE
0000007d l     O .zp.bss	00000002 _ZN12_GLOBAL__N_19free_listE
00000474 l     F .text	000000e8 _ZN12_GLOBAL__N_19FreeChunk6removeEv
0000007b l     O .zp.bss	00000002 _ZN12_GLOBAL__N_19free_sizeE
00000623 g     F .text	000013c6 main
00050d00 g       .cozyLCD	00000000 cozyLCD_end
00030000 g       .cozyLCD	00000000 cozyLCD_start
00000324 g       .text	00000000 __after_main
00000310 g       .text	00000000 __do_init_stack
0000031e g       .text	00000000 __do_copy_zp_data
00000582 g     F .text	00000017 __copy_zp_data
00000318 g       .text	00000000 __do_zero_bss
0000055c g     F .text	00000013 __zero_bss
0000031b g       .text	00000000 __do_zero_zp_bss
0000056f g     F .text	00000013 __zero_zp_bss
0000667c g     F .text	00000005 exit
00000327 g       .text	00000000 _fini
000078f0  w    F .text	00000020 __memset
00001000  w      *ABS*	00000000 __heap_default_limit
0000888a g       .noinit	00000000 __heap_start
000078c4  w    F .text	0000002c memcpy
00000010 g       *ABS*	00000000 __rc0
00000012 g       *ABS*	00000000 __rc2
00000014 g       *ABS*	00000000 __rc4
00000016 g       *ABS*	00000000 __rc6
00000018 g       *ABS*	00000000 __rc8
0000001a g       *ABS*	00000000 __rc10
0000001c g       *ABS*	00000000 __rc12
0000001e g       *ABS*	00000000 __rc14
00000020 g       *ABS*	00000000 __rc16
00000022 g       *ABS*	00000000 __rc18
00000024 g       *ABS*	00000000 __rc20
00000026 g       *ABS*	00000000 __rc22
00000028 g       *ABS*	00000000 __rc24
0000002a g       *ABS*	00000000 __rc26
0000002c g       *ABS*	00000000 __rc28
0000002e g       *ABS*	00000000 __rc30
0000002f g       *ABS*	00000000 __rc31
00000300 g       *ABS*	00000000 __f256_start
0000a000 g       *ABS*	00000000 __stack
0000a000 g       *ABS*	00000000 __SLOT_ADDR
0800a000 g       *ABS*	00000000 __block8_lma
00002000 g       *ABS*	00000000 __BLOCK_SIZE
0900a000 g       *ABS*	00000000 __block9_lma
0a00a000 g       *ABS*	00000000 __block10_lma
0b00a000 g       *ABS*	00000000 __block11_lma
0c00a000 g       *ABS*	00000000 __block12_lma
0d00a000 g       *ABS*	00000000 __block13_lma
0e00a000 g       *ABS*	00000000 __block14_lma
0f00a000 g       *ABS*	00000000 __block15_lma
1000a000 g       *ABS*	00000000 __block16_lma
1100a000 g       *ABS*	00000000 __block17_lma
1200a000 g       *ABS*	00000000 __block18_lma
1300a000 g       *ABS*	00000000 __block19_lma
1400a000 g       *ABS*	00000000 __block20_lma
1500a000 g       *ABS*	00000000 __block21_lma
1600a000 g       *ABS*	00000000 __block22_lma
1700a000 g       *ABS*	00000000 __block23_lma
00030000 g       *ABS*	00000000 __cozyLCD_lma
00020d00 g       *ABS*	00000000 __cozyLCD_size
00008706 g       .bss	00000000 __bss_start
00050d00 g       .cozyLCD	00000000 end_cozyLCD
00000310 g       .text	00000000 _start
0000002d g       *ABS*	00000000 __rc29
0000002b g       *ABS*	00000000 __rc27
00000029 g       *ABS*	00000000 __rc25
00000027 g       *ABS*	00000000 __rc23
00000025 g       *ABS*	00000000 __rc21
00000023 g       *ABS*	00000000 __rc19
00000021 g       *ABS*	00000000 __rc17
0000001f g       *ABS*	00000000 __rc15
0000001d g       *ABS*	00000000 __rc13
0000001b g       *ABS*	00000000 __rc11
00000019 g       *ABS*	00000000 __rc9
00000017 g       *ABS*	00000000 __rc7
00000015 g       *ABS*	00000000 __rc5
00000013 g       *ABS*	00000000 __rc3
00000011 g       *ABS*	00000000 __rc1
00000030 g       .zp.data	00000000 __zp_data_start
00000300 g       *ABS*	00000000 __zp_data_load_start
00000010 g       *ABS*	00000000 __zp_data_size
00000040 g       .zp.bss	00000000 __zp_bss_start
0000003f g       *ABS*	00000000 __zp_bss_size
00000310 g       .text	00000000 _init
00007bca g       .text	00000000 __init_array_start
00007bca g       .text	00000000 __init_array_end
00007bca g       .text	00000000 __fini_array_start
00007bca g       .text	00000000 __fini_array_end
000086bc g       .data	00000000 __data_start
00008706 g       .data	00000000 __data_end
000086bc g       *ABS*	00000000 __data_load_start
0000004a g       *ABS*	00000000 __data_size
0000888a g       .bss	00000000 __bss_end
00000184 g       *ABS*	00000000 __bss_size
0000888a g       .noinit	00000000 end_block8
0000888a g       .noinit	00000000 end_block9
0000888a g       .noinit	00000000 end_block10
0000888a g       .noinit	00000000 end_block11
0000888a g       .noinit	00000000 end_block12
0000888a g       .noinit	00000000 end_block13
0000888a g       .noinit	00000000 end_block14
0000888a g       .noinit	00000000 end_block15
0000888a g       .noinit	00000000 end_block16
0000888a g       .noinit	00000000 end_block17
0000888a g       .noinit	00000000 end_block18
0000888a g       .noinit	00000000 end_block19
0000888a g       .noinit	00000000 end_block20
0000888a g       .noinit	00000000 end_block21
0000888a g       .noinit	00000000 end_block22
0000888a g       .noinit	00000000 end_block23

Disassembly of section .text:

00000310 <_start>:
     310: a9 00        	lda	#$0
     312: 85 10        	sta	$10                     ; 0x10 <__zp_data_size>
     314: a9 a0        	lda	#$a0
     316: 85 11        	sta	$11                     ; 0x11 <__rc1>

00000318 <__do_zero_bss>:
     318: 20 5c 05     	jsr	$55c <__zero_bss>

0000031b <__do_zero_zp_bss>:
     31b: 20 6f 05     	jsr	$56f <__zero_zp_bss>

0000031e <__do_copy_zp_data>:
     31e: 20 82 05     	jsr	$582 <__copy_zp_data>
     321: 20 23 06     	jsr	$623 <main>

00000324 <__after_main>:
     324: 4c 7c 66     	jmp	$667c <exit>

00000327 <_fini>:
     327: 60           	rts

00000328 <_ZN12_GLOBAL__N_19FreeChunk6insertEPvj>:
     328: 85 16        	sta	$16                     ; 0x16 <__rc6>
     32a: 29 fe        	and	#$fe
     32c: 85 14        	sta	$14                     ; 0x14 <__rc4>
     32e: a0 01        	ldy	#$1
     330: 98           	tya
     331: 32 12        	and	($12)                   ; 0x12 <__rc2>
     333: 05 14        	ora	$14                     ; 0x14 <__rc4>
     335: 92 12        	sta	($12)                   ; 0x12 <__rc2>
     337: a5 12        	lda	$12                     ; 0x12 <__rc2>
     339: 18           	clc
     33a: 65 14        	adc	$14                     ; 0x14 <__rc4>
     33c: 85 15        	sta	$15                     ; 0x15 <__rc5>
     33e: 8a           	txa
     33f: 65 13        	adc	$13                     ; 0x13 <__rc3>
     341: 85 14        	sta	$14                     ; 0x14 <__rc4>
     343: 18           	clc
     344: a5 15        	lda	$15                     ; 0x15 <__rc5>
     346: 69 fe        	adc	#$fe
     348: 85 17        	sta	$17                     ; 0x17 <__rc7>
     34a: a5 14        	lda	$14                     ; 0x14 <__rc4>
     34c: 69 ff        	adc	#$ff
     34e: 85 15        	sta	$15                     ; 0x15 <__rc5>
     350: a5 17        	lda	$17                     ; 0x17 <__rc7>
     352: 85 14        	sta	$14                     ; 0x14 <__rc4>
     354: 8a           	txa
     355: 91 12        	sta	($12),y                 ; 0x12 <__rc2>
     357: a5 16        	lda	$16                     ; 0x16 <__rc6>
     359: 92 14        	sta	($14)                   ; 0x14 <__rc4>
     35b: 8a           	txa
     35c: 91 14        	sta	($14),y                 ; 0x14 <__rc4>
     35e: a2 01        	ldx	#$1
     360: 86 18        	stx	$18                     ; 0x18 <__rc8>
     362: b1 12        	lda	($12),y                 ; 0x12 <__rc2>
     364: 85 14        	sta	$14                     ; 0x14 <__rc4>
     366: a9 fe        	lda	#$fe
     368: 32 12        	and	($12)                   ; 0x12 <__rc2>
     36a: 18           	clc
     36b: 65 7b        	adc	$7b                     ; 0x7b <_ZN12_GLOBAL__N_19free_sizeE>
     36d: aa           	tax
     36e: a5 14        	lda	$14                     ; 0x14 <__rc4>
     370: 65 7c        	adc	$7c                     ; 0x7c <_ZN12_GLOBAL__N_19free_sizeE+0x1>
     372: a8           	tay
     373: 18           	clc
     374: 8a           	txa
     375: 69 fe        	adc	#$fe
     377: aa           	tax
     378: 98           	tya
     379: 69 ff        	adc	#$ff
     37b: 86 7b        	stx	$7b                     ; 0x7b <_ZN12_GLOBAL__N_19free_sizeE>
     37d: 85 7c        	sta	$7c                     ; 0x7c <_ZN12_GLOBAL__N_19free_sizeE+0x1>
     37f: a6 7d        	ldx	$7d                     ; 0x7d <_ZN12_GLOBAL__N_19free_listE>
     381: 86 16        	stx	$16                     ; 0x16 <__rc6>
     383: a4 7e        	ldy	$7e                     ; 0x7e <_ZN12_GLOBAL__N_19free_listE+0x1>
     385: a2 00        	ldx	#$0
     387: 86 14        	stx	$14                     ; 0x14 <__rc4>
     389: a2 00        	ldx	#$0
     38b: 86 15        	stx	$15                     ; 0x15 <__rc5>
     38d: 84 17        	sty	$17                     ; 0x17 <__rc7>
     38f: c4 15        	cpy	$15                     ; 0x15 <__rc5>
     391: d0 3c        	bne	$3cf <_ZN12_GLOBAL__N_19FreeChunk6insertEPvj+0xa7>
     393: a6 16        	ldx	$16                     ; 0x16 <__rc6>
     395: e4 14        	cpx	$14                     ; 0x14 <__rc4>
     397: d0 36        	bne	$3cf <_ZN12_GLOBAL__N_19FreeChunk6insertEPvj+0xa7>
     399: a0 04        	ldy	#$4
     39b: a5 12        	lda	$12                     ; 0x12 <__rc2>
     39d: 18           	clc
     39e: 69 04        	adc	#$4
     3a0: 85 14        	sta	$14                     ; 0x14 <__rc4>
     3a2: a5 13        	lda	$13                     ; 0x13 <__rc3>
     3a4: 69 00        	adc	#$0
     3a6: 18           	clc
     3a7: 85 15        	sta	$15                     ; 0x15 <__rc5>
     3a9: a5 12        	lda	$12                     ; 0x12 <__rc2>
     3ab: 91 12        	sta	($12),y                 ; 0x12 <__rc2>
     3ad: a0 02        	ldy	#$2
     3af: 85 17        	sta	$17                     ; 0x17 <__rc7>
     3b1: 69 02        	adc	#$2
     3b3: 85 16        	sta	$16                     ; 0x16 <__rc6>
     3b5: a5 17        	lda	$17                     ; 0x17 <__rc7>
     3b7: 91 12        	sta	($12),y                 ; 0x12 <__rc2>
     3b9: a5 13        	lda	$13                     ; 0x13 <__rc3>
     3bb: 69 00        	adc	#$0
     3bd: 85 17        	sta	$17                     ; 0x17 <__rc7>
     3bf: 88           	dey
     3c0: a5 13        	lda	$13                     ; 0x13 <__rc3>
     3c2: 91 14        	sta	($14),y                 ; 0x14 <__rc4>
     3c4: 91 16        	sta	($16),y                 ; 0x16 <__rc6>
     3c6: a6 12        	ldx	$12                     ; 0x12 <__rc2>
     3c8: 86 7d        	stx	$7d                     ; 0x7d <_ZN12_GLOBAL__N_19free_listE>
     3ca: a6 13        	ldx	$13                     ; 0x13 <__rc3>
     3cc: 86 7e        	stx	$7e                     ; 0x7e <_ZN12_GLOBAL__N_19free_listE+0x1>
     3ce: 60           	rts
     3cf: a6 12        	ldx	$12                     ; 0x12 <__rc2>
     3d1: a5 12        	lda	$12                     ; 0x12 <__rc2>
     3d3: 18           	clc
     3d4: 69 02        	adc	#$2
     3d6: 85 14        	sta	$14                     ; 0x14 <__rc4>
     3d8: a4 16        	ldy	$16                     ; 0x16 <__rc6>
     3da: a5 13        	lda	$13                     ; 0x13 <__rc3>
     3dc: 69 00        	adc	#$0
     3de: 85 15        	sta	$15                     ; 0x15 <__rc5>
     3e0: 84 19        	sty	$19                     ; 0x19 <__rc9>
     3e2: a4 17        	ldy	$17                     ; 0x17 <__rc7>
     3e4: 84 1a        	sty	$1a                     ; 0x1a <__rc10>
     3e6: a0 02        	ldy	#$2
     3e8: a5 19        	lda	$19                     ; 0x19 <__rc9>
     3ea: 91 12        	sta	($12),y                 ; 0x12 <__rc2>
     3ec: 84 1d        	sty	$1d                     ; 0x1d <__rc13>
     3ee: a4 18        	ldy	$18                     ; 0x18 <__rc8>
     3f0: a5 1a        	lda	$1a                     ; 0x1a <__rc10>
     3f2: 91 14        	sta	($14),y                 ; 0x14 <__rc4>
     3f4: 84 1e        	sty	$1e                     ; 0x1e <__rc14>
     3f6: 18           	clc
     3f7: a5 19        	lda	$19                     ; 0x19 <__rc9>
     3f9: 69 04        	adc	#$4
     3fb: 85 18        	sta	$18                     ; 0x18 <__rc8>
     3fd: a5 1a        	lda	$1a                     ; 0x1a <__rc10>
     3ff: 69 00        	adc	#$0
     401: 85 19        	sta	$19                     ; 0x19 <__rc9>
     403: 8a           	txa
     404: 18           	clc
     405: 69 04        	adc	#$4
     407: 85 1a        	sta	$1a                     ; 0x1a <__rc10>
     409: a5 13        	lda	$13                     ; 0x13 <__rc3>
     40b: 69 00        	adc	#$0
     40d: 85 1b        	sta	$1b                     ; 0x1b <__rc11>
     40f: a0 04        	ldy	#$4
     411: b1 16        	lda	($16),y                 ; 0x16 <__rc6>
     413: 85 16        	sta	$16                     ; 0x16 <__rc6>
     415: 85 22        	sta	$22                     ; 0x22 <__rc18>
     417: a4 1e        	ldy	$1e                     ; 0x1e <__rc14>
     419: b1 18        	lda	($18),y                 ; 0x18 <__rc8>
     41b: 85 17        	sta	$17                     ; 0x17 <__rc7>
     41d: 85 19        	sta	$19                     ; 0x19 <__rc9>
     41f: a0 04        	ldy	#$4
     421: a5 22        	lda	$22                     ; 0x22 <__rc18>
     423: 91 12        	sta	($12),y                 ; 0x12 <__rc2>
     425: 84 1f        	sty	$1f                     ; 0x1f <__rc15>
     427: a4 1e        	ldy	$1e                     ; 0x1e <__rc14>
     429: a5 19        	lda	$19                     ; 0x19 <__rc9>
     42b: 91 1a        	sta	($1a),y                 ; 0x1a <__rc10>
     42d: 84 1a        	sty	$1a                     ; 0x1a <__rc10>
     42f: 18           	clc
     430: a5 22        	lda	$22                     ; 0x22 <__rc18>
     432: 69 02        	adc	#$2
     434: 85 18        	sta	$18                     ; 0x18 <__rc8>
     436: a5 19        	lda	$19                     ; 0x19 <__rc9>
     438: 69 00        	adc	#$0
     43a: 85 19        	sta	$19                     ; 0x19 <__rc9>
     43c: 8a           	txa
     43d: a4 1d        	ldy	$1d                     ; 0x1d <__rc13>
     43f: 91 16        	sta	($16),y                 ; 0x16 <__rc6>
     441: a5 13        	lda	$13                     ; 0x13 <__rc3>
     443: a4 1a        	ldy	$1a                     ; 0x1a <__rc10>
     445: 91 18        	sta	($18),y                 ; 0x18 <__rc8>
     447: a4 1d        	ldy	$1d                     ; 0x1d <__rc13>
     449: b1 12        	lda	($12),y                 ; 0x12 <__rc2>
     44b: 85 16        	sta	$16                     ; 0x16 <__rc6>
     44d: 85 19        	sta	$19                     ; 0x19 <__rc9>
     44f: a4 1a        	ldy	$1a                     ; 0x1a <__rc10>
     451: b1 14        	lda	($14),y                 ; 0x14 <__rc4>
     453: 84 18        	sty	$18                     ; 0x18 <__rc8>
     455: 85 17        	sta	$17                     ; 0x17 <__rc7>
     457: 85 14        	sta	$14                     ; 0x14 <__rc4>
     459: 8a           	txa
     45a: a4 1f        	ldy	$1f                     ; 0x1f <__rc15>
     45c: 91 16        	sta	($16),y                 ; 0x16 <__rc6>
     45e: 18           	clc
     45f: a5 19        	lda	$19                     ; 0x19 <__rc9>
     461: 69 04        	adc	#$4
     463: a8           	tay
     464: a5 14        	lda	$14                     ; 0x14 <__rc4>
     466: 69 00        	adc	#$0
     468: 84 14        	sty	$14                     ; 0x14 <__rc4>
     46a: 85 15        	sta	$15                     ; 0x15 <__rc5>
     46c: a5 13        	lda	$13                     ; 0x13 <__rc3>
     46e: a4 18        	ldy	$18                     ; 0x18 <__rc8>
     470: 91 14        	sta	($14),y                 ; 0x14 <__rc4>
     472: 60           	rts
     473: 00           	brk

00000474 <_ZN12_GLOBAL__N_19FreeChunk6removeEv>:
     474: a0 01        	ldy	#$1
     476: a9 fe        	lda	#$fe
     478: 32 12        	and	($12)                   ; 0x12 <__rc2>
     47a: 85 14        	sta	$14                     ; 0x14 <__rc4>
     47c: a5 7b        	lda	$7b                     ; 0x7b <_ZN12_GLOBAL__N_19free_sizeE>
     47e: a6 7c        	ldx	$7c                     ; 0x7c <_ZN12_GLOBAL__N_19free_sizeE+0x1>
     480: 38           	sec
     481: e5 14        	sbc	$14                     ; 0x14 <__rc4>
     483: 85 17        	sta	$17                     ; 0x17 <__rc7>
     485: 8a           	txa
     486: f1 12        	sbc	($12),y                 ; 0x12 <__rc2>
     488: 85 14        	sta	$14                     ; 0x14 <__rc4>
     48a: a2 01        	ldx	#$1
     48c: 86 16        	stx	$16                     ; 0x16 <__rc6>
     48e: 18           	clc
     48f: a5 17        	lda	$17                     ; 0x17 <__rc7>
     491: 69 02        	adc	#$2
     493: 85 15        	sta	$15                     ; 0x15 <__rc5>
     495: a5 14        	lda	$14                     ; 0x14 <__rc4>
     497: 69 00        	adc	#$0
     499: a6 15        	ldx	$15                     ; 0x15 <__rc5>
     49b: 86 7b        	stx	$7b                     ; 0x7b <_ZN12_GLOBAL__N_19free_sizeE>
     49d: 85 7c        	sta	$7c                     ; 0x7c <_ZN12_GLOBAL__N_19free_sizeE+0x1>
     49f: a5 12        	lda	$12                     ; 0x12 <__rc2>
     4a1: 18           	clc
     4a2: 69 02        	adc	#$2
     4a4: 85 14        	sta	$14                     ; 0x14 <__rc4>
     4a6: a5 13        	lda	$13                     ; 0x13 <__rc3>
     4a8: 69 00        	adc	#$0
     4aa: c8           	iny
     4ab: 85 15        	sta	$15                     ; 0x15 <__rc5>
     4ad: b1 12        	lda	($12),y                 ; 0x12 <__rc2>
     4af: aa           	tax
     4b0: a4 16        	ldy	$16                     ; 0x16 <__rc6>
     4b2: b1 14        	lda	($14),y                 ; 0x14 <__rc4>
     4b4: 85 19        	sta	$19                     ; 0x19 <__rc9>
     4b6: c5 13        	cmp	$13                     ; 0x13 <__rc3>
     4b8: d0 0f        	bne	$4c9 <_ZN12_GLOBAL__N_19FreeChunk6removeEv+0x55>
     4ba: e4 12        	cpx	$12                     ; 0x12 <__rc2>
     4bc: d0 0b        	bne	$4c9 <_ZN12_GLOBAL__N_19FreeChunk6removeEv+0x55>
     4be: a2 00        	ldx	#$0
     4c0: 86 14        	stx	$14                     ; 0x14 <__rc4>
     4c2: a2 00        	ldx	#$0
     4c4: 86 15        	stx	$15                     ; 0x15 <__rc5>
     4c6: 4c 53 05     	jmp	$553 <_ZN12_GLOBAL__N_19FreeChunk6removeEv+0xdf>
     4c9: 86 18        	stx	$18                     ; 0x18 <__rc8>
     4cb: a6 12        	ldx	$12                     ; 0x12 <__rc2>
     4cd: a5 12        	lda	$12                     ; 0x12 <__rc2>
     4cf: 86 1c        	stx	$1c                     ; 0x1c <__rc12>
     4d1: 18           	clc
     4d2: 69 04        	adc	#$4
     4d4: 85 14        	sta	$14                     ; 0x14 <__rc4>
     4d6: a5 13        	lda	$13                     ; 0x13 <__rc3>
     4d8: 69 00        	adc	#$0
     4da: a0 04        	ldy	#$4
     4dc: 85 15        	sta	$15                     ; 0x15 <__rc5>
     4de: b1 12        	lda	($12),y                 ; 0x12 <__rc2>
     4e0: 85 1d        	sta	$1d                     ; 0x1d <__rc13>
     4e2: a2 04        	ldx	#$4
     4e4: 86 1a        	stx	$1a                     ; 0x1a <__rc10>
     4e6: 18           	clc
     4e7: 69 02        	adc	#$2
     4e9: 85 16        	sta	$16                     ; 0x16 <__rc6>
     4eb: a0 01        	ldy	#$1
     4ed: b1 14        	lda	($14),y                 ; 0x14 <__rc4>
     4ef: aa           	tax
     4f0: 84 1e        	sty	$1e                     ; 0x1e <__rc14>
     4f2: 69 00        	adc	#$0
     4f4: a4 16        	ldy	$16                     ; 0x16 <__rc6>
     4f6: 84 14        	sty	$14                     ; 0x14 <__rc4>
     4f8: 85 15        	sta	$15                     ; 0x15 <__rc5>
     4fa: a4 1d        	ldy	$1d                     ; 0x1d <__rc13>
     4fc: 84 16        	sty	$16                     ; 0x16 <__rc6>
     4fe: 86 17        	stx	$17                     ; 0x17 <__rc7>
     500: a5 18        	lda	$18                     ; 0x18 <__rc8>
     502: a0 02        	ldy	#$2
     504: 91 16        	sta	($16),y                 ; 0x16 <__rc6>
     506: 84 16        	sty	$16                     ; 0x16 <__rc6>
     508: a5 19        	lda	$19                     ; 0x19 <__rc9>
     50a: a4 1e        	ldy	$1e                     ; 0x1e <__rc14>
     50c: 91 14        	sta	($14),y                 ; 0x14 <__rc4>
     50e: 18           	clc
     50f: a5 1c        	lda	$1c                     ; 0x1c <__rc12>
     511: 69 02        	adc	#$2
     513: 85 14        	sta	$14                     ; 0x14 <__rc4>
     515: a5 13        	lda	$13                     ; 0x13 <__rc3>
     517: 69 00        	adc	#$0
     519: 85 15        	sta	$15                     ; 0x15 <__rc5>
     51b: a4 16        	ldy	$16                     ; 0x16 <__rc6>
     51d: b1 12        	lda	($12),y                 ; 0x12 <__rc2>
     51f: 85 16        	sta	$16                     ; 0x16 <__rc6>
     521: a4 1e        	ldy	$1e                     ; 0x1e <__rc14>
     523: b1 14        	lda	($14),y                 ; 0x14 <__rc4>
     525: 84 18        	sty	$18                     ; 0x18 <__rc8>
     527: a4 16        	ldy	$16                     ; 0x16 <__rc6>
     529: 84 14        	sty	$14                     ; 0x14 <__rc4>
     52b: 85 15        	sta	$15                     ; 0x15 <__rc5>
     52d: 85 17        	sta	$17                     ; 0x17 <__rc7>
     52f: a4 1a        	ldy	$1a                     ; 0x1a <__rc10>
     531: a5 1d        	lda	$1d                     ; 0x1d <__rc13>
     533: 91 14        	sta	($14),y                 ; 0x14 <__rc4>
     535: 18           	clc
     536: a5 16        	lda	$16                     ; 0x16 <__rc6>
     538: 69 04        	adc	#$4
     53a: 85 16        	sta	$16                     ; 0x16 <__rc6>
     53c: a5 17        	lda	$17                     ; 0x17 <__rc7>
     53e: 69 00        	adc	#$0
     540: 85 17        	sta	$17                     ; 0x17 <__rc7>
     542: 8a           	txa
     543: a4 18        	ldy	$18                     ; 0x18 <__rc8>
     545: 91 16        	sta	($16),y                 ; 0x16 <__rc6>
     547: a6 7e        	ldx	$7e                     ; 0x7e <_ZN12_GLOBAL__N_19free_listE+0x1>
     549: e4 13        	cpx	$13                     ; 0x13 <__rc3>
     54b: d0 0e        	bne	$55b <_ZN12_GLOBAL__N_19FreeChunk6removeEv+0xe7>
     54d: a6 7d        	ldx	$7d                     ; 0x7d <_ZN12_GLOBAL__N_19free_listE>
     54f: e4 12        	cpx	$12                     ; 0x12 <__rc2>
     551: d0 08        	bne	$55b <_ZN12_GLOBAL__N_19FreeChunk6removeEv+0xe7>
     553: a6 14        	ldx	$14                     ; 0x14 <__rc4>
     555: a4 15        	ldy	$15                     ; 0x15 <__rc5>
     557: 86 7d        	stx	$7d                     ; 0x7d <_ZN12_GLOBAL__N_19free_listE>
     559: 84 7e        	sty	$7e                     ; 0x7e <_ZN12_GLOBAL__N_19free_listE+0x1>
     55b: 60           	rts

0000055c <__zero_bss>:
     55c: a2 84        	ldx	#$84
     55e: a0 01        	ldy	#$1
     560: a9 06        	lda	#$6
     562: 85 12        	sta	$12                     ; 0x12 <__rc2>
     564: a9 87        	lda	#$87
     566: 85 13        	sta	$13                     ; 0x13 <__rc3>
     568: a9 00        	lda	#$0
     56a: 84 14        	sty	$14                     ; 0x14 <__rc4>
     56c: 4c f0 78     	jmp	$78f0 <__memset>

0000056f <__zero_zp_bss>:
     56f: a2 3f        	ldx	#$3f
     571: a0 00        	ldy	#$0
     573: a9 40        	lda	#$40
     575: 85 12        	sta	$12                     ; 0x12 <__rc2>
     577: a9 00        	lda	#$0
     579: 85 13        	sta	$13                     ; 0x13 <__rc3>
     57b: a9 00        	lda	#$0
     57d: 84 14        	sty	$14                     ; 0x14 <__rc4>
     57f: 4c f0 78     	jmp	$78f0 <__memset>

00000582 <__copy_zp_data>:
     582: a9 10        	lda	#$10
     584: a2 00        	ldx	#$0
     586: a0 30        	ldy	#$30
     588: 84 12        	sty	$12                     ; 0x12 <__rc2>
     58a: a0 00        	ldy	#$0
     58c: 84 13        	sty	$13                     ; 0x13 <__rc3>
     58e: a0 00        	ldy	#$0
     590: 84 14        	sty	$14                     ; 0x14 <__rc4>
     592: a0 03        	ldy	#$3
     594: 84 15        	sty	$15                     ; 0x15 <__rc5>
     596: 4c c4 78     	jmp	$78c4 <memcpy>

00000599 <FAR_PEEK>:
     599: 85 14        	sta	$14                     ; 0x14 <__rc4>
     59b: da           	phx
     59c: 7a           	ply
     59d: a5 12        	lda	$12                     ; 0x12 <__rc2>
     59f: a6 0f        	ldx	$f                      ; 0xf
     5a1: 78           	sei
     5a2: 84 12        	sty	$12                     ; 0x12 <__rc2>
     5a4: 06 12        	asl	$12                     ; 0x12 <__rc2>
     5a6: 2a           	rol
     5a7: 06 12        	asl	$12                     ; 0x12 <__rc2>
     5a9: 2a           	rol
     5aa: 06 12        	asl	$12                     ; 0x12 <__rc2>
     5ac: 2a           	rol
     5ad: 85 0f        	sta	$f                      ; 0xf
     5af: 98           	tya
     5b0: 09 e0        	ora	#$e0
     5b2: 85 15        	sta	$15                     ; 0x15 <__rc5>
     5b4: b2 14        	lda	($14)                   ; 0x14 <__rc4>
     5b6: 86 0f        	stx	$f                      ; 0xf
     5b8: 58           	cli
     5b9: 60           	rts

000005ba <FAR_PEEKW>:
     5ba: 85 14        	sta	$14                     ; 0x14 <__rc4>
     5bc: da           	phx
     5bd: 7a           	ply
     5be: a5 12        	lda	$12                     ; 0x12 <__rc2>
     5c0: a6 0f        	ldx	$f                      ; 0xf
     5c2: 78           	sei
     5c3: 84 12        	sty	$12                     ; 0x12 <__rc2>
     5c5: 06 12        	asl	$12                     ; 0x12 <__rc2>
     5c7: 2a           	rol
     5c8: 06 12        	asl	$12                     ; 0x12 <__rc2>
     5ca: 2a           	rol
     5cb: 06 12        	asl	$12                     ; 0x12 <__rc2>
     5cd: 2a           	rol
     5ce: 85 0f        	sta	$f                      ; 0xf
     5d0: 98           	tya
     5d1: 09 e0        	ora	#$e0
     5d3: 85 15        	sta	$15                     ; 0x15 <__rc5>
     5d5: b2 14        	lda	($14)                   ; 0x14 <__rc4>
     5d7: 85 12        	sta	$12                     ; 0x12 <__rc2>
     5d9: a0 01        	ldy	#$1
     5db: b1 14        	lda	($14),y                 ; 0x14 <__rc4>
     5dd: 86 0f        	stx	$f                      ; 0xf
     5df: 58           	cli
     5e0: aa           	tax
     5e1: a5 12        	lda	$12                     ; 0x12 <__rc2>
     5e3: 60           	rts

000005e4 <FAR_POKE>:
     5e4: 85 16        	sta	$16                     ; 0x16 <__rc6>
     5e6: da           	phx
     5e7: 7a           	ply
     5e8: a5 12        	lda	$12                     ; 0x12 <__rc2>
     5ea: a6 0f        	ldx	$f                      ; 0xf
     5ec: 78           	sei
     5ed: 84 12        	sty	$12                     ; 0x12 <__rc2>
     5ef: 06 12        	asl	$12                     ; 0x12 <__rc2>
     5f1: 2a           	rol
     5f2: 06 12        	asl	$12                     ; 0x12 <__rc2>
     5f4: 2a           	rol
     5f5: 06 12        	asl	$12                     ; 0x12 <__rc2>
     5f7: 2a           	rol
     5f8: 85 0f        	sta	$f                      ; 0xf
     5fa: 98           	tya
     5fb: 09 e0        	ora	#$e0
     5fd: 85 17        	sta	$17                     ; 0x17 <__rc7>
     5ff: a5 14        	lda	$14                     ; 0x14 <__rc4>
     601: 92 16        	sta	($16)                   ; 0x16 <__rc6>
     603: 86 0f        	stx	$f                      ; 0xf
     605: 58           	cli
     606: 60           	rts

00000607 <FAR_POKEW>:
     607: 85 12        	sta	$12                     ; 0x12 <__rc2>
     609: 8a           	txa
     60a: a6 0f        	ldx	$f                      ; 0xf
     60c: 78           	sei
     60d: a0 1a        	ldy	#$1a
     60f: 84 0f        	sty	$f                      ; 0xf
     611: 09 e0        	ora	#$e0
     613: 85 13        	sta	$13                     ; 0x13 <__rc3>
     615: a5 14        	lda	$14                     ; 0x14 <__rc4>
     617: 92 12        	sta	($12)                   ; 0x12 <__rc2>
     619: a0 01        	ldy	#$1
     61b: a5 15        	lda	$15                     ; 0x15 <__rc5>
     61d: 91 12        	sta	($12),y                 ; 0x12 <__rc2>
     61f: 86 0f        	stx	$f                      ; 0xf
     621: 58           	cli
     622: 60           	rts

00000623 <main>:
     623: 18           	clc
     624: a5 10        	lda	$10                     ; 0x10 <__zp_data_size>
     626: 69 b4        	adc	#$b4
     628: 85 10        	sta	$10                     ; 0x10 <__zp_data_size>
     62a: a5 11        	lda	$11                     ; 0x11 <__rc1>
     62c: 69 ff        	adc	#$ff
     62e: 85 11        	sta	$11                     ; 0x11 <__rc1>
     630: a6 24        	ldx	$24                     ; 0x24 <__rc20>
     632: da           	phx
     633: a6 25        	ldx	$25                     ; 0x25 <__rc21>
     635: da           	phx
     636: a6 26        	ldx	$26                     ; 0x26 <__rc22>
     638: da           	phx
     639: a6 27        	ldx	$27                     ; 0x27 <__rc23>
     63b: da           	phx
     63c: a5 28        	lda	$28                     ; 0x28 <__rc24>
     63e: a0 09        	ldy	#$9
     640: 91 10        	sta	($10),y                 ; 0x10 <__zp_data_size>
     642: a5 29        	lda	$29                     ; 0x29 <__rc25>
     644: 88           	dey
     645: 91 10        	sta	($10),y                 ; 0x10 <__zp_data_size>
     647: a5 2a        	lda	$2a                     ; 0x2a <__rc26>
     649: 88           	dey
     64a: 91 10        	sta	($10),y                 ; 0x10 <__zp_data_size>
     64c: a5 2b        	lda	$2b                     ; 0x2b <__rc27>
     64e: 88           	dey
     64f: 91 10        	sta	($10),y                 ; 0x10 <__zp_data_size>
     651: a5 2c        	lda	$2c                     ; 0x2c <__rc28>
     653: 88           	dey
     654: 91 10        	sta	($10),y                 ; 0x10 <__zp_data_size>
     656: a5 2d        	lda	$2d                     ; 0x2d <__rc29>
     658: 88           	dey
     659: 91 10        	sta	($10),y                 ; 0x10 <__zp_data_size>
     65b: a5 2e        	lda	$2e                     ; 0x2e <__rc30>
     65d: 88           	dey
     65e: 91 10        	sta	($10),y                 ; 0x10 <__zp_data_size>
     660: a5 2f        	lda	$2f                     ; 0x2f <__rc31>
     662: 88           	dey
     663: 91 10        	sta	($10),y                 ; 0x10 <__zp_data_size>
     665: a2 88        	ldx	#$88
     667: 86 2d        	stx	$2d                     ; 0x2d <__rc29>
     669: a2 a1        	ldx	#$a1
     66b: 86 28        	stx	$28                     ; 0x28 <__rc24>
     66d: a2 dd        	ldx	#$dd
     66f: 86 29        	stx	$29                     ; 0x29 <__rc25>
     671: a2 b1        	ldx	#$b1
     673: 86 2a        	stx	$2a                     ; 0x2a <__rc26>
     675: a2 dd        	ldx	#$dd
     677: 86 2b        	stx	$2b                     ; 0x2b <__rc27>
     679: 64 14        	stz	$14                     ; 0x14 <__rc4>
     67b: a2 00        	ldx	#$0
     67d: 86 12        	stx	$12                     ; 0x12 <__rc2>
     67f: a2 c0        	ldx	#$c0
     681: 86 13        	stx	$13                     ; 0x13 <__rc3>
     683: 64 01        	stz	$1                      ; 0x1
     685: a2 3f        	ldx	#$3f
     687: 8e 00 d0     	stx	$d000                   ; 0xd000 <end_block9+0x4776>
     68a: a2 b3        	ldx	#$b3
     68c: 86 00        	stx	$0                      ; 0x0
     68e: 64 08        	stz	$8                      ; 0x8
     690: a2 01        	ldx	#$1
     692: 86 09        	stx	$9                      ; 0x9
     694: e8           	inx
     695: 86 0a        	stx	$a                      ; 0xa
     697: e8           	inx
     698: 86 0b        	stx	$b                      ; 0xb
     69a: e8           	inx
     69b: 86 0c        	stx	$c                      ; 0xc
     69d: e8           	inx
     69e: 86 0d        	stx	$d                      ; 0xd
     6a0: a2 72        	ldx	#$72
     6a2: 86 f0        	stx	$f0                     ; 0xf0 <__data_size+0xa6>
     6a4: a2 00        	ldx	#$0
     6a6: 86 f1        	stx	$f1                     ; 0xf1 <__data_size+0xa7>
     6a8: a2 00        	ldx	#$0
     6aa: 86 18        	stx	$18                     ; 0x18 <__rc8>
     6ac: ca           	dex
     6ad: 86 19        	stx	$19                     ; 0x19 <__rc9>
     6af: 8a           	txa
     6b0: 0a           	asl
     6b1: 0a           	asl
     6b2: 18           	clc
     6b3: 69 d4        	adc	#$d4
     6b5: 85 1a        	sta	$1a                     ; 0x1a <__rc10>
     6b7: a0 00        	ldy	#$0
     6b9: 64 17        	stz	$17                     ; 0x17 <__rc7>
     6bb: 64 16        	stz	$16                     ; 0x16 <__rc6>
     6bd: a6 19        	ldx	$19                     ; 0x19 <__rc9>
     6bf: e0 03        	cpx	#$3
     6c1: a6 01        	ldx	$1                      ; 0x1
     6c3: 86 1c        	stx	$1c                     ; 0x1c <__rc12>
     6c5: a2 d0        	ldx	#$d0
     6c7: 84 1b        	sty	$1b                     ; 0x1b <__rc11>
     6c9: b0 02        	bcs	$6cd <main+0xaa>
     6cb: a6 1a        	ldx	$1a                     ; 0x1a <__rc10>
     6cd: 86 15        	stx	$15                     ; 0x15 <__rc5>
     6cf: a5 17        	lda	$17                     ; 0x17 <__rc7>
     6d1: 18           	clc
     6d2: 65 14        	adc	$14                     ; 0x14 <__rc4>
     6d4: a8           	tay
     6d5: a6 17        	ldx	$17                     ; 0x17 <__rc7>
     6d7: a5 16        	lda	$16                     ; 0x16 <__rc6>
     6d9: 85 1d        	sta	$1d                     ; 0x1d <__rc13>
     6db: a5 16        	lda	$16                     ; 0x16 <__rc6>
     6dd: 65 15        	adc	$15                     ; 0x15 <__rc5>
     6df: 84 16        	sty	$16                     ; 0x16 <__rc6>
     6e1: a0 01        	ldy	#$1
     6e3: 84 01        	sty	$1                      ; 0x1
     6e5: 85 17        	sta	$17                     ; 0x17 <__rc7>
     6e7: a5 1b        	lda	$1b                     ; 0x1b <__rc11>
     6e9: 92 16        	sta	($16)                   ; 0x16 <__rc6>
     6eb: 91 16        	sta	($16),y                 ; 0x16 <__rc6>
     6ed: c8           	iny
     6ee: 91 16        	sta	($16),y                 ; 0x16 <__rc6>
     6f0: 85 15        	sta	$15                     ; 0x15 <__rc5>
     6f2: c8           	iny
     6f3: a9 ff        	lda	#$ff
     6f5: 91 16        	sta	($16),y                 ; 0x16 <__rc6>
     6f7: 8a           	txa
     6f8: a6 1c        	ldx	$1c                     ; 0x1c <__rc12>
     6fa: 86 01        	stx	$1                      ; 0x1
     6fc: 18           	clc
     6fd: 69 04        	adc	#$4
     6ff: 85 17        	sta	$17                     ; 0x17 <__rc7>
     701: a5 1d        	lda	$1d                     ; 0x1d <__rc13>
     703: 69 00        	adc	#$0
     705: e6 15        	inc	$15                     ; 0x15 <__rc5>
     707: a4 15        	ldy	$15                     ; 0x15 <__rc5>
     709: 85 16        	sta	$16                     ; 0x16 <__rc6>
     70b: c9 04        	cmp	#$4
     70d: f0 03        	beq	$712 <main+0xef>
     70f: 4c bd 06     	jmp	$6bd <main+0x9a>
     712: a5 17        	lda	$17                     ; 0x17 <__rc7>
     714: f0 03        	beq	$719 <main+0xf6>
     716: 4c bd 06     	jmp	$6bd <main+0x9a>
     719: a6 18        	ldx	$18                     ; 0x18 <__rc8>
     71b: e8           	inx
     71c: e0 04        	cpx	#$4
     71e: f0 03        	beq	$723 <main+0x100>
     720: 4c aa 06     	jmp	$6aa <main+0x87>
     723: ad 02 d0     	lda	$d002                   ; 0xd002 <end_block9+0x4778>
     726: a2 f0        	ldx	#$f0
     728: 29 f0        	and	#$f0
     72a: 8d 02 d0     	sta	$d002                   ; 0xd002 <end_block9+0x4778>
     72d: ad 02 d0     	lda	$d002                   ; 0xd002 <end_block9+0x4778>
     730: 29 0f        	and	#$f
     732: 09 10        	ora	#$10
     734: 8d 02 d0     	sta	$d002                   ; 0xd002 <end_block9+0x4778>
     737: a0 02        	ldy	#$2
     739: 8c 03 d0     	sty	$d003                   ; 0xd003 <end_block9+0x4779>
     73c: 86 30        	stx	$30                     ; 0x30 <_ccolor>
     73e: ad 01 d0     	lda	$d001                   ; 0xd001 <end_block9+0x4777>
     741: 29 f9        	and	#$f9
     743: 09 04        	ora	#$4
     745: 8d 01 d0     	sta	$d001                   ; 0xd001 <end_block9+0x4777>
     748: 64 14        	stz	$14                     ; 0x14 <__rc4>
     74a: 9c 10 d0     	stz	$d010                   ; 0xd010 <end_block9+0x4786>
     74d: a2 00        	ldx	#$0
     74f: 64 15        	stz	$15                     ; 0x15 <__rc5>
     751: 86 18        	stx	$18                     ; 0x18 <__rc8>
     753: a4 18        	ldy	$18                     ; 0x18 <__rc8>
     755: be 84 7c     	ldx	$7c84,y                 ; 0x7c84 <textColors>
     758: 86 19        	stx	$19                     ; 0x19 <__rc9>
     75a: be 85 7c     	ldx	$7c85,y                 ; 0x7c85 <textColors+0x1>
     75d: 86 1a        	stx	$1a                     ; 0x1a <__rc10>
     75f: be 86 7c     	ldx	$7c86,y                 ; 0x7c86 <textColors+0x2>
     762: 86 1b        	stx	$1b                     ; 0x1b <__rc11>
     764: a6 15        	ldx	$15                     ; 0x15 <__rc5>
     766: 8e 00 de     	stx	$de00                   ; 0xde00 <end_block9+0x5576>
     769: 86 17        	stx	$17                     ; 0x17 <__rc7>
     76b: 9c 01 de     	stz	$de01                   ; 0xde01 <end_block9+0x5577>
     76e: a2 04        	ldx	#$4
     770: 8e 02 de     	stx	$de02                   ; 0xde02 <end_block9+0x5578>
     773: 86 1d        	stx	$1d                     ; 0x1d <__rc13>
     775: 9c 03 de     	stz	$de03                   ; 0xde03 <end_block9+0x5579>
     778: ad 10 de     	lda	$de10                   ; 0xde10 <end_block9+0x5586>
     77b: ac 11 de     	ldy	$de11                   ; 0xde11 <end_block9+0x5587>
     77e: 84 15        	sty	$15                     ; 0x15 <__rc5>
     780: ac 12 de     	ldy	$de12                   ; 0xde12 <end_block9+0x5588>
     783: ac 13 de     	ldy	$de13                   ; 0xde13 <end_block9+0x5589>
     786: a2 00        	ldx	#$0
     788: 18           	clc
     789: 65 14        	adc	$14                     ; 0x14 <__rc4>
     78b: a8           	tay
     78c: 86 1f        	stx	$1f                     ; 0x1f <__rc15>
     78e: a6 17        	ldx	$17                     ; 0x17 <__rc7>
     790: a9 d8        	lda	#$d8
     792: 65 15        	adc	$15                     ; 0x15 <__rc5>
     794: 84 16        	sty	$16                     ; 0x16 <__rc6>
     796: 85 17        	sta	$17                     ; 0x17 <__rc7>
     798: a5 1b        	lda	$1b                     ; 0x1b <__rc11>
     79a: 92 16        	sta	($16)                   ; 0x16 <__rc6>
     79c: a0 01        	ldy	#$1
     79e: a5 1a        	lda	$1a                     ; 0x1a <__rc10>
     7a0: 91 16        	sta	($16),y                 ; 0x16 <__rc6>
     7a2: 84 1c        	sty	$1c                     ; 0x1c <__rc12>
     7a4: c8           	iny
     7a5: a5 19        	lda	$19                     ; 0x19 <__rc9>
     7a7: 91 16        	sta	($16),y                 ; 0x16 <__rc6>
     7a9: 84 1e        	sty	$1e                     ; 0x1e <__rc14>
     7ab: c8           	iny
     7ac: a9 ff        	lda	#$ff
     7ae: 91 16        	sta	($16),y                 ; 0x16 <__rc6>
     7b0: 85 23        	sta	$23                     ; 0x23 <__rc19>
     7b2: 84 22        	sty	$22                     ; 0x22 <__rc18>
     7b4: 8e 00 de     	stx	$de00                   ; 0xde00 <end_block9+0x5576>
     7b7: 9c 01 de     	stz	$de01                   ; 0xde01 <end_block9+0x5577>
     7ba: a4 1d        	ldy	$1d                     ; 0x1d <__rc13>
     7bc: 8c 02 de     	sty	$de02                   ; 0xde02 <end_block9+0x5578>
     7bf: 9c 03 de     	stz	$de03                   ; 0xde03 <end_block9+0x5579>
     7c2: ad 10 de     	lda	$de10                   ; 0xde10 <end_block9+0x5586>
     7c5: 85 15        	sta	$15                     ; 0x15 <__rc5>
     7c7: ad 11 de     	lda	$de11                   ; 0xde11 <end_block9+0x5587>
     7ca: 85 16        	sta	$16                     ; 0x16 <__rc6>
     7cc: a9 40        	lda	#$40
     7ce: a4 1f        	ldy	$1f                     ; 0x1f <__rc15>
     7d0: c0 01        	cpy	#$1
     7d2: 65 15        	adc	$15                     ; 0x15 <__rc5>
     7d4: a8           	tay
     7d5: a9 d8        	lda	#$d8
     7d7: 65 16        	adc	$16                     ; 0x16 <__rc6>
     7d9: 85 17        	sta	$17                     ; 0x17 <__rc7>
     7db: 84 16        	sty	$16                     ; 0x16 <__rc6>
     7dd: ad 12 de     	lda	$de12                   ; 0xde12 <end_block9+0x5588>
     7e0: ad 13 de     	lda	$de13                   ; 0xde13 <end_block9+0x5589>
     7e3: a5 1b        	lda	$1b                     ; 0x1b <__rc11>
     7e5: 92 16        	sta	($16)                   ; 0x16 <__rc6>
     7e7: a5 1a        	lda	$1a                     ; 0x1a <__rc10>
     7e9: a4 1c        	ldy	$1c                     ; 0x1c <__rc12>
     7eb: 91 16        	sta	($16),y                 ; 0x16 <__rc6>
     7ed: a5 19        	lda	$19                     ; 0x19 <__rc9>
     7ef: a4 1e        	ldy	$1e                     ; 0x1e <__rc14>
     7f1: 91 16        	sta	($16),y                 ; 0x16 <__rc6>
     7f3: a4 22        	ldy	$22                     ; 0x22 <__rc18>
     7f5: a5 23        	lda	$23                     ; 0x23 <__rc19>
     7f7: 91 16        	sta	($16),y                 ; 0x16 <__rc6>
     7f9: e8           	inx
     7fa: 86 15        	stx	$15                     ; 0x15 <__rc5>
     7fc: 18           	clc
     7fd: a5 18        	lda	$18                     ; 0x18 <__rc8>
     7ff: 69 03        	adc	#$3
     801: aa           	tax
     802: c9 30        	cmp	#$30
     804: f0 03        	beq	$809 <main+0x1e6>
     806: 4c 51 07     	jmp	$751 <main+0x12e>
     809: a6 01        	ldx	$1                      ; 0x1
     80b: 86 18        	stx	$18                     ; 0x18 <__rc8>
     80d: a2 50        	ldx	#$50
     80f: 8e 00 de     	stx	$de00                   ; 0xde00 <end_block9+0x5576>
     812: 9c 01 de     	stz	$de01                   ; 0xde01 <end_block9+0x5577>
     815: a2 1e        	ldx	#$1e
     817: 8e 02 de     	stx	$de02                   ; 0xde02 <end_block9+0x5578>
     81a: 9c 03 de     	stz	$de03                   ; 0xde03 <end_block9+0x5579>
     81d: ae 10 de     	ldx	$de10                   ; 0xde10 <end_block9+0x5586>
     820: ac 11 de     	ldy	$de11                   ; 0xde11 <end_block9+0x5587>
     823: ad 12 de     	lda	$de12                   ; 0xde12 <end_block9+0x5588>
     826: ad 13 de     	lda	$de13                   ; 0xde13 <end_block9+0x5589>
     829: a9 02        	lda	#$2
     82b: 85 01        	sta	$1                      ; 0x1
     82d: e0 01        	cpx	#$1
     82f: 98           	tya
     830: e9 00        	sbc	#$0
     832: 50 02        	bvc	$836 <main+0x213>
     834: 49 80        	eor	#$80
     836: c9 00        	cmp	#$0
     838: 30 4c        	bmi	$886 <main+0x263>
     83a: a9 20        	lda	#$20
     83c: 86 19        	stx	$19                     ; 0x19 <__rc9>
     83e: 86 14        	stx	$14                     ; 0x14 <__rc4>
     840: 84 15        	sty	$15                     ; 0x15 <__rc5>
     842: a2 00        	ldx	#$0
     844: 86 16        	stx	$16                     ; 0x16 <__rc6>
     846: a2 c0        	ldx	#$c0
     848: 86 17        	stx	$17                     ; 0x17 <__rc7>
     84a: 92 16        	sta	($16)                   ; 0x16 <__rc6>
     84c: e6 16        	inc	$16                     ; 0x16 <__rc6>
     84e: d0 02        	bne	$852 <main+0x22f>
     850: e6 17        	inc	$17                     ; 0x17 <__rc7>
     852: a2 ff        	ldx	#$ff
     854: c6 14        	dec	$14                     ; 0x14 <__rc4>
     856: e4 14        	cpx	$14                     ; 0x14 <__rc4>
     858: d0 02        	bne	$85c <main+0x239>
     85a: c6 15        	dec	$15                     ; 0x15 <__rc5>
     85c: a6 15        	ldx	$15                     ; 0x15 <__rc5>
     85e: d0 ea        	bne	$84a <main+0x227>
     860: a6 14        	ldx	$14                     ; 0x14 <__rc4>
     862: d0 e6        	bne	$84a <main+0x227>
     864: a2 03        	ldx	#$3
     866: 86 01        	stx	$1                      ; 0x1
     868: a6 30        	ldx	$30                     ; 0x30 <_ccolor>
     86a: 86 14        	stx	$14                     ; 0x14 <__rc4>
     86c: a6 19        	ldx	$19                     ; 0x19 <__rc9>
     86e: a5 14        	lda	$14                     ; 0x14 <__rc4>
     870: 92 12        	sta	($12)                   ; 0x12 <__rc2>
     872: e6 12        	inc	$12                     ; 0x12 <__rc2>
     874: d0 02        	bne	$878 <main+0x255>
     876: e6 13        	inc	$13                     ; 0x13 <__rc3>
     878: ca           	dex
     879: e0 ff        	cpx	#$ff
     87b: d0 01        	bne	$87e <main+0x25b>
     87d: 88           	dey
     87e: 98           	tya
     87f: d0 ed        	bne	$86e <main+0x24b>
     881: 8a           	txa
     882: d0 ea        	bne	$86e <main+0x24b>
     884: 80 04        	bra	$88a <main+0x267>
     886: a2 03        	ldx	#$3
     888: 86 01        	stx	$1                      ; 0x1
     88a: a6 18        	ldx	$18                     ; 0x18 <__rc8>
     88c: 86 01        	stx	$1                      ; 0x1
     88e: 64 40        	stz	$40                     ; 0x40 <_col>
     890: 9c 14 d0     	stz	$d014                   ; 0xd014 <end_block9+0x478a>
     893: 9c 15 d0     	stz	$d015                   ; 0xd015 <end_block9+0x478b>
     896: 64 41        	stz	$41                     ; 0x41 <_row>
     898: 9c 16 d0     	stz	$d016                   ; 0xd016 <end_block9+0x478c>
     89b: 9c 17 d0     	stz	$d017                   ; 0xd017 <end_block9+0x478d>
     89e: a2 40        	ldx	#$40
     8a0: 8e 00 de     	stx	$de00                   ; 0xde00 <end_block9+0x5576>
     8a3: a2 01        	ldx	#$1
     8a5: 8e 01 de     	stx	$de01                   ; 0xde01 <end_block9+0x5577>
     8a8: a2 f0        	ldx	#$f0
     8aa: 8e 02 de     	stx	$de02                   ; 0xde02 <end_block9+0x5578>
     8ad: 9c 03 de     	stz	$de03                   ; 0xde03 <end_block9+0x5579>
     8b0: ae 10 de     	ldx	$de10                   ; 0xde10 <end_block9+0x5586>
     8b3: 86 17        	stx	$17                     ; 0x17 <__rc7>
     8b5: ae 11 de     	ldx	$de11                   ; 0xde11 <end_block9+0x5587>
     8b8: 86 12        	stx	$12                     ; 0x12 <__rc2>
     8ba: ae 12 de     	ldx	$de12                   ; 0xde12 <end_block9+0x5588>
     8bd: 86 13        	stx	$13                     ; 0x13 <__rc3>
     8bf: ae 13 de     	ldx	$de13                   ; 0xde13 <end_block9+0x5589>
     8c2: 86 14        	stx	$14                     ; 0x14 <__rc4>
     8c4: a4 12        	ldy	$12                     ; 0x12 <__rc2>
     8c6: 84 15        	sty	$15                     ; 0x15 <__rc5>
     8c8: 06 15        	asl	$15                     ; 0x15 <__rc5>
     8ca: a5 13        	lda	$13                     ; 0x13 <__rc3>
     8cc: 2a           	rol
     8cd: 86 16        	stx	$16                     ; 0x16 <__rc6>
     8cf: 26 16        	rol	$16                     ; 0x16 <__rc6>
     8d1: 06 15        	asl	$15                     ; 0x15 <__rc5>
     8d3: 2a           	rol
     8d4: 26 16        	rol	$16                     ; 0x16 <__rc6>
     8d6: 06 15        	asl	$15                     ; 0x15 <__rc5>
     8d8: 2a           	rol
     8d9: 26 16        	rol	$16                     ; 0x16 <__rc6>
     8db: 85 15        	sta	$15                     ; 0x15 <__rc5>
     8dd: 8d 00 de     	sta	$de00                   ; 0xde00 <end_block9+0x5576>
     8e0: a5 16        	lda	$16                     ; 0x16 <__rc6>
     8e2: 8d 01 de     	sta	$de01                   ; 0xde01 <end_block9+0x5577>
     8e5: 9c 02 de     	stz	$de02                   ; 0xde02 <end_block9+0x5578>
     8e8: a2 20        	ldx	#$20
     8ea: 8e 03 de     	stx	$de03                   ; 0xde03 <end_block9+0x5579>
     8ed: ae 10 de     	ldx	$de10                   ; 0xde10 <end_block9+0x5586>
     8f0: 86 16        	stx	$16                     ; 0x16 <__rc6>
     8f2: ae 11 de     	ldx	$de11                   ; 0xde11 <end_block9+0x5587>
     8f5: 86 18        	stx	$18                     ; 0x18 <__rc8>
     8f7: ac 12 de     	ldy	$de12                   ; 0xde12 <end_block9+0x5588>
     8fa: ae 13 de     	ldx	$de13                   ; 0xde13 <end_block9+0x5589>
     8fd: e4 14        	cpx	$14                     ; 0x14 <__rc4>
     8ff: d0 14        	bne	$915 <main+0x2f2>
     901: c4 13        	cpy	$13                     ; 0x13 <__rc3>
     903: d0 10        	bne	$915 <main+0x2f2>
     905: a6 18        	ldx	$18                     ; 0x18 <__rc8>
     907: e4 12        	cpx	$12                     ; 0x12 <__rc2>
     909: d0 0a        	bne	$915 <main+0x2f2>
     90b: a6 16        	ldx	$16                     ; 0x16 <__rc6>
     90d: e4 17        	cpx	$17                     ; 0x17 <__rc7>
     90f: d0 04        	bne	$915 <main+0x2f2>
     911: a6 15        	ldx	$15                     ; 0x15 <__rc5>
     913: 80 06        	bra	$91b <main+0x2f8>
     915: a6 15        	ldx	$15                     ; 0x15 <__rc5>
     917: e8           	inx
     918: d0 01        	bne	$91b <main+0x2f8>
     91a: 1a           	inc
     91b: 8e 00 de     	stx	$de00                   ; 0xde00 <end_block9+0x5576>
     91e: 8d 01 de     	sta	$de01                   ; 0xde01 <end_block9+0x5577>
     921: 9c 02 de     	stz	$de02                   ; 0xde02 <end_block9+0x5578>
     924: a2 20        	ldx	#$20
     926: 8e 03 de     	stx	$de03                   ; 0xde03 <end_block9+0x5579>
     929: ae 10 de     	ldx	$de10                   ; 0xde10 <end_block9+0x5586>
     92c: 86 12        	stx	$12                     ; 0x12 <__rc2>
     92e: ae 11 de     	ldx	$de11                   ; 0xde11 <end_block9+0x5587>
     931: 86 13        	stx	$13                     ; 0x13 <__rc3>
     933: ae 12 de     	ldx	$de12                   ; 0xde12 <end_block9+0x5588>
     936: 86 14        	stx	$14                     ; 0x14 <__rc4>
     938: 38           	sec
     939: a9 00        	lda	#$0
     93b: e5 12        	sbc	$12                     ; 0x12 <__rc2>
     93d: a8           	tay
     93e: a9 00        	lda	#$0
     940: e5 13        	sbc	$13                     ; 0x13 <__rc3>
     942: 85 15        	sta	$15                     ; 0x15 <__rc5>
     944: a9 08        	lda	#$8
     946: e5 14        	sbc	$14                     ; 0x14 <__rc4>
     948: aa           	tax
     949: 98           	tya
     94a: 84 17        	sty	$17                     ; 0x17 <__rc7>
     94c: 38           	sec
     94d: e5 12        	sbc	$12                     ; 0x12 <__rc2>
     94f: 85 16        	sta	$16                     ; 0x16 <__rc6>
     951: a5 15        	lda	$15                     ; 0x15 <__rc5>
     953: e5 13        	sbc	$13                     ; 0x13 <__rc3>
     955: 85 18        	sta	$18                     ; 0x18 <__rc8>
     957: 8a           	txa
     958: 86 19        	stx	$19                     ; 0x19 <__rc9>
     95a: e5 14        	sbc	$14                     ; 0x14 <__rc4>
     95c: a8           	tay
     95d: 38           	sec
     95e: a5 16        	lda	$16                     ; 0x16 <__rc6>
     960: e5 12        	sbc	$12                     ; 0x12 <__rc2>
     962: 85 12        	sta	$12                     ; 0x12 <__rc2>
     964: a5 18        	lda	$18                     ; 0x18 <__rc8>
     966: e5 13        	sbc	$13                     ; 0x13 <__rc3>
     968: 85 13        	sta	$13                     ; 0x13 <__rc3>
     96a: 98           	tya
     96b: e5 14        	sbc	$14                     ; 0x14 <__rc4>
     96d: ae 13 de     	ldx	$de13                   ; 0xde13 <end_block9+0x5589>
     970: a6 17        	ldx	$17                     ; 0x17 <__rc7>
     972: 8e 01 d1     	stx	$d101                   ; 0xd101 <end_block9+0x4877>
     975: a6 15        	ldx	$15                     ; 0x15 <__rc5>
     977: 8e 02 d1     	stx	$d102                   ; 0xd102 <end_block9+0x4878>
     97a: a6 19        	ldx	$19                     ; 0x19 <__rc9>
     97c: 8e 03 d1     	stx	$d103                   ; 0xd103 <end_block9+0x4879>
     97f: a6 16        	ldx	$16                     ; 0x16 <__rc6>
     981: 8e 09 d1     	stx	$d109                   ; 0xd109 <end_block9+0x487f>
     984: a6 18        	ldx	$18                     ; 0x18 <__rc8>
     986: 8e 0a d1     	stx	$d10a                   ; 0xd10a <end_block9+0x4880>
     989: 8c 0b d1     	sty	$d10b                   ; 0xd10b <end_block9+0x4881>
     98c: a6 12        	ldx	$12                     ; 0x12 <__rc2>
     98e: 8e 11 d1     	stx	$d111                   ; 0xd111 <end_block9+0x4887>
     991: a6 13        	ldx	$13                     ; 0x13 <__rc3>
     993: 8e 12 d1     	stx	$d112                   ; 0xd112 <end_block9+0x4888>
     996: 8d 13 d1     	sta	$d113                   ; 0xd113 <end_block9+0x4889>
     999: 9c 00 d1     	stz	$d100                   ; 0xd100 <end_block9+0x4876>
     99c: 9c 08 d1     	stz	$d108                   ; 0xd108 <end_block9+0x487e>
     99f: 9c 10 d1     	stz	$d110                   ; 0xd110 <end_block9+0x4886>
     9a2: a2 10        	ldx	#$10
     9a4: 8e 00 d2     	stx	$d200                   ; 0xd200 <end_block9+0x4976>
     9a7: 8e 0c d2     	stx	$d20c                   ; 0xd20c <end_block9+0x4982>
     9aa: 8e 18 d2     	stx	$d218                   ; 0xd218 <end_block9+0x498e>
     9ad: a0 d9        	ldy	#$d9
     9af: a2 40        	ldx	#$40
     9b1: 64 12        	stz	$12                     ; 0x12 <__rc2>
     9b3: 84 13        	sty	$13                     ; 0x13 <__rc3>
     9b5: a9 00        	lda	#$0
     9b7: 92 12        	sta	($12)                   ; 0x12 <__rc2>
     9b9: ca           	dex
     9ba: 18           	clc
     9bb: a5 12        	lda	$12                     ; 0x12 <__rc2>
     9bd: 69 08        	adc	#$8
     9bf: 85 12        	sta	$12                     ; 0x12 <__rc2>
     9c1: 98           	tya
     9c2: 69 00        	adc	#$0
     9c4: a8           	tay
     9c5: 8a           	txa
     9c6: d0 eb        	bne	$9b3 <main+0x390>
     9c8: a9 08        	lda	#$8
     9ca: a2 06        	ldx	#$6
     9cc: 86 12        	stx	$12                     ; 0x12 <__rc2>
     9ce: a2 87        	ldx	#$87
     9d0: 86 13        	stx	$13                     ; 0x13 <__rc3>
     9d2: 64 14        	stz	$14                     ; 0x14 <__rc4>
     9d4: aa           	tax
     9d5: 85 26        	sta	$26                     ; 0x26 <__rc22>
     9d7: a9 00        	lda	#$0
     9d9: 20 f0 78     	jsr	$78f0 <__memset>
     9dc: 18           	clc
     9dd: a5 10        	lda	$10                     ; 0x10 <__zp_data_size>
     9df: 69 10        	adc	#$10
     9e1: 85 24        	sta	$24                     ; 0x24 <__rc20>
     9e3: a5 11        	lda	$11                     ; 0x11 <__rc1>
     9e5: 69 00        	adc	#$0
     9e7: 85 25        	sta	$25                     ; 0x25 <__rc21>
     9e9: a6 24        	ldx	$24                     ; 0x24 <__rc20>
     9eb: 86 fb        	stx	$fb                     ; 0xfb <__data_size+0xb1>
     9ed: 85 fc        	sta	$fc                     ; 0xfc <__data_size+0xb2>
     9ef: a6 26        	ldx	$26                     ; 0x26 <__rc22>
     9f1: 86 fd        	stx	$fd                     ; 0xfd <__data_size+0xb3>
     9f3: 18           	clc
     9f4: a5 10        	lda	$10                     ; 0x10 <__zp_data_size>
     9f6: 69 0f        	adc	#$f
     9f8: 85 12        	sta	$12                     ; 0x12 <__rc2>
     9fa: a5 11        	lda	$11                     ; 0x11 <__rc1>
     9fc: 69 00        	adc	#$0
     9fe: 85 13        	sta	$13                     ; 0x13 <__rc3>
     a00: a2 71        	ldx	#$71
     a02: 86 14        	stx	$14                     ; 0x14 <__rc4>
     a04: a2 00        	ldx	#$0
     a06: 86 15        	stx	$15                     ; 0x15 <__rc5>
     a08: a0 06        	ldy	#$6
     a0a: 20 dc ff     	jsr	$ffdc <end_block9+0x7752>
     a0d: 92 12        	sta	($12)                   ; 0x12 <__rc2>
     a0f: a9 00        	lda	#$0
     a11: 6a           	ror
     a12: 85 14        	sta	$14                     ; 0x14 <__rc4>
     a14: b1 24        	lda	($24),y                 ; 0x24 <__rc20>
     a16: 85 12        	sta	$12                     ; 0x12 <__rc2>
     a18: c8           	iny
     a19: b1 24        	lda	($24),y                 ; 0x24 <__rc20>
     a1b: a6 12        	ldx	$12                     ; 0x12 <__rc2>
     a1d: 8e 00 de     	stx	$de00                   ; 0xde00 <end_block9+0x5576>
     a20: 9c 01 de     	stz	$de01                   ; 0xde01 <end_block9+0x5577>
     a23: 8d 02 de     	sta	$de02                   ; 0xde02 <end_block9+0x5578>
     a26: 9c 03 de     	stz	$de03                   ; 0xde03 <end_block9+0x5579>
     a29: ae 10 de     	ldx	$de10                   ; 0xde10 <end_block9+0x5586>
     a2c: ac 11 de     	ldy	$de11                   ; 0xde11 <end_block9+0x5587>
     a2f: ad 12 de     	lda	$de12                   ; 0xde12 <end_block9+0x5588>
     a32: ad 13 de     	lda	$de13                   ; 0xde13 <end_block9+0x5589>
     a35: 8e a4 d6     	stx	$d6a4                   ; 0xd6a4 <end_block9+0x4e1a>
     a38: 8c a5 d6     	sty	$d6a5                   ; 0xd6a5 <end_block9+0x4e1b>
     a3b: a2 03        	ldx	#$3
     a3d: 8e a6 d6     	stx	$d6a6                   ; 0xd6a6 <end_block9+0x4e1c>
     a40: a6 fa        	ldx	$fa                     ; 0xfa <__data_size+0xb0>
     a42: 86 2c        	stx	$2c                     ; 0x2c <__rc28>
     a44: a6 f8        	ldx	$f8                     ; 0xf8 <__data_size+0xae>
     a46: a4 f9        	ldy	$f9                     ; 0xf9 <__data_size+0xaf>
     a48: 86 2e        	stx	$2e                     ; 0x2e <__rc30>
     a4a: 86 26        	stx	$26                     ; 0x26 <__rc22>
     a4c: 84 2f        	sty	$2f                     ; 0x2f <__rc31>
     a4e: 84 27        	sty	$27                     ; 0x27 <__rc23>
     a50: a2 1f        	ldx	#$1f
     a52: 8e 20 d6     	stx	$d620                   ; 0xd620 <end_block9+0x4d96>
     a55: a2 2a        	ldx	#$2a
     a57: 8e 21 d6     	stx	$d621                   ; 0xd621 <end_block9+0x4d97>
     a5a: a2 01        	ldx	#$1
     a5c: 8e 22 d6     	stx	$d622                   ; 0xd622 <end_block9+0x4d98>
     a5f: ad 22 d6     	lda	$d622                   ; 0xd622 <end_block9+0x4d98>
     a62: 29 01        	and	#$1
     a64: d0 f9        	bne	$a5f <main+0x43c>
     a66: ad c1 dd     	lda	$ddc1                   ; 0xddc1 <end_block9+0x5537>
     a69: 29 02        	and	#$2
     a6b: d0 03        	bne	$a70 <main+0x44d>
     a6d: 20 49 45     	jsr	$4549 <displayImage>
     a70: 20 29 65     	jsr	$6529 <lilpause>
     a73: 64 70        	stz	$70                     ; 0x70 <midiChip>
     a75: 64 01        	stz	$1                      ; 0x1
     a77: a2 01        	ldx	#$1
     a79: 8e 00 d0     	stx	$d000                   ; 0xd000 <end_block9+0x4776>
     a7c: a0 04        	ldy	#$4
     a7e: 8c 01 d0     	sty	$d001                   ; 0xd001 <end_block9+0x4777>
     a81: ac a7 d6     	ldy	$d6a7                   ; 0xd6a7 <end_block9+0x4e1d>
     a84: a0 03        	ldy	#$3
     a86: 8c 01 d7     	sty	$d701                   ; 0xd701 <end_block9+0x4e77>
     a89: 9c 02 d7     	stz	$d702                   ; 0xd702 <end_block9+0x4e78>
     a8c: 9c 02 d7     	stz	$d702                   ; 0xd702 <end_block9+0x4e78>
     a8f: a0 e0        	ldy	#$e0
     a91: 8c 03 d7     	sty	$d703                   ; 0xd703 <end_block9+0x4e79>
     a94: 8e 00 d7     	stx	$d700                   ; 0xd700 <end_block9+0x4e76>
     a97: 9c 00 d7     	stz	$d700                   ; 0xd700 <end_block9+0x4e76>
     a9a: ae 00 d7     	ldx	$d700                   ; 0xd700 <end_block9+0x4e76>
     a9d: 30 fb        	bmi	$a9a <main+0x477>
     a9f: 64 12        	stz	$12                     ; 0x12 <__rc2>
     aa1: a0 01        	ldy	#$1
     aa3: a2 00        	ldx	#$0
     aa5: a5 12        	lda	$12                     ; 0x12 <__rc2>
     aa7: 85 14        	sta	$14                     ; 0x14 <__rc4>
     aa9: a5 12        	lda	$12                     ; 0x12 <__rc2>
     aab: 0a           	asl
     aac: 85 12        	sta	$12                     ; 0x12 <__rc2>
     aae: 8a           	txa
     aaf: 2a           	rol
     ab0: 85 13        	sta	$13                     ; 0x13 <__rc3>
     ab2: a9 84        	lda	#$84
     ab4: 18           	clc
     ab5: 65 12        	adc	$12                     ; 0x12 <__rc2>
     ab7: 85 12        	sta	$12                     ; 0x12 <__rc2>
     ab9: a9 86        	lda	#$86
     abb: 65 13        	adc	$13                     ; 0x13 <__rc3>
     abd: 85 15        	sta	$15                     ; 0x15 <__rc5>
     abf: a5 12        	lda	$12                     ; 0x12 <__rc2>
     ac1: 85 17        	sta	$17                     ; 0x17 <__rc7>
     ac3: a5 15        	lda	$15                     ; 0x15 <__rc5>
     ac5: 85 13        	sta	$13                     ; 0x13 <__rc3>
     ac7: b2 12        	lda	($12)                   ; 0x12 <__rc2>
     ac9: 85 16        	sta	$16                     ; 0x16 <__rc6>
     acb: 18           	clc
     acc: a5 14        	lda	$14                     ; 0x14 <__rc4>
     ace: 85 1a        	sta	$1a                     ; 0x1a <__rc10>
     ad0: a5 14        	lda	$14                     ; 0x14 <__rc4>
     ad2: 69 02        	adc	#$2
     ad4: 85 19        	sta	$19                     ; 0x19 <__rc9>
     ad6: 86 18        	stx	$18                     ; 0x18 <__rc8>
     ad8: 8a           	txa
     ad9: 69 00        	adc	#$0
     adb: aa           	tax
     adc: 18           	clc
     add: a5 17        	lda	$17                     ; 0x17 <__rc7>
     adf: 69 02        	adc	#$2
     ae1: 85 14        	sta	$14                     ; 0x14 <__rc4>
     ae3: a5 15        	lda	$15                     ; 0x15 <__rc5>
     ae5: 69 00        	adc	#$0
     ae7: 85 15        	sta	$15                     ; 0x15 <__rc5>
     ae9: b1 12        	lda	($12),y                 ; 0x12 <__rc2>
     aeb: 85 17        	sta	$17                     ; 0x17 <__rc7>
     aed: 84 1c        	sty	$1c                     ; 0x1c <__rc12>
     aef: a0 02        	ldy	#$2
     af1: b1 12        	lda	($12),y                 ; 0x12 <__rc2>
     af3: 85 1b        	sta	$1b                     ; 0x1b <__rc11>
     af5: a4 1c        	ldy	$1c                     ; 0x1c <__rc12>
     af7: b1 14        	lda	($14),y                 ; 0x14 <__rc4>
     af9: 10 03        	bpl	$afe <main+0x4db>
     afb: 4c 81 0b     	jmp	$b81 <main+0x55e>
     afe: 5a           	phy
     aff: a4 1b        	ldy	$1b                     ; 0x1b <__rc11>
     b01: 84 14        	sty	$14                     ; 0x14 <__rc4>
     b03: a4 19        	ldy	$19                     ; 0x19 <__rc9>
     b05: 84 18        	sty	$18                     ; 0x18 <__rc8>
     b07: 7a           	ply
     b08: c9 00        	cmp	#$0
     b0a: d0 09        	bne	$b15 <main+0x4f2>
     b0c: e6 14        	inc	$14                     ; 0x14 <__rc4>
     b0e: c6 14        	dec	$14                     ; 0x14 <__rc4>
     b10: d0 03        	bne	$b15 <main+0x4f2>
     b12: 4c 07 0c     	jmp	$c07 <main+0x5e4>
     b15: 85 15        	sta	$15                     ; 0x15 <__rc5>
     b17: a5 18        	lda	$18                     ; 0x18 <__rc8>
     b19: 85 19        	sta	$19                     ; 0x19 <__rc9>
     b1b: a5 18        	lda	$18                     ; 0x18 <__rc8>
     b1d: 0a           	asl
     b1e: 85 12        	sta	$12                     ; 0x12 <__rc2>
     b20: 86 18        	stx	$18                     ; 0x18 <__rc8>
     b22: 8a           	txa
     b23: 2a           	rol
     b24: 85 13        	sta	$13                     ; 0x13 <__rc3>
     b26: a9 84        	lda	#$84
     b28: 18           	clc
     b29: 65 12        	adc	$12                     ; 0x12 <__rc2>
     b2b: 85 12        	sta	$12                     ; 0x12 <__rc2>
     b2d: a9 86        	lda	#$86
     b2f: 65 13        	adc	$13                     ; 0x13 <__rc3>
     b31: 85 13        	sta	$13                     ; 0x13 <__rc3>
     b33: b2 12        	lda	($12)                   ; 0x12 <__rc2>
     b35: 85 1a        	sta	$1a                     ; 0x1a <__rc10>
     b37: b1 12        	lda	($12),y                 ; 0x12 <__rc2>
     b39: a6 16        	ldx	$16                     ; 0x16 <__rc6>
     b3b: 8e 01 d7     	stx	$d701                   ; 0xd701 <end_block9+0x4e77>
     b3e: a6 17        	ldx	$17                     ; 0x17 <__rc7>
     b40: 8e 02 d7     	stx	$d702                   ; 0xd702 <end_block9+0x4e78>
     b43: a6 1a        	ldx	$1a                     ; 0x1a <__rc10>
     b45: 8e 02 d7     	stx	$d702                   ; 0xd702 <end_block9+0x4e78>
     b48: 8d 03 d7     	sta	$d703                   ; 0xd703 <end_block9+0x4e79>
     b4b: 8c 00 d7     	sty	$d700                   ; 0xd700 <end_block9+0x4e76>
     b4e: 9c 00 d7     	stz	$d700                   ; 0xd700 <end_block9+0x4e76>
     b51: ae 00 d7     	ldx	$d700                   ; 0xd700 <end_block9+0x4e76>
     b54: 30 fb        	bmi	$b51 <main+0x52e>
     b56: a5 15        	lda	$15                     ; 0x15 <__rc5>
     b58: a2 ff        	ldx	#$ff
     b5a: c6 14        	dec	$14                     ; 0x14 <__rc4>
     b5c: e4 14        	cpx	$14                     ; 0x14 <__rc4>
     b5e: d0 01        	bne	$b61 <main+0x53e>
     b60: 3a           	dec
     b61: a6 18        	ldx	$18                     ; 0x18 <__rc8>
     b63: 5a           	phy
     b64: a4 19        	ldy	$19                     ; 0x19 <__rc9>
     b66: 84 18        	sty	$18                     ; 0x18 <__rc8>
     b68: 7a           	ply
     b69: e6 18        	inc	$18                     ; 0x18 <__rc8>
     b6b: d0 01        	bne	$b6e <main+0x54b>
     b6d: e8           	inx
     b6e: c9 00        	cmp	#$0
     b70: f0 03        	beq	$b75 <main+0x552>
     b72: 4c 15 0b     	jmp	$b15 <main+0x4f2>
     b75: e6 14        	inc	$14                     ; 0x14 <__rc4>
     b77: c6 14        	dec	$14                     ; 0x14 <__rc4>
     b79: f0 03        	beq	$b7e <main+0x55b>
     b7b: 4c 15 0b     	jmp	$b15 <main+0x4f2>
     b7e: 4c 07 0c     	jmp	$c07 <main+0x5e4>
     b81: 29 7f        	and	#$7f
     b83: 18           	clc
     b84: 85 13        	sta	$13                     ; 0x13 <__rc3>
     b86: a5 1a        	lda	$1a                     ; 0x1a <__rc10>
     b88: 69 03        	adc	#$3
     b8a: 85 12        	sta	$12                     ; 0x12 <__rc2>
     b8c: a5 18        	lda	$18                     ; 0x18 <__rc8>
     b8e: 69 00        	adc	#$0
     b90: 85 1a        	sta	$1a                     ; 0x1a <__rc10>
     b92: a5 13        	lda	$13                     ; 0x13 <__rc3>
     b94: 5a           	phy
     b95: a4 1b        	ldy	$1b                     ; 0x1b <__rc11>
     b97: 84 14        	sty	$14                     ; 0x14 <__rc4>
     b99: 7a           	ply
     b9a: c9 00        	cmp	#$0
     b9c: d0 09        	bne	$ba7 <main+0x584>
     b9e: e6 14        	inc	$14                     ; 0x14 <__rc4>
     ba0: c6 14        	dec	$14                     ; 0x14 <__rc4>
     ba2: d0 03        	bne	$ba7 <main+0x584>
     ba4: 4c be 19     	jmp	$19be <main+0x139b>
     ba7: 5a           	phy
     ba8: a4 12        	ldy	$12                     ; 0x12 <__rc2>
     baa: 84 18        	sty	$18                     ; 0x18 <__rc8>
     bac: 7a           	ply
     bad: 85 15        	sta	$15                     ; 0x15 <__rc5>
     baf: a5 19        	lda	$19                     ; 0x19 <__rc9>
     bb1: 85 12        	sta	$12                     ; 0x12 <__rc2>
     bb3: 06 12        	asl	$12                     ; 0x12 <__rc2>
     bb5: 86 13        	stx	$13                     ; 0x13 <__rc3>
     bb7: 26 13        	rol	$13                     ; 0x13 <__rc3>
     bb9: a9 84        	lda	#$84
     bbb: 18           	clc
     bbc: 65 12        	adc	$12                     ; 0x12 <__rc2>
     bbe: 85 12        	sta	$12                     ; 0x12 <__rc2>
     bc0: a9 86        	lda	#$86
     bc2: 65 13        	adc	$13                     ; 0x13 <__rc3>
     bc4: 85 13        	sta	$13                     ; 0x13 <__rc3>
     bc6: a6 1b        	ldx	$1b                     ; 0x1b <__rc11>
     bc8: 86 19        	stx	$19                     ; 0x19 <__rc9>
     bca: b2 12        	lda	($12)                   ; 0x12 <__rc2>
     bcc: 85 14        	sta	$14                     ; 0x14 <__rc4>
     bce: b1 12        	lda	($12),y                 ; 0x12 <__rc2>
     bd0: a6 16        	ldx	$16                     ; 0x16 <__rc6>
     bd2: 8e 01 d7     	stx	$d701                   ; 0xd701 <end_block9+0x4e77>
     bd5: a6 17        	ldx	$17                     ; 0x17 <__rc7>
     bd7: 8e 02 d7     	stx	$d702                   ; 0xd702 <end_block9+0x4e78>
     bda: a6 14        	ldx	$14                     ; 0x14 <__rc4>
     bdc: 8e 02 d7     	stx	$d702                   ; 0xd702 <end_block9+0x4e78>
     bdf: 8d 03 d7     	sta	$d703                   ; 0xd703 <end_block9+0x4e79>
     be2: 8c 00 d7     	sty	$d700                   ; 0xd700 <end_block9+0x4e76>
     be5: 9c 00 d7     	stz	$d700                   ; 0xd700 <end_block9+0x4e76>
     be8: ae 00 d7     	ldx	$d700                   ; 0xd700 <end_block9+0x4e76>
     beb: 30 fb        	bmi	$be8 <main+0x5c5>
     bed: a6 15        	ldx	$15                     ; 0x15 <__rc5>
     bef: 86 12        	stx	$12                     ; 0x12 <__rc2>
     bf1: a2 ff        	ldx	#$ff
     bf3: c6 19        	dec	$19                     ; 0x19 <__rc9>
     bf5: e4 19        	cpx	$19                     ; 0x19 <__rc9>
     bf7: d0 02        	bne	$bfb <main+0x5d8>
     bf9: c6 12        	dec	$12                     ; 0x12 <__rc2>
     bfb: a6 12        	ldx	$12                     ; 0x12 <__rc2>
     bfd: 86 15        	stx	$15                     ; 0x15 <__rc5>
     bff: d0 cf        	bne	$bd0 <main+0x5ad>
     c01: a6 19        	ldx	$19                     ; 0x19 <__rc9>
     c03: d0 cb        	bne	$bd0 <main+0x5ad>
     c05: a6 1a        	ldx	$1a                     ; 0x1a <__rc10>
     c07: a5 18        	lda	$18                     ; 0x18 <__rc8>
     c09: e0 00        	cpx	#$0
     c0b: d0 04        	bne	$c11 <main+0x5ee>
     c0d: c9 1c        	cmp	#$1c
     c0f: 80 02        	bra	$c13 <main+0x5f0>
     c11: e0 00        	cpx	#$0
     c13: 85 12        	sta	$12                     ; 0x12 <__rc2>
     c15: b0 03        	bcs	$c1a <main+0x5f7>
     c17: 4c a5 0a     	jmp	$aa5 <main+0x482>
     c1a: 20 e9 19     	jsr	$19e9 <zeroOutStuff>
     c1d: 20 85 65     	jsr	$6585 <setColors>
     c20: a5 2c        	lda	$2c                     ; 0x2c <__rc28>
     c22: 29 fe        	and	#$fe
     c24: c9 06        	cmp	#$6
     c26: f0 03        	beq	$c2b <main+0x608>
     c28: 4c bd 0c     	jmp	$cbd <main+0x69a>
     c2b: 18           	clc
     c2c: a5 2e        	lda	$2e                     ; 0x2e <__rc30>
     c2e: 69 02        	adc	#$2
     c30: 85 12        	sta	$12                     ; 0x12 <__rc2>
     c32: a5 2f        	lda	$2f                     ; 0x2f <__rc31>
     c34: 69 00        	adc	#$0
     c36: a0 02        	ldy	#$2
     c38: 85 13        	sta	$13                     ; 0x13 <__rc3>
     c3a: b1 26        	lda	($26),y                 ; 0x26 <__rc22>
     c3c: aa           	tax
     c3d: 88           	dey
     c3e: b1 12        	lda	($12),y                 ; 0x12 <__rc2>
     c40: 86 12        	stx	$12                     ; 0x12 <__rc2>
     c42: 85 13        	sta	$13                     ; 0x13 <__rc3>
     c44: b2 12        	lda	($12)                   ; 0x12 <__rc2>
     c46: f0 3c        	beq	$c84 <main+0x661>
     c48: 85 15        	sta	$15                     ; 0x15 <__rc5>
     c4a: 84 14        	sty	$14                     ; 0x14 <__rc4>
     c4c: 88           	dey
     c4d: 91 24        	sta	($24),y                 ; 0x24 <__rc20>
     c4f: a4 14        	ldy	$14                     ; 0x14 <__rc4>
     c51: b1 12        	lda	($12),y                 ; 0x12 <__rc2>
     c53: c8           	iny
     c54: aa           	tax
     c55: d0 f3        	bne	$c4a <main+0x627>
     c57: a0 01        	ldy	#$1
     c59: a5 15        	lda	$15                     ; 0x15 <__rc5>
     c5b: 5a           	phy
     c5c: fa           	plx
     c5d: ca           	dex
     c5e: 9d 12 88     	sta	$8812,x                 ; 0x8812 <name>
     c61: 18           	clc
     c62: a5 2e        	lda	$2e                     ; 0x2e <__rc30>
     c64: 69 02        	adc	#$2
     c66: 85 12        	sta	$12                     ; 0x12 <__rc2>
     c68: a5 2f        	lda	$2f                     ; 0x2f <__rc31>
     c6a: 69 00        	adc	#$0
     c6c: 85 13        	sta	$13                     ; 0x13 <__rc3>
     c6e: 84 15        	sty	$15                     ; 0x15 <__rc5>
     c70: a0 02        	ldy	#$2
     c72: b1 26        	lda	($26),y                 ; 0x26 <__rc22>
     c74: aa           	tax
     c75: 88           	dey
     c76: b1 12        	lda	($12),y                 ; 0x12 <__rc2>
     c78: a4 15        	ldy	$15                     ; 0x15 <__rc5>
     c7a: 86 12        	stx	$12                     ; 0x12 <__rc2>
     c7c: 85 13        	sta	$13                     ; 0x13 <__rc3>
     c7e: b1 12        	lda	($12),y                 ; 0x12 <__rc2>
     c80: c8           	iny
     c81: aa           	tax
     c82: d0 d7        	bne	$c5b <main+0x638>
     c84: ad 12 88     	lda	$8812                   ; 0x8812 <name>
     c87: d0 03        	bne	$c8c <main+0x669>
     c89: 4c 13 0d     	jmp	$d13 <main+0x6f0>
     c8c: a2 12        	ldx	#$12
     c8e: 86 14        	stx	$14                     ; 0x14 <__rc4>
     c90: a2 88        	ldx	#$88
     c92: 86 15        	stx	$15                     ; 0x15 <__rc5>
     c94: a2 00        	ldx	#$0
     c96: 86 12        	stx	$12                     ; 0x12 <__rc2>
     c98: a2 00        	ldx	#$0
     c9a: 86 13        	stx	$13                     ; 0x13 <__rc3>
     c9c: a0 01        	ldy	#$1
     c9e: c9 2f        	cmp	#$2f
     ca0: d0 08        	bne	$caa <main+0x687>
     ca2: a6 14        	ldx	$14                     ; 0x14 <__rc4>
     ca4: 86 12        	stx	$12                     ; 0x12 <__rc2>
     ca6: a6 15        	ldx	$15                     ; 0x15 <__rc5>
     ca8: 86 13        	stx	$13                     ; 0x13 <__rc3>
     caa: b1 14        	lda	($14),y                 ; 0x14 <__rc4>
     cac: e6 14        	inc	$14                     ; 0x14 <__rc4>
     cae: d0 02        	bne	$cb2 <main+0x68f>
     cb0: e6 15        	inc	$15                     ; 0x15 <__rc5>
     cb2: aa           	tax
     cb3: d0 e9        	bne	$c9e <main+0x67b>
     cb5: a5 12        	lda	$12                     ; 0x12 <__rc2>
     cb7: a6 13        	ldx	$13                     ; 0x13 <__rc3>
     cb9: 86 14        	stx	$14                     ; 0x14 <__rc4>
     cbb: 80 5a        	bra	$d17 <main+0x6f4>
     cbd: a2 8a        	ldx	#$8a
     cbf: 86 12        	stx	$12                     ; 0x12 <__rc2>
     cc1: a2 82        	ldx	#$82
     cc3: 86 13        	stx	$13                     ; 0x13 <__rc3>
     cc5: 20 2c 1a     	jsr	$1a2c <fileOpenDir>
     cc8: a6 12        	ldx	$12                     ; 0x12 <__rc2>
     cca: 86 26        	stx	$26                     ; 0x26 <__rc22>
     ccc: a6 13        	ldx	$13                     ; 0x13 <__rc3>
     cce: 86 27        	stx	$27                     ; 0x27 <__rc23>
     cd0: a2 00        	ldx	#$0
     cd2: 86 12        	stx	$12                     ; 0x12 <__rc2>
     cd4: a2 00        	ldx	#$0
     cd6: 86 13        	stx	$13                     ; 0x13 <__rc3>
     cd8: a6 27        	ldx	$27                     ; 0x27 <__rc23>
     cda: e4 13        	cpx	$13                     ; 0x13 <__rc3>
     cdc: d0 13        	bne	$cf1 <main+0x6ce>
     cde: a6 26        	ldx	$26                     ; 0x26 <__rc22>
     ce0: e4 12        	cpx	$12                     ; 0x12 <__rc2>
     ce2: d0 0d        	bne	$cf1 <main+0x6ce>
     ce4: a2 31        	ldx	#$31
     ce6: 86 12        	stx	$12                     ; 0x12 <__rc2>
     ce8: a2 00        	ldx	#$0
     cea: 86 13        	stx	$13                     ; 0x13 <__rc3>
     cec: 20 69 1e     	jsr	$1e69 <fpr_set_currentPath>
     cef: 80 16        	bra	$d07 <main+0x6e4>
     cf1: a2 8a        	ldx	#$8a
     cf3: 86 12        	stx	$12                     ; 0x12 <__rc2>
     cf5: a2 82        	ldx	#$82
     cf7: 86 13        	stx	$13                     ; 0x13 <__rc3>
     cf9: 20 69 1e     	jsr	$1e69 <fpr_set_currentPath>
     cfc: a6 26        	ldx	$26                     ; 0x26 <__rc22>
     cfe: 86 12        	stx	$12                     ; 0x12 <__rc2>
     d00: a6 27        	ldx	$27                     ; 0x27 <__rc23>
     d02: 86 13        	stx	$13                     ; 0x13 <__rc3>
     d04: 20 4c 1b     	jsr	$1b4c <fileCloseDir>
     d07: 20 b1 1e     	jsr	$1eb1 <getTheFile_far>
     d0a: aa           	tax
     d0b: d0 03        	bne	$d10 <main+0x6ed>
     d0d: 4c fd 0d     	jmp	$dfd <main+0x7da>
     d10: 4c 44 0f     	jmp	$f44 <main+0x921>
     d13: a9 00        	lda	#$0
     d15: 64 14        	stz	$14                     ; 0x14 <__rc4>
     d17: a2 12        	ldx	#$12
     d19: 86 12        	stx	$12                     ; 0x12 <__rc2>
     d1b: 38           	sec
     d1c: e5 12        	sbc	$12                     ; 0x12 <__rc2>
     d1e: 85 2c        	sta	$2c                     ; 0x2c <__rc28>
     d20: a5 14        	lda	$14                     ; 0x14 <__rc4>
     d22: e5 2d        	sbc	$2d                     ; 0x2d <__rc29>
     d24: 85 27        	sta	$27                     ; 0x27 <__rc23>
     d26: a6 24        	ldx	$24                     ; 0x24 <__rc20>
     d28: 86 12        	stx	$12                     ; 0x12 <__rc2>
     d2a: a6 25        	ldx	$25                     ; 0x25 <__rc21>
     d2c: 86 13        	stx	$13                     ; 0x13 <__rc3>
     d2e: 64 26        	stz	$26                     ; 0x26 <__rc22>
     d30: a2 3c        	ldx	#$3c
     d32: 64 14        	stz	$14                     ; 0x14 <__rc4>
     d34: a9 00        	lda	#$0
     d36: 20 f0 78     	jsr	$78f0 <__memset>
     d39: a6 2c        	ldx	$2c                     ; 0x2c <__rc28>
     d3b: a5 27        	lda	$27                     ; 0x27 <__rc23>
     d3d: d0 06        	bne	$d45 <main+0x722>
     d3f: 8a           	txa
     d40: d0 03        	bne	$d45 <main+0x722>
     d42: 4c dc 0d     	jmp	$ddc <main+0x7b9>
     d45: 64 12        	stz	$12                     ; 0x12 <__rc2>
     d47: a6 2c        	ldx	$2c                     ; 0x2c <__rc28>
     d49: a4 27        	ldy	$27                     ; 0x27 <__rc23>
     d4b: 18           	clc
     d4c: a5 10        	lda	$10                     ; 0x10 <__zp_data_size>
     d4e: 69 10        	adc	#$10
     d50: 48           	pha
     d51: a5 11        	lda	$11                     ; 0x11 <__rc1>
     d53: 69 00        	adc	#$0
     d55: 85 14        	sta	$14                     ; 0x14 <__rc4>
     d57: 68           	pla
     d58: 18           	clc
     d59: 5a           	phy
     d5a: a0 01        	ldy	#$1
     d5c: b0 02        	bcs	$d60 <main+0x73d>
     d5e: a0 00        	ldy	#$0
     d60: 84 13        	sty	$13                     ; 0x13 <__rc3>
     d62: 65 26        	adc	$26                     ; 0x26 <__rc22>
     d64: 85 16        	sta	$16                     ; 0x16 <__rc6>
     d66: a5 14        	lda	$14                     ; 0x14 <__rc4>
     d68: 65 12        	adc	$12                     ; 0x12 <__rc2>
     d6a: a4 16        	ldy	$16                     ; 0x16 <__rc6>
     d6c: 84 14        	sty	$14                     ; 0x14 <__rc4>
     d6e: 85 15        	sta	$15                     ; 0x15 <__rc5>
     d70: a9 12        	lda	#$12
     d72: a4 13        	ldy	$13                     ; 0x13 <__rc3>
     d74: c0 01        	cpy	#$1
     d76: 7a           	ply
     d77: 65 26        	adc	$26                     ; 0x26 <__rc22>
     d79: 85 16        	sta	$16                     ; 0x16 <__rc6>
     d7b: a9 88        	lda	#$88
     d7d: 65 12        	adc	$12                     ; 0x12 <__rc2>
     d7f: 85 17        	sta	$17                     ; 0x17 <__rc7>
     d81: b2 16        	lda	($16)                   ; 0x16 <__rc6>
     d83: 85 13        	sta	$13                     ; 0x13 <__rc3>
     d85: b2 16        	lda	($16)                   ; 0x16 <__rc6>
     d87: 92 14        	sta	($14)                   ; 0x14 <__rc4>
     d89: a5 13        	lda	$13                     ; 0x13 <__rc3>
     d8b: f0 18        	beq	$da5 <main+0x782>
     d8d: ca           	dex
     d8e: e0 ff        	cpx	#$ff
     d90: d0 01        	bne	$d93 <main+0x770>
     d92: 88           	dey
     d93: e6 26        	inc	$26                     ; 0x26 <__rc22>
     d95: d0 02        	bne	$d99 <main+0x776>
     d97: e6 12        	inc	$12                     ; 0x12 <__rc2>
     d99: 98           	tya
     d9a: f0 03        	beq	$d9f <main+0x77c>
     d9c: 4c 4b 0d     	jmp	$d4b <main+0x728>
     d9f: 8a           	txa
     da0: f0 3a        	beq	$ddc <main+0x7b9>
     da2: 4c 4b 0d     	jmp	$d4b <main+0x728>
     da5: ca           	dex
     da6: e0 ff        	cpx	#$ff
     da8: d0 01        	bne	$dab <main+0x788>
     daa: 88           	dey
     dab: 98           	tya
     dac: d0 03        	bne	$db1 <main+0x78e>
     dae: 8a           	txa
     daf: f0 2b        	beq	$ddc <main+0x7b9>
     db1: 18           	clc
     db2: a5 10        	lda	$10                     ; 0x10 <__zp_data_size>
     db4: 69 10        	adc	#$10
     db6: 48           	pha
     db7: a5 11        	lda	$11                     ; 0x11 <__rc1>
     db9: 69 00        	adc	#$0
     dbb: 85 13        	sta	$13                     ; 0x13 <__rc3>
     dbd: 68           	pla
     dbe: 18           	clc
     dbf: 65 26        	adc	$26                     ; 0x26 <__rc22>
     dc1: 85 14        	sta	$14                     ; 0x14 <__rc4>
     dc3: a5 13        	lda	$13                     ; 0x13 <__rc3>
     dc5: 65 12        	adc	$12                     ; 0x12 <__rc2>
     dc7: 5a           	phy
     dc8: a4 14        	ldy	$14                     ; 0x14 <__rc4>
     dca: 84 12        	sty	$12                     ; 0x12 <__rc2>
     dcc: 7a           	ply
     dcd: 85 13        	sta	$13                     ; 0x13 <__rc3>
     dcf: e6 12        	inc	$12                     ; 0x12 <__rc2>
     dd1: d0 02        	bne	$dd5 <main+0x7b2>
     dd3: e6 13        	inc	$13                     ; 0x13 <__rc3>
     dd5: a9 00        	lda	#$0
     dd7: 84 14        	sty	$14                     ; 0x14 <__rc4>
     dd9: 20 f0 78     	jsr	$78f0 <__memset>
     ddc: 18           	clc
     ddd: a5 10        	lda	$10                     ; 0x10 <__zp_data_size>
     ddf: 69 10        	adc	#$10
     de1: 85 12        	sta	$12                     ; 0x12 <__rc2>
     de3: a5 11        	lda	$11                     ; 0x11 <__rc1>
     de5: 69 00        	adc	#$0
     de7: aa           	tax
     de8: 85 13        	sta	$13                     ; 0x13 <__rc3>
     dea: 18           	clc
     deb: a5 2c        	lda	$2c                     ; 0x2c <__rc28>
     ded: 65 12        	adc	$12                     ; 0x12 <__rc2>
     def: 85 14        	sta	$14                     ; 0x14 <__rc4>
     df1: 8a           	txa
     df2: 65 27        	adc	$27                     ; 0x27 <__rc23>
     df4: 85 15        	sta	$15                     ; 0x15 <__rc5>
     df6: a9 00        	lda	#$0
     df8: 92 14        	sta	($14)                   ; 0x14 <__rc4>
     dfa: 20 69 1e     	jsr	$1e69 <fpr_set_currentPath>
     dfd: 20 85 65     	jsr	$6585 <setColors>
     e00: 64 40        	stz	$40                     ; 0x40 <_col>
     e02: 9c 14 d0     	stz	$d014                   ; 0xd014 <end_block9+0x478a>
     e05: 9c 15 d0     	stz	$d015                   ; 0xd015 <end_block9+0x478b>
     e08: a2 19        	ldx	#$19
     e0a: 86 41        	stx	$41                     ; 0x41 <_row>
     e0c: 8e 16 d0     	stx	$d016                   ; 0xd016 <end_block9+0x478c>
     e0f: 9c 17 d0     	stz	$d017                   ; 0xd017 <end_block9+0x478d>
     e12: a9 12        	lda	#$12
     e14: 92 10        	sta	($10)                   ; 0x10 <__zp_data_size>
     e16: a0 01        	ldy	#$1
     e18: a9 88        	lda	#$88
     e1a: 91 10        	sta	($10),y                 ; 0x10 <__zp_data_size>
     e1c: a2 2b        	ldx	#$2b
     e1e: 86 12        	stx	$12                     ; 0x12 <__rc2>
     e20: a2 83        	ldx	#$83
     e22: 86 13        	stx	$13                     ; 0x13 <__rc3>
     e24: 20 e5 73     	jsr	$73e5 <printf>
     e27: 20 6e 4c     	jsr	$4c6e <loadSMFile>
     e2a: 20 29 65     	jsr	$6529 <lilpause>
     e2d: a6 01        	ldx	$1                      ; 0x1
     e2f: 86 13        	stx	$13                     ; 0x13 <__rc3>
     e31: a2 02        	ldx	#$2
     e33: 86 01        	stx	$1                      ; 0x1
     e35: a2 c0        	ldx	#$c0
     e37: a0 00        	ldy	#$0
     e39: a9 20        	lda	#$20
     e3b: 85 14        	sta	$14                     ; 0x14 <__rc4>
     e3d: 86 12        	stx	$12                     ; 0x12 <__rc2>
     e3f: a2 3c        	ldx	#$3c
     e41: 84 15        	sty	$15                     ; 0x15 <__rc5>
     e43: a5 12        	lda	$12                     ; 0x12 <__rc2>
     e45: 85 16        	sta	$16                     ; 0x16 <__rc6>
     e47: a5 14        	lda	$14                     ; 0x14 <__rc4>
     e49: 85 17        	sta	$17                     ; 0x17 <__rc7>
     e4b: a5 15        	lda	$15                     ; 0x15 <__rc5>
     e4d: 85 18        	sta	$18                     ; 0x18 <__rc8>
     e4f: a5 15        	lda	$15                     ; 0x15 <__rc5>
     e51: 85 14        	sta	$14                     ; 0x14 <__rc4>
     e53: a5 16        	lda	$16                     ; 0x16 <__rc6>
     e55: 85 15        	sta	$15                     ; 0x15 <__rc5>
     e57: a5 17        	lda	$17                     ; 0x17 <__rc7>
     e59: 92 14        	sta	($14)                   ; 0x14 <__rc4>
     e5b: ca           	dex
     e5c: 18           	clc
     e5d: a5 18        	lda	$18                     ; 0x18 <__rc8>
     e5f: 69 50        	adc	#$50
     e61: 85 15        	sta	$15                     ; 0x15 <__rc5>
     e63: a5 16        	lda	$16                     ; 0x16 <__rc6>
     e65: 69 00        	adc	#$0
     e67: 85 16        	sta	$16                     ; 0x16 <__rc6>
     e69: 8a           	txa
     e6a: d0 df        	bne	$e4b <main+0x828>
     e6c: a2 20        	ldx	#$20
     e6e: 86 14        	stx	$14                     ; 0x14 <__rc4>
     e70: c8           	iny
     e71: d0 02        	bne	$e75 <main+0x852>
     e73: e6 12        	inc	$12                     ; 0x12 <__rc2>
     e75: c0 50        	cpy	#$50
     e77: d0 c6        	bne	$e3f <main+0x81c>
     e79: a6 13        	ldx	$13                     ; 0x13 <__rc3>
     e7b: 86 01        	stx	$1                      ; 0x1
     e7d: 20 f0 49     	jsr	$49f0 <detectStructure>
     e80: 20 89 62     	jsr	$6289 <displayInfo>
     e83: a2 b0        	ldx	#$b0
     e85: a0 79        	ldy	#$79
     e87: 18           	clc
     e88: 8a           	txa
     e89: 69 10        	adc	#$10
     e8b: 8d a1 dd     	sta	$dda1                   ; 0xdda1 <end_block9+0x5517>
     e8e: 9c a1 dd     	stz	$dda1                   ; 0xdda1 <end_block9+0x5517>
     e91: 8e a1 dd     	stx	$dda1                   ; 0xdda1 <end_block9+0x5517>
     e94: 8c a1 dd     	sty	$dda1                   ; 0xdda1 <end_block9+0x5517>
     e97: 9c a1 dd     	stz	$dda1                   ; 0xdda1 <end_block9+0x5517>
     e9a: e8           	inx
     e9b: e0 c0        	cpx	#$c0
     e9d: d0 e8        	bne	$e87 <main+0x864>
     e9f: a2 ff        	ldx	#$ff
     ea1: 8e a1 dd     	stx	$dda1                   ; 0xdda1 <end_block9+0x5517>
     ea4: 8e a1 dd     	stx	$dda1                   ; 0xdda1 <end_block9+0x5517>
     ea7: 8e b1 dd     	stx	$ddb1                   ; 0xddb1 <end_block9+0x5527>
     eaa: a2 b0        	ldx	#$b0
     eac: a0 7b        	ldy	#$7b
     eae: 8e b1 dd     	stx	$ddb1                   ; 0xddb1 <end_block9+0x5527>
     eb1: 8c b1 dd     	sty	$ddb1                   ; 0xddb1 <end_block9+0x5527>
     eb4: 9c b1 dd     	stz	$ddb1                   ; 0xddb1 <end_block9+0x5527>
     eb7: e8           	inx
     eb8: e0 c0        	cpx	#$c0
     eba: d0 f2        	bne	$eae <main+0x88b>
     ebc: a2 b0        	ldx	#$b0
     ebe: a0 7b        	ldy	#$7b
     ec0: 8e a1 dd     	stx	$dda1                   ; 0xdda1 <end_block9+0x5517>
     ec3: 8c a1 dd     	sty	$dda1                   ; 0xdda1 <end_block9+0x5517>
     ec6: 9c a1 dd     	stz	$dda1                   ; 0xdda1 <end_block9+0x5517>
     ec9: e8           	inx
     eca: e0 c0        	cpx	#$c0
     ecc: d0 f2        	bne	$ec0 <main+0x89d>
     ece: 20 97 5e     	jsr	$5e97 <initTrack>
     ed1: a6 5f        	ldx	$5f                     ; 0x5f <theOne.0>
     ed3: a4 60        	ldy	$60                     ; 0x60 <theOne.0+0x1>
     ed5: d0 03        	bne	$eda <main+0x8b7>
     ed7: 8a           	txa
     ed8: f0 25        	beq	$eff <main+0x8dc>
     eda: a9 00        	lda	#$0
     edc: a8           	tay
     edd: 85 26        	sta	$26                     ; 0x26 <__rc22>
     edf: 84 27        	sty	$27                     ; 0x27 <__rc23>
     ee1: 20 a1 5d     	jsr	$5da1 <exhaustZeroes>
     ee4: a6 26        	ldx	$26                     ; 0x26 <__rc22>
     ee6: a4 27        	ldy	$27                     ; 0x27 <__rc23>
     ee8: e8           	inx
     ee9: d0 01        	bne	$eec <main+0x8c9>
     eeb: c8           	iny
     eec: 8a           	txa
     eed: c4 60        	cpy	$60                     ; 0x60 <theOne.0+0x1>
     eef: d0 0a        	bne	$efb <main+0x8d8>
     ef1: a6 5f        	ldx	$5f                     ; 0x5f <theOne.0>
     ef3: 86 12        	stx	$12                     ; 0x12 <__rc2>
     ef5: c5 12        	cmp	$12                     ; 0x12 <__rc2>
     ef7: b0 06        	bcs	$eff <main+0x8dc>
     ef9: 80 e2        	bra	$edd <main+0x8ba>
     efb: c4 60        	cpy	$60                     ; 0x60 <theOne.0+0x1>
     efd: 90 de        	bcc	$edd <main+0x8ba>
     eff: 9c 54 d6     	stz	$d654                   ; 0xd654 <end_block9+0x4dca>
     f02: a0 02        	ldy	#$2
     f04: 8c 50 d6     	sty	$d650                   ; 0xd650 <end_block9+0x4dc6>
     f07: a2 89        	ldx	#$89
     f09: 8e 50 d6     	stx	$d650                   ; 0xd650 <end_block9+0x4dc6>
     f0c: a2 80        	ldx	#$80
     f0e: 86 f3        	stx	$f3                     ; 0xf3 <__data_size+0xa9>
     f10: a2 71        	ldx	#$71
     f12: 86 12        	stx	$12                     ; 0x12 <__rc2>
     f14: a2 00        	ldx	#$0
     f16: 86 13        	stx	$13                     ; 0x13 <__rc3>
     f18: 20 f0 ff     	jsr	$fff0 <end_block9+0x7766>
     f1b: 92 24        	sta	($24)                   ; 0x24 <__rc20>
     f1d: a9 00        	lda	#$0
     f1f: 6a           	ror
     f20: 85 12        	sta	$12                     ; 0x12 <__rc2>
     f22: 18           	clc
     f23: a9 03        	lda	#$3
     f25: 72 24        	adc	($24)                   ; 0x24 <__rc20>
     f27: 85 47        	sta	$47                     ; 0x47 <shimmerTimer.1>
     f29: 64 f3        	stz	$f3                     ; 0xf3 <__data_size+0xa9>
     f2b: a6 47        	ldx	$47                     ; 0x47 <shimmerTimer.1>
     f2d: 86 f4        	stx	$f4                     ; 0xf4 <__data_size+0xaa>
     f2f: 84 f5        	sty	$f5                     ; 0xf5 <__data_size+0xab>
     f31: 20 f0 ff     	jsr	$fff0 <end_block9+0x7766>
     f34: 92 24        	sta	($24)                   ; 0x24 <__rc20>
     f36: a9 00        	lda	#$0
     f38: 6a           	ror
     f39: 85 12        	sta	$12                     ; 0x12 <__rc2>
     f3b: a5 45        	lda	$45                     ; 0x45 <isTrulyDone>
     f3d: 29 01        	and	#$1
     f3f: d0 03        	bne	$f44 <main+0x921>
     f41: 4c a8 0f     	jmp	$fa8 <main+0x985>
     f44: 78           	sei
     f45: a2 07        	ldx	#$7
     f47: 86 0f        	stx	$f                      ; 0xf
     f49: a2 de        	ldx	#$de
     f4b: 8e a2 d6     	stx	$d6a2                   ; 0xd6a2 <end_block9+0x4e18>
     f4e: a2 ad        	ldx	#$ad
     f50: 8e a3 d6     	stx	$d6a3                   ; 0xd6a3 <end_block9+0x4e19>
     f53: a2 f0        	ldx	#$f0
     f55: 8e a0 d6     	stx	$d6a0                   ; 0xd6a0 <end_block9+0x4e16>
     f58: 9c a0 d6     	stz	$d6a0                   ; 0xd6a0 <end_block9+0x4e16>
     f5b: 6c fc ff     	jmp	($fffc)                 ; 0xfffc <end_block9+0x7772>
     f5e: a2 00        	ldx	#$0
     f60: 8a           	txa
     f61: 85 20        	sta	$20                     ; 0x20 <__rc16>
     f63: a0 02        	ldy	#$2
     f65: b1 10        	lda	($10),y                 ; 0x10 <__zp_data_size>
     f67: 85 2f        	sta	$2f                     ; 0x2f <__rc31>
     f69: c8           	iny
     f6a: b1 10        	lda	($10),y                 ; 0x10 <__zp_data_size>
     f6c: 85 2e        	sta	$2e                     ; 0x2e <__rc30>
     f6e: c8           	iny
     f6f: b1 10        	lda	($10),y                 ; 0x10 <__zp_data_size>
     f71: 85 2d        	sta	$2d                     ; 0x2d <__rc29>
     f73: c8           	iny
     f74: b1 10        	lda	($10),y                 ; 0x10 <__zp_data_size>
     f76: 85 2c        	sta	$2c                     ; 0x2c <__rc28>
     f78: c8           	iny
     f79: b1 10        	lda	($10),y                 ; 0x10 <__zp_data_size>
     f7b: 85 2b        	sta	$2b                     ; 0x2b <__rc27>
     f7d: c8           	iny
     f7e: b1 10        	lda	($10),y                 ; 0x10 <__zp_data_size>
     f80: 85 2a        	sta	$2a                     ; 0x2a <__rc26>
     f82: c8           	iny
     f83: b1 10        	lda	($10),y                 ; 0x10 <__zp_data_size>
     f85: 85 29        	sta	$29                     ; 0x29 <__rc25>
     f87: c8           	iny
     f88: b1 10        	lda	($10),y                 ; 0x10 <__zp_data_size>
     f8a: 85 28        	sta	$28                     ; 0x28 <__rc24>
     f8c: 7a           	ply
     f8d: 84 27        	sty	$27                     ; 0x27 <__rc23>
     f8f: 7a           	ply
     f90: 84 26        	sty	$26                     ; 0x26 <__rc22>
     f92: 7a           	ply
     f93: 84 25        	sty	$25                     ; 0x25 <__rc21>
     f95: 7a           	ply
     f96: 84 24        	sty	$24                     ; 0x24 <__rc20>
     f98: 18           	clc
     f99: a5 10        	lda	$10                     ; 0x10 <__zp_data_size>
     f9b: 69 4c        	adc	#$4c
     f9d: 85 10        	sta	$10                     ; 0x10 <__zp_data_size>
     f9f: a5 11        	lda	$11                     ; 0x11 <__rc1>
     fa1: 69 00        	adc	#$0
     fa3: 85 11        	sta	$11                     ; 0x11 <__rc1>
     fa5: a5 20        	lda	$20                     ; 0x20 <__rc16>
     fa7: 60           	rts
     fa8: a2 20        	ldx	#$20
     faa: 86 2f        	stx	$2f                     ; 0x2f <__rc31>
     fac: 64 40        	stz	$40                     ; 0x40 <_col>
     fae: 9c 14 d0     	stz	$d014                   ; 0xd014 <end_block9+0x478a>
     fb1: 9c 15 d0     	stz	$d015                   ; 0xd015 <end_block9+0x478b>
     fb4: a0 19        	ldy	#$19
     fb6: 84 41        	sty	$41                     ; 0x41 <_row>
     fb8: 8c 16 d0     	sty	$d016                   ; 0xd016 <end_block9+0x478c>
     fbb: 9c 17 d0     	stz	$d017                   ; 0xd017 <end_block9+0x478d>
     fbe: a2 b1        	ldx	#$b1
     fc0: 86 12        	stx	$12                     ; 0x12 <__rc2>
     fc2: a2 81        	ldx	#$81
     fc4: 86 13        	stx	$13                     ; 0x13 <__rc3>
     fc6: 20 97 1b     	jsr	$1b97 <textPrint>
     fc9: 20 21 64     	jsr	$6421 <superExtraInfo>
     fcc: 20 85 65     	jsr	$6585 <setColors>
     fcf: 64 72        	stz	$72                     ; 0x72 <kernelEventData>
     fd1: a2 71        	ldx	#$71
     fd3: 86 12        	stx	$12                     ; 0x12 <__rc2>
     fd5: a2 00        	ldx	#$0
     fd7: 86 13        	stx	$13                     ; 0x13 <__rc3>
     fd9: 20 00 ff     	jsr	$ff00 <end_block9+0x7676>
     fdc: 92 24        	sta	($24)                   ; 0x24 <__rc20>
     fde: a9 00        	lda	#$0
     fe0: 6a           	ror
     fe1: 85 12        	sta	$12                     ; 0x12 <__rc2>
     fe3: a6 72        	ldx	$72                     ; 0x72 <kernelEventData>
     fe5: e0 52        	cpx	#$52
     fe7: f0 03        	beq	$fec <main+0x9c9>
     fe9: 4c b4 10     	jmp	$10b4 <main+0xa91>
     fec: a6 76        	ldx	$76                     ; 0x76 <kernelEventData+0x4>
     fee: e0 02        	cpx	#$2
     ff0: f0 03        	beq	$ff5 <main+0x9d2>
     ff2: 4c cf 14     	jmp	$14cf <main+0xeac>
     ff5: a0 10        	ldy	#$10
     ff7: a2 00        	ldx	#$0
     ff9: 80 47        	bra	$1042 <main+0xa1f>
     ffb: 84 30        	sty	$30                     ; 0x30 <_ccolor>
     ffd: 84 26        	sty	$26                     ; 0x26 <__rc22>
     fff: a4 27        	ldy	$27                     ; 0x27 <__rc23>
    1001: a5 27        	lda	$27                     ; 0x27 <__rc23>
    1003: 18           	clc
    1004: 69 08        	adc	#$8
    1006: a2 04        	ldx	#$4
    1008: 86 40        	stx	$40                     ; 0x40 <_col>
    100a: 8e 14 d0     	stx	$d014                   ; 0xd014 <end_block9+0x478a>
    100d: 9c 15 d0     	stz	$d015                   ; 0xd015 <end_block9+0x478b>
    1010: 85 41        	sta	$41                     ; 0x41 <_row>
    1012: 8d 16 d0     	sta	$d016                   ; 0xd016 <end_block9+0x478c>
    1015: 9c 17 d0     	stz	$d017                   ; 0xd017 <end_block9+0x478d>
    1018: b6 4f        	ldx	$4f,y                   ; 0x4f <shimmerBuffer>
    101a: 86 2c        	stx	$2c                     ; 0x2c <__rc28>
    101c: b6 4f        	ldx	$4f,y                   ; 0x4f <shimmerBuffer>
    101e: 86 42        	stx	$42                     ; 0x42 <__putchar.s>
    1020: a2 42        	ldx	#$42
    1022: 86 12        	stx	$12                     ; 0x12 <__rc2>
    1024: a2 00        	ldx	#$0
    1026: 86 13        	stx	$13                     ; 0x13 <__rc3>
    1028: 20 97 1b     	jsr	$1b97 <textPrint>
    102b: a4 26        	ldy	$26                     ; 0x26 <__rc22>
    102d: c6 2c        	dec	$2c                     ; 0x2c <__rc28>
    102f: a6 27        	ldx	$27                     ; 0x27 <__rc23>
    1031: a5 2c        	lda	$2c                     ; 0x2c <__rc28>
    1033: 9d 4f 00     	sta	$4f,x                   ; 0x4f <shimmerBuffer>
    1036: a6 27        	ldx	$27                     ; 0x27 <__rc23>
    1038: e8           	inx
    1039: 18           	clc
    103a: 98           	tya
    103b: 69 10        	adc	#$10
    103d: a8           	tay
    103e: e0 10        	cpx	#$10
    1040: f0 3f        	beq	$1081 <main+0xa5e>
    1042: 86 27        	stx	$27                     ; 0x27 <__rc23>
    1044: b5 4f        	lda	$4f,x                   ; 0x4f <shimmerBuffer>
    1046: aa           	tax
    1047: f0 ed        	beq	$1036 <main+0xa13>
    1049: e0 0e        	cpx	#$e
    104b: d0 ae        	bne	$ffb <main+0x9d8>
    104d: 84 26        	sty	$26                     ; 0x26 <__rc22>
    104f: a6 27        	ldx	$27                     ; 0x27 <__rc23>
    1051: a5 27        	lda	$27                     ; 0x27 <__rc23>
    1053: 18           	clc
    1054: 69 08        	adc	#$8
    1056: a0 04        	ldy	#$4
    1058: 84 40        	sty	$40                     ; 0x40 <_col>
    105a: 8c 14 d0     	sty	$d014                   ; 0xd014 <end_block9+0x478a>
    105d: 9c 15 d0     	stz	$d015                   ; 0xd015 <end_block9+0x478b>
    1060: 85 41        	sta	$41                     ; 0x41 <_row>
    1062: 8d 16 d0     	sta	$d016                   ; 0xd016 <end_block9+0x478c>
    1065: 9c 17 d0     	stz	$d017                   ; 0xd017 <end_block9+0x478d>
    1068: 74 4f        	stz	$4f,x                   ; 0x4f <shimmerBuffer>
    106a: a0 20        	ldy	#$20
    106c: a2 20        	ldx	#$20
    106e: 86 2f        	stx	$2f                     ; 0x2f <__rc31>
    1070: 84 42        	sty	$42                     ; 0x42 <__putchar.s>
    1072: a2 42        	ldx	#$42
    1074: 86 12        	stx	$12                     ; 0x12 <__rc2>
    1076: a2 00        	ldx	#$0
    1078: 86 13        	stx	$13                     ; 0x13 <__rc3>
    107a: 20 97 1b     	jsr	$1b97 <textPrint>
    107d: a4 26        	ldy	$26                     ; 0x26 <__rc22>
    107f: 80 b5        	bra	$1036 <main+0xa13>
    1081: a2 80        	ldx	#$80
    1083: 86 f3        	stx	$f3                     ; 0xf3 <__data_size+0xa9>
    1085: a2 71        	ldx	#$71
    1087: 86 12        	stx	$12                     ; 0x12 <__rc2>
    1089: a2 00        	ldx	#$0
    108b: 86 13        	stx	$13                     ; 0x13 <__rc3>
    108d: 20 f0 ff     	jsr	$fff0 <end_block9+0x7766>
    1090: 92 24        	sta	($24)                   ; 0x24 <__rc20>
    1092: a9 00        	lda	#$0
    1094: 6a           	ror
    1095: 85 12        	sta	$12                     ; 0x12 <__rc2>
    1097: a9 03        	lda	#$3
    1099: 18           	clc
    109a: 72 24        	adc	($24)                   ; 0x24 <__rc20>
    109c: 85 47        	sta	$47                     ; 0x47 <shimmerTimer.1>
    109e: 64 f3        	stz	$f3                     ; 0xf3 <__data_size+0xa9>
    10a0: a6 47        	ldx	$47                     ; 0x47 <shimmerTimer.1>
    10a2: 86 f4        	stx	$f4                     ; 0xf4 <__data_size+0xaa>
    10a4: a2 02        	ldx	#$2
    10a6: 86 f5        	stx	$f5                     ; 0xf5 <__data_size+0xab>
    10a8: 20 f0 ff     	jsr	$fff0 <end_block9+0x7766>
    10ab: 92 24        	sta	($24)                   ; 0x24 <__rc20>
    10ad: a9 00        	lda	#$0
    10af: 6a           	ror
    10b0: 85 12        	sta	$12                     ; 0x12 <__rc2>
    10b2: a6 72        	ldx	$72                     ; 0x72 <kernelEventData>
    10b4: e0 08        	cpx	#$8
    10b6: f0 03        	beq	$10bb <main+0xa98>
    10b8: 4c cf 14     	jmp	$14cf <main+0xeac>
    10bb: a6 76        	ldx	$76                     ; 0x76 <kernelEventData+0x4>
    10bd: e0 83        	cpx	#$83
    10bf: f0 03        	beq	$10c4 <main+0xaa1>
    10c1: 4c 8b 12     	jmp	$128b <main+0xc68>
    10c4: a5 44        	lda	$44                     ; 0x44 <isPaused>
    10c6: 29 01        	and	#$1
    10c8: d0 49        	bne	$1113 <main+0xaf0>
    10ca: a2 b0        	ldx	#$b0
    10cc: a0 7b        	ldy	#$7b
    10ce: 8e b1 dd     	stx	$ddb1                   ; 0xddb1 <end_block9+0x5527>
    10d1: 8c b1 dd     	sty	$ddb1                   ; 0xddb1 <end_block9+0x5527>
    10d4: 9c b1 dd     	stz	$ddb1                   ; 0xddb1 <end_block9+0x5527>
    10d7: e8           	inx
    10d8: e0 c0        	cpx	#$c0
    10da: d0 f2        	bne	$10ce <main+0xaab>
    10dc: a2 b0        	ldx	#$b0
    10de: 8e a1 dd     	stx	$dda1                   ; 0xdda1 <end_block9+0x5517>
    10e1: 8c a1 dd     	sty	$dda1                   ; 0xdda1 <end_block9+0x5517>
    10e4: 9c a1 dd     	stz	$dda1                   ; 0xdda1 <end_block9+0x5517>
    10e7: e8           	inx
    10e8: e0 c0        	cpx	#$c0
    10ea: d0 f2        	bne	$10de <main+0xabb>
    10ec: a2 01        	ldx	#$1
    10ee: 86 44        	stx	$44                     ; 0x44 <isPaused>
    10f0: a2 10        	ldx	#$10
    10f2: 86 30        	stx	$30                     ; 0x30 <_ccolor>
    10f4: a2 1a        	ldx	#$1a
    10f6: 86 40        	stx	$40                     ; 0x40 <_col>
    10f8: 8e 14 d0     	stx	$d014                   ; 0xd014 <end_block9+0x478a>
    10fb: 9c 15 d0     	stz	$d015                   ; 0xd015 <end_block9+0x478b>
    10fe: a2 1d        	ldx	#$1d
    1100: 86 41        	stx	$41                     ; 0x41 <_row>
    1102: 8e 16 d0     	stx	$d016                   ; 0xd016 <end_block9+0x478c>
    1105: 9c 17 d0     	stz	$d017                   ; 0xd017 <end_block9+0x478d>
    1108: a2 90        	ldx	#$90
    110a: 86 12        	stx	$12                     ; 0x12 <__rc2>
    110c: a2 84        	ldx	#$84
    110e: 86 13        	stx	$13                     ; 0x13 <__rc3>
    1110: 20 97 1b     	jsr	$1b97 <textPrint>
    1113: a6 6e        	ldx	$6e                     ; 0x6e <theOne.8>
    1115: a4 6f        	ldy	$6f                     ; 0x6f <theOne.8+0x1>
    1117: 86 12        	stx	$12                     ; 0x12 <__rc2>
    1119: 84 13        	sty	$13                     ; 0x13 <__rc3>
    111b: 20 39 77     	jsr	$7739 <free>
    111e: a2 00        	ldx	#$0
    1120: 86 12        	stx	$12                     ; 0x12 <__rc2>
    1122: a2 00        	ldx	#$0
    1124: 86 13        	stx	$13                     ; 0x13 <__rc3>
    1126: a6 12        	ldx	$12                     ; 0x12 <__rc2>
    1128: a4 13        	ldy	$13                     ; 0x13 <__rc3>
    112a: 86 6e        	stx	$6e                     ; 0x6e <theOne.8>
    112c: 84 6f        	sty	$6f                     ; 0x6f <theOne.8+0x1>
    112e: 20 e9 19     	jsr	$19e9 <zeroOutStuff>
    1131: a6 01        	ldx	$1                      ; 0x1
    1133: 86 13        	stx	$13                     ; 0x13 <__rc3>
    1135: a2 02        	ldx	#$2
    1137: 86 01        	stx	$1                      ; 0x1
    1139: a2 c0        	ldx	#$c0
    113b: a0 00        	ldy	#$0
    113d: 86 12        	stx	$12                     ; 0x12 <__rc2>
    113f: a2 3c        	ldx	#$3c
    1141: 84 14        	sty	$14                     ; 0x14 <__rc4>
    1143: a5 12        	lda	$12                     ; 0x12 <__rc2>
    1145: 85 15        	sta	$15                     ; 0x15 <__rc5>
    1147: a5 2f        	lda	$2f                     ; 0x2f <__rc31>
    1149: 92 14        	sta	($14)                   ; 0x14 <__rc4>
    114b: ca           	dex
    114c: 18           	clc
    114d: a5 14        	lda	$14                     ; 0x14 <__rc4>
    114f: 69 50        	adc	#$50
    1151: 85 14        	sta	$14                     ; 0x14 <__rc4>
    1153: a5 15        	lda	$15                     ; 0x15 <__rc5>
    1155: 69 00        	adc	#$0
    1157: 85 15        	sta	$15                     ; 0x15 <__rc5>
    1159: 8a           	txa
    115a: d0 eb        	bne	$1147 <main+0xb24>
    115c: a2 20        	ldx	#$20
    115e: 86 2f        	stx	$2f                     ; 0x2f <__rc31>
    1160: c8           	iny
    1161: d0 02        	bne	$1165 <main+0xb42>
    1163: e6 12        	inc	$12                     ; 0x12 <__rc2>
    1165: c0 50        	cpy	#$50
    1167: d0 d6        	bne	$113f <main+0xb1c>
    1169: a6 13        	ldx	$13                     ; 0x13 <__rc3>
    116b: 86 01        	stx	$1                      ; 0x1
    116d: 20 b1 1e     	jsr	$1eb1 <getTheFile_far>
    1170: aa           	tax
    1171: f0 03        	beq	$1176 <main+0xb53>
    1173: 4c cf 14     	jmp	$14cf <main+0xeac>
    1176: 20 85 65     	jsr	$6585 <setColors>
    1179: 64 26        	stz	$26                     ; 0x26 <__rc22>
    117b: 64 40        	stz	$40                     ; 0x40 <_col>
    117d: 9c 14 d0     	stz	$d014                   ; 0xd014 <end_block9+0x478a>
    1180: 9c 15 d0     	stz	$d015                   ; 0xd015 <end_block9+0x478b>
    1183: a0 19        	ldy	#$19
    1185: 84 41        	sty	$41                     ; 0x41 <_row>
    1187: 8c 16 d0     	sty	$d016                   ; 0xd016 <end_block9+0x478c>
    118a: 9c 17 d0     	stz	$d017                   ; 0xd017 <end_block9+0x478d>
    118d: a9 12        	lda	#$12
    118f: 92 10        	sta	($10)                   ; 0x10 <__zp_data_size>
    1191: a0 01        	ldy	#$1
    1193: a9 88        	lda	#$88
    1195: 91 10        	sta	($10),y                 ; 0x10 <__zp_data_size>
    1197: a2 2b        	ldx	#$2b
    1199: 86 12        	stx	$12                     ; 0x12 <__rc2>
    119b: a2 83        	ldx	#$83
    119d: 86 13        	stx	$13                     ; 0x13 <__rc3>
    119f: 20 e5 73     	jsr	$73e5 <printf>
    11a2: 20 6e 4c     	jsr	$4c6e <loadSMFile>
    11a5: 20 f0 49     	jsr	$49f0 <detectStructure>
    11a8: 20 97 5e     	jsr	$5e97 <initTrack>
    11ab: a6 01        	ldx	$1                      ; 0x1
    11ad: 86 14        	stx	$14                     ; 0x14 <__rc4>
    11af: a2 02        	ldx	#$2
    11b1: 86 01        	stx	$1                      ; 0x1
    11b3: a0 c0        	ldy	#$c0
    11b5: a2 3c        	ldx	#$3c
    11b7: a5 26        	lda	$26                     ; 0x26 <__rc22>
    11b9: 85 12        	sta	$12                     ; 0x12 <__rc2>
    11bb: 84 13        	sty	$13                     ; 0x13 <__rc3>
    11bd: a5 2f        	lda	$2f                     ; 0x2f <__rc31>
    11bf: 92 12        	sta	($12)                   ; 0x12 <__rc2>
    11c1: ca           	dex
    11c2: 18           	clc
    11c3: a5 12        	lda	$12                     ; 0x12 <__rc2>
    11c5: 69 50        	adc	#$50
    11c7: 85 12        	sta	$12                     ; 0x12 <__rc2>
    11c9: a5 13        	lda	$13                     ; 0x13 <__rc3>
    11cb: 69 00        	adc	#$0
    11cd: 85 13        	sta	$13                     ; 0x13 <__rc3>
    11cf: 8a           	txa
    11d0: d0 eb        	bne	$11bd <main+0xb9a>
    11d2: a2 20        	ldx	#$20
    11d4: 86 2f        	stx	$2f                     ; 0x2f <__rc31>
    11d6: e6 26        	inc	$26                     ; 0x26 <__rc22>
    11d8: d0 01        	bne	$11db <main+0xbb8>
    11da: c8           	iny
    11db: a6 26        	ldx	$26                     ; 0x26 <__rc22>
    11dd: e0 50        	cpx	#$50
    11df: d0 d4        	bne	$11b5 <main+0xb92>
    11e1: a6 14        	ldx	$14                     ; 0x14 <__rc4>
    11e3: 86 01        	stx	$1                      ; 0x1
    11e5: 20 89 62     	jsr	$6289 <displayInfo>
    11e8: 20 21 64     	jsr	$6421 <superExtraInfo>
    11eb: 64 44        	stz	$44                     ; 0x44 <isPaused>
    11ed: 64 30        	stz	$30                     ; 0x30 <_ccolor>
    11ef: a2 1a        	ldx	#$1a
    11f1: 86 40        	stx	$40                     ; 0x40 <_col>
    11f3: 8e 14 d0     	stx	$d014                   ; 0xd014 <end_block9+0x478a>
    11f6: 9c 15 d0     	stz	$d015                   ; 0xd015 <end_block9+0x478b>
    11f9: a2 1d        	ldx	#$1d
    11fb: 86 41        	stx	$41                     ; 0x41 <_row>
    11fd: 8e 16 d0     	stx	$d016                   ; 0xd016 <end_block9+0x478c>
    1200: 9c 17 d0     	stz	$d017                   ; 0xd017 <end_block9+0x478d>
    1203: a2 90        	ldx	#$90
    1205: 86 12        	stx	$12                     ; 0x12 <__rc2>
    1207: a2 84        	ldx	#$84
    1209: 86 13        	stx	$13                     ; 0x13 <__rc3>
    120b: 20 97 1b     	jsr	$1b97 <textPrint>
    120e: a2 80        	ldx	#$80
    1210: 86 f3        	stx	$f3                     ; 0xf3 <__data_size+0xa9>
    1212: a2 71        	ldx	#$71
    1214: 86 12        	stx	$12                     ; 0x12 <__rc2>
    1216: a2 00        	ldx	#$0
    1218: 86 13        	stx	$13                     ; 0x13 <__rc3>
    121a: a2 00        	ldx	#$0
    121c: 20 f0 ff     	jsr	$fff0 <end_block9+0x7766>
    121f: 92 24        	sta	($24)                   ; 0x24 <__rc20>
    1221: a9 00        	lda	#$0
    1223: 6a           	ror
    1224: 85 12        	sta	$12                     ; 0x12 <__rc2>
    1226: a9 03        	lda	#$3
    1228: 18           	clc
    1229: 72 24        	adc	($24)                   ; 0x24 <__rc20>
    122b: 85 47        	sta	$47                     ; 0x47 <shimmerTimer.1>
    122d: a9 15        	lda	#$15
    122f: 9d 4f 00     	sta	$4f,x                   ; 0x4f <shimmerBuffer>
    1232: 86 26        	stx	$26                     ; 0x26 <__rc22>
    1234: 8a           	txa
    1235: 18           	clc
    1236: 69 08        	adc	#$8
    1238: a2 04        	ldx	#$4
    123a: 86 40        	stx	$40                     ; 0x40 <_col>
    123c: 8e 14 d0     	stx	$d014                   ; 0xd014 <end_block9+0x478a>
    123f: 9c 15 d0     	stz	$d015                   ; 0xd015 <end_block9+0x478b>
    1242: 85 41        	sta	$41                     ; 0x41 <_row>
    1244: 8d 16 d0     	sta	$d016                   ; 0xd016 <end_block9+0x478c>
    1247: 9c 17 d0     	stz	$d017                   ; 0xd017 <end_block9+0x478d>
    124a: a2 28        	ldx	#$28
    124c: a4 2f        	ldy	$2f                     ; 0x2f <__rc31>
    124e: 84 42        	sty	$42                     ; 0x42 <__putchar.s>
    1250: 86 27        	stx	$27                     ; 0x27 <__rc23>
    1252: a2 42        	ldx	#$42
    1254: 86 12        	stx	$12                     ; 0x12 <__rc2>
    1256: a2 00        	ldx	#$0
    1258: 86 13        	stx	$13                     ; 0x13 <__rc3>
    125a: 20 97 1b     	jsr	$1b97 <textPrint>
    125d: a6 27        	ldx	$27                     ; 0x27 <__rc23>
    125f: ca           	dex
    1260: d0 ea        	bne	$124c <main+0xc29>
    1262: a2 20        	ldx	#$20
    1264: 86 2f        	stx	$2f                     ; 0x2f <__rc31>
    1266: a6 26        	ldx	$26                     ; 0x26 <__rc22>
    1268: e8           	inx
    1269: e0 10        	cpx	#$10
    126b: d0 c0        	bne	$122d <main+0xc0a>
    126d: 64 f3        	stz	$f3                     ; 0xf3 <__data_size+0xa9>
    126f: a6 47        	ldx	$47                     ; 0x47 <shimmerTimer.1>
    1271: 86 f4        	stx	$f4                     ; 0xf4 <__data_size+0xaa>
    1273: a2 02        	ldx	#$2
    1275: 86 f5        	stx	$f5                     ; 0xf5 <__data_size+0xab>
    1277: a2 71        	ldx	#$71
    1279: 86 12        	stx	$12                     ; 0x12 <__rc2>
    127b: a2 00        	ldx	#$0
    127d: 86 13        	stx	$13                     ; 0x13 <__rc3>
    127f: 20 f0 ff     	jsr	$fff0 <end_block9+0x7766>
    1282: 92 24        	sta	($24)                   ; 0x24 <__rc20>
    1284: a9 00        	lda	#$0
    1286: 6a           	ror
    1287: 85 12        	sta	$12                     ; 0x12 <__rc2>
    1289: a6 76        	ldx	$76                     ; 0x76 <kernelEventData+0x4>
    128b: e0 20        	cpx	#$20
    128d: f0 0a        	beq	$1299 <main+0xc76>
    128f: e0 92        	cpx	#$92
    1291: f0 03        	beq	$1296 <main+0xc73>
    1293: 4c f7 12     	jmp	$12f7 <main+0xcd4>
    1296: 4c f8 18     	jmp	$18f8 <main+0x12d5>
    1299: a5 44        	lda	$44                     ; 0x44 <isPaused>
    129b: 29 01        	and	#$1
    129d: a2 00        	ldx	#$0
    129f: a0 00        	ldy	#$0
    12a1: c9 00        	cmp	#$0
    12a3: d0 2d        	bne	$12d2 <main+0xcaf>
    12a5: a6 70        	ldx	$70                     ; 0x70 <midiChip>
    12a7: a0 a1        	ldy	#$a1
    12a9: 84 12        	sty	$12                     ; 0x12 <__rc2>
    12ab: a0 dd        	ldy	#$dd
    12ad: 84 13        	sty	$13                     ; 0x13 <__rc3>
    12af: 8a           	txa
    12b0: f0 08        	beq	$12ba <main+0xc97>
    12b2: a2 b1        	ldx	#$b1
    12b4: 86 12        	stx	$12                     ; 0x12 <__rc2>
    12b6: a2 dd        	ldx	#$dd
    12b8: 86 13        	stx	$13                     ; 0x13 <__rc3>
    12ba: a9 b0        	lda	#$b0
    12bc: a2 7b        	ldx	#$7b
    12be: 92 12        	sta	($12)                   ; 0x12 <__rc2>
    12c0: a8           	tay
    12c1: 8a           	txa
    12c2: 92 12        	sta	($12)                   ; 0x12 <__rc2>
    12c4: a9 00        	lda	#$0
    12c6: 92 12        	sta	($12)                   ; 0x12 <__rc2>
    12c8: c8           	iny
    12c9: 98           	tya
    12ca: c0 c0        	cpy	#$c0
    12cc: d0 f0        	bne	$12be <main+0xc9b>
    12ce: a2 01        	ldx	#$1
    12d0: a0 10        	ldy	#$10
    12d2: 86 44        	stx	$44                     ; 0x44 <isPaused>
    12d4: 84 30        	sty	$30                     ; 0x30 <_ccolor>
    12d6: a2 1a        	ldx	#$1a
    12d8: 86 40        	stx	$40                     ; 0x40 <_col>
    12da: 8e 14 d0     	stx	$d014                   ; 0xd014 <end_block9+0x478a>
    12dd: 9c 15 d0     	stz	$d015                   ; 0xd015 <end_block9+0x478b>
    12e0: a2 1d        	ldx	#$1d
    12e2: 86 41        	stx	$41                     ; 0x41 <_row>
    12e4: 8e 16 d0     	stx	$d016                   ; 0xd016 <end_block9+0x478c>
    12e7: 9c 17 d0     	stz	$d017                   ; 0xd017 <end_block9+0x478d>
    12ea: a2 90        	ldx	#$90
    12ec: 86 12        	stx	$12                     ; 0x12 <__rc2>
    12ee: a2 84        	ldx	#$84
    12f0: 86 13        	stx	$13                     ; 0x13 <__rc3>
    12f2: 20 97 1b     	jsr	$1b97 <textPrint>
    12f5: a6 76        	ldx	$76                     ; 0x76 <kernelEventData+0x4>
    12f7: e0 81        	cpx	#$81
    12f9: f0 03        	beq	$12fe <main+0xcdb>
    12fb: 4c 91 13     	jmp	$1391 <main+0xd6e>
    12fe: a6 70        	ldx	$70                     ; 0x70 <midiChip>
    1300: a0 a1        	ldy	#$a1
    1302: 84 12        	sty	$12                     ; 0x12 <__rc2>
    1304: a0 dd        	ldy	#$dd
    1306: 84 13        	sty	$13                     ; 0x13 <__rc3>
    1308: 8a           	txa
    1309: f0 08        	beq	$1313 <main+0xcf0>
    130b: a2 b1        	ldx	#$b1
    130d: 86 12        	stx	$12                     ; 0x12 <__rc2>
    130f: a2 dd        	ldx	#$dd
    1311: 86 13        	stx	$13                     ; 0x13 <__rc3>
    1313: a9 b0        	lda	#$b0
    1315: a2 7b        	ldx	#$7b
    1317: 92 12        	sta	($12)                   ; 0x12 <__rc2>
    1319: a8           	tay
    131a: 8a           	txa
    131b: 92 12        	sta	($12)                   ; 0x12 <__rc2>
    131d: a9 00        	lda	#$0
    131f: 92 12        	sta	($12)                   ; 0x12 <__rc2>
    1321: c8           	iny
    1322: 98           	tya
    1323: c0 c0        	cpy	#$c0
    1325: d0 f0        	bne	$1317 <main+0xcf4>
    1327: a4 70        	ldy	$70                     ; 0x70 <midiChip>
    1329: c0 01        	cpy	#$1
    132b: f0 08        	beq	$1335 <main+0xd12>
    132d: a2 10        	ldx	#$10
    132f: 86 26        	stx	$26                     ; 0x26 <__rc22>
    1331: a2 00        	ldx	#$0
    1333: 80 04        	bra	$1339 <main+0xd16>
    1335: a2 10        	ldx	#$10
    1337: 64 26        	stz	$26                     ; 0x26 <__rc22>
    1339: c0 01        	cpy	#$1
    133b: d0 04        	bne	$1341 <main+0xd1e>
    133d: 64 27        	stz	$27                     ; 0x27 <__rc23>
    133f: 80 04        	bra	$1345 <main+0xd22>
    1341: a0 01        	ldy	#$1
    1343: 84 27        	sty	$27                     ; 0x27 <__rc23>
    1345: 86 30        	stx	$30                     ; 0x30 <_ccolor>
    1347: a2 2a        	ldx	#$2a
    1349: 86 40        	stx	$40                     ; 0x40 <_col>
    134b: 8e 14 d0     	stx	$d014                   ; 0xd014 <end_block9+0x478a>
    134e: 9c 15 d0     	stz	$d015                   ; 0xd015 <end_block9+0x478b>
    1351: a2 1d        	ldx	#$1d
    1353: 86 41        	stx	$41                     ; 0x41 <_row>
    1355: 8e 16 d0     	stx	$d016                   ; 0xd016 <end_block9+0x478c>
    1358: 86 2c        	stx	$2c                     ; 0x2c <__rc28>
    135a: 9c 17 d0     	stz	$d017                   ; 0xd017 <end_block9+0x478d>
    135d: a2 6e        	ldx	#$6e
    135f: 86 12        	stx	$12                     ; 0x12 <__rc2>
    1361: a2 80        	ldx	#$80
    1363: 86 13        	stx	$13                     ; 0x13 <__rc3>
    1365: 20 97 1b     	jsr	$1b97 <textPrint>
    1368: a6 26        	ldx	$26                     ; 0x26 <__rc22>
    136a: 86 30        	stx	$30                     ; 0x30 <_ccolor>
    136c: a2 34        	ldx	#$34
    136e: 86 40        	stx	$40                     ; 0x40 <_col>
    1370: 8e 14 d0     	stx	$d014                   ; 0xd014 <end_block9+0x478a>
    1373: 9c 15 d0     	stz	$d015                   ; 0xd015 <end_block9+0x478b>
    1376: a6 2c        	ldx	$2c                     ; 0x2c <__rc28>
    1378: 86 41        	stx	$41                     ; 0x41 <_row>
    137a: 8e 16 d0     	stx	$d016                   ; 0xd016 <end_block9+0x478c>
    137d: 9c 17 d0     	stz	$d017                   ; 0xd017 <end_block9+0x478d>
    1380: a2 20        	ldx	#$20
    1382: 86 12        	stx	$12                     ; 0x12 <__rc2>
    1384: a2 7d        	ldx	#$7d
    1386: 86 13        	stx	$13                     ; 0x13 <__rc3>
    1388: 20 97 1b     	jsr	$1b97 <textPrint>
    138b: a6 27        	ldx	$27                     ; 0x27 <__rc23>
    138d: 86 70        	stx	$70                     ; 0x70 <midiChip>
    138f: a6 76        	ldx	$76                     ; 0x76 <kernelEventData+0x4>
    1391: e0 72        	cpx	#$72
    1393: d0 32        	bne	$13c7 <main+0xda4>
    1395: a6 46        	ldx	$46                     ; 0x46 <repeatFlag>
    1397: a9 01        	lda	#$1
    1399: 45 46        	eor	$46                     ; 0x46 <repeatFlag>
    139b: 85 46        	sta	$46                     ; 0x46 <repeatFlag>
    139d: 8a           	txa
    139e: 0a           	asl
    139f: 0a           	asl
    13a0: 0a           	asl
    13a1: 0a           	asl
    13a2: 49 10        	eor	#$10
    13a4: 85 30        	sta	$30                     ; 0x30 <_ccolor>
    13a6: a2 03        	ldx	#$3
    13a8: 86 40        	stx	$40                     ; 0x40 <_col>
    13aa: 8e 14 d0     	stx	$d014                   ; 0xd014 <end_block9+0x478a>
    13ad: 9c 15 d0     	stz	$d015                   ; 0xd015 <end_block9+0x478b>
    13b0: a2 1a        	ldx	#$1a
    13b2: 86 41        	stx	$41                     ; 0x41 <_row>
    13b4: 8e 16 d0     	stx	$d016                   ; 0xd016 <end_block9+0x478c>
    13b7: 9c 17 d0     	stz	$d017                   ; 0xd017 <end_block9+0x478d>
    13ba: a2 f9        	ldx	#$f9
    13bc: 86 12        	stx	$12                     ; 0x12 <__rc2>
    13be: a2 80        	ldx	#$80
    13c0: 86 13        	stx	$13                     ; 0x13 <__rc3>
    13c2: 20 97 1b     	jsr	$1b97 <textPrint>
    13c5: a6 76        	ldx	$76                     ; 0x76 <kernelEventData+0x4>
    13c7: e0 2e        	cpx	#$2e
    13c9: f0 03        	beq	$13ce <main+0xdab>
    13cb: 4c 73 14     	jmp	$1473 <main+0xe50>
    13ce: a9 b0        	lda	#$b0
    13d0: a6 70        	ldx	$70                     ; 0x70 <midiChip>
    13d2: a0 a1        	ldy	#$a1
    13d4: 84 12        	sty	$12                     ; 0x12 <__rc2>
    13d6: a0 dd        	ldy	#$dd
    13d8: 84 13        	sty	$13                     ; 0x13 <__rc3>
    13da: e0 00        	cpx	#$0
    13dc: f0 08        	beq	$13e6 <main+0xdc3>
    13de: a2 b1        	ldx	#$b1
    13e0: 86 12        	stx	$12                     ; 0x12 <__rc2>
    13e2: a2 dd        	ldx	#$dd
    13e4: 86 13        	stx	$13                     ; 0x13 <__rc3>
    13e6: 85 14        	sta	$14                     ; 0x14 <__rc4>
    13e8: 92 12        	sta	($12)                   ; 0x12 <__rc2>
    13ea: a6 70        	ldx	$70                     ; 0x70 <midiChip>
    13ec: a0 a1        	ldy	#$a1
    13ee: 84 12        	sty	$12                     ; 0x12 <__rc2>
    13f0: a0 dd        	ldy	#$dd
    13f2: 84 13        	sty	$13                     ; 0x13 <__rc3>
    13f4: 8a           	txa
    13f5: f0 08        	beq	$13ff <main+0xddc>
    13f7: a2 b1        	ldx	#$b1
    13f9: 86 12        	stx	$12                     ; 0x12 <__rc2>
    13fb: a2 dd        	ldx	#$dd
    13fd: 86 13        	stx	$13                     ; 0x13 <__rc3>
    13ff: a9 5b        	lda	#$5b
    1401: 92 12        	sta	($12)                   ; 0x12 <__rc2>
    1403: a6 70        	ldx	$70                     ; 0x70 <midiChip>
    1405: a0 a1        	ldy	#$a1
    1407: 84 12        	sty	$12                     ; 0x12 <__rc2>
    1409: a0 dd        	ldy	#$dd
    140b: 84 13        	sty	$13                     ; 0x13 <__rc3>
    140d: 8a           	txa
    140e: f0 08        	beq	$1418 <main+0xdf5>
    1410: a2 b1        	ldx	#$b1
    1412: 86 12        	stx	$12                     ; 0x12 <__rc2>
    1414: a2 dd        	ldx	#$dd
    1416: 86 13        	stx	$13                     ; 0x13 <__rc3>
    1418: a9 00        	lda	#$0
    141a: 92 12        	sta	($12)                   ; 0x12 <__rc2>
    141c: a6 70        	ldx	$70                     ; 0x70 <midiChip>
    141e: a0 a1        	ldy	#$a1
    1420: 84 12        	sty	$12                     ; 0x12 <__rc2>
    1422: a0 dd        	ldy	#$dd
    1424: 84 13        	sty	$13                     ; 0x13 <__rc3>
    1426: 8a           	txa
    1427: f0 08        	beq	$1431 <main+0xe0e>
    1429: a2 b1        	ldx	#$b1
    142b: 86 12        	stx	$12                     ; 0x12 <__rc2>
    142d: a2 dd        	ldx	#$dd
    142f: 86 13        	stx	$13                     ; 0x13 <__rc3>
    1431: a5 14        	lda	$14                     ; 0x14 <__rc4>
    1433: 92 12        	sta	($12)                   ; 0x12 <__rc2>
    1435: a6 70        	ldx	$70                     ; 0x70 <midiChip>
    1437: a0 a1        	ldy	#$a1
    1439: 84 12        	sty	$12                     ; 0x12 <__rc2>
    143b: a0 dd        	ldy	#$dd
    143d: 84 13        	sty	$13                     ; 0x13 <__rc3>
    143f: 8a           	txa
    1440: f0 08        	beq	$144a <main+0xe27>
    1442: a2 b1        	ldx	#$b1
    1444: 86 12        	stx	$12                     ; 0x12 <__rc2>
    1446: a2 dd        	ldx	#$dd
    1448: 86 13        	stx	$13                     ; 0x13 <__rc3>
    144a: a9 5d        	lda	#$5d
    144c: 92 12        	sta	($12)                   ; 0x12 <__rc2>
    144e: a6 70        	ldx	$70                     ; 0x70 <midiChip>
    1450: a0 a1        	ldy	#$a1
    1452: 84 12        	sty	$12                     ; 0x12 <__rc2>
    1454: a0 dd        	ldy	#$dd
    1456: 84 13        	sty	$13                     ; 0x13 <__rc3>
    1458: 8a           	txa
    1459: f0 08        	beq	$1463 <main+0xe40>
    145b: a2 b1        	ldx	#$b1
    145d: 86 12        	stx	$12                     ; 0x12 <__rc2>
    145f: a2 dd        	ldx	#$dd
    1461: 86 13        	stx	$13                     ; 0x13 <__rc3>
    1463: a9 00        	lda	#$0
    1465: 92 12        	sta	($12)                   ; 0x12 <__rc2>
    1467: a5 14        	lda	$14                     ; 0x14 <__rc4>
    1469: 1a           	inc
    146a: c9 c0        	cmp	#$c0
    146c: f0 03        	beq	$1471 <main+0xe4e>
    146e: 4c d0 13     	jmp	$13d0 <main+0xdad>
    1471: a6 76        	ldx	$76                     ; 0x76 <kernelEventData+0x4>
    1473: e0 2c        	cpx	#$2c
    1475: f0 03        	beq	$147a <main+0xe57>
    1477: 4c cf 14     	jmp	$14cf <main+0xeac>
    147a: a9 b0        	lda	#$b0
    147c: a6 70        	ldx	$70                     ; 0x70 <midiChip>
    147e: a0 a1        	ldy	#$a1
    1480: 84 12        	sty	$12                     ; 0x12 <__rc2>
    1482: a0 dd        	ldy	#$dd
    1484: 84 13        	sty	$13                     ; 0x13 <__rc3>
    1486: e0 00        	cpx	#$0
    1488: f0 08        	beq	$1492 <main+0xe6f>
    148a: a2 b1        	ldx	#$b1
    148c: 86 12        	stx	$12                     ; 0x12 <__rc2>
    148e: a2 dd        	ldx	#$dd
    1490: 86 13        	stx	$13                     ; 0x13 <__rc3>
    1492: 85 14        	sta	$14                     ; 0x14 <__rc4>
    1494: 92 12        	sta	($12)                   ; 0x12 <__rc2>
    1496: a6 70        	ldx	$70                     ; 0x70 <midiChip>
    1498: a0 a1        	ldy	#$a1
    149a: 84 12        	sty	$12                     ; 0x12 <__rc2>
    149c: a0 dd        	ldy	#$dd
    149e: 84 13        	sty	$13                     ; 0x13 <__rc3>
    14a0: 8a           	txa
    14a1: f0 08        	beq	$14ab <main+0xe88>
    14a3: a2 b1        	ldx	#$b1
    14a5: 86 12        	stx	$12                     ; 0x12 <__rc2>
    14a7: a2 dd        	ldx	#$dd
    14a9: 86 13        	stx	$13                     ; 0x13 <__rc3>
    14ab: a9 07        	lda	#$7
    14ad: 92 12        	sta	($12)                   ; 0x12 <__rc2>
    14af: a6 70        	ldx	$70                     ; 0x70 <midiChip>
    14b1: a0 a1        	ldy	#$a1
    14b3: 84 12        	sty	$12                     ; 0x12 <__rc2>
    14b5: a0 dd        	ldy	#$dd
    14b7: 84 13        	sty	$13                     ; 0x13 <__rc3>
    14b9: 8a           	txa
    14ba: f0 08        	beq	$14c4 <main+0xea1>
    14bc: a2 b1        	ldx	#$b1
    14be: 86 12        	stx	$12                     ; 0x12 <__rc2>
    14c0: a2 dd        	ldx	#$dd
    14c2: 86 13        	stx	$13                     ; 0x13 <__rc3>
    14c4: a9 7f        	lda	#$7f
    14c6: 92 12        	sta	($12)                   ; 0x12 <__rc2>
    14c8: a5 14        	lda	$14                     ; 0x14 <__rc4>
    14ca: 1a           	inc
    14cb: c9 c0        	cmp	#$c0
    14cd: d0 ad        	bne	$147c <main+0xe59>
    14cf: a5 44        	lda	$44                     ; 0x44 <isPaused>
    14d1: 29 01        	and	#$1
    14d3: f0 03        	beq	$14d8 <main+0xeb5>
    14d5: 4c db 16     	jmp	$16db <main+0x10b8>
    14d8: ad 60 d6     	lda	$d660                   ; 0xd660 <end_block9+0x4dd6>
    14db: 29 10        	and	#$10
    14dd: d0 03        	bne	$14e2 <main+0xebf>
    14df: 4c 99 15     	jmp	$1599 <main+0xf76>
    14e2: a2 10        	ldx	#$10
    14e4: 8e 60 d6     	stx	$d660                   ; 0xd660 <end_block9+0x4dd6>
    14e7: a5 66        	lda	$66                     ; 0x66 <theOne.5>
    14e9: a6 67        	ldx	$67                     ; 0x67 <theOne.5+0x1>
    14eb: 86 15        	stx	$15                     ; 0x15 <__rc5>
    14ed: a6 68        	ldx	$68                     ; 0x68 <theOne.5+0x2>
    14ef: a4 69        	ldy	$69                     ; 0x69 <theOne.5+0x3>
    14f1: c0 01        	cpy	#$1
    14f3: d0 12        	bne	$1507 <main+0xee4>
    14f5: 84 14        	sty	$14                     ; 0x14 <__rc4>
    14f7: e0 00        	cpx	#$0
    14f9: d0 52        	bne	$154d <main+0xf2a>
    14fb: 86 12        	stx	$12                     ; 0x12 <__rc2>
    14fd: a6 15        	ldx	$15                     ; 0x15 <__rc5>
    14ff: d0 50        	bne	$1551 <main+0xf2e>
    1501: c9 00        	cmp	#$0
    1503: 90 0a        	bcc	$150f <main+0xeec>
    1505: 80 50        	bra	$1557 <main+0xf34>
    1507: 86 12        	stx	$12                     ; 0x12 <__rc2>
    1509: 84 14        	sty	$14                     ; 0x14 <__rc4>
    150b: c0 01        	cpy	#$1
    150d: b0 48        	bcs	$1557 <main+0xf34>
    150f: a4 12        	ldy	$12                     ; 0x12 <__rc2>
    1511: aa           	tax
    1512: a5 15        	lda	$15                     ; 0x15 <__rc5>
    1514: e6 14        	inc	$14                     ; 0x14 <__rc4>
    1516: c6 14        	dec	$14                     ; 0x14 <__rc4>
    1518: d0 0e        	bne	$1528 <main+0xf05>
    151a: c0 00        	cpy	#$0
    151c: d0 0a        	bne	$1528 <main+0xf05>
    151e: c9 00        	cmp	#$0
    1520: d0 06        	bne	$1528 <main+0xf05>
    1522: 8a           	txa
    1523: d0 03        	bne	$1528 <main+0xf05>
    1525: 4c 53 19     	jmp	$1953 <main+0x1330>
    1528: a9 02        	lda	#$2
    152a: 8d 50 d6     	sta	$d650                   ; 0xd650 <end_block9+0x4dc6>
    152d: 8e 55 d6     	stx	$d655                   ; 0xd655 <end_block9+0x4dcb>
    1530: a6 15        	ldx	$15                     ; 0x15 <__rc5>
    1532: 8e 56 d6     	stx	$d656                   ; 0xd656 <end_block9+0x4dcc>
    1535: 8c 57 d6     	sty	$d657                   ; 0xd657 <end_block9+0x4dcd>
    1538: 9c 54 d6     	stz	$d654                   ; 0xd654 <end_block9+0x4dca>
    153b: 8d 50 d6     	sta	$d650                   ; 0xd650 <end_block9+0x4dc6>
    153e: a2 89        	ldx	#$89
    1540: 8e 50 d6     	stx	$d650                   ; 0xd650 <end_block9+0x4dc6>
    1543: 64 66        	stz	$66                     ; 0x66 <theOne.5>
    1545: 64 67        	stz	$67                     ; 0x67 <theOne.5+0x1>
    1547: 64 68        	stz	$68                     ; 0x68 <theOne.5+0x2>
    1549: 64 69        	stz	$69                     ; 0x69 <theOne.5+0x3>
    154b: 80 4c        	bra	$1599 <main+0xf76>
    154d: 86 12        	stx	$12                     ; 0x12 <__rc2>
    154f: 80 02        	bra	$1553 <main+0xf30>
    1551: a6 15        	ldx	$15                     ; 0x15 <__rc5>
    1553: e0 00        	cpx	#$0
    1555: 90 b8        	bcc	$150f <main+0xeec>
    1557: 18           	clc
    1558: 69 01        	adc	#$1
    155a: aa           	tax
    155b: a5 15        	lda	$15                     ; 0x15 <__rc5>
    155d: 69 00        	adc	#$0
    155f: 85 15        	sta	$15                     ; 0x15 <__rc5>
    1561: a5 12        	lda	$12                     ; 0x12 <__rc2>
    1563: 69 00        	adc	#$0
    1565: a8           	tay
    1566: a5 14        	lda	$14                     ; 0x14 <__rc4>
    1568: 69 ff        	adc	#$ff
    156a: 85 12        	sta	$12                     ; 0x12 <__rc2>
    156c: 86 66        	stx	$66                     ; 0x66 <theOne.5>
    156e: 86 13        	stx	$13                     ; 0x13 <__rc3>
    1570: a5 15        	lda	$15                     ; 0x15 <__rc5>
    1572: 85 67        	sta	$67                     ; 0x67 <theOne.5+0x1>
    1574: 84 68        	sty	$68                     ; 0x68 <theOne.5+0x2>
    1576: a6 12        	ldx	$12                     ; 0x12 <__rc2>
    1578: 86 69        	stx	$69                     ; 0x69 <theOne.5+0x3>
    157a: a2 02        	ldx	#$2
    157c: 86 12        	stx	$12                     ; 0x12 <__rc2>
    157e: 8e 50 d6     	stx	$d650                   ; 0xd650 <end_block9+0x4dc6>
    1581: a6 13        	ldx	$13                     ; 0x13 <__rc3>
    1583: 8e 55 d6     	stx	$d655                   ; 0xd655 <end_block9+0x4dcb>
    1586: 8d 56 d6     	sta	$d656                   ; 0xd656 <end_block9+0x4dcc>
    1589: 8c 57 d6     	sty	$d657                   ; 0xd657 <end_block9+0x4dcd>
    158c: 9c 54 d6     	stz	$d654                   ; 0xd654 <end_block9+0x4dca>
    158f: a6 12        	ldx	$12                     ; 0x12 <__rc2>
    1591: 8e 50 d6     	stx	$d650                   ; 0xd650 <end_block9+0x4dc6>
    1594: a2 89        	ldx	#$89
    1596: 8e 50 d6     	stx	$d650                   ; 0xd650 <end_block9+0x4dc6>
    1599: a5 65        	lda	$65                     ; 0x65 <theOne.4>
    159b: 29 01        	and	#$1
    159d: f0 03        	beq	$15a2 <main+0xf7f>
    159f: 4c db 16     	jmp	$16db <main+0x10b8>
    15a2: a6 5f        	ldx	$5f                     ; 0x5f <theOne.0>
    15a4: a4 60        	ldy	$60                     ; 0x60 <theOne.0+0x1>
    15a6: d0 06        	bne	$15ae <main+0xf8b>
    15a8: 8a           	txa
    15a9: d0 03        	bne	$15ae <main+0xf8b>
    15ab: 4c 74 16     	jmp	$1674 <main+0x1051>
    15ae: 86 1a        	stx	$1a                     ; 0x1a <__rc10>
    15b0: 84 1b        	sty	$1b                     ; 0x1b <__rc11>
    15b2: a5 6e        	lda	$6e                     ; 0x6e <theOne.8>
    15b4: a6 6f        	ldx	$6f                     ; 0x6f <theOne.8+0x1>
    15b6: 86 12        	stx	$12                     ; 0x12 <__rc2>
    15b8: 18           	clc
    15b9: 69 0c        	adc	#$c
    15bb: aa           	tax
    15bc: a5 12        	lda	$12                     ; 0x12 <__rc2>
    15be: 69 00        	adc	#$0
    15c0: 86 12        	stx	$12                     ; 0x12 <__rc2>
    15c2: 85 13        	sta	$13                     ; 0x13 <__rc3>
    15c4: a9 ff        	lda	#$ff
    15c6: a2 00        	ldx	#$0
    15c8: 85 14        	sta	$14                     ; 0x14 <__rc4>
    15ca: 85 15        	sta	$15                     ; 0x15 <__rc5>
    15cc: 85 16        	sta	$16                     ; 0x16 <__rc6>
    15ce: 85 17        	sta	$17                     ; 0x17 <__rc7>
    15d0: 8a           	txa
    15d1: 85 18        	sta	$18                     ; 0x18 <__rc8>
    15d3: a0 0c        	ldy	#$c
    15d5: b1 12        	lda	($12),y                 ; 0x12 <__rc2>
    15d7: f0 05        	beq	$15de <main+0xfbb>
    15d9: a5 18        	lda	$18                     ; 0x18 <__rc8>
    15db: 4c 3a 16     	jmp	$163a <main+0x1017>
    15de: b2 12        	lda	($12)                   ; 0x12 <__rc2>
    15e0: 85 1e        	sta	$1e                     ; 0x1e <__rc14>
    15e2: a0 01        	ldy	#$1
    15e4: b1 12        	lda	($12),y                 ; 0x12 <__rc2>
    15e6: 85 1c        	sta	$1c                     ; 0x1c <__rc12>
    15e8: c8           	iny
    15e9: b1 12        	lda	($12),y                 ; 0x12 <__rc2>
    15eb: 85 1d        	sta	$1d                     ; 0x1d <__rc13>
    15ed: c8           	iny
    15ee: b1 12        	lda	($12),y                 ; 0x12 <__rc2>
    15f0: c5 17        	cmp	$17                     ; 0x17 <__rc7>
    15f2: d0 1e        	bne	$1612 <main+0xfef>
    15f4: 85 19        	sta	$19                     ; 0x19 <__rc9>
    15f6: a5 18        	lda	$18                     ; 0x18 <__rc8>
    15f8: a4 1d        	ldy	$1d                     ; 0x1d <__rc13>
    15fa: c4 16        	cpy	$16                     ; 0x16 <__rc6>
    15fc: f0 03        	beq	$1601 <main+0xfde>
    15fe: 4c 65 16     	jmp	$1665 <main+0x1042>
    1601: a4 1c        	ldy	$1c                     ; 0x1c <__rc12>
    1603: c4 15        	cpy	$15                     ; 0x15 <__rc5>
    1605: f0 03        	beq	$160a <main+0xfe7>
    1607: 4c 6d 16     	jmp	$166d <main+0x104a>
    160a: a4 1e        	ldy	$1e                     ; 0x1e <__rc14>
    160c: c4 14        	cpy	$14                     ; 0x14 <__rc4>
    160e: 90 0a        	bcc	$161a <main+0xff7>
    1610: 80 28        	bra	$163a <main+0x1017>
    1612: 85 19        	sta	$19                     ; 0x19 <__rc9>
    1614: c5 17        	cmp	$17                     ; 0x17 <__rc7>
    1616: a5 18        	lda	$18                     ; 0x18 <__rc8>
    1618: b0 20        	bcs	$163a <main+0x1017>
    161a: a4 1e        	ldy	$1e                     ; 0x1e <__rc14>
    161c: 84 66        	sty	$66                     ; 0x66 <theOne.5>
    161e: 84 14        	sty	$14                     ; 0x14 <__rc4>
    1620: a4 1c        	ldy	$1c                     ; 0x1c <__rc12>
    1622: 84 67        	sty	$67                     ; 0x67 <theOne.5+0x1>
    1624: 84 15        	sty	$15                     ; 0x15 <__rc5>
    1626: a4 1d        	ldy	$1d                     ; 0x1d <__rc13>
    1628: 84 68        	sty	$68                     ; 0x68 <theOne.5+0x2>
    162a: 84 16        	sty	$16                     ; 0x16 <__rc6>
    162c: a4 19        	ldy	$19                     ; 0x19 <__rc9>
    162e: 84 69        	sty	$69                     ; 0x69 <theOne.5+0x3>
    1630: 84 17        	sty	$17                     ; 0x17 <__rc7>
    1632: a0 01        	ldy	#$1
    1634: 84 65        	sty	$65                     ; 0x65 <theOne.4>
    1636: 85 6a        	sta	$6a                     ; 0x6a <theOne.6>
    1638: 86 6b        	stx	$6b                     ; 0x6b <theOne.6+0x1>
    163a: a8           	tay
    163b: c8           	iny
    163c: d0 01        	bne	$163f <main+0x101c>
    163e: e8           	inx
    163f: 84 18        	sty	$18                     ; 0x18 <__rc8>
    1641: 86 19        	stx	$19                     ; 0x19 <__rc9>
    1643: a5 12        	lda	$12                     ; 0x12 <__rc2>
    1645: 18           	clc
    1646: 69 19        	adc	#$19
    1648: 85 12        	sta	$12                     ; 0x12 <__rc2>
    164a: a5 13        	lda	$13                     ; 0x13 <__rc3>
    164c: 69 00        	adc	#$0
    164e: 85 13        	sta	$13                     ; 0x13 <__rc3>
    1650: 98           	tya
    1651: a4 1b        	ldy	$1b                     ; 0x1b <__rc11>
    1653: c4 19        	cpy	$19                     ; 0x19 <__rc9>
    1655: f0 03        	beq	$165a <main+0x1037>
    1657: 4c d1 15     	jmp	$15d1 <main+0xfae>
    165a: a5 18        	lda	$18                     ; 0x18 <__rc8>
    165c: a4 1a        	ldy	$1a                     ; 0x1a <__rc10>
    165e: c4 18        	cpy	$18                     ; 0x18 <__rc8>
    1660: f0 12        	beq	$1674 <main+0x1051>
    1662: 4c d1 15     	jmp	$15d1 <main+0xfae>
    1665: a4 1d        	ldy	$1d                     ; 0x1d <__rc13>
    1667: c4 16        	cpy	$16                     ; 0x16 <__rc6>
    1669: 90 af        	bcc	$161a <main+0xff7>
    166b: 80 cd        	bra	$163a <main+0x1017>
    166d: c4 15        	cpy	$15                     ; 0x15 <__rc5>
    166f: b0 c9        	bcs	$163a <main+0x1017>
    1671: 4c 1a 16     	jmp	$161a <main+0xff7>
    1674: a6 66        	ldx	$66                     ; 0x66 <theOne.5>
    1676: 86 12        	stx	$12                     ; 0x12 <__rc2>
    1678: a5 67        	lda	$67                     ; 0x67 <theOne.5+0x1>
    167a: a4 68        	ldy	$68                     ; 0x68 <theOne.5+0x2>
    167c: a6 69        	ldx	$69                     ; 0x69 <theOne.5+0x3>
    167e: d0 11        	bne	$1691 <main+0x106e>
    1680: c0 00        	cpy	#$0
    1682: d0 0d        	bne	$1691 <main+0x106e>
    1684: c9 00        	cmp	#$0
    1686: d0 09        	bne	$1691 <main+0x106e>
    1688: e6 12        	inc	$12                     ; 0x12 <__rc2>
    168a: c6 12        	dec	$12                     ; 0x12 <__rc2>
    168c: d0 03        	bne	$1691 <main+0x106e>
    168e: 4c 9b 17     	jmp	$179b <main+0x1178>
    1691: 86 17        	stx	$17                     ; 0x17 <__rc7>
    1693: 84 16        	sty	$16                     ; 0x16 <__rc6>
    1695: a6 12        	ldx	$12                     ; 0x12 <__rc2>
    1697: 86 14        	stx	$14                     ; 0x14 <__rc4>
    1699: 85 15        	sta	$15                     ; 0x15 <__rc5>
    169b: a5 61        	lda	$61                     ; 0x61 <theOne.2>
    169d: a6 62        	ldx	$62                     ; 0x62 <theOne.2+0x1>
    169f: a4 63        	ldy	$63                     ; 0x63 <theOne.2+0x2>
    16a1: 84 12        	sty	$12                     ; 0x12 <__rc2>
    16a3: a4 64        	ldy	$64                     ; 0x64 <theOne.2+0x3>
    16a5: 84 13        	sty	$13                     ; 0x13 <__rc3>
    16a7: 20 5a 7b     	jsr	$7b5a <__mulsi3>
    16aa: a4 12        	ldy	$12                     ; 0x12 <__rc2>
    16ac: 85 12        	sta	$12                     ; 0x12 <__rc2>
    16ae: 85 66        	sta	$66                     ; 0x66 <theOne.5>
    16b0: 86 15        	stx	$15                     ; 0x15 <__rc5>
    16b2: 86 67        	stx	$67                     ; 0x67 <theOne.5+0x1>
    16b4: 84 14        	sty	$14                     ; 0x14 <__rc4>
    16b6: 84 68        	sty	$68                     ; 0x68 <theOne.5+0x2>
    16b8: a6 13        	ldx	$13                     ; 0x13 <__rc3>
    16ba: 86 69        	stx	$69                     ; 0x69 <theOne.5+0x3>
    16bc: a9 02        	lda	#$2
    16be: 8d 50 d6     	sta	$d650                   ; 0xd650 <end_block9+0x4dc6>
    16c1: a4 12        	ldy	$12                     ; 0x12 <__rc2>
    16c3: 8c 55 d6     	sty	$d655                   ; 0xd655 <end_block9+0x4dcb>
    16c6: a6 15        	ldx	$15                     ; 0x15 <__rc5>
    16c8: 8e 56 d6     	stx	$d656                   ; 0xd656 <end_block9+0x4dcc>
    16cb: a6 14        	ldx	$14                     ; 0x14 <__rc4>
    16cd: 8e 57 d6     	stx	$d657                   ; 0xd657 <end_block9+0x4dcd>
    16d0: 9c 54 d6     	stz	$d654                   ; 0xd654 <end_block9+0x4dca>
    16d3: 8d 50 d6     	sta	$d650                   ; 0xd650 <end_block9+0x4dc6>
    16d6: a2 89        	ldx	#$89
    16d8: 8e 50 d6     	stx	$d650                   ; 0xd650 <end_block9+0x4dc6>
    16db: a6 6d        	ldx	$6d                     ; 0x6d <theOne.7+0x1>
    16dd: e4 60        	cpx	$60                     ; 0x60 <theOne.0+0x1>
    16df: d0 0d        	bne	$16ee <main+0x10cb>
    16e1: a6 6c        	ldx	$6c                     ; 0x6c <theOne.7>
    16e3: a4 5f        	ldy	$5f                     ; 0x5f <theOne.0>
    16e5: 84 12        	sty	$12                     ; 0x12 <__rc2>
    16e7: e4 12        	cpx	$12                     ; 0x12 <__rc2>
    16e9: b0 0a        	bcs	$16f5 <main+0x10d2>
    16eb: 4c cf 0f     	jmp	$fcf <main+0x9ac>
    16ee: e4 60        	cpx	$60                     ; 0x60 <theOne.0+0x1>
    16f0: b0 03        	bcs	$16f5 <main+0x10d2>
    16f2: 4c cf 0f     	jmp	$fcf <main+0x9ac>
    16f5: a5 46        	lda	$46                     ; 0x46 <repeatFlag>
    16f7: 29 01        	and	#$1
    16f9: d0 03        	bne	$16fe <main+0x10db>
    16fb: 4c f2 18     	jmp	$18f2 <main+0x12cf>
    16fe: a2 b0        	ldx	#$b0
    1700: a0 7b        	ldy	#$7b
    1702: 8e b1 dd     	stx	$ddb1                   ; 0xddb1 <end_block9+0x5527>
    1705: 8c b1 dd     	sty	$ddb1                   ; 0xddb1 <end_block9+0x5527>
    1708: 9c b1 dd     	stz	$ddb1                   ; 0xddb1 <end_block9+0x5527>
    170b: e8           	inx
    170c: e0 c0        	cpx	#$c0
    170e: d0 f2        	bne	$1702 <main+0x10df>
    1710: a2 b0        	ldx	#$b0
    1712: 8e a1 dd     	stx	$dda1                   ; 0xdda1 <end_block9+0x5517>
    1715: 8c a1 dd     	sty	$dda1                   ; 0xdda1 <end_block9+0x5517>
    1718: 9c a1 dd     	stz	$dda1                   ; 0xdda1 <end_block9+0x5517>
    171b: e8           	inx
    171c: e0 c0        	cpx	#$c0
    171e: d0 f2        	bne	$1712 <main+0x10ef>
    1720: a6 6e        	ldx	$6e                     ; 0x6e <theOne.8>
    1722: a4 6f        	ldy	$6f                     ; 0x6f <theOne.8+0x1>
    1724: 86 12        	stx	$12                     ; 0x12 <__rc2>
    1726: 84 13        	sty	$13                     ; 0x13 <__rc3>
    1728: 20 39 77     	jsr	$7739 <free>
    172b: a2 00        	ldx	#$0
    172d: 86 12        	stx	$12                     ; 0x12 <__rc2>
    172f: a2 00        	ldx	#$0
    1731: 86 13        	stx	$13                     ; 0x13 <__rc3>
    1733: a6 12        	ldx	$12                     ; 0x12 <__rc2>
    1735: a4 13        	ldy	$13                     ; 0x13 <__rc3>
    1737: 86 6e        	stx	$6e                     ; 0x6e <theOne.8>
    1739: 84 6f        	sty	$6f                     ; 0x6f <theOne.8+0x1>
    173b: 20 e9 19     	jsr	$19e9 <zeroOutStuff>
    173e: 20 f0 49     	jsr	$49f0 <detectStructure>
    1741: 20 97 5e     	jsr	$5e97 <initTrack>
    1744: a2 10        	ldx	#$10
    1746: 86 30        	stx	$30                     ; 0x30 <_ccolor>
    1748: a2 03        	ldx	#$3
    174a: 86 40        	stx	$40                     ; 0x40 <_col>
    174c: 8e 14 d0     	stx	$d014                   ; 0xd014 <end_block9+0x478a>
    174f: 9c 15 d0     	stz	$d015                   ; 0xd015 <end_block9+0x478b>
    1752: a2 1a        	ldx	#$1a
    1754: 86 41        	stx	$41                     ; 0x41 <_row>
    1756: 8e 16 d0     	stx	$d016                   ; 0xd016 <end_block9+0x478c>
    1759: 9c 17 d0     	stz	$d017                   ; 0xd017 <end_block9+0x478d>
    175c: a2 f9        	ldx	#$f9
    175e: 86 12        	stx	$12                     ; 0x12 <__rc2>
    1760: a2 80        	ldx	#$80
    1762: 86 13        	stx	$13                     ; 0x13 <__rc3>
    1764: 20 97 1b     	jsr	$1b97 <textPrint>
    1767: a2 80        	ldx	#$80
    1769: 86 f3        	stx	$f3                     ; 0xf3 <__data_size+0xa9>
    176b: a2 71        	ldx	#$71
    176d: 86 12        	stx	$12                     ; 0x12 <__rc2>
    176f: a2 00        	ldx	#$0
    1771: 86 13        	stx	$13                     ; 0x13 <__rc3>
    1773: 20 f0 ff     	jsr	$fff0 <end_block9+0x7766>
    1776: 92 24        	sta	($24)                   ; 0x24 <__rc20>
    1778: a9 00        	lda	#$0
    177a: 6a           	ror
    177b: 85 12        	sta	$12                     ; 0x12 <__rc2>
    177d: a9 03        	lda	#$3
    177f: 18           	clc
    1780: 72 24        	adc	($24)                   ; 0x24 <__rc20>
    1782: 85 47        	sta	$47                     ; 0x47 <shimmerTimer.1>
    1784: 64 f3        	stz	$f3                     ; 0xf3 <__data_size+0xa9>
    1786: a6 47        	ldx	$47                     ; 0x47 <shimmerTimer.1>
    1788: 86 f4        	stx	$f4                     ; 0xf4 <__data_size+0xaa>
    178a: a2 02        	ldx	#$2
    178c: 86 f5        	stx	$f5                     ; 0xf5 <__data_size+0xab>
    178e: 20 f0 ff     	jsr	$fff0 <end_block9+0x7766>
    1791: 92 24        	sta	($24)                   ; 0x24 <__rc20>
    1793: a9 00        	lda	#$0
    1795: 6a           	ror
    1796: 85 12        	sta	$12                     ; 0x12 <__rc2>
    1798: 4c cf 0f     	jmp	$fcf <main+0x9ac>
    179b: 64 12        	stz	$12                     ; 0x12 <__rc2>
    179d: 64 15        	stz	$15                     ; 0x15 <__rc5>
    179f: 64 14        	stz	$14                     ; 0x14 <__rc4>
    17a1: 4c bc 16     	jmp	$16bc <main+0x1099>
    17a4: 84 26        	sty	$26                     ; 0x26 <__rc22>
    17a6: 85 2e        	sta	$2e                     ; 0x2e <__rc30>
    17a8: 18           	clc
    17a9: 65 18        	adc	$18                     ; 0x18 <__rc8>
    17ab: 85 12        	sta	$12                     ; 0x12 <__rc2>
    17ad: a5 2c        	lda	$2c                     ; 0x2c <__rc28>
    17af: 65 27        	adc	$27                     ; 0x27 <__rc23>
    17b1: 85 13        	sta	$13                     ; 0x13 <__rc3>
    17b3: a0 0c        	ldy	#$c
    17b5: b1 12        	lda	($12),y                 ; 0x12 <__rc2>
    17b7: f0 28        	beq	$17e1 <main+0x11be>
    17b9: a5 2e        	lda	$2e                     ; 0x2e <__rc30>
    17bb: a4 26        	ldy	$26                     ; 0x26 <__rc22>
    17bd: 84 14        	sty	$14                     ; 0x14 <__rc4>
    17bf: a4 14        	ldy	$14                     ; 0x14 <__rc4>
    17c1: c8           	iny
    17c2: d0 01        	bne	$17c5 <main+0x11a2>
    17c4: e8           	inx
    17c5: 18           	clc
    17c6: 69 19        	adc	#$19
    17c8: 85 12        	sta	$12                     ; 0x12 <__rc2>
    17ca: a5 2c        	lda	$2c                     ; 0x2c <__rc28>
    17cc: 69 00        	adc	#$0
    17ce: 85 2c        	sta	$2c                     ; 0x2c <__rc28>
    17d0: e4 2d        	cpx	$2d                     ; 0x2d <__rc29>
    17d2: d0 04        	bne	$17d8 <main+0x11b5>
    17d4: c4 15        	cpy	$15                     ; 0x15 <__rc5>
    17d6: 80 02        	bra	$17da <main+0x11b7>
    17d8: e4 2d        	cpx	$2d                     ; 0x2d <__rc29>
    17da: a5 12        	lda	$12                     ; 0x12 <__rc2>
    17dc: 90 c6        	bcc	$17a4 <main+0x1181>
    17de: 4c 7d 19     	jmp	$197d <main+0x135a>
    17e1: 8a           	txa
    17e2: a6 6a        	ldx	$6a                     ; 0x6a <theOne.6>
    17e4: 86 14        	stx	$14                     ; 0x14 <__rc4>
    17e6: a6 6b        	ldx	$6b                     ; 0x6b <theOne.6+0x1>
    17e8: a0 0e        	ldy	#$e
    17ea: 91 10        	sta	($10),y                 ; 0x10 <__zp_data_size>
    17ec: c5 6b        	cmp	$6b                     ; 0x6b <theOne.6+0x1>
    17ee: d0 15        	bne	$1805 <main+0x11e2>
    17f0: a4 26        	ldy	$26                     ; 0x26 <__rc22>
    17f2: 64 13        	stz	$13                     ; 0x13 <__rc3>
    17f4: c4 14        	cpy	$14                     ; 0x14 <__rc4>
    17f6: d0 0f        	bne	$1807 <main+0x11e4>
    17f8: a5 2e        	lda	$2e                     ; 0x2e <__rc30>
    17fa: 48           	pha
    17fb: 5a           	phy
    17fc: a0 0e        	ldy	#$e
    17fe: b1 10        	lda	($10),y                 ; 0x10 <__zp_data_size>
    1800: 7a           	ply
    1801: aa           	tax
    1802: 68           	pla
    1803: 80 b8        	bra	$17bd <main+0x119a>
    1805: 64 13        	stz	$13                     ; 0x13 <__rc3>
    1807: a5 15        	lda	$15                     ; 0x15 <__rc5>
    1809: a0 0d        	ldy	#$d
    180b: 91 10        	sta	($10),y                 ; 0x10 <__zp_data_size>
    180d: a5 18        	lda	$18                     ; 0x18 <__rc8>
    180f: a0 0b        	ldy	#$b
    1811: 91 10        	sta	($10),y                 ; 0x10 <__zp_data_size>
    1813: a5 19        	lda	$19                     ; 0x19 <__rc9>
    1815: c8           	iny
    1816: 91 10        	sta	($10),y                 ; 0x10 <__zp_data_size>
    1818: a0 19        	ldy	#$19
    181a: 84 12        	sty	$12                     ; 0x12 <__rc2>
    181c: a5 14        	lda	$14                     ; 0x14 <__rc4>
    181e: 20 28 7b     	jsr	$7b28 <__mulhi3>
    1821: 85 12        	sta	$12                     ; 0x12 <__rc2>
    1823: 86 13        	stx	$13                     ; 0x13 <__rc3>
    1825: a0 0b        	ldy	#$b
    1827: b1 10        	lda	($10),y                 ; 0x10 <__zp_data_size>
    1829: 85 18        	sta	$18                     ; 0x18 <__rc8>
    182b: c8           	iny
    182c: b1 10        	lda	($10),y                 ; 0x10 <__zp_data_size>
    182e: a5 18        	lda	$18                     ; 0x18 <__rc8>
    1830: a2 00        	ldx	#$0
    1832: 86 14        	stx	$14                     ; 0x14 <__rc4>
    1834: 18           	clc
    1835: 65 12        	adc	$12                     ; 0x12 <__rc2>
    1837: aa           	tax
    1838: a4 14        	ldy	$14                     ; 0x14 <__rc4>
    183a: 84 1c        	sty	$1c                     ; 0x1c <__rc12>
    183c: a5 27        	lda	$27                     ; 0x27 <__rc23>
    183e: 65 13        	adc	$13                     ; 0x13 <__rc3>
    1840: 86 12        	stx	$12                     ; 0x12 <__rc2>
    1842: 85 13        	sta	$13                     ; 0x13 <__rc3>
    1844: a8           	tay
    1845: 18           	clc
    1846: 8a           	txa
    1847: 69 0c        	adc	#$c
    1849: 85 16        	sta	$16                     ; 0x16 <__rc6>
    184b: 98           	tya
    184c: 69 00        	adc	#$0
    184e: 85 17        	sta	$17                     ; 0x17 <__rc7>
    1850: a0 0c        	ldy	#$c
    1852: b1 12        	lda	($12),y                 ; 0x12 <__rc2>
    1854: 85 12        	sta	$12                     ; 0x12 <__rc2>
    1856: a0 01        	ldy	#$1
    1858: b1 16        	lda	($16),y                 ; 0x16 <__rc6>
    185a: 84 19        	sty	$19                     ; 0x19 <__rc9>
    185c: 85 13        	sta	$13                     ; 0x13 <__rc3>
    185e: c8           	iny
    185f: b1 16        	lda	($16),y                 ; 0x16 <__rc6>
    1861: 84 1a        	sty	$1a                     ; 0x1a <__rc10>
    1863: 85 14        	sta	$14                     ; 0x14 <__rc4>
    1865: c8           	iny
    1866: b1 16        	lda	($16),y                 ; 0x16 <__rc6>
    1868: 84 1b        	sty	$1b                     ; 0x1b <__rc11>
    186a: 85 15        	sta	$15                     ; 0x15 <__rc5>
    186c: a5 2e        	lda	$2e                     ; 0x2e <__rc30>
    186e: a6 1c        	ldx	$1c                     ; 0x1c <__rc12>
    1870: e0 01        	cpx	#$1
    1872: 65 18        	adc	$18                     ; 0x18 <__rc8>
    1874: 85 16        	sta	$16                     ; 0x16 <__rc6>
    1876: a5 2c        	lda	$2c                     ; 0x2c <__rc28>
    1878: 65 27        	adc	$27                     ; 0x27 <__rc23>
    187a: 85 17        	sta	$17                     ; 0x17 <__rc7>
    187c: b2 16        	lda	($16)                   ; 0x16 <__rc6>
    187e: 85 1c        	sta	$1c                     ; 0x1c <__rc12>
    1880: a4 19        	ldy	$19                     ; 0x19 <__rc9>
    1882: b1 16        	lda	($16),y                 ; 0x16 <__rc6>
    1884: 85 1f        	sta	$1f                     ; 0x1f <__rc15>
    1886: a6 19        	ldx	$19                     ; 0x19 <__rc9>
    1888: 86 22        	stx	$22                     ; 0x22 <__rc18>
    188a: a4 1a        	ldy	$1a                     ; 0x1a <__rc10>
    188c: b1 16        	lda	($16),y                 ; 0x16 <__rc6>
    188e: aa           	tax
    188f: a5 1c        	lda	$1c                     ; 0x1c <__rc12>
    1891: a0 0a        	ldy	#$a
    1893: 91 10        	sta	($10),y                 ; 0x10 <__zp_data_size>
    1895: 38           	sec
    1896: e5 12        	sbc	$12                     ; 0x12 <__rc2>
    1898: 85 1e        	sta	$1e                     ; 0x1e <__rc14>
    189a: a5 1f        	lda	$1f                     ; 0x1f <__rc15>
    189c: 85 1c        	sta	$1c                     ; 0x1c <__rc12>
    189e: e5 13        	sbc	$13                     ; 0x13 <__rc3>
    18a0: 85 1f        	sta	$1f                     ; 0x1f <__rc15>
    18a2: 8a           	txa
    18a3: 86 1d        	stx	$1d                     ; 0x1d <__rc13>
    18a5: e5 14        	sbc	$14                     ; 0x14 <__rc4>
    18a7: 85 23        	sta	$23                     ; 0x23 <__rc19>
    18a9: a4 1b        	ldy	$1b                     ; 0x1b <__rc11>
    18ab: b1 16        	lda	($16),y                 ; 0x16 <__rc6>
    18ad: aa           	tax
    18ae: e5 15        	sbc	$15                     ; 0x15 <__rc5>
    18b0: 85 19        	sta	$19                     ; 0x19 <__rc9>
    18b2: a5 1e        	lda	$1e                     ; 0x1e <__rc14>
    18b4: 92 16        	sta	($16)                   ; 0x16 <__rc6>
    18b6: a4 22        	ldy	$22                     ; 0x22 <__rc18>
    18b8: a5 1f        	lda	$1f                     ; 0x1f <__rc15>
    18ba: 91 16        	sta	($16),y                 ; 0x16 <__rc6>
    18bc: a4 1a        	ldy	$1a                     ; 0x1a <__rc10>
    18be: a5 23        	lda	$23                     ; 0x23 <__rc19>
    18c0: 91 16        	sta	($16),y                 ; 0x16 <__rc6>
    18c2: a4 1b        	ldy	$1b                     ; 0x1b <__rc11>
    18c4: a5 19        	lda	$19                     ; 0x19 <__rc9>
    18c6: 91 16        	sta	($16),y                 ; 0x16 <__rc6>
    18c8: e4 15        	cpx	$15                     ; 0x15 <__rc5>
    18ca: d0 11        	bne	$18dd <main+0x12ba>
    18cc: a0 0e        	ldy	#$e
    18ce: b1 10        	lda	($10),y                 ; 0x10 <__zp_data_size>
    18d0: aa           	tax
    18d1: a5 1d        	lda	$1d                     ; 0x1d <__rc13>
    18d3: c5 14        	cmp	$14                     ; 0x14 <__rc4>
    18d5: f0 03        	beq	$18da <main+0x12b7>
    18d7: 4c b1 19     	jmp	$19b1 <main+0x138e>
    18da: 4c 8c 19     	jmp	$198c <main+0x1369>
    18dd: a5 2e        	lda	$2e                     ; 0x2e <__rc30>
    18df: a6 26        	ldx	$26                     ; 0x26 <__rc22>
    18e1: 86 14        	stx	$14                     ; 0x14 <__rc4>
    18e3: 48           	pha
    18e4: a0 0e        	ldy	#$e
    18e6: b1 10        	lda	($10),y                 ; 0x10 <__zp_data_size>
    18e8: aa           	tax
    18e9: 88           	dey
    18ea: b1 10        	lda	($10),y                 ; 0x10 <__zp_data_size>
    18ec: 85 15        	sta	$15                     ; 0x15 <__rc5>
    18ee: 68           	pla
    18ef: 4c bf 17     	jmp	$17bf <main+0x119c>
    18f2: a2 01        	ldx	#$1
    18f4: 86 44        	stx	$44                     ; 0x44 <isPaused>
    18f6: 80 2d        	bra	$1925 <main+0x1302>
    18f8: a6 70        	ldx	$70                     ; 0x70 <midiChip>
    18fa: a0 a1        	ldy	#$a1
    18fc: 84 12        	sty	$12                     ; 0x12 <__rc2>
    18fe: a0 dd        	ldy	#$dd
    1900: 84 13        	sty	$13                     ; 0x13 <__rc3>
    1902: 8a           	txa
    1903: f0 08        	beq	$190d <main+0x12ea>
    1905: a2 b1        	ldx	#$b1
    1907: 86 12        	stx	$12                     ; 0x12 <__rc2>
    1909: a2 dd        	ldx	#$dd
    190b: 86 13        	stx	$13                     ; 0x13 <__rc3>
    190d: a9 b0        	lda	#$b0
    190f: a2 7b        	ldx	#$7b
    1911: 92 12        	sta	($12)                   ; 0x12 <__rc2>
    1913: a8           	tay
    1914: 8a           	txa
    1915: 92 12        	sta	($12)                   ; 0x12 <__rc2>
    1917: a9 00        	lda	#$0
    1919: 92 12        	sta	($12)                   ; 0x12 <__rc2>
    191b: c8           	iny
    191c: 98           	tya
    191d: c0 c0        	cpy	#$c0
    191f: d0 f0        	bne	$1911 <main+0x12ee>
    1921: a2 01        	ldx	#$1
    1923: 86 45        	stx	$45                     ; 0x45 <isTrulyDone>
    1925: a2 b0        	ldx	#$b0
    1927: a0 7b        	ldy	#$7b
    1929: 8e b1 dd     	stx	$ddb1                   ; 0xddb1 <end_block9+0x5527>
    192c: 8c b1 dd     	sty	$ddb1                   ; 0xddb1 <end_block9+0x5527>
    192f: 9c b1 dd     	stz	$ddb1                   ; 0xddb1 <end_block9+0x5527>
    1932: e8           	inx
    1933: e0 c0        	cpx	#$c0
    1935: d0 f2        	bne	$1929 <main+0x1306>
    1937: a2 b0        	ldx	#$b0
    1939: 8e a1 dd     	stx	$dda1                   ; 0xdda1 <end_block9+0x5517>
    193c: 8c a1 dd     	sty	$dda1                   ; 0xdda1 <end_block9+0x5517>
    193f: 9c a1 dd     	stz	$dda1                   ; 0xdda1 <end_block9+0x5517>
    1942: e8           	inx
    1943: e0 c0        	cpx	#$c0
    1945: d0 f2        	bne	$1939 <main+0x1316>
    1947: a5 45        	lda	$45                     ; 0x45 <isTrulyDone>
    1949: 29 01        	and	#$1
    194b: d0 03        	bne	$1950 <main+0x132d>
    194d: 4c ac 0f     	jmp	$fac <main+0x989>
    1950: 4c 44 0f     	jmp	$f44 <main+0x921>
    1953: a5 6a        	lda	$6a                     ; 0x6a <theOne.6>
    1955: 85 26        	sta	$26                     ; 0x26 <__rc22>
    1957: 20 af 5b     	jsr	$5baf <performMIDICmd>
    195a: a5 26        	lda	$26                     ; 0x26 <__rc22>
    195c: a6 5f        	ldx	$5f                     ; 0x5f <theOne.0>
    195e: a4 60        	ldy	$60                     ; 0x60 <theOne.0+0x1>
    1960: d0 04        	bne	$1966 <main+0x1343>
    1962: e0 00        	cpx	#$0
    1964: f0 19        	beq	$197f <main+0x135c>
    1966: a5 6e        	lda	$6e                     ; 0x6e <theOne.8>
    1968: 85 18        	sta	$18                     ; 0x18 <__rc8>
    196a: a5 6f        	lda	$6f                     ; 0x6f <theOne.8+0x1>
    196c: 85 27        	sta	$27                     ; 0x27 <__rc23>
    196e: a9 0c        	lda	#$c
    1970: 64 2c        	stz	$2c                     ; 0x2c <__rc28>
    1972: 86 15        	stx	$15                     ; 0x15 <__rc5>
    1974: 84 2d        	sty	$2d                     ; 0x2d <__rc29>
    1976: a0 00        	ldy	#$0
    1978: a2 00        	ldx	#$0
    197a: 4c a4 17     	jmp	$17a4 <main+0x1181>
    197d: a5 6a        	lda	$6a                     ; 0x6a <theOne.6>
    197f: 20 23 50     	jsr	$5023 <chainEvent>
    1982: a5 6a        	lda	$6a                     ; 0x6a <theOne.6>
    1984: 20 a1 5d     	jsr	$5da1 <exhaustZeroes>
    1987: 64 65        	stz	$65                     ; 0x65 <theOne.4>
    1989: 4c a2 15     	jmp	$15a2 <main+0xf7f>
    198c: a5 2e        	lda	$2e                     ; 0x2e <__rc30>
    198e: 48           	pha
    198f: a0 0d        	ldy	#$d
    1991: b1 10        	lda	($10),y                 ; 0x10 <__zp_data_size>
    1993: 85 15        	sta	$15                     ; 0x15 <__rc5>
    1995: 68           	pla
    1996: a4 1c        	ldy	$1c                     ; 0x1c <__rc12>
    1998: c4 13        	cpy	$13                     ; 0x13 <__rc3>
    199a: f0 03        	beq	$199f <main+0x137c>
    199c: 4c bb 17     	jmp	$17bb <main+0x1198>
    199f: a4 26        	ldy	$26                     ; 0x26 <__rc22>
    19a1: 84 14        	sty	$14                     ; 0x14 <__rc4>
    19a3: 48           	pha
    19a4: a0 0a        	ldy	#$a
    19a6: b1 10        	lda	($10),y                 ; 0x10 <__zp_data_size>
    19a8: a8           	tay
    19a9: 68           	pla
    19aa: c4 12        	cpy	$12                     ; 0x12 <__rc2>
    19ac: f0 17        	beq	$19c5 <main+0x13a2>
    19ae: 4c bf 17     	jmp	$17bf <main+0x119c>
    19b1: a5 2e        	lda	$2e                     ; 0x2e <__rc30>
    19b3: 48           	pha
    19b4: a0 0d        	ldy	#$d
    19b6: b1 10        	lda	($10),y                 ; 0x10 <__zp_data_size>
    19b8: 85 15        	sta	$15                     ; 0x15 <__rc5>
    19ba: 68           	pla
    19bb: 4c bb 17     	jmp	$17bb <main+0x1198>
    19be: a6 12        	ldx	$12                     ; 0x12 <__rc2>
    19c0: 86 18        	stx	$18                     ; 0x18 <__rc8>
    19c2: 4c 05 0c     	jmp	$c05 <main+0x5e2>
    19c5: a5 26        	lda	$26                     ; 0x26 <__rc22>
    19c7: 20 a1 5d     	jsr	$5da1 <exhaustZeroes>
    19ca: a6 6e        	ldx	$6e                     ; 0x6e <theOne.8>
    19cc: a4 6f        	ldy	$6f                     ; 0x6f <theOne.8+0x1>
    19ce: 86 18        	stx	$18                     ; 0x18 <__rc8>
    19d0: 84 27        	sty	$27                     ; 0x27 <__rc23>
    19d2: a6 5f        	ldx	$5f                     ; 0x5f <theOne.0>
    19d4: a4 60        	ldy	$60                     ; 0x60 <theOne.0+0x1>
    19d6: 86 15        	stx	$15                     ; 0x15 <__rc5>
    19d8: 84 2d        	sty	$2d                     ; 0x2d <__rc29>
    19da: a6 26        	ldx	$26                     ; 0x26 <__rc22>
    19dc: 86 14        	stx	$14                     ; 0x14 <__rc4>
    19de: a5 2e        	lda	$2e                     ; 0x2e <__rc30>
    19e0: 48           	pha
    19e1: a0 0e        	ldy	#$e
    19e3: b1 10        	lda	($10),y                 ; 0x10 <__zp_data_size>
    19e5: aa           	tax
    19e6: 4c ee 18     	jmp	$18ee <main+0x12cb>

000019e9 <zeroOutStuff>:
    19e9: a2 00        	ldx	#$0
    19eb: a9 0e        	lda	#$e
    19ed: 9d 4f 00     	sta	$4f,x                   ; 0x4f <shimmerBuffer>
    19f0: e8           	inx
    19f1: e0 10        	cpx	#$10
    19f3: d0 f8        	bne	$19ed <zeroOutStuff+0x4>
    19f5: a6 48        	ldx	$48                     ; 0x48 <myRecord.0>
    19f7: a4 49        	ldy	$49                     ; 0x49 <myRecord.0+0x1>
    19f9: a9 00        	lda	#$0
    19fb: 85 12        	sta	$12                     ; 0x12 <__rc2>
    19fd: a9 00        	lda	#$0
    19ff: 85 13        	sta	$13                     ; 0x13 <__rc3>
    1a01: c4 13        	cpy	$13                     ; 0x13 <__rc3>
    1a03: d0 04        	bne	$1a09 <zeroOutStuff+0x20>
    1a05: e4 12        	cpx	$12                     ; 0x12 <__rc2>
    1a07: f0 07        	beq	$1a10 <zeroOutStuff+0x27>
    1a09: 86 12        	stx	$12                     ; 0x12 <__rc2>
    1a0b: 84 13        	sty	$13                     ; 0x13 <__rc3>
    1a0d: 20 39 77     	jsr	$7739 <free>
    1a10: a9 40        	lda	#$40
    1a12: a2 00        	ldx	#$0
    1a14: 20 57 75     	jsr	$7557 <malloc>
    1a17: a6 12        	ldx	$12                     ; 0x12 <__rc2>
    1a19: a4 13        	ldy	$13                     ; 0x13 <__rc3>
    1a1b: 86 48        	stx	$48                     ; 0x48 <myRecord.0>
    1a1d: 84 49        	sty	$49                     ; 0x49 <myRecord.0+0x1>
    1a1f: 64 4a        	stz	$4a                     ; 0x4a <myRecord.1>
    1a21: 64 4b        	stz	$4b                     ; 0x4b <myRecord.1+0x1>
    1a23: 64 4c        	stz	$4c                     ; 0x4c <myRecord.2>
    1a25: 64 4d        	stz	$4d                     ; 0x4d <myRecord.2+0x1>
    1a27: a2 01        	ldx	#$1
    1a29: 86 4e        	stx	$4e                     ; 0x4e <myRecord.14>
    1a2b: 60           	rts

00001a2c <fileOpenDir>:
    1a2c: b2 12        	lda	($12)                   ; 0x12 <__rc2>
    1a2e: a0 00        	ldy	#$0
    1a30: aa           	tax
    1a31: d0 03        	bne	$1a36 <fileOpenDir+0xa>
    1a33: 4c 92 1a     	jmp	$1a92 <fileOpenDir+0x66>
    1a36: 85 16        	sta	$16                     ; 0x16 <__rc6>
    1a38: a2 00        	ldx	#$0
    1a3a: 86 14        	stx	$14                     ; 0x14 <__rc4>
    1a3c: 98           	tya
    1a3d: c8           	iny
    1a3e: d0 01        	bne	$1a41 <fileOpenDir+0x15>
    1a40: e8           	inx
    1a41: 18           	clc
    1a42: 65 12        	adc	$12                     ; 0x12 <__rc2>
    1a44: 85 18        	sta	$18                     ; 0x18 <__rc8>
    1a46: a5 14        	lda	$14                     ; 0x14 <__rc4>
    1a48: 65 13        	adc	$13                     ; 0x13 <__rc3>
    1a4a: 84 17        	sty	$17                     ; 0x17 <__rc7>
    1a4c: a4 18        	ldy	$18                     ; 0x18 <__rc8>
    1a4e: 84 14        	sty	$14                     ; 0x14 <__rc4>
    1a50: 85 15        	sta	$15                     ; 0x15 <__rc5>
    1a52: a0 01        	ldy	#$1
    1a54: b1 14        	lda	($14),y                 ; 0x14 <__rc4>
    1a56: a4 17        	ldy	$17                     ; 0x17 <__rc7>
    1a58: c9 00        	cmp	#$0
    1a5a: d0 de        	bne	$1a3a <fileOpenDir+0xe>
    1a5c: 8a           	txa
    1a5d: d0 06        	bne	$1a65 <fileOpenDir+0x39>
    1a5f: c0 02        	cpy	#$2
    1a61: b0 06        	bcs	$1a69 <fileOpenDir+0x3d>
    1a63: 80 2b        	bra	$1a90 <fileOpenDir+0x64>
    1a65: e0 00        	cpx	#$0
    1a67: 90 27        	bcc	$1a90 <fileOpenDir+0x64>
    1a69: a0 01        	ldy	#$1
    1a6b: b1 12        	lda	($12),y                 ; 0x12 <__rc2>
    1a6d: c9 3a        	cmp	#$3a
    1a6f: d0 1f        	bne	$1a90 <fileOpenDir+0x64>
    1a71: a5 16        	lda	$16                     ; 0x16 <__rc6>
    1a73: c9 30        	cmp	#$30
    1a75: a0 00        	ldy	#$0
    1a77: 90 08        	bcc	$1a81 <fileOpenDir+0x55>
    1a79: c9 38        	cmp	#$38
    1a7b: b0 04        	bcs	$1a81 <fileOpenDir+0x55>
    1a7d: 18           	clc
    1a7e: 69 d0        	adc	#$d0
    1a80: a8           	tay
    1a81: a5 12        	lda	$12                     ; 0x12 <__rc2>
    1a83: 18           	clc
    1a84: 69 02        	adc	#$2
    1a86: 85 12        	sta	$12                     ; 0x12 <__rc2>
    1a88: a5 13        	lda	$13                     ; 0x13 <__rc3>
    1a8a: 69 00        	adc	#$0
    1a8c: 85 13        	sta	$13                     ; 0x13 <__rc3>
    1a8e: 80 02        	bra	$1a92 <fileOpenDir+0x66>
    1a90: a0 00        	ldy	#$0
    1a92: a2 00        	ldx	#$0
    1a94: 86 14        	stx	$14                     ; 0x14 <__rc4>
    1a96: a2 00        	ldx	#$0
    1a98: 86 15        	stx	$15                     ; 0x15 <__rc5>
    1a9a: be 06 87     	ldx	$8706,y                 ; 0x8706 <_dirStream>
    1a9d: f0 03        	beq	$1aa2 <fileOpenDir+0x76>
    1a9f: 4c 04 1b     	jmp	$1b04 <fileOpenDir+0xd8>
    1aa2: 84 1a        	sty	$1a                     ; 0x1a <__rc10>
    1aa4: 84 f3        	sty	$f3                     ; 0xf3 <__data_size+0xa9>
    1aa6: a6 12        	ldx	$12                     ; 0x12 <__rc2>
    1aa8: a4 13        	ldy	$13                     ; 0x13 <__rc3>
    1aaa: 86 fb        	stx	$fb                     ; 0xfb <__data_size+0xb1>
    1aac: 84 fc        	sty	$fc                     ; 0xfc <__data_size+0xb2>
    1aae: b2 12        	lda	($12)                   ; 0x12 <__rc2>
    1ab0: f0 30        	beq	$1ae2 <fileOpenDir+0xb6>
    1ab2: 64 16        	stz	$16                     ; 0x16 <__rc6>
    1ab4: a0 01        	ldy	#$1
    1ab6: a9 00        	lda	#$0
    1ab8: aa           	tax
    1ab9: 5a           	phy
    1aba: a4 16        	ldy	$16                     ; 0x16 <__rc6>
    1abc: 84 17        	sty	$17                     ; 0x17 <__rc7>
    1abe: 7a           	ply
    1abf: e6 16        	inc	$16                     ; 0x16 <__rc6>
    1ac1: d0 01        	bne	$1ac4 <fileOpenDir+0x98>
    1ac3: e8           	inx
    1ac4: 18           	clc
    1ac5: 85 19        	sta	$19                     ; 0x19 <__rc9>
    1ac7: a5 17        	lda	$17                     ; 0x17 <__rc7>
    1ac9: 65 12        	adc	$12                     ; 0x12 <__rc2>
    1acb: 85 18        	sta	$18                     ; 0x18 <__rc8>
    1acd: a5 19        	lda	$19                     ; 0x19 <__rc9>
    1acf: 65 13        	adc	$13                     ; 0x13 <__rc3>
    1ad1: 85 19        	sta	$19                     ; 0x19 <__rc9>
    1ad3: b1 18        	lda	($18),y                 ; 0x18 <__rc8>
    1ad5: 85 17        	sta	$17                     ; 0x17 <__rc7>
    1ad7: 8a           	txa
    1ad8: e6 17        	inc	$17                     ; 0x17 <__rc7>
    1ada: c6 17        	dec	$17                     ; 0x17 <__rc7>
    1adc: d0 db        	bne	$1ab9 <fileOpenDir+0x8d>
    1ade: a6 16        	ldx	$16                     ; 0x16 <__rc6>
    1ae0: 80 02        	bra	$1ae4 <fileOpenDir+0xb8>
    1ae2: a2 00        	ldx	#$0
    1ae4: 86 fd        	stx	$fd                     ; 0xfd <__data_size+0xb3>
    1ae6: a2 7f        	ldx	#$7f
    1ae8: a0 00        	ldy	#$0
    1aea: 86 12        	stx	$12                     ; 0x12 <__rc2>
    1aec: 84 13        	sty	$13                     ; 0x13 <__rc3>
    1aee: a2 71        	ldx	#$71
    1af0: 86 16        	stx	$16                     ; 0x16 <__rc6>
    1af2: a2 00        	ldx	#$0
    1af4: 86 17        	stx	$17                     ; 0x17 <__rc7>
    1af6: 20 78 ff     	jsr	$ff78 <end_block9+0x76ee>
    1af9: 92 12        	sta	($12)                   ; 0x12 <__rc2>
    1afb: a9 00        	lda	#$0
    1afd: 6a           	ror
    1afe: 85 16        	sta	$16                     ; 0x16 <__rc6>
    1b00: a6 71        	ldx	$71                     ; 0x71 <kernelError>
    1b02: f0 09        	beq	$1b0d <fileOpenDir+0xe1>
    1b04: a2 00        	ldx	#$0
    1b06: 86 12        	stx	$12                     ; 0x12 <__rc2>
    1b08: a2 00        	ldx	#$0
    1b0a: 86 13        	stx	$13                     ; 0x13 <__rc3>
    1b0c: 60           	rts
    1b0d: a9 06        	lda	#$6
    1b0f: 18           	clc
    1b10: 65 1a        	adc	$1a                     ; 0x1a <__rc10>
    1b12: 85 12        	sta	$12                     ; 0x12 <__rc2>
    1b14: a9 87        	lda	#$87
    1b16: 69 00        	adc	#$0
    1b18: 85 13        	sta	$13                     ; 0x13 <__rc3>
    1b1a: a6 7f        	ldx	$7f                     ; 0x7f <__data_size+0x35>
    1b1c: 86 1b        	stx	$1b                     ; 0x1b <__rc11>
    1b1e: a2 80        	ldx	#$80
    1b20: a0 00        	ldy	#$0
    1b22: 86 16        	stx	$16                     ; 0x16 <__rc6>
    1b24: 84 17        	sty	$17                     ; 0x17 <__rc7>
    1b26: a2 71        	ldx	#$71
    1b28: 86 18        	stx	$18                     ; 0x18 <__rc8>
    1b2a: a2 00        	ldx	#$0
    1b2c: 86 19        	stx	$19                     ; 0x19 <__rc9>
    1b2e: 64 72        	stz	$72                     ; 0x72 <kernelEventData>
    1b30: 20 00 ff     	jsr	$ff00 <end_block9+0x7676>
    1b33: 92 16        	sta	($16)                   ; 0x16 <__rc6>
    1b35: a9 00        	lda	#$0
    1b37: 6a           	ror
    1b38: 85 18        	sta	$18                     ; 0x18 <__rc8>
    1b3a: a6 72        	ldx	$72                     ; 0x72 <kernelEventData>
    1b3c: e0 48        	cpx	#$48
    1b3e: f0 c4        	beq	$1b04 <fileOpenDir+0xd8>
    1b40: e0 3c        	cpx	#$3c
    1b42: d0 ea        	bne	$1b2e <fileOpenDir+0x102>
    1b44: a6 1a        	ldx	$1a                     ; 0x1a <__rc10>
    1b46: a5 1b        	lda	$1b                     ; 0x1b <__rc11>
    1b48: 9d 06 87     	sta	$8706,x                 ; 0x8706 <_dirStream>
    1b4b: 60           	rts

00001b4c <fileCloseDir>:
    1b4c: a2 80        	ldx	#$80
    1b4e: a0 00        	ldy	#$0
    1b50: 86 14        	stx	$14                     ; 0x14 <__rc4>
    1b52: 84 15        	sty	$15                     ; 0x15 <__rc5>
    1b54: a2 7f        	ldx	#$7f
    1b56: a0 00        	ldy	#$0
    1b58: b2 12        	lda	($12)                   ; 0x12 <__rc2>
    1b5a: f0 20        	beq	$1b7c <fileCloseDir+0x30>
    1b5c: 85 f3        	sta	$f3                     ; 0xf3 <__data_size+0xa9>
    1b5e: 86 16        	stx	$16                     ; 0x16 <__rc6>
    1b60: 84 17        	sty	$17                     ; 0x17 <__rc7>
    1b62: a9 71        	lda	#$71
    1b64: 85 18        	sta	$18                     ; 0x18 <__rc8>
    1b66: a9 00        	lda	#$0
    1b68: 85 19        	sta	$19                     ; 0x19 <__rc9>
    1b6a: 20 80 ff     	jsr	$ff80 <end_block9+0x76f6>
    1b6d: 92 16        	sta	($16)                   ; 0x16 <__rc6>
    1b6f: a9 00        	lda	#$0
    1b71: 6a           	ror
    1b72: 85 18        	sta	$18                     ; 0x18 <__rc8>
    1b74: a5 71        	lda	$71                     ; 0x71 <kernelError>
    1b76: d0 04        	bne	$1b7c <fileCloseDir+0x30>
    1b78: a9 00        	lda	#$0
    1b7a: 92 12        	sta	($12)                   ; 0x12 <__rc2>
    1b7c: 64 72        	stz	$72                     ; 0x72 <kernelEventData>
    1b7e: a9 71        	lda	#$71
    1b80: 85 16        	sta	$16                     ; 0x16 <__rc6>
    1b82: a9 00        	lda	#$0
    1b84: 85 17        	sta	$17                     ; 0x17 <__rc7>
    1b86: 20 00 ff     	jsr	$ff00 <end_block9+0x7676>
    1b89: 92 14        	sta	($14)                   ; 0x14 <__rc4>
    1b8b: a9 00        	lda	#$0
    1b8d: 6a           	ror
    1b8e: 85 16        	sta	$16                     ; 0x16 <__rc6>
    1b90: a5 72        	lda	$72                     ; 0x72 <kernelEventData>
    1b92: c9 46        	cmp	#$46
    1b94: d0 c2        	bne	$1b58 <fileCloseDir+0xc>
    1b96: 60           	rts

00001b97 <textPrint>:
    1b97: a6 01        	ldx	$1                      ; 0x1
    1b99: 86 db        	stx	$db                     ; 0xdb <__data_size+0x91>
    1b9b: a6 41        	ldx	$41                     ; 0x41 <_row>
    1b9d: a0 50        	ldy	#$50
    1b9f: 8c 00 de     	sty	$de00                   ; 0xde00 <end_block9+0x5576>
    1ba2: 9c 01 de     	stz	$de01                   ; 0xde01 <end_block9+0x5577>
    1ba5: 8e 02 de     	stx	$de02                   ; 0xde02 <end_block9+0x5578>
    1ba8: 9c 03 de     	stz	$de03                   ; 0xde03 <end_block9+0x5579>
    1bab: ae 10 de     	ldx	$de10                   ; 0xde10 <end_block9+0x5586>
    1bae: ad 11 de     	lda	$de11                   ; 0xde11 <end_block9+0x5587>
    1bb1: 85 15        	sta	$15                     ; 0x15 <__rc5>
    1bb3: ad 12 de     	lda	$de12                   ; 0xde12 <end_block9+0x5588>
    1bb6: 85 1c        	sta	$1c                     ; 0x1c <__rc12>
    1bb8: ad 13 de     	lda	$de13                   ; 0xde13 <end_block9+0x5589>
    1bbb: 85 1d        	sta	$1d                     ; 0x1d <__rc13>
    1bbd: 9c 08 de     	stz	$de08                   ; 0xde08 <end_block9+0x557e>
    1bc0: a9 c0        	lda	#$c0
    1bc2: 8d 09 de     	sta	$de09                   ; 0xde09 <end_block9+0x557f>
    1bc5: 9c 0a de     	stz	$de0a                   ; 0xde0a <end_block9+0x5580>
    1bc8: 9c 0b de     	stz	$de0b                   ; 0xde0b <end_block9+0x5581>
    1bcb: 8e 0c de     	stx	$de0c                   ; 0xde0c <end_block9+0x5582>
    1bce: 64 14        	stz	$14                     ; 0x14 <__rc4>
    1bd0: a2 00        	ldx	#$0
    1bd2: 86 16        	stx	$16                     ; 0x16 <__rc6>
    1bd4: a2 c0        	ldx	#$c0
    1bd6: 86 17        	stx	$17                     ; 0x17 <__rc7>
    1bd8: a2 11        	ldx	#$11
    1bda: 86 18        	stx	$18                     ; 0x18 <__rc8>
    1bdc: a2 c9        	ldx	#$c9
    1bde: 86 19        	stx	$19                     ; 0x19 <__rc9>
    1be0: a2 10        	ldx	#$10
    1be2: 86 1a        	stx	$1a                     ; 0x1a <__rc10>
    1be4: a2 c9        	ldx	#$c9
    1be6: 86 1b        	stx	$1b                     ; 0x1b <__rc11>
    1be8: a6 15        	ldx	$15                     ; 0x15 <__rc5>
    1bea: 8e 0d de     	stx	$de0d                   ; 0xde0d <end_block9+0x5583>
    1bed: a6 1c        	ldx	$1c                     ; 0x1c <__rc12>
    1bef: 8e 0e de     	stx	$de0e                   ; 0xde0e <end_block9+0x5584>
    1bf2: a6 1d        	ldx	$1d                     ; 0x1d <__rc13>
    1bf4: 8e 0f de     	stx	$de0f                   ; 0xde0f <end_block9+0x5585>
    1bf7: ae 18 de     	ldx	$de18                   ; 0xde18 <end_block9+0x558e>
    1bfa: 86 1c        	stx	$1c                     ; 0x1c <__rc12>
    1bfc: ad 19 de     	lda	$de19                   ; 0xde19 <end_block9+0x558f>
    1bff: ae 1a de     	ldx	$de1a                   ; 0xde1a <end_block9+0x5590>
    1c02: ae 1b de     	ldx	$de1b                   ; 0xde1b <end_block9+0x5591>
    1c05: 85 1d        	sta	$1d                     ; 0x1d <__rc13>
    1c07: 64 15        	stz	$15                     ; 0x15 <__rc5>
    1c09: a2 20        	ldx	#$20
    1c0b: 86 dd        	stx	$dd                     ; 0xdd <__data_size+0x93>
    1c0d: 80 13        	bra	$1c22 <textPrint+0x8b>
    1c0f: a5 1c        	lda	$1c                     ; 0x1c <__rc12>
    1c11: 18           	clc
    1c12: 69 50        	adc	#$50
    1c14: 85 1c        	sta	$1c                     ; 0x1c <__rc12>
    1c16: a5 1d        	lda	$1d                     ; 0x1d <__rc13>
    1c18: 69 00        	adc	#$0
    1c1a: 85 1d        	sta	$1d                     ; 0x1d <__rc13>
    1c1c: e6 14        	inc	$14                     ; 0x14 <__rc4>
    1c1e: d0 02        	bne	$1c22 <textPrint+0x8b>
    1c20: e6 15        	inc	$15                     ; 0x15 <__rc5>
    1c22: a5 12        	lda	$12                     ; 0x12 <__rc2>
    1c24: 18           	clc
    1c25: 65 14        	adc	$14                     ; 0x14 <__rc4>
    1c27: 85 1e        	sta	$1e                     ; 0x1e <__rc14>
    1c29: a5 13        	lda	$13                     ; 0x13 <__rc3>
    1c2b: 65 15        	adc	$15                     ; 0x15 <__rc5>
    1c2d: 85 1f        	sta	$1f                     ; 0x1f <__rc15>
    1c2f: b2 1e        	lda	($1e)                   ; 0x1e <__rc14>
    1c31: c9 0a        	cmp	#$a
    1c33: f0 2a        	beq	$1c5f <textPrint+0xc8>
    1c35: c9 0d        	cmp	#$d
    1c37: f0 26        	beq	$1c5f <textPrint+0xc8>
    1c39: aa           	tax
    1c3a: d0 03        	bne	$1c3f <textPrint+0xa8>
    1c3c: 4c 4e 1d     	jmp	$1d4e <textPrint+0x1b7>
    1c3f: a2 03        	ldx	#$3
    1c41: 86 01        	stx	$1                      ; 0x1
    1c43: a5 30        	lda	$30                     ; 0x30 <_ccolor>
    1c45: 84 22        	sty	$22                     ; 0x22 <__rc18>
    1c47: a4 40        	ldy	$40                     ; 0x40 <_col>
    1c49: 91 1c        	sta	($1c),y                 ; 0x1c <__rc12>
    1c4b: ca           	dex
    1c4c: 86 01        	stx	$1                      ; 0x1
    1c4e: b2 1e        	lda	($1e)                   ; 0x1e <__rc14>
    1c50: a4 40        	ldy	$40                     ; 0x40 <_col>
    1c52: 91 1c        	sta	($1c),y                 ; 0x1c <__rc12>
    1c54: a4 22        	ldy	$22                     ; 0x22 <__rc18>
    1c56: a6 40        	ldx	$40                     ; 0x40 <_col>
    1c58: e8           	inx
    1c59: e6 40        	inc	$40                     ; 0x40 <_col>
    1c5b: e0 50        	cpx	#$50
    1c5d: d0 bd        	bne	$1c1c <textPrint+0x85>
    1c5f: 64 40        	stz	$40                     ; 0x40 <_col>
    1c61: a6 41        	ldx	$41                     ; 0x41 <_row>
    1c63: e8           	inx
    1c64: e6 41        	inc	$41                     ; 0x41 <_row>
    1c66: e0 1e        	cpx	#$1e
    1c68: f0 03        	beq	$1c6d <textPrint+0xd6>
    1c6a: 4c 0f 1c     	jmp	$1c0f <textPrint+0x78>
    1c6d: a2 50        	ldx	#$50
    1c6f: 86 dc        	stx	$dc                     ; 0xdc <__data_size+0x92>
    1c71: a2 03        	ldx	#$3
    1c73: 86 01        	stx	$1                      ; 0x1
    1c75: a2 01        	ldx	#$1
    1c77: 86 1c        	stx	$1c                     ; 0x1c <__rc12>
    1c79: a2 09        	ldx	#$9
    1c7b: a9 10        	lda	#$10
    1c7d: a0 00        	ldy	#$0
    1c7f: 84 1e        	sty	$1e                     ; 0x1e <__rc14>
    1c81: a0 c0        	ldy	#$c0
    1c83: 84 1f        	sty	$1f                     ; 0x1f <__rc15>
    1c85: 85 1d        	sta	$1d                     ; 0x1d <__rc13>
    1c87: a4 dc        	ldy	$dc                     ; 0xdc <__data_size+0x92>
    1c89: b1 1e        	lda	($1e),y                 ; 0x1e <__rc14>
    1c8b: 92 1e        	sta	($1e)                   ; 0x1e <__rc14>
    1c8d: a9 ff        	lda	#$ff
    1c8f: c6 1d        	dec	$1d                     ; 0x1d <__rc13>
    1c91: c5 1d        	cmp	$1d                     ; 0x1d <__rc13>
    1c93: d0 01        	bne	$1c96 <textPrint+0xff>
    1c95: ca           	dex
    1c96: e6 1e        	inc	$1e                     ; 0x1e <__rc14>
    1c98: d0 02        	bne	$1c9c <textPrint+0x105>
    1c9a: e6 1f        	inc	$1f                     ; 0x1f <__rc15>
    1c9c: 8a           	txa
    1c9d: d0 ea        	bne	$1c89 <textPrint+0xf2>
    1c9f: a5 1d        	lda	$1d                     ; 0x1d <__rc13>
    1ca1: d0 e6        	bne	$1c89 <textPrint+0xf2>
    1ca3: a2 50        	ldx	#$50
    1ca5: 86 dc        	stx	$dc                     ; 0xdc <__data_size+0x92>
    1ca7: a2 02        	ldx	#$2
    1ca9: 86 01        	stx	$1                      ; 0x1
    1cab: a2 00        	ldx	#$0
    1cad: a5 1c        	lda	$1c                     ; 0x1c <__rc12>
    1caf: d0 c6        	bne	$1c77 <textPrint+0xe0>
    1cb1: a2 03        	ldx	#$3
    1cb3: 86 01        	stx	$1                      ; 0x1
    1cb5: a5 30        	lda	$30                     ; 0x30 <_ccolor>
    1cb7: a2 50        	ldx	#$50
    1cb9: a0 11        	ldy	#$11
    1cbb: 84 1c        	sty	$1c                     ; 0x1c <__rc12>
    1cbd: a0 c9        	ldy	#$c9
    1cbf: 84 1d        	sty	$1d                     ; 0x1d <__rc13>
    1cc1: a0 10        	ldy	#$10
    1cc3: 84 1e        	sty	$1e                     ; 0x1e <__rc14>
    1cc5: a0 c9        	ldy	#$c9
    1cc7: 84 1f        	sty	$1f                     ; 0x1f <__rc15>
    1cc9: a4 1e        	ldy	$1e                     ; 0x1e <__rc14>
    1ccb: 84 22        	sty	$22                     ; 0x22 <__rc18>
    1ccd: a4 1f        	ldy	$1f                     ; 0x1f <__rc15>
    1ccf: 84 23        	sty	$23                     ; 0x23 <__rc19>
    1cd1: a4 1c        	ldy	$1c                     ; 0x1c <__rc12>
    1cd3: 84 1e        	sty	$1e                     ; 0x1e <__rc14>
    1cd5: a4 1d        	ldy	$1d                     ; 0x1d <__rc13>
    1cd7: 84 1f        	sty	$1f                     ; 0x1f <__rc15>
    1cd9: 92 22        	sta	($22)                   ; 0x22 <__rc18>
    1cdb: e6 1c        	inc	$1c                     ; 0x1c <__rc12>
    1cdd: d0 02        	bne	$1ce1 <textPrint+0x14a>
    1cdf: e6 1d        	inc	$1d                     ; 0x1d <__rc13>
    1ce1: ca           	dex
    1ce2: d0 e5        	bne	$1cc9 <textPrint+0x132>
    1ce4: a2 02        	ldx	#$2
    1ce6: 86 01        	stx	$1                      ; 0x1
    1ce8: a2 50        	ldx	#$50
    1cea: a0 11        	ldy	#$11
    1cec: 84 1c        	sty	$1c                     ; 0x1c <__rc12>
    1cee: a0 c9        	ldy	#$c9
    1cf0: 84 1d        	sty	$1d                     ; 0x1d <__rc13>
    1cf2: a0 10        	ldy	#$10
    1cf4: 84 1e        	sty	$1e                     ; 0x1e <__rc14>
    1cf6: a0 c9        	ldy	#$c9
    1cf8: 84 1f        	sty	$1f                     ; 0x1f <__rc15>
    1cfa: a5 dd        	lda	$dd                     ; 0xdd <__data_size+0x93>
    1cfc: a4 1e        	ldy	$1e                     ; 0x1e <__rc14>
    1cfe: 84 22        	sty	$22                     ; 0x22 <__rc18>
    1d00: a4 1f        	ldy	$1f                     ; 0x1f <__rc15>
    1d02: 84 23        	sty	$23                     ; 0x23 <__rc19>
    1d04: a4 1c        	ldy	$1c                     ; 0x1c <__rc12>
    1d06: 84 1e        	sty	$1e                     ; 0x1e <__rc14>
    1d08: a4 1d        	ldy	$1d                     ; 0x1d <__rc13>
    1d0a: 84 1f        	sty	$1f                     ; 0x1f <__rc15>
    1d0c: 92 22        	sta	($22)                   ; 0x22 <__rc18>
    1d0e: e6 1c        	inc	$1c                     ; 0x1c <__rc12>
    1d10: d0 02        	bne	$1d14 <textPrint+0x17d>
    1d12: e6 1d        	inc	$1d                     ; 0x1d <__rc13>
    1d14: ca           	dex
    1d15: d0 e5        	bne	$1cfc <textPrint+0x165>
    1d17: a2 20        	ldx	#$20
    1d19: 86 dd        	stx	$dd                     ; 0xdd <__data_size+0x93>
    1d1b: c6 41        	dec	$41                     ; 0x41 <_row>
    1d1d: 9c 08 de     	stz	$de08                   ; 0xde08 <end_block9+0x557e>
    1d20: a2 c0        	ldx	#$c0
    1d22: 8e 09 de     	stx	$de09                   ; 0xde09 <end_block9+0x557f>
    1d25: 9c 0a de     	stz	$de0a                   ; 0xde0a <end_block9+0x5580>
    1d28: 9c 0b de     	stz	$de0b                   ; 0xde0b <end_block9+0x5581>
    1d2b: a2 1d        	ldx	#$1d
    1d2d: 8e 0c de     	stx	$de0c                   ; 0xde0c <end_block9+0x5582>
    1d30: 9c 0d de     	stz	$de0d                   ; 0xde0d <end_block9+0x5583>
    1d33: 9c 0e de     	stz	$de0e                   ; 0xde0e <end_block9+0x5584>
    1d36: 9c 0f de     	stz	$de0f                   ; 0xde0f <end_block9+0x5585>
    1d39: ae 18 de     	ldx	$de18                   ; 0xde18 <end_block9+0x558e>
    1d3c: ac 19 de     	ldy	$de19                   ; 0xde19 <end_block9+0x558f>
    1d3f: ad 1a de     	lda	$de1a                   ; 0xde1a <end_block9+0x5590>
    1d42: ad 1b de     	lda	$de1b                   ; 0xde1b <end_block9+0x5591>
    1d45: 86 1c        	stx	$1c                     ; 0x1c <__rc12>
    1d47: 84 1d        	sty	$1d                     ; 0x1d <__rc13>
    1d49: a4 dc        	ldy	$dc                     ; 0xdc <__data_size+0x92>
    1d4b: 4c 1c 1c     	jmp	$1c1c <textPrint+0x85>
    1d4e: a6 db        	ldx	$db                     ; 0xdb <__data_size+0x91>
    1d50: 86 01        	stx	$1                      ; 0x1
    1d52: a6 40        	ldx	$40                     ; 0x40 <_col>
    1d54: a4 41        	ldy	$41                     ; 0x41 <_row>
    1d56: 8e 14 d0     	stx	$d014                   ; 0xd014 <end_block9+0x478a>
    1d59: 9c 15 d0     	stz	$d015                   ; 0xd015 <end_block9+0x478b>
    1d5c: 84 41        	sty	$41                     ; 0x41 <_row>
    1d5e: 8c 16 d0     	sty	$d016                   ; 0xd016 <end_block9+0x478c>
    1d61: 9c 17 d0     	stz	$d017                   ; 0xd017 <end_block9+0x478d>
    1d64: 60           	rts

00001d65 <textGotoXY>:
    1d65: 85 40        	sta	$40                     ; 0x40 <_col>
    1d67: 8d 14 d0     	sta	$d014                   ; 0xd014 <end_block9+0x478a>
    1d6a: 9c 15 d0     	stz	$d015                   ; 0xd015 <end_block9+0x478b>
    1d6d: 86 41        	stx	$41                     ; 0x41 <_row>
    1d6f: 8e 16 d0     	stx	$d016                   ; 0xd016 <end_block9+0x478c>
    1d72: 9c 17 d0     	stz	$d017                   ; 0xd017 <end_block9+0x478d>
    1d75: 60           	rts

00001d76 <fileReadDir>:
    1d76: b2 12        	lda	($12)                   ; 0x12 <__rc2>
    1d78: 85 f3        	sta	$f3                     ; 0xf3 <__data_size+0xa9>
    1d7a: a2 7f        	ldx	#$7f
    1d7c: a0 00        	ldy	#$0
    1d7e: 86 14        	stx	$14                     ; 0x14 <__rc4>
    1d80: 84 15        	sty	$15                     ; 0x15 <__rc5>
    1d82: a2 71        	ldx	#$71
    1d84: 86 16        	stx	$16                     ; 0x16 <__rc6>
    1d86: a2 00        	ldx	#$0
    1d88: 86 17        	stx	$17                     ; 0x17 <__rc7>
    1d8a: 20 7c ff     	jsr	$ff7c <end_block9+0x76f2>
    1d8d: 92 14        	sta	($14)                   ; 0x14 <__rc4>
    1d8f: a9 00        	lda	#$0
    1d91: 6a           	ror
    1d92: 85 16        	sta	$16                     ; 0x16 <__rc6>
    1d94: a6 71        	ldx	$71                     ; 0x71 <kernelError>
    1d96: a0 00        	ldy	#$0
    1d98: 84 14        	sty	$14                     ; 0x14 <__rc4>
    1d9a: a0 00        	ldy	#$0
    1d9c: 84 15        	sty	$15                     ; 0x15 <__rc5>
    1d9e: 8a           	txa
    1d9f: f0 09        	beq	$1daa <fileReadDir+0x34>
    1da1: a6 14        	ldx	$14                     ; 0x14 <__rc4>
    1da3: 86 12        	stx	$12                     ; 0x12 <__rc2>
    1da5: a6 15        	ldx	$15                     ; 0x15 <__rc5>
    1da7: 86 13        	stx	$13                     ; 0x13 <__rc3>
    1da9: 60           	rts
    1daa: a2 80        	ldx	#$80
    1dac: a0 00        	ldy	#$0
    1dae: 86 16        	stx	$16                     ; 0x16 <__rc6>
    1db0: 84 17        	sty	$17                     ; 0x17 <__rc7>
    1db2: a2 82        	ldx	#$82
    1db4: 86 1c        	stx	$1c                     ; 0x1c <__rc12>
    1db6: a0 00        	ldy	#$0
    1db8: 80 20        	bra	$1dda <fileReadDir+0x64>
    1dba: b2 12        	lda	($12)                   ; 0x12 <__rc2>
    1dbc: 85 f3        	sta	$f3                     ; 0xf3 <__data_size+0xa9>
    1dbe: a6 1c        	ldx	$1c                     ; 0x1c <__rc12>
    1dc0: 86 18        	stx	$18                     ; 0x18 <__rc8>
    1dc2: 84 19        	sty	$19                     ; 0x19 <__rc9>
    1dc4: a2 71        	ldx	#$71
    1dc6: 86 1a        	stx	$1a                     ; 0x1a <__rc10>
    1dc8: a2 00        	ldx	#$0
    1dca: 86 1b        	stx	$1b                     ; 0x1b <__rc11>
    1dcc: 20 7c ff     	jsr	$ff7c <end_block9+0x76f2>
    1dcf: 92 18        	sta	($18)                   ; 0x18 <__rc8>
    1dd1: a9 00        	lda	#$0
    1dd3: 6a           	ror
    1dd4: 85 1a        	sta	$1a                     ; 0x1a <__rc10>
    1dd6: a6 71        	ldx	$71                     ; 0x71 <kernelError>
    1dd8: d0 c7        	bne	$1da1 <fileReadDir+0x2b>
    1dda: 64 72        	stz	$72                     ; 0x72 <kernelEventData>
    1ddc: a9 71        	lda	#$71
    1dde: 85 18        	sta	$18                     ; 0x18 <__rc8>
    1de0: a9 00        	lda	#$0
    1de2: 85 19        	sta	$19                     ; 0x19 <__rc9>
    1de4: 20 00 ff     	jsr	$ff00 <end_block9+0x7676>
    1de7: 92 16        	sta	($16)                   ; 0x16 <__rc6>
    1de9: a9 00        	lda	#$0
    1deb: 6a           	ror
    1dec: 85 18        	sta	$18                     ; 0x18 <__rc8>
    1dee: a9 c2        	lda	#$c2
    1df0: 18           	clc
    1df1: 65 72        	adc	$72                     ; 0x72 <kernelEventData>
    1df3: c9 0b        	cmp	#$b
    1df5: b0 e3        	bcs	$1dda <fileReadDir+0x64>
    1df7: 0a           	asl
    1df8: aa           	tax
    1df9: 7c ca 7b     	jmp	($7bca,x)               ; 0x7bca <__BLOCK_SIZE+0x5bca>
    1dfc: 9c 0e 87     	stz	$870e                   ; 0x870e <fileReadDir.fileDirEntS>
    1dff: a2 02        	ldx	#$2
    1e01: 80 2d        	bra	$1e30 <fileReadDir+0xba>
    1e03: a2 0e        	ldx	#$e
    1e05: a0 87        	ldy	#$87
    1e07: 86 fb        	stx	$fb                     ; 0xfb <__data_size+0xb1>
    1e09: 84 fc        	sty	$fc                     ; 0xfc <__data_size+0xb2>
    1e0b: a2 01        	ldx	#$1
    1e0d: 86 fd        	stx	$fd                     ; 0xfd <__data_size+0xb3>
    1e0f: a0 81        	ldy	#$81
    1e11: a9 00        	lda	#$0
    1e13: 84 12        	sty	$12                     ; 0x12 <__rc2>
    1e15: 85 13        	sta	$13                     ; 0x13 <__rc3>
    1e17: a0 71        	ldy	#$71
    1e19: 84 14        	sty	$14                     ; 0x14 <__rc4>
    1e1b: a0 00        	ldy	#$0
    1e1d: 84 15        	sty	$15                     ; 0x15 <__rc5>
    1e1f: 20 08 ff     	jsr	$ff08 <end_block9+0x767e>
    1e22: 92 12        	sta	($12)                   ; 0x12 <__rc2>
    1e24: a9 00        	lda	#$0
    1e26: 6a           	ror
    1e27: 85 14        	sta	$14                     ; 0x14 <__rc4>
    1e29: ac 0e 87     	ldy	$870e                   ; 0x870e <fileReadDir.fileDirEntS>
    1e2c: f0 02        	beq	$1e30 <fileReadDir+0xba>
    1e2e: a2 00        	ldx	#$0
    1e30: 8e 0f 87     	stx	$870f                   ; 0x870f <fileReadDir.fileDirEntS+0x1>
    1e33: a6 77        	ldx	$77                     ; 0x77 <kernelEventData+0x5>
    1e35: f0 24        	beq	$1e5b <fileReadDir+0xe5>
    1e37: a0 10        	ldy	#$10
    1e39: a9 87        	lda	#$87
    1e3b: 84 fb        	sty	$fb                     ; 0xfb <__data_size+0xb1>
    1e3d: 85 fc        	sta	$fc                     ; 0xfc <__data_size+0xb2>
    1e3f: 86 fd        	stx	$fd                     ; 0xfd <__data_size+0xb3>
    1e41: a0 83        	ldy	#$83
    1e43: a9 00        	lda	#$0
    1e45: 84 12        	sty	$12                     ; 0x12 <__rc2>
    1e47: 85 13        	sta	$13                     ; 0x13 <__rc3>
    1e49: a0 71        	ldy	#$71
    1e4b: 84 14        	sty	$14                     ; 0x14 <__rc4>
    1e4d: a0 00        	ldy	#$0
    1e4f: 84 15        	sty	$15                     ; 0x15 <__rc5>
    1e51: 20 04 ff     	jsr	$ff04 <end_block9+0x767a>
    1e54: 92 12        	sta	($12)                   ; 0x12 <__rc2>
    1e56: a9 00        	lda	#$0
    1e58: 6a           	ror
    1e59: 85 14        	sta	$14                     ; 0x14 <__rc4>
    1e5b: 9e 10 87     	stz	$8710,x                 ; 0x8710 <fileReadDir.fileDirEntS+0x2>
    1e5e: a2 0e        	ldx	#$e
    1e60: 86 14        	stx	$14                     ; 0x14 <__rc4>
    1e62: a2 87        	ldx	#$87
    1e64: 86 15        	stx	$15                     ; 0x15 <__rc5>
    1e66: 4c a1 1d     	jmp	$1da1 <fileReadDir+0x2b>

00001e69 <fpr_set_currentPath>:
    1e69: b2 12        	lda	($12)                   ; 0x12 <__rc2>
    1e6b: a6 0f        	ldx	$f                      ; 0xf
    1e6d: 78           	sei
    1e6e: a0 18        	ldy	#$18
    1e70: 84 0f        	sty	$f                      ; 0xf
    1e72: 8d 02 e0     	sta	$e002                   ; 0xe002 <end_block9+0x5778>
    1e75: 86 0f        	stx	$f                      ; 0xf
    1e77: 58           	cli
    1e78: a2 00        	ldx	#$0
    1e7a: 80 2d        	bra	$1ea9 <fpr_set_currentPath+0x40>
    1e7c: 8a           	txa
    1e7d: 18           	clc
    1e7e: 65 12        	adc	$12                     ; 0x12 <__rc2>
    1e80: 85 14        	sta	$14                     ; 0x14 <__rc4>
    1e82: a5 13        	lda	$13                     ; 0x13 <__rc3>
    1e84: 69 00        	adc	#$0
    1e86: 85 15        	sta	$15                     ; 0x15 <__rc5>
    1e88: 18           	clc
    1e89: 8a           	txa
    1e8a: 69 03        	adc	#$3
    1e8c: 85 16        	sta	$16                     ; 0x16 <__rc6>
    1e8e: a9 00        	lda	#$0
    1e90: 69 e0        	adc	#$e0
    1e92: 85 17        	sta	$17                     ; 0x17 <__rc7>
    1e94: a0 01        	ldy	#$1
    1e96: b1 14        	lda	($14),y                 ; 0x14 <__rc4>
    1e98: a4 0f        	ldy	$f                      ; 0xf
    1e9a: 84 14        	sty	$14                     ; 0x14 <__rc4>
    1e9c: 78           	sei
    1e9d: a0 18        	ldy	#$18
    1e9f: 84 0f        	sty	$f                      ; 0xf
    1ea1: 92 16        	sta	($16)                   ; 0x16 <__rc6>
    1ea3: a4 14        	ldy	$14                     ; 0x14 <__rc4>
    1ea5: 84 0f        	sty	$f                      ; 0xf
    1ea7: 58           	cli
    1ea8: e8           	inx
    1ea9: a8           	tay
    1eaa: f0 04        	beq	$1eb0 <fpr_set_currentPath+0x47>
    1eac: e0 3b        	cpx	#$3b
    1eae: d0 cc        	bne	$1e7c <fpr_set_currentPath+0x13>
    1eb0: 60           	rts

00001eb1 <getTheFile_far>:
    1eb1: 18           	clc
    1eb2: a5 10        	lda	$10                     ; 0x10 <__zp_data_size>
    1eb4: 69 cc        	adc	#$cc
    1eb6: 85 10        	sta	$10                     ; 0x10 <__zp_data_size>
    1eb8: a5 11        	lda	$11                     ; 0x11 <__rc1>
    1eba: 69 fe        	adc	#$fe
    1ebc: 85 11        	sta	$11                     ; 0x11 <__rc1>
    1ebe: a6 24        	ldx	$24                     ; 0x24 <__rc20>
    1ec0: da           	phx
    1ec1: a6 25        	ldx	$25                     ; 0x25 <__rc21>
    1ec3: da           	phx
    1ec4: a0 00        	ldy	#$0
    1ec6: 18           	clc
    1ec7: a5 10        	lda	$10                     ; 0x10 <__zp_data_size>
    1ec9: 69 04        	adc	#$4
    1ecb: 85 12        	sta	$12                     ; 0x12 <__rc2>
    1ecd: a2 01        	ldx	#$1
    1ecf: b0 02        	bcs	$1ed3 <getTheFile_far+0x22>
    1ed1: a2 00        	ldx	#$0
    1ed3: 86 16        	stx	$16                     ; 0x16 <__rc6>
    1ed5: 98           	tya
    1ed6: 18           	clc
    1ed7: 69 02        	adc	#$2
    1ed9: 85 14        	sta	$14                     ; 0x14 <__rc4>
    1edb: a9 00        	lda	#$0
    1edd: 69 e0        	adc	#$e0
    1edf: a6 0f        	ldx	$f                      ; 0xf
    1ee1: 86 13        	stx	$13                     ; 0x13 <__rc3>
    1ee3: 78           	sei
    1ee4: a2 18        	ldx	#$18
    1ee6: 86 0f        	stx	$f                      ; 0xf
    1ee8: 85 15        	sta	$15                     ; 0x15 <__rc5>
    1eea: b2 14        	lda	($14)                   ; 0x14 <__rc4>
    1eec: a6 13        	ldx	$13                     ; 0x13 <__rc3>
    1eee: 86 0f        	stx	$f                      ; 0xf
    1ef0: 58           	cli
    1ef1: a6 16        	ldx	$16                     ; 0x16 <__rc6>
    1ef3: e0 01        	cpx	#$1
    1ef5: 48           	pha
    1ef6: a5 11        	lda	$11                     ; 0x11 <__rc1>
    1ef8: 69 00        	adc	#$0
    1efa: 85 13        	sta	$13                     ; 0x13 <__rc3>
    1efc: 68           	pla
    1efd: 91 12        	sta	($12),y                 ; 0x12 <__rc2>
    1eff: f0 0b        	beq	$1f0c <getTheFile_far+0x5b>
    1f01: c8           	iny
    1f02: c0 3c        	cpy	#$3c
    1f04: d0 cf        	bne	$1ed5 <getTheFile_far+0x24>
    1f06: a0 3b        	ldy	#$3b
    1f08: a9 00        	lda	#$0
    1f0a: 91 12        	sta	($12),y                 ; 0x12 <__rc2>
    1f0c: 20 2c 1a     	jsr	$1a2c <fileOpenDir>
    1f0f: a2 00        	ldx	#$0
    1f11: 86 14        	stx	$14                     ; 0x14 <__rc4>
    1f13: a2 00        	ldx	#$0
    1f15: 86 15        	stx	$15                     ; 0x15 <__rc5>
    1f17: a6 13        	ldx	$13                     ; 0x13 <__rc3>
    1f19: e4 15        	cpx	$15                     ; 0x15 <__rc5>
    1f1b: d0 2d        	bne	$1f4a <getTheFile_far+0x99>
    1f1d: a6 12        	ldx	$12                     ; 0x12 <__rc2>
    1f1f: e4 14        	cpx	$14                     ; 0x14 <__rc4>
    1f21: d0 27        	bne	$1f4a <getTheFile_far+0x99>
    1f23: a2 00        	ldx	#$0
    1f25: 8a           	txa
    1f26: 18           	clc
    1f27: 69 02        	adc	#$2
    1f29: 85 12        	sta	$12                     ; 0x12 <__rc2>
    1f2b: a9 00        	lda	#$0
    1f2d: 69 e0        	adc	#$e0
    1f2f: b4 31        	ldy	$31,x                   ; 0x31 <_ccolor+0x1>
    1f31: 84 14        	sty	$14                     ; 0x14 <__rc4>
    1f33: 85 13        	sta	$13                     ; 0x13 <__rc3>
    1f35: a4 0f        	ldy	$f                      ; 0xf
    1f37: 78           	sei
    1f38: a9 18        	lda	#$18
    1f3a: 85 0f        	sta	$f                      ; 0xf
    1f3c: a5 14        	lda	$14                     ; 0x14 <__rc4>
    1f3e: 92 12        	sta	($12)                   ; 0x12 <__rc2>
    1f40: 84 0f        	sty	$f                      ; 0xf
    1f42: 58           	cli
    1f43: e8           	inx
    1f44: e0 03        	cpx	#$3
    1f46: d0 dd        	bne	$1f25 <getTheFile_far+0x74>
    1f48: 80 03        	bra	$1f4d <getTheFile_far+0x9c>
    1f4a: 20 4c 1b     	jsr	$1b4c <fileCloseDir>
    1f4d: a2 75        	ldx	#$75
    1f4f: 86 30        	stx	$30                     ; 0x30 <_ccolor>
    1f51: a9 00        	lda	#$0
    1f53: a2 02        	ldx	#$2
    1f55: 64 40        	stz	$40                     ; 0x40 <_col>
    1f57: 9c 14 d0     	stz	$d014                   ; 0xd014 <end_block9+0x478a>
    1f5a: 9c 15 d0     	stz	$d015                   ; 0xd015 <end_block9+0x478b>
    1f5d: 86 41        	stx	$41                     ; 0x41 <_row>
    1f5f: 8e 16 d0     	stx	$d016                   ; 0xd016 <end_block9+0x478c>
    1f62: 9c 17 d0     	stz	$d017                   ; 0xd017 <end_block9+0x478d>
    1f65: 86 25        	stx	$25                     ; 0x25 <__rc21>
    1f67: aa           	tax
    1f68: 85 24        	sta	$24                     ; 0x24 <__rc20>
    1f6a: b5 38        	lda	$38,x                   ; 0x38 <_ccolor+0x8>
    1f6c: 48           	pha
    1f6d: b5 39        	lda	$39,x                   ; 0x39 <_ccolor+0x9>
    1f6f: aa           	tax
    1f70: 68           	pla
    1f71: 92 10        	sta	($10)                   ; 0x10 <__zp_data_size>
    1f73: a0 01        	ldy	#$1
    1f75: 8a           	txa
    1f76: 91 10        	sta	($10),y                 ; 0x10 <__zp_data_size>
    1f78: a2 f0        	ldx	#$f0
    1f7a: 86 12        	stx	$12                     ; 0x12 <__rc2>
    1f7c: a2 80        	ldx	#$80
    1f7e: 86 13        	stx	$13                     ; 0x13 <__rc3>
    1f80: 20 e5 73     	jsr	$73e5 <printf>
    1f83: a6 25        	ldx	$25                     ; 0x25 <__rc21>
    1f85: a5 24        	lda	$24                     ; 0x24 <__rc20>
    1f87: 18           	clc
    1f88: 69 02        	adc	#$2
    1f8a: e8           	inx
    1f8b: c9 08        	cmp	#$8
    1f8d: d0 c6        	bne	$1f55 <getTheFile_far+0xa4>
    1f8f: a0 e0        	ldy	#$e0
    1f91: a2 00        	ldx	#$0
    1f93: 18           	clc
    1f94: 8a           	txa
    1f95: 69 3e        	adc	#$3e
    1f97: 85 12        	sta	$12                     ; 0x12 <__rc2>
    1f99: a5 0f        	lda	$f                      ; 0xf
    1f9b: 85 14        	sta	$14                     ; 0x14 <__rc4>
    1f9d: 78           	sei
    1f9e: a9 18        	lda	#$18
    1fa0: 85 0f        	sta	$f                      ; 0xf
    1fa2: 84 13        	sty	$13                     ; 0x13 <__rc3>
    1fa4: a9 00        	lda	#$0
    1fa6: 92 12        	sta	($12)                   ; 0x12 <__rc2>
    1fa8: a5 14        	lda	$14                     ; 0x14 <__rc4>
    1faa: 85 0f        	sta	$f                      ; 0xf
    1fac: 58           	cli
    1fad: e8           	inx
    1fae: e0 78        	cpx	#$78
    1fb0: d0 e1        	bne	$1f93 <getTheFile_far+0xe2>
    1fb2: 20 9a 43     	jsr	$439a <reprepFPR_far>
    1fb5: 64 12        	stz	$12                     ; 0x12 <__rc2>
    1fb7: 64 15        	stz	$15                     ; 0x15 <__rc5>
    1fb9: 64 13        	stz	$13                     ; 0x13 <__rc3>
    1fbb: a5 12        	lda	$12                     ; 0x12 <__rc2>
    1fbd: 0a           	asl
    1fbe: a6 13        	ldx	$13                     ; 0x13 <__rc3>
    1fc0: 86 16        	stx	$16                     ; 0x16 <__rc6>
    1fc2: 26 16        	rol	$16                     ; 0x16 <__rc6>
    1fc4: 18           	clc
    1fc5: a2 01        	ldx	#$1
    1fc7: b0 02        	bcs	$1fcb <getTheFile_far+0x11a>
    1fc9: a2 00        	ldx	#$0
    1fcb: 86 1a        	stx	$1a                     ; 0x1a <__rc10>
    1fcd: 65 12        	adc	$12                     ; 0x12 <__rc2>
    1fcf: 85 18        	sta	$18                     ; 0x18 <__rc8>
    1fd1: a5 16        	lda	$16                     ; 0x16 <__rc6>
    1fd3: 65 13        	adc	$13                     ; 0x13 <__rc3>
    1fd5: 85 19        	sta	$19                     ; 0x19 <__rc9>
    1fd7: 64 14        	stz	$14                     ; 0x14 <__rc4>
    1fd9: a5 18        	lda	$18                     ; 0x18 <__rc8>
    1fdb: a6 1a        	ldx	$1a                     ; 0x1a <__rc10>
    1fdd: e0 01        	cpx	#$1
    1fdf: 65 14        	adc	$14                     ; 0x14 <__rc4>
    1fe1: a8           	tay
    1fe2: a5 19        	lda	$19                     ; 0x19 <__rc9>
    1fe4: 69 00        	adc	#$0
    1fe6: aa           	tax
    1fe7: a9 00        	lda	#$0
    1fe9: 69 00        	adc	#$0
    1feb: 85 15        	sta	$15                     ; 0x15 <__rc5>
    1fed: 18           	clc
    1fee: 98           	tya
    1fef: 69 4e        	adc	#$4e
    1ff1: 85 16        	sta	$16                     ; 0x16 <__rc6>
    1ff3: 8a           	txa
    1ff4: 69 5f        	adc	#$5f
    1ff6: aa           	tax
    1ff7: a5 15        	lda	$15                     ; 0x15 <__rc5>
    1ff9: 69 03        	adc	#$3
    1ffb: 85 17        	sta	$17                     ; 0x17 <__rc7>
    1ffd: 8a           	txa
    1ffe: 86 15        	stx	$15                     ; 0x15 <__rc5>
    2000: 06 15        	asl	$15                     ; 0x15 <__rc5>
    2002: 26 17        	rol	$17                     ; 0x17 <__rc7>
    2004: 06 15        	asl	$15                     ; 0x15 <__rc5>
    2006: 26 17        	rol	$17                     ; 0x17 <__rc7>
    2008: 06 15        	asl	$15                     ; 0x15 <__rc5>
    200a: 26 17        	rol	$17                     ; 0x17 <__rc7>
    200c: a4 17        	ldy	$17                     ; 0x17 <__rc7>
    200e: a6 0f        	ldx	$f                      ; 0xf
    2010: 78           	sei
    2011: 84 0f        	sty	$f                      ; 0xf
    2013: 09 e0        	ora	#$e0
    2015: 85 17        	sta	$17                     ; 0x17 <__rc7>
    2017: 64 15        	stz	$15                     ; 0x15 <__rc5>
    2019: a9 00        	lda	#$0
    201b: 92 16        	sta	($16)                   ; 0x16 <__rc6>
    201d: 86 0f        	stx	$f                      ; 0xf
    201f: 58           	cli
    2020: a6 14        	ldx	$14                     ; 0x14 <__rc4>
    2022: e8           	inx
    2023: 86 14        	stx	$14                     ; 0x14 <__rc4>
    2025: e0 03        	cpx	#$3
    2027: f0 03        	beq	$202c <getTheFile_far+0x17b>
    2029: 4c d9 1f     	jmp	$1fd9 <getTheFile_far+0x128>
    202c: a4 12        	ldy	$12                     ; 0x12 <__rc2>
    202e: a6 13        	ldx	$13                     ; 0x13 <__rc3>
    2030: c8           	iny
    2031: d0 01        	bne	$2034 <getTheFile_far+0x183>
    2033: e8           	inx
    2034: 84 12        	sty	$12                     ; 0x12 <__rc2>
    2036: 86 13        	stx	$13                     ; 0x13 <__rc3>
    2038: 8a           	txa
    2039: f0 03        	beq	$203e <getTheFile_far+0x18d>
    203b: 4c bb 1f     	jmp	$1fbb <getTheFile_far+0x10a>
    203e: 84 12        	sty	$12                     ; 0x12 <__rc2>
    2040: 86 13        	stx	$13                     ; 0x13 <__rc3>
    2042: c0 04        	cpy	#$4
    2044: f0 03        	beq	$2049 <getTheFile_far+0x198>
    2046: 4c bb 1f     	jmp	$1fbb <getTheFile_far+0x10a>
    2049: a4 0f        	ldy	$f                      ; 0xf
    204b: 78           	sei
    204c: a2 18        	ldx	#$18
    204e: 86 0f        	stx	$f                      ; 0xf
    2050: a9 01        	lda	#$1
    2052: 8d 00 e0     	sta	$e000                   ; 0xe000 <end_block9+0x5776>
    2055: 84 0f        	sty	$f                      ; 0xf
    2057: 58           	cli
    2058: a4 0f        	ldy	$f                      ; 0xf
    205a: 78           	sei
    205b: 86 0f        	stx	$f                      ; 0xf
    205d: a2 06        	ldx	#$6
    205f: 8e 01 e0     	stx	$e001                   ; 0xe001 <end_block9+0x5777>
    2062: 84 0f        	sty	$f                      ; 0xf
    2064: 58           	cli
    2065: a2 00        	ldx	#$0
    2067: 8a           	txa
    2068: 18           	clc
    2069: 69 4e        	adc	#$4e
    206b: 85 12        	sta	$12                     ; 0x12 <__rc2>
    206d: a9 00        	lda	#$0
    206f: 69 ff        	adc	#$ff
    2071: b4 34        	ldy	$34,x                   ; 0x34 <_ccolor+0x4>
    2073: 84 14        	sty	$14                     ; 0x14 <__rc4>
    2075: 85 13        	sta	$13                     ; 0x13 <__rc3>
    2077: a4 0f        	ldy	$f                      ; 0xf
    2079: 78           	sei
    207a: a9 1a        	lda	#$1a
    207c: 85 0f        	sta	$f                      ; 0xf
    207e: a5 14        	lda	$14                     ; 0x14 <__rc4>
    2080: 92 12        	sta	($12)                   ; 0x12 <__rc2>
    2082: 84 0f        	sty	$f                      ; 0xf
    2084: 58           	cli
    2085: e8           	inx
    2086: e0 03        	cpx	#$3
    2088: d0 dd        	bne	$2067 <getTheFile_far+0x1b6>
    208a: a2 1a        	ldx	#$1a
    208c: a9 00        	lda	#$0
    208e: a0 51        	ldy	#$51
    2090: 84 12        	sty	$12                     ; 0x12 <__rc2>
    2092: a0 ff        	ldy	#$ff
    2094: 84 13        	sty	$13                     ; 0x13 <__rc3>
    2096: a4 0f        	ldy	$f                      ; 0xf
    2098: 78           	sei
    2099: 86 0f        	stx	$f                      ; 0xf
    209b: 92 12        	sta	($12)                   ; 0x12 <__rc2>
    209d: 84 0f        	sty	$f                      ; 0xf
    209f: 58           	cli
    20a0: e6 12        	inc	$12                     ; 0x12 <__rc2>
    20a2: d0 02        	bne	$20a6 <getTheFile_far+0x1f5>
    20a4: e6 13        	inc	$13                     ; 0x13 <__rc3>
    20a6: a4 12        	ldy	$12                     ; 0x12 <__rc2>
    20a8: c0 54        	cpy	#$54
    20aa: d0 ea        	bne	$2096 <getTheFile_far+0x1e5>
    20ac: a0 ff        	ldy	#$ff
    20ae: a2 00        	ldx	#$0
    20b0: a5 0f        	lda	$f                      ; 0xf
    20b2: 85 14        	sta	$14                     ; 0x14 <__rc4>
    20b4: 78           	sei
    20b5: a9 1a        	lda	#$1a
    20b7: 85 0f        	sta	$f                      ; 0xf
    20b9: 8a           	txa
    20ba: 09 54        	ora	#$54
    20bc: 85 12        	sta	$12                     ; 0x12 <__rc2>
    20be: 84 13        	sty	$13                     ; 0x13 <__rc3>
    20c0: a9 00        	lda	#$0
    20c2: 92 12        	sta	($12)                   ; 0x12 <__rc2>
    20c4: a5 14        	lda	$14                     ; 0x14 <__rc4>
    20c6: 85 0f        	sta	$f                      ; 0xf
    20c8: 58           	cli
    20c9: e8           	inx
    20ca: e0 03        	cpx	#$3
    20cc: d0 e2        	bne	$20b0 <getTheFile_far+0x1ff>
    20ce: a2 1a        	ldx	#$1a
    20d0: a9 00        	lda	#$0
    20d2: a0 57        	ldy	#$57
    20d4: 84 12        	sty	$12                     ; 0x12 <__rc2>
    20d6: a0 ff        	ldy	#$ff
    20d8: 84 13        	sty	$13                     ; 0x13 <__rc3>
    20da: a4 0f        	ldy	$f                      ; 0xf
    20dc: 78           	sei
    20dd: 86 0f        	stx	$f                      ; 0xf
    20df: 92 12        	sta	($12)                   ; 0x12 <__rc2>
    20e1: 84 0f        	sty	$f                      ; 0xf
    20e3: 58           	cli
    20e4: e6 12        	inc	$12                     ; 0x12 <__rc2>
    20e6: d0 02        	bne	$20ea <getTheFile_far+0x239>
    20e8: e6 13        	inc	$13                     ; 0x13 <__rc3>
    20ea: a4 12        	ldy	$12                     ; 0x12 <__rc2>
    20ec: c0 5a        	cpy	#$5a
    20ee: d0 ea        	bne	$20da <getTheFile_far+0x229>
    20f0: 20 65 24     	jsr	$2465 <readDirectory_far>
    20f3: 20 6d 29     	jsr	$296d <sortFileList_far>
    20f6: a2 a0        	ldx	#$a0
    20f8: 86 30        	stx	$30                     ; 0x30 <_ccolor>
    20fa: a4 0f        	ldy	$f                      ; 0xf
    20fc: 78           	sei
    20fd: a2 1a        	ldx	#$1a
    20ff: 86 0f        	stx	$f                      ; 0xf
    2101: ad 4a ff     	lda	$ff4a                   ; 0xff4a <end_block9+0x76c0>
    2104: ae 4b ff     	ldx	$ff4b                   ; 0xff4b <end_block9+0x76c1>
    2107: 84 0f        	sty	$f                      ; 0xf
    2109: 58           	cli
    210a: 4c 1c 23     	jmp	$231c <getTheFile_far+0x46b>
    210d: a4 0f        	ldy	$f                      ; 0xf
    210f: 78           	sei
    2110: a9 18        	lda	#$18
    2112: 85 0f        	sta	$f                      ; 0xf
    2114: ae 02 e0     	ldx	$e002                   ; 0xe002 <end_block9+0x5778>
    2117: 84 0f        	sty	$f                      ; 0xf
    2119: 58           	cli
    211a: e0 00        	cpx	#$0
    211c: d0 03        	bne	$2121 <getTheFile_far+0x270>
    211e: 4c 03 23     	jmp	$2303 <getTheFile_far+0x452>
    2121: e0 2f        	cpx	#$2f
    2123: d0 11        	bne	$2136 <getTheFile_far+0x285>
    2125: a6 0f        	ldx	$f                      ; 0xf
    2127: 78           	sei
    2128: 85 0f        	sta	$f                      ; 0xf
    212a: ac 03 e0     	ldy	$e003                   ; 0xe003 <end_block9+0x5779>
    212d: 86 0f        	stx	$f                      ; 0xf
    212f: 58           	cli
    2130: 98           	tya
    2131: d0 03        	bne	$2136 <getTheFile_far+0x285>
    2133: 4c 03 23     	jmp	$2303 <getTheFile_far+0x452>
    2136: a2 ff        	ldx	#$ff
    2138: 86 14        	stx	$14                     ; 0x14 <__rc4>
    213a: e8           	inx
    213b: a0 ff        	ldy	#$ff
    213d: 84 15        	sty	$15                     ; 0x15 <__rc5>
    213f: 80 09        	bra	$214a <getTheFile_far+0x299>
    2141: 64 15        	stz	$15                     ; 0x15 <__rc5>
    2143: 86 14        	stx	$14                     ; 0x14 <__rc4>
    2145: e8           	inx
    2146: e0 3c        	cpx	#$3c
    2148: f0 21        	beq	$216b <getTheFile_far+0x2ba>
    214a: 18           	clc
    214b: 8a           	txa
    214c: 69 02        	adc	#$2
    214e: a4 0f        	ldy	$f                      ; 0xf
    2150: 84 16        	sty	$16                     ; 0x16 <__rc6>
    2152: 78           	sei
    2153: a0 18        	ldy	#$18
    2155: 84 0f        	sty	$f                      ; 0xf
    2157: 85 12        	sta	$12                     ; 0x12 <__rc2>
    2159: a0 e0        	ldy	#$e0
    215b: 84 13        	sty	$13                     ; 0x13 <__rc3>
    215d: b2 12        	lda	($12)                   ; 0x12 <__rc2>
    215f: a4 16        	ldy	$16                     ; 0x16 <__rc6>
    2161: 84 0f        	sty	$f                      ; 0xf
    2163: 58           	cli
    2164: c9 2f        	cmp	#$2f
    2166: f0 d9        	beq	$2141 <getTheFile_far+0x290>
    2168: a8           	tay
    2169: d0 da        	bne	$2145 <getTheFile_far+0x294>
    216b: a6 14        	ldx	$14                     ; 0x14 <__rc4>
    216d: e0 01        	cpx	#$1
    216f: a5 15        	lda	$15                     ; 0x15 <__rc5>
    2171: e9 00        	sbc	#$0
    2173: 50 02        	bvc	$2177 <getTheFile_far+0x2c6>
    2175: 49 80        	eor	#$80
    2177: aa           	tax
    2178: 10 03        	bpl	$217d <getTheFile_far+0x2cc>
    217a: 4c dc 22     	jmp	$22dc <getTheFile_far+0x42b>
    217d: 18           	clc
    217e: a5 14        	lda	$14                     ; 0x14 <__rc4>
    2180: 69 02        	adc	#$2
    2182: 85 12        	sta	$12                     ; 0x12 <__rc2>
    2184: a5 15        	lda	$15                     ; 0x15 <__rc5>
    2186: 69 00        	adc	#$0
    2188: a8           	tay
    2189: a9 00        	lda	#$0
    218b: 69 03        	adc	#$3
    218d: 85 13        	sta	$13                     ; 0x13 <__rc3>
    218f: a6 0f        	ldx	$f                      ; 0xf
    2191: 78           	sei
    2192: 98           	tya
    2193: 0a           	asl
    2194: 26 13        	rol	$13                     ; 0x13 <__rc3>
    2196: 0a           	asl
    2197: 26 13        	rol	$13                     ; 0x13 <__rc3>
    2199: 0a           	asl
    219a: a5 13        	lda	$13                     ; 0x13 <__rc3>
    219c: 2a           	rol
    219d: 85 0f        	sta	$f                      ; 0xf
    219f: 98           	tya
    21a0: 09 e0        	ora	#$e0
    21a2: 85 13        	sta	$13                     ; 0x13 <__rc3>
    21a4: a9 00        	lda	#$0
    21a6: 92 12        	sta	($12)                   ; 0x12 <__rc2>
    21a8: 86 0f        	stx	$f                      ; 0xf
    21aa: 58           	cli
    21ab: 4c 03 23     	jmp	$2303 <getTheFile_far+0x452>
    21ae: a0 00        	ldy	#$0
    21b0: 98           	tya
    21b1: 18           	clc
    21b2: 69 02        	adc	#$2
    21b4: 85 12        	sta	$12                     ; 0x12 <__rc2>
    21b6: a9 00        	lda	#$0
    21b8: 69 e0        	adc	#$e0
    21ba: a6 0f        	ldx	$f                      ; 0xf
    21bc: 86 14        	stx	$14                     ; 0x14 <__rc4>
    21be: 78           	sei
    21bf: a2 18        	ldx	#$18
    21c1: 86 0f        	stx	$f                      ; 0xf
    21c3: 85 13        	sta	$13                     ; 0x13 <__rc3>
    21c5: b2 12        	lda	($12)                   ; 0x12 <__rc2>
    21c7: a6 14        	ldx	$14                     ; 0x14 <__rc4>
    21c9: 86 0f        	stx	$f                      ; 0xf
    21cb: 18           	clc
    21cc: 48           	pha
    21cd: a5 10        	lda	$10                     ; 0x10 <__zp_data_size>
    21cf: 69 f8        	adc	#$f8
    21d1: 85 12        	sta	$12                     ; 0x12 <__rc2>
    21d3: a5 11        	lda	$11                     ; 0x11 <__rc1>
    21d5: 69 00        	adc	#$0
    21d7: 85 13        	sta	$13                     ; 0x13 <__rc3>
    21d9: 68           	pla
    21da: 58           	cli
    21db: 91 12        	sta	($12),y                 ; 0x12 <__rc2>
    21dd: aa           	tax
    21de: f0 05        	beq	$21e5 <getTheFile_far+0x334>
    21e0: c8           	iny
    21e1: c0 3c        	cpy	#$3c
    21e3: d0 cb        	bne	$21b0 <getTheFile_far+0x2ff>
    21e5: a0 00        	ldy	#$0
    21e7: 98           	tya
    21e8: 18           	clc
    21e9: 69 3e        	adc	#$3e
    21eb: 85 12        	sta	$12                     ; 0x12 <__rc2>
    21ed: a9 00        	lda	#$0
    21ef: 69 e0        	adc	#$e0
    21f1: a6 0f        	ldx	$f                      ; 0xf
    21f3: 86 14        	stx	$14                     ; 0x14 <__rc4>
    21f5: 78           	sei
    21f6: a2 18        	ldx	#$18
    21f8: 86 0f        	stx	$f                      ; 0xf
    21fa: 85 13        	sta	$13                     ; 0x13 <__rc3>
    21fc: b2 12        	lda	($12)                   ; 0x12 <__rc2>
    21fe: a6 14        	ldx	$14                     ; 0x14 <__rc4>
    2200: 86 0f        	stx	$f                      ; 0xf
    2202: 18           	clc
    2203: 48           	pha
    2204: a5 10        	lda	$10                     ; 0x10 <__zp_data_size>
    2206: 69 80        	adc	#$80
    2208: 85 12        	sta	$12                     ; 0x12 <__rc2>
    220a: a5 11        	lda	$11                     ; 0x11 <__rc1>
    220c: 69 00        	adc	#$0
    220e: 85 13        	sta	$13                     ; 0x13 <__rc3>
    2210: 68           	pla
    2211: 58           	cli
    2212: 91 12        	sta	($12),y                 ; 0x12 <__rc2>
    2214: aa           	tax
    2215: f0 05        	beq	$221c <getTheFile_far+0x36b>
    2217: c8           	iny
    2218: c0 78        	cpy	#$78
    221a: d0 cb        	bne	$21e7 <getTheFile_far+0x336>
    221c: a6 11        	ldx	$11                     ; 0x11 <__rc1>
    221e: 18           	clc
    221f: a5 10        	lda	$10                     ; 0x10 <__zp_data_size>
    2221: 69 f8        	adc	#$f8
    2223: 48           	pha
    2224: a5 11        	lda	$11                     ; 0x11 <__rc1>
    2226: 69 00        	adc	#$0
    2228: 85 14        	sta	$14                     ; 0x14 <__rc4>
    222a: 68           	pla
    222b: 92 10        	sta	($10)                   ; 0x10 <__zp_data_size>
    222d: a0 01        	ldy	#$1
    222f: a5 14        	lda	$14                     ; 0x14 <__rc4>
    2231: 91 10        	sta	($10),y                 ; 0x10 <__zp_data_size>
    2233: 84 14        	sty	$14                     ; 0x14 <__rc4>
    2235: 18           	clc
    2236: a5 10        	lda	$10                     ; 0x10 <__zp_data_size>
    2238: 69 02        	adc	#$2
    223a: 85 12        	sta	$12                     ; 0x12 <__rc2>
    223c: 8a           	txa
    223d: 69 00        	adc	#$0
    223f: 85 13        	sta	$13                     ; 0x13 <__rc3>
    2241: 18           	clc
    2242: a5 10        	lda	$10                     ; 0x10 <__zp_data_size>
    2244: 69 80        	adc	#$80
    2246: 48           	pha
    2247: a5 11        	lda	$11                     ; 0x11 <__rc1>
    2249: 69 00        	adc	#$0
    224b: 85 15        	sta	$15                     ; 0x15 <__rc5>
    224d: 68           	pla
    224e: c8           	iny
    224f: 91 10        	sta	($10),y                 ; 0x10 <__zp_data_size>
    2251: a4 14        	ldy	$14                     ; 0x14 <__rc4>
    2253: a5 15        	lda	$15                     ; 0x15 <__rc5>
    2255: 91 12        	sta	($12),y                 ; 0x12 <__rc2>
    2257: 18           	clc
    2258: a5 10        	lda	$10                     ; 0x10 <__zp_data_size>
    225a: 69 40        	adc	#$40
    225c: 85 24        	sta	$24                     ; 0x24 <__rc20>
    225e: a5 11        	lda	$11                     ; 0x11 <__rc1>
    2260: 69 00        	adc	#$0
    2262: 85 25        	sta	$25                     ; 0x25 <__rc21>
    2264: a6 24        	ldx	$24                     ; 0x24 <__rc20>
    2266: 86 12        	stx	$12                     ; 0x12 <__rc2>
    2268: 85 13        	sta	$13                     ; 0x13 <__rc3>
    226a: 20 75 74     	jsr	$7475 <sprintf>
    226d: 20 9a 43     	jsr	$439a <reprepFPR_far>
    2270: b2 24        	lda	($24)                   ; 0x24 <__rc20>
    2272: a6 0f        	ldx	$f                      ; 0xf
    2274: 78           	sei
    2275: a0 18        	ldy	#$18
    2277: 84 0f        	sty	$f                      ; 0xf
    2279: 8d 02 e0     	sta	$e002                   ; 0xe002 <end_block9+0x5778>
    227c: 86 0f        	stx	$f                      ; 0xf
    227e: 58           	cli
    227f: a2 00        	ldx	#$0
    2281: 80 3a        	bra	$22bd <getTheFile_far+0x40c>
    2283: 18           	clc
    2284: a5 10        	lda	$10                     ; 0x10 <__zp_data_size>
    2286: 69 40        	adc	#$40
    2288: 85 12        	sta	$12                     ; 0x12 <__rc2>
    228a: a5 11        	lda	$11                     ; 0x11 <__rc1>
    228c: 69 00        	adc	#$0
    228e: 85 13        	sta	$13                     ; 0x13 <__rc3>
    2290: 8a           	txa
    2291: 18           	clc
    2292: 65 12        	adc	$12                     ; 0x12 <__rc2>
    2294: 85 12        	sta	$12                     ; 0x12 <__rc2>
    2296: a5 13        	lda	$13                     ; 0x13 <__rc3>
    2298: 69 00        	adc	#$0
    229a: 85 13        	sta	$13                     ; 0x13 <__rc3>
    229c: 18           	clc
    229d: 8a           	txa
    229e: 69 03        	adc	#$3
    22a0: 85 14        	sta	$14                     ; 0x14 <__rc4>
    22a2: a9 00        	lda	#$0
    22a4: 69 e0        	adc	#$e0
    22a6: 85 15        	sta	$15                     ; 0x15 <__rc5>
    22a8: a0 01        	ldy	#$1
    22aa: b1 12        	lda	($12),y                 ; 0x12 <__rc2>
    22ac: 85 12        	sta	$12                     ; 0x12 <__rc2>
    22ae: a4 0f        	ldy	$f                      ; 0xf
    22b0: 78           	sei
    22b1: a9 18        	lda	#$18
    22b3: 85 0f        	sta	$f                      ; 0xf
    22b5: a5 12        	lda	$12                     ; 0x12 <__rc2>
    22b7: 92 14        	sta	($14)                   ; 0x14 <__rc4>
    22b9: 84 0f        	sty	$f                      ; 0xf
    22bb: 58           	cli
    22bc: e8           	inx
    22bd: a8           	tay
    22be: f0 04        	beq	$22c4 <getTheFile_far+0x413>
    22c0: e0 3b        	cpx	#$3b
    22c2: d0 bf        	bne	$2283 <getTheFile_far+0x3d2>
    22c4: 20 65 24     	jsr	$2465 <readDirectory_far>
    22c7: 20 6d 29     	jsr	$296d <sortFileList_far>
    22ca: a4 0f        	ldy	$f                      ; 0xf
    22cc: 78           	sei
    22cd: a2 1a        	ldx	#$1a
    22cf: 86 0f        	stx	$f                      ; 0xf
    22d1: ad 4a ff     	lda	$ff4a                   ; 0xff4a <end_block9+0x76c0>
    22d4: ae 4b ff     	ldx	$ff4b                   ; 0xff4b <end_block9+0x76c1>
    22d7: 84 0f        	sty	$f                      ; 0xf
    22d9: 58           	cli
    22da: 80 40        	bra	$231c <getTheFile_far+0x46b>
    22dc: a2 00        	ldx	#$0
    22de: a0 18        	ldy	#$18
    22e0: 84 15        	sty	$15                     ; 0x15 <__rc5>
    22e2: a0 e0        	ldy	#$e0
    22e4: 84 14        	sty	$14                     ; 0x14 <__rc4>
    22e6: 18           	clc
    22e7: 8a           	txa
    22e8: 69 02        	adc	#$2
    22ea: 85 12        	sta	$12                     ; 0x12 <__rc2>
    22ec: a4 0f        	ldy	$f                      ; 0xf
    22ee: 78           	sei
    22ef: a5 15        	lda	$15                     ; 0x15 <__rc5>
    22f1: 85 0f        	sta	$f                      ; 0xf
    22f3: a5 14        	lda	$14                     ; 0x14 <__rc4>
    22f5: 85 13        	sta	$13                     ; 0x13 <__rc3>
    22f7: a9 00        	lda	#$0
    22f9: 92 12        	sta	($12)                   ; 0x12 <__rc2>
    22fb: 84 0f        	sty	$f                      ; 0xf
    22fd: 58           	cli
    22fe: e8           	inx
    22ff: e0 3c        	cpx	#$3c
    2301: d0 e3        	bne	$22e6 <getTheFile_far+0x435>
    2303: 20 9a 43     	jsr	$439a <reprepFPR_far>
    2306: 20 65 24     	jsr	$2465 <readDirectory_far>
    2309: 20 6d 29     	jsr	$296d <sortFileList_far>
    230c: a4 0f        	ldy	$f                      ; 0xf
    230e: 78           	sei
    230f: a2 1a        	ldx	#$1a
    2311: 86 0f        	stx	$f                      ; 0xf
    2313: ad 4a ff     	lda	$ff4a                   ; 0xff4a <end_block9+0x76c0>
    2316: ae 4b ff     	ldx	$ff4b                   ; 0xff4b <end_block9+0x76c1>
    2319: 84 0f        	sty	$f                      ; 0xf
    231b: 58           	cli
    231c: 20 24 2f     	jsr	$2f24 <displayFileList_far>
    231f: 20 71 33     	jsr	$3371 <pickFile_far>
    2322: c9 04        	cmp	#$4
    2324: b0 f9        	bcs	$231f <getTheFile_far+0x46e>
    2326: 0a           	asl
    2327: aa           	tax
    2328: 7c e0 7b     	jmp	($7be0,x)               ; 0x7be0 <__BLOCK_SIZE+0x5be0>
    232b: a5 0f        	lda	$f                      ; 0xf
    232d: 78           	sei
    232e: a0 18        	ldy	#$18
    2330: 84 0f        	sty	$f                      ; 0xf
    2332: ae 00 e0     	ldx	$e000                   ; 0xe000 <end_block9+0x5776>
    2335: 85 0f        	sta	$f                      ; 0xf
    2337: 58           	cli
    2338: a5 0f        	lda	$f                      ; 0xf
    233a: 78           	sei
    233b: 84 0f        	sty	$f                      ; 0xf
    233d: ac 01 e0     	ldy	$e001                   ; 0xe001 <end_block9+0x5777>
    2340: 85 0f        	sta	$f                      ; 0xf
    2342: 58           	cli
    2343: 86 40        	stx	$40                     ; 0x40 <_col>
    2345: 8e 14 d0     	stx	$d014                   ; 0xd014 <end_block9+0x478a>
    2348: 9c 15 d0     	stz	$d015                   ; 0xd015 <end_block9+0x478b>
    234b: 84 41        	sty	$41                     ; 0x41 <_row>
    234d: 8c 16 d0     	sty	$d016                   ; 0xd016 <end_block9+0x478c>
    2350: 9c 17 d0     	stz	$d017                   ; 0xd017 <end_block9+0x478d>
    2353: 20 b0 44     	jsr	$44b0 <wipeArea_far>
    2356: 64 30        	stz	$30                     ; 0x30 <_ccolor>
    2358: a2 02        	ldx	#$2
    235a: 64 40        	stz	$40                     ; 0x40 <_col>
    235c: 9c 14 d0     	stz	$d014                   ; 0xd014 <end_block9+0x478a>
    235f: 9c 15 d0     	stz	$d015                   ; 0xd015 <end_block9+0x478b>
    2362: 86 41        	stx	$41                     ; 0x41 <_row>
    2364: 8e 16 d0     	stx	$d016                   ; 0xd016 <end_block9+0x478c>
    2367: 9c 17 d0     	stz	$d017                   ; 0xd017 <end_block9+0x478d>
    236a: 86 24        	stx	$24                     ; 0x24 <__rc20>
    236c: a2 63        	ldx	#$63
    236e: 86 12        	stx	$12                     ; 0x12 <__rc2>
    2370: a2 7d        	ldx	#$7d
    2372: 86 13        	stx	$13                     ; 0x13 <__rc3>
    2374: 20 e5 73     	jsr	$73e5 <printf>
    2377: a6 24        	ldx	$24                     ; 0x24 <__rc20>
    2379: e8           	inx
    237a: e0 06        	cpx	#$6
    237c: d0 dc        	bne	$235a <getTheFile_far+0x4a9>
    237e: a2 f0        	ldx	#$f0
    2380: 86 30        	stx	$30                     ; 0x30 <_ccolor>
    2382: a0 00        	ldy	#$0
    2384: 98           	tya
    2385: 18           	clc
    2386: 69 02        	adc	#$2
    2388: 85 12        	sta	$12                     ; 0x12 <__rc2>
    238a: a9 00        	lda	#$0
    238c: 69 e0        	adc	#$e0
    238e: a6 0f        	ldx	$f                      ; 0xf
    2390: 86 14        	stx	$14                     ; 0x14 <__rc4>
    2392: 78           	sei
    2393: a2 18        	ldx	#$18
    2395: 86 0f        	stx	$f                      ; 0xf
    2397: 85 13        	sta	$13                     ; 0x13 <__rc3>
    2399: b2 12        	lda	($12)                   ; 0x12 <__rc2>
    239b: a6 14        	ldx	$14                     ; 0x14 <__rc4>
    239d: 86 0f        	stx	$f                      ; 0xf
    239f: 18           	clc
    23a0: 48           	pha
    23a1: a5 10        	lda	$10                     ; 0x10 <__zp_data_size>
    23a3: 69 40        	adc	#$40
    23a5: 85 12        	sta	$12                     ; 0x12 <__rc2>
    23a7: a5 11        	lda	$11                     ; 0x11 <__rc1>
    23a9: 69 00        	adc	#$0
    23ab: 85 13        	sta	$13                     ; 0x13 <__rc3>
    23ad: 68           	pla
    23ae: 58           	cli
    23af: 91 12        	sta	($12),y                 ; 0x12 <__rc2>
    23b1: aa           	tax
    23b2: f0 0b        	beq	$23bf <getTheFile_far+0x50e>
    23b4: c8           	iny
    23b5: c0 3c        	cpy	#$3c
    23b7: d0 cb        	bne	$2384 <getTheFile_far+0x4d3>
    23b9: a0 3b        	ldy	#$3b
    23bb: a9 00        	lda	#$0
    23bd: 91 12        	sta	($12),y                 ; 0x12 <__rc2>
    23bf: a0 00        	ldy	#$0
    23c1: 18           	clc
    23c2: a5 10        	lda	$10                     ; 0x10 <__zp_data_size>
    23c4: 69 80        	adc	#$80
    23c6: 85 12        	sta	$12                     ; 0x12 <__rc2>
    23c8: a2 01        	ldx	#$1
    23ca: b0 02        	bcs	$23ce <getTheFile_far+0x51d>
    23cc: a2 00        	ldx	#$0
    23ce: 86 16        	stx	$16                     ; 0x16 <__rc6>
    23d0: 98           	tya
    23d1: 18           	clc
    23d2: 69 3e        	adc	#$3e
    23d4: 85 14        	sta	$14                     ; 0x14 <__rc4>
    23d6: a9 00        	lda	#$0
    23d8: 69 e0        	adc	#$e0
    23da: a6 0f        	ldx	$f                      ; 0xf
    23dc: 86 13        	stx	$13                     ; 0x13 <__rc3>
    23de: 78           	sei
    23df: a2 18        	ldx	#$18
    23e1: 86 0f        	stx	$f                      ; 0xf
    23e3: 85 15        	sta	$15                     ; 0x15 <__rc5>
    23e5: b2 14        	lda	($14)                   ; 0x14 <__rc4>
    23e7: a6 13        	ldx	$13                     ; 0x13 <__rc3>
    23e9: 86 0f        	stx	$f                      ; 0xf
    23eb: 58           	cli
    23ec: a6 16        	ldx	$16                     ; 0x16 <__rc6>
    23ee: e0 01        	cpx	#$1
    23f0: 48           	pha
    23f1: a5 11        	lda	$11                     ; 0x11 <__rc1>
    23f3: 69 00        	adc	#$0
    23f5: 85 13        	sta	$13                     ; 0x13 <__rc3>
    23f7: 68           	pla
    23f8: 91 12        	sta	($12),y                 ; 0x12 <__rc2>
    23fa: f0 05        	beq	$2401 <getTheFile_far+0x550>
    23fc: c8           	iny
    23fd: c0 78        	cpy	#$78
    23ff: d0 cf        	bne	$23d0 <getTheFile_far+0x51f>
    2401: a6 11        	ldx	$11                     ; 0x11 <__rc1>
    2403: 18           	clc
    2404: a5 10        	lda	$10                     ; 0x10 <__zp_data_size>
    2406: 69 40        	adc	#$40
    2408: 48           	pha
    2409: a5 11        	lda	$11                     ; 0x11 <__rc1>
    240b: 69 00        	adc	#$0
    240d: 85 12        	sta	$12                     ; 0x12 <__rc2>
    240f: 68           	pla
    2410: 92 10        	sta	($10)                   ; 0x10 <__zp_data_size>
    2412: a0 01        	ldy	#$1
    2414: a5 12        	lda	$12                     ; 0x12 <__rc2>
    2416: 91 10        	sta	($10),y                 ; 0x10 <__zp_data_size>
    2418: 84 14        	sty	$14                     ; 0x14 <__rc4>
    241a: 18           	clc
    241b: a5 10        	lda	$10                     ; 0x10 <__zp_data_size>
    241d: 69 02        	adc	#$2
    241f: 85 12        	sta	$12                     ; 0x12 <__rc2>
    2421: 8a           	txa
    2422: 69 00        	adc	#$0
    2424: 85 13        	sta	$13                     ; 0x13 <__rc3>
    2426: 18           	clc
    2427: a5 10        	lda	$10                     ; 0x10 <__zp_data_size>
    2429: 69 80        	adc	#$80
    242b: 48           	pha
    242c: a5 11        	lda	$11                     ; 0x11 <__rc1>
    242e: 69 00        	adc	#$0
    2430: 85 15        	sta	$15                     ; 0x15 <__rc5>
    2432: 68           	pla
    2433: c8           	iny
    2434: 91 10        	sta	($10),y                 ; 0x10 <__zp_data_size>
    2436: a4 14        	ldy	$14                     ; 0x14 <__rc4>
    2438: a5 15        	lda	$15                     ; 0x15 <__rc5>
    243a: 91 12        	sta	($12),y                 ; 0x12 <__rc2>
    243c: a2 12        	ldx	#$12
    243e: 86 12        	stx	$12                     ; 0x12 <__rc2>
    2440: a2 88        	ldx	#$88
    2442: 86 13        	stx	$13                     ; 0x13 <__rc3>
    2444: 20 75 74     	jsr	$7475 <sprintf>
    2447: a9 00        	lda	#$0
    2449: 80 02        	bra	$244d <getTheFile_far+0x59c>
    244b: a9 01        	lda	#$1
    244d: 85 20        	sta	$20                     ; 0x20 <__rc16>
    244f: fa           	plx
    2450: 86 25        	stx	$25                     ; 0x25 <__rc21>
    2452: fa           	plx
    2453: 86 24        	stx	$24                     ; 0x24 <__rc20>
    2455: 18           	clc
    2456: a5 10        	lda	$10                     ; 0x10 <__zp_data_size>
    2458: 69 34        	adc	#$34
    245a: 85 10        	sta	$10                     ; 0x10 <__zp_data_size>
    245c: a5 11        	lda	$11                     ; 0x11 <__rc1>
    245e: 69 01        	adc	#$1
    2460: 85 11        	sta	$11                     ; 0x11 <__rc1>
    2462: a5 20        	lda	$20                     ; 0x20 <__rc16>
    2464: 60           	rts

00002465 <readDirectory_far>:
    2465: 18           	clc
    2466: a5 10        	lda	$10                     ; 0x10 <__zp_data_size>
    2468: 69 bc        	adc	#$bc
    246a: 85 10        	sta	$10                     ; 0x10 <__zp_data_size>
    246c: a5 11        	lda	$11                     ; 0x11 <__rc1>
    246e: 69 ff        	adc	#$ff
    2470: 85 11        	sta	$11                     ; 0x11 <__rc1>
    2472: a6 24        	ldx	$24                     ; 0x24 <__rc20>
    2474: da           	phx
    2475: a6 25        	ldx	$25                     ; 0x25 <__rc21>
    2477: da           	phx
    2478: a6 26        	ldx	$26                     ; 0x26 <__rc22>
    247a: da           	phx
    247b: a6 27        	ldx	$27                     ; 0x27 <__rc23>
    247d: da           	phx
    247e: a5 28        	lda	$28                     ; 0x28 <__rc24>
    2480: a0 03        	ldy	#$3
    2482: 91 10        	sta	($10),y                 ; 0x10 <__zp_data_size>
    2484: a5 29        	lda	$29                     ; 0x29 <__rc25>
    2486: 88           	dey
    2487: 91 10        	sta	($10),y                 ; 0x10 <__zp_data_size>
    2489: a5 2a        	lda	$2a                     ; 0x2a <__rc26>
    248b: 88           	dey
    248c: 91 10        	sta	($10),y                 ; 0x10 <__zp_data_size>
    248e: a5 2b        	lda	$2b                     ; 0x2b <__rc27>
    2490: 88           	dey
    2491: 91 10        	sta	($10),y                 ; 0x10 <__zp_data_size>
    2493: a0 00        	ldy	#$0
    2495: 18           	clc
    2496: a5 10        	lda	$10                     ; 0x10 <__zp_data_size>
    2498: 69 04        	adc	#$4
    249a: 85 12        	sta	$12                     ; 0x12 <__rc2>
    249c: a2 01        	ldx	#$1
    249e: b0 02        	bcs	$24a2 <readDirectory_far+0x3d>
    24a0: a2 00        	ldx	#$0
    24a2: 86 16        	stx	$16                     ; 0x16 <__rc6>
    24a4: 98           	tya
    24a5: 18           	clc
    24a6: 69 02        	adc	#$2
    24a8: 85 14        	sta	$14                     ; 0x14 <__rc4>
    24aa: a9 00        	lda	#$0
    24ac: 69 e0        	adc	#$e0
    24ae: a6 0f        	ldx	$f                      ; 0xf
    24b0: 86 13        	stx	$13                     ; 0x13 <__rc3>
    24b2: 78           	sei
    24b3: a2 18        	ldx	#$18
    24b5: 86 0f        	stx	$f                      ; 0xf
    24b7: 85 15        	sta	$15                     ; 0x15 <__rc5>
    24b9: b2 14        	lda	($14)                   ; 0x14 <__rc4>
    24bb: a6 13        	ldx	$13                     ; 0x13 <__rc3>
    24bd: 86 0f        	stx	$f                      ; 0xf
    24bf: 58           	cli
    24c0: a6 16        	ldx	$16                     ; 0x16 <__rc6>
    24c2: e0 01        	cpx	#$1
    24c4: 48           	pha
    24c5: a5 11        	lda	$11                     ; 0x11 <__rc1>
    24c7: 69 00        	adc	#$0
    24c9: 85 13        	sta	$13                     ; 0x13 <__rc3>
    24cb: 68           	pla
    24cc: 91 12        	sta	($12),y                 ; 0x12 <__rc2>
    24ce: f0 05        	beq	$24d5 <readDirectory_far+0x70>
    24d0: c8           	iny
    24d1: c0 3c        	cpy	#$3c
    24d3: d0 cf        	bne	$24a4 <readDirectory_far+0x3f>
    24d5: 20 2c 1a     	jsr	$1a2c <fileOpenDir>
    24d8: a6 12        	ldx	$12                     ; 0x12 <__rc2>
    24da: 86 24        	stx	$24                     ; 0x24 <__rc20>
    24dc: a6 13        	ldx	$13                     ; 0x13 <__rc3>
    24de: 86 25        	stx	$25                     ; 0x25 <__rc21>
    24e0: a2 00        	ldx	#$0
    24e2: 86 12        	stx	$12                     ; 0x12 <__rc2>
    24e4: a2 00        	ldx	#$0
    24e6: 86 13        	stx	$13                     ; 0x13 <__rc3>
    24e8: a6 25        	ldx	$25                     ; 0x25 <__rc21>
    24ea: e4 13        	cpx	$13                     ; 0x13 <__rc3>
    24ec: d0 09        	bne	$24f7 <readDirectory_far+0x92>
    24ee: a6 24        	ldx	$24                     ; 0x24 <__rc20>
    24f0: e4 12        	cpx	$12                     ; 0x12 <__rc2>
    24f2: d0 03        	bne	$24f7 <readDirectory_far+0x92>
    24f4: 4c 3e 29     	jmp	$293e <readDirectory_far+0x4d9>
    24f7: a6 24        	ldx	$24                     ; 0x24 <__rc20>
    24f9: 86 12        	stx	$12                     ; 0x12 <__rc2>
    24fb: a6 25        	ldx	$25                     ; 0x25 <__rc21>
    24fd: 86 13        	stx	$13                     ; 0x13 <__rc3>
    24ff: 20 76 1d     	jsr	$1d76 <fileReadDir>
    2502: a2 01        	ldx	#$1
    2504: 86 26        	stx	$26                     ; 0x26 <__rc22>
    2506: 86 29        	stx	$29                     ; 0x29 <__rc25>
    2508: ca           	dex
    2509: 4c ad 28     	jmp	$28ad <readDirectory_far+0x448>
    250c: a5 2a        	lda	$2a                     ; 0x2a <__rc26>
    250e: f0 03        	beq	$2513 <readDirectory_far+0xae>
    2510: 4c c8 28     	jmp	$28c8 <readDirectory_far+0x463>
    2513: a2 03        	ldx	#$3
    2515: 86 28        	stx	$28                     ; 0x28 <__rc24>
    2517: a2 01        	ldx	#$1
    2519: 86 2b        	stx	$2b                     ; 0x2b <__rc27>
    251b: a6 24        	ldx	$24                     ; 0x24 <__rc20>
    251d: 86 12        	stx	$12                     ; 0x12 <__rc2>
    251f: a6 25        	ldx	$25                     ; 0x25 <__rc21>
    2521: 86 13        	stx	$13                     ; 0x13 <__rc3>
    2523: 20 76 1d     	jsr	$1d76 <fileReadDir>
    2526: a2 00        	ldx	#$0
    2528: 86 14        	stx	$14                     ; 0x14 <__rc4>
    252a: a2 00        	ldx	#$0
    252c: 86 15        	stx	$15                     ; 0x15 <__rc5>
    252e: a6 13        	ldx	$13                     ; 0x13 <__rc3>
    2530: e4 15        	cpx	$15                     ; 0x15 <__rc5>
    2532: d0 0c        	bne	$2540 <readDirectory_far+0xdb>
    2534: a6 12        	ldx	$12                     ; 0x12 <__rc2>
    2536: a4 2b        	ldy	$2b                     ; 0x2b <__rc27>
    2538: e4 14        	cpx	$14                     ; 0x14 <__rc4>
    253a: d0 06        	bne	$2542 <readDirectory_far+0xdd>
    253c: a0 00        	ldy	#$0
    253e: 80 02        	bra	$2542 <readDirectory_far+0xdd>
    2540: a4 2b        	ldy	$2b                     ; 0x2b <__rc27>
    2542: 98           	tya
    2543: d0 03        	bne	$2548 <readDirectory_far+0xe3>
    2545: 4c d1 28     	jmp	$28d1 <readDirectory_far+0x46c>
    2548: a0 02        	ldy	#$2
    254a: b1 12        	lda	($12),y                 ; 0x12 <__rc2>
    254c: c9 2e        	cmp	#$2e
    254e: d0 18        	bne	$2568 <readDirectory_far+0x103>
    2550: a4 28        	ldy	$28                     ; 0x28 <__rc24>
    2552: a6 27        	ldx	$27                     ; 0x27 <__rc23>
    2554: b1 12        	lda	($12),y                 ; 0x12 <__rc2>
    2556: d0 03        	bne	$255b <readDirectory_far+0xf6>
    2558: 4c b9 28     	jmp	$28b9 <readDirectory_far+0x454>
    255b: c9 2e        	cmp	#$2e
    255d: d0 09        	bne	$2568 <readDirectory_far+0x103>
    255f: a0 04        	ldy	#$4
    2561: b1 12        	lda	($12),y                 ; 0x12 <__rc2>
    2563: d0 03        	bne	$2568 <readDirectory_far+0x103>
    2565: 4c b9 28     	jmp	$28b9 <readDirectory_far+0x454>
    2568: a5 12        	lda	$12                     ; 0x12 <__rc2>
    256a: 18           	clc
    256b: 69 02        	adc	#$2
    256d: 85 14        	sta	$14                     ; 0x14 <__rc4>
    256f: a5 13        	lda	$13                     ; 0x13 <__rc3>
    2571: 69 00        	adc	#$0
    2573: 85 15        	sta	$15                     ; 0x15 <__rc5>
    2575: 64 16        	stz	$16                     ; 0x16 <__rc6>
    2577: 64 17        	stz	$17                     ; 0x17 <__rc7>
    2579: a5 16        	lda	$16                     ; 0x16 <__rc6>
    257b: 0a           	asl
    257c: a6 17        	ldx	$17                     ; 0x17 <__rc7>
    257e: 86 18        	stx	$18                     ; 0x18 <__rc8>
    2580: 26 18        	rol	$18                     ; 0x18 <__rc8>
    2582: 18           	clc
    2583: a2 00        	ldx	#$0
    2585: 86 1a        	stx	$1a                     ; 0x1a <__rc10>
    2587: 65 16        	adc	$16                     ; 0x16 <__rc6>
    2589: aa           	tax
    258a: a5 18        	lda	$18                     ; 0x18 <__rc8>
    258c: 65 17        	adc	$17                     ; 0x17 <__rc7>
    258e: 85 18        	sta	$18                     ; 0x18 <__rc8>
    2590: 18           	clc
    2591: 8a           	txa
    2592: 69 4e        	adc	#$4e
    2594: a8           	tay
    2595: a5 18        	lda	$18                     ; 0x18 <__rc8>
    2597: 69 5f        	adc	#$5f
    2599: 85 19        	sta	$19                     ; 0x19 <__rc9>
    259b: a9 00        	lda	#$0
    259d: 69 03        	adc	#$3
    259f: a6 19        	ldx	$19                     ; 0x19 <__rc9>
    25a1: 86 18        	stx	$18                     ; 0x18 <__rc8>
    25a3: 06 18        	asl	$18                     ; 0x18 <__rc8>
    25a5: 85 1d        	sta	$1d                     ; 0x1d <__rc13>
    25a7: 2a           	rol
    25a8: 06 18        	asl	$18                     ; 0x18 <__rc8>
    25aa: 2a           	rol
    25ab: 06 18        	asl	$18                     ; 0x18 <__rc8>
    25ad: 2a           	rol
    25ae: a6 0f        	ldx	$f                      ; 0xf
    25b0: 78           	sei
    25b1: 85 0f        	sta	$f                      ; 0xf
    25b3: a5 19        	lda	$19                     ; 0x19 <__rc9>
    25b5: 85 1c        	sta	$1c                     ; 0x1c <__rc12>
    25b7: 09 e0        	ora	#$e0
    25b9: 84 18        	sty	$18                     ; 0x18 <__rc8>
    25bb: 85 19        	sta	$19                     ; 0x19 <__rc9>
    25bd: b2 18        	lda	($18)                   ; 0x18 <__rc8>
    25bf: 86 0f        	stx	$f                      ; 0xf
    25c1: 58           	cli
    25c2: aa           	tax
    25c3: d0 03        	bne	$25c8 <readDirectory_far+0x163>
    25c5: 4c 57 27     	jmp	$2757 <readDirectory_far+0x2f2>
    25c8: 84 1b        	sty	$1b                     ; 0x1b <__rc11>
    25ca: a0 00        	ldy	#$0
    25cc: a6 1a        	ldx	$1a                     ; 0x1a <__rc10>
    25ce: 86 1e        	stx	$1e                     ; 0x1e <__rc14>
    25d0: a6 1b        	ldx	$1b                     ; 0x1b <__rc11>
    25d2: 86 1a        	stx	$1a                     ; 0x1a <__rc10>
    25d4: a6 1c        	ldx	$1c                     ; 0x1c <__rc12>
    25d6: 86 1b        	stx	$1b                     ; 0x1b <__rc11>
    25d8: a6 1d        	ldx	$1d                     ; 0x1d <__rc13>
    25da: 86 1c        	stx	$1c                     ; 0x1c <__rc12>
    25dc: 84 18        	sty	$18                     ; 0x18 <__rc8>
    25de: a5 1a        	lda	$1a                     ; 0x1a <__rc10>
    25e0: 5a           	phy
    25e1: a6 1e        	ldx	$1e                     ; 0x1e <__rc14>
    25e3: e0 01        	cpx	#$1
    25e5: 65 18        	adc	$18                     ; 0x18 <__rc8>
    25e7: 85 19        	sta	$19                     ; 0x19 <__rc9>
    25e9: a5 1b        	lda	$1b                     ; 0x1b <__rc11>
    25eb: 69 00        	adc	#$0
    25ed: 85 1d        	sta	$1d                     ; 0x1d <__rc13>
    25ef: a5 1c        	lda	$1c                     ; 0x1c <__rc12>
    25f1: 69 00        	adc	#$0
    25f3: a6 1d        	ldx	$1d                     ; 0x1d <__rc13>
    25f5: 86 18        	stx	$18                     ; 0x18 <__rc8>
    25f7: 06 18        	asl	$18                     ; 0x18 <__rc8>
    25f9: 2a           	rol
    25fa: 06 18        	asl	$18                     ; 0x18 <__rc8>
    25fc: 2a           	rol
    25fd: 06 18        	asl	$18                     ; 0x18 <__rc8>
    25ff: 2a           	rol
    2600: a6 0f        	ldx	$f                      ; 0xf
    2602: 78           	sei
    2603: 85 0f        	sta	$f                      ; 0xf
    2605: a5 1d        	lda	$1d                     ; 0x1d <__rc13>
    2607: 09 e0        	ora	#$e0
    2609: a4 19        	ldy	$19                     ; 0x19 <__rc9>
    260b: 84 18        	sty	$18                     ; 0x18 <__rc8>
    260d: 7a           	ply
    260e: 85 19        	sta	$19                     ; 0x19 <__rc9>
    2610: b2 18        	lda	($18)                   ; 0x18 <__rc8>
    2612: 86 0f        	stx	$f                      ; 0xf
    2614: 18           	clc
    2615: 48           	pha
    2616: a5 10        	lda	$10                     ; 0x10 <__zp_data_size>
    2618: 69 40        	adc	#$40
    261a: 85 18        	sta	$18                     ; 0x18 <__rc8>
    261c: a5 11        	lda	$11                     ; 0x11 <__rc1>
    261e: 69 00        	adc	#$0
    2620: 85 19        	sta	$19                     ; 0x19 <__rc9>
    2622: 68           	pla
    2623: 58           	cli
    2624: 91 18        	sta	($18),y                 ; 0x18 <__rc8>
    2626: c8           	iny
    2627: c0 03        	cpy	#$3
    2629: f0 03        	beq	$262e <readDirectory_far+0x1c9>
    262b: 4c dc 25     	jmp	$25dc <readDirectory_far+0x177>
    262e: b8           	clv
    262f: a0 03        	ldy	#$3
    2631: a9 00        	lda	#$0
    2633: 91 18        	sta	($18),y                 ; 0x18 <__rc8>
    2635: 88           	dey
    2636: a2 02        	ldx	#$2
    2638: b1 12        	lda	($12),y                 ; 0x12 <__rc2>
    263a: d0 03        	bne	$263f <readDirectory_far+0x1da>
    263c: 4c 57 27     	jmp	$2757 <readDirectory_far+0x2f2>
    263f: 86 1e        	stx	$1e                     ; 0x1e <__rc14>
    2641: 85 22        	sta	$22                     ; 0x22 <__rc18>
    2643: a0 00        	ldy	#$0
    2645: a2 00        	ldx	#$0
    2647: a9 01        	lda	#$1
    2649: 70 02        	bvs	$264d <readDirectory_far+0x1e8>
    264b: a9 00        	lda	#$0
    264d: 85 1c        	sta	$1c                     ; 0x1c <__rc12>
    264f: a9 03        	lda	#$3
    2651: 85 1d        	sta	$1d                     ; 0x1d <__rc13>
    2653: 86 1a        	stx	$1a                     ; 0x1a <__rc10>
    2655: 98           	tya
    2656: aa           	tax
    2657: a4 1a        	ldy	$1a                     ; 0x1a <__rc10>
    2659: e8           	inx
    265a: d0 01        	bne	$265d <readDirectory_far+0x1f8>
    265c: c8           	iny
    265d: 48           	pha
    265e: a5 1c        	lda	$1c                     ; 0x1c <__rc12>
    2660: c9 01        	cmp	#$1
    2662: 68           	pla
    2663: 65 12        	adc	$12                     ; 0x12 <__rc2>
    2665: 85 23        	sta	$23                     ; 0x23 <__rc19>
    2667: a5 1a        	lda	$1a                     ; 0x1a <__rc10>
    2669: 65 13        	adc	$13                     ; 0x13 <__rc3>
    266b: 86 1f        	stx	$1f                     ; 0x1f <__rc15>
    266d: a6 23        	ldx	$23                     ; 0x23 <__rc19>
    266f: 86 1a        	stx	$1a                     ; 0x1a <__rc10>
    2671: 5a           	phy
    2672: fa           	plx
    2673: 85 1b        	sta	$1b                     ; 0x1b <__rc11>
    2675: a4 1d        	ldy	$1d                     ; 0x1d <__rc13>
    2677: b1 1a        	lda	($1a),y                 ; 0x1a <__rc10>
    2679: a4 1f        	ldy	$1f                     ; 0x1f <__rc15>
    267b: c9 00        	cmp	#$0
    267d: d0 d4        	bne	$2653 <readDirectory_far+0x1ee>
    267f: a9 00        	lda	#$0
    2681: 85 1f        	sta	$1f                     ; 0x1f <__rc15>
    2683: 8a           	txa
    2684: d0 34        	bne	$26ba <readDirectory_far+0x255>
    2686: c0 04        	cpy	#$4
    2688: b0 37        	bcs	$26c1 <readDirectory_far+0x25c>
    268a: 4c 57 27     	jmp	$2757 <readDirectory_far+0x2f2>
    268d: c0 03        	cpy	#$3
    268f: d0 03        	bne	$2694 <readDirectory_far+0x22f>
    2691: 4c 89 27     	jmp	$2789 <readDirectory_far+0x324>
    2694: b1 1a        	lda	($1a),y                 ; 0x1a <__rc10>
    2696: c9 41        	cmp	#$41
    2698: 90 06        	bcc	$26a0 <readDirectory_far+0x23b>
    269a: c9 5b        	cmp	#$5b
    269c: b0 02        	bcs	$26a0 <readDirectory_far+0x23b>
    269e: 09 20        	ora	#$20
    26a0: 85 1d        	sta	$1d                     ; 0x1d <__rc13>
    26a2: b1 18        	lda	($18),y                 ; 0x18 <__rc8>
    26a4: c9 41        	cmp	#$41
    26a6: 90 06        	bcc	$26ae <readDirectory_far+0x249>
    26a8: c9 5b        	cmp	#$5b
    26aa: b0 02        	bcs	$26ae <readDirectory_far+0x249>
    26ac: 09 20        	ora	#$20
    26ae: 85 1c        	sta	$1c                     ; 0x1c <__rc12>
    26b0: c8           	iny
    26b1: a6 1d        	ldx	$1d                     ; 0x1d <__rc13>
    26b3: e4 1c        	cpx	$1c                     ; 0x1c <__rc12>
    26b5: f0 d6        	beq	$268d <readDirectory_far+0x228>
    26b7: 4c 57 27     	jmp	$2757 <readDirectory_far+0x2f2>
    26ba: e0 00        	cpx	#$0
    26bc: b0 03        	bcs	$26c1 <readDirectory_far+0x25c>
    26be: 4c 57 27     	jmp	$2757 <readDirectory_far+0x2f2>
    26c1: a2 00        	ldx	#$0
    26c3: 86 1c        	stx	$1c                     ; 0x1c <__rc12>
    26c5: a2 00        	ldx	#$0
    26c7: 86 1d        	stx	$1d                     ; 0x1d <__rc13>
    26c9: a5 22        	lda	$22                     ; 0x22 <__rc18>
    26cb: a6 14        	ldx	$14                     ; 0x14 <__rc4>
    26cd: 86 1a        	stx	$1a                     ; 0x1a <__rc10>
    26cf: a6 15        	ldx	$15                     ; 0x15 <__rc5>
    26d1: 86 1b        	stx	$1b                     ; 0x1b <__rc11>
    26d3: a4 29        	ldy	$29                     ; 0x29 <__rc25>
    26d5: c9 2e        	cmp	#$2e
    26d7: d0 08        	bne	$26e1 <readDirectory_far+0x27c>
    26d9: a6 1a        	ldx	$1a                     ; 0x1a <__rc10>
    26db: 86 1c        	stx	$1c                     ; 0x1c <__rc12>
    26dd: a6 1b        	ldx	$1b                     ; 0x1b <__rc11>
    26df: 86 1d        	stx	$1d                     ; 0x1d <__rc13>
    26e1: b1 1a        	lda	($1a),y                 ; 0x1a <__rc10>
    26e3: e6 1a        	inc	$1a                     ; 0x1a <__rc10>
    26e5: d0 02        	bne	$26e9 <readDirectory_far+0x284>
    26e7: e6 1b        	inc	$1b                     ; 0x1b <__rc11>
    26e9: aa           	tax
    26ea: d0 e9        	bne	$26d5 <readDirectory_far+0x270>
    26ec: a2 01        	ldx	#$1
    26ee: 86 29        	stx	$29                     ; 0x29 <__rc25>
    26f0: ca           	dex
    26f1: 86 1a        	stx	$1a                     ; 0x1a <__rc10>
    26f3: a2 00        	ldx	#$0
    26f5: 86 1b        	stx	$1b                     ; 0x1b <__rc11>
    26f7: a6 1d        	ldx	$1d                     ; 0x1d <__rc13>
    26f9: e4 1b        	cpx	$1b                     ; 0x1b <__rc11>
    26fb: d0 09        	bne	$2706 <readDirectory_far+0x2a1>
    26fd: a6 1c        	ldx	$1c                     ; 0x1c <__rc12>
    26ff: e4 1a        	cpx	$1a                     ; 0x1a <__rc10>
    2701: d0 03        	bne	$2706 <readDirectory_far+0x2a1>
    2703: 4c 57 27     	jmp	$2757 <readDirectory_far+0x2f2>
    2706: a6 1c        	ldx	$1c                     ; 0x1c <__rc12>
    2708: 86 1a        	stx	$1a                     ; 0x1a <__rc10>
    270a: a6 1d        	ldx	$1d                     ; 0x1d <__rc13>
    270c: 86 1b        	stx	$1b                     ; 0x1b <__rc11>
    270e: e6 1a        	inc	$1a                     ; 0x1a <__rc10>
    2710: d0 02        	bne	$2714 <readDirectory_far+0x2af>
    2712: e6 1b        	inc	$1b                     ; 0x1b <__rc11>
    2714: a0 01        	ldy	#$1
    2716: a2 01        	ldx	#$1
    2718: 86 29        	stx	$29                     ; 0x29 <__rc25>
    271a: b1 1c        	lda	($1c),y                 ; 0x1c <__rc12>
    271c: f0 39        	beq	$2757 <readDirectory_far+0x2f2>
    271e: a0 00        	ldy	#$0
    2720: a2 00        	ldx	#$0
    2722: a5 1e        	lda	$1e                     ; 0x1e <__rc14>
    2724: 85 23        	sta	$23                     ; 0x23 <__rc19>
    2726: a5 1f        	lda	$1f                     ; 0x1f <__rc15>
    2728: 85 28        	sta	$28                     ; 0x28 <__rc24>
    272a: 98           	tya
    272b: 5a           	phy
    272c: a4 28        	ldy	$28                     ; 0x28 <__rc24>
    272e: c0 01        	cpy	#$1
    2730: 7a           	ply
    2731: 65 1c        	adc	$1c                     ; 0x1c <__rc12>
    2733: 85 2b        	sta	$2b                     ; 0x2b <__rc27>
    2735: 8a           	txa
    2736: 65 1d        	adc	$1d                     ; 0x1d <__rc13>
    2738: c8           	iny
    2739: d0 01        	bne	$273c <readDirectory_far+0x2d7>
    273b: e8           	inx
    273c: 48           	pha
    273d: a5 2b        	lda	$2b                     ; 0x2b <__rc27>
    273f: 85 1e        	sta	$1e                     ; 0x1e <__rc14>
    2741: 68           	pla
    2742: 84 2b        	sty	$2b                     ; 0x2b <__rc27>
    2744: 85 1f        	sta	$1f                     ; 0x1f <__rc15>
    2746: a4 23        	ldy	$23                     ; 0x23 <__rc19>
    2748: b1 1e        	lda	($1e),y                 ; 0x1e <__rc14>
    274a: a4 2b        	ldy	$2b                     ; 0x2b <__rc27>
    274c: c9 00        	cmp	#$0
    274e: d0 da        	bne	$272a <readDirectory_far+0x2c5>
    2750: 8a           	txa
    2751: d0 04        	bne	$2757 <readDirectory_far+0x2f2>
    2753: c0 03        	cpy	#$3
    2755: f0 2d        	beq	$2784 <readDirectory_far+0x31f>
    2757: a6 17        	ldx	$17                     ; 0x17 <__rc7>
    2759: a4 16        	ldy	$16                     ; 0x16 <__rc6>
    275b: c8           	iny
    275c: d0 01        	bne	$275f <readDirectory_far+0x2fa>
    275e: e8           	inx
    275f: 84 16        	sty	$16                     ; 0x16 <__rc6>
    2761: 86 17        	stx	$17                     ; 0x17 <__rc7>
    2763: 8a           	txa
    2764: f0 03        	beq	$2769 <readDirectory_far+0x304>
    2766: 4c 79 25     	jmp	$2579 <readDirectory_far+0x114>
    2769: 84 16        	sty	$16                     ; 0x16 <__rc6>
    276b: 86 17        	stx	$17                     ; 0x17 <__rc7>
    276d: c0 04        	cpy	#$4
    276f: f0 03        	beq	$2774 <readDirectory_far+0x30f>
    2771: 4c 79 25     	jmp	$2579 <readDirectory_far+0x114>
    2774: a0 01        	ldy	#$1
    2776: a2 01        	ldx	#$1
    2778: 86 29        	stx	$29                     ; 0x29 <__rc25>
    277a: b1 12        	lda	($12),y                 ; 0x12 <__rc2>
    277c: a6 27        	ldx	$27                     ; 0x27 <__rc23>
    277e: a8           	tay
    277f: d0 0c        	bne	$278d <readDirectory_far+0x328>
    2781: 4c b9 28     	jmp	$28b9 <readDirectory_far+0x454>
    2784: a0 00        	ldy	#$0
    2786: 4c 8d 26     	jmp	$268d <readDirectory_far+0x228>
    2789: a6 27        	ldx	$27                     ; 0x27 <__rc23>
    278b: 80 06        	bra	$2793 <readDirectory_far+0x32e>
    278d: a0 02        	ldy	#$2
    278f: b1 12        	lda	($12),y                 ; 0x12 <__rc2>
    2791: 85 22        	sta	$22                     ; 0x22 <__rc18>
    2793: a5 26        	lda	$26                     ; 0x26 <__rc22>
    2795: 0a           	asl
    2796: 86 14        	stx	$14                     ; 0x14 <__rc4>
    2798: 26 14        	rol	$14                     ; 0x14 <__rc4>
    279a: 0a           	asl
    279b: 26 14        	rol	$14                     ; 0x14 <__rc4>
    279d: 0a           	asl
    279e: 85 15        	sta	$15                     ; 0x15 <__rc5>
    27a0: 26 14        	rol	$14                     ; 0x14 <__rc4>
    27a2: 0a           	asl
    27a3: a6 14        	ldx	$14                     ; 0x14 <__rc4>
    27a5: 86 16        	stx	$16                     ; 0x16 <__rc6>
    27a7: 26 16        	rol	$16                     ; 0x16 <__rc6>
    27a9: 0a           	asl
    27aa: 26 16        	rol	$16                     ; 0x16 <__rc6>
    27ac: 0a           	asl
    27ad: 26 16        	rol	$16                     ; 0x16 <__rc6>
    27af: 0a           	asl
    27b0: 26 16        	rol	$16                     ; 0x16 <__rc6>
    27b2: 38           	sec
    27b3: e5 15        	sbc	$15                     ; 0x15 <__rc5>
    27b5: a8           	tay
    27b6: a5 16        	lda	$16                     ; 0x16 <__rc6>
    27b8: e5 14        	sbc	$14                     ; 0x14 <__rc4>
    27ba: aa           	tax
    27bb: 18           	clc
    27bc: 84 16        	sty	$16                     ; 0x16 <__rc6>
    27be: 98           	tya
    27bf: 69 b6        	adc	#$b6
    27c1: a8           	tay
    27c2: 86 17        	stx	$17                     ; 0x17 <__rc7>
    27c4: 8a           	txa
    27c5: 69 00        	adc	#$0
    27c7: 85 15        	sta	$15                     ; 0x15 <__rc5>
    27c9: a9 00        	lda	#$0
    27cb: 69 03        	adc	#$3
    27cd: a6 15        	ldx	$15                     ; 0x15 <__rc5>
    27cf: 86 14        	stx	$14                     ; 0x14 <__rc4>
    27d1: 06 14        	asl	$14                     ; 0x14 <__rc4>
    27d3: 85 1a        	sta	$1a                     ; 0x1a <__rc10>
    27d5: 2a           	rol
    27d6: 06 14        	asl	$14                     ; 0x14 <__rc4>
    27d8: 2a           	rol
    27d9: 06 14        	asl	$14                     ; 0x14 <__rc4>
    27db: 2a           	rol
    27dc: a6 0f        	ldx	$f                      ; 0xf
    27de: 78           	sei
    27df: 85 0f        	sta	$f                      ; 0xf
    27e1: a5 15        	lda	$15                     ; 0x15 <__rc5>
    27e3: 85 19        	sta	$19                     ; 0x19 <__rc9>
    27e5: 09 e0        	ora	#$e0
    27e7: 84 18        	sty	$18                     ; 0x18 <__rc8>
    27e9: 84 14        	sty	$14                     ; 0x14 <__rc4>
    27eb: 85 15        	sta	$15                     ; 0x15 <__rc5>
    27ed: a5 22        	lda	$22                     ; 0x22 <__rc18>
    27ef: 92 14        	sta	($14)                   ; 0x14 <__rc4>
    27f1: 86 0f        	stx	$f                      ; 0xf
    27f3: a0 03        	ldy	#$3
    27f5: 58           	cli
    27f6: 80 43        	bra	$283b <readDirectory_far+0x3d6>
    27f8: 98           	tya
    27f9: 18           	clc
    27fa: 69 fe        	adc	#$fe
    27fc: 85 14        	sta	$14                     ; 0x14 <__rc4>
    27fe: b1 12        	lda	($12),y                 ; 0x12 <__rc2>
    2800: 85 15        	sta	$15                     ; 0x15 <__rc5>
    2802: a5 18        	lda	$18                     ; 0x18 <__rc8>
    2804: 18           	clc
    2805: 65 14        	adc	$14                     ; 0x14 <__rc4>
    2807: 85 1b        	sta	$1b                     ; 0x1b <__rc11>
    2809: a5 19        	lda	$19                     ; 0x19 <__rc9>
    280b: 69 00        	adc	#$0
    280d: 85 1c        	sta	$1c                     ; 0x1c <__rc12>
    280f: a5 1a        	lda	$1a                     ; 0x1a <__rc10>
    2811: 69 00        	adc	#$0
    2813: a6 1c        	ldx	$1c                     ; 0x1c <__rc12>
    2815: 86 14        	stx	$14                     ; 0x14 <__rc4>
    2817: 06 14        	asl	$14                     ; 0x14 <__rc4>
    2819: 2a           	rol
    281a: 06 14        	asl	$14                     ; 0x14 <__rc4>
    281c: 2a           	rol
    281d: 06 14        	asl	$14                     ; 0x14 <__rc4>
    281f: 2a           	rol
    2820: a6 0f        	ldx	$f                      ; 0xf
    2822: 78           	sei
    2823: 85 0f        	sta	$f                      ; 0xf
    2825: a5 15        	lda	$15                     ; 0x15 <__rc5>
    2827: 85 1d        	sta	$1d                     ; 0x1d <__rc13>
    2829: a5 1b        	lda	$1b                     ; 0x1b <__rc11>
    282b: 85 14        	sta	$14                     ; 0x14 <__rc4>
    282d: a5 1c        	lda	$1c                     ; 0x1c <__rc12>
    282f: 09 e0        	ora	#$e0
    2831: 85 15        	sta	$15                     ; 0x15 <__rc5>
    2833: a5 1d        	lda	$1d                     ; 0x1d <__rc13>
    2835: 92 14        	sta	($14)                   ; 0x14 <__rc4>
    2837: 86 0f        	stx	$f                      ; 0xf
    2839: 58           	cli
    283a: c8           	iny
    283b: aa           	tax
    283c: f0 04        	beq	$2842 <readDirectory_far+0x3dd>
    283e: c0 79        	cpy	#$79
    2840: d0 b6        	bne	$27f8 <readDirectory_far+0x393>
    2842: 18           	clc
    2843: a5 16        	lda	$16                     ; 0x16 <__rc6>
    2845: 69 2d        	adc	#$2d
    2847: 85 15        	sta	$15                     ; 0x15 <__rc5>
    2849: a5 17        	lda	$17                     ; 0x17 <__rc7>
    284b: 69 01        	adc	#$1
    284d: 85 16        	sta	$16                     ; 0x16 <__rc6>
    284f: a9 00        	lda	#$0
    2851: 69 03        	adc	#$3
    2853: a6 0f        	ldx	$f                      ; 0xf
    2855: 78           	sei
    2856: a4 16        	ldy	$16                     ; 0x16 <__rc6>
    2858: 84 14        	sty	$14                     ; 0x14 <__rc4>
    285a: 06 14        	asl	$14                     ; 0x14 <__rc4>
    285c: 2a           	rol
    285d: 06 14        	asl	$14                     ; 0x14 <__rc4>
    285f: 2a           	rol
    2860: 06 14        	asl	$14                     ; 0x14 <__rc4>
    2862: 2a           	rol
    2863: a0 01        	ldy	#$1
    2865: 85 0f        	sta	$f                      ; 0xf
    2867: a5 16        	lda	$16                     ; 0x16 <__rc6>
    2869: 09 e0        	ora	#$e0
    286b: 5a           	phy
    286c: a4 15        	ldy	$15                     ; 0x15 <__rc5>
    286e: 84 14        	sty	$14                     ; 0x14 <__rc4>
    2870: 7a           	ply
    2871: 85 15        	sta	$15                     ; 0x15 <__rc5>
    2873: a9 00        	lda	#$0
    2875: 92 14        	sta	($14)                   ; 0x14 <__rc4>
    2877: 86 0f        	stx	$f                      ; 0xf
    2879: 58           	cli
    287a: a5 26        	lda	$26                     ; 0x26 <__rc22>
    287c: 18           	clc
    287d: 69 76        	adc	#$76
    287f: aa           	tax
    2880: a5 27        	lda	$27                     ; 0x27 <__rc23>
    2882: 69 1e        	adc	#$1e
    2884: 85 15        	sta	$15                     ; 0x15 <__rc5>
    2886: b1 12        	lda	($12),y                 ; 0x12 <__rc2>
    2888: 84 14        	sty	$14                     ; 0x14 <__rc4>
    288a: c9 01        	cmp	#$1
    288c: f0 02        	beq	$2890 <readDirectory_far+0x42b>
    288e: 64 14        	stz	$14                     ; 0x14 <__rc4>
    2890: 86 12        	stx	$12                     ; 0x12 <__rc2>
    2892: a5 15        	lda	$15                     ; 0x15 <__rc5>
    2894: 09 e0        	ora	#$e0
    2896: 85 13        	sta	$13                     ; 0x13 <__rc3>
    2898: a6 0f        	ldx	$f                      ; 0xf
    289a: 78           	sei
    289b: a0 1a        	ldy	#$1a
    289d: 84 0f        	sty	$f                      ; 0xf
    289f: a5 14        	lda	$14                     ; 0x14 <__rc4>
    28a1: 92 12        	sta	($12)                   ; 0x12 <__rc2>
    28a3: 86 0f        	stx	$f                      ; 0xf
    28a5: 58           	cli
    28a6: a6 27        	ldx	$27                     ; 0x27 <__rc23>
    28a8: e6 26        	inc	$26                     ; 0x26 <__rc22>
    28aa: d0 01        	bne	$28ad <readDirectory_far+0x448>
    28ac: e8           	inx
    28ad: e0 00        	cpx	#$0
    28af: a0 01        	ldy	#$1
    28b1: b0 02        	bcs	$28b5 <readDirectory_far+0x450>
    28b3: a0 00        	ldy	#$0
    28b5: 84 2a        	sty	$2a                     ; 0x2a <__rc26>
    28b7: 86 27        	stx	$27                     ; 0x27 <__rc23>
    28b9: 8a           	txa
    28ba: f0 03        	beq	$28bf <readDirectory_far+0x45a>
    28bc: 4c 0c 25     	jmp	$250c <readDirectory_far+0xa7>
    28bf: a6 26        	ldx	$26                     ; 0x26 <__rc22>
    28c1: e0 c8        	cpx	#$c8
    28c3: b0 03        	bcs	$28c8 <readDirectory_far+0x463>
    28c5: 4c 13 25     	jmp	$2513 <readDirectory_far+0xae>
    28c8: a2 03        	ldx	#$3
    28ca: 86 28        	stx	$28                     ; 0x28 <__rc24>
    28cc: a2 00        	ldx	#$0
    28ce: 4c 19 25     	jmp	$2519 <readDirectory_far+0xb4>
    28d1: a6 0f        	ldx	$f                      ; 0xf
    28d3: 78           	sei
    28d4: a5 27        	lda	$27                     ; 0x27 <__rc23>
    28d6: a0 1a        	ldy	#$1a
    28d8: 84 0f        	sty	$f                      ; 0xf
    28da: a4 26        	ldy	$26                     ; 0x26 <__rc22>
    28dc: 8c 3e ff     	sty	$ff3e                   ; 0xff3e <end_block9+0x76b4>
    28df: 8d 3f ff     	sta	$ff3f                   ; 0xff3f <end_block9+0x76b5>
    28e2: 86 0f        	stx	$f                      ; 0xf
    28e4: 58           	cli
    28e5: a4 0f        	ldy	$f                      ; 0xf
    28e7: 78           	sei
    28e8: a9 18        	lda	#$18
    28ea: 85 0f        	sta	$f                      ; 0xf
    28ec: a2 2e        	ldx	#$2e
    28ee: 8e b6 e0     	stx	$e0b6                   ; 0xe0b6 <end_block9+0x582c>
    28f1: 84 0f        	sty	$f                      ; 0xf
    28f3: 58           	cli
    28f4: a4 0f        	ldy	$f                      ; 0xf
    28f6: 78           	sei
    28f7: 85 0f        	sta	$f                      ; 0xf
    28f9: 8e b7 e0     	stx	$e0b7                   ; 0xe0b7 <end_block9+0x582d>
    28fc: 84 0f        	sty	$f                      ; 0xf
    28fe: 58           	cli
    28ff: a6 0f        	ldx	$f                      ; 0xf
    2901: 78           	sei
    2902: 85 0f        	sta	$f                      ; 0xf
    2904: 9c b8 e0     	stz	$e0b8                   ; 0xe0b8 <end_block9+0x582e>
    2907: 86 0f        	stx	$f                      ; 0xf
    2909: 58           	cli
    290a: a0 75        	ldy	#$75
    290c: a2 03        	ldx	#$3
    290e: 8a           	txa
    290f: 18           	clc
    2910: 69 b6        	adc	#$b6
    2912: 85 12        	sta	$12                     ; 0x12 <__rc2>
    2914: a9 00        	lda	#$0
    2916: 69 00        	adc	#$0
    2918: 09 e0        	ora	#$e0
    291a: 85 13        	sta	$13                     ; 0x13 <__rc3>
    291c: a5 0f        	lda	$f                      ; 0xf
    291e: 85 14        	sta	$14                     ; 0x14 <__rc4>
    2920: 78           	sei
    2921: a9 18        	lda	#$18
    2923: 85 0f        	sta	$f                      ; 0xf
    2925: a9 00        	lda	#$0
    2927: 92 12        	sta	($12)                   ; 0x12 <__rc2>
    2929: a5 14        	lda	$14                     ; 0x14 <__rc4>
    292b: 85 0f        	sta	$f                      ; 0xf
    292d: 58           	cli
    292e: 88           	dey
    292f: e8           	inx
    2930: 98           	tya
    2931: d0 db        	bne	$290e <readDirectory_far+0x4a9>
    2933: a6 24        	ldx	$24                     ; 0x24 <__rc20>
    2935: 86 12        	stx	$12                     ; 0x12 <__rc2>
    2937: a6 25        	ldx	$25                     ; 0x25 <__rc21>
    2939: 86 13        	stx	$13                     ; 0x13 <__rc3>
    293b: 20 4c 1b     	jsr	$1b4c <fileCloseDir>
    293e: a0 00        	ldy	#$0
    2940: b1 10        	lda	($10),y                 ; 0x10 <__zp_data_size>
    2942: 85 2b        	sta	$2b                     ; 0x2b <__rc27>
    2944: c8           	iny
    2945: b1 10        	lda	($10),y                 ; 0x10 <__zp_data_size>
    2947: 85 2a        	sta	$2a                     ; 0x2a <__rc26>
    2949: c8           	iny
    294a: b1 10        	lda	($10),y                 ; 0x10 <__zp_data_size>
    294c: 85 29        	sta	$29                     ; 0x29 <__rc25>
    294e: c8           	iny
    294f: b1 10        	lda	($10),y                 ; 0x10 <__zp_data_size>
    2951: 85 28        	sta	$28                     ; 0x28 <__rc24>
    2953: fa           	plx
    2954: 86 27        	stx	$27                     ; 0x27 <__rc23>
    2956: fa           	plx
    2957: 86 26        	stx	$26                     ; 0x26 <__rc22>
    2959: fa           	plx
    295a: 86 25        	stx	$25                     ; 0x25 <__rc21>
    295c: fa           	plx
    295d: 86 24        	stx	$24                     ; 0x24 <__rc20>
    295f: 18           	clc
    2960: a5 10        	lda	$10                     ; 0x10 <__zp_data_size>
    2962: 69 44        	adc	#$44
    2964: 85 10        	sta	$10                     ; 0x10 <__zp_data_size>
    2966: a5 11        	lda	$11                     ; 0x11 <__rc1>
    2968: 69 00        	adc	#$0
    296a: 85 11        	sta	$11                     ; 0x11 <__rc1>
    296c: 60           	rts

0000296d <sortFileList_far>:
    296d: 18           	clc
    296e: a5 10        	lda	$10                     ; 0x10 <__zp_data_size>
    2970: 69 09        	adc	#$9
    2972: 85 10        	sta	$10                     ; 0x10 <__zp_data_size>
    2974: a5 11        	lda	$11                     ; 0x11 <__rc1>
    2976: 69 ff        	adc	#$ff
    2978: 85 11        	sta	$11                     ; 0x11 <__rc1>
    297a: a6 24        	ldx	$24                     ; 0x24 <__rc20>
    297c: da           	phx
    297d: a6 25        	ldx	$25                     ; 0x25 <__rc21>
    297f: da           	phx
    2980: a6 26        	ldx	$26                     ; 0x26 <__rc22>
    2982: da           	phx
    2983: a6 27        	ldx	$27                     ; 0x27 <__rc23>
    2985: da           	phx
    2986: a5 28        	lda	$28                     ; 0x28 <__rc24>
    2988: a0 06        	ldy	#$6
    298a: 91 10        	sta	($10),y                 ; 0x10 <__zp_data_size>
    298c: a5 29        	lda	$29                     ; 0x29 <__rc25>
    298e: 88           	dey
    298f: 91 10        	sta	($10),y                 ; 0x10 <__zp_data_size>
    2991: a5 2a        	lda	$2a                     ; 0x2a <__rc26>
    2993: 88           	dey
    2994: 91 10        	sta	($10),y                 ; 0x10 <__zp_data_size>
    2996: a5 2b        	lda	$2b                     ; 0x2b <__rc27>
    2998: 88           	dey
    2999: 91 10        	sta	($10),y                 ; 0x10 <__zp_data_size>
    299b: a5 2c        	lda	$2c                     ; 0x2c <__rc28>
    299d: 88           	dey
    299e: 91 10        	sta	($10),y                 ; 0x10 <__zp_data_size>
    29a0: a5 2d        	lda	$2d                     ; 0x2d <__rc29>
    29a2: 88           	dey
    29a3: 91 10        	sta	($10),y                 ; 0x10 <__zp_data_size>
    29a5: a5 2e        	lda	$2e                     ; 0x2e <__rc30>
    29a7: 88           	dey
    29a8: 91 10        	sta	($10),y                 ; 0x10 <__zp_data_size>
    29aa: a4 0f        	ldy	$f                      ; 0xf
    29ac: 78           	sei
    29ad: a9 18        	lda	#$18
    29af: 85 0f        	sta	$f                      ; 0xf
    29b1: a2 2e        	ldx	#$2e
    29b3: 8e b6 e0     	stx	$e0b6                   ; 0xe0b6 <end_block9+0x582c>
    29b6: 84 0f        	sty	$f                      ; 0xf
    29b8: 58           	cli
    29b9: a4 0f        	ldy	$f                      ; 0xf
    29bb: 78           	sei
    29bc: 85 0f        	sta	$f                      ; 0xf
    29be: 8e b7 e0     	stx	$e0b7                   ; 0xe0b7 <end_block9+0x582d>
    29c1: 84 0f        	sty	$f                      ; 0xf
    29c3: 58           	cli
    29c4: a6 0f        	ldx	$f                      ; 0xf
    29c6: 78           	sei
    29c7: 85 0f        	sta	$f                      ; 0xf
    29c9: 9c b8 e0     	stz	$e0b8                   ; 0xe0b8 <end_block9+0x582e>
    29cc: 86 0f        	stx	$f                      ; 0xf
    29ce: 58           	cli
    29cf: a0 75        	ldy	#$75
    29d1: a2 03        	ldx	#$3
    29d3: 8a           	txa
    29d4: 18           	clc
    29d5: 69 b6        	adc	#$b6
    29d7: 85 12        	sta	$12                     ; 0x12 <__rc2>
    29d9: a9 00        	lda	#$0
    29db: 69 00        	adc	#$0
    29dd: 09 e0        	ora	#$e0
    29df: 85 13        	sta	$13                     ; 0x13 <__rc3>
    29e1: a5 0f        	lda	$f                      ; 0xf
    29e3: 85 14        	sta	$14                     ; 0x14 <__rc4>
    29e5: 78           	sei
    29e6: a9 18        	lda	#$18
    29e8: 85 0f        	sta	$f                      ; 0xf
    29ea: a9 00        	lda	#$0
    29ec: 92 12        	sta	($12)                   ; 0x12 <__rc2>
    29ee: a5 14        	lda	$14                     ; 0x14 <__rc4>
    29f0: 85 0f        	sta	$f                      ; 0xf
    29f2: 58           	cli
    29f3: 88           	dey
    29f4: e8           	inx
    29f5: 98           	tya
    29f6: d0 db        	bne	$29d3 <sortFileList_far+0x66>
    29f8: a4 0f        	ldy	$f                      ; 0xf
    29fa: 78           	sei
    29fb: a2 1a        	ldx	#$1a
    29fd: 86 0f        	stx	$f                      ; 0xf
    29ff: a9 01        	lda	#$1
    2a01: 8d 76 fe     	sta	$fe76                   ; 0xfe76 <end_block9+0x75ec>
    2a04: 84 0f        	sty	$f                      ; 0xf
    2a06: 58           	cli
    2a07: a5 0f        	lda	$f                      ; 0xf
    2a09: 78           	sei
    2a0a: 86 0f        	stx	$f                      ; 0xf
    2a0c: ae 3e ff     	ldx	$ff3e                   ; 0xff3e <end_block9+0x76b4>
    2a0f: 86 12        	stx	$12                     ; 0x12 <__rc2>
    2a11: ac 3f ff     	ldy	$ff3f                   ; 0xff3f <end_block9+0x76b5>
    2a14: 84 13        	sty	$13                     ; 0x13 <__rc3>
    2a16: 85 0f        	sta	$f                      ; 0xf
    2a18: 58           	cli
    2a19: 98           	tya
    2a1a: d0 07        	bne	$2a23 <sortFileList_far+0xb6>
    2a1c: e0 03        	cpx	#$3
    2a1e: b0 0a        	bcs	$2a2a <sortFileList_far+0xbd>
    2a20: 4c e6 2e     	jmp	$2ee6 <sortFileList_far+0x579>
    2a23: c0 00        	cpy	#$0
    2a25: b0 03        	bcs	$2a2a <sortFileList_far+0xbd>
    2a27: 4c e6 2e     	jmp	$2ee6 <sortFileList_far+0x579>
    2a2a: a2 02        	ldx	#$2
    2a2c: a0 00        	ldy	#$0
    2a2e: 18           	clc
    2a2f: 86 23        	stx	$23                     ; 0x23 <__rc19>
    2a31: 8a           	txa
    2a32: 69 76        	adc	#$76
    2a34: 85 15        	sta	$15                     ; 0x15 <__rc5>
    2a36: 98           	tya
    2a37: 69 5e        	adc	#$5e
    2a39: 85 16        	sta	$16                     ; 0x16 <__rc6>
    2a3b: a9 00        	lda	#$0
    2a3d: 69 03        	adc	#$3
    2a3f: 5a           	phy
    2a40: a6 16        	ldx	$16                     ; 0x16 <__rc6>
    2a42: 86 14        	stx	$14                     ; 0x14 <__rc4>
    2a44: 06 14        	asl	$14                     ; 0x14 <__rc4>
    2a46: 2a           	rol
    2a47: 06 14        	asl	$14                     ; 0x14 <__rc4>
    2a49: 2a           	rol
    2a4a: 06 14        	asl	$14                     ; 0x14 <__rc4>
    2a4c: 2a           	rol
    2a4d: a6 0f        	ldx	$f                      ; 0xf
    2a4f: 78           	sei
    2a50: 85 0f        	sta	$f                      ; 0xf
    2a52: a5 16        	lda	$16                     ; 0x16 <__rc6>
    2a54: 09 e0        	ora	#$e0
    2a56: a4 15        	ldy	$15                     ; 0x15 <__rc5>
    2a58: 84 14        	sty	$14                     ; 0x14 <__rc4>
    2a5a: 7a           	ply
    2a5b: 85 15        	sta	$15                     ; 0x15 <__rc5>
    2a5d: b2 14        	lda	($14)                   ; 0x14 <__rc4>
    2a5f: 86 0f        	stx	$f                      ; 0xf
    2a61: 58           	cli
    2a62: a2 00        	ldx	#$0
    2a64: 85 28        	sta	$28                     ; 0x28 <__rc24>
    2a66: c9 00        	cmp	#$0
    2a68: f0 02        	beq	$2a6c <sortFileList_far+0xff>
    2a6a: a2 01        	ldx	#$1
    2a6c: 86 25        	stx	$25                     ; 0x25 <__rc21>
    2a6e: a5 23        	lda	$23                     ; 0x23 <__rc19>
    2a70: 0a           	asl
    2a71: 84 24        	sty	$24                     ; 0x24 <__rc20>
    2a73: 84 14        	sty	$14                     ; 0x14 <__rc4>
    2a75: 26 14        	rol	$14                     ; 0x14 <__rc4>
    2a77: 0a           	asl
    2a78: 26 14        	rol	$14                     ; 0x14 <__rc4>
    2a7a: 0a           	asl
    2a7b: 85 15        	sta	$15                     ; 0x15 <__rc5>
    2a7d: 26 14        	rol	$14                     ; 0x14 <__rc4>
    2a7f: 0a           	asl
    2a80: aa           	tax
    2a81: a5 14        	lda	$14                     ; 0x14 <__rc4>
    2a83: 2a           	rol
    2a84: 86 16        	stx	$16                     ; 0x16 <__rc6>
    2a86: 06 16        	asl	$16                     ; 0x16 <__rc6>
    2a88: 2a           	rol
    2a89: 06 16        	asl	$16                     ; 0x16 <__rc6>
    2a8b: 2a           	rol
    2a8c: 06 16        	asl	$16                     ; 0x16 <__rc6>
    2a8e: 2a           	rol
    2a8f: aa           	tax
    2a90: 38           	sec
    2a91: a5 16        	lda	$16                     ; 0x16 <__rc6>
    2a93: e5 15        	sbc	$15                     ; 0x15 <__rc5>
    2a95: 85 16        	sta	$16                     ; 0x16 <__rc6>
    2a97: 8a           	txa
    2a98: e5 14        	sbc	$14                     ; 0x14 <__rc4>
    2a9a: 85 17        	sta	$17                     ; 0x17 <__rc7>
    2a9c: a0 00        	ldy	#$0
    2a9e: 84 14        	sty	$14                     ; 0x14 <__rc4>
    2aa0: a5 16        	lda	$16                     ; 0x16 <__rc6>
    2aa2: 18           	clc
    2aa3: 65 14        	adc	$14                     ; 0x14 <__rc4>
    2aa5: 85 14        	sta	$14                     ; 0x14 <__rc4>
    2aa7: a5 17        	lda	$17                     ; 0x17 <__rc7>
    2aa9: 69 00        	adc	#$0
    2aab: 85 18        	sta	$18                     ; 0x18 <__rc8>
    2aad: a9 00        	lda	#$0
    2aaf: 69 00        	adc	#$0
    2ab1: aa           	tax
    2ab2: 18           	clc
    2ab3: a5 14        	lda	$14                     ; 0x14 <__rc4>
    2ab5: 69 b6        	adc	#$b6
    2ab7: 85 15        	sta	$15                     ; 0x15 <__rc5>
    2ab9: a5 18        	lda	$18                     ; 0x18 <__rc8>
    2abb: 69 00        	adc	#$0
    2abd: 85 14        	sta	$14                     ; 0x14 <__rc4>
    2abf: 8a           	txa
    2ac0: 69 03        	adc	#$3
    2ac2: 85 18        	sta	$18                     ; 0x18 <__rc8>
    2ac4: a5 14        	lda	$14                     ; 0x14 <__rc4>
    2ac6: 06 14        	asl	$14                     ; 0x14 <__rc4>
    2ac8: 26 18        	rol	$18                     ; 0x18 <__rc8>
    2aca: 06 14        	asl	$14                     ; 0x14 <__rc4>
    2acc: 26 18        	rol	$18                     ; 0x18 <__rc8>
    2ace: 06 14        	asl	$14                     ; 0x14 <__rc4>
    2ad0: 26 18        	rol	$18                     ; 0x18 <__rc8>
    2ad2: a6 18        	ldx	$18                     ; 0x18 <__rc8>
    2ad4: 86 14        	stx	$14                     ; 0x14 <__rc4>
    2ad6: a6 0f        	ldx	$f                      ; 0xf
    2ad8: 86 18        	stx	$18                     ; 0x18 <__rc8>
    2ada: 78           	sei
    2adb: a6 14        	ldx	$14                     ; 0x14 <__rc4>
    2add: 86 0f        	stx	$f                      ; 0xf
    2adf: 09 e0        	ora	#$e0
    2ae1: a6 15        	ldx	$15                     ; 0x15 <__rc5>
    2ae3: 86 14        	stx	$14                     ; 0x14 <__rc4>
    2ae5: 85 15        	sta	$15                     ; 0x15 <__rc5>
    2ae7: b2 14        	lda	($14)                   ; 0x14 <__rc4>
    2ae9: a6 18        	ldx	$18                     ; 0x18 <__rc8>
    2aeb: 86 0f        	stx	$f                      ; 0xf
    2aed: 18           	clc
    2aee: 48           	pha
    2aef: a5 10        	lda	$10                     ; 0x10 <__zp_data_size>
    2af1: 69 7f        	adc	#$7f
    2af3: 85 14        	sta	$14                     ; 0x14 <__rc4>
    2af5: a5 11        	lda	$11                     ; 0x11 <__rc1>
    2af7: 69 00        	adc	#$0
    2af9: 85 15        	sta	$15                     ; 0x15 <__rc5>
    2afb: 68           	pla
    2afc: 58           	cli
    2afd: 91 14        	sta	($14),y                 ; 0x14 <__rc4>
    2aff: aa           	tax
    2b00: f0 08        	beq	$2b0a <sortFileList_far+0x19d>
    2b02: c8           	iny
    2b03: c0 78        	cpy	#$78
    2b05: f0 03        	beq	$2b0a <sortFileList_far+0x19d>
    2b07: 4c 9e 2a     	jmp	$2a9e <sortFileList_far+0x131>
    2b0a: a4 23        	ldy	$23                     ; 0x23 <__rc19>
    2b0c: a5 24        	lda	$24                     ; 0x24 <__rc20>
    2b0e: 85 16        	sta	$16                     ; 0x16 <__rc6>
    2b10: 84 27        	sty	$27                     ; 0x27 <__rc23>
    2b12: 84 17        	sty	$17                     ; 0x17 <__rc7>
    2b14: 4c 4b 2c     	jmp	$2c4b <sortFileList_far+0x2de>
    2b17: 38           	sec
    2b18: e5 19        	sbc	$19                     ; 0x19 <__rc9>
    2b1a: a8           	tay
    2b1b: a5 1a        	lda	$1a                     ; 0x1a <__rc10>
    2b1d: e5 18        	sbc	$18                     ; 0x18 <__rc8>
    2b1f: aa           	tax
    2b20: 84 2a        	sty	$2a                     ; 0x2a <__rc26>
    2b22: 98           	tya
    2b23: 18           	clc
    2b24: 69 b6        	adc	#$b6
    2b26: 85 2c        	sta	$2c                     ; 0x2c <__rc28>
    2b28: 8a           	txa
    2b29: 86 2b        	stx	$2b                     ; 0x2b <__rc27>
    2b2b: 69 00        	adc	#$0
    2b2d: 85 2d        	sta	$2d                     ; 0x2d <__rc29>
    2b2f: a9 00        	lda	#$0
    2b31: 69 03        	adc	#$3
    2b33: 85 2e        	sta	$2e                     ; 0x2e <__rc30>
    2b35: 64 18        	stz	$18                     ; 0x18 <__rc8>
    2b37: 80 27        	bra	$2b60 <sortFileList_far+0x1f3>
    2b39: a5 19        	lda	$19                     ; 0x19 <__rc9>
    2b3b: c9 41        	cmp	#$41
    2b3d: 90 06        	bcc	$2b45 <sortFileList_far+0x1d8>
    2b3f: c9 5b        	cmp	#$5b
    2b41: b0 02        	bcs	$2b45 <sortFileList_far+0x1d8>
    2b43: 09 20        	ora	#$20
    2b45: 85 18        	sta	$18                     ; 0x18 <__rc8>
    2b47: b2 1a        	lda	($1a)                   ; 0x1a <__rc10>
    2b49: c9 41        	cmp	#$41
    2b4b: 90 06        	bcc	$2b53 <sortFileList_far+0x1e6>
    2b4d: c9 5b        	cmp	#$5b
    2b4f: b0 02        	bcs	$2b53 <sortFileList_far+0x1e6>
    2b51: 09 20        	ora	#$20
    2b53: a6 18        	ldx	$18                     ; 0x18 <__rc8>
    2b55: 86 19        	stx	$19                     ; 0x19 <__rc9>
    2b57: 64 18        	stz	$18                     ; 0x18 <__rc8>
    2b59: c5 19        	cmp	$19                     ; 0x19 <__rc9>
    2b5b: 90 03        	bcc	$2b60 <sortFileList_far+0x1f3>
    2b5d: 4c c0 2d     	jmp	$2dc0 <sortFileList_far+0x453>
    2b60: 64 19        	stz	$19                     ; 0x19 <__rc9>
    2b62: a5 2a        	lda	$2a                     ; 0x2a <__rc26>
    2b64: a2 00        	ldx	#$0
    2b66: 86 1b        	stx	$1b                     ; 0x1b <__rc11>
    2b68: 18           	clc
    2b69: 65 19        	adc	$19                     ; 0x19 <__rc9>
    2b6b: a8           	tay
    2b6c: a5 2b        	lda	$2b                     ; 0x2b <__rc27>
    2b6e: 69 00        	adc	#$0
    2b70: aa           	tax
    2b71: a9 00        	lda	#$0
    2b73: 69 00        	adc	#$0
    2b75: 85 1a        	sta	$1a                     ; 0x1a <__rc10>
    2b77: 18           	clc
    2b78: 98           	tya
    2b79: 69 2e        	adc	#$2e
    2b7b: 85 1e        	sta	$1e                     ; 0x1e <__rc14>
    2b7d: 8a           	txa
    2b7e: 69 01        	adc	#$1
    2b80: a8           	tay
    2b81: a5 1a        	lda	$1a                     ; 0x1a <__rc10>
    2b83: 69 03        	adc	#$3
    2b85: 85 1d        	sta	$1d                     ; 0x1d <__rc13>
    2b87: a5 2c        	lda	$2c                     ; 0x2c <__rc28>
    2b89: a6 1b        	ldx	$1b                     ; 0x1b <__rc11>
    2b8b: e0 01        	cpx	#$1
    2b8d: 65 19        	adc	$19                     ; 0x19 <__rc9>
    2b8f: 85 1c        	sta	$1c                     ; 0x1c <__rc12>
    2b91: a5 2d        	lda	$2d                     ; 0x2d <__rc29>
    2b93: 69 00        	adc	#$0
    2b95: 85 1b        	sta	$1b                     ; 0x1b <__rc11>
    2b97: a5 2e        	lda	$2e                     ; 0x2e <__rc30>
    2b99: 69 00        	adc	#$0
    2b9b: a6 1b        	ldx	$1b                     ; 0x1b <__rc11>
    2b9d: 86 1a        	stx	$1a                     ; 0x1a <__rc10>
    2b9f: 06 1a        	asl	$1a                     ; 0x1a <__rc10>
    2ba1: 2a           	rol
    2ba2: 06 1a        	asl	$1a                     ; 0x1a <__rc10>
    2ba4: 2a           	rol
    2ba5: 06 1a        	asl	$1a                     ; 0x1a <__rc10>
    2ba7: 2a           	rol
    2ba8: a6 1c        	ldx	$1c                     ; 0x1c <__rc12>
    2baa: 86 1a        	stx	$1a                     ; 0x1a <__rc10>
    2bac: a6 0f        	ldx	$f                      ; 0xf
    2bae: 78           	sei
    2baf: 85 0f        	sta	$f                      ; 0xf
    2bb1: 85 1f        	sta	$1f                     ; 0x1f <__rc15>
    2bb3: a5 1b        	lda	$1b                     ; 0x1b <__rc11>
    2bb5: 09 e0        	ora	#$e0
    2bb7: 85 1b        	sta	$1b                     ; 0x1b <__rc11>
    2bb9: b2 1a        	lda	($1a)                   ; 0x1a <__rc10>
    2bbb: 85 22        	sta	$22                     ; 0x22 <__rc18>
    2bbd: 86 0f        	stx	$f                      ; 0xf
    2bbf: 58           	cli
    2bc0: 98           	tya
    2bc1: 84 1c        	sty	$1c                     ; 0x1c <__rc12>
    2bc3: 06 1c        	asl	$1c                     ; 0x1c <__rc12>
    2bc5: 26 1d        	rol	$1d                     ; 0x1d <__rc13>
    2bc7: 06 1c        	asl	$1c                     ; 0x1c <__rc12>
    2bc9: 26 1d        	rol	$1d                     ; 0x1d <__rc13>
    2bcb: 06 1c        	asl	$1c                     ; 0x1c <__rc12>
    2bcd: 26 1d        	rol	$1d                     ; 0x1d <__rc13>
    2bcf: a4 1d        	ldy	$1d                     ; 0x1d <__rc13>
    2bd1: a6 0f        	ldx	$f                      ; 0xf
    2bd3: 78           	sei
    2bd4: 84 0f        	sty	$f                      ; 0xf
    2bd6: a4 1e        	ldy	$1e                     ; 0x1e <__rc14>
    2bd8: 84 1c        	sty	$1c                     ; 0x1c <__rc12>
    2bda: 09 e0        	ora	#$e0
    2bdc: 85 1d        	sta	$1d                     ; 0x1d <__rc13>
    2bde: a5 22        	lda	$22                     ; 0x22 <__rc18>
    2be0: 92 1c        	sta	($1c)                   ; 0x1c <__rc12>
    2be2: 86 0f        	stx	$f                      ; 0xf
    2be4: 58           	cli
    2be5: a6 0f        	ldx	$f                      ; 0xf
    2be7: 78           	sei
    2be8: a4 1f        	ldy	$1f                     ; 0x1f <__rc15>
    2bea: 84 0f        	sty	$f                      ; 0xf
    2bec: b2 1a        	lda	($1a)                   ; 0x1a <__rc10>
    2bee: 86 0f        	stx	$f                      ; 0xf
    2bf0: 58           	cli
    2bf1: aa           	tax
    2bf2: f0 0c        	beq	$2c00 <sortFileList_far+0x293>
    2bf4: a6 19        	ldx	$19                     ; 0x19 <__rc9>
    2bf6: e8           	inx
    2bf7: 86 19        	stx	$19                     ; 0x19 <__rc9>
    2bf9: e0 78        	cpx	#$78
    2bfb: f0 03        	beq	$2c00 <sortFileList_far+0x293>
    2bfd: 4c 62 2b     	jmp	$2b62 <sortFileList_far+0x1f5>
    2c00: 18           	clc
    2c01: a5 17        	lda	$17                     ; 0x17 <__rc7>
    2c03: 69 77        	adc	#$77
    2c05: a8           	tay
    2c06: a5 16        	lda	$16                     ; 0x16 <__rc6>
    2c08: 69 5e        	adc	#$5e
    2c0a: 85 19        	sta	$19                     ; 0x19 <__rc9>
    2c0c: a9 00        	lda	#$0
    2c0e: 69 03        	adc	#$3
    2c10: a6 19        	ldx	$19                     ; 0x19 <__rc9>
    2c12: 86 18        	stx	$18                     ; 0x18 <__rc8>
    2c14: 06 18        	asl	$18                     ; 0x18 <__rc8>
    2c16: 2a           	rol
    2c17: 06 18        	asl	$18                     ; 0x18 <__rc8>
    2c19: 2a           	rol
    2c1a: 06 18        	asl	$18                     ; 0x18 <__rc8>
    2c1c: 2a           	rol
    2c1d: a6 0f        	ldx	$f                      ; 0xf
    2c1f: 78           	sei
    2c20: 85 0f        	sta	$f                      ; 0xf
    2c22: 84 18        	sty	$18                     ; 0x18 <__rc8>
    2c24: a5 19        	lda	$19                     ; 0x19 <__rc9>
    2c26: 09 e0        	ora	#$e0
    2c28: 85 19        	sta	$19                     ; 0x19 <__rc9>
    2c2a: a5 29        	lda	$29                     ; 0x29 <__rc25>
    2c2c: 92 18        	sta	($18)                   ; 0x18 <__rc8>
    2c2e: 86 0f        	stx	$f                      ; 0xf
    2c30: 58           	cli
    2c31: a6 27        	ldx	$27                     ; 0x27 <__rc23>
    2c33: e0 03        	cpx	#$3
    2c35: a5 26        	lda	$26                     ; 0x26 <__rc22>
    2c37: e9 00        	sbc	#$0
    2c39: 50 02        	bvc	$2c3d <sortFileList_far+0x2d0>
    2c3b: 49 80        	eor	#$80
    2c3d: aa           	tax
    2c3e: a4 17        	ldy	$17                     ; 0x17 <__rc7>
    2c40: 84 27        	sty	$27                     ; 0x27 <__rc23>
    2c42: a5 16        	lda	$16                     ; 0x16 <__rc6>
    2c44: e0 00        	cpx	#$0
    2c46: 10 03        	bpl	$2c4b <sortFileList_far+0x2de>
    2c48: 4c c4 2d     	jmp	$2dc4 <sortFileList_far+0x457>
    2c4b: 85 26        	sta	$26                     ; 0x26 <__rc22>
    2c4d: a2 ff        	ldx	#$ff
    2c4f: c6 17        	dec	$17                     ; 0x17 <__rc7>
    2c51: e4 17        	cpx	$17                     ; 0x17 <__rc7>
    2c53: d0 02        	bne	$2c57 <sortFileList_far+0x2ea>
    2c55: c6 16        	dec	$16                     ; 0x16 <__rc6>
    2c57: 18           	clc
    2c58: a5 17        	lda	$17                     ; 0x17 <__rc7>
    2c5a: 69 76        	adc	#$76
    2c5c: aa           	tax
    2c5d: a5 16        	lda	$16                     ; 0x16 <__rc6>
    2c5f: 69 5e        	adc	#$5e
    2c61: 85 19        	sta	$19                     ; 0x19 <__rc9>
    2c63: a9 00        	lda	#$0
    2c65: 69 03        	adc	#$3
    2c67: a4 19        	ldy	$19                     ; 0x19 <__rc9>
    2c69: 84 18        	sty	$18                     ; 0x18 <__rc8>
    2c6b: 06 18        	asl	$18                     ; 0x18 <__rc8>
    2c6d: 2a           	rol
    2c6e: 06 18        	asl	$18                     ; 0x18 <__rc8>
    2c70: 2a           	rol
    2c71: 06 18        	asl	$18                     ; 0x18 <__rc8>
    2c73: 2a           	rol
    2c74: a4 0f        	ldy	$f                      ; 0xf
    2c76: 84 1a        	sty	$1a                     ; 0x1a <__rc10>
    2c78: 78           	sei
    2c79: 85 0f        	sta	$f                      ; 0xf
    2c7b: a0 01        	ldy	#$1
    2c7d: 86 18        	stx	$18                     ; 0x18 <__rc8>
    2c7f: a5 19        	lda	$19                     ; 0x19 <__rc9>
    2c81: 09 e0        	ora	#$e0
    2c83: 85 19        	sta	$19                     ; 0x19 <__rc9>
    2c85: b2 18        	lda	($18)                   ; 0x18 <__rc8>
    2c87: a6 1a        	ldx	$1a                     ; 0x1a <__rc10>
    2c89: 86 0f        	stx	$f                      ; 0xf
    2c8b: 58           	cli
    2c8c: 85 18        	sta	$18                     ; 0x18 <__rc8>
    2c8e: aa           	tax
    2c8f: f0 02        	beq	$2c93 <sortFileList_far+0x326>
    2c91: a0 00        	ldy	#$0
    2c93: a2 00        	ldx	#$0
    2c95: 98           	tya
    2c96: d0 02        	bne	$2c9a <sortFileList_far+0x32d>
    2c98: a2 01        	ldx	#$1
    2c9a: 86 29        	stx	$29                     ; 0x29 <__rc25>
    2c9c: a9 01        	lda	#$1
    2c9e: a4 28        	ldy	$28                     ; 0x28 <__rc24>
    2ca0: d0 05        	bne	$2ca7 <sortFileList_far+0x33a>
    2ca2: 8a           	txa
    2ca3: 49 01        	eor	#$1
    2ca5: 29 01        	and	#$1
    2ca7: aa           	tax
    2ca8: d0 03        	bne	$2cad <sortFileList_far+0x340>
    2caa: 4c c0 2d     	jmp	$2dc0 <sortFileList_far+0x453>
    2cad: a0 01        	ldy	#$1
    2caf: a9 00        	lda	#$0
    2cb1: a6 18        	ldx	$18                     ; 0x18 <__rc8>
    2cb3: f0 02        	beq	$2cb7 <sortFileList_far+0x34a>
    2cb5: a9 01        	lda	#$1
    2cb7: a6 28        	ldx	$28                     ; 0x28 <__rc24>
    2cb9: f0 01        	beq	$2cbc <sortFileList_far+0x34f>
    2cbb: a8           	tay
    2cbc: a5 17        	lda	$17                     ; 0x17 <__rc7>
    2cbe: 0a           	asl
    2cbf: a6 16        	ldx	$16                     ; 0x16 <__rc6>
    2cc1: 86 18        	stx	$18                     ; 0x18 <__rc8>
    2cc3: 26 18        	rol	$18                     ; 0x18 <__rc8>
    2cc5: 0a           	asl
    2cc6: 26 18        	rol	$18                     ; 0x18 <__rc8>
    2cc8: 0a           	asl
    2cc9: 85 19        	sta	$19                     ; 0x19 <__rc9>
    2ccb: 26 18        	rol	$18                     ; 0x18 <__rc8>
    2ccd: 0a           	asl
    2cce: a6 18        	ldx	$18                     ; 0x18 <__rc8>
    2cd0: 86 1a        	stx	$1a                     ; 0x1a <__rc10>
    2cd2: 26 1a        	rol	$1a                     ; 0x1a <__rc10>
    2cd4: 0a           	asl
    2cd5: 26 1a        	rol	$1a                     ; 0x1a <__rc10>
    2cd7: 0a           	asl
    2cd8: 26 1a        	rol	$1a                     ; 0x1a <__rc10>
    2cda: 0a           	asl
    2cdb: 26 1a        	rol	$1a                     ; 0x1a <__rc10>
    2cdd: c0 00        	cpy	#$0
    2cdf: d0 03        	bne	$2ce4 <sortFileList_far+0x377>
    2ce1: 4c 17 2b     	jmp	$2b17 <sortFileList_far+0x1aa>
    2ce4: 38           	sec
    2ce5: e5 19        	sbc	$19                     ; 0x19 <__rc9>
    2ce7: a8           	tay
    2ce8: a5 1a        	lda	$1a                     ; 0x1a <__rc10>
    2cea: e5 18        	sbc	$18                     ; 0x18 <__rc8>
    2cec: aa           	tax
    2ced: 18           	clc
    2cee: 98           	tya
    2cef: 84 2a        	sty	$2a                     ; 0x2a <__rc26>
    2cf1: 69 b6        	adc	#$b6
    2cf3: 85 2c        	sta	$2c                     ; 0x2c <__rc28>
    2cf5: 8a           	txa
    2cf6: 86 2b        	stx	$2b                     ; 0x2b <__rc27>
    2cf8: 69 00        	adc	#$0
    2cfa: 85 2d        	sta	$2d                     ; 0x2d <__rc29>
    2cfc: a9 00        	lda	#$0
    2cfe: 69 03        	adc	#$3
    2d00: 85 2e        	sta	$2e                     ; 0x2e <__rc30>
    2d02: a0 00        	ldy	#$0
    2d04: 84 18        	sty	$18                     ; 0x18 <__rc8>
    2d06: a5 2c        	lda	$2c                     ; 0x2c <__rc28>
    2d08: 18           	clc
    2d09: 65 18        	adc	$18                     ; 0x18 <__rc8>
    2d0b: 85 19        	sta	$19                     ; 0x19 <__rc9>
    2d0d: a5 2d        	lda	$2d                     ; 0x2d <__rc29>
    2d0f: 69 00        	adc	#$0
    2d11: 85 1a        	sta	$1a                     ; 0x1a <__rc10>
    2d13: a5 2e        	lda	$2e                     ; 0x2e <__rc30>
    2d15: 69 00        	adc	#$0
    2d17: 5a           	phy
    2d18: a6 1a        	ldx	$1a                     ; 0x1a <__rc10>
    2d1a: 86 18        	stx	$18                     ; 0x18 <__rc8>
    2d1c: 06 18        	asl	$18                     ; 0x18 <__rc8>
    2d1e: 2a           	rol
    2d1f: 06 18        	asl	$18                     ; 0x18 <__rc8>
    2d21: 2a           	rol
    2d22: 06 18        	asl	$18                     ; 0x18 <__rc8>
    2d24: 2a           	rol
    2d25: a6 0f        	ldx	$f                      ; 0xf
    2d27: 78           	sei
    2d28: 85 0f        	sta	$f                      ; 0xf
    2d2a: a5 1a        	lda	$1a                     ; 0x1a <__rc10>
    2d2c: 09 e0        	ora	#$e0
    2d2e: a4 19        	ldy	$19                     ; 0x19 <__rc9>
    2d30: 84 18        	sty	$18                     ; 0x18 <__rc8>
    2d32: 7a           	ply
    2d33: 85 19        	sta	$19                     ; 0x19 <__rc9>
    2d35: b2 18        	lda	($18)                   ; 0x18 <__rc8>
    2d37: 86 0f        	stx	$f                      ; 0xf
    2d39: 18           	clc
    2d3a: 48           	pha
    2d3b: a5 10        	lda	$10                     ; 0x10 <__zp_data_size>
    2d3d: 69 07        	adc	#$7
    2d3f: 85 1c        	sta	$1c                     ; 0x1c <__rc12>
    2d41: a5 11        	lda	$11                     ; 0x11 <__rc1>
    2d43: 69 00        	adc	#$0
    2d45: 85 1d        	sta	$1d                     ; 0x1d <__rc13>
    2d47: 68           	pla
    2d48: 58           	cli
    2d49: 91 1c        	sta	($1c),y                 ; 0x1c <__rc12>
    2d4b: aa           	tax
    2d4c: f0 08        	beq	$2d56 <sortFileList_far+0x3e9>
    2d4e: c8           	iny
    2d4f: c0 78        	cpy	#$78
    2d51: f0 03        	beq	$2d56 <sortFileList_far+0x3e9>
    2d53: 4c 04 2d     	jmp	$2d04 <sortFileList_far+0x397>
    2d56: b2 1c        	lda	($1c)                   ; 0x1c <__rc12>
    2d58: 64 18        	stz	$18                     ; 0x18 <__rc8>
    2d5a: a6 14        	ldx	$14                     ; 0x14 <__rc4>
    2d5c: 86 1a        	stx	$1a                     ; 0x1a <__rc10>
    2d5e: a6 15        	ldx	$15                     ; 0x15 <__rc5>
    2d60: 86 1b        	stx	$1b                     ; 0x1b <__rc11>
    2d62: aa           	tax
    2d63: d0 03        	bne	$2d68 <sortFileList_far+0x3fb>
    2d65: 4c 47 2b     	jmp	$2b47 <sortFileList_far+0x1da>
    2d68: a6 1c        	ldx	$1c                     ; 0x1c <__rc12>
    2d6a: 86 1e        	stx	$1e                     ; 0x1e <__rc14>
    2d6c: a6 1d        	ldx	$1d                     ; 0x1d <__rc13>
    2d6e: 86 1f        	stx	$1f                     ; 0x1f <__rc15>
    2d70: a0 01        	ldy	#$1
    2d72: 85 19        	sta	$19                     ; 0x19 <__rc9>
    2d74: e6 1e        	inc	$1e                     ; 0x1e <__rc14>
    2d76: d0 02        	bne	$2d7a <sortFileList_far+0x40d>
    2d78: e6 1f        	inc	$1f                     ; 0x1f <__rc15>
    2d7a: b2 1a        	lda	($1a)                   ; 0x1a <__rc10>
    2d7c: d0 03        	bne	$2d81 <sortFileList_far+0x414>
    2d7e: 4c 39 2b     	jmp	$2b39 <sortFileList_far+0x1cc>
    2d81: 85 22        	sta	$22                     ; 0x22 <__rc18>
    2d83: a6 19        	ldx	$19                     ; 0x19 <__rc9>
    2d85: e0 41        	cpx	#$41
    2d87: 90 0a        	bcc	$2d93 <sortFileList_far+0x426>
    2d89: a5 19        	lda	$19                     ; 0x19 <__rc9>
    2d8b: c9 5b        	cmp	#$5b
    2d8d: b0 04        	bcs	$2d93 <sortFileList_far+0x426>
    2d8f: 09 20        	ora	#$20
    2d91: 85 19        	sta	$19                     ; 0x19 <__rc9>
    2d93: a5 22        	lda	$22                     ; 0x22 <__rc18>
    2d95: c9 41        	cmp	#$41
    2d97: 90 06        	bcc	$2d9f <sortFileList_far+0x432>
    2d99: c9 5b        	cmp	#$5b
    2d9b: b0 02        	bcs	$2d9f <sortFileList_far+0x432>
    2d9d: 09 20        	ora	#$20
    2d9f: 85 22        	sta	$22                     ; 0x22 <__rc18>
    2da1: a6 19        	ldx	$19                     ; 0x19 <__rc9>
    2da3: e4 22        	cpx	$22                     ; 0x22 <__rc18>
    2da5: f0 03        	beq	$2daa <sortFileList_far+0x43d>
    2da7: 4c 57 2b     	jmp	$2b57 <sortFileList_far+0x1ea>
    2daa: e6 1a        	inc	$1a                     ; 0x1a <__rc10>
    2dac: d0 02        	bne	$2db0 <sortFileList_far+0x443>
    2dae: e6 1b        	inc	$1b                     ; 0x1b <__rc11>
    2db0: b1 1c        	lda	($1c),y                 ; 0x1c <__rc12>
    2db2: a6 1e        	ldx	$1e                     ; 0x1e <__rc14>
    2db4: 86 1c        	stx	$1c                     ; 0x1c <__rc12>
    2db6: a6 1f        	ldx	$1f                     ; 0x1f <__rc15>
    2db8: 86 1d        	stx	$1d                     ; 0x1d <__rc13>
    2dba: aa           	tax
    2dbb: d0 b5        	bne	$2d72 <sortFileList_far+0x405>
    2dbd: 4c 47 2b     	jmp	$2b47 <sortFileList_far+0x1da>
    2dc0: a6 26        	ldx	$26                     ; 0x26 <__rc22>
    2dc2: 80 09        	bra	$2dcd <sortFileList_far+0x460>
    2dc4: a2 01        	ldx	#$1
    2dc6: 86 27        	stx	$27                     ; 0x27 <__rc23>
    2dc8: ca           	dex
    2dc9: 64 17        	stz	$17                     ; 0x17 <__rc7>
    2dcb: 64 16        	stz	$16                     ; 0x16 <__rc6>
    2dcd: 06 17        	asl	$17                     ; 0x17 <__rc7>
    2dcf: 26 16        	rol	$16                     ; 0x16 <__rc6>
    2dd1: 06 17        	asl	$17                     ; 0x17 <__rc7>
    2dd3: 26 16        	rol	$16                     ; 0x16 <__rc6>
    2dd5: 06 17        	asl	$17                     ; 0x17 <__rc7>
    2dd7: 26 16        	rol	$16                     ; 0x16 <__rc6>
    2dd9: a5 17        	lda	$17                     ; 0x17 <__rc7>
    2ddb: 0a           	asl
    2ddc: a4 16        	ldy	$16                     ; 0x16 <__rc6>
    2dde: 84 18        	sty	$18                     ; 0x18 <__rc8>
    2de0: 26 18        	rol	$18                     ; 0x18 <__rc8>
    2de2: 0a           	asl
    2de3: 26 18        	rol	$18                     ; 0x18 <__rc8>
    2de5: 0a           	asl
    2de6: 26 18        	rol	$18                     ; 0x18 <__rc8>
    2de8: 0a           	asl
    2de9: 26 18        	rol	$18                     ; 0x18 <__rc8>
    2deb: 38           	sec
    2dec: e5 17        	sbc	$17                     ; 0x17 <__rc7>
    2dee: 85 17        	sta	$17                     ; 0x17 <__rc7>
    2df0: a5 18        	lda	$18                     ; 0x18 <__rc8>
    2df2: e5 16        	sbc	$16                     ; 0x16 <__rc6>
    2df4: a8           	tay
    2df5: 18           	clc
    2df6: a5 17        	lda	$17                     ; 0x17 <__rc7>
    2df8: 69 78        	adc	#$78
    2dfa: 85 16        	sta	$16                     ; 0x16 <__rc6>
    2dfc: 98           	tya
    2dfd: 69 00        	adc	#$0
    2dff: a8           	tay
    2e00: 10 06        	bpl	$2e08 <sortFileList_far+0x49b>
    2e02: 86 18        	stx	$18                     ; 0x18 <__rc8>
    2e04: a2 ff        	ldx	#$ff
    2e06: 80 04        	bra	$2e0c <sortFileList_far+0x49f>
    2e08: 86 18        	stx	$18                     ; 0x18 <__rc8>
    2e0a: a2 00        	ldx	#$0
    2e0c: 18           	clc
    2e0d: a5 16        	lda	$16                     ; 0x16 <__rc6>
    2e0f: 69 b6        	adc	#$b6
    2e11: 85 17        	sta	$17                     ; 0x17 <__rc7>
    2e13: 98           	tya
    2e14: 69 00        	adc	#$0
    2e16: a8           	tay
    2e17: 8a           	txa
    2e18: 69 03        	adc	#$3
    2e1a: aa           	tax
    2e1b: b2 14        	lda	($14)                   ; 0x14 <__rc4>
    2e1d: 85 1c        	sta	$1c                     ; 0x1c <__rc12>
    2e1f: 84 16        	sty	$16                     ; 0x16 <__rc6>
    2e21: 06 16        	asl	$16                     ; 0x16 <__rc6>
    2e23: 86 1b        	stx	$1b                     ; 0x1b <__rc11>
    2e25: 8a           	txa
    2e26: 2a           	rol
    2e27: 06 16        	asl	$16                     ; 0x16 <__rc6>
    2e29: 2a           	rol
    2e2a: 06 16        	asl	$16                     ; 0x16 <__rc6>
    2e2c: 2a           	rol
    2e2d: a6 0f        	ldx	$f                      ; 0xf
    2e2f: 78           	sei
    2e30: 85 0f        	sta	$f                      ; 0xf
    2e32: 98           	tya
    2e33: 84 1a        	sty	$1a                     ; 0x1a <__rc10>
    2e35: 09 e0        	ora	#$e0
    2e37: a4 17        	ldy	$17                     ; 0x17 <__rc7>
    2e39: 84 19        	sty	$19                     ; 0x19 <__rc9>
    2e3b: a4 17        	ldy	$17                     ; 0x17 <__rc7>
    2e3d: 84 16        	sty	$16                     ; 0x16 <__rc6>
    2e3f: 85 17        	sta	$17                     ; 0x17 <__rc7>
    2e41: a5 1c        	lda	$1c                     ; 0x1c <__rc12>
    2e43: 92 16        	sta	($16)                   ; 0x16 <__rc6>
    2e45: 86 0f        	stx	$f                      ; 0xf
    2e47: 58           	cli
    2e48: a0 01        	ldy	#$1
    2e4a: 80 3f        	bra	$2e8b <sortFileList_far+0x51e>
    2e4c: 84 16        	sty	$16                     ; 0x16 <__rc6>
    2e4e: a5 19        	lda	$19                     ; 0x19 <__rc9>
    2e50: 18           	clc
    2e51: 65 16        	adc	$16                     ; 0x16 <__rc6>
    2e53: 85 17        	sta	$17                     ; 0x17 <__rc7>
    2e55: a5 1a        	lda	$1a                     ; 0x1a <__rc10>
    2e57: 69 00        	adc	#$0
    2e59: 85 1c        	sta	$1c                     ; 0x1c <__rc12>
    2e5b: a5 1b        	lda	$1b                     ; 0x1b <__rc11>
    2e5d: 69 00        	adc	#$0
    2e5f: aa           	tax
    2e60: b1 14        	lda	($14),y                 ; 0x14 <__rc4>
    2e62: 85 1d        	sta	$1d                     ; 0x1d <__rc13>
    2e64: a5 1c        	lda	$1c                     ; 0x1c <__rc12>
    2e66: 85 16        	sta	$16                     ; 0x16 <__rc6>
    2e68: 06 16        	asl	$16                     ; 0x16 <__rc6>
    2e6a: 8a           	txa
    2e6b: 2a           	rol
    2e6c: 06 16        	asl	$16                     ; 0x16 <__rc6>
    2e6e: 2a           	rol
    2e6f: 06 16        	asl	$16                     ; 0x16 <__rc6>
    2e71: 2a           	rol
    2e72: a6 0f        	ldx	$f                      ; 0xf
    2e74: 78           	sei
    2e75: 85 0f        	sta	$f                      ; 0xf
    2e77: a5 17        	lda	$17                     ; 0x17 <__rc7>
    2e79: 85 16        	sta	$16                     ; 0x16 <__rc6>
    2e7b: a5 1c        	lda	$1c                     ; 0x1c <__rc12>
    2e7d: 09 e0        	ora	#$e0
    2e7f: 85 17        	sta	$17                     ; 0x17 <__rc7>
    2e81: a5 1d        	lda	$1d                     ; 0x1d <__rc13>
    2e83: 85 1c        	sta	$1c                     ; 0x1c <__rc12>
    2e85: 92 16        	sta	($16)                   ; 0x16 <__rc6>
    2e87: 86 0f        	stx	$f                      ; 0xf
    2e89: 58           	cli
    2e8a: c8           	iny
    2e8b: a5 1c        	lda	$1c                     ; 0x1c <__rc12>
    2e8d: f0 04        	beq	$2e93 <sortFileList_far+0x526>
    2e8f: c0 78        	cpy	#$78
    2e91: d0 b9        	bne	$2e4c <sortFileList_far+0x4df>
    2e93: a6 18        	ldx	$18                     ; 0x18 <__rc8>
    2e95: 10 04        	bpl	$2e9b <sortFileList_far+0x52e>
    2e97: a0 ff        	ldy	#$ff
    2e99: 80 02        	bra	$2e9d <sortFileList_far+0x530>
    2e9b: a0 00        	ldy	#$0
    2e9d: 18           	clc
    2e9e: a5 27        	lda	$27                     ; 0x27 <__rc23>
    2ea0: 69 76        	adc	#$76
    2ea2: 85 15        	sta	$15                     ; 0x15 <__rc5>
    2ea4: 8a           	txa
    2ea5: 69 5e        	adc	#$5e
    2ea7: 85 16        	sta	$16                     ; 0x16 <__rc6>
    2ea9: 98           	tya
    2eaa: 69 03        	adc	#$3
    2eac: a6 16        	ldx	$16                     ; 0x16 <__rc6>
    2eae: 86 14        	stx	$14                     ; 0x14 <__rc4>
    2eb0: 06 14        	asl	$14                     ; 0x14 <__rc4>
    2eb2: 2a           	rol
    2eb3: 06 14        	asl	$14                     ; 0x14 <__rc4>
    2eb5: 2a           	rol
    2eb6: 06 14        	asl	$14                     ; 0x14 <__rc4>
    2eb8: 2a           	rol
    2eb9: a6 0f        	ldx	$f                      ; 0xf
    2ebb: 78           	sei
    2ebc: 85 0f        	sta	$f                      ; 0xf
    2ebe: a4 15        	ldy	$15                     ; 0x15 <__rc5>
    2ec0: 84 14        	sty	$14                     ; 0x14 <__rc4>
    2ec2: a5 16        	lda	$16                     ; 0x16 <__rc6>
    2ec4: 09 e0        	ora	#$e0
    2ec6: 85 15        	sta	$15                     ; 0x15 <__rc5>
    2ec8: a5 25        	lda	$25                     ; 0x25 <__rc21>
    2eca: 92 14        	sta	($14)                   ; 0x14 <__rc4>
    2ecc: 86 0f        	stx	$f                      ; 0xf
    2ece: 58           	cli
    2ecf: a6 23        	ldx	$23                     ; 0x23 <__rc19>
    2ed1: e8           	inx
    2ed2: d0 02        	bne	$2ed6 <sortFileList_far+0x569>
    2ed4: e6 24        	inc	$24                     ; 0x24 <__rc20>
    2ed6: a4 24        	ldy	$24                     ; 0x24 <__rc20>
    2ed8: c4 13        	cpy	$13                     ; 0x13 <__rc3>
    2eda: f0 03        	beq	$2edf <sortFileList_far+0x572>
    2edc: 4c 2e 2a     	jmp	$2a2e <sortFileList_far+0xc1>
    2edf: e4 12        	cpx	$12                     ; 0x12 <__rc2>
    2ee1: f0 03        	beq	$2ee6 <sortFileList_far+0x579>
    2ee3: 4c 2e 2a     	jmp	$2a2e <sortFileList_far+0xc1>
    2ee6: a0 00        	ldy	#$0
    2ee8: b1 10        	lda	($10),y                 ; 0x10 <__zp_data_size>
    2eea: 85 2e        	sta	$2e                     ; 0x2e <__rc30>
    2eec: c8           	iny
    2eed: b1 10        	lda	($10),y                 ; 0x10 <__zp_data_size>
    2eef: 85 2d        	sta	$2d                     ; 0x2d <__rc29>
    2ef1: c8           	iny
    2ef2: b1 10        	lda	($10),y                 ; 0x10 <__zp_data_size>
    2ef4: 85 2c        	sta	$2c                     ; 0x2c <__rc28>
    2ef6: c8           	iny
    2ef7: b1 10        	lda	($10),y                 ; 0x10 <__zp_data_size>
    2ef9: 85 2b        	sta	$2b                     ; 0x2b <__rc27>
    2efb: c8           	iny
    2efc: b1 10        	lda	($10),y                 ; 0x10 <__zp_data_size>
    2efe: 85 2a        	sta	$2a                     ; 0x2a <__rc26>
    2f00: c8           	iny
    2f01: b1 10        	lda	($10),y                 ; 0x10 <__zp_data_size>
    2f03: 85 29        	sta	$29                     ; 0x29 <__rc25>
    2f05: c8           	iny
    2f06: b1 10        	lda	($10),y                 ; 0x10 <__zp_data_size>
    2f08: 85 28        	sta	$28                     ; 0x28 <__rc24>
    2f0a: fa           	plx
    2f0b: 86 27        	stx	$27                     ; 0x27 <__rc23>
    2f0d: fa           	plx
    2f0e: 86 26        	stx	$26                     ; 0x26 <__rc22>
    2f10: fa           	plx
    2f11: 86 25        	stx	$25                     ; 0x25 <__rc21>
    2f13: fa           	plx
    2f14: 86 24        	stx	$24                     ; 0x24 <__rc20>
    2f16: 18           	clc
    2f17: a5 10        	lda	$10                     ; 0x10 <__zp_data_size>
    2f19: 69 f7        	adc	#$f7
    2f1b: 85 10        	sta	$10                     ; 0x10 <__zp_data_size>
    2f1d: a5 11        	lda	$11                     ; 0x11 <__rc1>
    2f1f: 69 00        	adc	#$0
    2f21: 85 11        	sta	$11                     ; 0x11 <__rc1>
    2f23: 60           	rts

00002f24 <displayFileList_far>:
    2f24: 48           	pha
    2f25: 18           	clc
    2f26: a5 10        	lda	$10                     ; 0x10 <__zp_data_size>
    2f28: 69 ff        	adc	#$ff
    2f2a: 85 10        	sta	$10                     ; 0x10 <__zp_data_size>
    2f2c: a5 11        	lda	$11                     ; 0x11 <__rc1>
    2f2e: 69 fe        	adc	#$fe
    2f30: 85 11        	sta	$11                     ; 0x11 <__rc1>
    2f32: 68           	pla
    2f33: a4 24        	ldy	$24                     ; 0x24 <__rc20>
    2f35: 5a           	phy
    2f36: a4 25        	ldy	$25                     ; 0x25 <__rc21>
    2f38: 5a           	phy
    2f39: a4 26        	ldy	$26                     ; 0x26 <__rc22>
    2f3b: 5a           	phy
    2f3c: a4 27        	ldy	$27                     ; 0x27 <__rc23>
    2f3e: 5a           	phy
    2f3f: 48           	pha
    2f40: a5 28        	lda	$28                     ; 0x28 <__rc24>
    2f42: a0 0d        	ldy	#$d
    2f44: 91 10        	sta	($10),y                 ; 0x10 <__zp_data_size>
    2f46: a5 29        	lda	$29                     ; 0x29 <__rc25>
    2f48: 88           	dey
    2f49: 91 10        	sta	($10),y                 ; 0x10 <__zp_data_size>
    2f4b: a5 2a        	lda	$2a                     ; 0x2a <__rc26>
    2f4d: 88           	dey
    2f4e: 91 10        	sta	($10),y                 ; 0x10 <__zp_data_size>
    2f50: a5 2b        	lda	$2b                     ; 0x2b <__rc27>
    2f52: 88           	dey
    2f53: 91 10        	sta	($10),y                 ; 0x10 <__zp_data_size>
    2f55: a5 2c        	lda	$2c                     ; 0x2c <__rc28>
    2f57: 88           	dey
    2f58: 91 10        	sta	($10),y                 ; 0x10 <__zp_data_size>
    2f5a: a5 2d        	lda	$2d                     ; 0x2d <__rc29>
    2f5c: 88           	dey
    2f5d: 91 10        	sta	($10),y                 ; 0x10 <__zp_data_size>
    2f5f: a5 2e        	lda	$2e                     ; 0x2e <__rc30>
    2f61: 88           	dey
    2f62: 91 10        	sta	($10),y                 ; 0x10 <__zp_data_size>
    2f64: a5 2f        	lda	$2f                     ; 0x2f <__rc31>
    2f66: 88           	dey
    2f67: 91 10        	sta	($10),y                 ; 0x10 <__zp_data_size>
    2f69: 68           	pla
    2f6a: 85 14        	sta	$14                     ; 0x14 <__rc4>
    2f6c: 86 13        	stx	$13                     ; 0x13 <__rc3>
    2f6e: a4 0f        	ldy	$f                      ; 0xf
    2f70: 78           	sei
    2f71: a9 18        	lda	#$18
    2f73: 85 0f        	sta	$f                      ; 0xf
    2f75: ae 00 e0     	ldx	$e000                   ; 0xe000 <end_block9+0x5776>
    2f78: 86 2c        	stx	$2c                     ; 0x2c <__rc28>
    2f7a: 84 0f        	sty	$f                      ; 0xf
    2f7c: 58           	cli
    2f7d: a4 0f        	ldy	$f                      ; 0xf
    2f7f: 78           	sei
    2f80: 85 0f        	sta	$f                      ; 0xf
    2f82: ae 01 e0     	ldx	$e001                   ; 0xe001 <end_block9+0x5777>
    2f85: 86 2a        	stx	$2a                     ; 0x2a <__rc26>
    2f87: 84 0f        	sty	$f                      ; 0xf
    2f89: 58           	cli
    2f8a: a4 0f        	ldy	$f                      ; 0xf
    2f8c: 78           	sei
    2f8d: a2 1a        	ldx	#$1a
    2f8f: 86 0f        	stx	$f                      ; 0xf
    2f91: 8a           	txa
    2f92: ae 3e ff     	ldx	$ff3e                   ; 0xff3e <end_block9+0x76b4>
    2f95: 86 12        	stx	$12                     ; 0x12 <__rc2>
    2f97: ae 3f ff     	ldx	$ff3f                   ; 0xff3f <end_block9+0x76b5>
    2f9a: 86 2e        	stx	$2e                     ; 0x2e <__rc30>
    2f9c: 84 0f        	sty	$f                      ; 0xf
    2f9e: 58           	cli
    2f9f: a6 0f        	ldx	$f                      ; 0xf
    2fa1: 78           	sei
    2fa2: 85 0f        	sta	$f                      ; 0xf
    2fa4: ac 42 ff     	ldy	$ff42                   ; 0xff42 <end_block9+0x76b8>
    2fa7: 48           	pha
    2fa8: 98           	tya
    2fa9: a0 10        	ldy	#$10
    2fab: 91 10        	sta	($10),y                 ; 0x10 <__zp_data_size>
    2fad: 68           	pla
    2fae: ac 43 ff     	ldy	$ff43                   ; 0xff43 <end_block9+0x76b9>
    2fb1: 84 2f        	sty	$2f                     ; 0x2f <__rc31>
    2fb3: 86 0f        	stx	$f                      ; 0xf
    2fb5: 58           	cli
    2fb6: a6 0f        	ldx	$f                      ; 0xf
    2fb8: 78           	sei
    2fb9: 85 0f        	sta	$f                      ; 0xf
    2fbb: ac 46 ff     	ldy	$ff46                   ; 0xff46 <end_block9+0x76bc>
    2fbe: 84 28        	sty	$28                     ; 0x28 <__rc24>
    2fc0: ac 47 ff     	ldy	$ff47                   ; 0xff47 <end_block9+0x76bd>
    2fc3: 86 0f        	stx	$f                      ; 0xf
    2fc5: a5 14        	lda	$14                     ; 0x14 <__rc4>
    2fc7: 85 26        	sta	$26                     ; 0x26 <__rc22>
    2fc9: 18           	clc
    2fca: 69 10        	adc	#$10
    2fcc: 85 2d        	sta	$2d                     ; 0x2d <__rc29>
    2fce: a5 13        	lda	$13                     ; 0x13 <__rc3>
    2fd0: 85 25        	sta	$25                     ; 0x25 <__rc21>
    2fd2: 69 00        	adc	#$0
    2fd4: 58           	cli
    2fd5: e6 26        	inc	$26                     ; 0x26 <__rc22>
    2fd7: d0 02        	bne	$2fdb <displayFileList_far+0xb7>
    2fd9: e6 25        	inc	$25                     ; 0x25 <__rc21>
    2fdb: c5 2e        	cmp	$2e                     ; 0x2e <__rc30>
    2fdd: d0 06        	bne	$2fe5 <displayFileList_far+0xc1>
    2fdf: a6 2d        	ldx	$2d                     ; 0x2d <__rc29>
    2fe1: e4 12        	cpx	$12                     ; 0x12 <__rc2>
    2fe3: 80 02        	bra	$2fe7 <displayFileList_far+0xc3>
    2fe5: c5 2e        	cmp	$2e                     ; 0x2e <__rc30>
    2fe7: 85 29        	sta	$29                     ; 0x29 <__rc25>
    2fe9: 90 08        	bcc	$2ff3 <displayFileList_far+0xcf>
    2feb: a6 12        	ldx	$12                     ; 0x12 <__rc2>
    2fed: 86 2d        	stx	$2d                     ; 0x2d <__rc29>
    2fef: a6 2e        	ldx	$2e                     ; 0x2e <__rc30>
    2ff1: 86 29        	stx	$29                     ; 0x29 <__rc25>
    2ff3: a5 12        	lda	$12                     ; 0x12 <__rc2>
    2ff5: 5a           	phy
    2ff6: a0 0f        	ldy	#$f
    2ff8: 91 10        	sta	($10),y                 ; 0x10 <__zp_data_size>
    2ffa: 7a           	ply
    2ffb: 84 27        	sty	$27                     ; 0x27 <__rc23>
    2ffd: a6 2c        	ldx	$2c                     ; 0x2c <__rc28>
    2fff: 86 40        	stx	$40                     ; 0x40 <_col>
    3001: 8e 14 d0     	stx	$d014                   ; 0xd014 <end_block9+0x478a>
    3004: 86 2b        	stx	$2b                     ; 0x2b <__rc27>
    3006: 9c 15 d0     	stz	$d015                   ; 0xd015 <end_block9+0x478b>
    3009: a6 2a        	ldx	$2a                     ; 0x2a <__rc26>
    300b: 86 41        	stx	$41                     ; 0x41 <_row>
    300d: 8e 16 d0     	stx	$d016                   ; 0xd016 <end_block9+0x478c>
    3010: 86 24        	stx	$24                     ; 0x24 <__rc20>
    3012: 9c 17 d0     	stz	$d017                   ; 0xd017 <end_block9+0x478d>
    3015: 20 b0 44     	jsr	$44b0 <wipeArea_far>
    3018: a6 2b        	ldx	$2b                     ; 0x2b <__rc27>
    301a: 86 40        	stx	$40                     ; 0x40 <_col>
    301c: 8e 14 d0     	stx	$d014                   ; 0xd014 <end_block9+0x478a>
    301f: 9c 15 d0     	stz	$d015                   ; 0xd015 <end_block9+0x478b>
    3022: a6 24        	ldx	$24                     ; 0x24 <__rc20>
    3024: 86 41        	stx	$41                     ; 0x41 <_row>
    3026: 8e 16 d0     	stx	$d016                   ; 0xd016 <end_block9+0x478c>
    3029: 9c 17 d0     	stz	$d017                   ; 0xd017 <end_block9+0x478d>
    302c: a0 00        	ldy	#$0
    302e: 98           	tya
    302f: 18           	clc
    3030: 69 b6        	adc	#$b6
    3032: 85 12        	sta	$12                     ; 0x12 <__rc2>
    3034: a9 00        	lda	#$0
    3036: 69 e0        	adc	#$e0
    3038: a6 0f        	ldx	$f                      ; 0xf
    303a: 86 14        	stx	$14                     ; 0x14 <__rc4>
    303c: 78           	sei
    303d: a2 18        	ldx	#$18
    303f: 86 0f        	stx	$f                      ; 0xf
    3041: 85 13        	sta	$13                     ; 0x13 <__rc3>
    3043: b2 12        	lda	($12)                   ; 0x12 <__rc2>
    3045: a6 14        	ldx	$14                     ; 0x14 <__rc4>
    3047: 86 0f        	stx	$f                      ; 0xf
    3049: 18           	clc
    304a: 48           	pha
    304b: a5 10        	lda	$10                     ; 0x10 <__zp_data_size>
    304d: 69 89        	adc	#$89
    304f: 85 12        	sta	$12                     ; 0x12 <__rc2>
    3051: a5 11        	lda	$11                     ; 0x11 <__rc1>
    3053: 69 00        	adc	#$0
    3055: 85 13        	sta	$13                     ; 0x13 <__rc3>
    3057: 68           	pla
    3058: 58           	cli
    3059: 91 12        	sta	($12),y                 ; 0x12 <__rc2>
    305b: aa           	tax
    305c: f0 05        	beq	$3063 <displayFileList_far+0x13f>
    305e: c8           	iny
    305f: c0 78        	cpy	#$78
    3061: d0 cb        	bne	$302e <displayFileList_far+0x10a>
    3063: a4 0f        	ldy	$f                      ; 0xf
    3065: 78           	sei
    3066: a2 1a        	ldx	#$1a
    3068: 86 0f        	stx	$f                      ; 0xf
    306a: ae 76 fe     	ldx	$fe76                   ; 0xfe76 <end_block9+0x75ec>
    306d: 84 0f        	sty	$f                      ; 0xf
    306f: 58           	cli
    3070: 64 14        	stz	$14                     ; 0x14 <__rc4>
    3072: a5 27        	lda	$27                     ; 0x27 <__rc23>
    3074: d0 07        	bne	$307d <displayFileList_far+0x159>
    3076: a5 28        	lda	$28                     ; 0x28 <__rc24>
    3078: d0 03        	bne	$307d <displayFileList_far+0x159>
    307a: 4c 6c 33     	jmp	$336c <displayFileList_far+0x448>
    307d: a9 20        	lda	#$20
    307f: e0 00        	cpx	#$0
    3081: f0 08        	beq	$308b <displayFileList_far+0x167>
    3083: a2 b6        	ldx	#$b6
    3085: 86 12        	stx	$12                     ; 0x12 <__rc2>
    3087: a2 7e        	ldx	#$7e
    3089: 80 06        	bra	$3091 <displayFileList_far+0x16d>
    308b: a2 28        	ldx	#$28
    308d: 86 12        	stx	$12                     ; 0x12 <__rc2>
    308f: a2 7d        	ldx	#$7d
    3091: 86 13        	stx	$13                     ; 0x13 <__rc3>
    3093: a6 10        	ldx	$10                     ; 0x10 <__zp_data_size>
    3095: 92 10        	sta	($10)                   ; 0x10 <__zp_data_size>
    3097: a0 01        	ldy	#$1
    3099: a9 00        	lda	#$0
    309b: 91 10        	sta	($10),y                 ; 0x10 <__zp_data_size>
    309d: 84 17        	sty	$17                     ; 0x17 <__rc7>
    309f: 18           	clc
    30a0: a5 10        	lda	$10                     ; 0x10 <__zp_data_size>
    30a2: 69 89        	adc	#$89
    30a4: a0 01        	ldy	#$1
    30a6: b0 02        	bcs	$30aa <displayFileList_far+0x186>
    30a8: a0 00        	ldy	#$0
    30aa: 84 18        	sty	$18                     ; 0x18 <__rc8>
    30ac: a0 02        	ldy	#$2
    30ae: 91 10        	sta	($10),y                 ; 0x10 <__zp_data_size>
    30b0: 8a           	txa
    30b1: 18           	clc
    30b2: 69 02        	adc	#$2
    30b4: 85 14        	sta	$14                     ; 0x14 <__rc4>
    30b6: a5 11        	lda	$11                     ; 0x11 <__rc1>
    30b8: 69 00        	adc	#$0
    30ba: 85 15        	sta	$15                     ; 0x15 <__rc5>
    30bc: a4 18        	ldy	$18                     ; 0x18 <__rc8>
    30be: c0 01        	cpy	#$1
    30c0: a5 11        	lda	$11                     ; 0x11 <__rc1>
    30c2: 69 00        	adc	#$0
    30c4: a4 17        	ldy	$17                     ; 0x17 <__rc7>
    30c6: 91 14        	sta	($14),y                 ; 0x14 <__rc4>
    30c8: 8a           	txa
    30c9: 18           	clc
    30ca: 69 04        	adc	#$4
    30cc: 85 14        	sta	$14                     ; 0x14 <__rc4>
    30ce: a5 11        	lda	$11                     ; 0x11 <__rc1>
    30d0: 69 00        	adc	#$0
    30d2: a0 04        	ldy	#$4
    30d4: 85 15        	sta	$15                     ; 0x15 <__rc5>
    30d6: a5 12        	lda	$12                     ; 0x12 <__rc2>
    30d8: 91 10        	sta	($10),y                 ; 0x10 <__zp_data_size>
    30da: a4 17        	ldy	$17                     ; 0x17 <__rc7>
    30dc: a5 13        	lda	$13                     ; 0x13 <__rc3>
    30de: 91 14        	sta	($14),y                 ; 0x14 <__rc4>
    30e0: a2 48        	ldx	#$48
    30e2: 86 12        	stx	$12                     ; 0x12 <__rc2>
    30e4: a2 84        	ldx	#$84
    30e6: 86 13        	stx	$13                     ; 0x13 <__rc3>
    30e8: 20 e5 73     	jsr	$73e5 <printf>
    30eb: a6 26        	ldx	$26                     ; 0x26 <__rc22>
    30ed: e4 2d        	cpx	$2d                     ; 0x2d <__rc29>
    30ef: a5 25        	lda	$25                     ; 0x25 <__rc21>
    30f1: e5 29        	sbc	$29                     ; 0x29 <__rc25>
    30f3: 50 02        	bvc	$30f7 <displayFileList_far+0x1d3>
    30f5: 49 80        	eor	#$80
    30f7: e6 2a        	inc	$2a                     ; 0x2a <__rc26>
    30f9: aa           	tax
    30fa: 30 03        	bmi	$30ff <displayFileList_far+0x1db>
    30fc: 4c 9a 32     	jmp	$329a <displayFileList_far+0x376>
    30ff: a5 2d        	lda	$2d                     ; 0x2d <__rc29>
    3101: a0 0e        	ldy	#$e
    3103: 91 10        	sta	($10),y                 ; 0x10 <__zp_data_size>
    3105: a4 26        	ldy	$26                     ; 0x26 <__rc22>
    3107: 98           	tya
    3108: 38           	sec
    3109: e5 26        	sbc	$26                     ; 0x26 <__rc22>
    310b: 18           	clc
    310c: 65 2a        	adc	$2a                     ; 0x2a <__rc26>
    310e: a6 2c        	ldx	$2c                     ; 0x2c <__rc28>
    3110: 86 40        	stx	$40                     ; 0x40 <_col>
    3112: 8e 14 d0     	stx	$d014                   ; 0xd014 <end_block9+0x478a>
    3115: 9c 15 d0     	stz	$d015                   ; 0xd015 <end_block9+0x478b>
    3118: 85 41        	sta	$41                     ; 0x41 <_row>
    311a: 8d 16 d0     	sta	$d016                   ; 0xd016 <end_block9+0x478c>
    311d: 9c 17 d0     	stz	$d017                   ; 0xd017 <end_block9+0x478d>
    3120: a6 2f        	ldx	$2f                     ; 0x2f <__rc31>
    3122: 84 2b        	sty	$2b                     ; 0x2b <__rc27>
    3124: e4 25        	cpx	$25                     ; 0x25 <__rc21>
    3126: d0 0e        	bne	$3136 <displayFileList_far+0x212>
    3128: 84 12        	sty	$12                     ; 0x12 <__rc2>
    312a: a0 10        	ldy	#$10
    312c: b1 10        	lda	($10),y                 ; 0x10 <__zp_data_size>
    312e: c5 12        	cmp	$12                     ; 0x12 <__rc2>
    3130: d0 04        	bne	$3136 <displayFileList_far+0x212>
    3132: a2 fa        	ldx	#$fa
    3134: 80 02        	bra	$3138 <displayFileList_far+0x214>
    3136: a2 20        	ldx	#$20
    3138: 86 42        	stx	$42                     ; 0x42 <__putchar.s>
    313a: a2 42        	ldx	#$42
    313c: 86 12        	stx	$12                     ; 0x12 <__rc2>
    313e: a2 00        	ldx	#$0
    3140: 86 13        	stx	$13                     ; 0x13 <__rc3>
    3142: 20 97 1b     	jsr	$1b97 <textPrint>
    3145: a5 2b        	lda	$2b                     ; 0x2b <__rc27>
    3147: 0a           	asl
    3148: a6 25        	ldx	$25                     ; 0x25 <__rc21>
    314a: 86 12        	stx	$12                     ; 0x12 <__rc2>
    314c: 26 12        	rol	$12                     ; 0x12 <__rc2>
    314e: 0a           	asl
    314f: 26 12        	rol	$12                     ; 0x12 <__rc2>
    3151: 0a           	asl
    3152: 85 13        	sta	$13                     ; 0x13 <__rc3>
    3154: 26 12        	rol	$12                     ; 0x12 <__rc2>
    3156: 0a           	asl
    3157: aa           	tax
    3158: a5 12        	lda	$12                     ; 0x12 <__rc2>
    315a: 2a           	rol
    315b: 86 14        	stx	$14                     ; 0x14 <__rc4>
    315d: 06 14        	asl	$14                     ; 0x14 <__rc4>
    315f: 2a           	rol
    3160: 06 14        	asl	$14                     ; 0x14 <__rc4>
    3162: 2a           	rol
    3163: 06 14        	asl	$14                     ; 0x14 <__rc4>
    3165: 2a           	rol
    3166: aa           	tax
    3167: 38           	sec
    3168: a5 14        	lda	$14                     ; 0x14 <__rc4>
    316a: e5 13        	sbc	$13                     ; 0x13 <__rc3>
    316c: 85 14        	sta	$14                     ; 0x14 <__rc4>
    316e: 8a           	txa
    316f: e5 12        	sbc	$12                     ; 0x12 <__rc2>
    3171: 85 15        	sta	$15                     ; 0x15 <__rc5>
    3173: 10 06        	bpl	$317b <displayFileList_far+0x257>
    3175: a2 ff        	ldx	#$ff
    3177: 86 16        	stx	$16                     ; 0x16 <__rc6>
    3179: 80 02        	bra	$317d <displayFileList_far+0x259>
    317b: 64 16        	stz	$16                     ; 0x16 <__rc6>
    317d: a0 00        	ldy	#$0
    317f: 84 12        	sty	$12                     ; 0x12 <__rc2>
    3181: a5 14        	lda	$14                     ; 0x14 <__rc4>
    3183: 18           	clc
    3184: 65 12        	adc	$12                     ; 0x12 <__rc2>
    3186: 85 12        	sta	$12                     ; 0x12 <__rc2>
    3188: a5 15        	lda	$15                     ; 0x15 <__rc5>
    318a: 69 00        	adc	#$0
    318c: 85 17        	sta	$17                     ; 0x17 <__rc7>
    318e: a5 16        	lda	$16                     ; 0x16 <__rc6>
    3190: 69 00        	adc	#$0
    3192: aa           	tax
    3193: 18           	clc
    3194: a5 12        	lda	$12                     ; 0x12 <__rc2>
    3196: 69 b6        	adc	#$b6
    3198: 85 13        	sta	$13                     ; 0x13 <__rc3>
    319a: a5 17        	lda	$17                     ; 0x17 <__rc7>
    319c: 69 00        	adc	#$0
    319e: 85 12        	sta	$12                     ; 0x12 <__rc2>
    31a0: 8a           	txa
    31a1: 69 03        	adc	#$3
    31a3: 85 17        	sta	$17                     ; 0x17 <__rc7>
    31a5: a5 12        	lda	$12                     ; 0x12 <__rc2>
    31a7: 06 12        	asl	$12                     ; 0x12 <__rc2>
    31a9: 26 17        	rol	$17                     ; 0x17 <__rc7>
    31ab: 06 12        	asl	$12                     ; 0x12 <__rc2>
    31ad: 26 17        	rol	$17                     ; 0x17 <__rc7>
    31af: 06 12        	asl	$12                     ; 0x12 <__rc2>
    31b1: 26 17        	rol	$17                     ; 0x17 <__rc7>
    31b3: a6 17        	ldx	$17                     ; 0x17 <__rc7>
    31b5: 86 12        	stx	$12                     ; 0x12 <__rc2>
    31b7: a6 0f        	ldx	$f                      ; 0xf
    31b9: 86 17        	stx	$17                     ; 0x17 <__rc7>
    31bb: 78           	sei
    31bc: a6 12        	ldx	$12                     ; 0x12 <__rc2>
    31be: 86 0f        	stx	$f                      ; 0xf
    31c0: 09 e0        	ora	#$e0
    31c2: a6 13        	ldx	$13                     ; 0x13 <__rc3>
    31c4: 86 12        	stx	$12                     ; 0x12 <__rc2>
    31c6: 85 13        	sta	$13                     ; 0x13 <__rc3>
    31c8: b2 12        	lda	($12)                   ; 0x12 <__rc2>
    31ca: a6 17        	ldx	$17                     ; 0x17 <__rc7>
    31cc: 86 0f        	stx	$f                      ; 0xf
    31ce: 18           	clc
    31cf: 48           	pha
    31d0: a5 10        	lda	$10                     ; 0x10 <__zp_data_size>
    31d2: 69 11        	adc	#$11
    31d4: 85 12        	sta	$12                     ; 0x12 <__rc2>
    31d6: a5 11        	lda	$11                     ; 0x11 <__rc1>
    31d8: 69 00        	adc	#$0
    31da: 85 13        	sta	$13                     ; 0x13 <__rc3>
    31dc: 68           	pla
    31dd: 58           	cli
    31de: 91 12        	sta	($12),y                 ; 0x12 <__rc2>
    31e0: aa           	tax
    31e1: f0 08        	beq	$31eb <displayFileList_far+0x2c7>
    31e3: c8           	iny
    31e4: c0 77        	cpy	#$77
    31e6: f0 03        	beq	$31eb <displayFileList_far+0x2c7>
    31e8: 4c 7f 31     	jmp	$317f <displayFileList_far+0x25b>
    31eb: a0 77        	ldy	#$77
    31ed: a9 00        	lda	#$0
    31ef: 91 12        	sta	($12),y                 ; 0x12 <__rc2>
    31f1: a5 25        	lda	$25                     ; 0x25 <__rc21>
    31f3: 10 04        	bpl	$31f9 <displayFileList_far+0x2d5>
    31f5: a0 ff        	ldy	#$ff
    31f7: 80 02        	bra	$31fb <displayFileList_far+0x2d7>
    31f9: a0 00        	ldy	#$0
    31fb: a5 2b        	lda	$2b                     ; 0x2b <__rc27>
    31fd: 18           	clc
    31fe: 69 76        	adc	#$76
    3200: 85 13        	sta	$13                     ; 0x13 <__rc3>
    3202: a5 25        	lda	$25                     ; 0x25 <__rc21>
    3204: 69 5e        	adc	#$5e
    3206: 85 14        	sta	$14                     ; 0x14 <__rc4>
    3208: 98           	tya
    3209: 69 03        	adc	#$3
    320b: a6 14        	ldx	$14                     ; 0x14 <__rc4>
    320d: 86 12        	stx	$12                     ; 0x12 <__rc2>
    320f: 06 12        	asl	$12                     ; 0x12 <__rc2>
    3211: 2a           	rol
    3212: 06 12        	asl	$12                     ; 0x12 <__rc2>
    3214: 2a           	rol
    3215: 06 12        	asl	$12                     ; 0x12 <__rc2>
    3217: 2a           	rol
    3218: a6 0f        	ldx	$f                      ; 0xf
    321a: 78           	sei
    321b: 85 0f        	sta	$f                      ; 0xf
    321d: a4 13        	ldy	$13                     ; 0x13 <__rc3>
    321f: 84 12        	sty	$12                     ; 0x12 <__rc2>
    3221: a5 14        	lda	$14                     ; 0x14 <__rc4>
    3223: 09 e0        	ora	#$e0
    3225: 85 13        	sta	$13                     ; 0x13 <__rc3>
    3227: b2 12        	lda	($12)                   ; 0x12 <__rc2>
    3229: 86 0f        	stx	$f                      ; 0xf
    322b: 58           	cli
    322c: aa           	tax
    322d: f0 08        	beq	$3237 <displayFileList_far+0x313>
    322f: a2 b6        	ldx	#$b6
    3231: 86 12        	stx	$12                     ; 0x12 <__rc2>
    3233: a2 7e        	ldx	#$7e
    3235: 80 06        	bra	$323d <displayFileList_far+0x319>
    3237: a2 28        	ldx	#$28
    3239: 86 12        	stx	$12                     ; 0x12 <__rc2>
    323b: a2 7d        	ldx	#$7d
    323d: 86 13        	stx	$13                     ; 0x13 <__rc3>
    323f: a6 11        	ldx	$11                     ; 0x11 <__rc1>
    3241: 18           	clc
    3242: a5 10        	lda	$10                     ; 0x10 <__zp_data_size>
    3244: 69 11        	adc	#$11
    3246: 48           	pha
    3247: a5 11        	lda	$11                     ; 0x11 <__rc1>
    3249: 69 00        	adc	#$0
    324b: 85 16        	sta	$16                     ; 0x16 <__rc6>
    324d: 68           	pla
    324e: 92 10        	sta	($10)                   ; 0x10 <__zp_data_size>
    3250: a0 01        	ldy	#$1
    3252: a5 16        	lda	$16                     ; 0x16 <__rc6>
    3254: 91 10        	sta	($10),y                 ; 0x10 <__zp_data_size>
    3256: 84 16        	sty	$16                     ; 0x16 <__rc6>
    3258: 18           	clc
    3259: a5 10        	lda	$10                     ; 0x10 <__zp_data_size>
    325b: 69 02        	adc	#$2
    325d: 85 14        	sta	$14                     ; 0x14 <__rc4>
    325f: 8a           	txa
    3260: 69 00        	adc	#$0
    3262: 85 15        	sta	$15                     ; 0x15 <__rc5>
    3264: a5 12        	lda	$12                     ; 0x12 <__rc2>
    3266: c8           	iny
    3267: 91 10        	sta	($10),y                 ; 0x10 <__zp_data_size>
    3269: a4 16        	ldy	$16                     ; 0x16 <__rc6>
    326b: a5 13        	lda	$13                     ; 0x13 <__rc3>
    326d: 91 14        	sta	($14),y                 ; 0x14 <__rc4>
    326f: a2 b4        	ldx	#$b4
    3271: 86 12        	stx	$12                     ; 0x12 <__rc2>
    3273: a2 7c        	ldx	#$7c
    3275: 86 13        	stx	$13                     ; 0x13 <__rc3>
    3277: 20 e5 73     	jsr	$73e5 <printf>
    327a: a6 25        	ldx	$25                     ; 0x25 <__rc21>
    327c: a4 2b        	ldy	$2b                     ; 0x2b <__rc27>
    327e: c8           	iny
    327f: d0 01        	bne	$3282 <displayFileList_far+0x35e>
    3281: e8           	inx
    3282: 86 25        	stx	$25                     ; 0x25 <__rc21>
    3284: e4 29        	cpx	$29                     ; 0x29 <__rc25>
    3286: f0 03        	beq	$328b <displayFileList_far+0x367>
    3288: 4c 07 31     	jmp	$3107 <displayFileList_far+0x1e3>
    328b: 5a           	phy
    328c: a0 0e        	ldy	#$e
    328e: b1 10        	lda	($10),y                 ; 0x10 <__zp_data_size>
    3290: 7a           	ply
    3291: 85 12        	sta	$12                     ; 0x12 <__rc2>
    3293: c4 12        	cpy	$12                     ; 0x12 <__rc2>
    3295: f0 03        	beq	$329a <displayFileList_far+0x376>
    3297: 4c 07 31     	jmp	$3107 <displayFileList_far+0x1e3>
    329a: 18           	clc
    329b: a5 2c        	lda	$2c                     ; 0x2c <__rc28>
    329d: 69 02        	adc	#$2
    329f: aa           	tax
    32a0: 38           	sec
    32a1: a5 2d        	lda	$2d                     ; 0x2d <__rc29>
    32a3: e5 26        	sbc	$26                     ; 0x26 <__rc22>
    32a5: 85 12        	sta	$12                     ; 0x12 <__rc2>
    32a7: a5 2a        	lda	$2a                     ; 0x2a <__rc26>
    32a9: 18           	clc
    32aa: 65 12        	adc	$12                     ; 0x12 <__rc2>
    32ac: 86 40        	stx	$40                     ; 0x40 <_col>
    32ae: 8e 14 d0     	stx	$d014                   ; 0xd014 <end_block9+0x478a>
    32b1: 9c 15 d0     	stz	$d015                   ; 0xd015 <end_block9+0x478b>
    32b4: 85 41        	sta	$41                     ; 0x41 <_row>
    32b6: 8d 16 d0     	sta	$d016                   ; 0xd016 <end_block9+0x478c>
    32b9: 9c 17 d0     	stz	$d017                   ; 0xd017 <end_block9+0x478d>
    32bc: a0 10        	ldy	#$10
    32be: b1 10        	lda	($10),y                 ; 0x10 <__zp_data_size>
    32c0: aa           	tax
    32c1: 18           	clc
    32c2: 69 10        	adc	#$10
    32c4: 85 13        	sta	$13                     ; 0x13 <__rc3>
    32c6: a5 2f        	lda	$2f                     ; 0x2f <__rc31>
    32c8: 69 00        	adc	#$0
    32ca: 85 12        	sta	$12                     ; 0x12 <__rc2>
    32cc: 38           	sec
    32cd: a5 13        	lda	$13                     ; 0x13 <__rc3>
    32cf: e5 28        	sbc	$28                     ; 0x28 <__rc24>
    32d1: 85 17        	sta	$17                     ; 0x17 <__rc7>
    32d3: a5 12        	lda	$12                     ; 0x12 <__rc2>
    32d5: e5 27        	sbc	$27                     ; 0x27 <__rc23>
    32d7: a4 2f        	ldy	$2f                     ; 0x2f <__rc31>
    32d9: d0 04        	bne	$32df <displayFileList_far+0x3bb>
    32db: e0 0f        	cpx	#$f
    32dd: 80 04        	bra	$32e3 <displayFileList_far+0x3bf>
    32df: a4 2f        	ldy	$2f                     ; 0x2f <__rc31>
    32e1: c0 00        	cpy	#$0
    32e3: a2 fb        	ldx	#$fb
    32e5: 86 16        	stx	$16                     ; 0x16 <__rc6>
    32e7: 48           	pha
    32e8: a0 0f        	ldy	#$f
    32ea: b1 10        	lda	($10),y                 ; 0x10 <__zp_data_size>
    32ec: 85 12        	sta	$12                     ; 0x12 <__rc2>
    32ee: 68           	pla
    32ef: b0 04        	bcs	$32f5 <displayFileList_far+0x3d1>
    32f1: a2 20        	ldx	#$20
    32f3: 86 16        	stx	$16                     ; 0x16 <__rc6>
    32f5: c5 2e        	cmp	$2e                     ; 0x2e <__rc30>
    32f7: d0 0a        	bne	$3303 <displayFileList_far+0x3df>
    32f9: a5 17        	lda	$17                     ; 0x17 <__rc7>
    32fb: c5 12        	cmp	$12                     ; 0x12 <__rc2>
    32fd: 90 08        	bcc	$3307 <displayFileList_far+0x3e3>
    32ff: a2 20        	ldx	#$20
    3301: 80 06        	bra	$3309 <displayFileList_far+0x3e5>
    3303: c5 2e        	cmp	$2e                     ; 0x2e <__rc30>
    3305: b0 f8        	bcs	$32ff <displayFileList_far+0x3db>
    3307: a2 f8        	ldx	#$f8
    3309: 64 12        	stz	$12                     ; 0x12 <__rc2>
    330b: a5 16        	lda	$16                     ; 0x16 <__rc6>
    330d: 92 10        	sta	($10)                   ; 0x10 <__zp_data_size>
    330f: a0 01        	ldy	#$1
    3311: a9 00        	lda	#$0
    3313: 91 10        	sta	($10),y                 ; 0x10 <__zp_data_size>
    3315: c8           	iny
    3316: 8a           	txa
    3317: 91 10        	sta	($10),y                 ; 0x10 <__zp_data_size>
    3319: c8           	iny
    331a: a9 00        	lda	#$0
    331c: 91 10        	sta	($10),y                 ; 0x10 <__zp_data_size>
    331e: a2 e1        	ldx	#$e1
    3320: 86 12        	stx	$12                     ; 0x12 <__rc2>
    3322: a2 84        	ldx	#$84
    3324: 86 13        	stx	$13                     ; 0x13 <__rc3>
    3326: 20 e5 73     	jsr	$73e5 <printf>
    3329: a0 06        	ldy	#$6
    332b: b1 10        	lda	($10),y                 ; 0x10 <__zp_data_size>
    332d: 85 2f        	sta	$2f                     ; 0x2f <__rc31>
    332f: c8           	iny
    3330: b1 10        	lda	($10),y                 ; 0x10 <__zp_data_size>
    3332: 85 2e        	sta	$2e                     ; 0x2e <__rc30>
    3334: c8           	iny
    3335: b1 10        	lda	($10),y                 ; 0x10 <__zp_data_size>
    3337: 85 2d        	sta	$2d                     ; 0x2d <__rc29>
    3339: c8           	iny
    333a: b1 10        	lda	($10),y                 ; 0x10 <__zp_data_size>
    333c: 85 2c        	sta	$2c                     ; 0x2c <__rc28>
    333e: c8           	iny
    333f: b1 10        	lda	($10),y                 ; 0x10 <__zp_data_size>
    3341: 85 2b        	sta	$2b                     ; 0x2b <__rc27>
    3343: c8           	iny
    3344: b1 10        	lda	($10),y                 ; 0x10 <__zp_data_size>
    3346: 85 2a        	sta	$2a                     ; 0x2a <__rc26>
    3348: c8           	iny
    3349: b1 10        	lda	($10),y                 ; 0x10 <__zp_data_size>
    334b: 85 29        	sta	$29                     ; 0x29 <__rc25>
    334d: c8           	iny
    334e: b1 10        	lda	($10),y                 ; 0x10 <__zp_data_size>
    3350: 85 28        	sta	$28                     ; 0x28 <__rc24>
    3352: fa           	plx
    3353: 86 27        	stx	$27                     ; 0x27 <__rc23>
    3355: fa           	plx
    3356: 86 26        	stx	$26                     ; 0x26 <__rc22>
    3358: fa           	plx
    3359: 86 25        	stx	$25                     ; 0x25 <__rc21>
    335b: fa           	plx
    335c: 86 24        	stx	$24                     ; 0x24 <__rc20>
    335e: 18           	clc
    335f: a5 10        	lda	$10                     ; 0x10 <__zp_data_size>
    3361: 69 01        	adc	#$1
    3363: 85 10        	sta	$10                     ; 0x10 <__zp_data_size>
    3365: a5 11        	lda	$11                     ; 0x11 <__rc1>
    3367: 69 01        	adc	#$1
    3369: 85 11        	sta	$11                     ; 0x11 <__rc1>
    336b: 60           	rts
    336c: a9 fa        	lda	#$fa
    336e: 4c 7f 30     	jmp	$307f <displayFileList_far+0x15b>

00003371 <pickFile_far>:
    3371: 18           	clc
    3372: a5 10        	lda	$10                     ; 0x10 <__zp_data_size>
    3374: 69 a2        	adc	#$a2
    3376: 85 10        	sta	$10                     ; 0x10 <__zp_data_size>
    3378: a5 11        	lda	$11                     ; 0x11 <__rc1>
    337a: 69 ff        	adc	#$ff
    337c: 85 11        	sta	$11                     ; 0x11 <__rc1>
    337e: a6 24        	ldx	$24                     ; 0x24 <__rc20>
    3380: da           	phx
    3381: a6 25        	ldx	$25                     ; 0x25 <__rc21>
    3383: da           	phx
    3384: a6 26        	ldx	$26                     ; 0x26 <__rc22>
    3386: da           	phx
    3387: a6 27        	ldx	$27                     ; 0x27 <__rc23>
    3389: da           	phx
    338a: a5 28        	lda	$28                     ; 0x28 <__rc24>
    338c: a0 05        	ldy	#$5
    338e: 91 10        	sta	($10),y                 ; 0x10 <__zp_data_size>
    3390: a5 29        	lda	$29                     ; 0x29 <__rc25>
    3392: 88           	dey
    3393: 91 10        	sta	($10),y                 ; 0x10 <__zp_data_size>
    3395: a5 2a        	lda	$2a                     ; 0x2a <__rc26>
    3397: 88           	dey
    3398: 91 10        	sta	($10),y                 ; 0x10 <__zp_data_size>
    339a: a5 2b        	lda	$2b                     ; 0x2b <__rc27>
    339c: 88           	dey
    339d: 91 10        	sta	($10),y                 ; 0x10 <__zp_data_size>
    339f: a2 08        	ldx	#$8
    33a1: 86 28        	stx	$28                     ; 0x28 <__rc24>
    33a3: a2 00        	ldx	#$0
    33a5: 86 29        	stx	$29                     ; 0x29 <__rc25>
    33a7: 64 72        	stz	$72                     ; 0x72 <kernelEventData>
    33a9: 18           	clc
    33aa: a5 10        	lda	$10                     ; 0x10 <__zp_data_size>
    33ac: 69 5b        	adc	#$5b
    33ae: 85 12        	sta	$12                     ; 0x12 <__rc2>
    33b0: a5 11        	lda	$11                     ; 0x11 <__rc1>
    33b2: 69 00        	adc	#$0
    33b4: 85 13        	sta	$13                     ; 0x13 <__rc3>
    33b6: a2 71        	ldx	#$71
    33b8: 86 14        	stx	$14                     ; 0x14 <__rc4>
    33ba: a2 00        	ldx	#$0
    33bc: 86 15        	stx	$15                     ; 0x15 <__rc5>
    33be: 20 00 ff     	jsr	$ff00 <end_block9+0x7676>
    33c1: 92 12        	sta	($12)                   ; 0x12 <__rc2>
    33c3: a9 00        	lda	#$0
    33c5: 6a           	ror
    33c6: 85 14        	sta	$14                     ; 0x14 <__rc4>
    33c8: b2 12        	lda	($12)                   ; 0x12 <__rc2>
    33ca: 18           	clc
    33cb: 48           	pha
    33cc: a5 10        	lda	$10                     ; 0x10 <__zp_data_size>
    33ce: 69 5a        	adc	#$5a
    33d0: 85 12        	sta	$12                     ; 0x12 <__rc2>
    33d2: a5 11        	lda	$11                     ; 0x11 <__rc1>
    33d4: 69 00        	adc	#$0
    33d6: 85 13        	sta	$13                     ; 0x13 <__rc3>
    33d8: 68           	pla
    33d9: 92 12        	sta	($12)                   ; 0x12 <__rc2>
    33db: b2 12        	lda	($12)                   ; 0x12 <__rc2>
    33dd: 18           	clc
    33de: 48           	pha
    33df: a5 10        	lda	$10                     ; 0x10 <__zp_data_size>
    33e1: 69 5c        	adc	#$5c
    33e3: 85 12        	sta	$12                     ; 0x12 <__rc2>
    33e5: a5 11        	lda	$11                     ; 0x11 <__rc1>
    33e7: 69 00        	adc	#$0
    33e9: 85 13        	sta	$13                     ; 0x13 <__rc3>
    33eb: 68           	pla
    33ec: 92 12        	sta	($12)                   ; 0x12 <__rc2>
    33ee: a6 72        	ldx	$72                     ; 0x72 <kernelEventData>
    33f0: a0 00        	ldy	#$0
    33f2: c4 29        	cpy	$29                     ; 0x29 <__rc25>
    33f4: f0 02        	beq	$33f8 <pickFile_far+0x87>
    33f6: 80 0d        	bra	$3405 <pickFile_far+0x94>
    33f8: e4 28        	cpx	$28                     ; 0x28 <__rc24>
    33fa: f0 02        	beq	$33fe <pickFile_far+0x8d>
    33fc: 80 02        	bra	$3400 <pickFile_far+0x8f>
    33fe: 80 03        	bra	$3403 <pickFile_far+0x92>
    3400: 4c 55 43     	jmp	$4355 <pickFile_far+0xfe4>
    3403: 80 03        	bra	$3408 <pickFile_far+0x97>
    3405: 4c 55 43     	jmp	$4355 <pickFile_far+0xfe4>
    3408: 80 00        	bra	$340a <pickFile_far+0x99>
    340a: a5 76        	lda	$76                     ; 0x76 <kernelEventData+0x4>
    340c: 18           	clc
    340d: 69 6e        	adc	#$6e
    340f: aa           	tax
    3410: a9 00        	lda	#$0
    3412: 69 ff        	adc	#$ff
    3414: c9 00        	cmp	#$0
    3416: a0 01        	ldy	#$1
    3418: b0 02        	bcs	$341c <pickFile_far+0xab>
    341a: a0 00        	ldy	#$0
    341c: 84 12        	sty	$12                     ; 0x12 <__rc2>
    341e: a8           	tay
    341f: f0 02        	beq	$3423 <pickFile_far+0xb2>
    3421: 80 08        	bra	$342b <pickFile_far+0xba>
    3423: 8a           	txa
    3424: c9 28        	cmp	#$28
    3426: 90 0b        	bcc	$3433 <pickFile_far+0xc2>
    3428: 4c 55 43     	jmp	$4355 <pickFile_far+0xfe4>
    342b: 8a           	txa
    342c: a6 12        	ldx	$12                     ; 0x12 <__rc2>
    342e: f0 03        	beq	$3433 <pickFile_far+0xc2>
    3430: 4c 55 43     	jmp	$4355 <pickFile_far+0xfe4>
    3433: 0a           	asl
    3434: aa           	tax
    3435: 7c e8 7b     	jmp	($7be8,x)               ; 0x7be8 <__BLOCK_SIZE+0x5be8>
    3438: 18           	clc
    3439: a5 10        	lda	$10                     ; 0x10 <__zp_data_size>
    343b: 69 5d        	adc	#$5d
    343d: 85 12        	sta	$12                     ; 0x12 <__rc2>
    343f: a5 11        	lda	$11                     ; 0x11 <__rc1>
    3441: 69 00        	adc	#$0
    3443: 85 13        	sta	$13                     ; 0x13 <__rc3>
    3445: a9 03        	lda	#$3
    3447: 92 12        	sta	($12)                   ; 0x12 <__rc2>
    3449: 4c 58 43     	jmp	$4358 <pickFile_far+0xfe7>
    344c: a9 42        	lda	#$42
    344e: a2 5f        	ldx	#$5f
    3450: a0 03        	ldy	#$3
    3452: 64 13        	stz	$13                     ; 0x13 <__rc3>
    3454: 84 12        	sty	$12                     ; 0x12 <__rc2>
    3456: 20 ba 05     	jsr	$5ba <FAR_PEEKW>
    3459: 18           	clc
    345a: 48           	pha
    345b: a5 10        	lda	$10                     ; 0x10 <__zp_data_size>
    345d: 69 58        	adc	#$58
    345f: 85 12        	sta	$12                     ; 0x12 <__rc2>
    3461: a5 11        	lda	$11                     ; 0x11 <__rc1>
    3463: 69 00        	adc	#$0
    3465: 85 13        	sta	$13                     ; 0x13 <__rc3>
    3467: 68           	pla
    3468: 92 12        	sta	($12)                   ; 0x12 <__rc2>
    346a: a0 01        	ldy	#$1
    346c: 8a           	txa
    346d: 91 12        	sta	($12),y                 ; 0x12 <__rc2>
    346f: b2 12        	lda	($12)                   ; 0x12 <__rc2>
    3471: 85 14        	sta	$14                     ; 0x14 <__rc4>
    3473: b1 12        	lda	($12),y                 ; 0x12 <__rc2>
    3475: 85 12        	sta	$12                     ; 0x12 <__rc2>
    3477: a2 01        	ldx	#$1
    3479: a5 14        	lda	$14                     ; 0x14 <__rc4>
    347b: 0a           	asl
    347c: 26 12        	rol	$12                     ; 0x12 <__rc2>
    347e: 0a           	asl
    347f: 26 12        	rol	$12                     ; 0x12 <__rc2>
    3481: a4 12        	ldy	$12                     ; 0x12 <__rc2>
    3483: 84 13        	sty	$13                     ; 0x13 <__rc3>
    3485: 85 12        	sta	$12                     ; 0x12 <__rc2>
    3487: 06 12        	asl	$12                     ; 0x12 <__rc2>
    3489: 26 13        	rol	$13                     ; 0x13 <__rc3>
    348b: a5 12        	lda	$12                     ; 0x12 <__rc2>
    348d: 0a           	asl
    348e: a4 13        	ldy	$13                     ; 0x13 <__rc3>
    3490: 84 14        	sty	$14                     ; 0x14 <__rc4>
    3492: 26 14        	rol	$14                     ; 0x14 <__rc4>
    3494: 0a           	asl
    3495: 26 14        	rol	$14                     ; 0x14 <__rc4>
    3497: 0a           	asl
    3498: 26 14        	rol	$14                     ; 0x14 <__rc4>
    349a: 0a           	asl
    349b: 26 14        	rol	$14                     ; 0x14 <__rc4>
    349d: 38           	sec
    349e: e5 12        	sbc	$12                     ; 0x12 <__rc2>
    34a0: a8           	tay
    34a1: a5 14        	lda	$14                     ; 0x14 <__rc4>
    34a3: e5 13        	sbc	$13                     ; 0x13 <__rc3>
    34a5: 85 14        	sta	$14                     ; 0x14 <__rc4>
    34a7: 18           	clc
    34a8: a5 10        	lda	$10                     ; 0x10 <__zp_data_size>
    34aa: 69 54        	adc	#$54
    34ac: 85 12        	sta	$12                     ; 0x12 <__rc2>
    34ae: a5 11        	lda	$11                     ; 0x11 <__rc1>
    34b0: 69 00        	adc	#$0
    34b2: 85 13        	sta	$13                     ; 0x13 <__rc3>
    34b4: 18           	clc
    34b5: 98           	tya
    34b6: 69 b6        	adc	#$b6
    34b8: 85 16        	sta	$16                     ; 0x16 <__rc6>
    34ba: a5 14        	lda	$14                     ; 0x14 <__rc4>
    34bc: 69 00        	adc	#$0
    34be: 85 17        	sta	$17                     ; 0x17 <__rc7>
    34c0: a9 00        	lda	#$0
    34c2: 69 03        	adc	#$3
    34c4: a0 01        	ldy	#$1
    34c6: b0 02        	bcs	$34ca <pickFile_far+0x159>
    34c8: a0 00        	ldy	#$0
    34ca: 84 18        	sty	$18                     ; 0x18 <__rc8>
    34cc: a0 02        	ldy	#$2
    34ce: 91 12        	sta	($12),y                 ; 0x12 <__rc2>
    34d0: 18           	clc
    34d1: a5 10        	lda	$10                     ; 0x10 <__zp_data_size>
    34d3: 69 50        	adc	#$50
    34d5: 85 14        	sta	$14                     ; 0x14 <__rc4>
    34d7: a5 11        	lda	$11                     ; 0x11 <__rc1>
    34d9: 69 00        	adc	#$0
    34db: 85 15        	sta	$15                     ; 0x15 <__rc5>
    34dd: a9 03        	lda	#$3
    34df: 91 14        	sta	($14),y                 ; 0x14 <__rc4>
    34e1: a9 00        	lda	#$0
    34e3: a4 18        	ldy	$18                     ; 0x18 <__rc8>
    34e5: c0 01        	cpy	#$1
    34e7: 69 00        	adc	#$0
    34e9: 85 18        	sta	$18                     ; 0x18 <__rc8>
    34eb: a5 16        	lda	$16                     ; 0x16 <__rc6>
    34ed: 92 12        	sta	($12)                   ; 0x12 <__rc2>
    34ef: a0 01        	ldy	#$1
    34f1: a5 17        	lda	$17                     ; 0x17 <__rc7>
    34f3: 91 12        	sta	($12),y                 ; 0x12 <__rc2>
    34f5: 86 17        	stx	$17                     ; 0x17 <__rc7>
    34f7: a2 03        	ldx	#$3
    34f9: 86 16        	stx	$16                     ; 0x16 <__rc6>
    34fb: a5 18        	lda	$18                     ; 0x18 <__rc8>
    34fd: a4 16        	ldy	$16                     ; 0x16 <__rc6>
    34ff: 91 12        	sta	($12),y                 ; 0x12 <__rc2>
    3501: a9 3e        	lda	#$3e
    3503: 92 14        	sta	($14)                   ; 0x14 <__rc4>
    3505: a9 00        	lda	#$0
    3507: 91 14        	sta	($14),y                 ; 0x14 <__rc4>
    3509: 18           	clc
    350a: 48           	pha
    350b: a5 10        	lda	$10                     ; 0x10 <__zp_data_size>
    350d: 69 4e        	adc	#$4e
    350f: 85 12        	sta	$12                     ; 0x12 <__rc2>
    3511: a5 11        	lda	$11                     ; 0x11 <__rc1>
    3513: 69 00        	adc	#$0
    3515: 85 13        	sta	$13                     ; 0x13 <__rc3>
    3517: 68           	pla
    3518: a4 17        	ldy	$17                     ; 0x17 <__rc7>
    351a: 91 14        	sta	($14),y                 ; 0x14 <__rc4>
    351c: 91 12        	sta	($12),y                 ; 0x12 <__rc2>
    351e: 92 12        	sta	($12)                   ; 0x12 <__rc2>
    3520: 18           	clc
    3521: a5 10        	lda	$10                     ; 0x10 <__zp_data_size>
    3523: 69 4e        	adc	#$4e
    3525: 85 12        	sta	$12                     ; 0x12 <__rc2>
    3527: a5 11        	lda	$11                     ; 0x11 <__rc1>
    3529: 69 00        	adc	#$0
    352b: 85 13        	sta	$13                     ; 0x13 <__rc3>
    352d: b2 12        	lda	($12)                   ; 0x12 <__rc2>
    352f: 85 14        	sta	$14                     ; 0x14 <__rc4>
    3531: a0 01        	ldy	#$1
    3533: b1 12        	lda	($12),y                 ; 0x12 <__rc2>
    3535: a6 14        	ldx	$14                     ; 0x14 <__rc4>
    3537: e0 78        	cpx	#$78
    3539: e9 00        	sbc	#$0
    353b: 70 02        	bvs	$353f <pickFile_far+0x1ce>
    353d: 80 04        	bra	$3543 <pickFile_far+0x1d2>
    353f: 49 80        	eor	#$80
    3541: 80 02        	bra	$3545 <pickFile_far+0x1d4>
    3543: 80 00        	bra	$3545 <pickFile_far+0x1d4>
    3545: aa           	tax
    3546: 30 22        	bmi	$356a <pickFile_far+0x1f9>
    3548: 80 00        	bra	$354a <pickFile_far+0x1d9>
    354a: 18           	clc
    354b: a5 10        	lda	$10                     ; 0x10 <__zp_data_size>
    354d: 69 4a        	adc	#$4a
    354f: 85 12        	sta	$12                     ; 0x12 <__rc2>
    3551: a5 11        	lda	$11                     ; 0x11 <__rc1>
    3553: 69 00        	adc	#$0
    3555: 85 13        	sta	$13                     ; 0x13 <__rc3>
    3557: a9 05        	lda	#$5
    3559: 92 12        	sta	($12)                   ; 0x12 <__rc2>
    355b: a0 01        	ldy	#$1
    355d: a9 00        	lda	#$0
    355f: 91 12        	sta	($12),y                 ; 0x12 <__rc2>
    3561: c8           	iny
    3562: 91 12        	sta	($12),y                 ; 0x12 <__rc2>
    3564: c8           	iny
    3565: 91 12        	sta	($12),y                 ; 0x12 <__rc2>
    3567: 4c fd 36     	jmp	$36fd <pickFile_far+0x38c>
    356a: 18           	clc
    356b: a5 10        	lda	$10                     ; 0x10 <__zp_data_size>
    356d: 69 54        	adc	#$54
    356f: 85 14        	sta	$14                     ; 0x14 <__rc4>
    3571: a5 11        	lda	$11                     ; 0x11 <__rc1>
    3573: 69 00        	adc	#$0
    3575: 85 15        	sta	$15                     ; 0x15 <__rc5>
    3577: b2 14        	lda	($14)                   ; 0x14 <__rc4>
    3579: 85 18        	sta	$18                     ; 0x18 <__rc8>
    357b: a0 01        	ldy	#$1
    357d: b1 14        	lda	($14),y                 ; 0x14 <__rc4>
    357f: a2 01        	ldx	#$1
    3581: 86 13        	stx	$13                     ; 0x13 <__rc3>
    3583: 85 19        	sta	$19                     ; 0x19 <__rc9>
    3585: c8           	iny
    3586: b1 14        	lda	($14),y                 ; 0x14 <__rc4>
    3588: 85 1a        	sta	$1a                     ; 0x1a <__rc10>
    358a: 18           	clc
    358b: a5 10        	lda	$10                     ; 0x10 <__zp_data_size>
    358d: 69 4e        	adc	#$4e
    358f: 85 16        	sta	$16                     ; 0x16 <__rc6>
    3591: a5 11        	lda	$11                     ; 0x11 <__rc1>
    3593: 69 00        	adc	#$0
    3595: 85 17        	sta	$17                     ; 0x17 <__rc7>
    3597: b2 16        	lda	($16)                   ; 0x16 <__rc6>
    3599: 85 12        	sta	$12                     ; 0x12 <__rc2>
    359b: a4 13        	ldy	$13                     ; 0x13 <__rc3>
    359d: b1 16        	lda	($16),y                 ; 0x16 <__rc6>
    359f: 85 13        	sta	$13                     ; 0x13 <__rc3>
    35a1: a0 03        	ldy	#$3
    35a3: 64 24        	stz	$24                     ; 0x24 <__rc20>
    35a5: b1 14        	lda	($14),y                 ; 0x14 <__rc4>
    35a7: a2 ff        	ldx	#$ff
    35a9: a4 13        	ldy	$13                     ; 0x13 <__rc3>
    35ab: 30 02        	bmi	$35af <pickFile_far+0x23e>
    35ad: 80 08        	bra	$35b7 <pickFile_far+0x246>
    35af: 85 15        	sta	$15                     ; 0x15 <__rc5>
    35b1: 86 25        	stx	$25                     ; 0x25 <__rc21>
    35b3: 86 14        	stx	$14                     ; 0x14 <__rc4>
    35b5: 80 0a        	bra	$35c1 <pickFile_far+0x250>
    35b7: 85 15        	sta	$15                     ; 0x15 <__rc5>
    35b9: a2 ff        	ldx	#$ff
    35bb: 86 25        	stx	$25                     ; 0x25 <__rc21>
    35bd: 64 14        	stz	$14                     ; 0x14 <__rc4>
    35bf: 80 00        	bra	$35c1 <pickFile_far+0x250>
    35c1: 18           	clc
    35c2: a5 18        	lda	$18                     ; 0x18 <__rc8>
    35c4: 65 12        	adc	$12                     ; 0x12 <__rc2>
    35c6: a8           	tay
    35c7: a5 19        	lda	$19                     ; 0x19 <__rc9>
    35c9: 65 13        	adc	$13                     ; 0x13 <__rc3>
    35cb: aa           	tax
    35cc: a5 1a        	lda	$1a                     ; 0x1a <__rc10>
    35ce: 65 14        	adc	$14                     ; 0x14 <__rc4>
    35d0: 85 12        	sta	$12                     ; 0x12 <__rc2>
    35d2: a5 15        	lda	$15                     ; 0x15 <__rc5>
    35d4: 65 14        	adc	$14                     ; 0x14 <__rc4>
    35d6: 85 13        	sta	$13                     ; 0x13 <__rc3>
    35d8: 98           	tya
    35d9: 20 99 05     	jsr	$599 <FAR_PEEK>
    35dc: 18           	clc
    35dd: 48           	pha
    35de: a5 10        	lda	$10                     ; 0x10 <__zp_data_size>
    35e0: 69 49        	adc	#$49
    35e2: 85 12        	sta	$12                     ; 0x12 <__rc2>
    35e4: a5 11        	lda	$11                     ; 0x11 <__rc1>
    35e6: 69 00        	adc	#$0
    35e8: 85 13        	sta	$13                     ; 0x13 <__rc3>
    35ea: 68           	pla
    35eb: 92 12        	sta	($12)                   ; 0x12 <__rc2>
    35ed: 18           	clc
    35ee: a5 10        	lda	$10                     ; 0x10 <__zp_data_size>
    35f0: 69 50        	adc	#$50
    35f2: 85 14        	sta	$14                     ; 0x14 <__rc4>
    35f4: a5 11        	lda	$11                     ; 0x11 <__rc1>
    35f6: 69 00        	adc	#$0
    35f8: 85 15        	sta	$15                     ; 0x15 <__rc5>
    35fa: b2 14        	lda	($14)                   ; 0x14 <__rc4>
    35fc: aa           	tax
    35fd: a0 02        	ldy	#$2
    35ff: b1 14        	lda	($14),y                 ; 0x14 <__rc4>
    3601: 85 18        	sta	$18                     ; 0x18 <__rc8>
    3603: c8           	iny
    3604: b1 14        	lda	($14),y                 ; 0x14 <__rc4>
    3606: 85 19        	sta	$19                     ; 0x19 <__rc9>
    3608: 18           	clc
    3609: a5 10        	lda	$10                     ; 0x10 <__zp_data_size>
    360b: 69 4e        	adc	#$4e
    360d: 85 16        	sta	$16                     ; 0x16 <__rc6>
    360f: a5 11        	lda	$11                     ; 0x11 <__rc1>
    3611: 69 00        	adc	#$0
    3613: 85 17        	sta	$17                     ; 0x17 <__rc7>
    3615: b2 16        	lda	($16)                   ; 0x16 <__rc6>
    3617: 85 12        	sta	$12                     ; 0x12 <__rc2>
    3619: a0 01        	ldy	#$1
    361b: b1 14        	lda	($14),y                 ; 0x14 <__rc4>
    361d: 85 14        	sta	$14                     ; 0x14 <__rc4>
    361f: b1 16        	lda	($16),y                 ; 0x16 <__rc6>
    3621: 85 13        	sta	$13                     ; 0x13 <__rc3>
    3623: a5 13        	lda	$13                     ; 0x13 <__rc3>
    3625: 30 02        	bmi	$3629 <pickFile_far+0x2b8>
    3627: 80 06        	bra	$362f <pickFile_far+0x2be>
    3629: a4 25        	ldy	$25                     ; 0x25 <__rc21>
    362b: 84 24        	sty	$24                     ; 0x24 <__rc20>
    362d: 80 02        	bra	$3631 <pickFile_far+0x2c0>
    362f: 80 00        	bra	$3631 <pickFile_far+0x2c0>
    3631: 18           	clc
    3632: 8a           	txa
    3633: 65 12        	adc	$12                     ; 0x12 <__rc2>
    3635: a8           	tay
    3636: a5 14        	lda	$14                     ; 0x14 <__rc4>
    3638: 65 13        	adc	$13                     ; 0x13 <__rc3>
    363a: aa           	tax
    363b: a5 18        	lda	$18                     ; 0x18 <__rc8>
    363d: 65 24        	adc	$24                     ; 0x24 <__rc20>
    363f: 85 12        	sta	$12                     ; 0x12 <__rc2>
    3641: a5 19        	lda	$19                     ; 0x19 <__rc9>
    3643: 65 24        	adc	$24                     ; 0x24 <__rc20>
    3645: 85 13        	sta	$13                     ; 0x13 <__rc3>
    3647: 18           	clc
    3648: a5 10        	lda	$10                     ; 0x10 <__zp_data_size>
    364a: 69 49        	adc	#$49
    364c: 85 24        	sta	$24                     ; 0x24 <__rc20>
    364e: a5 11        	lda	$11                     ; 0x11 <__rc1>
    3650: 69 00        	adc	#$0
    3652: 85 25        	sta	$25                     ; 0x25 <__rc21>
    3654: b2 24        	lda	($24)                   ; 0x24 <__rc20>
    3656: 85 14        	sta	$14                     ; 0x14 <__rc4>
    3658: 98           	tya
    3659: 20 e4 05     	jsr	$5e4 <FAR_POKE>
    365c: b2 24        	lda	($24)                   ; 0x24 <__rc20>
    365e: d0 21        	bne	$3681 <pickFile_far+0x310>
    3660: 80 00        	bra	$3662 <pickFile_far+0x2f1>
    3662: 18           	clc
    3663: a5 10        	lda	$10                     ; 0x10 <__zp_data_size>
    3665: 69 4a        	adc	#$4a
    3667: 85 12        	sta	$12                     ; 0x12 <__rc2>
    3669: a5 11        	lda	$11                     ; 0x11 <__rc1>
    366b: 69 00        	adc	#$0
    366d: 85 13        	sta	$13                     ; 0x13 <__rc3>
    366f: a9 05        	lda	#$5
    3671: 92 12        	sta	($12)                   ; 0x12 <__rc2>
    3673: a0 01        	ldy	#$1
    3675: a9 00        	lda	#$0
    3677: 91 12        	sta	($12),y                 ; 0x12 <__rc2>
    3679: c8           	iny
    367a: 91 12        	sta	($12),y                 ; 0x12 <__rc2>
    367c: c8           	iny
    367d: 91 12        	sta	($12),y                 ; 0x12 <__rc2>
    367f: 80 1d        	bra	$369e <pickFile_far+0x32d>
    3681: a9 00        	lda	#$0
    3683: 18           	clc
    3684: 48           	pha
    3685: a5 10        	lda	$10                     ; 0x10 <__zp_data_size>
    3687: 69 4a        	adc	#$4a
    3689: 85 12        	sta	$12                     ; 0x12 <__rc2>
    368b: a5 11        	lda	$11                     ; 0x11 <__rc1>
    368d: 69 00        	adc	#$0
    368f: 85 13        	sta	$13                     ; 0x13 <__rc3>
    3691: 68           	pla
    3692: 92 12        	sta	($12)                   ; 0x12 <__rc2>
    3694: a0 01        	ldy	#$1
    3696: 91 12        	sta	($12),y                 ; 0x12 <__rc2>
    3698: c8           	iny
    3699: 91 12        	sta	($12),y                 ; 0x12 <__rc2>
    369b: c8           	iny
    369c: 91 12        	sta	($12),y                 ; 0x12 <__rc2>
    369e: 18           	clc
    369f: a5 10        	lda	$10                     ; 0x10 <__zp_data_size>
    36a1: 69 4a        	adc	#$4a
    36a3: 85 12        	sta	$12                     ; 0x12 <__rc2>
    36a5: a5 11        	lda	$11                     ; 0x11 <__rc1>
    36a7: 69 00        	adc	#$0
    36a9: 85 13        	sta	$13                     ; 0x13 <__rc3>
    36ab: b2 12        	lda	($12)                   ; 0x12 <__rc2>
    36ad: 85 14        	sta	$14                     ; 0x14 <__rc4>
    36af: a0 01        	ldy	#$1
    36b1: b1 12        	lda	($12),y                 ; 0x12 <__rc2>
    36b3: 85 15        	sta	$15                     ; 0x15 <__rc5>
    36b5: c8           	iny
    36b6: b1 12        	lda	($12),y                 ; 0x12 <__rc2>
    36b8: 85 16        	sta	$16                     ; 0x16 <__rc6>
    36ba: c8           	iny
    36bb: b1 12        	lda	($12),y                 ; 0x12 <__rc2>
    36bd: d0 3e        	bne	$36fd <pickFile_far+0x38c>
    36bf: 80 00        	bra	$36c1 <pickFile_far+0x350>
    36c1: a5 16        	lda	$16                     ; 0x16 <__rc6>
    36c3: d0 38        	bne	$36fd <pickFile_far+0x38c>
    36c5: 80 00        	bra	$36c7 <pickFile_far+0x356>
    36c7: a5 15        	lda	$15                     ; 0x15 <__rc5>
    36c9: d0 32        	bne	$36fd <pickFile_far+0x38c>
    36cb: 80 00        	bra	$36cd <pickFile_far+0x35c>
    36cd: a5 14        	lda	$14                     ; 0x14 <__rc4>
    36cf: d0 2c        	bne	$36fd <pickFile_far+0x38c>
    36d1: 80 00        	bra	$36d3 <pickFile_far+0x362>
    36d3: 18           	clc
    36d4: a5 10        	lda	$10                     ; 0x10 <__zp_data_size>
    36d6: 69 4e        	adc	#$4e
    36d8: 85 12        	sta	$12                     ; 0x12 <__rc2>
    36da: a5 11        	lda	$11                     ; 0x11 <__rc1>
    36dc: 69 00        	adc	#$0
    36de: 85 13        	sta	$13                     ; 0x13 <__rc3>
    36e0: b2 12        	lda	($12)                   ; 0x12 <__rc2>
    36e2: aa           	tax
    36e3: a0 01        	ldy	#$1
    36e5: b1 12        	lda	($12),y                 ; 0x12 <__rc2>
    36e7: e8           	inx
    36e8: f0 03        	beq	$36ed <pickFile_far+0x37c>
    36ea: 4c f1 36     	jmp	$36f1 <pickFile_far+0x380>
    36ed: 1a           	inc
    36ee: 4c f1 36     	jmp	$36f1 <pickFile_far+0x380>
    36f1: 85 14        	sta	$14                     ; 0x14 <__rc4>
    36f3: 8a           	txa
    36f4: 92 12        	sta	($12)                   ; 0x12 <__rc2>
    36f6: a5 14        	lda	$14                     ; 0x14 <__rc4>
    36f8: 91 12        	sta	($12),y                 ; 0x12 <__rc2>
    36fa: 4c 20 35     	jmp	$3520 <pickFile_far+0x1af>
    36fd: a9 46        	lda	#$46
    36ff: a2 5f        	ldx	#$5f
    3701: a0 03        	ldy	#$3
    3703: 64 13        	stz	$13                     ; 0x13 <__rc3>
    3705: 84 12        	sty	$12                     ; 0x12 <__rc2>
    3707: 20 ba 05     	jsr	$5ba <FAR_PEEKW>
    370a: 18           	clc
    370b: 48           	pha
    370c: a5 10        	lda	$10                     ; 0x10 <__zp_data_size>
    370e: 69 47        	adc	#$47
    3710: 85 12        	sta	$12                     ; 0x12 <__rc2>
    3712: a5 11        	lda	$11                     ; 0x11 <__rc1>
    3714: 69 00        	adc	#$0
    3716: 85 13        	sta	$13                     ; 0x13 <__rc3>
    3718: 68           	pla
    3719: 92 12        	sta	($12)                   ; 0x12 <__rc2>
    371b: a0 01        	ldy	#$1
    371d: 8a           	txa
    371e: 91 12        	sta	($12),y                 ; 0x12 <__rc2>
    3720: b2 12        	lda	($12)                   ; 0x12 <__rc2>
    3722: 85 14        	sta	$14                     ; 0x14 <__rc4>
    3724: b1 12        	lda	($12),y                 ; 0x12 <__rc2>
    3726: d0 39        	bne	$3761 <pickFile_far+0x3f0>
    3728: 80 00        	bra	$372a <pickFile_far+0x3b9>
    372a: a5 14        	lda	$14                     ; 0x14 <__rc4>
    372c: d0 33        	bne	$3761 <pickFile_far+0x3f0>
    372e: 80 00        	bra	$3730 <pickFile_far+0x3bf>
    3730: 18           	clc
    3731: a5 10        	lda	$10                     ; 0x10 <__zp_data_size>
    3733: 69 5d        	adc	#$5d
    3735: 85 12        	sta	$12                     ; 0x12 <__rc2>
    3737: a5 11        	lda	$11                     ; 0x11 <__rc1>
    3739: 69 00        	adc	#$0
    373b: 85 13        	sta	$13                     ; 0x13 <__rc3>
    373d: a9 00        	lda	#$0
    373f: 92 12        	sta	($12)                   ; 0x12 <__rc2>
    3741: 18           	clc
    3742: a5 10        	lda	$10                     ; 0x10 <__zp_data_size>
    3744: 69 4a        	adc	#$4a
    3746: 85 12        	sta	$12                     ; 0x12 <__rc2>
    3748: a5 11        	lda	$11                     ; 0x11 <__rc1>
    374a: 69 00        	adc	#$0
    374c: 85 13        	sta	$13                     ; 0x13 <__rc3>
    374e: a9 01        	lda	#$1
    3750: 92 12        	sta	($12)                   ; 0x12 <__rc2>
    3752: a8           	tay
    3753: 3a           	dec
    3754: 91 12        	sta	($12),y                 ; 0x12 <__rc2>
    3756: c8           	iny
    3757: 91 12        	sta	($12),y                 ; 0x12 <__rc2>
    3759: a9 00        	lda	#$0
    375b: c8           	iny
    375c: 91 12        	sta	($12),y                 ; 0x12 <__rc2>
    375e: 4c 06 38     	jmp	$3806 <pickFile_far+0x495>
    3761: 18           	clc
    3762: a5 10        	lda	$10                     ; 0x10 <__zp_data_size>
    3764: 69 58        	adc	#$58
    3766: 85 12        	sta	$12                     ; 0x12 <__rc2>
    3768: a5 11        	lda	$11                     ; 0x11 <__rc1>
    376a: 69 00        	adc	#$0
    376c: 85 13        	sta	$13                     ; 0x13 <__rc3>
    376e: b2 12        	lda	($12)                   ; 0x12 <__rc2>
    3770: 85 14        	sta	$14                     ; 0x14 <__rc4>
    3772: a0 01        	ldy	#$1
    3774: b1 12        	lda	($12),y                 ; 0x12 <__rc2>
    3776: 85 12        	sta	$12                     ; 0x12 <__rc2>
    3778: 18           	clc
    3779: a5 14        	lda	$14                     ; 0x14 <__rc4>
    377b: 69 76        	adc	#$76
    377d: a8           	tay
    377e: a5 12        	lda	$12                     ; 0x12 <__rc2>
    3780: 69 5e        	adc	#$5e
    3782: aa           	tax
    3783: a9 00        	lda	#$0
    3785: 69 03        	adc	#$3
    3787: 85 12        	sta	$12                     ; 0x12 <__rc2>
    3789: a9 00        	lda	#$0
    378b: 69 00        	adc	#$0
    378d: 85 13        	sta	$13                     ; 0x13 <__rc3>
    378f: 98           	tya
    3790: 20 99 05     	jsr	$599 <FAR_PEEK>
    3793: 18           	clc
    3794: 48           	pha
    3795: a5 10        	lda	$10                     ; 0x10 <__zp_data_size>
    3797: 69 46        	adc	#$46
    3799: 85 12        	sta	$12                     ; 0x12 <__rc2>
    379b: a5 11        	lda	$11                     ; 0x11 <__rc1>
    379d: 69 00        	adc	#$0
    379f: 85 13        	sta	$13                     ; 0x13 <__rc3>
    37a1: 68           	pla
    37a2: 92 12        	sta	($12)                   ; 0x12 <__rc2>
    37a4: b2 12        	lda	($12)                   ; 0x12 <__rc2>
    37a6: f0 32        	beq	$37da <pickFile_far+0x469>
    37a8: 80 00        	bra	$37aa <pickFile_far+0x439>
    37aa: 18           	clc
    37ab: a5 10        	lda	$10                     ; 0x10 <__zp_data_size>
    37ad: 69 5d        	adc	#$5d
    37af: 85 12        	sta	$12                     ; 0x12 <__rc2>
    37b1: a5 11        	lda	$11                     ; 0x11 <__rc1>
    37b3: 69 00        	adc	#$0
    37b5: 85 13        	sta	$13                     ; 0x13 <__rc3>
    37b7: a9 01        	lda	#$1
    37b9: 92 12        	sta	($12)                   ; 0x12 <__rc2>
    37bb: 18           	clc
    37bc: 48           	pha
    37bd: a5 10        	lda	$10                     ; 0x10 <__zp_data_size>
    37bf: 69 4a        	adc	#$4a
    37c1: 85 12        	sta	$12                     ; 0x12 <__rc2>
    37c3: a5 11        	lda	$11                     ; 0x11 <__rc1>
    37c5: 69 00        	adc	#$0
    37c7: 85 13        	sta	$13                     ; 0x13 <__rc3>
    37c9: 68           	pla
    37ca: 92 12        	sta	($12)                   ; 0x12 <__rc2>
    37cc: a0 01        	ldy	#$1
    37ce: a9 00        	lda	#$0
    37d0: 91 12        	sta	($12),y                 ; 0x12 <__rc2>
    37d2: c8           	iny
    37d3: 91 12        	sta	($12),y                 ; 0x12 <__rc2>
    37d5: c8           	iny
    37d6: 91 12        	sta	($12),y                 ; 0x12 <__rc2>
    37d8: 80 2c        	bra	$3806 <pickFile_far+0x495>
    37da: 18           	clc
    37db: a5 10        	lda	$10                     ; 0x10 <__zp_data_size>
    37dd: 69 5d        	adc	#$5d
    37df: 85 12        	sta	$12                     ; 0x12 <__rc2>
    37e1: a5 11        	lda	$11                     ; 0x11 <__rc1>
    37e3: 69 00        	adc	#$0
    37e5: 85 13        	sta	$13                     ; 0x13 <__rc3>
    37e7: a9 02        	lda	#$2
    37e9: 92 12        	sta	($12)                   ; 0x12 <__rc2>
    37eb: 18           	clc
    37ec: a5 10        	lda	$10                     ; 0x10 <__zp_data_size>
    37ee: 69 4a        	adc	#$4a
    37f0: 85 12        	sta	$12                     ; 0x12 <__rc2>
    37f2: a5 11        	lda	$11                     ; 0x11 <__rc1>
    37f4: 69 00        	adc	#$0
    37f6: 85 13        	sta	$13                     ; 0x13 <__rc3>
    37f8: a9 01        	lda	#$1
    37fa: 92 12        	sta	($12)                   ; 0x12 <__rc2>
    37fc: a8           	tay
    37fd: 3a           	dec
    37fe: 91 12        	sta	($12),y                 ; 0x12 <__rc2>
    3800: c8           	iny
    3801: 91 12        	sta	($12),y                 ; 0x12 <__rc2>
    3803: c8           	iny
    3804: 91 12        	sta	($12),y                 ; 0x12 <__rc2>
    3806: 4c 58 43     	jmp	$4358 <pickFile_far+0xfe7>
    3809: a9 42        	lda	#$42
    380b: a2 03        	ldx	#$3
    380d: 86 12        	stx	$12                     ; 0x12 <__rc2>
    380f: 86 24        	stx	$24                     ; 0x24 <__rc20>
    3811: 64 13        	stz	$13                     ; 0x13 <__rc3>
    3813: a2 5f        	ldx	#$5f
    3815: 20 ba 05     	jsr	$5ba <FAR_PEEKW>
    3818: 18           	clc
    3819: 48           	pha
    381a: a5 10        	lda	$10                     ; 0x10 <__zp_data_size>
    381c: 69 44        	adc	#$44
    381e: 85 26        	sta	$26                     ; 0x26 <__rc22>
    3820: a5 11        	lda	$11                     ; 0x11 <__rc1>
    3822: 69 00        	adc	#$0
    3824: 85 27        	sta	$27                     ; 0x27 <__rc23>
    3826: 68           	pla
    3827: 92 26        	sta	($26)                   ; 0x26 <__rc22>
    3829: a0 01        	ldy	#$1
    382b: 8a           	txa
    382c: 91 26        	sta	($26),y                 ; 0x26 <__rc22>
    382e: a2 01        	ldx	#$1
    3830: 86 25        	stx	$25                     ; 0x25 <__rc21>
    3832: a9 46        	lda	#$46
    3834: a6 24        	ldx	$24                     ; 0x24 <__rc20>
    3836: 86 12        	stx	$12                     ; 0x12 <__rc2>
    3838: 64 13        	stz	$13                     ; 0x13 <__rc3>
    383a: a2 5f        	ldx	#$5f
    383c: 20 ba 05     	jsr	$5ba <FAR_PEEKW>
    383f: 18           	clc
    3840: 48           	pha
    3841: a5 10        	lda	$10                     ; 0x10 <__zp_data_size>
    3843: 69 42        	adc	#$42
    3845: 85 12        	sta	$12                     ; 0x12 <__rc2>
    3847: a5 11        	lda	$11                     ; 0x11 <__rc1>
    3849: 69 00        	adc	#$0
    384b: 85 13        	sta	$13                     ; 0x13 <__rc3>
    384d: 68           	pla
    384e: 92 12        	sta	($12)                   ; 0x12 <__rc2>
    3850: a4 25        	ldy	$25                     ; 0x25 <__rc21>
    3852: 8a           	txa
    3853: 91 12        	sta	($12),y                 ; 0x12 <__rc2>
    3855: a9 4a        	lda	#$4a
    3857: a6 24        	ldx	$24                     ; 0x24 <__rc20>
    3859: 86 12        	stx	$12                     ; 0x12 <__rc2>
    385b: 64 13        	stz	$13                     ; 0x13 <__rc3>
    385d: a2 5f        	ldx	#$5f
    385f: 20 ba 05     	jsr	$5ba <FAR_PEEKW>
    3862: 18           	clc
    3863: 48           	pha
    3864: a5 10        	lda	$10                     ; 0x10 <__zp_data_size>
    3866: 69 40        	adc	#$40
    3868: 85 12        	sta	$12                     ; 0x12 <__rc2>
    386a: a5 11        	lda	$11                     ; 0x11 <__rc1>
    386c: 69 00        	adc	#$0
    386e: 85 13        	sta	$13                     ; 0x13 <__rc3>
    3870: 68           	pla
    3871: 92 12        	sta	($12)                   ; 0x12 <__rc2>
    3873: a4 25        	ldy	$25                     ; 0x25 <__rc21>
    3875: 8a           	txa
    3876: 91 12        	sta	($12),y                 ; 0x12 <__rc2>
    3878: a6 24        	ldx	$24                     ; 0x24 <__rc20>
    387a: 86 12        	stx	$12                     ; 0x12 <__rc2>
    387c: 64 13        	stz	$13                     ; 0x13 <__rc3>
    387e: a2 00        	ldx	#$0
    3880: 8a           	txa
    3881: 20 99 05     	jsr	$599 <FAR_PEEK>
    3884: 18           	clc
    3885: 48           	pha
    3886: a5 10        	lda	$10                     ; 0x10 <__zp_data_size>
    3888: 69 3f        	adc	#$3f
    388a: 85 12        	sta	$12                     ; 0x12 <__rc2>
    388c: a5 11        	lda	$11                     ; 0x11 <__rc1>
    388e: 69 00        	adc	#$0
    3890: 85 13        	sta	$13                     ; 0x13 <__rc3>
    3892: 68           	pla
    3893: 92 12        	sta	($12)                   ; 0x12 <__rc2>
    3895: a6 24        	ldx	$24                     ; 0x24 <__rc20>
    3897: 86 12        	stx	$12                     ; 0x12 <__rc2>
    3899: 64 13        	stz	$13                     ; 0x13 <__rc3>
    389b: a2 00        	ldx	#$0
    389d: a5 25        	lda	$25                     ; 0x25 <__rc21>
    389f: 20 99 05     	jsr	$599 <FAR_PEEK>
    38a2: 18           	clc
    38a3: 48           	pha
    38a4: a5 10        	lda	$10                     ; 0x10 <__zp_data_size>
    38a6: 69 3e        	adc	#$3e
    38a8: 85 12        	sta	$12                     ; 0x12 <__rc2>
    38aa: a5 11        	lda	$11                     ; 0x11 <__rc1>
    38ac: 69 00        	adc	#$0
    38ae: 85 13        	sta	$13                     ; 0x13 <__rc3>
    38b0: 68           	pla
    38b1: 92 12        	sta	($12)                   ; 0x12 <__rc2>
    38b3: b2 26        	lda	($26)                   ; 0x26 <__rc22>
    38b5: 85 12        	sta	$12                     ; 0x12 <__rc2>
    38b7: a4 25        	ldy	$25                     ; 0x25 <__rc21>
    38b9: b1 26        	lda	($26),y                 ; 0x26 <__rc22>
    38bb: c9 00        	cmp	#$0
    38bd: a2 01        	ldx	#$1
    38bf: b0 02        	bcs	$38c3 <pickFile_far+0x552>
    38c1: a2 00        	ldx	#$0
    38c3: 86 13        	stx	$13                     ; 0x13 <__rc3>
    38c5: aa           	tax
    38c6: f0 02        	beq	$38ca <pickFile_far+0x559>
    38c8: 80 09        	bra	$38d3 <pickFile_far+0x562>
    38ca: a6 12        	ldx	$12                     ; 0x12 <__rc2>
    38cc: e0 01        	cpx	#$1
    38ce: b0 0a        	bcs	$38da <pickFile_far+0x569>
    38d0: 4c 18 3b     	jmp	$3b18 <pickFile_far+0x7a7>
    38d3: a5 13        	lda	$13                     ; 0x13 <__rc3>
    38d5: d0 03        	bne	$38da <pickFile_far+0x569>
    38d7: 4c 18 3b     	jmp	$3b18 <pickFile_far+0x7a7>
    38da: 80 00        	bra	$38dc <pickFile_far+0x56b>
    38dc: 18           	clc
    38dd: a5 10        	lda	$10                     ; 0x10 <__zp_data_size>
    38df: 69 42        	adc	#$42
    38e1: 85 12        	sta	$12                     ; 0x12 <__rc2>
    38e3: a5 11        	lda	$11                     ; 0x11 <__rc1>
    38e5: 69 00        	adc	#$0
    38e7: 85 13        	sta	$13                     ; 0x13 <__rc3>
    38e9: b2 12        	lda	($12)                   ; 0x12 <__rc2>
    38eb: 85 14        	sta	$14                     ; 0x14 <__rc4>
    38ed: a0 01        	ldy	#$1
    38ef: b1 12        	lda	($12),y                 ; 0x12 <__rc2>
    38f1: c9 00        	cmp	#$0
    38f3: a2 01        	ldx	#$1
    38f5: b0 02        	bcs	$38f9 <pickFile_far+0x588>
    38f7: a2 00        	ldx	#$0
    38f9: 86 12        	stx	$12                     ; 0x12 <__rc2>
    38fb: aa           	tax
    38fc: f0 02        	beq	$3900 <pickFile_far+0x58f>
    38fe: 80 09        	bra	$3909 <pickFile_far+0x598>
    3900: a6 14        	ldx	$14                     ; 0x14 <__rc4>
    3902: e0 01        	cpx	#$1
    3904: b0 0a        	bcs	$3910 <pickFile_far+0x59f>
    3906: 4c ff 39     	jmp	$39ff <pickFile_far+0x68e>
    3909: a5 12        	lda	$12                     ; 0x12 <__rc2>
    390b: d0 03        	bne	$3910 <pickFile_far+0x59f>
    390d: 4c ff 39     	jmp	$39ff <pickFile_far+0x68e>
    3910: 80 00        	bra	$3912 <pickFile_far+0x5a1>
    3912: 18           	clc
    3913: a5 10        	lda	$10                     ; 0x10 <__zp_data_size>
    3915: 69 3f        	adc	#$3f
    3917: 85 24        	sta	$24                     ; 0x24 <__rc20>
    3919: a5 11        	lda	$11                     ; 0x11 <__rc1>
    391b: 69 00        	adc	#$0
    391d: 85 25        	sta	$25                     ; 0x25 <__rc21>
    391f: b2 24        	lda	($24)                   ; 0x24 <__rc20>
    3921: a8           	tay
    3922: 18           	clc
    3923: a5 10        	lda	$10                     ; 0x10 <__zp_data_size>
    3925: 69 3e        	adc	#$3e
    3927: 85 2a        	sta	$2a                     ; 0x2a <__rc26>
    3929: a5 11        	lda	$11                     ; 0x11 <__rc1>
    392b: 69 00        	adc	#$0
    392d: 85 2b        	sta	$2b                     ; 0x2b <__rc27>
    392f: 18           	clc
    3930: a5 10        	lda	$10                     ; 0x10 <__zp_data_size>
    3932: 69 42        	adc	#$42
    3934: 85 26        	sta	$26                     ; 0x26 <__rc22>
    3936: a5 11        	lda	$11                     ; 0x11 <__rc1>
    3938: 69 00        	adc	#$0
    393a: 85 27        	sta	$27                     ; 0x27 <__rc23>
    393c: b2 26        	lda	($26)                   ; 0x26 <__rc22>
    393e: 18           	clc
    393f: 72 2a        	adc	($2a)                   ; 0x2a <__rc26>
    3941: aa           	tax
    3942: 98           	tya
    3943: 20 65 1d     	jsr	$1d65 <textGotoXY>
    3946: a9 20        	lda	#$20
    3948: 92 10        	sta	($10)                   ; 0x10 <__zp_data_size>
    394a: a0 01        	ldy	#$1
    394c: a9 00        	lda	#$0
    394e: 91 10        	sta	($10),y                 ; 0x10 <__zp_data_size>
    3950: a2 68        	ldx	#$68
    3952: 86 12        	stx	$12                     ; 0x12 <__rc2>
    3954: a2 82        	ldx	#$82
    3956: 86 13        	stx	$13                     ; 0x13 <__rc3>
    3958: a5 12        	lda	$12                     ; 0x12 <__rc2>
    395a: a0 0a        	ldy	#$a
    395c: 91 10        	sta	($10),y                 ; 0x10 <__zp_data_size>
    395e: a5 13        	lda	$13                     ; 0x13 <__rc3>
    3960: c8           	iny
    3961: 91 10        	sta	($10),y                 ; 0x10 <__zp_data_size>
    3963: 20 e5 73     	jsr	$73e5 <printf>
    3966: 18           	clc
    3967: a5 10        	lda	$10                     ; 0x10 <__zp_data_size>
    3969: 69 44        	adc	#$44
    396b: 85 12        	sta	$12                     ; 0x12 <__rc2>
    396d: a5 11        	lda	$11                     ; 0x11 <__rc1>
    396f: 69 00        	adc	#$0
    3971: 85 13        	sta	$13                     ; 0x13 <__rc3>
    3973: b2 12        	lda	($12)                   ; 0x12 <__rc2>
    3975: aa           	tax
    3976: a0 01        	ldy	#$1
    3978: b1 12        	lda	($12),y                 ; 0x12 <__rc2>
    397a: 85 14        	sta	$14                     ; 0x14 <__rc4>
    397c: 8a           	txa
    397d: 3a           	dec
    397e: c9 ff        	cmp	#$ff
    3980: f0 03        	beq	$3985 <pickFile_far+0x614>
    3982: 4c 8a 39     	jmp	$398a <pickFile_far+0x619>
    3985: c6 14        	dec	$14                     ; 0x14 <__rc4>
    3987: 4c 8a 39     	jmp	$398a <pickFile_far+0x619>
    398a: 92 12        	sta	($12)                   ; 0x12 <__rc2>
    398c: a5 14        	lda	$14                     ; 0x14 <__rc4>
    398e: 91 12        	sta	($12),y                 ; 0x12 <__rc2>
    3990: b2 26        	lda	($26)                   ; 0x26 <__rc22>
    3992: aa           	tax
    3993: b1 26        	lda	($26),y                 ; 0x26 <__rc22>
    3995: 85 14        	sta	$14                     ; 0x14 <__rc4>
    3997: 8a           	txa
    3998: 3a           	dec
    3999: c9 ff        	cmp	#$ff
    399b: f0 03        	beq	$39a0 <pickFile_far+0x62f>
    399d: 4c a5 39     	jmp	$39a5 <pickFile_far+0x634>
    39a0: c6 14        	dec	$14                     ; 0x14 <__rc4>
    39a2: 4c a5 39     	jmp	$39a5 <pickFile_far+0x634>
    39a5: 92 26        	sta	($26)                   ; 0x26 <__rc22>
    39a7: a5 14        	lda	$14                     ; 0x14 <__rc4>
    39a9: 91 26        	sta	($26),y                 ; 0x26 <__rc22>
    39ab: b2 12        	lda	($12)                   ; 0x12 <__rc2>
    39ad: 85 14        	sta	$14                     ; 0x14 <__rc4>
    39af: b1 12        	lda	($12),y                 ; 0x12 <__rc2>
    39b1: a2 03        	ldx	#$3
    39b3: 86 12        	stx	$12                     ; 0x12 <__rc2>
    39b5: 64 13        	stz	$13                     ; 0x13 <__rc3>
    39b7: 85 15        	sta	$15                     ; 0x15 <__rc5>
    39b9: a2 5f        	ldx	#$5f
    39bb: a9 42        	lda	#$42
    39bd: 20 07 06     	jsr	$607 <FAR_POKEW>
    39c0: b2 26        	lda	($26)                   ; 0x26 <__rc22>
    39c2: 85 14        	sta	$14                     ; 0x14 <__rc4>
    39c4: a0 01        	ldy	#$1
    39c6: b1 26        	lda	($26),y                 ; 0x26 <__rc22>
    39c8: a2 03        	ldx	#$3
    39ca: 86 12        	stx	$12                     ; 0x12 <__rc2>
    39cc: 64 13        	stz	$13                     ; 0x13 <__rc3>
    39ce: 85 15        	sta	$15                     ; 0x15 <__rc5>
    39d0: a2 5f        	ldx	#$5f
    39d2: a9 46        	lda	#$46
    39d4: 20 07 06     	jsr	$607 <FAR_POKEW>
    39d7: b2 24        	lda	($24)                   ; 0x24 <__rc20>
    39d9: a8           	tay
    39da: b2 26        	lda	($26)                   ; 0x26 <__rc22>
    39dc: 18           	clc
    39dd: 72 2a        	adc	($2a)                   ; 0x2a <__rc26>
    39df: aa           	tax
    39e0: 98           	tya
    39e1: 20 65 1d     	jsr	$1d65 <textGotoXY>
    39e4: a9 fa        	lda	#$fa
    39e6: 92 10        	sta	($10)                   ; 0x10 <__zp_data_size>
    39e8: a9 00        	lda	#$0
    39ea: a0 01        	ldy	#$1
    39ec: 91 10        	sta	($10),y                 ; 0x10 <__zp_data_size>
    39ee: a0 0a        	ldy	#$a
    39f0: b1 10        	lda	($10),y                 ; 0x10 <__zp_data_size>
    39f2: 85 12        	sta	$12                     ; 0x12 <__rc2>
    39f4: c8           	iny
    39f5: b1 10        	lda	($10),y                 ; 0x10 <__zp_data_size>
    39f7: 85 13        	sta	$13                     ; 0x13 <__rc3>
    39f9: 20 e5 73     	jsr	$73e5 <printf>
    39fc: 4c 18 3b     	jmp	$3b18 <pickFile_far+0x7a7>
    39ff: 18           	clc
    3a00: a5 10        	lda	$10                     ; 0x10 <__zp_data_size>
    3a02: 69 3f        	adc	#$3f
    3a04: 85 12        	sta	$12                     ; 0x12 <__rc2>
    3a06: a5 11        	lda	$11                     ; 0x11 <__rc1>
    3a08: 69 00        	adc	#$0
    3a0a: 85 13        	sta	$13                     ; 0x13 <__rc3>
    3a0c: a5 12        	lda	$12                     ; 0x12 <__rc2>
    3a0e: a0 18        	ldy	#$18
    3a10: 91 10        	sta	($10),y                 ; 0x10 <__zp_data_size>
    3a12: a5 13        	lda	$13                     ; 0x13 <__rc3>
    3a14: c8           	iny
    3a15: 91 10        	sta	($10),y                 ; 0x10 <__zp_data_size>
    3a17: b2 12        	lda	($12)                   ; 0x12 <__rc2>
    3a19: a8           	tay
    3a1a: 18           	clc
    3a1b: 5a           	phy
    3a1c: a5 10        	lda	$10                     ; 0x10 <__zp_data_size>
    3a1e: 69 3e        	adc	#$3e
    3a20: 85 12        	sta	$12                     ; 0x12 <__rc2>
    3a22: a5 11        	lda	$11                     ; 0x11 <__rc1>
    3a24: 69 00        	adc	#$0
    3a26: 85 13        	sta	$13                     ; 0x13 <__rc3>
    3a28: a5 12        	lda	$12                     ; 0x12 <__rc2>
    3a2a: a0 06        	ldy	#$6
    3a2c: 91 10        	sta	($10),y                 ; 0x10 <__zp_data_size>
    3a2e: a5 13        	lda	$13                     ; 0x13 <__rc3>
    3a30: c8           	iny
    3a31: 91 10        	sta	($10),y                 ; 0x10 <__zp_data_size>
    3a33: 7a           	ply
    3a34: 18           	clc
    3a35: a5 10        	lda	$10                     ; 0x10 <__zp_data_size>
    3a37: 69 42        	adc	#$42
    3a39: 85 26        	sta	$26                     ; 0x26 <__rc22>
    3a3b: a5 11        	lda	$11                     ; 0x11 <__rc1>
    3a3d: 69 00        	adc	#$0
    3a3f: 85 27        	sta	$27                     ; 0x27 <__rc23>
    3a41: b2 26        	lda	($26)                   ; 0x26 <__rc22>
    3a43: 18           	clc
    3a44: 72 12        	adc	($12)                   ; 0x12 <__rc2>
    3a46: aa           	tax
    3a47: 98           	tya
    3a48: 20 65 1d     	jsr	$1d65 <textGotoXY>
    3a4b: a9 20        	lda	#$20
    3a4d: 92 10        	sta	($10)                   ; 0x10 <__zp_data_size>
    3a4f: a0 01        	ldy	#$1
    3a51: a9 00        	lda	#$0
    3a53: 91 10        	sta	($10),y                 ; 0x10 <__zp_data_size>
    3a55: a2 68        	ldx	#$68
    3a57: 86 12        	stx	$12                     ; 0x12 <__rc2>
    3a59: a2 82        	ldx	#$82
    3a5b: 86 13        	stx	$13                     ; 0x13 <__rc3>
    3a5d: a5 12        	lda	$12                     ; 0x12 <__rc2>
    3a5f: a0 10        	ldy	#$10
    3a61: 91 10        	sta	($10),y                 ; 0x10 <__zp_data_size>
    3a63: a5 13        	lda	$13                     ; 0x13 <__rc3>
    3a65: c8           	iny
    3a66: 91 10        	sta	($10),y                 ; 0x10 <__zp_data_size>
    3a68: 20 e5 73     	jsr	$73e5 <printf>
    3a6b: a9 0f        	lda	#$f
    3a6d: 92 26        	sta	($26)                   ; 0x26 <__rc22>
    3a6f: a9 00        	lda	#$0
    3a71: a0 01        	ldy	#$1
    3a73: 91 26        	sta	($26),y                 ; 0x26 <__rc22>
    3a75: 18           	clc
    3a76: a5 10        	lda	$10                     ; 0x10 <__zp_data_size>
    3a78: 69 40        	adc	#$40
    3a7a: 85 24        	sta	$24                     ; 0x24 <__rc20>
    3a7c: a5 11        	lda	$11                     ; 0x11 <__rc1>
    3a7e: 69 00        	adc	#$0
    3a80: 85 25        	sta	$25                     ; 0x25 <__rc21>
    3a82: b2 24        	lda	($24)                   ; 0x24 <__rc20>
    3a84: 85 13        	sta	$13                     ; 0x13 <__rc3>
    3a86: b1 24        	lda	($24),y                 ; 0x24 <__rc20>
    3a88: 85 12        	sta	$12                     ; 0x12 <__rc2>
    3a8a: 18           	clc
    3a8b: a5 13        	lda	$13                     ; 0x13 <__rc3>
    3a8d: 69 f1        	adc	#$f1
    3a8f: 85 13        	sta	$13                     ; 0x13 <__rc3>
    3a91: a5 12        	lda	$12                     ; 0x12 <__rc2>
    3a93: 69 ff        	adc	#$ff
    3a95: aa           	tax
    3a96: a5 13        	lda	$13                     ; 0x13 <__rc3>
    3a98: 92 24        	sta	($24)                   ; 0x24 <__rc20>
    3a9a: 8a           	txa
    3a9b: 91 24        	sta	($24),y                 ; 0x24 <__rc20>
    3a9d: b2 26        	lda	($26)                   ; 0x26 <__rc22>
    3a9f: 85 14        	sta	$14                     ; 0x14 <__rc4>
    3aa1: b1 26        	lda	($26),y                 ; 0x26 <__rc22>
    3aa3: a2 03        	ldx	#$3
    3aa5: 86 12        	stx	$12                     ; 0x12 <__rc2>
    3aa7: 86 2a        	stx	$2a                     ; 0x2a <__rc26>
    3aa9: 64 13        	stz	$13                     ; 0x13 <__rc3>
    3aab: 85 15        	sta	$15                     ; 0x15 <__rc5>
    3aad: a2 5f        	ldx	#$5f
    3aaf: a9 46        	lda	#$46
    3ab1: 20 07 06     	jsr	$607 <FAR_POKEW>
    3ab4: b2 24        	lda	($24)                   ; 0x24 <__rc20>
    3ab6: 85 14        	sta	$14                     ; 0x14 <__rc4>
    3ab8: a0 01        	ldy	#$1
    3aba: b1 24        	lda	($24),y                 ; 0x24 <__rc20>
    3abc: a6 2a        	ldx	$2a                     ; 0x2a <__rc26>
    3abe: 86 12        	stx	$12                     ; 0x12 <__rc2>
    3ac0: 64 13        	stz	$13                     ; 0x13 <__rc3>
    3ac2: 85 15        	sta	$15                     ; 0x15 <__rc5>
    3ac4: a2 5f        	ldx	#$5f
    3ac6: a9 4a        	lda	#$4a
    3ac8: 20 07 06     	jsr	$607 <FAR_POKEW>
    3acb: b2 24        	lda	($24)                   ; 0x24 <__rc20>
    3acd: 85 12        	sta	$12                     ; 0x12 <__rc2>
    3acf: a0 01        	ldy	#$1
    3ad1: b1 24        	lda	($24),y                 ; 0x24 <__rc20>
    3ad3: aa           	tax
    3ad4: a5 12        	lda	$12                     ; 0x12 <__rc2>
    3ad6: 20 24 2f     	jsr	$2f24 <displayFileList_far>
    3ad9: a0 18        	ldy	#$18
    3adb: b1 10        	lda	($10),y                 ; 0x10 <__zp_data_size>
    3add: 85 12        	sta	$12                     ; 0x12 <__rc2>
    3adf: c8           	iny
    3ae0: b1 10        	lda	($10),y                 ; 0x10 <__zp_data_size>
    3ae2: 85 13        	sta	$13                     ; 0x13 <__rc3>
    3ae4: b2 12        	lda	($12)                   ; 0x12 <__rc2>
    3ae6: a8           	tay
    3ae7: b2 26        	lda	($26)                   ; 0x26 <__rc22>
    3ae9: 18           	clc
    3aea: 48           	pha
    3aeb: 5a           	phy
    3aec: a0 06        	ldy	#$6
    3aee: b1 10        	lda	($10),y                 ; 0x10 <__zp_data_size>
    3af0: 85 12        	sta	$12                     ; 0x12 <__rc2>
    3af2: c8           	iny
    3af3: b1 10        	lda	($10),y                 ; 0x10 <__zp_data_size>
    3af5: 7a           	ply
    3af6: 85 13        	sta	$13                     ; 0x13 <__rc3>
    3af8: 68           	pla
    3af9: 72 12        	adc	($12)                   ; 0x12 <__rc2>
    3afb: aa           	tax
    3afc: 98           	tya
    3afd: 20 65 1d     	jsr	$1d65 <textGotoXY>
    3b00: a9 fa        	lda	#$fa
    3b02: 92 10        	sta	($10)                   ; 0x10 <__zp_data_size>
    3b04: a9 00        	lda	#$0
    3b06: a0 01        	ldy	#$1
    3b08: 91 10        	sta	($10),y                 ; 0x10 <__zp_data_size>
    3b0a: a0 10        	ldy	#$10
    3b0c: b1 10        	lda	($10),y                 ; 0x10 <__zp_data_size>
    3b0e: 85 12        	sta	$12                     ; 0x12 <__rc2>
    3b10: c8           	iny
    3b11: b1 10        	lda	($10),y                 ; 0x10 <__zp_data_size>
    3b13: 85 13        	sta	$13                     ; 0x13 <__rc3>
    3b15: 20 e5 73     	jsr	$73e5 <printf>
    3b18: 4c 55 43     	jmp	$4355 <pickFile_far+0xfe4>
    3b1b: a9 42        	lda	#$42
    3b1d: a2 03        	ldx	#$3
    3b1f: 86 12        	stx	$12                     ; 0x12 <__rc2>
    3b21: 86 2a        	stx	$2a                     ; 0x2a <__rc26>
    3b23: 64 13        	stz	$13                     ; 0x13 <__rc3>
    3b25: a2 5f        	ldx	#$5f
    3b27: 20 ba 05     	jsr	$5ba <FAR_PEEKW>
    3b2a: 18           	clc
    3b2b: 48           	pha
    3b2c: a5 10        	lda	$10                     ; 0x10 <__zp_data_size>
    3b2e: 69 3c        	adc	#$3c
    3b30: 85 26        	sta	$26                     ; 0x26 <__rc22>
    3b32: a5 11        	lda	$11                     ; 0x11 <__rc1>
    3b34: 69 00        	adc	#$0
    3b36: 85 27        	sta	$27                     ; 0x27 <__rc23>
    3b38: 68           	pla
    3b39: 92 26        	sta	($26)                   ; 0x26 <__rc22>
    3b3b: a0 01        	ldy	#$1
    3b3d: 8a           	txa
    3b3e: 91 26        	sta	($26),y                 ; 0x26 <__rc22>
    3b40: a2 01        	ldx	#$1
    3b42: 86 2b        	stx	$2b                     ; 0x2b <__rc27>
    3b44: a9 46        	lda	#$46
    3b46: a6 2a        	ldx	$2a                     ; 0x2a <__rc26>
    3b48: 86 12        	stx	$12                     ; 0x12 <__rc2>
    3b4a: 64 13        	stz	$13                     ; 0x13 <__rc3>
    3b4c: a2 5f        	ldx	#$5f
    3b4e: 20 ba 05     	jsr	$5ba <FAR_PEEKW>
    3b51: 18           	clc
    3b52: 48           	pha
    3b53: a5 10        	lda	$10                     ; 0x10 <__zp_data_size>
    3b55: 69 3a        	adc	#$3a
    3b57: 85 12        	sta	$12                     ; 0x12 <__rc2>
    3b59: a5 11        	lda	$11                     ; 0x11 <__rc1>
    3b5b: 69 00        	adc	#$0
    3b5d: 85 13        	sta	$13                     ; 0x13 <__rc3>
    3b5f: 68           	pla
    3b60: 92 12        	sta	($12)                   ; 0x12 <__rc2>
    3b62: a4 2b        	ldy	$2b                     ; 0x2b <__rc27>
    3b64: 8a           	txa
    3b65: 91 12        	sta	($12),y                 ; 0x12 <__rc2>
    3b67: a9 4a        	lda	#$4a
    3b69: a6 2a        	ldx	$2a                     ; 0x2a <__rc26>
    3b6b: 86 12        	stx	$12                     ; 0x12 <__rc2>
    3b6d: 64 13        	stz	$13                     ; 0x13 <__rc3>
    3b6f: a2 5f        	ldx	#$5f
    3b71: 20 ba 05     	jsr	$5ba <FAR_PEEKW>
    3b74: 18           	clc
    3b75: 48           	pha
    3b76: a5 10        	lda	$10                     ; 0x10 <__zp_data_size>
    3b78: 69 38        	adc	#$38
    3b7a: 85 12        	sta	$12                     ; 0x12 <__rc2>
    3b7c: a5 11        	lda	$11                     ; 0x11 <__rc1>
    3b7e: 69 00        	adc	#$0
    3b80: 85 13        	sta	$13                     ; 0x13 <__rc3>
    3b82: 68           	pla
    3b83: 92 12        	sta	($12)                   ; 0x12 <__rc2>
    3b85: a4 2b        	ldy	$2b                     ; 0x2b <__rc27>
    3b87: 8a           	txa
    3b88: 91 12        	sta	($12),y                 ; 0x12 <__rc2>
    3b8a: a9 3e        	lda	#$3e
    3b8c: a6 2a        	ldx	$2a                     ; 0x2a <__rc26>
    3b8e: 86 12        	stx	$12                     ; 0x12 <__rc2>
    3b90: 64 13        	stz	$13                     ; 0x13 <__rc3>
    3b92: a2 5f        	ldx	#$5f
    3b94: 20 ba 05     	jsr	$5ba <FAR_PEEKW>
    3b97: 18           	clc
    3b98: 48           	pha
    3b99: a5 10        	lda	$10                     ; 0x10 <__zp_data_size>
    3b9b: 69 36        	adc	#$36
    3b9d: 85 24        	sta	$24                     ; 0x24 <__rc20>
    3b9f: a5 11        	lda	$11                     ; 0x11 <__rc1>
    3ba1: 69 00        	adc	#$0
    3ba3: 85 25        	sta	$25                     ; 0x25 <__rc21>
    3ba5: 68           	pla
    3ba6: 92 24        	sta	($24)                   ; 0x24 <__rc20>
    3ba8: a4 2b        	ldy	$2b                     ; 0x2b <__rc27>
    3baa: 8a           	txa
    3bab: 91 24        	sta	($24),y                 ; 0x24 <__rc20>
    3bad: a6 2a        	ldx	$2a                     ; 0x2a <__rc26>
    3baf: 86 12        	stx	$12                     ; 0x12 <__rc2>
    3bb1: 64 13        	stz	$13                     ; 0x13 <__rc3>
    3bb3: a2 00        	ldx	#$0
    3bb5: 8a           	txa
    3bb6: 20 99 05     	jsr	$599 <FAR_PEEK>
    3bb9: 18           	clc
    3bba: 48           	pha
    3bbb: a5 10        	lda	$10                     ; 0x10 <__zp_data_size>
    3bbd: 69 35        	adc	#$35
    3bbf: 85 12        	sta	$12                     ; 0x12 <__rc2>
    3bc1: a5 11        	lda	$11                     ; 0x11 <__rc1>
    3bc3: 69 00        	adc	#$0
    3bc5: 85 13        	sta	$13                     ; 0x13 <__rc3>
    3bc7: 68           	pla
    3bc8: 92 12        	sta	($12)                   ; 0x12 <__rc2>
    3bca: a6 2a        	ldx	$2a                     ; 0x2a <__rc26>
    3bcc: 86 12        	stx	$12                     ; 0x12 <__rc2>
    3bce: 64 13        	stz	$13                     ; 0x13 <__rc3>
    3bd0: a2 00        	ldx	#$0
    3bd2: a5 2b        	lda	$2b                     ; 0x2b <__rc27>
    3bd4: 20 99 05     	jsr	$599 <FAR_PEEK>
    3bd7: 18           	clc
    3bd8: 48           	pha
    3bd9: a5 10        	lda	$10                     ; 0x10 <__zp_data_size>
    3bdb: 69 34        	adc	#$34
    3bdd: 85 12        	sta	$12                     ; 0x12 <__rc2>
    3bdf: a5 11        	lda	$11                     ; 0x11 <__rc1>
    3be1: 69 00        	adc	#$0
    3be3: 85 13        	sta	$13                     ; 0x13 <__rc3>
    3be5: 68           	pla
    3be6: 92 12        	sta	($12)                   ; 0x12 <__rc2>
    3be8: b2 26        	lda	($26)                   ; 0x26 <__rc22>
    3bea: 85 14        	sta	$14                     ; 0x14 <__rc4>
    3bec: a4 2b        	ldy	$2b                     ; 0x2b <__rc27>
    3bee: b1 26        	lda	($26),y                 ; 0x26 <__rc22>
    3bf0: 85 15        	sta	$15                     ; 0x15 <__rc5>
    3bf2: b2 24        	lda	($24)                   ; 0x24 <__rc20>
    3bf4: 85 12        	sta	$12                     ; 0x12 <__rc2>
    3bf6: b1 24        	lda	($24),y                 ; 0x24 <__rc20>
    3bf8: 85 13        	sta	$13                     ; 0x13 <__rc3>
    3bfa: a2 ff        	ldx	#$ff
    3bfc: c6 12        	dec	$12                     ; 0x12 <__rc2>
    3bfe: e4 12        	cpx	$12                     ; 0x12 <__rc2>
    3c00: f0 03        	beq	$3c05 <pickFile_far+0x894>
    3c02: 4c 0a 3c     	jmp	$3c0a <pickFile_far+0x899>
    3c05: c6 13        	dec	$13                     ; 0x13 <__rc3>
    3c07: 4c 0a 3c     	jmp	$3c0a <pickFile_far+0x899>
    3c0a: a6 15        	ldx	$15                     ; 0x15 <__rc5>
    3c0c: e4 13        	cpx	$13                     ; 0x13 <__rc3>
    3c0e: a0 01        	ldy	#$1
    3c10: b0 02        	bcs	$3c14 <pickFile_far+0x8a3>
    3c12: a0 00        	ldy	#$0
    3c14: 84 15        	sty	$15                     ; 0x15 <__rc5>
    3c16: e4 13        	cpx	$13                     ; 0x13 <__rc3>
    3c18: f0 02        	beq	$3c1c <pickFile_far+0x8ab>
    3c1a: 80 09        	bra	$3c25 <pickFile_far+0x8b4>
    3c1c: a6 14        	ldx	$14                     ; 0x14 <__rc4>
    3c1e: e4 12        	cpx	$12                     ; 0x12 <__rc2>
    3c20: 90 0a        	bcc	$3c2c <pickFile_far+0x8bb>
    3c22: 4c b9 3e     	jmp	$3eb9 <pickFile_far+0xb48>
    3c25: a5 15        	lda	$15                     ; 0x15 <__rc5>
    3c27: f0 03        	beq	$3c2c <pickFile_far+0x8bb>
    3c29: 4c b9 3e     	jmp	$3eb9 <pickFile_far+0xb48>
    3c2c: 80 00        	bra	$3c2e <pickFile_far+0x8bd>
    3c2e: 18           	clc
    3c2f: a5 10        	lda	$10                     ; 0x10 <__zp_data_size>
    3c31: 69 3a        	adc	#$3a
    3c33: 85 12        	sta	$12                     ; 0x12 <__rc2>
    3c35: a5 11        	lda	$11                     ; 0x11 <__rc1>
    3c37: 69 00        	adc	#$0
    3c39: 85 13        	sta	$13                     ; 0x13 <__rc3>
    3c3b: b2 12        	lda	($12)                   ; 0x12 <__rc2>
    3c3d: 85 14        	sta	$14                     ; 0x14 <__rc4>
    3c3f: a0 01        	ldy	#$1
    3c41: b1 12        	lda	($12),y                 ; 0x12 <__rc2>
    3c43: c9 00        	cmp	#$0
    3c45: a2 01        	ldx	#$1
    3c47: b0 02        	bcs	$3c4b <pickFile_far+0x8da>
    3c49: a2 00        	ldx	#$0
    3c4b: 86 12        	stx	$12                     ; 0x12 <__rc2>
    3c4d: aa           	tax
    3c4e: f0 02        	beq	$3c52 <pickFile_far+0x8e1>
    3c50: 80 09        	bra	$3c5b <pickFile_far+0x8ea>
    3c52: a6 14        	ldx	$14                     ; 0x14 <__rc4>
    3c54: e0 0f        	cpx	#$f
    3c56: 90 0a        	bcc	$3c62 <pickFile_far+0x8f1>
    3c58: 4c 4b 3d     	jmp	$3d4b <pickFile_far+0x9da>
    3c5b: a5 12        	lda	$12                     ; 0x12 <__rc2>
    3c5d: f0 03        	beq	$3c62 <pickFile_far+0x8f1>
    3c5f: 4c 4b 3d     	jmp	$3d4b <pickFile_far+0x9da>
    3c62: 80 00        	bra	$3c64 <pickFile_far+0x8f3>
    3c64: 18           	clc
    3c65: a5 10        	lda	$10                     ; 0x10 <__zp_data_size>
    3c67: 69 35        	adc	#$35
    3c69: 85 24        	sta	$24                     ; 0x24 <__rc20>
    3c6b: a5 11        	lda	$11                     ; 0x11 <__rc1>
    3c6d: 69 00        	adc	#$0
    3c6f: 85 25        	sta	$25                     ; 0x25 <__rc21>
    3c71: b2 24        	lda	($24)                   ; 0x24 <__rc20>
    3c73: a8           	tay
    3c74: 18           	clc
    3c75: a5 10        	lda	$10                     ; 0x10 <__zp_data_size>
    3c77: 69 34        	adc	#$34
    3c79: 85 2a        	sta	$2a                     ; 0x2a <__rc26>
    3c7b: a5 11        	lda	$11                     ; 0x11 <__rc1>
    3c7d: 69 00        	adc	#$0
    3c7f: 85 2b        	sta	$2b                     ; 0x2b <__rc27>
    3c81: 18           	clc
    3c82: a5 10        	lda	$10                     ; 0x10 <__zp_data_size>
    3c84: 69 3a        	adc	#$3a
    3c86: 85 26        	sta	$26                     ; 0x26 <__rc22>
    3c88: a5 11        	lda	$11                     ; 0x11 <__rc1>
    3c8a: 69 00        	adc	#$0
    3c8c: 85 27        	sta	$27                     ; 0x27 <__rc23>
    3c8e: b2 26        	lda	($26)                   ; 0x26 <__rc22>
    3c90: 18           	clc
    3c91: 72 2a        	adc	($2a)                   ; 0x2a <__rc26>
    3c93: aa           	tax
    3c94: 98           	tya
    3c95: 20 65 1d     	jsr	$1d65 <textGotoXY>
    3c98: a9 20        	lda	#$20
    3c9a: 92 10        	sta	($10)                   ; 0x10 <__zp_data_size>
    3c9c: a0 01        	ldy	#$1
    3c9e: a9 00        	lda	#$0
    3ca0: 91 10        	sta	($10),y                 ; 0x10 <__zp_data_size>
    3ca2: a2 68        	ldx	#$68
    3ca4: 86 12        	stx	$12                     ; 0x12 <__rc2>
    3ca6: a2 82        	ldx	#$82
    3ca8: 86 13        	stx	$13                     ; 0x13 <__rc3>
    3caa: a5 12        	lda	$12                     ; 0x12 <__rc2>
    3cac: a0 0c        	ldy	#$c
    3cae: 91 10        	sta	($10),y                 ; 0x10 <__zp_data_size>
    3cb0: a5 13        	lda	$13                     ; 0x13 <__rc3>
    3cb2: c8           	iny
    3cb3: 91 10        	sta	($10),y                 ; 0x10 <__zp_data_size>
    3cb5: 20 e5 73     	jsr	$73e5 <printf>
    3cb8: 18           	clc
    3cb9: a5 10        	lda	$10                     ; 0x10 <__zp_data_size>
    3cbb: 69 3c        	adc	#$3c
    3cbd: 85 12        	sta	$12                     ; 0x12 <__rc2>
    3cbf: a5 11        	lda	$11                     ; 0x11 <__rc1>
    3cc1: 69 00        	adc	#$0
    3cc3: 85 13        	sta	$13                     ; 0x13 <__rc3>
    3cc5: b2 12        	lda	($12)                   ; 0x12 <__rc2>
    3cc7: 85 14        	sta	$14                     ; 0x14 <__rc4>
    3cc9: a0 01        	ldy	#$1
    3ccb: b1 12        	lda	($12),y                 ; 0x12 <__rc2>
    3ccd: aa           	tax
    3cce: a5 14        	lda	$14                     ; 0x14 <__rc4>
    3cd0: 1a           	inc
    3cd1: f0 03        	beq	$3cd6 <pickFile_far+0x965>
    3cd3: 4c da 3c     	jmp	$3cda <pickFile_far+0x969>
    3cd6: e8           	inx
    3cd7: 4c da 3c     	jmp	$3cda <pickFile_far+0x969>
    3cda: 92 12        	sta	($12)                   ; 0x12 <__rc2>
    3cdc: 8a           	txa
    3cdd: 91 12        	sta	($12),y                 ; 0x12 <__rc2>
    3cdf: b2 26        	lda	($26)                   ; 0x26 <__rc22>
    3ce1: 85 14        	sta	$14                     ; 0x14 <__rc4>
    3ce3: b1 26        	lda	($26),y                 ; 0x26 <__rc22>
    3ce5: aa           	tax
    3ce6: a5 14        	lda	$14                     ; 0x14 <__rc4>
    3ce8: 1a           	inc
    3ce9: f0 03        	beq	$3cee <pickFile_far+0x97d>
    3ceb: 4c f2 3c     	jmp	$3cf2 <pickFile_far+0x981>
    3cee: e8           	inx
    3cef: 4c f2 3c     	jmp	$3cf2 <pickFile_far+0x981>
    3cf2: 92 26        	sta	($26)                   ; 0x26 <__rc22>
    3cf4: 8a           	txa
    3cf5: 91 26        	sta	($26),y                 ; 0x26 <__rc22>
    3cf7: b2 12        	lda	($12)                   ; 0x12 <__rc2>
    3cf9: 85 14        	sta	$14                     ; 0x14 <__rc4>
    3cfb: b1 12        	lda	($12),y                 ; 0x12 <__rc2>
    3cfd: a2 03        	ldx	#$3
    3cff: 86 12        	stx	$12                     ; 0x12 <__rc2>
    3d01: 64 13        	stz	$13                     ; 0x13 <__rc3>
    3d03: 85 15        	sta	$15                     ; 0x15 <__rc5>
    3d05: a2 5f        	ldx	#$5f
    3d07: a9 42        	lda	#$42
    3d09: 20 07 06     	jsr	$607 <FAR_POKEW>
    3d0c: b2 26        	lda	($26)                   ; 0x26 <__rc22>
    3d0e: 85 14        	sta	$14                     ; 0x14 <__rc4>
    3d10: a0 01        	ldy	#$1
    3d12: b1 26        	lda	($26),y                 ; 0x26 <__rc22>
    3d14: a2 03        	ldx	#$3
    3d16: 86 12        	stx	$12                     ; 0x12 <__rc2>
    3d18: 64 13        	stz	$13                     ; 0x13 <__rc3>
    3d1a: 85 15        	sta	$15                     ; 0x15 <__rc5>
    3d1c: a2 5f        	ldx	#$5f
    3d1e: a9 46        	lda	#$46
    3d20: 20 07 06     	jsr	$607 <FAR_POKEW>
    3d23: b2 24        	lda	($24)                   ; 0x24 <__rc20>
    3d25: a8           	tay
    3d26: b2 26        	lda	($26)                   ; 0x26 <__rc22>
    3d28: 18           	clc
    3d29: 72 2a        	adc	($2a)                   ; 0x2a <__rc26>
    3d2b: aa           	tax
    3d2c: 98           	tya
    3d2d: 20 65 1d     	jsr	$1d65 <textGotoXY>
    3d30: a9 fa        	lda	#$fa
    3d32: 92 10        	sta	($10)                   ; 0x10 <__zp_data_size>
    3d34: a9 00        	lda	#$0
    3d36: a0 01        	ldy	#$1
    3d38: 91 10        	sta	($10),y                 ; 0x10 <__zp_data_size>
    3d3a: a0 0c        	ldy	#$c
    3d3c: b1 10        	lda	($10),y                 ; 0x10 <__zp_data_size>
    3d3e: 85 12        	sta	$12                     ; 0x12 <__rc2>
    3d40: c8           	iny
    3d41: b1 10        	lda	($10),y                 ; 0x10 <__zp_data_size>
    3d43: 85 13        	sta	$13                     ; 0x13 <__rc3>
    3d45: 20 e5 73     	jsr	$73e5 <printf>
    3d48: 4c b9 3e     	jmp	$3eb9 <pickFile_far+0xb48>
    3d4b: 18           	clc
    3d4c: a5 10        	lda	$10                     ; 0x10 <__zp_data_size>
    3d4e: 69 3a        	adc	#$3a
    3d50: 85 12        	sta	$12                     ; 0x12 <__rc2>
    3d52: a5 11        	lda	$11                     ; 0x11 <__rc1>
    3d54: 69 00        	adc	#$0
    3d56: 85 13        	sta	$13                     ; 0x13 <__rc3>
    3d58: b2 12        	lda	($12)                   ; 0x12 <__rc2>
    3d5a: 85 14        	sta	$14                     ; 0x14 <__rc4>
    3d5c: a0 01        	ldy	#$1
    3d5e: b1 12        	lda	($12),y                 ; 0x12 <__rc2>
    3d60: f0 02        	beq	$3d64 <pickFile_far+0x9f3>
    3d62: 80 0f        	bra	$3d73 <pickFile_far+0xa02>
    3d64: a6 14        	ldx	$14                     ; 0x14 <__rc4>
    3d66: e0 0f        	cpx	#$f
    3d68: f0 02        	beq	$3d6c <pickFile_far+0x9fb>
    3d6a: 80 02        	bra	$3d6e <pickFile_far+0x9fd>
    3d6c: 80 03        	bra	$3d71 <pickFile_far+0xa00>
    3d6e: 4c b9 3e     	jmp	$3eb9 <pickFile_far+0xb48>
    3d71: 80 03        	bra	$3d76 <pickFile_far+0xa05>
    3d73: 4c b9 3e     	jmp	$3eb9 <pickFile_far+0xb48>
    3d76: 80 00        	bra	$3d78 <pickFile_far+0xa07>
    3d78: 18           	clc
    3d79: a5 10        	lda	$10                     ; 0x10 <__zp_data_size>
    3d7b: 69 36        	adc	#$36
    3d7d: 85 14        	sta	$14                     ; 0x14 <__rc4>
    3d7f: a5 11        	lda	$11                     ; 0x11 <__rc1>
    3d81: 69 00        	adc	#$0
    3d83: 85 15        	sta	$15                     ; 0x15 <__rc5>
    3d85: b2 14        	lda	($14)                   ; 0x14 <__rc4>
    3d87: 85 12        	sta	$12                     ; 0x12 <__rc2>
    3d89: a0 01        	ldy	#$1
    3d8b: 18           	clc
    3d8c: a5 10        	lda	$10                     ; 0x10 <__zp_data_size>
    3d8e: 69 3c        	adc	#$3c
    3d90: 85 16        	sta	$16                     ; 0x16 <__rc6>
    3d92: a5 11        	lda	$11                     ; 0x11 <__rc1>
    3d94: 69 00        	adc	#$0
    3d96: 85 17        	sta	$17                     ; 0x17 <__rc7>
    3d98: b2 16        	lda	($16)                   ; 0x16 <__rc6>
    3d9a: 85 13        	sta	$13                     ; 0x13 <__rc3>
    3d9c: b1 16        	lda	($16),y                 ; 0x16 <__rc6>
    3d9e: d1 14        	cmp	($14),y                 ; 0x14 <__rc4>
    3da0: a2 01        	ldx	#$1
    3da2: b0 02        	bcs	$3da6 <pickFile_far+0xa35>
    3da4: a2 00        	ldx	#$0
    3da6: 86 16        	stx	$16                     ; 0x16 <__rc6>
    3da8: d1 14        	cmp	($14),y                 ; 0x14 <__rc4>
    3daa: f0 02        	beq	$3dae <pickFile_far+0xa3d>
    3dac: 80 09        	bra	$3db7 <pickFile_far+0xa46>
    3dae: a6 13        	ldx	$13                     ; 0x13 <__rc3>
    3db0: e4 12        	cpx	$12                     ; 0x12 <__rc2>
    3db2: 90 0a        	bcc	$3dbe <pickFile_far+0xa4d>
    3db4: 4c b9 3e     	jmp	$3eb9 <pickFile_far+0xb48>
    3db7: a5 16        	lda	$16                     ; 0x16 <__rc6>
    3db9: f0 03        	beq	$3dbe <pickFile_far+0xa4d>
    3dbb: 4c b9 3e     	jmp	$3eb9 <pickFile_far+0xb48>
    3dbe: 80 00        	bra	$3dc0 <pickFile_far+0xa4f>
    3dc0: 18           	clc
    3dc1: a5 10        	lda	$10                     ; 0x10 <__zp_data_size>
    3dc3: 69 35        	adc	#$35
    3dc5: 85 12        	sta	$12                     ; 0x12 <__rc2>
    3dc7: a5 11        	lda	$11                     ; 0x11 <__rc1>
    3dc9: 69 00        	adc	#$0
    3dcb: 85 13        	sta	$13                     ; 0x13 <__rc3>
    3dcd: a5 12        	lda	$12                     ; 0x12 <__rc2>
    3dcf: a0 16        	ldy	#$16
    3dd1: 91 10        	sta	($10),y                 ; 0x10 <__zp_data_size>
    3dd3: a5 13        	lda	$13                     ; 0x13 <__rc3>
    3dd5: c8           	iny
    3dd6: 91 10        	sta	($10),y                 ; 0x10 <__zp_data_size>
    3dd8: b2 12        	lda	($12)                   ; 0x12 <__rc2>
    3dda: a8           	tay
    3ddb: 18           	clc
    3ddc: a5 10        	lda	$10                     ; 0x10 <__zp_data_size>
    3dde: 69 34        	adc	#$34
    3de0: 85 2a        	sta	$2a                     ; 0x2a <__rc26>
    3de2: a5 11        	lda	$11                     ; 0x11 <__rc1>
    3de4: 69 00        	adc	#$0
    3de6: 85 2b        	sta	$2b                     ; 0x2b <__rc27>
    3de8: 18           	clc
    3de9: a5 10        	lda	$10                     ; 0x10 <__zp_data_size>
    3deb: 69 3a        	adc	#$3a
    3ded: 85 26        	sta	$26                     ; 0x26 <__rc22>
    3def: a5 11        	lda	$11                     ; 0x11 <__rc1>
    3df1: 69 00        	adc	#$0
    3df3: 85 27        	sta	$27                     ; 0x27 <__rc23>
    3df5: b2 26        	lda	($26)                   ; 0x26 <__rc22>
    3df7: 18           	clc
    3df8: 72 2a        	adc	($2a)                   ; 0x2a <__rc26>
    3dfa: aa           	tax
    3dfb: 98           	tya
    3dfc: 20 65 1d     	jsr	$1d65 <textGotoXY>
    3dff: a9 20        	lda	#$20
    3e01: 92 10        	sta	($10)                   ; 0x10 <__zp_data_size>
    3e03: a0 01        	ldy	#$1
    3e05: a9 00        	lda	#$0
    3e07: 91 10        	sta	($10),y                 ; 0x10 <__zp_data_size>
    3e09: a2 68        	ldx	#$68
    3e0b: 86 12        	stx	$12                     ; 0x12 <__rc2>
    3e0d: a2 82        	ldx	#$82
    3e0f: 86 13        	stx	$13                     ; 0x13 <__rc3>
    3e11: a5 12        	lda	$12                     ; 0x12 <__rc2>
    3e13: a0 0e        	ldy	#$e
    3e15: 91 10        	sta	($10),y                 ; 0x10 <__zp_data_size>
    3e17: a5 13        	lda	$13                     ; 0x13 <__rc3>
    3e19: c8           	iny
    3e1a: 91 10        	sta	($10),y                 ; 0x10 <__zp_data_size>
    3e1c: 20 e5 73     	jsr	$73e5 <printf>
    3e1f: a9 00        	lda	#$0
    3e21: 92 26        	sta	($26)                   ; 0x26 <__rc22>
    3e23: a0 01        	ldy	#$1
    3e25: 91 26        	sta	($26),y                 ; 0x26 <__rc22>
    3e27: 18           	clc
    3e28: a5 10        	lda	$10                     ; 0x10 <__zp_data_size>
    3e2a: 69 38        	adc	#$38
    3e2c: 85 24        	sta	$24                     ; 0x24 <__rc20>
    3e2e: a5 11        	lda	$11                     ; 0x11 <__rc1>
    3e30: 69 00        	adc	#$0
    3e32: 85 25        	sta	$25                     ; 0x25 <__rc21>
    3e34: b2 24        	lda	($24)                   ; 0x24 <__rc20>
    3e36: 85 13        	sta	$13                     ; 0x13 <__rc3>
    3e38: b1 24        	lda	($24),y                 ; 0x24 <__rc20>
    3e3a: 85 12        	sta	$12                     ; 0x12 <__rc2>
    3e3c: 18           	clc
    3e3d: a5 13        	lda	$13                     ; 0x13 <__rc3>
    3e3f: 69 0f        	adc	#$f
    3e41: 85 13        	sta	$13                     ; 0x13 <__rc3>
    3e43: a5 12        	lda	$12                     ; 0x12 <__rc2>
    3e45: 69 00        	adc	#$0
    3e47: aa           	tax
    3e48: a5 13        	lda	$13                     ; 0x13 <__rc3>
    3e4a: 92 24        	sta	($24)                   ; 0x24 <__rc20>
    3e4c: 8a           	txa
    3e4d: 91 24        	sta	($24),y                 ; 0x24 <__rc20>
    3e4f: b2 26        	lda	($26)                   ; 0x26 <__rc22>
    3e51: 85 14        	sta	$14                     ; 0x14 <__rc4>
    3e53: b1 26        	lda	($26),y                 ; 0x26 <__rc22>
    3e55: a2 03        	ldx	#$3
    3e57: 86 12        	stx	$12                     ; 0x12 <__rc2>
    3e59: 64 13        	stz	$13                     ; 0x13 <__rc3>
    3e5b: 85 15        	sta	$15                     ; 0x15 <__rc5>
    3e5d: a2 5f        	ldx	#$5f
    3e5f: a9 46        	lda	#$46
    3e61: 20 07 06     	jsr	$607 <FAR_POKEW>
    3e64: b2 24        	lda	($24)                   ; 0x24 <__rc20>
    3e66: 85 14        	sta	$14                     ; 0x14 <__rc4>
    3e68: a0 01        	ldy	#$1
    3e6a: b1 24        	lda	($24),y                 ; 0x24 <__rc20>
    3e6c: a2 03        	ldx	#$3
    3e6e: 86 12        	stx	$12                     ; 0x12 <__rc2>
    3e70: 64 13        	stz	$13                     ; 0x13 <__rc3>
    3e72: 85 15        	sta	$15                     ; 0x15 <__rc5>
    3e74: a2 5f        	ldx	#$5f
    3e76: a9 4a        	lda	#$4a
    3e78: 20 07 06     	jsr	$607 <FAR_POKEW>
    3e7b: b2 24        	lda	($24)                   ; 0x24 <__rc20>
    3e7d: 85 12        	sta	$12                     ; 0x12 <__rc2>
    3e7f: a0 01        	ldy	#$1
    3e81: b1 24        	lda	($24),y                 ; 0x24 <__rc20>
    3e83: aa           	tax
    3e84: a5 12        	lda	$12                     ; 0x12 <__rc2>
    3e86: 20 24 2f     	jsr	$2f24 <displayFileList_far>
    3e89: a0 16        	ldy	#$16
    3e8b: b1 10        	lda	($10),y                 ; 0x10 <__zp_data_size>
    3e8d: 85 12        	sta	$12                     ; 0x12 <__rc2>
    3e8f: c8           	iny
    3e90: b1 10        	lda	($10),y                 ; 0x10 <__zp_data_size>
    3e92: 85 13        	sta	$13                     ; 0x13 <__rc3>
    3e94: b2 12        	lda	($12)                   ; 0x12 <__rc2>
    3e96: a8           	tay
    3e97: b2 26        	lda	($26)                   ; 0x26 <__rc22>
    3e99: 18           	clc
    3e9a: 72 2a        	adc	($2a)                   ; 0x2a <__rc26>
    3e9c: aa           	tax
    3e9d: 98           	tya
    3e9e: 20 65 1d     	jsr	$1d65 <textGotoXY>
    3ea1: a9 fa        	lda	#$fa
    3ea3: 92 10        	sta	($10)                   ; 0x10 <__zp_data_size>
    3ea5: a9 00        	lda	#$0
    3ea7: a0 01        	ldy	#$1
    3ea9: 91 10        	sta	($10),y                 ; 0x10 <__zp_data_size>
    3eab: a0 0e        	ldy	#$e
    3ead: b1 10        	lda	($10),y                 ; 0x10 <__zp_data_size>
    3eaf: 85 12        	sta	$12                     ; 0x12 <__rc2>
    3eb1: c8           	iny
    3eb2: b1 10        	lda	($10),y                 ; 0x10 <__zp_data_size>
    3eb4: 85 13        	sta	$13                     ; 0x13 <__rc3>
    3eb6: 20 e5 73     	jsr	$73e5 <printf>
    3eb9: 4c 55 43     	jmp	$4355 <pickFile_far+0xfe4>
    3ebc: a9 42        	lda	#$42
    3ebe: a2 03        	ldx	#$3
    3ec0: 86 12        	stx	$12                     ; 0x12 <__rc2>
    3ec2: 86 24        	stx	$24                     ; 0x24 <__rc20>
    3ec4: 64 13        	stz	$13                     ; 0x13 <__rc3>
    3ec6: a2 5f        	ldx	#$5f
    3ec8: 20 ba 05     	jsr	$5ba <FAR_PEEKW>
    3ecb: 18           	clc
    3ecc: 48           	pha
    3ecd: a5 10        	lda	$10                     ; 0x10 <__zp_data_size>
    3ecf: 69 32        	adc	#$32
    3ed1: 85 26        	sta	$26                     ; 0x26 <__rc22>
    3ed3: a5 11        	lda	$11                     ; 0x11 <__rc1>
    3ed5: 69 00        	adc	#$0
    3ed7: 85 27        	sta	$27                     ; 0x27 <__rc23>
    3ed9: 68           	pla
    3eda: 92 26        	sta	($26)                   ; 0x26 <__rc22>
    3edc: a0 01        	ldy	#$1
    3ede: 8a           	txa
    3edf: 91 26        	sta	($26),y                 ; 0x26 <__rc22>
    3ee1: a2 01        	ldx	#$1
    3ee3: 86 25        	stx	$25                     ; 0x25 <__rc21>
    3ee5: a9 46        	lda	#$46
    3ee7: a6 24        	ldx	$24                     ; 0x24 <__rc20>
    3ee9: 86 12        	stx	$12                     ; 0x12 <__rc2>
    3eeb: 64 13        	stz	$13                     ; 0x13 <__rc3>
    3eed: a2 5f        	ldx	#$5f
    3eef: 20 ba 05     	jsr	$5ba <FAR_PEEKW>
    3ef2: 18           	clc
    3ef3: 48           	pha
    3ef4: a5 10        	lda	$10                     ; 0x10 <__zp_data_size>
    3ef6: 69 30        	adc	#$30
    3ef8: 85 12        	sta	$12                     ; 0x12 <__rc2>
    3efa: a5 11        	lda	$11                     ; 0x11 <__rc1>
    3efc: 69 00        	adc	#$0
    3efe: 85 13        	sta	$13                     ; 0x13 <__rc3>
    3f00: 68           	pla
    3f01: 92 12        	sta	($12)                   ; 0x12 <__rc2>
    3f03: a4 25        	ldy	$25                     ; 0x25 <__rc21>
    3f05: 8a           	txa
    3f06: 91 12        	sta	($12),y                 ; 0x12 <__rc2>
    3f08: a9 4a        	lda	#$4a
    3f0a: a6 24        	ldx	$24                     ; 0x24 <__rc20>
    3f0c: 86 12        	stx	$12                     ; 0x12 <__rc2>
    3f0e: 64 13        	stz	$13                     ; 0x13 <__rc3>
    3f10: a2 5f        	ldx	#$5f
    3f12: 20 ba 05     	jsr	$5ba <FAR_PEEKW>
    3f15: 18           	clc
    3f16: 48           	pha
    3f17: a5 10        	lda	$10                     ; 0x10 <__zp_data_size>
    3f19: 69 2e        	adc	#$2e
    3f1b: 85 12        	sta	$12                     ; 0x12 <__rc2>
    3f1d: a5 11        	lda	$11                     ; 0x11 <__rc1>
    3f1f: 69 00        	adc	#$0
    3f21: 85 13        	sta	$13                     ; 0x13 <__rc3>
    3f23: 68           	pla
    3f24: 92 12        	sta	($12)                   ; 0x12 <__rc2>
    3f26: a4 25        	ldy	$25                     ; 0x25 <__rc21>
    3f28: 8a           	txa
    3f29: 91 12        	sta	($12),y                 ; 0x12 <__rc2>
    3f2b: a6 24        	ldx	$24                     ; 0x24 <__rc20>
    3f2d: 86 12        	stx	$12                     ; 0x12 <__rc2>
    3f2f: 64 13        	stz	$13                     ; 0x13 <__rc3>
    3f31: a2 00        	ldx	#$0
    3f33: 8a           	txa
    3f34: 20 99 05     	jsr	$599 <FAR_PEEK>
    3f37: 18           	clc
    3f38: 48           	pha
    3f39: a5 10        	lda	$10                     ; 0x10 <__zp_data_size>
    3f3b: 69 2d        	adc	#$2d
    3f3d: 85 12        	sta	$12                     ; 0x12 <__rc2>
    3f3f: a5 11        	lda	$11                     ; 0x11 <__rc1>
    3f41: 69 00        	adc	#$0
    3f43: 85 13        	sta	$13                     ; 0x13 <__rc3>
    3f45: 68           	pla
    3f46: 92 12        	sta	($12)                   ; 0x12 <__rc2>
    3f48: a6 24        	ldx	$24                     ; 0x24 <__rc20>
    3f4a: 86 12        	stx	$12                     ; 0x12 <__rc2>
    3f4c: 64 13        	stz	$13                     ; 0x13 <__rc3>
    3f4e: a2 00        	ldx	#$0
    3f50: a5 25        	lda	$25                     ; 0x25 <__rc21>
    3f52: 20 99 05     	jsr	$599 <FAR_PEEK>
    3f55: 18           	clc
    3f56: 48           	pha
    3f57: a5 10        	lda	$10                     ; 0x10 <__zp_data_size>
    3f59: 69 2c        	adc	#$2c
    3f5b: 85 12        	sta	$12                     ; 0x12 <__rc2>
    3f5d: a5 11        	lda	$11                     ; 0x11 <__rc1>
    3f5f: 69 00        	adc	#$0
    3f61: 85 13        	sta	$13                     ; 0x13 <__rc3>
    3f63: 68           	pla
    3f64: 92 12        	sta	($12)                   ; 0x12 <__rc2>
    3f66: b2 26        	lda	($26)                   ; 0x26 <__rc22>
    3f68: 85 12        	sta	$12                     ; 0x12 <__rc2>
    3f6a: a4 25        	ldy	$25                     ; 0x25 <__rc21>
    3f6c: b1 26        	lda	($26),y                 ; 0x26 <__rc22>
    3f6e: c9 00        	cmp	#$0
    3f70: a2 01        	ldx	#$1
    3f72: b0 02        	bcs	$3f76 <pickFile_far+0xc05>
    3f74: a2 00        	ldx	#$0
    3f76: 86 13        	stx	$13                     ; 0x13 <__rc3>
    3f78: aa           	tax
    3f79: f0 02        	beq	$3f7d <pickFile_far+0xc0c>
    3f7b: 80 09        	bra	$3f86 <pickFile_far+0xc15>
    3f7d: a6 12        	ldx	$12                     ; 0x12 <__rc2>
    3f7f: e0 0f        	cpx	#$f
    3f81: b0 0a        	bcs	$3f8d <pickFile_far+0xc1c>
    3f83: 4c ca 40     	jmp	$40ca <pickFile_far+0xd59>
    3f86: a5 13        	lda	$13                     ; 0x13 <__rc3>
    3f88: d0 03        	bne	$3f8d <pickFile_far+0xc1c>
    3f8a: 4c ca 40     	jmp	$40ca <pickFile_far+0xd59>
    3f8d: 80 00        	bra	$3f8f <pickFile_far+0xc1e>
    3f8f: 18           	clc
    3f90: a5 10        	lda	$10                     ; 0x10 <__zp_data_size>
    3f92: 69 2d        	adc	#$2d
    3f94: 85 26        	sta	$26                     ; 0x26 <__rc22>
    3f96: a5 11        	lda	$11                     ; 0x11 <__rc1>
    3f98: 69 00        	adc	#$0
    3f9a: 85 27        	sta	$27                     ; 0x27 <__rc23>
    3f9c: b2 26        	lda	($26)                   ; 0x26 <__rc22>
    3f9e: a8           	tay
    3f9f: 18           	clc
    3fa0: 5a           	phy
    3fa1: a5 10        	lda	$10                     ; 0x10 <__zp_data_size>
    3fa3: 69 2c        	adc	#$2c
    3fa5: 85 12        	sta	$12                     ; 0x12 <__rc2>
    3fa7: a5 11        	lda	$11                     ; 0x11 <__rc1>
    3fa9: 69 00        	adc	#$0
    3fab: 85 13        	sta	$13                     ; 0x13 <__rc3>
    3fad: a5 12        	lda	$12                     ; 0x12 <__rc2>
    3faf: a0 08        	ldy	#$8
    3fb1: 91 10        	sta	($10),y                 ; 0x10 <__zp_data_size>
    3fb3: a5 13        	lda	$13                     ; 0x13 <__rc3>
    3fb5: c8           	iny
    3fb6: 91 10        	sta	($10),y                 ; 0x10 <__zp_data_size>
    3fb8: 18           	clc
    3fb9: a5 10        	lda	$10                     ; 0x10 <__zp_data_size>
    3fbb: 69 30        	adc	#$30
    3fbd: 85 14        	sta	$14                     ; 0x14 <__rc4>
    3fbf: a5 11        	lda	$11                     ; 0x11 <__rc1>
    3fc1: 69 00        	adc	#$0
    3fc3: 85 15        	sta	$15                     ; 0x15 <__rc5>
    3fc5: a5 14        	lda	$14                     ; 0x14 <__rc4>
    3fc7: a0 1a        	ldy	#$1a
    3fc9: 91 10        	sta	($10),y                 ; 0x10 <__zp_data_size>
    3fcb: a5 15        	lda	$15                     ; 0x15 <__rc5>
    3fcd: c8           	iny
    3fce: 91 10        	sta	($10),y                 ; 0x10 <__zp_data_size>
    3fd0: 7a           	ply
    3fd1: b2 14        	lda	($14)                   ; 0x14 <__rc4>
    3fd3: 18           	clc
    3fd4: 72 12        	adc	($12)                   ; 0x12 <__rc2>
    3fd6: aa           	tax
    3fd7: 98           	tya
    3fd8: 20 65 1d     	jsr	$1d65 <textGotoXY>
    3fdb: a9 20        	lda	#$20
    3fdd: 92 10        	sta	($10)                   ; 0x10 <__zp_data_size>
    3fdf: a0 01        	ldy	#$1
    3fe1: a9 00        	lda	#$0
    3fe3: 91 10        	sta	($10),y                 ; 0x10 <__zp_data_size>
    3fe5: a2 68        	ldx	#$68
    3fe7: 86 12        	stx	$12                     ; 0x12 <__rc2>
    3fe9: a2 82        	ldx	#$82
    3feb: 86 13        	stx	$13                     ; 0x13 <__rc3>
    3fed: a5 12        	lda	$12                     ; 0x12 <__rc2>
    3fef: a0 14        	ldy	#$14
    3ff1: 91 10        	sta	($10),y                 ; 0x10 <__zp_data_size>
    3ff3: a5 13        	lda	$13                     ; 0x13 <__rc3>
    3ff5: c8           	iny
    3ff6: 91 10        	sta	($10),y                 ; 0x10 <__zp_data_size>
    3ff8: 20 e5 73     	jsr	$73e5 <printf>
    3ffb: 18           	clc
    3ffc: a5 10        	lda	$10                     ; 0x10 <__zp_data_size>
    3ffe: 69 32        	adc	#$32
    4000: 85 12        	sta	$12                     ; 0x12 <__rc2>
    4002: a5 11        	lda	$11                     ; 0x11 <__rc1>
    4004: 69 00        	adc	#$0
    4006: 85 13        	sta	$13                     ; 0x13 <__rc3>
    4008: b2 12        	lda	($12)                   ; 0x12 <__rc2>
    400a: 85 15        	sta	$15                     ; 0x15 <__rc5>
    400c: a0 01        	ldy	#$1
    400e: b1 12        	lda	($12),y                 ; 0x12 <__rc2>
    4010: 85 14        	sta	$14                     ; 0x14 <__rc4>
    4012: 18           	clc
    4013: a5 15        	lda	$15                     ; 0x15 <__rc5>
    4015: 69 f1        	adc	#$f1
    4017: 85 15        	sta	$15                     ; 0x15 <__rc5>
    4019: a5 14        	lda	$14                     ; 0x14 <__rc4>
    401b: 69 ff        	adc	#$ff
    401d: aa           	tax
    401e: a5 15        	lda	$15                     ; 0x15 <__rc5>
    4020: 92 12        	sta	($12)                   ; 0x12 <__rc2>
    4022: 8a           	txa
    4023: 91 12        	sta	($12),y                 ; 0x12 <__rc2>
    4025: 18           	clc
    4026: a5 10        	lda	$10                     ; 0x10 <__zp_data_size>
    4028: 69 2e        	adc	#$2e
    402a: 85 24        	sta	$24                     ; 0x24 <__rc20>
    402c: a5 11        	lda	$11                     ; 0x11 <__rc1>
    402e: 69 00        	adc	#$0
    4030: 85 25        	sta	$25                     ; 0x25 <__rc21>
    4032: b2 24        	lda	($24)                   ; 0x24 <__rc20>
    4034: 85 15        	sta	$15                     ; 0x15 <__rc5>
    4036: b1 24        	lda	($24),y                 ; 0x24 <__rc20>
    4038: 85 14        	sta	$14                     ; 0x14 <__rc4>
    403a: 18           	clc
    403b: a5 15        	lda	$15                     ; 0x15 <__rc5>
    403d: 69 f1        	adc	#$f1
    403f: 85 15        	sta	$15                     ; 0x15 <__rc5>
    4041: a5 14        	lda	$14                     ; 0x14 <__rc4>
    4043: 69 ff        	adc	#$ff
    4045: aa           	tax
    4046: a5 15        	lda	$15                     ; 0x15 <__rc5>
    4048: 92 24        	sta	($24)                   ; 0x24 <__rc20>
    404a: 8a           	txa
    404b: 91 24        	sta	($24),y                 ; 0x24 <__rc20>
    404d: b2 12        	lda	($12)                   ; 0x12 <__rc2>
    404f: 85 14        	sta	$14                     ; 0x14 <__rc4>
    4051: b1 12        	lda	($12),y                 ; 0x12 <__rc2>
    4053: a2 03        	ldx	#$3
    4055: 86 12        	stx	$12                     ; 0x12 <__rc2>
    4057: 86 2a        	stx	$2a                     ; 0x2a <__rc26>
    4059: 64 13        	stz	$13                     ; 0x13 <__rc3>
    405b: 85 15        	sta	$15                     ; 0x15 <__rc5>
    405d: a2 5f        	ldx	#$5f
    405f: a9 42        	lda	#$42
    4061: 20 07 06     	jsr	$607 <FAR_POKEW>
    4064: b2 24        	lda	($24)                   ; 0x24 <__rc20>
    4066: 85 14        	sta	$14                     ; 0x14 <__rc4>
    4068: a0 01        	ldy	#$1
    406a: b1 24        	lda	($24),y                 ; 0x24 <__rc20>
    406c: a6 2a        	ldx	$2a                     ; 0x2a <__rc26>
    406e: 86 12        	stx	$12                     ; 0x12 <__rc2>
    4070: 64 13        	stz	$13                     ; 0x13 <__rc3>
    4072: 85 15        	sta	$15                     ; 0x15 <__rc5>
    4074: a2 5f        	ldx	#$5f
    4076: a9 4a        	lda	#$4a
    4078: 20 07 06     	jsr	$607 <FAR_POKEW>
    407b: b2 24        	lda	($24)                   ; 0x24 <__rc20>
    407d: 85 12        	sta	$12                     ; 0x12 <__rc2>
    407f: a0 01        	ldy	#$1
    4081: b1 24        	lda	($24),y                 ; 0x24 <__rc20>
    4083: aa           	tax
    4084: a5 12        	lda	$12                     ; 0x12 <__rc2>
    4086: 20 24 2f     	jsr	$2f24 <displayFileList_far>
    4089: b2 26        	lda	($26)                   ; 0x26 <__rc22>
    408b: a8           	tay
    408c: 84 21        	sty	$21                     ; 0x21 <__rc17>
    408e: a0 1a        	ldy	#$1a
    4090: b1 10        	lda	($10),y                 ; 0x10 <__zp_data_size>
    4092: 85 12        	sta	$12                     ; 0x12 <__rc2>
    4094: c8           	iny
    4095: b1 10        	lda	($10),y                 ; 0x10 <__zp_data_size>
    4097: 85 13        	sta	$13                     ; 0x13 <__rc3>
    4099: b2 12        	lda	($12)                   ; 0x12 <__rc2>
    409b: 18           	clc
    409c: 48           	pha
    409d: a0 08        	ldy	#$8
    409f: b1 10        	lda	($10),y                 ; 0x10 <__zp_data_size>
    40a1: 85 12        	sta	$12                     ; 0x12 <__rc2>
    40a3: c8           	iny
    40a4: b1 10        	lda	($10),y                 ; 0x10 <__zp_data_size>
    40a6: a4 21        	ldy	$21                     ; 0x21 <__rc17>
    40a8: 85 13        	sta	$13                     ; 0x13 <__rc3>
    40aa: 68           	pla
    40ab: 72 12        	adc	($12)                   ; 0x12 <__rc2>
    40ad: aa           	tax
    40ae: 98           	tya
    40af: 20 65 1d     	jsr	$1d65 <textGotoXY>
    40b2: a9 fa        	lda	#$fa
    40b4: 92 10        	sta	($10)                   ; 0x10 <__zp_data_size>
    40b6: a9 00        	lda	#$0
    40b8: a0 01        	ldy	#$1
    40ba: 91 10        	sta	($10),y                 ; 0x10 <__zp_data_size>
    40bc: a0 14        	ldy	#$14
    40be: b1 10        	lda	($10),y                 ; 0x10 <__zp_data_size>
    40c0: 85 12        	sta	$12                     ; 0x12 <__rc2>
    40c2: c8           	iny
    40c3: b1 10        	lda	($10),y                 ; 0x10 <__zp_data_size>
    40c5: 85 13        	sta	$13                     ; 0x13 <__rc3>
    40c7: 20 e5 73     	jsr	$73e5 <printf>
    40ca: 4c 55 43     	jmp	$4355 <pickFile_far+0xfe4>
    40cd: a9 42        	lda	#$42
    40cf: a2 03        	ldx	#$3
    40d1: 86 12        	stx	$12                     ; 0x12 <__rc2>
    40d3: 86 2a        	stx	$2a                     ; 0x2a <__rc26>
    40d5: 64 13        	stz	$13                     ; 0x13 <__rc3>
    40d7: a2 5f        	ldx	#$5f
    40d9: 20 ba 05     	jsr	$5ba <FAR_PEEKW>
    40dc: 18           	clc
    40dd: 48           	pha
    40de: a5 10        	lda	$10                     ; 0x10 <__zp_data_size>
    40e0: 69 2a        	adc	#$2a
    40e2: 85 14        	sta	$14                     ; 0x14 <__rc4>
    40e4: a5 11        	lda	$11                     ; 0x11 <__rc1>
    40e6: 69 00        	adc	#$0
    40e8: 85 15        	sta	$15                     ; 0x15 <__rc5>
    40ea: a5 14        	lda	$14                     ; 0x14 <__rc4>
    40ec: a0 12        	ldy	#$12
    40ee: 91 10        	sta	($10),y                 ; 0x10 <__zp_data_size>
    40f0: a5 15        	lda	$15                     ; 0x15 <__rc5>
    40f2: c8           	iny
    40f3: 91 10        	sta	($10),y                 ; 0x10 <__zp_data_size>
    40f5: 68           	pla
    40f6: 92 14        	sta	($14)                   ; 0x14 <__rc4>
    40f8: a0 01        	ldy	#$1
    40fa: 8a           	txa
    40fb: 91 14        	sta	($14),y                 ; 0x14 <__rc4>
    40fd: a2 01        	ldx	#$1
    40ff: 86 2b        	stx	$2b                     ; 0x2b <__rc27>
    4101: a9 46        	lda	#$46
    4103: a6 2a        	ldx	$2a                     ; 0x2a <__rc26>
    4105: 86 12        	stx	$12                     ; 0x12 <__rc2>
    4107: 64 13        	stz	$13                     ; 0x13 <__rc3>
    4109: a2 5f        	ldx	#$5f
    410b: 20 ba 05     	jsr	$5ba <FAR_PEEKW>
    410e: 18           	clc
    410f: 48           	pha
    4110: a5 10        	lda	$10                     ; 0x10 <__zp_data_size>
    4112: 69 28        	adc	#$28
    4114: 85 26        	sta	$26                     ; 0x26 <__rc22>
    4116: a5 11        	lda	$11                     ; 0x11 <__rc1>
    4118: 69 00        	adc	#$0
    411a: 85 27        	sta	$27                     ; 0x27 <__rc23>
    411c: 68           	pla
    411d: 92 26        	sta	($26)                   ; 0x26 <__rc22>
    411f: a4 2b        	ldy	$2b                     ; 0x2b <__rc27>
    4121: 8a           	txa
    4122: 91 26        	sta	($26),y                 ; 0x26 <__rc22>
    4124: a9 4a        	lda	#$4a
    4126: a6 2a        	ldx	$2a                     ; 0x2a <__rc26>
    4128: 86 12        	stx	$12                     ; 0x12 <__rc2>
    412a: 64 13        	stz	$13                     ; 0x13 <__rc3>
    412c: a2 5f        	ldx	#$5f
    412e: 20 ba 05     	jsr	$5ba <FAR_PEEKW>
    4131: 18           	clc
    4132: 48           	pha
    4133: a5 10        	lda	$10                     ; 0x10 <__zp_data_size>
    4135: 69 26        	adc	#$26
    4137: 85 12        	sta	$12                     ; 0x12 <__rc2>
    4139: a5 11        	lda	$11                     ; 0x11 <__rc1>
    413b: 69 00        	adc	#$0
    413d: 85 13        	sta	$13                     ; 0x13 <__rc3>
    413f: 68           	pla
    4140: 92 12        	sta	($12)                   ; 0x12 <__rc2>
    4142: a4 2b        	ldy	$2b                     ; 0x2b <__rc27>
    4144: 8a           	txa
    4145: 91 12        	sta	($12),y                 ; 0x12 <__rc2>
    4147: a9 3e        	lda	#$3e
    4149: a6 2a        	ldx	$2a                     ; 0x2a <__rc26>
    414b: 86 12        	stx	$12                     ; 0x12 <__rc2>
    414d: 64 13        	stz	$13                     ; 0x13 <__rc3>
    414f: a2 5f        	ldx	#$5f
    4151: 20 ba 05     	jsr	$5ba <FAR_PEEKW>
    4154: 18           	clc
    4155: 48           	pha
    4156: a5 10        	lda	$10                     ; 0x10 <__zp_data_size>
    4158: 69 24        	adc	#$24
    415a: 85 24        	sta	$24                     ; 0x24 <__rc20>
    415c: a5 11        	lda	$11                     ; 0x11 <__rc1>
    415e: 69 00        	adc	#$0
    4160: 85 25        	sta	$25                     ; 0x25 <__rc21>
    4162: 68           	pla
    4163: 92 24        	sta	($24)                   ; 0x24 <__rc20>
    4165: a4 2b        	ldy	$2b                     ; 0x2b <__rc27>
    4167: 8a           	txa
    4168: 91 24        	sta	($24),y                 ; 0x24 <__rc20>
    416a: a6 2a        	ldx	$2a                     ; 0x2a <__rc26>
    416c: 86 12        	stx	$12                     ; 0x12 <__rc2>
    416e: 64 13        	stz	$13                     ; 0x13 <__rc3>
    4170: a2 00        	ldx	#$0
    4172: 8a           	txa
    4173: 20 99 05     	jsr	$599 <FAR_PEEK>
    4176: 18           	clc
    4177: 48           	pha
    4178: a5 10        	lda	$10                     ; 0x10 <__zp_data_size>
    417a: 69 23        	adc	#$23
    417c: 85 12        	sta	$12                     ; 0x12 <__rc2>
    417e: a5 11        	lda	$11                     ; 0x11 <__rc1>
    4180: 69 00        	adc	#$0
    4182: 85 13        	sta	$13                     ; 0x13 <__rc3>
    4184: 68           	pla
    4185: 92 12        	sta	($12)                   ; 0x12 <__rc2>
    4187: a6 2a        	ldx	$2a                     ; 0x2a <__rc26>
    4189: 86 12        	stx	$12                     ; 0x12 <__rc2>
    418b: 64 13        	stz	$13                     ; 0x13 <__rc3>
    418d: a2 00        	ldx	#$0
    418f: a5 2b        	lda	$2b                     ; 0x2b <__rc27>
    4191: 20 99 05     	jsr	$599 <FAR_PEEK>
    4194: 18           	clc
    4195: 48           	pha
    4196: a5 10        	lda	$10                     ; 0x10 <__zp_data_size>
    4198: 69 22        	adc	#$22
    419a: 85 12        	sta	$12                     ; 0x12 <__rc2>
    419c: a5 11        	lda	$11                     ; 0x11 <__rc1>
    419e: 69 00        	adc	#$0
    41a0: 85 13        	sta	$13                     ; 0x13 <__rc3>
    41a2: 68           	pla
    41a3: 92 12        	sta	($12)                   ; 0x12 <__rc2>
    41a5: b2 24        	lda	($24)                   ; 0x24 <__rc20>
    41a7: 85 12        	sta	$12                     ; 0x12 <__rc2>
    41a9: a0 12        	ldy	#$12
    41ab: b1 10        	lda	($10),y                 ; 0x10 <__zp_data_size>
    41ad: 85 14        	sta	$14                     ; 0x14 <__rc4>
    41af: c8           	iny
    41b0: b1 10        	lda	($10),y                 ; 0x10 <__zp_data_size>
    41b2: 85 15        	sta	$15                     ; 0x15 <__rc5>
    41b4: b2 14        	lda	($14)                   ; 0x14 <__rc4>
    41b6: 85 13        	sta	$13                     ; 0x13 <__rc3>
    41b8: a0 01        	ldy	#$1
    41ba: b1 14        	lda	($14),y                 ; 0x14 <__rc4>
    41bc: 85 14        	sta	$14                     ; 0x14 <__rc4>
    41be: 38           	sec
    41bf: a5 13        	lda	$13                     ; 0x13 <__rc3>
    41c1: f2 26        	sbc	($26)                   ; 0x26 <__rc22>
    41c3: 85 13        	sta	$13                     ; 0x13 <__rc3>
    41c5: a5 14        	lda	$14                     ; 0x14 <__rc4>
    41c7: f1 26        	sbc	($26),y                 ; 0x26 <__rc22>
    41c9: aa           	tax
    41ca: 18           	clc
    41cb: a5 13        	lda	$13                     ; 0x13 <__rc3>
    41cd: 69 10        	adc	#$10
    41cf: 85 13        	sta	$13                     ; 0x13 <__rc3>
    41d1: 8a           	txa
    41d2: 69 00        	adc	#$0
    41d4: d1 24        	cmp	($24),y                 ; 0x24 <__rc20>
    41d6: a2 01        	ldx	#$1
    41d8: b0 02        	bcs	$41dc <pickFile_far+0xe6b>
    41da: a2 00        	ldx	#$0
    41dc: 86 14        	stx	$14                     ; 0x14 <__rc4>
    41de: d1 24        	cmp	($24),y                 ; 0x24 <__rc20>
    41e0: f0 02        	beq	$41e4 <pickFile_far+0xe73>
    41e2: 80 09        	bra	$41ed <pickFile_far+0xe7c>
    41e4: a6 13        	ldx	$13                     ; 0x13 <__rc3>
    41e6: e4 12        	cpx	$12                     ; 0x12 <__rc2>
    41e8: 90 0a        	bcc	$41f4 <pickFile_far+0xe83>
    41ea: 4c 55 43     	jmp	$4355 <pickFile_far+0xfe4>
    41ed: a5 14        	lda	$14                     ; 0x14 <__rc4>
    41ef: f0 03        	beq	$41f4 <pickFile_far+0xe83>
    41f1: 4c 55 43     	jmp	$4355 <pickFile_far+0xfe4>
    41f4: 80 00        	bra	$41f6 <pickFile_far+0xe85>
    41f6: 18           	clc
    41f7: a5 10        	lda	$10                     ; 0x10 <__zp_data_size>
    41f9: 69 23        	adc	#$23
    41fb: 85 12        	sta	$12                     ; 0x12 <__rc2>
    41fd: a5 11        	lda	$11                     ; 0x11 <__rc1>
    41ff: 69 00        	adc	#$0
    4201: 85 13        	sta	$13                     ; 0x13 <__rc3>
    4203: a5 12        	lda	$12                     ; 0x12 <__rc2>
    4205: a0 20        	ldy	#$20
    4207: 91 10        	sta	($10),y                 ; 0x10 <__zp_data_size>
    4209: a5 13        	lda	$13                     ; 0x13 <__rc3>
    420b: c8           	iny
    420c: 91 10        	sta	($10),y                 ; 0x10 <__zp_data_size>
    420e: b2 12        	lda	($12)                   ; 0x12 <__rc2>
    4210: a8           	tay
    4211: 18           	clc
    4212: 5a           	phy
    4213: a5 10        	lda	$10                     ; 0x10 <__zp_data_size>
    4215: 69 22        	adc	#$22
    4217: 85 12        	sta	$12                     ; 0x12 <__rc2>
    4219: a5 11        	lda	$11                     ; 0x11 <__rc1>
    421b: 69 00        	adc	#$0
    421d: 85 13        	sta	$13                     ; 0x13 <__rc3>
    421f: a5 12        	lda	$12                     ; 0x12 <__rc2>
    4221: a0 1e        	ldy	#$1e
    4223: 91 10        	sta	($10),y                 ; 0x10 <__zp_data_size>
    4225: a5 13        	lda	$13                     ; 0x13 <__rc3>
    4227: c8           	iny
    4228: 91 10        	sta	($10),y                 ; 0x10 <__zp_data_size>
    422a: 7a           	ply
    422b: 18           	clc
    422c: a5 10        	lda	$10                     ; 0x10 <__zp_data_size>
    422e: 69 28        	adc	#$28
    4230: 85 24        	sta	$24                     ; 0x24 <__rc20>
    4232: a5 11        	lda	$11                     ; 0x11 <__rc1>
    4234: 69 00        	adc	#$0
    4236: 85 25        	sta	$25                     ; 0x25 <__rc21>
    4238: b2 24        	lda	($24)                   ; 0x24 <__rc20>
    423a: 18           	clc
    423b: 72 12        	adc	($12)                   ; 0x12 <__rc2>
    423d: aa           	tax
    423e: 98           	tya
    423f: 20 65 1d     	jsr	$1d65 <textGotoXY>
    4242: a9 20        	lda	#$20
    4244: 92 10        	sta	($10)                   ; 0x10 <__zp_data_size>
    4246: a0 01        	ldy	#$1
    4248: a9 00        	lda	#$0
    424a: 91 10        	sta	($10),y                 ; 0x10 <__zp_data_size>
    424c: a2 68        	ldx	#$68
    424e: 86 12        	stx	$12                     ; 0x12 <__rc2>
    4250: a2 82        	ldx	#$82
    4252: 86 13        	stx	$13                     ; 0x13 <__rc3>
    4254: a5 12        	lda	$12                     ; 0x12 <__rc2>
    4256: a0 1c        	ldy	#$1c
    4258: 91 10        	sta	($10),y                 ; 0x10 <__zp_data_size>
    425a: a5 13        	lda	$13                     ; 0x13 <__rc3>
    425c: c8           	iny
    425d: 91 10        	sta	($10),y                 ; 0x10 <__zp_data_size>
    425f: 20 e5 73     	jsr	$73e5 <printf>
    4262: 38           	sec
    4263: a9 0f        	lda	#$f
    4265: f2 24        	sbc	($24)                   ; 0x24 <__rc20>
    4267: aa           	tax
    4268: a9 00        	lda	#$0
    426a: a0 01        	ldy	#$1
    426c: f1 24        	sbc	($24),y                 ; 0x24 <__rc20>
    426e: 85 15        	sta	$15                     ; 0x15 <__rc5>
    4270: 18           	clc
    4271: a5 10        	lda	$10                     ; 0x10 <__zp_data_size>
    4273: 69 2a        	adc	#$2a
    4275: 85 12        	sta	$12                     ; 0x12 <__rc2>
    4277: a5 11        	lda	$11                     ; 0x11 <__rc1>
    4279: 69 00        	adc	#$0
    427b: 85 13        	sta	$13                     ; 0x13 <__rc3>
    427d: 18           	clc
    427e: 8a           	txa
    427f: 72 12        	adc	($12)                   ; 0x12 <__rc2>
    4281: 85 14        	sta	$14                     ; 0x14 <__rc4>
    4283: a5 15        	lda	$15                     ; 0x15 <__rc5>
    4285: 71 12        	adc	($12),y                 ; 0x12 <__rc2>
    4287: 85 15        	sta	$15                     ; 0x15 <__rc5>
    4289: a5 14        	lda	$14                     ; 0x14 <__rc4>
    428b: 92 12        	sta	($12)                   ; 0x12 <__rc2>
    428d: a5 15        	lda	$15                     ; 0x15 <__rc5>
    428f: 91 12        	sta	($12),y                 ; 0x12 <__rc2>
    4291: a9 00        	lda	#$0
    4293: 92 24        	sta	($24)                   ; 0x24 <__rc20>
    4295: 91 24        	sta	($24),y                 ; 0x24 <__rc20>
    4297: 18           	clc
    4298: a5 10        	lda	$10                     ; 0x10 <__zp_data_size>
    429a: 69 26        	adc	#$26
    429c: 85 26        	sta	$26                     ; 0x26 <__rc22>
    429e: a5 11        	lda	$11                     ; 0x11 <__rc1>
    42a0: 69 00        	adc	#$0
    42a2: 85 27        	sta	$27                     ; 0x27 <__rc23>
    42a4: b2 26        	lda	($26)                   ; 0x26 <__rc22>
    42a6: 85 15        	sta	$15                     ; 0x15 <__rc5>
    42a8: b1 26        	lda	($26),y                 ; 0x26 <__rc22>
    42aa: 85 14        	sta	$14                     ; 0x14 <__rc4>
    42ac: 18           	clc
    42ad: a5 15        	lda	$15                     ; 0x15 <__rc5>
    42af: 69 0f        	adc	#$f
    42b1: 85 15        	sta	$15                     ; 0x15 <__rc5>
    42b3: a5 14        	lda	$14                     ; 0x14 <__rc4>
    42b5: 69 00        	adc	#$0
    42b7: aa           	tax
    42b8: a5 15        	lda	$15                     ; 0x15 <__rc5>
    42ba: 92 26        	sta	($26)                   ; 0x26 <__rc22>
    42bc: 8a           	txa
    42bd: 91 26        	sta	($26),y                 ; 0x26 <__rc22>
    42bf: b2 12        	lda	($12)                   ; 0x12 <__rc2>
    42c1: 85 14        	sta	$14                     ; 0x14 <__rc4>
    42c3: b1 12        	lda	($12),y                 ; 0x12 <__rc2>
    42c5: a2 01        	ldx	#$1
    42c7: 86 2a        	stx	$2a                     ; 0x2a <__rc26>
    42c9: a2 03        	ldx	#$3
    42cb: 86 12        	stx	$12                     ; 0x12 <__rc2>
    42cd: 86 2b        	stx	$2b                     ; 0x2b <__rc27>
    42cf: 64 13        	stz	$13                     ; 0x13 <__rc3>
    42d1: 85 15        	sta	$15                     ; 0x15 <__rc5>
    42d3: a2 5f        	ldx	#$5f
    42d5: a9 42        	lda	#$42
    42d7: 20 07 06     	jsr	$607 <FAR_POKEW>
    42da: b2 24        	lda	($24)                   ; 0x24 <__rc20>
    42dc: 85 14        	sta	$14                     ; 0x14 <__rc4>
    42de: a4 2a        	ldy	$2a                     ; 0x2a <__rc26>
    42e0: b1 24        	lda	($24),y                 ; 0x24 <__rc20>
    42e2: a6 2b        	ldx	$2b                     ; 0x2b <__rc27>
    42e4: 86 12        	stx	$12                     ; 0x12 <__rc2>
    42e6: 64 13        	stz	$13                     ; 0x13 <__rc3>
    42e8: 85 15        	sta	$15                     ; 0x15 <__rc5>
    42ea: a2 5f        	ldx	#$5f
    42ec: a9 46        	lda	#$46
    42ee: 20 07 06     	jsr	$607 <FAR_POKEW>
    42f1: b2 26        	lda	($26)                   ; 0x26 <__rc22>
    42f3: 85 14        	sta	$14                     ; 0x14 <__rc4>
    42f5: a4 2a        	ldy	$2a                     ; 0x2a <__rc26>
    42f7: b1 26        	lda	($26),y                 ; 0x26 <__rc22>
    42f9: a6 2b        	ldx	$2b                     ; 0x2b <__rc27>
    42fb: 86 12        	stx	$12                     ; 0x12 <__rc2>
    42fd: 64 13        	stz	$13                     ; 0x13 <__rc3>
    42ff: 85 15        	sta	$15                     ; 0x15 <__rc5>
    4301: a2 5f        	ldx	#$5f
    4303: a9 4a        	lda	#$4a
    4305: 20 07 06     	jsr	$607 <FAR_POKEW>
    4308: b2 26        	lda	($26)                   ; 0x26 <__rc22>
    430a: 85 12        	sta	$12                     ; 0x12 <__rc2>
    430c: a4 2a        	ldy	$2a                     ; 0x2a <__rc26>
    430e: b1 26        	lda	($26),y                 ; 0x26 <__rc22>
    4310: aa           	tax
    4311: a5 12        	lda	$12                     ; 0x12 <__rc2>
    4313: 20 24 2f     	jsr	$2f24 <displayFileList_far>
    4316: a0 20        	ldy	#$20
    4318: b1 10        	lda	($10),y                 ; 0x10 <__zp_data_size>
    431a: 85 12        	sta	$12                     ; 0x12 <__rc2>
    431c: c8           	iny
    431d: b1 10        	lda	($10),y                 ; 0x10 <__zp_data_size>
    431f: 85 13        	sta	$13                     ; 0x13 <__rc3>
    4321: b2 12        	lda	($12)                   ; 0x12 <__rc2>
    4323: a8           	tay
    4324: b2 24        	lda	($24)                   ; 0x24 <__rc20>
    4326: 18           	clc
    4327: 48           	pha
    4328: 5a           	phy
    4329: a0 1e        	ldy	#$1e
    432b: b1 10        	lda	($10),y                 ; 0x10 <__zp_data_size>
    432d: 85 12        	sta	$12                     ; 0x12 <__rc2>
    432f: c8           	iny
    4330: b1 10        	lda	($10),y                 ; 0x10 <__zp_data_size>
    4332: 7a           	ply
    4333: 85 13        	sta	$13                     ; 0x13 <__rc3>
    4335: 68           	pla
    4336: 72 12        	adc	($12)                   ; 0x12 <__rc2>
    4338: aa           	tax
    4339: 98           	tya
    433a: 20 65 1d     	jsr	$1d65 <textGotoXY>
    433d: a9 fa        	lda	#$fa
    433f: 92 10        	sta	($10)                   ; 0x10 <__zp_data_size>
    4341: a9 00        	lda	#$0
    4343: a4 2a        	ldy	$2a                     ; 0x2a <__rc26>
    4345: 91 10        	sta	($10),y                 ; 0x10 <__zp_data_size>
    4347: a0 1c        	ldy	#$1c
    4349: b1 10        	lda	($10),y                 ; 0x10 <__zp_data_size>
    434b: 85 12        	sta	$12                     ; 0x12 <__rc2>
    434d: c8           	iny
    434e: b1 10        	lda	($10),y                 ; 0x10 <__zp_data_size>
    4350: 85 13        	sta	$13                     ; 0x13 <__rc3>
    4352: 20 e5 73     	jsr	$73e5 <printf>
    4355: 4c a7 33     	jmp	$33a7 <pickFile_far+0x36>
    4358: 18           	clc
    4359: a5 10        	lda	$10                     ; 0x10 <__zp_data_size>
    435b: 69 5d        	adc	#$5d
    435d: 85 12        	sta	$12                     ; 0x12 <__rc2>
    435f: a5 11        	lda	$11                     ; 0x11 <__rc1>
    4361: 69 00        	adc	#$0
    4363: 85 13        	sta	$13                     ; 0x13 <__rc3>
    4365: b2 12        	lda	($12)                   ; 0x12 <__rc2>
    4367: 85 20        	sta	$20                     ; 0x20 <__rc16>
    4369: a0 02        	ldy	#$2
    436b: b1 10        	lda	($10),y                 ; 0x10 <__zp_data_size>
    436d: 85 2b        	sta	$2b                     ; 0x2b <__rc27>
    436f: c8           	iny
    4370: b1 10        	lda	($10),y                 ; 0x10 <__zp_data_size>
    4372: 85 2a        	sta	$2a                     ; 0x2a <__rc26>
    4374: c8           	iny
    4375: b1 10        	lda	($10),y                 ; 0x10 <__zp_data_size>
    4377: 85 29        	sta	$29                     ; 0x29 <__rc25>
    4379: c8           	iny
    437a: b1 10        	lda	($10),y                 ; 0x10 <__zp_data_size>
    437c: 85 28        	sta	$28                     ; 0x28 <__rc24>
    437e: fa           	plx
    437f: 86 27        	stx	$27                     ; 0x27 <__rc23>
    4381: fa           	plx
    4382: 86 26        	stx	$26                     ; 0x26 <__rc22>
    4384: fa           	plx
    4385: 86 25        	stx	$25                     ; 0x25 <__rc21>
    4387: fa           	plx
    4388: 86 24        	stx	$24                     ; 0x24 <__rc20>
    438a: 18           	clc
    438b: a5 10        	lda	$10                     ; 0x10 <__zp_data_size>
    438d: 69 5e        	adc	#$5e
    438f: 85 10        	sta	$10                     ; 0x10 <__zp_data_size>
    4391: a5 11        	lda	$11                     ; 0x11 <__rc1>
    4393: 69 00        	adc	#$0
    4395: 85 11        	sta	$11                     ; 0x11 <__rc1>
    4397: a5 20        	lda	$20                     ; 0x20 <__rc16>
    4399: 60           	rts

0000439a <reprepFPR_far>:
    439a: a2 01        	ldx	#$1
    439c: a0 00        	ldy	#$0
    439e: 84 14        	sty	$14                     ; 0x14 <__rc4>
    43a0: 64 17        	stz	$17                     ; 0x17 <__rc7>
    43a2: 86 16        	stx	$16                     ; 0x16 <__rc6>
    43a4: 8a           	txa
    43a5: 0a           	asl
    43a6: a6 17        	ldx	$17                     ; 0x17 <__rc7>
    43a8: 86 12        	stx	$12                     ; 0x12 <__rc2>
    43aa: 26 12        	rol	$12                     ; 0x12 <__rc2>
    43ac: 0a           	asl
    43ad: 26 12        	rol	$12                     ; 0x12 <__rc2>
    43af: 0a           	asl
    43b0: 85 13        	sta	$13                     ; 0x13 <__rc3>
    43b2: 26 12        	rol	$12                     ; 0x12 <__rc2>
    43b4: 0a           	asl
    43b5: aa           	tax
    43b6: a5 12        	lda	$12                     ; 0x12 <__rc2>
    43b8: 2a           	rol
    43b9: 86 15        	stx	$15                     ; 0x15 <__rc5>
    43bb: 06 15        	asl	$15                     ; 0x15 <__rc5>
    43bd: 2a           	rol
    43be: 06 15        	asl	$15                     ; 0x15 <__rc5>
    43c0: 2a           	rol
    43c1: 06 15        	asl	$15                     ; 0x15 <__rc5>
    43c3: 2a           	rol
    43c4: aa           	tax
    43c5: 38           	sec
    43c6: a5 15        	lda	$15                     ; 0x15 <__rc5>
    43c8: e5 13        	sbc	$13                     ; 0x13 <__rc3>
    43ca: 85 1a        	sta	$1a                     ; 0x1a <__rc10>
    43cc: 8a           	txa
    43cd: e5 12        	sbc	$12                     ; 0x12 <__rc2>
    43cf: 85 18        	sta	$18                     ; 0x18 <__rc8>
    43d1: 64 12        	stz	$12                     ; 0x12 <__rc2>
    43d3: a6 14        	ldx	$14                     ; 0x14 <__rc4>
    43d5: 86 19        	stx	$19                     ; 0x19 <__rc9>
    43d7: a5 1a        	lda	$1a                     ; 0x1a <__rc10>
    43d9: a6 19        	ldx	$19                     ; 0x19 <__rc9>
    43db: e0 01        	cpx	#$1
    43dd: 65 12        	adc	$12                     ; 0x12 <__rc2>
    43df: 85 13        	sta	$13                     ; 0x13 <__rc3>
    43e1: a5 18        	lda	$18                     ; 0x18 <__rc8>
    43e3: 69 00        	adc	#$0
    43e5: a8           	tay
    43e6: a9 00        	lda	#$0
    43e8: 69 00        	adc	#$0
    43ea: aa           	tax
    43eb: 18           	clc
    43ec: a5 13        	lda	$13                     ; 0x13 <__rc3>
    43ee: 69 b6        	adc	#$b6
    43f0: 85 14        	sta	$14                     ; 0x14 <__rc4>
    43f2: 98           	tya
    43f3: 69 00        	adc	#$0
    43f5: a8           	tay
    43f6: 8a           	txa
    43f7: 69 03        	adc	#$3
    43f9: 85 15        	sta	$15                     ; 0x15 <__rc5>
    43fb: 98           	tya
    43fc: 84 13        	sty	$13                     ; 0x13 <__rc3>
    43fe: 06 13        	asl	$13                     ; 0x13 <__rc3>
    4400: 26 15        	rol	$15                     ; 0x15 <__rc5>
    4402: 06 13        	asl	$13                     ; 0x13 <__rc3>
    4404: 26 15        	rol	$15                     ; 0x15 <__rc5>
    4406: 06 13        	asl	$13                     ; 0x13 <__rc3>
    4408: 26 15        	rol	$15                     ; 0x15 <__rc5>
    440a: a4 15        	ldy	$15                     ; 0x15 <__rc5>
    440c: a6 0f        	ldx	$f                      ; 0xf
    440e: 78           	sei
    440f: 84 0f        	sty	$f                      ; 0xf
    4411: 09 e0        	ora	#$e0
    4413: 85 15        	sta	$15                     ; 0x15 <__rc5>
    4415: a9 00        	lda	#$0
    4417: 92 14        	sta	($14)                   ; 0x14 <__rc4>
    4419: 86 0f        	stx	$f                      ; 0xf
    441b: 58           	cli
    441c: a6 12        	ldx	$12                     ; 0x12 <__rc2>
    441e: e8           	inx
    441f: 86 12        	stx	$12                     ; 0x12 <__rc2>
    4421: e0 78        	cpx	#$78
    4423: f0 03        	beq	$4428 <reprepFPR_far+0x8e>
    4425: 4c d7 43     	jmp	$43d7 <reprepFPR_far+0x3d>
    4428: a2 00        	ldx	#$0
    442a: 86 14        	stx	$14                     ; 0x14 <__rc4>
    442c: 18           	clc
    442d: a6 16        	ldx	$16                     ; 0x16 <__rc6>
    442f: a5 16        	lda	$16                     ; 0x16 <__rc6>
    4431: 69 76        	adc	#$76
    4433: 85 13        	sta	$13                     ; 0x13 <__rc3>
    4435: a5 17        	lda	$17                     ; 0x17 <__rc7>
    4437: 69 5e        	adc	#$5e
    4439: 85 15        	sta	$15                     ; 0x15 <__rc5>
    443b: a9 00        	lda	#$0
    443d: 69 03        	adc	#$3
    443f: a4 15        	ldy	$15                     ; 0x15 <__rc5>
    4441: 84 12        	sty	$12                     ; 0x12 <__rc2>
    4443: 06 12        	asl	$12                     ; 0x12 <__rc2>
    4445: 2a           	rol
    4446: 06 12        	asl	$12                     ; 0x12 <__rc2>
    4448: 2a           	rol
    4449: 06 12        	asl	$12                     ; 0x12 <__rc2>
    444b: 2a           	rol
    444c: a4 0f        	ldy	$f                      ; 0xf
    444e: 78           	sei
    444f: 85 0f        	sta	$f                      ; 0xf
    4451: a5 13        	lda	$13                     ; 0x13 <__rc3>
    4453: 85 12        	sta	$12                     ; 0x12 <__rc2>
    4455: a5 15        	lda	$15                     ; 0x15 <__rc5>
    4457: 09 e0        	ora	#$e0
    4459: 85 13        	sta	$13                     ; 0x13 <__rc3>
    445b: a9 00        	lda	#$0
    445d: 92 12        	sta	($12)                   ; 0x12 <__rc2>
    445f: 84 0f        	sty	$f                      ; 0xf
    4461: 58           	cli
    4462: e8           	inx
    4463: d0 02        	bne	$4467 <reprepFPR_far+0xcd>
    4465: e6 17        	inc	$17                     ; 0x17 <__rc7>
    4467: a5 17        	lda	$17                     ; 0x17 <__rc7>
    4469: f0 03        	beq	$446e <reprepFPR_far+0xd4>
    446b: 4c a2 43     	jmp	$43a2 <reprepFPR_far+0x8>
    446e: e0 c8        	cpx	#$c8
    4470: f0 03        	beq	$4475 <reprepFPR_far+0xdb>
    4472: 4c a2 43     	jmp	$43a2 <reprepFPR_far+0x8>
    4475: a4 0f        	ldy	$f                      ; 0xf
    4477: 78           	sei
    4478: a2 1a        	ldx	#$1a
    447a: 86 0f        	stx	$f                      ; 0xf
    447c: 9c 3e ff     	stz	$ff3e                   ; 0xff3e <end_block9+0x76b4>
    447f: 9c 3f ff     	stz	$ff3f                   ; 0xff3f <end_block9+0x76b5>
    4482: 84 0f        	sty	$f                      ; 0xf
    4484: 58           	cli
    4485: a4 0f        	ldy	$f                      ; 0xf
    4487: 78           	sei
    4488: 86 0f        	stx	$f                      ; 0xf
    448a: 9c 42 ff     	stz	$ff42                   ; 0xff42 <end_block9+0x76b8>
    448d: 9c 43 ff     	stz	$ff43                   ; 0xff43 <end_block9+0x76b9>
    4490: 84 0f        	sty	$f                      ; 0xf
    4492: 58           	cli
    4493: a4 0f        	ldy	$f                      ; 0xf
    4495: 78           	sei
    4496: 86 0f        	stx	$f                      ; 0xf
    4498: 9c 4a ff     	stz	$ff4a                   ; 0xff4a <end_block9+0x76c0>
    449b: 9c 4b ff     	stz	$ff4b                   ; 0xff4b <end_block9+0x76c1>
    449e: 84 0f        	sty	$f                      ; 0xf
    44a0: 58           	cli
    44a1: a4 0f        	ldy	$f                      ; 0xf
    44a3: 78           	sei
    44a4: 86 0f        	stx	$f                      ; 0xf
    44a6: 9c 46 ff     	stz	$ff46                   ; 0xff46 <end_block9+0x76bc>
    44a9: 9c 47 ff     	stz	$ff47                   ; 0xff47 <end_block9+0x76bd>
    44ac: 84 0f        	sty	$f                      ; 0xf
    44ae: 58           	cli
    44af: 60           	rts

000044b0 <wipeArea_far>:
    44b0: 18           	clc
    44b1: a5 10        	lda	$10                     ; 0x10 <__zp_data_size>
    44b3: 69 ff        	adc	#$ff
    44b5: 85 10        	sta	$10                     ; 0x10 <__zp_data_size>
    44b7: a5 11        	lda	$11                     ; 0x11 <__rc1>
    44b9: 69 ff        	adc	#$ff
    44bb: 85 11        	sta	$11                     ; 0x11 <__rc1>
    44bd: a6 24        	ldx	$24                     ; 0x24 <__rc20>
    44bf: da           	phx
    44c0: a6 25        	ldx	$25                     ; 0x25 <__rc21>
    44c2: da           	phx
    44c3: a6 26        	ldx	$26                     ; 0x26 <__rc22>
    44c5: da           	phx
    44c6: a6 27        	ldx	$27                     ; 0x27 <__rc23>
    44c8: da           	phx
    44c9: a5 28        	lda	$28                     ; 0x28 <__rc24>
    44cb: a0 00        	ldy	#$0
    44cd: 91 10        	sta	($10),y                 ; 0x10 <__zp_data_size>
    44cf: a6 0f        	ldx	$f                      ; 0xf
    44d1: 78           	sei
    44d2: a0 18        	ldy	#$18
    44d4: 84 0f        	sty	$f                      ; 0xf
    44d6: ac 01 e0     	ldy	$e001                   ; 0xe001 <end_block9+0x5777>
    44d9: 86 0f        	stx	$f                      ; 0xf
    44db: 58           	cli
    44dc: 18           	clc
    44dd: 98           	tya
    44de: 69 b0        	adc	#$b0
    44e0: 85 25        	sta	$25                     ; 0x25 <__rc21>
    44e2: a2 00        	ldx	#$0
    44e4: c0 50        	cpy	#$50
    44e6: a0 01        	ldy	#$1
    44e8: b0 02        	bcs	$44ec <wipeArea_far+0x3c>
    44ea: a0 00        	ldy	#$0
    44ec: 84 27        	sty	$27                     ; 0x27 <__rc23>
    44ee: a0 20        	ldy	#$20
    44f0: 84 28        	sty	$28                     ; 0x28 <__rc24>
    44f2: 86 26        	stx	$26                     ; 0x26 <__rc22>
    44f4: a6 25        	ldx	$25                     ; 0x25 <__rc21>
    44f6: 86 24        	stx	$24                     ; 0x24 <__rc20>
    44f8: a5 27        	lda	$27                     ; 0x27 <__rc23>
    44fa: d0 13        	bne	$450f <wipeArea_far+0x5f>
    44fc: a6 28        	ldx	$28                     ; 0x28 <__rc24>
    44fe: 86 42        	stx	$42                     ; 0x42 <__putchar.s>
    4500: a2 42        	ldx	#$42
    4502: 86 12        	stx	$12                     ; 0x12 <__rc2>
    4504: a2 00        	ldx	#$0
    4506: 86 13        	stx	$13                     ; 0x13 <__rc3>
    4508: 20 97 1b     	jsr	$1b97 <textPrint>
    450b: e6 24        	inc	$24                     ; 0x24 <__rc20>
    450d: d0 ed        	bne	$44fc <wipeArea_far+0x4c>
    450f: a2 20        	ldx	#$20
    4511: 86 28        	stx	$28                     ; 0x28 <__rc24>
    4513: a2 0a        	ldx	#$a
    4515: 86 42        	stx	$42                     ; 0x42 <__putchar.s>
    4517: a2 42        	ldx	#$42
    4519: 86 12        	stx	$12                     ; 0x12 <__rc2>
    451b: a2 00        	ldx	#$0
    451d: 86 13        	stx	$13                     ; 0x13 <__rc3>
    451f: 20 97 1b     	jsr	$1b97 <textPrint>
    4522: a6 26        	ldx	$26                     ; 0x26 <__rc22>
    4524: e8           	inx
    4525: e0 11        	cpx	#$11
    4527: d0 c9        	bne	$44f2 <wipeArea_far+0x42>
    4529: a0 00        	ldy	#$0
    452b: b1 10        	lda	($10),y                 ; 0x10 <__zp_data_size>
    452d: 85 28        	sta	$28                     ; 0x28 <__rc24>
    452f: fa           	plx
    4530: 86 27        	stx	$27                     ; 0x27 <__rc23>
    4532: fa           	plx
    4533: 86 26        	stx	$26                     ; 0x26 <__rc22>
    4535: fa           	plx
    4536: 86 25        	stx	$25                     ; 0x25 <__rc21>
    4538: fa           	plx
    4539: 86 24        	stx	$24                     ; 0x24 <__rc20>
    453b: 18           	clc
    453c: a5 10        	lda	$10                     ; 0x10 <__zp_data_size>
    453e: 69 01        	adc	#$1
    4540: 85 10        	sta	$10                     ; 0x10 <__zp_data_size>
    4542: a5 11        	lda	$11                     ; 0x11 <__rc1>
    4544: 69 00        	adc	#$0
    4546: 85 11        	sta	$11                     ; 0x11 <__rc1>
    4548: 60           	rts

00004549 <displayImage>:
    4549: 18           	clc
    454a: a5 10        	lda	$10                     ; 0x10 <__zp_data_size>
    454c: 69 e9        	adc	#$e9
    454e: 85 10        	sta	$10                     ; 0x10 <__zp_data_size>
    4550: a5 11        	lda	$11                     ; 0x11 <__rc1>
    4552: 69 ff        	adc	#$ff
    4554: 85 11        	sta	$11                     ; 0x11 <__rc1>
    4556: a6 24        	ldx	$24                     ; 0x24 <__rc20>
    4558: da           	phx
    4559: a6 25        	ldx	$25                     ; 0x25 <__rc21>
    455b: da           	phx
    455c: a6 26        	ldx	$26                     ; 0x26 <__rc22>
    455e: da           	phx
    455f: 18           	clc
    4560: a5 10        	lda	$10                     ; 0x10 <__zp_data_size>
    4562: 69 13        	adc	#$13
    4564: 85 12        	sta	$12                     ; 0x12 <__rc2>
    4566: a5 11        	lda	$11                     ; 0x11 <__rc1>
    4568: 69 00        	adc	#$0
    456a: 85 13        	sta	$13                     ; 0x13 <__rc3>
    456c: a0 02        	ldy	#$2
    456e: a2 03        	ldx	#$3
    4570: 8a           	txa
    4571: 91 12        	sta	($12),y                 ; 0x12 <__rc2>
    4573: 18           	clc
    4574: a5 10        	lda	$10                     ; 0x10 <__zp_data_size>
    4576: 69 12        	adc	#$12
    4578: 85 24        	sta	$24                     ; 0x24 <__rc20>
    457a: a5 11        	lda	$11                     ; 0x11 <__rc1>
    457c: 69 00        	adc	#$0
    457e: 85 25        	sta	$25                     ; 0x25 <__rc21>
    4580: 98           	tya
    4581: 92 24        	sta	($24)                   ; 0x24 <__rc20>
    4583: 18           	clc
    4584: a5 10        	lda	$10                     ; 0x10 <__zp_data_size>
    4586: 69 06        	adc	#$6
    4588: 85 14        	sta	$14                     ; 0x14 <__rc4>
    458a: a5 11        	lda	$11                     ; 0x11 <__rc1>
    458c: 69 00        	adc	#$0
    458e: 85 15        	sta	$15                     ; 0x15 <__rc5>
    4590: a9 00        	lda	#$0
    4592: 91 14        	sta	($14),y                 ; 0x14 <__rc4>
    4594: a9 00        	lda	#$0
    4596: 92 12        	sta	($12)                   ; 0x12 <__rc2>
    4598: c8           	iny
    4599: 91 12        	sta	($12),y                 ; 0x12 <__rc2>
    459b: a0 03        	ldy	#$3
    459d: a9 00        	lda	#$0
    459f: 91 14        	sta	($14),y                 ; 0x14 <__rc4>
    45a1: a0 01        	ldy	#$1
    45a3: a9 00        	lda	#$0
    45a5: 91 12        	sta	($12),y                 ; 0x12 <__rc2>
    45a7: a9 00        	lda	#$0
    45a9: 92 14        	sta	($14)                   ; 0x14 <__rc4>
    45ab: a9 00        	lda	#$0
    45ad: 91 14        	sta	($14),y                 ; 0x14 <__rc4>
    45af: a2 01        	ldx	#$1
    45b1: 86 26        	stx	$26                     ; 0x26 <__rc22>
    45b3: b2 24        	lda	($24)                   ; 0x24 <__rc20>
    45b5: 85 12        	sta	$12                     ; 0x12 <__rc2>
    45b7: a9 f0        	lda	#$f0
    45b9: 64 13        	stz	$13                     ; 0x13 <__rc3>
    45bb: ca           	dex
    45bc: 20 10 79     	jsr	$7910 <__udivhi3>
    45bf: 18           	clc
    45c0: 48           	pha
    45c1: a5 10        	lda	$10                     ; 0x10 <__zp_data_size>
    45c3: 69 05        	adc	#$5
    45c5: 85 12        	sta	$12                     ; 0x12 <__rc2>
    45c7: a5 11        	lda	$11                     ; 0x11 <__rc1>
    45c9: 69 00        	adc	#$0
    45cb: 85 13        	sta	$13                     ; 0x13 <__rc3>
    45cd: 68           	pla
    45ce: 92 12        	sta	($12)                   ; 0x12 <__rc2>
    45d0: b2 24        	lda	($24)                   ; 0x24 <__rc20>
    45d2: 0a           	asl
    45d3: 18           	clc
    45d4: 48           	pha
    45d5: a5 10        	lda	$10                     ; 0x10 <__zp_data_size>
    45d7: 69 04        	adc	#$4
    45d9: 85 12        	sta	$12                     ; 0x12 <__rc2>
    45db: a5 11        	lda	$11                     ; 0x11 <__rc1>
    45dd: 69 00        	adc	#$0
    45df: 85 13        	sta	$13                     ; 0x13 <__rc3>
    45e1: 68           	pla
    45e2: 92 12        	sta	($12)                   ; 0x12 <__rc2>
    45e4: 18           	clc
    45e5: a5 10        	lda	$10                     ; 0x10 <__zp_data_size>
    45e7: 69 03        	adc	#$3
    45e9: 85 12        	sta	$12                     ; 0x12 <__rc2>
    45eb: a5 11        	lda	$11                     ; 0x11 <__rc1>
    45ed: 69 00        	adc	#$0
    45ef: 85 13        	sta	$13                     ; 0x13 <__rc3>
    45f1: a9 00        	lda	#$0
    45f3: 92 12        	sta	($12)                   ; 0x12 <__rc2>
    45f5: 18           	clc
    45f6: 48           	pha
    45f7: a5 10        	lda	$10                     ; 0x10 <__zp_data_size>
    45f9: 69 02        	adc	#$2
    45fb: 85 12        	sta	$12                     ; 0x12 <__rc2>
    45fd: a5 11        	lda	$11                     ; 0x11 <__rc1>
    45ff: 69 00        	adc	#$0
    4601: 85 13        	sta	$13                     ; 0x13 <__rc3>
    4603: 68           	pla
    4604: 92 12        	sta	($12)                   ; 0x12 <__rc2>
    4606: 18           	clc
    4607: a6 10        	ldx	$10                     ; 0x10 <__zp_data_size>
    4609: 86 12        	stx	$12                     ; 0x12 <__rc2>
    460b: a6 11        	ldx	$11                     ; 0x11 <__rc1>
    460d: 86 13        	stx	$13                     ; 0x13 <__rc3>
    460f: 92 12        	sta	($12)                   ; 0x12 <__rc2>
    4611: a4 26        	ldy	$26                     ; 0x26 <__rc22>
    4613: 91 12        	sta	($12),y                 ; 0x12 <__rc2>
    4615: b2 24        	lda	($24)                   ; 0x24 <__rc20>
    4617: c9 02        	cmp	#$2
    4619: f0 02        	beq	$461d <displayImage+0xd4>
    461b: 80 02        	bra	$461f <displayImage+0xd6>
    461d: 80 02        	bra	$4621 <displayImage+0xd8>
    461f: 80 13        	bra	$4634 <displayImage+0xeb>
    4621: 80 00        	bra	$4623 <displayImage+0xda>
    4623: 18           	clc
    4624: a5 10        	lda	$10                     ; 0x10 <__zp_data_size>
    4626: 69 03        	adc	#$3
    4628: 85 12        	sta	$12                     ; 0x12 <__rc2>
    462a: a5 11        	lda	$11                     ; 0x11 <__rc1>
    462c: 69 00        	adc	#$0
    462e: 85 13        	sta	$13                     ; 0x13 <__rc3>
    4630: a9 01        	lda	#$1
    4632: 92 12        	sta	($12)                   ; 0x12 <__rc2>
    4634: 18           	clc
    4635: a5 10        	lda	$10                     ; 0x10 <__zp_data_size>
    4637: 69 12        	adc	#$12
    4639: 85 12        	sta	$12                     ; 0x12 <__rc2>
    463b: a5 11        	lda	$11                     ; 0x11 <__rc1>
    463d: 69 00        	adc	#$0
    463f: 85 13        	sta	$13                     ; 0x13 <__rc3>
    4641: b2 12        	lda	($12)                   ; 0x12 <__rc2>
    4643: c9 04        	cmp	#$4
    4645: f0 02        	beq	$4649 <displayImage+0x100>
    4647: 80 02        	bra	$464b <displayImage+0x102>
    4649: 80 02        	bra	$464d <displayImage+0x104>
    464b: 80 24        	bra	$4671 <displayImage+0x128>
    464d: 80 00        	bra	$464f <displayImage+0x106>
    464f: 18           	clc
    4650: a5 10        	lda	$10                     ; 0x10 <__zp_data_size>
    4652: 69 03        	adc	#$3
    4654: 85 12        	sta	$12                     ; 0x12 <__rc2>
    4656: a5 11        	lda	$11                     ; 0x11 <__rc1>
    4658: 69 00        	adc	#$0
    465a: 85 13        	sta	$13                     ; 0x13 <__rc3>
    465c: a9 01        	lda	#$1
    465e: 92 12        	sta	($12)                   ; 0x12 <__rc2>
    4660: 18           	clc
    4661: 48           	pha
    4662: a5 10        	lda	$10                     ; 0x10 <__zp_data_size>
    4664: 69 02        	adc	#$2
    4666: 85 12        	sta	$12                     ; 0x12 <__rc2>
    4668: a5 11        	lda	$11                     ; 0x11 <__rc1>
    466a: 69 00        	adc	#$0
    466c: 85 13        	sta	$13                     ; 0x13 <__rc3>
    466e: 68           	pla
    466f: 92 12        	sta	($12)                   ; 0x12 <__rc2>
    4671: a2 2a        	ldx	#$2a
    4673: 8e 40 dd     	stx	$dd40                   ; 0xdd40 <end_block9+0x54b6>
    4676: 9c 41 dd     	stz	$dd41                   ; 0xdd41 <end_block9+0x54b7>
    4679: 9c 41 dd     	stz	$dd41                   ; 0xdd41 <end_block9+0x54b7>
    467c: 9c 41 dd     	stz	$dd41                   ; 0xdd41 <end_block9+0x54b7>
    467f: a2 ef        	ldx	#$ef
    4681: 8e 41 dd     	stx	$dd41                   ; 0xdd41 <end_block9+0x54b7>
    4684: a2 2b        	ldx	#$2b
    4686: 8e 40 dd     	stx	$dd40                   ; 0xdd40 <end_block9+0x54b6>
    4689: 9c 41 dd     	stz	$dd41                   ; 0xdd41 <end_block9+0x54b7>
    468c: a2 14        	ldx	#$14
    468e: 8e 41 dd     	stx	$dd41                   ; 0xdd41 <end_block9+0x54b7>
    4691: a2 01        	ldx	#$1
    4693: 8e 41 dd     	stx	$dd41                   ; 0xdd41 <end_block9+0x54b7>
    4696: a2 3f        	ldx	#$3f
    4698: 8e 41 dd     	stx	$dd41                   ; 0xdd41 <end_block9+0x54b7>
    469b: a2 2c        	ldx	#$2c
    469d: 8e 40 dd     	stx	$dd40                   ; 0xdd40 <end_block9+0x54b6>
    46a0: a9 00        	lda	#$0
    46a2: 18           	clc
    46a3: 48           	pha
    46a4: a5 10        	lda	$10                     ; 0x10 <__zp_data_size>
    46a6: 69 0a        	adc	#$a
    46a8: 85 12        	sta	$12                     ; 0x12 <__rc2>
    46aa: a5 11        	lda	$11                     ; 0x11 <__rc1>
    46ac: 69 00        	adc	#$0
    46ae: 85 13        	sta	$13                     ; 0x13 <__rc3>
    46b0: 68           	pla
    46b1: 92 12        	sta	($12)                   ; 0x12 <__rc2>
    46b3: a0 01        	ldy	#$1
    46b5: 91 12        	sta	($12),y                 ; 0x12 <__rc2>
    46b7: c8           	iny
    46b8: 91 12        	sta	($12),y                 ; 0x12 <__rc2>
    46ba: c8           	iny
    46bb: 91 12        	sta	($12),y                 ; 0x12 <__rc2>
    46bd: 18           	clc
    46be: a5 10        	lda	$10                     ; 0x10 <__zp_data_size>
    46c0: 69 0a        	adc	#$a
    46c2: 85 12        	sta	$12                     ; 0x12 <__rc2>
    46c4: a5 11        	lda	$11                     ; 0x11 <__rc1>
    46c6: 69 00        	adc	#$0
    46c8: 85 13        	sta	$13                     ; 0x13 <__rc3>
    46ca: b2 12        	lda	($12)                   ; 0x12 <__rc2>
    46cc: 85 14        	sta	$14                     ; 0x14 <__rc4>
    46ce: a0 01        	ldy	#$1
    46d0: b1 12        	lda	($12),y                 ; 0x12 <__rc2>
    46d2: 85 15        	sta	$15                     ; 0x15 <__rc5>
    46d4: c8           	iny
    46d5: b1 12        	lda	($12),y                 ; 0x12 <__rc2>
    46d7: 85 16        	sta	$16                     ; 0x16 <__rc6>
    46d9: c8           	iny
    46da: b1 12        	lda	($12),y                 ; 0x12 <__rc2>
    46dc: c9 00        	cmp	#$0
    46de: a2 01        	ldx	#$1
    46e0: b0 02        	bcs	$46e4 <displayImage+0x19b>
    46e2: a2 00        	ldx	#$0
    46e4: 86 12        	stx	$12                     ; 0x12 <__rc2>
    46e6: aa           	tax
    46e7: f0 02        	beq	$46eb <displayImage+0x1a2>
    46e9: 80 3e        	bra	$4729 <displayImage+0x1e0>
    46eb: a6 16        	ldx	$16                     ; 0x16 <__rc6>
    46ed: e0 00        	cpx	#$0
    46ef: a0 01        	ldy	#$1
    46f1: b0 02        	bcs	$46f5 <displayImage+0x1ac>
    46f3: a0 00        	ldy	#$0
    46f5: 84 12        	sty	$12                     ; 0x12 <__rc2>
    46f7: 8a           	txa
    46f8: f0 02        	beq	$46fc <displayImage+0x1b3>
    46fa: 80 24        	bra	$4720 <displayImage+0x1d7>
    46fc: a6 15        	ldx	$15                     ; 0x15 <__rc5>
    46fe: e0 01        	cpx	#$1
    4700: a0 01        	ldy	#$1
    4702: b0 02        	bcs	$4706 <displayImage+0x1bd>
    4704: a0 00        	ldy	#$0
    4706: 84 12        	sty	$12                     ; 0x12 <__rc2>
    4708: e0 01        	cpx	#$1
    470a: f0 02        	beq	$470e <displayImage+0x1c5>
    470c: 80 09        	bra	$4717 <displayImage+0x1ce>
    470e: a6 14        	ldx	$14                     ; 0x14 <__rc4>
    4710: e0 18        	cpx	#$18
    4712: 90 0a        	bcc	$471e <displayImage+0x1d5>
    4714: 4c d9 49     	jmp	$49d9 <displayImage+0x490>
    4717: a5 12        	lda	$12                     ; 0x12 <__rc2>
    4719: f0 03        	beq	$471e <displayImage+0x1d5>
    471b: 4c d9 49     	jmp	$49d9 <displayImage+0x490>
    471e: 80 07        	bra	$4727 <displayImage+0x1de>
    4720: a5 12        	lda	$12                     ; 0x12 <__rc2>
    4722: f0 03        	beq	$4727 <displayImage+0x1de>
    4724: 4c d9 49     	jmp	$49d9 <displayImage+0x490>
    4727: 80 07        	bra	$4730 <displayImage+0x1e7>
    4729: a5 12        	lda	$12                     ; 0x12 <__rc2>
    472b: f0 03        	beq	$4730 <displayImage+0x1e7>
    472d: 4c d9 49     	jmp	$49d9 <displayImage+0x490>
    4730: 80 00        	bra	$4732 <displayImage+0x1e9>
    4732: a9 00        	lda	#$0
    4734: 18           	clc
    4735: 48           	pha
    4736: a5 10        	lda	$10                     ; 0x10 <__zp_data_size>
    4738: 69 0e        	adc	#$e
    473a: 85 12        	sta	$12                     ; 0x12 <__rc2>
    473c: a5 11        	lda	$11                     ; 0x11 <__rc1>
    473e: 69 00        	adc	#$0
    4740: 85 13        	sta	$13                     ; 0x13 <__rc3>
    4742: 68           	pla
    4743: 92 12        	sta	($12)                   ; 0x12 <__rc2>
    4745: a0 01        	ldy	#$1
    4747: 91 12        	sta	($12),y                 ; 0x12 <__rc2>
    4749: c8           	iny
    474a: 91 12        	sta	($12),y                 ; 0x12 <__rc2>
    474c: c8           	iny
    474d: 91 12        	sta	($12),y                 ; 0x12 <__rc2>
    474f: 18           	clc
    4750: a5 10        	lda	$10                     ; 0x10 <__zp_data_size>
    4752: 69 0e        	adc	#$e
    4754: 85 12        	sta	$12                     ; 0x12 <__rc2>
    4756: a5 11        	lda	$11                     ; 0x11 <__rc1>
    4758: 69 00        	adc	#$0
    475a: 85 13        	sta	$13                     ; 0x13 <__rc3>
    475c: b2 12        	lda	($12)                   ; 0x12 <__rc2>
    475e: 85 14        	sta	$14                     ; 0x14 <__rc4>
    4760: a0 01        	ldy	#$1
    4762: b1 12        	lda	($12),y                 ; 0x12 <__rc2>
    4764: 85 15        	sta	$15                     ; 0x15 <__rc5>
    4766: c8           	iny
    4767: b1 12        	lda	($12),y                 ; 0x12 <__rc2>
    4769: 85 16        	sta	$16                     ; 0x16 <__rc6>
    476b: c8           	iny
    476c: b1 12        	lda	($12),y                 ; 0x12 <__rc2>
    476e: aa           	tax
    476f: 18           	clc
    4770: a5 10        	lda	$10                     ; 0x10 <__zp_data_size>
    4772: 69 05        	adc	#$5
    4774: 85 12        	sta	$12                     ; 0x12 <__rc2>
    4776: a5 11        	lda	$11                     ; 0x11 <__rc1>
    4778: 69 00        	adc	#$0
    477a: 85 13        	sta	$13                     ; 0x13 <__rc3>
    477c: b2 12        	lda	($12)                   ; 0x12 <__rc2>
    477e: 85 12        	sta	$12                     ; 0x12 <__rc2>
    4780: e0 00        	cpx	#$0
    4782: a0 01        	ldy	#$1
    4784: b0 02        	bcs	$4788 <displayImage+0x23f>
    4786: a0 00        	ldy	#$0
    4788: 84 13        	sty	$13                     ; 0x13 <__rc3>
    478a: 8a           	txa
    478b: f0 02        	beq	$478f <displayImage+0x246>
    478d: 80 3d        	bra	$47cc <displayImage+0x283>
    478f: a6 16        	ldx	$16                     ; 0x16 <__rc6>
    4791: e0 00        	cpx	#$0
    4793: a0 01        	ldy	#$1
    4795: b0 02        	bcs	$4799 <displayImage+0x250>
    4797: a0 00        	ldy	#$0
    4799: 84 13        	sty	$13                     ; 0x13 <__rc3>
    479b: 8a           	txa
    479c: f0 02        	beq	$47a0 <displayImage+0x257>
    479e: 80 23        	bra	$47c3 <displayImage+0x27a>
    47a0: a6 15        	ldx	$15                     ; 0x15 <__rc5>
    47a2: e0 00        	cpx	#$0
    47a4: a0 01        	ldy	#$1
    47a6: b0 02        	bcs	$47aa <displayImage+0x261>
    47a8: a0 00        	ldy	#$0
    47aa: 84 13        	sty	$13                     ; 0x13 <__rc3>
    47ac: 8a           	txa
    47ad: f0 02        	beq	$47b1 <displayImage+0x268>
    47af: 80 09        	bra	$47ba <displayImage+0x271>
    47b1: a6 14        	ldx	$14                     ; 0x14 <__rc4>
    47b3: e4 12        	cpx	$12                     ; 0x12 <__rc2>
    47b5: 90 0a        	bcc	$47c1 <displayImage+0x278>
    47b7: 4c 76 49     	jmp	$4976 <displayImage+0x42d>
    47ba: a5 13        	lda	$13                     ; 0x13 <__rc3>
    47bc: f0 03        	beq	$47c1 <displayImage+0x278>
    47be: 4c 76 49     	jmp	$4976 <displayImage+0x42d>
    47c1: 80 07        	bra	$47ca <displayImage+0x281>
    47c3: a5 13        	lda	$13                     ; 0x13 <__rc3>
    47c5: f0 03        	beq	$47ca <displayImage+0x281>
    47c7: 4c 76 49     	jmp	$4976 <displayImage+0x42d>
    47ca: 80 07        	bra	$47d3 <displayImage+0x28a>
    47cc: a5 13        	lda	$13                     ; 0x13 <__rc3>
    47ce: f0 03        	beq	$47d3 <displayImage+0x28a>
    47d0: 4c 76 49     	jmp	$4976 <displayImage+0x42d>
    47d3: 80 00        	bra	$47d5 <displayImage+0x28c>
    47d5: 18           	clc
    47d6: a5 10        	lda	$10                     ; 0x10 <__zp_data_size>
    47d8: 69 13        	adc	#$13
    47da: 85 12        	sta	$12                     ; 0x12 <__rc2>
    47dc: a5 11        	lda	$11                     ; 0x11 <__rc1>
    47de: 69 00        	adc	#$0
    47e0: 85 13        	sta	$13                     ; 0x13 <__rc3>
    47e2: 18           	clc
    47e3: a5 10        	lda	$10                     ; 0x10 <__zp_data_size>
    47e5: 69 06        	adc	#$6
    47e7: 85 14        	sta	$14                     ; 0x14 <__rc4>
    47e9: a5 11        	lda	$11                     ; 0x11 <__rc1>
    47eb: 69 00        	adc	#$0
    47ed: 85 15        	sta	$15                     ; 0x15 <__rc5>
    47ef: b2 14        	lda	($14)                   ; 0x14 <__rc4>
    47f1: 85 16        	sta	$16                     ; 0x16 <__rc6>
    47f3: a0 01        	ldy	#$1
    47f5: b1 14        	lda	($14),y                 ; 0x14 <__rc4>
    47f7: 85 1b        	sta	$1b                     ; 0x1b <__rc11>
    47f9: a2 01        	ldx	#$1
    47fb: 86 1c        	stx	$1c                     ; 0x1c <__rc12>
    47fd: c8           	iny
    47fe: b1 14        	lda	($14),y                 ; 0x14 <__rc4>
    4800: 85 17        	sta	$17                     ; 0x17 <__rc7>
    4802: e8           	inx
    4803: 86 19        	stx	$19                     ; 0x19 <__rc9>
    4805: c8           	iny
    4806: b1 14        	lda	($14),y                 ; 0x14 <__rc4>
    4808: 85 18        	sta	$18                     ; 0x18 <__rc8>
    480a: e8           	inx
    480b: 86 1a        	stx	$1a                     ; 0x1a <__rc10>
    480d: 18           	clc
    480e: a5 16        	lda	$16                     ; 0x16 <__rc6>
    4810: 72 12        	adc	($12)                   ; 0x12 <__rc2>
    4812: 85 14        	sta	$14                     ; 0x14 <__rc4>
    4814: a5 1b        	lda	$1b                     ; 0x1b <__rc11>
    4816: a4 1c        	ldy	$1c                     ; 0x1c <__rc12>
    4818: 71 12        	adc	($12),y                 ; 0x12 <__rc2>
    481a: 85 15        	sta	$15                     ; 0x15 <__rc5>
    481c: a5 17        	lda	$17                     ; 0x17 <__rc7>
    481e: a4 19        	ldy	$19                     ; 0x19 <__rc9>
    4820: 71 12        	adc	($12),y                 ; 0x12 <__rc2>
    4822: aa           	tax
    4823: a5 18        	lda	$18                     ; 0x18 <__rc8>
    4825: a4 1a        	ldy	$1a                     ; 0x1a <__rc10>
    4827: 71 12        	adc	($12),y                 ; 0x12 <__rc2>
    4829: 86 12        	stx	$12                     ; 0x12 <__rc2>
    482b: 85 13        	sta	$13                     ; 0x13 <__rc3>
    482d: a6 15        	ldx	$15                     ; 0x15 <__rc5>
    482f: a5 14        	lda	$14                     ; 0x14 <__rc4>
    4831: 20 ba 05     	jsr	$5ba <FAR_PEEKW>
    4834: 18           	clc
    4835: a4 10        	ldy	$10                     ; 0x10 <__zp_data_size>
    4837: 84 12        	sty	$12                     ; 0x12 <__rc2>
    4839: a4 11        	ldy	$11                     ; 0x11 <__rc1>
    483b: 84 13        	sty	$13                     ; 0x13 <__rc3>
    483d: 92 12        	sta	($12)                   ; 0x12 <__rc2>
    483f: a0 01        	ldy	#$1
    4841: 8a           	txa
    4842: 91 12        	sta	($12),y                 ; 0x12 <__rc2>
    4844: b2 12        	lda	($12)                   ; 0x12 <__rc2>
    4846: 85 14        	sta	$14                     ; 0x14 <__rc4>
    4848: b1 12        	lda	($12),y                 ; 0x12 <__rc2>
    484a: a6 14        	ldx	$14                     ; 0x14 <__rc4>
    484c: 8e 42 dd     	stx	$dd42                   ; 0xdd42 <end_block9+0x54b8>
    484f: 8d 43 dd     	sta	$dd43                   ; 0xdd43 <end_block9+0x54b9>
    4852: 18           	clc
    4853: a5 10        	lda	$10                     ; 0x10 <__zp_data_size>
    4855: 69 03        	adc	#$3
    4857: 85 12        	sta	$12                     ; 0x12 <__rc2>
    4859: a5 11        	lda	$11                     ; 0x11 <__rc1>
    485b: 69 00        	adc	#$0
    485d: 85 13        	sta	$13                     ; 0x13 <__rc3>
    485f: b2 12        	lda	($12)                   ; 0x12 <__rc2>
    4861: f0 1b        	beq	$487e <displayImage+0x335>
    4863: 80 00        	bra	$4865 <displayImage+0x31c>
    4865: 18           	clc
    4866: a6 10        	ldx	$10                     ; 0x10 <__zp_data_size>
    4868: 86 12        	stx	$12                     ; 0x12 <__rc2>
    486a: a6 11        	ldx	$11                     ; 0x11 <__rc1>
    486c: 86 13        	stx	$13                     ; 0x13 <__rc3>
    486e: b2 12        	lda	($12)                   ; 0x12 <__rc2>
    4870: 85 14        	sta	$14                     ; 0x14 <__rc4>
    4872: a0 01        	ldy	#$1
    4874: b1 12        	lda	($12),y                 ; 0x12 <__rc2>
    4876: a6 14        	ldx	$14                     ; 0x14 <__rc4>
    4878: 8e 42 dd     	stx	$dd42                   ; 0xdd42 <end_block9+0x54b8>
    487b: 8d 43 dd     	sta	$dd43                   ; 0xdd43 <end_block9+0x54b9>
    487e: 18           	clc
    487f: a5 10        	lda	$10                     ; 0x10 <__zp_data_size>
    4881: 69 02        	adc	#$2
    4883: 85 12        	sta	$12                     ; 0x12 <__rc2>
    4885: a5 11        	lda	$11                     ; 0x11 <__rc1>
    4887: 69 00        	adc	#$0
    4889: 85 13        	sta	$13                     ; 0x13 <__rc3>
    488b: b2 12        	lda	($12)                   ; 0x12 <__rc2>
    488d: f0 29        	beq	$48b8 <displayImage+0x36f>
    488f: 80 00        	bra	$4891 <displayImage+0x348>
    4891: 18           	clc
    4892: a6 10        	ldx	$10                     ; 0x10 <__zp_data_size>
    4894: 86 12        	stx	$12                     ; 0x12 <__rc2>
    4896: a6 11        	ldx	$11                     ; 0x11 <__rc1>
    4898: 86 13        	stx	$13                     ; 0x13 <__rc3>
    489a: b2 12        	lda	($12)                   ; 0x12 <__rc2>
    489c: 85 14        	sta	$14                     ; 0x14 <__rc4>
    489e: a0 01        	ldy	#$1
    48a0: b1 12        	lda	($12),y                 ; 0x12 <__rc2>
    48a2: a6 14        	ldx	$14                     ; 0x14 <__rc4>
    48a4: 8e 42 dd     	stx	$dd42                   ; 0xdd42 <end_block9+0x54b8>
    48a7: 8d 43 dd     	sta	$dd43                   ; 0xdd43 <end_block9+0x54b9>
    48aa: b2 12        	lda	($12)                   ; 0x12 <__rc2>
    48ac: 85 14        	sta	$14                     ; 0x14 <__rc4>
    48ae: b1 12        	lda	($12),y                 ; 0x12 <__rc2>
    48b0: a6 14        	ldx	$14                     ; 0x14 <__rc4>
    48b2: 8e 42 dd     	stx	$dd42                   ; 0xdd42 <end_block9+0x54b8>
    48b5: 8d 43 dd     	sta	$dd43                   ; 0xdd43 <end_block9+0x54b9>
    48b8: 18           	clc
    48b9: a5 10        	lda	$10                     ; 0x10 <__zp_data_size>
    48bb: 69 04        	adc	#$4
    48bd: 85 12        	sta	$12                     ; 0x12 <__rc2>
    48bf: a5 11        	lda	$11                     ; 0x11 <__rc1>
    48c1: 69 00        	adc	#$0
    48c3: 85 13        	sta	$13                     ; 0x13 <__rc3>
    48c5: b2 12        	lda	($12)                   ; 0x12 <__rc2>
    48c7: 85 14        	sta	$14                     ; 0x14 <__rc4>
    48c9: 18           	clc
    48ca: a5 10        	lda	$10                     ; 0x10 <__zp_data_size>
    48cc: 69 06        	adc	#$6
    48ce: 85 12        	sta	$12                     ; 0x12 <__rc2>
    48d0: a5 11        	lda	$11                     ; 0x11 <__rc1>
    48d2: 69 00        	adc	#$0
    48d4: 85 13        	sta	$13                     ; 0x13 <__rc3>
    48d6: a0 01        	ldy	#$1
    48d8: b1 12        	lda	($12),y                 ; 0x12 <__rc2>
    48da: 85 1a        	sta	$1a                     ; 0x1a <__rc10>
    48dc: a2 01        	ldx	#$1
    48de: 86 16        	stx	$16                     ; 0x16 <__rc6>
    48e0: c8           	iny
    48e1: b1 12        	lda	($12),y                 ; 0x12 <__rc2>
    48e3: 85 18        	sta	$18                     ; 0x18 <__rc8>
    48e5: e8           	inx
    48e6: 86 15        	stx	$15                     ; 0x15 <__rc5>
    48e8: c8           	iny
    48e9: b1 12        	lda	($12),y                 ; 0x12 <__rc2>
    48eb: 85 19        	sta	$19                     ; 0x19 <__rc9>
    48ed: e8           	inx
    48ee: 86 17        	stx	$17                     ; 0x17 <__rc7>
    48f0: 18           	clc
    48f1: a5 14        	lda	$14                     ; 0x14 <__rc4>
    48f3: 72 12        	adc	($12)                   ; 0x12 <__rc2>
    48f5: 85 14        	sta	$14                     ; 0x14 <__rc4>
    48f7: a5 1a        	lda	$1a                     ; 0x1a <__rc10>
    48f9: 69 00        	adc	#$0
    48fb: a4 16        	ldy	$16                     ; 0x16 <__rc6>
    48fd: 91 12        	sta	($12),y                 ; 0x12 <__rc2>
    48ff: a5 18        	lda	$18                     ; 0x18 <__rc8>
    4901: 69 00        	adc	#$0
    4903: a4 15        	ldy	$15                     ; 0x15 <__rc5>
    4905: 91 12        	sta	($12),y                 ; 0x12 <__rc2>
    4907: a5 19        	lda	$19                     ; 0x19 <__rc9>
    4909: 69 00        	adc	#$0
    490b: a4 17        	ldy	$17                     ; 0x17 <__rc7>
    490d: 91 12        	sta	($12),y                 ; 0x12 <__rc2>
    490f: a5 14        	lda	$14                     ; 0x14 <__rc4>
    4911: 92 12        	sta	($12)                   ; 0x12 <__rc2>
    4913: 18           	clc
    4914: a5 10        	lda	$10                     ; 0x10 <__zp_data_size>
    4916: 69 0e        	adc	#$e
    4918: 85 12        	sta	$12                     ; 0x12 <__rc2>
    491a: a5 11        	lda	$11                     ; 0x11 <__rc1>
    491c: 69 00        	adc	#$0
    491e: 85 13        	sta	$13                     ; 0x13 <__rc3>
    4920: b2 12        	lda	($12)                   ; 0x12 <__rc2>
    4922: aa           	tax
    4923: a0 01        	ldy	#$1
    4925: b1 12        	lda	($12),y                 ; 0x12 <__rc2>
    4927: 85 14        	sta	$14                     ; 0x14 <__rc4>
    4929: a0 01        	ldy	#$1
    492b: 84 15        	sty	$15                     ; 0x15 <__rc5>
    492d: c8           	iny
    492e: b1 12        	lda	($12),y                 ; 0x12 <__rc2>
    4930: 85 18        	sta	$18                     ; 0x18 <__rc8>
    4932: a0 02        	ldy	#$2
    4934: 84 16        	sty	$16                     ; 0x16 <__rc6>
    4936: c8           	iny
    4937: b1 12        	lda	($12),y                 ; 0x12 <__rc2>
    4939: 85 17        	sta	$17                     ; 0x17 <__rc7>
    493b: a0 03        	ldy	#$3
    493d: 84 19        	sty	$19                     ; 0x19 <__rc9>
    493f: e8           	inx
    4940: f0 03        	beq	$4945 <displayImage+0x3fc>
    4942: 4c 5e 49     	jmp	$495e <displayImage+0x415>
    4945: e6 14        	inc	$14                     ; 0x14 <__rc4>
    4947: f0 03        	beq	$494c <displayImage+0x403>
    4949: 4c 5b 49     	jmp	$495b <displayImage+0x412>
    494c: e6 18        	inc	$18                     ; 0x18 <__rc8>
    494e: f0 03        	beq	$4953 <displayImage+0x40a>
    4950: 4c 58 49     	jmp	$4958 <displayImage+0x40f>
    4953: e6 17        	inc	$17                     ; 0x17 <__rc7>
    4955: 4c 58 49     	jmp	$4958 <displayImage+0x40f>
    4958: 4c 5b 49     	jmp	$495b <displayImage+0x412>
    495b: 4c 5e 49     	jmp	$495e <displayImage+0x415>
    495e: a5 14        	lda	$14                     ; 0x14 <__rc4>
    4960: a4 15        	ldy	$15                     ; 0x15 <__rc5>
    4962: 91 12        	sta	($12),y                 ; 0x12 <__rc2>
    4964: a4 16        	ldy	$16                     ; 0x16 <__rc6>
    4966: a5 18        	lda	$18                     ; 0x18 <__rc8>
    4968: 91 12        	sta	($12),y                 ; 0x12 <__rc2>
    496a: a5 17        	lda	$17                     ; 0x17 <__rc7>
    496c: a4 19        	ldy	$19                     ; 0x19 <__rc9>
    496e: 91 12        	sta	($12),y                 ; 0x12 <__rc2>
    4970: 8a           	txa
    4971: 92 12        	sta	($12)                   ; 0x12 <__rc2>
    4973: 4c 4f 47     	jmp	$474f <displayImage+0x206>
    4976: 18           	clc
    4977: a5 10        	lda	$10                     ; 0x10 <__zp_data_size>
    4979: 69 0a        	adc	#$a
    497b: 85 12        	sta	$12                     ; 0x12 <__rc2>
    497d: a5 11        	lda	$11                     ; 0x11 <__rc1>
    497f: 69 00        	adc	#$0
    4981: 85 13        	sta	$13                     ; 0x13 <__rc3>
    4983: b2 12        	lda	($12)                   ; 0x12 <__rc2>
    4985: aa           	tax
    4986: a0 01        	ldy	#$1
    4988: b1 12        	lda	($12),y                 ; 0x12 <__rc2>
    498a: 85 14        	sta	$14                     ; 0x14 <__rc4>
    498c: a0 01        	ldy	#$1
    498e: 84 15        	sty	$15                     ; 0x15 <__rc5>
    4990: c8           	iny
    4991: b1 12        	lda	($12),y                 ; 0x12 <__rc2>
    4993: 85 18        	sta	$18                     ; 0x18 <__rc8>
    4995: a0 02        	ldy	#$2
    4997: 84 16        	sty	$16                     ; 0x16 <__rc6>
    4999: c8           	iny
    499a: b1 12        	lda	($12),y                 ; 0x12 <__rc2>
    499c: 85 17        	sta	$17                     ; 0x17 <__rc7>
    499e: a0 03        	ldy	#$3
    49a0: 84 19        	sty	$19                     ; 0x19 <__rc9>
    49a2: e8           	inx
    49a3: f0 03        	beq	$49a8 <displayImage+0x45f>
    49a5: 4c c1 49     	jmp	$49c1 <displayImage+0x478>
    49a8: e6 14        	inc	$14                     ; 0x14 <__rc4>
    49aa: f0 03        	beq	$49af <displayImage+0x466>
    49ac: 4c be 49     	jmp	$49be <displayImage+0x475>
    49af: e6 18        	inc	$18                     ; 0x18 <__rc8>
    49b1: f0 03        	beq	$49b6 <displayImage+0x46d>
    49b3: 4c bb 49     	jmp	$49bb <displayImage+0x472>
    49b6: e6 17        	inc	$17                     ; 0x17 <__rc7>
    49b8: 4c bb 49     	jmp	$49bb <displayImage+0x472>
    49bb: 4c be 49     	jmp	$49be <displayImage+0x475>
    49be: 4c c1 49     	jmp	$49c1 <displayImage+0x478>
    49c1: a5 14        	lda	$14                     ; 0x14 <__rc4>
    49c3: a4 15        	ldy	$15                     ; 0x15 <__rc5>
    49c5: 91 12        	sta	($12),y                 ; 0x12 <__rc2>
    49c7: a4 16        	ldy	$16                     ; 0x16 <__rc6>
    49c9: a5 18        	lda	$18                     ; 0x18 <__rc8>
    49cb: 91 12        	sta	($12),y                 ; 0x12 <__rc2>
    49cd: a5 17        	lda	$17                     ; 0x17 <__rc7>
    49cf: a4 19        	ldy	$19                     ; 0x19 <__rc9>
    49d1: 91 12        	sta	($12),y                 ; 0x12 <__rc2>
    49d3: 8a           	txa
    49d4: 92 12        	sta	($12)                   ; 0x12 <__rc2>
    49d6: 4c bd 46     	jmp	$46bd <displayImage+0x174>
    49d9: fa           	plx
    49da: 86 26        	stx	$26                     ; 0x26 <__rc22>
    49dc: fa           	plx
    49dd: 86 25        	stx	$25                     ; 0x25 <__rc21>
    49df: fa           	plx
    49e0: 86 24        	stx	$24                     ; 0x24 <__rc20>
    49e2: 18           	clc
    49e3: a5 10        	lda	$10                     ; 0x10 <__zp_data_size>
    49e5: 69 17        	adc	#$17
    49e7: 85 10        	sta	$10                     ; 0x10 <__zp_data_size>
    49e9: a5 11        	lda	$11                     ; 0x11 <__rc1>
    49eb: 69 00        	adc	#$0
    49ed: 85 11        	sta	$11                     ; 0x11 <__rc1>
    49ef: 60           	rts

000049f0 <detectStructure>:
    49f0: a5 4e        	lda	$4e                     ; 0x4e <myRecord.14>
    49f2: 29 01        	and	#$1
    49f4: a4 0f        	ldy	$f                      ; 0xf
    49f6: 78           	sei
    49f7: a2 28        	ldx	#$28
    49f9: 86 12        	stx	$12                     ; 0x12 <__rc2>
    49fb: c9 00        	cmp	#$0
    49fd: d0 02        	bne	$4a01 <detectStructure+0x11>
    49ff: a2 00        	ldx	#$0
    4a01: 86 0f        	stx	$f                      ; 0xf
    4a03: ae 09 e0     	ldx	$e009                   ; 0xe009 <end_block9+0x577f>
    4a06: 86 13        	stx	$13                     ; 0x13 <__rc3>
    4a08: 84 0f        	sty	$f                      ; 0xf
    4a0a: 58           	cli
    4a0b: a5 4e        	lda	$4e                     ; 0x4e <myRecord.14>
    4a0d: 29 01        	and	#$1
    4a0f: a4 0f        	ldy	$f                      ; 0xf
    4a11: 78           	sei
    4a12: a6 12        	ldx	$12                     ; 0x12 <__rc2>
    4a14: c9 00        	cmp	#$0
    4a16: d0 02        	bne	$4a1a <detectStructure+0x2a>
    4a18: a2 00        	ldx	#$0
    4a1a: 86 0f        	stx	$f                      ; 0xf
    4a1c: ae 08 e0     	ldx	$e008                   ; 0xe008 <end_block9+0x577e>
    4a1f: 84 0f        	sty	$f                      ; 0xf
    4a21: 58           	cli
    4a22: a4 13        	ldy	$13                     ; 0x13 <__rc3>
    4a24: 84 4a        	sty	$4a                     ; 0x4a <myRecord.1>
    4a26: 86 4b        	stx	$4b                     ; 0x4b <myRecord.1+0x1>
    4a28: a5 4e        	lda	$4e                     ; 0x4e <myRecord.14>
    4a2a: 29 01        	and	#$1
    4a2c: a4 0f        	ldy	$f                      ; 0xf
    4a2e: 78           	sei
    4a2f: a2 28        	ldx	#$28
    4a31: 86 12        	stx	$12                     ; 0x12 <__rc2>
    4a33: c9 00        	cmp	#$0
    4a35: d0 02        	bne	$4a39 <detectStructure+0x49>
    4a37: a2 00        	ldx	#$0
    4a39: 86 0f        	stx	$f                      ; 0xf
    4a3b: ae 0b e0     	ldx	$e00b                   ; 0xe00b <end_block9+0x5781>
    4a3e: 86 13        	stx	$13                     ; 0x13 <__rc3>
    4a40: 84 0f        	sty	$f                      ; 0xf
    4a42: 58           	cli
    4a43: a5 4e        	lda	$4e                     ; 0x4e <myRecord.14>
    4a45: 29 01        	and	#$1
    4a47: a4 0f        	ldy	$f                      ; 0xf
    4a49: 78           	sei
    4a4a: a6 12        	ldx	$12                     ; 0x12 <__rc2>
    4a4c: c9 00        	cmp	#$0
    4a4e: d0 02        	bne	$4a52 <detectStructure+0x62>
    4a50: a2 00        	ldx	#$0
    4a52: 86 0f        	stx	$f                      ; 0xf
    4a54: ae 0a e0     	ldx	$e00a                   ; 0xe00a <end_block9+0x5780>
    4a57: 84 0f        	sty	$f                      ; 0xf
    4a59: 58           	cli
    4a5a: a4 13        	ldy	$13                     ; 0x13 <__rc3>
    4a5c: 84 4c        	sty	$4c                     ; 0x4c <myRecord.2>
    4a5e: 86 4d        	stx	$4d                     ; 0x4d <myRecord.2+0x1>
    4a60: a5 4e        	lda	$4e                     ; 0x4e <myRecord.14>
    4a62: 29 01        	and	#$1
    4a64: a4 0f        	ldy	$f                      ; 0xf
    4a66: 78           	sei
    4a67: a2 28        	ldx	#$28
    4a69: 86 12        	stx	$12                     ; 0x12 <__rc2>
    4a6b: c9 00        	cmp	#$0
    4a6d: d0 02        	bne	$4a71 <detectStructure+0x81>
    4a6f: a2 00        	ldx	#$0
    4a71: 86 0f        	stx	$f                      ; 0xf
    4a73: ae 0d e0     	ldx	$e00d                   ; 0xe00d <end_block9+0x5783>
    4a76: 84 0f        	sty	$f                      ; 0xf
    4a78: 58           	cli
    4a79: a5 4e        	lda	$4e                     ; 0x4e <myRecord.14>
    4a7b: 29 01        	and	#$1
    4a7d: a4 0f        	ldy	$f                      ; 0xf
    4a7f: 78           	sei
    4a80: a6 12        	ldx	$12                     ; 0x12 <__rc2>
    4a82: c9 00        	cmp	#$0
    4a84: d0 02        	bne	$4a88 <detectStructure+0x98>
    4a86: a2 00        	ldx	#$0
    4a88: 86 0f        	stx	$f                      ; 0xf
    4a8a: ae 0c e0     	ldx	$e00c                   ; 0xe00c <end_block9+0x5782>
    4a8d: 84 0f        	sty	$f                      ; 0xf
    4a8f: 58           	cli
    4a90: a6 4c        	ldx	$4c                     ; 0x4c <myRecord.2>
    4a92: a4 4d        	ldy	$4d                     ; 0x4d <myRecord.2+0x1>
    4a94: d0 06        	bne	$4a9c <detectStructure+0xac>
    4a96: 8a           	txa
    4a97: d0 03        	bne	$4a9c <detectStructure+0xac>
    4a99: 4c 6d 4c     	jmp	$4c6d <detectStructure+0x27d>
    4a9c: a2 0e        	ldx	#$e
    4a9e: 86 17        	stx	$17                     ; 0x17 <__rc7>
    4aa0: a2 00        	ldx	#$0
    4aa2: a0 00        	ldy	#$0
    4aa4: 64 19        	stz	$19                     ; 0x19 <__rc9>
    4aa6: 64 12        	stz	$12                     ; 0x12 <__rc2>
    4aa8: 64 1b        	stz	$1b                     ; 0x1b <__rc11>
    4aaa: e8           	inx
    4aab: d0 01        	bne	$4aae <detectStructure+0xbe>
    4aad: c8           	iny
    4aae: 86 18        	stx	$18                     ; 0x18 <__rc8>
    4ab0: 84 1a        	sty	$1a                     ; 0x1a <__rc10>
    4ab2: 18           	clc
    4ab3: a5 17        	lda	$17                     ; 0x17 <__rc7>
    4ab5: 69 04        	adc	#$4
    4ab7: 85 14        	sta	$14                     ; 0x14 <__rc4>
    4ab9: a5 19        	lda	$19                     ; 0x19 <__rc9>
    4abb: 69 00        	adc	#$0
    4abd: a8           	tay
    4abe: a5 12        	lda	$12                     ; 0x12 <__rc2>
    4ac0: 69 00        	adc	#$0
    4ac2: 85 13        	sta	$13                     ; 0x13 <__rc3>
    4ac4: a5 4e        	lda	$4e                     ; 0x4e <myRecord.14>
    4ac6: 29 01        	and	#$1
    4ac8: a2 05        	ldx	#$5
    4aca: 86 16        	stx	$16                     ; 0x16 <__rc6>
    4acc: 64 1c        	stz	$1c                     ; 0x1c <__rc12>
    4ace: 64 15        	stz	$15                     ; 0x15 <__rc5>
    4ad0: c9 00        	cmp	#$0
    4ad2: d0 02        	bne	$4ad6 <detectStructure+0xe6>
    4ad4: a2 00        	ldx	#$0
    4ad6: 18           	clc
    4ad7: a9 00        	lda	#$0
    4ad9: 65 14        	adc	$14                     ; 0x14 <__rc4>
    4adb: 98           	tya
    4adc: 84 1c        	sty	$1c                     ; 0x1c <__rc12>
    4ade: 65 15        	adc	$15                     ; 0x15 <__rc5>
    4ae0: 85 15        	sta	$15                     ; 0x15 <__rc5>
    4ae2: 8a           	txa
    4ae3: 65 13        	adc	$13                     ; 0x13 <__rc3>
    4ae5: 06 15        	asl	$15                     ; 0x15 <__rc5>
    4ae7: 2a           	rol
    4ae8: 06 15        	asl	$15                     ; 0x15 <__rc5>
    4aea: 2a           	rol
    4aeb: 06 15        	asl	$15                     ; 0x15 <__rc5>
    4aed: 2a           	rol
    4aee: a4 0f        	ldy	$f                      ; 0xf
    4af0: 78           	sei
    4af1: 85 0f        	sta	$f                      ; 0xf
    4af3: a5 1c        	lda	$1c                     ; 0x1c <__rc12>
    4af5: 09 e0        	ora	#$e0
    4af7: 85 15        	sta	$15                     ; 0x15 <__rc5>
    4af9: b2 14        	lda	($14)                   ; 0x14 <__rc4>
    4afb: 84 0f        	sty	$f                      ; 0xf
    4afd: 58           	cli
    4afe: a6 16        	ldx	$16                     ; 0x16 <__rc6>
    4b00: 86 14        	stx	$14                     ; 0x14 <__rc4>
    4b02: a5 4e        	lda	$4e                     ; 0x4e <myRecord.14>
    4b04: 29 01        	and	#$1
    4b06: 64 13        	stz	$13                     ; 0x13 <__rc3>
    4b08: 64 15        	stz	$15                     ; 0x15 <__rc5>
    4b0a: 64 16        	stz	$16                     ; 0x16 <__rc6>
    4b0c: d0 02        	bne	$4b10 <detectStructure+0x120>
    4b0e: 64 14        	stz	$14                     ; 0x14 <__rc4>
    4b10: 18           	clc
    4b11: a5 17        	lda	$17                     ; 0x17 <__rc7>
    4b13: 69 05        	adc	#$5
    4b15: 85 1c        	sta	$1c                     ; 0x1c <__rc12>
    4b17: a5 19        	lda	$19                     ; 0x19 <__rc9>
    4b19: 69 00        	adc	#$0
    4b1b: aa           	tax
    4b1c: a5 12        	lda	$12                     ; 0x12 <__rc2>
    4b1e: 69 00        	adc	#$0
    4b20: a8           	tay
    4b21: a5 1c        	lda	$1c                     ; 0x1c <__rc12>
    4b23: 18           	clc
    4b24: 65 15        	adc	$15                     ; 0x15 <__rc5>
    4b26: 86 15        	stx	$15                     ; 0x15 <__rc5>
    4b28: 8a           	txa
    4b29: 65 16        	adc	$16                     ; 0x16 <__rc6>
    4b2b: 85 16        	sta	$16                     ; 0x16 <__rc6>
    4b2d: 98           	tya
    4b2e: 65 14        	adc	$14                     ; 0x14 <__rc4>
    4b30: 06 16        	asl	$16                     ; 0x16 <__rc6>
    4b32: 2a           	rol
    4b33: 06 16        	asl	$16                     ; 0x16 <__rc6>
    4b35: 2a           	rol
    4b36: 06 16        	asl	$16                     ; 0x16 <__rc6>
    4b38: 2a           	rol
    4b39: a4 0f        	ldy	$f                      ; 0xf
    4b3b: 78           	sei
    4b3c: 85 0f        	sta	$f                      ; 0xf
    4b3e: a6 1c        	ldx	$1c                     ; 0x1c <__rc12>
    4b40: 86 14        	stx	$14                     ; 0x14 <__rc4>
    4b42: a2 05        	ldx	#$5
    4b44: a5 15        	lda	$15                     ; 0x15 <__rc5>
    4b46: 09 e0        	ora	#$e0
    4b48: 85 15        	sta	$15                     ; 0x15 <__rc5>
    4b4a: b2 14        	lda	($14)                   ; 0x14 <__rc4>
    4b4c: 85 16        	sta	$16                     ; 0x16 <__rc6>
    4b4e: 84 0f        	sty	$f                      ; 0xf
    4b50: 58           	cli
    4b51: a5 4e        	lda	$4e                     ; 0x4e <myRecord.14>
    4b53: 29 01        	and	#$1
    4b55: 86 14        	stx	$14                     ; 0x14 <__rc4>
    4b57: d0 02        	bne	$4b5b <detectStructure+0x16b>
    4b59: 64 14        	stz	$14                     ; 0x14 <__rc4>
    4b5b: 18           	clc
    4b5c: a5 17        	lda	$17                     ; 0x17 <__rc7>
    4b5e: 69 06        	adc	#$6
    4b60: 85 15        	sta	$15                     ; 0x15 <__rc5>
    4b62: a5 19        	lda	$19                     ; 0x19 <__rc9>
    4b64: 69 00        	adc	#$0
    4b66: a8           	tay
    4b67: a5 12        	lda	$12                     ; 0x12 <__rc2>
    4b69: 69 00        	adc	#$0
    4b6b: 85 1c        	sta	$1c                     ; 0x1c <__rc12>
    4b6d: a5 15        	lda	$15                     ; 0x15 <__rc5>
    4b6f: 18           	clc
    4b70: 65 13        	adc	$13                     ; 0x13 <__rc3>
    4b72: 84 1d        	sty	$1d                     ; 0x1d <__rc13>
    4b74: 98           	tya
    4b75: 65 13        	adc	$13                     ; 0x13 <__rc3>
    4b77: 85 13        	sta	$13                     ; 0x13 <__rc3>
    4b79: a5 1c        	lda	$1c                     ; 0x1c <__rc12>
    4b7b: 65 14        	adc	$14                     ; 0x14 <__rc4>
    4b7d: 06 13        	asl	$13                     ; 0x13 <__rc3>
    4b7f: 2a           	rol
    4b80: 06 13        	asl	$13                     ; 0x13 <__rc3>
    4b82: 2a           	rol
    4b83: 06 13        	asl	$13                     ; 0x13 <__rc3>
    4b85: 2a           	rol
    4b86: a4 0f        	ldy	$f                      ; 0xf
    4b88: 78           	sei
    4b89: 85 0f        	sta	$f                      ; 0xf
    4b8b: a5 15        	lda	$15                     ; 0x15 <__rc5>
    4b8d: 85 14        	sta	$14                     ; 0x14 <__rc4>
    4b8f: a5 1d        	lda	$1d                     ; 0x1d <__rc13>
    4b91: 09 e0        	ora	#$e0
    4b93: 85 15        	sta	$15                     ; 0x15 <__rc5>
    4b95: b2 14        	lda	($14)                   ; 0x14 <__rc4>
    4b97: 85 13        	sta	$13                     ; 0x13 <__rc3>
    4b99: 84 0f        	sty	$f                      ; 0xf
    4b9b: 64 14        	stz	$14                     ; 0x14 <__rc4>
    4b9d: 58           	cli
    4b9e: 86 15        	stx	$15                     ; 0x15 <__rc5>
    4ba0: a5 4e        	lda	$4e                     ; 0x4e <myRecord.14>
    4ba2: 29 01        	and	#$1
    4ba4: d0 02        	bne	$4ba8 <detectStructure+0x1b8>
    4ba6: 64 15        	stz	$15                     ; 0x15 <__rc5>
    4ba8: 18           	clc
    4ba9: a5 17        	lda	$17                     ; 0x17 <__rc7>
    4bab: 69 07        	adc	#$7
    4bad: a8           	tay
    4bae: a5 19        	lda	$19                     ; 0x19 <__rc9>
    4bb0: 69 00        	adc	#$0
    4bb2: 85 1d        	sta	$1d                     ; 0x1d <__rc13>
    4bb4: a5 12        	lda	$12                     ; 0x12 <__rc2>
    4bb6: 69 00        	adc	#$0
    4bb8: 85 1e        	sta	$1e                     ; 0x1e <__rc14>
    4bba: 98           	tya
    4bbb: a2 00        	ldx	#$0
    4bbd: 86 1c        	stx	$1c                     ; 0x1c <__rc12>
    4bbf: 18           	clc
    4bc0: 65 14        	adc	$14                     ; 0x14 <__rc4>
    4bc2: a5 1d        	lda	$1d                     ; 0x1d <__rc13>
    4bc4: 65 14        	adc	$14                     ; 0x14 <__rc4>
    4bc6: 85 14        	sta	$14                     ; 0x14 <__rc4>
    4bc8: a5 1e        	lda	$1e                     ; 0x1e <__rc14>
    4bca: 65 15        	adc	$15                     ; 0x15 <__rc5>
    4bcc: 06 14        	asl	$14                     ; 0x14 <__rc4>
    4bce: 2a           	rol
    4bcf: 06 14        	asl	$14                     ; 0x14 <__rc4>
    4bd1: 2a           	rol
    4bd2: 06 14        	asl	$14                     ; 0x14 <__rc4>
    4bd4: 2a           	rol
    4bd5: a6 0f        	ldx	$f                      ; 0xf
    4bd7: 78           	sei
    4bd8: 85 0f        	sta	$f                      ; 0xf
    4bda: 84 14        	sty	$14                     ; 0x14 <__rc4>
    4bdc: a5 1d        	lda	$1d                     ; 0x1d <__rc13>
    4bde: 09 e0        	ora	#$e0
    4be0: 85 15        	sta	$15                     ; 0x15 <__rc5>
    4be2: b2 14        	lda	($14)                   ; 0x14 <__rc4>
    4be4: 85 14        	sta	$14                     ; 0x14 <__rc4>
    4be6: 86 0f        	stx	$f                      ; 0xf
    4be8: 58           	cli
    4be9: 18           	clc
    4bea: a5 17        	lda	$17                     ; 0x17 <__rc7>
    4bec: 69 00        	adc	#$0
    4bee: 85 15        	sta	$15                     ; 0x15 <__rc5>
    4bf0: a5 19        	lda	$19                     ; 0x19 <__rc9>
    4bf2: 69 00        	adc	#$0
    4bf4: 85 17        	sta	$17                     ; 0x17 <__rc7>
    4bf6: a5 16        	lda	$16                     ; 0x16 <__rc6>
    4bf8: 65 12        	adc	$12                     ; 0x12 <__rc2>
    4bfa: aa           	tax
    4bfb: a5 1b        	lda	$1b                     ; 0x1b <__rc11>
    4bfd: 69 00        	adc	#$0
    4bff: a8           	tay
    4c00: 18           	clc
    4c01: a5 15        	lda	$15                     ; 0x15 <__rc5>
    4c03: 69 00        	adc	#$0
    4c05: 85 12        	sta	$12                     ; 0x12 <__rc2>
    4c07: a5 17        	lda	$17                     ; 0x17 <__rc7>
    4c09: 65 13        	adc	$13                     ; 0x13 <__rc3>
    4c0b: 85 13        	sta	$13                     ; 0x13 <__rc3>
    4c0d: 8a           	txa
    4c0e: 69 00        	adc	#$0
    4c10: 85 15        	sta	$15                     ; 0x15 <__rc5>
    4c12: 98           	tya
    4c13: 69 00        	adc	#$0
    4c15: 85 16        	sta	$16                     ; 0x16 <__rc6>
    4c17: a5 12        	lda	$12                     ; 0x12 <__rc2>
    4c19: a6 1c        	ldx	$1c                     ; 0x1c <__rc12>
    4c1b: e0 01        	cpx	#$1
    4c1d: 65 14        	adc	$14                     ; 0x14 <__rc4>
    4c1f: 85 12        	sta	$12                     ; 0x12 <__rc2>
    4c21: a5 13        	lda	$13                     ; 0x13 <__rc3>
    4c23: 69 00        	adc	#$0
    4c25: aa           	tax
    4c26: a5 15        	lda	$15                     ; 0x15 <__rc5>
    4c28: 69 00        	adc	#$0
    4c2a: a8           	tay
    4c2b: a5 16        	lda	$16                     ; 0x16 <__rc6>
    4c2d: 69 00        	adc	#$0
    4c2f: 85 13        	sta	$13                     ; 0x13 <__rc3>
    4c31: 18           	clc
    4c32: a5 12        	lda	$12                     ; 0x12 <__rc2>
    4c34: 69 08        	adc	#$8
    4c36: 85 17        	sta	$17                     ; 0x17 <__rc7>
    4c38: 8a           	txa
    4c39: 69 00        	adc	#$0
    4c3b: 85 19        	sta	$19                     ; 0x19 <__rc9>
    4c3d: a6 13        	ldx	$13                     ; 0x13 <__rc3>
    4c3f: 98           	tya
    4c40: 69 00        	adc	#$0
    4c42: 85 13        	sta	$13                     ; 0x13 <__rc3>
    4c44: 8a           	txa
    4c45: 69 00        	adc	#$0
    4c47: 85 1b        	sta	$1b                     ; 0x1b <__rc11>
    4c49: a4 1a        	ldy	$1a                     ; 0x1a <__rc10>
    4c4b: c4 4d        	cpy	$4d                     ; 0x4d <myRecord.2+0x1>
    4c4d: d0 11        	bne	$4c60 <detectStructure+0x270>
    4c4f: a6 4c        	ldx	$4c                     ; 0x4c <myRecord.2>
    4c51: 86 12        	stx	$12                     ; 0x12 <__rc2>
    4c53: a6 18        	ldx	$18                     ; 0x18 <__rc8>
    4c55: e4 12        	cpx	$12                     ; 0x12 <__rc2>
    4c57: a5 13        	lda	$13                     ; 0x13 <__rc3>
    4c59: 85 12        	sta	$12                     ; 0x12 <__rc2>
    4c5b: b0 10        	bcs	$4c6d <detectStructure+0x27d>
    4c5d: 4c aa 4a     	jmp	$4aaa <detectStructure+0xba>
    4c60: c4 4d        	cpy	$4d                     ; 0x4d <myRecord.2+0x1>
    4c62: a6 13        	ldx	$13                     ; 0x13 <__rc3>
    4c64: 86 12        	stx	$12                     ; 0x12 <__rc2>
    4c66: a6 18        	ldx	$18                     ; 0x18 <__rc8>
    4c68: b0 03        	bcs	$4c6d <detectStructure+0x27d>
    4c6a: 4c aa 4a     	jmp	$4aaa <detectStructure+0xba>
    4c6d: 60           	rts

00004c6e <loadSMFile>:
    4c6e: 18           	clc
    4c6f: a5 10        	lda	$10                     ; 0x10 <__zp_data_size>
    4c71: 69 fe        	adc	#$fe
    4c73: 85 10        	sta	$10                     ; 0x10 <__zp_data_size>
    4c75: a5 11        	lda	$11                     ; 0x11 <__rc1>
    4c77: 69 fe        	adc	#$fe
    4c79: 85 11        	sta	$11                     ; 0x11 <__rc1>
    4c7b: a6 24        	ldx	$24                     ; 0x24 <__rc20>
    4c7d: da           	phx
    4c7e: a6 25        	ldx	$25                     ; 0x25 <__rc21>
    4c80: da           	phx
    4c81: ac 12 88     	ldy	$8812                   ; 0x8812 <name>
    4c84: 64 16        	stz	$16                     ; 0x16 <__rc6>
    4c86: a2 12        	ldx	#$12
    4c88: 86 12        	stx	$12                     ; 0x12 <__rc2>
    4c8a: a2 88        	ldx	#$88
    4c8c: 86 13        	stx	$13                     ; 0x13 <__rc3>
    4c8e: 98           	tya
    4c8f: f0 36        	beq	$4cc7 <loadSMFile+0x59>
    4c91: 84 18        	sty	$18                     ; 0x18 <__rc8>
    4c93: a2 14        	ldx	#$14
    4c95: 86 14        	stx	$14                     ; 0x14 <__rc4>
    4c97: a2 88        	ldx	#$88
    4c99: 86 15        	stx	$15                     ; 0x15 <__rc5>
    4c9b: 64 17        	stz	$17                     ; 0x17 <__rc7>
    4c9d: a4 16        	ldy	$16                     ; 0x16 <__rc6>
    4c9f: a6 17        	ldx	$17                     ; 0x17 <__rc7>
    4ca1: c8           	iny
    4ca2: d0 01        	bne	$4ca5 <loadSMFile+0x37>
    4ca4: e8           	inx
    4ca5: a9 13        	lda	#$13
    4ca7: 18           	clc
    4ca8: 65 16        	adc	$16                     ; 0x16 <__rc6>
    4caa: 85 16        	sta	$16                     ; 0x16 <__rc6>
    4cac: a9 88        	lda	#$88
    4cae: 65 17        	adc	$17                     ; 0x17 <__rc7>
    4cb0: 85 17        	sta	$17                     ; 0x17 <__rc7>
    4cb2: b2 16        	lda	($16)                   ; 0x16 <__rc6>
    4cb4: 84 16        	sty	$16                     ; 0x16 <__rc6>
    4cb6: 86 17        	stx	$17                     ; 0x17 <__rc7>
    4cb8: d0 e3        	bne	$4c9d <loadSMFile+0x2f>
    4cba: 8a           	txa
    4cbb: d0 0e        	bne	$4ccb <loadSMFile+0x5d>
    4cbd: c0 02        	cpy	#$2
    4cbf: b0 0e        	bcs	$4ccf <loadSMFile+0x61>
    4cc1: 64 17        	stz	$17                     ; 0x17 <__rc7>
    4cc3: 64 16        	stz	$16                     ; 0x16 <__rc6>
    4cc5: 80 2a        	bra	$4cf1 <loadSMFile+0x83>
    4cc7: 64 17        	stz	$17                     ; 0x17 <__rc7>
    4cc9: 80 26        	bra	$4cf1 <loadSMFile+0x83>
    4ccb: e0 00        	cpx	#$0
    4ccd: 90 f2        	bcc	$4cc1 <loadSMFile+0x53>
    4ccf: 64 16        	stz	$16                     ; 0x16 <__rc6>
    4cd1: ae 13 88     	ldx	$8813                   ; 0x8813 <name+0x1>
    4cd4: 64 17        	stz	$17                     ; 0x17 <__rc7>
    4cd6: e0 3a        	cpx	#$3a
    4cd8: d0 17        	bne	$4cf1 <loadSMFile+0x83>
    4cda: a5 18        	lda	$18                     ; 0x18 <__rc8>
    4cdc: c9 30        	cmp	#$30
    4cde: 90 09        	bcc	$4ce9 <loadSMFile+0x7b>
    4ce0: c9 38        	cmp	#$38
    4ce2: b0 05        	bcs	$4ce9 <loadSMFile+0x7b>
    4ce4: 18           	clc
    4ce5: 69 d0        	adc	#$d0
    4ce7: 85 17        	sta	$17                     ; 0x17 <__rc7>
    4ce9: a2 14        	ldx	#$14
    4ceb: 86 12        	stx	$12                     ; 0x12 <__rc2>
    4ced: a2 88        	ldx	#$88
    4cef: 86 13        	stx	$13                     ; 0x13 <__rc3>
    4cf1: a2 85        	ldx	#$85
    4cf3: 86 14        	stx	$14                     ; 0x14 <__rc4>
    4cf5: a2 83        	ldx	#$83
    4cf7: 86 15        	stx	$15                     ; 0x15 <__rc5>
    4cf9: 80 0a        	bra	$4d05 <loadSMFile+0x97>
    4cfb: a2 02        	ldx	#$2
    4cfd: e6 14        	inc	$14                     ; 0x14 <__rc4>
    4cff: d0 02        	bne	$4d03 <loadSMFile+0x95>
    4d01: e6 15        	inc	$15                     ; 0x15 <__rc5>
    4d03: 86 16        	stx	$16                     ; 0x16 <__rc6>
    4d05: b2 14        	lda	($14)                   ; 0x14 <__rc4>
    4d07: c9 61        	cmp	#$61
    4d09: f0 f0        	beq	$4cfb <loadSMFile+0x8d>
    4d0b: a2 01        	ldx	#$1
    4d0d: c9 77        	cmp	#$77
    4d0f: f0 ec        	beq	$4cfd <loadSMFile+0x8f>
    4d11: aa           	tax
    4d12: f0 04        	beq	$4d18 <loadSMFile+0xaa>
    4d14: a6 16        	ldx	$16                     ; 0x16 <__rc6>
    4d16: 80 e5        	bra	$4cfd <loadSMFile+0x8f>
    4d18: a6 17        	ldx	$17                     ; 0x17 <__rc7>
    4d1a: 86 19        	stx	$19                     ; 0x19 <__rc9>
    4d1c: a6 16        	ldx	$16                     ; 0x16 <__rc6>
    4d1e: 86 18        	stx	$18                     ; 0x18 <__rc8>
    4d20: a6 12        	ldx	$12                     ; 0x12 <__rc2>
    4d22: a4 13        	ldy	$13                     ; 0x13 <__rc3>
    4d24: 86 fb        	stx	$fb                     ; 0xfb <__data_size+0xb1>
    4d26: 84 fc        	sty	$fc                     ; 0xfc <__data_size+0xb2>
    4d28: b2 12        	lda	($12)                   ; 0x12 <__rc2>
    4d2a: f0 2b        	beq	$4d57 <loadSMFile+0xe9>
    4d2c: 64 15        	stz	$15                     ; 0x15 <__rc5>
    4d2e: a0 01        	ldy	#$1
    4d30: a9 00        	lda	#$0
    4d32: 64 14        	stz	$14                     ; 0x14 <__rc4>
    4d34: a6 15        	ldx	$15                     ; 0x15 <__rc5>
    4d36: e6 15        	inc	$15                     ; 0x15 <__rc5>
    4d38: d0 02        	bne	$4d3c <loadSMFile+0xce>
    4d3a: e6 14        	inc	$14                     ; 0x14 <__rc4>
    4d3c: 18           	clc
    4d3d: 85 17        	sta	$17                     ; 0x17 <__rc7>
    4d3f: 8a           	txa
    4d40: 65 12        	adc	$12                     ; 0x12 <__rc2>
    4d42: 85 16        	sta	$16                     ; 0x16 <__rc6>
    4d44: a5 17        	lda	$17                     ; 0x17 <__rc7>
    4d46: 65 13        	adc	$13                     ; 0x13 <__rc3>
    4d48: 85 17        	sta	$17                     ; 0x17 <__rc7>
    4d4a: b1 16        	lda	($16),y                 ; 0x16 <__rc6>
    4d4c: aa           	tax
    4d4d: a5 14        	lda	$14                     ; 0x14 <__rc4>
    4d4f: e0 00        	cpx	#$0
    4d51: d0 e1        	bne	$4d34 <loadSMFile+0xc6>
    4d53: a6 15        	ldx	$15                     ; 0x15 <__rc5>
    4d55: 80 02        	bra	$4d59 <loadSMFile+0xeb>
    4d57: a2 00        	ldx	#$0
    4d59: 86 fd        	stx	$fd                     ; 0xfd <__data_size+0xb3>
    4d5b: a6 19        	ldx	$19                     ; 0x19 <__rc9>
    4d5d: 86 f3        	stx	$f3                     ; 0xf3 <__data_size+0xa9>
    4d5f: a6 18        	ldx	$18                     ; 0x18 <__rc8>
    4d61: 86 f5        	stx	$f5                     ; 0xf5 <__data_size+0xab>
    4d63: 18           	clc
    4d64: a5 10        	lda	$10                     ; 0x10 <__zp_data_size>
    4d66: 69 02        	adc	#$2
    4d68: 85 12        	sta	$12                     ; 0x12 <__rc2>
    4d6a: a5 11        	lda	$11                     ; 0x11 <__rc1>
    4d6c: 69 00        	adc	#$0
    4d6e: 85 13        	sta	$13                     ; 0x13 <__rc3>
    4d70: a2 71        	ldx	#$71
    4d72: 86 14        	stx	$14                     ; 0x14 <__rc4>
    4d74: a2 00        	ldx	#$0
    4d76: 86 15        	stx	$15                     ; 0x15 <__rc5>
    4d78: 20 5c ff     	jsr	$ff5c <end_block9+0x76d2>
    4d7b: 92 12        	sta	($12)                   ; 0x12 <__rc2>
    4d7d: a9 00        	lda	#$0
    4d7f: 6a           	ror
    4d80: 85 14        	sta	$14                     ; 0x14 <__rc4>
    4d82: a6 71        	ldx	$71                     ; 0x71 <kernelError>
    4d84: f0 14        	beq	$4d9a <loadSMFile+0x12c>
    4d86: fa           	plx
    4d87: 86 25        	stx	$25                     ; 0x25 <__rc21>
    4d89: fa           	plx
    4d8a: 86 24        	stx	$24                     ; 0x24 <__rc20>
    4d8c: 18           	clc
    4d8d: a5 10        	lda	$10                     ; 0x10 <__zp_data_size>
    4d8f: 69 02        	adc	#$2
    4d91: 85 10        	sta	$10                     ; 0x10 <__zp_data_size>
    4d93: a5 11        	lda	$11                     ; 0x11 <__rc1>
    4d95: 69 01        	adc	#$1
    4d97: 85 11        	sta	$11                     ; 0x11 <__rc1>
    4d99: 60           	rts
    4d9a: b2 12        	lda	($12)                   ; 0x12 <__rc2>
    4d9c: 85 24        	sta	$24                     ; 0x24 <__rc20>
    4d9e: a2 71        	ldx	#$71
    4da0: 86 14        	stx	$14                     ; 0x14 <__rc4>
    4da2: a2 00        	ldx	#$0
    4da4: 86 15        	stx	$15                     ; 0x15 <__rc5>
    4da6: 64 72        	stz	$72                     ; 0x72 <kernelEventData>
    4da8: 20 00 ff     	jsr	$ff00 <end_block9+0x7676>
    4dab: 92 12        	sta	($12)                   ; 0x12 <__rc2>
    4dad: a9 00        	lda	#$0
    4daf: 6a           	ror
    4db0: 85 14        	sta	$14                     ; 0x14 <__rc4>
    4db2: a6 72        	ldx	$72                     ; 0x72 <kernelEventData>
    4db4: e0 28        	cpx	#$28
    4db6: f0 ce        	beq	$4d86 <loadSMFile+0x118>
    4db8: e0 38        	cpx	#$38
    4dba: f0 ca        	beq	$4d86 <loadSMFile+0x118>
    4dbc: e0 2a        	cpx	#$2a
    4dbe: d0 e6        	bne	$4da6 <loadSMFile+0x138>
    4dc0: a9 01        	lda	#$1
    4dc2: a2 00        	ldx	#$0
    4dc4: 64 25        	stz	$25                     ; 0x25 <__rc21>
    4dc6: 20 57 75     	jsr	$7557 <malloc>
    4dc9: a5 24        	lda	$24                     ; 0x24 <__rc20>
    4dcb: 92 12        	sta	($12)                   ; 0x12 <__rc2>
    4dcd: 64 1c        	stz	$1c                     ; 0x1c <__rc12>
    4dcf: 64 1e        	stz	$1e                     ; 0x1e <__rc14>
    4dd1: 64 1d        	stz	$1d                     ; 0x1d <__rc13>
    4dd3: 64 14        	stz	$14                     ; 0x14 <__rc4>
    4dd5: 64 15        	stz	$15                     ; 0x15 <__rc5>
    4dd7: b2 12        	lda	($12)                   ; 0x12 <__rc2>
    4dd9: aa           	tax
    4dda: 18           	clc
    4ddb: a5 10        	lda	$10                     ; 0x10 <__zp_data_size>
    4ddd: 69 02        	adc	#$2
    4ddf: 48           	pha
    4de0: a5 11        	lda	$11                     ; 0x11 <__rc1>
    4de2: 69 00        	adc	#$0
    4de4: a8           	tay
    4de5: 68           	pla
    4de6: 18           	clc
    4de7: 65 14        	adc	$14                     ; 0x14 <__rc4>
    4de9: 85 16        	sta	$16                     ; 0x16 <__rc6>
    4deb: 98           	tya
    4dec: 65 15        	adc	$15                     ; 0x15 <__rc5>
    4dee: e0 00        	cpx	#$0
    4df0: d0 03        	bne	$4df5 <loadSMFile+0x187>
    4df2: 4c 7e 4e     	jmp	$4e7e <loadSMFile+0x210>
    4df5: a4 16        	ldy	$16                     ; 0x16 <__rc6>
    4df7: 84 1f        	sty	$1f                     ; 0x1f <__rc15>
    4df9: 85 1b        	sta	$1b                     ; 0x1b <__rc11>
    4dfb: a9 fa        	lda	#$fa
    4dfd: 38           	sec
    4dfe: e5 14        	sbc	$14                     ; 0x14 <__rc4>
    4e00: 86 f3        	stx	$f3                     ; 0xf3 <__data_size+0xa9>
    4e02: 85 f4        	sta	$f4                     ; 0xf4 <__data_size+0xaa>
    4e04: 18           	clc
    4e05: a5 10        	lda	$10                     ; 0x10 <__zp_data_size>
    4e07: 69 01        	adc	#$1
    4e09: 85 16        	sta	$16                     ; 0x16 <__rc6>
    4e0b: a5 11        	lda	$11                     ; 0x11 <__rc1>
    4e0d: 69 01        	adc	#$1
    4e0f: 85 17        	sta	$17                     ; 0x17 <__rc7>
    4e11: a2 71        	ldx	#$71
    4e13: 86 18        	stx	$18                     ; 0x18 <__rc8>
    4e15: a2 00        	ldx	#$0
    4e17: 86 19        	stx	$19                     ; 0x19 <__rc9>
    4e19: 20 60 ff     	jsr	$ff60 <end_block9+0x76d6>
    4e1c: 92 16        	sta	($16)                   ; 0x16 <__rc6>
    4e1e: a9 00        	lda	#$0
    4e20: 6a           	ror
    4e21: 85 18        	sta	$18                     ; 0x18 <__rc8>
    4e23: a6 71        	ldx	$71                     ; 0x71 <kernelError>
    4e25: a0 ff        	ldy	#$ff
    4e27: 8a           	txa
    4e28: f0 03        	beq	$4e2d <loadSMFile+0x1bf>
    4e2a: 4c b5 4f     	jmp	$4fb5 <loadSMFile+0x347>
    4e2d: a2 ff        	ldx	#$ff
    4e2f: 86 1a        	stx	$1a                     ; 0x1a <__rc10>
    4e31: 64 72        	stz	$72                     ; 0x72 <kernelEventData>
    4e33: a2 71        	ldx	#$71
    4e35: 86 18        	stx	$18                     ; 0x18 <__rc8>
    4e37: a2 00        	ldx	#$0
    4e39: 86 19        	stx	$19                     ; 0x19 <__rc9>
    4e3b: 20 00 ff     	jsr	$ff00 <end_block9+0x7676>
    4e3e: 92 16        	sta	($16)                   ; 0x16 <__rc6>
    4e40: a9 00        	lda	#$0
    4e42: 6a           	ror
    4e43: 85 18        	sta	$18                     ; 0x18 <__rc8>
    4e45: a6 72        	ldx	$72                     ; 0x72 <kernelEventData>
    4e47: e0 38        	cpx	#$38
    4e49: d0 03        	bne	$4e4e <loadSMFile+0x1e0>
    4e4b: 4c df 4e     	jmp	$4edf <loadSMFile+0x271>
    4e4e: e0 30        	cpx	#$30
    4e50: d0 03        	bne	$4e55 <loadSMFile+0x1e7>
    4e52: 4c e7 4e     	jmp	$4ee7 <loadSMFile+0x279>
    4e55: e0 2c        	cpx	#$2c
    4e57: d0 d4        	bne	$4e2d <loadSMFile+0x1bf>
    4e59: a6 1f        	ldx	$1f                     ; 0x1f <__rc15>
    4e5b: 86 fb        	stx	$fb                     ; 0xfb <__data_size+0xb1>
    4e5d: a6 1b        	ldx	$1b                     ; 0x1b <__rc11>
    4e5f: 86 fc        	stx	$fc                     ; 0xfc <__data_size+0xb2>
    4e61: a6 78        	ldx	$78                     ; 0x78 <kernelEventData+0x6>
    4e63: 86 fd        	stx	$fd                     ; 0xfd <__data_size+0xb3>
    4e65: a2 71        	ldx	#$71
    4e67: 86 18        	stx	$18                     ; 0x18 <__rc8>
    4e69: a2 00        	ldx	#$0
    4e6b: 86 19        	stx	$19                     ; 0x19 <__rc9>
    4e6d: 20 04 ff     	jsr	$ff04 <end_block9+0x767a>
    4e70: 92 16        	sta	($16)                   ; 0x16 <__rc6>
    4e72: a9 00        	lda	#$0
    4e74: 6a           	ror
    4e75: 85 18        	sta	$18                     ; 0x18 <__rc8>
    4e77: a5 78        	lda	$78                     ; 0x78 <kernelEventData+0x6>
    4e79: d0 48        	bne	$4ec3 <loadSMFile+0x255>
    4e7b: 4c ae 4f     	jmp	$4fae <loadSMFile+0x340>
    4e7e: 85 17        	sta	$17                     ; 0x17 <__rc7>
    4e80: 80 0a        	bra	$4e8c <loadSMFile+0x21e>
    4e82: a6 72        	ldx	$72                     ; 0x72 <kernelEventData>
    4e84: e0 08        	cpx	#$8
    4e86: d0 04        	bne	$4e8c <loadSMFile+0x21e>
    4e88: a6 78        	ldx	$78                     ; 0x78 <kernelEventData+0x6>
    4e8a: f0 31        	beq	$4ebd <loadSMFile+0x24f>
    4e8c: 64 72        	stz	$72                     ; 0x72 <kernelEventData>
    4e8e: 18           	clc
    4e8f: a5 10        	lda	$10                     ; 0x10 <__zp_data_size>
    4e91: 69 01        	adc	#$1
    4e93: 85 18        	sta	$18                     ; 0x18 <__rc8>
    4e95: a5 11        	lda	$11                     ; 0x11 <__rc1>
    4e97: 69 01        	adc	#$1
    4e99: 85 19        	sta	$19                     ; 0x19 <__rc9>
    4e9b: a2 71        	ldx	#$71
    4e9d: 86 1a        	stx	$1a                     ; 0x1a <__rc10>
    4e9f: a2 00        	ldx	#$0
    4ea1: 86 1b        	stx	$1b                     ; 0x1b <__rc11>
    4ea3: 20 00 ff     	jsr	$ff00 <end_block9+0x7676>
    4ea6: 92 18        	sta	($18)                   ; 0x18 <__rc8>
    4ea8: a9 00        	lda	#$0
    4eaa: 6a           	ror
    4eab: 85 1a        	sta	$1a                     ; 0x1a <__rc10>
    4ead: a6 71        	ldx	$71                     ; 0x71 <kernelError>
    4eaf: f0 d1        	beq	$4e82 <loadSMFile+0x214>
    4eb1: 20 0c ff     	jsr	$ff0c <end_block9+0x7682>
    4eb4: 92 18        	sta	($18)                   ; 0x18 <__rc8>
    4eb6: a9 00        	lda	#$0
    4eb8: 6a           	ror
    4eb9: 85 1a        	sta	$1a                     ; 0x1a <__rc10>
    4ebb: 80 cf        	bra	$4e8c <loadSMFile+0x21e>
    4ebd: a5 77        	lda	$77                     ; 0x77 <kernelEventData+0x5>
    4ebf: 92 16        	sta	($16)                   ; 0x16 <__rc6>
    4ec1: a9 01        	lda	#$1
    4ec3: a2 00        	ldx	#$0
    4ec5: 18           	clc
    4ec6: 65 14        	adc	$14                     ; 0x14 <__rc4>
    4ec8: a8           	tay
    4ec9: 8a           	txa
    4eca: 65 15        	adc	$15                     ; 0x15 <__rc5>
    4ecc: d0 04        	bne	$4ed2 <loadSMFile+0x264>
    4ece: c0 fa        	cpy	#$fa
    4ed0: 80 02        	bra	$4ed4 <loadSMFile+0x266>
    4ed2: c9 00        	cmp	#$0
    4ed4: 84 14        	sty	$14                     ; 0x14 <__rc4>
    4ed6: 85 1b        	sta	$1b                     ; 0x1b <__rc11>
    4ed8: 85 15        	sta	$15                     ; 0x15 <__rc5>
    4eda: b0 16        	bcs	$4ef2 <loadSMFile+0x284>
    4edc: 4c d7 4d     	jmp	$4dd7 <loadSMFile+0x169>
    4edf: a2 ff        	ldx	#$ff
    4ee1: 86 1b        	stx	$1b                     ; 0x1b <__rc11>
    4ee3: a4 1a        	ldy	$1a                     ; 0x1a <__rc10>
    4ee5: 80 0b        	bra	$4ef2 <loadSMFile+0x284>
    4ee7: a4 14        	ldy	$14                     ; 0x14 <__rc4>
    4ee9: a6 15        	ldx	$15                     ; 0x15 <__rc5>
    4eeb: 86 1b        	stx	$1b                     ; 0x1b <__rc11>
    4eed: d0 03        	bne	$4ef2 <loadSMFile+0x284>
    4eef: 4c bc 4f     	jmp	$4fbc <loadSMFile+0x34e>
    4ef2: 84 18        	sty	$18                     ; 0x18 <__rc8>
    4ef4: 64 14        	stz	$14                     ; 0x14 <__rc4>
    4ef6: 64 15        	stz	$15                     ; 0x15 <__rc5>
    4ef8: a5 25        	lda	$25                     ; 0x25 <__rc21>
    4efa: a2 00        	ldx	#$0
    4efc: 18           	clc
    4efd: 65 14        	adc	$14                     ; 0x14 <__rc4>
    4eff: 86 17        	stx	$17                     ; 0x17 <__rc7>
    4f01: 85 16        	sta	$16                     ; 0x16 <__rc6>
    4f03: a5 1c        	lda	$1c                     ; 0x1c <__rc12>
    4f05: 65 15        	adc	$15                     ; 0x15 <__rc5>
    4f07: aa           	tax
    4f08: a5 1e        	lda	$1e                     ; 0x1e <__rc14>
    4f0a: 69 00        	adc	#$0
    4f0c: a8           	tay
    4f0d: 18           	clc
    4f0e: a5 16        	lda	$16                     ; 0x16 <__rc6>
    4f10: 69 00        	adc	#$0
    4f12: 85 19        	sta	$19                     ; 0x19 <__rc9>
    4f14: 8a           	txa
    4f15: 69 00        	adc	#$0
    4f17: 85 1f        	sta	$1f                     ; 0x1f <__rc15>
    4f19: 98           	tya
    4f1a: 69 05        	adc	#$5
    4f1c: aa           	tax
    4f1d: 18           	clc
    4f1e: a5 10        	lda	$10                     ; 0x10 <__zp_data_size>
    4f20: 69 02        	adc	#$2
    4f22: 48           	pha
    4f23: a5 11        	lda	$11                     ; 0x11 <__rc1>
    4f25: 69 00        	adc	#$0
    4f27: 85 16        	sta	$16                     ; 0x16 <__rc6>
    4f29: 68           	pla
    4f2a: a4 17        	ldy	$17                     ; 0x17 <__rc7>
    4f2c: c0 01        	cpy	#$1
    4f2e: 65 14        	adc	$14                     ; 0x14 <__rc4>
    4f30: a8           	tay
    4f31: a5 16        	lda	$16                     ; 0x16 <__rc6>
    4f33: 65 15        	adc	$15                     ; 0x15 <__rc5>
    4f35: 84 16        	sty	$16                     ; 0x16 <__rc6>
    4f37: 85 17        	sta	$17                     ; 0x17 <__rc7>
    4f39: b2 16        	lda	($16)                   ; 0x16 <__rc6>
    4f3b: 85 1a        	sta	$1a                     ; 0x1a <__rc10>
    4f3d: a5 1f        	lda	$1f                     ; 0x1f <__rc15>
    4f3f: 85 16        	sta	$16                     ; 0x16 <__rc6>
    4f41: 06 16        	asl	$16                     ; 0x16 <__rc6>
    4f43: 86 17        	stx	$17                     ; 0x17 <__rc7>
    4f45: 26 17        	rol	$17                     ; 0x17 <__rc7>
    4f47: 06 16        	asl	$16                     ; 0x16 <__rc6>
    4f49: 26 17        	rol	$17                     ; 0x17 <__rc7>
    4f4b: 06 16        	asl	$16                     ; 0x16 <__rc6>
    4f4d: 26 17        	rol	$17                     ; 0x17 <__rc7>
    4f4f: a4 17        	ldy	$17                     ; 0x17 <__rc7>
    4f51: a6 0f        	ldx	$f                      ; 0xf
    4f53: 78           	sei
    4f54: 84 0f        	sty	$f                      ; 0xf
    4f56: a4 19        	ldy	$19                     ; 0x19 <__rc9>
    4f58: 84 16        	sty	$16                     ; 0x16 <__rc6>
    4f5a: 09 e0        	ora	#$e0
    4f5c: 85 17        	sta	$17                     ; 0x17 <__rc7>
    4f5e: a5 1a        	lda	$1a                     ; 0x1a <__rc10>
    4f60: 92 16        	sta	($16)                   ; 0x16 <__rc6>
    4f62: 86 0f        	stx	$f                      ; 0xf
    4f64: 58           	cli
    4f65: e6 14        	inc	$14                     ; 0x14 <__rc4>
    4f67: d0 02        	bne	$4f6b <loadSMFile+0x2fd>
    4f69: e6 15        	inc	$15                     ; 0x15 <__rc5>
    4f6b: a5 1b        	lda	$1b                     ; 0x1b <__rc11>
    4f6d: c5 15        	cmp	$15                     ; 0x15 <__rc5>
    4f6f: f0 03        	beq	$4f74 <loadSMFile+0x306>
    4f71: 4c f8 4e     	jmp	$4ef8 <loadSMFile+0x28a>
    4f74: a6 18        	ldx	$18                     ; 0x18 <__rc8>
    4f76: e4 14        	cpx	$14                     ; 0x14 <__rc4>
    4f78: f0 03        	beq	$4f7d <loadSMFile+0x30f>
    4f7a: 4c f8 4e     	jmp	$4ef8 <loadSMFile+0x28a>
    4f7d: a6 18        	ldx	$18                     ; 0x18 <__rc8>
    4f7f: 86 14        	stx	$14                     ; 0x14 <__rc4>
    4f81: a5 25        	lda	$25                     ; 0x25 <__rc21>
    4f83: 18           	clc
    4f84: 65 14        	adc	$14                     ; 0x14 <__rc4>
    4f86: 85 25        	sta	$25                     ; 0x25 <__rc21>
    4f88: a5 1c        	lda	$1c                     ; 0x1c <__rc12>
    4f8a: 65 1b        	adc	$1b                     ; 0x1b <__rc11>
    4f8c: 85 1c        	sta	$1c                     ; 0x1c <__rc12>
    4f8e: a5 1e        	lda	$1e                     ; 0x1e <__rc14>
    4f90: 69 00        	adc	#$0
    4f92: 85 1e        	sta	$1e                     ; 0x1e <__rc14>
    4f94: a5 1d        	lda	$1d                     ; 0x1d <__rc13>
    4f96: 69 00        	adc	#$0
    4f98: 85 1d        	sta	$1d                     ; 0x1d <__rc13>
    4f9a: a5 1b        	lda	$1b                     ; 0x1b <__rc11>
    4f9c: d0 07        	bne	$4fa5 <loadSMFile+0x337>
    4f9e: e0 fa        	cpx	#$fa
    4fa0: 90 21        	bcc	$4fc3 <loadSMFile+0x355>
    4fa2: 4c d3 4d     	jmp	$4dd3 <loadSMFile+0x165>
    4fa5: a4 1b        	ldy	$1b                     ; 0x1b <__rc11>
    4fa7: c0 00        	cpy	#$0
    4fa9: 90 18        	bcc	$4fc3 <loadSMFile+0x355>
    4fab: 4c d3 4d     	jmp	$4dd3 <loadSMFile+0x165>
    4fae: a9 00        	lda	#$0
    4fb0: a2 01        	ldx	#$1
    4fb2: 4c c5 4e     	jmp	$4ec5 <loadSMFile+0x257>
    4fb5: a2 ff        	ldx	#$ff
    4fb7: 86 1b        	stx	$1b                     ; 0x1b <__rc11>
    4fb9: 4c f2 4e     	jmp	$4ef2 <loadSMFile+0x284>
    4fbc: a5 14        	lda	$14                     ; 0x14 <__rc4>
    4fbe: f0 03        	beq	$4fc3 <loadSMFile+0x355>
    4fc0: 4c f2 4e     	jmp	$4ef2 <loadSMFile+0x284>
    4fc3: b2 12        	lda	($12)                   ; 0x12 <__rc2>
    4fc5: 85 f3        	sta	$f3                     ; 0xf3 <__data_size+0xa9>
    4fc7: 18           	clc
    4fc8: a5 10        	lda	$10                     ; 0x10 <__zp_data_size>
    4fca: 69 01        	adc	#$1
    4fcc: 85 24        	sta	$24                     ; 0x24 <__rc20>
    4fce: a5 11        	lda	$11                     ; 0x11 <__rc1>
    4fd0: 69 01        	adc	#$1
    4fd2: 85 25        	sta	$25                     ; 0x25 <__rc21>
    4fd4: a2 71        	ldx	#$71
    4fd6: 86 14        	stx	$14                     ; 0x14 <__rc4>
    4fd8: a2 00        	ldx	#$0
    4fda: 86 15        	stx	$15                     ; 0x15 <__rc5>
    4fdc: a5 14        	lda	$14                     ; 0x14 <__rc4>
    4fde: a0 00        	ldy	#$0
    4fe0: 91 10        	sta	($10),y                 ; 0x10 <__zp_data_size>
    4fe2: a5 15        	lda	$15                     ; 0x15 <__rc5>
    4fe4: c8           	iny
    4fe5: 91 10        	sta	($10),y                 ; 0x10 <__zp_data_size>
    4fe7: 20 68 ff     	jsr	$ff68 <end_block9+0x76de>
    4fea: 92 24        	sta	($24)                   ; 0x24 <__rc20>
    4fec: a9 00        	lda	#$0
    4fee: 6a           	ror
    4fef: 85 14        	sta	$14                     ; 0x14 <__rc4>
    4ff1: 20 39 77     	jsr	$7739 <free>
    4ff4: a0 00        	ldy	#$0
    4ff6: b1 10        	lda	($10),y                 ; 0x10 <__zp_data_size>
    4ff8: 85 12        	sta	$12                     ; 0x12 <__rc2>
    4ffa: c8           	iny
    4ffb: b1 10        	lda	($10),y                 ; 0x10 <__zp_data_size>
    4ffd: 85 13        	sta	$13                     ; 0x13 <__rc3>
    4fff: a6 24        	ldx	$24                     ; 0x24 <__rc20>
    5001: 86 14        	stx	$14                     ; 0x14 <__rc4>
    5003: a6 25        	ldx	$25                     ; 0x25 <__rc21>
    5005: 86 15        	stx	$15                     ; 0x15 <__rc5>
    5007: 64 72        	stz	$72                     ; 0x72 <kernelEventData>
    5009: 20 00 ff     	jsr	$ff00 <end_block9+0x7676>
    500c: 92 14        	sta	($14)                   ; 0x14 <__rc4>
    500e: a9 00        	lda	#$0
    5010: 6a           	ror
    5011: 85 12        	sta	$12                     ; 0x12 <__rc2>
    5013: a6 72        	ldx	$72                     ; 0x72 <kernelEventData>
    5015: e0 38        	cpx	#$38
    5017: d0 03        	bne	$501c <loadSMFile+0x3ae>
    5019: 4c 86 4d     	jmp	$4d86 <loadSMFile+0x118>
    501c: e0 32        	cpx	#$32
    501e: d0 e7        	bne	$5007 <loadSMFile+0x399>
    5020: 4c 86 4d     	jmp	$4d86 <loadSMFile+0x118>

00005023 <chainEvent>:
    5023: 48           	pha
    5024: 18           	clc
    5025: a5 10        	lda	$10                     ; 0x10 <__zp_data_size>
    5027: 69 f7        	adc	#$f7
    5029: 85 10        	sta	$10                     ; 0x10 <__zp_data_size>
    502b: a5 11        	lda	$11                     ; 0x11 <__rc1>
    502d: 69 ff        	adc	#$ff
    502f: 85 11        	sta	$11                     ; 0x11 <__rc1>
    5031: 68           	pla
    5032: a6 24        	ldx	$24                     ; 0x24 <__rc20>
    5034: da           	phx
    5035: a6 25        	ldx	$25                     ; 0x25 <__rc21>
    5037: da           	phx
    5038: a6 26        	ldx	$26                     ; 0x26 <__rc22>
    503a: da           	phx
    503b: a6 27        	ldx	$27                     ; 0x27 <__rc23>
    503d: da           	phx
    503e: 48           	pha
    503f: a5 28        	lda	$28                     ; 0x28 <__rc24>
    5041: a0 03        	ldy	#$3
    5043: 91 10        	sta	($10),y                 ; 0x10 <__zp_data_size>
    5045: a5 29        	lda	$29                     ; 0x29 <__rc25>
    5047: 88           	dey
    5048: 91 10        	sta	($10),y                 ; 0x10 <__zp_data_size>
    504a: a5 2a        	lda	$2a                     ; 0x2a <__rc26>
    504c: 88           	dey
    504d: 91 10        	sta	($10),y                 ; 0x10 <__zp_data_size>
    504f: a5 2b        	lda	$2b                     ; 0x2b <__rc27>
    5051: 88           	dey
    5052: 91 10        	sta	($10),y                 ; 0x10 <__zp_data_size>
    5054: 68           	pla
    5055: 85 24        	sta	$24                     ; 0x24 <__rc20>
    5057: a6 6e        	ldx	$6e                     ; 0x6e <theOne.8>
    5059: 86 26        	stx	$26                     ; 0x26 <__rc22>
    505b: a6 6f        	ldx	$6f                     ; 0x6f <theOne.8+0x1>
    505d: 86 27        	stx	$27                     ; 0x27 <__rc23>
    505f: 64 25        	stz	$25                     ; 0x25 <__rc21>
    5061: a2 19        	ldx	#$19
    5063: 86 12        	stx	$12                     ; 0x12 <__rc2>
    5065: 64 13        	stz	$13                     ; 0x13 <__rc3>
    5067: a2 00        	ldx	#$0
    5069: 20 28 7b     	jsr	$7b28 <__mulhi3>
    506c: 85 12        	sta	$12                     ; 0x12 <__rc2>
    506e: 86 13        	stx	$13                     ; 0x13 <__rc3>
    5070: 18           	clc
    5071: a5 26        	lda	$26                     ; 0x26 <__rc22>
    5073: 65 12        	adc	$12                     ; 0x12 <__rc2>
    5075: aa           	tax
    5076: a5 27        	lda	$27                     ; 0x27 <__rc23>
    5078: 65 13        	adc	$13                     ; 0x13 <__rc3>
    507a: 86 12        	stx	$12                     ; 0x12 <__rc2>
    507c: 85 13        	sta	$13                     ; 0x13 <__rc3>
    507e: 85 15        	sta	$15                     ; 0x15 <__rc5>
    5080: a0 04        	ldy	#$4
    5082: 86 1a        	stx	$1a                     ; 0x1a <__rc10>
    5084: 8a           	txa
    5085: 18           	clc
    5086: 69 04        	adc	#$4
    5088: 85 14        	sta	$14                     ; 0x14 <__rc4>
    508a: a6 15        	ldx	$15                     ; 0x15 <__rc5>
    508c: 86 16        	stx	$16                     ; 0x16 <__rc6>
    508e: a5 15        	lda	$15                     ; 0x15 <__rc5>
    5090: 69 00        	adc	#$0
    5092: 85 15        	sta	$15                     ; 0x15 <__rc5>
    5094: b1 12        	lda	($12),y                 ; 0x12 <__rc2>
    5096: 85 18        	sta	$18                     ; 0x18 <__rc8>
    5098: a0 01        	ldy	#$1
    509a: b1 14        	lda	($14),y                 ; 0x14 <__rc4>
    509c: aa           	tax
    509d: c8           	iny
    509e: b1 14        	lda	($14),y                 ; 0x14 <__rc4>
    50a0: 85 19        	sta	$19                     ; 0x19 <__rc9>
    50a2: c8           	iny
    50a3: b1 14        	lda	($14),y                 ; 0x14 <__rc4>
    50a5: d1 12        	cmp	($12),y                 ; 0x12 <__rc2>
    50a7: d0 21        	bne	$50ca <chainEvent+0xa7>
    50a9: 85 1b        	sta	$1b                     ; 0x1b <__rc11>
    50ab: a0 02        	ldy	#$2
    50ad: b1 12        	lda	($12),y                 ; 0x12 <__rc2>
    50af: 85 14        	sta	$14                     ; 0x14 <__rc4>
    50b1: a4 19        	ldy	$19                     ; 0x19 <__rc9>
    50b3: c4 14        	cpy	$14                     ; 0x14 <__rc4>
    50b5: d0 19        	bne	$50d0 <chainEvent+0xad>
    50b7: a0 01        	ldy	#$1
    50b9: b1 12        	lda	($12),y                 ; 0x12 <__rc2>
    50bb: 85 14        	sta	$14                     ; 0x14 <__rc4>
    50bd: e4 14        	cpx	$14                     ; 0x14 <__rc4>
    50bf: d0 26        	bne	$50e7 <chainEvent+0xc4>
    50c1: b2 12        	lda	($12)                   ; 0x12 <__rc2>
    50c3: 85 14        	sta	$14                     ; 0x14 <__rc4>
    50c5: 8a           	txa
    50c6: a6 18        	ldx	$18                     ; 0x18 <__rc8>
    50c8: 80 1e        	bra	$50e8 <chainEvent+0xc5>
    50ca: 85 1b        	sta	$1b                     ; 0x1b <__rc11>
    50cc: d1 12        	cmp	($12),y                 ; 0x12 <__rc2>
    50ce: 80 02        	bra	$50d2 <chainEvent+0xaf>
    50d0: c4 14        	cpy	$14                     ; 0x14 <__rc4>
    50d2: 8a           	txa
    50d3: 90 17        	bcc	$50ec <chainEvent+0xc9>
    50d5: a0 18        	ldy	#$18
    50d7: a9 01        	lda	#$1
    50d9: 91 12        	sta	($12),y                 ; 0x12 <__rc2>
    50db: e6 6c        	inc	$6c                     ; 0x6c <theOne.7>
    50dd: f0 03        	beq	$50e2 <chainEvent+0xbf>
    50df: 4c 80 5b     	jmp	$5b80 <chainEvent+0xb5d>
    50e2: e6 6d        	inc	$6d                     ; 0x6d <theOne.7+0x1>
    50e4: 4c 80 5b     	jmp	$5b80 <chainEvent+0xb5d>
    50e7: 8a           	txa
    50e8: e4 14        	cpx	$14                     ; 0x14 <__rc4>
    50ea: b0 e9        	bcs	$50d5 <chainEvent+0xb2>
    50ec: 85 17        	sta	$17                     ; 0x17 <__rc7>
    50ee: a5 1a        	lda	$1a                     ; 0x1a <__rc10>
    50f0: 18           	clc
    50f1: 69 08        	adc	#$8
    50f3: 85 14        	sta	$14                     ; 0x14 <__rc4>
    50f5: a5 16        	lda	$16                     ; 0x16 <__rc6>
    50f7: 69 00        	adc	#$0
    50f9: 85 15        	sta	$15                     ; 0x15 <__rc5>
    50fb: 18           	clc
    50fc: a5 1a        	lda	$1a                     ; 0x1a <__rc10>
    50fe: 69 04        	adc	#$4
    5100: a8           	tay
    5101: a5 16        	lda	$16                     ; 0x16 <__rc6>
    5103: 69 00        	adc	#$0
    5105: 84 16        	sty	$16                     ; 0x16 <__rc6>
    5107: a6 17        	ldx	$17                     ; 0x17 <__rc7>
    5109: 86 1c        	stx	$1c                     ; 0x1c <__rc12>
    510b: a6 17        	ldx	$17                     ; 0x17 <__rc7>
    510d: 86 1a        	stx	$1a                     ; 0x1a <__rc10>
    510f: 85 17        	sta	$17                     ; 0x17 <__rc7>
    5111: a6 19        	ldx	$19                     ; 0x19 <__rc9>
    5113: 86 1e        	stx	$1e                     ; 0x1e <__rc14>
    5115: a5 18        	lda	$18                     ; 0x18 <__rc8>
    5117: a6 1b        	ldx	$1b                     ; 0x1b <__rc11>
    5119: 86 1d        	stx	$1d                     ; 0x1d <__rc13>
    511b: 1a           	inc
    511c: d0 0a        	bne	$5128 <chainEvent+0x105>
    511e: e6 1c        	inc	$1c                     ; 0x1c <__rc12>
    5120: d0 06        	bne	$5128 <chainEvent+0x105>
    5122: e6 1e        	inc	$1e                     ; 0x1e <__rc14>
    5124: d0 02        	bne	$5128 <chainEvent+0x105>
    5126: e6 1d        	inc	$1d                     ; 0x1d <__rc13>
    5128: a0 04        	ldy	#$4
    512a: 91 12        	sta	($12),y                 ; 0x12 <__rc2>
    512c: a0 01        	ldy	#$1
    512e: a5 1c        	lda	$1c                     ; 0x1c <__rc12>
    5130: 91 16        	sta	($16),y                 ; 0x16 <__rc6>
    5132: a2 01        	ldx	#$1
    5134: 86 1c        	stx	$1c                     ; 0x1c <__rc12>
    5136: c8           	iny
    5137: a5 1e        	lda	$1e                     ; 0x1e <__rc14>
    5139: 91 16        	sta	($16),y                 ; 0x16 <__rc6>
    513b: e8           	inx
    513c: 86 1b        	stx	$1b                     ; 0x1b <__rc11>
    513e: c8           	iny
    513f: a5 1d        	lda	$1d                     ; 0x1d <__rc13>
    5141: 91 16        	sta	($16),y                 ; 0x16 <__rc6>
    5143: 18           	clc
    5144: a0 08        	ldy	#$8
    5146: a2 08        	ldx	#$8
    5148: 86 27        	stx	$27                     ; 0x27 <__rc23>
    514a: a5 18        	lda	$18                     ; 0x18 <__rc8>
    514c: 71 12        	adc	($12),y                 ; 0x12 <__rc2>
    514e: 85 12        	sta	$12                     ; 0x12 <__rc2>
    5150: a5 1a        	lda	$1a                     ; 0x1a <__rc10>
    5152: a4 1c        	ldy	$1c                     ; 0x1c <__rc12>
    5154: 71 14        	adc	($14),y                 ; 0x14 <__rc4>
    5156: 85 13        	sta	$13                     ; 0x13 <__rc3>
    5158: a2 02        	ldx	#$2
    515a: 86 28        	stx	$28                     ; 0x28 <__rc24>
    515c: a5 19        	lda	$19                     ; 0x19 <__rc9>
    515e: a4 1b        	ldy	$1b                     ; 0x1b <__rc11>
    5160: 71 14        	adc	($14),y                 ; 0x14 <__rc4>
    5162: 85 14        	sta	$14                     ; 0x14 <__rc4>
    5164: a5 13        	lda	$13                     ; 0x13 <__rc3>
    5166: 0a           	asl
    5167: 26 14        	rol	$14                     ; 0x14 <__rc4>
    5169: 0a           	asl
    516a: 26 14        	rol	$14                     ; 0x14 <__rc4>
    516c: 0a           	asl
    516d: a5 14        	lda	$14                     ; 0x14 <__rc4>
    516f: 2a           	rol
    5170: a6 0f        	ldx	$f                      ; 0xf
    5172: 78           	sei
    5173: 85 0f        	sta	$f                      ; 0xf
    5175: a5 13        	lda	$13                     ; 0x13 <__rc3>
    5177: 09 e0        	ora	#$e0
    5179: 85 13        	sta	$13                     ; 0x13 <__rc3>
    517b: b2 12        	lda	($12)                   ; 0x12 <__rc2>
    517d: 86 0f        	stx	$f                      ; 0xf
    517f: 58           	cli
    5180: a2 00        	ldx	#$0
    5182: a8           	tay
    5183: 30 13        	bmi	$5198 <chainEvent+0x175>
    5185: 64 2b        	stz	$2b                     ; 0x2b <__rc27>
    5187: 64 27        	stz	$27                     ; 0x27 <__rc23>
    5189: 64 28        	stz	$28                     ; 0x28 <__rc24>
    518b: 64 2a        	stz	$2a                     ; 0x2a <__rc26>
    518d: 64 14        	stz	$14                     ; 0x14 <__rc4>
    518f: 64 12        	stz	$12                     ; 0x12 <__rc2>
    5191: 64 29        	stz	$29                     ; 0x29 <__rc25>
    5193: 64 13        	stz	$13                     ; 0x13 <__rc3>
    5195: 4c a4 53     	jmp	$53a4 <chainEvent+0x381>
    5198: 86 2a        	stx	$2a                     ; 0x2a <__rc26>
    519a: 4a           	lsr
    519b: aa           	tax
    519c: a9 00        	lda	#$0
    519e: 6a           	ror
    519f: 29 80        	and	#$80
    51a1: a0 08        	ldy	#$8
    51a3: 91 10        	sta	($10),y                 ; 0x10 <__zp_data_size>
    51a5: 8a           	txa
    51a6: 29 3f        	and	#$3f
    51a8: 85 2b        	sta	$2b                     ; 0x2b <__rc27>
    51aa: a6 6e        	ldx	$6e                     ; 0x6e <theOne.8>
    51ac: 86 26        	stx	$26                     ; 0x26 <__rc22>
    51ae: a6 6f        	ldx	$6f                     ; 0x6f <theOne.8+0x1>
    51b0: 86 29        	stx	$29                     ; 0x29 <__rc25>
    51b2: a2 19        	ldx	#$19
    51b4: 86 12        	stx	$12                     ; 0x12 <__rc2>
    51b6: 64 13        	stz	$13                     ; 0x13 <__rc3>
    51b8: a2 00        	ldx	#$0
    51ba: a5 24        	lda	$24                     ; 0x24 <__rc20>
    51bc: 20 28 7b     	jsr	$7b28 <__mulhi3>
    51bf: 85 12        	sta	$12                     ; 0x12 <__rc2>
    51c1: 86 13        	stx	$13                     ; 0x13 <__rc3>
    51c3: a5 26        	lda	$26                     ; 0x26 <__rc22>
    51c5: a6 2a        	ldx	$2a                     ; 0x2a <__rc26>
    51c7: e0 01        	cpx	#$1
    51c9: 65 12        	adc	$12                     ; 0x12 <__rc2>
    51cb: a8           	tay
    51cc: a5 29        	lda	$29                     ; 0x29 <__rc25>
    51ce: 65 13        	adc	$13                     ; 0x13 <__rc3>
    51d0: aa           	tax
    51d1: 84 12        	sty	$12                     ; 0x12 <__rc2>
    51d3: 85 13        	sta	$13                     ; 0x13 <__rc3>
    51d5: 98           	tya
    51d6: 18           	clc
    51d7: 69 08        	adc	#$8
    51d9: 85 14        	sta	$14                     ; 0x14 <__rc4>
    51db: 8a           	txa
    51dc: 69 00        	adc	#$0
    51de: 85 15        	sta	$15                     ; 0x15 <__rc5>
    51e0: 18           	clc
    51e1: 98           	tya
    51e2: 69 04        	adc	#$4
    51e4: 85 16        	sta	$16                     ; 0x16 <__rc6>
    51e6: 8a           	txa
    51e7: 69 00        	adc	#$0
    51e9: 85 17        	sta	$17                     ; 0x17 <__rc7>
    51eb: a0 04        	ldy	#$4
    51ed: b1 12        	lda	($12),y                 ; 0x12 <__rc2>
    51ef: 84 1c        	sty	$1c                     ; 0x1c <__rc12>
    51f1: 85 18        	sta	$18                     ; 0x18 <__rc8>
    51f3: a0 01        	ldy	#$1
    51f5: b1 16        	lda	($16),y                 ; 0x16 <__rc6>
    51f7: 85 1a        	sta	$1a                     ; 0x1a <__rc10>
    51f9: 84 19        	sty	$19                     ; 0x19 <__rc9>
    51fb: a4 28        	ldy	$28                     ; 0x28 <__rc24>
    51fd: b1 16        	lda	($16),y                 ; 0x16 <__rc6>
    51ff: aa           	tax
    5200: 84 1b        	sty	$1b                     ; 0x1b <__rc11>
    5202: a0 03        	ldy	#$3
    5204: b1 16        	lda	($16),y                 ; 0x16 <__rc6>
    5206: 85 1f        	sta	$1f                     ; 0x1f <__rc15>
    5208: 84 1d        	sty	$1d                     ; 0x1d <__rc13>
    520a: a5 18        	lda	$18                     ; 0x18 <__rc8>
    520c: a4 1a        	ldy	$1a                     ; 0x1a <__rc10>
    520e: 86 22        	stx	$22                     ; 0x22 <__rc18>
    5210: 1a           	inc
    5211: d0 09        	bne	$521c <chainEvent+0x1f9>
    5213: c8           	iny
    5214: d0 06        	bne	$521c <chainEvent+0x1f9>
    5216: e6 22        	inc	$22                     ; 0x22 <__rc18>
    5218: d0 02        	bne	$521c <chainEvent+0x1f9>
    521a: e6 1f        	inc	$1f                     ; 0x1f <__rc15>
    521c: 84 23        	sty	$23                     ; 0x23 <__rc19>
    521e: a4 1c        	ldy	$1c                     ; 0x1c <__rc12>
    5220: 91 12        	sta	($12),y                 ; 0x12 <__rc2>
    5222: a4 19        	ldy	$19                     ; 0x19 <__rc9>
    5224: a5 23        	lda	$23                     ; 0x23 <__rc19>
    5226: 91 16        	sta	($16),y                 ; 0x16 <__rc6>
    5228: a4 19        	ldy	$19                     ; 0x19 <__rc9>
    522a: 84 1c        	sty	$1c                     ; 0x1c <__rc12>
    522c: a4 1b        	ldy	$1b                     ; 0x1b <__rc11>
    522e: a5 22        	lda	$22                     ; 0x22 <__rc18>
    5230: 91 16        	sta	($16),y                 ; 0x16 <__rc6>
    5232: 84 19        	sty	$19                     ; 0x19 <__rc9>
    5234: a4 1d        	ldy	$1d                     ; 0x1d <__rc13>
    5236: a5 1f        	lda	$1f                     ; 0x1f <__rc15>
    5238: 91 16        	sta	($16),y                 ; 0x16 <__rc6>
    523a: 18           	clc
    523b: a4 27        	ldy	$27                     ; 0x27 <__rc23>
    523d: a5 18        	lda	$18                     ; 0x18 <__rc8>
    523f: 71 12        	adc	($12),y                 ; 0x12 <__rc2>
    5241: 85 16        	sta	$16                     ; 0x16 <__rc6>
    5243: a5 1a        	lda	$1a                     ; 0x1a <__rc10>
    5245: a4 1c        	ldy	$1c                     ; 0x1c <__rc12>
    5247: 71 14        	adc	($14),y                 ; 0x14 <__rc4>
    5249: 85 12        	sta	$12                     ; 0x12 <__rc2>
    524b: 8a           	txa
    524c: a4 19        	ldy	$19                     ; 0x19 <__rc9>
    524e: 71 14        	adc	($14),y                 ; 0x14 <__rc4>
    5250: 85 13        	sta	$13                     ; 0x13 <__rc3>
    5252: a5 12        	lda	$12                     ; 0x12 <__rc2>
    5254: 06 12        	asl	$12                     ; 0x12 <__rc2>
    5256: 26 13        	rol	$13                     ; 0x13 <__rc3>
    5258: 06 12        	asl	$12                     ; 0x12 <__rc2>
    525a: 26 13        	rol	$13                     ; 0x13 <__rc3>
    525c: 06 12        	asl	$12                     ; 0x12 <__rc2>
    525e: 26 13        	rol	$13                     ; 0x13 <__rc3>
    5260: a4 13        	ldy	$13                     ; 0x13 <__rc3>
    5262: a6 0f        	ldx	$f                      ; 0xf
    5264: 78           	sei
    5265: 84 0f        	sty	$f                      ; 0xf
    5267: a4 16        	ldy	$16                     ; 0x16 <__rc6>
    5269: 84 12        	sty	$12                     ; 0x12 <__rc2>
    526b: 09 e0        	ora	#$e0
    526d: 85 13        	sta	$13                     ; 0x13 <__rc3>
    526f: b2 12        	lda	($12)                   ; 0x12 <__rc2>
    5271: 86 0f        	stx	$f                      ; 0xf
    5273: 58           	cli
    5274: aa           	tax
    5275: 30 11        	bmi	$5288 <chainEvent+0x265>
    5277: 64 28        	stz	$28                     ; 0x28 <__rc24>
    5279: 64 2a        	stz	$2a                     ; 0x2a <__rc26>
    527b: 64 14        	stz	$14                     ; 0x14 <__rc4>
    527d: 64 12        	stz	$12                     ; 0x12 <__rc2>
    527f: 64 27        	stz	$27                     ; 0x27 <__rc23>
    5281: 64 13        	stz	$13                     ; 0x13 <__rc3>
    5283: 85 29        	sta	$29                     ; 0x29 <__rc25>
    5285: 4c a0 53     	jmp	$53a0 <chainEvent+0x37d>
    5288: 4a           	lsr
    5289: aa           	tax
    528a: a9 00        	lda	#$0
    528c: 6a           	ror
    528d: a4 2b        	ldy	$2b                     ; 0x2b <__rc27>
    528f: 84 26        	sty	$26                     ; 0x26 <__rc22>
    5291: 46 26        	lsr	$26                     ; 0x26 <__rc22>
    5293: a4 26        	ldy	$26                     ; 0x26 <__rc22>
    5295: 84 27        	sty	$27                     ; 0x27 <__rc23>
    5297: 48           	pha
    5298: a0 08        	ldy	#$8
    529a: b1 10        	lda	($10),y                 ; 0x10 <__zp_data_size>
    529c: 85 26        	sta	$26                     ; 0x26 <__rc22>
    529e: 66 26        	ror	$26                     ; 0x26 <__rc22>
    52a0: a5 26        	lda	$26                     ; 0x26 <__rc22>
    52a2: 85 2b        	sta	$2b                     ; 0x2b <__rc27>
    52a4: 64 14        	stz	$14                     ; 0x14 <__rc4>
    52a6: 66 14        	ror	$14                     ; 0x14 <__rc4>
    52a8: a5 14        	lda	$14                     ; 0x14 <__rc4>
    52aa: 91 10        	sta	($10),y                 ; 0x10 <__zp_data_size>
    52ac: 68           	pla
    52ad: 29 80        	and	#$80
    52af: 85 29        	sta	$29                     ; 0x29 <__rc25>
    52b1: 8a           	txa
    52b2: 29 3f        	and	#$3f
    52b4: 85 2a        	sta	$2a                     ; 0x2a <__rc26>
    52b6: 64 13        	stz	$13                     ; 0x13 <__rc3>
    52b8: a6 6e        	ldx	$6e                     ; 0x6e <theOne.8>
    52ba: 86 26        	stx	$26                     ; 0x26 <__rc22>
    52bc: a6 6f        	ldx	$6f                     ; 0x6f <theOne.8+0x1>
    52be: 86 28        	stx	$28                     ; 0x28 <__rc24>
    52c0: a0 19        	ldy	#$19
    52c2: a2 00        	ldx	#$0
    52c4: 84 12        	sty	$12                     ; 0x12 <__rc2>
    52c6: a5 24        	lda	$24                     ; 0x24 <__rc20>
    52c8: 20 28 7b     	jsr	$7b28 <__mulhi3>
    52cb: 85 12        	sta	$12                     ; 0x12 <__rc2>
    52cd: 86 13        	stx	$13                     ; 0x13 <__rc3>
    52cf: a5 26        	lda	$26                     ; 0x26 <__rc22>
    52d1: 18           	clc
    52d2: 65 12        	adc	$12                     ; 0x12 <__rc2>
    52d4: a8           	tay
    52d5: a5 28        	lda	$28                     ; 0x28 <__rc24>
    52d7: 65 13        	adc	$13                     ; 0x13 <__rc3>
    52d9: aa           	tax
    52da: 84 12        	sty	$12                     ; 0x12 <__rc2>
    52dc: 85 13        	sta	$13                     ; 0x13 <__rc3>
    52de: 98           	tya
    52df: 84 16        	sty	$16                     ; 0x16 <__rc6>
    52e1: 18           	clc
    52e2: 69 08        	adc	#$8
    52e4: 85 14        	sta	$14                     ; 0x14 <__rc4>
    52e6: 8a           	txa
    52e7: 69 00        	adc	#$0
    52e9: 85 15        	sta	$15                     ; 0x15 <__rc5>
    52eb: a0 04        	ldy	#$4
    52ed: 18           	clc
    52ee: a5 16        	lda	$16                     ; 0x16 <__rc6>
    52f0: 69 04        	adc	#$4
    52f2: 85 16        	sta	$16                     ; 0x16 <__rc6>
    52f4: 8a           	txa
    52f5: 69 00        	adc	#$0
    52f7: 85 17        	sta	$17                     ; 0x17 <__rc7>
    52f9: b1 12        	lda	($12),y                 ; 0x12 <__rc2>
    52fb: a2 04        	ldx	#$4
    52fd: 86 1d        	stx	$1d                     ; 0x1d <__rc13>
    52ff: 85 18        	sta	$18                     ; 0x18 <__rc8>
    5301: a2 01        	ldx	#$1
    5303: 86 19        	stx	$19                     ; 0x19 <__rc9>
    5305: a4 19        	ldy	$19                     ; 0x19 <__rc9>
    5307: b1 16        	lda	($16),y                 ; 0x16 <__rc6>
    5309: 85 1b        	sta	$1b                     ; 0x1b <__rc11>
    530b: a0 02        	ldy	#$2
    530d: b1 16        	lda	($16),y                 ; 0x16 <__rc6>
    530f: 85 1f        	sta	$1f                     ; 0x1f <__rc15>
    5311: e8           	inx
    5312: 86 1a        	stx	$1a                     ; 0x1a <__rc10>
    5314: c8           	iny
    5315: b1 16        	lda	($16),y                 ; 0x16 <__rc6>
    5317: 85 22        	sta	$22                     ; 0x22 <__rc18>
    5319: e8           	inx
    531a: 86 1c        	stx	$1c                     ; 0x1c <__rc12>
    531c: a6 18        	ldx	$18                     ; 0x18 <__rc8>
    531e: 86 1e        	stx	$1e                     ; 0x1e <__rc14>
    5320: a4 1b        	ldy	$1b                     ; 0x1b <__rc11>
    5322: a5 1f        	lda	$1f                     ; 0x1f <__rc15>
    5324: a6 1f        	ldx	$1f                     ; 0x1f <__rc15>
    5326: 5a           	phy
    5327: a4 22        	ldy	$22                     ; 0x22 <__rc18>
    5329: 84 1f        	sty	$1f                     ; 0x1f <__rc15>
    532b: 7a           	ply
    532c: e6 1e        	inc	$1e                     ; 0x1e <__rc14>
    532e: d0 08        	bne	$5338 <chainEvent+0x315>
    5330: c8           	iny
    5331: d0 05        	bne	$5338 <chainEvent+0x315>
    5333: 1a           	inc
    5334: d0 02        	bne	$5338 <chainEvent+0x315>
    5336: e6 1f        	inc	$1f                     ; 0x1f <__rc15>
    5338: 85 22        	sta	$22                     ; 0x22 <__rc18>
    533a: 84 23        	sty	$23                     ; 0x23 <__rc19>
    533c: a4 1d        	ldy	$1d                     ; 0x1d <__rc13>
    533e: a5 1e        	lda	$1e                     ; 0x1e <__rc14>
    5340: 91 12        	sta	($12),y                 ; 0x12 <__rc2>
    5342: a4 19        	ldy	$19                     ; 0x19 <__rc9>
    5344: a5 23        	lda	$23                     ; 0x23 <__rc19>
    5346: 91 16        	sta	($16),y                 ; 0x16 <__rc6>
    5348: a0 01        	ldy	#$1
    534a: 84 19        	sty	$19                     ; 0x19 <__rc9>
    534c: a4 1a        	ldy	$1a                     ; 0x1a <__rc10>
    534e: a5 22        	lda	$22                     ; 0x22 <__rc18>
    5350: 91 16        	sta	($16),y                 ; 0x16 <__rc6>
    5352: a4 1c        	ldy	$1c                     ; 0x1c <__rc12>
    5354: a5 1f        	lda	$1f                     ; 0x1f <__rc15>
    5356: 91 16        	sta	($16),y                 ; 0x16 <__rc6>
    5358: 18           	clc
    5359: a0 08        	ldy	#$8
    535b: a5 18        	lda	$18                     ; 0x18 <__rc8>
    535d: 71 12        	adc	($12),y                 ; 0x12 <__rc2>
    535f: 85 17        	sta	$17                     ; 0x17 <__rc7>
    5361: a5 1b        	lda	$1b                     ; 0x1b <__rc11>
    5363: a4 19        	ldy	$19                     ; 0x19 <__rc9>
    5365: 71 14        	adc	($14),y                 ; 0x14 <__rc4>
    5367: 85 12        	sta	$12                     ; 0x12 <__rc2>
    5369: 8a           	txa
    536a: a4 1a        	ldy	$1a                     ; 0x1a <__rc10>
    536c: 71 14        	adc	($14),y                 ; 0x14 <__rc4>
    536e: 85 13        	sta	$13                     ; 0x13 <__rc3>
    5370: a5 12        	lda	$12                     ; 0x12 <__rc2>
    5372: 06 12        	asl	$12                     ; 0x12 <__rc2>
    5374: 26 13        	rol	$13                     ; 0x13 <__rc3>
    5376: 06 12        	asl	$12                     ; 0x12 <__rc2>
    5378: 26 13        	rol	$13                     ; 0x13 <__rc3>
    537a: 06 12        	asl	$12                     ; 0x12 <__rc2>
    537c: 26 13        	rol	$13                     ; 0x13 <__rc3>
    537e: a4 13        	ldy	$13                     ; 0x13 <__rc3>
    5380: a6 0f        	ldx	$f                      ; 0xf
    5382: 78           	sei
    5383: 84 0f        	sty	$f                      ; 0xf
    5385: a4 17        	ldy	$17                     ; 0x17 <__rc7>
    5387: 84 12        	sty	$12                     ; 0x12 <__rc2>
    5389: 09 e0        	ora	#$e0
    538b: 85 13        	sta	$13                     ; 0x13 <__rc3>
    538d: b2 12        	lda	($12)                   ; 0x12 <__rc2>
    538f: 86 0f        	stx	$f                      ; 0xf
    5391: 58           	cli
    5392: aa           	tax
    5393: 10 03        	bpl	$5398 <chainEvent+0x375>
    5395: 4c f1 59     	jmp	$59f1 <chainEvent+0x9ce>
    5398: 64 14        	stz	$14                     ; 0x14 <__rc4>
    539a: 85 12        	sta	$12                     ; 0x12 <__rc2>
    539c: 64 13        	stz	$13                     ; 0x13 <__rc3>
    539e: 64 28        	stz	$28                     ; 0x28 <__rc24>
    53a0: a0 08        	ldy	#$8
    53a2: b1 10        	lda	($10),y                 ; 0x10 <__zp_data_size>
    53a4: 05 29        	ora	$29                     ; 0x29 <__rc25>
    53a6: aa           	tax
    53a7: a5 2b        	lda	$2b                     ; 0x2b <__rc27>
    53a9: 05 2a        	ora	$2a                     ; 0x2a <__rc26>
    53ab: 85 15        	sta	$15                     ; 0x15 <__rc5>
    53ad: a5 27        	lda	$27                     ; 0x27 <__rc23>
    53af: 05 14        	ora	$14                     ; 0x14 <__rc4>
    53b1: 85 27        	sta	$27                     ; 0x27 <__rc23>
    53b3: 8a           	txa
    53b4: 05 12        	ora	$12                     ; 0x12 <__rc2>
    53b6: aa           	tax
    53b7: a5 15        	lda	$15                     ; 0x15 <__rc5>
    53b9: 05 13        	ora	$13                     ; 0x13 <__rc3>
    53bb: 85 26        	sta	$26                     ; 0x26 <__rc22>
    53bd: 8a           	txa
    53be: 05 25        	ora	$25                     ; 0x25 <__rc21>
    53c0: a6 6e        	ldx	$6e                     ; 0x6e <theOne.8>
    53c2: 86 2a        	stx	$2a                     ; 0x2a <__rc26>
    53c4: a6 6f        	ldx	$6f                     ; 0x6f <theOne.8+0x1>
    53c6: 86 25        	stx	$25                     ; 0x25 <__rc21>
    53c8: a0 19        	ldy	#$19
    53ca: 64 13        	stz	$13                     ; 0x13 <__rc3>
    53cc: a2 00        	ldx	#$0
    53ce: 84 12        	sty	$12                     ; 0x12 <__rc2>
    53d0: 85 29        	sta	$29                     ; 0x29 <__rc25>
    53d2: a5 24        	lda	$24                     ; 0x24 <__rc20>
    53d4: 20 28 7b     	jsr	$7b28 <__mulhi3>
    53d7: 85 18        	sta	$18                     ; 0x18 <__rc8>
    53d9: 85 12        	sta	$12                     ; 0x12 <__rc2>
    53db: 86 13        	stx	$13                     ; 0x13 <__rc3>
    53dd: 86 1c        	stx	$1c                     ; 0x1c <__rc12>
    53df: a2 00        	ldx	#$0
    53e1: 86 1d        	stx	$1d                     ; 0x1d <__rc13>
    53e3: 18           	clc
    53e4: a5 2a        	lda	$2a                     ; 0x2a <__rc26>
    53e6: 65 12        	adc	$12                     ; 0x12 <__rc2>
    53e8: a8           	tay
    53e9: a5 25        	lda	$25                     ; 0x25 <__rc21>
    53eb: 65 13        	adc	$13                     ; 0x13 <__rc3>
    53ed: aa           	tax
    53ee: 84 12        	sty	$12                     ; 0x12 <__rc2>
    53f0: 84 14        	sty	$14                     ; 0x14 <__rc4>
    53f2: 85 13        	sta	$13                     ; 0x13 <__rc3>
    53f4: a0 0c        	ldy	#$c
    53f6: a5 29        	lda	$29                     ; 0x29 <__rc25>
    53f8: 91 12        	sta	($12),y                 ; 0x12 <__rc2>
    53fa: a5 14        	lda	$14                     ; 0x14 <__rc4>
    53fc: a4 14        	ldy	$14                     ; 0x14 <__rc4>
    53fe: 84 16        	sty	$16                     ; 0x16 <__rc6>
    5400: 18           	clc
    5401: 69 0c        	adc	#$c
    5403: 85 14        	sta	$14                     ; 0x14 <__rc4>
    5405: 8a           	txa
    5406: 69 00        	adc	#$0
    5408: 85 15        	sta	$15                     ; 0x15 <__rc5>
    540a: a0 01        	ldy	#$1
    540c: a5 26        	lda	$26                     ; 0x26 <__rc22>
    540e: 91 14        	sta	($14),y                 ; 0x14 <__rc4>
    5410: 84 19        	sty	$19                     ; 0x19 <__rc9>
    5412: c8           	iny
    5413: a5 27        	lda	$27                     ; 0x27 <__rc23>
    5415: 91 14        	sta	($14),y                 ; 0x14 <__rc4>
    5417: 84 1a        	sty	$1a                     ; 0x1a <__rc10>
    5419: c8           	iny
    541a: a5 28        	lda	$28                     ; 0x28 <__rc24>
    541c: 91 14        	sta	($14),y                 ; 0x14 <__rc4>
    541e: 84 1b        	sty	$1b                     ; 0x1b <__rc11>
    5420: a5 16        	lda	$16                     ; 0x16 <__rc6>
    5422: 18           	clc
    5423: 69 08        	adc	#$8
    5425: 85 14        	sta	$14                     ; 0x14 <__rc4>
    5427: 8a           	txa
    5428: 69 00        	adc	#$0
    542a: 85 15        	sta	$15                     ; 0x15 <__rc5>
    542c: 18           	clc
    542d: a5 16        	lda	$16                     ; 0x16 <__rc6>
    542f: 69 04        	adc	#$4
    5431: 85 16        	sta	$16                     ; 0x16 <__rc6>
    5433: 8a           	txa
    5434: 69 00        	adc	#$0
    5436: 85 17        	sta	$17                     ; 0x17 <__rc7>
    5438: a0 08        	ldy	#$8
    543a: b1 12        	lda	($12),y                 ; 0x12 <__rc2>
    543c: 85 1e        	sta	$1e                     ; 0x1e <__rc14>
    543e: 84 22        	sty	$22                     ; 0x22 <__rc18>
    5440: a4 19        	ldy	$19                     ; 0x19 <__rc9>
    5442: b1 14        	lda	($14),y                 ; 0x14 <__rc4>
    5444: aa           	tax
    5445: a4 1a        	ldy	$1a                     ; 0x1a <__rc10>
    5447: b1 14        	lda	($14),y                 ; 0x14 <__rc4>
    5449: 85 15        	sta	$15                     ; 0x15 <__rc5>
    544b: 84 14        	sty	$14                     ; 0x14 <__rc4>
    544d: 18           	clc
    544e: a0 04        	ldy	#$4
    5450: a5 1e        	lda	$1e                     ; 0x1e <__rc14>
    5452: 71 12        	adc	($12),y                 ; 0x12 <__rc2>
    5454: 85 13        	sta	$13                     ; 0x13 <__rc3>
    5456: 84 23        	sty	$23                     ; 0x23 <__rc19>
    5458: 8a           	txa
    5459: a4 19        	ldy	$19                     ; 0x19 <__rc9>
    545b: 71 16        	adc	($16),y                 ; 0x16 <__rc6>
    545d: 85 12        	sta	$12                     ; 0x12 <__rc2>
    545f: a6 19        	ldx	$19                     ; 0x19 <__rc9>
    5461: 86 1a        	stx	$1a                     ; 0x1a <__rc10>
    5463: a4 14        	ldy	$14                     ; 0x14 <__rc4>
    5465: a5 15        	lda	$15                     ; 0x15 <__rc5>
    5467: 71 16        	adc	($16),y                 ; 0x16 <__rc6>
    5469: 85 14        	sta	$14                     ; 0x14 <__rc4>
    546b: 84 1e        	sty	$1e                     ; 0x1e <__rc14>
    546d: a5 12        	lda	$12                     ; 0x12 <__rc2>
    546f: 06 12        	asl	$12                     ; 0x12 <__rc2>
    5471: 26 14        	rol	$14                     ; 0x14 <__rc4>
    5473: 06 12        	asl	$12                     ; 0x12 <__rc2>
    5475: 26 14        	rol	$14                     ; 0x14 <__rc4>
    5477: 06 12        	asl	$12                     ; 0x12 <__rc2>
    5479: 26 14        	rol	$14                     ; 0x14 <__rc4>
    547b: a4 14        	ldy	$14                     ; 0x14 <__rc4>
    547d: a6 0f        	ldx	$f                      ; 0xf
    547f: 78           	sei
    5480: 84 0f        	sty	$f                      ; 0xf
    5482: a4 13        	ldy	$13                     ; 0x13 <__rc3>
    5484: 84 12        	sty	$12                     ; 0x12 <__rc2>
    5486: 09 e0        	ora	#$e0
    5488: 85 13        	sta	$13                     ; 0x13 <__rc3>
    548a: b2 12        	lda	($12)                   ; 0x12 <__rc2>
    548c: 85 19        	sta	$19                     ; 0x19 <__rc9>
    548e: 86 0f        	stx	$f                      ; 0xf
    5490: 58           	cli
    5491: a5 18        	lda	$18                     ; 0x18 <__rc8>
    5493: 18           	clc
    5494: 65 6e        	adc	$6e                     ; 0x6e <theOne.8>
    5496: aa           	tax
    5497: a5 1c        	lda	$1c                     ; 0x1c <__rc12>
    5499: 65 6f        	adc	$6f                     ; 0x6f <theOne.8+0x1>
    549b: a8           	tay
    549c: 8a           	txa
    549d: 18           	clc
    549e: 69 08        	adc	#$8
    54a0: 85 12        	sta	$12                     ; 0x12 <__rc2>
    54a2: 98           	tya
    54a3: 69 00        	adc	#$0
    54a5: 85 13        	sta	$13                     ; 0x13 <__rc3>
    54a7: 86 14        	stx	$14                     ; 0x14 <__rc4>
    54a9: 84 15        	sty	$15                     ; 0x15 <__rc5>
    54ab: 18           	clc
    54ac: 8a           	txa
    54ad: 69 04        	adc	#$4
    54af: 85 16        	sta	$16                     ; 0x16 <__rc6>
    54b1: 98           	tya
    54b2: 69 00        	adc	#$0
    54b4: 85 17        	sta	$17                     ; 0x17 <__rc7>
    54b6: a4 23        	ldy	$23                     ; 0x23 <__rc19>
    54b8: b1 14        	lda	($14),y                 ; 0x14 <__rc4>
    54ba: 85 1f        	sta	$1f                     ; 0x1f <__rc15>
    54bc: a4 1a        	ldy	$1a                     ; 0x1a <__rc10>
    54be: b1 16        	lda	($16),y                 ; 0x16 <__rc6>
    54c0: 85 24        	sta	$24                     ; 0x24 <__rc20>
    54c2: a4 1e        	ldy	$1e                     ; 0x1e <__rc14>
    54c4: b1 16        	lda	($16),y                 ; 0x16 <__rc6>
    54c6: aa           	tax
    54c7: a4 1b        	ldy	$1b                     ; 0x1b <__rc11>
    54c9: b1 16        	lda	($16),y                 ; 0x16 <__rc6>
    54cb: 84 17        	sty	$17                     ; 0x17 <__rc7>
    54cd: 85 16        	sta	$16                     ; 0x16 <__rc6>
    54cf: 18           	clc
    54d0: a4 22        	ldy	$22                     ; 0x22 <__rc18>
    54d2: a5 1f        	lda	$1f                     ; 0x1f <__rc15>
    54d4: 71 14        	adc	($14),y                 ; 0x14 <__rc4>
    54d6: 85 14        	sta	$14                     ; 0x14 <__rc4>
    54d8: a4 1a        	ldy	$1a                     ; 0x1a <__rc10>
    54da: a5 24        	lda	$24                     ; 0x24 <__rc20>
    54dc: 71 12        	adc	($12),y                 ; 0x12 <__rc2>
    54de: 85 15        	sta	$15                     ; 0x15 <__rc5>
    54e0: a4 1e        	ldy	$1e                     ; 0x1e <__rc14>
    54e2: 8a           	txa
    54e3: 71 12        	adc	($12),y                 ; 0x12 <__rc2>
    54e5: aa           	tax
    54e6: 84 1b        	sty	$1b                     ; 0x1b <__rc11>
    54e8: a5 16        	lda	$16                     ; 0x16 <__rc6>
    54ea: a4 17        	ldy	$17                     ; 0x17 <__rc7>
    54ec: 84 1e        	sty	$1e                     ; 0x1e <__rc14>
    54ee: a4 17        	ldy	$17                     ; 0x17 <__rc7>
    54f0: 71 12        	adc	($12),y                 ; 0x12 <__rc2>
    54f2: a8           	tay
    54f3: a5 15        	lda	$15                     ; 0x15 <__rc5>
    54f5: e6 14        	inc	$14                     ; 0x14 <__rc4>
    54f7: d0 07        	bne	$5500 <chainEvent+0x4dd>
    54f9: 1a           	inc
    54fa: d0 04        	bne	$5500 <chainEvent+0x4dd>
    54fc: e8           	inx
    54fd: d0 01        	bne	$5500 <chainEvent+0x4dd>
    54ff: c8           	iny
    5500: 85 12        	sta	$12                     ; 0x12 <__rc2>
    5502: 06 12        	asl	$12                     ; 0x12 <__rc2>
    5504: 86 13        	stx	$13                     ; 0x13 <__rc3>
    5506: 26 13        	rol	$13                     ; 0x13 <__rc3>
    5508: 06 12        	asl	$12                     ; 0x12 <__rc2>
    550a: 26 13        	rol	$13                     ; 0x13 <__rc3>
    550c: 06 12        	asl	$12                     ; 0x12 <__rc2>
    550e: 26 13        	rol	$13                     ; 0x13 <__rc3>
    5510: a4 13        	ldy	$13                     ; 0x13 <__rc3>
    5512: a6 0f        	ldx	$f                      ; 0xf
    5514: 78           	sei
    5515: 84 0f        	sty	$f                      ; 0xf
    5517: a4 14        	ldy	$14                     ; 0x14 <__rc4>
    5519: 84 12        	sty	$12                     ; 0x12 <__rc2>
    551b: 09 e0        	ora	#$e0
    551d: 85 13        	sta	$13                     ; 0x13 <__rc3>
    551f: b2 12        	lda	($12)                   ; 0x12 <__rc2>
    5521: 85 1f        	sta	$1f                     ; 0x1f <__rc15>
    5523: 86 0f        	stx	$f                      ; 0xf
    5525: 58           	cli
    5526: a5 18        	lda	$18                     ; 0x18 <__rc8>
    5528: 18           	clc
    5529: 65 6e        	adc	$6e                     ; 0x6e <theOne.8>
    552b: aa           	tax
    552c: a5 1c        	lda	$1c                     ; 0x1c <__rc12>
    552e: 65 6f        	adc	$6f                     ; 0x6f <theOne.8+0x1>
    5530: a8           	tay
    5531: 8a           	txa
    5532: 18           	clc
    5533: 69 08        	adc	#$8
    5535: 85 12        	sta	$12                     ; 0x12 <__rc2>
    5537: 98           	tya
    5538: 69 00        	adc	#$0
    553a: 85 13        	sta	$13                     ; 0x13 <__rc3>
    553c: 86 14        	stx	$14                     ; 0x14 <__rc4>
    553e: 84 15        	sty	$15                     ; 0x15 <__rc5>
    5540: 18           	clc
    5541: 8a           	txa
    5542: 69 04        	adc	#$4
    5544: 85 16        	sta	$16                     ; 0x16 <__rc6>
    5546: 98           	tya
    5547: 69 00        	adc	#$0
    5549: 85 17        	sta	$17                     ; 0x17 <__rc7>
    554b: a4 23        	ldy	$23                     ; 0x23 <__rc19>
    554d: b1 14        	lda	($14),y                 ; 0x14 <__rc4>
    554f: 85 23        	sta	$23                     ; 0x23 <__rc19>
    5551: 84 24        	sty	$24                     ; 0x24 <__rc20>
    5553: a4 1a        	ldy	$1a                     ; 0x1a <__rc10>
    5555: b1 16        	lda	($16),y                 ; 0x16 <__rc6>
    5557: 84 25        	sty	$25                     ; 0x25 <__rc21>
    5559: 85 1a        	sta	$1a                     ; 0x1a <__rc10>
    555b: a4 1b        	ldy	$1b                     ; 0x1b <__rc11>
    555d: b1 16        	lda	($16),y                 ; 0x16 <__rc6>
    555f: 84 17        	sty	$17                     ; 0x17 <__rc7>
    5561: 85 16        	sta	$16                     ; 0x16 <__rc6>
    5563: 18           	clc
    5564: a4 22        	ldy	$22                     ; 0x22 <__rc18>
    5566: a5 23        	lda	$23                     ; 0x23 <__rc19>
    5568: 71 14        	adc	($14),y                 ; 0x14 <__rc4>
    556a: 85 14        	sta	$14                     ; 0x14 <__rc4>
    556c: a5 1a        	lda	$1a                     ; 0x1a <__rc10>
    556e: a4 25        	ldy	$25                     ; 0x25 <__rc21>
    5570: 71 12        	adc	($12),y                 ; 0x12 <__rc2>
    5572: 85 15        	sta	$15                     ; 0x15 <__rc5>
    5574: a5 16        	lda	$16                     ; 0x16 <__rc6>
    5576: a4 17        	ldy	$17                     ; 0x17 <__rc7>
    5578: 71 12        	adc	($12),y                 ; 0x12 <__rc2>
    557a: 85 12        	sta	$12                     ; 0x12 <__rc2>
    557c: 84 23        	sty	$23                     ; 0x23 <__rc19>
    557e: 18           	clc
    557f: a5 14        	lda	$14                     ; 0x14 <__rc4>
    5581: 69 02        	adc	#$2
    5583: 85 14        	sta	$14                     ; 0x14 <__rc4>
    5585: a5 15        	lda	$15                     ; 0x15 <__rc5>
    5587: 69 00        	adc	#$0
    5589: aa           	tax
    558a: a5 12        	lda	$12                     ; 0x12 <__rc2>
    558c: 69 00        	adc	#$0
    558e: 85 13        	sta	$13                     ; 0x13 <__rc3>
    5590: 8a           	txa
    5591: 86 12        	stx	$12                     ; 0x12 <__rc2>
    5593: 06 12        	asl	$12                     ; 0x12 <__rc2>
    5595: 26 13        	rol	$13                     ; 0x13 <__rc3>
    5597: 06 12        	asl	$12                     ; 0x12 <__rc2>
    5599: 26 13        	rol	$13                     ; 0x13 <__rc3>
    559b: 06 12        	asl	$12                     ; 0x12 <__rc2>
    559d: 26 13        	rol	$13                     ; 0x13 <__rc3>
    559f: a4 13        	ldy	$13                     ; 0x13 <__rc3>
    55a1: a6 0f        	ldx	$f                      ; 0xf
    55a3: 78           	sei
    55a4: 84 0f        	sty	$f                      ; 0xf
    55a6: a4 14        	ldy	$14                     ; 0x14 <__rc4>
    55a8: 84 12        	sty	$12                     ; 0x12 <__rc2>
    55aa: 09 e0        	ora	#$e0
    55ac: 85 13        	sta	$13                     ; 0x13 <__rc3>
    55ae: b2 12        	lda	($12)                   ; 0x12 <__rc2>
    55b0: 85 1b        	sta	$1b                     ; 0x1b <__rc11>
    55b2: 86 0f        	stx	$f                      ; 0xf
    55b4: 58           	cli
    55b5: a5 18        	lda	$18                     ; 0x18 <__rc8>
    55b7: 18           	clc
    55b8: 65 6e        	adc	$6e                     ; 0x6e <theOne.8>
    55ba: aa           	tax
    55bb: a5 1c        	lda	$1c                     ; 0x1c <__rc12>
    55bd: 65 6f        	adc	$6f                     ; 0x6f <theOne.8+0x1>
    55bf: a8           	tay
    55c0: 8a           	txa
    55c1: 18           	clc
    55c2: 69 08        	adc	#$8
    55c4: 85 12        	sta	$12                     ; 0x12 <__rc2>
    55c6: 98           	tya
    55c7: 69 00        	adc	#$0
    55c9: 85 13        	sta	$13                     ; 0x13 <__rc3>
    55cb: 86 14        	stx	$14                     ; 0x14 <__rc4>
    55cd: 84 15        	sty	$15                     ; 0x15 <__rc5>
    55cf: 18           	clc
    55d0: 8a           	txa
    55d1: 69 04        	adc	#$4
    55d3: 85 16        	sta	$16                     ; 0x16 <__rc6>
    55d5: 98           	tya
    55d6: 69 00        	adc	#$0
    55d8: 85 17        	sta	$17                     ; 0x17 <__rc7>
    55da: a4 24        	ldy	$24                     ; 0x24 <__rc20>
    55dc: b1 14        	lda	($14),y                 ; 0x14 <__rc4>
    55de: aa           	tax
    55df: 84 1a        	sty	$1a                     ; 0x1a <__rc10>
    55e1: a4 25        	ldy	$25                     ; 0x25 <__rc21>
    55e3: b1 16        	lda	($16),y                 ; 0x16 <__rc6>
    55e5: 85 24        	sta	$24                     ; 0x24 <__rc20>
    55e7: a4 23        	ldy	$23                     ; 0x23 <__rc19>
    55e9: b1 16        	lda	($16),y                 ; 0x16 <__rc6>
    55eb: 84 17        	sty	$17                     ; 0x17 <__rc7>
    55ed: 85 16        	sta	$16                     ; 0x16 <__rc6>
    55ef: 18           	clc
    55f0: a4 22        	ldy	$22                     ; 0x22 <__rc18>
    55f2: 8a           	txa
    55f3: 71 14        	adc	($14),y                 ; 0x14 <__rc4>
    55f5: 85 14        	sta	$14                     ; 0x14 <__rc4>
    55f7: 84 23        	sty	$23                     ; 0x23 <__rc19>
    55f9: a5 24        	lda	$24                     ; 0x24 <__rc20>
    55fb: a4 25        	ldy	$25                     ; 0x25 <__rc21>
    55fd: 71 12        	adc	($12),y                 ; 0x12 <__rc2>
    55ff: 85 15        	sta	$15                     ; 0x15 <__rc5>
    5601: a4 17        	ldy	$17                     ; 0x17 <__rc7>
    5603: a5 16        	lda	$16                     ; 0x16 <__rc6>
    5605: 71 12        	adc	($12),y                 ; 0x12 <__rc2>
    5607: 85 12        	sta	$12                     ; 0x12 <__rc2>
    5609: 84 24        	sty	$24                     ; 0x24 <__rc20>
    560b: 18           	clc
    560c: a5 14        	lda	$14                     ; 0x14 <__rc4>
    560e: 69 03        	adc	#$3
    5610: 85 14        	sta	$14                     ; 0x14 <__rc4>
    5612: a5 15        	lda	$15                     ; 0x15 <__rc5>
    5614: 69 00        	adc	#$0
    5616: aa           	tax
    5617: a5 12        	lda	$12                     ; 0x12 <__rc2>
    5619: 69 00        	adc	#$0
    561b: 85 13        	sta	$13                     ; 0x13 <__rc3>
    561d: 8a           	txa
    561e: 86 12        	stx	$12                     ; 0x12 <__rc2>
    5620: 06 12        	asl	$12                     ; 0x12 <__rc2>
    5622: 26 13        	rol	$13                     ; 0x13 <__rc3>
    5624: 06 12        	asl	$12                     ; 0x12 <__rc2>
    5626: 26 13        	rol	$13                     ; 0x13 <__rc3>
    5628: 06 12        	asl	$12                     ; 0x12 <__rc2>
    562a: 26 13        	rol	$13                     ; 0x13 <__rc3>
    562c: a4 13        	ldy	$13                     ; 0x13 <__rc3>
    562e: a6 0f        	ldx	$f                      ; 0xf
    5630: 78           	sei
    5631: 84 0f        	sty	$f                      ; 0xf
    5633: a4 14        	ldy	$14                     ; 0x14 <__rc4>
    5635: 84 12        	sty	$12                     ; 0x12 <__rc2>
    5637: 09 e0        	ora	#$e0
    5639: 85 13        	sta	$13                     ; 0x13 <__rc3>
    563b: b2 12        	lda	($12)                   ; 0x12 <__rc2>
    563d: 85 22        	sta	$22                     ; 0x22 <__rc18>
    563f: 86 0f        	stx	$f                      ; 0xf
    5641: 58           	cli
    5642: a5 18        	lda	$18                     ; 0x18 <__rc8>
    5644: 18           	clc
    5645: 65 6e        	adc	$6e                     ; 0x6e <theOne.8>
    5647: aa           	tax
    5648: a5 1c        	lda	$1c                     ; 0x1c <__rc12>
    564a: 65 6f        	adc	$6f                     ; 0x6f <theOne.8+0x1>
    564c: a8           	tay
    564d: 8a           	txa
    564e: 18           	clc
    564f: 69 08        	adc	#$8
    5651: 85 12        	sta	$12                     ; 0x12 <__rc2>
    5653: 98           	tya
    5654: 69 00        	adc	#$0
    5656: 85 13        	sta	$13                     ; 0x13 <__rc3>
    5658: 86 14        	stx	$14                     ; 0x14 <__rc4>
    565a: 84 15        	sty	$15                     ; 0x15 <__rc5>
    565c: 18           	clc
    565d: 8a           	txa
    565e: 69 04        	adc	#$4
    5660: 85 16        	sta	$16                     ; 0x16 <__rc6>
    5662: 98           	tya
    5663: 69 00        	adc	#$0
    5665: 85 17        	sta	$17                     ; 0x17 <__rc7>
    5667: a4 1a        	ldy	$1a                     ; 0x1a <__rc10>
    5669: b1 14        	lda	($14),y                 ; 0x14 <__rc4>
    566b: aa           	tax
    566c: a4 25        	ldy	$25                     ; 0x25 <__rc21>
    566e: b1 16        	lda	($16),y                 ; 0x16 <__rc6>
    5670: 85 26        	sta	$26                     ; 0x26 <__rc22>
    5672: a4 24        	ldy	$24                     ; 0x24 <__rc20>
    5674: b1 16        	lda	($16),y                 ; 0x16 <__rc6>
    5676: 84 17        	sty	$17                     ; 0x17 <__rc7>
    5678: 85 16        	sta	$16                     ; 0x16 <__rc6>
    567a: 18           	clc
    567b: a4 23        	ldy	$23                     ; 0x23 <__rc19>
    567d: 8a           	txa
    567e: 71 14        	adc	($14),y                 ; 0x14 <__rc4>
    5680: 85 14        	sta	$14                     ; 0x14 <__rc4>
    5682: 84 24        	sty	$24                     ; 0x24 <__rc20>
    5684: a4 25        	ldy	$25                     ; 0x25 <__rc21>
    5686: a5 26        	lda	$26                     ; 0x26 <__rc22>
    5688: 71 12        	adc	($12),y                 ; 0x12 <__rc2>
    568a: 85 15        	sta	$15                     ; 0x15 <__rc5>
    568c: a4 17        	ldy	$17                     ; 0x17 <__rc7>
    568e: a5 16        	lda	$16                     ; 0x16 <__rc6>
    5690: 71 12        	adc	($12),y                 ; 0x12 <__rc2>
    5692: 85 12        	sta	$12                     ; 0x12 <__rc2>
    5694: 18           	clc
    5695: a5 14        	lda	$14                     ; 0x14 <__rc4>
    5697: 69 04        	adc	#$4
    5699: 85 14        	sta	$14                     ; 0x14 <__rc4>
    569b: a5 15        	lda	$15                     ; 0x15 <__rc5>
    569d: 69 00        	adc	#$0
    569f: aa           	tax
    56a0: a5 12        	lda	$12                     ; 0x12 <__rc2>
    56a2: 69 00        	adc	#$0
    56a4: 85 13        	sta	$13                     ; 0x13 <__rc3>
    56a6: 8a           	txa
    56a7: 86 12        	stx	$12                     ; 0x12 <__rc2>
    56a9: 06 12        	asl	$12                     ; 0x12 <__rc2>
    56ab: 26 13        	rol	$13                     ; 0x13 <__rc3>
    56ad: 06 12        	asl	$12                     ; 0x12 <__rc2>
    56af: 26 13        	rol	$13                     ; 0x13 <__rc3>
    56b1: 06 12        	asl	$12                     ; 0x12 <__rc2>
    56b3: 26 13        	rol	$13                     ; 0x13 <__rc3>
    56b5: a4 13        	ldy	$13                     ; 0x13 <__rc3>
    56b7: a6 0f        	ldx	$f                      ; 0xf
    56b9: 78           	sei
    56ba: 84 0f        	sty	$f                      ; 0xf
    56bc: a4 14        	ldy	$14                     ; 0x14 <__rc4>
    56be: 84 12        	sty	$12                     ; 0x12 <__rc2>
    56c0: 09 e0        	ora	#$e0
    56c2: 85 13        	sta	$13                     ; 0x13 <__rc3>
    56c4: b2 12        	lda	($12)                   ; 0x12 <__rc2>
    56c6: 85 23        	sta	$23                     ; 0x23 <__rc19>
    56c8: 86 0f        	stx	$f                      ; 0xf
    56ca: 58           	cli
    56cb: a5 18        	lda	$18                     ; 0x18 <__rc8>
    56cd: 18           	clc
    56ce: 65 6e        	adc	$6e                     ; 0x6e <theOne.8>
    56d0: a8           	tay
    56d1: a5 1c        	lda	$1c                     ; 0x1c <__rc12>
    56d3: 65 6f        	adc	$6f                     ; 0x6f <theOne.8+0x1>
    56d5: 84 12        	sty	$12                     ; 0x12 <__rc2>
    56d7: 85 13        	sta	$13                     ; 0x13 <__rc3>
    56d9: 85 15        	sta	$15                     ; 0x15 <__rc5>
    56db: 5a           	phy
    56dc: fa           	plx
    56dd: 18           	clc
    56de: 98           	tya
    56df: 69 04        	adc	#$4
    56e1: 85 14        	sta	$14                     ; 0x14 <__rc4>
    56e3: a5 15        	lda	$15                     ; 0x15 <__rc5>
    56e5: 85 26        	sta	$26                     ; 0x26 <__rc22>
    56e7: 69 00        	adc	#$0
    56e9: 85 15        	sta	$15                     ; 0x15 <__rc5>
    56eb: a4 1a        	ldy	$1a                     ; 0x1a <__rc10>
    56ed: b1 12        	lda	($12),y                 ; 0x12 <__rc2>
    56ef: 85 1a        	sta	$1a                     ; 0x1a <__rc10>
    56f1: 84 16        	sty	$16                     ; 0x16 <__rc6>
    56f3: a4 25        	ldy	$25                     ; 0x25 <__rc21>
    56f5: b1 14        	lda	($14),y                 ; 0x14 <__rc4>
    56f7: 84 28        	sty	$28                     ; 0x28 <__rc24>
    56f9: 85 25        	sta	$25                     ; 0x25 <__rc21>
    56fb: a4 17        	ldy	$17                     ; 0x17 <__rc7>
    56fd: b1 14        	lda	($14),y                 ; 0x14 <__rc4>
    56ff: 84 27        	sty	$27                     ; 0x27 <__rc23>
    5701: 85 15        	sta	$15                     ; 0x15 <__rc5>
    5703: 18           	clc
    5704: a4 24        	ldy	$24                     ; 0x24 <__rc20>
    5706: a5 1a        	lda	$1a                     ; 0x1a <__rc10>
    5708: 71 12        	adc	($12),y                 ; 0x12 <__rc2>
    570a: a0 01        	ldy	#$1
    570c: b0 02        	bcs	$5710 <chainEvent+0x6ed>
    570e: a0 00        	ldy	#$0
    5710: 84 17        	sty	$17                     ; 0x17 <__rc7>
    5712: 85 14        	sta	$14                     ; 0x14 <__rc4>
    5714: 18           	clc
    5715: 8a           	txa
    5716: 69 08        	adc	#$8
    5718: 85 12        	sta	$12                     ; 0x12 <__rc2>
    571a: a5 26        	lda	$26                     ; 0x26 <__rc22>
    571c: 69 00        	adc	#$0
    571e: 85 13        	sta	$13                     ; 0x13 <__rc3>
    5720: a5 25        	lda	$25                     ; 0x25 <__rc21>
    5722: a4 28        	ldy	$28                     ; 0x28 <__rc24>
    5724: a6 17        	ldx	$17                     ; 0x17 <__rc7>
    5726: e0 01        	cpx	#$1
    5728: 71 12        	adc	($12),y                 ; 0x12 <__rc2>
    572a: 85 17        	sta	$17                     ; 0x17 <__rc7>
    572c: 84 25        	sty	$25                     ; 0x25 <__rc21>
    572e: a5 15        	lda	$15                     ; 0x15 <__rc5>
    5730: a4 27        	ldy	$27                     ; 0x27 <__rc23>
    5732: 71 12        	adc	($12),y                 ; 0x12 <__rc2>
    5734: 85 12        	sta	$12                     ; 0x12 <__rc2>
    5736: 84 26        	sty	$26                     ; 0x26 <__rc22>
    5738: 18           	clc
    5739: a5 14        	lda	$14                     ; 0x14 <__rc4>
    573b: 69 05        	adc	#$5
    573d: 85 14        	sta	$14                     ; 0x14 <__rc4>
    573f: a5 17        	lda	$17                     ; 0x17 <__rc7>
    5741: 69 00        	adc	#$0
    5743: aa           	tax
    5744: a5 12        	lda	$12                     ; 0x12 <__rc2>
    5746: 69 00        	adc	#$0
    5748: 85 13        	sta	$13                     ; 0x13 <__rc3>
    574a: 8a           	txa
    574b: 86 12        	stx	$12                     ; 0x12 <__rc2>
    574d: 06 12        	asl	$12                     ; 0x12 <__rc2>
    574f: 26 13        	rol	$13                     ; 0x13 <__rc3>
    5751: 06 12        	asl	$12                     ; 0x12 <__rc2>
    5753: 26 13        	rol	$13                     ; 0x13 <__rc3>
    5755: 06 12        	asl	$12                     ; 0x12 <__rc2>
    5757: 26 13        	rol	$13                     ; 0x13 <__rc3>
    5759: a4 13        	ldy	$13                     ; 0x13 <__rc3>
    575b: a6 0f        	ldx	$f                      ; 0xf
    575d: 78           	sei
    575e: 84 0f        	sty	$f                      ; 0xf
    5760: a4 14        	ldy	$14                     ; 0x14 <__rc4>
    5762: 84 12        	sty	$12                     ; 0x12 <__rc2>
    5764: 09 e0        	ora	#$e0
    5766: 85 13        	sta	$13                     ; 0x13 <__rc3>
    5768: b2 12        	lda	($12)                   ; 0x12 <__rc2>
    576a: 85 24        	sta	$24                     ; 0x24 <__rc20>
    576c: 86 0f        	stx	$f                      ; 0xf
    576e: 58           	cli
    576f: 18           	clc
    5770: a5 18        	lda	$18                     ; 0x18 <__rc8>
    5772: 65 6e        	adc	$6e                     ; 0x6e <theOne.8>
    5774: aa           	tax
    5775: a5 1c        	lda	$1c                     ; 0x1c <__rc12>
    5777: 65 6f        	adc	$6f                     ; 0x6f <theOne.8+0x1>
    5779: 85 13        	sta	$13                     ; 0x13 <__rc3>
    577b: 8a           	txa
    577c: a4 1d        	ldy	$1d                     ; 0x1d <__rc13>
    577e: c0 01        	cpy	#$1
    5780: 69 04        	adc	#$4
    5782: 85 14        	sta	$14                     ; 0x14 <__rc4>
    5784: a5 13        	lda	$13                     ; 0x13 <__rc3>
    5786: 69 00        	adc	#$0
    5788: 85 15        	sta	$15                     ; 0x15 <__rc5>
    578a: 86 18        	stx	$18                     ; 0x18 <__rc8>
    578c: 86 12        	stx	$12                     ; 0x12 <__rc2>
    578e: a6 13        	ldx	$13                     ; 0x13 <__rc3>
    5790: 86 17        	stx	$17                     ; 0x17 <__rc7>
    5792: a0 10        	ldy	#$10
    5794: a5 19        	lda	$19                     ; 0x19 <__rc9>
    5796: 91 12        	sta	($12),y                 ; 0x12 <__rc2>
    5798: c8           	iny
    5799: a5 1f        	lda	$1f                     ; 0x1f <__rc15>
    579b: 85 1a        	sta	$1a                     ; 0x1a <__rc10>
    579d: 91 12        	sta	($12),y                 ; 0x12 <__rc2>
    579f: c8           	iny
    57a0: a5 1b        	lda	$1b                     ; 0x1b <__rc11>
    57a2: 91 12        	sta	($12),y                 ; 0x12 <__rc2>
    57a4: a4 16        	ldy	$16                     ; 0x16 <__rc6>
    57a6: b1 12        	lda	($12),y                 ; 0x12 <__rc2>
    57a8: 85 16        	sta	$16                     ; 0x16 <__rc6>
    57aa: 84 1f        	sty	$1f                     ; 0x1f <__rc15>
    57ac: a4 25        	ldy	$25                     ; 0x25 <__rc21>
    57ae: b1 14        	lda	($14),y                 ; 0x14 <__rc4>
    57b0: 85 1c        	sta	$1c                     ; 0x1c <__rc12>
    57b2: a4 26        	ldy	$26                     ; 0x26 <__rc22>
    57b4: b1 14        	lda	($14),y                 ; 0x14 <__rc4>
    57b6: 85 27        	sta	$27                     ; 0x27 <__rc23>
    57b8: a6 1e        	ldx	$1e                     ; 0x1e <__rc14>
    57ba: a4 1e        	ldy	$1e                     ; 0x1e <__rc14>
    57bc: b1 14        	lda	($14),y                 ; 0x14 <__rc4>
    57be: 85 1e        	sta	$1e                     ; 0x1e <__rc14>
    57c0: a4 16        	ldy	$16                     ; 0x16 <__rc6>
    57c2: 84 2a        	sty	$2a                     ; 0x2a <__rc26>
    57c4: a5 1c        	lda	$1c                     ; 0x1c <__rc12>
    57c6: 85 2b        	sta	$2b                     ; 0x2b <__rc27>
    57c8: a4 27        	ldy	$27                     ; 0x27 <__rc23>
    57ca: 84 1d        	sty	$1d                     ; 0x1d <__rc13>
    57cc: a4 1e        	ldy	$1e                     ; 0x1e <__rc14>
    57ce: 84 29        	sty	$29                     ; 0x29 <__rc25>
    57d0: e6 2a        	inc	$2a                     ; 0x2a <__rc26>
    57d2: d0 0a        	bne	$57de <chainEvent+0x7bb>
    57d4: e6 2b        	inc	$2b                     ; 0x2b <__rc27>
    57d6: d0 06        	bne	$57de <chainEvent+0x7bb>
    57d8: e6 27        	inc	$27                     ; 0x27 <__rc23>
    57da: d0 02        	bne	$57de <chainEvent+0x7bb>
    57dc: e6 29        	inc	$29                     ; 0x29 <__rc25>
    57de: a4 1f        	ldy	$1f                     ; 0x1f <__rc15>
    57e0: a5 2a        	lda	$2a                     ; 0x2a <__rc26>
    57e2: 91 12        	sta	($12),y                 ; 0x12 <__rc2>
    57e4: a4 25        	ldy	$25                     ; 0x25 <__rc21>
    57e6: a5 2b        	lda	$2b                     ; 0x2b <__rc27>
    57e8: 85 1f        	sta	$1f                     ; 0x1f <__rc15>
    57ea: 91 14        	sta	($14),y                 ; 0x14 <__rc4>
    57ec: a5 27        	lda	$27                     ; 0x27 <__rc23>
    57ee: a4 26        	ldy	$26                     ; 0x26 <__rc22>
    57f0: 85 26        	sta	$26                     ; 0x26 <__rc22>
    57f2: 91 14        	sta	($14),y                 ; 0x14 <__rc4>
    57f4: da           	phx
    57f5: 7a           	ply
    57f6: a5 29        	lda	$29                     ; 0x29 <__rc25>
    57f8: 91 14        	sta	($14),y                 ; 0x14 <__rc4>
    57fa: a6 19        	ldx	$19                     ; 0x19 <__rc9>
    57fc: 30 4f        	bmi	$584d <chainEvent+0x82a>
    57fe: 8a           	txa
    57ff: a0 11        	ldy	#$11
    5801: 91 12        	sta	($12),y                 ; 0x12 <__rc2>
    5803: 86 1f        	stx	$1f                     ; 0x1f <__rc15>
    5805: a5 1a        	lda	$1a                     ; 0x1a <__rc10>
    5807: c8           	iny
    5808: 91 12        	sta	($12),y                 ; 0x12 <__rc2>
    580a: 85 1b        	sta	$1b                     ; 0x1b <__rc11>
    580c: a0 16        	ldy	#$16
    580e: b1 12        	lda	($12),y                 ; 0x12 <__rc2>
    5810: a0 10        	ldy	#$10
    5812: 91 12        	sta	($12),y                 ; 0x12 <__rc2>
    5814: 85 25        	sta	$25                     ; 0x25 <__rc21>
    5816: 18           	clc
    5817: a5 18        	lda	$18                     ; 0x18 <__rc8>
    5819: 69 04        	adc	#$4
    581b: 85 14        	sta	$14                     ; 0x14 <__rc4>
    581d: a5 17        	lda	$17                     ; 0x17 <__rc7>
    581f: 69 00        	adc	#$0
    5821: 85 15        	sta	$15                     ; 0x15 <__rc5>
    5823: a0 04        	ldy	#$4
    5825: a5 16        	lda	$16                     ; 0x16 <__rc6>
    5827: 91 12        	sta	($12),y                 ; 0x12 <__rc2>
    5829: a0 01        	ldy	#$1
    582b: a5 1c        	lda	$1c                     ; 0x1c <__rc12>
    582d: 91 14        	sta	($14),y                 ; 0x14 <__rc4>
    582f: a6 1c        	ldx	$1c                     ; 0x1c <__rc12>
    5831: c8           	iny
    5832: a5 1d        	lda	$1d                     ; 0x1d <__rc13>
    5834: 91 14        	sta	($14),y                 ; 0x14 <__rc4>
    5836: 85 1a        	sta	$1a                     ; 0x1a <__rc10>
    5838: c8           	iny
    5839: a5 1e        	lda	$1e                     ; 0x1e <__rc14>
    583b: 85 19        	sta	$19                     ; 0x19 <__rc9>
    583d: 91 14        	sta	($14),y                 ; 0x14 <__rc4>
    583f: 86 15        	stx	$15                     ; 0x15 <__rc5>
    5841: a6 1a        	ldx	$1a                     ; 0x1a <__rc10>
    5843: 86 14        	stx	$14                     ; 0x14 <__rc4>
    5845: a6 1f        	ldx	$1f                     ; 0x1f <__rc15>
    5847: 86 1a        	stx	$1a                     ; 0x1a <__rc10>
    5849: a5 25        	lda	$25                     ; 0x25 <__rc21>
    584b: 80 0f        	bra	$585c <chainEvent+0x839>
    584d: a4 2a        	ldy	$2a                     ; 0x2a <__rc26>
    584f: 84 16        	sty	$16                     ; 0x16 <__rc6>
    5851: a4 1f        	ldy	$1f                     ; 0x1f <__rc15>
    5853: 84 15        	sty	$15                     ; 0x15 <__rc5>
    5855: a4 26        	ldy	$26                     ; 0x26 <__rc22>
    5857: 84 14        	sty	$14                     ; 0x14 <__rc4>
    5859: 85 19        	sta	$19                     ; 0x19 <__rc9>
    585b: 8a           	txa
    585c: c9 ff        	cmp	#$ff
    585e: d0 03        	bne	$5863 <chainEvent+0x840>
    5860: 4c b5 58     	jmp	$58b5 <chainEvent+0x892>
    5863: c9 c0        	cmp	#$c0
    5865: b0 03        	bcs	$586a <chainEvent+0x847>
    5867: 4c 5f 59     	jmp	$595f <chainEvent+0x93c>
    586a: c9 e0        	cmp	#$e0
    586c: 90 03        	bcc	$5871 <chainEvent+0x84e>
    586e: 4c 8e 59     	jmp	$598e <chainEvent+0x96b>
    5871: aa           	tax
    5872: a5 16        	lda	$16                     ; 0x16 <__rc6>
    5874: 1a           	inc
    5875: d0 0a        	bne	$5881 <chainEvent+0x85e>
    5877: e6 15        	inc	$15                     ; 0x15 <__rc5>
    5879: d0 06        	bne	$5881 <chainEvent+0x85e>
    587b: e6 14        	inc	$14                     ; 0x14 <__rc4>
    587d: d0 02        	bne	$5881 <chainEvent+0x85e>
    587f: e6 19        	inc	$19                     ; 0x19 <__rc9>
    5881: a4 15        	ldy	$15                     ; 0x15 <__rc5>
    5883: 84 1a        	sty	$1a                     ; 0x1a <__rc10>
    5885: a4 14        	ldy	$14                     ; 0x14 <__rc4>
    5887: 84 16        	sty	$16                     ; 0x16 <__rc6>
    5889: a0 04        	ldy	#$4
    588b: 91 12        	sta	($12),y                 ; 0x12 <__rc2>
    588d: 18           	clc
    588e: a5 18        	lda	$18                     ; 0x18 <__rc8>
    5890: 69 04        	adc	#$4
    5892: 85 14        	sta	$14                     ; 0x14 <__rc4>
    5894: a5 17        	lda	$17                     ; 0x17 <__rc7>
    5896: 69 00        	adc	#$0
    5898: 85 15        	sta	$15                     ; 0x15 <__rc5>
    589a: a0 01        	ldy	#$1
    589c: a5 1a        	lda	$1a                     ; 0x1a <__rc10>
    589e: 91 14        	sta	($14),y                 ; 0x14 <__rc4>
    58a0: c8           	iny
    58a1: a5 16        	lda	$16                     ; 0x16 <__rc6>
    58a3: 91 14        	sta	($14),y                 ; 0x14 <__rc4>
    58a5: c8           	iny
    58a6: a5 19        	lda	$19                     ; 0x19 <__rc9>
    58a8: 91 14        	sta	($14),y                 ; 0x14 <__rc4>
    58aa: a0 17        	ldy	#$17
    58ac: a9 01        	lda	#$1
    58ae: 91 12        	sta	($12),y                 ; 0x12 <__rc2>
    58b0: 88           	dey
    58b1: 8a           	txa
    58b2: 4c 7e 5b     	jmp	$5b7e <chainEvent+0xb5b>
    58b5: a0 10        	ldy	#$10
    58b7: a9 ff        	lda	#$ff
    58b9: 91 12        	sta	($12),y                 ; 0x12 <__rc2>
    58bb: c8           	iny
    58bc: a5 1a        	lda	$1a                     ; 0x1a <__rc10>
    58be: 91 12        	sta	($12),y                 ; 0x12 <__rc2>
    58c0: c8           	iny
    58c1: a5 1b        	lda	$1b                     ; 0x1b <__rc11>
    58c3: 91 12        	sta	($12),y                 ; 0x12 <__rc2>
    58c5: 38           	sec
    58c6: a5 1a        	lda	$1a                     ; 0x1a <__rc10>
    58c8: e9 20        	sbc	#$20
    58ca: 50 02        	bvc	$58ce <chainEvent+0x8ab>
    58cc: 49 80        	eor	#$80
    58ce: aa           	tax
    58cf: 30 03        	bmi	$58d4 <chainEvent+0x8b1>
    58d1: 4c 65 59     	jmp	$5965 <chainEvent+0x942>
    58d4: a6 1a        	ldx	$1a                     ; 0x1a <__rc10>
    58d6: ca           	dex
    58d7: e0 07        	cpx	#$7
    58d9: 90 03        	bcc	$58de <chainEvent+0x8bb>
    58db: 4c 33 5b     	jmp	$5b33 <chainEvent+0xb10>
    58de: 18           	clc
    58df: a5 1b        	lda	$1b                     ; 0x1b <__rc11>
    58e1: 65 16        	adc	$16                     ; 0x16 <__rc6>
    58e3: a2 01        	ldx	#$1
    58e5: b0 02        	bcs	$58e9 <chainEvent+0x8c6>
    58e7: a2 00        	ldx	#$0
    58e9: 86 16        	stx	$16                     ; 0x16 <__rc6>
    58eb: a2 00        	ldx	#$0
    58ed: 86 1a        	stx	$1a                     ; 0x1a <__rc10>
    58ef: 18           	clc
    58f0: 69 02        	adc	#$2
    58f2: e8           	inx
    58f3: b0 02        	bcs	$58f7 <chainEvent+0x8d4>
    58f5: a2 00        	ldx	#$0
    58f7: a0 04        	ldy	#$4
    58f9: 91 12        	sta	($12),y                 ; 0x12 <__rc2>
    58fb: 64 12        	stz	$12                     ; 0x12 <__rc2>
    58fd: a5 18        	lda	$18                     ; 0x18 <__rc8>
    58ff: a4 1a        	ldy	$1a                     ; 0x1a <__rc10>
    5901: c0 01        	cpy	#$1
    5903: 69 04        	adc	#$4
    5905: a8           	tay
    5906: a5 17        	lda	$17                     ; 0x17 <__rc7>
    5908: 69 00        	adc	#$0
    590a: 85 17        	sta	$17                     ; 0x17 <__rc7>
    590c: a9 00        	lda	#$0
    590e: 5a           	phy
    590f: a4 16        	ldy	$16                     ; 0x16 <__rc6>
    5911: c0 01        	cpy	#$1
    5913: 65 15        	adc	$15                     ; 0x15 <__rc5>
    5915: a0 01        	ldy	#$1
    5917: b0 02        	bcs	$591b <chainEvent+0x8f8>
    5919: a0 00        	ldy	#$0
    591b: 84 13        	sty	$13                     ; 0x13 <__rc3>
    591d: 7a           	ply
    591e: 84 16        	sty	$16                     ; 0x16 <__rc6>
    5920: e0 01        	cpx	#$1
    5922: 69 00        	adc	#$0
    5924: a2 01        	ldx	#$1
    5926: b0 02        	bcs	$592a <chainEvent+0x907>
    5928: a2 00        	ldx	#$0
    592a: a0 01        	ldy	#$1
    592c: 91 16        	sta	($16),y                 ; 0x16 <__rc6>
    592e: a9 00        	lda	#$0
    5930: a4 13        	ldy	$13                     ; 0x13 <__rc3>
    5932: c0 01        	cpy	#$1
    5934: 65 14        	adc	$14                     ; 0x14 <__rc4>
    5936: a0 01        	ldy	#$1
    5938: b0 02        	bcs	$593c <chainEvent+0x919>
    593a: a0 00        	ldy	#$0
    593c: 84 13        	sty	$13                     ; 0x13 <__rc3>
    593e: e0 01        	cpx	#$1
    5940: 69 00        	adc	#$0
    5942: a2 01        	ldx	#$1
    5944: b0 02        	bcs	$5948 <chainEvent+0x925>
    5946: a2 00        	ldx	#$0
    5948: a0 02        	ldy	#$2
    594a: 91 16        	sta	($16),y                 ; 0x16 <__rc6>
    594c: a5 19        	lda	$19                     ; 0x19 <__rc9>
    594e: a4 13        	ldy	$13                     ; 0x13 <__rc3>
    5950: c0 01        	cpy	#$1
    5952: 65 12        	adc	$12                     ; 0x12 <__rc2>
    5954: e0 01        	cpx	#$1
    5956: 69 00        	adc	#$0
    5958: a0 03        	ldy	#$3
    595a: 91 16        	sta	($16),y                 ; 0x16 <__rc6>
    595c: 4c 80 5b     	jmp	$5b80 <chainEvent+0xb5d>
    595f: aa           	tax
    5960: 30 33        	bmi	$5995 <chainEvent+0x972>
    5962: 4c 80 5b     	jmp	$5b80 <chainEvent+0xb5d>
    5965: 18           	clc
    5966: a5 1a        	lda	$1a                     ; 0x1a <__rc10>
    5968: 69 af        	adc	#$af
    596a: c9 09        	cmp	#$9
    596c: 90 03        	bcc	$5971 <chainEvent+0x94e>
    596e: 4c d4 59     	jmp	$59d4 <chainEvent+0x9b1>
    5971: 0a           	asl
    5972: aa           	tax
    5973: 7c 38 7c     	jmp	($7c38,x)               ; 0x7c38 <__BLOCK_SIZE+0x5c38>
    5976: a0 13        	ldy	#$13
    5978: a5 22        	lda	$22                     ; 0x22 <__rc18>
    597a: 91 12        	sta	($12),y                 ; 0x12 <__rc2>
    597c: c8           	iny
    597d: a5 23        	lda	$23                     ; 0x23 <__rc19>
    597f: 91 12        	sta	($12),y                 ; 0x12 <__rc2>
    5981: c8           	iny
    5982: a5 24        	lda	$24                     ; 0x24 <__rc20>
    5984: 91 12        	sta	($12),y                 ; 0x12 <__rc2>
    5986: a5 16        	lda	$16                     ; 0x16 <__rc6>
    5988: 18           	clc
    5989: 69 05        	adc	#$5
    598b: 4c 51 5b     	jmp	$5b51 <chainEvent+0xb2e>
    598e: c9 f0        	cmp	#$f0
    5990: 90 03        	bcc	$5995 <chainEvent+0x972>
    5992: 4c 80 5b     	jmp	$5b80 <chainEvent+0xb5d>
    5995: a0 16        	ldy	#$16
    5997: 91 12        	sta	($12),y                 ; 0x12 <__rc2>
    5999: a5 16        	lda	$16                     ; 0x16 <__rc6>
    599b: 18           	clc
    599c: 69 02        	adc	#$2
    599e: a2 01        	ldx	#$1
    59a0: b0 02        	bcs	$59a4 <chainEvent+0x981>
    59a2: a2 00        	ldx	#$0
    59a4: a0 04        	ldy	#$4
    59a6: 91 12        	sta	($12),y                 ; 0x12 <__rc2>
    59a8: 18           	clc
    59a9: a5 18        	lda	$18                     ; 0x18 <__rc8>
    59ab: 69 04        	adc	#$4
    59ad: 85 16        	sta	$16                     ; 0x16 <__rc6>
    59af: a5 17        	lda	$17                     ; 0x17 <__rc7>
    59b1: 69 00        	adc	#$0
    59b3: 85 17        	sta	$17                     ; 0x17 <__rc7>
    59b5: e0 01        	cpx	#$1
    59b7: a5 15        	lda	$15                     ; 0x15 <__rc5>
    59b9: 69 00        	adc	#$0
    59bb: a0 01        	ldy	#$1
    59bd: 91 16        	sta	($16),y                 ; 0x16 <__rc6>
    59bf: a5 14        	lda	$14                     ; 0x14 <__rc4>
    59c1: 69 00        	adc	#$0
    59c3: c8           	iny
    59c4: 91 16        	sta	($16),y                 ; 0x16 <__rc6>
    59c6: a5 19        	lda	$19                     ; 0x19 <__rc9>
    59c8: 69 00        	adc	#$0
    59ca: c8           	iny
    59cb: 91 16        	sta	($16),y                 ; 0x16 <__rc6>
    59cd: a9 00        	lda	#$0
    59cf: a0 17        	ldy	#$17
    59d1: 4c 7e 5b     	jmp	$5b7e <chainEvent+0xb5b>
    59d4: a6 1a        	ldx	$1a                     ; 0x1a <__rc10>
    59d6: a5 1a        	lda	$1a                     ; 0x1a <__rc10>
    59d8: 18           	clc
    59d9: 69 e0        	adc	#$e0
    59db: c9 02        	cmp	#$2
    59dd: b0 03        	bcs	$59e2 <chainEvent+0x9bf>
    59df: 4c 37 5b     	jmp	$5b37 <chainEvent+0xb14>
    59e2: e0 2f        	cpx	#$2f
    59e4: f0 03        	beq	$59e9 <chainEvent+0x9c6>
    59e6: 4c 80 5b     	jmp	$5b80 <chainEvent+0xb5d>
    59e9: a5 16        	lda	$16                     ; 0x16 <__rc6>
    59eb: 18           	clc
    59ec: 69 02        	adc	#$2
    59ee: 4c 51 5b     	jmp	$5b51 <chainEvent+0xb2e>
    59f1: 4a           	lsr
    59f2: 64 14        	stz	$14                     ; 0x14 <__rc4>
    59f4: 66 14        	ror	$14                     ; 0x14 <__rc4>
    59f6: 46 2a        	lsr	$2a                     ; 0x2a <__rc26>
    59f8: 48           	pha
    59f9: a5 2a        	lda	$2a                     ; 0x2a <__rc26>
    59fb: a0 07        	ldy	#$7
    59fd: 91 10        	sta	($10),y                 ; 0x10 <__zp_data_size>
    59ff: 68           	pla
    5a00: aa           	tax
    5a01: a5 29        	lda	$29                     ; 0x29 <__rc25>
    5a03: 6a           	ror
    5a04: 85 2a        	sta	$2a                     ; 0x2a <__rc26>
    5a06: 64 29        	stz	$29                     ; 0x29 <__rc25>
    5a08: 66 29        	ror	$29                     ; 0x29 <__rc25>
    5a0a: a4 2b        	ldy	$2b                     ; 0x2b <__rc27>
    5a0c: 84 26        	sty	$26                     ; 0x26 <__rc22>
    5a0e: 46 27        	lsr	$27                     ; 0x27 <__rc23>
    5a10: a4 27        	ldy	$27                     ; 0x27 <__rc23>
    5a12: 84 28        	sty	$28                     ; 0x28 <__rc24>
    5a14: 66 26        	ror	$26                     ; 0x26 <__rc22>
    5a16: a4 26        	ldy	$26                     ; 0x26 <__rc22>
    5a18: 84 27        	sty	$27                     ; 0x27 <__rc23>
    5a1a: a0 08        	ldy	#$8
    5a1c: b1 10        	lda	($10),y                 ; 0x10 <__zp_data_size>
    5a1e: 85 26        	sta	$26                     ; 0x26 <__rc22>
    5a20: 66 26        	ror	$26                     ; 0x26 <__rc22>
    5a22: a5 26        	lda	$26                     ; 0x26 <__rc22>
    5a24: 85 2b        	sta	$2b                     ; 0x2b <__rc27>
    5a26: a9 00        	lda	#$0
    5a28: 6a           	ror
    5a29: 91 10        	sta	($10),y                 ; 0x10 <__zp_data_size>
    5a2b: a5 14        	lda	$14                     ; 0x14 <__rc4>
    5a2d: 29 80        	and	#$80
    5a2f: 85 25        	sta	$25                     ; 0x25 <__rc21>
    5a31: 8a           	txa
    5a32: 29 3f        	and	#$3f
    5a34: a0 06        	ldy	#$6
    5a36: 91 10        	sta	($10),y                 ; 0x10 <__zp_data_size>
    5a38: a6 6e        	ldx	$6e                     ; 0x6e <theOne.8>
    5a3a: 8a           	txa
    5a3b: a0 04        	ldy	#$4
    5a3d: 91 10        	sta	($10),y                 ; 0x10 <__zp_data_size>
    5a3f: a6 6f        	ldx	$6f                     ; 0x6f <theOne.8+0x1>
    5a41: 8a           	txa
    5a42: c8           	iny
    5a43: 91 10        	sta	($10),y                 ; 0x10 <__zp_data_size>
    5a45: a0 19        	ldy	#$19
    5a47: a2 00        	ldx	#$0
    5a49: 84 12        	sty	$12                     ; 0x12 <__rc2>
    5a4b: 64 13        	stz	$13                     ; 0x13 <__rc3>
    5a4d: a5 24        	lda	$24                     ; 0x24 <__rc20>
    5a4f: 20 28 7b     	jsr	$7b28 <__mulhi3>
    5a52: 85 14        	sta	$14                     ; 0x14 <__rc4>
    5a54: 86 15        	stx	$15                     ; 0x15 <__rc5>
    5a56: a6 25        	ldx	$25                     ; 0x25 <__rc21>
    5a58: 86 12        	stx	$12                     ; 0x12 <__rc2>
    5a5a: a0 06        	ldy	#$6
    5a5c: b1 10        	lda	($10),y                 ; 0x10 <__zp_data_size>
    5a5e: 85 13        	sta	$13                     ; 0x13 <__rc3>
    5a60: a0 04        	ldy	#$4
    5a62: b1 10        	lda	($10),y                 ; 0x10 <__zp_data_size>
    5a64: 18           	clc
    5a65: 65 14        	adc	$14                     ; 0x14 <__rc4>
    5a67: a8           	tay
    5a68: 5a           	phy
    5a69: a0 05        	ldy	#$5
    5a6b: b1 10        	lda	($10),y                 ; 0x10 <__zp_data_size>
    5a6d: 7a           	ply
    5a6e: 65 15        	adc	$15                     ; 0x15 <__rc5>
    5a70: aa           	tax
    5a71: 98           	tya
    5a72: 84 14        	sty	$14                     ; 0x14 <__rc4>
    5a74: 86 15        	stx	$15                     ; 0x15 <__rc5>
    5a76: 84 1a        	sty	$1a                     ; 0x1a <__rc10>
    5a78: 18           	clc
    5a79: 69 04        	adc	#$4
    5a7b: 85 16        	sta	$16                     ; 0x16 <__rc6>
    5a7d: 8a           	txa
    5a7e: 86 1b        	stx	$1b                     ; 0x1b <__rc11>
    5a80: 69 00        	adc	#$0
    5a82: 85 17        	sta	$17                     ; 0x17 <__rc7>
    5a84: a0 04        	ldy	#$4
    5a86: b1 14        	lda	($14),y                 ; 0x14 <__rc4>
    5a88: 84 22        	sty	$22                     ; 0x22 <__rc18>
    5a8a: 85 18        	sta	$18                     ; 0x18 <__rc8>
    5a8c: a0 01        	ldy	#$1
    5a8e: b1 16        	lda	($16),y                 ; 0x16 <__rc6>
    5a90: 85 1d        	sta	$1d                     ; 0x1d <__rc13>
    5a92: 84 1e        	sty	$1e                     ; 0x1e <__rc14>
    5a94: c8           	iny
    5a95: b1 16        	lda	($16),y                 ; 0x16 <__rc6>
    5a97: 85 1c        	sta	$1c                     ; 0x1c <__rc12>
    5a99: 84 1f        	sty	$1f                     ; 0x1f <__rc15>
    5a9b: c8           	iny
    5a9c: b1 16        	lda	($16),y                 ; 0x16 <__rc6>
    5a9e: 84 23        	sty	$23                     ; 0x23 <__rc19>
    5aa0: a6 18        	ldx	$18                     ; 0x18 <__rc8>
    5aa2: 86 26        	stx	$26                     ; 0x26 <__rc22>
    5aa4: a6 1d        	ldx	$1d                     ; 0x1d <__rc13>
    5aa6: a4 1c        	ldy	$1c                     ; 0x1c <__rc12>
    5aa8: 84 25        	sty	$25                     ; 0x25 <__rc21>
    5aaa: e6 26        	inc	$26                     ; 0x26 <__rc22>
    5aac: d0 08        	bne	$5ab6 <chainEvent+0xa93>
    5aae: e8           	inx
    5aaf: d0 05        	bne	$5ab6 <chainEvent+0xa93>
    5ab1: e6 25        	inc	$25                     ; 0x25 <__rc21>
    5ab3: d0 01        	bne	$5ab6 <chainEvent+0xa93>
    5ab5: 1a           	inc
    5ab6: 85 19        	sta	$19                     ; 0x19 <__rc9>
    5ab8: a4 22        	ldy	$22                     ; 0x22 <__rc18>
    5aba: a5 26        	lda	$26                     ; 0x26 <__rc22>
    5abc: 91 14        	sta	($14),y                 ; 0x14 <__rc4>
    5abe: a4 23        	ldy	$23                     ; 0x23 <__rc19>
    5ac0: a5 19        	lda	$19                     ; 0x19 <__rc9>
    5ac2: 91 16        	sta	($16),y                 ; 0x16 <__rc6>
    5ac4: a4 1e        	ldy	$1e                     ; 0x1e <__rc14>
    5ac6: 8a           	txa
    5ac7: 91 16        	sta	($16),y                 ; 0x16 <__rc6>
    5ac9: a4 1f        	ldy	$1f                     ; 0x1f <__rc15>
    5acb: a5 25        	lda	$25                     ; 0x25 <__rc21>
    5acd: 91 16        	sta	($16),y                 ; 0x16 <__rc6>
    5acf: 84 17        	sty	$17                     ; 0x17 <__rc7>
    5ad1: a0 08        	ldy	#$8
    5ad3: a5 18        	lda	$18                     ; 0x18 <__rc8>
    5ad5: 18           	clc
    5ad6: 71 14        	adc	($14),y                 ; 0x14 <__rc4>
    5ad8: a2 01        	ldx	#$1
    5ada: b0 02        	bcs	$5ade <chainEvent+0xabb>
    5adc: a2 00        	ldx	#$0
    5ade: 85 16        	sta	$16                     ; 0x16 <__rc6>
    5ae0: 18           	clc
    5ae1: a5 1a        	lda	$1a                     ; 0x1a <__rc10>
    5ae3: 69 08        	adc	#$8
    5ae5: 85 14        	sta	$14                     ; 0x14 <__rc4>
    5ae7: a5 1b        	lda	$1b                     ; 0x1b <__rc11>
    5ae9: 69 00        	adc	#$0
    5aeb: 85 15        	sta	$15                     ; 0x15 <__rc5>
    5aed: e0 01        	cpx	#$1
    5aef: a5 1d        	lda	$1d                     ; 0x1d <__rc13>
    5af1: a4 1e        	ldy	$1e                     ; 0x1e <__rc14>
    5af3: 71 14        	adc	($14),y                 ; 0x14 <__rc4>
    5af5: 85 18        	sta	$18                     ; 0x18 <__rc8>
    5af7: a5 1c        	lda	$1c                     ; 0x1c <__rc12>
    5af9: a4 17        	ldy	$17                     ; 0x17 <__rc7>
    5afb: 71 14        	adc	($14),y                 ; 0x14 <__rc4>
    5afd: 85 15        	sta	$15                     ; 0x15 <__rc5>
    5aff: a6 0f        	ldx	$f                      ; 0xf
    5b01: 78           	sei
    5b02: a5 18        	lda	$18                     ; 0x18 <__rc8>
    5b04: 85 14        	sta	$14                     ; 0x14 <__rc4>
    5b06: 06 14        	asl	$14                     ; 0x14 <__rc4>
    5b08: 26 15        	rol	$15                     ; 0x15 <__rc5>
    5b0a: 06 14        	asl	$14                     ; 0x14 <__rc4>
    5b0c: 26 15        	rol	$15                     ; 0x15 <__rc5>
    5b0e: 06 14        	asl	$14                     ; 0x14 <__rc4>
    5b10: 26 15        	rol	$15                     ; 0x15 <__rc5>
    5b12: a4 15        	ldy	$15                     ; 0x15 <__rc5>
    5b14: 84 0f        	sty	$f                      ; 0xf
    5b16: 09 e0        	ora	#$e0
    5b18: a4 16        	ldy	$16                     ; 0x16 <__rc6>
    5b1a: 84 14        	sty	$14                     ; 0x14 <__rc4>
    5b1c: 85 15        	sta	$15                     ; 0x15 <__rc5>
    5b1e: b2 14        	lda	($14)                   ; 0x14 <__rc4>
    5b20: 86 0f        	stx	$f                      ; 0xf
    5b22: 58           	cli
    5b23: 85 25        	sta	$25                     ; 0x25 <__rc21>
    5b25: a0 08        	ldy	#$8
    5b27: b1 10        	lda	($10),y                 ; 0x10 <__zp_data_size>
    5b29: 48           	pha
    5b2a: 88           	dey
    5b2b: b1 10        	lda	($10),y                 ; 0x10 <__zp_data_size>
    5b2d: 85 14        	sta	$14                     ; 0x14 <__rc4>
    5b2f: 68           	pla
    5b30: 4c a4 53     	jmp	$53a4 <chainEvent+0x381>
    5b33: a5 1a        	lda	$1a                     ; 0x1a <__rc10>
    5b35: d0 49        	bne	$5b80 <chainEvent+0xb5d>
    5b37: a5 16        	lda	$16                     ; 0x16 <__rc6>
    5b39: 18           	clc
    5b3a: 69 03        	adc	#$3
    5b3c: 80 13        	bra	$5b51 <chainEvent+0xb2e>
    5b3e: a5 16        	lda	$16                     ; 0x16 <__rc6>
    5b40: 18           	clc
    5b41: 69 06        	adc	#$6
    5b43: 80 0c        	bra	$5b51 <chainEvent+0xb2e>
    5b45: a5 16        	lda	$16                     ; 0x16 <__rc6>
    5b47: 18           	clc
    5b48: 69 04        	adc	#$4
    5b4a: 80 05        	bra	$5b51 <chainEvent+0xb2e>
    5b4c: a5 16        	lda	$16                     ; 0x16 <__rc6>
    5b4e: 18           	clc
    5b4f: 69 07        	adc	#$7
    5b51: a2 01        	ldx	#$1
    5b53: b0 02        	bcs	$5b57 <chainEvent+0xb34>
    5b55: a2 00        	ldx	#$0
    5b57: a0 04        	ldy	#$4
    5b59: 91 12        	sta	($12),y                 ; 0x12 <__rc2>
    5b5b: 18           	clc
    5b5c: a5 18        	lda	$18                     ; 0x18 <__rc8>
    5b5e: 69 04        	adc	#$4
    5b60: 85 12        	sta	$12                     ; 0x12 <__rc2>
    5b62: a5 17        	lda	$17                     ; 0x17 <__rc7>
    5b64: 69 00        	adc	#$0
    5b66: 85 13        	sta	$13                     ; 0x13 <__rc3>
    5b68: e0 01        	cpx	#$1
    5b6a: a5 15        	lda	$15                     ; 0x15 <__rc5>
    5b6c: 69 00        	adc	#$0
    5b6e: a0 01        	ldy	#$1
    5b70: 91 12        	sta	($12),y                 ; 0x12 <__rc2>
    5b72: a5 14        	lda	$14                     ; 0x14 <__rc4>
    5b74: 69 00        	adc	#$0
    5b76: c8           	iny
    5b77: 91 12        	sta	($12),y                 ; 0x12 <__rc2>
    5b79: a5 19        	lda	$19                     ; 0x19 <__rc9>
    5b7b: 69 00        	adc	#$0
    5b7d: c8           	iny
    5b7e: 91 12        	sta	($12),y                 ; 0x12 <__rc2>
    5b80: a0 00        	ldy	#$0
    5b82: b1 10        	lda	($10),y                 ; 0x10 <__zp_data_size>
    5b84: 85 2b        	sta	$2b                     ; 0x2b <__rc27>
    5b86: c8           	iny
    5b87: b1 10        	lda	($10),y                 ; 0x10 <__zp_data_size>
    5b89: 85 2a        	sta	$2a                     ; 0x2a <__rc26>
    5b8b: c8           	iny
    5b8c: b1 10        	lda	($10),y                 ; 0x10 <__zp_data_size>
    5b8e: 85 29        	sta	$29                     ; 0x29 <__rc25>
    5b90: c8           	iny
    5b91: b1 10        	lda	($10),y                 ; 0x10 <__zp_data_size>
    5b93: 85 28        	sta	$28                     ; 0x28 <__rc24>
    5b95: fa           	plx
    5b96: 86 27        	stx	$27                     ; 0x27 <__rc23>
    5b98: fa           	plx
    5b99: 86 26        	stx	$26                     ; 0x26 <__rc22>
    5b9b: fa           	plx
    5b9c: 86 25        	stx	$25                     ; 0x25 <__rc21>
    5b9e: fa           	plx
    5b9f: 86 24        	stx	$24                     ; 0x24 <__rc20>
    5ba1: 18           	clc
    5ba2: a5 10        	lda	$10                     ; 0x10 <__zp_data_size>
    5ba4: 69 09        	adc	#$9
    5ba6: 85 10        	sta	$10                     ; 0x10 <__zp_data_size>
    5ba8: a5 11        	lda	$11                     ; 0x11 <__rc1>
    5baa: 69 00        	adc	#$0
    5bac: 85 11        	sta	$11                     ; 0x11 <__rc1>
    5bae: 60           	rts

00005baf <performMIDICmd>:
    5baf: a6 6e        	ldx	$6e                     ; 0x6e <theOne.8>
    5bb1: 86 80        	stx	$80                     ; 0x80 <__data_size+0x36>
    5bb3: a6 6f        	ldx	$6f                     ; 0x6f <theOne.8+0x1>
    5bb5: 86 7f        	stx	$7f                     ; 0x7f <__data_size+0x35>
    5bb7: a2 19        	ldx	#$19
    5bb9: 86 12        	stx	$12                     ; 0x12 <__rc2>
    5bbb: 64 13        	stz	$13                     ; 0x13 <__rc3>
    5bbd: a2 00        	ldx	#$0
    5bbf: 20 28 7b     	jsr	$7b28 <__mulhi3>
    5bc2: 85 12        	sta	$12                     ; 0x12 <__rc2>
    5bc4: 86 13        	stx	$13                     ; 0x13 <__rc3>
    5bc6: 18           	clc
    5bc7: a5 80        	lda	$80                     ; 0x80 <__data_size+0x36>
    5bc9: 65 12        	adc	$12                     ; 0x12 <__rc2>
    5bcb: 85 12        	sta	$12                     ; 0x12 <__rc2>
    5bcd: a5 7f        	lda	$7f                     ; 0x7f <__data_size+0x35>
    5bcf: 65 13        	adc	$13                     ; 0x13 <__rc3>
    5bd1: a6 12        	ldx	$12                     ; 0x12 <__rc2>
    5bd3: 86 1c        	stx	$1c                     ; 0x1c <__rc12>
    5bd5: 85 1d        	sta	$1d                     ; 0x1d <__rc13>
    5bd7: a0 10        	ldy	#$10
    5bd9: b1 1c        	lda	($1c),y                 ; 0x1c <__rc12>
    5bdb: aa           	tax
    5bdc: c8           	iny
    5bdd: b1 1c        	lda	($1c),y                 ; 0x1c <__rc12>
    5bdf: e0 ff        	cpx	#$ff
    5be1: d0 03        	bne	$5be6 <performMIDICmd+0x37>
    5be3: 4c 4e 5c     	jmp	$5c4e <performMIDICmd+0x9f>
    5be6: 86 82        	stx	$82                     ; 0x82 <__data_size+0x38>
    5be8: 85 81        	sta	$81                     ; 0x81 <__data_size+0x37>
    5bea: a2 a1        	ldx	#$a1
    5bec: 86 14        	stx	$14                     ; 0x14 <__rc4>
    5bee: a2 dd        	ldx	#$dd
    5bf0: 86 15        	stx	$15                     ; 0x15 <__rc5>
    5bf2: a2 b1        	ldx	#$b1
    5bf4: 86 16        	stx	$16                     ; 0x16 <__rc6>
    5bf6: a2 dd        	ldx	#$dd
    5bf8: 86 17        	stx	$17                     ; 0x17 <__rc7>
    5bfa: a0 17        	ldy	#$17
    5bfc: b1 1c        	lda	($1c),y                 ; 0x1c <__rc12>
    5bfe: 85 1b        	sta	$1b                     ; 0x1b <__rc11>
    5c00: a6 70        	ldx	$70                     ; 0x70 <midiChip>
    5c02: a0 a1        	ldy	#$a1
    5c04: 84 18        	sty	$18                     ; 0x18 <__rc8>
    5c06: a0 dd        	ldy	#$dd
    5c08: 84 19        	sty	$19                     ; 0x19 <__rc9>
    5c0a: 8a           	txa
    5c0b: f0 08        	beq	$5c15 <performMIDICmd+0x66>
    5c0d: a0 b1        	ldy	#$b1
    5c0f: 84 18        	sty	$18                     ; 0x18 <__rc8>
    5c11: a0 dd        	ldy	#$dd
    5c13: 84 19        	sty	$19                     ; 0x19 <__rc9>
    5c15: a0 12        	ldy	#$12
    5c17: b1 1c        	lda	($1c),y                 ; 0x1c <__rc12>
    5c19: 85 13        	sta	$13                     ; 0x13 <__rc3>
    5c1b: a5 82        	lda	$82                     ; 0x82 <__data_size+0x38>
    5c1d: 85 1a        	sta	$1a                     ; 0x1a <__rc10>
    5c1f: 92 18        	sta	($18)                   ; 0x18 <__rc8>
    5c21: a5 81        	lda	$81                     ; 0x81 <__data_size+0x37>
    5c23: 92 18        	sta	($18)                   ; 0x18 <__rc8>
    5c25: a5 1b        	lda	$1b                     ; 0x1b <__rc11>
    5c27: d0 04        	bne	$5c2d <performMIDICmd+0x7e>
    5c29: a5 13        	lda	$13                     ; 0x13 <__rc3>
    5c2b: 92 18        	sta	($18)                   ; 0x18 <__rc8>
    5c2d: a5 1a        	lda	$1a                     ; 0x1a <__rc10>
    5c2f: 29 0f        	and	#$f
    5c31: a8           	tay
    5c32: a5 1a        	lda	$1a                     ; 0x1a <__rc10>
    5c34: 29 f0        	and	#$f0
    5c36: c9 c0        	cmp	#$c0
    5c38: f0 29        	beq	$5c63 <performMIDICmd+0xb4>
    5c3a: c9 90        	cmp	#$90
    5c3c: f0 03        	beq	$5c41 <performMIDICmd+0x92>
    5c3e: 4c a0 5d     	jmp	$5da0 <performMIDICmd+0x1f1>
    5c41: a5 13        	lda	$13                     ; 0x13 <__rc3>
    5c43: d0 03        	bne	$5c48 <performMIDICmd+0x99>
    5c45: 4c a0 5d     	jmp	$5da0 <performMIDICmd+0x1f1>
    5c48: a9 15        	lda	#$15
    5c4a: 99 4f 00     	sta	$4f,y                   ; 0x4f <shimmerBuffer>
    5c4d: 60           	rts
    5c4e: c9 51        	cmp	#$51
    5c50: d0 03        	bne	$5c55 <performMIDICmd+0xa6>
    5c52: 4c bb 5c     	jmp	$5cbb <performMIDICmd+0x10c>
    5c55: c9 2f        	cmp	#$2f
    5c57: f0 03        	beq	$5c5c <performMIDICmd+0xad>
    5c59: 4c a0 5d     	jmp	$5da0 <performMIDICmd+0x1f1>
    5c5c: a0 18        	ldy	#$18
    5c5e: a9 01        	lda	#$1
    5c60: 91 1c        	sta	($1c),y                 ; 0x1c <__rc12>
    5c62: 60           	rts
    5c63: 86 89        	stx	$89                     ; 0x89 <__data_size+0x3f>
    5c65: a2 a1        	ldx	#$a1
    5c67: 86 12        	stx	$12                     ; 0x12 <__rc2>
    5c69: a2 dd        	ldx	#$dd
    5c6b: 86 13        	stx	$13                     ; 0x13 <__rc3>
    5c6d: a6 12        	ldx	$12                     ; 0x12 <__rc2>
    5c6f: 86 87        	stx	$87                     ; 0x87 <__data_size+0x3d>
    5c71: a6 13        	ldx	$13                     ; 0x13 <__rc3>
    5c73: 86 88        	stx	$88                     ; 0x88 <__data_size+0x3e>
    5c75: a2 b1        	ldx	#$b1
    5c77: 86 12        	stx	$12                     ; 0x12 <__rc2>
    5c79: a2 dd        	ldx	#$dd
    5c7b: 86 13        	stx	$13                     ; 0x13 <__rc3>
    5c7d: a6 12        	ldx	$12                     ; 0x12 <__rc2>
    5c7f: 86 85        	stx	$85                     ; 0x85 <__data_size+0x3b>
    5c81: a6 13        	ldx	$13                     ; 0x13 <__rc3>
    5c83: 86 86        	stx	$86                     ; 0x86 <__data_size+0x3c>
    5c85: 18           	clc
    5c86: 98           	tya
    5c87: 69 08        	adc	#$8
    5c89: a2 06        	ldx	#$6
    5c8b: 86 40        	stx	$40                     ; 0x40 <_col>
    5c8d: 8e 14 d0     	stx	$d014                   ; 0xd014 <end_block9+0x478a>
    5c90: 9c 15 d0     	stz	$d015                   ; 0xd015 <end_block9+0x478b>
    5c93: 85 41        	sta	$41                     ; 0x41 <_row>
    5c95: 8d 16 d0     	sta	$d016                   ; 0xd016 <end_block9+0x478c>
    5c98: 9c 17 d0     	stz	$d017                   ; 0xd017 <end_block9+0x478d>
    5c9b: a5 1a        	lda	$1a                     ; 0x1a <__rc10>
    5c9d: 0a           	asl
    5c9e: 0a           	asl
    5c9f: 0a           	asl
    5ca0: 0a           	asl
    5ca1: 18           	clc
    5ca2: 69 10        	adc	#$10
    5ca4: 85 30        	sta	$30                     ; 0x30 <_ccolor>
    5ca6: c0 09        	cpy	#$9
    5ca8: f0 03        	beq	$5cad <performMIDICmd+0xfe>
    5caa: 4c 24 5d     	jmp	$5d24 <performMIDICmd+0x175>
    5cad: a2 25        	ldx	#$25
    5caf: 86 12        	stx	$12                     ; 0x12 <__rc2>
    5cb1: a2 82        	ldx	#$82
    5cb3: 86 13        	stx	$13                     ; 0x13 <__rc3>
    5cb5: 20 97 1b     	jsr	$1b97 <textPrint>
    5cb8: 4c 84 5d     	jmp	$5d84 <performMIDICmd+0x1d5>
    5cbb: a0 13        	ldy	#$13
    5cbd: b1 1c        	lda	($1c),y                 ; 0x1c <__rc12>
    5cbf: 85 12        	sta	$12                     ; 0x12 <__rc2>
    5cc1: c8           	iny
    5cc2: b1 1c        	lda	($1c),y                 ; 0x1c <__rc12>
    5cc4: 85 18        	sta	$18                     ; 0x18 <__rc8>
    5cc6: c8           	iny
    5cc7: b1 1c        	lda	($1c),y                 ; 0x1c <__rc12>
    5cc9: ae 10 88     	ldx	$8810                   ; 0x8810 <theOne.1>
    5ccc: ac 11 88     	ldy	$8811                   ; 0x8811 <theOne.1+0x1>
    5ccf: 64 13        	stz	$13                     ; 0x13 <__rc3>
    5cd1: 86 14        	stx	$14                     ; 0x14 <__rc4>
    5cd3: 84 15        	sty	$15                     ; 0x15 <__rc5>
    5cd5: 64 16        	stz	$16                     ; 0x16 <__rc6>
    5cd7: 64 17        	stz	$17                     ; 0x17 <__rc7>
    5cd9: a6 18        	ldx	$18                     ; 0x18 <__rc8>
    5cdb: 20 c9 79     	jsr	$79c9 <__udivsi3>
    5cde: 86 14        	stx	$14                     ; 0x14 <__rc4>
    5ce0: 0a           	asl
    5ce1: 26 14        	rol	$14                     ; 0x14 <__rc4>
    5ce3: 26 12        	rol	$12                     ; 0x12 <__rc2>
    5ce5: 26 13        	rol	$13                     ; 0x13 <__rc3>
    5ce7: 0a           	asl
    5ce8: 85 15        	sta	$15                     ; 0x15 <__rc5>
    5cea: 26 14        	rol	$14                     ; 0x14 <__rc4>
    5cec: 26 12        	rol	$12                     ; 0x12 <__rc2>
    5cee: 26 13        	rol	$13                     ; 0x13 <__rc3>
    5cf0: 0a           	asl
    5cf1: aa           	tax
    5cf2: a5 14        	lda	$14                     ; 0x14 <__rc4>
    5cf4: 2a           	rol
    5cf5: a8           	tay
    5cf6: a5 12        	lda	$12                     ; 0x12 <__rc2>
    5cf8: 2a           	rol
    5cf9: 85 16        	sta	$16                     ; 0x16 <__rc6>
    5cfb: a5 13        	lda	$13                     ; 0x13 <__rc3>
    5cfd: 2a           	rol
    5cfe: 85 17        	sta	$17                     ; 0x17 <__rc7>
    5d00: 18           	clc
    5d01: 8a           	txa
    5d02: 65 15        	adc	$15                     ; 0x15 <__rc5>
    5d04: 85 15        	sta	$15                     ; 0x15 <__rc5>
    5d06: 98           	tya
    5d07: 65 14        	adc	$14                     ; 0x14 <__rc4>
    5d09: 85 14        	sta	$14                     ; 0x14 <__rc4>
    5d0b: a5 16        	lda	$16                     ; 0x16 <__rc6>
    5d0d: 65 12        	adc	$12                     ; 0x12 <__rc2>
    5d0f: 85 12        	sta	$12                     ; 0x12 <__rc2>
    5d11: a5 17        	lda	$17                     ; 0x17 <__rc7>
    5d13: 65 13        	adc	$13                     ; 0x13 <__rc3>
    5d15: a6 15        	ldx	$15                     ; 0x15 <__rc5>
    5d17: 86 61        	stx	$61                     ; 0x61 <theOne.2>
    5d19: a6 14        	ldx	$14                     ; 0x14 <__rc4>
    5d1b: 86 62        	stx	$62                     ; 0x62 <theOne.2+0x1>
    5d1d: a6 12        	ldx	$12                     ; 0x12 <__rc2>
    5d1f: 86 63        	stx	$63                     ; 0x63 <theOne.2+0x2>
    5d21: 85 64        	sta	$64                     ; 0x64 <theOne.2+0x3>
    5d23: 60           	rts
    5d24: a0 01        	ldy	#$1
    5d26: a5 81        	lda	$81                     ; 0x81 <__data_size+0x37>
    5d28: 0a           	asl
    5d29: 85 12        	sta	$12                     ; 0x12 <__rc2>
    5d2b: 64 13        	stz	$13                     ; 0x13 <__rc3>
    5d2d: a9 00        	lda	#$0
    5d2f: 2a           	rol
    5d30: 85 14        	sta	$14                     ; 0x14 <__rc4>
    5d32: a9 84        	lda	#$84
    5d34: 18           	clc
    5d35: 65 12        	adc	$12                     ; 0x12 <__rc2>
    5d37: aa           	tax
    5d38: a9 85        	lda	#$85
    5d3a: 65 14        	adc	$14                     ; 0x14 <__rc4>
    5d3c: 86 14        	stx	$14                     ; 0x14 <__rc4>
    5d3e: 85 15        	sta	$15                     ; 0x15 <__rc5>
    5d40: b2 14        	lda	($14)                   ; 0x14 <__rc4>
    5d42: 85 7f        	sta	$7f                     ; 0x7f <__data_size+0x35>
    5d44: b1 14        	lda	($14),y                 ; 0x14 <__rc4>
    5d46: 85 80        	sta	$80                     ; 0x80 <__data_size+0x36>
    5d48: a2 24        	ldx	#$24
    5d4a: 88           	dey
    5d4b: b1 7f        	lda	($7f),y                 ; 0x7f <__data_size+0x35>
    5d4d: f0 1b        	beq	$5d6a <performMIDICmd+0x1bb>
    5d4f: 85 42        	sta	$42                     ; 0x42 <__putchar.s>
    5d51: 86 83        	stx	$83                     ; 0x83 <__data_size+0x39>
    5d53: a2 42        	ldx	#$42
    5d55: 86 12        	stx	$12                     ; 0x12 <__rc2>
    5d57: a2 00        	ldx	#$0
    5d59: 86 13        	stx	$13                     ; 0x13 <__rc3>
    5d5b: 84 84        	sty	$84                     ; 0x84 <__data_size+0x3a>
    5d5d: 20 97 1b     	jsr	$1b97 <textPrint>
    5d60: a4 84        	ldy	$84                     ; 0x84 <__data_size+0x3a>
    5d62: a6 83        	ldx	$83                     ; 0x83 <__data_size+0x39>
    5d64: c8           	iny
    5d65: ca           	dex
    5d66: d0 e3        	bne	$5d4b <performMIDICmd+0x19c>
    5d68: 80 1a        	bra	$5d84 <performMIDICmd+0x1d5>
    5d6a: c0 24        	cpy	#$24
    5d6c: b0 16        	bcs	$5d84 <performMIDICmd+0x1d5>
    5d6e: a0 20        	ldy	#$20
    5d70: 84 42        	sty	$42                     ; 0x42 <__putchar.s>
    5d72: 86 7f        	stx	$7f                     ; 0x7f <__data_size+0x35>
    5d74: a2 42        	ldx	#$42
    5d76: 86 12        	stx	$12                     ; 0x12 <__rc2>
    5d78: a2 00        	ldx	#$0
    5d7a: 86 13        	stx	$13                     ; 0x13 <__rc3>
    5d7c: 20 97 1b     	jsr	$1b97 <textPrint>
    5d7f: a6 7f        	ldx	$7f                     ; 0x7f <__data_size+0x35>
    5d81: ca           	dex
    5d82: d0 ea        	bne	$5d6e <performMIDICmd+0x1bf>
    5d84: a6 85        	ldx	$85                     ; 0x85 <__data_size+0x3b>
    5d86: 86 12        	stx	$12                     ; 0x12 <__rc2>
    5d88: a6 86        	ldx	$86                     ; 0x86 <__data_size+0x3c>
    5d8a: 86 13        	stx	$13                     ; 0x13 <__rc3>
    5d8c: a6 89        	ldx	$89                     ; 0x89 <__data_size+0x3f>
    5d8e: f0 08        	beq	$5d98 <performMIDICmd+0x1e9>
    5d90: a6 87        	ldx	$87                     ; 0x87 <__data_size+0x3d>
    5d92: 86 12        	stx	$12                     ; 0x12 <__rc2>
    5d94: a6 88        	ldx	$88                     ; 0x88 <__data_size+0x3e>
    5d96: 86 13        	stx	$13                     ; 0x13 <__rc3>
    5d98: a5 82        	lda	$82                     ; 0x82 <__data_size+0x38>
    5d9a: 92 12        	sta	($12)                   ; 0x12 <__rc2>
    5d9c: a5 81        	lda	$81                     ; 0x81 <__data_size+0x37>
    5d9e: 92 12        	sta	($12)                   ; 0x12 <__rc2>
    5da0: 60           	rts

00005da1 <exhaustZeroes>:
    5da1: a6 24        	ldx	$24                     ; 0x24 <__rc20>
    5da3: da           	phx
    5da4: a6 25        	ldx	$25                     ; 0x25 <__rc21>
    5da6: da           	phx
    5da7: a6 26        	ldx	$26                     ; 0x26 <__rc22>
    5da9: da           	phx
    5daa: a6 27        	ldx	$27                     ; 0x27 <__rc23>
    5dac: da           	phx
    5dad: 85 24        	sta	$24                     ; 0x24 <__rc20>
    5daf: a6 6e        	ldx	$6e                     ; 0x6e <theOne.8>
    5db1: 86 26        	stx	$26                     ; 0x26 <__rc22>
    5db3: a6 6f        	ldx	$6f                     ; 0x6f <theOne.8+0x1>
    5db5: 86 25        	stx	$25                     ; 0x25 <__rc21>
    5db7: a2 19        	ldx	#$19
    5db9: 86 12        	stx	$12                     ; 0x12 <__rc2>
    5dbb: 64 13        	stz	$13                     ; 0x13 <__rc3>
    5dbd: a2 00        	ldx	#$0
    5dbf: 20 28 7b     	jsr	$7b28 <__mulhi3>
    5dc2: 85 12        	sta	$12                     ; 0x12 <__rc2>
    5dc4: 86 13        	stx	$13                     ; 0x13 <__rc3>
    5dc6: 18           	clc
    5dc7: a5 26        	lda	$26                     ; 0x26 <__rc22>
    5dc9: 65 12        	adc	$12                     ; 0x12 <__rc2>
    5dcb: a8           	tay
    5dcc: a5 25        	lda	$25                     ; 0x25 <__rc21>
    5dce: 65 13        	adc	$13                     ; 0x13 <__rc3>
    5dd0: 84 14        	sty	$14                     ; 0x14 <__rc4>
    5dd2: 84 12        	sty	$12                     ; 0x12 <__rc2>
    5dd4: 85 15        	sta	$15                     ; 0x15 <__rc5>
    5dd6: 85 13        	sta	$13                     ; 0x13 <__rc3>
    5dd8: a0 18        	ldy	#$18
    5dda: b1 12        	lda	($12),y                 ; 0x12 <__rc2>
    5ddc: d0 2f        	bne	$5e0d <exhaustZeroes+0x6c>
    5dde: a0 0c        	ldy	#$c
    5de0: a5 14        	lda	$14                     ; 0x14 <__rc4>
    5de2: 18           	clc
    5de3: 69 0c        	adc	#$c
    5de5: 85 14        	sta	$14                     ; 0x14 <__rc4>
    5de7: a5 15        	lda	$15                     ; 0x15 <__rc5>
    5de9: 69 00        	adc	#$0
    5deb: 85 15        	sta	$15                     ; 0x15 <__rc5>
    5ded: b1 12        	lda	($12),y                 ; 0x12 <__rc2>
    5def: 85 12        	sta	$12                     ; 0x12 <__rc2>
    5df1: a0 01        	ldy	#$1
    5df3: b1 14        	lda	($14),y                 ; 0x14 <__rc4>
    5df5: 85 13        	sta	$13                     ; 0x13 <__rc3>
    5df7: c8           	iny
    5df8: b1 14        	lda	($14),y                 ; 0x14 <__rc4>
    5dfa: 85 16        	sta	$16                     ; 0x16 <__rc6>
    5dfc: c8           	iny
    5dfd: b1 14        	lda	($14),y                 ; 0x14 <__rc4>
    5dff: d0 0c        	bne	$5e0d <exhaustZeroes+0x6c>
    5e01: a5 16        	lda	$16                     ; 0x16 <__rc6>
    5e03: d0 08        	bne	$5e0d <exhaustZeroes+0x6c>
    5e05: a5 13        	lda	$13                     ; 0x13 <__rc3>
    5e07: d0 04        	bne	$5e0d <exhaustZeroes+0x6c>
    5e09: a5 12        	lda	$12                     ; 0x12 <__rc2>
    5e0b: f0 0d        	beq	$5e1a <exhaustZeroes+0x79>
    5e0d: fa           	plx
    5e0e: 86 27        	stx	$27                     ; 0x27 <__rc23>
    5e10: fa           	plx
    5e11: 86 26        	stx	$26                     ; 0x26 <__rc22>
    5e13: fa           	plx
    5e14: 86 25        	stx	$25                     ; 0x25 <__rc21>
    5e16: fa           	plx
    5e17: 86 24        	stx	$24                     ; 0x24 <__rc20>
    5e19: 60           	rts
    5e1a: a2 19        	ldx	#$19
    5e1c: 86 25        	stx	$25                     ; 0x25 <__rc21>
    5e1e: a5 24        	lda	$24                     ; 0x24 <__rc20>
    5e20: 20 af 5b     	jsr	$5baf <performMIDICmd>
    5e23: a5 24        	lda	$24                     ; 0x24 <__rc20>
    5e25: 20 23 50     	jsr	$5023 <chainEvent>
    5e28: a6 6e        	ldx	$6e                     ; 0x6e <theOne.8>
    5e2a: 86 27        	stx	$27                     ; 0x27 <__rc23>
    5e2c: a6 6f        	ldx	$6f                     ; 0x6f <theOne.8+0x1>
    5e2e: 86 26        	stx	$26                     ; 0x26 <__rc22>
    5e30: a6 25        	ldx	$25                     ; 0x25 <__rc21>
    5e32: 86 12        	stx	$12                     ; 0x12 <__rc2>
    5e34: 64 13        	stz	$13                     ; 0x13 <__rc3>
    5e36: a2 00        	ldx	#$0
    5e38: a5 24        	lda	$24                     ; 0x24 <__rc20>
    5e3a: 20 28 7b     	jsr	$7b28 <__mulhi3>
    5e3d: 85 12        	sta	$12                     ; 0x12 <__rc2>
    5e3f: 86 13        	stx	$13                     ; 0x13 <__rc3>
    5e41: 18           	clc
    5e42: a5 27        	lda	$27                     ; 0x27 <__rc23>
    5e44: 65 12        	adc	$12                     ; 0x12 <__rc2>
    5e46: a8           	tay
    5e47: a5 26        	lda	$26                     ; 0x26 <__rc22>
    5e49: 65 13        	adc	$13                     ; 0x13 <__rc3>
    5e4b: 84 14        	sty	$14                     ; 0x14 <__rc4>
    5e4d: 84 12        	sty	$12                     ; 0x12 <__rc2>
    5e4f: 85 15        	sta	$15                     ; 0x15 <__rc5>
    5e51: 85 13        	sta	$13                     ; 0x13 <__rc3>
    5e53: a0 18        	ldy	#$18
    5e55: b1 12        	lda	($12),y                 ; 0x12 <__rc2>
    5e57: d0 b4        	bne	$5e0d <exhaustZeroes+0x6c>
    5e59: 18           	clc
    5e5a: a5 14        	lda	$14                     ; 0x14 <__rc4>
    5e5c: 69 0c        	adc	#$c
    5e5e: 85 14        	sta	$14                     ; 0x14 <__rc4>
    5e60: a5 15        	lda	$15                     ; 0x15 <__rc5>
    5e62: 69 00        	adc	#$0
    5e64: 85 15        	sta	$15                     ; 0x15 <__rc5>
    5e66: a0 0c        	ldy	#$c
    5e68: b1 12        	lda	($12),y                 ; 0x12 <__rc2>
    5e6a: 85 12        	sta	$12                     ; 0x12 <__rc2>
    5e6c: a0 01        	ldy	#$1
    5e6e: b1 14        	lda	($14),y                 ; 0x14 <__rc4>
    5e70: 85 13        	sta	$13                     ; 0x13 <__rc3>
    5e72: c8           	iny
    5e73: b1 14        	lda	($14),y                 ; 0x14 <__rc4>
    5e75: 85 16        	sta	$16                     ; 0x16 <__rc6>
    5e77: c8           	iny
    5e78: b1 14        	lda	($14),y                 ; 0x14 <__rc4>
    5e7a: f0 03        	beq	$5e7f <exhaustZeroes+0xde>
    5e7c: 4c 0d 5e     	jmp	$5e0d <exhaustZeroes+0x6c>
    5e7f: a5 16        	lda	$16                     ; 0x16 <__rc6>
    5e81: f0 03        	beq	$5e86 <exhaustZeroes+0xe5>
    5e83: 4c 0d 5e     	jmp	$5e0d <exhaustZeroes+0x6c>
    5e86: a5 13        	lda	$13                     ; 0x13 <__rc3>
    5e88: f0 03        	beq	$5e8d <exhaustZeroes+0xec>
    5e8a: 4c 0d 5e     	jmp	$5e0d <exhaustZeroes+0x6c>
    5e8d: a5 12        	lda	$12                     ; 0x12 <__rc2>
    5e8f: d0 03        	bne	$5e94 <exhaustZeroes+0xf3>
    5e91: 4c 1e 5e     	jmp	$5e1e <exhaustZeroes+0x7d>
    5e94: 4c 0d 5e     	jmp	$5e0d <exhaustZeroes+0x6c>

00005e97 <initTrack>:
    5e97: 18           	clc
    5e98: a5 10        	lda	$10                     ; 0x10 <__zp_data_size>
    5e9a: 69 fe        	adc	#$fe
    5e9c: 85 10        	sta	$10                     ; 0x10 <__zp_data_size>
    5e9e: a5 11        	lda	$11                     ; 0x11 <__rc1>
    5ea0: 69 ff        	adc	#$ff
    5ea2: 85 11        	sta	$11                     ; 0x11 <__rc1>
    5ea4: a6 24        	ldx	$24                     ; 0x24 <__rc20>
    5ea6: da           	phx
    5ea7: a6 25        	ldx	$25                     ; 0x25 <__rc21>
    5ea9: da           	phx
    5eaa: a6 26        	ldx	$26                     ; 0x26 <__rc22>
    5eac: da           	phx
    5ead: a6 27        	ldx	$27                     ; 0x27 <__rc23>
    5eaf: da           	phx
    5eb0: a5 28        	lda	$28                     ; 0x28 <__rc24>
    5eb2: a0 01        	ldy	#$1
    5eb4: 91 10        	sta	($10),y                 ; 0x10 <__zp_data_size>
    5eb6: a5 29        	lda	$29                     ; 0x29 <__rc25>
    5eb8: 88           	dey
    5eb9: 91 10        	sta	($10),y                 ; 0x10 <__zp_data_size>
    5ebb: a4 0f        	ldy	$f                      ; 0xf
    5ebd: 78           	sei
    5ebe: a9 28        	lda	#$28
    5ec0: 85 0f        	sta	$f                      ; 0xf
    5ec2: ae 0a e0     	ldx	$e00a                   ; 0xe00a <end_block9+0x5780>
    5ec5: 84 0f        	sty	$f                      ; 0xf
    5ec7: 58           	cli
    5ec8: a4 0f        	ldy	$f                      ; 0xf
    5eca: 78           	sei
    5ecb: 85 0f        	sta	$f                      ; 0xf
    5ecd: 85 24        	sta	$24                     ; 0x24 <__rc20>
    5ecf: ad 0b e0     	lda	$e00b                   ; 0xe00b <end_block9+0x5781>
    5ed2: 84 0f        	sty	$f                      ; 0xf
    5ed4: 58           	cli
    5ed5: 85 5f        	sta	$5f                     ; 0x5f <theOne.0>
    5ed7: 86 60        	stx	$60                     ; 0x60 <theOne.0+0x1>
    5ed9: a0 19        	ldy	#$19
    5edb: 64 13        	stz	$13                     ; 0x13 <__rc3>
    5edd: 84 12        	sty	$12                     ; 0x12 <__rc2>
    5edf: 20 28 7b     	jsr	$7b28 <__mulhi3>
    5ee2: 20 57 75     	jsr	$7557 <malloc>
    5ee5: a6 12        	ldx	$12                     ; 0x12 <__rc2>
    5ee7: a4 13        	ldy	$13                     ; 0x13 <__rc3>
    5ee9: 86 6e        	stx	$6e                     ; 0x6e <theOne.8>
    5eeb: 84 6f        	sty	$6f                     ; 0x6f <theOne.8+0x1>
    5eed: 64 65        	stz	$65                     ; 0x65 <theOne.4>
    5eef: a2 20        	ldx	#$20
    5ef1: 86 61        	stx	$61                     ; 0x61 <theOne.2>
    5ef3: a2 a1        	ldx	#$a1
    5ef5: 86 62        	stx	$62                     ; 0x62 <theOne.2+0x1>
    5ef7: a2 07        	ldx	#$7
    5ef9: 86 63        	stx	$63                     ; 0x63 <theOne.2+0x2>
    5efb: 64 64        	stz	$64                     ; 0x64 <theOne.2+0x3>
    5efd: a2 ff        	ldx	#$ff
    5eff: 86 66        	stx	$66                     ; 0x66 <theOne.5>
    5f01: 86 67        	stx	$67                     ; 0x67 <theOne.5+0x1>
    5f03: 86 68        	stx	$68                     ; 0x68 <theOne.5+0x2>
    5f05: 86 69        	stx	$69                     ; 0x69 <theOne.5+0x3>
    5f07: 64 6a        	stz	$6a                     ; 0x6a <theOne.6>
    5f09: 64 6b        	stz	$6b                     ; 0x6b <theOne.6+0x1>
    5f0b: a2 30        	ldx	#$30
    5f0d: 8e 10 88     	stx	$8810                   ; 0x8810 <theOne.1>
    5f10: 9c 11 88     	stz	$8811                   ; 0x8811 <theOne.1+0x1>
    5f13: 64 6c        	stz	$6c                     ; 0x6c <theOne.7>
    5f15: 64 6d        	stz	$6d                     ; 0x6d <theOne.7+0x1>
    5f17: a4 0f        	ldy	$f                      ; 0xf
    5f19: 78           	sei
    5f1a: a5 24        	lda	$24                     ; 0x24 <__rc20>
    5f1c: 85 0f        	sta	$f                      ; 0xf
    5f1e: ae 0c e0     	ldx	$e00c                   ; 0xe00c <end_block9+0x5782>
    5f21: 84 0f        	sty	$f                      ; 0xf
    5f23: 58           	cli
    5f24: a4 0f        	ldy	$f                      ; 0xf
    5f26: 78           	sei
    5f27: 85 0f        	sta	$f                      ; 0xf
    5f29: ad 0d e0     	lda	$e00d                   ; 0xe00d <end_block9+0x5783>
    5f2c: 84 0f        	sty	$f                      ; 0xf
    5f2e: 58           	cli
    5f2f: 8d 10 88     	sta	$8810                   ; 0x8810 <theOne.1>
    5f32: 8e 11 88     	stx	$8811                   ; 0x8811 <theOne.1+0x1>
    5f35: a6 5f        	ldx	$5f                     ; 0x5f <theOne.0>
    5f37: a5 60        	lda	$60                     ; 0x60 <theOne.0+0x1>
    5f39: d0 07        	bne	$5f42 <initTrack+0xab>
    5f3b: e0 00        	cpx	#$0
    5f3d: d0 03        	bne	$5f42 <initTrack+0xab>
    5f3f: 4c 48 62     	jmp	$6248 <initTrack+0x3b1>
    5f42: a4 6e        	ldy	$6e                     ; 0x6e <theOne.8>
    5f44: 84 24        	sty	$24                     ; 0x24 <__rc20>
    5f46: a4 6f        	ldy	$6f                     ; 0x6f <theOne.8+0x1>
    5f48: 84 25        	sty	$25                     ; 0x25 <__rc21>
    5f4a: a0 17        	ldy	#$17
    5f4c: 84 15        	sty	$15                     ; 0x15 <__rc5>
    5f4e: 86 26        	stx	$26                     ; 0x26 <__rc22>
    5f50: 85 27        	sta	$27                     ; 0x27 <__rc23>
    5f52: a6 24        	ldx	$24                     ; 0x24 <__rc20>
    5f54: 86 12        	stx	$12                     ; 0x12 <__rc2>
    5f56: a6 25        	ldx	$25                     ; 0x25 <__rc21>
    5f58: 86 13        	stx	$13                     ; 0x13 <__rc3>
    5f5a: 64 14        	stz	$14                     ; 0x14 <__rc4>
    5f5c: a9 00        	lda	#$0
    5f5e: a6 15        	ldx	$15                     ; 0x15 <__rc5>
    5f60: a4 15        	ldy	$15                     ; 0x15 <__rc5>
    5f62: 84 28        	sty	$28                     ; 0x28 <__rc24>
    5f64: 20 f0 78     	jsr	$78f0 <__memset>
    5f67: a2 17        	ldx	#$17
    5f69: 86 15        	stx	$15                     ; 0x15 <__rc5>
    5f6b: a9 01        	lda	#$1
    5f6d: a4 28        	ldy	$28                     ; 0x28 <__rc24>
    5f6f: 91 24        	sta	($24),y                 ; 0x24 <__rc20>
    5f71: a0 18        	ldy	#$18
    5f73: 3a           	dec
    5f74: 91 24        	sta	($24),y                 ; 0x24 <__rc20>
    5f76: a5 24        	lda	$24                     ; 0x24 <__rc20>
    5f78: 18           	clc
    5f79: 69 19        	adc	#$19
    5f7b: 85 24        	sta	$24                     ; 0x24 <__rc20>
    5f7d: a5 25        	lda	$25                     ; 0x25 <__rc21>
    5f7f: 69 00        	adc	#$0
    5f81: a2 ff        	ldx	#$ff
    5f83: c6 26        	dec	$26                     ; 0x26 <__rc22>
    5f85: e4 26        	cpx	$26                     ; 0x26 <__rc22>
    5f87: d0 02        	bne	$5f8b <initTrack+0xf4>
    5f89: c6 27        	dec	$27                     ; 0x27 <__rc23>
    5f8b: 85 25        	sta	$25                     ; 0x25 <__rc21>
    5f8d: a5 27        	lda	$27                     ; 0x27 <__rc23>
    5f8f: d0 c1        	bne	$5f52 <initTrack+0xbb>
    5f91: a5 26        	lda	$26                     ; 0x26 <__rc22>
    5f93: d0 bd        	bne	$5f52 <initTrack+0xbb>
    5f95: a9 0e        	lda	#$e
    5f97: 64 18        	stz	$18                     ; 0x18 <__rc8>
    5f99: a2 08        	ldx	#$8
    5f9b: 86 19        	stx	$19                     ; 0x19 <__rc9>
    5f9d: 64 16        	stz	$16                     ; 0x16 <__rc6>
    5f9f: 64 15        	stz	$15                     ; 0x15 <__rc5>
    5fa1: 64 14        	stz	$14                     ; 0x14 <__rc4>
    5fa3: a2 00        	ldx	#$0
    5fa5: 64 27        	stz	$27                     ; 0x27 <__rc23>
    5fa7: a4 14        	ldy	$14                     ; 0x14 <__rc4>
    5fa9: 84 12        	sty	$12                     ; 0x12 <__rc2>
    5fab: a4 15        	ldy	$15                     ; 0x15 <__rc5>
    5fad: 84 13        	sty	$13                     ; 0x13 <__rc3>
    5faf: a4 16        	ldy	$16                     ; 0x16 <__rc6>
    5fb1: 84 14        	sty	$14                     ; 0x14 <__rc4>
    5fb3: 85 15        	sta	$15                     ; 0x15 <__rc5>
    5fb5: 18           	clc
    5fb6: 69 04        	adc	#$4
    5fb8: 85 17        	sta	$17                     ; 0x17 <__rc7>
    5fba: a5 16        	lda	$16                     ; 0x16 <__rc6>
    5fbc: 69 00        	adc	#$0
    5fbe: 85 1b        	sta	$1b                     ; 0x1b <__rc11>
    5fc0: a5 13        	lda	$13                     ; 0x13 <__rc3>
    5fc2: 69 05        	adc	#$5
    5fc4: a4 1b        	ldy	$1b                     ; 0x1b <__rc11>
    5fc6: 84 16        	sty	$16                     ; 0x16 <__rc6>
    5fc8: 06 16        	asl	$16                     ; 0x16 <__rc6>
    5fca: 2a           	rol
    5fcb: 06 16        	asl	$16                     ; 0x16 <__rc6>
    5fcd: 2a           	rol
    5fce: 06 16        	asl	$16                     ; 0x16 <__rc6>
    5fd0: 2a           	rol
    5fd1: 86 1a        	stx	$1a                     ; 0x1a <__rc10>
    5fd3: a6 0f        	ldx	$f                      ; 0xf
    5fd5: 78           	sei
    5fd6: 85 0f        	sta	$f                      ; 0xf
    5fd8: a5 1b        	lda	$1b                     ; 0x1b <__rc11>
    5fda: 09 e0        	ora	#$e0
    5fdc: a4 17        	ldy	$17                     ; 0x17 <__rc7>
    5fde: 84 16        	sty	$16                     ; 0x16 <__rc6>
    5fe0: 85 17        	sta	$17                     ; 0x17 <__rc7>
    5fe2: b2 16        	lda	($16)                   ; 0x16 <__rc6>
    5fe4: 85 1c        	sta	$1c                     ; 0x1c <__rc12>
    5fe6: 86 0f        	stx	$f                      ; 0xf
    5fe8: 18           	clc
    5fe9: a5 15        	lda	$15                     ; 0x15 <__rc5>
    5feb: 69 05        	adc	#$5
    5fed: 85 17        	sta	$17                     ; 0x17 <__rc7>
    5fef: a5 14        	lda	$14                     ; 0x14 <__rc4>
    5ff1: 69 00        	adc	#$0
    5ff3: 85 1b        	sta	$1b                     ; 0x1b <__rc11>
    5ff5: a5 13        	lda	$13                     ; 0x13 <__rc3>
    5ff7: 69 05        	adc	#$5
    5ff9: a6 1b        	ldx	$1b                     ; 0x1b <__rc11>
    5ffb: 86 16        	stx	$16                     ; 0x16 <__rc6>
    5ffd: 06 16        	asl	$16                     ; 0x16 <__rc6>
    5fff: 2a           	rol
    6000: 06 16        	asl	$16                     ; 0x16 <__rc6>
    6002: 2a           	rol
    6003: 06 16        	asl	$16                     ; 0x16 <__rc6>
    6005: 2a           	rol
    6006: 58           	cli
    6007: a6 0f        	ldx	$f                      ; 0xf
    6009: 78           	sei
    600a: 85 0f        	sta	$f                      ; 0xf
    600c: a5 1b        	lda	$1b                     ; 0x1b <__rc11>
    600e: 09 e0        	ora	#$e0
    6010: a4 17        	ldy	$17                     ; 0x17 <__rc7>
    6012: 84 16        	sty	$16                     ; 0x16 <__rc6>
    6014: 85 17        	sta	$17                     ; 0x17 <__rc7>
    6016: b2 16        	lda	($16)                   ; 0x16 <__rc6>
    6018: 85 1d        	sta	$1d                     ; 0x1d <__rc13>
    601a: 86 0f        	stx	$f                      ; 0xf
    601c: 18           	clc
    601d: a5 15        	lda	$15                     ; 0x15 <__rc5>
    601f: 69 06        	adc	#$6
    6021: 85 17        	sta	$17                     ; 0x17 <__rc7>
    6023: a5 14        	lda	$14                     ; 0x14 <__rc4>
    6025: 69 00        	adc	#$0
    6027: 85 1b        	sta	$1b                     ; 0x1b <__rc11>
    6029: a5 13        	lda	$13                     ; 0x13 <__rc3>
    602b: 69 05        	adc	#$5
    602d: a6 1b        	ldx	$1b                     ; 0x1b <__rc11>
    602f: 86 16        	stx	$16                     ; 0x16 <__rc6>
    6031: 06 16        	asl	$16                     ; 0x16 <__rc6>
    6033: 2a           	rol
    6034: 06 16        	asl	$16                     ; 0x16 <__rc6>
    6036: 2a           	rol
    6037: 06 16        	asl	$16                     ; 0x16 <__rc6>
    6039: 2a           	rol
    603a: 58           	cli
    603b: a6 0f        	ldx	$f                      ; 0xf
    603d: 78           	sei
    603e: 85 0f        	sta	$f                      ; 0xf
    6040: a4 17        	ldy	$17                     ; 0x17 <__rc7>
    6042: 84 16        	sty	$16                     ; 0x16 <__rc6>
    6044: a5 1b        	lda	$1b                     ; 0x1b <__rc11>
    6046: 09 e0        	ora	#$e0
    6048: 85 17        	sta	$17                     ; 0x17 <__rc7>
    604a: b2 16        	lda	($16)                   ; 0x16 <__rc6>
    604c: 85 22        	sta	$22                     ; 0x22 <__rc18>
    604e: 86 0f        	stx	$f                      ; 0xf
    6050: 18           	clc
    6051: a5 15        	lda	$15                     ; 0x15 <__rc5>
    6053: 69 07        	adc	#$7
    6055: 85 17        	sta	$17                     ; 0x17 <__rc7>
    6057: a5 14        	lda	$14                     ; 0x14 <__rc4>
    6059: 69 00        	adc	#$0
    605b: 85 1b        	sta	$1b                     ; 0x1b <__rc11>
    605d: a5 13        	lda	$13                     ; 0x13 <__rc3>
    605f: 69 05        	adc	#$5
    6061: a6 1b        	ldx	$1b                     ; 0x1b <__rc11>
    6063: 86 16        	stx	$16                     ; 0x16 <__rc6>
    6065: 06 16        	asl	$16                     ; 0x16 <__rc6>
    6067: 2a           	rol
    6068: 06 16        	asl	$16                     ; 0x16 <__rc6>
    606a: 2a           	rol
    606b: 06 16        	asl	$16                     ; 0x16 <__rc6>
    606d: 2a           	rol
    606e: 58           	cli
    606f: a6 0f        	ldx	$f                      ; 0xf
    6071: 78           	sei
    6072: 85 0f        	sta	$f                      ; 0xf
    6074: a4 17        	ldy	$17                     ; 0x17 <__rc7>
    6076: 84 16        	sty	$16                     ; 0x16 <__rc6>
    6078: a5 1b        	lda	$1b                     ; 0x1b <__rc11>
    607a: 09 e0        	ora	#$e0
    607c: 85 17        	sta	$17                     ; 0x17 <__rc7>
    607e: b2 16        	lda	($16)                   ; 0x16 <__rc6>
    6080: 85 25        	sta	$25                     ; 0x25 <__rc21>
    6082: 86 0f        	stx	$f                      ; 0xf
    6084: 58           	cli
    6085: a6 6e        	ldx	$6e                     ; 0x6e <theOne.8>
    6087: 86 1e        	stx	$1e                     ; 0x1e <__rc14>
    6089: a6 6f        	ldx	$6f                     ; 0x6f <theOne.8+0x1>
    608b: 86 1f        	stx	$1f                     ; 0x1f <__rc15>
    608d: 18           	clc
    608e: a6 19        	ldx	$19                     ; 0x19 <__rc9>
    6090: 86 24        	stx	$24                     ; 0x24 <__rc20>
    6092: a5 19        	lda	$19                     ; 0x19 <__rc9>
    6094: 65 6e        	adc	$6e                     ; 0x6e <theOne.8>
    6096: aa           	tax
    6097: a4 18        	ldy	$18                     ; 0x18 <__rc8>
    6099: 84 23        	sty	$23                     ; 0x23 <__rc19>
    609b: a5 18        	lda	$18                     ; 0x18 <__rc8>
    609d: 65 6f        	adc	$6f                     ; 0x6f <theOne.8+0x1>
    609f: 86 16        	stx	$16                     ; 0x16 <__rc6>
    60a1: 85 17        	sta	$17                     ; 0x17 <__rc7>
    60a3: 85 19        	sta	$19                     ; 0x19 <__rc9>
    60a5: 18           	clc
    60a6: 8a           	txa
    60a7: 69 f8        	adc	#$f8
    60a9: 85 18        	sta	$18                     ; 0x18 <__rc8>
    60ab: a5 19        	lda	$19                     ; 0x19 <__rc9>
    60ad: 69 ff        	adc	#$ff
    60af: 85 19        	sta	$19                     ; 0x19 <__rc9>
    60b1: 18           	clc
    60b2: a5 15        	lda	$15                     ; 0x15 <__rc5>
    60b4: 69 08        	adc	#$8
    60b6: aa           	tax
    60b7: a5 14        	lda	$14                     ; 0x14 <__rc4>
    60b9: 69 00        	adc	#$0
    60bb: 85 1b        	sta	$1b                     ; 0x1b <__rc11>
    60bd: a5 13        	lda	$13                     ; 0x13 <__rc3>
    60bf: 69 05        	adc	#$5
    60c1: 85 26        	sta	$26                     ; 0x26 <__rc22>
    60c3: a5 12        	lda	$12                     ; 0x12 <__rc2>
    60c5: 69 00        	adc	#$0
    60c7: 85 29        	sta	$29                     ; 0x29 <__rc25>
    60c9: 8a           	txa
    60ca: 92 16        	sta	($16)                   ; 0x16 <__rc6>
    60cc: a0 01        	ldy	#$1
    60ce: a5 1b        	lda	$1b                     ; 0x1b <__rc11>
    60d0: 91 16        	sta	($16),y                 ; 0x16 <__rc6>
    60d2: 84 28        	sty	$28                     ; 0x28 <__rc24>
    60d4: c8           	iny
    60d5: a5 26        	lda	$26                     ; 0x26 <__rc22>
    60d7: 91 16        	sta	($16),y                 ; 0x16 <__rc6>
    60d9: 84 26        	sty	$26                     ; 0x26 <__rc22>
    60db: c8           	iny
    60dc: a5 29        	lda	$29                     ; 0x29 <__rc25>
    60de: 91 16        	sta	($16),y                 ; 0x16 <__rc6>
    60e0: 84 16        	sty	$16                     ; 0x16 <__rc6>
    60e2: a5 25        	lda	$25                     ; 0x25 <__rc21>
    60e4: 92 18        	sta	($18)                   ; 0x18 <__rc8>
    60e6: a5 22        	lda	$22                     ; 0x22 <__rc18>
    60e8: a4 28        	ldy	$28                     ; 0x28 <__rc24>
    60ea: 91 18        	sta	($18),y                 ; 0x18 <__rc8>
    60ec: a5 1d        	lda	$1d                     ; 0x1d <__rc13>
    60ee: a4 26        	ldy	$26                     ; 0x26 <__rc22>
    60f0: 91 18        	sta	($18),y                 ; 0x18 <__rc8>
    60f2: a5 1c        	lda	$1c                     ; 0x1c <__rc12>
    60f4: a4 16        	ldy	$16                     ; 0x16 <__rc6>
    60f6: 91 18        	sta	($18),y                 ; 0x18 <__rc8>
    60f8: 85 16        	sta	$16                     ; 0x16 <__rc6>
    60fa: 18           	clc
    60fb: a5 25        	lda	$25                     ; 0x25 <__rc21>
    60fd: 65 15        	adc	$15                     ; 0x15 <__rc5>
    60ff: 85 15        	sta	$15                     ; 0x15 <__rc5>
    6101: a5 22        	lda	$22                     ; 0x22 <__rc18>
    6103: 65 14        	adc	$14                     ; 0x14 <__rc4>
    6105: a8           	tay
    6106: a5 1d        	lda	$1d                     ; 0x1d <__rc13>
    6108: 65 13        	adc	$13                     ; 0x13 <__rc3>
    610a: aa           	tax
    610b: a5 16        	lda	$16                     ; 0x16 <__rc6>
    610d: 65 12        	adc	$12                     ; 0x12 <__rc2>
    610f: 85 12        	sta	$12                     ; 0x12 <__rc2>
    6111: 18           	clc
    6112: a5 15        	lda	$15                     ; 0x15 <__rc5>
    6114: 69 08        	adc	#$8
    6116: 85 17        	sta	$17                     ; 0x17 <__rc7>
    6118: 98           	tya
    6119: 69 00        	adc	#$0
    611b: 85 16        	sta	$16                     ; 0x16 <__rc6>
    611d: 8a           	txa
    611e: 69 00        	adc	#$0
    6120: 85 15        	sta	$15                     ; 0x15 <__rc5>
    6122: a5 12        	lda	$12                     ; 0x12 <__rc2>
    6124: 69 00        	adc	#$0
    6126: 85 14        	sta	$14                     ; 0x14 <__rc4>
    6128: a6 1a        	ldx	$1a                     ; 0x1a <__rc10>
    612a: a4 27        	ldy	$27                     ; 0x27 <__rc23>
    612c: e8           	inx
    612d: d0 01        	bne	$6130 <initTrack+0x299>
    612f: c8           	iny
    6130: a5 5f        	lda	$5f                     ; 0x5f <theOne.0>
    6132: 85 12        	sta	$12                     ; 0x12 <__rc2>
    6134: a5 60        	lda	$60                     ; 0x60 <theOne.0+0x1>
    6136: 85 13        	sta	$13                     ; 0x13 <__rc3>
    6138: 18           	clc
    6139: a5 24        	lda	$24                     ; 0x24 <__rc20>
    613b: 69 19        	adc	#$19
    613d: 85 19        	sta	$19                     ; 0x19 <__rc9>
    613f: a5 23        	lda	$23                     ; 0x23 <__rc19>
    6141: 69 00        	adc	#$0
    6143: 85 18        	sta	$18                     ; 0x18 <__rc8>
    6145: 84 27        	sty	$27                     ; 0x27 <__rc23>
    6147: c4 13        	cpy	$13                     ; 0x13 <__rc3>
    6149: d0 04        	bne	$614f <initTrack+0x2b8>
    614b: e4 12        	cpx	$12                     ; 0x12 <__rc2>
    614d: 80 02        	bra	$6151 <initTrack+0x2ba>
    614f: c4 13        	cpy	$13                     ; 0x13 <__rc3>
    6151: a5 17        	lda	$17                     ; 0x17 <__rc7>
    6153: b0 03        	bcs	$6158 <initTrack+0x2c1>
    6155: 4c a7 5f     	jmp	$5fa7 <initTrack+0x110>
    6158: a5 13        	lda	$13                     ; 0x13 <__rc3>
    615a: d0 07        	bne	$6163 <initTrack+0x2cc>
    615c: a5 12        	lda	$12                     ; 0x12 <__rc2>
    615e: d0 03        	bne	$6163 <initTrack+0x2cc>
    6160: 4c 48 62     	jmp	$6248 <initTrack+0x3b1>
    6163: a6 1e        	ldx	$1e                     ; 0x1e <__rc14>
    6165: 86 14        	stx	$14                     ; 0x14 <__rc4>
    6167: a6 1f        	ldx	$1f                     ; 0x1f <__rc15>
    6169: 86 15        	stx	$15                     ; 0x15 <__rc5>
    616b: 64 16        	stz	$16                     ; 0x16 <__rc6>
    616d: 64 25        	stz	$25                     ; 0x25 <__rc21>
    616f: a0 00        	ldy	#$0
    6171: a2 00        	ldx	#$0
    6173: 86 27        	stx	$27                     ; 0x27 <__rc23>
    6175: 84 26        	sty	$26                     ; 0x26 <__rc22>
    6177: a5 16        	lda	$16                     ; 0x16 <__rc6>
    6179: 18           	clc
    617a: a2 01        	ldx	#$1
    617c: b0 02        	bcs	$6180 <initTrack+0x2e9>
    617e: a2 00        	ldx	#$0
    6180: 86 19        	stx	$19                     ; 0x19 <__rc9>
    6182: 65 14        	adc	$14                     ; 0x14 <__rc4>
    6184: a8           	tay
    6185: a6 16        	ldx	$16                     ; 0x16 <__rc6>
    6187: a5 25        	lda	$25                     ; 0x25 <__rc21>
    6189: 65 15        	adc	$15                     ; 0x15 <__rc5>
    618b: 84 16        	sty	$16                     ; 0x16 <__rc6>
    618d: 85 17        	sta	$17                     ; 0x17 <__rc7>
    618f: a0 18        	ldy	#$18
    6191: b1 16        	lda	($16),y                 ; 0x16 <__rc6>
    6193: f0 04        	beq	$6199 <initTrack+0x302>
    6195: 8a           	txa
    6196: 4c 23 62     	jmp	$6223 <initTrack+0x38c>
    6199: 86 24        	stx	$24                     ; 0x24 <__rc20>
    619b: 8a           	txa
    619c: a6 19        	ldx	$19                     ; 0x19 <__rc9>
    619e: e0 01        	cpx	#$1
    61a0: 65 14        	adc	$14                     ; 0x14 <__rc4>
    61a2: 85 19        	sta	$19                     ; 0x19 <__rc9>
    61a4: a5 25        	lda	$25                     ; 0x25 <__rc21>
    61a6: 65 15        	adc	$15                     ; 0x15 <__rc5>
    61a8: a8           	tay
    61a9: 18           	clc
    61aa: a6 19        	ldx	$19                     ; 0x19 <__rc9>
    61ac: a5 19        	lda	$19                     ; 0x19 <__rc9>
    61ae: 69 04        	adc	#$4
    61b0: 85 18        	sta	$18                     ; 0x18 <__rc8>
    61b2: 98           	tya
    61b3: 84 1b        	sty	$1b                     ; 0x1b <__rc11>
    61b5: 69 00        	adc	#$0
    61b7: 85 19        	sta	$19                     ; 0x19 <__rc9>
    61b9: a0 03        	ldy	#$3
    61bb: b1 18        	lda	($18),y                 ; 0x18 <__rc8>
    61bd: d1 16        	cmp	($16),y                 ; 0x16 <__rc6>
    61bf: d0 26        	bne	$61e7 <initTrack+0x350>
    61c1: a0 02        	ldy	#$2
    61c3: b1 18        	lda	($18),y                 ; 0x18 <__rc8>
    61c5: 85 1c        	sta	$1c                     ; 0x1c <__rc12>
    61c7: b1 16        	lda	($16),y                 ; 0x16 <__rc6>
    61c9: 85 1a        	sta	$1a                     ; 0x1a <__rc10>
    61cb: a4 1c        	ldy	$1c                     ; 0x1c <__rc12>
    61cd: c4 1a        	cpy	$1a                     ; 0x1a <__rc10>
    61cf: d0 1a        	bne	$61eb <initTrack+0x354>
    61d1: a0 01        	ldy	#$1
    61d3: b1 18        	lda	($18),y                 ; 0x18 <__rc8>
    61d5: 85 19        	sta	$19                     ; 0x19 <__rc9>
    61d7: b1 16        	lda	($16),y                 ; 0x16 <__rc6>
    61d9: 85 18        	sta	$18                     ; 0x18 <__rc8>
    61db: a4 19        	ldy	$19                     ; 0x19 <__rc9>
    61dd: c4 18        	cpy	$18                     ; 0x18 <__rc8>
    61df: f0 03        	beq	$61e4 <initTrack+0x34d>
    61e1: 4c 84 62     	jmp	$6284 <initTrack+0x3ed>
    61e4: 4c 6d 62     	jmp	$626d <initTrack+0x3d6>
    61e7: d1 16        	cmp	($16),y                 ; 0x16 <__rc6>
    61e9: 80 02        	bra	$61ed <initTrack+0x356>
    61eb: c4 1a        	cpy	$1a                     ; 0x1a <__rc10>
    61ed: a6 26        	ldx	$26                     ; 0x26 <__rc22>
    61ef: b0 2a        	bcs	$621b <initTrack+0x384>
    61f1: 64 40        	stz	$40                     ; 0x40 <_col>
    61f3: 9c 14 d0     	stz	$d014                   ; 0xd014 <end_block9+0x478a>
    61f6: 9c 15 d0     	stz	$d015                   ; 0xd015 <end_block9+0x478b>
    61f9: 8a           	txa
    61fa: 18           	clc
    61fb: 69 0f        	adc	#$f
    61fd: 85 41        	sta	$41                     ; 0x41 <_row>
    61ff: 8d 16 d0     	sta	$d016                   ; 0xd016 <end_block9+0x478c>
    6202: 9c 17 d0     	stz	$d017                   ; 0xd017 <end_block9+0x478d>
    6205: 8a           	txa
    6206: 20 23 50     	jsr	$5023 <chainEvent>
    6209: a6 6e        	ldx	$6e                     ; 0x6e <theOne.8>
    620b: a4 6f        	ldy	$6f                     ; 0x6f <theOne.8+0x1>
    620d: 86 14        	stx	$14                     ; 0x14 <__rc4>
    620f: 84 15        	sty	$15                     ; 0x15 <__rc5>
    6211: a6 5f        	ldx	$5f                     ; 0x5f <theOne.0>
    6213: a4 60        	ldy	$60                     ; 0x60 <theOne.0+0x1>
    6215: 86 12        	stx	$12                     ; 0x12 <__rc2>
    6217: 84 13        	sty	$13                     ; 0x13 <__rc3>
    6219: 80 06        	bra	$6221 <initTrack+0x38a>
    621b: a0 18        	ldy	#$18
    621d: a9 01        	lda	#$1
    621f: 91 16        	sta	($16),y                 ; 0x16 <__rc6>
    6221: a5 24        	lda	$24                     ; 0x24 <__rc20>
    6223: a6 27        	ldx	$27                     ; 0x27 <__rc23>
    6225: a4 26        	ldy	$26                     ; 0x26 <__rc22>
    6227: c8           	iny
    6228: d0 01        	bne	$622b <initTrack+0x394>
    622a: e8           	inx
    622b: 18           	clc
    622c: 69 19        	adc	#$19
    622e: 85 16        	sta	$16                     ; 0x16 <__rc6>
    6230: a5 25        	lda	$25                     ; 0x25 <__rc21>
    6232: 69 00        	adc	#$0
    6234: 85 25        	sta	$25                     ; 0x25 <__rc21>
    6236: e4 13        	cpx	$13                     ; 0x13 <__rc3>
    6238: d0 07        	bne	$6241 <initTrack+0x3aa>
    623a: c4 12        	cpy	$12                     ; 0x12 <__rc2>
    623c: b0 0a        	bcs	$6248 <initTrack+0x3b1>
    623e: 4c 73 61     	jmp	$6173 <initTrack+0x2dc>
    6241: e4 13        	cpx	$13                     ; 0x13 <__rc3>
    6243: b0 03        	bcs	$6248 <initTrack+0x3b1>
    6245: 4c 73 61     	jmp	$6173 <initTrack+0x2dc>
    6248: a0 00        	ldy	#$0
    624a: b1 10        	lda	($10),y                 ; 0x10 <__zp_data_size>
    624c: 85 29        	sta	$29                     ; 0x29 <__rc25>
    624e: c8           	iny
    624f: b1 10        	lda	($10),y                 ; 0x10 <__zp_data_size>
    6251: 85 28        	sta	$28                     ; 0x28 <__rc24>
    6253: fa           	plx
    6254: 86 27        	stx	$27                     ; 0x27 <__rc23>
    6256: fa           	plx
    6257: 86 26        	stx	$26                     ; 0x26 <__rc22>
    6259: fa           	plx
    625a: 86 25        	stx	$25                     ; 0x25 <__rc21>
    625c: fa           	plx
    625d: 86 24        	stx	$24                     ; 0x24 <__rc20>
    625f: 18           	clc
    6260: a5 10        	lda	$10                     ; 0x10 <__zp_data_size>
    6262: 69 02        	adc	#$2
    6264: 85 10        	sta	$10                     ; 0x10 <__zp_data_size>
    6266: a5 11        	lda	$11                     ; 0x11 <__rc1>
    6268: 69 00        	adc	#$0
    626a: 85 11        	sta	$11                     ; 0x11 <__rc1>
    626c: 60           	rts
    626d: 86 18        	stx	$18                     ; 0x18 <__rc8>
    626f: a6 1b        	ldx	$1b                     ; 0x1b <__rc11>
    6271: 86 19        	stx	$19                     ; 0x19 <__rc9>
    6273: a0 04        	ldy	#$4
    6275: b1 18        	lda	($18),y                 ; 0x18 <__rc8>
    6277: 85 19        	sta	$19                     ; 0x19 <__rc9>
    6279: b2 16        	lda	($16)                   ; 0x16 <__rc6>
    627b: 85 18        	sta	$18                     ; 0x18 <__rc8>
    627d: a6 19        	ldx	$19                     ; 0x19 <__rc9>
    627f: e4 18        	cpx	$18                     ; 0x18 <__rc8>
    6281: 4c ed 61     	jmp	$61ed <initTrack+0x356>
    6284: c4 18        	cpy	$18                     ; 0x18 <__rc8>
    6286: 4c ed 61     	jmp	$61ed <initTrack+0x356>

00006289 <displayInfo>:
    6289: 18           	clc
    628a: a5 10        	lda	$10                     ; 0x10 <__zp_data_size>
    628c: 69 fe        	adc	#$fe
    628e: 85 10        	sta	$10                     ; 0x10 <__zp_data_size>
    6290: a5 11        	lda	$11                     ; 0x11 <__rc1>
    6292: 69 ff        	adc	#$ff
    6294: 85 11        	sta	$11                     ; 0x11 <__rc1>
    6296: 64 40        	stz	$40                     ; 0x40 <_col>
    6298: 9c 14 d0     	stz	$d014                   ; 0xd014 <end_block9+0x478a>
    629b: 9c 15 d0     	stz	$d015                   ; 0xd015 <end_block9+0x478b>
    629e: a2 19        	ldx	#$19
    62a0: 86 41        	stx	$41                     ; 0x41 <_row>
    62a2: 8e 16 d0     	stx	$d016                   ; 0xd016 <end_block9+0x478c>
    62a5: 9c 17 d0     	stz	$d017                   ; 0xd017 <end_block9+0x478d>
    62a8: a2 b1        	ldx	#$b1
    62aa: 86 12        	stx	$12                     ; 0x12 <__rc2>
    62ac: a2 81        	ldx	#$81
    62ae: 86 13        	stx	$13                     ; 0x13 <__rc3>
    62b0: 20 97 1b     	jsr	$1b97 <textPrint>
    62b3: a2 01        	ldx	#$1
    62b5: 86 40        	stx	$40                     ; 0x40 <_col>
    62b7: 8e 14 d0     	stx	$d014                   ; 0xd014 <end_block9+0x478a>
    62ba: 9c 15 d0     	stz	$d015                   ; 0xd015 <end_block9+0x478b>
    62bd: 86 41        	stx	$41                     ; 0x41 <_row>
    62bf: 8e 16 d0     	stx	$d016                   ; 0xd016 <end_block9+0x478c>
    62c2: 86 7f        	stx	$7f                     ; 0x7f <__data_size+0x35>
    62c4: 9c 17 d0     	stz	$d017                   ; 0xd017 <end_block9+0x478d>
    62c7: a2 10        	ldx	#$10
    62c9: 86 30        	stx	$30                     ; 0x30 <_ccolor>
    62cb: a2 47        	ldx	#$47
    62cd: 86 12        	stx	$12                     ; 0x12 <__rc2>
    62cf: a2 7f        	ldx	#$7f
    62d1: 86 13        	stx	$13                     ; 0x13 <__rc3>
    62d3: 20 97 1b     	jsr	$1b97 <textPrint>
    62d6: 64 30        	stz	$30                     ; 0x30 <_ccolor>
    62d8: a9 12        	lda	#$12
    62da: 92 10        	sta	($10)                   ; 0x10 <__zp_data_size>
    62dc: a4 7f        	ldy	$7f                     ; 0x7f <__data_size+0x35>
    62de: a9 88        	lda	#$88
    62e0: 91 10        	sta	($10),y                 ; 0x10 <__zp_data_size>
    62e2: a2 f0        	ldx	#$f0
    62e4: 86 12        	stx	$12                     ; 0x12 <__rc2>
    62e6: a2 80        	ldx	#$80
    62e8: 86 13        	stx	$13                     ; 0x13 <__rc3>
    62ea: 20 e5 73     	jsr	$73e5 <printf>
    62ed: a6 7f        	ldx	$7f                     ; 0x7f <__data_size+0x35>
    62ef: 86 40        	stx	$40                     ; 0x40 <_col>
    62f1: 8e 14 d0     	stx	$d014                   ; 0xd014 <end_block9+0x478a>
    62f4: 9c 15 d0     	stz	$d015                   ; 0xd015 <end_block9+0x478b>
    62f7: a2 02        	ldx	#$2
    62f9: 86 41        	stx	$41                     ; 0x41 <_row>
    62fb: 8e 16 d0     	stx	$d016                   ; 0xd016 <end_block9+0x478c>
    62fe: 9c 17 d0     	stz	$d017                   ; 0xd017 <end_block9+0x478d>
    6301: a2 10        	ldx	#$10
    6303: 86 30        	stx	$30                     ; 0x30 <_ccolor>
    6305: a2 84        	ldx	#$84
    6307: 86 12        	stx	$12                     ; 0x12 <__rc2>
    6309: a2 82        	ldx	#$82
    630b: 86 13        	stx	$13                     ; 0x13 <__rc3>
    630d: 20 97 1b     	jsr	$1b97 <textPrint>
    6310: 64 30        	stz	$30                     ; 0x30 <_ccolor>
    6312: a5 4a        	lda	$4a                     ; 0x4a <myRecord.1>
    6314: a6 4b        	ldx	$4b                     ; 0x4b <myRecord.1+0x1>
    6316: 92 10        	sta	($10)                   ; 0x10 <__zp_data_size>
    6318: a0 01        	ldy	#$1
    631a: 8a           	txa
    631b: 91 10        	sta	($10),y                 ; 0x10 <__zp_data_size>
    631d: a2 20        	ldx	#$20
    631f: 86 12        	stx	$12                     ; 0x12 <__rc2>
    6321: a2 82        	ldx	#$82
    6323: 86 13        	stx	$13                     ; 0x13 <__rc3>
    6325: 20 e5 73     	jsr	$73e5 <printf>
    6328: a2 10        	ldx	#$10
    632a: 86 30        	stx	$30                     ; 0x30 <_ccolor>
    632c: a2 a6        	ldx	#$a6
    632e: 86 12        	stx	$12                     ; 0x12 <__rc2>
    6330: a2 7f        	ldx	#$7f
    6332: 86 13        	stx	$13                     ; 0x13 <__rc3>
    6334: 20 97 1b     	jsr	$1b97 <textPrint>
    6337: 64 30        	stz	$30                     ; 0x30 <_ccolor>
    6339: a5 4c        	lda	$4c                     ; 0x4c <myRecord.2>
    633b: a6 4d        	ldx	$4d                     ; 0x4d <myRecord.2+0x1>
    633d: 92 10        	sta	($10)                   ; 0x10 <__zp_data_size>
    633f: a0 01        	ldy	#$1
    6341: 8a           	txa
    6342: 91 10        	sta	($10),y                 ; 0x10 <__zp_data_size>
    6344: a2 44        	ldx	#$44
    6346: 86 12        	stx	$12                     ; 0x12 <__rc2>
    6348: a2 84        	ldx	#$84
    634a: 86 13        	stx	$13                     ; 0x13 <__rc3>
    634c: 20 e5 73     	jsr	$73e5 <printf>
    634f: a2 10        	ldx	#$10
    6351: 86 30        	stx	$30                     ; 0x30 <_ccolor>
    6353: a6 4d        	ldx	$4d                     ; 0x4d <myRecord.2+0x1>
    6355: d0 06        	bne	$635d <displayInfo+0xd4>
    6357: a6 4c        	ldx	$4c                     ; 0x4c <myRecord.2>
    6359: e0 02        	cpx	#$2
    635b: 80 02        	bra	$635f <displayInfo+0xd6>
    635d: e0 00        	cpx	#$0
    635f: a2 d2        	ldx	#$d2
    6361: 86 12        	stx	$12                     ; 0x12 <__rc2>
    6363: a2 7d        	ldx	#$7d
    6365: 86 13        	stx	$13                     ; 0x13 <__rc3>
    6367: b0 08        	bcs	$6371 <displayInfo+0xe8>
    6369: a2 a5        	ldx	#$a5
    636b: 86 12        	stx	$12                     ; 0x12 <__rc2>
    636d: a2 7e        	ldx	#$7e
    636f: 86 13        	stx	$13                     ; 0x13 <__rc3>
    6371: 20 97 1b     	jsr	$1b97 <textPrint>
    6374: 64 30        	stz	$30                     ; 0x30 <_ccolor>
    6376: a2 01        	ldx	#$1
    6378: 86 40        	stx	$40                     ; 0x40 <_col>
    637a: 8e 14 d0     	stx	$d014                   ; 0xd014 <end_block9+0x478a>
    637d: 9c 15 d0     	stz	$d015                   ; 0xd015 <end_block9+0x478b>
    6380: a2 07        	ldx	#$7
    6382: 86 41        	stx	$41                     ; 0x41 <_row>
    6384: 8e 16 d0     	stx	$d016                   ; 0xd016 <end_block9+0x478c>
    6387: 9c 17 d0     	stz	$d017                   ; 0xd017 <end_block9+0x478d>
    638a: a2 b6        	ldx	#$b6
    638c: 86 12        	stx	$12                     ; 0x12 <__rc2>
    638e: a2 7f        	ldx	#$7f
    6390: 86 13        	stx	$13                     ; 0x13 <__rc3>
    6392: 20 97 1b     	jsr	$1b97 <textPrint>
    6395: a2 00        	ldx	#$0
    6397: 86 7f        	stx	$7f                     ; 0x7f <__data_size+0x35>
    6399: 8a           	txa
    639a: 18           	clc
    639b: 69 08        	adc	#$8
    639d: a0 01        	ldy	#$1
    639f: 84 40        	sty	$40                     ; 0x40 <_col>
    63a1: 8c 14 d0     	sty	$d014                   ; 0xd014 <end_block9+0x478a>
    63a4: 9c 15 d0     	stz	$d015                   ; 0xd015 <end_block9+0x478b>
    63a7: 85 41        	sta	$41                     ; 0x41 <_row>
    63a9: 8d 16 d0     	sta	$d016                   ; 0xd016 <end_block9+0x478c>
    63ac: 9c 17 d0     	stz	$d017                   ; 0xd017 <end_block9+0x478d>
    63af: 8a           	txa
    63b0: 92 10        	sta	($10)                   ; 0x10 <__zp_data_size>
    63b2: a9 00        	lda	#$0
    63b4: 91 10        	sta	($10),y                 ; 0x10 <__zp_data_size>
    63b6: a2 f4        	ldx	#$f4
    63b8: 86 12        	stx	$12                     ; 0x12 <__rc2>
    63ba: a2 7e        	ldx	#$7e
    63bc: 86 13        	stx	$13                     ; 0x13 <__rc3>
    63be: 20 e5 73     	jsr	$73e5 <printf>
    63c1: a6 7f        	ldx	$7f                     ; 0x7f <__data_size+0x35>
    63c3: e8           	inx
    63c4: e0 10        	cpx	#$10
    63c6: d0 cf        	bne	$6397 <displayInfo+0x10e>
    63c8: a2 06        	ldx	#$6
    63ca: 86 40        	stx	$40                     ; 0x40 <_col>
    63cc: 8e 14 d0     	stx	$d014                   ; 0xd014 <end_block9+0x478a>
    63cf: 9c 15 d0     	stz	$d015                   ; 0xd015 <end_block9+0x478b>
    63d2: a2 11        	ldx	#$11
    63d4: 86 41        	stx	$41                     ; 0x41 <_row>
    63d6: 8e 16 d0     	stx	$d016                   ; 0xd016 <end_block9+0x478c>
    63d9: 9c 17 d0     	stz	$d017                   ; 0xd017 <end_block9+0x478d>
    63dc: a2 a0        	ldx	#$a0
    63de: 86 30        	stx	$30                     ; 0x30 <_ccolor>
    63e0: a2 25        	ldx	#$25
    63e2: 86 12        	stx	$12                     ; 0x12 <__rc2>
    63e4: a2 82        	ldx	#$82
    63e6: 86 13        	stx	$13                     ; 0x13 <__rc3>
    63e8: 20 97 1b     	jsr	$1b97 <textPrint>
    63eb: 64 40        	stz	$40                     ; 0x40 <_col>
    63ed: 9c 14 d0     	stz	$d014                   ; 0xd014 <end_block9+0x478a>
    63f0: 9c 15 d0     	stz	$d015                   ; 0xd015 <end_block9+0x478b>
    63f3: a2 19        	ldx	#$19
    63f5: 86 41        	stx	$41                     ; 0x41 <_row>
    63f7: 8e 16 d0     	stx	$d016                   ; 0xd016 <end_block9+0x478c>
    63fa: 9c 17 d0     	stz	$d017                   ; 0xd017 <end_block9+0x478d>
    63fd: a5 48        	lda	$48                     ; 0x48 <myRecord.0>
    63ff: a6 49        	ldx	$49                     ; 0x49 <myRecord.0+0x1>
    6401: 92 10        	sta	($10)                   ; 0x10 <__zp_data_size>
    6403: a0 01        	ldy	#$1
    6405: 8a           	txa
    6406: 91 10        	sta	($10),y                 ; 0x10 <__zp_data_size>
    6408: a2 89        	ldx	#$89
    640a: 86 12        	stx	$12                     ; 0x12 <__rc2>
    640c: a2 81        	ldx	#$81
    640e: 86 13        	stx	$13                     ; 0x13 <__rc3>
    6410: 20 e5 73     	jsr	$73e5 <printf>
    6413: 18           	clc
    6414: a5 10        	lda	$10                     ; 0x10 <__zp_data_size>
    6416: 69 02        	adc	#$2
    6418: 85 10        	sta	$10                     ; 0x10 <__zp_data_size>
    641a: a5 11        	lda	$11                     ; 0x11 <__rc1>
    641c: 69 00        	adc	#$0
    641e: 85 11        	sta	$11                     ; 0x11 <__rc1>
    6420: 60           	rts

00006421 <superExtraInfo>:
    6421: 18           	clc
    6422: a5 10        	lda	$10                     ; 0x10 <__zp_data_size>
    6424: 69 fe        	adc	#$fe
    6426: 85 10        	sta	$10                     ; 0x10 <__zp_data_size>
    6428: a5 11        	lda	$11                     ; 0x11 <__rc1>
    642a: 69 ff        	adc	#$ff
    642c: 85 11        	sta	$11                     ; 0x11 <__rc1>
    642e: a2 10        	ldx	#$10
    6430: 86 30        	stx	$30                     ; 0x30 <_ccolor>
    6432: a2 01        	ldx	#$1
    6434: 86 40        	stx	$40                     ; 0x40 <_col>
    6436: 8e 14 d0     	stx	$d014                   ; 0xd014 <end_block9+0x478a>
    6439: 9c 15 d0     	stz	$d015                   ; 0xd015 <end_block9+0x478b>
    643c: a2 1d        	ldx	#$1d
    643e: 86 41        	stx	$41                     ; 0x41 <_row>
    6440: 8e 16 d0     	stx	$d016                   ; 0xd016 <end_block9+0x478c>
    6443: 9c 17 d0     	stz	$d017                   ; 0xd017 <end_block9+0x478d>
    6446: a2 a9        	ldx	#$a9
    6448: 86 12        	stx	$12                     ; 0x12 <__rc2>
    644a: a2 81        	ldx	#$81
    644c: 86 13        	stx	$13                     ; 0x13 <__rc3>
    644e: 20 97 1b     	jsr	$1b97 <textPrint>
    6451: 64 30        	stz	$30                     ; 0x30 <_ccolor>
    6453: a2 dc        	ldx	#$dc
    6455: 86 12        	stx	$12                     ; 0x12 <__rc2>
    6457: a2 84        	ldx	#$84
    6459: 86 13        	stx	$13                     ; 0x13 <__rc3>
    645b: 20 97 1b     	jsr	$1b97 <textPrint>
    645e: a2 10        	ldx	#$10
    6460: 86 30        	stx	$30                     ; 0x30 <_ccolor>
    6462: a2 77        	ldx	#$77
    6464: 86 12        	stx	$12                     ; 0x12 <__rc2>
    6466: a2 85        	ldx	#$85
    6468: 86 13        	stx	$13                     ; 0x13 <__rc3>
    646a: 20 97 1b     	jsr	$1b97 <textPrint>
    646d: 64 30        	stz	$30                     ; 0x30 <_ccolor>
    646f: a2 2a        	ldx	#$2a
    6471: 86 12        	stx	$12                     ; 0x12 <__rc2>
    6473: a2 80        	ldx	#$80
    6475: 86 13        	stx	$13                     ; 0x13 <__rc3>
    6477: 20 97 1b     	jsr	$1b97 <textPrint>
    647a: a2 10        	ldx	#$10
    647c: 86 30        	stx	$30                     ; 0x30 <_ccolor>
    647e: a2 23        	ldx	#$23
    6480: 86 12        	stx	$12                     ; 0x12 <__rc2>
    6482: a2 83        	ldx	#$83
    6484: 86 13        	stx	$13                     ; 0x13 <__rc3>
    6486: 20 97 1b     	jsr	$1b97 <textPrint>
    6489: a2 10        	ldx	#$10
    648b: 86 30        	stx	$30                     ; 0x30 <_ccolor>
    648d: a2 6e        	ldx	#$6e
    648f: 86 12        	stx	$12                     ; 0x12 <__rc2>
    6491: a2 80        	ldx	#$80
    6493: 86 13        	stx	$13                     ; 0x13 <__rc3>
    6495: 20 97 1b     	jsr	$1b97 <textPrint>
    6498: 64 30        	stz	$30                     ; 0x30 <_ccolor>
    649a: a2 ab        	ldx	#$ab
    649c: 86 12        	stx	$12                     ; 0x12 <__rc2>
    649e: a2 7e        	ldx	#$7e
    64a0: 86 13        	stx	$13                     ; 0x13 <__rc3>
    64a2: 20 97 1b     	jsr	$1b97 <textPrint>
    64a5: 64 40        	stz	$40                     ; 0x40 <_col>
    64a7: 9c 14 d0     	stz	$d014                   ; 0xd014 <end_block9+0x478a>
    64aa: 9c 15 d0     	stz	$d015                   ; 0xd015 <end_block9+0x478b>
    64ad: a2 19        	ldx	#$19
    64af: 86 41        	stx	$41                     ; 0x41 <_row>
    64b1: 8e 16 d0     	stx	$d016                   ; 0xd016 <end_block9+0x478c>
    64b4: 9c 17 d0     	stz	$d017                   ; 0xd017 <end_block9+0x478d>
    64b7: a9 bc        	lda	#$bc
    64b9: 92 10        	sta	($10)                   ; 0x10 <__zp_data_size>
    64bb: a0 01        	ldy	#$1
    64bd: a9 86        	lda	#$86
    64bf: 91 10        	sta	($10),y                 ; 0x10 <__zp_data_size>
    64c1: a2 f0        	ldx	#$f0
    64c3: 86 12        	stx	$12                     ; 0x12 <__rc2>
    64c5: a2 80        	ldx	#$80
    64c7: 86 13        	stx	$13                     ; 0x13 <__rc3>
    64c9: 20 e5 73     	jsr	$73e5 <printf>
    64cc: a2 10        	ldx	#$10
    64ce: 86 30        	stx	$30                     ; 0x30 <_ccolor>
    64d0: a2 3e        	ldx	#$3e
    64d2: 86 40        	stx	$40                     ; 0x40 <_col>
    64d4: 8e 14 d0     	stx	$d014                   ; 0xd014 <end_block9+0x478a>
    64d7: 9c 15 d0     	stz	$d015                   ; 0xd015 <end_block9+0x478b>
    64da: a2 1d        	ldx	#$1d
    64dc: 86 41        	stx	$41                     ; 0x41 <_row>
    64de: 8e 16 d0     	stx	$d016                   ; 0xd016 <end_block9+0x478c>
    64e1: 9c 17 d0     	stz	$d017                   ; 0xd017 <end_block9+0x478d>
    64e4: a2 f3        	ldx	#$f3
    64e6: 86 12        	stx	$12                     ; 0x12 <__rc2>
    64e8: a2 80        	ldx	#$80
    64ea: 86 13        	stx	$13                     ; 0x13 <__rc3>
    64ec: 20 97 1b     	jsr	$1b97 <textPrint>
    64ef: 64 30        	stz	$30                     ; 0x30 <_ccolor>
    64f1: a2 06        	ldx	#$6
    64f3: 86 12        	stx	$12                     ; 0x12 <__rc2>
    64f5: a2 7d        	ldx	#$7d
    64f7: 86 13        	stx	$13                     ; 0x13 <__rc3>
    64f9: 20 97 1b     	jsr	$1b97 <textPrint>
    64fc: a2 01        	ldx	#$1
    64fe: 86 40        	stx	$40                     ; 0x40 <_col>
    6500: 8e 14 d0     	stx	$d014                   ; 0xd014 <end_block9+0x478a>
    6503: 9c 15 d0     	stz	$d015                   ; 0xd015 <end_block9+0x478b>
    6506: a2 1a        	ldx	#$1a
    6508: 86 41        	stx	$41                     ; 0x41 <_row>
    650a: 8e 16 d0     	stx	$d016                   ; 0xd016 <end_block9+0x478c>
    650d: 9c 17 d0     	stz	$d017                   ; 0xd017 <end_block9+0x478d>
    6510: a2 4f        	ldx	#$4f
    6512: 86 12        	stx	$12                     ; 0x12 <__rc2>
    6514: a2 84        	ldx	#$84
    6516: 86 13        	stx	$13                     ; 0x13 <__rc3>
    6518: 20 97 1b     	jsr	$1b97 <textPrint>
    651b: 18           	clc
    651c: a5 10        	lda	$10                     ; 0x10 <__zp_data_size>
    651e: 69 02        	adc	#$2
    6520: 85 10        	sta	$10                     ; 0x10 <__zp_data_size>
    6522: a5 11        	lda	$11                     ; 0x11 <__rc1>
    6524: 69 00        	adc	#$0
    6526: 85 11        	sta	$11                     ; 0x11 <__rc1>
    6528: 60           	rts

00006529 <lilpause>:
    6529: a2 80        	ldx	#$80
    652b: 86 f3        	stx	$f3                     ; 0xf3 <__data_size+0xa9>
    652d: a2 80        	ldx	#$80
    652f: a0 00        	ldy	#$0
    6531: 86 14        	stx	$14                     ; 0x14 <__rc4>
    6533: 84 15        	sty	$15                     ; 0x15 <__rc5>
    6535: a2 71        	ldx	#$71
    6537: 86 12        	stx	$12                     ; 0x12 <__rc2>
    6539: a2 00        	ldx	#$0
    653b: 86 13        	stx	$13                     ; 0x13 <__rc3>
    653d: 20 f0 ff     	jsr	$fff0 <end_block9+0x7766>
    6540: 92 14        	sta	($14)                   ; 0x14 <__rc4>
    6542: a9 00        	lda	#$0
    6544: 6a           	ror
    6545: 85 12        	sta	$12                     ; 0x12 <__rc2>
    6547: a6 80        	ldx	$80                     ; 0x80 <__data_size+0x36>
    6549: e8           	inx
    654a: 64 f3        	stz	$f3                     ; 0xf3 <__data_size+0xa9>
    654c: 86 f4        	stx	$f4                     ; 0xf4 <__data_size+0xaa>
    654e: a2 d5        	ldx	#$d5
    6550: 86 f5        	stx	$f5                     ; 0xf5 <__data_size+0xab>
    6552: a2 7f        	ldx	#$7f
    6554: a0 00        	ldy	#$0
    6556: 86 16        	stx	$16                     ; 0x16 <__rc6>
    6558: 84 17        	sty	$17                     ; 0x17 <__rc7>
    655a: a2 81        	ldx	#$81
    655c: a0 00        	ldy	#$0
    655e: 86 14        	stx	$14                     ; 0x14 <__rc4>
    6560: 84 15        	sty	$15                     ; 0x15 <__rc5>
    6562: 20 f0 ff     	jsr	$fff0 <end_block9+0x7766>
    6565: 92 16        	sta	($16)                   ; 0x16 <__rc6>
    6567: a9 00        	lda	#$0
    6569: 6a           	ror
    656a: 85 12        	sta	$12                     ; 0x12 <__rc2>
    656c: 64 72        	stz	$72                     ; 0x72 <kernelEventData>
    656e: 20 00 ff     	jsr	$ff00 <end_block9+0x7676>
    6571: 92 14        	sta	($14)                   ; 0x14 <__rc4>
    6573: a9 00        	lda	#$0
    6575: 6a           	ror
    6576: 85 12        	sta	$12                     ; 0x12 <__rc2>
    6578: a6 72        	ldx	$72                     ; 0x72 <kernelEventData>
    657a: e0 52        	cpx	#$52
    657c: d0 ee        	bne	$656c <lilpause+0x43>
    657e: a6 76        	ldx	$76                     ; 0x76 <kernelEventData+0x4>
    6580: e0 d5        	cpx	#$d5
    6582: d0 e8        	bne	$656c <lilpause+0x43>
    6584: 60           	rts

00006585 <setColors>:
    6585: a6 01        	ldx	$1                      ; 0x1
    6587: 86 15        	stx	$15                     ; 0x15 <__rc5>
    6589: 64 01        	stz	$1                      ; 0x1
    658b: a0 ff        	ldy	#$ff
    658d: 8c 00 d8     	sty	$d800                   ; 0xd800 <end_block9+0x4f76>
    6590: 8c 01 d8     	sty	$d801                   ; 0xd801 <end_block9+0x4f77>
    6593: 8c 02 d8     	sty	$d802                   ; 0xd802 <end_block9+0x4f78>
    6596: 9c 03 d8     	stz	$d803                   ; 0xd803 <end_block9+0x4f79>
    6599: a2 d8        	ldx	#$d8
    659b: 86 13        	stx	$13                     ; 0x13 <__rc3>
    659d: a2 cd        	ldx	#$cd
    659f: 86 16        	stx	$16                     ; 0x16 <__rc6>
    65a1: a2 04        	ldx	#$4
    65a3: 86 12        	stx	$12                     ; 0x12 <__rc2>
    65a5: a9 00        	lda	#$0
    65a7: 92 12        	sta	($12)                   ; 0x12 <__rc2>
    65a9: 8a           	txa
    65aa: 09 01        	ora	#$1
    65ac: 85 12        	sta	$12                     ; 0x12 <__rc2>
    65ae: a5 16        	lda	$16                     ; 0x16 <__rc6>
    65b0: 92 12        	sta	($12)                   ; 0x12 <__rc2>
    65b2: 8a           	txa
    65b3: 09 02        	ora	#$2
    65b5: 85 12        	sta	$12                     ; 0x12 <__rc2>
    65b7: a5 16        	lda	$16                     ; 0x16 <__rc6>
    65b9: 92 12        	sta	($12)                   ; 0x12 <__rc2>
    65bb: 8a           	txa
    65bc: 09 03        	ora	#$3
    65be: 85 12        	sta	$12                     ; 0x12 <__rc2>
    65c0: a9 00        	lda	#$0
    65c2: 92 12        	sta	($12)                   ; 0x12 <__rc2>
    65c4: 18           	clc
    65c5: 8a           	txa
    65c6: 69 04        	adc	#$4
    65c8: 85 12        	sta	$12                     ; 0x12 <__rc2>
    65ca: a5 13        	lda	$13                     ; 0x13 <__rc3>
    65cc: 69 00        	adc	#$0
    65ce: 85 13        	sta	$13                     ; 0x13 <__rc3>
    65d0: 18           	clc
    65d1: a5 16        	lda	$16                     ; 0x16 <__rc6>
    65d3: 69 0a        	adc	#$a
    65d5: 85 16        	sta	$16                     ; 0x16 <__rc6>
    65d7: a6 12        	ldx	$12                     ; 0x12 <__rc2>
    65d9: a4 12        	ldy	$12                     ; 0x12 <__rc2>
    65db: c0 18        	cpy	#$18
    65dd: d0 c4        	bne	$65a3 <setColors+0x1e>
    65df: a2 66        	ldx	#$66
    65e1: 86 17        	stx	$17                     ; 0x17 <__rc7>
    65e3: a2 d8        	ldx	#$d8
    65e5: 86 13        	stx	$13                     ; 0x13 <__rc3>
    65e7: a2 cd        	ldx	#$cd
    65e9: 86 16        	stx	$16                     ; 0x16 <__rc6>
    65eb: a2 18        	ldx	#$18
    65ed: 86 12        	stx	$12                     ; 0x12 <__rc2>
    65ef: a4 13        	ldy	$13                     ; 0x13 <__rc3>
    65f1: a9 00        	lda	#$0
    65f3: 92 12        	sta	($12)                   ; 0x12 <__rc2>
    65f5: 8a           	txa
    65f6: 09 01        	ora	#$1
    65f8: 85 12        	sta	$12                     ; 0x12 <__rc2>
    65fa: a5 17        	lda	$17                     ; 0x17 <__rc7>
    65fc: 92 12        	sta	($12)                   ; 0x12 <__rc2>
    65fe: 8a           	txa
    65ff: 09 02        	ora	#$2
    6601: 85 12        	sta	$12                     ; 0x12 <__rc2>
    6603: a5 16        	lda	$16                     ; 0x16 <__rc6>
    6605: 92 12        	sta	($12)                   ; 0x12 <__rc2>
    6607: 8a           	txa
    6608: 09 03        	ora	#$3
    660a: 85 12        	sta	$12                     ; 0x12 <__rc2>
    660c: a9 00        	lda	#$0
    660e: 92 12        	sta	($12)                   ; 0x12 <__rc2>
    6610: 18           	clc
    6611: 8a           	txa
    6612: 69 04        	adc	#$4
    6614: 85 12        	sta	$12                     ; 0x12 <__rc2>
    6616: 98           	tya
    6617: 69 00        	adc	#$0
    6619: 85 13        	sta	$13                     ; 0x13 <__rc3>
    661b: 18           	clc
    661c: a5 16        	lda	$16                     ; 0x16 <__rc6>
    661e: 69 0a        	adc	#$a
    6620: 85 16        	sta	$16                     ; 0x16 <__rc6>
    6622: 18           	clc
    6623: a5 17        	lda	$17                     ; 0x17 <__rc7>
    6625: 69 05        	adc	#$5
    6627: 85 17        	sta	$17                     ; 0x17 <__rc7>
    6629: a6 12        	ldx	$12                     ; 0x12 <__rc2>
    662b: a4 12        	ldy	$12                     ; 0x12 <__rc2>
    662d: c0 2c        	cpy	#$2c
    662f: d0 bc        	bne	$65ed <setColors+0x68>
    6631: a2 d8        	ldx	#$d8
    6633: 86 13        	stx	$13                     ; 0x13 <__rc3>
    6635: a2 cd        	ldx	#$cd
    6637: 86 16        	stx	$16                     ; 0x16 <__rc6>
    6639: a2 2c        	ldx	#$2c
    663b: 86 12        	stx	$12                     ; 0x12 <__rc2>
    663d: a9 00        	lda	#$0
    663f: 92 12        	sta	($12)                   ; 0x12 <__rc2>
    6641: 8a           	txa
    6642: 09 01        	ora	#$1
    6644: 85 12        	sta	$12                     ; 0x12 <__rc2>
    6646: a9 00        	lda	#$0
    6648: 92 12        	sta	($12)                   ; 0x12 <__rc2>
    664a: 8a           	txa
    664b: 09 02        	ora	#$2
    664d: 85 12        	sta	$12                     ; 0x12 <__rc2>
    664f: a5 16        	lda	$16                     ; 0x16 <__rc6>
    6651: 92 12        	sta	($12)                   ; 0x12 <__rc2>
    6653: 8a           	txa
    6654: 09 03        	ora	#$3
    6656: 85 12        	sta	$12                     ; 0x12 <__rc2>
    6658: a9 00        	lda	#$0
    665a: 92 12        	sta	($12)                   ; 0x12 <__rc2>
    665c: 18           	clc
    665d: 8a           	txa
    665e: 69 04        	adc	#$4
    6660: 85 12        	sta	$12                     ; 0x12 <__rc2>
    6662: a5 13        	lda	$13                     ; 0x13 <__rc3>
    6664: 69 00        	adc	#$0
    6666: 85 13        	sta	$13                     ; 0x13 <__rc3>
    6668: 18           	clc
    6669: a5 16        	lda	$16                     ; 0x16 <__rc6>
    666b: 69 0a        	adc	#$a
    666d: 85 16        	sta	$16                     ; 0x16 <__rc6>
    666f: a6 12        	ldx	$12                     ; 0x12 <__rc2>
    6671: a4 12        	ldy	$12                     ; 0x12 <__rc2>
    6673: c0 40        	cpy	#$40
    6675: d0 c4        	bne	$663b <setColors+0xb6>
    6677: a6 15        	ldx	$15                     ; 0x15 <__rc5>
    6679: 86 01        	stx	$1                      ; 0x1
    667b: 60           	rts

0000667c <exit>:
    667c: 20 27 03     	jsr	$327 <_fini>
    667f: 80 fe        	bra	$667f <exit+0x3>

00006681 <_ZN12_GLOBAL__N_15printEPKcP6Status>:
    6681: a6 14        	ldx	$14                     ; 0x14 <__rc4>
    6683: 86 9c        	stx	$9c                     ; 0x9c <__data_size+0x52>
    6685: a6 15        	ldx	$15                     ; 0x15 <__rc5>
    6687: 86 9d        	stx	$9d                     ; 0x9d <__data_size+0x53>
    6689: a6 12        	ldx	$12                     ; 0x12 <__rc2>
    668b: 86 14        	stx	$14                     ; 0x14 <__rc4>
    668d: a6 13        	ldx	$13                     ; 0x13 <__rc3>
    668f: 86 15        	stx	$15                     ; 0x15 <__rc5>
    6691: e6 14        	inc	$14                     ; 0x14 <__rc4>
    6693: d0 02        	bne	$6697 <_ZN12_GLOBAL__N_15printEPKcP6Status+0x16>
    6695: e6 15        	inc	$15                     ; 0x15 <__rc5>
    6697: a0 01        	ldy	#$1
    6699: b1 12        	lda	($12),y                 ; 0x12 <__rc2>
    669b: c9 25        	cmp	#$25
    669d: d0 23        	bne	$66c2 <_ZN12_GLOBAL__N_15printEPKcP6Status+0x41>
    669f: a9 25        	lda	#$25
    66a1: a6 12        	ldx	$12                     ; 0x12 <__rc2>
    66a3: 86 9e        	stx	$9e                     ; 0x9e <__data_size+0x54>
    66a5: a6 13        	ldx	$13                     ; 0x13 <__rc3>
    66a7: 86 9f        	stx	$9f                     ; 0x9f <__data_size+0x55>
    66a9: a6 9c        	ldx	$9c                     ; 0x9c <__data_size+0x52>
    66ab: 86 12        	stx	$12                     ; 0x12 <__rc2>
    66ad: a6 9d        	ldx	$9d                     ; 0x9d <__data_size+0x53>
    66af: 86 13        	stx	$13                     ; 0x13 <__rc3>
    66b1: 20 f7 71     	jsr	$71f7 <_ZN12_GLOBAL__N_13putEcP6Status>
    66b4: a5 9e        	lda	$9e                     ; 0x9e <__data_size+0x54>
    66b6: 18           	clc
    66b7: 69 02        	adc	#$2
    66b9: 85 12        	sta	$12                     ; 0x12 <__rc2>
    66bb: a5 9f        	lda	$9f                     ; 0x9f <__data_size+0x55>
    66bd: 69 00        	adc	#$0
    66bf: 85 13        	sta	$13                     ; 0x13 <__rc3>
    66c1: 60           	rts
    66c2: a6 9c        	ldx	$9c                     ; 0x9c <__data_size+0x52>
    66c4: a5 9c        	lda	$9c                     ; 0x9c <__data_size+0x52>
    66c6: 86 17        	stx	$17                     ; 0x17 <__rc7>
    66c8: 18           	clc
    66c9: 69 0b        	adc	#$b
    66cb: 85 18        	sta	$18                     ; 0x18 <__rc8>
    66cd: a5 9d        	lda	$9d                     ; 0x9d <__data_size+0x53>
    66cf: 69 00        	adc	#$0
    66d1: a2 10        	ldx	#$10
    66d3: 86 a3        	stx	$a3                     ; 0xa3 <__data_size+0x59>
    66d5: 85 19        	sta	$19                     ; 0x19 <__rc9>
    66d7: a0 0b        	ldy	#$b
    66d9: a9 00        	lda	#$0
    66db: 91 9c        	sta	($9c),y                 ; 0x9c <__data_size+0x52>
    66dd: 18           	clc
    66de: a5 17        	lda	$17                     ; 0x17 <__rc7>
    66e0: 69 0d        	adc	#$d
    66e2: a8           	tay
    66e3: a5 9d        	lda	$9d                     ; 0x9d <__data_size+0x53>
    66e5: 69 00        	adc	#$0
    66e7: a2 02        	ldx	#$2
    66e9: 86 1f        	stx	$1f                     ; 0x1f <__rc15>
    66eb: 84 16        	sty	$16                     ; 0x16 <__rc6>
    66ed: a0 0d        	ldy	#$d
    66ef: 85 17        	sta	$17                     ; 0x17 <__rc7>
    66f1: a9 ff        	lda	#$ff
    66f3: 91 9c        	sta	($9c),y                 ; 0x9c <__data_size+0x52>
    66f5: a0 01        	ldy	#$1
    66f7: 91 16        	sta	($16),y                 ; 0x16 <__rc6>
    66f9: 18           	clc
    66fa: a2 00        	ldx	#$0
    66fc: 86 c9        	stx	$c9                     ; 0xc9 <__data_size+0x7f>
    66fe: a6 9c        	ldx	$9c                     ; 0x9c <__data_size+0x52>
    6700: 86 16        	stx	$16                     ; 0x16 <__rc6>
    6702: a6 9d        	ldx	$9d                     ; 0x9d <__data_size+0x53>
    6704: 86 17        	stx	$17                     ; 0x17 <__rc7>
    6706: e6 16        	inc	$16                     ; 0x16 <__rc6>
    6708: d0 02        	bne	$670c <_ZN12_GLOBAL__N_15printEPKcP6Status+0x8b>
    670a: e6 17        	inc	$17                     ; 0x17 <__rc7>
    670c: a9 00        	lda	#$0
    670e: 91 9c        	sta	($9c),y                 ; 0x9c <__data_size+0x52>
    6710: 91 16        	sta	($16),y                 ; 0x16 <__rc6>
    6712: 92 9c        	sta	($9c)                   ; 0x9c <__data_size+0x52>
    6714: 91 18        	sta	($18),y                 ; 0x18 <__rc8>
    6716: 64 a2        	stz	$a2                     ; 0xa2 <__data_size+0x58>
    6718: 80 33        	bra	$674d <_ZN12_GLOBAL__N_15printEPKcP6Status+0xcc>
    671a: a2 02        	ldx	#$2
    671c: 80 15        	bra	$6733 <_ZN12_GLOBAL__N_15printEPKcP6Status+0xb2>
    671e: e0 20        	cpx	#$20
    6720: f0 15        	beq	$6737 <_ZN12_GLOBAL__N_15printEPKcP6Status+0xb6>
    6722: 86 19        	stx	$19                     ; 0x19 <__rc9>
    6724: e0 23        	cpx	#$23
    6726: f0 03        	beq	$672b <_ZN12_GLOBAL__N_15printEPKcP6Status+0xaa>
    6728: 4c 9c 67     	jmp	$679c <_ZN12_GLOBAL__N_15printEPKcP6Status+0x11b>
    672b: a5 a2        	lda	$a2                     ; 0xa2 <__data_size+0x58>
    672d: a2 04        	ldx	#$4
    672f: 80 02        	bra	$6733 <_ZN12_GLOBAL__N_15printEPKcP6Status+0xb2>
    6731: a2 10        	ldx	#$10
    6733: 86 18        	stx	$18                     ; 0x18 <__rc8>
    6735: 80 06        	bra	$673d <_ZN12_GLOBAL__N_15printEPKcP6Status+0xbc>
    6737: a2 08        	ldx	#$8
    6739: 86 18        	stx	$18                     ; 0x18 <__rc8>
    673b: a5 a2        	lda	$a2                     ; 0xa2 <__data_size+0x58>
    673d: 05 18        	ora	$18                     ; 0x18 <__rc8>
    673f: 85 a2        	sta	$a2                     ; 0xa2 <__data_size+0x58>
    6741: 91 9c        	sta	($9c),y                 ; 0x9c <__data_size+0x52>
    6743: a9 00        	lda	#$0
    6745: 91 16        	sta	($16),y                 ; 0x16 <__rc6>
    6747: e6 14        	inc	$14                     ; 0x14 <__rc4>
    6749: d0 02        	bne	$674d <_ZN12_GLOBAL__N_15printEPKcP6Status+0xcc>
    674b: e6 15        	inc	$15                     ; 0x15 <__rc5>
    674d: b2 14        	lda	($14)                   ; 0x14 <__rc4>
    674f: 18           	clc
    6750: aa           	tax
    6751: 69 d6        	adc	#$d6
    6753: c9 07        	cmp	#$7
    6755: b0 c7        	bcs	$671e <_ZN12_GLOBAL__N_15printEPKcP6Status+0x9d>
    6757: 86 19        	stx	$19                     ; 0x19 <__rc9>
    6759: 0a           	asl
    675a: aa           	tax
    675b: a9 01        	lda	#$1
    675d: 85 18        	sta	$18                     ; 0x18 <__rc8>
    675f: a5 a2        	lda	$a2                     ; 0xa2 <__data_size+0x58>
    6761: 7c 4a 7c     	jmp	($7c4a,x)               ; 0x7c4a <__BLOCK_SIZE+0x5c4a>
    6764: a0 11        	ldy	#$11
    6766: a5 9c        	lda	$9c                     ; 0x9c <__data_size+0x52>
    6768: 18           	clc
    6769: 69 11        	adc	#$11
    676b: 85 16        	sta	$16                     ; 0x16 <__rc6>
    676d: a5 9d        	lda	$9d                     ; 0x9d <__data_size+0x53>
    676f: 69 00        	adc	#$0
    6771: 85 17        	sta	$17                     ; 0x17 <__rc7>
    6773: b1 9c        	lda	($9c),y                 ; 0x9c <__data_size+0x52>
    6775: 85 18        	sta	$18                     ; 0x18 <__rc8>
    6777: 18           	clc
    6778: 69 02        	adc	#$2
    677a: 91 9c        	sta	($9c),y                 ; 0x9c <__data_size+0x52>
    677c: a0 01        	ldy	#$1
    677e: b1 16        	lda	($16),y                 ; 0x16 <__rc6>
    6780: 85 19        	sta	$19                     ; 0x19 <__rc9>
    6782: 69 00        	adc	#$0
    6784: 91 16        	sta	($16),y                 ; 0x16 <__rc6>
    6786: b2 18        	lda	($18)                   ; 0x18 <__rc8>
    6788: 85 17        	sta	$17                     ; 0x17 <__rc7>
    678a: b1 18        	lda	($18),y                 ; 0x18 <__rc8>
    678c: 85 16        	sta	$16                     ; 0x16 <__rc6>
    678e: 10 03        	bpl	$6793 <_ZN12_GLOBAL__N_15printEPKcP6Status+0x112>
    6790: 4c 31 68     	jmp	$6831 <_ZN12_GLOBAL__N_15printEPKcP6Status+0x1b0>
    6793: a6 17        	ldx	$17                     ; 0x17 <__rc7>
    6795: 86 1b        	stx	$1b                     ; 0x1b <__rc11>
    6797: 85 1a        	sta	$1a                     ; 0x1a <__rc10>
    6799: 4c 5a 68     	jmp	$685a <_ZN12_GLOBAL__N_15printEPKcP6Status+0x1d9>
    679c: 18           	clc
    679d: a5 19        	lda	$19                     ; 0x19 <__rc9>
    679f: 69 d0        	adc	#$d0
    67a1: c9 0a        	cmp	#$a
    67a3: 90 03        	bcc	$67a8 <_ZN12_GLOBAL__N_15printEPKcP6Status+0x127>
    67a5: 4c 0b 68     	jmp	$680b <_ZN12_GLOBAL__N_15printEPKcP6Status+0x18a>
    67a8: a6 19        	ldx	$19                     ; 0x19 <__rc9>
    67aa: 86 16        	stx	$16                     ; 0x16 <__rc6>
    67ac: 64 18        	stz	$18                     ; 0x18 <__rc8>
    67ae: a0 01        	ldy	#$1
    67b0: 64 17        	stz	$17                     ; 0x17 <__rc7>
    67b2: 64 19        	stz	$19                     ; 0x19 <__rc9>
    67b4: 06 18        	asl	$18                     ; 0x18 <__rc8>
    67b6: 26 19        	rol	$19                     ; 0x19 <__rc9>
    67b8: a5 18        	lda	$18                     ; 0x18 <__rc8>
    67ba: 0a           	asl
    67bb: aa           	tax
    67bc: a5 19        	lda	$19                     ; 0x19 <__rc9>
    67be: 2a           	rol
    67bf: 86 1a        	stx	$1a                     ; 0x1a <__rc10>
    67c1: 06 1a        	asl	$1a                     ; 0x1a <__rc10>
    67c3: 2a           	rol
    67c4: aa           	tax
    67c5: a9 00        	lda	#$0
    67c7: 85 1b        	sta	$1b                     ; 0x1b <__rc11>
    67c9: a5 1a        	lda	$1a                     ; 0x1a <__rc10>
    67cb: 5a           	phy
    67cc: a4 1b        	ldy	$1b                     ; 0x1b <__rc11>
    67ce: c0 01        	cpy	#$1
    67d0: 7a           	ply
    67d1: 65 18        	adc	$18                     ; 0x18 <__rc8>
    67d3: 85 18        	sta	$18                     ; 0x18 <__rc8>
    67d5: 8a           	txa
    67d6: 65 19        	adc	$19                     ; 0x19 <__rc9>
    67d8: 85 19        	sta	$19                     ; 0x19 <__rc9>
    67da: a5 18        	lda	$18                     ; 0x18 <__rc8>
    67dc: a6 1b        	ldx	$1b                     ; 0x1b <__rc11>
    67de: e0 01        	cpx	#$1
    67e0: 65 16        	adc	$16                     ; 0x16 <__rc6>
    67e2: 85 16        	sta	$16                     ; 0x16 <__rc6>
    67e4: a5 19        	lda	$19                     ; 0x19 <__rc9>
    67e6: 65 17        	adc	$17                     ; 0x17 <__rc7>
    67e8: aa           	tax
    67e9: 18           	clc
    67ea: a5 16        	lda	$16                     ; 0x16 <__rc6>
    67ec: 69 d0        	adc	#$d0
    67ee: 85 18        	sta	$18                     ; 0x18 <__rc8>
    67f0: 8a           	txa
    67f1: 69 ff        	adc	#$ff
    67f3: 85 19        	sta	$19                     ; 0x19 <__rc9>
    67f5: b1 14        	lda	($14),y                 ; 0x14 <__rc4>
    67f7: 85 16        	sta	$16                     ; 0x16 <__rc6>
    67f9: 18           	clc
    67fa: 69 d0        	adc	#$d0
    67fc: e6 14        	inc	$14                     ; 0x14 <__rc4>
    67fe: d0 02        	bne	$6802 <_ZN12_GLOBAL__N_15printEPKcP6Status+0x181>
    6800: e6 15        	inc	$15                     ; 0x15 <__rc5>
    6802: c9 0a        	cmp	#$a
    6804: 64 17        	stz	$17                     ; 0x17 <__rc7>
    6806: b0 07        	bcs	$680f <_ZN12_GLOBAL__N_15printEPKcP6Status+0x18e>
    6808: 4c b4 67     	jmp	$67b4 <_ZN12_GLOBAL__N_15printEPKcP6Status+0x133>
    680b: 64 18        	stz	$18                     ; 0x18 <__rc8>
    680d: 64 19        	stz	$19                     ; 0x19 <__rc9>
    680f: a5 9c        	lda	$9c                     ; 0x9c <__data_size+0x52>
    6811: 18           	clc
    6812: 69 0b        	adc	#$b
    6814: 85 16        	sta	$16                     ; 0x16 <__rc6>
    6816: a5 9d        	lda	$9d                     ; 0x9d <__data_size+0x53>
    6818: 69 00        	adc	#$0
    681a: 85 17        	sta	$17                     ; 0x17 <__rc7>
    681c: a0 0b        	ldy	#$b
    681e: a5 18        	lda	$18                     ; 0x18 <__rc8>
    6820: 91 9c        	sta	($9c),y                 ; 0x9c <__data_size+0x52>
    6822: a6 18        	ldx	$18                     ; 0x18 <__rc8>
    6824: a0 01        	ldy	#$1
    6826: a5 19        	lda	$19                     ; 0x19 <__rc9>
    6828: 91 16        	sta	($16),y                 ; 0x16 <__rc6>
    682a: 86 16        	stx	$16                     ; 0x16 <__rc6>
    682c: 85 17        	sta	$17                     ; 0x17 <__rc7>
    682e: 4c 83 68     	jmp	$6883 <_ZN12_GLOBAL__N_15printEPKcP6Status+0x202>
    6831: a5 a2        	lda	$a2                     ; 0xa2 <__data_size+0x58>
    6833: 09 01        	ora	#$1
    6835: aa           	tax
    6836: a5 9c        	lda	$9c                     ; 0x9c <__data_size+0x52>
    6838: 85 18        	sta	$18                     ; 0x18 <__rc8>
    683a: a5 9d        	lda	$9d                     ; 0x9d <__data_size+0x53>
    683c: 85 19        	sta	$19                     ; 0x19 <__rc9>
    683e: 38           	sec
    683f: a9 00        	lda	#$0
    6841: e5 17        	sbc	$17                     ; 0x17 <__rc7>
    6843: 85 1b        	sta	$1b                     ; 0x1b <__rc11>
    6845: a9 00        	lda	#$0
    6847: e5 16        	sbc	$16                     ; 0x16 <__rc6>
    6849: 85 1a        	sta	$1a                     ; 0x1a <__rc10>
    684b: e6 18        	inc	$18                     ; 0x18 <__rc8>
    684d: d0 02        	bne	$6851 <_ZN12_GLOBAL__N_15printEPKcP6Status+0x1d0>
    684f: e6 19        	inc	$19                     ; 0x19 <__rc9>
    6851: 8a           	txa
    6852: 86 a2        	stx	$a2                     ; 0xa2 <__data_size+0x58>
    6854: 91 9c        	sta	($9c),y                 ; 0x9c <__data_size+0x52>
    6856: a9 00        	lda	#$0
    6858: 91 18        	sta	($18),y                 ; 0x18 <__rc8>
    685a: a2 01        	ldx	#$1
    685c: a5 9c        	lda	$9c                     ; 0x9c <__data_size+0x52>
    685e: 18           	clc
    685f: 69 0b        	adc	#$b
    6861: 85 16        	sta	$16                     ; 0x16 <__rc6>
    6863: a5 9d        	lda	$9d                     ; 0x9d <__data_size+0x53>
    6865: 69 00        	adc	#$0
    6867: 85 17        	sta	$17                     ; 0x17 <__rc7>
    6869: a0 0b        	ldy	#$b
    686b: a5 1b        	lda	$1b                     ; 0x1b <__rc11>
    686d: 91 9c        	sta	($9c),y                 ; 0x9c <__data_size+0x52>
    686f: 85 18        	sta	$18                     ; 0x18 <__rc8>
    6871: a5 1a        	lda	$1a                     ; 0x1a <__rc10>
    6873: a0 01        	ldy	#$1
    6875: 91 16        	sta	($16),y                 ; 0x16 <__rc6>
    6877: a6 18        	ldx	$18                     ; 0x18 <__rc8>
    6879: 86 16        	stx	$16                     ; 0x16 <__rc6>
    687b: 85 17        	sta	$17                     ; 0x17 <__rc7>
    687d: e6 14        	inc	$14                     ; 0x14 <__rc4>
    687f: d0 02        	bne	$6883 <_ZN12_GLOBAL__N_15printEPKcP6Status+0x202>
    6881: e6 15        	inc	$15                     ; 0x15 <__rc5>
    6883: b2 14        	lda	($14)                   ; 0x14 <__rc4>
    6885: a2 ff        	ldx	#$ff
    6887: c9 2e        	cmp	#$2e
    6889: f0 03        	beq	$688e <_ZN12_GLOBAL__N_15printEPKcP6Status+0x20d>
    688b: 4c 13 69     	jmp	$6913 <_ZN12_GLOBAL__N_15printEPKcP6Status+0x292>
    688e: a6 14        	ldx	$14                     ; 0x14 <__rc4>
    6890: 86 18        	stx	$18                     ; 0x18 <__rc8>
    6892: a6 15        	ldx	$15                     ; 0x15 <__rc5>
    6894: 86 19        	stx	$19                     ; 0x19 <__rc9>
    6896: e6 18        	inc	$18                     ; 0x18 <__rc8>
    6898: d0 02        	bne	$689c <_ZN12_GLOBAL__N_15printEPKcP6Status+0x21b>
    689a: e6 19        	inc	$19                     ; 0x19 <__rc9>
    689c: a0 01        	ldy	#$1
    689e: b1 14        	lda	($14),y                 ; 0x14 <__rc4>
    68a0: c9 2a        	cmp	#$2a
    68a2: f0 03        	beq	$68a7 <_ZN12_GLOBAL__N_15printEPKcP6Status+0x226>
    68a4: 4c 1a 69     	jmp	$691a <_ZN12_GLOBAL__N_15printEPKcP6Status+0x299>
    68a7: 84 19        	sty	$19                     ; 0x19 <__rc9>
    68a9: a0 11        	ldy	#$11
    68ab: b1 9c        	lda	($9c),y                 ; 0x9c <__data_size+0x52>
    68ad: 85 18        	sta	$18                     ; 0x18 <__rc8>
    68af: 18           	clc
    68b0: 69 02        	adc	#$2
    68b2: a2 01        	ldx	#$1
    68b4: b0 02        	bcs	$68b8 <_ZN12_GLOBAL__N_15printEPKcP6Status+0x237>
    68b6: a2 00        	ldx	#$0
    68b8: 86 1d        	stx	$1d                     ; 0x1d <__rc13>
    68ba: 91 9c        	sta	($9c),y                 ; 0x9c <__data_size+0x52>
    68bc: a5 9c        	lda	$9c                     ; 0x9c <__data_size+0x52>
    68be: 18           	clc
    68bf: 69 11        	adc	#$11
    68c1: 85 1a        	sta	$1a                     ; 0x1a <__rc10>
    68c3: a5 9d        	lda	$9d                     ; 0x9d <__data_size+0x53>
    68c5: 69 00        	adc	#$0
    68c7: 85 1b        	sta	$1b                     ; 0x1b <__rc11>
    68c9: a4 19        	ldy	$19                     ; 0x19 <__rc9>
    68cb: b1 1a        	lda	($1a),y                 ; 0x1a <__rc10>
    68cd: 85 19        	sta	$19                     ; 0x19 <__rc9>
    68cf: a6 1d        	ldx	$1d                     ; 0x1d <__rc13>
    68d1: e0 01        	cpx	#$1
    68d3: 69 00        	adc	#$0
    68d5: 91 1a        	sta	($1a),y                 ; 0x1a <__rc10>
    68d7: b2 18        	lda	($18)                   ; 0x18 <__rc8>
    68d9: 85 1b        	sta	$1b                     ; 0x1b <__rc11>
    68db: 18           	clc
    68dc: a5 9c        	lda	$9c                     ; 0x9c <__data_size+0x52>
    68de: 69 0d        	adc	#$d
    68e0: 85 1a        	sta	$1a                     ; 0x1a <__rc10>
    68e2: a5 9d        	lda	$9d                     ; 0x9d <__data_size+0x53>
    68e4: 69 00        	adc	#$0
    68e6: aa           	tax
    68e7: b1 18        	lda	($18),y                 ; 0x18 <__rc8>
    68e9: 84 1d        	sty	$1d                     ; 0x1d <__rc13>
    68eb: 85 1c        	sta	$1c                     ; 0x1c <__rc12>
    68ed: a4 1a        	ldy	$1a                     ; 0x1a <__rc10>
    68ef: 84 18        	sty	$18                     ; 0x18 <__rc8>
    68f1: 86 19        	stx	$19                     ; 0x19 <__rc9>
    68f3: a5 1b        	lda	$1b                     ; 0x1b <__rc11>
    68f5: 85 1a        	sta	$1a                     ; 0x1a <__rc10>
    68f7: a0 0d        	ldy	#$d
    68f9: 91 9c        	sta	($9c),y                 ; 0x9c <__data_size+0x52>
    68fb: a5 1c        	lda	$1c                     ; 0x1c <__rc12>
    68fd: 85 1e        	sta	$1e                     ; 0x1e <__rc14>
    68ff: a4 1d        	ldy	$1d                     ; 0x1d <__rc13>
    6901: 91 18        	sta	($18),y                 ; 0x18 <__rc8>
    6903: a5 14        	lda	$14                     ; 0x14 <__rc4>
    6905: 18           	clc
    6906: 69 02        	adc	#$2
    6908: 85 18        	sta	$18                     ; 0x18 <__rc8>
    690a: a5 15        	lda	$15                     ; 0x15 <__rc5>
    690c: 69 00        	adc	#$0
    690e: 85 19        	sta	$19                     ; 0x19 <__rc9>
    6910: 4c ee 69     	jmp	$69ee <_ZN12_GLOBAL__N_15printEPKcP6Status+0x36d>
    6913: 86 1a        	stx	$1a                     ; 0x1a <__rc10>
    6915: 86 1b        	stx	$1b                     ; 0x1b <__rc11>
    6917: 4c 18 6a     	jmp	$6a18 <_ZN12_GLOBAL__N_15printEPKcP6Status+0x397>
    691a: 18           	clc
    691b: 85 1c        	sta	$1c                     ; 0x1c <__rc12>
    691d: 69 d0        	adc	#$d0
    691f: c9 0a        	cmp	#$a
    6921: 90 03        	bcc	$6926 <_ZN12_GLOBAL__N_15printEPKcP6Status+0x2a5>
    6923: 4c d3 69     	jmp	$69d3 <_ZN12_GLOBAL__N_15printEPKcP6Status+0x352>
    6926: 64 1b        	stz	$1b                     ; 0x1b <__rc11>
    6928: 64 22        	stz	$22                     ; 0x22 <__rc18>
    692a: 64 1e        	stz	$1e                     ; 0x1e <__rc14>
    692c: a2 01        	ldx	#$1
    692e: 64 1a        	stz	$1a                     ; 0x1a <__rc10>
    6930: 5a           	phy
    6931: a4 1a        	ldy	$1a                     ; 0x1a <__rc10>
    6933: 84 18        	sty	$18                     ; 0x18 <__rc8>
    6935: 86 19        	stx	$19                     ; 0x19 <__rc9>
    6937: a5 22        	lda	$22                     ; 0x22 <__rc18>
    6939: 0a           	asl
    693a: 85 1d        	sta	$1d                     ; 0x1d <__rc13>
    693c: 26 1e        	rol	$1e                     ; 0x1e <__rc14>
    693e: 0a           	asl
    693f: a4 1e        	ldy	$1e                     ; 0x1e <__rc14>
    6941: 84 22        	sty	$22                     ; 0x22 <__rc18>
    6943: 26 22        	rol	$22                     ; 0x22 <__rc18>
    6945: 0a           	asl
    6946: 26 22        	rol	$22                     ; 0x22 <__rc18>
    6948: 18           	clc
    6949: a0 01        	ldy	#$1
    694b: b0 02        	bcs	$694f <_ZN12_GLOBAL__N_15printEPKcP6Status+0x2ce>
    694d: a0 00        	ldy	#$0
    694f: 84 23        	sty	$23                     ; 0x23 <__rc19>
    6951: 65 1d        	adc	$1d                     ; 0x1d <__rc13>
    6953: 85 9e        	sta	$9e                     ; 0x9e <__data_size+0x54>
    6955: a5 22        	lda	$22                     ; 0x22 <__rc18>
    6957: 65 1e        	adc	$1e                     ; 0x1e <__rc14>
    6959: 85 1d        	sta	$1d                     ; 0x1d <__rc13>
    695b: a4 23        	ldy	$23                     ; 0x23 <__rc19>
    695d: c0 01        	cpy	#$1
    695f: a5 9e        	lda	$9e                     ; 0x9e <__data_size+0x54>
    6961: 65 1c        	adc	$1c                     ; 0x1c <__rc12>
    6963: 85 1c        	sta	$1c                     ; 0x1c <__rc12>
    6965: a5 1d        	lda	$1d                     ; 0x1d <__rc13>
    6967: 65 1b        	adc	$1b                     ; 0x1b <__rc11>
    6969: 85 1b        	sta	$1b                     ; 0x1b <__rc11>
    696b: 18           	clc
    696c: a5 1c        	lda	$1c                     ; 0x1c <__rc12>
    696e: 69 d0        	adc	#$d0
    6970: 85 1c        	sta	$1c                     ; 0x1c <__rc12>
    6972: a5 1b        	lda	$1b                     ; 0x1b <__rc11>
    6974: 69 ff        	adc	#$ff
    6976: 85 1e        	sta	$1e                     ; 0x1e <__rc14>
    6978: a4 1c        	ldy	$1c                     ; 0x1c <__rc12>
    697a: 84 22        	sty	$22                     ; 0x22 <__rc18>
    697c: e8           	inx
    697d: d0 02        	bne	$6981 <_ZN12_GLOBAL__N_15printEPKcP6Status+0x300>
    697f: e6 1a        	inc	$1a                     ; 0x1a <__rc10>
    6981: a5 14        	lda	$14                     ; 0x14 <__rc4>
    6983: a4 23        	ldy	$23                     ; 0x23 <__rc19>
    6985: c0 01        	cpy	#$1
    6987: 7a           	ply
    6988: 65 19        	adc	$19                     ; 0x19 <__rc9>
    698a: 85 1c        	sta	$1c                     ; 0x1c <__rc12>
    698c: a5 15        	lda	$15                     ; 0x15 <__rc5>
    698e: 65 18        	adc	$18                     ; 0x18 <__rc8>
    6990: 85 1d        	sta	$1d                     ; 0x1d <__rc13>
    6992: b1 1c        	lda	($1c),y                 ; 0x1c <__rc12>
    6994: 85 1c        	sta	$1c                     ; 0x1c <__rc12>
    6996: 18           	clc
    6997: 69 d0        	adc	#$d0
    6999: c9 0a        	cmp	#$a
    699b: 64 1b        	stz	$1b                     ; 0x1b <__rc11>
    699d: b0 03        	bcs	$69a2 <_ZN12_GLOBAL__N_15printEPKcP6Status+0x321>
    699f: 4c 30 69     	jmp	$6930 <_ZN12_GLOBAL__N_15printEPKcP6Status+0x2af>
    69a2: a5 14        	lda	$14                     ; 0x14 <__rc4>
    69a4: 18           	clc
    69a5: 65 19        	adc	$19                     ; 0x19 <__rc9>
    69a7: aa           	tax
    69a8: a5 15        	lda	$15                     ; 0x15 <__rc5>
    69aa: 65 18        	adc	$18                     ; 0x18 <__rc8>
    69ac: 86 18        	stx	$18                     ; 0x18 <__rc8>
    69ae: 85 19        	sta	$19                     ; 0x19 <__rc9>
    69b0: a5 9c        	lda	$9c                     ; 0x9c <__data_size+0x52>
    69b2: 18           	clc
    69b3: 69 0d        	adc	#$d
    69b5: 85 14        	sta	$14                     ; 0x14 <__rc4>
    69b7: a5 9d        	lda	$9d                     ; 0x9d <__data_size+0x53>
    69b9: 69 00        	adc	#$0
    69bb: a0 0d        	ldy	#$d
    69bd: 85 15        	sta	$15                     ; 0x15 <__rc5>
    69bf: a5 22        	lda	$22                     ; 0x22 <__rc18>
    69c1: 85 1a        	sta	$1a                     ; 0x1a <__rc10>
    69c3: 91 9c        	sta	($9c),y                 ; 0x9c <__data_size+0x52>
    69c5: a0 01        	ldy	#$1
    69c7: a5 1e        	lda	$1e                     ; 0x1e <__rc14>
    69c9: 91 14        	sta	($14),y                 ; 0x14 <__rc4>
    69cb: e6 18        	inc	$18                     ; 0x18 <__rc8>
    69cd: d0 1f        	bne	$69ee <_ZN12_GLOBAL__N_15printEPKcP6Status+0x36d>
    69cf: e6 19        	inc	$19                     ; 0x19 <__rc9>
    69d1: 80 1b        	bra	$69ee <_ZN12_GLOBAL__N_15printEPKcP6Status+0x36d>
    69d3: a0 0d        	ldy	#$d
    69d5: a5 9c        	lda	$9c                     ; 0x9c <__data_size+0x52>
    69d7: 18           	clc
    69d8: 69 0d        	adc	#$d
    69da: 85 14        	sta	$14                     ; 0x14 <__rc4>
    69dc: a5 9d        	lda	$9d                     ; 0x9d <__data_size+0x53>
    69de: 69 00        	adc	#$0
    69e0: 85 15        	sta	$15                     ; 0x15 <__rc5>
    69e2: a9 00        	lda	#$0
    69e4: 91 9c        	sta	($9c),y                 ; 0x9c <__data_size+0x52>
    69e6: a0 01        	ldy	#$1
    69e8: 64 1a        	stz	$1a                     ; 0x1a <__rc10>
    69ea: 91 14        	sta	($14),y                 ; 0x14 <__rc4>
    69ec: 64 1e        	stz	$1e                     ; 0x1e <__rc14>
    69ee: a5 a2        	lda	$a2                     ; 0xa2 <__data_size+0x58>
    69f0: 29 ef        	and	#$ef
    69f2: a6 9c        	ldx	$9c                     ; 0x9c <__data_size+0x52>
    69f4: 86 14        	stx	$14                     ; 0x14 <__rc4>
    69f6: a6 9d        	ldx	$9d                     ; 0x9d <__data_size+0x53>
    69f8: 86 15        	stx	$15                     ; 0x15 <__rc5>
    69fa: e6 14        	inc	$14                     ; 0x14 <__rc4>
    69fc: d0 02        	bne	$6a00 <_ZN12_GLOBAL__N_15printEPKcP6Status+0x37f>
    69fe: e6 15        	inc	$15                     ; 0x15 <__rc5>
    6a00: a0 01        	ldy	#$1
    6a02: 85 a2        	sta	$a2                     ; 0xa2 <__data_size+0x58>
    6a04: 91 9c        	sta	($9c),y                 ; 0x9c <__data_size+0x52>
    6a06: a9 00        	lda	#$0
    6a08: 91 14        	sta	($14),y                 ; 0x14 <__rc4>
    6a0a: b2 18        	lda	($18)                   ; 0x18 <__rc8>
    6a0c: a6 1e        	ldx	$1e                     ; 0x1e <__rc14>
    6a0e: 86 1b        	stx	$1b                     ; 0x1b <__rc11>
    6a10: a6 18        	ldx	$18                     ; 0x18 <__rc8>
    6a12: 86 14        	stx	$14                     ; 0x14 <__rc4>
    6a14: a6 19        	ldx	$19                     ; 0x19 <__rc9>
    6a16: 86 15        	stx	$15                     ; 0x15 <__rc5>
    6a18: a6 14        	ldx	$14                     ; 0x14 <__rc4>
    6a1a: 86 18        	stx	$18                     ; 0x18 <__rc8>
    6a1c: a6 15        	ldx	$15                     ; 0x15 <__rc5>
    6a1e: 86 19        	stx	$19                     ; 0x19 <__rc9>
    6a20: e6 18        	inc	$18                     ; 0x18 <__rc8>
    6a22: d0 02        	bne	$6a26 <_ZN12_GLOBAL__N_15printEPKcP6Status+0x3a5>
    6a24: e6 19        	inc	$19                     ; 0x19 <__rc9>
    6a26: 38           	sec
    6a27: aa           	tax
    6a28: e9 6c        	sbc	#$6c
    6a2a: 50 02        	bvc	$6a2e <_ZN12_GLOBAL__N_15printEPKcP6Status+0x3ad>
    6a2c: 49 80        	eor	#$80
    6a2e: a8           	tay
    6a2f: 10 20        	bpl	$6a51 <_ZN12_GLOBAL__N_15printEPKcP6Status+0x3d0>
    6a31: e0 4c        	cpx	#$4c
    6a33: f0 3a        	beq	$6a6f <_ZN12_GLOBAL__N_15printEPKcP6Status+0x3ee>
    6a35: 8a           	txa
    6a36: e0 68        	cpx	#$68
    6a38: d0 03        	bne	$6a3d <_ZN12_GLOBAL__N_15printEPKcP6Status+0x3bc>
    6a3a: 4c 05 6b     	jmp	$6b05 <_ZN12_GLOBAL__N_15printEPKcP6Status+0x484>
    6a3d: a0 08        	ldy	#$8
    6a3f: a6 1f        	ldx	$1f                     ; 0x1f <__rc15>
    6a41: c9 6a        	cmp	#$6a
    6a43: d0 26        	bne	$6a6b <_ZN12_GLOBAL__N_15printEPKcP6Status+0x3ea>
    6a45: a6 18        	ldx	$18                     ; 0x18 <__rc8>
    6a47: 86 14        	stx	$14                     ; 0x14 <__rc4>
    6a49: a6 19        	ldx	$19                     ; 0x19 <__rc9>
    6a4b: 86 15        	stx	$15                     ; 0x15 <__rc5>
    6a4d: a2 08        	ldx	#$8
    6a4f: 80 46        	bra	$6a97 <_ZN12_GLOBAL__N_15printEPKcP6Status+0x416>
    6a51: e0 6c        	cpx	#$6c
    6a53: d0 03        	bne	$6a58 <_ZN12_GLOBAL__N_15printEPKcP6Status+0x3d7>
    6a55: 4c e7 6a     	jmp	$6ae7 <_ZN12_GLOBAL__N_15printEPKcP6Status+0x466>
    6a58: 8a           	txa
    6a59: e0 74        	cpx	#$74
    6a5b: f0 2e        	beq	$6a8b <_ZN12_GLOBAL__N_15printEPKcP6Status+0x40a>
    6a5d: a6 1f        	ldx	$1f                     ; 0x1f <__rc15>
    6a5f: c9 7a        	cmp	#$7a
    6a61: d0 08        	bne	$6a6b <_ZN12_GLOBAL__N_15printEPKcP6Status+0x3ea>
    6a63: a4 18        	ldy	$18                     ; 0x18 <__rc8>
    6a65: 84 14        	sty	$14                     ; 0x14 <__rc4>
    6a67: a4 19        	ldy	$19                     ; 0x19 <__rc9>
    6a69: 84 15        	sty	$15                     ; 0x15 <__rc5>
    6a6b: a0 02        	ldy	#$2
    6a6d: 80 28        	bra	$6a97 <_ZN12_GLOBAL__N_15printEPKcP6Status+0x416>
    6a6f: a5 a2        	lda	$a2                     ; 0xa2 <__data_size+0x58>
    6a71: 09 40        	ora	#$40
    6a73: a6 9c        	ldx	$9c                     ; 0x9c <__data_size+0x52>
    6a75: 86 14        	stx	$14                     ; 0x14 <__rc4>
    6a77: a6 9d        	ldx	$9d                     ; 0x9d <__data_size+0x53>
    6a79: 86 15        	stx	$15                     ; 0x15 <__rc5>
    6a7b: e6 14        	inc	$14                     ; 0x14 <__rc4>
    6a7d: d0 02        	bne	$6a81 <_ZN12_GLOBAL__N_15printEPKcP6Status+0x400>
    6a7f: e6 15        	inc	$15                     ; 0x15 <__rc5>
    6a81: a0 01        	ldy	#$1
    6a83: 85 a2        	sta	$a2                     ; 0xa2 <__data_size+0x58>
    6a85: 91 9c        	sta	($9c),y                 ; 0x9c <__data_size+0x52>
    6a87: a9 00        	lda	#$0
    6a89: 91 14        	sta	($14),y                 ; 0x14 <__rc4>
    6a8b: a6 18        	ldx	$18                     ; 0x18 <__rc8>
    6a8d: 86 14        	stx	$14                     ; 0x14 <__rc4>
    6a8f: a6 19        	ldx	$19                     ; 0x19 <__rc9>
    6a91: 86 15        	stx	$15                     ; 0x15 <__rc5>
    6a93: a0 02        	ldy	#$2
    6a95: a6 1f        	ldx	$1f                     ; 0x1f <__rc15>
    6a97: b2 14        	lda	($14)                   ; 0x14 <__rc4>
    6a99: 5a           	phy
    6a9a: a4 14        	ldy	$14                     ; 0x14 <__rc4>
    6a9c: 84 18        	sty	$18                     ; 0x18 <__rc8>
    6a9e: a4 15        	ldy	$15                     ; 0x15 <__rc5>
    6aa0: 84 19        	sty	$19                     ; 0x19 <__rc9>
    6aa2: 7a           	ply
    6aa3: 86 9e        	stx	$9e                     ; 0x9e <__data_size+0x54>
    6aa5: 5a           	phy
    6aa6: fa           	plx
    6aa7: 18           	clc
    6aa8: a8           	tay
    6aa9: 69 9d        	adc	#$9d
    6aab: c9 16        	cmp	#$16
    6aad: 86 a4        	stx	$a4                     ; 0xa4 <__data_size+0x5a>
    6aaf: 90 03        	bcc	$6ab4 <_ZN12_GLOBAL__N_15printEPKcP6Status+0x433>
    6ab1: 4c 24 6b     	jmp	$6b24 <_ZN12_GLOBAL__N_15printEPKcP6Status+0x4a3>
    6ab4: 0a           	asl
    6ab5: aa           	tax
    6ab6: 7c 58 7c     	jmp	($7c58,x)               ; 0x7c58 <__BLOCK_SIZE+0x5c58>
    6ab9: a5 1b        	lda	$1b                     ; 0x1b <__rc11>
    6abb: 85 ca        	sta	$ca                     ; 0xca <__data_size+0x80>
    6abd: a4 1a        	ldy	$1a                     ; 0x1a <__rc10>
    6abf: 84 cb        	sty	$cb                     ; 0xcb <__data_size+0x81>
    6ac1: a6 16        	ldx	$16                     ; 0x16 <__rc6>
    6ac3: 86 cd        	stx	$cd                     ; 0xcd <__data_size+0x83>
    6ac5: a6 17        	ldx	$17                     ; 0x17 <__rc7>
    6ac7: 86 cc        	stx	$cc                     ; 0xcc <__data_size+0x82>
    6ac9: a6 18        	ldx	$18                     ; 0x18 <__rc8>
    6acb: 86 12        	stx	$12                     ; 0x12 <__rc2>
    6acd: a6 19        	ldx	$19                     ; 0x19 <__rc9>
    6acf: 86 13        	stx	$13                     ; 0x13 <__rc3>
    6ad1: a6 12        	ldx	$12                     ; 0x12 <__rc2>
    6ad3: 86 c7        	stx	$c7                     ; 0xc7 <__data_size+0x7d>
    6ad5: a6 13        	ldx	$13                     ; 0x13 <__rc3>
    6ad7: 86 c8        	stx	$c8                     ; 0xc8 <__data_size+0x7e>
    6ad9: a9 0a        	lda	#$a
    6adb: aa           	tax
    6adc: 86 a3        	stx	$a3                     ; 0xa3 <__data_size+0x59>
    6ade: 92 9c        	sta	($9c)                   ; 0x9c <__data_size+0x52>
    6ae0: a2 00        	ldx	#$0
    6ae2: 86 ce        	stx	$ce                     ; 0xce <__data_size+0x84>
    6ae4: 4c 2f 6d     	jmp	$6d2f <_ZN12_GLOBAL__N_15printEPKcP6Status+0x6ae>
    6ae7: a0 01        	ldy	#$1
    6ae9: b1 14        	lda	($14),y                 ; 0x14 <__rc4>
    6aeb: a2 04        	ldx	#$4
    6aed: c9 6c        	cmp	#$6c
    6aef: d0 2e        	bne	$6b1f <_ZN12_GLOBAL__N_15printEPKcP6Status+0x49e>
    6af1: a5 14        	lda	$14                     ; 0x14 <__rc4>
    6af3: 18           	clc
    6af4: 69 02        	adc	#$2
    6af6: 85 14        	sta	$14                     ; 0x14 <__rc4>
    6af8: a5 15        	lda	$15                     ; 0x15 <__rc5>
    6afa: 69 00        	adc	#$0
    6afc: 85 15        	sta	$15                     ; 0x15 <__rc5>
    6afe: a2 08        	ldx	#$8
    6b00: a0 08        	ldy	#$8
    6b02: 4c 97 6a     	jmp	$6a97 <_ZN12_GLOBAL__N_15printEPKcP6Status+0x416>
    6b05: a0 01        	ldy	#$1
    6b07: b1 14        	lda	($14),y                 ; 0x14 <__rc4>
    6b09: a2 02        	ldx	#$2
    6b0b: c9 68        	cmp	#$68
    6b0d: d0 10        	bne	$6b1f <_ZN12_GLOBAL__N_15printEPKcP6Status+0x49e>
    6b0f: a5 14        	lda	$14                     ; 0x14 <__rc4>
    6b11: 18           	clc
    6b12: 69 02        	adc	#$2
    6b14: 85 14        	sta	$14                     ; 0x14 <__rc4>
    6b16: a5 15        	lda	$15                     ; 0x15 <__rc5>
    6b18: 69 00        	adc	#$0
    6b1a: 85 15        	sta	$15                     ; 0x15 <__rc5>
    6b1c: 4c 95 6a     	jmp	$6a95 <_ZN12_GLOBAL__N_15printEPKcP6Status+0x414>
    6b1f: 86 9e        	stx	$9e                     ; 0x9e <__data_size+0x54>
    6b21: 4c a7 6a     	jmp	$6aa7 <_ZN12_GLOBAL__N_15printEPKcP6Status+0x426>
    6b24: c0 58        	cpy	#$58
    6b26: f0 03        	beq	$6b2b <_ZN12_GLOBAL__N_15printEPKcP6Status+0x4aa>
    6b28: 4c c4 71     	jmp	$71c4 <_ZN12_GLOBAL__N_15printEPKcP6Status+0xb43>
    6b2b: a5 1b        	lda	$1b                     ; 0x1b <__rc11>
    6b2d: 85 ca        	sta	$ca                     ; 0xca <__data_size+0x80>
    6b2f: a4 1a        	ldy	$1a                     ; 0x1a <__rc10>
    6b31: 84 cb        	sty	$cb                     ; 0xcb <__data_size+0x81>
    6b33: a6 16        	ldx	$16                     ; 0x16 <__rc6>
    6b35: 86 cd        	stx	$cd                     ; 0xcd <__data_size+0x83>
    6b37: a6 17        	ldx	$17                     ; 0x17 <__rc7>
    6b39: 86 cc        	stx	$cc                     ; 0xcc <__data_size+0x82>
    6b3b: a6 18        	ldx	$18                     ; 0x18 <__rc8>
    6b3d: 86 12        	stx	$12                     ; 0x12 <__rc2>
    6b3f: a6 19        	ldx	$19                     ; 0x19 <__rc9>
    6b41: 86 13        	stx	$13                     ; 0x13 <__rc3>
    6b43: a6 12        	ldx	$12                     ; 0x12 <__rc2>
    6b45: 86 c7        	stx	$c7                     ; 0xc7 <__data_size+0x7d>
    6b47: a6 13        	ldx	$13                     ; 0x13 <__rc3>
    6b49: 86 c8        	stx	$c8                     ; 0xc8 <__data_size+0x7e>
    6b4b: a9 10        	lda	#$10
    6b4d: 4c 0f 6d     	jmp	$6d0f <_ZN12_GLOBAL__N_15printEPKcP6Status+0x68e>
    6b50: a5 1b        	lda	$1b                     ; 0x1b <__rc11>
    6b52: 85 ca        	sta	$ca                     ; 0xca <__data_size+0x80>
    6b54: a4 1a        	ldy	$1a                     ; 0x1a <__rc10>
    6b56: 84 cb        	sty	$cb                     ; 0xcb <__data_size+0x81>
    6b58: a6 16        	ldx	$16                     ; 0x16 <__rc6>
    6b5a: 86 cd        	stx	$cd                     ; 0xcd <__data_size+0x83>
    6b5c: a6 17        	ldx	$17                     ; 0x17 <__rc7>
    6b5e: 86 cc        	stx	$cc                     ; 0xcc <__data_size+0x82>
    6b60: a6 18        	ldx	$18                     ; 0x18 <__rc8>
    6b62: 86 12        	stx	$12                     ; 0x12 <__rc2>
    6b64: a6 19        	ldx	$19                     ; 0x19 <__rc9>
    6b66: 86 13        	stx	$13                     ; 0x13 <__rc3>
    6b68: a6 12        	ldx	$12                     ; 0x12 <__rc2>
    6b6a: 86 c7        	stx	$c7                     ; 0xc7 <__data_size+0x7d>
    6b6c: a6 13        	ldx	$13                     ; 0x13 <__rc3>
    6b6e: 86 c8        	stx	$c8                     ; 0xc8 <__data_size+0x7e>
    6b70: a9 10        	lda	#$10
    6b72: 92 9c        	sta	($9c)                   ; 0x9c <__data_size+0x52>
    6b74: a5 a2        	lda	$a2                     ; 0xa2 <__data_size+0x58>
    6b76: 09 84        	ora	#$84
    6b78: 80 28        	bra	$6ba2 <_ZN12_GLOBAL__N_15printEPKcP6Status+0x521>
    6b7a: a5 1b        	lda	$1b                     ; 0x1b <__rc11>
    6b7c: 85 ca        	sta	$ca                     ; 0xca <__data_size+0x80>
    6b7e: a4 1a        	ldy	$1a                     ; 0x1a <__rc10>
    6b80: 84 cb        	sty	$cb                     ; 0xcb <__data_size+0x81>
    6b82: a6 16        	ldx	$16                     ; 0x16 <__rc6>
    6b84: 86 cd        	stx	$cd                     ; 0xcd <__data_size+0x83>
    6b86: a6 17        	ldx	$17                     ; 0x17 <__rc7>
    6b88: 86 cc        	stx	$cc                     ; 0xcc <__data_size+0x82>
    6b8a: a6 18        	ldx	$18                     ; 0x18 <__rc8>
    6b8c: 86 12        	stx	$12                     ; 0x12 <__rc2>
    6b8e: a6 19        	ldx	$19                     ; 0x19 <__rc9>
    6b90: 86 13        	stx	$13                     ; 0x13 <__rc3>
    6b92: a6 12        	ldx	$12                     ; 0x12 <__rc2>
    6b94: 86 c7        	stx	$c7                     ; 0xc7 <__data_size+0x7d>
    6b96: a6 13        	ldx	$13                     ; 0x13 <__rc3>
    6b98: 86 c8        	stx	$c8                     ; 0xc8 <__data_size+0x7e>
    6b9a: a9 10        	lda	#$10
    6b9c: 92 9c        	sta	($9c)                   ; 0x9c <__data_size+0x52>
    6b9e: a5 a2        	lda	$a2                     ; 0xa2 <__data_size+0x58>
    6ba0: 09 80        	ora	#$80
    6ba2: 85 14        	sta	$14                     ; 0x14 <__rc4>
    6ba4: a9 00        	lda	#$0
    6ba6: 09 01        	ora	#$1
    6ba8: aa           	tax
    6ba9: a4 9c        	ldy	$9c                     ; 0x9c <__data_size+0x52>
    6bab: 84 12        	sty	$12                     ; 0x12 <__rc2>
    6bad: a4 9d        	ldy	$9d                     ; 0x9d <__data_size+0x53>
    6baf: 84 13        	sty	$13                     ; 0x13 <__rc3>
    6bb1: e6 12        	inc	$12                     ; 0x12 <__rc2>
    6bb3: d0 02        	bne	$6bb7 <_ZN12_GLOBAL__N_15printEPKcP6Status+0x536>
    6bb5: e6 13        	inc	$13                     ; 0x13 <__rc3>
    6bb7: a0 01        	ldy	#$1
    6bb9: a5 14        	lda	$14                     ; 0x14 <__rc4>
    6bbb: 85 a2        	sta	$a2                     ; 0xa2 <__data_size+0x58>
    6bbd: 4c 28 6d     	jmp	$6d28 <_ZN12_GLOBAL__N_15printEPKcP6Status+0x6a7>
    6bc0: a4 9c        	ldy	$9c                     ; 0x9c <__data_size+0x52>
    6bc2: a5 9c        	lda	$9c                     ; 0x9c <__data_size+0x52>
    6bc4: 84 16        	sty	$16                     ; 0x16 <__rc6>
    6bc6: 18           	clc
    6bc7: 69 11        	adc	#$11
    6bc9: 85 12        	sta	$12                     ; 0x12 <__rc2>
    6bcb: a5 9d        	lda	$9d                     ; 0x9d <__data_size+0x53>
    6bcd: 69 00        	adc	#$0
    6bcf: 85 13        	sta	$13                     ; 0x13 <__rc3>
    6bd1: a0 11        	ldy	#$11
    6bd3: b1 9c        	lda	($9c),y                 ; 0x9c <__data_size+0x52>
    6bd5: 85 14        	sta	$14                     ; 0x14 <__rc4>
    6bd7: 18           	clc
    6bd8: 69 02        	adc	#$2
    6bda: 91 9c        	sta	($9c),y                 ; 0x9c <__data_size+0x52>
    6bdc: a0 01        	ldy	#$1
    6bde: b1 12        	lda	($12),y                 ; 0x12 <__rc2>
    6be0: 85 15        	sta	$15                     ; 0x15 <__rc5>
    6be2: 69 00        	adc	#$0
    6be4: 18           	clc
    6be5: 91 12        	sta	($12),y                 ; 0x12 <__rc2>
    6be7: b2 14        	lda	($14)                   ; 0x14 <__rc4>
    6be9: 85 12        	sta	$12                     ; 0x12 <__rc2>
    6beb: b1 14        	lda	($14),y                 ; 0x14 <__rc4>
    6bed: 84 17        	sty	$17                     ; 0x17 <__rc7>
    6bef: 85 13        	sta	$13                     ; 0x13 <__rc3>
    6bf1: a5 16        	lda	$16                     ; 0x16 <__rc6>
    6bf3: 69 05        	adc	#$5
    6bf5: 85 14        	sta	$14                     ; 0x14 <__rc4>
    6bf7: a5 9d        	lda	$9d                     ; 0x9d <__data_size+0x53>
    6bf9: 69 00        	adc	#$0
    6bfb: 85 15        	sta	$15                     ; 0x15 <__rc5>
    6bfd: a0 05        	ldy	#$5
    6bff: b1 9c        	lda	($9c),y                 ; 0x9c <__data_size+0x52>
    6c01: 85 16        	sta	$16                     ; 0x16 <__rc6>
    6c03: a4 17        	ldy	$17                     ; 0x17 <__rc7>
    6c05: b1 14        	lda	($14),y                 ; 0x14 <__rc4>
    6c07: 85 14        	sta	$14                     ; 0x14 <__rc4>
    6c09: a5 16        	lda	$16                     ; 0x16 <__rc6>
    6c0b: 92 12        	sta	($12)                   ; 0x12 <__rc2>
    6c0d: a5 14        	lda	$14                     ; 0x14 <__rc4>
    6c0f: 91 12        	sta	($12),y                 ; 0x12 <__rc2>
    6c11: e6 18        	inc	$18                     ; 0x18 <__rc8>
    6c13: d0 02        	bne	$6c17 <_ZN12_GLOBAL__N_15printEPKcP6Status+0x596>
    6c15: e6 19        	inc	$19                     ; 0x19 <__rc9>
    6c17: a6 18        	ldx	$18                     ; 0x18 <__rc8>
    6c19: 86 12        	stx	$12                     ; 0x12 <__rc2>
    6c1b: a6 19        	ldx	$19                     ; 0x19 <__rc9>
    6c1d: 4c e7 6c     	jmp	$6ce7 <_ZN12_GLOBAL__N_15printEPKcP6Status+0x666>
    6c20: a0 11        	ldy	#$11
    6c22: a5 9c        	lda	$9c                     ; 0x9c <__data_size+0x52>
    6c24: 18           	clc
    6c25: 69 11        	adc	#$11
    6c27: 85 12        	sta	$12                     ; 0x12 <__rc2>
    6c29: a5 9d        	lda	$9d                     ; 0x9d <__data_size+0x53>
    6c2b: 69 00        	adc	#$0
    6c2d: 85 13        	sta	$13                     ; 0x13 <__rc3>
    6c2f: b1 9c        	lda	($9c),y                 ; 0x9c <__data_size+0x52>
    6c31: aa           	tax
    6c32: 84 17        	sty	$17                     ; 0x17 <__rc7>
    6c34: a0 01        	ldy	#$1
    6c36: b1 12        	lda	($12),y                 ; 0x12 <__rc2>
    6c38: 86 14        	stx	$14                     ; 0x14 <__rc4>
    6c3a: 85 15        	sta	$15                     ; 0x15 <__rc5>
    6c3c: a8           	tay
    6c3d: 18           	clc
    6c3e: 8a           	txa
    6c3f: 69 02        	adc	#$2
    6c41: 85 16        	sta	$16                     ; 0x16 <__rc6>
    6c43: 98           	tya
    6c44: 69 00        	adc	#$0
    6c46: 85 1a        	sta	$1a                     ; 0x1a <__rc10>
    6c48: a5 16        	lda	$16                     ; 0x16 <__rc6>
    6c4a: a4 17        	ldy	$17                     ; 0x17 <__rc7>
    6c4c: 91 9c        	sta	($9c),y                 ; 0x9c <__data_size+0x52>
    6c4e: a0 01        	ldy	#$1
    6c50: a5 1a        	lda	$1a                     ; 0x1a <__rc10>
    6c52: 91 12        	sta	($12),y                 ; 0x12 <__rc2>
    6c54: b2 14        	lda	($14)                   ; 0x14 <__rc4>
    6c56: 85 12        	sta	$12                     ; 0x12 <__rc2>
    6c58: b1 14        	lda	($14),y                 ; 0x14 <__rc4>
    6c5a: 85 13        	sta	$13                     ; 0x13 <__rc3>
    6c5c: 4c c8 6c     	jmp	$6cc8 <_ZN12_GLOBAL__N_15printEPKcP6Status+0x647>
    6c5f: a5 1b        	lda	$1b                     ; 0x1b <__rc11>
    6c61: 85 ca        	sta	$ca                     ; 0xca <__data_size+0x80>
    6c63: a4 1a        	ldy	$1a                     ; 0x1a <__rc10>
    6c65: 84 cb        	sty	$cb                     ; 0xcb <__data_size+0x81>
    6c67: a6 16        	ldx	$16                     ; 0x16 <__rc6>
    6c69: 86 cd        	stx	$cd                     ; 0xcd <__data_size+0x83>
    6c6b: a6 17        	ldx	$17                     ; 0x17 <__rc7>
    6c6d: 86 cc        	stx	$cc                     ; 0xcc <__data_size+0x82>
    6c6f: a6 18        	ldx	$18                     ; 0x18 <__rc8>
    6c71: 86 12        	stx	$12                     ; 0x12 <__rc2>
    6c73: a6 19        	ldx	$19                     ; 0x19 <__rc9>
    6c75: 86 13        	stx	$13                     ; 0x13 <__rc3>
    6c77: a6 12        	ldx	$12                     ; 0x12 <__rc2>
    6c79: 86 c7        	stx	$c7                     ; 0xc7 <__data_size+0x7d>
    6c7b: a6 13        	ldx	$13                     ; 0x13 <__rc3>
    6c7d: 86 c8        	stx	$c8                     ; 0xc8 <__data_size+0x7e>
    6c7f: a9 08        	lda	#$8
    6c81: 4c 0c 6d     	jmp	$6d0c <_ZN12_GLOBAL__N_15printEPKcP6Status+0x68b>
    6c84: a0 11        	ldy	#$11
    6c86: a5 9c        	lda	$9c                     ; 0x9c <__data_size+0x52>
    6c88: 18           	clc
    6c89: 69 11        	adc	#$11
    6c8b: 85 12        	sta	$12                     ; 0x12 <__rc2>
    6c8d: a5 9d        	lda	$9d                     ; 0x9d <__data_size+0x53>
    6c8f: 69 00        	adc	#$0
    6c91: 85 13        	sta	$13                     ; 0x13 <__rc3>
    6c93: b1 9c        	lda	($9c),y                 ; 0x9c <__data_size+0x52>
    6c95: aa           	tax
    6c96: 84 17        	sty	$17                     ; 0x17 <__rc7>
    6c98: a0 01        	ldy	#$1
    6c9a: b1 12        	lda	($12),y                 ; 0x12 <__rc2>
    6c9c: 84 1a        	sty	$1a                     ; 0x1a <__rc10>
    6c9e: 86 14        	stx	$14                     ; 0x14 <__rc4>
    6ca0: 85 15        	sta	$15                     ; 0x15 <__rc5>
    6ca2: a8           	tay
    6ca3: 18           	clc
    6ca4: 8a           	txa
    6ca5: 69 02        	adc	#$2
    6ca7: 85 16        	sta	$16                     ; 0x16 <__rc6>
    6ca9: 98           	tya
    6caa: 69 00        	adc	#$0
    6cac: 85 1b        	sta	$1b                     ; 0x1b <__rc11>
    6cae: a5 16        	lda	$16                     ; 0x16 <__rc6>
    6cb0: a4 17        	ldy	$17                     ; 0x17 <__rc7>
    6cb2: 91 9c        	sta	($9c),y                 ; 0x9c <__data_size+0x52>
    6cb4: a4 1a        	ldy	$1a                     ; 0x1a <__rc10>
    6cb6: a5 1b        	lda	$1b                     ; 0x1b <__rc11>
    6cb8: 91 12        	sta	($12),y                 ; 0x12 <__rc2>
    6cba: b2 14        	lda	($14)                   ; 0x14 <__rc4>
    6cbc: 85 a7        	sta	$a7                     ; 0xa7 <__data_size+0x5d>
    6cbe: 64 a8        	stz	$a8                     ; 0xa8 <__data_size+0x5e>
    6cc0: a2 a7        	ldx	#$a7
    6cc2: a0 00        	ldy	#$0
    6cc4: 86 12        	stx	$12                     ; 0x12 <__rc2>
    6cc6: 84 13        	sty	$13                     ; 0x13 <__rc3>
    6cc8: a6 18        	ldx	$18                     ; 0x18 <__rc8>
    6cca: 86 9e        	stx	$9e                     ; 0x9e <__data_size+0x54>
    6ccc: a6 19        	ldx	$19                     ; 0x19 <__rc9>
    6cce: 86 9f        	stx	$9f                     ; 0x9f <__data_size+0x55>
    6cd0: a6 9c        	ldx	$9c                     ; 0x9c <__data_size+0x52>
    6cd2: 86 14        	stx	$14                     ; 0x14 <__rc4>
    6cd4: a6 9d        	ldx	$9d                     ; 0x9d <__data_size+0x53>
    6cd6: 86 15        	stx	$15                     ; 0x15 <__rc5>
    6cd8: 20 d6 72     	jsr	$72d6 <_ZN12_GLOBAL__N_112print_stringEPKcP6Status>
    6cdb: e6 9e        	inc	$9e                     ; 0x9e <__data_size+0x54>
    6cdd: d0 02        	bne	$6ce1 <_ZN12_GLOBAL__N_15printEPKcP6Status+0x660>
    6cdf: e6 9f        	inc	$9f                     ; 0x9f <__data_size+0x55>
    6ce1: a6 9e        	ldx	$9e                     ; 0x9e <__data_size+0x54>
    6ce3: 86 12        	stx	$12                     ; 0x12 <__rc2>
    6ce5: a6 9f        	ldx	$9f                     ; 0x9f <__data_size+0x55>
    6ce7: 86 13        	stx	$13                     ; 0x13 <__rc3>
    6ce9: 60           	rts
    6cea: a5 1b        	lda	$1b                     ; 0x1b <__rc11>
    6cec: 85 ca        	sta	$ca                     ; 0xca <__data_size+0x80>
    6cee: a4 1a        	ldy	$1a                     ; 0x1a <__rc10>
    6cf0: 84 cb        	sty	$cb                     ; 0xcb <__data_size+0x81>
    6cf2: a6 16        	ldx	$16                     ; 0x16 <__rc6>
    6cf4: 86 cd        	stx	$cd                     ; 0xcd <__data_size+0x83>
    6cf6: a6 17        	ldx	$17                     ; 0x17 <__rc7>
    6cf8: 86 cc        	stx	$cc                     ; 0xcc <__data_size+0x82>
    6cfa: a6 18        	ldx	$18                     ; 0x18 <__rc8>
    6cfc: 86 12        	stx	$12                     ; 0x12 <__rc2>
    6cfe: a6 19        	ldx	$19                     ; 0x19 <__rc9>
    6d00: 86 13        	stx	$13                     ; 0x13 <__rc3>
    6d02: a6 12        	ldx	$12                     ; 0x12 <__rc2>
    6d04: 86 c7        	stx	$c7                     ; 0xc7 <__data_size+0x7d>
    6d06: a6 13        	ldx	$13                     ; 0x13 <__rc3>
    6d08: 86 c8        	stx	$c8                     ; 0xc8 <__data_size+0x7e>
    6d0a: a9 0a        	lda	#$a
    6d0c: aa           	tax
    6d0d: 86 a3        	stx	$a3                     ; 0xa3 <__data_size+0x59>
    6d0f: 92 9c        	sta	($9c)                   ; 0x9c <__data_size+0x52>
    6d11: a9 00        	lda	#$0
    6d13: 09 01        	ora	#$1
    6d15: aa           	tax
    6d16: a4 9c        	ldy	$9c                     ; 0x9c <__data_size+0x52>
    6d18: 84 12        	sty	$12                     ; 0x12 <__rc2>
    6d1a: a4 9d        	ldy	$9d                     ; 0x9d <__data_size+0x53>
    6d1c: 84 13        	sty	$13                     ; 0x13 <__rc3>
    6d1e: e6 12        	inc	$12                     ; 0x12 <__rc2>
    6d20: d0 02        	bne	$6d24 <_ZN12_GLOBAL__N_15printEPKcP6Status+0x6a3>
    6d22: e6 13        	inc	$13                     ; 0x13 <__rc3>
    6d24: a0 01        	ldy	#$1
    6d26: a5 a2        	lda	$a2                     ; 0xa2 <__data_size+0x58>
    6d28: 91 9c        	sta	($9c),y                 ; 0x9c <__data_size+0x52>
    6d2a: 8a           	txa
    6d2b: 86 ce        	stx	$ce                     ; 0xce <__data_size+0x84>
    6d2d: 91 12        	sta	($12),y                 ; 0x12 <__rc2>
    6d2f: a2 be        	ldx	#$be
    6d31: a0 00        	ldy	#$0
    6d33: 86 12        	stx	$12                     ; 0x12 <__rc2>
    6d35: 84 13        	sty	$13                     ; 0x13 <__rc3>
    6d37: e6 12        	inc	$12                     ; 0x12 <__rc2>
    6d39: d0 02        	bne	$6d3d <_ZN12_GLOBAL__N_15printEPKcP6Status+0x6bc>
    6d3b: e6 13        	inc	$13                     ; 0x13 <__rc3>
    6d3d: a0 11        	ldy	#$11
    6d3f: a2 00        	ldx	#$0
    6d41: a5 9c        	lda	$9c                     ; 0x9c <__data_size+0x52>
    6d43: 18           	clc
    6d44: 69 11        	adc	#$11
    6d46: 85 a0        	sta	$a0                     ; 0xa0 <__data_size+0x56>
    6d48: a5 9d        	lda	$9d                     ; 0x9d <__data_size+0x53>
    6d4a: 69 00        	adc	#$0
    6d4c: 85 a1        	sta	$a1                     ; 0xa1 <__data_size+0x57>
    6d4e: b1 9c        	lda	($9c),y                 ; 0x9c <__data_size+0x52>
    6d50: 85 9f        	sta	$9f                     ; 0x9f <__data_size+0x55>
    6d52: a0 01        	ldy	#$1
    6d54: b1 a0        	lda	($a0),y                 ; 0xa0 <__data_size+0x56>
    6d56: a4 9f        	ldy	$9f                     ; 0x9f <__data_size+0x55>
    6d58: 84 14        	sty	$14                     ; 0x14 <__rc4>
    6d5a: 85 15        	sta	$15                     ; 0x15 <__rc5>
    6d5c: 85 a6        	sta	$a6                     ; 0xa6 <__data_size+0x5c>
    6d5e: 64 a5        	stz	$a5                     ; 0xa5 <__data_size+0x5b>
    6d60: a5 a4        	lda	$a4                     ; 0xa4 <__data_size+0x5a>
    6d62: a4 a4        	ldy	$a4                     ; 0xa4 <__data_size+0x5a>
    6d64: 84 cf        	sty	$cf                     ; 0xcf <__data_size+0x85>
    6d66: 20 c4 78     	jsr	$78c4 <memcpy>
    6d69: a2 00        	ldx	#$0
    6d6b: 86 18        	stx	$18                     ; 0x18 <__rc8>
    6d6d: 18           	clc
    6d6e: a5 9f        	lda	$9f                     ; 0x9f <__data_size+0x55>
    6d70: 65 9e        	adc	$9e                     ; 0x9e <__data_size+0x54>
    6d72: aa           	tax
    6d73: a5 a6        	lda	$a6                     ; 0xa6 <__data_size+0x5c>
    6d75: 69 00        	adc	#$0
    6d77: 85 12        	sta	$12                     ; 0x12 <__rc2>
    6d79: a0 11        	ldy	#$11
    6d7b: 8a           	txa
    6d7c: 91 9c        	sta	($9c),y                 ; 0x9c <__data_size+0x52>
    6d7e: a5 12        	lda	$12                     ; 0x12 <__rc2>
    6d80: a0 01        	ldy	#$1
    6d82: 91 a0        	sta	($a0),y                 ; 0xa0 <__data_size+0x56>
    6d84: a5 ce        	lda	$ce                     ; 0xce <__data_size+0x84>
    6d86: 29 01        	and	#$1
    6d88: d0 4f        	bne	$6dd9 <_ZN12_GLOBAL__N_15printEPKcP6Status+0x758>
    6d8a: a6 cf        	ldx	$cf                     ; 0xcf <__data_size+0x85>
    6d8c: b4 be        	ldy	$be,x                   ; 0xbe <__data_size+0x74>
    6d8e: a6 cc        	ldx	$cc                     ; 0xcc <__data_size+0x82>
    6d90: 86 12        	stx	$12                     ; 0x12 <__rc2>
    6d92: a6 cd        	ldx	$cd                     ; 0xcd <__data_size+0x83>
    6d94: 86 13        	stx	$13                     ; 0x13 <__rc3>
    6d96: a6 cb        	ldx	$cb                     ; 0xcb <__data_size+0x81>
    6d98: 86 9e        	stx	$9e                     ; 0x9e <__data_size+0x54>
    6d9a: a6 ca        	ldx	$ca                     ; 0xca <__data_size+0x80>
    6d9c: 86 9f        	stx	$9f                     ; 0x9f <__data_size+0x55>
    6d9e: 98           	tya
    6d9f: 10 48        	bpl	$6de9 <_ZN12_GLOBAL__N_15printEPKcP6Status+0x768>
    6da1: a2 00        	ldx	#$0
    6da3: 64 14        	stz	$14                     ; 0x14 <__rc4>
    6da5: 38           	sec
    6da6: a9 00        	lda	#$0
    6da8: f5 bf        	sbc	$bf,x                   ; 0xbf <__data_size+0x75>
    6daa: a0 01        	ldy	#$1
    6dac: 84 16        	sty	$16                     ; 0x16 <__rc6>
    6dae: 88           	dey
    6daf: b0 02        	bcs	$6db3 <_ZN12_GLOBAL__N_15printEPKcP6Status+0x732>
    6db1: a0 01        	ldy	#$1
    6db3: 38           	sec
    6db4: e5 14        	sbc	$14                     ; 0x14 <__rc4>
    6db6: 85 15        	sta	$15                     ; 0x15 <__rc5>
    6db8: 64 14        	stz	$14                     ; 0x14 <__rc4>
    6dba: b0 04        	bcs	$6dc0 <_ZN12_GLOBAL__N_15printEPKcP6Status+0x73f>
    6dbc: a5 16        	lda	$16                     ; 0x16 <__rc6>
    6dbe: 85 14        	sta	$14                     ; 0x14 <__rc4>
    6dc0: 98           	tya
    6dc1: 05 14        	ora	$14                     ; 0x14 <__rc4>
    6dc3: 85 14        	sta	$14                     ; 0x14 <__rc4>
    6dc5: a5 15        	lda	$15                     ; 0x15 <__rc5>
    6dc7: 9d bf 00     	sta	$bf,x                   ; 0xbf <__data_size+0x75>
    6dca: e8           	inx
    6dcb: 86 15        	stx	$15                     ; 0x15 <__rc5>
    6dcd: a4 a4        	ldy	$a4                     ; 0xa4 <__data_size+0x5a>
    6dcf: c4 15        	cpy	$15                     ; 0x15 <__rc5>
    6dd1: d0 d2        	bne	$6da5 <_ZN12_GLOBAL__N_15printEPKcP6Status+0x724>
    6dd3: a2 01        	ldx	#$1
    6dd5: 86 18        	stx	$18                     ; 0x18 <__rc8>
    6dd7: 80 10        	bra	$6de9 <_ZN12_GLOBAL__N_15printEPKcP6Status+0x768>
    6dd9: a6 cc        	ldx	$cc                     ; 0xcc <__data_size+0x82>
    6ddb: 86 12        	stx	$12                     ; 0x12 <__rc2>
    6ddd: a6 cd        	ldx	$cd                     ; 0xcd <__data_size+0x83>
    6ddf: 86 13        	stx	$13                     ; 0x13 <__rc3>
    6de1: a6 cb        	ldx	$cb                     ; 0xcb <__data_size+0x81>
    6de3: 86 9e        	stx	$9e                     ; 0x9e <__data_size+0x54>
    6de5: a6 ca        	ldx	$ca                     ; 0xca <__data_size+0x80>
    6de7: 86 9f        	stx	$9f                     ; 0x9f <__data_size+0x55>
    6de9: a5 a4        	lda	$a4                     ; 0xa4 <__data_size+0x5a>
    6deb: 0a           	asl
    6dec: 0a           	asl
    6ded: 0a           	asl
    6dee: 85 14        	sta	$14                     ; 0x14 <__rc4>
    6df0: a0 00        	ldy	#$0
    6df2: 98           	tya
    6df3: f0 50        	beq	$6e45 <_ZN12_GLOBAL__N_15printEPKcP6Status+0x7c4>
    6df5: 84 17        	sty	$17                     ; 0x17 <__rc7>
    6df7: 88           	dey
    6df8: 84 19        	sty	$19                     ; 0x19 <__rc9>
    6dfa: a2 00        	ldx	#$0
    6dfc: 64 15        	stz	$15                     ; 0x15 <__rc5>
    6dfe: 80 0d        	bra	$6e0d <_ZN12_GLOBAL__N_15printEPKcP6Status+0x78c>
    6e00: a4 15        	ldy	$15                     ; 0x15 <__rc5>
    6e02: 99 a9 00     	sta	$a9,y                   ; 0xa9 <__data_size+0x5f>
    6e05: a4 19        	ldy	$19                     ; 0x19 <__rc9>
    6e07: c4 15        	cpy	$15                     ; 0x15 <__rc5>
    6e09: f0 46        	beq	$6e51 <_ZN12_GLOBAL__N_15printEPKcP6Status+0x7d0>
    6e0b: e6 15        	inc	$15                     ; 0x15 <__rc5>
    6e0d: a4 15        	ldy	$15                     ; 0x15 <__rc5>
    6e0f: b9 a9 00     	lda	$a9,y                   ; 0xa9 <__data_size+0x5f>
    6e12: 0a           	asl
    6e13: e0 00        	cpx	#$0
    6e15: f0 02        	beq	$6e19 <_ZN12_GLOBAL__N_15printEPKcP6Status+0x798>
    6e17: 09 01        	ora	#$1
    6e19: a4 a3        	ldy	$a3                     ; 0xa3 <__data_size+0x59>
    6e1b: 84 16        	sty	$16                     ; 0x16 <__rc6>
    6e1d: c5 16        	cmp	$16                     ; 0x16 <__rc6>
    6e1f: a2 01        	ldx	#$1
    6e21: b0 02        	bcs	$6e25 <_ZN12_GLOBAL__N_15printEPKcP6Status+0x7a4>
    6e23: a2 00        	ldx	#$0
    6e25: 90 d9        	bcc	$6e00 <_ZN12_GLOBAL__N_15printEPKcP6Status+0x77f>
    6e27: 84 16        	sty	$16                     ; 0x16 <__rc6>
    6e29: 38           	sec
    6e2a: e5 16        	sbc	$16                     ; 0x16 <__rc6>
    6e2c: a4 15        	ldy	$15                     ; 0x15 <__rc5>
    6e2e: 99 a9 00     	sta	$a9,y                   ; 0xa9 <__data_size+0x5f>
    6e31: a4 19        	ldy	$19                     ; 0x19 <__rc9>
    6e33: c4 15        	cpy	$15                     ; 0x15 <__rc5>
    6e35: d0 d4        	bne	$6e0b <_ZN12_GLOBAL__N_15printEPKcP6Status+0x78a>
    6e37: a4 17        	ldy	$17                     ; 0x17 <__rc7>
    6e39: a6 17        	ldx	$17                     ; 0x17 <__rc7>
    6e3b: e8           	inx
    6e3c: a9 01        	lda	#$1
    6e3e: 99 a9 00     	sta	$a9,y                   ; 0xa9 <__data_size+0x5f>
    6e41: da           	phx
    6e42: 7a           	ply
    6e43: 80 0e        	bra	$6e53 <_ZN12_GLOBAL__N_15printEPKcP6Status+0x7d2>
    6e45: a6 a4        	ldx	$a4                     ; 0xa4 <__data_size+0x5a>
    6e47: b5 be        	lda	$be,x                   ; 0xbe <__data_size+0x74>
    6e49: aa           	tax
    6e4a: a0 00        	ldy	#$0
    6e4c: 8a           	txa
    6e4d: 30 36        	bmi	$6e85 <_ZN12_GLOBAL__N_15printEPKcP6Status+0x804>
    6e4f: 80 3e        	bra	$6e8f <_ZN12_GLOBAL__N_15printEPKcP6Status+0x80e>
    6e51: a4 17        	ldy	$17                     ; 0x17 <__rc7>
    6e53: a6 a4        	ldx	$a4                     ; 0xa4 <__data_size+0x5a>
    6e55: b5 be        	lda	$be,x                   ; 0xbe <__data_size+0x74>
    6e57: aa           	tax
    6e58: 10 35        	bpl	$6e8f <_ZN12_GLOBAL__N_15printEPKcP6Status+0x80e>
    6e5a: 98           	tya
    6e5b: f0 26        	beq	$6e83 <_ZN12_GLOBAL__N_15printEPKcP6Status+0x802>
    6e5d: 84 16        	sty	$16                     ; 0x16 <__rc6>
    6e5f: a2 00        	ldx	#$0
    6e61: a4 a3        	ldy	$a3                     ; 0xa3 <__data_size+0x59>
    6e63: b5 a9        	lda	$a9,x                   ; 0xa9 <__data_size+0x5f>
    6e65: 1a           	inc
    6e66: f6 a9        	inc	$a9,x                   ; 0xa9 <__data_size+0x5f>
    6e68: 84 15        	sty	$15                     ; 0x15 <__rc5>
    6e6a: c5 15        	cmp	$15                     ; 0x15 <__rc5>
    6e6c: 90 4e        	bcc	$6ebc <_ZN12_GLOBAL__N_15printEPKcP6Status+0x83b>
    6e6e: 84 15        	sty	$15                     ; 0x15 <__rc5>
    6e70: 38           	sec
    6e71: e5 15        	sbc	$15                     ; 0x15 <__rc5>
    6e73: 9d a9 00     	sta	$a9,x                   ; 0xa9 <__data_size+0x5f>
    6e76: e8           	inx
    6e77: 86 15        	stx	$15                     ; 0x15 <__rc5>
    6e79: a5 16        	lda	$16                     ; 0x16 <__rc6>
    6e7b: c5 15        	cmp	$15                     ; 0x15 <__rc5>
    6e7d: d0 e4        	bne	$6e63 <_ZN12_GLOBAL__N_15printEPKcP6Status+0x7e2>
    6e7f: a4 16        	ldy	$16                     ; 0x16 <__rc6>
    6e81: 80 02        	bra	$6e85 <_ZN12_GLOBAL__N_15printEPKcP6Status+0x804>
    6e83: a0 00        	ldy	#$0
    6e85: 5a           	phy
    6e86: fa           	plx
    6e87: e8           	inx
    6e88: a9 01        	lda	#$1
    6e8a: 99 a9 00     	sta	$a9,y                   ; 0xa9 <__data_size+0x5f>
    6e8d: da           	phx
    6e8e: 7a           	ply
    6e8f: 84 19        	sty	$19                     ; 0x19 <__rc9>
    6e91: 64 15        	stz	$15                     ; 0x15 <__rc5>
    6e93: a2 00        	ldx	#$0
    6e95: a4 a4        	ldy	$a4                     ; 0xa4 <__data_size+0x5a>
    6e97: b5 bf        	lda	$bf,x                   ; 0xbf <__data_size+0x75>
    6e99: 0a           	asl
    6e9a: 64 16        	stz	$16                     ; 0x16 <__rc6>
    6e9c: 26 16        	rol	$16                     ; 0x16 <__rc6>
    6e9e: 05 15        	ora	$15                     ; 0x15 <__rc5>
    6ea0: 9d bf 00     	sta	$bf,x                   ; 0xbf <__data_size+0x75>
    6ea3: e8           	inx
    6ea4: 86 17        	stx	$17                     ; 0x17 <__rc7>
    6ea6: a5 16        	lda	$16                     ; 0x16 <__rc6>
    6ea8: 85 15        	sta	$15                     ; 0x15 <__rc5>
    6eaa: c4 17        	cpy	$17                     ; 0x17 <__rc7>
    6eac: d0 e9        	bne	$6e97 <_ZN12_GLOBAL__N_15printEPKcP6Status+0x816>
    6eae: a6 a5        	ldx	$a5                     ; 0xa5 <__data_size+0x5b>
    6eb0: e8           	inx
    6eb1: 86 a5        	stx	$a5                     ; 0xa5 <__data_size+0x5b>
    6eb3: e4 14        	cpx	$14                     ; 0x14 <__rc4>
    6eb5: a4 19        	ldy	$19                     ; 0x19 <__rc9>
    6eb7: b0 07        	bcs	$6ec0 <_ZN12_GLOBAL__N_15printEPKcP6Status+0x83f>
    6eb9: 4c f2 6d     	jmp	$6df2 <_ZN12_GLOBAL__N_15printEPKcP6Status+0x771>
    6ebc: a4 16        	ldy	$16                     ; 0x16 <__rc6>
    6ebe: 80 cf        	bra	$6e8f <_ZN12_GLOBAL__N_15printEPKcP6Status+0x80e>
    6ec0: a5 a2        	lda	$a2                     ; 0xa2 <__data_size+0x58>
    6ec2: a6 9f        	ldx	$9f                     ; 0x9f <__data_size+0x55>
    6ec4: 10 06        	bpl	$6ecc <_ZN12_GLOBAL__N_15printEPKcP6Status+0x84b>
    6ec6: a2 01        	ldx	#$1
    6ec8: 64 9f        	stz	$9f                     ; 0x9f <__data_size+0x55>
    6eca: 86 9e        	stx	$9e                     ; 0x9e <__data_size+0x54>
    6ecc: 29 04        	and	#$4
    6ece: f0 29        	beq	$6ef9 <_ZN12_GLOBAL__N_15printEPKcP6Status+0x878>
    6ed0: a6 a3        	ldx	$a3                     ; 0xa3 <__data_size+0x59>
    6ed2: e0 10        	cpx	#$10
    6ed4: f0 12        	beq	$6ee8 <_ZN12_GLOBAL__N_15printEPKcP6Status+0x867>
    6ed6: e0 08        	cpx	#$8
    6ed8: d0 1f        	bne	$6ef9 <_ZN12_GLOBAL__N_15printEPKcP6Status+0x878>
    6eda: a2 00        	ldx	#$0
    6edc: e4 9f        	cpx	$9f                     ; 0x9f <__data_size+0x55>
    6ede: f0 03        	beq	$6ee3 <_ZN12_GLOBAL__N_15printEPKcP6Status+0x862>
    6ee0: 4c c5 71     	jmp	$71c5 <_ZN12_GLOBAL__N_15printEPKcP6Status+0xb44>
    6ee3: c4 9e        	cpy	$9e                     ; 0x9e <__data_size+0x54>
    6ee5: 4c c7 71     	jmp	$71c7 <_ZN12_GLOBAL__N_15printEPKcP6Status+0xb46>
    6ee8: 98           	tya
    6ee9: f0 0e        	beq	$6ef9 <_ZN12_GLOBAL__N_15printEPKcP6Status+0x878>
    6eeb: a5 a2        	lda	$a2                     ; 0xa2 <__data_size+0x58>
    6eed: 29 80        	and	#$80
    6eef: d0 03        	bne	$6ef4 <_ZN12_GLOBAL__N_15printEPKcP6Status+0x873>
    6ef1: 4c da 71     	jmp	$71da <_ZN12_GLOBAL__N_15printEPKcP6Status+0xb59>
    6ef4: a2 78        	ldx	#$78
    6ef6: 4c dc 71     	jmp	$71dc <_ZN12_GLOBAL__N_15printEPKcP6Status+0xb5b>
    6ef9: a5 a2        	lda	$a2                     ; 0xa2 <__data_size+0x58>
    6efb: a2 2d        	ldx	#$2d
    6efd: e6 18        	inc	$18                     ; 0x18 <__rc8>
    6eff: c6 18        	dec	$18                     ; 0x18 <__rc8>
    6f01: d0 1a        	bne	$6f1d <_ZN12_GLOBAL__N_15printEPKcP6Status+0x89c>
    6f03: 85 14        	sta	$14                     ; 0x14 <__rc4>
    6f05: 29 02        	and	#$2
    6f07: a2 2b        	ldx	#$2b
    6f09: c9 00        	cmp	#$0
    6f0b: d0 10        	bne	$6f1d <_ZN12_GLOBAL__N_15printEPKcP6Status+0x89c>
    6f0d: a5 14        	lda	$14                     ; 0x14 <__rc4>
    6f0f: 29 08        	and	#$8
    6f11: d0 08        	bne	$6f1b <_ZN12_GLOBAL__N_15printEPKcP6Status+0x89a>
    6f13: a2 01        	ldx	#$1
    6f15: 86 a5        	stx	$a5                     ; 0xa5 <__data_size+0x5b>
    6f17: a9 00        	lda	#$0
    6f19: 80 0a        	bra	$6f25 <_ZN12_GLOBAL__N_15printEPKcP6Status+0x8a4>
    6f1b: a2 20        	ldx	#$20
    6f1d: 86 a4        	stx	$a4                     ; 0xa4 <__data_size+0x5a>
    6f1f: a2 00        	ldx	#$0
    6f21: 86 a5        	stx	$a5                     ; 0xa5 <__data_size+0x5b>
    6f23: a9 01        	lda	#$1
    6f25: a6 9f        	ldx	$9f                     ; 0x9f <__data_size+0x55>
    6f27: d0 08        	bne	$6f31 <_ZN12_GLOBAL__N_15printEPKcP6Status+0x8b0>
    6f29: a6 9e        	ldx	$9e                     ; 0x9e <__data_size+0x54>
    6f2b: 84 14        	sty	$14                     ; 0x14 <__rc4>
    6f2d: e4 14        	cpx	$14                     ; 0x14 <__rc4>
    6f2f: 80 04        	bra	$6f35 <_ZN12_GLOBAL__N_15printEPKcP6Status+0x8b4>
    6f31: a6 9f        	ldx	$9f                     ; 0x9f <__data_size+0x55>
    6f33: e0 00        	cpx	#$0
    6f35: a6 9e        	ldx	$9e                     ; 0x9e <__data_size+0x54>
    6f37: 86 14        	stx	$14                     ; 0x14 <__rc4>
    6f39: a6 9f        	ldx	$9f                     ; 0x9f <__data_size+0x55>
    6f3b: 86 15        	stx	$15                     ; 0x15 <__rc5>
    6f3d: b0 04        	bcs	$6f43 <_ZN12_GLOBAL__N_15printEPKcP6Status+0x8c2>
    6f3f: 84 14        	sty	$14                     ; 0x14 <__rc4>
    6f41: 64 15        	stz	$15                     ; 0x15 <__rc5>
    6f43: 18           	clc
    6f44: aa           	tax
    6f45: 65 14        	adc	$14                     ; 0x14 <__rc4>
    6f47: 85 18        	sta	$18                     ; 0x18 <__rc8>
    6f49: 85 16        	sta	$16                     ; 0x16 <__rc6>
    6f4b: a5 15        	lda	$15                     ; 0x15 <__rc5>
    6f4d: 69 00        	adc	#$0
    6f4f: 85 17        	sta	$17                     ; 0x17 <__rc7>
    6f51: 84 a1        	sty	$a1                     ; 0xa1 <__data_size+0x57>
    6f53: c5 12        	cmp	$12                     ; 0x12 <__rc2>
    6f55: d0 06        	bne	$6f5d <_ZN12_GLOBAL__N_15printEPKcP6Status+0x8dc>
    6f57: a4 18        	ldy	$18                     ; 0x18 <__rc8>
    6f59: c4 13        	cpy	$13                     ; 0x13 <__rc3>
    6f5b: 80 02        	bra	$6f5f <_ZN12_GLOBAL__N_15printEPKcP6Status+0x8de>
    6f5d: c5 12        	cmp	$12                     ; 0x12 <__rc2>
    6f5f: 64 a0        	stz	$a0                     ; 0xa0 <__data_size+0x56>
    6f61: 90 05        	bcc	$6f68 <_ZN12_GLOBAL__N_15printEPKcP6Status+0x8e7>
    6f63: 64 a2        	stz	$a2                     ; 0xa2 <__data_size+0x58>
    6f65: 4c b9 6f     	jmp	$6fb9 <_ZN12_GLOBAL__N_15printEPKcP6Status+0x938>
    6f68: a5 a2        	lda	$a2                     ; 0xa2 <__data_size+0x58>
    6f6a: 29 11        	and	#$11
    6f6c: f0 0f        	beq	$6f7d <_ZN12_GLOBAL__N_15printEPKcP6Status+0x8fc>
    6f6e: a5 13        	lda	$13                     ; 0x13 <__rc3>
    6f70: 38           	sec
    6f71: e5 16        	sbc	$16                     ; 0x16 <__rc6>
    6f73: 85 a0        	sta	$a0                     ; 0xa0 <__data_size+0x56>
    6f75: a5 12        	lda	$12                     ; 0x12 <__rc2>
    6f77: e5 17        	sbc	$17                     ; 0x17 <__rc7>
    6f79: 85 a2        	sta	$a2                     ; 0xa2 <__data_size+0x58>
    6f7b: 80 3c        	bra	$6fb9 <_ZN12_GLOBAL__N_15printEPKcP6Status+0x938>
    6f7d: 8a           	txa
    6f7e: 38           	sec
    6f7f: e5 13        	sbc	$13                     ; 0x13 <__rc3>
    6f81: aa           	tax
    6f82: a9 00        	lda	#$0
    6f84: e5 12        	sbc	$12                     ; 0x12 <__rc2>
    6f86: 85 12        	sta	$12                     ; 0x12 <__rc2>
    6f88: 18           	clc
    6f89: 8a           	txa
    6f8a: 65 14        	adc	$14                     ; 0x14 <__rc4>
    6f8c: 85 a0        	sta	$a0                     ; 0xa0 <__data_size+0x56>
    6f8e: a5 12        	lda	$12                     ; 0x12 <__rc2>
    6f90: 65 15        	adc	$15                     ; 0x15 <__rc5>
    6f92: 85 a2        	sta	$a2                     ; 0xa2 <__data_size+0x58>
    6f94: a2 20        	ldx	#$20
    6f96: 86 a6        	stx	$a6                     ; 0xa6 <__data_size+0x5c>
    6f98: a6 9c        	ldx	$9c                     ; 0x9c <__data_size+0x52>
    6f9a: 86 12        	stx	$12                     ; 0x12 <__rc2>
    6f9c: a6 9d        	ldx	$9d                     ; 0x9d <__data_size+0x53>
    6f9e: 86 13        	stx	$13                     ; 0x13 <__rc3>
    6fa0: a5 a6        	lda	$a6                     ; 0xa6 <__data_size+0x5c>
    6fa2: 20 f7 71     	jsr	$71f7 <_ZN12_GLOBAL__N_13putEcP6Status>
    6fa5: a6 a2        	ldx	$a2                     ; 0xa2 <__data_size+0x58>
    6fa7: e6 a0        	inc	$a0                     ; 0xa0 <__data_size+0x56>
    6fa9: d0 01        	bne	$6fac <_ZN12_GLOBAL__N_15printEPKcP6Status+0x92b>
    6fab: e8           	inx
    6fac: 86 a2        	stx	$a2                     ; 0xa2 <__data_size+0x58>
    6fae: 8a           	txa
    6faf: d0 e7        	bne	$6f98 <_ZN12_GLOBAL__N_15printEPKcP6Status+0x917>
    6fb1: a5 a0        	lda	$a0                     ; 0xa0 <__data_size+0x56>
    6fb3: d0 e3        	bne	$6f98 <_ZN12_GLOBAL__N_15printEPKcP6Status+0x917>
    6fb5: 64 a2        	stz	$a2                     ; 0xa2 <__data_size+0x58>
    6fb7: 64 a0        	stz	$a0                     ; 0xa0 <__data_size+0x56>
    6fb9: a5 a5        	lda	$a5                     ; 0xa5 <__data_size+0x5b>
    6fbb: d0 0d        	bne	$6fca <_ZN12_GLOBAL__N_15printEPKcP6Status+0x949>
    6fbd: a6 9c        	ldx	$9c                     ; 0x9c <__data_size+0x52>
    6fbf: 86 12        	stx	$12                     ; 0x12 <__rc2>
    6fc1: a6 9d        	ldx	$9d                     ; 0x9d <__data_size+0x53>
    6fc3: 86 13        	stx	$13                     ; 0x13 <__rc3>
    6fc5: a5 a4        	lda	$a4                     ; 0xa4 <__data_size+0x5a>
    6fc7: 20 f7 71     	jsr	$71f7 <_ZN12_GLOBAL__N_13putEcP6Status>
    6fca: a6 c9        	ldx	$c9                     ; 0xc9 <__data_size+0x7f>
    6fcc: f0 0d        	beq	$6fdb <_ZN12_GLOBAL__N_15printEPKcP6Status+0x95a>
    6fce: a6 9c        	ldx	$9c                     ; 0x9c <__data_size+0x52>
    6fd0: 86 12        	stx	$12                     ; 0x12 <__rc2>
    6fd2: a6 9d        	ldx	$9d                     ; 0x9d <__data_size+0x53>
    6fd4: 86 13        	stx	$13                     ; 0x13 <__rc3>
    6fd6: a5 a3        	lda	$a3                     ; 0xa3 <__data_size+0x59>
    6fd8: 20 f7 71     	jsr	$71f7 <_ZN12_GLOBAL__N_13putEcP6Status>
    6fdb: a0 01        	ldy	#$1
    6fdd: b1 9c        	lda	($9c),y                 ; 0x9c <__data_size+0x52>
    6fdf: aa           	tax
    6fe0: 29 10        	and	#$10
    6fe2: f0 3a        	beq	$701e <_ZN12_GLOBAL__N_15printEPKcP6Status+0x99d>
    6fe4: 8a           	txa
    6fe5: 29 01        	and	#$1
    6fe7: a6 a1        	ldx	$a1                     ; 0xa1 <__data_size+0x57>
    6fe9: a8           	tay
    6fea: d0 34        	bne	$7020 <_ZN12_GLOBAL__N_15printEPKcP6Status+0x99f>
    6fec: a5 a2        	lda	$a2                     ; 0xa2 <__data_size+0x58>
    6fee: d0 07        	bne	$6ff7 <_ZN12_GLOBAL__N_15printEPKcP6Status+0x976>
    6ff0: a5 a0        	lda	$a0                     ; 0xa0 <__data_size+0x56>
    6ff2: d0 03        	bne	$6ff7 <_ZN12_GLOBAL__N_15printEPKcP6Status+0x976>
    6ff4: 4c f0 71     	jmp	$71f0 <_ZN12_GLOBAL__N_15printEPKcP6Status+0xb6f>
    6ff7: a2 30        	ldx	#$30
    6ff9: 86 a3        	stx	$a3                     ; 0xa3 <__data_size+0x59>
    6ffb: a6 9c        	ldx	$9c                     ; 0x9c <__data_size+0x52>
    6ffd: 86 12        	stx	$12                     ; 0x12 <__rc2>
    6fff: a6 9d        	ldx	$9d                     ; 0x9d <__data_size+0x53>
    7001: 86 13        	stx	$13                     ; 0x13 <__rc3>
    7003: a5 a3        	lda	$a3                     ; 0xa3 <__data_size+0x59>
    7005: 20 f7 71     	jsr	$71f7 <_ZN12_GLOBAL__N_13putEcP6Status>
    7008: a2 ff        	ldx	#$ff
    700a: c6 a0        	dec	$a0                     ; 0xa0 <__data_size+0x56>
    700c: e4 a0        	cpx	$a0                     ; 0xa0 <__data_size+0x56>
    700e: d0 02        	bne	$7012 <_ZN12_GLOBAL__N_15printEPKcP6Status+0x991>
    7010: c6 a2        	dec	$a2                     ; 0xa2 <__data_size+0x58>
    7012: a5 a2        	lda	$a2                     ; 0xa2 <__data_size+0x58>
    7014: d0 e5        	bne	$6ffb <_ZN12_GLOBAL__N_15printEPKcP6Status+0x97a>
    7016: a5 a0        	lda	$a0                     ; 0xa0 <__data_size+0x56>
    7018: d0 e1        	bne	$6ffb <_ZN12_GLOBAL__N_15printEPKcP6Status+0x97a>
    701a: 64 a0        	stz	$a0                     ; 0xa0 <__data_size+0x56>
    701c: 64 a2        	stz	$a2                     ; 0xa2 <__data_size+0x58>
    701e: a6 a1        	ldx	$a1                     ; 0xa1 <__data_size+0x57>
    7020: a0 00        	ldy	#$0
    7022: c4 9f        	cpy	$9f                     ; 0x9f <__data_size+0x55>
    7024: d0 06        	bne	$702c <_ZN12_GLOBAL__N_15printEPKcP6Status+0x9ab>
    7026: e4 9e        	cpx	$9e                     ; 0x9e <__data_size+0x54>
    7028: 90 06        	bcc	$7030 <_ZN12_GLOBAL__N_15printEPKcP6Status+0x9af>
    702a: 80 33        	bra	$705f <_ZN12_GLOBAL__N_15printEPKcP6Status+0x9de>
    702c: c4 9f        	cpy	$9f                     ; 0x9f <__data_size+0x55>
    702e: b0 2f        	bcs	$705f <_ZN12_GLOBAL__N_15printEPKcP6Status+0x9de>
    7030: a2 30        	ldx	#$30
    7032: 86 a3        	stx	$a3                     ; 0xa3 <__data_size+0x59>
    7034: a2 ff        	ldx	#$ff
    7036: c6 9e        	dec	$9e                     ; 0x9e <__data_size+0x54>
    7038: e4 9e        	cpx	$9e                     ; 0x9e <__data_size+0x54>
    703a: d0 02        	bne	$703e <_ZN12_GLOBAL__N_15printEPKcP6Status+0x9bd>
    703c: c6 9f        	dec	$9f                     ; 0x9f <__data_size+0x55>
    703e: a6 9c        	ldx	$9c                     ; 0x9c <__data_size+0x52>
    7040: 86 12        	stx	$12                     ; 0x12 <__rc2>
    7042: a6 9d        	ldx	$9d                     ; 0x9d <__data_size+0x53>
    7044: 86 13        	stx	$13                     ; 0x13 <__rc3>
    7046: a5 a3        	lda	$a3                     ; 0xa3 <__data_size+0x59>
    7048: 20 f7 71     	jsr	$71f7 <_ZN12_GLOBAL__N_13putEcP6Status>
    704b: a2 00        	ldx	#$0
    704d: e4 9f        	cpx	$9f                     ; 0x9f <__data_size+0x55>
    704f: d0 08        	bne	$7059 <_ZN12_GLOBAL__N_15printEPKcP6Status+0x9d8>
    7051: a6 a1        	ldx	$a1                     ; 0xa1 <__data_size+0x57>
    7053: e4 9e        	cpx	$9e                     ; 0x9e <__data_size+0x54>
    7055: 90 dd        	bcc	$7034 <_ZN12_GLOBAL__N_15printEPKcP6Status+0x9b3>
    7057: 80 06        	bra	$705f <_ZN12_GLOBAL__N_15printEPKcP6Status+0x9de>
    7059: e4 9f        	cpx	$9f                     ; 0x9f <__data_size+0x55>
    705b: a6 a1        	ldx	$a1                     ; 0xa1 <__data_size+0x57>
    705d: 90 d5        	bcc	$7034 <_ZN12_GLOBAL__N_15printEPKcP6Status+0x9b3>
    705f: a4 a0        	ldy	$a0                     ; 0xa0 <__data_size+0x56>
    7061: 84 a1        	sty	$a1                     ; 0xa1 <__data_size+0x57>
    7063: 8a           	txa
    7064: d0 03        	bne	$7069 <_ZN12_GLOBAL__N_15printEPKcP6Status+0x9e8>
    7066: 4c f9 70     	jmp	$70f9 <_ZN12_GLOBAL__N_15printEPKcP6Status+0xa78>
    7069: ca           	dex
    706a: d0 03        	bne	$706f <_ZN12_GLOBAL__N_15printEPKcP6Status+0x9ee>
    706c: 4c ca 70     	jmp	$70ca <_ZN12_GLOBAL__N_15printEPKcP6Status+0xa49>
    706f: 86 a0        	stx	$a0                     ; 0xa0 <__data_size+0x56>
    7071: a9 a7        	lda	#$a7
    7073: 18           	clc
    7074: 65 a0        	adc	$a0                     ; 0xa0 <__data_size+0x56>
    7076: aa           	tax
    7077: a9 00        	lda	#$0
    7079: 69 00        	adc	#$0
    707b: 85 12        	sta	$12                     ; 0x12 <__rc2>
    707d: 18           	clc
    707e: 8a           	txa
    707f: 69 02        	adc	#$2
    7081: 85 9e        	sta	$9e                     ; 0x9e <__data_size+0x54>
    7083: a5 12        	lda	$12                     ; 0x12 <__rc2>
    7085: 69 00        	adc	#$0
    7087: 85 9f        	sta	$9f                     ; 0x9f <__data_size+0x55>
    7089: 80 35        	bra	$70c0 <_ZN12_GLOBAL__N_15printEPKcP6Status+0xa3f>
    708b: 85 13        	sta	$13                     ; 0x13 <__rc3>
    708d: a9 80        	lda	#$80
    708f: a0 01        	ldy	#$1
    7091: 31 9c        	and	($9c),y                 ; 0x9c <__data_size+0x52>
    7093: f0 04        	beq	$7099 <_ZN12_GLOBAL__N_15printEPKcP6Status+0xa18>
    7095: a2 61        	ldx	#$61
    7097: 80 02        	bra	$709b <_ZN12_GLOBAL__N_15printEPKcP6Status+0xa1a>
    7099: a2 41        	ldx	#$41
    709b: 86 12        	stx	$12                     ; 0x12 <__rc2>
    709d: 18           	clc
    709e: a5 13        	lda	$13                     ; 0x13 <__rc3>
    70a0: 65 12        	adc	$12                     ; 0x12 <__rc2>
    70a2: 18           	clc
    70a3: 69 f6        	adc	#$f6
    70a5: a6 9c        	ldx	$9c                     ; 0x9c <__data_size+0x52>
    70a7: 86 12        	stx	$12                     ; 0x12 <__rc2>
    70a9: a6 9d        	ldx	$9d                     ; 0x9d <__data_size+0x53>
    70ab: 86 13        	stx	$13                     ; 0x13 <__rc3>
    70ad: 20 f7 71     	jsr	$71f7 <_ZN12_GLOBAL__N_13putEcP6Status>
    70b0: c6 a0        	dec	$a0                     ; 0xa0 <__data_size+0x56>
    70b2: a2 ff        	ldx	#$ff
    70b4: c6 9e        	dec	$9e                     ; 0x9e <__data_size+0x54>
    70b6: e4 9e        	cpx	$9e                     ; 0x9e <__data_size+0x54>
    70b8: d0 02        	bne	$70bc <_ZN12_GLOBAL__N_15printEPKcP6Status+0xa3b>
    70ba: c6 9f        	dec	$9f                     ; 0x9f <__data_size+0x55>
    70bc: a5 a0        	lda	$a0                     ; 0xa0 <__data_size+0x56>
    70be: f0 0a        	beq	$70ca <_ZN12_GLOBAL__N_15printEPKcP6Status+0xa49>
    70c0: b2 9e        	lda	($9e)                   ; 0x9e <__data_size+0x54>
    70c2: c9 0a        	cmp	#$a
    70c4: b0 c5        	bcs	$708b <_ZN12_GLOBAL__N_15printEPKcP6Status+0xa0a>
    70c6: 09 30        	ora	#$30
    70c8: 80 db        	bra	$70a5 <_ZN12_GLOBAL__N_15printEPKcP6Status+0xa24>
    70ca: a5 a9        	lda	$a9                     ; 0xa9 <__data_size+0x5f>
    70cc: c9 0a        	cmp	#$a
    70ce: b0 04        	bcs	$70d4 <_ZN12_GLOBAL__N_15printEPKcP6Status+0xa53>
    70d0: 09 30        	ora	#$30
    70d2: 80 1a        	bra	$70ee <_ZN12_GLOBAL__N_15printEPKcP6Status+0xa6d>
    70d4: 85 13        	sta	$13                     ; 0x13 <__rc3>
    70d6: a0 01        	ldy	#$1
    70d8: a9 80        	lda	#$80
    70da: 31 9c        	and	($9c),y                 ; 0x9c <__data_size+0x52>
    70dc: f0 04        	beq	$70e2 <_ZN12_GLOBAL__N_15printEPKcP6Status+0xa61>
    70de: a2 61        	ldx	#$61
    70e0: 80 02        	bra	$70e4 <_ZN12_GLOBAL__N_15printEPKcP6Status+0xa63>
    70e2: a2 41        	ldx	#$41
    70e4: 86 12        	stx	$12                     ; 0x12 <__rc2>
    70e6: a5 13        	lda	$13                     ; 0x13 <__rc3>
    70e8: 18           	clc
    70e9: 65 12        	adc	$12                     ; 0x12 <__rc2>
    70eb: 18           	clc
    70ec: 69 f6        	adc	#$f6
    70ee: a6 9c        	ldx	$9c                     ; 0x9c <__data_size+0x52>
    70f0: 86 12        	stx	$12                     ; 0x12 <__rc2>
    70f2: a6 9d        	ldx	$9d                     ; 0x9d <__data_size+0x53>
    70f4: 86 13        	stx	$13                     ; 0x13 <__rc3>
    70f6: 20 f7 71     	jsr	$71f7 <_ZN12_GLOBAL__N_13putEcP6Status>
    70f9: a0 01        	ldy	#$1
    70fb: 98           	tya
    70fc: 31 9c        	and	($9c),y                 ; 0x9c <__data_size+0x52>
    70fe: f0 2b        	beq	$712b <_ZN12_GLOBAL__N_15printEPKcP6Status+0xaaa>
    7100: a5 a2        	lda	$a2                     ; 0xa2 <__data_size+0x58>
    7102: d0 04        	bne	$7108 <_ZN12_GLOBAL__N_15printEPKcP6Status+0xa87>
    7104: a5 a1        	lda	$a1                     ; 0xa1 <__data_size+0x57>
    7106: f0 23        	beq	$712b <_ZN12_GLOBAL__N_15printEPKcP6Status+0xaaa>
    7108: a2 20        	ldx	#$20
    710a: 86 9e        	stx	$9e                     ; 0x9e <__data_size+0x54>
    710c: a6 9c        	ldx	$9c                     ; 0x9c <__data_size+0x52>
    710e: 86 12        	stx	$12                     ; 0x12 <__rc2>
    7110: a6 9d        	ldx	$9d                     ; 0x9d <__data_size+0x53>
    7112: 86 13        	stx	$13                     ; 0x13 <__rc3>
    7114: a5 9e        	lda	$9e                     ; 0x9e <__data_size+0x54>
    7116: 20 f7 71     	jsr	$71f7 <_ZN12_GLOBAL__N_13putEcP6Status>
    7119: a2 ff        	ldx	#$ff
    711b: c6 a1        	dec	$a1                     ; 0xa1 <__data_size+0x57>
    711d: e4 a1        	cpx	$a1                     ; 0xa1 <__data_size+0x57>
    711f: d0 02        	bne	$7123 <_ZN12_GLOBAL__N_15printEPKcP6Status+0xaa2>
    7121: c6 a2        	dec	$a2                     ; 0xa2 <__data_size+0x58>
    7123: a5 a2        	lda	$a2                     ; 0xa2 <__data_size+0x58>
    7125: d0 e5        	bne	$710c <_ZN12_GLOBAL__N_15printEPKcP6Status+0xa8b>
    7127: a5 a1        	lda	$a1                     ; 0xa1 <__data_size+0x57>
    7129: d0 e1        	bne	$710c <_ZN12_GLOBAL__N_15printEPKcP6Status+0xa8b>
    712b: a4 9c        	ldy	$9c                     ; 0x9c <__data_size+0x52>
    712d: 18           	clc
    712e: a5 9c        	lda	$9c                     ; 0x9c <__data_size+0x52>
    7130: 84 14        	sty	$14                     ; 0x14 <__rc4>
    7132: 69 05        	adc	#$5
    7134: 85 12        	sta	$12                     ; 0x12 <__rc2>
    7136: a5 9d        	lda	$9d                     ; 0x9d <__data_size+0x53>
    7138: 69 00        	adc	#$0
    713a: 18           	clc
    713b: 85 13        	sta	$13                     ; 0x13 <__rc3>
    713d: a0 01        	ldy	#$1
    713f: a5 14        	lda	$14                     ; 0x14 <__rc4>
    7141: 69 03        	adc	#$3
    7143: 85 14        	sta	$14                     ; 0x14 <__rc4>
    7145: a5 9d        	lda	$9d                     ; 0x9d <__data_size+0x53>
    7147: 69 00        	adc	#$0
    7149: aa           	tax
    714a: b1 12        	lda	($12),y                 ; 0x12 <__rc2>
    714c: 84 17        	sty	$17                     ; 0x17 <__rc7>
    714e: 85 15        	sta	$15                     ; 0x15 <__rc5>
    7150: a4 14        	ldy	$14                     ; 0x14 <__rc4>
    7152: 84 12        	sty	$12                     ; 0x12 <__rc2>
    7154: 86 13        	stx	$13                     ; 0x13 <__rc3>
    7156: a0 03        	ldy	#$3
    7158: b1 9c        	lda	($9c),y                 ; 0x9c <__data_size+0x52>
    715a: 85 16        	sta	$16                     ; 0x16 <__rc6>
    715c: a4 17        	ldy	$17                     ; 0x17 <__rc7>
    715e: b1 12        	lda	($12),y                 ; 0x12 <__rc2>
    7160: 85 17        	sta	$17                     ; 0x17 <__rc7>
    7162: 85 12        	sta	$12                     ; 0x12 <__rc2>
    7164: a4 15        	ldy	$15                     ; 0x15 <__rc5>
    7166: c4 12        	cpy	$12                     ; 0x12 <__rc2>
    7168: d0 0c        	bne	$7176 <_ZN12_GLOBAL__N_15printEPKcP6Status+0xaf5>
    716a: a6 16        	ldx	$16                     ; 0x16 <__rc6>
    716c: a0 05        	ldy	#$5
    716e: b1 9c        	lda	($9c),y                 ; 0x9c <__data_size+0x52>
    7170: 86 12        	stx	$12                     ; 0x12 <__rc2>
    7172: c5 12        	cmp	$12                     ; 0x12 <__rc2>
    7174: 80 08        	bra	$717e <_ZN12_GLOBAL__N_15printEPKcP6Status+0xafd>
    7176: 84 13        	sty	$13                     ; 0x13 <__rc3>
    7178: 85 12        	sta	$12                     ; 0x12 <__rc2>
    717a: a6 13        	ldx	$13                     ; 0x13 <__rc3>
    717c: e4 12        	cpx	$12                     ; 0x12 <__rc2>
    717e: a6 c7        	ldx	$c7                     ; 0xc7 <__data_size+0x7d>
    7180: 86 12        	stx	$12                     ; 0x12 <__rc2>
    7182: a6 c8        	ldx	$c8                     ; 0xc8 <__data_size+0x7e>
    7184: 86 13        	stx	$13                     ; 0x13 <__rc3>
    7186: 90 36        	bcc	$71be <_ZN12_GLOBAL__N_15printEPKcP6Status+0xb3d>
    7188: a6 16        	ldx	$16                     ; 0x16 <__rc6>
    718a: a5 17        	lda	$17                     ; 0x17 <__rc7>
    718c: d0 03        	bne	$7191 <_ZN12_GLOBAL__N_15printEPKcP6Status+0xb10>
    718e: 8a           	txa
    718f: f0 2d        	beq	$71be <_ZN12_GLOBAL__N_15printEPKcP6Status+0xb3d>
    7191: a5 9c        	lda	$9c                     ; 0x9c <__data_size+0x52>
    7193: 18           	clc
    7194: 69 09        	adc	#$9
    7196: 85 14        	sta	$14                     ; 0x14 <__rc4>
    7198: a5 9d        	lda	$9d                     ; 0x9d <__data_size+0x53>
    719a: 69 00        	adc	#$0
    719c: a0 09        	ldy	#$9
    719e: 85 15        	sta	$15                     ; 0x15 <__rc5>
    71a0: 18           	clc
    71a1: a5 16        	lda	$16                     ; 0x16 <__rc6>
    71a3: 71 9c        	adc	($9c),y                 ; 0x9c <__data_size+0x52>
    71a5: aa           	tax
    71a6: a0 01        	ldy	#$1
    71a8: a5 17        	lda	$17                     ; 0x17 <__rc7>
    71aa: 71 14        	adc	($14),y                 ; 0x14 <__rc4>
    71ac: 86 14        	stx	$14                     ; 0x14 <__rc4>
    71ae: 85 15        	sta	$15                     ; 0x15 <__rc5>
    71b0: a2 ff        	ldx	#$ff
    71b2: c6 14        	dec	$14                     ; 0x14 <__rc4>
    71b4: e4 14        	cpx	$14                     ; 0x14 <__rc4>
    71b6: d0 02        	bne	$71ba <_ZN12_GLOBAL__N_15printEPKcP6Status+0xb39>
    71b8: c6 15        	dec	$15                     ; 0x15 <__rc5>
    71ba: a9 00        	lda	#$0
    71bc: 92 14        	sta	($14)                   ; 0x14 <__rc4>
    71be: e6 12        	inc	$12                     ; 0x12 <__rc2>
    71c0: d0 02        	bne	$71c4 <_ZN12_GLOBAL__N_15printEPKcP6Status+0xb43>
    71c2: e6 13        	inc	$13                     ; 0x13 <__rc3>
    71c4: 60           	rts
    71c5: e4 9f        	cpx	$9f                     ; 0x9f <__data_size+0x55>
    71c7: a5 a2        	lda	$a2                     ; 0xa2 <__data_size+0x58>
    71c9: b0 03        	bcs	$71ce <_ZN12_GLOBAL__N_15printEPKcP6Status+0xb4d>
    71cb: 4c fb 6e     	jmp	$6efb <_ZN12_GLOBAL__N_15printEPKcP6Status+0x87a>
    71ce: 84 9e        	sty	$9e                     ; 0x9e <__data_size+0x54>
    71d0: e6 9e        	inc	$9e                     ; 0x9e <__data_size+0x54>
    71d2: d0 01        	bne	$71d5 <_ZN12_GLOBAL__N_15printEPKcP6Status+0xb54>
    71d4: e8           	inx
    71d5: 86 9f        	stx	$9f                     ; 0x9f <__data_size+0x55>
    71d7: 4c fb 6e     	jmp	$6efb <_ZN12_GLOBAL__N_15printEPKcP6Status+0x87a>
    71da: a2 58        	ldx	#$58
    71dc: 86 a3        	stx	$a3                     ; 0xa3 <__data_size+0x59>
    71de: 38           	sec
    71df: a2 01        	ldx	#$1
    71e1: 86 c9        	stx	$c9                     ; 0xc9 <__data_size+0x7f>
    71e3: a2 30        	ldx	#$30
    71e5: 86 a4        	stx	$a4                     ; 0xa4 <__data_size+0x5a>
    71e7: a9 02        	lda	#$2
    71e9: a2 00        	ldx	#$0
    71eb: 86 a5        	stx	$a5                     ; 0xa5 <__data_size+0x5b>
    71ed: 4c 25 6f     	jmp	$6f25 <_ZN12_GLOBAL__N_15printEPKcP6Status+0x8a4>
    71f0: 64 a0        	stz	$a0                     ; 0xa0 <__data_size+0x56>
    71f2: 64 a2        	stz	$a2                     ; 0xa2 <__data_size+0x58>
    71f4: 4c 20 70     	jmp	$7020 <_ZN12_GLOBAL__N_15printEPKcP6Status+0x99f>

000071f7 <_ZN12_GLOBAL__N_13putEcP6Status>:
    71f7: 85 18        	sta	$18                     ; 0x18 <__rc8>
    71f9: a6 13        	ldx	$13                     ; 0x13 <__rc3>
    71fb: 18           	clc
    71fc: a5 12        	lda	$12                     ; 0x12 <__rc2>
    71fe: 69 05        	adc	#$5
    7200: a8           	tay
    7201: a5 13        	lda	$13                     ; 0x13 <__rc3>
    7203: 86 15        	stx	$15                     ; 0x15 <__rc5>
    7205: 69 00        	adc	#$0
    7207: 18           	clc
    7208: 84 16        	sty	$16                     ; 0x16 <__rc6>
    720a: a0 05        	ldy	#$5
    720c: 85 17        	sta	$17                     ; 0x17 <__rc7>
    720e: b1 12        	lda	($12),y                 ; 0x12 <__rc2>
    7210: aa           	tax
    7211: a5 12        	lda	$12                     ; 0x12 <__rc2>
    7213: 69 03        	adc	#$3
    7215: 85 14        	sta	$14                     ; 0x14 <__rc4>
    7217: a5 15        	lda	$15                     ; 0x15 <__rc5>
    7219: 69 00        	adc	#$0
    721b: 85 15        	sta	$15                     ; 0x15 <__rc5>
    721d: a0 01        	ldy	#$1
    721f: b1 16        	lda	($16),y                 ; 0x16 <__rc6>
    7221: d1 14        	cmp	($14),y                 ; 0x14 <__rc4>
    7223: d0 11        	bne	$7236 <_ZN12_GLOBAL__N_13putEcP6Status+0x3f>
    7225: a0 03        	ldy	#$3
    7227: 85 17        	sta	$17                     ; 0x17 <__rc7>
    7229: b1 12        	lda	($12),y                 ; 0x12 <__rc2>
    722b: 85 14        	sta	$14                     ; 0x14 <__rc4>
    722d: 86 16        	stx	$16                     ; 0x16 <__rc6>
    722f: e4 14        	cpx	$14                     ; 0x14 <__rc4>
    7231: 90 0e        	bcc	$7241 <_ZN12_GLOBAL__N_13putEcP6Status+0x4a>
    7233: 4c aa 72     	jmp	$72aa <_ZN12_GLOBAL__N_13putEcP6Status+0xb3>
    7236: 86 16        	stx	$16                     ; 0x16 <__rc6>
    7238: d1 14        	cmp	($14),y                 ; 0x14 <__rc4>
    723a: 85 17        	sta	$17                     ; 0x17 <__rc7>
    723c: 90 03        	bcc	$7241 <_ZN12_GLOBAL__N_13putEcP6Status+0x4a>
    723e: 4c aa 72     	jmp	$72aa <_ZN12_GLOBAL__N_13putEcP6Status+0xb3>
    7241: a5 12        	lda	$12                     ; 0x12 <__rc2>
    7243: 18           	clc
    7244: 69 0f        	adc	#$f
    7246: 85 14        	sta	$14                     ; 0x14 <__rc4>
    7248: a5 13        	lda	$13                     ; 0x13 <__rc3>
    724a: 69 00        	adc	#$0
    724c: 85 15        	sta	$15                     ; 0x15 <__rc5>
    724e: a0 01        	ldy	#$1
    7250: b1 14        	lda	($14),y                 ; 0x14 <__rc4>
    7252: a2 00        	ldx	#$0
    7254: 86 14        	stx	$14                     ; 0x14 <__rc4>
    7256: a2 00        	ldx	#$0
    7258: 86 15        	stx	$15                     ; 0x15 <__rc5>
    725a: c5 15        	cmp	$15                     ; 0x15 <__rc5>
    725c: d0 2d        	bne	$728b <_ZN12_GLOBAL__N_13putEcP6Status+0x94>
    725e: a0 0f        	ldy	#$f
    7260: b1 12        	lda	($12),y                 ; 0x12 <__rc2>
    7262: c5 14        	cmp	$14                     ; 0x14 <__rc4>
    7264: d0 25        	bne	$728b <_ZN12_GLOBAL__N_13putEcP6Status+0x94>
    7266: a5 12        	lda	$12                     ; 0x12 <__rc2>
    7268: 18           	clc
    7269: 69 09        	adc	#$9
    726b: 85 14        	sta	$14                     ; 0x14 <__rc4>
    726d: a5 13        	lda	$13                     ; 0x13 <__rc3>
    726f: 69 00        	adc	#$0
    7271: a0 09        	ldy	#$9
    7273: 85 15        	sta	$15                     ; 0x15 <__rc5>
    7275: 18           	clc
    7276: a5 16        	lda	$16                     ; 0x16 <__rc6>
    7278: 71 12        	adc	($12),y                 ; 0x12 <__rc2>
    727a: aa           	tax
    727b: a0 01        	ldy	#$1
    727d: a5 17        	lda	$17                     ; 0x17 <__rc7>
    727f: 71 14        	adc	($14),y                 ; 0x14 <__rc4>
    7281: 86 14        	stx	$14                     ; 0x14 <__rc4>
    7283: 85 15        	sta	$15                     ; 0x15 <__rc5>
    7285: a5 18        	lda	$18                     ; 0x18 <__rc8>
    7287: 92 14        	sta	($14)                   ; 0x14 <__rc4>
    7289: 80 1f        	bra	$72aa <_ZN12_GLOBAL__N_13putEcP6Status+0xb3>
    728b: a6 12        	ldx	$12                     ; 0x12 <__rc2>
    728d: 86 d9        	stx	$d9                     ; 0xd9 <__data_size+0x8f>
    728f: a6 13        	ldx	$13                     ; 0x13 <__rc3>
    7291: 86 da        	stx	$da                     ; 0xda <__data_size+0x90>
    7293: a5 18        	lda	$18                     ; 0x18 <__rc8>
    7295: 85 42        	sta	$42                     ; 0x42 <__putchar.s>
    7297: a2 42        	ldx	#$42
    7299: 86 12        	stx	$12                     ; 0x12 <__rc2>
    729b: a2 00        	ldx	#$0
    729d: 86 13        	stx	$13                     ; 0x13 <__rc3>
    729f: 20 97 1b     	jsr	$1b97 <textPrint>
    72a2: a6 d9        	ldx	$d9                     ; 0xd9 <__data_size+0x8f>
    72a4: 86 12        	stx	$12                     ; 0x12 <__rc2>
    72a6: a6 da        	ldx	$da                     ; 0xda <__data_size+0x90>
    72a8: 86 13        	stx	$13                     ; 0x13 <__rc3>
    72aa: a0 05        	ldy	#$5
    72ac: a5 12        	lda	$12                     ; 0x12 <__rc2>
    72ae: 18           	clc
    72af: 69 05        	adc	#$5
    72b1: 85 14        	sta	$14                     ; 0x14 <__rc4>
    72b3: a5 13        	lda	$13                     ; 0x13 <__rc3>
    72b5: 69 00        	adc	#$0
    72b7: 85 15        	sta	$15                     ; 0x15 <__rc5>
    72b9: b1 12        	lda	($12),y                 ; 0x12 <__rc2>
    72bb: aa           	tax
    72bc: 84 16        	sty	$16                     ; 0x16 <__rc6>
    72be: a0 01        	ldy	#$1
    72c0: b1 14        	lda	($14),y                 ; 0x14 <__rc4>
    72c2: 84 17        	sty	$17                     ; 0x17 <__rc7>
    72c4: e8           	inx
    72c5: d0 01        	bne	$72c8 <_ZN12_GLOBAL__N_13putEcP6Status+0xd1>
    72c7: 1a           	inc
    72c8: 85 18        	sta	$18                     ; 0x18 <__rc8>
    72ca: 8a           	txa
    72cb: a4 16        	ldy	$16                     ; 0x16 <__rc6>
    72cd: 91 12        	sta	($12),y                 ; 0x12 <__rc2>
    72cf: a4 17        	ldy	$17                     ; 0x17 <__rc7>
    72d1: a5 18        	lda	$18                     ; 0x18 <__rc8>
    72d3: 91 14        	sta	($14),y                 ; 0x14 <__rc4>
    72d5: 60           	rts

000072d6 <_ZN12_GLOBAL__N_112print_stringEPKcP6Status>:
    72d6: a6 12        	ldx	$12                     ; 0x12 <__rc2>
    72d8: 86 d0        	stx	$d0                     ; 0xd0 <__data_size+0x86>
    72da: a6 13        	ldx	$13                     ; 0x13 <__rc3>
    72dc: 86 d1        	stx	$d1                     ; 0xd1 <__data_size+0x87>
    72de: a6 14        	ldx	$14                     ; 0x14 <__rc4>
    72e0: 86 d2        	stx	$d2                     ; 0xd2 <__data_size+0x88>
    72e2: a6 15        	ldx	$15                     ; 0x15 <__rc5>
    72e4: 86 d3        	stx	$d3                     ; 0xd3 <__data_size+0x89>
    72e6: a5 d2        	lda	$d2                     ; 0xd2 <__data_size+0x88>
    72e8: 18           	clc
    72e9: 69 0d        	adc	#$d
    72eb: 85 12        	sta	$12                     ; 0x12 <__rc2>
    72ed: a5 d3        	lda	$d3                     ; 0xd3 <__data_size+0x89>
    72ef: 69 00        	adc	#$0
    72f1: 85 13        	sta	$13                     ; 0x13 <__rc3>
    72f3: a0 01        	ldy	#$1
    72f5: b1 12        	lda	($12),y                 ; 0x12 <__rc2>
    72f7: 30 14        	bmi	$730d <_ZN12_GLOBAL__N_112print_stringEPKcP6Status+0x37>
    72f9: a0 0d        	ldy	#$d
    72fb: aa           	tax
    72fc: b1 d2        	lda	($d2),y                 ; 0xd2 <__data_size+0x88>
    72fe: 86 d5        	stx	$d5                     ; 0xd5 <__data_size+0x8b>
    7300: e0 00        	cpx	#$0
    7302: d0 0e        	bne	$7312 <_ZN12_GLOBAL__N_112print_stringEPKcP6Status+0x3c>
    7304: aa           	tax
    7305: d0 0b        	bne	$7312 <_ZN12_GLOBAL__N_112print_stringEPKcP6Status+0x3c>
    7307: 64 d4        	stz	$d4                     ; 0xd4 <__data_size+0x8a>
    7309: 64 d5        	stz	$d5                     ; 0xd5 <__data_size+0x8b>
    730b: 80 36        	bra	$7343 <_ZN12_GLOBAL__N_112print_stringEPKcP6Status+0x6d>
    730d: a9 ff        	lda	#$ff
    730f: aa           	tax
    7310: 86 d5        	stx	$d5                     ; 0xd5 <__data_size+0x8b>
    7312: 85 d4        	sta	$d4                     ; 0xd4 <__data_size+0x8a>
    7314: 64 12        	stz	$12                     ; 0x12 <__rc2>
    7316: a4 d0        	ldy	$d0                     ; 0xd0 <__data_size+0x86>
    7318: a6 d1        	ldx	$d1                     ; 0xd1 <__data_size+0x87>
    731a: 86 16        	stx	$16                     ; 0x16 <__rc6>
    731c: 64 13        	stz	$13                     ; 0x13 <__rc3>
    731e: 98           	tya
    731f: 18           	clc
    7320: 65 12        	adc	$12                     ; 0x12 <__rc2>
    7322: 85 14        	sta	$14                     ; 0x14 <__rc4>
    7324: a5 d1        	lda	$d1                     ; 0xd1 <__data_size+0x87>
    7326: 65 13        	adc	$13                     ; 0x13 <__rc3>
    7328: 85 15        	sta	$15                     ; 0x15 <__rc5>
    732a: b2 14        	lda	($14)                   ; 0x14 <__rc4>
    732c: d0 03        	bne	$7331 <_ZN12_GLOBAL__N_112print_stringEPKcP6Status+0x5b>
    732e: 4c da 73     	jmp	$73da <_ZN12_GLOBAL__N_112print_stringEPKcP6Status+0x104>
    7331: e6 12        	inc	$12                     ; 0x12 <__rc2>
    7333: d0 02        	bne	$7337 <_ZN12_GLOBAL__N_112print_stringEPKcP6Status+0x61>
    7335: e6 13        	inc	$13                     ; 0x13 <__rc3>
    7337: a6 d5        	ldx	$d5                     ; 0xd5 <__data_size+0x8b>
    7339: e4 13        	cpx	$13                     ; 0x13 <__rc3>
    733b: d0 e1        	bne	$731e <_ZN12_GLOBAL__N_112print_stringEPKcP6Status+0x48>
    733d: a6 d4        	ldx	$d4                     ; 0xd4 <__data_size+0x8a>
    733f: e4 12        	cpx	$12                     ; 0x12 <__rc2>
    7341: d0 db        	bne	$731e <_ZN12_GLOBAL__N_112print_stringEPKcP6Status+0x48>
    7343: a0 01        	ldy	#$1
    7345: b1 d2        	lda	($d2),y                 ; 0xd2 <__data_size+0x88>
    7347: 29 01        	and	#$1
    7349: f0 03        	beq	$734e <_ZN12_GLOBAL__N_112print_stringEPKcP6Status+0x78>
    734b: 4c ac 73     	jmp	$73ac <_ZN12_GLOBAL__N_112print_stringEPKcP6Status+0xd6>
    734e: a5 d2        	lda	$d2                     ; 0xd2 <__data_size+0x88>
    7350: 18           	clc
    7351: 69 0b        	adc	#$b
    7353: 85 14        	sta	$14                     ; 0x14 <__rc4>
    7355: a5 d3        	lda	$d3                     ; 0xd3 <__data_size+0x89>
    7357: 69 00        	adc	#$0
    7359: 85 15        	sta	$15                     ; 0x15 <__rc5>
    735b: 84 12        	sty	$12                     ; 0x12 <__rc2>
    735d: a0 0b        	ldy	#$b
    735f: b1 d2        	lda	($d2),y                 ; 0xd2 <__data_size+0x88>
    7361: 85 13        	sta	$13                     ; 0x13 <__rc3>
    7363: a4 12        	ldy	$12                     ; 0x12 <__rc2>
    7365: b1 14        	lda	($14),y                 ; 0x14 <__rc4>
    7367: 85 12        	sta	$12                     ; 0x12 <__rc2>
    7369: a6 d5        	ldx	$d5                     ; 0xd5 <__data_size+0x8b>
    736b: e4 12        	cpx	$12                     ; 0x12 <__rc2>
    736d: d0 08        	bne	$7377 <_ZN12_GLOBAL__N_112print_stringEPKcP6Status+0xa1>
    736f: a6 d4        	ldx	$d4                     ; 0xd4 <__data_size+0x8a>
    7371: e4 13        	cpx	$13                     ; 0x13 <__rc3>
    7373: 90 06        	bcc	$737b <_ZN12_GLOBAL__N_112print_stringEPKcP6Status+0xa5>
    7375: 80 35        	bra	$73ac <_ZN12_GLOBAL__N_112print_stringEPKcP6Status+0xd6>
    7377: e4 12        	cpx	$12                     ; 0x12 <__rc2>
    7379: b0 31        	bcs	$73ac <_ZN12_GLOBAL__N_112print_stringEPKcP6Status+0xd6>
    737b: 38           	sec
    737c: a5 d4        	lda	$d4                     ; 0xd4 <__data_size+0x8a>
    737e: e5 13        	sbc	$13                     ; 0x13 <__rc3>
    7380: a8           	tay
    7381: a5 d5        	lda	$d5                     ; 0xd5 <__data_size+0x8b>
    7383: e5 12        	sbc	$12                     ; 0x12 <__rc2>
    7385: 85 d7        	sta	$d7                     ; 0xd7 <__data_size+0x8d>
    7387: a2 20        	ldx	#$20
    7389: 86 d8        	stx	$d8                     ; 0xd8 <__data_size+0x8e>
    738b: a6 d2        	ldx	$d2                     ; 0xd2 <__data_size+0x88>
    738d: 86 12        	stx	$12                     ; 0x12 <__rc2>
    738f: a6 d3        	ldx	$d3                     ; 0xd3 <__data_size+0x89>
    7391: 86 13        	stx	$13                     ; 0x13 <__rc3>
    7393: 84 d6        	sty	$d6                     ; 0xd6 <__data_size+0x8c>
    7395: a5 d8        	lda	$d8                     ; 0xd8 <__data_size+0x8e>
    7397: 20 f7 71     	jsr	$71f7 <_ZN12_GLOBAL__N_13putEcP6Status>
    739a: a6 d7        	ldx	$d7                     ; 0xd7 <__data_size+0x8d>
    739c: e6 d6        	inc	$d6                     ; 0xd6 <__data_size+0x8c>
    739e: d0 01        	bne	$73a1 <_ZN12_GLOBAL__N_112print_stringEPKcP6Status+0xcb>
    73a0: e8           	inx
    73a1: 86 d7        	stx	$d7                     ; 0xd7 <__data_size+0x8d>
    73a3: a4 d6        	ldy	$d6                     ; 0xd6 <__data_size+0x8c>
    73a5: 8a           	txa
    73a6: d0 e3        	bne	$738b <_ZN12_GLOBAL__N_112print_stringEPKcP6Status+0xb5>
    73a8: a5 d6        	lda	$d6                     ; 0xd6 <__data_size+0x8c>
    73aa: d0 df        	bne	$738b <_ZN12_GLOBAL__N_112print_stringEPKcP6Status+0xb5>
    73ac: a5 d5        	lda	$d5                     ; 0xd5 <__data_size+0x8b>
    73ae: d0 04        	bne	$73b4 <_ZN12_GLOBAL__N_112print_stringEPKcP6Status+0xde>
    73b0: a5 d4        	lda	$d4                     ; 0xd4 <__data_size+0x8a>
    73b2: f0 25        	beq	$73d9 <_ZN12_GLOBAL__N_112print_stringEPKcP6Status+0x103>
    73b4: a2 ff        	ldx	#$ff
    73b6: c6 d4        	dec	$d4                     ; 0xd4 <__data_size+0x8a>
    73b8: e4 d4        	cpx	$d4                     ; 0xd4 <__data_size+0x8a>
    73ba: d0 02        	bne	$73be <_ZN12_GLOBAL__N_112print_stringEPKcP6Status+0xe8>
    73bc: c6 d5        	dec	$d5                     ; 0xd5 <__data_size+0x8b>
    73be: b2 d0        	lda	($d0)                   ; 0xd0 <__data_size+0x86>
    73c0: e6 d0        	inc	$d0                     ; 0xd0 <__data_size+0x86>
    73c2: d0 02        	bne	$73c6 <_ZN12_GLOBAL__N_112print_stringEPKcP6Status+0xf0>
    73c4: e6 d1        	inc	$d1                     ; 0xd1 <__data_size+0x87>
    73c6: a6 d2        	ldx	$d2                     ; 0xd2 <__data_size+0x88>
    73c8: 86 12        	stx	$12                     ; 0x12 <__rc2>
    73ca: a6 d3        	ldx	$d3                     ; 0xd3 <__data_size+0x89>
    73cc: 86 13        	stx	$13                     ; 0x13 <__rc3>
    73ce: 20 f7 71     	jsr	$71f7 <_ZN12_GLOBAL__N_13putEcP6Status>
    73d1: a5 d5        	lda	$d5                     ; 0xd5 <__data_size+0x8b>
    73d3: d0 df        	bne	$73b4 <_ZN12_GLOBAL__N_112print_stringEPKcP6Status+0xde>
    73d5: a5 d4        	lda	$d4                     ; 0xd4 <__data_size+0x8a>
    73d7: d0 db        	bne	$73b4 <_ZN12_GLOBAL__N_112print_stringEPKcP6Status+0xde>
    73d9: 60           	rts
    73da: a6 12        	ldx	$12                     ; 0x12 <__rc2>
    73dc: 86 d4        	stx	$d4                     ; 0xd4 <__data_size+0x8a>
    73de: a6 13        	ldx	$13                     ; 0x13 <__rc3>
    73e0: 86 d5        	stx	$d5                     ; 0xd5 <__data_size+0x8b>
    73e2: 4c 43 73     	jmp	$7343 <_ZN12_GLOBAL__N_112print_stringEPKcP6Status+0x6d>

000073e5 <printf>:
    73e5: 18           	clc
    73e6: a6 10        	ldx	$10                     ; 0x10 <__zp_data_size>
    73e8: a4 11        	ldy	$11                     ; 0x11 <__rc1>
    73ea: 86 99        	stx	$99                     ; 0x99 <__data_size+0x4f>
    73ec: 84 9a        	sty	$9a                     ; 0x9a <__data_size+0x50>
    73ee: a6 99        	ldx	$99                     ; 0x99 <__data_size+0x4f>
    73f0: a4 9a        	ldy	$9a                     ; 0x9a <__data_size+0x50>
    73f2: 86 84        	stx	$84                     ; 0x84 <__data_size+0x3a>
    73f4: 84 85        	sty	$85                     ; 0x85 <__data_size+0x3b>
    73f6: a2 ff        	ldx	#$ff
    73f8: 86 89        	stx	$89                     ; 0x89 <__data_size+0x3f>
    73fa: 86 8a        	stx	$8a                     ; 0x8a <__data_size+0x40>
    73fc: 64 8b        	stz	$8b                     ; 0x8b <__data_size+0x41>
    73fe: 64 8c        	stz	$8c                     ; 0x8c <__data_size+0x42>
    7400: e8           	inx
    7401: 86 14        	stx	$14                     ; 0x14 <__rc4>
    7403: a2 00        	ldx	#$0
    7405: 86 15        	stx	$15                     ; 0x15 <__rc5>
    7407: a6 14        	ldx	$14                     ; 0x14 <__rc4>
    7409: a4 15        	ldy	$15                     ; 0x15 <__rc5>
    740b: 86 8f        	stx	$8f                     ; 0x8f <__data_size+0x45>
    740d: 84 90        	sty	$90                     ; 0x90 <__data_size+0x46>
    740f: a2 02        	ldx	#$2
    7411: 86 95        	stx	$95                     ; 0x95 <__data_size+0x4b>
    7413: 64 96        	stz	$96                     ; 0x96 <__data_size+0x4c>
    7415: a6 84        	ldx	$84                     ; 0x84 <__data_size+0x3a>
    7417: a4 85        	ldy	$85                     ; 0x85 <__data_size+0x3b>
    7419: 86 97        	stx	$97                     ; 0x97 <__data_size+0x4d>
    741b: 84 98        	sty	$98                     ; 0x98 <__data_size+0x4e>
    741d: a2 86        	ldx	#$86
    741f: 86 82        	stx	$82                     ; 0x82 <__data_size+0x38>
    7421: a2 00        	ldx	#$0
    7423: 86 83        	stx	$83                     ; 0x83 <__data_size+0x39>
    7425: a6 12        	ldx	$12                     ; 0x12 <__rc2>
    7427: 86 80        	stx	$80                     ; 0x80 <__data_size+0x36>
    7429: a6 13        	ldx	$13                     ; 0x13 <__rc3>
    742b: 86 81        	stx	$81                     ; 0x81 <__data_size+0x37>
    742d: b2 12        	lda	($12)                   ; 0x12 <__rc2>
    742f: c9 25        	cmp	#$25
    7431: f0 26        	beq	$7459 <printf+0x74>
    7433: aa           	tax
    7434: f0 3e        	beq	$7474 <printf+0x8f>
    7436: 85 42        	sta	$42                     ; 0x42 <__putchar.s>
    7438: a2 42        	ldx	#$42
    743a: 86 12        	stx	$12                     ; 0x12 <__rc2>
    743c: a2 00        	ldx	#$0
    743e: 86 13        	stx	$13                     ; 0x13 <__rc3>
    7440: 20 97 1b     	jsr	$1b97 <textPrint>
    7443: e6 80        	inc	$80                     ; 0x80 <__data_size+0x36>
    7445: d0 02        	bne	$7449 <printf+0x64>
    7447: e6 81        	inc	$81                     ; 0x81 <__data_size+0x37>
    7449: e6 8b        	inc	$8b                     ; 0x8b <__data_size+0x41>
    744b: d0 02        	bne	$744f <printf+0x6a>
    744d: e6 8c        	inc	$8c                     ; 0x8c <__data_size+0x42>
    744f: a6 80        	ldx	$80                     ; 0x80 <__data_size+0x36>
    7451: 86 12        	stx	$12                     ; 0x12 <__rc2>
    7453: a6 81        	ldx	$81                     ; 0x81 <__data_size+0x37>
    7455: 86 13        	stx	$13                     ; 0x13 <__rc3>
    7457: 80 cc        	bra	$7425 <printf+0x40>
    7459: a6 82        	ldx	$82                     ; 0x82 <__data_size+0x38>
    745b: 86 14        	stx	$14                     ; 0x14 <__rc4>
    745d: a6 83        	ldx	$83                     ; 0x83 <__data_size+0x39>
    745f: 86 15        	stx	$15                     ; 0x15 <__rc5>
    7461: 20 81 66     	jsr	$6681 <_ZN12_GLOBAL__N_15printEPKcP6Status>
    7464: a6 13        	ldx	$13                     ; 0x13 <__rc3>
    7466: e4 81        	cpx	$81                     ; 0x81 <__data_size+0x37>
    7468: d0 bb        	bne	$7425 <printf+0x40>
    746a: a6 12        	ldx	$12                     ; 0x12 <__rc2>
    746c: e4 80        	cpx	$80                     ; 0x80 <__data_size+0x36>
    746e: d0 b5        	bne	$7425 <printf+0x40>
    7470: b2 80        	lda	($80)                   ; 0x80 <__data_size+0x36>
    7472: 80 c2        	bra	$7436 <printf+0x51>
    7474: 60           	rts

00007475 <sprintf>:
    7475: a6 12        	ldx	$12                     ; 0x12 <__rc2>
    7477: 86 7f        	stx	$7f                     ; 0x7f <__data_size+0x35>
    7479: a6 13        	ldx	$13                     ; 0x13 <__rc3>
    747b: 86 80        	stx	$80                     ; 0x80 <__data_size+0x36>
    747d: 18           	clc
    747e: a6 10        	ldx	$10                     ; 0x10 <__zp_data_size>
    7480: a4 11        	ldy	$11                     ; 0x11 <__rc1>
    7482: 86 9a        	stx	$9a                     ; 0x9a <__data_size+0x50>
    7484: 84 9b        	sty	$9b                     ; 0x9b <__data_size+0x51>
    7486: a6 9a        	ldx	$9a                     ; 0x9a <__data_size+0x50>
    7488: a4 9b        	ldy	$9b                     ; 0x9b <__data_size+0x51>
    748a: 86 85        	stx	$85                     ; 0x85 <__data_size+0x3b>
    748c: 84 86        	sty	$86                     ; 0x86 <__data_size+0x3c>
    748e: a2 ff        	ldx	#$ff
    7490: 86 8a        	stx	$8a                     ; 0x8a <__data_size+0x40>
    7492: 86 8b        	stx	$8b                     ; 0x8b <__data_size+0x41>
    7494: 64 8c        	stz	$8c                     ; 0x8c <__data_size+0x42>
    7496: 64 8d        	stz	$8d                     ; 0x8d <__data_size+0x43>
    7498: a6 7f        	ldx	$7f                     ; 0x7f <__data_size+0x35>
    749a: a4 80        	ldy	$80                     ; 0x80 <__data_size+0x36>
    749c: 86 90        	stx	$90                     ; 0x90 <__data_size+0x46>
    749e: 84 91        	sty	$91                     ; 0x91 <__data_size+0x47>
    74a0: a2 00        	ldx	#$0
    74a2: 86 12        	stx	$12                     ; 0x12 <__rc2>
    74a4: a2 00        	ldx	#$0
    74a6: 86 13        	stx	$13                     ; 0x13 <__rc3>
    74a8: a6 12        	ldx	$12                     ; 0x12 <__rc2>
    74aa: a4 13        	ldy	$13                     ; 0x13 <__rc3>
    74ac: 86 96        	stx	$96                     ; 0x96 <__data_size+0x4c>
    74ae: 84 97        	sty	$97                     ; 0x97 <__data_size+0x4d>
    74b0: a6 85        	ldx	$85                     ; 0x85 <__data_size+0x3b>
    74b2: a4 86        	ldy	$86                     ; 0x86 <__data_size+0x3c>
    74b4: 86 98        	stx	$98                     ; 0x98 <__data_size+0x4e>
    74b6: 84 99        	sty	$99                     ; 0x99 <__data_size+0x4f>
    74b8: a2 d9        	ldx	#$d9
    74ba: 86 12        	stx	$12                     ; 0x12 <__rc2>
    74bc: a2 7d        	ldx	#$7d
    74be: 86 13        	stx	$13                     ; 0x13 <__rc3>
    74c0: a2 87        	ldx	#$87
    74c2: 86 83        	stx	$83                     ; 0x83 <__data_size+0x39>
    74c4: a2 00        	ldx	#$0
    74c6: 86 84        	stx	$84                     ; 0x84 <__data_size+0x3a>
    74c8: 80 17        	bra	$74e1 <sprintf+0x6c>
    74ca: a6 83        	ldx	$83                     ; 0x83 <__data_size+0x39>
    74cc: 86 14        	stx	$14                     ; 0x14 <__rc4>
    74ce: a6 84        	ldx	$84                     ; 0x84 <__data_size+0x3a>
    74d0: 86 15        	stx	$15                     ; 0x15 <__rc5>
    74d2: 20 81 66     	jsr	$6681 <_ZN12_GLOBAL__N_15printEPKcP6Status>
    74d5: a6 13        	ldx	$13                     ; 0x13 <__rc3>
    74d7: e4 82        	cpx	$82                     ; 0x82 <__data_size+0x38>
    74d9: d0 06        	bne	$74e1 <sprintf+0x6c>
    74db: a6 12        	ldx	$12                     ; 0x12 <__rc2>
    74dd: e4 81        	cpx	$81                     ; 0x81 <__data_size+0x37>
    74df: f0 11        	beq	$74f2 <sprintf+0x7d>
    74e1: a6 12        	ldx	$12                     ; 0x12 <__rc2>
    74e3: 86 81        	stx	$81                     ; 0x81 <__data_size+0x37>
    74e5: a6 13        	ldx	$13                     ; 0x13 <__rc3>
    74e7: 86 82        	stx	$82                     ; 0x82 <__data_size+0x38>
    74e9: b2 12        	lda	($12)                   ; 0x12 <__rc2>
    74eb: c9 25        	cmp	#$25
    74ed: f0 db        	beq	$74ca <sprintf+0x55>
    74ef: aa           	tax
    74f0: f0 43        	beq	$7535 <sprintf+0xc0>
    74f2: a6 8c        	ldx	$8c                     ; 0x8c <__data_size+0x42>
    74f4: 86 12        	stx	$12                     ; 0x12 <__rc2>
    74f6: a4 8d        	ldy	$8d                     ; 0x8d <__data_size+0x43>
    74f8: 84 13        	sty	$13                     ; 0x13 <__rc3>
    74fa: c0 ff        	cpy	#$ff
    74fc: d0 04        	bne	$7502 <sprintf+0x8d>
    74fe: e0 ff        	cpx	#$ff
    7500: f0 15        	beq	$7517 <sprintf+0xa2>
    7502: b2 81        	lda	($81)                   ; 0x81 <__data_size+0x37>
    7504: 85 16        	sta	$16                     ; 0x16 <__rc6>
    7506: a5 7f        	lda	$7f                     ; 0x7f <__data_size+0x35>
    7508: 18           	clc
    7509: 65 12        	adc	$12                     ; 0x12 <__rc2>
    750b: 85 14        	sta	$14                     ; 0x14 <__rc4>
    750d: a5 80        	lda	$80                     ; 0x80 <__data_size+0x36>
    750f: 65 13        	adc	$13                     ; 0x13 <__rc3>
    7511: 85 15        	sta	$15                     ; 0x15 <__rc5>
    7513: a5 16        	lda	$16                     ; 0x16 <__rc6>
    7515: 92 14        	sta	($14)                   ; 0x14 <__rc4>
    7517: e6 12        	inc	$12                     ; 0x12 <__rc2>
    7519: d0 02        	bne	$751d <sprintf+0xa8>
    751b: e6 13        	inc	$13                     ; 0x13 <__rc3>
    751d: a6 12        	ldx	$12                     ; 0x12 <__rc2>
    751f: a4 13        	ldy	$13                     ; 0x13 <__rc3>
    7521: 86 8c        	stx	$8c                     ; 0x8c <__data_size+0x42>
    7523: 84 8d        	sty	$8d                     ; 0x8d <__data_size+0x43>
    7525: e6 81        	inc	$81                     ; 0x81 <__data_size+0x37>
    7527: d0 02        	bne	$752b <sprintf+0xb6>
    7529: e6 82        	inc	$82                     ; 0x82 <__data_size+0x38>
    752b: a6 81        	ldx	$81                     ; 0x81 <__data_size+0x37>
    752d: 86 12        	stx	$12                     ; 0x12 <__rc2>
    752f: a6 82        	ldx	$82                     ; 0x82 <__data_size+0x38>
    7531: 86 13        	stx	$13                     ; 0x13 <__rc3>
    7533: 80 ac        	bra	$74e1 <sprintf+0x6c>
    7535: a6 8c        	ldx	$8c                     ; 0x8c <__data_size+0x42>
    7537: 86 12        	stx	$12                     ; 0x12 <__rc2>
    7539: a4 8d        	ldy	$8d                     ; 0x8d <__data_size+0x43>
    753b: 84 13        	sty	$13                     ; 0x13 <__rc3>
    753d: c0 ff        	cpy	#$ff
    753f: d0 04        	bne	$7545 <sprintf+0xd0>
    7541: e0 ff        	cpx	#$ff
    7543: f0 11        	beq	$7556 <sprintf+0xe1>
    7545: a5 7f        	lda	$7f                     ; 0x7f <__data_size+0x35>
    7547: 18           	clc
    7548: 65 12        	adc	$12                     ; 0x12 <__rc2>
    754a: 85 12        	sta	$12                     ; 0x12 <__rc2>
    754c: a5 80        	lda	$80                     ; 0x80 <__data_size+0x36>
    754e: 65 13        	adc	$13                     ; 0x13 <__rc3>
    7550: 85 13        	sta	$13                     ; 0x13 <__rc3>
    7552: a9 00        	lda	#$0
    7554: 92 12        	sta	($12)                   ; 0x12 <__rc2>
    7556: 60           	rts

00007557 <malloc>:
    7557: a8           	tay
    7558: 8a           	txa
    7559: a2 00        	ldx	#$0
    755b: 86 12        	stx	$12                     ; 0x12 <__rc2>
    755d: a2 00        	ldx	#$0
    755f: 86 13        	stx	$13                     ; 0x13 <__rc3>
    7561: aa           	tax
    7562: d0 07        	bne	$756b <malloc+0x14>
    7564: c0 00        	cpy	#$0
    7566: d0 03        	bne	$756b <malloc+0x14>
    7568: 4c 6a 76     	jmp	$766a <malloc+0x113>
    756b: 84 16        	sty	$16                     ; 0x16 <__rc6>
    756d: aa           	tax
    756e: d0 0e        	bne	$757e <malloc+0x27>
    7570: a6 16        	ldx	$16                     ; 0x16 <__rc6>
    7572: e0 07        	cpx	#$7
    7574: b0 0c        	bcs	$7582 <malloc+0x2b>
    7576: a2 08        	ldx	#$8
    7578: 86 80        	stx	$80                     ; 0x80 <__data_size+0x36>
    757a: a9 00        	lda	#$0
    757c: 80 31        	bra	$75af <malloc+0x58>
    757e: c9 00        	cmp	#$0
    7580: 90 f4        	bcc	$7576 <malloc+0x1f>
    7582: a8           	tay
    7583: a5 16        	lda	$16                     ; 0x16 <__rc6>
    7585: 29 01        	and	#$1
    7587: a2 02        	ldx	#$2
    7589: 64 14        	stz	$14                     ; 0x14 <__rc4>
    758b: c9 00        	cmp	#$0
    758d: f0 02        	beq	$7591 <malloc+0x3a>
    758f: a2 03        	ldx	#$3
    7591: 86 15        	stx	$15                     ; 0x15 <__rc5>
    7593: 18           	clc
    7594: a5 16        	lda	$16                     ; 0x16 <__rc6>
    7596: 65 15        	adc	$15                     ; 0x15 <__rc5>
    7598: aa           	tax
    7599: 98           	tya
    759a: 65 14        	adc	$14                     ; 0x14 <__rc4>
    759c: 90 03        	bcc	$75a1 <malloc+0x4a>
    759e: 4c 6a 76     	jmp	$766a <malloc+0x113>
    75a1: 86 14        	stx	$14                     ; 0x14 <__rc4>
    75a3: 86 80        	stx	$80                     ; 0x80 <__data_size+0x36>
    75a5: aa           	tax
    75a6: d0 07        	bne	$75af <malloc+0x58>
    75a8: a6 14        	ldx	$14                     ; 0x14 <__rc4>
    75aa: d0 03        	bne	$75af <malloc+0x58>
    75ac: 4c 6a 76     	jmp	$766a <malloc+0x113>
    75af: 85 7f        	sta	$7f                     ; 0x7f <__data_size+0x35>
    75b1: a5 79        	lda	$79                     ; 0x79 <_ZN12_GLOBAL__N_111initializedE>
    75b3: 29 01        	and	#$1
    75b5: d0 3b        	bne	$75f2 <malloc+0x9b>
    75b7: a9 00        	lda	#$0
    75b9: a2 10        	ldx	#$10
    75bb: a0 8a        	ldy	#$8a
    75bd: 84 14        	sty	$14                     ; 0x14 <__rc4>
    75bf: a0 88        	ldy	#$88
    75c1: 84 15        	sty	$15                     ; 0x15 <__rc5>
    75c3: a4 12        	ldy	$12                     ; 0x12 <__rc2>
    75c5: 84 81        	sty	$81                     ; 0x81 <__data_size+0x37>
    75c7: a4 13        	ldy	$13                     ; 0x13 <__rc3>
    75c9: 84 82        	sty	$82                     ; 0x82 <__data_size+0x38>
    75cb: a0 8a        	ldy	#$8a
    75cd: 84 12        	sty	$12                     ; 0x12 <__rc2>
    75cf: a0 88        	ldy	#$88
    75d1: 84 13        	sty	$13                     ; 0x13 <__rc3>
    75d3: 20 28 03     	jsr	$328 <_ZN12_GLOBAL__N_19FreeChunk6insertEPvj>
    75d6: a6 81        	ldx	$81                     ; 0x81 <__data_size+0x37>
    75d8: 86 12        	stx	$12                     ; 0x12 <__rc2>
    75da: a6 82        	ldx	$82                     ; 0x82 <__data_size+0x38>
    75dc: 86 13        	stx	$13                     ; 0x13 <__rc3>
    75de: ae 8b 88     	ldx	$888b                   ; 0x888b <end_block9+0x1>
    75e1: a9 fe        	lda	#$fe
    75e3: 2d 8a 88     	and	$888a                   ; 0x888a <end_block9>
    75e6: 8d 8a 88     	sta	$888a                   ; 0x888a <end_block9>
    75e9: 8e 8b 88     	stx	$888b                   ; 0x888b <end_block9+0x1>
    75ec: a2 01        	ldx	#$1
    75ee: 86 7a        	stx	$7a                     ; 0x7a <_ZN12_GLOBAL__N_19last_freeE>
    75f0: 86 79        	stx	$79                     ; 0x79 <_ZN12_GLOBAL__N_111initializedE>
    75f2: a6 7d        	ldx	$7d                     ; 0x7d <_ZN12_GLOBAL__N_19free_listE>
    75f4: 86 16        	stx	$16                     ; 0x16 <__rc6>
    75f6: a4 7e        	ldy	$7e                     ; 0x7e <_ZN12_GLOBAL__N_19free_listE+0x1>
    75f8: 84 17        	sty	$17                     ; 0x17 <__rc7>
    75fa: a9 00        	lda	#$0
    75fc: 85 14        	sta	$14                     ; 0x14 <__rc4>
    75fe: a9 00        	lda	#$0
    7600: 85 15        	sta	$15                     ; 0x15 <__rc5>
    7602: c4 15        	cpy	$15                     ; 0x15 <__rc5>
    7604: d0 07        	bne	$760d <malloc+0xb6>
    7606: e4 14        	cpx	$14                     ; 0x14 <__rc4>
    7608: d0 03        	bne	$760d <malloc+0xb6>
    760a: 4c 6a 76     	jmp	$766a <malloc+0x113>
    760d: a2 00        	ldx	#$0
    760f: a0 10        	ldy	#$10
    7611: 86 14        	stx	$14                     ; 0x14 <__rc4>
    7613: 84 15        	sty	$15                     ; 0x15 <__rc5>
    7615: 18           	clc
    7616: a9 8a        	lda	#$8a
    7618: 65 14        	adc	$14                     ; 0x14 <__rc4>
    761a: 85 18        	sta	$18                     ; 0x18 <__rc8>
    761c: a9 88        	lda	#$88
    761e: 65 15        	adc	$15                     ; 0x15 <__rc5>
    7620: 85 83        	sta	$83                     ; 0x83 <__data_size+0x39>
    7622: a0 01        	ldy	#$1
    7624: a6 7f        	ldx	$7f                     ; 0x7f <__data_size+0x35>
    7626: 86 19        	stx	$19                     ; 0x19 <__rc9>
    7628: a6 16        	ldx	$16                     ; 0x16 <__rc6>
    762a: 86 14        	stx	$14                     ; 0x14 <__rc4>
    762c: a6 17        	ldx	$17                     ; 0x17 <__rc7>
    762e: 86 15        	stx	$15                     ; 0x15 <__rc5>
    7630: b1 14        	lda	($14),y                 ; 0x14 <__rc4>
    7632: c5 19        	cmp	$19                     ; 0x19 <__rc9>
    7634: d0 0e        	bne	$7644 <malloc+0xed>
    7636: b2 14        	lda	($14)                   ; 0x14 <__rc4>
    7638: 29 fe        	and	#$fe
    763a: a6 80        	ldx	$80                     ; 0x80 <__data_size+0x36>
    763c: 86 1a        	stx	$1a                     ; 0x1a <__rc10>
    763e: c5 1a        	cmp	$1a                     ; 0x1a <__rc10>
    7640: b0 29        	bcs	$766b <malloc+0x114>
    7642: 80 04        	bra	$7648 <malloc+0xf1>
    7644: c5 19        	cmp	$19                     ; 0x19 <__rc9>
    7646: b0 23        	bcs	$766b <malloc+0x114>
    7648: a5 14        	lda	$14                     ; 0x14 <__rc4>
    764a: 18           	clc
    764b: 69 02        	adc	#$2
    764d: 85 1a        	sta	$1a                     ; 0x1a <__rc10>
    764f: a5 15        	lda	$15                     ; 0x15 <__rc5>
    7651: 69 00        	adc	#$0
    7653: 85 1b        	sta	$1b                     ; 0x1b <__rc11>
    7655: a0 02        	ldy	#$2
    7657: b1 14        	lda	($14),y                 ; 0x14 <__rc4>
    7659: 85 14        	sta	$14                     ; 0x14 <__rc4>
    765b: 88           	dey
    765c: b1 1a        	lda	($1a),y                 ; 0x1a <__rc10>
    765e: 85 15        	sta	$15                     ; 0x15 <__rc5>
    7660: c5 17        	cmp	$17                     ; 0x17 <__rc7>
    7662: d0 cc        	bne	$7630 <malloc+0xd9>
    7664: a5 14        	lda	$14                     ; 0x14 <__rc4>
    7666: c5 16        	cmp	$16                     ; 0x16 <__rc6>
    7668: d0 c6        	bne	$7630 <malloc+0xd9>
    766a: 60           	rts
    766b: a6 18        	ldx	$18                     ; 0x18 <__rc8>
    766d: 86 84        	stx	$84                     ; 0x84 <__data_size+0x3a>
    766f: a6 14        	ldx	$14                     ; 0x14 <__rc4>
    7671: 86 12        	stx	$12                     ; 0x12 <__rc2>
    7673: a6 15        	ldx	$15                     ; 0x15 <__rc5>
    7675: 86 13        	stx	$13                     ; 0x13 <__rc3>
    7677: a6 14        	ldx	$14                     ; 0x14 <__rc4>
    7679: 86 81        	stx	$81                     ; 0x81 <__data_size+0x37>
    767b: a6 15        	ldx	$15                     ; 0x15 <__rc5>
    767d: 86 82        	stx	$82                     ; 0x82 <__data_size+0x38>
    767f: 20 74 04     	jsr	$474 <_ZN12_GLOBAL__N_19FreeChunk6removeEv>
    7682: a6 81        	ldx	$81                     ; 0x81 <__data_size+0x37>
    7684: 86 12        	stx	$12                     ; 0x12 <__rc2>
    7686: a6 82        	ldx	$82                     ; 0x82 <__data_size+0x38>
    7688: 86 13        	stx	$13                     ; 0x13 <__rc3>
    768a: a0 01        	ldy	#$1
    768c: b1 12        	lda	($12),y                 ; 0x12 <__rc2>
    768e: 85 15        	sta	$15                     ; 0x15 <__rc5>
    7690: a9 fe        	lda	#$fe
    7692: 32 12        	and	($12)                   ; 0x12 <__rc2>
    7694: 38           	sec
    7695: a6 80        	ldx	$80                     ; 0x80 <__data_size+0x36>
    7697: 86 14        	stx	$14                     ; 0x14 <__rc4>
    7699: 85 17        	sta	$17                     ; 0x17 <__rc7>
    769b: e5 14        	sbc	$14                     ; 0x14 <__rc4>
    769d: a8           	tay
    769e: a6 7f        	ldx	$7f                     ; 0x7f <__data_size+0x35>
    76a0: 86 14        	stx	$14                     ; 0x14 <__rc4>
    76a2: a5 15        	lda	$15                     ; 0x15 <__rc5>
    76a4: 85 16        	sta	$16                     ; 0x16 <__rc6>
    76a6: e5 14        	sbc	$14                     ; 0x14 <__rc4>
    76a8: d0 06        	bne	$76b0 <malloc+0x159>
    76aa: 85 18        	sta	$18                     ; 0x18 <__rc8>
    76ac: c0 08        	cpy	#$8
    76ae: 80 04        	bra	$76b4 <malloc+0x15d>
    76b0: 85 18        	sta	$18                     ; 0x18 <__rc8>
    76b2: c9 00        	cmp	#$0
    76b4: a6 84        	ldx	$84                     ; 0x84 <__data_size+0x3a>
    76b6: 86 14        	stx	$14                     ; 0x14 <__rc4>
    76b8: a6 83        	ldx	$83                     ; 0x83 <__data_size+0x39>
    76ba: 86 15        	stx	$15                     ; 0x15 <__rc5>
    76bc: a5 17        	lda	$17                     ; 0x17 <__rc7>
    76be: 90 43        	bcc	$7703 <malloc+0x1ac>
    76c0: 18           	clc
    76c1: a6 80        	ldx	$80                     ; 0x80 <__data_size+0x36>
    76c3: 86 80        	stx	$80                     ; 0x80 <__data_size+0x36>
    76c5: 8a           	txa
    76c6: 65 12        	adc	$12                     ; 0x12 <__rc2>
    76c8: 85 12        	sta	$12                     ; 0x12 <__rc2>
    76ca: a6 7f        	ldx	$7f                     ; 0x7f <__data_size+0x35>
    76cc: 86 7f        	stx	$7f                     ; 0x7f <__data_size+0x35>
    76ce: a5 7f        	lda	$7f                     ; 0x7f <__data_size+0x35>
    76d0: 65 13        	adc	$13                     ; 0x13 <__rc3>
    76d2: 85 13        	sta	$13                     ; 0x13 <__rc3>
    76d4: a6 18        	ldx	$18                     ; 0x18 <__rc8>
    76d6: 98           	tya
    76d7: 20 28 03     	jsr	$328 <_ZN12_GLOBAL__N_19FreeChunk6insertEPvj>
    76da: a6 81        	ldx	$81                     ; 0x81 <__data_size+0x37>
    76dc: 86 12        	stx	$12                     ; 0x12 <__rc2>
    76de: a6 82        	ldx	$82                     ; 0x82 <__data_size+0x38>
    76e0: 86 13        	stx	$13                     ; 0x13 <__rc3>
    76e2: a5 80        	lda	$80                     ; 0x80 <__data_size+0x36>
    76e4: 29 fe        	and	#$fe
    76e6: 85 14        	sta	$14                     ; 0x14 <__rc4>
    76e8: a0 01        	ldy	#$1
    76ea: 98           	tya
    76eb: 32 12        	and	($12)                   ; 0x12 <__rc2>
    76ed: 05 14        	ora	$14                     ; 0x14 <__rc4>
    76ef: 92 12        	sta	($12)                   ; 0x12 <__rc2>
    76f1: a5 7f        	lda	$7f                     ; 0x7f <__data_size+0x35>
    76f3: 91 12        	sta	($12),y                 ; 0x12 <__rc2>
    76f5: a5 14        	lda	$14                     ; 0x14 <__rc4>
    76f7: a6 7f        	ldx	$7f                     ; 0x7f <__data_size+0x35>
    76f9: 86 16        	stx	$16                     ; 0x16 <__rc6>
    76fb: a6 84        	ldx	$84                     ; 0x84 <__data_size+0x3a>
    76fd: 86 14        	stx	$14                     ; 0x14 <__rc4>
    76ff: a6 83        	ldx	$83                     ; 0x83 <__data_size+0x39>
    7701: 86 15        	stx	$15                     ; 0x15 <__rc5>
    7703: 18           	clc
    7704: 65 12        	adc	$12                     ; 0x12 <__rc2>
    7706: a8           	tay
    7707: a5 16        	lda	$16                     ; 0x16 <__rc6>
    7709: 65 13        	adc	$13                     ; 0x13 <__rc3>
    770b: c5 15        	cmp	$15                     ; 0x15 <__rc5>
    770d: d0 08        	bne	$7717 <malloc+0x1c0>
    770f: c4 14        	cpy	$14                     ; 0x14 <__rc4>
    7711: d0 04        	bne	$7717 <malloc+0x1c0>
    7713: 64 7a        	stz	$7a                     ; 0x7a <_ZN12_GLOBAL__N_19last_freeE>
    7715: 80 14        	bra	$772b <malloc+0x1d4>
    7717: 84 14        	sty	$14                     ; 0x14 <__rc4>
    7719: 85 15        	sta	$15                     ; 0x15 <__rc5>
    771b: a0 01        	ldy	#$1
    771d: b1 14        	lda	($14),y                 ; 0x14 <__rc4>
    771f: 85 16        	sta	$16                     ; 0x16 <__rc6>
    7721: a9 fe        	lda	#$fe
    7723: 32 14        	and	($14)                   ; 0x14 <__rc4>
    7725: 92 14        	sta	($14)                   ; 0x14 <__rc4>
    7727: a5 16        	lda	$16                     ; 0x16 <__rc6>
    7729: 91 14        	sta	($14),y                 ; 0x14 <__rc4>
    772b: a5 12        	lda	$12                     ; 0x12 <__rc2>
    772d: 18           	clc
    772e: 69 02        	adc	#$2
    7730: 85 12        	sta	$12                     ; 0x12 <__rc2>
    7732: a5 13        	lda	$13                     ; 0x13 <__rc3>
    7734: 69 00        	adc	#$0
    7736: 85 13        	sta	$13                     ; 0x13 <__rc3>
    7738: 60           	rts

00007739 <free>:
    7739: a6 12        	ldx	$12                     ; 0x12 <__rc2>
    773b: 86 14        	stx	$14                     ; 0x14 <__rc4>
    773d: a6 13        	ldx	$13                     ; 0x13 <__rc3>
    773f: 86 15        	stx	$15                     ; 0x15 <__rc5>
    7741: a2 00        	ldx	#$0
    7743: 86 12        	stx	$12                     ; 0x12 <__rc2>
    7745: a2 00        	ldx	#$0
    7747: 86 13        	stx	$13                     ; 0x13 <__rc3>
    7749: a6 15        	ldx	$15                     ; 0x15 <__rc5>
    774b: e4 13        	cpx	$13                     ; 0x13 <__rc3>
    774d: d0 09        	bne	$7758 <free+0x1f>
    774f: a6 14        	ldx	$14                     ; 0x14 <__rc4>
    7751: e4 12        	cpx	$12                     ; 0x12 <__rc2>
    7753: d0 03        	bne	$7758 <free+0x1f>
    7755: 4c c3 78     	jmp	$78c3 <free+0x18a>
    7758: a2 00        	ldx	#$0
    775a: a0 10        	ldy	#$10
    775c: a9 8a        	lda	#$8a
    775e: 86 12        	stx	$12                     ; 0x12 <__rc2>
    7760: 84 13        	sty	$13                     ; 0x13 <__rc3>
    7762: 18           	clc
    7763: 65 12        	adc	$12                     ; 0x12 <__rc2>
    7765: 85 18        	sta	$18                     ; 0x18 <__rc8>
    7767: a9 88        	lda	#$88
    7769: 65 13        	adc	$13                     ; 0x13 <__rc3>
    776b: 85 19        	sta	$19                     ; 0x19 <__rc9>
    776d: a5 14        	lda	$14                     ; 0x14 <__rc4>
    776f: 18           	clc
    7770: 69 fe        	adc	#$fe
    7772: 85 12        	sta	$12                     ; 0x12 <__rc2>
    7774: a5 15        	lda	$15                     ; 0x15 <__rc5>
    7776: 69 ff        	adc	#$ff
    7778: a6 12        	ldx	$12                     ; 0x12 <__rc2>
    777a: 86 7f        	stx	$7f                     ; 0x7f <__data_size+0x35>
    777c: aa           	tax
    777d: 85 80        	sta	$80                     ; 0x80 <__data_size+0x36>
    777f: b2 7f        	lda	($7f)                   ; 0x7f <__data_size+0x35>
    7781: 85 1a        	sta	$1a                     ; 0x1a <__rc10>
    7783: a0 01        	ldy	#$1
    7785: b1 7f        	lda	($7f),y                 ; 0x7f <__data_size+0x35>
    7787: 85 16        	sta	$16                     ; 0x16 <__rc6>
    7789: a9 fe        	lda	#$fe
    778b: 32 7f        	and	($7f)                   ; 0x7f <__data_size+0x35>
    778d: 85 17        	sta	$17                     ; 0x17 <__rc7>
    778f: a4 12        	ldy	$12                     ; 0x12 <__rc2>
    7791: 84 1b        	sty	$1b                     ; 0x1b <__rc11>
    7793: a5 12        	lda	$12                     ; 0x12 <__rc2>
    7795: 18           	clc
    7796: 65 17        	adc	$17                     ; 0x17 <__rc7>
    7798: 85 12        	sta	$12                     ; 0x12 <__rc2>
    779a: 8a           	txa
    779b: 86 1c        	stx	$1c                     ; 0x1c <__rc12>
    779d: 65 16        	adc	$16                     ; 0x16 <__rc6>
    779f: c5 19        	cmp	$19                     ; 0x19 <__rc9>
    77a1: d0 10        	bne	$77b3 <free+0x7a>
    77a3: a6 12        	ldx	$12                     ; 0x12 <__rc2>
    77a5: e4 18        	cpx	$18                     ; 0x18 <__rc8>
    77a7: d0 0a        	bne	$77b3 <free+0x7a>
    77a9: a2 00        	ldx	#$0
    77ab: 86 12        	stx	$12                     ; 0x12 <__rc2>
    77ad: a2 00        	ldx	#$0
    77af: 86 13        	stx	$13                     ; 0x13 <__rc3>
    77b1: 80 02        	bra	$77b5 <free+0x7c>
    77b3: 85 13        	sta	$13                     ; 0x13 <__rc3>
    77b5: a5 1a        	lda	$1a                     ; 0x1a <__rc10>
    77b7: 29 01        	and	#$1
    77b9: d0 03        	bne	$77be <free+0x85>
    77bb: 4c 39 78     	jmp	$7839 <free+0x100>
    77be: a5 14        	lda	$14                     ; 0x14 <__rc4>
    77c0: 18           	clc
    77c1: 69 fc        	adc	#$fc
    77c3: 85 14        	sta	$14                     ; 0x14 <__rc4>
    77c5: a5 15        	lda	$15                     ; 0x15 <__rc5>
    77c7: 69 ff        	adc	#$ff
    77c9: 85 15        	sta	$15                     ; 0x15 <__rc5>
    77cb: a0 01        	ldy	#$1
    77cd: 38           	sec
    77ce: a9 00        	lda	#$0
    77d0: f2 14        	sbc	($14)                   ; 0x14 <__rc4>
    77d2: 85 1a        	sta	$1a                     ; 0x1a <__rc10>
    77d4: a9 00        	lda	#$0
    77d6: f1 14        	sbc	($14),y                 ; 0x14 <__rc4>
    77d8: 85 14        	sta	$14                     ; 0x14 <__rc4>
    77da: a5 1b        	lda	$1b                     ; 0x1b <__rc11>
    77dc: 18           	clc
    77dd: 65 1a        	adc	$1a                     ; 0x1a <__rc10>
    77df: 85 7f        	sta	$7f                     ; 0x7f <__data_size+0x35>
    77e1: a5 1c        	lda	$1c                     ; 0x1c <__rc12>
    77e3: 65 14        	adc	$14                     ; 0x14 <__rc4>
    77e5: 85 80        	sta	$80                     ; 0x80 <__data_size+0x36>
    77e7: b1 7f        	lda	($7f),y                 ; 0x7f <__data_size+0x35>
    77e9: 85 87        	sta	$87                     ; 0x87 <__data_size+0x3d>
    77eb: a9 fe        	lda	#$fe
    77ed: 32 7f        	and	($7f)                   ; 0x7f <__data_size+0x35>
    77ef: 85 88        	sta	$88                     ; 0x88 <__data_size+0x3e>
    77f1: a6 12        	ldx	$12                     ; 0x12 <__rc2>
    77f3: 86 81        	stx	$81                     ; 0x81 <__data_size+0x37>
    77f5: a6 13        	ldx	$13                     ; 0x13 <__rc3>
    77f7: 86 82        	stx	$82                     ; 0x82 <__data_size+0x38>
    77f9: a6 7f        	ldx	$7f                     ; 0x7f <__data_size+0x35>
    77fb: 86 12        	stx	$12                     ; 0x12 <__rc2>
    77fd: a6 80        	ldx	$80                     ; 0x80 <__data_size+0x36>
    77ff: 86 13        	stx	$13                     ; 0x13 <__rc3>
    7801: a6 16        	ldx	$16                     ; 0x16 <__rc6>
    7803: 86 83        	stx	$83                     ; 0x83 <__data_size+0x39>
    7805: a6 17        	ldx	$17                     ; 0x17 <__rc7>
    7807: 86 84        	stx	$84                     ; 0x84 <__data_size+0x3a>
    7809: a6 18        	ldx	$18                     ; 0x18 <__rc8>
    780b: 86 85        	stx	$85                     ; 0x85 <__data_size+0x3b>
    780d: a6 19        	ldx	$19                     ; 0x19 <__rc9>
    780f: 86 86        	stx	$86                     ; 0x86 <__data_size+0x3c>
    7811: 20 74 04     	jsr	$474 <_ZN12_GLOBAL__N_19FreeChunk6removeEv>
    7814: a6 86        	ldx	$86                     ; 0x86 <__data_size+0x3c>
    7816: 86 19        	stx	$19                     ; 0x19 <__rc9>
    7818: a6 85        	ldx	$85                     ; 0x85 <__data_size+0x3b>
    781a: 86 18        	stx	$18                     ; 0x18 <__rc8>
    781c: a6 81        	ldx	$81                     ; 0x81 <__data_size+0x37>
    781e: 86 12        	stx	$12                     ; 0x12 <__rc2>
    7820: a6 82        	ldx	$82                     ; 0x82 <__data_size+0x38>
    7822: 86 13        	stx	$13                     ; 0x13 <__rc3>
    7824: 18           	clc
    7825: a5 88        	lda	$88                     ; 0x88 <__data_size+0x3e>
    7827: a6 84        	ldx	$84                     ; 0x84 <__data_size+0x3a>
    7829: 86 14        	stx	$14                     ; 0x14 <__rc4>
    782b: 65 14        	adc	$14                     ; 0x14 <__rc4>
    782d: 85 17        	sta	$17                     ; 0x17 <__rc7>
    782f: a5 87        	lda	$87                     ; 0x87 <__data_size+0x3d>
    7831: a6 83        	ldx	$83                     ; 0x83 <__data_size+0x39>
    7833: 86 14        	stx	$14                     ; 0x14 <__rc4>
    7835: 65 14        	adc	$14                     ; 0x14 <__rc4>
    7837: 85 16        	sta	$16                     ; 0x16 <__rc6>
    7839: a2 00        	ldx	#$0
    783b: 86 14        	stx	$14                     ; 0x14 <__rc4>
    783d: a2 00        	ldx	#$0
    783f: 86 15        	stx	$15                     ; 0x15 <__rc5>
    7841: a6 13        	ldx	$13                     ; 0x13 <__rc3>
    7843: e4 15        	cpx	$15                     ; 0x15 <__rc5>
    7845: d0 0d        	bne	$7854 <free+0x11b>
    7847: a6 12        	ldx	$12                     ; 0x12 <__rc2>
    7849: e4 14        	cpx	$14                     ; 0x14 <__rc4>
    784b: d0 07        	bne	$7854 <free+0x11b>
    784d: a2 01        	ldx	#$1
    784f: 86 7a        	stx	$7a                     ; 0x7a <_ZN12_GLOBAL__N_19last_freeE>
    7851: 4c b4 78     	jmp	$78b4 <free+0x17b>
    7854: b2 12        	lda	($12)                   ; 0x12 <__rc2>
    7856: 85 1a        	sta	$1a                     ; 0x1a <__rc10>
    7858: a0 01        	ldy	#$1
    785a: b1 12        	lda	($12),y                 ; 0x12 <__rc2>
    785c: a8           	tay
    785d: a9 fe        	lda	#$fe
    785f: 32 12        	and	($12)                   ; 0x12 <__rc2>
    7861: 18           	clc
    7862: 85 85        	sta	$85                     ; 0x85 <__data_size+0x3b>
    7864: 65 12        	adc	$12                     ; 0x12 <__rc2>
    7866: 85 14        	sta	$14                     ; 0x14 <__rc4>
    7868: 98           	tya
    7869: 85 81        	sta	$81                     ; 0x81 <__data_size+0x37>
    786b: 65 13        	adc	$13                     ; 0x13 <__rc3>
    786d: c5 19        	cmp	$19                     ; 0x19 <__rc9>
    786f: d0 1a        	bne	$788b <free+0x152>
    7871: a6 14        	ldx	$14                     ; 0x14 <__rc4>
    7873: e4 18        	cpx	$18                     ; 0x18 <__rc8>
    7875: d0 14        	bne	$788b <free+0x152>
    7877: a5 7a        	lda	$7a                     ; 0x7a <_ZN12_GLOBAL__N_19last_freeE>
    7879: 29 01        	and	#$1
    787b: d0 16        	bne	$7893 <free+0x15a>
    787d: a5 1a        	lda	$1a                     ; 0x1a <__rc10>
    787f: 09 01        	ora	#$1
    7881: 92 12        	sta	($12)                   ; 0x12 <__rc2>
    7883: a0 01        	ldy	#$1
    7885: a5 81        	lda	$81                     ; 0x81 <__data_size+0x37>
    7887: 91 12        	sta	($12),y                 ; 0x12 <__rc2>
    7889: 80 29        	bra	$78b4 <free+0x17b>
    788b: 85 15        	sta	$15                     ; 0x15 <__rc5>
    788d: a9 01        	lda	#$1
    788f: 32 14        	and	($14)                   ; 0x14 <__rc4>
    7891: f0 ea        	beq	$787d <free+0x144>
    7893: a6 16        	ldx	$16                     ; 0x16 <__rc6>
    7895: 86 83        	stx	$83                     ; 0x83 <__data_size+0x39>
    7897: a6 17        	ldx	$17                     ; 0x17 <__rc7>
    7899: 86 84        	stx	$84                     ; 0x84 <__data_size+0x3a>
    789b: 20 74 04     	jsr	$474 <_ZN12_GLOBAL__N_19FreeChunk6removeEv>
    789e: 18           	clc
    789f: a6 85        	ldx	$85                     ; 0x85 <__data_size+0x3b>
    78a1: 8a           	txa
    78a2: a6 84        	ldx	$84                     ; 0x84 <__data_size+0x3a>
    78a4: 86 12        	stx	$12                     ; 0x12 <__rc2>
    78a6: 65 12        	adc	$12                     ; 0x12 <__rc2>
    78a8: 85 17        	sta	$17                     ; 0x17 <__rc7>
    78aa: a5 81        	lda	$81                     ; 0x81 <__data_size+0x37>
    78ac: a6 83        	ldx	$83                     ; 0x83 <__data_size+0x39>
    78ae: 86 12        	stx	$12                     ; 0x12 <__rc2>
    78b0: 65 12        	adc	$12                     ; 0x12 <__rc2>
    78b2: 85 16        	sta	$16                     ; 0x16 <__rc6>
    78b4: a6 7f        	ldx	$7f                     ; 0x7f <__data_size+0x35>
    78b6: 86 12        	stx	$12                     ; 0x12 <__rc2>
    78b8: a6 80        	ldx	$80                     ; 0x80 <__data_size+0x36>
    78ba: 86 13        	stx	$13                     ; 0x13 <__rc3>
    78bc: a6 16        	ldx	$16                     ; 0x16 <__rc6>
    78be: a5 17        	lda	$17                     ; 0x17 <__rc7>
    78c0: 20 28 03     	jsr	$328 <_ZN12_GLOBAL__N_19FreeChunk6insertEPvj>
    78c3: 60           	rts

000078c4 <memcpy>:
    78c4: a8           	tay
    78c5: 8a           	txa
    78c6: d0 03        	bne	$78cb <memcpy+0x7>
    78c8: 98           	tya
    78c9: f0 24        	beq	$78ef <memcpy+0x2b>
    78cb: a5 12        	lda	$12                     ; 0x12 <__rc2>
    78cd: 85 16        	sta	$16                     ; 0x16 <__rc6>
    78cf: a5 13        	lda	$13                     ; 0x13 <__rc3>
    78d1: 85 17        	sta	$17                     ; 0x17 <__rc7>
    78d3: b2 14        	lda	($14)                   ; 0x14 <__rc4>
    78d5: 92 16        	sta	($16)                   ; 0x16 <__rc6>
    78d7: e6 16        	inc	$16                     ; 0x16 <__rc6>
    78d9: d0 02        	bne	$78dd <memcpy+0x19>
    78db: e6 17        	inc	$17                     ; 0x17 <__rc7>
    78dd: e6 14        	inc	$14                     ; 0x14 <__rc4>
    78df: d0 02        	bne	$78e3 <memcpy+0x1f>
    78e1: e6 15        	inc	$15                     ; 0x15 <__rc5>
    78e3: 88           	dey
    78e4: c0 ff        	cpy	#$ff
    78e6: d0 01        	bne	$78e9 <memcpy+0x25>
    78e8: ca           	dex
    78e9: 8a           	txa
    78ea: d0 e7        	bne	$78d3 <memcpy+0xf>
    78ec: 98           	tya
    78ed: d0 e4        	bne	$78d3 <memcpy+0xf>
    78ef: 60           	rts

000078f0 <__memset>:
    78f0: a4 14        	ldy	$14                     ; 0x14 <__rc4>
    78f2: d0 04        	bne	$78f8 <__memset+0x8>
    78f4: e0 00        	cpx	#$0
    78f6: f0 17        	beq	$790f <__memset+0x1f>
    78f8: 92 12        	sta	($12)                   ; 0x12 <__rc2>
    78fa: e6 12        	inc	$12                     ; 0x12 <__rc2>
    78fc: d0 02        	bne	$7900 <__memset+0x10>
    78fe: e6 13        	inc	$13                     ; 0x13 <__rc3>
    7900: ca           	dex
    7901: e0 ff        	cpx	#$ff
    7903: d0 02        	bne	$7907 <__memset+0x17>
    7905: c6 14        	dec	$14                     ; 0x14 <__rc4>
    7907: a4 14        	ldy	$14                     ; 0x14 <__rc4>
    7909: d0 ed        	bne	$78f8 <__memset+0x8>
    790b: e0 00        	cpx	#$0
    790d: d0 e9        	bne	$78f8 <__memset+0x8>
    790f: 60           	rts

00007910 <__udivhi3>:
    7910: 64 14        	stz	$14                     ; 0x14 <__rc4>
    7912: a4 13        	ldy	$13                     ; 0x13 <__rc3>
    7914: d0 04        	bne	$791a <__udivhi3+0xa>
    7916: a4 12        	ldy	$12                     ; 0x12 <__rc2>
    7918: f0 0c        	beq	$7926 <__udivhi3+0x16>
    791a: 85 17        	sta	$17                     ; 0x17 <__rc7>
    791c: da           	phx
    791d: 7a           	ply
    791e: e4 13        	cpx	$13                     ; 0x13 <__rc3>
    7920: d0 09        	bne	$792b <__udivhi3+0x1b>
    7922: c5 12        	cmp	$12                     ; 0x12 <__rc2>
    7924: b0 09        	bcs	$792f <__udivhi3+0x1f>
    7926: 64 19        	stz	$19                     ; 0x19 <__rc9>
    7928: 4c c4 79     	jmp	$79c4 <__udivhi3+0xb4>
    792b: c4 13        	cpy	$13                     ; 0x13 <__rc3>
    792d: 90 f7        	bcc	$7926 <__udivhi3+0x16>
    792f: a9 01        	lda	#$1
    7931: 85 19        	sta	$19                     ; 0x19 <__rc9>
    7933: a5 13        	lda	$13                     ; 0x13 <__rc3>
    7935: 10 03        	bpl	$793a <__udivhi3+0x2a>
    7937: 4c c4 79     	jmp	$79c4 <__udivhi3+0xb4>
    793a: a2 00        	ldx	#$0
    793c: a5 12        	lda	$12                     ; 0x12 <__rc2>
    793e: 85 15        	sta	$15                     ; 0x15 <__rc5>
    7940: a5 13        	lda	$13                     ; 0x13 <__rc3>
    7942: 85 16        	sta	$16                     ; 0x16 <__rc6>
    7944: 06 15        	asl	$15                     ; 0x15 <__rc5>
    7946: 26 16        	rol	$16                     ; 0x16 <__rc6>
    7948: c4 16        	cpy	$16                     ; 0x16 <__rc6>
    794a: d0 0c        	bne	$7958 <__udivhi3+0x48>
    794c: 84 18        	sty	$18                     ; 0x18 <__rc8>
    794e: a4 17        	ldy	$17                     ; 0x17 <__rc7>
    7950: c4 15        	cpy	$15                     ; 0x15 <__rc5>
    7952: a4 18        	ldy	$18                     ; 0x18 <__rc8>
    7954: 90 13        	bcc	$7969 <__udivhi3+0x59>
    7956: 80 04        	bra	$795c <__udivhi3+0x4c>
    7958: c4 16        	cpy	$16                     ; 0x16 <__rc6>
    795a: 90 0d        	bcc	$7969 <__udivhi3+0x59>
    795c: e8           	inx
    795d: a5 15        	lda	$15                     ; 0x15 <__rc5>
    795f: 85 12        	sta	$12                     ; 0x12 <__rc2>
    7961: a5 16        	lda	$16                     ; 0x16 <__rc6>
    7963: 85 13        	sta	$13                     ; 0x13 <__rc3>
    7965: 10 dd        	bpl	$7944 <__udivhi3+0x34>
    7967: 80 08        	bra	$7971 <__udivhi3+0x61>
    7969: a5 12        	lda	$12                     ; 0x12 <__rc2>
    796b: 85 15        	sta	$15                     ; 0x15 <__rc5>
    796d: a5 13        	lda	$13                     ; 0x13 <__rc3>
    796f: 85 16        	sta	$16                     ; 0x16 <__rc6>
    7971: 8a           	txa
    7972: f0 50        	beq	$79c4 <__udivhi3+0xb4>
    7974: 38           	sec
    7975: a5 17        	lda	$17                     ; 0x17 <__rc7>
    7977: e5 15        	sbc	$15                     ; 0x15 <__rc5>
    7979: 85 12        	sta	$12                     ; 0x12 <__rc2>
    797b: 98           	tya
    797c: e5 16        	sbc	$16                     ; 0x16 <__rc6>
    797e: 85 13        	sta	$13                     ; 0x13 <__rc3>
    7980: a9 01        	lda	#$1
    7982: 85 19        	sta	$19                     ; 0x19 <__rc9>
    7984: 64 14        	stz	$14                     ; 0x14 <__rc4>
    7986: 46 16        	lsr	$16                     ; 0x16 <__rc6>
    7988: 66 15        	ror	$15                     ; 0x15 <__rc5>
    798a: 06 19        	asl	$19                     ; 0x19 <__rc9>
    798c: a0 01        	ldy	#$1
    798e: b0 02        	bcs	$7992 <__udivhi3+0x82>
    7990: a0 00        	ldy	#$0
    7992: 84 17        	sty	$17                     ; 0x17 <__rc7>
    7994: a4 13        	ldy	$13                     ; 0x13 <__rc3>
    7996: c4 16        	cpy	$16                     ; 0x16 <__rc6>
    7998: d0 24        	bne	$79be <__udivhi3+0xae>
    799a: a4 12        	ldy	$12                     ; 0x12 <__rc2>
    799c: c4 15        	cpy	$15                     ; 0x15 <__rc5>
    799e: 90 13        	bcc	$79b3 <__udivhi3+0xa3>
    79a0: a5 19        	lda	$19                     ; 0x19 <__rc9>
    79a2: 09 01        	ora	#$1
    79a4: 85 19        	sta	$19                     ; 0x19 <__rc9>
    79a6: 38           	sec
    79a7: a5 12        	lda	$12                     ; 0x12 <__rc2>
    79a9: e5 15        	sbc	$15                     ; 0x15 <__rc5>
    79ab: 85 12        	sta	$12                     ; 0x12 <__rc2>
    79ad: a5 13        	lda	$13                     ; 0x13 <__rc3>
    79af: e5 16        	sbc	$16                     ; 0x16 <__rc6>
    79b1: 85 13        	sta	$13                     ; 0x13 <__rc3>
    79b3: a4 17        	ldy	$17                     ; 0x17 <__rc7>
    79b5: c0 01        	cpy	#$1
    79b7: 26 14        	rol	$14                     ; 0x14 <__rc4>
    79b9: ca           	dex
    79ba: d0 ca        	bne	$7986 <__udivhi3+0x76>
    79bc: 80 06        	bra	$79c4 <__udivhi3+0xb4>
    79be: c4 16        	cpy	$16                     ; 0x16 <__rc6>
    79c0: b0 de        	bcs	$79a0 <__udivhi3+0x90>
    79c2: 80 ef        	bra	$79b3 <__udivhi3+0xa3>
    79c4: a6 14        	ldx	$14                     ; 0x14 <__rc4>
    79c6: a5 19        	lda	$19                     ; 0x19 <__rc9>
    79c8: 60           	rts

000079c9 <__udivsi3>:
    79c9: 64 18        	stz	$18                     ; 0x18 <__rc8>
    79cb: a4 17        	ldy	$17                     ; 0x17 <__rc7>
    79cd: d0 0c        	bne	$79db <__udivsi3+0x12>
    79cf: a4 16        	ldy	$16                     ; 0x16 <__rc6>
    79d1: d0 08        	bne	$79db <__udivsi3+0x12>
    79d3: a4 15        	ldy	$15                     ; 0x15 <__rc5>
    79d5: d0 04        	bne	$79db <__udivsi3+0x12>
    79d7: a4 14        	ldy	$14                     ; 0x14 <__rc4>
    79d9: f0 27        	beq	$7a02 <__udivsi3+0x39>
    79db: 86 1e        	stx	$1e                     ; 0x1e <__rc14>
    79dd: a6 12        	ldx	$12                     ; 0x12 <__rc2>
    79df: 86 1f        	stx	$1f                     ; 0x1f <__rc15>
    79e1: a6 13        	ldx	$13                     ; 0x13 <__rc3>
    79e3: 86 22        	stx	$22                     ; 0x22 <__rc18>
    79e5: e4 17        	cpx	$17                     ; 0x17 <__rc7>
    79e7: d0 15        	bne	$79fe <__udivsi3+0x35>
    79e9: a6 12        	ldx	$12                     ; 0x12 <__rc2>
    79eb: e4 16        	cpx	$16                     ; 0x16 <__rc6>
    79ed: d0 18        	bne	$7a07 <__udivsi3+0x3e>
    79ef: a6 1e        	ldx	$1e                     ; 0x1e <__rc14>
    79f1: e4 15        	cpx	$15                     ; 0x15 <__rc5>
    79f3: f0 03        	beq	$79f8 <__udivsi3+0x2f>
    79f5: 4c 1e 7b     	jmp	$7b1e <__udivsi3+0x155>
    79f8: c5 14        	cmp	$14                     ; 0x14 <__rc4>
    79fa: 90 06        	bcc	$7a02 <__udivsi3+0x39>
    79fc: 80 0d        	bra	$7a0b <__udivsi3+0x42>
    79fe: e4 17        	cpx	$17                     ; 0x17 <__rc7>
    7a00: b0 09        	bcs	$7a0b <__udivsi3+0x42>
    7a02: 64 23        	stz	$23                     ; 0x23 <__rc19>
    7a04: 4c 71 7a     	jmp	$7a71 <__udivsi3+0xa8>
    7a07: e4 16        	cpx	$16                     ; 0x16 <__rc6>
    7a09: 90 f7        	bcc	$7a02 <__udivsi3+0x39>
    7a0b: 85 1d        	sta	$1d                     ; 0x1d <__rc13>
    7a0d: a9 01        	lda	#$1
    7a0f: 85 23        	sta	$23                     ; 0x23 <__rc19>
    7a11: a5 17        	lda	$17                     ; 0x17 <__rc7>
    7a13: 10 03        	bpl	$7a18 <__udivsi3+0x4f>
    7a15: 4c 71 7a     	jmp	$7a71 <__udivsi3+0xa8>
    7a18: a5 1e        	lda	$1e                     ; 0x1e <__rc14>
    7a1a: a2 00        	ldx	#$0
    7a1c: a4 14        	ldy	$14                     ; 0x14 <__rc4>
    7a1e: 84 19        	sty	$19                     ; 0x19 <__rc9>
    7a20: a4 15        	ldy	$15                     ; 0x15 <__rc5>
    7a22: 84 1a        	sty	$1a                     ; 0x1a <__rc10>
    7a24: a4 16        	ldy	$16                     ; 0x16 <__rc6>
    7a26: 84 1b        	sty	$1b                     ; 0x1b <__rc11>
    7a28: a4 17        	ldy	$17                     ; 0x17 <__rc7>
    7a2a: 84 1c        	sty	$1c                     ; 0x1c <__rc12>
    7a2c: 06 19        	asl	$19                     ; 0x19 <__rc9>
    7a2e: 26 1a        	rol	$1a                     ; 0x1a <__rc10>
    7a30: 26 1b        	rol	$1b                     ; 0x1b <__rc11>
    7a32: 26 1c        	rol	$1c                     ; 0x1c <__rc12>
    7a34: a4 22        	ldy	$22                     ; 0x22 <__rc18>
    7a36: c4 1c        	cpy	$1c                     ; 0x1c <__rc12>
    7a38: d0 12        	bne	$7a4c <__udivsi3+0x83>
    7a3a: a4 12        	ldy	$12                     ; 0x12 <__rc2>
    7a3c: c4 1b        	cpy	$1b                     ; 0x1b <__rc11>
    7a3e: d0 12        	bne	$7a52 <__udivsi3+0x89>
    7a40: c5 1a        	cmp	$1a                     ; 0x1a <__rc10>
    7a42: d0 14        	bne	$7a58 <__udivsi3+0x8f>
    7a44: a4 1d        	ldy	$1d                     ; 0x1d <__rc13>
    7a46: c4 19        	cpy	$19                     ; 0x19 <__rc9>
    7a48: 90 30        	bcc	$7a7a <__udivsi3+0xb1>
    7a4a: 80 10        	bra	$7a5c <__udivsi3+0x93>
    7a4c: c4 1c        	cpy	$1c                     ; 0x1c <__rc12>
    7a4e: 90 2a        	bcc	$7a7a <__udivsi3+0xb1>
    7a50: 80 0a        	bra	$7a5c <__udivsi3+0x93>
    7a52: c4 1b        	cpy	$1b                     ; 0x1b <__rc11>
    7a54: 90 24        	bcc	$7a7a <__udivsi3+0xb1>
    7a56: 80 04        	bra	$7a5c <__udivsi3+0x93>
    7a58: c5 1a        	cmp	$1a                     ; 0x1a <__rc10>
    7a5a: 90 1e        	bcc	$7a7a <__udivsi3+0xb1>
    7a5c: e8           	inx
    7a5d: a4 19        	ldy	$19                     ; 0x19 <__rc9>
    7a5f: 84 14        	sty	$14                     ; 0x14 <__rc4>
    7a61: a4 1a        	ldy	$1a                     ; 0x1a <__rc10>
    7a63: 84 15        	sty	$15                     ; 0x15 <__rc5>
    7a65: a4 1b        	ldy	$1b                     ; 0x1b <__rc11>
    7a67: 84 16        	sty	$16                     ; 0x16 <__rc6>
    7a69: a4 1c        	ldy	$1c                     ; 0x1c <__rc12>
    7a6b: 84 17        	sty	$17                     ; 0x17 <__rc7>
    7a6d: 10 bd        	bpl	$7a2c <__udivsi3+0x63>
    7a6f: 80 19        	bra	$7a8a <__udivsi3+0xc1>
    7a71: 64 12        	stz	$12                     ; 0x12 <__rc2>
    7a73: 64 13        	stz	$13                     ; 0x13 <__rc3>
    7a75: a6 18        	ldx	$18                     ; 0x18 <__rc8>
    7a77: a5 23        	lda	$23                     ; 0x23 <__rc19>
    7a79: 60           	rts
    7a7a: a4 14        	ldy	$14                     ; 0x14 <__rc4>
    7a7c: 84 19        	sty	$19                     ; 0x19 <__rc9>
    7a7e: a4 15        	ldy	$15                     ; 0x15 <__rc5>
    7a80: 84 1a        	sty	$1a                     ; 0x1a <__rc10>
    7a82: a4 16        	ldy	$16                     ; 0x16 <__rc6>
    7a84: 84 1b        	sty	$1b                     ; 0x1b <__rc11>
    7a86: a4 17        	ldy	$17                     ; 0x17 <__rc7>
    7a88: 84 1c        	sty	$1c                     ; 0x1c <__rc12>
    7a8a: 64 12        	stz	$12                     ; 0x12 <__rc2>
    7a8c: 64 13        	stz	$13                     ; 0x13 <__rc3>
    7a8e: 8a           	txa
    7a8f: f0 e4        	beq	$7a75 <__udivsi3+0xac>
    7a91: 38           	sec
    7a92: a5 1d        	lda	$1d                     ; 0x1d <__rc13>
    7a94: e5 19        	sbc	$19                     ; 0x19 <__rc9>
    7a96: 85 14        	sta	$14                     ; 0x14 <__rc4>
    7a98: a5 1e        	lda	$1e                     ; 0x1e <__rc14>
    7a9a: e5 1a        	sbc	$1a                     ; 0x1a <__rc10>
    7a9c: 85 17        	sta	$17                     ; 0x17 <__rc7>
    7a9e: a5 1f        	lda	$1f                     ; 0x1f <__rc15>
    7aa0: e5 1b        	sbc	$1b                     ; 0x1b <__rc11>
    7aa2: 85 15        	sta	$15                     ; 0x15 <__rc5>
    7aa4: a5 22        	lda	$22                     ; 0x22 <__rc18>
    7aa6: e5 1c        	sbc	$1c                     ; 0x1c <__rc12>
    7aa8: 85 16        	sta	$16                     ; 0x16 <__rc6>
    7aaa: a9 01        	lda	#$1
    7aac: 85 23        	sta	$23                     ; 0x23 <__rc19>
    7aae: 64 18        	stz	$18                     ; 0x18 <__rc8>
    7ab0: 46 1c        	lsr	$1c                     ; 0x1c <__rc12>
    7ab2: 66 1b        	ror	$1b                     ; 0x1b <__rc11>
    7ab4: 66 1a        	ror	$1a                     ; 0x1a <__rc10>
    7ab6: 66 19        	ror	$19                     ; 0x19 <__rc9>
    7ab8: 06 23        	asl	$23                     ; 0x23 <__rc19>
    7aba: a0 01        	ldy	#$1
    7abc: b0 02        	bcs	$7ac0 <__udivsi3+0xf7>
    7abe: a0 00        	ldy	#$0
    7ac0: 84 1d        	sty	$1d                     ; 0x1d <__rc13>
    7ac2: a5 16        	lda	$16                     ; 0x16 <__rc6>
    7ac4: c5 1c        	cmp	$1c                     ; 0x1c <__rc12>
    7ac6: d0 14        	bne	$7adc <__udivsi3+0x113>
    7ac8: a4 15        	ldy	$15                     ; 0x15 <__rc5>
    7aca: c4 1b        	cpy	$1b                     ; 0x1b <__rc11>
    7acc: d0 44        	bne	$7b12 <__udivsi3+0x149>
    7ace: a4 17        	ldy	$17                     ; 0x17 <__rc7>
    7ad0: c4 1a        	cpy	$1a                     ; 0x1a <__rc10>
    7ad2: d0 44        	bne	$7b18 <__udivsi3+0x14f>
    7ad4: a4 14        	ldy	$14                     ; 0x14 <__rc4>
    7ad6: c4 19        	cpy	$19                     ; 0x19 <__rc9>
    7ad8: b0 06        	bcs	$7ae0 <__udivsi3+0x117>
    7ada: 80 23        	bra	$7aff <__udivsi3+0x136>
    7adc: c5 1c        	cmp	$1c                     ; 0x1c <__rc12>
    7ade: 90 1f        	bcc	$7aff <__udivsi3+0x136>
    7ae0: 38           	sec
    7ae1: a5 14        	lda	$14                     ; 0x14 <__rc4>
    7ae3: e5 19        	sbc	$19                     ; 0x19 <__rc9>
    7ae5: 85 14        	sta	$14                     ; 0x14 <__rc4>
    7ae7: a5 17        	lda	$17                     ; 0x17 <__rc7>
    7ae9: e5 1a        	sbc	$1a                     ; 0x1a <__rc10>
    7aeb: 85 17        	sta	$17                     ; 0x17 <__rc7>
    7aed: a5 15        	lda	$15                     ; 0x15 <__rc5>
    7aef: e5 1b        	sbc	$1b                     ; 0x1b <__rc11>
    7af1: 85 15        	sta	$15                     ; 0x15 <__rc5>
    7af3: a5 16        	lda	$16                     ; 0x16 <__rc6>
    7af5: e5 1c        	sbc	$1c                     ; 0x1c <__rc12>
    7af7: 85 16        	sta	$16                     ; 0x16 <__rc6>
    7af9: a5 23        	lda	$23                     ; 0x23 <__rc19>
    7afb: 09 01        	ora	#$1
    7afd: 85 23        	sta	$23                     ; 0x23 <__rc19>
    7aff: a4 1d        	ldy	$1d                     ; 0x1d <__rc13>
    7b01: c0 01        	cpy	#$1
    7b03: 26 18        	rol	$18                     ; 0x18 <__rc8>
    7b05: 26 12        	rol	$12                     ; 0x12 <__rc2>
    7b07: 26 13        	rol	$13                     ; 0x13 <__rc3>
    7b09: ca           	dex
    7b0a: f0 03        	beq	$7b0f <__udivsi3+0x146>
    7b0c: 4c b0 7a     	jmp	$7ab0 <__udivsi3+0xe7>
    7b0f: 4c 75 7a     	jmp	$7a75 <__udivsi3+0xac>
    7b12: c4 1b        	cpy	$1b                     ; 0x1b <__rc11>
    7b14: b0 ca        	bcs	$7ae0 <__udivsi3+0x117>
    7b16: 80 e7        	bra	$7aff <__udivsi3+0x136>
    7b18: c4 1a        	cpy	$1a                     ; 0x1a <__rc10>
    7b1a: b0 c4        	bcs	$7ae0 <__udivsi3+0x117>
    7b1c: 80 e1        	bra	$7aff <__udivsi3+0x136>
    7b1e: e4 15        	cpx	$15                     ; 0x15 <__rc5>
    7b20: b0 03        	bcs	$7b25 <__udivsi3+0x15c>
    7b22: 4c 02 7a     	jmp	$7a02 <__udivsi3+0x39>
    7b25: 4c 0b 7a     	jmp	$7a0b <__udivsi3+0x42>

00007b28 <__mulhi3>:
    7b28: a4 13        	ldy	$13                     ; 0x13 <__rc3>
    7b2a: d0 04        	bne	$7b30 <__mulhi3+0x8>
    7b2c: a4 12        	ldy	$12                     ; 0x12 <__rc2>
    7b2e: f0 25        	beq	$7b55 <__mulhi3+0x2d>
    7b30: 85 14        	sta	$14                     ; 0x14 <__rc4>
    7b32: 86 15        	stx	$15                     ; 0x15 <__rc5>
    7b34: a0 00        	ldy	#$0
    7b36: 98           	tya
    7b37: 46 13        	lsr	$13                     ; 0x13 <__rc3>
    7b39: 66 12        	ror	$12                     ; 0x12 <__rc2>
    7b3b: 90 09        	bcc	$7b46 <__mulhi3+0x1e>
    7b3d: aa           	tax
    7b3e: 98           	tya
    7b3f: 18           	clc
    7b40: 65 14        	adc	$14                     ; 0x14 <__rc4>
    7b42: a8           	tay
    7b43: 8a           	txa
    7b44: 65 15        	adc	$15                     ; 0x15 <__rc5>
    7b46: 06 14        	asl	$14                     ; 0x14 <__rc4>
    7b48: 26 15        	rol	$15                     ; 0x15 <__rc5>
    7b4a: a6 13        	ldx	$13                     ; 0x13 <__rc3>
    7b4c: d0 e9        	bne	$7b37 <__mulhi3+0xf>
    7b4e: a6 12        	ldx	$12                     ; 0x12 <__rc2>
    7b50: d0 e5        	bne	$7b37 <__mulhi3+0xf>
    7b52: aa           	tax
    7b53: 98           	tya
    7b54: 60           	rts
    7b55: a0 00        	ldy	#$0
    7b57: 98           	tya
    7b58: 80 f8        	bra	$7b52 <__mulhi3+0x2a>

00007b5a <__mulsi3>:
    7b5a: a4 17        	ldy	$17                     ; 0x17 <__rc7>
    7b5c: d0 0f        	bne	$7b6d <__mulsi3+0x13>
    7b5e: a4 16        	ldy	$16                     ; 0x16 <__rc6>
    7b60: d0 0b        	bne	$7b6d <__mulsi3+0x13>
    7b62: a4 15        	ldy	$15                     ; 0x15 <__rc5>
    7b64: d0 07        	bne	$7b6d <__mulsi3+0x13>
    7b66: a4 14        	ldy	$14                     ; 0x14 <__rc4>
    7b68: d0 03        	bne	$7b6d <__mulsi3+0x13>
    7b6a: 4c c1 7b     	jmp	$7bc1 <__mulsi3+0x67>
    7b6d: 85 18        	sta	$18                     ; 0x18 <__rc8>
    7b6f: 86 19        	stx	$19                     ; 0x19 <__rc9>
    7b71: a0 00        	ldy	#$0
    7b73: a2 00        	ldx	#$0
    7b75: 64 1a        	stz	$1a                     ; 0x1a <__rc10>
    7b77: 98           	tya
    7b78: 46 17        	lsr	$17                     ; 0x17 <__rc7>
    7b7a: 66 16        	ror	$16                     ; 0x16 <__rc6>
    7b7c: 66 15        	ror	$15                     ; 0x15 <__rc5>
    7b7e: 66 14        	ror	$14                     ; 0x14 <__rc4>
    7b80: 90 15        	bcc	$7b97 <__mulsi3+0x3d>
    7b82: 85 1b        	sta	$1b                     ; 0x1b <__rc11>
    7b84: 98           	tya
    7b85: 18           	clc
    7b86: 65 18        	adc	$18                     ; 0x18 <__rc8>
    7b88: a8           	tay
    7b89: 8a           	txa
    7b8a: 65 19        	adc	$19                     ; 0x19 <__rc9>
    7b8c: aa           	tax
    7b8d: a5 1a        	lda	$1a                     ; 0x1a <__rc10>
    7b8f: 65 12        	adc	$12                     ; 0x12 <__rc2>
    7b91: 85 1a        	sta	$1a                     ; 0x1a <__rc10>
    7b93: a5 1b        	lda	$1b                     ; 0x1b <__rc11>
    7b95: 65 13        	adc	$13                     ; 0x13 <__rc3>
    7b97: 06 18        	asl	$18                     ; 0x18 <__rc8>
    7b99: 26 19        	rol	$19                     ; 0x19 <__rc9>
    7b9b: 26 12        	rol	$12                     ; 0x12 <__rc2>
    7b9d: 26 13        	rol	$13                     ; 0x13 <__rc3>
    7b9f: e6 17        	inc	$17                     ; 0x17 <__rc7>
    7ba1: c6 17        	dec	$17                     ; 0x17 <__rc7>
    7ba3: d0 d3        	bne	$7b78 <__mulsi3+0x1e>
    7ba5: e6 16        	inc	$16                     ; 0x16 <__rc6>
    7ba7: c6 16        	dec	$16                     ; 0x16 <__rc6>
    7ba9: d0 cd        	bne	$7b78 <__mulsi3+0x1e>
    7bab: e6 15        	inc	$15                     ; 0x15 <__rc5>
    7bad: c6 15        	dec	$15                     ; 0x15 <__rc5>
    7baf: d0 c7        	bne	$7b78 <__mulsi3+0x1e>
    7bb1: e6 14        	inc	$14                     ; 0x14 <__rc4>
    7bb3: c6 14        	dec	$14                     ; 0x14 <__rc4>
    7bb5: d0 c1        	bne	$7b78 <__mulsi3+0x1e>
    7bb7: 5a           	phy
    7bb8: a4 1a        	ldy	$1a                     ; 0x1a <__rc10>
    7bba: 84 12        	sty	$12                     ; 0x12 <__rc2>
    7bbc: 7a           	ply
    7bbd: 85 13        	sta	$13                     ; 0x13 <__rc3>
    7bbf: 98           	tya
    7bc0: 60           	rts
    7bc1: a0 00        	ldy	#$0
    7bc3: a2 00        	ldx	#$0
    7bc5: 64 1a        	stz	$1a                     ; 0x1a <__rc10>
    7bc7: 98           	tya
    7bc8: 80 ed        	bra	$7bb7 <__mulsi3+0x5d>
