
bigslidesho.elf:	file format elf32-mos

SYMBOL TABLE:
00000000 l    df *ABS*	00000000 zero-bss.c
00000000 l    df *ABS*	00000000 zero-zp-bss.c
00000000 l    df *ABS*	00000000 copy-zp-data.c
00000000 l    df *ABS*	00000000 ld-temp.o
00000431 l     F .text	0000017b f256Init
00000065 l     O .zp.bss	00000002 kernelArgs
000000c7 l     O .zp.bss	00000007 kernelEventData
000005ac l     F .text	00000173 textReset
0000071f l     F .text	00000156 bitmapReset
0000007c l     O .zp.bss	00000003 _tileSize
0000007f l     O .zp.bss	00000040 _spriteCtl
000000bf l     O .zp.bss	00000008 _dirStream
00001daa l     O .bss	00000001 kernelError
00000062 l     O .zp.data	00000001 _ccolor
00000060 l     O .zp.data	00000001 _MAX_COL
00000061 l     O .zp.data	00000001 _MAX_ROW
00000030 l     O .zp.data	00000030 textColors
00000067 l     O .zp.bss	00000001 _col
00000068 l     O .zp.bss	00000001 _row
00000077 l     O .zp.bss	00000001 _MAX_X
00000078 l     O .zp.bss	00000001 _MAX_Y
00000075 l     O .zp.bss	00000001 _active
00000076 l     O .zp.bss	00000001 _color
00000069 l     O .zp.bss	0000000c _BITMAP_BASE
00000079 l     O .zp.bss	00000003 _BITMAP_CLUT
00000899 l     F .text	00000124 f256main
00001be6 l     F .text	00000057 printf
000009bd l     F .text	0000025a textPrint
00001d37 l     F .text	00000032 __mulhi3
00000c17 l     F .text	0000000e __putchar
00001da8 l     O .bss	00000002 __putchar.s
00000c33 l     F .text	00000002 _Exit
00000c35 l     F .text	00000218 vfprintf
00001c6f l     F .text	00000003 putc
00000e4d l     F .text	00000b44 _ZN12_GLOBAL__N_15printEPKcP6Status
00001991 l     F .text	000000e1 _ZN12_GLOBAL__N_13putEcP6Status
00001cc9 l     F .text	0000006e __simple_strtoui
00001a72 l     F .text	00000174 _ZN12_GLOBAL__N_112print_stringEPKcP6Status
0000034e l     F .text	00000003 _ZN6__impl6VarInt4makeEPvc
00000360 l     F .text	0000000d _ZNK6__impl6VarInt8negativeEv
0000036e l     F .text	00000047 _ZN6__impl6VarInt6negateEv
00000352 l     F .text	0000000d _ZNK6__impl6VarInt8high_bitEv
000003b6 l     F .text	0000003b _ZN6__impl6VarInt3shlEv
00000063 l     O .zp.data	00000002 stdout
00001c3d l     F .text	00000003 fputc
00001c40 l     F .text	00000028 putchar
00001c68 l     F .text	00000007 putchar_wrapper
00001c72 l     F .text	0000000b __from_ascii
00000875 g     F .text	00000024 main
00200000 g       .earthgfx	00000000 earthgfx_start
0001fdf4 g       .earthpal	00000000 earthpal_end
0001fa00 g       .earthpal	00000000 earthpal_start
0020fa00 g       .earthgfx	00000000 earthgfx_end
0000034a g       .text	00000000 __after_main
00000336 g       .text	00000000 __do_init_stack
00000344 g       .text	00000000 __do_copy_zp_data
0000041a g     F .text	00000017 __copy_zp_data
0000033e g       .text	00000000 __do_zero_bss
000003f4 g     F .text	00000013 __zero_bss
00000341 g       .text	00000000 __do_zero_zp_bss
00000407 g     F .text	00000013 __zero_zp_bss
00000c25 g     F .text	0000000e exit
0000034d g       .text	00000000 _fini
000003f1 g       .text	00000000 __call_indir
00001ca9  w    F .text	00000020 __memset
00001000  w      *ABS*	00000000 __heap_default_limit
00001dac g       .noinit	00000000 __heap_start
00001c7d  w    F .text	0000002c memcpy
00000010 g       *ABS*	00000000 __rc0
00000012 g       *ABS*	00000000 __rc2
00000014 g       *ABS*	00000000 __rc4
00000016 g       *ABS*	00000000 __rc6
00000018 g       *ABS*	00000000 __rc8
0000001a g       *ABS*	00000000 __rc10
0000001c g       *ABS*	00000000 __rc12
0000001e g       *ABS*	00000000 __rc14
00000020 g       *ABS*	00000000 __rc16
00000022 g       *ABS*	00000000 __rc18
00000024 g       *ABS*	00000000 __rc20
00000026 g       *ABS*	00000000 __rc22
00000028 g       *ABS*	00000000 __rc24
0000002a g       *ABS*	00000000 __rc26
0000002c g       *ABS*	00000000 __rc28
0000002e g       *ABS*	00000000 __rc30
0000002f g       *ABS*	00000000 __rc31
00000300 g       *ABS*	00000000 __f256_start
0000c000 g       *ABS*	00000000 __stack
0000c000 g       *ABS*	00000000 __SLOT_ADDR
0800c000 g       *ABS*	00000000 __block8_lma
00002000 g       *ABS*	00000000 __BLOCK_SIZE
0900c000 g       *ABS*	00000000 __block9_lma
0a00c000 g       *ABS*	00000000 __block10_lma
0b00c000 g       *ABS*	00000000 __block11_lma
0c00c000 g       *ABS*	00000000 __block12_lma
0d00c000 g       *ABS*	00000000 __block13_lma
0e00c000 g       *ABS*	00000000 __block14_lma
0f00c000 g       *ABS*	00000000 __block15_lma
1000c000 g       *ABS*	00000000 __block16_lma
1100c000 g       *ABS*	00000000 __block17_lma
1200c000 g       *ABS*	00000000 __block18_lma
1300c000 g       *ABS*	00000000 __block19_lma
1400c000 g       *ABS*	00000000 __block20_lma
1500c000 g       *ABS*	00000000 __block21_lma
1600c000 g       *ABS*	00000000 __block22_lma
1700c000 g       *ABS*	00000000 __block23_lma
00200000 g       *ABS*	00000000 __earthgfx_lma
0000fa00 g       *ABS*	00000000 __earthgfx_size
0001fa00 g       *ABS*	00000000 __earthpal_lma
000003f4 g       *ABS*	00000000 __earthpal_size
00001da8 g       .bss	00000000 __bss_start
0020fa00 g       .earthgfx	00000000 end_earthgfx
0001fdf4 g       .earthpal	00000000 end_earthpal
00000336 g       .text	00000000 _start
0000002d g       *ABS*	00000000 __rc29
0000002b g       *ABS*	00000000 __rc27
00000029 g       *ABS*	00000000 __rc25
00000027 g       *ABS*	00000000 __rc23
00000025 g       *ABS*	00000000 __rc21
00000023 g       *ABS*	00000000 __rc19
00000021 g       *ABS*	00000000 __rc17
0000001f g       *ABS*	00000000 __rc15
0000001d g       *ABS*	00000000 __rc13
0000001b g       *ABS*	00000000 __rc11
00000019 g       *ABS*	00000000 __rc9
00000017 g       *ABS*	00000000 __rc7
00000015 g       *ABS*	00000000 __rc5
00000013 g       *ABS*	00000000 __rc3
00000011 g       *ABS*	00000000 __rc1
00000030 g       .zp.data	00000000 __zp_data_start
00000300 g       *ABS*	00000000 __zp_data_load_start
00000035 g       *ABS*	00000000 __zp_data_size
00000065 g       .zp.bss	00000000 __zp_bss_start
00000069 g       *ABS*	00000000 __zp_bss_size
00000336 g       .text	00000000 _init
00001d69 g       .text	00000000 __init_array_start
00001d69 g       .text	00000000 __init_array_end
00001d69 g       .text	00000000 __fini_array_start
00001d69 g       .text	00000000 __fini_array_end
00001da8 g       .data	00000000 __data_start
00001da8 g       .data	00000000 __data_end
00001da8 g       *ABS*	00000000 __data_load_start
00000000 g       *ABS*	00000000 __data_size
00001dab g       .bss	00000000 __bss_end
00000003 g       *ABS*	00000000 __bss_size
00001dab g       .noinit	00000000 end_block8
00001dab g       .noinit	00000000 end_block9
00001dab g       .noinit	00000000 end_block10
00001dab g       .noinit	00000000 end_block11
00001dab g       .noinit	00000000 end_block12
00001dab g       .noinit	00000000 end_block13
00001dab g       .noinit	00000000 end_block14
00001dab g       .noinit	00000000 end_block15
00001dab g       .noinit	00000000 end_block16
00001dab g       .noinit	00000000 end_block17
00001dab g       .noinit	00000000 end_block18
00001dab g       .noinit	00000000 end_block19
00001dab g       .noinit	00000000 end_block20
00001dab g       .noinit	00000000 end_block21
00001dab g       .noinit	00000000 end_block22
00001dab g       .noinit	00000000 end_block23

Disassembly of section .text:

00000336 <_start>:
     336: a9 00        	lda	#$0
     338: 85 10        	sta	$10                     ; 0x2010 <__heap_start+0x264>
     33a: a9 c0        	lda	#$c0
     33c: 85 11        	sta	$11                     ; 0x2011 <__heap_start+0x265>

0000033e <__do_zero_bss>:
     33e: 20 f4 03     	jsr	$3f4 <__zero_bss>

00000341 <__do_zero_zp_bss>:
     341: 20 07 04     	jsr	$407 <__zero_zp_bss>

00000344 <__do_copy_zp_data>:
     344: 20 1a 04     	jsr	$41a <__copy_zp_data>
     347: 20 75 08     	jsr	$875 <main>

0000034a <__after_main>:
     34a: 4c 25 0c     	jmp	$c25 <exit>

0000034d <_fini>:
     34d: 60           	rts

0000034e <_ZN6__impl6VarInt4makeEPvc>:
     34e: 92 12        	sta	($12)                   ; 0x2012 <__heap_start+0x266>
     350: 60           	rts
     351: 00           	brk

00000352 <_ZNK6__impl6VarInt8high_bitEv>:
     352: b2 12        	lda	($12)                   ; 0x2012 <__heap_start+0x266>
     354: a8           	tay
     355: b1 12        	lda	($12),y                 ; 0x2012 <__heap_start+0x266>
     357: 10 03        	bpl	$35c <_ZNK6__impl6VarInt8high_bitEv+0xa>
     359: a9 01        	lda	#$1
     35b: 60           	rts
     35c: a9 00        	lda	#$0
     35e: 60           	rts
     35f: 00           	brk

00000360 <_ZNK6__impl6VarInt8negativeEv>:
     360: b2 12        	lda	($12)                   ; 0x2012 <__heap_start+0x266>
     362: a8           	tay
     363: b1 12        	lda	($12),y                 ; 0x2012 <__heap_start+0x266>
     365: 10 03        	bpl	$36a <_ZNK6__impl6VarInt8negativeEv+0xa>
     367: a9 01        	lda	#$1
     369: 60           	rts
     36a: a9 00        	lda	#$0
     36c: 60           	rts
     36d: 00           	brk

0000036e <_ZN6__impl6VarInt6negateEv>:
     36e: b2 12        	lda	($12)                   ; 0x2012 <__heap_start+0x266>
     370: f0 42        	beq	$3b4 <_ZN6__impl6VarInt6negateEv+0x46>
     372: aa           	tax
     373: a4 12        	ldy	$12                     ; 0x2012 <__heap_start+0x266>
     375: 84 16        	sty	$16                     ; 0x2016 <__heap_start+0x26a>
     377: a4 13        	ldy	$13                     ; 0x2013 <__heap_start+0x267>
     379: 84 17        	sty	$17                     ; 0x2017 <__heap_start+0x26b>
     37b: 64 12        	stz	$12                     ; 0x2012 <__heap_start+0x266>
     37d: 64 13        	stz	$13                     ; 0x2013 <__heap_start+0x267>
     37f: a0 01        	ldy	#$1
     381: a5 16        	lda	$16                     ; 0x2016 <__heap_start+0x26a>
     383: 18           	clc
     384: 65 12        	adc	$12                     ; 0x2012 <__heap_start+0x266>
     386: 85 14        	sta	$14                     ; 0x2014 <__heap_start+0x268>
     388: a5 17        	lda	$17                     ; 0x2017 <__heap_start+0x26b>
     38a: 69 00        	adc	#$0
     38c: 85 15        	sta	$15                     ; 0x2015 <__heap_start+0x269>
     38e: a9 00        	lda	#$0
     390: 38           	sec
     391: f1 14        	sbc	($14),y                 ; 0x2014 <__heap_start+0x268>
     393: 64 19        	stz	$19                     ; 0x2019 <__heap_start+0x26d>
     395: b0 02        	bcs	$399 <_ZN6__impl6VarInt6negateEv+0x2b>
     397: 84 19        	sty	$19                     ; 0x2019 <__heap_start+0x26d>
     399: 38           	sec
     39a: e5 13        	sbc	$13                     ; 0x2013 <__heap_start+0x267>
     39c: 85 18        	sta	$18                     ; 0x2018 <__heap_start+0x26c>
     39e: 64 13        	stz	$13                     ; 0x2013 <__heap_start+0x267>
     3a0: b0 02        	bcs	$3a4 <_ZN6__impl6VarInt6negateEv+0x36>
     3a2: 84 13        	sty	$13                     ; 0x2013 <__heap_start+0x267>
     3a4: a5 19        	lda	$19                     ; 0x2019 <__heap_start+0x26d>
     3a6: 05 13        	ora	$13                     ; 0x2013 <__heap_start+0x267>
     3a8: 85 13        	sta	$13                     ; 0x2013 <__heap_start+0x267>
     3aa: a5 18        	lda	$18                     ; 0x2018 <__heap_start+0x26c>
     3ac: 91 14        	sta	($14),y                 ; 0x2014 <__heap_start+0x268>
     3ae: e6 12        	inc	$12                     ; 0x2012 <__heap_start+0x266>
     3b0: e4 12        	cpx	$12                     ; 0x2012 <__heap_start+0x266>
     3b2: d0 cd        	bne	$381 <_ZN6__impl6VarInt6negateEv+0x13>
     3b4: 60           	rts
     3b5: 00           	brk

000003b6 <_ZN6__impl6VarInt3shlEv>:
     3b6: b2 12        	lda	($12)                   ; 0x2012 <__heap_start+0x266>
     3b8: f0 36        	beq	$3f0 <_ZN6__impl6VarInt3shlEv+0x3a>
     3ba: 85 17        	sta	$17                     ; 0x2017 <__heap_start+0x26b>
     3bc: 64 14        	stz	$14                     ; 0x2014 <__heap_start+0x268>
     3be: a6 12        	ldx	$12                     ; 0x2012 <__heap_start+0x266>
     3c0: 86 15        	stx	$15                     ; 0x2015 <__heap_start+0x269>
     3c2: a6 13        	ldx	$13                     ; 0x2013 <__heap_start+0x267>
     3c4: 86 18        	stx	$18                     ; 0x2018 <__heap_start+0x26c>
     3c6: a0 01        	ldy	#$1
     3c8: 64 12        	stz	$12                     ; 0x2012 <__heap_start+0x266>
     3ca: a5 15        	lda	$15                     ; 0x2015 <__heap_start+0x269>
     3cc: 18           	clc
     3cd: 65 12        	adc	$12                     ; 0x2012 <__heap_start+0x266>
     3cf: 85 16        	sta	$16                     ; 0x2016 <__heap_start+0x26a>
     3d1: a6 17        	ldx	$17                     ; 0x2017 <__heap_start+0x26b>
     3d3: a5 18        	lda	$18                     ; 0x2018 <__heap_start+0x26c>
     3d5: 69 00        	adc	#$0
     3d7: 85 17        	sta	$17                     ; 0x2017 <__heap_start+0x26b>
     3d9: b1 16        	lda	($16),y                 ; 0x2016 <__heap_start+0x26a>
     3db: 0a           	asl
     3dc: 64 13        	stz	$13                     ; 0x2013 <__heap_start+0x267>
     3de: 26 13        	rol	$13                     ; 0x2013 <__heap_start+0x267>
     3e0: 05 14        	ora	$14                     ; 0x2014 <__heap_start+0x268>
     3e2: 91 16        	sta	($16),y                 ; 0x2016 <__heap_start+0x26a>
     3e4: e6 12        	inc	$12                     ; 0x2012 <__heap_start+0x266>
     3e6: a5 13        	lda	$13                     ; 0x2013 <__heap_start+0x267>
     3e8: 85 14        	sta	$14                     ; 0x2014 <__heap_start+0x268>
     3ea: 86 17        	stx	$17                     ; 0x2017 <__heap_start+0x26b>
     3ec: e4 12        	cpx	$12                     ; 0x2012 <__heap_start+0x266>
     3ee: d0 da        	bne	$3ca <_ZN6__impl6VarInt3shlEv+0x14>
     3f0: 60           	rts

000003f1 <__call_indir>:
     3f1: 6c 22 00     	jmp	($22)                   ; 0x22 <__rc18>

000003f4 <__zero_bss>:
     3f4: a2 03        	ldx	#$3
     3f6: a0 00        	ldy	#$0
     3f8: a9 a8        	lda	#$a8
     3fa: 85 12        	sta	$12                     ; 0x2012 <__heap_start+0x266>
     3fc: a9 1d        	lda	#$1d
     3fe: 85 13        	sta	$13                     ; 0x2013 <__heap_start+0x267>
     400: a9 00        	lda	#$0
     402: 84 14        	sty	$14                     ; 0x2014 <__heap_start+0x268>
     404: 4c a9 1c     	jmp	$1ca9 <__memset>

00000407 <__zero_zp_bss>:
     407: a2 69        	ldx	#$69
     409: a0 00        	ldy	#$0
     40b: a9 65        	lda	#$65
     40d: 85 12        	sta	$12                     ; 0x2012 <__heap_start+0x266>
     40f: a9 00        	lda	#$0
     411: 85 13        	sta	$13                     ; 0x2013 <__heap_start+0x267>
     413: a9 00        	lda	#$0
     415: 84 14        	sty	$14                     ; 0x2014 <__heap_start+0x268>
     417: 4c a9 1c     	jmp	$1ca9 <__memset>

0000041a <__copy_zp_data>:
     41a: a9 35        	lda	#$35
     41c: a2 00        	ldx	#$0
     41e: a0 30        	ldy	#$30
     420: 84 12        	sty	$12                     ; 0x2012 <__heap_start+0x266>
     422: a0 00        	ldy	#$0
     424: 84 13        	sty	$13                     ; 0x2013 <__heap_start+0x267>
     426: a0 00        	ldy	#$0
     428: 84 14        	sty	$14                     ; 0x2014 <__heap_start+0x268>
     42a: a0 03        	ldy	#$3
     42c: 84 15        	sty	$15                     ; 0x2015 <__heap_start+0x269>
     42e: 4c 7d 1c     	jmp	$1c7d <memcpy>

00000431 <f256Init>:
     431: 64 12        	stz	$12                     ; 0x2012 <__heap_start+0x266>
     433: 64 01        	stz	$1                      ; 0x2001 <__heap_start+0x255>
     435: a2 3f        	ldx	#$3f
     437: 8e 00 d0     	stx	$d000                   ; 0xd000 <__heap_start+0xb254>
     43a: a2 b3        	ldx	#$b3
     43c: 86 00        	stx	$0                      ; 0x2000 <__heap_start+0x254>
     43e: 64 08        	stz	$8                      ; 0x2008 <__heap_start+0x25c>
     440: a2 01        	ldx	#$1
     442: 86 09        	stx	$9                      ; 0x2009 <__heap_start+0x25d>
     444: e8           	inx
     445: 86 0a        	stx	$a                      ; 0x200a <__heap_start+0x25e>
     447: e8           	inx
     448: 86 0b        	stx	$b                      ; 0x200b <__heap_start+0x25f>
     44a: e8           	inx
     44b: 86 0c        	stx	$c                      ; 0x200c <__heap_start+0x260>
     44d: e8           	inx
     44e: 86 0d        	stx	$d                      ; 0x200d <__heap_start+0x261>
     450: a2 f0        	ldx	#$f0
     452: 86 65        	stx	$65                     ; 0x2065 <__heap_start+0x2b9>
     454: 64 66        	stz	$66                     ; 0x2066 <__heap_start+0x2ba>
     456: a2 c7        	ldx	#$c7
     458: a0 00        	ldy	#$0
     45a: 86 f0        	stx	$f0                     ; 0x20f0 <__heap_start+0x344>
     45c: 84 f1        	sty	$f1                     ; 0x20f1 <__heap_start+0x345>
     45e: a2 00        	ldx	#$0
     460: 86 16        	stx	$16                     ; 0x2016 <__heap_start+0x26a>
     462: ca           	dex
     463: 86 17        	stx	$17                     ; 0x2017 <__heap_start+0x26b>
     465: 8a           	txa
     466: 0a           	asl
     467: 0a           	asl
     468: 18           	clc
     469: 69 d4        	adc	#$d4
     46b: 85 18        	sta	$18                     ; 0x2018 <__heap_start+0x26c>
     46d: a0 00        	ldy	#$0
     46f: 64 15        	stz	$15                     ; 0x2015 <__heap_start+0x269>
     471: 64 14        	stz	$14                     ; 0x2014 <__heap_start+0x268>
     473: a6 17        	ldx	$17                     ; 0x2017 <__heap_start+0x26b>
     475: e0 03        	cpx	#$3
     477: a6 01        	ldx	$1                      ; 0x2001 <__heap_start+0x255>
     479: 86 1a        	stx	$1a                     ; 0x201a <__heap_start+0x26e>
     47b: a2 d0        	ldx	#$d0
     47d: 84 19        	sty	$19                     ; 0x2019 <__heap_start+0x26d>
     47f: b0 02        	bcs	$483 <f256Init+0x52>
     481: a6 18        	ldx	$18                     ; 0x2018 <__heap_start+0x26c>
     483: 86 13        	stx	$13                     ; 0x2013 <__heap_start+0x267>
     485: a5 15        	lda	$15                     ; 0x2015 <__heap_start+0x269>
     487: 18           	clc
     488: 65 12        	adc	$12                     ; 0x2012 <__heap_start+0x266>
     48a: a8           	tay
     48b: a6 15        	ldx	$15                     ; 0x2015 <__heap_start+0x269>
     48d: a5 14        	lda	$14                     ; 0x2014 <__heap_start+0x268>
     48f: 85 1b        	sta	$1b                     ; 0x201b <__heap_start+0x26f>
     491: a5 14        	lda	$14                     ; 0x2014 <__heap_start+0x268>
     493: 65 13        	adc	$13                     ; 0x2013 <__heap_start+0x267>
     495: 84 14        	sty	$14                     ; 0x2014 <__heap_start+0x268>
     497: a0 01        	ldy	#$1
     499: 84 01        	sty	$1                      ; 0x2001 <__heap_start+0x255>
     49b: 85 15        	sta	$15                     ; 0x2015 <__heap_start+0x269>
     49d: a5 19        	lda	$19                     ; 0x2019 <__heap_start+0x26d>
     49f: 92 14        	sta	($14)                   ; 0x2014 <__heap_start+0x268>
     4a1: 91 14        	sta	($14),y                 ; 0x2014 <__heap_start+0x268>
     4a3: c8           	iny
     4a4: 91 14        	sta	($14),y                 ; 0x2014 <__heap_start+0x268>
     4a6: 85 13        	sta	$13                     ; 0x2013 <__heap_start+0x267>
     4a8: c8           	iny
     4a9: a9 ff        	lda	#$ff
     4ab: 91 14        	sta	($14),y                 ; 0x2014 <__heap_start+0x268>
     4ad: 8a           	txa
     4ae: a6 1a        	ldx	$1a                     ; 0x201a <__heap_start+0x26e>
     4b0: 86 01        	stx	$1                      ; 0x2001 <__heap_start+0x255>
     4b2: 18           	clc
     4b3: 69 04        	adc	#$4
     4b5: 85 15        	sta	$15                     ; 0x2015 <__heap_start+0x269>
     4b7: a5 1b        	lda	$1b                     ; 0x201b <__heap_start+0x26f>
     4b9: 69 00        	adc	#$0
     4bb: e6 13        	inc	$13                     ; 0x2013 <__heap_start+0x267>
     4bd: a4 13        	ldy	$13                     ; 0x2013 <__heap_start+0x267>
     4bf: 85 14        	sta	$14                     ; 0x2014 <__heap_start+0x268>
     4c1: c9 04        	cmp	#$4
     4c3: f0 03        	beq	$4c8 <f256Init+0x97>
     4c5: 4c 73 04     	jmp	$473 <f256Init+0x42>
     4c8: a5 15        	lda	$15                     ; 0x2015 <__heap_start+0x269>
     4ca: f0 03        	beq	$4cf <f256Init+0x9e>
     4cc: 4c 73 04     	jmp	$473 <f256Init+0x42>
     4cf: a6 16        	ldx	$16                     ; 0x2016 <__heap_start+0x26a>
     4d1: e8           	inx
     4d2: e0 04        	cpx	#$4
     4d4: f0 03        	beq	$4d9 <f256Init+0xa8>
     4d6: 4c 60 04     	jmp	$460 <f256Init+0x2f>
     4d9: ad 02 d0     	lda	$d002                   ; 0xd002 <__heap_start+0xb256>
     4dc: 29 f0        	and	#$f0
     4de: 8d 02 d0     	sta	$d002                   ; 0xd002 <__heap_start+0xb256>
     4e1: ad 02 d0     	lda	$d002                   ; 0xd002 <__heap_start+0xb256>
     4e4: 29 0f        	and	#$f
     4e6: 09 10        	ora	#$10
     4e8: 8d 02 d0     	sta	$d002                   ; 0xd002 <__heap_start+0xb256>
     4eb: a2 02        	ldx	#$2
     4ed: 8e 03 d0     	stx	$d003                   ; 0xd003 <__heap_start+0xb257>
     4f0: 20 ac 05     	jsr	$5ac <textReset>
     4f3: 20 1f 07     	jsr	$71f <bitmapReset>
     4f6: a9 10        	lda	#$10
     4f8: a2 08        	ldx	#$8
     4fa: 86 7c        	stx	$7c                     ; 0x207c <__heap_start+0x2d0>
     4fc: 86 7d        	stx	$7d                     ; 0x207d <__heap_start+0x2d1>
     4fe: 86 7e        	stx	$7e                     ; 0x207e <__heap_start+0x2d2>
     500: 8d 00 d2     	sta	$d200                   ; 0xd200 <__heap_start+0xb454>
     503: a4 7d        	ldy	$7d                     ; 0x207d <__heap_start+0x2d1>
     505: aa           	tax
     506: c0 08        	cpy	#$8
     508: f0 02        	beq	$50c <f256Init+0xdb>
     50a: a2 00        	ldx	#$0
     50c: 8e 0c d2     	stx	$d20c                   ; 0xd20c <__heap_start+0xb460>
     50f: a6 7e        	ldx	$7e                     ; 0x207e <__heap_start+0x2d2>
     511: e0 08        	cpx	#$8
     513: f0 02        	beq	$517 <f256Init+0xe6>
     515: a9 00        	lda	#$0
     517: 8d 18 d2     	sta	$d218                   ; 0xd218 <__heap_start+0xb46c>
     51a: a0 d9        	ldy	#$d9
     51c: a2 00        	ldx	#$0
     51e: 64 12        	stz	$12                     ; 0x2012 <__heap_start+0x266>
     520: 84 13        	sty	$13                     ; 0x2013 <__heap_start+0x267>
     522: b5 7f        	lda	$7f,x                   ; 0x207f <__heap_start+0x2d3>
     524: 92 12        	sta	($12)                   ; 0x2012 <__heap_start+0x266>
     526: e8           	inx
     527: 18           	clc
     528: a5 12        	lda	$12                     ; 0x2012 <__heap_start+0x266>
     52a: 69 08        	adc	#$8
     52c: 85 12        	sta	$12                     ; 0x2012 <__heap_start+0x266>
     52e: 98           	tya
     52f: 69 00        	adc	#$0
     531: a8           	tay
     532: e0 40        	cpx	#$40
     534: d0 ea        	bne	$520 <f256Init+0xef>
     536: 64 bf        	stz	$bf                     ; 0x20bf <__heap_start+0x313>
     538: 64 c0        	stz	$c0                     ; 0x20c0 <__heap_start+0x314>
     53a: 64 c1        	stz	$c1                     ; 0x20c1 <__heap_start+0x315>
     53c: 64 c2        	stz	$c2                     ; 0x20c2 <__heap_start+0x316>
     53e: 64 c3        	stz	$c3                     ; 0x20c3 <__heap_start+0x317>
     540: 64 c4        	stz	$c4                     ; 0x20c4 <__heap_start+0x318>
     542: 64 c5        	stz	$c5                     ; 0x20c5 <__heap_start+0x319>
     544: 64 c6        	stz	$c6                     ; 0x20c6 <__heap_start+0x31a>
     546: a5 65        	lda	$65                     ; 0x2065 <__heap_start+0x2b9>
     548: a6 66        	ldx	$66                     ; 0x2066 <__heap_start+0x2ba>
     54a: 85 12        	sta	$12                     ; 0x2012 <__heap_start+0x266>
     54c: 86 13        	stx	$13                     ; 0x2013 <__heap_start+0x267>
     54e: a0 0b        	ldy	#$b
     550: 18           	clc
     551: 69 0b        	adc	#$b
     553: 85 14        	sta	$14                     ; 0x2014 <__heap_start+0x268>
     555: 8a           	txa
     556: 69 00        	adc	#$0
     558: 85 15        	sta	$15                     ; 0x2015 <__heap_start+0x269>
     55a: a9 ce        	lda	#$ce
     55c: 91 12        	sta	($12),y                 ; 0x2012 <__heap_start+0x266>
     55e: a0 01        	ldy	#$1
     560: a9 00        	lda	#$0
     562: 91 14        	sta	($14),y                 ; 0x2014 <__heap_start+0x268>
     564: a0 0d        	ldy	#$d
     566: a9 08        	lda	#$8
     568: 91 12        	sta	($12),y                 ; 0x2012 <__heap_start+0x266>
     56a: a2 d6        	ldx	#$d6
     56c: a0 00        	ldy	#$0
     56e: 86 12        	stx	$12                     ; 0x2012 <__heap_start+0x266>
     570: 84 13        	sty	$13                     ; 0x2013 <__heap_start+0x267>
     572: a2 aa        	ldx	#$aa
     574: 86 14        	stx	$14                     ; 0x2014 <__heap_start+0x268>
     576: a2 1d        	ldx	#$1d
     578: 86 15        	stx	$15                     ; 0x2015 <__heap_start+0x269>
     57a: 20 dc ff     	jsr	$ffdc <__heap_start+0xe230>
     57d: 92 12        	sta	($12)                   ; 0x2012 <__heap_start+0x266>
     57f: a9 00        	lda	#$0
     581: 6a           	ror
     582: 85 14        	sta	$14                     ; 0x2014 <__heap_start+0x268>
     584: a6 d4        	ldx	$d4                     ; 0x20d4 <__heap_start+0x328>
     586: a4 d5        	ldy	$d5                     ; 0x20d5 <__heap_start+0x329>
     588: 8e 00 de     	stx	$de00                   ; 0xde00 <__heap_start+0xc054>
     58b: 9c 01 de     	stz	$de01                   ; 0xde01 <__heap_start+0xc055>
     58e: 8c 02 de     	sty	$de02                   ; 0xde02 <__heap_start+0xc056>
     591: 9c 03 de     	stz	$de03                   ; 0xde03 <__heap_start+0xc057>
     594: ae 10 de     	ldx	$de10                   ; 0xde10 <__heap_start+0xc064>
     597: ac 11 de     	ldy	$de11                   ; 0xde11 <__heap_start+0xc065>
     59a: ad 12 de     	lda	$de12                   ; 0xde12 <__heap_start+0xc066>
     59d: ad 13 de     	lda	$de13                   ; 0xde13 <__heap_start+0xc067>
     5a0: 8e a4 d6     	stx	$d6a4                   ; 0xd6a4 <__heap_start+0xb8f8>
     5a3: 8c a5 d6     	sty	$d6a5                   ; 0xd6a5 <__heap_start+0xb8f9>
     5a6: a2 03        	ldx	#$3
     5a8: 8e a6 d6     	stx	$d6a6                   ; 0xd6a6 <__heap_start+0xb8fa>
     5ab: 60           	rts

000005ac <textReset>:
     5ac: 64 14        	stz	$14                     ; 0x2014 <__heap_start+0x268>
     5ae: a2 00        	ldx	#$0
     5b0: 86 12        	stx	$12                     ; 0x2012 <__heap_start+0x266>
     5b2: a2 c0        	ldx	#$c0
     5b4: 86 13        	stx	$13                     ; 0x2013 <__heap_start+0x267>
     5b6: a2 f0        	ldx	#$f0
     5b8: 86 62        	stx	$62                     ; 0x2062 <__heap_start+0x2b6>
     5ba: ad 01 d0     	lda	$d001                   ; 0xd001 <__heap_start+0xb255>
     5bd: 29 f9        	and	#$f9
     5bf: 09 04        	ora	#$4
     5c1: 8d 01 d0     	sta	$d001                   ; 0xd001 <__heap_start+0xb255>
     5c4: a2 50        	ldx	#$50
     5c6: 86 60        	stx	$60                     ; 0x2060 <__heap_start+0x2b4>
     5c8: a2 1e        	ldx	#$1e
     5ca: 86 61        	stx	$61                     ; 0x2061 <__heap_start+0x2b5>
     5cc: 9c 10 d0     	stz	$d010                   ; 0xd010 <__heap_start+0xb264>
     5cf: a0 00        	ldy	#$0
     5d1: a2 00        	ldx	#$0
     5d3: 84 18        	sty	$18                     ; 0x2018 <__heap_start+0x26c>
     5d5: b9 30 00     	lda	$30,y                   ; 0x30 <textColors>
     5d8: 85 1b        	sta	$1b                     ; 0x201b <__heap_start+0x26f>
     5da: b9 31 00     	lda	$31,y                   ; 0x31 <textColors+0x1>
     5dd: 85 1c        	sta	$1c                     ; 0x201c <__heap_start+0x270>
     5df: b9 32 00     	lda	$32,y                   ; 0x32 <textColors+0x2>
     5e2: 85 1d        	sta	$1d                     ; 0x201d <__heap_start+0x271>
     5e4: 84 1a        	sty	$1a                     ; 0x201a <__heap_start+0x26e>
     5e6: 8e 00 de     	stx	$de00                   ; 0xde00 <__heap_start+0xc054>
     5e9: 9c 01 de     	stz	$de01                   ; 0xde01 <__heap_start+0xc055>
     5ec: a0 04        	ldy	#$4
     5ee: 8c 02 de     	sty	$de02                   ; 0xde02 <__heap_start+0xc056>
     5f1: 9c 03 de     	stz	$de03                   ; 0xde03 <__heap_start+0xc057>
     5f4: ac 10 de     	ldy	$de10                   ; 0xde10 <__heap_start+0xc064>
     5f7: ad 11 de     	lda	$de11                   ; 0xde11 <__heap_start+0xc065>
     5fa: 85 15        	sta	$15                     ; 0x2015 <__heap_start+0x269>
     5fc: 18           	clc
     5fd: 98           	tya
     5fe: 65 14        	adc	$14                     ; 0x2014 <__heap_start+0x268>
     600: 85 16        	sta	$16                     ; 0x2016 <__heap_start+0x26a>
     602: a9 d8        	lda	#$d8
     604: 65 15        	adc	$15                     ; 0x2015 <__heap_start+0x269>
     606: 86 19        	stx	$19                     ; 0x2019 <__heap_start+0x26d>
     608: ae 12 de     	ldx	$de12                   ; 0xde12 <__heap_start+0xc066>
     60b: ae 13 de     	ldx	$de13                   ; 0xde13 <__heap_start+0xc067>
     60e: 85 17        	sta	$17                     ; 0x2017 <__heap_start+0x26b>
     610: a5 1d        	lda	$1d                     ; 0x201d <__heap_start+0x271>
     612: 92 16        	sta	($16)                   ; 0x2016 <__heap_start+0x26a>
     614: a0 01        	ldy	#$1
     616: a5 1c        	lda	$1c                     ; 0x201c <__heap_start+0x270>
     618: 91 16        	sta	($16),y                 ; 0x2016 <__heap_start+0x26a>
     61a: c8           	iny
     61b: a5 1b        	lda	$1b                     ; 0x201b <__heap_start+0x26f>
     61d: 91 16        	sta	($16),y                 ; 0x2016 <__heap_start+0x26a>
     61f: c8           	iny
     620: a9 ff        	lda	#$ff
     622: 91 16        	sta	($16),y                 ; 0x2016 <__heap_start+0x26a>
     624: a6 1a        	ldx	$1a                     ; 0x201a <__heap_start+0x26e>
     626: b4 30        	ldy	$30,x                   ; 0x2030 <__heap_start+0x284>
     628: 84 1a        	sty	$1a                     ; 0x201a <__heap_start+0x26e>
     62a: b4 31        	ldy	$31,x                   ; 0x2031 <__heap_start+0x285>
     62c: 84 1b        	sty	$1b                     ; 0x201b <__heap_start+0x26f>
     62e: b5 32        	lda	$32,x                   ; 0x2032 <__heap_start+0x286>
     630: aa           	tax
     631: 86 1c        	stx	$1c                     ; 0x201c <__heap_start+0x270>
     633: a6 19        	ldx	$19                     ; 0x2019 <__heap_start+0x26d>
     635: 8e 00 de     	stx	$de00                   ; 0xde00 <__heap_start+0xc054>
     638: 9c 01 de     	stz	$de01                   ; 0xde01 <__heap_start+0xc055>
     63b: a2 04        	ldx	#$4
     63d: 8e 02 de     	stx	$de02                   ; 0xde02 <__heap_start+0xc056>
     640: 9c 03 de     	stz	$de03                   ; 0xde03 <__heap_start+0xc057>
     643: ae 10 de     	ldx	$de10                   ; 0xde10 <__heap_start+0xc064>
     646: 86 15        	stx	$15                     ; 0x2015 <__heap_start+0x269>
     648: ae 11 de     	ldx	$de11                   ; 0xde11 <__heap_start+0xc065>
     64b: 86 16        	stx	$16                     ; 0x2016 <__heap_start+0x26a>
     64d: a9 40        	lda	#$40
     64f: 18           	clc
     650: 65 15        	adc	$15                     ; 0x2015 <__heap_start+0x269>
     652: aa           	tax
     653: a9 d8        	lda	#$d8
     655: 65 16        	adc	$16                     ; 0x2016 <__heap_start+0x26a>
     657: 86 16        	stx	$16                     ; 0x2016 <__heap_start+0x26a>
     659: ae 12 de     	ldx	$de12                   ; 0xde12 <__heap_start+0xc066>
     65c: 85 17        	sta	$17                     ; 0x2017 <__heap_start+0x26b>
     65e: ae 13 de     	ldx	$de13                   ; 0xde13 <__heap_start+0xc067>
     661: a6 19        	ldx	$19                     ; 0x2019 <__heap_start+0x26d>
     663: a5 1c        	lda	$1c                     ; 0x201c <__heap_start+0x270>
     665: 92 16        	sta	($16)                   ; 0x2016 <__heap_start+0x26a>
     667: a0 01        	ldy	#$1
     669: a5 1b        	lda	$1b                     ; 0x201b <__heap_start+0x26f>
     66b: 91 16        	sta	($16),y                 ; 0x2016 <__heap_start+0x26a>
     66d: c8           	iny
     66e: a5 1a        	lda	$1a                     ; 0x201a <__heap_start+0x26e>
     670: 91 16        	sta	($16),y                 ; 0x2016 <__heap_start+0x26a>
     672: a9 ff        	lda	#$ff
     674: c8           	iny
     675: 91 16        	sta	($16),y                 ; 0x2016 <__heap_start+0x26a>
     677: e8           	inx
     678: 18           	clc
     679: a5 18        	lda	$18                     ; 0x2018 <__heap_start+0x26c>
     67b: 69 03        	adc	#$3
     67d: a8           	tay
     67e: c9 30        	cmp	#$30
     680: f0 03        	beq	$685 <textReset+0xd9>
     682: 4c d3 05     	jmp	$5d3 <textReset+0x27>
     685: a6 01        	ldx	$1                      ; 0x2001 <__heap_start+0x255>
     687: 86 18        	stx	$18                     ; 0x2018 <__heap_start+0x26c>
     689: a6 60        	ldx	$60                     ; 0x2060 <__heap_start+0x2b4>
     68b: a4 61        	ldy	$61                     ; 0x2061 <__heap_start+0x2b5>
     68d: 8e 00 de     	stx	$de00                   ; 0xde00 <__heap_start+0xc054>
     690: 9c 01 de     	stz	$de01                   ; 0xde01 <__heap_start+0xc055>
     693: 8c 02 de     	sty	$de02                   ; 0xde02 <__heap_start+0xc056>
     696: 9c 03 de     	stz	$de03                   ; 0xde03 <__heap_start+0xc057>
     699: ae 10 de     	ldx	$de10                   ; 0xde10 <__heap_start+0xc064>
     69c: ac 11 de     	ldy	$de11                   ; 0xde11 <__heap_start+0xc065>
     69f: ad 12 de     	lda	$de12                   ; 0xde12 <__heap_start+0xc066>
     6a2: ad 13 de     	lda	$de13                   ; 0xde13 <__heap_start+0xc067>
     6a5: a9 02        	lda	#$2
     6a7: 85 01        	sta	$1                      ; 0x2001 <__heap_start+0x255>
     6a9: e0 01        	cpx	#$1
     6ab: 98           	tya
     6ac: e9 00        	sbc	#$0
     6ae: 50 02        	bvc	$6b2 <textReset+0x106>
     6b0: 49 80        	eor	#$80
     6b2: c9 00        	cmp	#$0
     6b4: 30 50        	bmi	$706 <textReset+0x15a>
     6b6: a9 20        	lda	#$20
     6b8: 86 19        	stx	$19                     ; 0x2019 <__heap_start+0x26d>
     6ba: 86 14        	stx	$14                     ; 0x2014 <__heap_start+0x268>
     6bc: 84 15        	sty	$15                     ; 0x2015 <__heap_start+0x269>
     6be: a2 00        	ldx	#$0
     6c0: 86 16        	stx	$16                     ; 0x2016 <__heap_start+0x26a>
     6c2: a2 c0        	ldx	#$c0
     6c4: 86 17        	stx	$17                     ; 0x2017 <__heap_start+0x26b>
     6c6: 80 04        	bra	$6cc <textReset+0x120>
     6c8: a6 15        	ldx	$15                     ; 0x2015 <__heap_start+0x269>
     6ca: f0 14        	beq	$6e0 <textReset+0x134>
     6cc: 92 16        	sta	($16)                   ; 0x2016 <__heap_start+0x26a>
     6ce: e6 16        	inc	$16                     ; 0x2016 <__heap_start+0x26a>
     6d0: d0 02        	bne	$6d4 <textReset+0x128>
     6d2: e6 17        	inc	$17                     ; 0x2017 <__heap_start+0x26b>
     6d4: a2 ff        	ldx	#$ff
     6d6: c6 14        	dec	$14                     ; 0x2014 <__heap_start+0x268>
     6d8: e4 14        	cpx	$14                     ; 0x2014 <__heap_start+0x268>
     6da: d0 ec        	bne	$6c8 <textReset+0x11c>
     6dc: c6 15        	dec	$15                     ; 0x2015 <__heap_start+0x269>
     6de: 80 e8        	bra	$6c8 <textReset+0x11c>
     6e0: a6 14        	ldx	$14                     ; 0x2014 <__heap_start+0x268>
     6e2: d0 e8        	bne	$6cc <textReset+0x120>
     6e4: a2 03        	ldx	#$3
     6e6: 86 01        	stx	$1                      ; 0x2001 <__heap_start+0x255>
     6e8: a6 19        	ldx	$19                     ; 0x2019 <__heap_start+0x26d>
     6ea: 80 03        	bra	$6ef <textReset+0x143>
     6ec: 98           	tya
     6ed: f0 12        	beq	$701 <textReset+0x155>
     6ef: a5 62        	lda	$62                     ; 0x2062 <__heap_start+0x2b6>
     6f1: 92 12        	sta	($12)                   ; 0x2012 <__heap_start+0x266>
     6f3: e6 12        	inc	$12                     ; 0x2012 <__heap_start+0x266>
     6f5: d0 02        	bne	$6f9 <textReset+0x14d>
     6f7: e6 13        	inc	$13                     ; 0x2013 <__heap_start+0x267>
     6f9: ca           	dex
     6fa: e0 ff        	cpx	#$ff
     6fc: d0 ee        	bne	$6ec <textReset+0x140>
     6fe: 88           	dey
     6ff: 80 eb        	bra	$6ec <textReset+0x140>
     701: 8a           	txa
     702: d0 eb        	bne	$6ef <textReset+0x143>
     704: 80 04        	bra	$70a <textReset+0x15e>
     706: a2 03        	ldx	#$3
     708: 86 01        	stx	$1                      ; 0x2001 <__heap_start+0x255>
     70a: a6 18        	ldx	$18                     ; 0x2018 <__heap_start+0x26c>
     70c: 86 01        	stx	$1                      ; 0x2001 <__heap_start+0x255>
     70e: 64 67        	stz	$67                     ; 0x2067 <__heap_start+0x2bb>
     710: 9c 14 d0     	stz	$d014                   ; 0xd014 <__heap_start+0xb268>
     713: 9c 15 d0     	stz	$d015                   ; 0xd015 <__heap_start+0xb269>
     716: 64 68        	stz	$68                     ; 0x2068 <__heap_start+0x2bc>
     718: 9c 16 d0     	stz	$d016                   ; 0xd016 <__heap_start+0xb26a>
     71b: 9c 17 d0     	stz	$d017                   ; 0xd017 <__heap_start+0xb26b>
     71e: 60           	rts

0000071f <bitmapReset>:
     71f: a2 01        	ldx	#$1
     721: 86 77        	stx	$77                     ; 0x2077 <__heap_start+0x2cb>
     723: 86 78        	stx	$78                     ; 0x2078 <__heap_start+0x2cc>
     725: a0 40        	ldy	#$40
     727: 8c 00 de     	sty	$de00                   ; 0xde00 <__heap_start+0xc054>
     72a: 8e 01 de     	stx	$de01                   ; 0xde01 <__heap_start+0xc055>
     72d: a2 f0        	ldx	#$f0
     72f: 8e 02 de     	stx	$de02                   ; 0xde02 <__heap_start+0xc056>
     732: 9c 03 de     	stz	$de03                   ; 0xde03 <__heap_start+0xc057>
     735: ae 10 de     	ldx	$de10                   ; 0xde10 <__heap_start+0xc064>
     738: 86 17        	stx	$17                     ; 0x2017 <__heap_start+0x26b>
     73a: ae 11 de     	ldx	$de11                   ; 0xde11 <__heap_start+0xc065>
     73d: 86 12        	stx	$12                     ; 0x2012 <__heap_start+0x266>
     73f: ae 12 de     	ldx	$de12                   ; 0xde12 <__heap_start+0xc066>
     742: 86 13        	stx	$13                     ; 0x2013 <__heap_start+0x267>
     744: ae 13 de     	ldx	$de13                   ; 0xde13 <__heap_start+0xc067>
     747: 86 14        	stx	$14                     ; 0x2014 <__heap_start+0x268>
     749: 64 75        	stz	$75                     ; 0x2075 <__heap_start+0x2c9>
     74b: a2 ff        	ldx	#$ff
     74d: 86 76        	stx	$76                     ; 0x2076 <__heap_start+0x2ca>
     74f: a6 12        	ldx	$12                     ; 0x2012 <__heap_start+0x266>
     751: 86 15        	stx	$15                     ; 0x2015 <__heap_start+0x269>
     753: 06 15        	asl	$15                     ; 0x2015 <__heap_start+0x269>
     755: a5 13        	lda	$13                     ; 0x2013 <__heap_start+0x267>
     757: 2a           	rol
     758: a6 14        	ldx	$14                     ; 0x2014 <__heap_start+0x268>
     75a: 86 16        	stx	$16                     ; 0x2016 <__heap_start+0x26a>
     75c: 26 16        	rol	$16                     ; 0x2016 <__heap_start+0x26a>
     75e: 06 15        	asl	$15                     ; 0x2015 <__heap_start+0x269>
     760: 2a           	rol
     761: 26 16        	rol	$16                     ; 0x2016 <__heap_start+0x26a>
     763: 06 15        	asl	$15                     ; 0x2015 <__heap_start+0x269>
     765: 2a           	rol
     766: 26 16        	rol	$16                     ; 0x2016 <__heap_start+0x26a>
     768: 85 15        	sta	$15                     ; 0x2015 <__heap_start+0x269>
     76a: 8d 00 de     	sta	$de00                   ; 0xde00 <__heap_start+0xc054>
     76d: a5 16        	lda	$16                     ; 0x2016 <__heap_start+0x26a>
     76f: 8d 01 de     	sta	$de01                   ; 0xde01 <__heap_start+0xc055>
     772: 9c 02 de     	stz	$de02                   ; 0xde02 <__heap_start+0xc056>
     775: a2 20        	ldx	#$20
     777: 8e 03 de     	stx	$de03                   ; 0xde03 <__heap_start+0xc057>
     77a: ae 10 de     	ldx	$de10                   ; 0xde10 <__heap_start+0xc064>
     77d: 86 16        	stx	$16                     ; 0x2016 <__heap_start+0x26a>
     77f: ae 11 de     	ldx	$de11                   ; 0xde11 <__heap_start+0xc065>
     782: 86 18        	stx	$18                     ; 0x2018 <__heap_start+0x26c>
     784: ac 12 de     	ldy	$de12                   ; 0xde12 <__heap_start+0xc066>
     787: ae 13 de     	ldx	$de13                   ; 0xde13 <__heap_start+0xc067>
     78a: e4 14        	cpx	$14                     ; 0x2014 <__heap_start+0x268>
     78c: d0 14        	bne	$7a2 <bitmapReset+0x83>
     78e: c4 13        	cpy	$13                     ; 0x2013 <__heap_start+0x267>
     790: d0 10        	bne	$7a2 <bitmapReset+0x83>
     792: a6 18        	ldx	$18                     ; 0x2018 <__heap_start+0x26c>
     794: e4 12        	cpx	$12                     ; 0x2012 <__heap_start+0x266>
     796: d0 0a        	bne	$7a2 <bitmapReset+0x83>
     798: a6 16        	ldx	$16                     ; 0x2016 <__heap_start+0x26a>
     79a: e4 17        	cpx	$17                     ; 0x2017 <__heap_start+0x26b>
     79c: d0 04        	bne	$7a2 <bitmapReset+0x83>
     79e: a6 15        	ldx	$15                     ; 0x2015 <__heap_start+0x269>
     7a0: 80 06        	bra	$7a8 <bitmapReset+0x89>
     7a2: a6 15        	ldx	$15                     ; 0x2015 <__heap_start+0x269>
     7a4: e8           	inx
     7a5: d0 01        	bne	$7a8 <bitmapReset+0x89>
     7a7: 1a           	inc
     7a8: 8e 00 de     	stx	$de00                   ; 0xde00 <__heap_start+0xc054>
     7ab: 8d 01 de     	sta	$de01                   ; 0xde01 <__heap_start+0xc055>
     7ae: 9c 02 de     	stz	$de02                   ; 0xde02 <__heap_start+0xc056>
     7b1: a2 20        	ldx	#$20
     7b3: 8e 03 de     	stx	$de03                   ; 0xde03 <__heap_start+0xc057>
     7b6: ae 10 de     	ldx	$de10                   ; 0xde10 <__heap_start+0xc064>
     7b9: 86 12        	stx	$12                     ; 0x2012 <__heap_start+0x266>
     7bb: ae 11 de     	ldx	$de11                   ; 0xde11 <__heap_start+0xc065>
     7be: 86 13        	stx	$13                     ; 0x2013 <__heap_start+0x267>
     7c0: ae 12 de     	ldx	$de12                   ; 0xde12 <__heap_start+0xc066>
     7c3: 86 14        	stx	$14                     ; 0x2014 <__heap_start+0x268>
     7c5: ae 13 de     	ldx	$de13                   ; 0xde13 <__heap_start+0xc067>
     7c8: 86 15        	stx	$15                     ; 0x2015 <__heap_start+0x269>
     7ca: a9 00        	lda	#$0
     7cc: 38           	sec
     7cd: e5 12        	sbc	$12                     ; 0x2012 <__heap_start+0x266>
     7cf: 85 1a        	sta	$1a                     ; 0x201a <__heap_start+0x26e>
     7d1: a9 00        	lda	#$0
     7d3: e5 13        	sbc	$13                     ; 0x2013 <__heap_start+0x267>
     7d5: 85 18        	sta	$18                     ; 0x2018 <__heap_start+0x26c>
     7d7: a9 08        	lda	#$8
     7d9: e5 14        	sbc	$14                     ; 0x2014 <__heap_start+0x268>
     7db: a8           	tay
     7dc: a9 00        	lda	#$0
     7de: e5 15        	sbc	$15                     ; 0x2015 <__heap_start+0x269>
     7e0: 85 16        	sta	$16                     ; 0x2016 <__heap_start+0x26a>
     7e2: a6 18        	ldx	$18                     ; 0x2018 <__heap_start+0x26c>
     7e4: 86 6a        	stx	$6a                     ; 0x206a <__heap_start+0x2be>
     7e6: 84 6b        	sty	$6b                     ; 0x206b <__heap_start+0x2bf>
     7e8: 85 6c        	sta	$6c                     ; 0x206c <__heap_start+0x2c0>
     7ea: a5 1a        	lda	$1a                     ; 0x201a <__heap_start+0x26e>
     7ec: 38           	sec
     7ed: e5 12        	sbc	$12                     ; 0x2012 <__heap_start+0x266>
     7ef: 85 17        	sta	$17                     ; 0x2017 <__heap_start+0x26b>
     7f1: a5 18        	lda	$18                     ; 0x2018 <__heap_start+0x26c>
     7f3: e5 13        	sbc	$13                     ; 0x2013 <__heap_start+0x267>
     7f5: 85 18        	sta	$18                     ; 0x2018 <__heap_start+0x26c>
     7f7: 98           	tya
     7f8: e5 14        	sbc	$14                     ; 0x2014 <__heap_start+0x268>
     7fa: 85 19        	sta	$19                     ; 0x2019 <__heap_start+0x26d>
     7fc: a5 16        	lda	$16                     ; 0x2016 <__heap_start+0x26a>
     7fe: e5 15        	sbc	$15                     ; 0x2015 <__heap_start+0x269>
     800: 85 16        	sta	$16                     ; 0x2016 <__heap_start+0x26a>
     802: 38           	sec
     803: a6 17        	ldx	$17                     ; 0x2017 <__heap_start+0x26b>
     805: 86 6d        	stx	$6d                     ; 0x206d <__heap_start+0x2c1>
     807: a4 18        	ldy	$18                     ; 0x2018 <__heap_start+0x26c>
     809: 84 6e        	sty	$6e                     ; 0x206e <__heap_start+0x2c2>
     80b: a6 19        	ldx	$19                     ; 0x2019 <__heap_start+0x26d>
     80d: 86 6f        	stx	$6f                     ; 0x206f <__heap_start+0x2c3>
     80f: 85 70        	sta	$70                     ; 0x2070 <__heap_start+0x2c4>
     811: a5 17        	lda	$17                     ; 0x2017 <__heap_start+0x26b>
     813: e5 12        	sbc	$12                     ; 0x2012 <__heap_start+0x266>
     815: 85 17        	sta	$17                     ; 0x2017 <__heap_start+0x26b>
     817: a5 18        	lda	$18                     ; 0x2018 <__heap_start+0x26c>
     819: e5 13        	sbc	$13                     ; 0x2013 <__heap_start+0x267>
     81b: aa           	tax
     81c: a5 19        	lda	$19                     ; 0x2019 <__heap_start+0x26d>
     81e: e5 14        	sbc	$14                     ; 0x2014 <__heap_start+0x268>
     820: 85 13        	sta	$13                     ; 0x2013 <__heap_start+0x267>
     822: a5 16        	lda	$16                     ; 0x2016 <__heap_start+0x26a>
     824: e5 15        	sbc	$15                     ; 0x2015 <__heap_start+0x269>
     826: 85 12        	sta	$12                     ; 0x2012 <__heap_start+0x266>
     828: a5 17        	lda	$17                     ; 0x2017 <__heap_start+0x26b>
     82a: 85 71        	sta	$71                     ; 0x2071 <__heap_start+0x2c5>
     82c: 86 72        	stx	$72                     ; 0x2072 <__heap_start+0x2c6>
     82e: a6 13        	ldx	$13                     ; 0x2013 <__heap_start+0x267>
     830: 86 73        	stx	$73                     ; 0x2073 <__heap_start+0x2c7>
     832: a6 12        	ldx	$12                     ; 0x2012 <__heap_start+0x266>
     834: 86 74        	stx	$74                     ; 0x2074 <__heap_start+0x2c8>
     836: a6 1a        	ldx	$1a                     ; 0x201a <__heap_start+0x26e>
     838: 86 69        	stx	$69                     ; 0x2069 <__heap_start+0x2bd>
     83a: 64 79        	stz	$79                     ; 0x2079 <__heap_start+0x2cd>
     83c: 64 7a        	stz	$7a                     ; 0x207a <__heap_start+0x2ce>
     83e: 64 7b        	stz	$7b                     ; 0x207b <__heap_start+0x2cf>
     840: 8e 01 d1     	stx	$d101                   ; 0xd101 <__heap_start+0xb355>
     843: a6 6a        	ldx	$6a                     ; 0x206a <__heap_start+0x2be>
     845: 8e 02 d1     	stx	$d102                   ; 0xd102 <__heap_start+0xb356>
     848: a6 6b        	ldx	$6b                     ; 0x206b <__heap_start+0x2bf>
     84a: 8e 03 d1     	stx	$d103                   ; 0xd103 <__heap_start+0xb357>
     84d: a6 6d        	ldx	$6d                     ; 0x206d <__heap_start+0x2c1>
     84f: 8e 09 d1     	stx	$d109                   ; 0xd109 <__heap_start+0xb35d>
     852: a6 6e        	ldx	$6e                     ; 0x206e <__heap_start+0x2c2>
     854: 8e 0a d1     	stx	$d10a                   ; 0xd10a <__heap_start+0xb35e>
     857: a6 6f        	ldx	$6f                     ; 0x206f <__heap_start+0x2c3>
     859: 8e 0b d1     	stx	$d10b                   ; 0xd10b <__heap_start+0xb35f>
     85c: a6 71        	ldx	$71                     ; 0x2071 <__heap_start+0x2c5>
     85e: 8e 11 d1     	stx	$d111                   ; 0xd111 <__heap_start+0xb365>
     861: a6 72        	ldx	$72                     ; 0x2072 <__heap_start+0x2c6>
     863: 8e 12 d1     	stx	$d112                   ; 0xd112 <__heap_start+0xb366>
     866: a6 73        	ldx	$73                     ; 0x2073 <__heap_start+0x2c7>
     868: 8e 13 d1     	stx	$d113                   ; 0xd113 <__heap_start+0xb367>
     86b: 9c 00 d1     	stz	$d100                   ; 0xd100 <__heap_start+0xb354>
     86e: 9c 08 d1     	stz	$d108                   ; 0xd108 <__heap_start+0xb35c>
     871: 9c 10 d1     	stz	$d110                   ; 0xd110 <__heap_start+0xb364>
     874: 60           	rts

00000875 <main>:
     875: 20 31 04     	jsr	$431 <f256Init>
     878: 20 99 08     	jsr	$899 <f256main>
     87b: 78           	sei
     87c: a2 07        	ldx	#$7
     87e: 86 0f        	stx	$f                      ; 0x200f <__heap_start+0x263>
     880: a2 de        	ldx	#$de
     882: 8e a2 d6     	stx	$d6a2                   ; 0xd6a2 <__heap_start+0xb8f6>
     885: a2 ad        	ldx	#$ad
     887: 8e a3 d6     	stx	$d6a3                   ; 0xd6a3 <__heap_start+0xb8f7>
     88a: a2 f0        	ldx	#$f0
     88c: 8e a0 d6     	stx	$d6a0                   ; 0xd6a0 <__heap_start+0xb8f4>
     88f: 9c a0 d6     	stz	$d6a0                   ; 0xd6a0 <__heap_start+0xb8f4>
     892: 6c fc ff     	jmp	($fffc)                 ; 0xfffc <__heap_start+0xe250>
     895: a2 00        	ldx	#$0
     897: 8a           	txa
     898: 60           	rts

00000899 <f256main>:
     899: 18           	clc
     89a: a5 10        	lda	$10                     ; 0x2010 <__heap_start+0x264>
     89c: 69 ff        	adc	#$ff
     89e: 85 10        	sta	$10                     ; 0x2010 <__heap_start+0x264>
     8a0: a5 11        	lda	$11                     ; 0x2011 <__heap_start+0x265>
     8a2: 69 ff        	adc	#$ff
     8a4: 85 11        	sta	$11                     ; 0x2011 <__heap_start+0x265>
     8a6: 64 01        	stz	$1                      ; 0x2001 <__heap_start+0x255>
     8a8: a2 0f        	ldx	#$f
     8aa: 8e 00 d0     	stx	$d000                   ; 0xd000 <__heap_start+0xb254>
     8ad: a2 15        	ldx	#$15
     8af: 8e 01 d0     	stx	$d001                   ; 0xd001 <__heap_start+0xb255>
     8b2: 9c 0d d0     	stz	$d00d                   ; 0xd00d <__heap_start+0xb261>
     8b5: 9c 0e d0     	stz	$d00e                   ; 0xd00e <__heap_start+0xb262>
     8b8: 9c 0f d0     	stz	$d00f                   ; 0xd00f <__heap_start+0xb263>
     8bb: ad 02 d0     	lda	$d002                   ; 0xd002 <__heap_start+0xb256>
     8be: 29 f0        	and	#$f0
     8c0: 8d 02 d0     	sta	$d002                   ; 0xd002 <__heap_start+0xb256>
     8c3: a2 01        	ldx	#$1
     8c5: 86 01        	stx	$1                      ; 0x2001 <__heap_start+0x255>
     8c7: ca           	dex
     8c8: a0 00        	ldy	#$0
     8ca: 80 08        	bra	$8d4 <f256main+0x3b>
     8cc: c8           	iny
     8cd: c0 03        	cpy	#$3
     8cf: d0 03        	bne	$8d4 <f256main+0x3b>
     8d1: 4c 32 09     	jmp	$932 <f256main+0x99>
     8d4: 8a           	txa
     8d5: 18           	clc
     8d6: 69 00        	adc	#$0
     8d8: 5a           	phy
     8d9: a0 01        	ldy	#$1
     8db: b0 02        	bcs	$8df <f256main+0x46>
     8dd: a0 00        	ldy	#$0
     8df: 84 16        	sty	$16                     ; 0x2016 <__heap_start+0x26a>
     8e1: 7a           	ply
     8e2: 85 15        	sta	$15                     ; 0x2015 <__heap_start+0x269>
     8e4: 98           	tya
     8e5: 69 fa        	adc	#$fa
     8e7: 85 13        	sta	$13                     ; 0x2013 <__heap_start+0x267>
     8e9: a9 00        	lda	#$0
     8eb: 69 01        	adc	#$1
     8ed: 5a           	phy
     8ee: a4 13        	ldy	$13                     ; 0x2013 <__heap_start+0x267>
     8f0: 84 12        	sty	$12                     ; 0x2012 <__heap_start+0x266>
     8f2: 06 12        	asl	$12                     ; 0x2012 <__heap_start+0x266>
     8f4: 2a           	rol
     8f5: 06 12        	asl	$12                     ; 0x2012 <__heap_start+0x266>
     8f7: 2a           	rol
     8f8: 06 12        	asl	$12                     ; 0x2012 <__heap_start+0x266>
     8fa: 2a           	rol
     8fb: 86 14        	stx	$14                     ; 0x2014 <__heap_start+0x268>
     8fd: a6 0f        	ldx	$f                      ; 0x200f <__heap_start+0x263>
     8ff: 78           	sei
     900: 85 0f        	sta	$f                      ; 0x200f <__heap_start+0x263>
     902: a5 13        	lda	$13                     ; 0x2013 <__heap_start+0x267>
     904: 09 e0        	ora	#$e0
     906: a4 15        	ldy	$15                     ; 0x2015 <__heap_start+0x269>
     908: 84 12        	sty	$12                     ; 0x2012 <__heap_start+0x266>
     90a: 7a           	ply
     90b: 85 13        	sta	$13                     ; 0x2013 <__heap_start+0x267>
     90d: b2 12        	lda	($12)                   ; 0x2012 <__heap_start+0x266>
     90f: 85 17        	sta	$17                     ; 0x2017 <__heap_start+0x26b>
     911: 86 0f        	stx	$f                      ; 0x200f <__heap_start+0x263>
     913: a6 14        	ldx	$14                     ; 0x2014 <__heap_start+0x268>
     915: 98           	tya
     916: 5a           	phy
     917: a4 16        	ldy	$16                     ; 0x2016 <__heap_start+0x26a>
     919: c0 01        	cpy	#$1
     91b: 7a           	ply
     91c: 69 d0        	adc	#$d0
     91e: 58           	cli
     91f: 85 13        	sta	$13                     ; 0x2013 <__heap_start+0x267>
     921: a5 17        	lda	$17                     ; 0x2017 <__heap_start+0x26b>
     923: 92 12        	sta	($12)                   ; 0x2012 <__heap_start+0x266>
     925: e8           	inx
     926: d0 03        	bne	$92b <f256main+0x92>
     928: 4c cc 08     	jmp	$8cc <f256main+0x33>
     92b: c0 03        	cpy	#$3
     92d: f0 03        	beq	$932 <f256main+0x99>
     92f: 4c d4 08     	jmp	$8d4 <f256main+0x3b>
     932: e0 ff        	cpx	#$ff
     934: f0 03        	beq	$939 <f256main+0xa0>
     936: 4c d4 08     	jmp	$8d4 <f256main+0x3b>
     939: 64 01        	stz	$1                      ; 0x2001 <__heap_start+0x255>
     93b: 64 69        	stz	$69                     ; 0x2069 <__heap_start+0x2bd>
     93d: 64 6a        	stz	$6a                     ; 0x206a <__heap_start+0x2be>
     93f: a2 20        	ldx	#$20
     941: 86 6b        	stx	$6b                     ; 0x206b <__heap_start+0x2bf>
     943: 64 6c        	stz	$6c                     ; 0x206c <__heap_start+0x2c0>
     945: 9c 01 d1     	stz	$d101                   ; 0xd101 <__heap_start+0xb355>
     948: 9c 02 d1     	stz	$d102                   ; 0xd102 <__heap_start+0xb356>
     94b: 8e 03 d1     	stx	$d103                   ; 0xd103 <__heap_start+0xb357>
     94e: 64 75        	stz	$75                     ; 0x2075 <__heap_start+0x2c9>
     950: 64 79        	stz	$79                     ; 0x2079 <__heap_start+0x2cd>
     952: ad 00 d1     	lda	$d100                   ; 0xd100 <__heap_start+0xb354>
     955: 29 f9        	and	#$f9
     957: 8d 00 d1     	sta	$d100                   ; 0xd100 <__heap_start+0xb354>
     95a: a9 01        	lda	#$1
     95c: 05 79        	ora	$79                     ; 0x2079 <__heap_start+0x2cd>
     95e: 8d 00 d1     	sta	$d100                   ; 0xd100 <__heap_start+0xb354>
     961: a5 00        	lda	$0                      ; 0x2000 <__heap_start+0x254>
     963: a6 01        	ldx	$1                      ; 0x2001 <__heap_start+0x255>
     965: 09 04        	ora	#$4
     967: 85 00        	sta	$0                      ; 0x2000 <__heap_start+0x254>
     969: 8a           	txa
     96a: 09 1c        	ora	#$1c
     96c: 85 01        	sta	$1                      ; 0x2001 <__heap_start+0x255>
     96e: a2 a3        	ldx	#$a3
     970: 86 12        	stx	$12                     ; 0x2012 <__heap_start+0x266>
     972: a2 1d        	ldx	#$1d
     974: 86 13        	stx	$13                     ; 0x2013 <__heap_start+0x267>
     976: 20 e6 1b     	jsr	$1be6 <printf>
     979: 18           	clc
     97a: a6 10        	ldx	$10                     ; 0x2010 <__heap_start+0x264>
     97c: 86 12        	stx	$12                     ; 0x2012 <__heap_start+0x266>
     97e: a2 01        	ldx	#$1
     980: b0 02        	bcs	$984 <f256main+0xeb>
     982: a2 00        	ldx	#$0
     984: 86 16        	stx	$16                     ; 0x2016 <__heap_start+0x26a>
     986: a2 aa        	ldx	#$aa
     988: 86 14        	stx	$14                     ; 0x2014 <__heap_start+0x268>
     98a: a2 1d        	ldx	#$1d
     98c: 86 15        	stx	$15                     ; 0x2015 <__heap_start+0x269>
     98e: 64 c7        	stz	$c7                     ; 0x20c7 <__heap_start+0x31b>
     990: a6 11        	ldx	$11                     ; 0x2011 <__heap_start+0x265>
     992: 86 13        	stx	$13                     ; 0x2013 <__heap_start+0x267>
     994: 20 00 ff     	jsr	$ff00 <__heap_start+0xe154>
     997: 92 12        	sta	($12)                   ; 0x2012 <__heap_start+0x266>
     999: a9 00        	lda	#$0
     99b: 6a           	ror
     99c: 85 14        	sta	$14                     ; 0x2014 <__heap_start+0x268>
     99e: a6 c7        	ldx	$c7                     ; 0x20c7 <__heap_start+0x31b>
     9a0: e0 08        	cpx	#$8
     9a2: d0 ea        	bne	$98e <f256main+0xf5>
     9a4: a6 cb        	ldx	$cb                     ; 0x20cb <__heap_start+0x31f>
     9a6: e0 92        	cpx	#$92
     9a8: d0 e4        	bne	$98e <f256main+0xf5>
     9aa: a2 00        	ldx	#$0
     9ac: 8a           	txa
     9ad: 48           	pha
     9ae: 18           	clc
     9af: a5 10        	lda	$10                     ; 0x2010 <__heap_start+0x264>
     9b1: 69 01        	adc	#$1
     9b3: 85 10        	sta	$10                     ; 0x2010 <__heap_start+0x264>
     9b5: a5 11        	lda	$11                     ; 0x2011 <__heap_start+0x265>
     9b7: 69 00        	adc	#$0
     9b9: 85 11        	sta	$11                     ; 0x2011 <__heap_start+0x265>
     9bb: 68           	pla
     9bc: 60           	rts

000009bd <textPrint>:
     9bd: a6 12        	ldx	$12                     ; 0x2012 <__heap_start+0x266>
     9bf: 86 ce        	stx	$ce                     ; 0x20ce <__heap_start+0x322>
     9c1: a6 13        	ldx	$13                     ; 0x2013 <__heap_start+0x267>
     9c3: 86 cf        	stx	$cf                     ; 0x20cf <__heap_start+0x323>
     9c5: a2 00        	ldx	#$0
     9c7: 86 d0        	stx	$d0                     ; 0x20d0 <__heap_start+0x324>
     9c9: a2 c0        	ldx	#$c0
     9cb: 86 d1        	stx	$d1                     ; 0x20d1 <__heap_start+0x325>
     9cd: a6 01        	ldx	$1                      ; 0x2001 <__heap_start+0x255>
     9cf: 86 d5        	stx	$d5                     ; 0x20d5 <__heap_start+0x329>
     9d1: a6 60        	ldx	$60                     ; 0x2060 <__heap_start+0x2b4>
     9d3: a4 68        	ldy	$68                     ; 0x2068 <__heap_start+0x2bc>
     9d5: 8e 00 de     	stx	$de00                   ; 0xde00 <__heap_start+0xc054>
     9d8: 9c 01 de     	stz	$de01                   ; 0xde01 <__heap_start+0xc055>
     9db: 8c 02 de     	sty	$de02                   ; 0xde02 <__heap_start+0xc056>
     9de: 9c 03 de     	stz	$de03                   ; 0xde03 <__heap_start+0xc057>
     9e1: ae 10 de     	ldx	$de10                   ; 0xde10 <__heap_start+0xc064>
     9e4: 86 12        	stx	$12                     ; 0x2012 <__heap_start+0x266>
     9e6: ac 11 de     	ldy	$de11                   ; 0xde11 <__heap_start+0xc065>
     9e9: ad 12 de     	lda	$de12                   ; 0xde12 <__heap_start+0xc066>
     9ec: ae 13 de     	ldx	$de13                   ; 0xde13 <__heap_start+0xc067>
     9ef: 86 13        	stx	$13                     ; 0x2013 <__heap_start+0x267>
     9f1: 9c 08 de     	stz	$de08                   ; 0xde08 <__heap_start+0xc05c>
     9f4: a2 c0        	ldx	#$c0
     9f6: 8e 09 de     	stx	$de09                   ; 0xde09 <__heap_start+0xc05d>
     9f9: 9c 0a de     	stz	$de0a                   ; 0xde0a <__heap_start+0xc05e>
     9fc: 9c 0b de     	stz	$de0b                   ; 0xde0b <__heap_start+0xc05f>
     9ff: a6 12        	ldx	$12                     ; 0x2012 <__heap_start+0x266>
     a01: 8e 0c de     	stx	$de0c                   ; 0xde0c <__heap_start+0xc060>
     a04: 8c 0d de     	sty	$de0d                   ; 0xde0d <__heap_start+0xc061>
     a07: 8d 0e de     	sta	$de0e                   ; 0xde0e <__heap_start+0xc062>
     a0a: a6 13        	ldx	$13                     ; 0x2013 <__heap_start+0x267>
     a0c: 8e 0f de     	stx	$de0f                   ; 0xde0f <__heap_start+0xc063>
     a0f: ae 18 de     	ldx	$de18                   ; 0xde18 <__heap_start+0xc06c>
     a12: ac 19 de     	ldy	$de19                   ; 0xde19 <__heap_start+0xc06d>
     a15: ad 1a de     	lda	$de1a                   ; 0xde1a <__heap_start+0xc06e>
     a18: ad 1b de     	lda	$de1b                   ; 0xde1b <__heap_start+0xc06f>
     a1b: 86 12        	stx	$12                     ; 0x2012 <__heap_start+0x266>
     a1d: 84 13        	sty	$13                     ; 0x2013 <__heap_start+0x267>
     a1f: 64 d2        	stz	$d2                     ; 0x20d2 <__heap_start+0x326>
     a21: 64 d3        	stz	$d3                     ; 0x20d3 <__heap_start+0x327>
     a23: 80 00        	bra	$a25 <textPrint+0x68>
     a25: a5 ce        	lda	$ce                     ; 0x20ce <__heap_start+0x322>
     a27: 18           	clc
     a28: 65 d2        	adc	$d2                     ; 0x20d2 <__heap_start+0x326>
     a2a: 85 14        	sta	$14                     ; 0x2014 <__heap_start+0x268>
     a2c: a5 cf        	lda	$cf                     ; 0x20cf <__heap_start+0x323>
     a2e: 65 d3        	adc	$d3                     ; 0x20d3 <__heap_start+0x327>
     a30: 85 15        	sta	$15                     ; 0x2015 <__heap_start+0x269>
     a32: b2 14        	lda	($14)                   ; 0x2014 <__heap_start+0x268>
     a34: c9 0a        	cmp	#$a
     a36: f0 29        	beq	$a61 <textPrint+0xa4>
     a38: c9 0d        	cmp	#$d
     a3a: f0 25        	beq	$a61 <textPrint+0xa4>
     a3c: aa           	tax
     a3d: d0 03        	bne	$a42 <textPrint+0x85>
     a3f: 4c 00 0c     	jmp	$c00 <textPrint+0x243>
     a42: a2 03        	ldx	#$3
     a44: 86 01        	stx	$1                      ; 0x2001 <__heap_start+0x255>
     a46: a5 62        	lda	$62                     ; 0x2062 <__heap_start+0x2b6>
     a48: a4 67        	ldy	$67                     ; 0x2067 <__heap_start+0x2bb>
     a4a: 91 12        	sta	($12),y                 ; 0x2012 <__heap_start+0x266>
     a4c: ca           	dex
     a4d: 86 01        	stx	$1                      ; 0x2001 <__heap_start+0x255>
     a4f: b2 14        	lda	($14)                   ; 0x2014 <__heap_start+0x268>
     a51: a4 67        	ldy	$67                     ; 0x2067 <__heap_start+0x2bb>
     a53: 91 12        	sta	($12),y                 ; 0x2012 <__heap_start+0x266>
     a55: a6 67        	ldx	$67                     ; 0x2067 <__heap_start+0x2bb>
     a57: e8           	inx
     a58: e6 67        	inc	$67                     ; 0x2067 <__heap_start+0x2bb>
     a5a: e4 60        	cpx	$60                     ; 0x2060 <__heap_start+0x2b4>
     a5c: f0 03        	beq	$a61 <textPrint+0xa4>
     a5e: 4c 32 0b     	jmp	$b32 <textPrint+0x175>
     a61: 64 67        	stz	$67                     ; 0x2067 <__heap_start+0x2bb>
     a63: a6 68        	ldx	$68                     ; 0x2068 <__heap_start+0x2bc>
     a65: e8           	inx
     a66: e6 68        	inc	$68                     ; 0x2068 <__heap_start+0x2bc>
     a68: a4 61        	ldy	$61                     ; 0x2061 <__heap_start+0x2b5>
     a6a: 84 d4        	sty	$d4                     ; 0x20d4 <__heap_start+0x328>
     a6c: e4 d4        	cpx	$d4                     ; 0x20d4 <__heap_start+0x328>
     a6e: f0 03        	beq	$a73 <textPrint+0xb6>
     a70: 4c 25 0b     	jmp	$b25 <textPrint+0x168>
     a73: a6 60        	ldx	$60                     ; 0x2060 <__heap_start+0x2b4>
     a75: 86 d8        	stx	$d8                     ; 0x20d8 <__heap_start+0x32c>
     a77: 98           	tya
     a78: a2 00        	ldx	#$0
     a7a: 3a           	dec
     a7b: c9 ff        	cmp	#$ff
     a7d: d0 01        	bne	$a80 <textPrint+0xc3>
     a7f: ca           	dex
     a80: a4 d8        	ldy	$d8                     ; 0x20d8 <__heap_start+0x32c>
     a82: 84 12        	sty	$12                     ; 0x2012 <__heap_start+0x266>
     a84: 64 13        	stz	$13                     ; 0x2013 <__heap_start+0x267>
     a86: 20 37 1d     	jsr	$1d37 <__mulhi3>
     a89: 85 d6        	sta	$d6                     ; 0x20d6 <__heap_start+0x32a>
     a8b: 86 d7        	stx	$d7                     ; 0x20d7 <__heap_start+0x32b>
     a8d: a2 03        	ldx	#$3
     a8f: 86 01        	stx	$1                      ; 0x2001 <__heap_start+0x255>
     a91: 38           	sec
     a92: a9 01        	lda	#$1
     a94: e5 d4        	sbc	$d4                     ; 0x20d4 <__heap_start+0x328>
     a96: a8           	tay
     a97: 64 d4        	stz	$d4                     ; 0x20d4 <__heap_start+0x328>
     a99: a9 00        	lda	#$0
     a9b: e9 00        	sbc	#$0
     a9d: a6 d8        	ldx	$d8                     ; 0x20d8 <__heap_start+0x32c>
     a9f: 86 12        	stx	$12                     ; 0x2012 <__heap_start+0x266>
     aa1: 64 13        	stz	$13                     ; 0x2013 <__heap_start+0x267>
     aa3: aa           	tax
     aa4: 98           	tya
     aa5: 20 37 1d     	jsr	$1d37 <__mulhi3>
     aa8: 85 1a        	sta	$1a                     ; 0x201a <__heap_start+0x26e>
     aaa: a9 00        	lda	#$0
     aac: 80 1d        	bra	$acb <textPrint+0x10e>
     aae: 64 14        	stz	$14                     ; 0x2014 <__heap_start+0x268>
     ab0: 64 15        	stz	$15                     ; 0x2015 <__heap_start+0x269>
     ab2: a0 02        	ldy	#$2
     ab4: 84 01        	sty	$1                      ; 0x2001 <__heap_start+0x255>
     ab6: a5 12        	lda	$12                     ; 0x2012 <__heap_start+0x266>
     ab8: e6 d4        	inc	$d4                     ; 0x20d4 <__heap_start+0x328>
     aba: d0 01        	bne	$abd <textPrint+0x100>
     abc: 1a           	inc
     abd: a4 12        	ldy	$12                     ; 0x2012 <__heap_start+0x266>
     abf: f0 03        	beq	$ac4 <textPrint+0x107>
     ac1: 4c 3e 0b     	jmp	$b3e <textPrint+0x181>
     ac4: a4 13        	ldy	$13                     ; 0x2013 <__heap_start+0x267>
     ac6: f0 03        	beq	$acb <textPrint+0x10e>
     ac8: 4c 3e 0b     	jmp	$b3e <textPrint+0x181>
     acb: 85 12        	sta	$12                     ; 0x2012 <__heap_start+0x266>
     acd: a4 d4        	ldy	$d4                     ; 0x20d4 <__heap_start+0x328>
     acf: 84 13        	sty	$13                     ; 0x2013 <__heap_start+0x267>
     ad1: a4 d6        	ldy	$d6                     ; 0x20d6 <__heap_start+0x32a>
     ad3: c0 01        	cpy	#$1
     ad5: a5 d7        	lda	$d7                     ; 0x20d7 <__heap_start+0x32b>
     ad7: e9 00        	sbc	#$0
     ad9: 50 02        	bvc	$add <textPrint+0x120>
     adb: 49 80        	eor	#$80
     add: a8           	tay
     ade: 30 ce        	bmi	$aae <textPrint+0xf1>
     ae0: 64 15        	stz	$15                     ; 0x2015 <__heap_start+0x269>
     ae2: a0 00        	ldy	#$0
     ae4: 84 18        	sty	$18                     ; 0x2018 <__heap_start+0x26c>
     ae6: a0 c0        	ldy	#$c0
     ae8: 84 19        	sty	$19                     ; 0x2019 <__heap_start+0x26d>
     aea: 64 17        	stz	$17                     ; 0x2017 <__heap_start+0x26b>
     aec: a4 17        	ldy	$17                     ; 0x2017 <__heap_start+0x26b>
     aee: 84 14        	sty	$14                     ; 0x2014 <__heap_start+0x268>
     af0: a4 15        	ldy	$15                     ; 0x2015 <__heap_start+0x269>
     af2: 84 16        	sty	$16                     ; 0x2016 <__heap_start+0x26a>
     af4: a4 60        	ldy	$60                     ; 0x2060 <__heap_start+0x2b4>
     af6: b1 18        	lda	($18),y                 ; 0x2018 <__heap_start+0x26c>
     af8: 92 18        	sta	($18)                   ; 0x2018 <__heap_start+0x26c>
     afa: a0 ff        	ldy	#$ff
     afc: c6 15        	dec	$15                     ; 0x2015 <__heap_start+0x269>
     afe: c4 15        	cpy	$15                     ; 0x2015 <__heap_start+0x269>
     b00: d0 02        	bne	$b04 <textPrint+0x147>
     b02: c6 17        	dec	$17                     ; 0x2017 <__heap_start+0x26b>
     b04: e6 18        	inc	$18                     ; 0x2018 <__heap_start+0x26c>
     b06: d0 02        	bne	$b0a <textPrint+0x14d>
     b08: e6 19        	inc	$19                     ; 0x2019 <__heap_start+0x26d>
     b0a: e4 17        	cpx	$17                     ; 0x2017 <__heap_start+0x26b>
     b0c: d0 de        	bne	$aec <textPrint+0x12f>
     b0e: a4 1a        	ldy	$1a                     ; 0x201a <__heap_start+0x26e>
     b10: c4 15        	cpy	$15                     ; 0x2015 <__heap_start+0x269>
     b12: d0 d8        	bne	$aec <textPrint+0x12f>
     b14: 38           	sec
     b15: a9 01        	lda	#$1
     b17: e5 16        	sbc	$16                     ; 0x2016 <__heap_start+0x26a>
     b19: a8           	tay
     b1a: a9 00        	lda	#$0
     b1c: e5 14        	sbc	$14                     ; 0x2014 <__heap_start+0x268>
     b1e: 84 14        	sty	$14                     ; 0x2014 <__heap_start+0x268>
     b20: 85 15        	sta	$15                     ; 0x2015 <__heap_start+0x269>
     b22: 4c b2 0a     	jmp	$ab2 <textPrint+0xf5>
     b25: a5 12        	lda	$12                     ; 0x2012 <__heap_start+0x266>
     b27: 18           	clc
     b28: 65 60        	adc	$60                     ; 0x2060 <__heap_start+0x2b4>
     b2a: 85 12        	sta	$12                     ; 0x2012 <__heap_start+0x266>
     b2c: a5 13        	lda	$13                     ; 0x2013 <__heap_start+0x267>
     b2e: 69 00        	adc	#$0
     b30: 85 13        	sta	$13                     ; 0x2013 <__heap_start+0x267>
     b32: e6 d2        	inc	$d2                     ; 0x20d2 <__heap_start+0x326>
     b34: f0 03        	beq	$b39 <textPrint+0x17c>
     b36: 4c 25 0a     	jmp	$a25 <textPrint+0x68>
     b39: e6 d3        	inc	$d3                     ; 0x20d3 <__heap_start+0x327>
     b3b: 4c 25 0a     	jmp	$a25 <textPrint+0x68>
     b3e: a9 00        	lda	#$0
     b40: 18           	clc
     b41: 65 14        	adc	$14                     ; 0x2014 <__heap_start+0x268>
     b43: 85 12        	sta	$12                     ; 0x2012 <__heap_start+0x266>
     b45: a9 c0        	lda	#$c0
     b47: 65 15        	adc	$15                     ; 0x2015 <__heap_start+0x269>
     b49: 85 13        	sta	$13                     ; 0x2013 <__heap_start+0x267>
     b4b: a2 03        	ldx	#$3
     b4d: 86 01        	stx	$1                      ; 0x2001 <__heap_start+0x255>
     b4f: a6 60        	ldx	$60                     ; 0x2060 <__heap_start+0x2b4>
     b51: f0 37        	beq	$b8a <textPrint+0x1cd>
     b53: a9 01        	lda	#$1
     b55: 18           	clc
     b56: 65 14        	adc	$14                     ; 0x2014 <__heap_start+0x268>
     b58: 85 17        	sta	$17                     ; 0x2017 <__heap_start+0x26b>
     b5a: a9 c0        	lda	#$c0
     b5c: 65 15        	adc	$15                     ; 0x2015 <__heap_start+0x269>
     b5e: a8           	tay
     b5f: 64 16        	stz	$16                     ; 0x2016 <__heap_start+0x26a>
     b61: a6 12        	ldx	$12                     ; 0x2012 <__heap_start+0x266>
     b63: 86 18        	stx	$18                     ; 0x2018 <__heap_start+0x26c>
     b65: a6 13        	ldx	$13                     ; 0x2013 <__heap_start+0x267>
     b67: 86 19        	stx	$19                     ; 0x2019 <__heap_start+0x26d>
     b69: a5 17        	lda	$17                     ; 0x2017 <__heap_start+0x26b>
     b6b: 18           	clc
     b6c: 65 16        	adc	$16                     ; 0x2016 <__heap_start+0x26a>
     b6e: 85 1a        	sta	$1a                     ; 0x201a <__heap_start+0x26e>
     b70: 98           	tya
     b71: 69 00        	adc	#$0
     b73: 85 1b        	sta	$1b                     ; 0x201b <__heap_start+0x26f>
     b75: a5 62        	lda	$62                     ; 0x2062 <__heap_start+0x2b6>
     b77: 92 18        	sta	($18)                   ; 0x2018 <__heap_start+0x26c>
     b79: a6 16        	ldx	$16                     ; 0x2016 <__heap_start+0x26a>
     b7b: e8           	inx
     b7c: 86 16        	stx	$16                     ; 0x2016 <__heap_start+0x26a>
     b7e: e4 60        	cpx	$60                     ; 0x2060 <__heap_start+0x2b4>
     b80: a6 1a        	ldx	$1a                     ; 0x201a <__heap_start+0x26e>
     b82: 86 18        	stx	$18                     ; 0x2018 <__heap_start+0x26c>
     b84: a6 1b        	ldx	$1b                     ; 0x201b <__heap_start+0x26f>
     b86: 86 19        	stx	$19                     ; 0x2019 <__heap_start+0x26d>
     b88: 90 df        	bcc	$b69 <textPrint+0x1ac>
     b8a: a2 02        	ldx	#$2
     b8c: 86 01        	stx	$1                      ; 0x2001 <__heap_start+0x255>
     b8e: a6 60        	ldx	$60                     ; 0x2060 <__heap_start+0x2b4>
     b90: f0 2f        	beq	$bc1 <textPrint+0x204>
     b92: a9 01        	lda	#$1
     b94: 18           	clc
     b95: 65 14        	adc	$14                     ; 0x2014 <__heap_start+0x268>
     b97: 85 18        	sta	$18                     ; 0x2018 <__heap_start+0x26c>
     b99: a9 c0        	lda	#$c0
     b9b: 65 15        	adc	$15                     ; 0x2015 <__heap_start+0x269>
     b9d: a8           	tay
     b9e: 64 14        	stz	$14                     ; 0x2014 <__heap_start+0x268>
     ba0: a5 18        	lda	$18                     ; 0x2018 <__heap_start+0x26c>
     ba2: 18           	clc
     ba3: 65 14        	adc	$14                     ; 0x2014 <__heap_start+0x268>
     ba5: 85 16        	sta	$16                     ; 0x2016 <__heap_start+0x26a>
     ba7: 98           	tya
     ba8: 69 00        	adc	#$0
     baa: 85 17        	sta	$17                     ; 0x2017 <__heap_start+0x26b>
     bac: a9 20        	lda	#$20
     bae: 92 12        	sta	($12)                   ; 0x2012 <__heap_start+0x266>
     bb0: a6 14        	ldx	$14                     ; 0x2014 <__heap_start+0x268>
     bb2: e8           	inx
     bb3: 86 14        	stx	$14                     ; 0x2014 <__heap_start+0x268>
     bb5: e4 60        	cpx	$60                     ; 0x2060 <__heap_start+0x2b4>
     bb7: a6 16        	ldx	$16                     ; 0x2016 <__heap_start+0x26a>
     bb9: 86 12        	stx	$12                     ; 0x2012 <__heap_start+0x266>
     bbb: a6 17        	ldx	$17                     ; 0x2017 <__heap_start+0x26b>
     bbd: 86 13        	stx	$13                     ; 0x2013 <__heap_start+0x267>
     bbf: 90 df        	bcc	$ba0 <textPrint+0x1e3>
     bc1: c6 68        	dec	$68                     ; 0x2068 <__heap_start+0x2bc>
     bc3: a6 61        	ldx	$61                     ; 0x2061 <__heap_start+0x2b5>
     bc5: a0 00        	ldy	#$0
     bc7: ca           	dex
     bc8: e0 ff        	cpx	#$ff
     bca: d0 01        	bne	$bcd <textPrint+0x210>
     bcc: 88           	dey
     bcd: 9c 08 de     	stz	$de08                   ; 0xde08 <__heap_start+0xc05c>
     bd0: a9 c0        	lda	#$c0
     bd2: 8d 09 de     	sta	$de09                   ; 0xde09 <__heap_start+0xc05d>
     bd5: 9c 0a de     	stz	$de0a                   ; 0xde0a <__heap_start+0xc05e>
     bd8: 9c 0b de     	stz	$de0b                   ; 0xde0b <__heap_start+0xc05f>
     bdb: 8e 0c de     	stx	$de0c                   ; 0xde0c <__heap_start+0xc060>
     bde: 8c 0d de     	sty	$de0d                   ; 0xde0d <__heap_start+0xc061>
     be1: 9c 0e de     	stz	$de0e                   ; 0xde0e <__heap_start+0xc062>
     be4: 9c 0f de     	stz	$de0f                   ; 0xde0f <__heap_start+0xc063>
     be7: ae 18 de     	ldx	$de18                   ; 0xde18 <__heap_start+0xc06c>
     bea: ac 19 de     	ldy	$de19                   ; 0xde19 <__heap_start+0xc06d>
     bed: ad 1a de     	lda	$de1a                   ; 0xde1a <__heap_start+0xc06e>
     bf0: ad 1b de     	lda	$de1b                   ; 0xde1b <__heap_start+0xc06f>
     bf3: 86 12        	stx	$12                     ; 0x2012 <__heap_start+0x266>
     bf5: 84 13        	sty	$13                     ; 0x2013 <__heap_start+0x267>
     bf7: e6 d2        	inc	$d2                     ; 0x20d2 <__heap_start+0x326>
     bf9: d0 02        	bne	$bfd <textPrint+0x240>
     bfb: e6 d3        	inc	$d3                     ; 0x20d3 <__heap_start+0x327>
     bfd: 4c 25 0a     	jmp	$a25 <textPrint+0x68>
     c00: a6 d5        	ldx	$d5                     ; 0x20d5 <__heap_start+0x329>
     c02: 86 01        	stx	$1                      ; 0x2001 <__heap_start+0x255>
     c04: a6 67        	ldx	$67                     ; 0x2067 <__heap_start+0x2bb>
     c06: a4 68        	ldy	$68                     ; 0x2068 <__heap_start+0x2bc>
     c08: 8e 14 d0     	stx	$d014                   ; 0xd014 <__heap_start+0xb268>
     c0b: 9c 15 d0     	stz	$d015                   ; 0xd015 <__heap_start+0xb269>
     c0e: 84 68        	sty	$68                     ; 0x2068 <__heap_start+0x2bc>
     c10: 8c 16 d0     	sty	$d016                   ; 0xd016 <__heap_start+0xb26a>
     c13: 9c 17 d0     	stz	$d017                   ; 0xd017 <__heap_start+0xb26b>
     c16: 60           	rts

00000c17 <__putchar>:
     c17: 8d a8 1d     	sta	$1da8                   ; 0x1da8 <__putchar.s>
     c1a: a2 a8        	ldx	#$a8
     c1c: 86 12        	stx	$12                     ; 0x2012 <__heap_start+0x266>
     c1e: a2 1d        	ldx	#$1d
     c20: 86 13        	stx	$13                     ; 0x2013 <__heap_start+0x267>
     c22: 4c bd 09     	jmp	$9bd <textPrint>

00000c25 <exit>:
     c25: 85 ce        	sta	$ce                     ; 0x20ce <__heap_start+0x322>
     c27: 86 cf        	stx	$cf                     ; 0x20cf <__heap_start+0x323>
     c29: 20 4d 03     	jsr	$34d <_fini>
     c2c: a6 cf        	ldx	$cf                     ; 0x20cf <__heap_start+0x323>
     c2e: a5 ce        	lda	$ce                     ; 0x20ce <__heap_start+0x322>
     c30: 20 33 0c     	jsr	$c33 <_Exit>

00000c33 <_Exit>:
     c33: 80 fe        	bra	$c33 <_Exit>

00000c35 <vfprintf>:
     c35: 18           	clc
     c36: a5 10        	lda	$10                     ; 0x2010 <__heap_start+0x264>
     c38: 69 e8        	adc	#$e8
     c3a: 85 10        	sta	$10                     ; 0x2010 <__heap_start+0x264>
     c3c: a5 11        	lda	$11                     ; 0x2011 <__heap_start+0x265>
     c3e: 69 ff        	adc	#$ff
     c40: 85 11        	sta	$11                     ; 0x2011 <__heap_start+0x265>
     c42: a6 24        	ldx	$24                     ; 0x2024 <__heap_start+0x278>
     c44: da           	phx
     c45: a6 25        	ldx	$25                     ; 0x2025 <__heap_start+0x279>
     c47: da           	phx
     c48: a6 26        	ldx	$26                     ; 0x2026 <__heap_start+0x27a>
     c4a: da           	phx
     c4b: a6 27        	ldx	$27                     ; 0x2027 <__heap_start+0x27b>
     c4d: da           	phx
     c4e: a5 28        	lda	$28                     ; 0x2028 <__heap_start+0x27c>
     c50: a0 01        	ldy	#$1
     c52: 91 10        	sta	($10),y                 ; 0x2010 <__heap_start+0x264>
     c54: a5 29        	lda	$29                     ; 0x2029 <__heap_start+0x27d>
     c56: 88           	dey
     c57: 91 10        	sta	($10),y                 ; 0x2010 <__heap_start+0x264>
     c59: a6 12        	ldx	$12                     ; 0x2012 <__heap_start+0x266>
     c5b: 86 24        	stx	$24                     ; 0x2024 <__heap_start+0x278>
     c5d: a6 13        	ldx	$13                     ; 0x2013 <__heap_start+0x267>
     c5f: 86 25        	stx	$25                     ; 0x2025 <__heap_start+0x279>
     c61: a5 16        	lda	$16                     ; 0x2016 <__heap_start+0x26a>
     c63: 18           	clc
     c64: 48           	pha
     c65: a5 10        	lda	$10                     ; 0x2010 <__heap_start+0x264>
     c67: 69 16        	adc	#$16
     c69: 85 12        	sta	$12                     ; 0x2012 <__heap_start+0x266>
     c6b: a5 11        	lda	$11                     ; 0x2011 <__heap_start+0x265>
     c6d: 69 00        	adc	#$0
     c6f: 85 13        	sta	$13                     ; 0x2013 <__heap_start+0x267>
     c71: 68           	pla
     c72: 92 12        	sta	($12)                   ; 0x2012 <__heap_start+0x266>
     c74: c8           	iny
     c75: a5 17        	lda	$17                     ; 0x2017 <__heap_start+0x26b>
     c77: 91 12        	sta	($12),y                 ; 0x2012 <__heap_start+0x266>
     c79: 18           	clc
     c7a: a5 10        	lda	$10                     ; 0x2010 <__heap_start+0x264>
     c7c: 69 03        	adc	#$3
     c7e: 48           	pha
     c7f: a5 11        	lda	$11                     ; 0x2011 <__heap_start+0x265>
     c81: 69 00        	adc	#$0
     c83: a8           	tay
     c84: 68           	pla
     c85: 85 16        	sta	$16                     ; 0x2016 <__heap_start+0x26a>
     c87: 84 17        	sty	$17                     ; 0x2017 <__heap_start+0x26b>
     c89: 85 28        	sta	$28                     ; 0x2028 <__heap_start+0x27c>
     c8b: 18           	clc
     c8c: 69 03        	adc	#$3
     c8e: 85 18        	sta	$18                     ; 0x2018 <__heap_start+0x26c>
     c90: 84 29        	sty	$29                     ; 0x2029 <__heap_start+0x27d>
     c92: 98           	tya
     c93: 69 00        	adc	#$0
     c95: a0 03        	ldy	#$3
     c97: 85 19        	sta	$19                     ; 0x2019 <__heap_start+0x26d>
     c99: a9 ff        	lda	#$ff
     c9b: 91 16        	sta	($16),y                 ; 0x2016 <__heap_start+0x26a>
     c9d: 18           	clc
     c9e: a5 10        	lda	$10                     ; 0x2010 <__heap_start+0x264>
     ca0: 69 03        	adc	#$3
     ca2: 85 1b        	sta	$1b                     ; 0x201b <__heap_start+0x26f>
     ca4: a5 11        	lda	$11                     ; 0x2011 <__heap_start+0x265>
     ca6: 69 00        	adc	#$0
     ca8: 85 1a        	sta	$1a                     ; 0x201a <__heap_start+0x26e>
     caa: a0 01        	ldy	#$1
     cac: a9 ff        	lda	#$ff
     cae: 91 18        	sta	($18),y                 ; 0x2018 <__heap_start+0x26c>
     cb0: 18           	clc
     cb1: a5 1b        	lda	$1b                     ; 0x201b <__heap_start+0x26f>
     cb3: 69 05        	adc	#$5
     cb5: 85 18        	sta	$18                     ; 0x2018 <__heap_start+0x26c>
     cb7: a5 1a        	lda	$1a                     ; 0x201a <__heap_start+0x26e>
     cb9: 69 00        	adc	#$0
     cbb: 85 19        	sta	$19                     ; 0x2019 <__heap_start+0x26d>
     cbd: 18           	clc
     cbe: a5 10        	lda	$10                     ; 0x2010 <__heap_start+0x264>
     cc0: 69 03        	adc	#$3
     cc2: 48           	pha
     cc3: a5 11        	lda	$11                     ; 0x2011 <__heap_start+0x265>
     cc5: 69 00        	adc	#$0
     cc7: 85 1b        	sta	$1b                     ; 0x201b <__heap_start+0x26f>
     cc9: 68           	pla
     cca: 18           	clc
     ccb: 69 09        	adc	#$9
     ccd: 85 1a        	sta	$1a                     ; 0x201a <__heap_start+0x26e>
     ccf: a5 1b        	lda	$1b                     ; 0x201b <__heap_start+0x26f>
     cd1: 69 00        	adc	#$0
     cd3: 85 1b        	sta	$1b                     ; 0x201b <__heap_start+0x26f>
     cd5: a0 09        	ldy	#$9
     cd7: a2 00        	ldx	#$0
     cd9: 86 1c        	stx	$1c                     ; 0x201c <__heap_start+0x270>
     cdb: a2 00        	ldx	#$0
     cdd: 86 1d        	stx	$1d                     ; 0x201d <__heap_start+0x271>
     cdf: a5 1c        	lda	$1c                     ; 0x201c <__heap_start+0x270>
     ce1: 91 16        	sta	($16),y                 ; 0x2016 <__heap_start+0x26a>
     ce3: a0 0f        	ldy	#$f
     ce5: a5 24        	lda	$24                     ; 0x2024 <__heap_start+0x278>
     ce7: 91 16        	sta	($16),y                 ; 0x2016 <__heap_start+0x26a>
     ce9: 18           	clc
     cea: a5 10        	lda	$10                     ; 0x2010 <__heap_start+0x264>
     cec: 69 03        	adc	#$3
     cee: 85 1c        	sta	$1c                     ; 0x201c <__heap_start+0x270>
     cf0: a5 11        	lda	$11                     ; 0x2011 <__heap_start+0x265>
     cf2: 69 00        	adc	#$0
     cf4: aa           	tax
     cf5: a5 1d        	lda	$1d                     ; 0x201d <__heap_start+0x271>
     cf7: a0 01        	ldy	#$1
     cf9: 91 1a        	sta	($1a),y                 ; 0x201a <__heap_start+0x26e>
     cfb: 18           	clc
     cfc: a5 1c        	lda	$1c                     ; 0x201c <__heap_start+0x270>
     cfe: 69 0f        	adc	#$f
     d00: 85 1a        	sta	$1a                     ; 0x201a <__heap_start+0x26e>
     d02: 8a           	txa
     d03: 69 00        	adc	#$0
     d05: aa           	tax
     d06: a0 05        	ldy	#$5
     d08: a9 00        	lda	#$0
     d0a: 91 16        	sta	($16),y                 ; 0x2016 <__heap_start+0x26a>
     d0c: 64 1b        	stz	$1b                     ; 0x201b <__heap_start+0x26f>
     d0e: a9 00        	lda	#$0
     d10: a0 02        	ldy	#$2
     d12: 91 10        	sta	($10),y                 ; 0x2010 <__heap_start+0x264>
     d14: 88           	dey
     d15: a9 00        	lda	#$0
     d17: 91 18        	sta	($18),y                 ; 0x2018 <__heap_start+0x26c>
     d19: 86 1b        	stx	$1b                     ; 0x201b <__heap_start+0x26f>
     d1b: a5 25        	lda	$25                     ; 0x2025 <__heap_start+0x279>
     d1d: 91 1a        	sta	($1a),y                 ; 0x201a <__heap_start+0x26e>
     d1f: b2 12        	lda	($12)                   ; 0x2012 <__heap_start+0x266>
     d21: 85 19        	sta	$19                     ; 0x2019 <__heap_start+0x26d>
     d23: b1 12        	lda	($12),y                 ; 0x2012 <__heap_start+0x266>
     d25: 85 18        	sta	$18                     ; 0x2018 <__heap_start+0x26c>
     d27: a0 11        	ldy	#$11
     d29: a5 19        	lda	$19                     ; 0x2019 <__heap_start+0x26d>
     d2b: 91 16        	sta	($16),y                 ; 0x2016 <__heap_start+0x26a>
     d2d: 18           	clc
     d2e: a5 10        	lda	$10                     ; 0x2010 <__heap_start+0x264>
     d30: 69 03        	adc	#$3
     d32: 48           	pha
     d33: a5 11        	lda	$11                     ; 0x2011 <__heap_start+0x265>
     d35: 69 00        	adc	#$0
     d37: 85 12        	sta	$12                     ; 0x2012 <__heap_start+0x266>
     d39: 68           	pla
     d3a: 18           	clc
     d3b: 69 11        	adc	#$11
     d3d: aa           	tax
     d3e: a5 12        	lda	$12                     ; 0x2012 <__heap_start+0x266>
     d40: 69 00        	adc	#$0
     d42: 86 12        	stx	$12                     ; 0x2012 <__heap_start+0x266>
     d44: 85 13        	sta	$13                     ; 0x2013 <__heap_start+0x267>
     d46: a5 18        	lda	$18                     ; 0x2018 <__heap_start+0x26c>
     d48: a0 01        	ldy	#$1
     d4a: 91 12        	sta	($12),y                 ; 0x2012 <__heap_start+0x266>
     d4c: a6 14        	ldx	$14                     ; 0x2014 <__heap_start+0x268>
     d4e: 86 12        	stx	$12                     ; 0x2012 <__heap_start+0x266>
     d50: a6 15        	ldx	$15                     ; 0x2015 <__heap_start+0x269>
     d52: 86 13        	stx	$13                     ; 0x2013 <__heap_start+0x267>
     d54: a6 12        	ldx	$12                     ; 0x2012 <__heap_start+0x266>
     d56: 86 26        	stx	$26                     ; 0x2026 <__heap_start+0x27a>
     d58: a6 13        	ldx	$13                     ; 0x2013 <__heap_start+0x267>
     d5a: 86 27        	stx	$27                     ; 0x2027 <__heap_start+0x27b>
     d5c: b2 12        	lda	($12)                   ; 0x2012 <__heap_start+0x266>
     d5e: c9 25        	cmp	#$25
     d60: d0 03        	bne	$d65 <vfprintf+0x130>
     d62: 4c cd 0d     	jmp	$dcd <vfprintf+0x198>
     d65: aa           	tax
     d66: d0 03        	bne	$d6b <vfprintf+0x136>
     d68: 4c 25 0e     	jmp	$e25 <vfprintf+0x1f0>
     d6b: a6 24        	ldx	$24                     ; 0x2024 <__heap_start+0x278>
     d6d: 86 12        	stx	$12                     ; 0x2012 <__heap_start+0x266>
     d6f: a6 25        	ldx	$25                     ; 0x2025 <__heap_start+0x279>
     d71: 86 13        	stx	$13                     ; 0x2013 <__heap_start+0x267>
     d73: 48           	pha
     d74: a0 02        	ldy	#$2
     d76: b1 10        	lda	($10),y                 ; 0x2010 <__heap_start+0x264>
     d78: aa           	tax
     d79: 68           	pla
     d7a: 20 6f 1c     	jsr	$1c6f <putc>
     d7d: e0 ff        	cpx	#$ff
     d7f: d0 07        	bne	$d88 <vfprintf+0x153>
     d81: c9 ff        	cmp	#$ff
     d83: d0 03        	bne	$d88 <vfprintf+0x153>
     d85: 4c ef 0d     	jmp	$def <vfprintf+0x1ba>
     d88: e6 26        	inc	$26                     ; 0x2026 <__heap_start+0x27a>
     d8a: d0 02        	bne	$d8e <vfprintf+0x159>
     d8c: e6 27        	inc	$27                     ; 0x2027 <__heap_start+0x27b>
     d8e: 18           	clc
     d8f: a5 10        	lda	$10                     ; 0x2010 <__heap_start+0x264>
     d91: 69 03        	adc	#$3
     d93: 48           	pha
     d94: a5 11        	lda	$11                     ; 0x2011 <__heap_start+0x265>
     d96: 69 00        	adc	#$0
     d98: aa           	tax
     d99: 68           	pla
     d9a: 85 12        	sta	$12                     ; 0x2012 <__heap_start+0x266>
     d9c: 86 13        	stx	$13                     ; 0x2013 <__heap_start+0x267>
     d9e: 18           	clc
     d9f: 69 05        	adc	#$5
     da1: 85 14        	sta	$14                     ; 0x2014 <__heap_start+0x268>
     da3: 8a           	txa
     da4: 69 00        	adc	#$0
     da6: 85 15        	sta	$15                     ; 0x2015 <__heap_start+0x269>
     da8: a0 05        	ldy	#$5
     daa: b1 12        	lda	($12),y                 ; 0x2012 <__heap_start+0x266>
     dac: 85 16        	sta	$16                     ; 0x2016 <__heap_start+0x26a>
     dae: a0 01        	ldy	#$1
     db0: b1 14        	lda	($14),y                 ; 0x2014 <__heap_start+0x268>
     db2: aa           	tax
     db3: a5 16        	lda	$16                     ; 0x2016 <__heap_start+0x26a>
     db5: 1a           	inc
     db6: d0 01        	bne	$db9 <vfprintf+0x184>
     db8: e8           	inx
     db9: a0 05        	ldy	#$5
     dbb: 91 12        	sta	($12),y                 ; 0x2012 <__heap_start+0x266>
     dbd: 8a           	txa
     dbe: a0 01        	ldy	#$1
     dc0: 91 14        	sta	($14),y                 ; 0x2014 <__heap_start+0x268>
     dc2: a6 26        	ldx	$26                     ; 0x2026 <__heap_start+0x27a>
     dc4: 86 12        	stx	$12                     ; 0x2012 <__heap_start+0x266>
     dc6: a6 27        	ldx	$27                     ; 0x2027 <__heap_start+0x27b>
     dc8: 86 13        	stx	$13                     ; 0x2013 <__heap_start+0x267>
     dca: 4c 54 0d     	jmp	$d54 <vfprintf+0x11f>
     dcd: a6 28        	ldx	$28                     ; 0x2028 <__heap_start+0x27c>
     dcf: 86 14        	stx	$14                     ; 0x2014 <__heap_start+0x268>
     dd1: a6 29        	ldx	$29                     ; 0x2029 <__heap_start+0x27d>
     dd3: 86 15        	stx	$15                     ; 0x2015 <__heap_start+0x269>
     dd5: 20 4d 0e     	jsr	$e4d <_ZN12_GLOBAL__N_15printEPKcP6Status>
     dd8: a6 13        	ldx	$13                     ; 0x2013 <__heap_start+0x267>
     dda: e4 27        	cpx	$27                     ; 0x2027 <__heap_start+0x27b>
     ddc: f0 03        	beq	$de1 <vfprintf+0x1ac>
     dde: 4c 54 0d     	jmp	$d54 <vfprintf+0x11f>
     de1: a6 12        	ldx	$12                     ; 0x2012 <__heap_start+0x266>
     de3: e4 26        	cpx	$26                     ; 0x2026 <__heap_start+0x27a>
     de5: f0 03        	beq	$dea <vfprintf+0x1b5>
     de7: 4c 54 0d     	jmp	$d54 <vfprintf+0x11f>
     dea: b2 26        	lda	($26)                   ; 0x2026 <__heap_start+0x27a>
     dec: 4c 6b 0d     	jmp	$d6b <vfprintf+0x136>
     def: a2 ff        	ldx	#$ff
     df1: 8a           	txa
     df2: a0 02        	ldy	#$2
     df4: 91 10        	sta	($10),y                 ; 0x2010 <__heap_start+0x264>
     df6: 8a           	txa
     df7: aa           	tax
     df8: a0 02        	ldy	#$2
     dfa: b1 10        	lda	($10),y                 ; 0x2010 <__heap_start+0x264>
     dfc: 85 20        	sta	$20                     ; 0x2020 <__heap_start+0x274>
     dfe: a0 00        	ldy	#$0
     e00: b1 10        	lda	($10),y                 ; 0x2010 <__heap_start+0x264>
     e02: 85 29        	sta	$29                     ; 0x2029 <__heap_start+0x27d>
     e04: c8           	iny
     e05: b1 10        	lda	($10),y                 ; 0x2010 <__heap_start+0x264>
     e07: 85 28        	sta	$28                     ; 0x2028 <__heap_start+0x27c>
     e09: 7a           	ply
     e0a: 84 27        	sty	$27                     ; 0x2027 <__heap_start+0x27b>
     e0c: 7a           	ply
     e0d: 84 26        	sty	$26                     ; 0x2026 <__heap_start+0x27a>
     e0f: 7a           	ply
     e10: 84 25        	sty	$25                     ; 0x2025 <__heap_start+0x279>
     e12: 7a           	ply
     e13: 84 24        	sty	$24                     ; 0x2024 <__heap_start+0x278>
     e15: 18           	clc
     e16: a5 10        	lda	$10                     ; 0x2010 <__heap_start+0x264>
     e18: 69 18        	adc	#$18
     e1a: 85 10        	sta	$10                     ; 0x2010 <__heap_start+0x264>
     e1c: a5 11        	lda	$11                     ; 0x2011 <__heap_start+0x265>
     e1e: 69 00        	adc	#$0
     e20: 85 11        	sta	$11                     ; 0x2011 <__heap_start+0x265>
     e22: a5 20        	lda	$20                     ; 0x2020 <__heap_start+0x274>
     e24: 60           	rts
     e25: a0 05        	ldy	#$5
     e27: 18           	clc
     e28: a5 10        	lda	$10                     ; 0x2010 <__heap_start+0x264>
     e2a: 69 03        	adc	#$3
     e2c: 48           	pha
     e2d: a5 11        	lda	$11                     ; 0x2011 <__heap_start+0x265>
     e2f: 69 00        	adc	#$0
     e31: aa           	tax
     e32: 68           	pla
     e33: 85 12        	sta	$12                     ; 0x2012 <__heap_start+0x266>
     e35: 86 13        	stx	$13                     ; 0x2013 <__heap_start+0x267>
     e37: 18           	clc
     e38: 69 05        	adc	#$5
     e3a: 85 14        	sta	$14                     ; 0x2014 <__heap_start+0x268>
     e3c: 8a           	txa
     e3d: 69 00        	adc	#$0
     e3f: 85 15        	sta	$15                     ; 0x2015 <__heap_start+0x269>
     e41: b1 12        	lda	($12),y                 ; 0x2012 <__heap_start+0x266>
     e43: a0 02        	ldy	#$2
     e45: 91 10        	sta	($10),y                 ; 0x2010 <__heap_start+0x264>
     e47: 88           	dey
     e48: b1 14        	lda	($14),y                 ; 0x2014 <__heap_start+0x268>
     e4a: 4c f7 0d     	jmp	$df7 <vfprintf+0x1c2>

00000e4d <_ZN12_GLOBAL__N_15printEPKcP6Status>:
     e4d: 18           	clc
     e4e: a5 10        	lda	$10                     ; 0x2010 <__heap_start+0x264>
     e50: 69 d1        	adc	#$d1
     e52: 85 10        	sta	$10                     ; 0x2010 <__heap_start+0x264>
     e54: a5 11        	lda	$11                     ; 0x2011 <__heap_start+0x265>
     e56: 69 ff        	adc	#$ff
     e58: 85 11        	sta	$11                     ; 0x2011 <__heap_start+0x265>
     e5a: a6 24        	ldx	$24                     ; 0x2024 <__heap_start+0x278>
     e5c: da           	phx
     e5d: a6 25        	ldx	$25                     ; 0x2025 <__heap_start+0x279>
     e5f: da           	phx
     e60: a6 26        	ldx	$26                     ; 0x2026 <__heap_start+0x27a>
     e62: da           	phx
     e63: a6 27        	ldx	$27                     ; 0x2027 <__heap_start+0x27b>
     e65: da           	phx
     e66: a5 28        	lda	$28                     ; 0x2028 <__heap_start+0x27c>
     e68: a0 07        	ldy	#$7
     e6a: 91 10        	sta	($10),y                 ; 0x2010 <__heap_start+0x264>
     e6c: a5 29        	lda	$29                     ; 0x2029 <__heap_start+0x27d>
     e6e: 88           	dey
     e6f: 91 10        	sta	($10),y                 ; 0x2010 <__heap_start+0x264>
     e71: a5 2a        	lda	$2a                     ; 0x202a <__heap_start+0x27e>
     e73: 88           	dey
     e74: 91 10        	sta	($10),y                 ; 0x2010 <__heap_start+0x264>
     e76: a5 2b        	lda	$2b                     ; 0x202b <__heap_start+0x27f>
     e78: 88           	dey
     e79: 91 10        	sta	($10),y                 ; 0x2010 <__heap_start+0x264>
     e7b: a5 2c        	lda	$2c                     ; 0x202c <__heap_start+0x280>
     e7d: 88           	dey
     e7e: 91 10        	sta	($10),y                 ; 0x2010 <__heap_start+0x264>
     e80: a5 2d        	lda	$2d                     ; 0x202d <__heap_start+0x281>
     e82: 88           	dey
     e83: 91 10        	sta	($10),y                 ; 0x2010 <__heap_start+0x264>
     e85: a5 2e        	lda	$2e                     ; 0x202e <__heap_start+0x282>
     e87: 88           	dey
     e88: 91 10        	sta	($10),y                 ; 0x2010 <__heap_start+0x264>
     e8a: a5 2f        	lda	$2f                     ; 0x202f <__heap_start+0x283>
     e8c: 88           	dey
     e8d: 91 10        	sta	($10),y                 ; 0x2010 <__heap_start+0x264>
     e8f: a6 12        	ldx	$12                     ; 0x2012 <__heap_start+0x266>
     e91: 86 28        	stx	$28                     ; 0x2028 <__heap_start+0x27c>
     e93: a6 13        	ldx	$13                     ; 0x2013 <__heap_start+0x267>
     e95: 86 29        	stx	$29                     ; 0x2029 <__heap_start+0x27d>
     e97: a6 14        	ldx	$14                     ; 0x2014 <__heap_start+0x268>
     e99: 86 24        	stx	$24                     ; 0x2024 <__heap_start+0x278>
     e9b: a6 15        	ldx	$15                     ; 0x2015 <__heap_start+0x269>
     e9d: 86 25        	stx	$25                     ; 0x2025 <__heap_start+0x279>
     e9f: e6 12        	inc	$12                     ; 0x2012 <__heap_start+0x266>
     ea1: d0 02        	bne	$ea5 <_ZN12_GLOBAL__N_15printEPKcP6Status+0x58>
     ea3: e6 13        	inc	$13                     ; 0x2013 <__heap_start+0x267>
     ea5: a5 12        	lda	$12                     ; 0x2012 <__heap_start+0x266>
     ea7: 18           	clc
     ea8: 48           	pha
     ea9: a5 10        	lda	$10                     ; 0x2010 <__heap_start+0x264>
     eab: 69 16        	adc	#$16
     ead: 85 26        	sta	$26                     ; 0x2026 <__heap_start+0x27a>
     eaf: a5 11        	lda	$11                     ; 0x2011 <__heap_start+0x265>
     eb1: 69 00        	adc	#$0
     eb3: 85 27        	sta	$27                     ; 0x2027 <__heap_start+0x27b>
     eb5: 68           	pla
     eb6: 92 26        	sta	($26)                   ; 0x2026 <__heap_start+0x27a>
     eb8: a0 01        	ldy	#$1
     eba: a5 13        	lda	$13                     ; 0x2013 <__heap_start+0x267>
     ebc: 91 26        	sta	($26),y                 ; 0x2026 <__heap_start+0x27a>
     ebe: b1 28        	lda	($28),y                 ; 0x2028 <__heap_start+0x27c>
     ec0: c9 25        	cmp	#$25
     ec2: d0 1d        	bne	$ee1 <_ZN12_GLOBAL__N_15printEPKcP6Status+0x94>
     ec4: a9 25        	lda	#$25
     ec6: a6 14        	ldx	$14                     ; 0x2014 <__heap_start+0x268>
     ec8: 86 12        	stx	$12                     ; 0x2012 <__heap_start+0x266>
     eca: a6 15        	ldx	$15                     ; 0x2015 <__heap_start+0x269>
     ecc: 86 13        	stx	$13                     ; 0x2013 <__heap_start+0x267>
     ece: 20 91 19     	jsr	$1991 <_ZN12_GLOBAL__N_13putEcP6Status>
     ed1: a5 28        	lda	$28                     ; 0x2028 <__heap_start+0x27c>
     ed3: 18           	clc
     ed4: 69 02        	adc	#$2
     ed6: 85 28        	sta	$28                     ; 0x2028 <__heap_start+0x27c>
     ed8: a5 29        	lda	$29                     ; 0x2029 <__heap_start+0x27d>
     eda: 69 00        	adc	#$0
     edc: 85 29        	sta	$29                     ; 0x2029 <__heap_start+0x27d>
     ede: 4c 46 19     	jmp	$1946 <_ZN12_GLOBAL__N_15printEPKcP6Status+0xaf9>
     ee1: 64 2a        	stz	$2a                     ; 0x202a <__heap_start+0x27e>
     ee3: 18           	clc
     ee4: a5 24        	lda	$24                     ; 0x2024 <__heap_start+0x278>
     ee6: 69 0b        	adc	#$b
     ee8: 85 16        	sta	$16                     ; 0x2016 <__heap_start+0x26a>
     eea: a5 25        	lda	$25                     ; 0x2025 <__heap_start+0x279>
     eec: 69 00        	adc	#$0
     eee: 85 17        	sta	$17                     ; 0x2017 <__heap_start+0x26b>
     ef0: 18           	clc
     ef1: a9 00        	lda	#$0
     ef3: a0 0b        	ldy	#$b
     ef5: 91 10        	sta	($10),y                 ; 0x2010 <__heap_start+0x264>
     ef7: a9 00        	lda	#$0
     ef9: 91 24        	sta	($24),y                 ; 0x2024 <__heap_start+0x278>
     efb: a5 24        	lda	$24                     ; 0x2024 <__heap_start+0x278>
     efd: 69 0d        	adc	#$d
     eff: 85 18        	sta	$18                     ; 0x2018 <__heap_start+0x26c>
     f01: a5 25        	lda	$25                     ; 0x2025 <__heap_start+0x279>
     f03: 69 00        	adc	#$0
     f05: e6 14        	inc	$14                     ; 0x2014 <__heap_start+0x268>
     f07: d0 02        	bne	$f0b <_ZN12_GLOBAL__N_15printEPKcP6Status+0xbe>
     f09: e6 15        	inc	$15                     ; 0x2015 <__heap_start+0x269>
     f0b: a0 0d        	ldy	#$d
     f0d: 85 19        	sta	$19                     ; 0x2019 <__heap_start+0x26d>
     f0f: a9 ff        	lda	#$ff
     f11: 91 24        	sta	($24),y                 ; 0x2024 <__heap_start+0x278>
     f13: a0 01        	ldy	#$1
     f15: 1a           	inc
     f16: 91 24        	sta	($24),y                 ; 0x2024 <__heap_start+0x278>
     f18: 91 14        	sta	($14),y                 ; 0x2014 <__heap_start+0x268>
     f1a: 92 24        	sta	($24)                   ; 0x2024 <__heap_start+0x278>
     f1c: 91 16        	sta	($16),y                 ; 0x2016 <__heap_start+0x26a>
     f1e: 3a           	dec
     f1f: 91 18        	sta	($18),y                 ; 0x2018 <__heap_start+0x26c>
     f21: 64 18        	stz	$18                     ; 0x2018 <__heap_start+0x26c>
     f23: 80 35        	bra	$f5a <_ZN12_GLOBAL__N_15printEPKcP6Status+0x10d>
     f25: a2 02        	ldx	#$2
     f27: 80 15        	bra	$f3e <_ZN12_GLOBAL__N_15printEPKcP6Status+0xf1>
     f29: e0 20        	cpx	#$20
     f2b: f0 0f        	beq	$f3c <_ZN12_GLOBAL__N_15printEPKcP6Status+0xef>
     f2d: e0 23        	cpx	#$23
     f2f: f0 03        	beq	$f34 <_ZN12_GLOBAL__N_15printEPKcP6Status+0xe7>
     f31: 4c 9f 0f     	jmp	$f9f <_ZN12_GLOBAL__N_15printEPKcP6Status+0x152>
     f34: a2 04        	ldx	#$4
     f36: 80 06        	bra	$f3e <_ZN12_GLOBAL__N_15printEPKcP6Status+0xf1>
     f38: a2 10        	ldx	#$10
     f3a: 80 02        	bra	$f3e <_ZN12_GLOBAL__N_15printEPKcP6Status+0xf1>
     f3c: a2 08        	ldx	#$8
     f3e: 86 16        	stx	$16                     ; 0x2016 <__heap_start+0x26a>
     f40: a5 18        	lda	$18                     ; 0x2018 <__heap_start+0x26c>
     f42: 05 16        	ora	$16                     ; 0x2016 <__heap_start+0x26a>
     f44: 85 18        	sta	$18                     ; 0x2018 <__heap_start+0x26c>
     f46: 91 24        	sta	($24),y                 ; 0x2024 <__heap_start+0x278>
     f48: a9 00        	lda	#$0
     f4a: 91 14        	sta	($14),y                 ; 0x2014 <__heap_start+0x268>
     f4c: e6 12        	inc	$12                     ; 0x2012 <__heap_start+0x266>
     f4e: d0 02        	bne	$f52 <_ZN12_GLOBAL__N_15printEPKcP6Status+0x105>
     f50: e6 13        	inc	$13                     ; 0x2013 <__heap_start+0x267>
     f52: a5 12        	lda	$12                     ; 0x2012 <__heap_start+0x266>
     f54: 92 26        	sta	($26)                   ; 0x2026 <__heap_start+0x27a>
     f56: a5 13        	lda	$13                     ; 0x2013 <__heap_start+0x267>
     f58: 91 26        	sta	($26),y                 ; 0x2026 <__heap_start+0x27a>
     f5a: b2 12        	lda	($12)                   ; 0x2012 <__heap_start+0x266>
     f5c: 18           	clc
     f5d: aa           	tax
     f5e: 69 d6        	adc	#$d6
     f60: c9 07        	cmp	#$7
     f62: b0 c5        	bcs	$f29 <_ZN12_GLOBAL__N_15printEPKcP6Status+0xdc>
     f64: 0a           	asl
     f65: aa           	tax
     f66: a9 01        	lda	#$1
     f68: 85 16        	sta	$16                     ; 0x2016 <__heap_start+0x26a>
     f6a: 7c 69 1d     	jmp	($1d69,x)               ; 0x1d69 <__heap_default_limit+0xd69>
     f6d: a0 11        	ldy	#$11
     f6f: a5 24        	lda	$24                     ; 0x2024 <__heap_start+0x278>
     f71: 18           	clc
     f72: 69 11        	adc	#$11
     f74: 85 14        	sta	$14                     ; 0x2014 <__heap_start+0x268>
     f76: a5 25        	lda	$25                     ; 0x2025 <__heap_start+0x279>
     f78: 69 00        	adc	#$0
     f7a: 85 15        	sta	$15                     ; 0x2015 <__heap_start+0x269>
     f7c: b1 24        	lda	($24),y                 ; 0x2024 <__heap_start+0x278>
     f7e: 85 16        	sta	$16                     ; 0x2016 <__heap_start+0x26a>
     f80: 18           	clc
     f81: 69 02        	adc	#$2
     f83: 91 24        	sta	($24),y                 ; 0x2024 <__heap_start+0x278>
     f85: a0 01        	ldy	#$1
     f87: b1 14        	lda	($14),y                 ; 0x2014 <__heap_start+0x268>
     f89: 85 17        	sta	$17                     ; 0x2017 <__heap_start+0x26b>
     f8b: 69 00        	adc	#$0
     f8d: 91 14        	sta	($14),y                 ; 0x2014 <__heap_start+0x268>
     f8f: b2 16        	lda	($16)                   ; 0x2016 <__heap_start+0x26a>
     f91: 85 15        	sta	$15                     ; 0x2015 <__heap_start+0x269>
     f93: b1 16        	lda	($16),y                 ; 0x2016 <__heap_start+0x26a>
     f95: 85 14        	sta	$14                     ; 0x2014 <__heap_start+0x268>
     f97: 30 31        	bmi	$fca <_ZN12_GLOBAL__N_15printEPKcP6Status+0x17d>
     f99: a5 15        	lda	$15                     ; 0x2015 <__heap_start+0x269>
     f9b: a6 14        	ldx	$14                     ; 0x2014 <__heap_start+0x268>
     f9d: 80 4d        	bra	$fec <_ZN12_GLOBAL__N_15printEPKcP6Status+0x19f>
     f9f: a6 26        	ldx	$26                     ; 0x2026 <__heap_start+0x27a>
     fa1: 86 14        	stx	$14                     ; 0x2014 <__heap_start+0x268>
     fa3: a6 27        	ldx	$27                     ; 0x2027 <__heap_start+0x27b>
     fa5: 86 15        	stx	$15                     ; 0x2015 <__heap_start+0x269>
     fa7: 20 c9 1c     	jsr	$1cc9 <__simple_strtoui>
     faa: a0 0b        	ldy	#$b
     fac: 91 24        	sta	($24),y                 ; 0x2024 <__heap_start+0x278>
     fae: 18           	clc
     faf: a5 24        	lda	$24                     ; 0x2024 <__heap_start+0x278>
     fb1: 69 0b        	adc	#$b
     fb3: 85 12        	sta	$12                     ; 0x2012 <__heap_start+0x266>
     fb5: a5 25        	lda	$25                     ; 0x2025 <__heap_start+0x279>
     fb7: 69 00        	adc	#$0
     fb9: 85 13        	sta	$13                     ; 0x2013 <__heap_start+0x267>
     fbb: a0 01        	ldy	#$1
     fbd: 8a           	txa
     fbe: 91 12        	sta	($12),y                 ; 0x2012 <__heap_start+0x266>
     fc0: b2 26        	lda	($26)                   ; 0x2026 <__heap_start+0x27a>
     fc2: 85 12        	sta	$12                     ; 0x2012 <__heap_start+0x266>
     fc4: b1 26        	lda	($26),y                 ; 0x2026 <__heap_start+0x27a>
     fc6: 85 13        	sta	$13                     ; 0x2013 <__heap_start+0x267>
     fc8: 80 46        	bra	$1010 <_ZN12_GLOBAL__N_15printEPKcP6Status+0x1c3>
     fca: a5 18        	lda	$18                     ; 0x2018 <__heap_start+0x26c>
     fcc: 09 01        	ora	#$1
     fce: a6 24        	ldx	$24                     ; 0x2024 <__heap_start+0x278>
     fd0: 86 16        	stx	$16                     ; 0x2016 <__heap_start+0x26a>
     fd2: a6 25        	ldx	$25                     ; 0x2025 <__heap_start+0x279>
     fd4: 86 17        	stx	$17                     ; 0x2017 <__heap_start+0x26b>
     fd6: e6 16        	inc	$16                     ; 0x2016 <__heap_start+0x26a>
     fd8: d0 02        	bne	$fdc <_ZN12_GLOBAL__N_15printEPKcP6Status+0x18f>
     fda: e6 17        	inc	$17                     ; 0x2017 <__heap_start+0x26b>
     fdc: 91 24        	sta	($24),y                 ; 0x2024 <__heap_start+0x278>
     fde: a9 00        	lda	#$0
     fe0: 91 16        	sta	($16),y                 ; 0x2016 <__heap_start+0x26a>
     fe2: 38           	sec
     fe3: e5 15        	sbc	$15                     ; 0x2015 <__heap_start+0x269>
     fe5: a8           	tay
     fe6: a9 00        	lda	#$0
     fe8: e5 14        	sbc	$14                     ; 0x2014 <__heap_start+0x268>
     fea: aa           	tax
     feb: 98           	tya
     fec: a0 0b        	ldy	#$b
     fee: 91 24        	sta	($24),y                 ; 0x2024 <__heap_start+0x278>
     ff0: 18           	clc
     ff1: a5 24        	lda	$24                     ; 0x2024 <__heap_start+0x278>
     ff3: 69 0b        	adc	#$b
     ff5: 85 14        	sta	$14                     ; 0x2014 <__heap_start+0x268>
     ff7: a5 25        	lda	$25                     ; 0x2025 <__heap_start+0x279>
     ff9: 69 00        	adc	#$0
     ffb: 85 15        	sta	$15                     ; 0x2015 <__heap_start+0x269>
     ffd: 8a           	txa
     ffe: a0 01        	ldy	#$1
    1000: 91 14        	sta	($14),y                 ; 0x2014 <__heap_start+0x268>
    1002: e6 12        	inc	$12                     ; 0x2012 <__heap_start+0x266>
    1004: d0 02        	bne	$1008 <_ZN12_GLOBAL__N_15printEPKcP6Status+0x1bb>
    1006: e6 13        	inc	$13                     ; 0x2013 <__heap_start+0x267>
    1008: a5 13        	lda	$13                     ; 0x2013 <__heap_start+0x267>
    100a: 91 26        	sta	($26),y                 ; 0x2026 <__heap_start+0x27a>
    100c: a5 12        	lda	$12                     ; 0x2012 <__heap_start+0x266>
    100e: 92 26        	sta	($26)                   ; 0x2026 <__heap_start+0x27a>
    1010: b2 12        	lda	($12)                   ; 0x2012 <__heap_start+0x266>
    1012: c9 2e        	cmp	#$2e
    1014: f0 03        	beq	$1019 <_ZN12_GLOBAL__N_15printEPKcP6Status+0x1cc>
    1016: 4c 2e 11     	jmp	$112e <_ZN12_GLOBAL__N_15printEPKcP6Status+0x2e1>
    1019: a6 12        	ldx	$12                     ; 0x2012 <__heap_start+0x266>
    101b: 86 14        	stx	$14                     ; 0x2014 <__heap_start+0x268>
    101d: a6 13        	ldx	$13                     ; 0x2013 <__heap_start+0x267>
    101f: 86 15        	stx	$15                     ; 0x2015 <__heap_start+0x269>
    1021: e6 14        	inc	$14                     ; 0x2014 <__heap_start+0x268>
    1023: d0 02        	bne	$1027 <_ZN12_GLOBAL__N_15printEPKcP6Status+0x1da>
    1025: e6 15        	inc	$15                     ; 0x2015 <__heap_start+0x269>
    1027: a5 14        	lda	$14                     ; 0x2014 <__heap_start+0x268>
    1029: 92 26        	sta	($26)                   ; 0x2026 <__heap_start+0x27a>
    102b: a5 15        	lda	$15                     ; 0x2015 <__heap_start+0x269>
    102d: 91 26        	sta	($26),y                 ; 0x2026 <__heap_start+0x27a>
    102f: b1 12        	lda	($12),y                 ; 0x2012 <__heap_start+0x266>
    1031: c9 2a        	cmp	#$2a
    1033: f0 03        	beq	$1038 <_ZN12_GLOBAL__N_15printEPKcP6Status+0x1eb>
    1035: 4c a3 10     	jmp	$10a3 <_ZN12_GLOBAL__N_15printEPKcP6Status+0x256>
    1038: a4 24        	ldy	$24                     ; 0x2024 <__heap_start+0x278>
    103a: a5 24        	lda	$24                     ; 0x2024 <__heap_start+0x278>
    103c: 84 18        	sty	$18                     ; 0x2018 <__heap_start+0x26c>
    103e: 18           	clc
    103f: 69 11        	adc	#$11
    1041: 85 14        	sta	$14                     ; 0x2014 <__heap_start+0x268>
    1043: a5 25        	lda	$25                     ; 0x2025 <__heap_start+0x279>
    1045: 69 00        	adc	#$0
    1047: a0 11        	ldy	#$11
    1049: 85 15        	sta	$15                     ; 0x2015 <__heap_start+0x269>
    104b: b1 24        	lda	($24),y                 ; 0x2024 <__heap_start+0x278>
    104d: 85 16        	sta	$16                     ; 0x2016 <__heap_start+0x26a>
    104f: a0 01        	ldy	#$1
    1051: b1 14        	lda	($14),y                 ; 0x2014 <__heap_start+0x268>
    1053: 85 19        	sta	$19                     ; 0x2019 <__heap_start+0x26d>
    1055: a5 16        	lda	$16                     ; 0x2016 <__heap_start+0x26a>
    1057: a6 19        	ldx	$19                     ; 0x2019 <__heap_start+0x26d>
    1059: 86 17        	stx	$17                     ; 0x2017 <__heap_start+0x26b>
    105b: 18           	clc
    105c: 69 02        	adc	#$2
    105e: 85 1a        	sta	$1a                     ; 0x201a <__heap_start+0x26e>
    1060: a5 19        	lda	$19                     ; 0x2019 <__heap_start+0x26d>
    1062: 69 00        	adc	#$0
    1064: 85 19        	sta	$19                     ; 0x2019 <__heap_start+0x26d>
    1066: a0 11        	ldy	#$11
    1068: a5 1a        	lda	$1a                     ; 0x201a <__heap_start+0x26e>
    106a: 91 24        	sta	($24),y                 ; 0x2024 <__heap_start+0x278>
    106c: a5 19        	lda	$19                     ; 0x2019 <__heap_start+0x26d>
    106e: a0 01        	ldy	#$1
    1070: 91 14        	sta	($14),y                 ; 0x2014 <__heap_start+0x268>
    1072: b2 16        	lda	($16)                   ; 0x2016 <__heap_start+0x26a>
    1074: 85 14        	sta	$14                     ; 0x2014 <__heap_start+0x268>
    1076: b1 16        	lda	($16),y                 ; 0x2016 <__heap_start+0x26a>
    1078: 85 16        	sta	$16                     ; 0x2016 <__heap_start+0x26a>
    107a: a0 0d        	ldy	#$d
    107c: a5 14        	lda	$14                     ; 0x2014 <__heap_start+0x268>
    107e: 91 24        	sta	($24),y                 ; 0x2024 <__heap_start+0x278>
    1080: 18           	clc
    1081: a5 18        	lda	$18                     ; 0x2018 <__heap_start+0x26c>
    1083: 69 0d        	adc	#$d
    1085: 85 14        	sta	$14                     ; 0x2014 <__heap_start+0x268>
    1087: a5 25        	lda	$25                     ; 0x2025 <__heap_start+0x279>
    1089: 69 00        	adc	#$0
    108b: 18           	clc
    108c: 85 15        	sta	$15                     ; 0x2015 <__heap_start+0x269>
    108e: a5 16        	lda	$16                     ; 0x2016 <__heap_start+0x26a>
    1090: a0 01        	ldy	#$1
    1092: 91 14        	sta	($14),y                 ; 0x2014 <__heap_start+0x268>
    1094: a5 12        	lda	$12                     ; 0x2012 <__heap_start+0x266>
    1096: 69 02        	adc	#$2
    1098: 85 12        	sta	$12                     ; 0x2012 <__heap_start+0x266>
    109a: a5 13        	lda	$13                     ; 0x2013 <__heap_start+0x267>
    109c: 69 00        	adc	#$0
    109e: 85 13        	sta	$13                     ; 0x2013 <__heap_start+0x267>
    10a0: 4c 12 11     	jmp	$1112 <_ZN12_GLOBAL__N_15printEPKcP6Status+0x2c5>
    10a3: a6 28        	ldx	$28                     ; 0x2028 <__heap_start+0x27c>
    10a5: 86 2c        	stx	$2c                     ; 0x202c <__heap_start+0x280>
    10a7: a6 29        	ldx	$29                     ; 0x2029 <__heap_start+0x27d>
    10a9: 86 2d        	stx	$2d                     ; 0x202d <__heap_start+0x281>
    10ab: a6 14        	ldx	$14                     ; 0x2014 <__heap_start+0x268>
    10ad: 86 12        	stx	$12                     ; 0x2012 <__heap_start+0x266>
    10af: a6 15        	ldx	$15                     ; 0x2015 <__heap_start+0x269>
    10b1: 86 13        	stx	$13                     ; 0x2013 <__heap_start+0x267>
    10b3: 18           	clc
    10b4: a5 10        	lda	$10                     ; 0x2010 <__heap_start+0x264>
    10b6: 69 18        	adc	#$18
    10b8: 85 28        	sta	$28                     ; 0x2028 <__heap_start+0x27c>
    10ba: a5 11        	lda	$11                     ; 0x2011 <__heap_start+0x265>
    10bc: 69 00        	adc	#$0
    10be: 85 29        	sta	$29                     ; 0x2029 <__heap_start+0x27d>
    10c0: a6 28        	ldx	$28                     ; 0x2028 <__heap_start+0x27c>
    10c2: 86 14        	stx	$14                     ; 0x2014 <__heap_start+0x268>
    10c4: 85 15        	sta	$15                     ; 0x2015 <__heap_start+0x269>
    10c6: 20 c9 1c     	jsr	$1cc9 <__simple_strtoui>
    10c9: a0 0d        	ldy	#$d
    10cb: 91 24        	sta	($24),y                 ; 0x2024 <__heap_start+0x278>
    10cd: 18           	clc
    10ce: a5 24        	lda	$24                     ; 0x2024 <__heap_start+0x278>
    10d0: 69 0d        	adc	#$d
    10d2: 85 12        	sta	$12                     ; 0x2012 <__heap_start+0x266>
    10d4: a5 25        	lda	$25                     ; 0x2025 <__heap_start+0x279>
    10d6: 69 00        	adc	#$0
    10d8: 85 13        	sta	$13                     ; 0x2013 <__heap_start+0x267>
    10da: a0 01        	ldy	#$1
    10dc: 8a           	txa
    10dd: 91 12        	sta	($12),y                 ; 0x2012 <__heap_start+0x266>
    10df: b2 28        	lda	($28)                   ; 0x2028 <__heap_start+0x27c>
    10e1: 85 12        	sta	$12                     ; 0x2012 <__heap_start+0x266>
    10e3: b1 28        	lda	($28),y                 ; 0x2028 <__heap_start+0x27c>
    10e5: 85 13        	sta	$13                     ; 0x2013 <__heap_start+0x267>
    10e7: b1 26        	lda	($26),y                 ; 0x2026 <__heap_start+0x27a>
    10e9: c5 13        	cmp	$13                     ; 0x2013 <__heap_start+0x267>
    10eb: d0 1d        	bne	$110a <_ZN12_GLOBAL__N_15printEPKcP6Status+0x2bd>
    10ed: b2 26        	lda	($26)                   ; 0x2026 <__heap_start+0x27a>
    10ef: c5 12        	cmp	$12                     ; 0x2012 <__heap_start+0x266>
    10f1: d0 17        	bne	$110a <_ZN12_GLOBAL__N_15printEPKcP6Status+0x2bd>
    10f3: a0 0d        	ldy	#$d
    10f5: a5 24        	lda	$24                     ; 0x2024 <__heap_start+0x278>
    10f7: 18           	clc
    10f8: 69 0d        	adc	#$d
    10fa: 85 14        	sta	$14                     ; 0x2014 <__heap_start+0x268>
    10fc: a5 25        	lda	$25                     ; 0x2025 <__heap_start+0x279>
    10fe: 69 00        	adc	#$0
    1100: 85 15        	sta	$15                     ; 0x2015 <__heap_start+0x269>
    1102: a9 00        	lda	#$0
    1104: 91 24        	sta	($24),y                 ; 0x2024 <__heap_start+0x278>
    1106: a0 01        	ldy	#$1
    1108: 91 14        	sta	($14),y                 ; 0x2014 <__heap_start+0x268>
    110a: a6 2c        	ldx	$2c                     ; 0x202c <__heap_start+0x280>
    110c: 86 28        	stx	$28                     ; 0x2028 <__heap_start+0x27c>
    110e: a6 2d        	ldx	$2d                     ; 0x202d <__heap_start+0x281>
    1110: 86 29        	stx	$29                     ; 0x2029 <__heap_start+0x27d>
    1112: a6 24        	ldx	$24                     ; 0x2024 <__heap_start+0x278>
    1114: 86 14        	stx	$14                     ; 0x2014 <__heap_start+0x268>
    1116: a6 25        	ldx	$25                     ; 0x2025 <__heap_start+0x279>
    1118: 86 15        	stx	$15                     ; 0x2015 <__heap_start+0x269>
    111a: e6 14        	inc	$14                     ; 0x2014 <__heap_start+0x268>
    111c: d0 02        	bne	$1120 <_ZN12_GLOBAL__N_15printEPKcP6Status+0x2d3>
    111e: e6 15        	inc	$15                     ; 0x2015 <__heap_start+0x269>
    1120: b1 14        	lda	($14),y                 ; 0x2014 <__heap_start+0x268>
    1122: 85 16        	sta	$16                     ; 0x2016 <__heap_start+0x26a>
    1124: a9 ef        	lda	#$ef
    1126: 31 24        	and	($24),y                 ; 0x2024 <__heap_start+0x278>
    1128: 91 24        	sta	($24),y                 ; 0x2024 <__heap_start+0x278>
    112a: a5 16        	lda	$16                     ; 0x2016 <__heap_start+0x26a>
    112c: 91 14        	sta	($14),y                 ; 0x2014 <__heap_start+0x268>
    112e: a6 12        	ldx	$12                     ; 0x2012 <__heap_start+0x266>
    1130: 86 14        	stx	$14                     ; 0x2014 <__heap_start+0x268>
    1132: a6 13        	ldx	$13                     ; 0x2013 <__heap_start+0x267>
    1134: 86 15        	stx	$15                     ; 0x2015 <__heap_start+0x269>
    1136: e6 14        	inc	$14                     ; 0x2014 <__heap_start+0x268>
    1138: d0 02        	bne	$113c <_ZN12_GLOBAL__N_15printEPKcP6Status+0x2ef>
    113a: e6 15        	inc	$15                     ; 0x2015 <__heap_start+0x269>
    113c: a5 14        	lda	$14                     ; 0x2014 <__heap_start+0x268>
    113e: 92 26        	sta	($26)                   ; 0x2026 <__heap_start+0x27a>
    1140: a5 15        	lda	$15                     ; 0x2015 <__heap_start+0x269>
    1142: 91 26        	sta	($26),y                 ; 0x2026 <__heap_start+0x27a>
    1144: b2 12        	lda	($12)                   ; 0x2012 <__heap_start+0x266>
    1146: 38           	sec
    1147: aa           	tax
    1148: e9 6c        	sbc	#$6c
    114a: 50 02        	bvc	$114e <_ZN12_GLOBAL__N_15printEPKcP6Status+0x301>
    114c: 49 80        	eor	#$80
    114e: c9 00        	cmp	#$0
    1150: 10 16        	bpl	$1168 <_ZN12_GLOBAL__N_15printEPKcP6Status+0x31b>
    1152: e0 4c        	cpx	#$4c
    1154: f0 3c        	beq	$1192 <_ZN12_GLOBAL__N_15printEPKcP6Status+0x345>
    1156: 8a           	txa
    1157: e0 68        	cpx	#$68
    1159: d0 03        	bne	$115e <_ZN12_GLOBAL__N_15printEPKcP6Status+0x311>
    115b: 4c 0e 12     	jmp	$120e <_ZN12_GLOBAL__N_15printEPKcP6Status+0x3c1>
    115e: a2 08        	ldx	#$8
    1160: a0 08        	ldy	#$8
    1162: c9 6a        	cmp	#$6a
    1164: d0 14        	bne	$117a <_ZN12_GLOBAL__N_15printEPKcP6Status+0x32d>
    1166: 80 4a        	bra	$11b2 <_ZN12_GLOBAL__N_15printEPKcP6Status+0x365>
    1168: e0 6c        	cpx	#$6c
    116a: d0 03        	bne	$116f <_ZN12_GLOBAL__N_15printEPKcP6Status+0x322>
    116c: 4c d9 11     	jmp	$11d9 <_ZN12_GLOBAL__N_15printEPKcP6Status+0x38c>
    116f: 8a           	txa
    1170: e0 74        	cpx	#$74
    1172: f0 3a        	beq	$11ae <_ZN12_GLOBAL__N_15printEPKcP6Status+0x361>
    1174: a2 02        	ldx	#$2
    1176: c9 7a        	cmp	#$7a
    1178: f0 14        	beq	$118e <_ZN12_GLOBAL__N_15printEPKcP6Status+0x341>
    117a: a5 12        	lda	$12                     ; 0x2012 <__heap_start+0x266>
    117c: 92 26        	sta	($26)                   ; 0x2026 <__heap_start+0x27a>
    117e: a0 01        	ldy	#$1
    1180: a5 13        	lda	$13                     ; 0x2013 <__heap_start+0x267>
    1182: 91 26        	sta	($26),y                 ; 0x2026 <__heap_start+0x27a>
    1184: a6 12        	ldx	$12                     ; 0x2012 <__heap_start+0x266>
    1186: 86 14        	stx	$14                     ; 0x2014 <__heap_start+0x268>
    1188: a6 13        	ldx	$13                     ; 0x2013 <__heap_start+0x267>
    118a: 86 15        	stx	$15                     ; 0x2015 <__heap_start+0x269>
    118c: a2 02        	ldx	#$2
    118e: a0 02        	ldy	#$2
    1190: 80 20        	bra	$11b2 <_ZN12_GLOBAL__N_15printEPKcP6Status+0x365>
    1192: a6 24        	ldx	$24                     ; 0x2024 <__heap_start+0x278>
    1194: 86 12        	stx	$12                     ; 0x2012 <__heap_start+0x266>
    1196: a6 25        	ldx	$25                     ; 0x2025 <__heap_start+0x279>
    1198: 86 13        	stx	$13                     ; 0x2013 <__heap_start+0x267>
    119a: e6 12        	inc	$12                     ; 0x2012 <__heap_start+0x266>
    119c: d0 02        	bne	$11a0 <_ZN12_GLOBAL__N_15printEPKcP6Status+0x353>
    119e: e6 13        	inc	$13                     ; 0x2013 <__heap_start+0x267>
    11a0: b1 12        	lda	($12),y                 ; 0x2012 <__heap_start+0x266>
    11a2: 85 16        	sta	$16                     ; 0x2016 <__heap_start+0x26a>
    11a4: a9 40        	lda	#$40
    11a6: 11 24        	ora	($24),y                 ; 0x2024 <__heap_start+0x278>
    11a8: 91 24        	sta	($24),y                 ; 0x2024 <__heap_start+0x278>
    11aa: a5 16        	lda	$16                     ; 0x2016 <__heap_start+0x26a>
    11ac: 91 12        	sta	($12),y                 ; 0x2012 <__heap_start+0x266>
    11ae: a0 02        	ldy	#$2
    11b0: a2 02        	ldx	#$2
    11b2: b2 14        	lda	($14)                   ; 0x2014 <__heap_start+0x268>
    11b4: 85 16        	sta	$16                     ; 0x2016 <__heap_start+0x26a>
    11b6: 86 2b        	stx	$2b                     ; 0x202b <__heap_start+0x27f>
    11b8: 98           	tya
    11b9: a0 0c        	ldy	#$c
    11bb: 91 10        	sta	($10),y                 ; 0x2010 <__heap_start+0x264>
    11bd: 18           	clc
    11be: a5 16        	lda	$16                     ; 0x2016 <__heap_start+0x26a>
    11c0: 69 9d        	adc	#$9d
    11c2: c9 16        	cmp	#$16
    11c4: 90 03        	bcc	$11c9 <_ZN12_GLOBAL__N_15printEPKcP6Status+0x37c>
    11c6: 4c 42 12     	jmp	$1242 <_ZN12_GLOBAL__N_15printEPKcP6Status+0x3f5>
    11c9: aa           	tax
    11ca: b1 10        	lda	($10),y                 ; 0x2010 <__heap_start+0x264>
    11cc: 8a           	txa
    11cd: 0a           	asl
    11ce: aa           	tax
    11cf: 7c 77 1d     	jmp	($1d77,x)               ; 0x1d77 <__heap_default_limit+0xd77>
    11d2: a9 0a        	lda	#$a
    11d4: 92 24        	sta	($24)                   ; 0x2024 <__heap_start+0x278>
    11d6: 4c ab 13     	jmp	$13ab <_ZN12_GLOBAL__N_15printEPKcP6Status+0x55e>
    11d9: b1 12        	lda	($12),y                 ; 0x2012 <__heap_start+0x266>
    11db: a2 04        	ldx	#$4
    11dd: a0 04        	ldy	#$4
    11df: 48           	pha
    11e0: 98           	tya
    11e1: a0 0c        	ldy	#$c
    11e3: 91 10        	sta	($10),y                 ; 0x2010 <__heap_start+0x264>
    11e5: 68           	pla
    11e6: 86 2b        	stx	$2b                     ; 0x202b <__heap_start+0x27f>
    11e8: 85 16        	sta	$16                     ; 0x2016 <__heap_start+0x26a>
    11ea: c9 6c        	cmp	#$6c
    11ec: d0 cf        	bne	$11bd <_ZN12_GLOBAL__N_15printEPKcP6Status+0x370>
    11ee: a5 12        	lda	$12                     ; 0x2012 <__heap_start+0x266>
    11f0: 18           	clc
    11f1: 69 02        	adc	#$2
    11f3: aa           	tax
    11f4: a5 13        	lda	$13                     ; 0x2013 <__heap_start+0x267>
    11f6: 69 00        	adc	#$0
    11f8: 86 14        	stx	$14                     ; 0x2014 <__heap_start+0x268>
    11fa: 85 15        	sta	$15                     ; 0x2015 <__heap_start+0x269>
    11fc: 85 12        	sta	$12                     ; 0x2012 <__heap_start+0x266>
    11fe: 8a           	txa
    11ff: 92 26        	sta	($26)                   ; 0x2026 <__heap_start+0x27a>
    1201: a0 01        	ldy	#$1
    1203: a5 12        	lda	$12                     ; 0x2012 <__heap_start+0x266>
    1205: 91 26        	sta	($26),y                 ; 0x2026 <__heap_start+0x27a>
    1207: a2 08        	ldx	#$8
    1209: a0 08        	ldy	#$8
    120b: 4c b2 11     	jmp	$11b2 <_ZN12_GLOBAL__N_15printEPKcP6Status+0x365>
    120e: b1 12        	lda	($12),y                 ; 0x2012 <__heap_start+0x266>
    1210: a2 02        	ldx	#$2
    1212: a0 02        	ldy	#$2
    1214: 48           	pha
    1215: 98           	tya
    1216: a0 0c        	ldy	#$c
    1218: 91 10        	sta	($10),y                 ; 0x2010 <__heap_start+0x264>
    121a: 68           	pla
    121b: 86 2b        	stx	$2b                     ; 0x202b <__heap_start+0x27f>
    121d: 85 16        	sta	$16                     ; 0x2016 <__heap_start+0x26a>
    121f: c9 68        	cmp	#$68
    1221: f0 03        	beq	$1226 <_ZN12_GLOBAL__N_15printEPKcP6Status+0x3d9>
    1223: 4c bd 11     	jmp	$11bd <_ZN12_GLOBAL__N_15printEPKcP6Status+0x370>
    1226: a5 12        	lda	$12                     ; 0x2012 <__heap_start+0x266>
    1228: 18           	clc
    1229: 69 02        	adc	#$2
    122b: aa           	tax
    122c: a5 13        	lda	$13                     ; 0x2013 <__heap_start+0x267>
    122e: 69 00        	adc	#$0
    1230: 86 14        	stx	$14                     ; 0x2014 <__heap_start+0x268>
    1232: 85 15        	sta	$15                     ; 0x2015 <__heap_start+0x269>
    1234: 85 12        	sta	$12                     ; 0x2012 <__heap_start+0x266>
    1236: 8a           	txa
    1237: 92 26        	sta	($26)                   ; 0x2026 <__heap_start+0x27a>
    1239: a0 01        	ldy	#$1
    123b: a5 12        	lda	$12                     ; 0x2012 <__heap_start+0x266>
    123d: 91 26        	sta	($26),y                 ; 0x2026 <__heap_start+0x27a>
    123f: 4c b0 11     	jmp	$11b0 <_ZN12_GLOBAL__N_15printEPKcP6Status+0x363>
    1242: a6 16        	ldx	$16                     ; 0x2016 <__heap_start+0x26a>
    1244: e0 58        	cpx	#$58
    1246: f0 03        	beq	$124b <_ZN12_GLOBAL__N_15printEPKcP6Status+0x3fe>
    1248: 4c 46 19     	jmp	$1946 <_ZN12_GLOBAL__N_15printEPKcP6Status+0xaf9>
    124b: a9 10        	lda	#$10
    124d: 4c 8a 13     	jmp	$138a <_ZN12_GLOBAL__N_15printEPKcP6Status+0x53d>
    1250: a9 10        	lda	#$10
    1252: 92 24        	sta	($24)                   ; 0x2024 <__heap_start+0x278>
    1254: a6 24        	ldx	$24                     ; 0x2024 <__heap_start+0x278>
    1256: 86 12        	stx	$12                     ; 0x2012 <__heap_start+0x266>
    1258: a6 25        	ldx	$25                     ; 0x2025 <__heap_start+0x279>
    125a: 86 13        	stx	$13                     ; 0x2013 <__heap_start+0x267>
    125c: e6 12        	inc	$12                     ; 0x2012 <__heap_start+0x266>
    125e: d0 02        	bne	$1262 <_ZN12_GLOBAL__N_15printEPKcP6Status+0x415>
    1260: e6 13        	inc	$13                     ; 0x2013 <__heap_start+0x267>
    1262: a0 01        	ldy	#$1
    1264: a9 84        	lda	#$84
    1266: 80 16        	bra	$127e <_ZN12_GLOBAL__N_15printEPKcP6Status+0x431>
    1268: a9 10        	lda	#$10
    126a: 92 24        	sta	($24)                   ; 0x2024 <__heap_start+0x278>
    126c: a6 24        	ldx	$24                     ; 0x2024 <__heap_start+0x278>
    126e: 86 12        	stx	$12                     ; 0x2012 <__heap_start+0x266>
    1270: a6 25        	ldx	$25                     ; 0x2025 <__heap_start+0x279>
    1272: 86 13        	stx	$13                     ; 0x2013 <__heap_start+0x267>
    1274: e6 12        	inc	$12                     ; 0x2012 <__heap_start+0x266>
    1276: d0 02        	bne	$127a <_ZN12_GLOBAL__N_15printEPKcP6Status+0x42d>
    1278: e6 13        	inc	$13                     ; 0x2013 <__heap_start+0x267>
    127a: a0 01        	ldy	#$1
    127c: a9 80        	lda	#$80
    127e: 11 24        	ora	($24),y                 ; 0x2024 <__heap_start+0x278>
    1280: aa           	tax
    1281: a9 01        	lda	#$1
    1283: 11 12        	ora	($12),y                 ; 0x2012 <__heap_start+0x266>
    1285: 85 14        	sta	$14                     ; 0x2014 <__heap_start+0x268>
    1287: 8a           	txa
    1288: 91 24        	sta	($24),y                 ; 0x2024 <__heap_start+0x278>
    128a: a5 14        	lda	$14                     ; 0x2014 <__heap_start+0x268>
    128c: 4c a9 13     	jmp	$13a9 <_ZN12_GLOBAL__N_15printEPKcP6Status+0x55c>
    128f: a4 24        	ldy	$24                     ; 0x2024 <__heap_start+0x278>
    1291: 18           	clc
    1292: a5 24        	lda	$24                     ; 0x2024 <__heap_start+0x278>
    1294: 84 18        	sty	$18                     ; 0x2018 <__heap_start+0x26c>
    1296: 69 11        	adc	#$11
    1298: 85 12        	sta	$12                     ; 0x2012 <__heap_start+0x266>
    129a: a5 25        	lda	$25                     ; 0x2025 <__heap_start+0x279>
    129c: 69 00        	adc	#$0
    129e: 85 13        	sta	$13                     ; 0x2013 <__heap_start+0x267>
    12a0: a0 11        	ldy	#$11
    12a2: b1 24        	lda	($24),y                 ; 0x2024 <__heap_start+0x278>
    12a4: 85 16        	sta	$16                     ; 0x2016 <__heap_start+0x26a>
    12a6: 18           	clc
    12a7: 69 02        	adc	#$2
    12a9: 91 24        	sta	($24),y                 ; 0x2024 <__heap_start+0x278>
    12ab: a0 01        	ldy	#$1
    12ad: b1 12        	lda	($12),y                 ; 0x2012 <__heap_start+0x266>
    12af: 85 17        	sta	$17                     ; 0x2017 <__heap_start+0x26b>
    12b1: 69 00        	adc	#$0
    12b3: 18           	clc
    12b4: 91 12        	sta	($12),y                 ; 0x2012 <__heap_start+0x266>
    12b6: b2 16        	lda	($16)                   ; 0x2016 <__heap_start+0x26a>
    12b8: 85 12        	sta	$12                     ; 0x2012 <__heap_start+0x266>
    12ba: b1 16        	lda	($16),y                 ; 0x2016 <__heap_start+0x26a>
    12bc: 85 13        	sta	$13                     ; 0x2013 <__heap_start+0x267>
    12be: a5 18        	lda	$18                     ; 0x2018 <__heap_start+0x26c>
    12c0: 69 05        	adc	#$5
    12c2: 85 16        	sta	$16                     ; 0x2016 <__heap_start+0x26a>
    12c4: a5 25        	lda	$25                     ; 0x2025 <__heap_start+0x279>
    12c6: 69 00        	adc	#$0
    12c8: 85 17        	sta	$17                     ; 0x2017 <__heap_start+0x26b>
    12ca: a0 05        	ldy	#$5
    12cc: b1 24        	lda	($24),y                 ; 0x2024 <__heap_start+0x278>
    12ce: 85 18        	sta	$18                     ; 0x2018 <__heap_start+0x26c>
    12d0: a0 01        	ldy	#$1
    12d2: b1 16        	lda	($16),y                 ; 0x2016 <__heap_start+0x26a>
    12d4: 85 16        	sta	$16                     ; 0x2016 <__heap_start+0x26a>
    12d6: a5 18        	lda	$18                     ; 0x2018 <__heap_start+0x26c>
    12d8: 92 12        	sta	($12)                   ; 0x2012 <__heap_start+0x266>
    12da: a5 16        	lda	$16                     ; 0x2016 <__heap_start+0x26a>
    12dc: 91 12        	sta	($12),y                 ; 0x2012 <__heap_start+0x266>
    12de: e6 14        	inc	$14                     ; 0x2014 <__heap_start+0x268>
    12e0: d0 02        	bne	$12e4 <_ZN12_GLOBAL__N_15printEPKcP6Status+0x497>
    12e2: e6 15        	inc	$15                     ; 0x2015 <__heap_start+0x269>
    12e4: a6 14        	ldx	$14                     ; 0x2014 <__heap_start+0x268>
    12e6: 86 28        	stx	$28                     ; 0x2028 <__heap_start+0x27c>
    12e8: a6 15        	ldx	$15                     ; 0x2015 <__heap_start+0x269>
    12ea: 86 29        	stx	$29                     ; 0x2029 <__heap_start+0x27d>
    12ec: 4c 46 19     	jmp	$1946 <_ZN12_GLOBAL__N_15printEPKcP6Status+0xaf9>
    12ef: a0 11        	ldy	#$11
    12f1: a5 24        	lda	$24                     ; 0x2024 <__heap_start+0x278>
    12f3: 18           	clc
    12f4: 69 11        	adc	#$11
    12f6: 85 12        	sta	$12                     ; 0x2012 <__heap_start+0x266>
    12f8: a5 25        	lda	$25                     ; 0x2025 <__heap_start+0x279>
    12fa: 69 00        	adc	#$0
    12fc: 85 13        	sta	$13                     ; 0x2013 <__heap_start+0x267>
    12fe: b1 24        	lda	($24),y                 ; 0x2024 <__heap_start+0x278>
    1300: aa           	tax
    1301: a0 01        	ldy	#$1
    1303: b1 12        	lda	($12),y                 ; 0x2012 <__heap_start+0x266>
    1305: 86 14        	stx	$14                     ; 0x2014 <__heap_start+0x268>
    1307: 85 15        	sta	$15                     ; 0x2015 <__heap_start+0x269>
    1309: a8           	tay
    130a: 18           	clc
    130b: 8a           	txa
    130c: 69 02        	adc	#$2
    130e: 85 16        	sta	$16                     ; 0x2016 <__heap_start+0x26a>
    1310: 98           	tya
    1311: 69 00        	adc	#$0
    1313: 85 17        	sta	$17                     ; 0x2017 <__heap_start+0x26b>
    1315: a5 16        	lda	$16                     ; 0x2016 <__heap_start+0x26a>
    1317: a0 11        	ldy	#$11
    1319: 91 24        	sta	($24),y                 ; 0x2024 <__heap_start+0x278>
    131b: a0 01        	ldy	#$1
    131d: a5 17        	lda	$17                     ; 0x2017 <__heap_start+0x26b>
    131f: 91 12        	sta	($12),y                 ; 0x2012 <__heap_start+0x266>
    1321: b2 14        	lda	($14)                   ; 0x2014 <__heap_start+0x268>
    1323: 85 12        	sta	$12                     ; 0x2012 <__heap_start+0x266>
    1325: b1 14        	lda	($14),y                 ; 0x2014 <__heap_start+0x268>
    1327: 85 13        	sta	$13                     ; 0x2013 <__heap_start+0x267>
    1329: 4c 7a 13     	jmp	$137a <_ZN12_GLOBAL__N_15printEPKcP6Status+0x52d>
    132c: a9 08        	lda	#$8
    132e: 4c 8a 13     	jmp	$138a <_ZN12_GLOBAL__N_15printEPKcP6Status+0x53d>
    1331: a0 11        	ldy	#$11
    1333: a5 24        	lda	$24                     ; 0x2024 <__heap_start+0x278>
    1335: 18           	clc
    1336: 69 11        	adc	#$11
    1338: 85 12        	sta	$12                     ; 0x2012 <__heap_start+0x266>
    133a: a5 25        	lda	$25                     ; 0x2025 <__heap_start+0x279>
    133c: 69 00        	adc	#$0
    133e: 85 13        	sta	$13                     ; 0x2013 <__heap_start+0x267>
    1340: b1 24        	lda	($24),y                 ; 0x2024 <__heap_start+0x278>
    1342: aa           	tax
    1343: a0 01        	ldy	#$1
    1345: b1 12        	lda	($12),y                 ; 0x2012 <__heap_start+0x266>
    1347: 86 14        	stx	$14                     ; 0x2014 <__heap_start+0x268>
    1349: 85 15        	sta	$15                     ; 0x2015 <__heap_start+0x269>
    134b: a8           	tay
    134c: 18           	clc
    134d: 8a           	txa
    134e: 69 02        	adc	#$2
    1350: 85 16        	sta	$16                     ; 0x2016 <__heap_start+0x26a>
    1352: 98           	tya
    1353: 69 00        	adc	#$0
    1355: 85 17        	sta	$17                     ; 0x2017 <__heap_start+0x26b>
    1357: a5 16        	lda	$16                     ; 0x2016 <__heap_start+0x26a>
    1359: a0 11        	ldy	#$11
    135b: 91 24        	sta	($24),y                 ; 0x2024 <__heap_start+0x278>
    135d: a0 01        	ldy	#$1
    135f: a5 17        	lda	$17                     ; 0x2017 <__heap_start+0x26b>
    1361: 91 12        	sta	($12),y                 ; 0x2012 <__heap_start+0x266>
    1363: b2 14        	lda	($14)                   ; 0x2014 <__heap_start+0x268>
    1365: 18           	clc
    1366: 48           	pha
    1367: a5 10        	lda	$10                     ; 0x2010 <__heap_start+0x264>
    1369: 69 18        	adc	#$18
    136b: 85 12        	sta	$12                     ; 0x2012 <__heap_start+0x266>
    136d: a5 11        	lda	$11                     ; 0x2011 <__heap_start+0x265>
    136f: 69 00        	adc	#$0
    1371: 85 13        	sta	$13                     ; 0x2013 <__heap_start+0x267>
    1373: 68           	pla
    1374: 92 12        	sta	($12)                   ; 0x2012 <__heap_start+0x266>
    1376: a9 00        	lda	#$0
    1378: 91 12        	sta	($12),y                 ; 0x2012 <__heap_start+0x266>
    137a: a6 24        	ldx	$24                     ; 0x2024 <__heap_start+0x278>
    137c: 86 14        	stx	$14                     ; 0x2014 <__heap_start+0x268>
    137e: a6 25        	ldx	$25                     ; 0x2025 <__heap_start+0x279>
    1380: 86 15        	stx	$15                     ; 0x2015 <__heap_start+0x269>
    1382: 20 72 1a     	jsr	$1a72 <_ZN12_GLOBAL__N_112print_stringEPKcP6Status>
    1385: 4c 36 19     	jmp	$1936 <_ZN12_GLOBAL__N_15printEPKcP6Status+0xae9>
    1388: a9 0a        	lda	#$a
    138a: 92 24        	sta	($24)                   ; 0x2024 <__heap_start+0x278>
    138c: a6 24        	ldx	$24                     ; 0x2024 <__heap_start+0x278>
    138e: 86 12        	stx	$12                     ; 0x2012 <__heap_start+0x266>
    1390: a6 25        	ldx	$25                     ; 0x2025 <__heap_start+0x279>
    1392: 86 13        	stx	$13                     ; 0x2013 <__heap_start+0x267>
    1394: e6 12        	inc	$12                     ; 0x2012 <__heap_start+0x266>
    1396: d0 02        	bne	$139a <_ZN12_GLOBAL__N_15printEPKcP6Status+0x54d>
    1398: e6 13        	inc	$13                     ; 0x2013 <__heap_start+0x267>
    139a: a0 01        	ldy	#$1
    139c: b1 24        	lda	($24),y                 ; 0x2024 <__heap_start+0x278>
    139e: 85 14        	sta	$14                     ; 0x2014 <__heap_start+0x268>
    13a0: 98           	tya
    13a1: 11 12        	ora	($12),y                 ; 0x2012 <__heap_start+0x266>
    13a3: aa           	tax
    13a4: a5 14        	lda	$14                     ; 0x2014 <__heap_start+0x268>
    13a6: 91 24        	sta	($24),y                 ; 0x2024 <__heap_start+0x278>
    13a8: 8a           	txa
    13a9: 91 12        	sta	($12),y                 ; 0x2012 <__heap_start+0x266>
    13ab: 18           	clc
    13ac: a5 10        	lda	$10                     ; 0x2010 <__heap_start+0x264>
    13ae: 69 0d        	adc	#$d
    13b0: 85 28        	sta	$28                     ; 0x2028 <__heap_start+0x27c>
    13b2: a5 11        	lda	$11                     ; 0x2011 <__heap_start+0x265>
    13b4: 69 00        	adc	#$0
    13b6: 85 29        	sta	$29                     ; 0x2029 <__heap_start+0x27d>
    13b8: a6 28        	ldx	$28                     ; 0x2028 <__heap_start+0x27c>
    13ba: 86 12        	stx	$12                     ; 0x2012 <__heap_start+0x266>
    13bc: 85 13        	sta	$13                     ; 0x2013 <__heap_start+0x267>
    13be: a0 0c        	ldy	#$c
    13c0: b1 10        	lda	($10),y                 ; 0x2010 <__heap_start+0x264>
    13c2: 20 4e 03     	jsr	$34e <_ZN6__impl6VarInt4makeEPvc>
    13c5: a6 28        	ldx	$28                     ; 0x2028 <__heap_start+0x27c>
    13c7: 86 12        	stx	$12                     ; 0x2012 <__heap_start+0x266>
    13c9: a6 29        	ldx	$29                     ; 0x2029 <__heap_start+0x27d>
    13cb: 86 13        	stx	$13                     ; 0x2013 <__heap_start+0x267>
    13cd: e6 12        	inc	$12                     ; 0x2012 <__heap_start+0x266>
    13cf: d0 02        	bne	$13d3 <_ZN12_GLOBAL__N_15printEPKcP6Status+0x586>
    13d1: e6 13        	inc	$13                     ; 0x2013 <__heap_start+0x267>
    13d3: a0 11        	ldy	#$11
    13d5: a2 00        	ldx	#$0
    13d7: a5 24        	lda	$24                     ; 0x2024 <__heap_start+0x278>
    13d9: 18           	clc
    13da: 69 11        	adc	#$11
    13dc: 85 2c        	sta	$2c                     ; 0x202c <__heap_start+0x280>
    13de: a5 25        	lda	$25                     ; 0x2025 <__heap_start+0x279>
    13e0: 69 00        	adc	#$0
    13e2: 85 2d        	sta	$2d                     ; 0x202d <__heap_start+0x281>
    13e4: b1 24        	lda	($24),y                 ; 0x2024 <__heap_start+0x278>
    13e6: 85 2f        	sta	$2f                     ; 0x202f <__heap_start+0x283>
    13e8: a0 01        	ldy	#$1
    13ea: b1 2c        	lda	($2c),y                 ; 0x202c <__heap_start+0x280>
    13ec: a4 2f        	ldy	$2f                     ; 0x202f <__heap_start+0x283>
    13ee: 84 14        	sty	$14                     ; 0x2014 <__heap_start+0x268>
    13f0: 85 15        	sta	$15                     ; 0x2015 <__heap_start+0x269>
    13f2: 85 2e        	sta	$2e                     ; 0x202e <__heap_start+0x282>
    13f4: b2 28        	lda	($28)                   ; 0x2028 <__heap_start+0x27c>
    13f6: 64 16        	stz	$16                     ; 0x2016 <__heap_start+0x26a>
    13f8: 48           	pha
    13f9: 8a           	txa
    13fa: a0 0c        	ldy	#$c
    13fc: 91 10        	sta	($10),y                 ; 0x2010 <__heap_start+0x264>
    13fe: 68           	pla
    13ff: 20 7d 1c     	jsr	$1c7d <memcpy>
    1402: 18           	clc
    1403: a9 00        	lda	#$0
    1405: a0 0a        	ldy	#$a
    1407: 91 10        	sta	($10),y                 ; 0x2010 <__heap_start+0x264>
    1409: a5 2f        	lda	$2f                     ; 0x202f <__heap_start+0x283>
    140b: 65 2b        	adc	$2b                     ; 0x202b <__heap_start+0x27f>
    140d: aa           	tax
    140e: a5 2e        	lda	$2e                     ; 0x202e <__heap_start+0x282>
    1410: 69 00        	adc	#$0
    1412: 85 12        	sta	$12                     ; 0x2012 <__heap_start+0x266>
    1414: a0 11        	ldy	#$11
    1416: 8a           	txa
    1417: 91 24        	sta	($24),y                 ; 0x2024 <__heap_start+0x278>
    1419: a0 01        	ldy	#$1
    141b: a5 12        	lda	$12                     ; 0x2012 <__heap_start+0x266>
    141d: 91 2c        	sta	($2c),y                 ; 0x202c <__heap_start+0x280>
    141f: a6 24        	ldx	$24                     ; 0x2024 <__heap_start+0x278>
    1421: 86 12        	stx	$12                     ; 0x2012 <__heap_start+0x266>
    1423: a6 25        	ldx	$25                     ; 0x2025 <__heap_start+0x279>
    1425: 86 13        	stx	$13                     ; 0x2013 <__heap_start+0x267>
    1427: e6 12        	inc	$12                     ; 0x2012 <__heap_start+0x266>
    1429: d0 02        	bne	$142d <_ZN12_GLOBAL__N_15printEPKcP6Status+0x5e0>
    142b: e6 13        	inc	$13                     ; 0x2013 <__heap_start+0x267>
    142d: a9 01        	lda	#$1
    142f: 31 12        	and	($12),y                 ; 0x2012 <__heap_start+0x266>
    1431: d0 21        	bne	$1454 <_ZN12_GLOBAL__N_15printEPKcP6Status+0x607>
    1433: a6 28        	ldx	$28                     ; 0x2028 <__heap_start+0x27c>
    1435: 86 12        	stx	$12                     ; 0x2012 <__heap_start+0x266>
    1437: a6 29        	ldx	$29                     ; 0x2029 <__heap_start+0x27d>
    1439: 86 13        	stx	$13                     ; 0x2013 <__heap_start+0x267>
    143b: 20 60 03     	jsr	$360 <_ZNK6__impl6VarInt8negativeEv>
    143e: 29 01        	and	#$1
    1440: f0 12        	beq	$1454 <_ZN12_GLOBAL__N_15printEPKcP6Status+0x607>
    1442: a6 28        	ldx	$28                     ; 0x2028 <__heap_start+0x27c>
    1444: 86 12        	stx	$12                     ; 0x2012 <__heap_start+0x266>
    1446: a6 29        	ldx	$29                     ; 0x2029 <__heap_start+0x27d>
    1448: 86 13        	stx	$13                     ; 0x2013 <__heap_start+0x267>
    144a: 20 6e 03     	jsr	$36e <_ZN6__impl6VarInt6negateEv>
    144d: 38           	sec
    144e: a9 01        	lda	#$1
    1450: a0 0a        	ldy	#$a
    1452: 91 10        	sta	($10),y                 ; 0x2010 <__heap_start+0x264>
    1454: b2 28        	lda	($28)                   ; 0x2028 <__heap_start+0x27c>
    1456: d0 03        	bne	$145b <_ZN12_GLOBAL__N_15printEPKcP6Status+0x60e>
    1458: 4c 52 15     	jmp	$1552 <_ZN12_GLOBAL__N_15printEPKcP6Status+0x705>
    145b: b2 24        	lda	($24)                   ; 0x2024 <__heap_start+0x278>
    145d: 85 2b        	sta	$2b                     ; 0x202b <__heap_start+0x27f>
    145f: 18           	clc
    1460: a5 10        	lda	$10                     ; 0x2010 <__heap_start+0x264>
    1462: 69 18        	adc	#$18
    1464: 48           	pha
    1465: a5 11        	lda	$11                     ; 0x2011 <__heap_start+0x265>
    1467: 69 00        	adc	#$0
    1469: 85 12        	sta	$12                     ; 0x2012 <__heap_start+0x266>
    146b: 68           	pla
    146c: 18           	clc
    146d: 69 02        	adc	#$2
    146f: 85 2c        	sta	$2c                     ; 0x202c <__heap_start+0x280>
    1471: a5 12        	lda	$12                     ; 0x2012 <__heap_start+0x266>
    1473: 69 00        	adc	#$0
    1475: 85 2d        	sta	$2d                     ; 0x202d <__heap_start+0x281>
    1477: a2 00        	ldx	#$0
    1479: a0 00        	ldy	#$0
    147b: 8a           	txa
    147c: d0 03        	bne	$1481 <_ZN12_GLOBAL__N_15printEPKcP6Status+0x634>
    147e: 4c fb 14     	jmp	$14fb <_ZN12_GLOBAL__N_15printEPKcP6Status+0x6ae>
    1481: 84 2f        	sty	$2f                     ; 0x202f <__heap_start+0x283>
    1483: 86 2e        	stx	$2e                     ; 0x202e <__heap_start+0x282>
    1485: ca           	dex
    1486: 86 13        	stx	$13                     ; 0x2013 <__heap_start+0x267>
    1488: a2 00        	ldx	#$0
    148a: 64 12        	stz	$12                     ; 0x2012 <__heap_start+0x266>
    148c: 80 0c        	bra	$149a <_ZN12_GLOBAL__N_15printEPKcP6Status+0x64d>
    148e: a4 12        	ldy	$12                     ; 0x2012 <__heap_start+0x266>
    1490: 91 2c        	sta	($2c),y                 ; 0x202c <__heap_start+0x280>
    1492: a4 13        	ldy	$13                     ; 0x2013 <__heap_start+0x267>
    1494: c4 12        	cpy	$12                     ; 0x2012 <__heap_start+0x266>
    1496: f0 2f        	beq	$14c7 <_ZN12_GLOBAL__N_15printEPKcP6Status+0x67a>
    1498: e6 12        	inc	$12                     ; 0x2012 <__heap_start+0x266>
    149a: a4 12        	ldy	$12                     ; 0x2012 <__heap_start+0x266>
    149c: b1 2c        	lda	($2c),y                 ; 0x202c <__heap_start+0x280>
    149e: 0a           	asl
    149f: e0 00        	cpx	#$0
    14a1: f0 02        	beq	$14a5 <_ZN12_GLOBAL__N_15printEPKcP6Status+0x658>
    14a3: 09 01        	ora	#$1
    14a5: c5 2b        	cmp	$2b                     ; 0x202b <__heap_start+0x27f>
    14a7: a2 01        	ldx	#$1
    14a9: b0 02        	bcs	$14ad <_ZN12_GLOBAL__N_15printEPKcP6Status+0x660>
    14ab: a2 00        	ldx	#$0
    14ad: 90 df        	bcc	$148e <_ZN12_GLOBAL__N_15printEPKcP6Status+0x641>
    14af: 38           	sec
    14b0: e5 2b        	sbc	$2b                     ; 0x202b <__heap_start+0x27f>
    14b2: a4 12        	ldy	$12                     ; 0x2012 <__heap_start+0x266>
    14b4: 91 2c        	sta	($2c),y                 ; 0x202c <__heap_start+0x280>
    14b6: a4 13        	ldy	$13                     ; 0x2013 <__heap_start+0x267>
    14b8: c4 12        	cpy	$12                     ; 0x2012 <__heap_start+0x266>
    14ba: d0 dc        	bne	$1498 <_ZN12_GLOBAL__N_15printEPKcP6Status+0x64b>
    14bc: a4 2e        	ldy	$2e                     ; 0x202e <__heap_start+0x282>
    14be: a6 2e        	ldx	$2e                     ; 0x202e <__heap_start+0x282>
    14c0: e8           	inx
    14c1: a9 01        	lda	#$1
    14c3: 91 2c        	sta	($2c),y                 ; 0x202c <__heap_start+0x280>
    14c5: 86 2e        	stx	$2e                     ; 0x202e <__heap_start+0x282>
    14c7: a6 28        	ldx	$28                     ; 0x2028 <__heap_start+0x27c>
    14c9: 86 12        	stx	$12                     ; 0x2012 <__heap_start+0x266>
    14cb: a6 29        	ldx	$29                     ; 0x2029 <__heap_start+0x27d>
    14cd: 86 13        	stx	$13                     ; 0x2013 <__heap_start+0x267>
    14cf: 20 52 03     	jsr	$352 <_ZNK6__impl6VarInt8high_bitEv>
    14d2: 29 01        	and	#$1
    14d4: f0 21        	beq	$14f7 <_ZN12_GLOBAL__N_15printEPKcP6Status+0x6aa>
    14d6: a0 00        	ldy	#$0
    14d8: a5 2e        	lda	$2e                     ; 0x202e <__heap_start+0x282>
    14da: f0 33        	beq	$150f <_ZN12_GLOBAL__N_15printEPKcP6Status+0x6c2>
    14dc: b1 2c        	lda	($2c),y                 ; 0x202c <__heap_start+0x280>
    14de: 1a           	inc
    14df: 91 2c        	sta	($2c),y                 ; 0x202c <__heap_start+0x280>
    14e1: c5 2b        	cmp	$2b                     ; 0x202b <__heap_start+0x27f>
    14e3: 90 12        	bcc	$14f7 <_ZN12_GLOBAL__N_15printEPKcP6Status+0x6aa>
    14e5: 38           	sec
    14e6: e5 2b        	sbc	$2b                     ; 0x202b <__heap_start+0x27f>
    14e8: 91 2c        	sta	($2c),y                 ; 0x202c <__heap_start+0x280>
    14ea: c8           	iny
    14eb: 84 12        	sty	$12                     ; 0x2012 <__heap_start+0x266>
    14ed: a6 2e        	ldx	$2e                     ; 0x202e <__heap_start+0x282>
    14ef: e4 12        	cpx	$12                     ; 0x2012 <__heap_start+0x266>
    14f1: d0 e9        	bne	$14dc <_ZN12_GLOBAL__N_15printEPKcP6Status+0x68f>
    14f3: a4 2e        	ldy	$2e                     ; 0x202e <__heap_start+0x282>
    14f5: 80 18        	bra	$150f <_ZN12_GLOBAL__N_15printEPKcP6Status+0x6c2>
    14f7: a4 2e        	ldy	$2e                     ; 0x202e <__heap_start+0x282>
    14f9: 80 1d        	bra	$1518 <_ZN12_GLOBAL__N_15printEPKcP6Status+0x6cb>
    14fb: 84 2f        	sty	$2f                     ; 0x202f <__heap_start+0x283>
    14fd: a6 28        	ldx	$28                     ; 0x2028 <__heap_start+0x27c>
    14ff: 86 12        	stx	$12                     ; 0x2012 <__heap_start+0x266>
    1501: a6 29        	ldx	$29                     ; 0x2029 <__heap_start+0x27d>
    1503: 86 13        	stx	$13                     ; 0x2013 <__heap_start+0x267>
    1505: 20 52 03     	jsr	$352 <_ZNK6__impl6VarInt8high_bitEv>
    1508: 29 01        	and	#$1
    150a: a0 00        	ldy	#$0
    150c: aa           	tax
    150d: f0 09        	beq	$1518 <_ZN12_GLOBAL__N_15printEPKcP6Status+0x6cb>
    150f: 5a           	phy
    1510: fa           	plx
    1511: e8           	inx
    1512: a9 01        	lda	#$1
    1514: 91 2c        	sta	($2c),y                 ; 0x202c <__heap_start+0x280>
    1516: da           	phx
    1517: 7a           	ply
    1518: 98           	tya
    1519: a0 0c        	ldy	#$c
    151b: 91 10        	sta	($10),y                 ; 0x2010 <__heap_start+0x264>
    151d: a6 28        	ldx	$28                     ; 0x2028 <__heap_start+0x27c>
    151f: 86 12        	stx	$12                     ; 0x2012 <__heap_start+0x266>
    1521: a6 29        	ldx	$29                     ; 0x2029 <__heap_start+0x27d>
    1523: 86 13        	stx	$13                     ; 0x2013 <__heap_start+0x267>
    1525: 20 b6 03     	jsr	$3b6 <_ZN6__impl6VarInt3shlEv>
    1528: a4 2f        	ldy	$2f                     ; 0x202f <__heap_start+0x283>
    152a: c8           	iny
    152b: b2 28        	lda	($28)                   ; 0x2028 <__heap_start+0x27c>
    152d: 0a           	asl
    152e: 64 13        	stz	$13                     ; 0x2013 <__heap_start+0x267>
    1530: 26 13        	rol	$13                     ; 0x2013 <__heap_start+0x267>
    1532: 0a           	asl
    1533: 26 13        	rol	$13                     ; 0x2013 <__heap_start+0x267>
    1535: 0a           	asl
    1536: 26 13        	rol	$13                     ; 0x2013 <__heap_start+0x267>
    1538: a2 00        	ldx	#$0
    153a: e4 13        	cpx	$13                     ; 0x2013 <__heap_start+0x267>
    153c: d0 06        	bne	$1544 <_ZN12_GLOBAL__N_15printEPKcP6Status+0x6f7>
    153e: 85 12        	sta	$12                     ; 0x2012 <__heap_start+0x266>
    1540: c4 12        	cpy	$12                     ; 0x2012 <__heap_start+0x266>
    1542: 80 02        	bra	$1546 <_ZN12_GLOBAL__N_15printEPKcP6Status+0x6f9>
    1544: e4 13        	cpx	$13                     ; 0x2013 <__heap_start+0x267>
    1546: 5a           	phy
    1547: a0 0c        	ldy	#$c
    1549: b1 10        	lda	($10),y                 ; 0x2010 <__heap_start+0x264>
    154b: 7a           	ply
    154c: aa           	tax
    154d: b0 03        	bcs	$1552 <_ZN12_GLOBAL__N_15printEPKcP6Status+0x705>
    154f: 4c 7b 14     	jmp	$147b <_ZN12_GLOBAL__N_15printEPKcP6Status+0x62e>
    1552: a5 24        	lda	$24                     ; 0x2024 <__heap_start+0x278>
    1554: 18           	clc
    1555: 69 0d        	adc	#$d
    1557: 85 12        	sta	$12                     ; 0x2012 <__heap_start+0x266>
    1559: a5 25        	lda	$25                     ; 0x2025 <__heap_start+0x279>
    155b: 69 00        	adc	#$0
    155d: 85 13        	sta	$13                     ; 0x2013 <__heap_start+0x267>
    155f: a0 01        	ldy	#$1
    1561: b1 12        	lda	($12),y                 ; 0x2012 <__heap_start+0x266>
    1563: 30 0a        	bmi	$156f <_ZN12_GLOBAL__N_15printEPKcP6Status+0x722>
    1565: a0 0d        	ldy	#$d
    1567: 85 29        	sta	$29                     ; 0x2029 <__heap_start+0x27d>
    1569: b1 24        	lda	($24),y                 ; 0x2024 <__heap_start+0x278>
    156b: 85 28        	sta	$28                     ; 0x2028 <__heap_start+0x27c>
    156d: 80 04        	bra	$1573 <_ZN12_GLOBAL__N_15printEPKcP6Status+0x726>
    156f: 64 29        	stz	$29                     ; 0x2029 <__heap_start+0x27d>
    1571: 84 28        	sty	$28                     ; 0x2028 <__heap_start+0x27c>
    1573: a0 01        	ldy	#$1
    1575: b1 24        	lda	($24),y                 ; 0x2024 <__heap_start+0x278>
    1577: 85 18        	sta	$18                     ; 0x2018 <__heap_start+0x26c>
    1579: 29 04        	and	#$4
    157b: f0 35        	beq	$15b2 <_ZN12_GLOBAL__N_15printEPKcP6Status+0x765>
    157d: b2 24        	lda	($24)                   ; 0x2024 <__heap_start+0x278>
    157f: c9 10        	cmp	#$10
    1581: f0 18        	beq	$159b <_ZN12_GLOBAL__N_15printEPKcP6Status+0x74e>
    1583: c9 08        	cmp	#$8
    1585: d0 2b        	bne	$15b2 <_ZN12_GLOBAL__N_15printEPKcP6Status+0x765>
    1587: a2 00        	ldx	#$0
    1589: e4 29        	cpx	$29                     ; 0x2029 <__heap_start+0x27d>
    158b: f0 03        	beq	$1590 <_ZN12_GLOBAL__N_15printEPKcP6Status+0x743>
    158d: 4c 51 17     	jmp	$1751 <_ZN12_GLOBAL__N_15printEPKcP6Status+0x904>
    1590: 5a           	phy
    1591: a0 0c        	ldy	#$c
    1593: b1 10        	lda	($10),y                 ; 0x2010 <__heap_start+0x264>
    1595: 7a           	ply
    1596: c5 28        	cmp	$28                     ; 0x2028 <__heap_start+0x27c>
    1598: 4c 53 17     	jmp	$1753 <_ZN12_GLOBAL__N_15printEPKcP6Status+0x906>
    159b: 5a           	phy
    159c: a0 0c        	ldy	#$c
    159e: b1 10        	lda	($10),y                 ; 0x2010 <__heap_start+0x264>
    15a0: 7a           	ply
    15a1: aa           	tax
    15a2: f0 0e        	beq	$15b2 <_ZN12_GLOBAL__N_15printEPKcP6Status+0x765>
    15a4: a5 18        	lda	$18                     ; 0x2018 <__heap_start+0x26c>
    15a6: 29 80        	and	#$80
    15a8: d0 03        	bne	$15ad <_ZN12_GLOBAL__N_15printEPKcP6Status+0x760>
    15aa: 4c 6e 17     	jmp	$176e <_ZN12_GLOBAL__N_15printEPKcP6Status+0x921>
    15ad: a2 78        	ldx	#$78
    15af: 4c 70 17     	jmp	$1770 <_ZN12_GLOBAL__N_15printEPKcP6Status+0x923>
    15b2: a5 18        	lda	$18                     ; 0x2018 <__heap_start+0x26c>
    15b4: a2 2d        	ldx	#$2d
    15b6: 48           	pha
    15b7: 5a           	phy
    15b8: 8a           	txa
    15b9: a0 09        	ldy	#$9
    15bb: 91 10        	sta	($10),y                 ; 0x2010 <__heap_start+0x264>
    15bd: c8           	iny
    15be: b1 10        	lda	($10),y                 ; 0x2010 <__heap_start+0x264>
    15c0: 7a           	ply
    15c1: 85 12        	sta	$12                     ; 0x2012 <__heap_start+0x266>
    15c3: 68           	pla
    15c4: a6 12        	ldx	$12                     ; 0x2012 <__heap_start+0x266>
    15c6: f0 0d        	beq	$15d5 <_ZN12_GLOBAL__N_15printEPKcP6Status+0x788>
    15c8: 18           	clc
    15c9: a9 00        	lda	#$0
    15cb: 5a           	phy
    15cc: a0 0a        	ldy	#$a
    15ce: 91 10        	sta	($10),y                 ; 0x2010 <__heap_start+0x264>
    15d0: 7a           	ply
    15d1: 84 12        	sty	$12                     ; 0x2012 <__heap_start+0x266>
    15d3: 80 2f        	bra	$1604 <_ZN12_GLOBAL__N_15printEPKcP6Status+0x7b7>
    15d5: aa           	tax
    15d6: 29 02        	and	#$2
    15d8: a0 2b        	ldy	#$2b
    15da: 48           	pha
    15db: 98           	tya
    15dc: a0 09        	ldy	#$9
    15de: 91 10        	sta	($10),y                 ; 0x2010 <__heap_start+0x264>
    15e0: 68           	pla
    15e1: d0 16        	bne	$15f9 <_ZN12_GLOBAL__N_15printEPKcP6Status+0x7ac>
    15e3: 8a           	txa
    15e4: 29 08        	and	#$8
    15e6: a0 01        	ldy	#$1
    15e8: aa           	tax
    15e9: f0 03        	beq	$15ee <_ZN12_GLOBAL__N_15printEPKcP6Status+0x7a1>
    15eb: 4c 43 17     	jmp	$1743 <_ZN12_GLOBAL__N_15printEPKcP6Status+0x8f6>
    15ee: 38           	sec
    15ef: a9 01        	lda	#$1
    15f1: a0 0a        	ldy	#$a
    15f3: 91 10        	sta	($10),y                 ; 0x2010 <__heap_start+0x264>
    15f5: 64 12        	stz	$12                     ; 0x2012 <__heap_start+0x266>
    15f7: 80 0b        	bra	$1604 <_ZN12_GLOBAL__N_15printEPKcP6Status+0x7b7>
    15f9: 18           	clc
    15fa: a9 00        	lda	#$0
    15fc: a0 0a        	ldy	#$a
    15fe: 91 10        	sta	($10),y                 ; 0x2010 <__heap_start+0x264>
    1600: a2 01        	ldx	#$1
    1602: 86 12        	stx	$12                     ; 0x2012 <__heap_start+0x266>
    1604: a0 0c        	ldy	#$c
    1606: b1 10        	lda	($10),y                 ; 0x2010 <__heap_start+0x264>
    1608: a8           	tay
    1609: a5 29        	lda	$29                     ; 0x2029 <__heap_start+0x27d>
    160b: d0 4d        	bne	$165a <_ZN12_GLOBAL__N_15printEPKcP6Status+0x80d>
    160d: a6 28        	ldx	$28                     ; 0x2028 <__heap_start+0x27c>
    160f: 84 13        	sty	$13                     ; 0x2013 <__heap_start+0x267>
    1611: e4 13        	cpx	$13                     ; 0x2013 <__heap_start+0x267>
    1613: a5 28        	lda	$28                     ; 0x2028 <__heap_start+0x27c>
    1615: a6 29        	ldx	$29                     ; 0x2029 <__heap_start+0x27d>
    1617: b0 03        	bcs	$161c <_ZN12_GLOBAL__N_15printEPKcP6Status+0x7cf>
    1619: 98           	tya
    161a: a2 00        	ldx	#$0
    161c: 18           	clc
    161d: 85 19        	sta	$19                     ; 0x2019 <__heap_start+0x26d>
    161f: 65 12        	adc	$12                     ; 0x2012 <__heap_start+0x266>
    1621: 85 1c        	sta	$1c                     ; 0x201c <__heap_start+0x270>
    1623: 85 13        	sta	$13                     ; 0x2013 <__heap_start+0x267>
    1625: 86 1a        	stx	$1a                     ; 0x201a <__heap_start+0x26e>
    1627: 8a           	txa
    1628: 69 00        	adc	#$0
    162a: 85 14        	sta	$14                     ; 0x2014 <__heap_start+0x268>
    162c: 85 1d        	sta	$1d                     ; 0x201d <__heap_start+0x271>
    162e: a5 24        	lda	$24                     ; 0x2024 <__heap_start+0x278>
    1630: 18           	clc
    1631: 69 0b        	adc	#$b
    1633: 85 16        	sta	$16                     ; 0x2016 <__heap_start+0x26a>
    1635: a5 25        	lda	$25                     ; 0x2025 <__heap_start+0x279>
    1637: 69 00        	adc	#$0
    1639: a0 0b        	ldy	#$b
    163b: 85 17        	sta	$17                     ; 0x2017 <__heap_start+0x26b>
    163d: b1 24        	lda	($24),y                 ; 0x2024 <__heap_start+0x278>
    163f: 85 1b        	sta	$1b                     ; 0x201b <__heap_start+0x26f>
    1641: 85 15        	sta	$15                     ; 0x2015 <__heap_start+0x269>
    1643: a0 01        	ldy	#$1
    1645: b1 16        	lda	($16),y                 ; 0x2016 <__heap_start+0x26a>
    1647: 85 17        	sta	$17                     ; 0x2017 <__heap_start+0x26b>
    1649: 85 16        	sta	$16                     ; 0x2016 <__heap_start+0x26a>
    164b: a5 1d        	lda	$1d                     ; 0x201d <__heap_start+0x271>
    164d: c5 16        	cmp	$16                     ; 0x2016 <__heap_start+0x26a>
    164f: d0 13        	bne	$1664 <_ZN12_GLOBAL__N_15printEPKcP6Status+0x817>
    1651: a6 1c        	ldx	$1c                     ; 0x201c <__heap_start+0x270>
    1653: e4 15        	cpx	$15                     ; 0x2015 <__heap_start+0x269>
    1655: 90 13        	bcc	$166a <_ZN12_GLOBAL__N_15printEPKcP6Status+0x81d>
    1657: 4c b2 16     	jmp	$16b2 <_ZN12_GLOBAL__N_15printEPKcP6Status+0x865>
    165a: a6 29        	ldx	$29                     ; 0x2029 <__heap_start+0x27d>
    165c: e0 00        	cpx	#$0
    165e: a5 28        	lda	$28                     ; 0x2028 <__heap_start+0x27c>
    1660: 90 b7        	bcc	$1619 <_ZN12_GLOBAL__N_15printEPKcP6Status+0x7cc>
    1662: 80 b8        	bra	$161c <_ZN12_GLOBAL__N_15printEPKcP6Status+0x7cf>
    1664: a6 1d        	ldx	$1d                     ; 0x201d <__heap_start+0x271>
    1666: e4 16        	cpx	$16                     ; 0x2016 <__heap_start+0x26a>
    1668: b0 48        	bcs	$16b2 <_ZN12_GLOBAL__N_15printEPKcP6Status+0x865>
    166a: a5 18        	lda	$18                     ; 0x2018 <__heap_start+0x26c>
    166c: 29 11        	and	#$11
    166e: f0 0d        	beq	$167d <_ZN12_GLOBAL__N_15printEPKcP6Status+0x830>
    1670: a5 1b        	lda	$1b                     ; 0x201b <__heap_start+0x26f>
    1672: 38           	sec
    1673: e5 13        	sbc	$13                     ; 0x2013 <__heap_start+0x267>
    1675: 85 2a        	sta	$2a                     ; 0x202a <__heap_start+0x27e>
    1677: a5 17        	lda	$17                     ; 0x2017 <__heap_start+0x26b>
    1679: e5 14        	sbc	$14                     ; 0x2014 <__heap_start+0x268>
    167b: 80 37        	bra	$16b4 <_ZN12_GLOBAL__N_15printEPKcP6Status+0x867>
    167d: 18           	clc
    167e: a5 19        	lda	$19                     ; 0x2019 <__heap_start+0x26d>
    1680: 65 12        	adc	$12                     ; 0x2012 <__heap_start+0x266>
    1682: aa           	tax
    1683: a5 1a        	lda	$1a                     ; 0x201a <__heap_start+0x26e>
    1685: 69 00        	adc	#$0
    1687: 85 12        	sta	$12                     ; 0x2012 <__heap_start+0x266>
    1689: 38           	sec
    168a: 8a           	txa
    168b: e5 15        	sbc	$15                     ; 0x2015 <__heap_start+0x269>
    168d: 85 2b        	sta	$2b                     ; 0x202b <__heap_start+0x27f>
    168f: a5 12        	lda	$12                     ; 0x2012 <__heap_start+0x266>
    1691: e5 16        	sbc	$16                     ; 0x2016 <__heap_start+0x26a>
    1693: 85 2c        	sta	$2c                     ; 0x202c <__heap_start+0x280>
    1695: a6 24        	ldx	$24                     ; 0x2024 <__heap_start+0x278>
    1697: 86 12        	stx	$12                     ; 0x2012 <__heap_start+0x266>
    1699: a6 25        	ldx	$25                     ; 0x2025 <__heap_start+0x279>
    169b: 86 13        	stx	$13                     ; 0x2013 <__heap_start+0x267>
    169d: a9 20        	lda	#$20
    169f: 20 91 19     	jsr	$1991 <_ZN12_GLOBAL__N_13putEcP6Status>
    16a2: a6 2c        	ldx	$2c                     ; 0x202c <__heap_start+0x280>
    16a4: e6 2b        	inc	$2b                     ; 0x202b <__heap_start+0x27f>
    16a6: d0 01        	bne	$16a9 <_ZN12_GLOBAL__N_15printEPKcP6Status+0x85c>
    16a8: e8           	inx
    16a9: 86 2c        	stx	$2c                     ; 0x202c <__heap_start+0x280>
    16ab: 8a           	txa
    16ac: d0 e7        	bne	$1695 <_ZN12_GLOBAL__N_15printEPKcP6Status+0x848>
    16ae: a5 2b        	lda	$2b                     ; 0x202b <__heap_start+0x27f>
    16b0: d0 e3        	bne	$1695 <_ZN12_GLOBAL__N_15printEPKcP6Status+0x848>
    16b2: a9 00        	lda	#$0
    16b4: 85 2b        	sta	$2b                     ; 0x202b <__heap_start+0x27f>
    16b6: a0 0a        	ldy	#$a
    16b8: b1 10        	lda	($10),y                 ; 0x2010 <__heap_start+0x264>
    16ba: 85 12        	sta	$12                     ; 0x2012 <__heap_start+0x266>
    16bc: a5 12        	lda	$12                     ; 0x2012 <__heap_start+0x266>
    16be: d0 0f        	bne	$16cf <_ZN12_GLOBAL__N_15printEPKcP6Status+0x882>
    16c0: a6 24        	ldx	$24                     ; 0x2024 <__heap_start+0x278>
    16c2: 86 12        	stx	$12                     ; 0x2012 <__heap_start+0x266>
    16c4: a6 25        	ldx	$25                     ; 0x2025 <__heap_start+0x279>
    16c6: 86 13        	stx	$13                     ; 0x2013 <__heap_start+0x267>
    16c8: a0 09        	ldy	#$9
    16ca: b1 10        	lda	($10),y                 ; 0x2010 <__heap_start+0x264>
    16cc: 20 91 19     	jsr	$1991 <_ZN12_GLOBAL__N_13putEcP6Status>
    16cf: a0 0b        	ldy	#$b
    16d1: b1 10        	lda	($10),y                 ; 0x2010 <__heap_start+0x264>
    16d3: 85 12        	sta	$12                     ; 0x2012 <__heap_start+0x266>
    16d5: a5 12        	lda	$12                     ; 0x2012 <__heap_start+0x266>
    16d7: f0 0f        	beq	$16e8 <_ZN12_GLOBAL__N_15printEPKcP6Status+0x89b>
    16d9: a6 24        	ldx	$24                     ; 0x2024 <__heap_start+0x278>
    16db: 86 12        	stx	$12                     ; 0x2012 <__heap_start+0x266>
    16dd: a6 25        	ldx	$25                     ; 0x2025 <__heap_start+0x279>
    16df: 86 13        	stx	$13                     ; 0x2013 <__heap_start+0x267>
    16e1: a0 08        	ldy	#$8
    16e3: b1 10        	lda	($10),y                 ; 0x2010 <__heap_start+0x264>
    16e5: 20 91 19     	jsr	$1991 <_ZN12_GLOBAL__N_13putEcP6Status>
    16e8: a0 01        	ldy	#$1
    16ea: b1 24        	lda	($24),y                 ; 0x2024 <__heap_start+0x278>
    16ec: aa           	tax
    16ed: 29 10        	and	#$10
    16ef: f0 3a        	beq	$172b <_ZN12_GLOBAL__N_15printEPKcP6Status+0x8de>
    16f1: 8a           	txa
    16f2: 29 01        	and	#$1
    16f4: 48           	pha
    16f5: a0 0c        	ldy	#$c
    16f7: b1 10        	lda	($10),y                 ; 0x2010 <__heap_start+0x264>
    16f9: aa           	tax
    16fa: 68           	pla
    16fb: d0 33        	bne	$1730 <_ZN12_GLOBAL__N_15printEPKcP6Status+0x8e3>
    16fd: a5 2b        	lda	$2b                     ; 0x202b <__heap_start+0x27f>
    16ff: d0 07        	bne	$1708 <_ZN12_GLOBAL__N_15printEPKcP6Status+0x8bb>
    1701: a5 2a        	lda	$2a                     ; 0x202a <__heap_start+0x27e>
    1703: d0 03        	bne	$1708 <_ZN12_GLOBAL__N_15printEPKcP6Status+0x8bb>
    1705: 4c 97 17     	jmp	$1797 <_ZN12_GLOBAL__N_15printEPKcP6Status+0x94a>
    1708: a6 24        	ldx	$24                     ; 0x2024 <__heap_start+0x278>
    170a: 86 12        	stx	$12                     ; 0x2012 <__heap_start+0x266>
    170c: a6 25        	ldx	$25                     ; 0x2025 <__heap_start+0x279>
    170e: 86 13        	stx	$13                     ; 0x2013 <__heap_start+0x267>
    1710: a9 30        	lda	#$30
    1712: 20 91 19     	jsr	$1991 <_ZN12_GLOBAL__N_13putEcP6Status>
    1715: a2 ff        	ldx	#$ff
    1717: c6 2a        	dec	$2a                     ; 0x202a <__heap_start+0x27e>
    1719: e4 2a        	cpx	$2a                     ; 0x202a <__heap_start+0x27e>
    171b: d0 02        	bne	$171f <_ZN12_GLOBAL__N_15printEPKcP6Status+0x8d2>
    171d: c6 2b        	dec	$2b                     ; 0x202b <__heap_start+0x27f>
    171f: a5 2b        	lda	$2b                     ; 0x202b <__heap_start+0x27f>
    1721: d0 e5        	bne	$1708 <_ZN12_GLOBAL__N_15printEPKcP6Status+0x8bb>
    1723: a5 2a        	lda	$2a                     ; 0x202a <__heap_start+0x27e>
    1725: d0 e1        	bne	$1708 <_ZN12_GLOBAL__N_15printEPKcP6Status+0x8bb>
    1727: 64 2a        	stz	$2a                     ; 0x202a <__heap_start+0x27e>
    1729: 64 2b        	stz	$2b                     ; 0x202b <__heap_start+0x27f>
    172b: a0 0c        	ldy	#$c
    172d: b1 10        	lda	($10),y                 ; 0x2010 <__heap_start+0x264>
    172f: aa           	tax
    1730: a0 00        	ldy	#$0
    1732: c4 29        	cpy	$29                     ; 0x2029 <__heap_start+0x27d>
    1734: d0 03        	bne	$1739 <_ZN12_GLOBAL__N_15printEPKcP6Status+0x8ec>
    1736: 4c a3 17     	jmp	$17a3 <_ZN12_GLOBAL__N_15printEPKcP6Status+0x956>
    1739: c4 29        	cpy	$29                     ; 0x2029 <__heap_start+0x27d>
    173b: b0 03        	bcs	$1740 <_ZN12_GLOBAL__N_15printEPKcP6Status+0x8f3>
    173d: 4c a7 17     	jmp	$17a7 <_ZN12_GLOBAL__N_15printEPKcP6Status+0x95a>
    1740: 4c cd 17     	jmp	$17cd <_ZN12_GLOBAL__N_15printEPKcP6Status+0x980>
    1743: a2 20        	ldx	#$20
    1745: 5a           	phy
    1746: 8a           	txa
    1747: a0 09        	ldy	#$9
    1749: 91 10        	sta	($10),y                 ; 0x2010 <__heap_start+0x264>
    174b: 18           	clc
    174c: a9 00        	lda	#$0
    174e: 4c cc 15     	jmp	$15cc <_ZN12_GLOBAL__N_15printEPKcP6Status+0x77f>
    1751: e4 29        	cpx	$29                     ; 0x2029 <__heap_start+0x27d>
    1753: a5 18        	lda	$18                     ; 0x2018 <__heap_start+0x26c>
    1755: b0 03        	bcs	$175a <_ZN12_GLOBAL__N_15printEPKcP6Status+0x90d>
    1757: 4c b4 15     	jmp	$15b4 <_ZN12_GLOBAL__N_15printEPKcP6Status+0x767>
    175a: 48           	pha
    175b: 5a           	phy
    175c: a0 0c        	ldy	#$c
    175e: b1 10        	lda	($10),y                 ; 0x2010 <__heap_start+0x264>
    1760: 7a           	ply
    1761: 85 28        	sta	$28                     ; 0x2028 <__heap_start+0x27c>
    1763: 68           	pla
    1764: e6 28        	inc	$28                     ; 0x2028 <__heap_start+0x27c>
    1766: d0 01        	bne	$1769 <_ZN12_GLOBAL__N_15printEPKcP6Status+0x91c>
    1768: e8           	inx
    1769: 86 29        	stx	$29                     ; 0x2029 <__heap_start+0x27d>
    176b: 4c b4 15     	jmp	$15b4 <_ZN12_GLOBAL__N_15printEPKcP6Status+0x767>
    176e: a2 58        	ldx	#$58
    1770: 8a           	txa
    1771: a0 08        	ldy	#$8
    1773: 91 10        	sta	($10),y                 ; 0x2010 <__heap_start+0x264>
    1775: a0 0c        	ldy	#$c
    1777: b1 10        	lda	($10),y                 ; 0x2010 <__heap_start+0x264>
    1779: a8           	tay
    177a: 38           	sec
    177b: 5a           	phy
    177c: a9 01        	lda	#$1
    177e: a0 0b        	ldy	#$b
    1780: 91 10        	sta	($10),y                 ; 0x2010 <__heap_start+0x264>
    1782: a2 30        	ldx	#$30
    1784: 8a           	txa
    1785: a0 09        	ldy	#$9
    1787: 91 10        	sta	($10),y                 ; 0x2010 <__heap_start+0x264>
    1789: a2 02        	ldx	#$2
    178b: 18           	clc
    178c: a9 00        	lda	#$0
    178e: c8           	iny
    178f: 91 10        	sta	($10),y                 ; 0x2010 <__heap_start+0x264>
    1791: 7a           	ply
    1792: 86 12        	stx	$12                     ; 0x2012 <__heap_start+0x266>
    1794: 4c 09 16     	jmp	$1609 <_ZN12_GLOBAL__N_15printEPKcP6Status+0x7bc>
    1797: 64 2a        	stz	$2a                     ; 0x202a <__heap_start+0x27e>
    1799: 64 2b        	stz	$2b                     ; 0x202b <__heap_start+0x27f>
    179b: 4c 30 17     	jmp	$1730 <_ZN12_GLOBAL__N_15printEPKcP6Status+0x8e3>
    179e: a0 0c        	ldy	#$c
    17a0: b1 10        	lda	($10),y                 ; 0x2010 <__heap_start+0x264>
    17a2: aa           	tax
    17a3: e4 28        	cpx	$28                     ; 0x2028 <__heap_start+0x27c>
    17a5: b0 26        	bcs	$17cd <_ZN12_GLOBAL__N_15printEPKcP6Status+0x980>
    17a7: a2 ff        	ldx	#$ff
    17a9: c6 28        	dec	$28                     ; 0x2028 <__heap_start+0x27c>
    17ab: e4 28        	cpx	$28                     ; 0x2028 <__heap_start+0x27c>
    17ad: d0 02        	bne	$17b1 <_ZN12_GLOBAL__N_15printEPKcP6Status+0x964>
    17af: c6 29        	dec	$29                     ; 0x2029 <__heap_start+0x27d>
    17b1: a6 24        	ldx	$24                     ; 0x2024 <__heap_start+0x278>
    17b3: 86 12        	stx	$12                     ; 0x2012 <__heap_start+0x266>
    17b5: a6 25        	ldx	$25                     ; 0x2025 <__heap_start+0x279>
    17b7: 86 13        	stx	$13                     ; 0x2013 <__heap_start+0x267>
    17b9: a9 30        	lda	#$30
    17bb: 20 91 19     	jsr	$1991 <_ZN12_GLOBAL__N_13putEcP6Status>
    17be: a2 00        	ldx	#$0
    17c0: e4 29        	cpx	$29                     ; 0x2029 <__heap_start+0x27d>
    17c2: f0 da        	beq	$179e <_ZN12_GLOBAL__N_15printEPKcP6Status+0x951>
    17c4: e4 29        	cpx	$29                     ; 0x2029 <__heap_start+0x27d>
    17c6: a0 0c        	ldy	#$c
    17c8: b1 10        	lda	($10),y                 ; 0x2010 <__heap_start+0x264>
    17ca: aa           	tax
    17cb: 90 da        	bcc	$17a7 <_ZN12_GLOBAL__N_15printEPKcP6Status+0x95a>
    17cd: a4 2b        	ldy	$2b                     ; 0x202b <__heap_start+0x27f>
    17cf: 84 2c        	sty	$2c                     ; 0x202c <__heap_start+0x280>
    17d1: 8a           	txa
    17d2: d0 03        	bne	$17d7 <_ZN12_GLOBAL__N_15printEPKcP6Status+0x98a>
    17d4: 4c 81 18     	jmp	$1881 <_ZN12_GLOBAL__N_15printEPKcP6Status+0xa34>
    17d7: ca           	dex
    17d8: d0 03        	bne	$17dd <_ZN12_GLOBAL__N_15printEPKcP6Status+0x990>
    17da: 4c 43 18     	jmp	$1843 <_ZN12_GLOBAL__N_15printEPKcP6Status+0x9f6>
    17dd: 86 2b        	stx	$2b                     ; 0x202b <__heap_start+0x27f>
    17df: 18           	clc
    17e0: a5 10        	lda	$10                     ; 0x2010 <__heap_start+0x264>
    17e2: 69 18        	adc	#$18
    17e4: 48           	pha
    17e5: a5 11        	lda	$11                     ; 0x2011 <__heap_start+0x265>
    17e7: 69 00        	adc	#$0
    17e9: 85 12        	sta	$12                     ; 0x2012 <__heap_start+0x266>
    17eb: 68           	pla
    17ec: 18           	clc
    17ed: 65 2b        	adc	$2b                     ; 0x202b <__heap_start+0x27f>
    17ef: aa           	tax
    17f0: a5 12        	lda	$12                     ; 0x2012 <__heap_start+0x266>
    17f2: 69 00        	adc	#$0
    17f4: 85 12        	sta	$12                     ; 0x2012 <__heap_start+0x266>
    17f6: 18           	clc
    17f7: 8a           	txa
    17f8: 69 02        	adc	#$2
    17fa: 85 28        	sta	$28                     ; 0x2028 <__heap_start+0x27c>
    17fc: a5 12        	lda	$12                     ; 0x2012 <__heap_start+0x266>
    17fe: 69 00        	adc	#$0
    1800: 85 29        	sta	$29                     ; 0x2029 <__heap_start+0x27d>
    1802: 80 35        	bra	$1839 <_ZN12_GLOBAL__N_15printEPKcP6Status+0x9ec>
    1804: 85 13        	sta	$13                     ; 0x2013 <__heap_start+0x267>
    1806: a9 80        	lda	#$80
    1808: a0 01        	ldy	#$1
    180a: 31 24        	and	($24),y                 ; 0x2024 <__heap_start+0x278>
    180c: f0 04        	beq	$1812 <_ZN12_GLOBAL__N_15printEPKcP6Status+0x9c5>
    180e: a2 61        	ldx	#$61
    1810: 80 02        	bra	$1814 <_ZN12_GLOBAL__N_15printEPKcP6Status+0x9c7>
    1812: a2 41        	ldx	#$41
    1814: 86 12        	stx	$12                     ; 0x2012 <__heap_start+0x266>
    1816: 18           	clc
    1817: a5 13        	lda	$13                     ; 0x2013 <__heap_start+0x267>
    1819: 65 12        	adc	$12                     ; 0x2012 <__heap_start+0x266>
    181b: 18           	clc
    181c: 69 f6        	adc	#$f6
    181e: a6 24        	ldx	$24                     ; 0x2024 <__heap_start+0x278>
    1820: 86 12        	stx	$12                     ; 0x2012 <__heap_start+0x266>
    1822: a6 25        	ldx	$25                     ; 0x2025 <__heap_start+0x279>
    1824: 86 13        	stx	$13                     ; 0x2013 <__heap_start+0x267>
    1826: 20 91 19     	jsr	$1991 <_ZN12_GLOBAL__N_13putEcP6Status>
    1829: c6 2b        	dec	$2b                     ; 0x202b <__heap_start+0x27f>
    182b: a2 ff        	ldx	#$ff
    182d: c6 28        	dec	$28                     ; 0x2028 <__heap_start+0x27c>
    182f: e4 28        	cpx	$28                     ; 0x2028 <__heap_start+0x27c>
    1831: d0 02        	bne	$1835 <_ZN12_GLOBAL__N_15printEPKcP6Status+0x9e8>
    1833: c6 29        	dec	$29                     ; 0x2029 <__heap_start+0x27d>
    1835: a5 2b        	lda	$2b                     ; 0x202b <__heap_start+0x27f>
    1837: f0 0a        	beq	$1843 <_ZN12_GLOBAL__N_15printEPKcP6Status+0x9f6>
    1839: b2 28        	lda	($28)                   ; 0x2028 <__heap_start+0x27c>
    183b: c9 0a        	cmp	#$a
    183d: b0 c5        	bcs	$1804 <_ZN12_GLOBAL__N_15printEPKcP6Status+0x9b7>
    183f: 09 30        	ora	#$30
    1841: 80 db        	bra	$181e <_ZN12_GLOBAL__N_15printEPKcP6Status+0x9d1>
    1843: a0 02        	ldy	#$2
    1845: 18           	clc
    1846: a5 10        	lda	$10                     ; 0x2010 <__heap_start+0x264>
    1848: 69 18        	adc	#$18
    184a: 85 12        	sta	$12                     ; 0x2012 <__heap_start+0x266>
    184c: a5 11        	lda	$11                     ; 0x2011 <__heap_start+0x265>
    184e: 69 00        	adc	#$0
    1850: 85 13        	sta	$13                     ; 0x2013 <__heap_start+0x267>
    1852: b1 12        	lda	($12),y                 ; 0x2012 <__heap_start+0x266>
    1854: c9 0a        	cmp	#$a
    1856: b0 04        	bcs	$185c <_ZN12_GLOBAL__N_15printEPKcP6Status+0xa0f>
    1858: 09 30        	ora	#$30
    185a: 80 1a        	bra	$1876 <_ZN12_GLOBAL__N_15printEPKcP6Status+0xa29>
    185c: 85 13        	sta	$13                     ; 0x2013 <__heap_start+0x267>
    185e: a0 01        	ldy	#$1
    1860: a9 80        	lda	#$80
    1862: 31 24        	and	($24),y                 ; 0x2024 <__heap_start+0x278>
    1864: f0 04        	beq	$186a <_ZN12_GLOBAL__N_15printEPKcP6Status+0xa1d>
    1866: a2 61        	ldx	#$61
    1868: 80 02        	bra	$186c <_ZN12_GLOBAL__N_15printEPKcP6Status+0xa1f>
    186a: a2 41        	ldx	#$41
    186c: 86 12        	stx	$12                     ; 0x2012 <__heap_start+0x266>
    186e: a5 13        	lda	$13                     ; 0x2013 <__heap_start+0x267>
    1870: 18           	clc
    1871: 65 12        	adc	$12                     ; 0x2012 <__heap_start+0x266>
    1873: 18           	clc
    1874: 69 f6        	adc	#$f6
    1876: a6 24        	ldx	$24                     ; 0x2024 <__heap_start+0x278>
    1878: 86 12        	stx	$12                     ; 0x2012 <__heap_start+0x266>
    187a: a6 25        	ldx	$25                     ; 0x2025 <__heap_start+0x279>
    187c: 86 13        	stx	$13                     ; 0x2013 <__heap_start+0x267>
    187e: 20 91 19     	jsr	$1991 <_ZN12_GLOBAL__N_13putEcP6Status>
    1881: a0 01        	ldy	#$1
    1883: 98           	tya
    1884: 31 24        	and	($24),y                 ; 0x2024 <__heap_start+0x278>
    1886: f0 21        	beq	$18a9 <_ZN12_GLOBAL__N_15printEPKcP6Status+0xa5c>
    1888: a5 2c        	lda	$2c                     ; 0x202c <__heap_start+0x280>
    188a: f0 19        	beq	$18a5 <_ZN12_GLOBAL__N_15printEPKcP6Status+0xa58>
    188c: a6 24        	ldx	$24                     ; 0x2024 <__heap_start+0x278>
    188e: 86 12        	stx	$12                     ; 0x2012 <__heap_start+0x266>
    1890: a6 25        	ldx	$25                     ; 0x2025 <__heap_start+0x279>
    1892: 86 13        	stx	$13                     ; 0x2013 <__heap_start+0x267>
    1894: a9 20        	lda	#$20
    1896: 20 91 19     	jsr	$1991 <_ZN12_GLOBAL__N_13putEcP6Status>
    1899: a2 ff        	ldx	#$ff
    189b: c6 2a        	dec	$2a                     ; 0x202a <__heap_start+0x27e>
    189d: e4 2a        	cpx	$2a                     ; 0x202a <__heap_start+0x27e>
    189f: d0 e7        	bne	$1888 <_ZN12_GLOBAL__N_15printEPKcP6Status+0xa3b>
    18a1: c6 2c        	dec	$2c                     ; 0x202c <__heap_start+0x280>
    18a3: 80 e3        	bra	$1888 <_ZN12_GLOBAL__N_15printEPKcP6Status+0xa3b>
    18a5: a5 2a        	lda	$2a                     ; 0x202a <__heap_start+0x27e>
    18a7: d0 e3        	bne	$188c <_ZN12_GLOBAL__N_15printEPKcP6Status+0xa3f>
    18a9: a4 24        	ldy	$24                     ; 0x2024 <__heap_start+0x278>
    18ab: a5 24        	lda	$24                     ; 0x2024 <__heap_start+0x278>
    18ad: 84 14        	sty	$14                     ; 0x2014 <__heap_start+0x268>
    18af: 18           	clc
    18b0: 69 05        	adc	#$5
    18b2: 85 12        	sta	$12                     ; 0x2012 <__heap_start+0x266>
    18b4: a5 25        	lda	$25                     ; 0x2025 <__heap_start+0x279>
    18b6: 69 00        	adc	#$0
    18b8: 18           	clc
    18b9: 85 13        	sta	$13                     ; 0x2013 <__heap_start+0x267>
    18bb: a0 01        	ldy	#$1
    18bd: a5 14        	lda	$14                     ; 0x2014 <__heap_start+0x268>
    18bf: 69 03        	adc	#$3
    18c1: 85 14        	sta	$14                     ; 0x2014 <__heap_start+0x268>
    18c3: a5 25        	lda	$25                     ; 0x2025 <__heap_start+0x279>
    18c5: 69 00        	adc	#$0
    18c7: aa           	tax
    18c8: b1 12        	lda	($12),y                 ; 0x2012 <__heap_start+0x266>
    18ca: 85 15        	sta	$15                     ; 0x2015 <__heap_start+0x269>
    18cc: a4 14        	ldy	$14                     ; 0x2014 <__heap_start+0x268>
    18ce: 84 12        	sty	$12                     ; 0x2012 <__heap_start+0x266>
    18d0: 86 13        	stx	$13                     ; 0x2013 <__heap_start+0x267>
    18d2: a0 03        	ldy	#$3
    18d4: b1 24        	lda	($24),y                 ; 0x2024 <__heap_start+0x278>
    18d6: aa           	tax
    18d7: a0 01        	ldy	#$1
    18d9: b1 12        	lda	($12),y                 ; 0x2012 <__heap_start+0x266>
    18db: 85 12        	sta	$12                     ; 0x2012 <__heap_start+0x266>
    18dd: a4 15        	ldy	$15                     ; 0x2015 <__heap_start+0x269>
    18df: c4 12        	cpy	$12                     ; 0x2012 <__heap_start+0x266>
    18e1: d0 10        	bne	$18f3 <_ZN12_GLOBAL__N_15printEPKcP6Status+0xaa6>
    18e3: a0 05        	ldy	#$5
    18e5: 85 15        	sta	$15                     ; 0x2015 <__heap_start+0x269>
    18e7: b1 24        	lda	($24),y                 ; 0x2024 <__heap_start+0x278>
    18e9: 86 13        	stx	$13                     ; 0x2013 <__heap_start+0x267>
    18eb: 86 12        	stx	$12                     ; 0x2012 <__heap_start+0x266>
    18ed: c5 12        	cmp	$12                     ; 0x2012 <__heap_start+0x266>
    18ef: b0 10        	bcs	$1901 <_ZN12_GLOBAL__N_15printEPKcP6Status+0xab4>
    18f1: 80 43        	bra	$1936 <_ZN12_GLOBAL__N_15printEPKcP6Status+0xae9>
    18f3: 84 14        	sty	$14                     ; 0x2014 <__heap_start+0x268>
    18f5: 86 13        	stx	$13                     ; 0x2013 <__heap_start+0x267>
    18f7: 85 12        	sta	$12                     ; 0x2012 <__heap_start+0x266>
    18f9: a6 14        	ldx	$14                     ; 0x2014 <__heap_start+0x268>
    18fb: e4 12        	cpx	$12                     ; 0x2012 <__heap_start+0x266>
    18fd: 85 15        	sta	$15                     ; 0x2015 <__heap_start+0x269>
    18ff: 90 35        	bcc	$1936 <_ZN12_GLOBAL__N_15printEPKcP6Status+0xae9>
    1901: a6 13        	ldx	$13                     ; 0x2013 <__heap_start+0x267>
    1903: a5 15        	lda	$15                     ; 0x2015 <__heap_start+0x269>
    1905: d0 03        	bne	$190a <_ZN12_GLOBAL__N_15printEPKcP6Status+0xabd>
    1907: 8a           	txa
    1908: f0 2c        	beq	$1936 <_ZN12_GLOBAL__N_15printEPKcP6Status+0xae9>
    190a: a5 24        	lda	$24                     ; 0x2024 <__heap_start+0x278>
    190c: 18           	clc
    190d: 69 09        	adc	#$9
    190f: 85 12        	sta	$12                     ; 0x2012 <__heap_start+0x266>
    1911: a5 25        	lda	$25                     ; 0x2025 <__heap_start+0x279>
    1913: 69 00        	adc	#$0
    1915: a0 09        	ldy	#$9
    1917: 85 13        	sta	$13                     ; 0x2013 <__heap_start+0x267>
    1919: 18           	clc
    191a: 8a           	txa
    191b: 71 24        	adc	($24),y                 ; 0x2024 <__heap_start+0x278>
    191d: aa           	tax
    191e: a0 01        	ldy	#$1
    1920: a5 15        	lda	$15                     ; 0x2015 <__heap_start+0x269>
    1922: 71 12        	adc	($12),y                 ; 0x2012 <__heap_start+0x266>
    1924: 86 12        	stx	$12                     ; 0x2012 <__heap_start+0x266>
    1926: 85 13        	sta	$13                     ; 0x2013 <__heap_start+0x267>
    1928: a2 ff        	ldx	#$ff
    192a: c6 12        	dec	$12                     ; 0x2012 <__heap_start+0x266>
    192c: e4 12        	cpx	$12                     ; 0x2012 <__heap_start+0x266>
    192e: d0 02        	bne	$1932 <_ZN12_GLOBAL__N_15printEPKcP6Status+0xae5>
    1930: c6 13        	dec	$13                     ; 0x2013 <__heap_start+0x267>
    1932: a9 00        	lda	#$0
    1934: 92 12        	sta	($12)                   ; 0x2012 <__heap_start+0x266>
    1936: b2 26        	lda	($26)                   ; 0x2026 <__heap_start+0x27a>
    1938: 85 28        	sta	$28                     ; 0x2028 <__heap_start+0x27c>
    193a: a0 01        	ldy	#$1
    193c: b1 26        	lda	($26),y                 ; 0x2026 <__heap_start+0x27a>
    193e: 85 29        	sta	$29                     ; 0x2029 <__heap_start+0x27d>
    1940: e6 28        	inc	$28                     ; 0x2028 <__heap_start+0x27c>
    1942: d0 02        	bne	$1946 <_ZN12_GLOBAL__N_15printEPKcP6Status+0xaf9>
    1944: e6 29        	inc	$29                     ; 0x2029 <__heap_start+0x27d>
    1946: a6 28        	ldx	$28                     ; 0x2028 <__heap_start+0x27c>
    1948: 86 12        	stx	$12                     ; 0x2012 <__heap_start+0x266>
    194a: a6 29        	ldx	$29                     ; 0x2029 <__heap_start+0x27d>
    194c: 86 13        	stx	$13                     ; 0x2013 <__heap_start+0x267>
    194e: a0 00        	ldy	#$0
    1950: b1 10        	lda	($10),y                 ; 0x2010 <__heap_start+0x264>
    1952: 85 2f        	sta	$2f                     ; 0x202f <__heap_start+0x283>
    1954: c8           	iny
    1955: b1 10        	lda	($10),y                 ; 0x2010 <__heap_start+0x264>
    1957: 85 2e        	sta	$2e                     ; 0x202e <__heap_start+0x282>
    1959: c8           	iny
    195a: b1 10        	lda	($10),y                 ; 0x2010 <__heap_start+0x264>
    195c: 85 2d        	sta	$2d                     ; 0x202d <__heap_start+0x281>
    195e: c8           	iny
    195f: b1 10        	lda	($10),y                 ; 0x2010 <__heap_start+0x264>
    1961: 85 2c        	sta	$2c                     ; 0x202c <__heap_start+0x280>
    1963: c8           	iny
    1964: b1 10        	lda	($10),y                 ; 0x2010 <__heap_start+0x264>
    1966: 85 2b        	sta	$2b                     ; 0x202b <__heap_start+0x27f>
    1968: c8           	iny
    1969: b1 10        	lda	($10),y                 ; 0x2010 <__heap_start+0x264>
    196b: 85 2a        	sta	$2a                     ; 0x202a <__heap_start+0x27e>
    196d: c8           	iny
    196e: b1 10        	lda	($10),y                 ; 0x2010 <__heap_start+0x264>
    1970: 85 29        	sta	$29                     ; 0x2029 <__heap_start+0x27d>
    1972: c8           	iny
    1973: b1 10        	lda	($10),y                 ; 0x2010 <__heap_start+0x264>
    1975: 85 28        	sta	$28                     ; 0x2028 <__heap_start+0x27c>
    1977: fa           	plx
    1978: 86 27        	stx	$27                     ; 0x2027 <__heap_start+0x27b>
    197a: fa           	plx
    197b: 86 26        	stx	$26                     ; 0x2026 <__heap_start+0x27a>
    197d: fa           	plx
    197e: 86 25        	stx	$25                     ; 0x2025 <__heap_start+0x279>
    1980: fa           	plx
    1981: 86 24        	stx	$24                     ; 0x2024 <__heap_start+0x278>
    1983: 18           	clc
    1984: a5 10        	lda	$10                     ; 0x2010 <__heap_start+0x264>
    1986: 69 2f        	adc	#$2f
    1988: 85 10        	sta	$10                     ; 0x2010 <__heap_start+0x264>
    198a: a5 11        	lda	$11                     ; 0x2011 <__heap_start+0x265>
    198c: 69 00        	adc	#$0
    198e: 85 11        	sta	$11                     ; 0x2011 <__heap_start+0x265>
    1990: 60           	rts

00001991 <_ZN12_GLOBAL__N_13putEcP6Status>:
    1991: a6 24        	ldx	$24                     ; 0x2024 <__heap_start+0x278>
    1993: da           	phx
    1994: a6 25        	ldx	$25                     ; 0x2025 <__heap_start+0x279>
    1996: da           	phx
    1997: 85 16        	sta	$16                     ; 0x2016 <__heap_start+0x26a>
    1999: a6 12        	ldx	$12                     ; 0x2012 <__heap_start+0x266>
    199b: 86 24        	stx	$24                     ; 0x2024 <__heap_start+0x278>
    199d: a6 13        	ldx	$13                     ; 0x2013 <__heap_start+0x267>
    199f: 86 25        	stx	$25                     ; 0x2025 <__heap_start+0x279>
    19a1: a6 25        	ldx	$25                     ; 0x2025 <__heap_start+0x279>
    19a3: 18           	clc
    19a4: a5 12        	lda	$12                     ; 0x2012 <__heap_start+0x266>
    19a6: 69 05        	adc	#$5
    19a8: a8           	tay
    19a9: a5 25        	lda	$25                     ; 0x2025 <__heap_start+0x279>
    19ab: 86 13        	stx	$13                     ; 0x2013 <__heap_start+0x267>
    19ad: 69 00        	adc	#$0
    19af: 18           	clc
    19b0: 84 14        	sty	$14                     ; 0x2014 <__heap_start+0x268>
    19b2: a0 05        	ldy	#$5
    19b4: 85 15        	sta	$15                     ; 0x2015 <__heap_start+0x269>
    19b6: b1 24        	lda	($24),y                 ; 0x2024 <__heap_start+0x278>
    19b8: aa           	tax
    19b9: a5 12        	lda	$12                     ; 0x2012 <__heap_start+0x266>
    19bb: 69 03        	adc	#$3
    19bd: 85 12        	sta	$12                     ; 0x2012 <__heap_start+0x266>
    19bf: a5 13        	lda	$13                     ; 0x2013 <__heap_start+0x267>
    19c1: 69 00        	adc	#$0
    19c3: 85 13        	sta	$13                     ; 0x2013 <__heap_start+0x267>
    19c5: a0 01        	ldy	#$1
    19c7: b1 14        	lda	($14),y                 ; 0x2014 <__heap_start+0x268>
    19c9: d1 12        	cmp	($12),y                 ; 0x2012 <__heap_start+0x266>
    19cb: d0 11        	bne	$19de <_ZN12_GLOBAL__N_13putEcP6Status+0x4d>
    19cd: a0 03        	ldy	#$3
    19cf: 85 15        	sta	$15                     ; 0x2015 <__heap_start+0x269>
    19d1: b1 24        	lda	($24),y                 ; 0x2024 <__heap_start+0x278>
    19d3: 85 12        	sta	$12                     ; 0x2012 <__heap_start+0x266>
    19d5: 86 14        	stx	$14                     ; 0x2014 <__heap_start+0x268>
    19d7: e4 12        	cpx	$12                     ; 0x2012 <__heap_start+0x266>
    19d9: 90 0e        	bcc	$19e9 <_ZN12_GLOBAL__N_13putEcP6Status+0x58>
    19db: 4c 44 1a     	jmp	$1a44 <_ZN12_GLOBAL__N_13putEcP6Status+0xb3>
    19de: 86 14        	stx	$14                     ; 0x2014 <__heap_start+0x268>
    19e0: d1 12        	cmp	($12),y                 ; 0x2012 <__heap_start+0x266>
    19e2: 85 15        	sta	$15                     ; 0x2015 <__heap_start+0x269>
    19e4: 90 03        	bcc	$19e9 <_ZN12_GLOBAL__N_13putEcP6Status+0x58>
    19e6: 4c 44 1a     	jmp	$1a44 <_ZN12_GLOBAL__N_13putEcP6Status+0xb3>
    19e9: a0 0f        	ldy	#$f
    19eb: a5 24        	lda	$24                     ; 0x2024 <__heap_start+0x278>
    19ed: 18           	clc
    19ee: 69 0f        	adc	#$f
    19f0: 85 12        	sta	$12                     ; 0x2012 <__heap_start+0x266>
    19f2: a5 25        	lda	$25                     ; 0x2025 <__heap_start+0x279>
    19f4: 69 00        	adc	#$0
    19f6: 85 13        	sta	$13                     ; 0x2013 <__heap_start+0x267>
    19f8: b1 24        	lda	($24),y                 ; 0x2024 <__heap_start+0x278>
    19fa: 85 17        	sta	$17                     ; 0x2017 <__heap_start+0x26b>
    19fc: a0 01        	ldy	#$1
    19fe: b1 12        	lda	($12),y                 ; 0x2012 <__heap_start+0x266>
    1a00: a2 00        	ldx	#$0
    1a02: 86 12        	stx	$12                     ; 0x2012 <__heap_start+0x266>
    1a04: a2 00        	ldx	#$0
    1a06: 86 13        	stx	$13                     ; 0x2013 <__heap_start+0x267>
    1a08: c5 13        	cmp	$13                     ; 0x2013 <__heap_start+0x267>
    1a0a: d0 2b        	bne	$1a37 <_ZN12_GLOBAL__N_13putEcP6Status+0xa6>
    1a0c: a4 17        	ldy	$17                     ; 0x2017 <__heap_start+0x26b>
    1a0e: c4 12        	cpy	$12                     ; 0x2012 <__heap_start+0x266>
    1a10: d0 27        	bne	$1a39 <_ZN12_GLOBAL__N_13putEcP6Status+0xa8>
    1a12: a5 24        	lda	$24                     ; 0x2024 <__heap_start+0x278>
    1a14: 18           	clc
    1a15: 69 09        	adc	#$9
    1a17: 85 12        	sta	$12                     ; 0x2012 <__heap_start+0x266>
    1a19: a5 25        	lda	$25                     ; 0x2025 <__heap_start+0x279>
    1a1b: 69 00        	adc	#$0
    1a1d: a0 09        	ldy	#$9
    1a1f: 85 13        	sta	$13                     ; 0x2013 <__heap_start+0x267>
    1a21: 18           	clc
    1a22: a5 14        	lda	$14                     ; 0x2014 <__heap_start+0x268>
    1a24: 71 24        	adc	($24),y                 ; 0x2024 <__heap_start+0x278>
    1a26: aa           	tax
    1a27: a0 01        	ldy	#$1
    1a29: a5 15        	lda	$15                     ; 0x2015 <__heap_start+0x269>
    1a2b: 71 12        	adc	($12),y                 ; 0x2012 <__heap_start+0x266>
    1a2d: 86 12        	stx	$12                     ; 0x2012 <__heap_start+0x266>
    1a2f: 85 13        	sta	$13                     ; 0x2013 <__heap_start+0x267>
    1a31: a5 16        	lda	$16                     ; 0x2016 <__heap_start+0x26a>
    1a33: 92 12        	sta	($12)                   ; 0x2012 <__heap_start+0x266>
    1a35: 80 0d        	bra	$1a44 <_ZN12_GLOBAL__N_13putEcP6Status+0xb3>
    1a37: a4 17        	ldy	$17                     ; 0x2017 <__heap_start+0x26b>
    1a39: 84 12        	sty	$12                     ; 0x2012 <__heap_start+0x266>
    1a3b: 85 13        	sta	$13                     ; 0x2013 <__heap_start+0x267>
    1a3d: a2 00        	ldx	#$0
    1a3f: a5 16        	lda	$16                     ; 0x2016 <__heap_start+0x26a>
    1a41: 20 6f 1c     	jsr	$1c6f <putc>
    1a44: a0 05        	ldy	#$5
    1a46: a5 24        	lda	$24                     ; 0x2024 <__heap_start+0x278>
    1a48: 18           	clc
    1a49: 69 05        	adc	#$5
    1a4b: 85 12        	sta	$12                     ; 0x2012 <__heap_start+0x266>
    1a4d: a5 25        	lda	$25                     ; 0x2025 <__heap_start+0x279>
    1a4f: 69 00        	adc	#$0
    1a51: 85 13        	sta	$13                     ; 0x2013 <__heap_start+0x267>
    1a53: b1 24        	lda	($24),y                 ; 0x2024 <__heap_start+0x278>
    1a55: aa           	tax
    1a56: a0 01        	ldy	#$1
    1a58: b1 12        	lda	($12),y                 ; 0x2012 <__heap_start+0x266>
    1a5a: e8           	inx
    1a5b: d0 01        	bne	$1a5e <_ZN12_GLOBAL__N_13putEcP6Status+0xcd>
    1a5d: 1a           	inc
    1a5e: 85 14        	sta	$14                     ; 0x2014 <__heap_start+0x268>
    1a60: 8a           	txa
    1a61: a0 05        	ldy	#$5
    1a63: 91 24        	sta	($24),y                 ; 0x2024 <__heap_start+0x278>
    1a65: a0 01        	ldy	#$1
    1a67: a5 14        	lda	$14                     ; 0x2014 <__heap_start+0x268>
    1a69: 91 12        	sta	($12),y                 ; 0x2012 <__heap_start+0x266>
    1a6b: fa           	plx
    1a6c: 86 25        	stx	$25                     ; 0x2025 <__heap_start+0x279>
    1a6e: fa           	plx
    1a6f: 86 24        	stx	$24                     ; 0x2024 <__heap_start+0x278>
    1a71: 60           	rts

00001a72 <_ZN12_GLOBAL__N_112print_stringEPKcP6Status>:
    1a72: 18           	clc
    1a73: a5 10        	lda	$10                     ; 0x2010 <__heap_start+0x264>
    1a75: 69 fc        	adc	#$fc
    1a77: 85 10        	sta	$10                     ; 0x2010 <__heap_start+0x264>
    1a79: a5 11        	lda	$11                     ; 0x2011 <__heap_start+0x265>
    1a7b: 69 ff        	adc	#$ff
    1a7d: 85 11        	sta	$11                     ; 0x2011 <__heap_start+0x265>
    1a7f: a6 24        	ldx	$24                     ; 0x2024 <__heap_start+0x278>
    1a81: da           	phx
    1a82: a6 25        	ldx	$25                     ; 0x2025 <__heap_start+0x279>
    1a84: da           	phx
    1a85: a6 26        	ldx	$26                     ; 0x2026 <__heap_start+0x27a>
    1a87: da           	phx
    1a88: a6 27        	ldx	$27                     ; 0x2027 <__heap_start+0x27b>
    1a8a: da           	phx
    1a8b: a5 28        	lda	$28                     ; 0x2028 <__heap_start+0x27c>
    1a8d: a0 02        	ldy	#$2
    1a8f: 91 10        	sta	($10),y                 ; 0x2010 <__heap_start+0x264>
    1a91: a5 29        	lda	$29                     ; 0x2029 <__heap_start+0x27d>
    1a93: 88           	dey
    1a94: 91 10        	sta	($10),y                 ; 0x2010 <__heap_start+0x264>
    1a96: a5 2a        	lda	$2a                     ; 0x202a <__heap_start+0x27e>
    1a98: 88           	dey
    1a99: 91 10        	sta	($10),y                 ; 0x2010 <__heap_start+0x264>
    1a9b: a6 12        	ldx	$12                     ; 0x2012 <__heap_start+0x266>
    1a9d: 86 24        	stx	$24                     ; 0x2024 <__heap_start+0x278>
    1a9f: a6 13        	ldx	$13                     ; 0x2013 <__heap_start+0x267>
    1aa1: 86 25        	stx	$25                     ; 0x2025 <__heap_start+0x279>
    1aa3: a6 14        	ldx	$14                     ; 0x2014 <__heap_start+0x268>
    1aa5: 86 26        	stx	$26                     ; 0x2026 <__heap_start+0x27a>
    1aa7: a6 15        	ldx	$15                     ; 0x2015 <__heap_start+0x269>
    1aa9: 86 27        	stx	$27                     ; 0x2027 <__heap_start+0x27b>
    1aab: a5 26        	lda	$26                     ; 0x2026 <__heap_start+0x27a>
    1aad: 18           	clc
    1aae: 69 0d        	adc	#$d
    1ab0: 85 12        	sta	$12                     ; 0x2012 <__heap_start+0x266>
    1ab2: a5 27        	lda	$27                     ; 0x2027 <__heap_start+0x27b>
    1ab4: 69 00        	adc	#$0
    1ab6: 85 13        	sta	$13                     ; 0x2013 <__heap_start+0x267>
    1ab8: c8           	iny
    1ab9: b1 12        	lda	($12),y                 ; 0x2012 <__heap_start+0x266>
    1abb: 30 1c        	bmi	$1ad9 <_ZN12_GLOBAL__N_112print_stringEPKcP6Status+0x67>
    1abd: a0 0d        	ldy	#$d
    1abf: aa           	tax
    1ac0: b1 26        	lda	($26),y                 ; 0x2026 <__heap_start+0x27a>
    1ac2: 48           	pha
    1ac3: 8a           	txa
    1ac4: a0 03        	ldy	#$3
    1ac6: 91 10        	sta	($10),y                 ; 0x2010 <__heap_start+0x264>
    1ac8: 68           	pla
    1ac9: e0 00        	cpx	#$0
    1acb: d0 16        	bne	$1ae3 <_ZN12_GLOBAL__N_112print_stringEPKcP6Status+0x71>
    1acd: aa           	tax
    1ace: d0 13        	bne	$1ae3 <_ZN12_GLOBAL__N_112print_stringEPKcP6Status+0x71>
    1ad0: 64 28        	stz	$28                     ; 0x2028 <__heap_start+0x27c>
    1ad2: 64 12        	stz	$12                     ; 0x2012 <__heap_start+0x266>
    1ad4: a9 00        	lda	#$0
    1ad6: 4c e1 1b     	jmp	$1be1 <_ZN12_GLOBAL__N_112print_stringEPKcP6Status+0x16f>
    1ad9: a9 ff        	lda	#$ff
    1adb: aa           	tax
    1adc: 48           	pha
    1add: 8a           	txa
    1ade: a0 03        	ldy	#$3
    1ae0: 91 10        	sta	($10),y                 ; 0x2010 <__heap_start+0x264>
    1ae2: 68           	pla
    1ae3: 85 28        	sta	$28                     ; 0x2028 <__heap_start+0x27c>
    1ae5: 64 12        	stz	$12                     ; 0x2012 <__heap_start+0x266>
    1ae7: a4 24        	ldy	$24                     ; 0x2024 <__heap_start+0x278>
    1ae9: a6 25        	ldx	$25                     ; 0x2025 <__heap_start+0x279>
    1aeb: 86 16        	stx	$16                     ; 0x2016 <__heap_start+0x26a>
    1aed: 64 13        	stz	$13                     ; 0x2013 <__heap_start+0x267>
    1aef: 98           	tya
    1af0: 18           	clc
    1af1: 65 12        	adc	$12                     ; 0x2012 <__heap_start+0x266>
    1af3: 85 14        	sta	$14                     ; 0x2014 <__heap_start+0x268>
    1af5: a5 25        	lda	$25                     ; 0x2025 <__heap_start+0x279>
    1af7: 65 13        	adc	$13                     ; 0x2013 <__heap_start+0x267>
    1af9: 85 15        	sta	$15                     ; 0x2015 <__heap_start+0x269>
    1afb: b2 14        	lda	($14)                   ; 0x2014 <__heap_start+0x268>
    1afd: d0 03        	bne	$1b02 <_ZN12_GLOBAL__N_112print_stringEPKcP6Status+0x90>
    1aff: 4c d9 1b     	jmp	$1bd9 <_ZN12_GLOBAL__N_112print_stringEPKcP6Status+0x167>
    1b02: e6 12        	inc	$12                     ; 0x2012 <__heap_start+0x266>
    1b04: d0 02        	bne	$1b08 <_ZN12_GLOBAL__N_112print_stringEPKcP6Status+0x96>
    1b06: e6 13        	inc	$13                     ; 0x2013 <__heap_start+0x267>
    1b08: 5a           	phy
    1b09: a0 03        	ldy	#$3
    1b0b: b1 10        	lda	($10),y                 ; 0x2010 <__heap_start+0x264>
    1b0d: 7a           	ply
    1b0e: c5 13        	cmp	$13                     ; 0x2013 <__heap_start+0x267>
    1b10: d0 dd        	bne	$1aef <_ZN12_GLOBAL__N_112print_stringEPKcP6Status+0x7d>
    1b12: a6 28        	ldx	$28                     ; 0x2028 <__heap_start+0x27c>
    1b14: e4 12        	cpx	$12                     ; 0x2012 <__heap_start+0x266>
    1b16: d0 d7        	bne	$1aef <_ZN12_GLOBAL__N_112print_stringEPKcP6Status+0x7d>
    1b18: a0 01        	ldy	#$1
    1b1a: b1 26        	lda	($26),y                 ; 0x2026 <__heap_start+0x27a>
    1b1c: 29 01        	and	#$1
    1b1e: f0 03        	beq	$1b23 <_ZN12_GLOBAL__N_112print_stringEPKcP6Status+0xb1>
    1b20: 4c 7e 1b     	jmp	$1b7e <_ZN12_GLOBAL__N_112print_stringEPKcP6Status+0x10c>
    1b23: a5 26        	lda	$26                     ; 0x2026 <__heap_start+0x27a>
    1b25: 18           	clc
    1b26: 69 0b        	adc	#$b
    1b28: 85 14        	sta	$14                     ; 0x2014 <__heap_start+0x268>
    1b2a: a5 27        	lda	$27                     ; 0x2027 <__heap_start+0x27b>
    1b2c: 69 00        	adc	#$0
    1b2e: 85 15        	sta	$15                     ; 0x2015 <__heap_start+0x269>
    1b30: a0 0b        	ldy	#$b
    1b32: b1 26        	lda	($26),y                 ; 0x2026 <__heap_start+0x27a>
    1b34: 85 13        	sta	$13                     ; 0x2013 <__heap_start+0x267>
    1b36: a0 01        	ldy	#$1
    1b38: b1 14        	lda	($14),y                 ; 0x2014 <__heap_start+0x268>
    1b3a: 85 12        	sta	$12                     ; 0x2012 <__heap_start+0x266>
    1b3c: a0 03        	ldy	#$3
    1b3e: b1 10        	lda	($10),y                 ; 0x2010 <__heap_start+0x264>
    1b40: aa           	tax
    1b41: c5 12        	cmp	$12                     ; 0x2012 <__heap_start+0x266>
    1b43: d0 08        	bne	$1b4d <_ZN12_GLOBAL__N_112print_stringEPKcP6Status+0xdb>
    1b45: a6 28        	ldx	$28                     ; 0x2028 <__heap_start+0x27c>
    1b47: e4 13        	cpx	$13                     ; 0x2013 <__heap_start+0x267>
    1b49: 90 06        	bcc	$1b51 <_ZN12_GLOBAL__N_112print_stringEPKcP6Status+0xdf>
    1b4b: 80 31        	bra	$1b7e <_ZN12_GLOBAL__N_112print_stringEPKcP6Status+0x10c>
    1b4d: e4 12        	cpx	$12                     ; 0x2012 <__heap_start+0x266>
    1b4f: b0 2d        	bcs	$1b7e <_ZN12_GLOBAL__N_112print_stringEPKcP6Status+0x10c>
    1b51: 38           	sec
    1b52: a5 28        	lda	$28                     ; 0x2028 <__heap_start+0x27c>
    1b54: e5 13        	sbc	$13                     ; 0x2013 <__heap_start+0x267>
    1b56: aa           	tax
    1b57: b1 10        	lda	($10),y                 ; 0x2010 <__heap_start+0x264>
    1b59: e5 12        	sbc	$12                     ; 0x2012 <__heap_start+0x266>
    1b5b: 85 2a        	sta	$2a                     ; 0x202a <__heap_start+0x27e>
    1b5d: a4 26        	ldy	$26                     ; 0x2026 <__heap_start+0x27a>
    1b5f: 84 12        	sty	$12                     ; 0x2012 <__heap_start+0x266>
    1b61: a4 27        	ldy	$27                     ; 0x2027 <__heap_start+0x27b>
    1b63: 84 13        	sty	$13                     ; 0x2013 <__heap_start+0x267>
    1b65: 86 29        	stx	$29                     ; 0x2029 <__heap_start+0x27d>
    1b67: a9 20        	lda	#$20
    1b69: 20 91 19     	jsr	$1991 <_ZN12_GLOBAL__N_13putEcP6Status>
    1b6c: a4 2a        	ldy	$2a                     ; 0x202a <__heap_start+0x27e>
    1b6e: e6 29        	inc	$29                     ; 0x2029 <__heap_start+0x27d>
    1b70: d0 01        	bne	$1b73 <_ZN12_GLOBAL__N_112print_stringEPKcP6Status+0x101>
    1b72: c8           	iny
    1b73: 84 2a        	sty	$2a                     ; 0x202a <__heap_start+0x27e>
    1b75: a6 29        	ldx	$29                     ; 0x2029 <__heap_start+0x27d>
    1b77: 98           	tya
    1b78: d0 e3        	bne	$1b5d <_ZN12_GLOBAL__N_112print_stringEPKcP6Status+0xeb>
    1b7a: a5 29        	lda	$29                     ; 0x2029 <__heap_start+0x27d>
    1b7c: d0 df        	bne	$1b5d <_ZN12_GLOBAL__N_112print_stringEPKcP6Status+0xeb>
    1b7e: a0 03        	ldy	#$3
    1b80: b1 10        	lda	($10),y                 ; 0x2010 <__heap_start+0x264>
    1b82: a8           	tay
    1b83: d0 04        	bne	$1b89 <_ZN12_GLOBAL__N_112print_stringEPKcP6Status+0x117>
    1b85: a5 28        	lda	$28                     ; 0x2028 <__heap_start+0x27c>
    1b87: f0 26        	beq	$1baf <_ZN12_GLOBAL__N_112print_stringEPKcP6Status+0x13d>
    1b89: a2 ff        	ldx	#$ff
    1b8b: c6 28        	dec	$28                     ; 0x2028 <__heap_start+0x27c>
    1b8d: e4 28        	cpx	$28                     ; 0x2028 <__heap_start+0x27c>
    1b8f: d0 01        	bne	$1b92 <_ZN12_GLOBAL__N_112print_stringEPKcP6Status+0x120>
    1b91: 88           	dey
    1b92: 84 29        	sty	$29                     ; 0x2029 <__heap_start+0x27d>
    1b94: b2 24        	lda	($24)                   ; 0x2024 <__heap_start+0x278>
    1b96: e6 24        	inc	$24                     ; 0x2024 <__heap_start+0x278>
    1b98: d0 02        	bne	$1b9c <_ZN12_GLOBAL__N_112print_stringEPKcP6Status+0x12a>
    1b9a: e6 25        	inc	$25                     ; 0x2025 <__heap_start+0x279>
    1b9c: a6 26        	ldx	$26                     ; 0x2026 <__heap_start+0x27a>
    1b9e: 86 12        	stx	$12                     ; 0x2012 <__heap_start+0x266>
    1ba0: a6 27        	ldx	$27                     ; 0x2027 <__heap_start+0x27b>
    1ba2: 86 13        	stx	$13                     ; 0x2013 <__heap_start+0x267>
    1ba4: 20 91 19     	jsr	$1991 <_ZN12_GLOBAL__N_13putEcP6Status>
    1ba7: a4 29        	ldy	$29                     ; 0x2029 <__heap_start+0x27d>
    1ba9: d0 de        	bne	$1b89 <_ZN12_GLOBAL__N_112print_stringEPKcP6Status+0x117>
    1bab: a5 28        	lda	$28                     ; 0x2028 <__heap_start+0x27c>
    1bad: d0 da        	bne	$1b89 <_ZN12_GLOBAL__N_112print_stringEPKcP6Status+0x117>
    1baf: a0 00        	ldy	#$0
    1bb1: b1 10        	lda	($10),y                 ; 0x2010 <__heap_start+0x264>
    1bb3: 85 2a        	sta	$2a                     ; 0x202a <__heap_start+0x27e>
    1bb5: c8           	iny
    1bb6: b1 10        	lda	($10),y                 ; 0x2010 <__heap_start+0x264>
    1bb8: 85 29        	sta	$29                     ; 0x2029 <__heap_start+0x27d>
    1bba: c8           	iny
    1bbb: b1 10        	lda	($10),y                 ; 0x2010 <__heap_start+0x264>
    1bbd: 85 28        	sta	$28                     ; 0x2028 <__heap_start+0x27c>
    1bbf: fa           	plx
    1bc0: 86 27        	stx	$27                     ; 0x2027 <__heap_start+0x27b>
    1bc2: fa           	plx
    1bc3: 86 26        	stx	$26                     ; 0x2026 <__heap_start+0x27a>
    1bc5: fa           	plx
    1bc6: 86 25        	stx	$25                     ; 0x2025 <__heap_start+0x279>
    1bc8: fa           	plx
    1bc9: 86 24        	stx	$24                     ; 0x2024 <__heap_start+0x278>
    1bcb: 18           	clc
    1bcc: a5 10        	lda	$10                     ; 0x2010 <__heap_start+0x264>
    1bce: 69 04        	adc	#$4
    1bd0: 85 10        	sta	$10                     ; 0x2010 <__heap_start+0x264>
    1bd2: a5 11        	lda	$11                     ; 0x2011 <__heap_start+0x265>
    1bd4: 69 00        	adc	#$0
    1bd6: 85 11        	sta	$11                     ; 0x2011 <__heap_start+0x265>
    1bd8: 60           	rts
    1bd9: a6 12        	ldx	$12                     ; 0x2012 <__heap_start+0x266>
    1bdb: 86 28        	stx	$28                     ; 0x2028 <__heap_start+0x27c>
    1bdd: a5 13        	lda	$13                     ; 0x2013 <__heap_start+0x267>
    1bdf: a0 03        	ldy	#$3
    1be1: 91 10        	sta	($10),y                 ; 0x2010 <__heap_start+0x264>
    1be3: 4c 18 1b     	jmp	$1b18 <_ZN12_GLOBAL__N_112print_stringEPKcP6Status+0xa6>

00001be6 <printf>:
    1be6: 18           	clc
    1be7: a5 10        	lda	$10                     ; 0x2010 <__heap_start+0x264>
    1be9: 69 fe        	adc	#$fe
    1beb: 85 10        	sta	$10                     ; 0x2010 <__heap_start+0x264>
    1bed: a5 11        	lda	$11                     ; 0x2011 <__heap_start+0x265>
    1bef: 69 ff        	adc	#$ff
    1bf1: 85 11        	sta	$11                     ; 0x2011 <__heap_start+0x265>
    1bf3: a6 12        	ldx	$12                     ; 0x2012 <__heap_start+0x266>
    1bf5: 86 14        	stx	$14                     ; 0x2014 <__heap_start+0x268>
    1bf7: a6 13        	ldx	$13                     ; 0x2013 <__heap_start+0x267>
    1bf9: 86 15        	stx	$15                     ; 0x2015 <__heap_start+0x269>
    1bfb: 18           	clc
    1bfc: a5 10        	lda	$10                     ; 0x2010 <__heap_start+0x264>
    1bfe: 69 02        	adc	#$2
    1c00: 48           	pha
    1c01: a5 11        	lda	$11                     ; 0x2011 <__heap_start+0x265>
    1c03: 69 00        	adc	#$0
    1c05: 85 12        	sta	$12                     ; 0x2012 <__heap_start+0x266>
    1c07: 68           	pla
    1c08: 18           	clc
    1c09: a6 10        	ldx	$10                     ; 0x2010 <__heap_start+0x264>
    1c0b: 86 16        	stx	$16                     ; 0x2016 <__heap_start+0x26a>
    1c0d: a6 11        	ldx	$11                     ; 0x2011 <__heap_start+0x265>
    1c0f: 86 17        	stx	$17                     ; 0x2017 <__heap_start+0x26b>
    1c11: 92 16        	sta	($16)                   ; 0x2016 <__heap_start+0x26a>
    1c13: a0 01        	ldy	#$1
    1c15: a5 12        	lda	$12                     ; 0x2012 <__heap_start+0x266>
    1c17: 91 16        	sta	($16),y                 ; 0x2016 <__heap_start+0x26a>
    1c19: a6 63        	ldx	$63                     ; 0x2063 <__heap_start+0x2b7>
    1c1b: a5 64        	lda	$64                     ; 0x2064 <__heap_start+0x2b8>
    1c1d: 86 12        	stx	$12                     ; 0x2012 <__heap_start+0x266>
    1c1f: 85 13        	sta	$13                     ; 0x2013 <__heap_start+0x267>
    1c21: b2 16        	lda	($16)                   ; 0x2016 <__heap_start+0x26a>
    1c23: aa           	tax
    1c24: b1 16        	lda	($16),y                 ; 0x2016 <__heap_start+0x26a>
    1c26: 86 16        	stx	$16                     ; 0x2016 <__heap_start+0x26a>
    1c28: 85 17        	sta	$17                     ; 0x2017 <__heap_start+0x26b>
    1c2a: 20 35 0c     	jsr	$c35 <vfprintf>
    1c2d: 48           	pha
    1c2e: 18           	clc
    1c2f: a5 10        	lda	$10                     ; 0x2010 <__heap_start+0x264>
    1c31: 69 02        	adc	#$2
    1c33: 85 10        	sta	$10                     ; 0x2010 <__heap_start+0x264>
    1c35: a5 11        	lda	$11                     ; 0x2011 <__heap_start+0x265>
    1c37: 69 00        	adc	#$0
    1c39: 85 11        	sta	$11                     ; 0x2011 <__heap_start+0x265>
    1c3b: 68           	pla
    1c3c: 60           	rts

00001c3d <fputc>:
    1c3d: 4c 40 1c     	jmp	$1c40 <putchar>

00001c40 <putchar>:
    1c40: a4 24        	ldy	$24                     ; 0x2024 <__heap_start+0x278>
    1c42: 5a           	phy
    1c43: a4 25        	ldy	$25                     ; 0x2025 <__heap_start+0x279>
    1c45: 5a           	phy
    1c46: 85 24        	sta	$24                     ; 0x2024 <__heap_start+0x278>
    1c48: 86 25        	stx	$25                     ; 0x2025 <__heap_start+0x279>
    1c4a: a2 00        	ldx	#$0
    1c4c: 86 12        	stx	$12                     ; 0x2012 <__heap_start+0x266>
    1c4e: a2 00        	ldx	#$0
    1c50: 86 13        	stx	$13                     ; 0x2013 <__heap_start+0x267>
    1c52: a2 68        	ldx	#$68
    1c54: 86 14        	stx	$14                     ; 0x2014 <__heap_start+0x268>
    1c56: a2 1c        	ldx	#$1c
    1c58: 86 15        	stx	$15                     ; 0x2015 <__heap_start+0x269>
    1c5a: 20 72 1c     	jsr	$1c72 <__from_ascii>
    1c5d: a6 25        	ldx	$25                     ; 0x2025 <__heap_start+0x279>
    1c5f: a5 24        	lda	$24                     ; 0x2024 <__heap_start+0x278>
    1c61: 7a           	ply
    1c62: 84 25        	sty	$25                     ; 0x2025 <__heap_start+0x279>
    1c64: 7a           	ply
    1c65: 84 24        	sty	$24                     ; 0x2024 <__heap_start+0x278>
    1c67: 60           	rts

00001c68 <putchar_wrapper>:
    1c68: 20 17 0c     	jsr	$c17 <__putchar>
    1c6b: a2 00        	ldx	#$0
    1c6d: 8a           	txa
    1c6e: 60           	rts

00001c6f <putc>:
    1c6f: 4c 3d 1c     	jmp	$1c3d <fputc>

00001c72 <__from_ascii>:
    1c72: a6 14        	ldx	$14                     ; 0x2014 <__heap_start+0x268>
    1c74: 86 22        	stx	$22                     ; 0x2022 <__heap_start+0x276>
    1c76: a6 15        	ldx	$15                     ; 0x2015 <__heap_start+0x269>
    1c78: 86 23        	stx	$23                     ; 0x2023 <__heap_start+0x277>
    1c7a: 4c f1 03     	jmp	$3f1 <__call_indir>

00001c7d <memcpy>:
    1c7d: a8           	tay
    1c7e: 8a           	txa
    1c7f: d0 03        	bne	$1c84 <memcpy+0x7>
    1c81: 98           	tya
    1c82: f0 24        	beq	$1ca8 <memcpy+0x2b>
    1c84: a5 12        	lda	$12                     ; 0x2012 <__heap_start+0x266>
    1c86: 85 16        	sta	$16                     ; 0x2016 <__heap_start+0x26a>
    1c88: a5 13        	lda	$13                     ; 0x2013 <__heap_start+0x267>
    1c8a: 85 17        	sta	$17                     ; 0x2017 <__heap_start+0x26b>
    1c8c: b2 14        	lda	($14)                   ; 0x2014 <__heap_start+0x268>
    1c8e: 92 16        	sta	($16)                   ; 0x2016 <__heap_start+0x26a>
    1c90: e6 16        	inc	$16                     ; 0x2016 <__heap_start+0x26a>
    1c92: d0 02        	bne	$1c96 <memcpy+0x19>
    1c94: e6 17        	inc	$17                     ; 0x2017 <__heap_start+0x26b>
    1c96: e6 14        	inc	$14                     ; 0x2014 <__heap_start+0x268>
    1c98: d0 02        	bne	$1c9c <memcpy+0x1f>
    1c9a: e6 15        	inc	$15                     ; 0x2015 <__heap_start+0x269>
    1c9c: 88           	dey
    1c9d: c0 ff        	cpy	#$ff
    1c9f: d0 01        	bne	$1ca2 <memcpy+0x25>
    1ca1: ca           	dex
    1ca2: 8a           	txa
    1ca3: d0 e7        	bne	$1c8c <memcpy+0xf>
    1ca5: 98           	tya
    1ca6: d0 e4        	bne	$1c8c <memcpy+0xf>
    1ca8: 60           	rts

00001ca9 <__memset>:
    1ca9: a4 14        	ldy	$14                     ; 0x2014 <__heap_start+0x268>
    1cab: d0 04        	bne	$1cb1 <__memset+0x8>
    1cad: e0 00        	cpx	#$0
    1caf: f0 17        	beq	$1cc8 <__memset+0x1f>
    1cb1: 92 12        	sta	($12)                   ; 0x2012 <__heap_start+0x266>
    1cb3: e6 12        	inc	$12                     ; 0x2012 <__heap_start+0x266>
    1cb5: d0 02        	bne	$1cb9 <__memset+0x10>
    1cb7: e6 13        	inc	$13                     ; 0x2013 <__heap_start+0x267>
    1cb9: ca           	dex
    1cba: e0 ff        	cpx	#$ff
    1cbc: d0 02        	bne	$1cc0 <__memset+0x17>
    1cbe: c6 14        	dec	$14                     ; 0x2014 <__heap_start+0x268>
    1cc0: a4 14        	ldy	$14                     ; 0x2014 <__heap_start+0x268>
    1cc2: d0 ed        	bne	$1cb1 <__memset+0x8>
    1cc4: e0 00        	cpx	#$0
    1cc6: d0 e9        	bne	$1cb1 <__memset+0x8>
    1cc8: 60           	rts

00001cc9 <__simple_strtoui>:
    1cc9: a9 d0        	lda	#$d0
    1ccb: 18           	clc
    1ccc: 72 12        	adc	($12)                   ; 0x2012 <__heap_start+0x266>
    1cce: c9 0a        	cmp	#$a
    1cd0: 90 03        	bcc	$1cd5 <__simple_strtoui+0xc>
    1cd2: 4c 26 1d     	jmp	$1d26 <__simple_strtoui+0x5d>
    1cd5: b2 12        	lda	($12)                   ; 0x2012 <__heap_start+0x266>
    1cd7: 64 16        	stz	$16                     ; 0x2016 <__heap_start+0x26a>
    1cd9: a0 01        	ldy	#$1
    1cdb: 85 17        	sta	$17                     ; 0x2017 <__heap_start+0x26b>
    1cdd: 64 18        	stz	$18                     ; 0x2018 <__heap_start+0x26c>
    1cdf: a2 00        	ldx	#$0
    1ce1: 06 18        	asl	$18                     ; 0x2018 <__heap_start+0x26c>
    1ce3: 8a           	txa
    1ce4: 2a           	rol
    1ce5: 85 19        	sta	$19                     ; 0x2019 <__heap_start+0x26d>
    1ce7: a5 18        	lda	$18                     ; 0x2018 <__heap_start+0x26c>
    1ce9: 0a           	asl
    1cea: a6 19        	ldx	$19                     ; 0x2019 <__heap_start+0x26d>
    1cec: 86 1a        	stx	$1a                     ; 0x201a <__heap_start+0x26e>
    1cee: 26 1a        	rol	$1a                     ; 0x201a <__heap_start+0x26e>
    1cf0: 0a           	asl
    1cf1: 26 1a        	rol	$1a                     ; 0x201a <__heap_start+0x26e>
    1cf3: 18           	clc
    1cf4: 65 18        	adc	$18                     ; 0x2018 <__heap_start+0x26c>
    1cf6: aa           	tax
    1cf7: a5 1a        	lda	$1a                     ; 0x201a <__heap_start+0x26e>
    1cf9: 65 19        	adc	$19                     ; 0x2019 <__heap_start+0x26d>
    1cfb: 85 18        	sta	$18                     ; 0x2018 <__heap_start+0x26c>
    1cfd: 8a           	txa
    1cfe: 18           	clc
    1cff: 65 17        	adc	$17                     ; 0x2017 <__heap_start+0x26b>
    1d01: 85 17        	sta	$17                     ; 0x2017 <__heap_start+0x26b>
    1d03: a5 18        	lda	$18                     ; 0x2018 <__heap_start+0x26c>
    1d05: 65 16        	adc	$16                     ; 0x2016 <__heap_start+0x26a>
    1d07: aa           	tax
    1d08: 18           	clc
    1d09: a5 17        	lda	$17                     ; 0x2017 <__heap_start+0x26b>
    1d0b: 69 d0        	adc	#$d0
    1d0d: 85 18        	sta	$18                     ; 0x2018 <__heap_start+0x26c>
    1d0f: 8a           	txa
    1d10: 69 ff        	adc	#$ff
    1d12: aa           	tax
    1d13: b1 12        	lda	($12),y                 ; 0x2012 <__heap_start+0x266>
    1d15: 85 17        	sta	$17                     ; 0x2017 <__heap_start+0x26b>
    1d17: 18           	clc
    1d18: 69 d0        	adc	#$d0
    1d1a: e6 12        	inc	$12                     ; 0x2012 <__heap_start+0x266>
    1d1c: d0 02        	bne	$1d20 <__simple_strtoui+0x57>
    1d1e: e6 13        	inc	$13                     ; 0x2013 <__heap_start+0x267>
    1d20: c9 0a        	cmp	#$a
    1d22: 90 bd        	bcc	$1ce1 <__simple_strtoui+0x18>
    1d24: 80 04        	bra	$1d2a <__simple_strtoui+0x61>
    1d26: 64 18        	stz	$18                     ; 0x2018 <__heap_start+0x26c>
    1d28: a2 00        	ldx	#$0
    1d2a: a5 12        	lda	$12                     ; 0x2012 <__heap_start+0x266>
    1d2c: 92 14        	sta	($14)                   ; 0x2014 <__heap_start+0x268>
    1d2e: a0 01        	ldy	#$1
    1d30: a5 13        	lda	$13                     ; 0x2013 <__heap_start+0x267>
    1d32: 91 14        	sta	($14),y                 ; 0x2014 <__heap_start+0x268>
    1d34: a5 18        	lda	$18                     ; 0x2018 <__heap_start+0x26c>
    1d36: 60           	rts

00001d37 <__mulhi3>:
    1d37: a4 13        	ldy	$13                     ; 0x2013 <__heap_start+0x267>
    1d39: d0 04        	bne	$1d3f <__mulhi3+0x8>
    1d3b: a4 12        	ldy	$12                     ; 0x2012 <__heap_start+0x266>
    1d3d: f0 25        	beq	$1d64 <__mulhi3+0x2d>
    1d3f: 85 14        	sta	$14                     ; 0x2014 <__heap_start+0x268>
    1d41: 86 15        	stx	$15                     ; 0x2015 <__heap_start+0x269>
    1d43: a0 00        	ldy	#$0
    1d45: 98           	tya
    1d46: 46 13        	lsr	$13                     ; 0x2013 <__heap_start+0x267>
    1d48: 66 12        	ror	$12                     ; 0x2012 <__heap_start+0x266>
    1d4a: 90 09        	bcc	$1d55 <__mulhi3+0x1e>
    1d4c: aa           	tax
    1d4d: 98           	tya
    1d4e: 18           	clc
    1d4f: 65 14        	adc	$14                     ; 0x2014 <__heap_start+0x268>
    1d51: a8           	tay
    1d52: 8a           	txa
    1d53: 65 15        	adc	$15                     ; 0x2015 <__heap_start+0x269>
    1d55: 06 14        	asl	$14                     ; 0x2014 <__heap_start+0x268>
    1d57: 26 15        	rol	$15                     ; 0x2015 <__heap_start+0x269>
    1d59: a6 13        	ldx	$13                     ; 0x2013 <__heap_start+0x267>
    1d5b: d0 e9        	bne	$1d46 <__mulhi3+0xf>
    1d5d: a6 12        	ldx	$12                     ; 0x2012 <__heap_start+0x266>
    1d5f: d0 e5        	bne	$1d46 <__mulhi3+0xf>
    1d61: aa           	tax
    1d62: 98           	tya
    1d63: 60           	rts
    1d64: a0 00        	ldy	#$0
    1d66: 98           	tya
    1d67: 80 f8        	bra	$1d61 <__mulhi3+0x2a>
