
float.elf:	file format elf32-mos

SYMBOL TABLE:
00000000 l    df *ABS*	00000000 zero-bss.c
00000000 l    df *ABS*	00000000 zero-zp-bss.c
00000000 l    df *ABS*	00000000 copy-zp-data.c
00000000 l    df *ABS*	00000000 ld-temp.o
000004ca l     F .text	00000425 f256Init
000000ae l     O .zp.bss	00000007 kernelEventData
00000030 l     O .zp.data	00000030 textColors
00000060 l     O .zp.bss	00000001 _col
00000061 l     O .zp.bss	00000001 _row
00000062 l     O .zp.bss	00000004 _BITMAP_BASE.0
00000066 l     O .zp.bss	00000004 _BITMAP_BASE.1
0000006a l     O .zp.bss	00000004 _BITMAP_BASE.2
0000006e l     O .zp.bss	00000040 _spriteCtl
00002380 l     O .bss	00000001 kernelError
000008f5 l     F .text	00000a69 f256main
0000135e l     F .text	00000376 textPrint
00001753 l     F .text	000000c3 __fixsfsi
00002237 l     O .rodata	000000f0 sinTable
0000197e l     F .text	000008b8 __mulsf3
00001725 l     F .text	00000017 __ashlsi3
0000173c l     F .text	00000017 __lshrsi3
00001816 l     F .text	00000070 __mulsi3
00001886 l     F .text	000000f8 __muldi3
000008ef g     F .text	00000006 main
00010400 g       .palgrudge	00000000 palgrudge_end
00010000 g       .palgrudge	00000000 palgrudge_start
00010c00 g       .thing	00000000 thing_end
00010800 g       .thing	00000000 thing_start
00000427 g       .text	00000000 mathFloatMul
0000237f g     O .bss	00000001 g_fp_last_status
00000476 g       .text	00000000 mathFloatDiv
000003d6 g       .text	00000000 mathFloatSub
00000385 g       .text	00000000 mathFloatAdd
00000014 g       *ABS*	00000000 __rc4
00000013 g       *ABS*	00000000 __rc3
00000015 g       *ABS*	00000000 __rc5
00000012 g       *ABS*	00000000 __rc2
00000017 g       *ABS*	00000000 __rc7
00000016 g       *ABS*	00000000 __rc6
00000344 g       .text	00000000 __after_main
00000330 g       .text	00000000 __do_init_stack
0000033e g       .text	00000000 __do_copy_zp_data
0000036e g     F .text	00000017 __copy_zp_data
00000338 g       .text	00000000 __do_zero_bss
00000348 g     F .text	00000013 __zero_bss
0000033b g       .text	00000000 __do_zero_zp_bss
0000035b g     F .text	00000013 __zero_zp_bss
000016d4 g     F .text	00000005 exit
00000347 g       .text	00000000 _fini
00002236 g       .rodata	00000000 __set_v
00001705  w    F .text	00000020 __memset
00001000  w      *ABS*	00000000 __heap_default_limit
00002382 g       .noinit	00000000 __heap_start
000016d9  w    F .text	0000002c memcpy
00000010 g       *ABS*	00000000 __rc0
00000018 g       *ABS*	00000000 __rc8
0000001a g       *ABS*	00000000 __rc10
0000001c g       *ABS*	00000000 __rc12
0000001e g       *ABS*	00000000 __rc14
00000020 g       *ABS*	00000000 __rc16
00000022 g       *ABS*	00000000 __rc18
00000024 g       *ABS*	00000000 __rc20
00000026 g       *ABS*	00000000 __rc22
00000028 g       *ABS*	00000000 __rc24
0000002a g       *ABS*	00000000 __rc26
0000002c g       *ABS*	00000000 __rc28
0000002e g       *ABS*	00000000 __rc30
0000002f g       *ABS*	00000000 __rc31
00000300 g       *ABS*	00000000 __f256_start
0000a000 g       *ABS*	00000000 __stack
0000a000 g       *ABS*	00000000 __SLOT_ADDR
0800a000 g       *ABS*	00000000 __block8_lma
00002000 g       *ABS*	00000000 __BLOCK_SIZE
0900a000 g       *ABS*	00000000 __block9_lma
0a00a000 g       *ABS*	00000000 __block10_lma
0b00a000 g       *ABS*	00000000 __block11_lma
0c00a000 g       *ABS*	00000000 __block12_lma
0d00a000 g       *ABS*	00000000 __block13_lma
0e00a000 g       *ABS*	00000000 __block14_lma
0f00a000 g       *ABS*	00000000 __block15_lma
1000a000 g       *ABS*	00000000 __block16_lma
1100a000 g       *ABS*	00000000 __block17_lma
1200a000 g       *ABS*	00000000 __block18_lma
1300a000 g       *ABS*	00000000 __block19_lma
1400a000 g       *ABS*	00000000 __block20_lma
1500a000 g       *ABS*	00000000 __block21_lma
1600a000 g       *ABS*	00000000 __block22_lma
1700a000 g       *ABS*	00000000 __block23_lma
00010000 g       *ABS*	00000000 __palgrudge_lma
00000400 g       *ABS*	00000000 __palgrudge_size
00010800 g       *ABS*	00000000 __thing_lma
00000400 g       *ABS*	00000000 __thing_size
0000237f g       .bss	00000000 __bss_start
00010400 g       .palgrudge	00000000 end_palgrudge
00010c00 g       .thing	00000000 end_thing
00000330 g       .text	00000000 _start
0000002d g       *ABS*	00000000 __rc29
0000002b g       *ABS*	00000000 __rc27
00000029 g       *ABS*	00000000 __rc25
00000027 g       *ABS*	00000000 __rc23
00000025 g       *ABS*	00000000 __rc21
00000023 g       *ABS*	00000000 __rc19
00000021 g       *ABS*	00000000 __rc17
0000001f g       *ABS*	00000000 __rc15
0000001d g       *ABS*	00000000 __rc13
0000001b g       *ABS*	00000000 __rc11
00000019 g       *ABS*	00000000 __rc9
00000011 g       *ABS*	00000000 __rc1
00000030 g       .zp.data	00000000 __zp_data_start
00000300 g       *ABS*	00000000 __zp_data_load_start
00000030 g       *ABS*	00000000 __zp_data_size
00000060 g       .zp.bss	00000000 __zp_bss_start
00000055 g       *ABS*	00000000 __zp_bss_size
00000330 g       .text	00000000 _init
00002236 g       .text	00000000 __init_array_start
00002236 g       .text	00000000 __init_array_end
00002236 g       .text	00000000 __fini_array_start
00002236 g       .text	00000000 __fini_array_end
0000237f g       .data	00000000 __data_start
0000237f g       .data	00000000 __data_end
0000237f g       *ABS*	00000000 __data_load_start
00000000 g       *ABS*	00000000 __data_size
00002381 g       .bss	00000000 __bss_end
00000002 g       *ABS*	00000000 __bss_size
00002381 g       .noinit	00000000 end_block8
00002381 g       .noinit	00000000 end_block9
00002381 g       .noinit	00000000 end_block10
00002381 g       .noinit	00000000 end_block11
00002381 g       .noinit	00000000 end_block12
00002381 g       .noinit	00000000 end_block13
00002381 g       .noinit	00000000 end_block14
00002381 g       .noinit	00000000 end_block15
00002381 g       .noinit	00000000 end_block16
00002381 g       .noinit	00000000 end_block17
00002381 g       .noinit	00000000 end_block18
00002381 g       .noinit	00000000 end_block19
00002381 g       .noinit	00000000 end_block20
00002381 g       .noinit	00000000 end_block21
00002381 g       .noinit	00000000 end_block22
00002381 g       .noinit	00000000 end_block23

Disassembly of section .text:

00000330 <_start>:
     330: a9 00        	lda	#$0
     332: 85 10        	sta	$10                     ; 0x10 <__rc0>
     334: a9 a0        	lda	#$a0
     336: 85 11        	sta	$11                     ; 0x11 <__rc1>

00000338 <__do_zero_bss>:
     338: 20 48 03     	jsr	$348 <__zero_bss>

0000033b <__do_zero_zp_bss>:
     33b: 20 5b 03     	jsr	$35b <__zero_zp_bss>

0000033e <__do_copy_zp_data>:
     33e: 20 6e 03     	jsr	$36e <__copy_zp_data>
     341: 20 ef 08     	jsr	$8ef <main>

00000344 <__after_main>:
     344: 4c d4 16     	jmp	$16d4 <exit>

00000347 <_fini>:
     347: 60           	rts

00000348 <__zero_bss>:
     348: a2 02        	ldx	#$2
     34a: a0 00        	ldy	#$0
     34c: a9 7f        	lda	#$7f
     34e: 85 12        	sta	$12                     ; 0x12 <__rc2>
     350: a9 23        	lda	#$23
     352: 85 13        	sta	$13                     ; 0x13 <__rc3>
     354: a9 00        	lda	#$0
     356: 84 14        	sty	$14                     ; 0x14 <__rc4>
     358: 4c 05 17     	jmp	$1705 <__memset>

0000035b <__zero_zp_bss>:
     35b: a2 55        	ldx	#$55
     35d: a0 00        	ldy	#$0
     35f: a9 60        	lda	#$60
     361: 85 12        	sta	$12                     ; 0x12 <__rc2>
     363: a9 00        	lda	#$0
     365: 85 13        	sta	$13                     ; 0x13 <__rc3>
     367: a9 00        	lda	#$0
     369: 84 14        	sty	$14                     ; 0x14 <__rc4>
     36b: 4c 05 17     	jmp	$1705 <__memset>

0000036e <__copy_zp_data>:
     36e: a9 30        	lda	#$30
     370: a2 00        	ldx	#$0
     372: a0 30        	ldy	#$30
     374: 84 12        	sty	$12                     ; 0x12 <__rc2>
     376: a0 00        	ldy	#$0
     378: 84 13        	sty	$13                     ; 0x13 <__rc3>
     37a: a0 00        	ldy	#$0
     37c: 84 14        	sty	$14                     ; 0x14 <__rc4>
     37e: a0 03        	ldy	#$3
     380: 84 15        	sty	$15                     ; 0x15 <__rc5>
     382: 4c d9 16     	jmp	$16d9 <memcpy>

00000385 <mathFloatAdd>:
     385: 8d 88 de     	sta	$de88                   ; 0xde88 <__heap_start+0xbb06>
     388: 8e 89 de     	stx	$de89                   ; 0xde89 <__heap_start+0xbb07>
     38b: a9 40        	lda	#$40
     38d: 8d 80 de     	sta	$de80                   ; 0xde80 <__heap_start+0xbafe>
     390: a9 02        	lda	#$2
     392: 8d 81 de     	sta	$de81                   ; 0xde81 <__heap_start+0xbaff>
     395: a5 12        	lda	$12                     ; 0x12 <__rc2>
     397: 8d 8a de     	sta	$de8a                   ; 0xde8a <__heap_start+0xbb08>
     39a: a5 13        	lda	$13                     ; 0x13 <__rc3>
     39c: 8d 8b de     	sta	$de8b                   ; 0xde8b <__heap_start+0xbb09>
     39f: a5 14        	lda	$14                     ; 0x14 <__rc4>
     3a1: 8d 8c de     	sta	$de8c                   ; 0xde8c <__heap_start+0xbb0a>
     3a4: a5 15        	lda	$15                     ; 0x15 <__rc5>
     3a6: 8d 8d de     	sta	$de8d                   ; 0xde8d <__heap_start+0xbb0b>
     3a9: a5 16        	lda	$16                     ; 0x16 <__rc6>
     3ab: 8d 8e de     	sta	$de8e                   ; 0xde8e <__heap_start+0xbb0c>
     3ae: a5 17        	lda	$17                     ; 0x17 <__rc7>
     3b0: 8d 8f de     	sta	$de8f                   ; 0xde8f <__heap_start+0xbb0d>
     3b3: a9 0a        	lda	#$a
     3b5: 8d 82 de     	sta	$de82                   ; 0xde82 <__heap_start+0xbb00>
     3b8: ea           	nop
     3b9: ea           	nop
     3ba: ea           	nop
     3bb: ea           	nop
     3bc: ea           	nop
     3bd: ad 86 de     	lda	$de86                   ; 0xde86 <__heap_start+0xbb04>
     3c0: 29 0f        	and	#$f
     3c2: 8d 7f 23     	sta	$237f                   ; 0x237f <g_fp_last_status>
     3c5: ad 8a de     	lda	$de8a                   ; 0xde8a <__heap_start+0xbb08>
     3c8: 85 12        	sta	$12                     ; 0x12 <__rc2>
     3ca: ad 8b de     	lda	$de8b                   ; 0xde8b <__heap_start+0xbb09>
     3cd: 85 13        	sta	$13                     ; 0x13 <__rc3>
     3cf: ad 88 de     	lda	$de88                   ; 0xde88 <__heap_start+0xbb06>
     3d2: ae 89 de     	ldx	$de89                   ; 0xde89 <__heap_start+0xbb07>
     3d5: 60           	rts

000003d6 <mathFloatSub>:
     3d6: 8d 88 de     	sta	$de88                   ; 0xde88 <__heap_start+0xbb06>
     3d9: 8e 89 de     	stx	$de89                   ; 0xde89 <__heap_start+0xbb07>
     3dc: a9 48        	lda	#$48
     3de: 8d 80 de     	sta	$de80                   ; 0xde80 <__heap_start+0xbafe>
     3e1: a9 02        	lda	#$2
     3e3: 8d 81 de     	sta	$de81                   ; 0xde81 <__heap_start+0xbaff>
     3e6: a5 12        	lda	$12                     ; 0x12 <__rc2>
     3e8: 8d 8a de     	sta	$de8a                   ; 0xde8a <__heap_start+0xbb08>
     3eb: a5 13        	lda	$13                     ; 0x13 <__rc3>
     3ed: 8d 8b de     	sta	$de8b                   ; 0xde8b <__heap_start+0xbb09>
     3f0: a5 14        	lda	$14                     ; 0x14 <__rc4>
     3f2: 8d 8c de     	sta	$de8c                   ; 0xde8c <__heap_start+0xbb0a>
     3f5: a5 15        	lda	$15                     ; 0x15 <__rc5>
     3f7: 8d 8d de     	sta	$de8d                   ; 0xde8d <__heap_start+0xbb0b>
     3fa: a5 16        	lda	$16                     ; 0x16 <__rc6>
     3fc: 8d 8e de     	sta	$de8e                   ; 0xde8e <__heap_start+0xbb0c>
     3ff: a5 17        	lda	$17                     ; 0x17 <__rc7>
     401: 8d 8f de     	sta	$de8f                   ; 0xde8f <__heap_start+0xbb0d>
     404: a9 0a        	lda	#$a
     406: 8d 82 de     	sta	$de82                   ; 0xde82 <__heap_start+0xbb00>
     409: ea           	nop
     40a: ea           	nop
     40b: ea           	nop
     40c: ea           	nop
     40d: ea           	nop
     40e: ad 86 de     	lda	$de86                   ; 0xde86 <__heap_start+0xbb04>
     411: 29 0f        	and	#$f
     413: 8d 7f 23     	sta	$237f                   ; 0x237f <g_fp_last_status>
     416: ad 8a de     	lda	$de8a                   ; 0xde8a <__heap_start+0xbb08>
     419: 85 12        	sta	$12                     ; 0x12 <__rc2>
     41b: ad 8b de     	lda	$de8b                   ; 0xde8b <__heap_start+0xbb09>
     41e: 85 13        	sta	$13                     ; 0x13 <__rc3>
     420: ad 88 de     	lda	$de88                   ; 0xde88 <__heap_start+0xbb06>
     423: ae 89 de     	ldx	$de89                   ; 0xde89 <__heap_start+0xbb07>
     426: 60           	rts

00000427 <mathFloatMul>:
     427: 8d 88 de     	sta	$de88                   ; 0xde88 <__heap_start+0xbb06>
     42a: 8e 89 de     	stx	$de89                   ; 0xde89 <__heap_start+0xbb07>
     42d: a9 00        	lda	#$0
     42f: 8d 80 de     	sta	$de80                   ; 0xde80 <__heap_start+0xbafe>
     432: 8d 81 de     	sta	$de81                   ; 0xde81 <__heap_start+0xbaff>
     435: a5 12        	lda	$12                     ; 0x12 <__rc2>
     437: 8d 8a de     	sta	$de8a                   ; 0xde8a <__heap_start+0xbb08>
     43a: a5 13        	lda	$13                     ; 0x13 <__rc3>
     43c: 8d 8b de     	sta	$de8b                   ; 0xde8b <__heap_start+0xbb09>
     43f: a5 14        	lda	$14                     ; 0x14 <__rc4>
     441: 8d 8c de     	sta	$de8c                   ; 0xde8c <__heap_start+0xbb0a>
     444: a5 15        	lda	$15                     ; 0x15 <__rc5>
     446: 8d 8d de     	sta	$de8d                   ; 0xde8d <__heap_start+0xbb0b>
     449: a5 16        	lda	$16                     ; 0x16 <__rc6>
     44b: 8d 8e de     	sta	$de8e                   ; 0xde8e <__heap_start+0xbb0c>
     44e: a5 17        	lda	$17                     ; 0x17 <__rc7>
     450: 8d 8f de     	sta	$de8f                   ; 0xde8f <__heap_start+0xbb0d>
     453: a9 0a        	lda	#$a
     455: 8d 82 de     	sta	$de82                   ; 0xde82 <__heap_start+0xbb00>
     458: ea           	nop
     459: ea           	nop
     45a: ea           	nop
     45b: ea           	nop
     45c: ea           	nop
     45d: ad 84 de     	lda	$de84                   ; 0xde84 <__heap_start+0xbb02>
     460: 29 0f        	and	#$f
     462: 8d 7f 23     	sta	$237f                   ; 0x237f <g_fp_last_status>
     465: ad 8a de     	lda	$de8a                   ; 0xde8a <__heap_start+0xbb08>
     468: 85 12        	sta	$12                     ; 0x12 <__rc2>
     46a: ad 8b de     	lda	$de8b                   ; 0xde8b <__heap_start+0xbb09>
     46d: 85 13        	sta	$13                     ; 0x13 <__rc3>
     46f: ad 88 de     	lda	$de88                   ; 0xde88 <__heap_start+0xbb06>
     472: ae 89 de     	ldx	$de89                   ; 0xde89 <__heap_start+0xbb07>
     475: 60           	rts

00000476 <mathFloatDiv>:
     476: 8d 88 de     	sta	$de88                   ; 0xde88 <__heap_start+0xbb06>
     479: 8e 89 de     	stx	$de89                   ; 0xde89 <__heap_start+0xbb07>
     47c: a9 00        	lda	#$0
     47e: 8d 80 de     	sta	$de80                   ; 0xde80 <__heap_start+0xbafe>
     481: a9 01        	lda	#$1
     483: 8d 81 de     	sta	$de81                   ; 0xde81 <__heap_start+0xbaff>
     486: a5 12        	lda	$12                     ; 0x12 <__rc2>
     488: 8d 8a de     	sta	$de8a                   ; 0xde8a <__heap_start+0xbb08>
     48b: a5 13        	lda	$13                     ; 0x13 <__rc3>
     48d: 8d 8b de     	sta	$de8b                   ; 0xde8b <__heap_start+0xbb09>
     490: a5 14        	lda	$14                     ; 0x14 <__rc4>
     492: 8d 8c de     	sta	$de8c                   ; 0xde8c <__heap_start+0xbb0a>
     495: a5 15        	lda	$15                     ; 0x15 <__rc5>
     497: 8d 8d de     	sta	$de8d                   ; 0xde8d <__heap_start+0xbb0b>
     49a: a5 16        	lda	$16                     ; 0x16 <__rc6>
     49c: 8d 8e de     	sta	$de8e                   ; 0xde8e <__heap_start+0xbb0c>
     49f: a5 17        	lda	$17                     ; 0x17 <__rc7>
     4a1: 8d 8f de     	sta	$de8f                   ; 0xde8f <__heap_start+0xbb0d>
     4a4: a9 0a        	lda	#$a
     4a6: 8d 82 de     	sta	$de82                   ; 0xde82 <__heap_start+0xbb00>
     4a9: ea           	nop
     4aa: ea           	nop
     4ab: ea           	nop
     4ac: ea           	nop
     4ad: ea           	nop
     4ae: ea           	nop
     4af: ea           	nop
     4b0: ea           	nop
     4b1: ad 85 de     	lda	$de85                   ; 0xde85 <__heap_start+0xbb03>
     4b4: 29 1f        	and	#$1f
     4b6: 8d 7f 23     	sta	$237f                   ; 0x237f <g_fp_last_status>
     4b9: ad 8a de     	lda	$de8a                   ; 0xde8a <__heap_start+0xbb08>
     4bc: 85 12        	sta	$12                     ; 0x12 <__rc2>
     4be: ad 8b de     	lda	$de8b                   ; 0xde8b <__heap_start+0xbb09>
     4c1: 85 13        	sta	$13                     ; 0x13 <__rc3>
     4c3: ad 88 de     	lda	$de88                   ; 0xde88 <__heap_start+0xbb06>
     4c6: ae 89 de     	ldx	$de89                   ; 0xde89 <__heap_start+0xbb07>
     4c9: 60           	rts

000004ca <f256Init>:
     4ca: 64 1c        	stz	$1c                     ; 0x1c <__rc12>
     4cc: a2 00        	ldx	#$0
     4ce: 86 1a        	stx	$1a                     ; 0x1a <__rc10>
     4d0: a2 d0        	ldx	#$d0
     4d2: 86 1b        	stx	$1b                     ; 0x1b <__rc11>
     4d4: a2 00        	ldx	#$0
     4d6: 86 16        	stx	$16                     ; 0x16 <__rc6>
     4d8: a2 d8        	ldx	#$d8
     4da: 86 17        	stx	$17                     ; 0x17 <__rc7>
     4dc: a2 00        	ldx	#$0
     4de: 86 18        	stx	$18                     ; 0x18 <__rc8>
     4e0: a2 d4        	ldx	#$d4
     4e2: 86 19        	stx	$19                     ; 0x19 <__rc9>
     4e4: a2 00        	ldx	#$0
     4e6: 86 14        	stx	$14                     ; 0x14 <__rc4>
     4e8: a2 dc        	ldx	#$dc
     4ea: 86 15        	stx	$15                     ; 0x15 <__rc5>
     4ec: a2 00        	ldx	#$0
     4ee: 86 12        	stx	$12                     ; 0x12 <__rc2>
     4f0: a2 c0        	ldx	#$c0
     4f2: 86 13        	stx	$13                     ; 0x13 <__rc3>
     4f4: 64 01        	stz	$1                      ; 0x1 <__data_size+0x1>
     4f6: a2 3f        	ldx	#$3f
     4f8: 8e 00 d0     	stx	$d000                   ; 0xd000 <__heap_start+0xac7e>
     4fb: a2 b3        	ldx	#$b3
     4fd: 86 00        	stx	$0                      ; 0x0 <__data_size>
     4ff: 64 08        	stz	$8                      ; 0x8 <__bss_size+0x6>
     501: a2 01        	ldx	#$1
     503: 86 09        	stx	$9                      ; 0x9 <__bss_size+0x7>
     505: e8           	inx
     506: 86 0a        	stx	$a                      ; 0xa <__bss_size+0x8>
     508: e8           	inx
     509: 86 0b        	stx	$b                      ; 0xb <__bss_size+0x9>
     50b: e8           	inx
     50c: 86 0c        	stx	$c                      ; 0xc <__bss_size+0xa>
     50e: e8           	inx
     50f: 86 0d        	stx	$d                      ; 0xd <__bss_size+0xb>
     511: a2 ae        	ldx	#$ae
     513: a9 00        	lda	#$0
     515: 86 f0        	stx	$f0                     ; 0xf0 <__zp_bss_size+0x9b>
     517: 85 f1        	sta	$f1                     ; 0xf1 <__zp_bss_size+0x9c>
     519: a6 01        	ldx	$1                      ; 0x1 <__data_size+0x1>
     51b: a0 01        	ldy	#$1
     51d: 84 01        	sty	$1                      ; 0x1 <__data_size+0x1>
     51f: a5 1c        	lda	$1c                     ; 0x1c <__rc12>
     521: 92 1a        	sta	($1a)                   ; 0x1a <__rc10>
     523: 91 1a        	sta	($1a),y                 ; 0x1a <__rc10>
     525: c8           	iny
     526: 91 1a        	sta	($1a),y                 ; 0x1a <__rc10>
     528: c8           	iny
     529: a9 ff        	lda	#$ff
     52b: 91 1a        	sta	($1a),y                 ; 0x1a <__rc10>
     52d: 86 01        	stx	$1                      ; 0x1 <__data_size+0x1>
     52f: a5 1a        	lda	$1a                     ; 0x1a <__rc10>
     531: 18           	clc
     532: 69 04        	adc	#$4
     534: 85 1a        	sta	$1a                     ; 0x1a <__rc10>
     536: a5 1b        	lda	$1b                     ; 0x1b <__rc11>
     538: 69 00        	adc	#$0
     53a: e6 1c        	inc	$1c                     ; 0x1c <__rc12>
     53c: 85 1b        	sta	$1b                     ; 0x1b <__rc11>
     53e: d0 d9        	bne	$519 <f256Init+0x4f>
     540: a9 00        	lda	#$0
     542: a6 01        	ldx	$1                      ; 0x1 <__data_size+0x1>
     544: a0 01        	ldy	#$1
     546: 84 01        	sty	$1                      ; 0x1 <__data_size+0x1>
     548: 92 18        	sta	($18)                   ; 0x18 <__rc8>
     54a: 91 18        	sta	($18),y                 ; 0x18 <__rc8>
     54c: c8           	iny
     54d: 91 18        	sta	($18),y                 ; 0x18 <__rc8>
     54f: c8           	iny
     550: 85 1a        	sta	$1a                     ; 0x1a <__rc10>
     552: a9 ff        	lda	#$ff
     554: 91 18        	sta	($18),y                 ; 0x18 <__rc8>
     556: 86 01        	stx	$1                      ; 0x1 <__data_size+0x1>
     558: a5 18        	lda	$18                     ; 0x18 <__rc8>
     55a: 18           	clc
     55b: 69 04        	adc	#$4
     55d: 85 18        	sta	$18                     ; 0x18 <__rc8>
     55f: a5 19        	lda	$19                     ; 0x19 <__rc9>
     561: 69 00        	adc	#$0
     563: e6 1a        	inc	$1a                     ; 0x1a <__rc10>
     565: 85 19        	sta	$19                     ; 0x19 <__rc9>
     567: a5 1a        	lda	$1a                     ; 0x1a <__rc10>
     569: d0 d7        	bne	$542 <f256Init+0x78>
     56b: a9 00        	lda	#$0
     56d: a6 01        	ldx	$1                      ; 0x1 <__data_size+0x1>
     56f: a0 01        	ldy	#$1
     571: 84 01        	sty	$1                      ; 0x1 <__data_size+0x1>
     573: 92 16        	sta	($16)                   ; 0x16 <__rc6>
     575: 91 16        	sta	($16),y                 ; 0x16 <__rc6>
     577: c8           	iny
     578: 91 16        	sta	($16),y                 ; 0x16 <__rc6>
     57a: c8           	iny
     57b: 85 18        	sta	$18                     ; 0x18 <__rc8>
     57d: a9 ff        	lda	#$ff
     57f: 91 16        	sta	($16),y                 ; 0x16 <__rc6>
     581: 86 01        	stx	$1                      ; 0x1 <__data_size+0x1>
     583: a5 16        	lda	$16                     ; 0x16 <__rc6>
     585: 18           	clc
     586: 69 04        	adc	#$4
     588: 85 16        	sta	$16                     ; 0x16 <__rc6>
     58a: a5 17        	lda	$17                     ; 0x17 <__rc7>
     58c: 69 00        	adc	#$0
     58e: e6 18        	inc	$18                     ; 0x18 <__rc8>
     590: 85 17        	sta	$17                     ; 0x17 <__rc7>
     592: a5 18        	lda	$18                     ; 0x18 <__rc8>
     594: d0 d7        	bne	$56d <f256Init+0xa3>
     596: a9 00        	lda	#$0
     598: a6 01        	ldx	$1                      ; 0x1 <__data_size+0x1>
     59a: a0 01        	ldy	#$1
     59c: 84 01        	sty	$1                      ; 0x1 <__data_size+0x1>
     59e: 92 14        	sta	($14)                   ; 0x14 <__rc4>
     5a0: 91 14        	sta	($14),y                 ; 0x14 <__rc4>
     5a2: c8           	iny
     5a3: 91 14        	sta	($14),y                 ; 0x14 <__rc4>
     5a5: c8           	iny
     5a6: 85 16        	sta	$16                     ; 0x16 <__rc6>
     5a8: a9 ff        	lda	#$ff
     5aa: 91 14        	sta	($14),y                 ; 0x14 <__rc4>
     5ac: 86 01        	stx	$1                      ; 0x1 <__data_size+0x1>
     5ae: a5 14        	lda	$14                     ; 0x14 <__rc4>
     5b0: 18           	clc
     5b1: 69 04        	adc	#$4
     5b3: 85 14        	sta	$14                     ; 0x14 <__rc4>
     5b5: a5 15        	lda	$15                     ; 0x15 <__rc5>
     5b7: 69 00        	adc	#$0
     5b9: e6 16        	inc	$16                     ; 0x16 <__rc6>
     5bb: 85 15        	sta	$15                     ; 0x15 <__rc5>
     5bd: a5 16        	lda	$16                     ; 0x16 <__rc6>
     5bf: d0 d7        	bne	$598 <f256Init+0xce>
     5c1: ad 02 d0     	lda	$d002                   ; 0xd002 <__heap_start+0xac80>
     5c4: 29 f0        	and	#$f0
     5c6: 8d 02 d0     	sta	$d002                   ; 0xd002 <__heap_start+0xac80>
     5c9: ad 02 d0     	lda	$d002                   ; 0xd002 <__heap_start+0xac80>
     5cc: 29 0f        	and	#$f
     5ce: 09 10        	ora	#$10
     5d0: 8d 02 d0     	sta	$d002                   ; 0xd002 <__heap_start+0xac80>
     5d3: a2 02        	ldx	#$2
     5d5: 8e 03 d0     	stx	$d003                   ; 0xd003 <__heap_start+0xac81>
     5d8: ad 01 d0     	lda	$d001                   ; 0xd001 <__heap_start+0xac7f>
     5db: 29 f9        	and	#$f9
     5dd: 09 04        	ora	#$4
     5df: 8d 01 d0     	sta	$d001                   ; 0xd001 <__heap_start+0xac7f>
     5e2: 64 14        	stz	$14                     ; 0x14 <__rc4>
     5e4: 9c 10 d0     	stz	$d010                   ; 0xd010 <__heap_start+0xac8e>
     5e7: a2 00        	ldx	#$0
     5e9: 64 15        	stz	$15                     ; 0x15 <__rc5>
     5eb: 86 18        	stx	$18                     ; 0x18 <__rc8>
     5ed: a4 18        	ldy	$18                     ; 0x18 <__rc8>
     5ef: b6 30        	ldx	$30,y                   ; 0x30 <textColors>
     5f1: 86 19        	stx	$19                     ; 0x19 <__rc9>
     5f3: b6 31        	ldx	$31,y                   ; 0x31 <textColors+0x1>
     5f5: 86 1a        	stx	$1a                     ; 0x1a <__rc10>
     5f7: b6 32        	ldx	$32,y                   ; 0x32 <textColors+0x2>
     5f9: 86 1b        	stx	$1b                     ; 0x1b <__rc11>
     5fb: a6 15        	ldx	$15                     ; 0x15 <__rc5>
     5fd: 8e 00 de     	stx	$de00                   ; 0xde00 <__heap_start+0xba7e>
     600: 86 17        	stx	$17                     ; 0x17 <__rc7>
     602: 9c 01 de     	stz	$de01                   ; 0xde01 <__heap_start+0xba7f>
     605: a2 04        	ldx	#$4
     607: 8e 02 de     	stx	$de02                   ; 0xde02 <__heap_start+0xba80>
     60a: 86 1d        	stx	$1d                     ; 0x1d <__rc13>
     60c: 9c 03 de     	stz	$de03                   ; 0xde03 <__heap_start+0xba81>
     60f: ad 10 de     	lda	$de10                   ; 0xde10 <__heap_start+0xba8e>
     612: ac 11 de     	ldy	$de11                   ; 0xde11 <__heap_start+0xba8f>
     615: 84 15        	sty	$15                     ; 0x15 <__rc5>
     617: ac 12 de     	ldy	$de12                   ; 0xde12 <__heap_start+0xba90>
     61a: ac 13 de     	ldy	$de13                   ; 0xde13 <__heap_start+0xba91>
     61d: a2 00        	ldx	#$0
     61f: 18           	clc
     620: 65 14        	adc	$14                     ; 0x14 <__rc4>
     622: a8           	tay
     623: 86 1f        	stx	$1f                     ; 0x1f <__rc15>
     625: a6 17        	ldx	$17                     ; 0x17 <__rc7>
     627: a9 d8        	lda	#$d8
     629: 65 15        	adc	$15                     ; 0x15 <__rc5>
     62b: 84 16        	sty	$16                     ; 0x16 <__rc6>
     62d: 85 17        	sta	$17                     ; 0x17 <__rc7>
     62f: a5 1b        	lda	$1b                     ; 0x1b <__rc11>
     631: 92 16        	sta	($16)                   ; 0x16 <__rc6>
     633: a0 01        	ldy	#$1
     635: a5 1a        	lda	$1a                     ; 0x1a <__rc10>
     637: 91 16        	sta	($16),y                 ; 0x16 <__rc6>
     639: 84 1c        	sty	$1c                     ; 0x1c <__rc12>
     63b: c8           	iny
     63c: a5 19        	lda	$19                     ; 0x19 <__rc9>
     63e: 91 16        	sta	($16),y                 ; 0x16 <__rc6>
     640: 84 1e        	sty	$1e                     ; 0x1e <__rc14>
     642: c8           	iny
     643: a9 ff        	lda	#$ff
     645: 91 16        	sta	($16),y                 ; 0x16 <__rc6>
     647: 85 23        	sta	$23                     ; 0x23 <__rc19>
     649: 84 22        	sty	$22                     ; 0x22 <__rc18>
     64b: 8e 00 de     	stx	$de00                   ; 0xde00 <__heap_start+0xba7e>
     64e: 9c 01 de     	stz	$de01                   ; 0xde01 <__heap_start+0xba7f>
     651: a4 1d        	ldy	$1d                     ; 0x1d <__rc13>
     653: 8c 02 de     	sty	$de02                   ; 0xde02 <__heap_start+0xba80>
     656: 9c 03 de     	stz	$de03                   ; 0xde03 <__heap_start+0xba81>
     659: ad 10 de     	lda	$de10                   ; 0xde10 <__heap_start+0xba8e>
     65c: 85 15        	sta	$15                     ; 0x15 <__rc5>
     65e: ad 11 de     	lda	$de11                   ; 0xde11 <__heap_start+0xba8f>
     661: 85 16        	sta	$16                     ; 0x16 <__rc6>
     663: a9 40        	lda	#$40
     665: a4 1f        	ldy	$1f                     ; 0x1f <__rc15>
     667: c0 01        	cpy	#$1
     669: 65 15        	adc	$15                     ; 0x15 <__rc5>
     66b: a8           	tay
     66c: a9 d8        	lda	#$d8
     66e: 65 16        	adc	$16                     ; 0x16 <__rc6>
     670: 85 17        	sta	$17                     ; 0x17 <__rc7>
     672: 84 16        	sty	$16                     ; 0x16 <__rc6>
     674: ad 12 de     	lda	$de12                   ; 0xde12 <__heap_start+0xba90>
     677: ad 13 de     	lda	$de13                   ; 0xde13 <__heap_start+0xba91>
     67a: a5 1b        	lda	$1b                     ; 0x1b <__rc11>
     67c: 92 16        	sta	($16)                   ; 0x16 <__rc6>
     67e: a5 1a        	lda	$1a                     ; 0x1a <__rc10>
     680: a4 1c        	ldy	$1c                     ; 0x1c <__rc12>
     682: 91 16        	sta	($16),y                 ; 0x16 <__rc6>
     684: a5 19        	lda	$19                     ; 0x19 <__rc9>
     686: a4 1e        	ldy	$1e                     ; 0x1e <__rc14>
     688: 91 16        	sta	($16),y                 ; 0x16 <__rc6>
     68a: a4 22        	ldy	$22                     ; 0x22 <__rc18>
     68c: a5 23        	lda	$23                     ; 0x23 <__rc19>
     68e: 91 16        	sta	($16),y                 ; 0x16 <__rc6>
     690: e8           	inx
     691: 86 15        	stx	$15                     ; 0x15 <__rc5>
     693: 18           	clc
     694: a5 18        	lda	$18                     ; 0x18 <__rc8>
     696: 69 03        	adc	#$3
     698: aa           	tax
     699: c9 30        	cmp	#$30
     69b: f0 03        	beq	$6a0 <f256Init+0x1d6>
     69d: 4c eb 05     	jmp	$5eb <f256Init+0x121>
     6a0: a6 01        	ldx	$1                      ; 0x1 <__data_size+0x1>
     6a2: 86 18        	stx	$18                     ; 0x18 <__rc8>
     6a4: a2 50        	ldx	#$50
     6a6: 8e 00 de     	stx	$de00                   ; 0xde00 <__heap_start+0xba7e>
     6a9: 9c 01 de     	stz	$de01                   ; 0xde01 <__heap_start+0xba7f>
     6ac: a2 1e        	ldx	#$1e
     6ae: 8e 02 de     	stx	$de02                   ; 0xde02 <__heap_start+0xba80>
     6b1: 9c 03 de     	stz	$de03                   ; 0xde03 <__heap_start+0xba81>
     6b4: ae 10 de     	ldx	$de10                   ; 0xde10 <__heap_start+0xba8e>
     6b7: ac 11 de     	ldy	$de11                   ; 0xde11 <__heap_start+0xba8f>
     6ba: ad 12 de     	lda	$de12                   ; 0xde12 <__heap_start+0xba90>
     6bd: ad 13 de     	lda	$de13                   ; 0xde13 <__heap_start+0xba91>
     6c0: a9 02        	lda	#$2
     6c2: 85 01        	sta	$1                      ; 0x1 <__data_size+0x1>
     6c4: e0 01        	cpx	#$1
     6c6: 98           	tya
     6c7: e9 00        	sbc	#$0
     6c9: 50 02        	bvc	$6cd <f256Init+0x203>
     6cb: 49 80        	eor	#$80
     6cd: c9 00        	cmp	#$0
     6cf: 10 03        	bpl	$6d4 <f256Init+0x20a>
     6d1: 4c 2b 07     	jmp	$72b <f256Init+0x261>
     6d4: a9 20        	lda	#$20
     6d6: 86 19        	stx	$19                     ; 0x19 <__rc9>
     6d8: 86 14        	stx	$14                     ; 0x14 <__rc4>
     6da: 84 15        	sty	$15                     ; 0x15 <__rc5>
     6dc: a2 00        	ldx	#$0
     6de: 86 16        	stx	$16                     ; 0x16 <__rc6>
     6e0: a2 c0        	ldx	#$c0
     6e2: 86 17        	stx	$17                     ; 0x17 <__rc7>
     6e4: 80 04        	bra	$6ea <f256Init+0x220>
     6e6: a6 15        	ldx	$15                     ; 0x15 <__rc5>
     6e8: f0 14        	beq	$6fe <f256Init+0x234>
     6ea: 92 16        	sta	($16)                   ; 0x16 <__rc6>
     6ec: e6 16        	inc	$16                     ; 0x16 <__rc6>
     6ee: d0 02        	bne	$6f2 <f256Init+0x228>
     6f0: e6 17        	inc	$17                     ; 0x17 <__rc7>
     6f2: a2 ff        	ldx	#$ff
     6f4: c6 14        	dec	$14                     ; 0x14 <__rc4>
     6f6: e4 14        	cpx	$14                     ; 0x14 <__rc4>
     6f8: d0 ec        	bne	$6e6 <f256Init+0x21c>
     6fa: c6 15        	dec	$15                     ; 0x15 <__rc5>
     6fc: 80 e8        	bra	$6e6 <f256Init+0x21c>
     6fe: a6 14        	ldx	$14                     ; 0x14 <__rc4>
     700: d0 e8        	bne	$6ea <f256Init+0x220>
     702: a2 03        	ldx	#$3
     704: 86 01        	stx	$1                      ; 0x1 <__data_size+0x1>
     706: a6 19        	ldx	$19                     ; 0x19 <__rc9>
     708: 80 03        	bra	$70d <f256Init+0x243>
     70a: 98           	tya
     70b: f0 19        	beq	$726 <f256Init+0x25c>
     70d: a9 f0        	lda	#$f0
     70f: 92 12        	sta	($12)                   ; 0x12 <__rc2>
     711: e6 12        	inc	$12                     ; 0x12 <__rc2>
     713: f0 07        	beq	$71c <f256Init+0x252>
     715: ca           	dex
     716: e0 ff        	cpx	#$ff
     718: d0 f0        	bne	$70a <f256Init+0x240>
     71a: 80 07        	bra	$723 <f256Init+0x259>
     71c: e6 13        	inc	$13                     ; 0x13 <__rc3>
     71e: ca           	dex
     71f: e0 ff        	cpx	#$ff
     721: d0 e7        	bne	$70a <f256Init+0x240>
     723: 88           	dey
     724: 80 e4        	bra	$70a <f256Init+0x240>
     726: 8a           	txa
     727: d0 e4        	bne	$70d <f256Init+0x243>
     729: 80 04        	bra	$72f <f256Init+0x265>
     72b: a2 03        	ldx	#$3
     72d: 86 01        	stx	$1                      ; 0x1 <__data_size+0x1>
     72f: a6 18        	ldx	$18                     ; 0x18 <__rc8>
     731: 86 01        	stx	$1                      ; 0x1 <__data_size+0x1>
     733: 64 60        	stz	$60                     ; 0x60 <_col>
     735: 9c 14 d0     	stz	$d014                   ; 0xd014 <__heap_start+0xac92>
     738: 9c 15 d0     	stz	$d015                   ; 0xd015 <__heap_start+0xac93>
     73b: 64 61        	stz	$61                     ; 0x61 <_row>
     73d: 9c 16 d0     	stz	$d016                   ; 0xd016 <__heap_start+0xac94>
     740: 9c 17 d0     	stz	$d017                   ; 0xd017 <__heap_start+0xac95>
     743: a2 40        	ldx	#$40
     745: 8e 00 de     	stx	$de00                   ; 0xde00 <__heap_start+0xba7e>
     748: a2 01        	ldx	#$1
     74a: 8e 01 de     	stx	$de01                   ; 0xde01 <__heap_start+0xba7f>
     74d: a2 f0        	ldx	#$f0
     74f: 8e 02 de     	stx	$de02                   ; 0xde02 <__heap_start+0xba80>
     752: 9c 03 de     	stz	$de03                   ; 0xde03 <__heap_start+0xba81>
     755: ae 10 de     	ldx	$de10                   ; 0xde10 <__heap_start+0xba8e>
     758: 86 17        	stx	$17                     ; 0x17 <__rc7>
     75a: ae 11 de     	ldx	$de11                   ; 0xde11 <__heap_start+0xba8f>
     75d: 86 12        	stx	$12                     ; 0x12 <__rc2>
     75f: ae 12 de     	ldx	$de12                   ; 0xde12 <__heap_start+0xba90>
     762: 86 13        	stx	$13                     ; 0x13 <__rc3>
     764: ae 13 de     	ldx	$de13                   ; 0xde13 <__heap_start+0xba91>
     767: 86 14        	stx	$14                     ; 0x14 <__rc4>
     769: a4 12        	ldy	$12                     ; 0x12 <__rc2>
     76b: 84 15        	sty	$15                     ; 0x15 <__rc5>
     76d: 06 15        	asl	$15                     ; 0x15 <__rc5>
     76f: a5 13        	lda	$13                     ; 0x13 <__rc3>
     771: 2a           	rol
     772: 86 16        	stx	$16                     ; 0x16 <__rc6>
     774: 26 16        	rol	$16                     ; 0x16 <__rc6>
     776: 06 15        	asl	$15                     ; 0x15 <__rc5>
     778: 2a           	rol
     779: 26 16        	rol	$16                     ; 0x16 <__rc6>
     77b: 06 15        	asl	$15                     ; 0x15 <__rc5>
     77d: 2a           	rol
     77e: 26 16        	rol	$16                     ; 0x16 <__rc6>
     780: 85 15        	sta	$15                     ; 0x15 <__rc5>
     782: 8d 00 de     	sta	$de00                   ; 0xde00 <__heap_start+0xba7e>
     785: a5 16        	lda	$16                     ; 0x16 <__rc6>
     787: 8d 01 de     	sta	$de01                   ; 0xde01 <__heap_start+0xba7f>
     78a: 9c 02 de     	stz	$de02                   ; 0xde02 <__heap_start+0xba80>
     78d: a2 20        	ldx	#$20
     78f: 8e 03 de     	stx	$de03                   ; 0xde03 <__heap_start+0xba81>
     792: ae 10 de     	ldx	$de10                   ; 0xde10 <__heap_start+0xba8e>
     795: 86 16        	stx	$16                     ; 0x16 <__rc6>
     797: ae 11 de     	ldx	$de11                   ; 0xde11 <__heap_start+0xba8f>
     79a: 86 18        	stx	$18                     ; 0x18 <__rc8>
     79c: ac 12 de     	ldy	$de12                   ; 0xde12 <__heap_start+0xba90>
     79f: ae 13 de     	ldx	$de13                   ; 0xde13 <__heap_start+0xba91>
     7a2: e4 14        	cpx	$14                     ; 0x14 <__rc4>
     7a4: d0 14        	bne	$7ba <f256Init+0x2f0>
     7a6: c4 13        	cpy	$13                     ; 0x13 <__rc3>
     7a8: d0 10        	bne	$7ba <f256Init+0x2f0>
     7aa: a6 18        	ldx	$18                     ; 0x18 <__rc8>
     7ac: e4 12        	cpx	$12                     ; 0x12 <__rc2>
     7ae: d0 0a        	bne	$7ba <f256Init+0x2f0>
     7b0: a6 16        	ldx	$16                     ; 0x16 <__rc6>
     7b2: e4 17        	cpx	$17                     ; 0x17 <__rc7>
     7b4: d0 04        	bne	$7ba <f256Init+0x2f0>
     7b6: a6 15        	ldx	$15                     ; 0x15 <__rc5>
     7b8: 80 06        	bra	$7c0 <f256Init+0x2f6>
     7ba: a6 15        	ldx	$15                     ; 0x15 <__rc5>
     7bc: e8           	inx
     7bd: d0 01        	bne	$7c0 <f256Init+0x2f6>
     7bf: 1a           	inc
     7c0: 8e 00 de     	stx	$de00                   ; 0xde00 <__heap_start+0xba7e>
     7c3: 8d 01 de     	sta	$de01                   ; 0xde01 <__heap_start+0xba7f>
     7c6: 9c 02 de     	stz	$de02                   ; 0xde02 <__heap_start+0xba80>
     7c9: a2 20        	ldx	#$20
     7cb: 8e 03 de     	stx	$de03                   ; 0xde03 <__heap_start+0xba81>
     7ce: ae 10 de     	ldx	$de10                   ; 0xde10 <__heap_start+0xba8e>
     7d1: 86 12        	stx	$12                     ; 0x12 <__rc2>
     7d3: ae 11 de     	ldx	$de11                   ; 0xde11 <__heap_start+0xba8f>
     7d6: 86 13        	stx	$13                     ; 0x13 <__rc3>
     7d8: ae 12 de     	ldx	$de12                   ; 0xde12 <__heap_start+0xba90>
     7db: 86 14        	stx	$14                     ; 0x14 <__rc4>
     7dd: ae 13 de     	ldx	$de13                   ; 0xde13 <__heap_start+0xba91>
     7e0: 86 15        	stx	$15                     ; 0x15 <__rc5>
     7e2: 38           	sec
     7e3: a9 00        	lda	#$0
     7e5: e5 12        	sbc	$12                     ; 0x12 <__rc2>
     7e7: 85 18        	sta	$18                     ; 0x18 <__rc8>
     7e9: a9 00        	lda	#$0
     7eb: e5 13        	sbc	$13                     ; 0x13 <__rc3>
     7ed: a8           	tay
     7ee: a9 08        	lda	#$8
     7f0: e5 14        	sbc	$14                     ; 0x14 <__rc4>
     7f2: aa           	tax
     7f3: a9 00        	lda	#$0
     7f5: e5 15        	sbc	$15                     ; 0x15 <__rc5>
     7f7: 85 17        	sta	$17                     ; 0x17 <__rc7>
     7f9: 84 63        	sty	$63                     ; 0x63 <_BITMAP_BASE.0+0x1>
     7fb: 86 64        	stx	$64                     ; 0x64 <_BITMAP_BASE.0+0x2>
     7fd: 85 65        	sta	$65                     ; 0x65 <_BITMAP_BASE.0+0x3>
     7ff: 38           	sec
     800: a5 18        	lda	$18                     ; 0x18 <__rc8>
     802: e5 12        	sbc	$12                     ; 0x12 <__rc2>
     804: 85 19        	sta	$19                     ; 0x19 <__rc9>
     806: 98           	tya
     807: e5 13        	sbc	$13                     ; 0x13 <__rc3>
     809: 85 16        	sta	$16                     ; 0x16 <__rc6>
     80b: 8a           	txa
     80c: e5 14        	sbc	$14                     ; 0x14 <__rc4>
     80e: aa           	tax
     80f: a5 17        	lda	$17                     ; 0x17 <__rc7>
     811: e5 15        	sbc	$15                     ; 0x15 <__rc5>
     813: 85 17        	sta	$17                     ; 0x17 <__rc7>
     815: 38           	sec
     816: a5 19        	lda	$19                     ; 0x19 <__rc9>
     818: 85 66        	sta	$66                     ; 0x66 <_BITMAP_BASE.1>
     81a: a4 16        	ldy	$16                     ; 0x16 <__rc6>
     81c: 84 67        	sty	$67                     ; 0x67 <_BITMAP_BASE.1+0x1>
     81e: 86 68        	stx	$68                     ; 0x68 <_BITMAP_BASE.1+0x2>
     820: a4 17        	ldy	$17                     ; 0x17 <__rc7>
     822: 84 69        	sty	$69                     ; 0x69 <_BITMAP_BASE.1+0x3>
     824: e5 12        	sbc	$12                     ; 0x12 <__rc2>
     826: a8           	tay
     827: a5 16        	lda	$16                     ; 0x16 <__rc6>
     829: e5 13        	sbc	$13                     ; 0x13 <__rc3>
     82b: 85 12        	sta	$12                     ; 0x12 <__rc2>
     82d: 8a           	txa
     82e: e5 14        	sbc	$14                     ; 0x14 <__rc4>
     830: 85 14        	sta	$14                     ; 0x14 <__rc4>
     832: a5 17        	lda	$17                     ; 0x17 <__rc7>
     834: e5 15        	sbc	$15                     ; 0x15 <__rc5>
     836: 84 6a        	sty	$6a                     ; 0x6a <_BITMAP_BASE.2>
     838: a4 12        	ldy	$12                     ; 0x12 <__rc2>
     83a: 84 6b        	sty	$6b                     ; 0x6b <_BITMAP_BASE.2+0x1>
     83c: a6 14        	ldx	$14                     ; 0x14 <__rc4>
     83e: 86 6c        	stx	$6c                     ; 0x6c <_BITMAP_BASE.2+0x2>
     840: a6 18        	ldx	$18                     ; 0x18 <__rc8>
     842: 86 62        	stx	$62                     ; 0x62 <_BITMAP_BASE.0>
     844: 85 6d        	sta	$6d                     ; 0x6d <_BITMAP_BASE.2+0x3>
     846: 8e 01 d1     	stx	$d101                   ; 0xd101 <__heap_start+0xad7f>
     849: a6 63        	ldx	$63                     ; 0x63 <_BITMAP_BASE.0+0x1>
     84b: 8e 02 d1     	stx	$d102                   ; 0xd102 <__heap_start+0xad80>
     84e: a6 64        	ldx	$64                     ; 0x64 <_BITMAP_BASE.0+0x2>
     850: 8e 03 d1     	stx	$d103                   ; 0xd103 <__heap_start+0xad81>
     853: a6 66        	ldx	$66                     ; 0x66 <_BITMAP_BASE.1>
     855: 8e 09 d1     	stx	$d109                   ; 0xd109 <__heap_start+0xad87>
     858: a6 67        	ldx	$67                     ; 0x67 <_BITMAP_BASE.1+0x1>
     85a: 8e 0a d1     	stx	$d10a                   ; 0xd10a <__heap_start+0xad88>
     85d: a6 68        	ldx	$68                     ; 0x68 <_BITMAP_BASE.1+0x2>
     85f: 8e 0b d1     	stx	$d10b                   ; 0xd10b <__heap_start+0xad89>
     862: a6 6a        	ldx	$6a                     ; 0x6a <_BITMAP_BASE.2>
     864: 8e 11 d1     	stx	$d111                   ; 0xd111 <__heap_start+0xad8f>
     867: a6 6b        	ldx	$6b                     ; 0x6b <_BITMAP_BASE.2+0x1>
     869: 8e 12 d1     	stx	$d112                   ; 0xd112 <__heap_start+0xad90>
     86c: a6 6c        	ldx	$6c                     ; 0x6c <_BITMAP_BASE.2+0x2>
     86e: 8e 13 d1     	stx	$d113                   ; 0xd113 <__heap_start+0xad91>
     871: 9c 00 d1     	stz	$d100                   ; 0xd100 <__heap_start+0xad7e>
     874: 9c 08 d1     	stz	$d108                   ; 0xd108 <__heap_start+0xad86>
     877: 9c 10 d1     	stz	$d110                   ; 0xd110 <__heap_start+0xad8e>
     87a: a2 10        	ldx	#$10
     87c: 8e 00 d2     	stx	$d200                   ; 0xd200 <__heap_start+0xae7e>
     87f: 8e 0c d2     	stx	$d20c                   ; 0xd20c <__heap_start+0xae8a>
     882: 8e 18 d2     	stx	$d218                   ; 0xd218 <__heap_start+0xae96>
     885: a0 d9        	ldy	#$d9
     887: 64 12        	stz	$12                     ; 0x12 <__rc2>
     889: a2 00        	ldx	#$0
     88b: 84 13        	sty	$13                     ; 0x13 <__rc3>
     88d: b5 6e        	lda	$6e,x                   ; 0x6e <_spriteCtl>
     88f: 92 12        	sta	($12)                   ; 0x12 <__rc2>
     891: a5 12        	lda	$12                     ; 0x12 <__rc2>
     893: e8           	inx
     894: 18           	clc
     895: 69 08        	adc	#$8
     897: 85 12        	sta	$12                     ; 0x12 <__rc2>
     899: 98           	tya
     89a: 69 00        	adc	#$0
     89c: a8           	tay
     89d: e0 40        	cpx	#$40
     89f: d0 ea        	bne	$88b <f256Init+0x3c1>
     8a1: a2 b5        	ldx	#$b5
     8a3: a0 00        	ldy	#$0
     8a5: 86 fb        	stx	$fb                     ; 0xfb <__zp_bss_size+0xa6>
     8a7: 84 fc        	sty	$fc                     ; 0xfc <__zp_bss_size+0xa7>
     8a9: a2 08        	ldx	#$8
     8ab: 86 fd        	stx	$fd                     ; 0xfd <__zp_bss_size+0xa8>
     8ad: a2 bd        	ldx	#$bd
     8af: a0 00        	ldy	#$0
     8b1: 86 12        	stx	$12                     ; 0x12 <__rc2>
     8b3: 84 13        	sty	$13                     ; 0x13 <__rc3>
     8b5: a2 80        	ldx	#$80
     8b7: 86 14        	stx	$14                     ; 0x14 <__rc4>
     8b9: a2 23        	ldx	#$23
     8bb: 86 15        	stx	$15                     ; 0x15 <__rc5>
     8bd: 20 dc ff     	jsr	$ffdc <__heap_start+0xdc5a>
     8c0: 92 12        	sta	($12)                   ; 0x12 <__rc2>
     8c2: a9 00        	lda	#$0
     8c4: 6a           	ror
     8c5: 85 14        	sta	$14                     ; 0x14 <__rc4>
     8c7: a6 bb        	ldx	$bb                     ; 0xbb <__zp_bss_size+0x66>
     8c9: a4 bc        	ldy	$bc                     ; 0xbc <__zp_bss_size+0x67>
     8cb: 8e 00 de     	stx	$de00                   ; 0xde00 <__heap_start+0xba7e>
     8ce: 9c 01 de     	stz	$de01                   ; 0xde01 <__heap_start+0xba7f>
     8d1: 8c 02 de     	sty	$de02                   ; 0xde02 <__heap_start+0xba80>
     8d4: 9c 03 de     	stz	$de03                   ; 0xde03 <__heap_start+0xba81>
     8d7: ae 10 de     	ldx	$de10                   ; 0xde10 <__heap_start+0xba8e>
     8da: ac 11 de     	ldy	$de11                   ; 0xde11 <__heap_start+0xba8f>
     8dd: ad 12 de     	lda	$de12                   ; 0xde12 <__heap_start+0xba90>
     8e0: ad 13 de     	lda	$de13                   ; 0xde13 <__heap_start+0xba91>
     8e3: 8e a4 d6     	stx	$d6a4                   ; 0xd6a4 <__heap_start+0xb322>
     8e6: 8c a5 d6     	sty	$d6a5                   ; 0xd6a5 <__heap_start+0xb323>
     8e9: a2 03        	ldx	#$3
     8eb: 8e a6 d6     	stx	$d6a6                   ; 0xd6a6 <__heap_start+0xb324>
     8ee: 60           	rts

000008ef <main>:
     8ef: 20 ca 04     	jsr	$4ca <f256Init>
     8f2: 20 f5 08     	jsr	$8f5 <f256main>

000008f5 <f256main>:
     8f5: 18           	clc
     8f6: a5 10        	lda	$10                     ; 0x10 <__rc0>
     8f8: 69 fc        	adc	#$fc
     8fa: 85 10        	sta	$10                     ; 0x10 <__rc0>
     8fc: a5 11        	lda	$11                     ; 0x11 <__rc1>
     8fe: 69 ff        	adc	#$ff
     900: 85 11        	sta	$11                     ; 0x11 <__rc1>
     902: a2 00        	ldx	#$0
     904: a0 00        	ldy	#$0
     906: 84 12        	sty	$12                     ; 0x12 <__rc2>
     908: a0 c0        	ldy	#$c0
     90a: 84 13        	sty	$13                     ; 0x13 <__rc3>
     90c: a5 12        	lda	$12                     ; 0x12 <__rc2>
     90e: a0 00        	ldy	#$0
     910: 91 10        	sta	($10),y                 ; 0x10 <__rc0>
     912: a5 13        	lda	$13                     ; 0x13 <__rc3>
     914: c8           	iny
     915: 91 10        	sta	($10),y                 ; 0x10 <__rc0>
     917: 64 01        	stz	$1                      ; 0x1 <__data_size+0x1>
     919: a0 2f        	ldy	#$2f
     91b: 8c 00 d0     	sty	$d000                   ; 0xd000 <__heap_start+0xac7e>
     91e: a0 10        	ldy	#$10
     920: 8c 01 d0     	sty	$d001                   ; 0xd001 <__heap_start+0xac7f>
     923: a0 01        	ldy	#$1
     925: 84 01        	sty	$1                      ; 0x1 <__data_size+0x1>
     927: a0 d0        	ldy	#$d0
     929: 80 05        	bra	$930 <f256main+0x3b>
     92b: c8           	iny
     92c: c0 d3        	cpy	#$d3
     92e: f0 28        	beq	$958 <f256main+0x63>
     930: 18           	clc
     931: 86 16        	stx	$16                     ; 0x16 <__rc6>
     933: 8a           	txa
     934: 69 00        	adc	#$0
     936: 85 14        	sta	$14                     ; 0x14 <__rc4>
     938: 98           	tya
     939: 69 10        	adc	#$10
     93b: 85 15        	sta	$15                     ; 0x15 <__rc5>
     93d: 86 12        	stx	$12                     ; 0x12 <__rc2>
     93f: 84 13        	sty	$13                     ; 0x13 <__rc3>
     941: a6 0f        	ldx	$f                      ; 0xf <__bss_size+0xd>
     943: 78           	sei
     944: a9 08        	lda	#$8
     946: 85 0f        	sta	$f                      ; 0xf <__bss_size+0xd>
     948: b2 14        	lda	($14)                   ; 0x14 <__rc4>
     94a: 86 0f        	stx	$f                      ; 0xf <__bss_size+0xd>
     94c: 58           	cli
     94d: 92 12        	sta	($12)                   ; 0x12 <__rc2>
     94f: a6 16        	ldx	$16                     ; 0x16 <__rc6>
     951: e8           	inx
     952: f0 d7        	beq	$92b <f256main+0x36>
     954: c0 d3        	cpy	#$d3
     956: d0 d8        	bne	$930 <f256main+0x3b>
     958: e0 ff        	cpx	#$ff
     95a: d0 d4        	bne	$930 <f256main+0x3b>
     95c: 64 01        	stz	$1                      ; 0x1 <__data_size+0x1>
     95e: a2 40        	ldx	#$40
     960: 86 6e        	stx	$6e                     ; 0x6e <_spriteCtl>
     962: 8e 00 d9     	stx	$d900                   ; 0xd900 <__heap_start+0xb57e>
     965: 9c 01 d9     	stz	$d901                   ; 0xd901 <__heap_start+0xb57f>
     968: a2 08        	ldx	#$8
     96a: 8e 02 d9     	stx	$d902                   ; 0xd902 <__heap_start+0xb580>
     96d: a2 01        	ldx	#$1
     96f: 8e 03 d9     	stx	$d903                   ; 0xd903 <__heap_start+0xb581>
     972: 86 24        	stx	$24                     ; 0x24 <__rc20>
     974: a2 41        	ldx	#$41
     976: 8e 00 d9     	stx	$d900                   ; 0xd900 <__heap_start+0xb57e>
     979: a2 a0        	ldx	#$a0
     97b: 8e 04 d9     	stx	$d904                   ; 0xd904 <__heap_start+0xb582>
     97e: 9c 05 d9     	stz	$d905                   ; 0xd905 <__heap_start+0xb583>
     981: a2 96        	ldx	#$96
     983: 8e 06 d9     	stx	$d906                   ; 0xd906 <__heap_start+0xb584>
     986: 9c 07 d9     	stz	$d907                   ; 0xd907 <__heap_start+0xb585>
     989: 64 60        	stz	$60                     ; 0x60 <_col>
     98b: 9c 14 d0     	stz	$d014                   ; 0xd014 <__heap_start+0xac92>
     98e: 9c 15 d0     	stz	$d015                   ; 0xd015 <__heap_start+0xac93>
     991: 64 61        	stz	$61                     ; 0x61 <_row>
     993: 9c 16 d0     	stz	$d016                   ; 0xd016 <__heap_start+0xac94>
     996: 9c 17 d0     	stz	$d017                   ; 0xd017 <__heap_start+0xac95>
     999: a2 27        	ldx	#$27
     99b: 86 12        	stx	$12                     ; 0x12 <__rc2>
     99d: a2 23        	ldx	#$23
     99f: 86 13        	stx	$13                     ; 0x13 <__rc3>
     9a1: 20 5e 13     	jsr	$135e <textPrint>
     9a4: a4 24        	ldy	$24                     ; 0x24 <__rc20>
     9a6: a2 98        	ldx	#$98
     9a8: 8e 00 d6     	stx	$d600                   ; 0xd600 <__heap_start+0xb27e>
     9ab: a2 0f        	ldx	#$f
     9ad: 86 2f        	stx	$2f                     ; 0x2f <__rc31>
     9af: 64 12        	stz	$12                     ; 0x12 <__rc2>
     9b1: a9 00        	lda	#$0
     9b3: 5a           	phy
     9b4: a0 02        	ldy	#$2
     9b6: 91 10        	sta	($10),y                 ; 0x10 <__rc0>
     9b8: 7a           	ply
     9b9: 64 24        	stz	$24                     ; 0x24 <__rc20>
     9bb: 4c 52 0a     	jmp	$a52 <f256main+0x15d>
     9be: a4 26        	ldy	$26                     ; 0x26 <__rc22>
     9c0: 84 12        	sty	$12                     ; 0x12 <__rc2>
     9c2: a4 27        	ldy	$27                     ; 0x27 <__rc23>
     9c4: 84 13        	sty	$13                     ; 0x13 <__rc3>
     9c6: 86 24        	stx	$24                     ; 0x24 <__rc20>
     9c8: a6 25        	ldx	$25                     ; 0x25 <__rc21>
     9ca: a5 2c        	lda	$2c                     ; 0x2c <__rc28>
     9cc: 20 53 17     	jsr	$1753 <__fixsfsi>
     9cf: 85 25        	sta	$25                     ; 0x25 <__rc21>
     9d1: 86 26        	stx	$26                     ; 0x26 <__rc22>
     9d3: a6 2a        	ldx	$2a                     ; 0x2a <__rc26>
     9d5: 86 12        	stx	$12                     ; 0x12 <__rc2>
     9d7: a6 2b        	ldx	$2b                     ; 0x2b <__rc27>
     9d9: 86 13        	stx	$13                     ; 0x13 <__rc3>
     9db: a6 29        	ldx	$29                     ; 0x29 <__rc25>
     9dd: a5 28        	lda	$28                     ; 0x28 <__rc24>
     9df: 20 53 17     	jsr	$1753 <__fixsfsi>
     9e2: 85 15        	sta	$15                     ; 0x15 <__rc5>
     9e4: a4 25        	ldy	$25                     ; 0x25 <__rc21>
     9e6: 84 13        	sty	$13                     ; 0x13 <__rc3>
     9e8: 86 12        	stx	$12                     ; 0x12 <__rc2>
     9ea: a0 01        	ldy	#$1
     9ec: 84 25        	sty	$25                     ; 0x25 <__rc21>
     9ee: 18           	clc
     9ef: a5 15        	lda	$15                     ; 0x15 <__rc5>
     9f1: 69 96        	adc	#$96
     9f3: 85 14        	sta	$14                     ; 0x14 <__rc4>
     9f5: a5 12        	lda	$12                     ; 0x12 <__rc2>
     9f7: 69 00        	adc	#$0
     9f9: aa           	tax
     9fa: 18           	clc
     9fb: a5 13        	lda	$13                     ; 0x13 <__rc3>
     9fd: 69 a0        	adc	#$a0
     9ff: a8           	tay
     a00: a5 26        	lda	$26                     ; 0x26 <__rc22>
     a02: 69 00        	adc	#$0
     a04: 85 12        	sta	$12                     ; 0x12 <__rc2>
     a06: a5 24        	lda	$24                     ; 0x24 <__rc20>
     a08: 29 1f        	and	#$1f
     a0a: 8d 00 d6     	sta	$d600                   ; 0xd600 <__heap_start+0xb27e>
     a0d: a5 24        	lda	$24                     ; 0x24 <__rc20>
     a0f: 4a           	lsr
     a10: 4a           	lsr
     a11: 4a           	lsr
     a12: 4a           	lsr
     a13: 8d 00 d6     	sta	$d600                   ; 0xd600 <__heap_start+0xb27e>
     a16: 8c 04 d9     	sty	$d904                   ; 0xd904 <__heap_start+0xb582>
     a19: a4 12        	ldy	$12                     ; 0x12 <__rc2>
     a1b: 8c 05 d9     	sty	$d905                   ; 0xd905 <__heap_start+0xb583>
     a1e: a4 14        	ldy	$14                     ; 0x14 <__rc4>
     a20: 8c 06 d9     	sty	$d906                   ; 0xd906 <__heap_start+0xb584>
     a23: 8e 07 d9     	stx	$d907                   ; 0xd907 <__heap_start+0xb585>
     a26: 64 ae        	stz	$ae                     ; 0xae <kernelEventData>
     a28: 18           	clc
     a29: a5 10        	lda	$10                     ; 0x10 <__rc0>
     a2b: 69 03        	adc	#$3
     a2d: 85 12        	sta	$12                     ; 0x12 <__rc2>
     a2f: a5 11        	lda	$11                     ; 0x11 <__rc1>
     a31: 69 00        	adc	#$0
     a33: 85 13        	sta	$13                     ; 0x13 <__rc3>
     a35: a2 80        	ldx	#$80
     a37: 86 14        	stx	$14                     ; 0x14 <__rc4>
     a39: a2 23        	ldx	#$23
     a3b: 86 15        	stx	$15                     ; 0x15 <__rc5>
     a3d: 20 00 ff     	jsr	$ff00 <__heap_start+0xdb7e>
     a40: 92 12        	sta	($12)                   ; 0x12 <__rc2>
     a42: a9 00        	lda	#$0
     a44: 6a           	ror
     a45: 85 14        	sta	$14                     ; 0x14 <__rc4>
     a47: a6 ae        	ldx	$ae                     ; 0xae <kernelEventData>
     a49: a4 25        	ldy	$25                     ; 0x25 <__rc21>
     a4b: e0 08        	cpx	#$8
     a4d: d0 03        	bne	$a52 <f256main+0x15d>
     a4f: 4c b9 0c     	jmp	$cb9 <f256main+0x3c4>
     a52: a6 2f        	ldx	$2f                     ; 0x2f <__rc31>
     a54: 86 13        	stx	$13                     ; 0x13 <__rc3>
     a56: a6 24        	ldx	$24                     ; 0x24 <__rc20>
     a58: 86 14        	stx	$14                     ; 0x14 <__rc4>
     a5a: 5a           	phy
     a5b: a0 02        	ldy	#$2
     a5d: b1 10        	lda	($10),y                 ; 0x10 <__rc0>
     a5f: 7a           	ply
     a60: 29 01        	and	#$1
     a62: 85 17        	sta	$17                     ; 0x17 <__rc7>
     a64: e6 2f        	inc	$2f                     ; 0x2f <__rc31>
     a66: 06 13        	asl	$13                     ; 0x13 <__rc3>
     a68: 64 12        	stz	$12                     ; 0x12 <__rc2>
     a6a: 26 12        	rol	$12                     ; 0x12 <__rc2>
     a6c: 06 13        	asl	$13                     ; 0x13 <__rc3>
     a6e: 26 12        	rol	$12                     ; 0x12 <__rc2>
     a70: a9 37        	lda	#$37
     a72: a2 00        	ldx	#$0
     a74: 18           	clc
     a75: 65 13        	adc	$13                     ; 0x13 <__rc3>
     a77: 85 13        	sta	$13                     ; 0x13 <__rc3>
     a79: a9 22        	lda	#$22
     a7b: 65 12        	adc	$12                     ; 0x12 <__rc2>
     a7d: a6 13        	ldx	$13                     ; 0x13 <__rc3>
     a7f: 86 12        	stx	$12                     ; 0x12 <__rc2>
     a81: 85 13        	sta	$13                     ; 0x13 <__rc3>
     a83: b2 12        	lda	($12)                   ; 0x12 <__rc2>
     a85: 85 19        	sta	$19                     ; 0x19 <__rc9>
     a87: 06 14        	asl	$14                     ; 0x14 <__rc4>
     a89: 64 15        	stz	$15                     ; 0x15 <__rc5>
     a8b: 26 15        	rol	$15                     ; 0x15 <__rc5>
     a8d: 06 14        	asl	$14                     ; 0x14 <__rc4>
     a8f: 26 15        	rol	$15                     ; 0x15 <__rc5>
     a91: a9 37        	lda	#$37
     a93: 18           	clc
     a94: 65 14        	adc	$14                     ; 0x14 <__rc4>
     a96: 85 28        	sta	$28                     ; 0x28 <__rc24>
     a98: a9 22        	lda	#$22
     a9a: 65 15        	adc	$15                     ; 0x15 <__rc5>
     a9c: 85 29        	sta	$29                     ; 0x29 <__rc25>
     a9e: b1 12        	lda	($12),y                 ; 0x12 <__rc2>
     aa0: 85 18        	sta	$18                     ; 0x18 <__rc8>
     aa2: a0 02        	ldy	#$2
     aa4: 84 2d        	sty	$2d                     ; 0x2d <__rc29>
     aa6: b1 12        	lda	($12),y                 ; 0x12 <__rc2>
     aa8: aa           	tax
     aa9: c8           	iny
     aaa: 84 2e        	sty	$2e                     ; 0x2e <__rc30>
     aac: b1 12        	lda	($12),y                 ; 0x12 <__rc2>
     aae: e6 24        	inc	$24                     ; 0x24 <__rc20>
     ab0: a4 17        	ldy	$17                     ; 0x17 <__rc7>
     ab2: d0 03        	bne	$ab7 <f256main+0x1c2>
     ab4: 4c 48 0b     	jmp	$b48 <f256main+0x253>
     ab7: 86 12        	stx	$12                     ; 0x12 <__rc2>
     ab9: 85 13        	sta	$13                     ; 0x13 <__rc3>
     abb: 64 14        	stz	$14                     ; 0x14 <__rc4>
     abd: 64 15        	stz	$15                     ; 0x15 <__rc5>
     abf: a2 c8        	ldx	#$c8
     ac1: 86 26        	stx	$26                     ; 0x26 <__rc22>
     ac3: 86 16        	stx	$16                     ; 0x16 <__rc6>
     ac5: a2 42        	ldx	#$42
     ac7: 86 27        	stx	$27                     ; 0x27 <__rc23>
     ac9: 86 17        	stx	$17                     ; 0x17 <__rc7>
     acb: a6 18        	ldx	$18                     ; 0x18 <__rc8>
     acd: a5 19        	lda	$19                     ; 0x19 <__rc9>
     acf: 20 27 04     	jsr	$427 <mathFloatMul>
     ad2: 86 2b        	stx	$2b                     ; 0x2b <__rc27>
     ad4: a6 12        	ldx	$12                     ; 0x12 <__rc2>
     ad6: 86 2c        	stx	$2c                     ; 0x2c <__rc28>
     ad8: a6 13        	ldx	$13                     ; 0x13 <__rc3>
     ada: 86 2a        	stx	$2a                     ; 0x2a <__rc26>
     adc: b2 28        	lda	($28)                   ; 0x28 <__rc24>
     ade: 85 18        	sta	$18                     ; 0x18 <__rc8>
     ae0: a2 01        	ldx	#$1
     ae2: 86 25        	stx	$25                     ; 0x25 <__rc21>
     ae4: a0 01        	ldy	#$1
     ae6: b1 28        	lda	($28),y                 ; 0x28 <__rc24>
     ae8: aa           	tax
     ae9: a4 2d        	ldy	$2d                     ; 0x2d <__rc29>
     aeb: b1 28        	lda	($28),y                 ; 0x28 <__rc24>
     aed: 85 12        	sta	$12                     ; 0x12 <__rc2>
     aef: a4 2e        	ldy	$2e                     ; 0x2e <__rc30>
     af1: b1 28        	lda	($28),y                 ; 0x28 <__rc24>
     af3: 85 13        	sta	$13                     ; 0x13 <__rc3>
     af5: 64 14        	stz	$14                     ; 0x14 <__rc4>
     af7: 64 15        	stz	$15                     ; 0x15 <__rc5>
     af9: a4 26        	ldy	$26                     ; 0x26 <__rc22>
     afb: 84 16        	sty	$16                     ; 0x16 <__rc6>
     afd: a4 27        	ldy	$27                     ; 0x27 <__rc23>
     aff: 84 17        	sty	$17                     ; 0x17 <__rc7>
     b01: a5 18        	lda	$18                     ; 0x18 <__rc8>
     b03: 20 27 04     	jsr	$427 <mathFloatMul>
     b06: 8a           	txa
     b07: a6 2f        	ldx	$2f                     ; 0x2f <__rc31>
     b09: e0 3c        	cpx	#$3c
     b0b: d0 02        	bne	$b0f <f256main+0x21a>
     b0d: a2 00        	ldx	#$0
     b0f: 85 18        	sta	$18                     ; 0x18 <__rc8>
     b11: 86 2f        	stx	$2f                     ; 0x2f <__rc31>
     b13: a6 24        	ldx	$24                     ; 0x24 <__rc20>
     b15: e0 3c        	cpx	#$3c
     b17: d0 02        	bne	$b1b <f256main+0x226>
     b19: a2 00        	ldx	#$0
     b1b: a5 2c        	lda	$2c                     ; 0x2c <__rc28>
     b1d: 0a           	asl
     b1e: a5 2a        	lda	$2a                     ; 0x2a <__rc26>
     b20: 2a           	rol
     b21: 85 14        	sta	$14                     ; 0x14 <__rc4>
     b23: 18           	clc
     b24: 69 81        	adc	#$81
     b26: a0 00        	ldy	#$0
     b28: 64 17        	stz	$17                     ; 0x17 <__rc7>
     b2a: c9 00        	cmp	#$0
     b2c: 10 03        	bpl	$b31 <f256main+0x23c>
     b2e: 4c 18 0c     	jmp	$c18 <f256main+0x323>
     b31: c9 0f        	cmp	#$f
     b33: b0 03        	bcs	$b38 <f256main+0x243>
     b35: 4c b2 0b     	jmp	$bb2 <f256main+0x2bd>
     b38: a5 2a        	lda	$2a                     ; 0x2a <__rc26>
     b3a: 10 03        	bpl	$b3f <f256main+0x24a>
     b3c: 4c 02 0c     	jmp	$c02 <f256main+0x30d>
     b3f: a0 7f        	ldy	#$7f
     b41: 84 17        	sty	$17                     ; 0x17 <__rc7>
     b43: a0 ff        	ldy	#$ff
     b45: 4c 18 0c     	jmp	$c18 <f256main+0x323>
     b48: 86 12        	stx	$12                     ; 0x12 <__rc2>
     b4a: 85 13        	sta	$13                     ; 0x13 <__rc3>
     b4c: 64 14        	stz	$14                     ; 0x14 <__rc4>
     b4e: 64 15        	stz	$15                     ; 0x15 <__rc5>
     b50: a2 c8        	ldx	#$c8
     b52: 86 2a        	stx	$2a                     ; 0x2a <__rc26>
     b54: 86 16        	stx	$16                     ; 0x16 <__rc6>
     b56: a2 42        	ldx	#$42
     b58: 86 2b        	stx	$2b                     ; 0x2b <__rc27>
     b5a: 86 17        	stx	$17                     ; 0x17 <__rc7>
     b5c: a6 18        	ldx	$18                     ; 0x18 <__rc8>
     b5e: a5 19        	lda	$19                     ; 0x19 <__rc9>
     b60: 20 7e 19     	jsr	$197e <__mulsf3>
     b63: 85 2c        	sta	$2c                     ; 0x2c <__rc28>
     b65: 86 25        	stx	$25                     ; 0x25 <__rc21>
     b67: a6 12        	ldx	$12                     ; 0x12 <__rc2>
     b69: 86 26        	stx	$26                     ; 0x26 <__rc22>
     b6b: a6 13        	ldx	$13                     ; 0x13 <__rc3>
     b6d: 86 27        	stx	$27                     ; 0x27 <__rc23>
     b6f: b2 28        	lda	($28)                   ; 0x28 <__rc24>
     b71: 85 18        	sta	$18                     ; 0x18 <__rc8>
     b73: a0 01        	ldy	#$1
     b75: b1 28        	lda	($28),y                 ; 0x28 <__rc24>
     b77: aa           	tax
     b78: a4 2d        	ldy	$2d                     ; 0x2d <__rc29>
     b7a: b1 28        	lda	($28),y                 ; 0x28 <__rc24>
     b7c: 85 12        	sta	$12                     ; 0x12 <__rc2>
     b7e: a4 2e        	ldy	$2e                     ; 0x2e <__rc30>
     b80: b1 28        	lda	($28),y                 ; 0x28 <__rc24>
     b82: 85 13        	sta	$13                     ; 0x13 <__rc3>
     b84: 64 14        	stz	$14                     ; 0x14 <__rc4>
     b86: 64 15        	stz	$15                     ; 0x15 <__rc5>
     b88: a4 2a        	ldy	$2a                     ; 0x2a <__rc26>
     b8a: 84 16        	sty	$16                     ; 0x16 <__rc6>
     b8c: a4 2b        	ldy	$2b                     ; 0x2b <__rc27>
     b8e: 84 17        	sty	$17                     ; 0x17 <__rc7>
     b90: a5 18        	lda	$18                     ; 0x18 <__rc8>
     b92: 20 7e 19     	jsr	$197e <__mulsf3>
     b95: 85 28        	sta	$28                     ; 0x28 <__rc24>
     b97: 86 29        	stx	$29                     ; 0x29 <__rc25>
     b99: a6 12        	ldx	$12                     ; 0x12 <__rc2>
     b9b: 86 2a        	stx	$2a                     ; 0x2a <__rc26>
     b9d: a6 13        	ldx	$13                     ; 0x13 <__rc3>
     b9f: 86 2b        	stx	$2b                     ; 0x2b <__rc27>
     ba1: a6 2f        	ldx	$2f                     ; 0x2f <__rc31>
     ba3: e0 3c        	cpx	#$3c
     ba5: f0 25        	beq	$bcc <f256main+0x2d7>
     ba7: 86 2f        	stx	$2f                     ; 0x2f <__rc31>
     ba9: a6 24        	ldx	$24                     ; 0x24 <__rc20>
     bab: e0 3c        	cpx	#$3c
     bad: f0 2a        	beq	$bd9 <f256main+0x2e4>
     baf: 4c be 09     	jmp	$9be <f256main+0xc9>
     bb2: 86 16        	stx	$16                     ; 0x16 <__rc6>
     bb4: a5 2c        	lda	$2c                     ; 0x2c <__rc28>
     bb6: 09 80        	ora	#$80
     bb8: a6 14        	ldx	$14                     ; 0x14 <__rc4>
     bba: e0 87        	cpx	#$87
     bbc: a2 72        	ldx	#$72
     bbe: b0 1e        	bcs	$bde <f256main+0x2e9>
     bc0: a0 7a        	ldy	#$7a
     bc2: a6 14        	ldx	$14                     ; 0x14 <__rc4>
     bc4: 85 15        	sta	$15                     ; 0x15 <__rc5>
     bc6: e0 86        	cpx	#$86
     bc8: d0 1a        	bne	$be4 <f256main+0x2ef>
     bca: 80 2f        	bra	$bfb <f256main+0x306>
     bcc: a2 00        	ldx	#$0
     bce: 86 2f        	stx	$2f                     ; 0x2f <__rc31>
     bd0: a6 24        	ldx	$24                     ; 0x24 <__rc20>
     bd2: e0 3c        	cpx	#$3c
     bd4: f0 03        	beq	$bd9 <f256main+0x2e4>
     bd6: 4c be 09     	jmp	$9be <f256main+0xc9>
     bd9: a2 00        	ldx	#$0
     bdb: 4c be 09     	jmp	$9be <f256main+0xc9>
     bde: 85 17        	sta	$17                     ; 0x17 <__rc7>
     be0: a5 2b        	lda	$2b                     ; 0x2b <__rc27>
     be2: a0 72        	ldy	#$72
     be4: 18           	clc
     be5: 85 15        	sta	$15                     ; 0x15 <__rc5>
     be7: 98           	tya
     be8: 65 14        	adc	$14                     ; 0x14 <__rc4>
     bea: aa           	tax
     beb: a5 15        	lda	$15                     ; 0x15 <__rc5>
     bed: 46 17        	lsr	$17                     ; 0x17 <__rc7>
     bef: 64 14        	stz	$14                     ; 0x14 <__rc4>
     bf1: 66 14        	ror	$14                     ; 0x14 <__rc4>
     bf3: 4a           	lsr
     bf4: 05 14        	ora	$14                     ; 0x14 <__rc4>
     bf6: e8           	inx
     bf7: 85 15        	sta	$15                     ; 0x15 <__rc5>
     bf9: d0 f2        	bne	$bed <f256main+0x2f8>
     bfb: a6 2a        	ldx	$2a                     ; 0x2a <__rc26>
     bfd: 30 0b        	bmi	$c0a <f256main+0x315>
     bff: a8           	tay
     c00: 80 14        	bra	$c16 <f256main+0x321>
     c02: a0 80        	ldy	#$80
     c04: 84 17        	sty	$17                     ; 0x17 <__rc7>
     c06: a0 00        	ldy	#$0
     c08: 80 0e        	bra	$c18 <f256main+0x323>
     c0a: a9 00        	lda	#$0
     c0c: 38           	sec
     c0d: e5 15        	sbc	$15                     ; 0x15 <__rc5>
     c0f: a8           	tay
     c10: a9 00        	lda	#$0
     c12: e5 17        	sbc	$17                     ; 0x17 <__rc7>
     c14: 85 17        	sta	$17                     ; 0x17 <__rc7>
     c16: a6 16        	ldx	$16                     ; 0x16 <__rc6>
     c18: a5 12        	lda	$12                     ; 0x12 <__rc2>
     c1a: 0a           	asl
     c1b: a5 13        	lda	$13                     ; 0x13 <__rc3>
     c1d: 2a           	rol
     c1e: 85 14        	sta	$14                     ; 0x14 <__rc4>
     c20: 18           	clc
     c21: 69 81        	adc	#$81
     c23: 30 16        	bmi	$c3b <f256main+0x346>
     c25: c9 0f        	cmp	#$f
     c27: 90 21        	bcc	$c4a <f256main+0x355>
     c29: a5 13        	lda	$13                     ; 0x13 <__rc3>
     c2b: 10 03        	bpl	$c30 <f256main+0x33b>
     c2d: 4c a0 0c     	jmp	$ca0 <f256main+0x3ab>
     c30: a9 7f        	lda	#$7f
     c32: 85 13        	sta	$13                     ; 0x13 <__rc3>
     c34: a9 ff        	lda	#$ff
     c36: 85 12        	sta	$12                     ; 0x12 <__rc2>
     c38: 4c a6 0c     	jmp	$ca6 <f256main+0x3b1>
     c3b: 64 12        	stz	$12                     ; 0x12 <__rc2>
     c3d: 84 13        	sty	$13                     ; 0x13 <__rc3>
     c3f: a4 17        	ldy	$17                     ; 0x17 <__rc7>
     c41: 84 26        	sty	$26                     ; 0x26 <__rc22>
     c43: 64 15        	stz	$15                     ; 0x15 <__rc5>
     c45: 86 24        	stx	$24                     ; 0x24 <__rc20>
     c47: 4c ee 09     	jmp	$9ee <f256main+0xf9>
     c4a: 86 24        	stx	$24                     ; 0x24 <__rc20>
     c4c: a5 12        	lda	$12                     ; 0x12 <__rc2>
     c4e: 09 80        	ora	#$80
     c50: a6 14        	ldx	$14                     ; 0x14 <__rc4>
     c52: e0 87        	cpx	#$87
     c54: a2 72        	ldx	#$72
     c56: b0 10        	bcs	$c68 <f256main+0x373>
     c58: a2 7a        	ldx	#$7a
     c5a: 86 19        	stx	$19                     ; 0x19 <__rc9>
     c5c: 64 12        	stz	$12                     ; 0x12 <__rc2>
     c5e: a6 14        	ldx	$14                     ; 0x14 <__rc4>
     c60: 85 15        	sta	$15                     ; 0x15 <__rc5>
     c62: e0 86        	cpx	#$86
     c64: d0 08        	bne	$c6e <f256main+0x379>
     c66: 80 1e        	bra	$c86 <f256main+0x391>
     c68: 85 12        	sta	$12                     ; 0x12 <__rc2>
     c6a: a5 18        	lda	$18                     ; 0x18 <__rc8>
     c6c: 86 19        	stx	$19                     ; 0x19 <__rc9>
     c6e: 18           	clc
     c6f: 85 15        	sta	$15                     ; 0x15 <__rc5>
     c71: a5 19        	lda	$19                     ; 0x19 <__rc9>
     c73: 65 14        	adc	$14                     ; 0x14 <__rc4>
     c75: aa           	tax
     c76: a5 15        	lda	$15                     ; 0x15 <__rc5>
     c78: 46 12        	lsr	$12                     ; 0x12 <__rc2>
     c7a: 64 14        	stz	$14                     ; 0x14 <__rc4>
     c7c: 66 14        	ror	$14                     ; 0x14 <__rc4>
     c7e: 4a           	lsr
     c7f: 05 14        	ora	$14                     ; 0x14 <__rc4>
     c81: e8           	inx
     c82: 85 15        	sta	$15                     ; 0x15 <__rc5>
     c84: d0 f2        	bne	$c78 <f256main+0x383>
     c86: a5 13        	lda	$13                     ; 0x13 <__rc3>
     c88: 10 0d        	bpl	$c97 <f256main+0x3a2>
     c8a: a9 00        	lda	#$0
     c8c: 38           	sec
     c8d: e5 15        	sbc	$15                     ; 0x15 <__rc5>
     c8f: 85 15        	sta	$15                     ; 0x15 <__rc5>
     c91: a9 00        	lda	#$0
     c93: e5 12        	sbc	$12                     ; 0x12 <__rc2>
     c95: 85 12        	sta	$12                     ; 0x12 <__rc2>
     c97: 84 13        	sty	$13                     ; 0x13 <__rc3>
     c99: a6 17        	ldx	$17                     ; 0x17 <__rc7>
     c9b: 86 26        	stx	$26                     ; 0x26 <__rc22>
     c9d: 4c ee 09     	jmp	$9ee <f256main+0xf9>
     ca0: a9 80        	lda	#$80
     ca2: 85 13        	sta	$13                     ; 0x13 <__rc3>
     ca4: 64 12        	stz	$12                     ; 0x12 <__rc2>
     ca6: a5 17        	lda	$17                     ; 0x17 <__rc7>
     ca8: 85 26        	sta	$26                     ; 0x26 <__rc22>
     caa: a5 12        	lda	$12                     ; 0x12 <__rc2>
     cac: 85 15        	sta	$15                     ; 0x15 <__rc5>
     cae: a5 13        	lda	$13                     ; 0x13 <__rc3>
     cb0: 85 12        	sta	$12                     ; 0x12 <__rc2>
     cb2: 86 24        	stx	$24                     ; 0x24 <__rc20>
     cb4: 84 13        	sty	$13                     ; 0x13 <__rc3>
     cb6: 4c ee 09     	jmp	$9ee <f256main+0xf9>
     cb9: a2 01        	ldx	#$1
     cbb: 86 18        	stx	$18                     ; 0x18 <__rc8>
     cbd: 64 60        	stz	$60                     ; 0x60 <_col>
     cbf: 9c 14 d0     	stz	$d014                   ; 0xd014 <__heap_start+0xac92>
     cc2: 9c 15 d0     	stz	$d015                   ; 0xd015 <__heap_start+0xac93>
     cc5: 64 61        	stz	$61                     ; 0x61 <_row>
     cc7: 9c 16 d0     	stz	$d016                   ; 0xd016 <__heap_start+0xac94>
     cca: 9c 17 d0     	stz	$d017                   ; 0xd017 <__heap_start+0xac95>
     ccd: a6 01        	ldx	$1                      ; 0x1 <__data_size+0x1>
     ccf: 86 1b        	stx	$1b                     ; 0x1b <__rc11>
     cd1: a6 61        	ldx	$61                     ; 0x61 <_row>
     cd3: a9 50        	lda	#$50
     cd5: a8           	tay
     cd6: 84 19        	sty	$19                     ; 0x19 <__rc9>
     cd8: 8d 00 de     	sta	$de00                   ; 0xde00 <__heap_start+0xba7e>
     cdb: 9c 01 de     	stz	$de01                   ; 0xde01 <__heap_start+0xba7f>
     cde: 8e 02 de     	stx	$de02                   ; 0xde02 <__heap_start+0xba80>
     ce1: 9c 03 de     	stz	$de03                   ; 0xde03 <__heap_start+0xba81>
     ce4: ac 10 de     	ldy	$de10                   ; 0xde10 <__heap_start+0xba8e>
     ce7: ad 11 de     	lda	$de11                   ; 0xde11 <__heap_start+0xba8f>
     cea: ae 12 de     	ldx	$de12                   ; 0xde12 <__heap_start+0xba90>
     ced: 86 12        	stx	$12                     ; 0x12 <__rc2>
     cef: ae 13 de     	ldx	$de13                   ; 0xde13 <__heap_start+0xba91>
     cf2: 86 13        	stx	$13                     ; 0x13 <__rc3>
     cf4: 9c 08 de     	stz	$de08                   ; 0xde08 <__heap_start+0xba86>
     cf7: a2 c0        	ldx	#$c0
     cf9: 8e 09 de     	stx	$de09                   ; 0xde09 <__heap_start+0xba87>
     cfc: 9c 0a de     	stz	$de0a                   ; 0xde0a <__heap_start+0xba88>
     cff: 9c 0b de     	stz	$de0b                   ; 0xde0b <__heap_start+0xba89>
     d02: 8c 0c de     	sty	$de0c                   ; 0xde0c <__heap_start+0xba8a>
     d05: 8d 0d de     	sta	$de0d                   ; 0xde0d <__heap_start+0xba8b>
     d08: a6 12        	ldx	$12                     ; 0x12 <__rc2>
     d0a: 8e 0e de     	stx	$de0e                   ; 0xde0e <__heap_start+0xba8c>
     d0d: a6 13        	ldx	$13                     ; 0x13 <__rc3>
     d0f: 8e 0f de     	stx	$de0f                   ; 0xde0f <__heap_start+0xba8d>
     d12: ae 18 de     	ldx	$de18                   ; 0xde18 <__heap_start+0xba96>
     d15: ac 19 de     	ldy	$de19                   ; 0xde19 <__heap_start+0xba97>
     d18: ad 1a de     	lda	$de1a                   ; 0xde1a <__heap_start+0xba98>
     d1b: ad 1b de     	lda	$de1b                   ; 0xde1b <__heap_start+0xba99>
     d1e: 86 14        	stx	$14                     ; 0x14 <__rc4>
     d20: 84 15        	sty	$15                     ; 0x15 <__rc5>
     d22: a0 02        	ldy	#$2
     d24: b1 10        	lda	($10),y                 ; 0x10 <__rc0>
     d26: d0 03        	bne	$d2b <f256main+0x436>
     d28: 4c 37 10     	jmp	$1037 <f256main+0x742>
     d2b: 64 12        	stz	$12                     ; 0x12 <__rc2>
     d2d: 64 13        	stz	$13                     ; 0x13 <__rc3>
     d2f: a0 00        	ldy	#$0
     d31: b1 10        	lda	($10),y                 ; 0x10 <__rc0>
     d33: 85 1c        	sta	$1c                     ; 0x1c <__rc12>
     d35: c8           	iny
     d36: b1 10        	lda	($10),y                 ; 0x10 <__rc0>
     d38: 85 1d        	sta	$1d                     ; 0x1d <__rc13>
     d3a: 4c d3 0f     	jmp	$fd3 <f256main+0x6de>
     d3d: 8a           	txa
     d3e: f0 1b        	beq	$d5b <f256main+0x466>
     d40: b1 14        	lda	($14),y                 ; 0x14 <__rc4>
     d42: 92 14        	sta	($14)                   ; 0x14 <__rc4>
     d44: a9 ff        	lda	#$ff
     d46: c6 16        	dec	$16                     ; 0x16 <__rc6>
     d48: c5 16        	cmp	$16                     ; 0x16 <__rc6>
     d4a: f0 06        	beq	$d52 <f256main+0x45d>
     d4c: e6 14        	inc	$14                     ; 0x14 <__rc4>
     d4e: d0 ed        	bne	$d3d <f256main+0x448>
     d50: 80 05        	bra	$d57 <f256main+0x462>
     d52: ca           	dex
     d53: e6 14        	inc	$14                     ; 0x14 <__rc4>
     d55: d0 e6        	bne	$d3d <f256main+0x448>
     d57: e6 15        	inc	$15                     ; 0x15 <__rc5>
     d59: 80 e2        	bra	$d3d <f256main+0x448>
     d5b: a5 16        	lda	$16                     ; 0x16 <__rc6>
     d5d: d0 e1        	bne	$d40 <f256main+0x44b>
     d5f: a2 02        	ldx	#$2
     d61: 86 01        	stx	$1                      ; 0x1 <__data_size+0x1>
     d63: a9 09        	lda	#$9
     d65: a2 10        	ldx	#$10
     d67: 5a           	phy
     d68: a4 1c        	ldy	$1c                     ; 0x1c <__rc12>
     d6a: 84 14        	sty	$14                     ; 0x14 <__rc4>
     d6c: a4 1d        	ldy	$1d                     ; 0x1d <__rc13>
     d6e: 84 15        	sty	$15                     ; 0x15 <__rc5>
     d70: 7a           	ply
     d71: 86 16        	stx	$16                     ; 0x16 <__rc6>
     d73: aa           	tax
     d74: 80 03        	bra	$d79 <f256main+0x484>
     d76: 8a           	txa
     d77: f0 1b        	beq	$d94 <f256main+0x49f>
     d79: b1 14        	lda	($14),y                 ; 0x14 <__rc4>
     d7b: 92 14        	sta	($14)                   ; 0x14 <__rc4>
     d7d: a9 ff        	lda	#$ff
     d7f: c6 16        	dec	$16                     ; 0x16 <__rc6>
     d81: c5 16        	cmp	$16                     ; 0x16 <__rc6>
     d83: f0 06        	beq	$d8b <f256main+0x496>
     d85: e6 14        	inc	$14                     ; 0x14 <__rc4>
     d87: d0 ed        	bne	$d76 <f256main+0x481>
     d89: 80 05        	bra	$d90 <f256main+0x49b>
     d8b: ca           	dex
     d8c: e6 14        	inc	$14                     ; 0x14 <__rc4>
     d8e: d0 e6        	bne	$d76 <f256main+0x481>
     d90: e6 15        	inc	$15                     ; 0x15 <__rc5>
     d92: 80 e2        	bra	$d76 <f256main+0x481>
     d94: a5 16        	lda	$16                     ; 0x16 <__rc6>
     d96: d0 e1        	bne	$d79 <f256main+0x484>
     d98: a2 50        	ldx	#$50
     d9a: 86 19        	stx	$19                     ; 0x19 <__rc9>
     d9c: a2 02        	ldx	#$2
     d9e: 86 01        	stx	$1                      ; 0x1 <__data_size+0x1>
     da0: a0 03        	ldy	#$3
     da2: 84 01        	sty	$1                      ; 0x1 <__data_size+0x1>
     da4: a0 f0        	ldy	#$f0
     da6: 8c 10 c9     	sty	$c910                   ; 0xc910 <__heap_start+0xa58e>
     da9: 8c 11 c9     	sty	$c911                   ; 0xc911 <__heap_start+0xa58f>
     dac: 8c 12 c9     	sty	$c912                   ; 0xc912 <__heap_start+0xa590>
     daf: 8c 13 c9     	sty	$c913                   ; 0xc913 <__heap_start+0xa591>
     db2: 8c 14 c9     	sty	$c914                   ; 0xc914 <__heap_start+0xa592>
     db5: 8c 15 c9     	sty	$c915                   ; 0xc915 <__heap_start+0xa593>
     db8: 8c 16 c9     	sty	$c916                   ; 0xc916 <__heap_start+0xa594>
     dbb: 8c 17 c9     	sty	$c917                   ; 0xc917 <__heap_start+0xa595>
     dbe: 8c 18 c9     	sty	$c918                   ; 0xc918 <__heap_start+0xa596>
     dc1: 8c 19 c9     	sty	$c919                   ; 0xc919 <__heap_start+0xa597>
     dc4: 8c 1a c9     	sty	$c91a                   ; 0xc91a <__heap_start+0xa598>
     dc7: 8c 1b c9     	sty	$c91b                   ; 0xc91b <__heap_start+0xa599>
     dca: 8c 1c c9     	sty	$c91c                   ; 0xc91c <__heap_start+0xa59a>
     dcd: 8c 1d c9     	sty	$c91d                   ; 0xc91d <__heap_start+0xa59b>
     dd0: 8c 1e c9     	sty	$c91e                   ; 0xc91e <__heap_start+0xa59c>
     dd3: 8c 1f c9     	sty	$c91f                   ; 0xc91f <__heap_start+0xa59d>
     dd6: 8c 20 c9     	sty	$c920                   ; 0xc920 <__heap_start+0xa59e>
     dd9: 8c 21 c9     	sty	$c921                   ; 0xc921 <__heap_start+0xa59f>
     ddc: 8c 22 c9     	sty	$c922                   ; 0xc922 <__heap_start+0xa5a0>
     ddf: 8c 23 c9     	sty	$c923                   ; 0xc923 <__heap_start+0xa5a1>
     de2: 8c 24 c9     	sty	$c924                   ; 0xc924 <__heap_start+0xa5a2>
     de5: 8c 25 c9     	sty	$c925                   ; 0xc925 <__heap_start+0xa5a3>
     de8: 8c 26 c9     	sty	$c926                   ; 0xc926 <__heap_start+0xa5a4>
     deb: 8c 27 c9     	sty	$c927                   ; 0xc927 <__heap_start+0xa5a5>
     dee: 8c 28 c9     	sty	$c928                   ; 0xc928 <__heap_start+0xa5a6>
     df1: 8c 29 c9     	sty	$c929                   ; 0xc929 <__heap_start+0xa5a7>
     df4: 8c 2a c9     	sty	$c92a                   ; 0xc92a <__heap_start+0xa5a8>
     df7: 8c 2b c9     	sty	$c92b                   ; 0xc92b <__heap_start+0xa5a9>
     dfa: 8c 2c c9     	sty	$c92c                   ; 0xc92c <__heap_start+0xa5aa>
     dfd: 8c 2d c9     	sty	$c92d                   ; 0xc92d <__heap_start+0xa5ab>
     e00: 8c 2e c9     	sty	$c92e                   ; 0xc92e <__heap_start+0xa5ac>
     e03: 8c 2f c9     	sty	$c92f                   ; 0xc92f <__heap_start+0xa5ad>
     e06: 8c 30 c9     	sty	$c930                   ; 0xc930 <__heap_start+0xa5ae>
     e09: 8c 31 c9     	sty	$c931                   ; 0xc931 <__heap_start+0xa5af>
     e0c: 8c 32 c9     	sty	$c932                   ; 0xc932 <__heap_start+0xa5b0>
     e0f: 8c 33 c9     	sty	$c933                   ; 0xc933 <__heap_start+0xa5b1>
     e12: 8c 34 c9     	sty	$c934                   ; 0xc934 <__heap_start+0xa5b2>
     e15: 8c 35 c9     	sty	$c935                   ; 0xc935 <__heap_start+0xa5b3>
     e18: 8c 36 c9     	sty	$c936                   ; 0xc936 <__heap_start+0xa5b4>
     e1b: 8c 37 c9     	sty	$c937                   ; 0xc937 <__heap_start+0xa5b5>
     e1e: 8c 38 c9     	sty	$c938                   ; 0xc938 <__heap_start+0xa5b6>
     e21: 8c 39 c9     	sty	$c939                   ; 0xc939 <__heap_start+0xa5b7>
     e24: 8c 3a c9     	sty	$c93a                   ; 0xc93a <__heap_start+0xa5b8>
     e27: 8c 3b c9     	sty	$c93b                   ; 0xc93b <__heap_start+0xa5b9>
     e2a: 8c 3c c9     	sty	$c93c                   ; 0xc93c <__heap_start+0xa5ba>
     e2d: 8c 3d c9     	sty	$c93d                   ; 0xc93d <__heap_start+0xa5bb>
     e30: 8c 3e c9     	sty	$c93e                   ; 0xc93e <__heap_start+0xa5bc>
     e33: 8c 3f c9     	sty	$c93f                   ; 0xc93f <__heap_start+0xa5bd>
     e36: 8c 40 c9     	sty	$c940                   ; 0xc940 <__heap_start+0xa5be>
     e39: 8c 41 c9     	sty	$c941                   ; 0xc941 <__heap_start+0xa5bf>
     e3c: 8c 42 c9     	sty	$c942                   ; 0xc942 <__heap_start+0xa5c0>
     e3f: 8c 43 c9     	sty	$c943                   ; 0xc943 <__heap_start+0xa5c1>
     e42: 8c 44 c9     	sty	$c944                   ; 0xc944 <__heap_start+0xa5c2>
     e45: 8c 45 c9     	sty	$c945                   ; 0xc945 <__heap_start+0xa5c3>
     e48: 8c 46 c9     	sty	$c946                   ; 0xc946 <__heap_start+0xa5c4>
     e4b: 8c 47 c9     	sty	$c947                   ; 0xc947 <__heap_start+0xa5c5>
     e4e: 8c 48 c9     	sty	$c948                   ; 0xc948 <__heap_start+0xa5c6>
     e51: 8c 49 c9     	sty	$c949                   ; 0xc949 <__heap_start+0xa5c7>
     e54: 8c 4a c9     	sty	$c94a                   ; 0xc94a <__heap_start+0xa5c8>
     e57: 8c 4b c9     	sty	$c94b                   ; 0xc94b <__heap_start+0xa5c9>
     e5a: 8c 4c c9     	sty	$c94c                   ; 0xc94c <__heap_start+0xa5ca>
     e5d: 8c 4d c9     	sty	$c94d                   ; 0xc94d <__heap_start+0xa5cb>
     e60: 8c 4e c9     	sty	$c94e                   ; 0xc94e <__heap_start+0xa5cc>
     e63: 8c 4f c9     	sty	$c94f                   ; 0xc94f <__heap_start+0xa5cd>
     e66: 8c 50 c9     	sty	$c950                   ; 0xc950 <__heap_start+0xa5ce>
     e69: 8c 51 c9     	sty	$c951                   ; 0xc951 <__heap_start+0xa5cf>
     e6c: 8c 52 c9     	sty	$c952                   ; 0xc952 <__heap_start+0xa5d0>
     e6f: 8c 53 c9     	sty	$c953                   ; 0xc953 <__heap_start+0xa5d1>
     e72: 8c 54 c9     	sty	$c954                   ; 0xc954 <__heap_start+0xa5d2>
     e75: 8c 55 c9     	sty	$c955                   ; 0xc955 <__heap_start+0xa5d3>
     e78: 8c 56 c9     	sty	$c956                   ; 0xc956 <__heap_start+0xa5d4>
     e7b: 8c 57 c9     	sty	$c957                   ; 0xc957 <__heap_start+0xa5d5>
     e7e: 8c 58 c9     	sty	$c958                   ; 0xc958 <__heap_start+0xa5d6>
     e81: 8c 59 c9     	sty	$c959                   ; 0xc959 <__heap_start+0xa5d7>
     e84: 8c 5a c9     	sty	$c95a                   ; 0xc95a <__heap_start+0xa5d8>
     e87: 8c 5b c9     	sty	$c95b                   ; 0xc95b <__heap_start+0xa5d9>
     e8a: 8c 5c c9     	sty	$c95c                   ; 0xc95c <__heap_start+0xa5da>
     e8d: 8c 5d c9     	sty	$c95d                   ; 0xc95d <__heap_start+0xa5db>
     e90: 8c 5e c9     	sty	$c95e                   ; 0xc95e <__heap_start+0xa5dc>
     e93: 8c 5f c9     	sty	$c95f                   ; 0xc95f <__heap_start+0xa5dd>
     e96: 86 01        	stx	$1                      ; 0x1 <__data_size+0x1>
     e98: a2 20        	ldx	#$20
     e9a: 8e 10 c9     	stx	$c910                   ; 0xc910 <__heap_start+0xa58e>
     e9d: 8e 11 c9     	stx	$c911                   ; 0xc911 <__heap_start+0xa58f>
     ea0: 8e 12 c9     	stx	$c912                   ; 0xc912 <__heap_start+0xa590>
     ea3: 8e 13 c9     	stx	$c913                   ; 0xc913 <__heap_start+0xa591>
     ea6: 8e 14 c9     	stx	$c914                   ; 0xc914 <__heap_start+0xa592>
     ea9: 8e 15 c9     	stx	$c915                   ; 0xc915 <__heap_start+0xa593>
     eac: 8e 16 c9     	stx	$c916                   ; 0xc916 <__heap_start+0xa594>
     eaf: 8e 17 c9     	stx	$c917                   ; 0xc917 <__heap_start+0xa595>
     eb2: 8e 18 c9     	stx	$c918                   ; 0xc918 <__heap_start+0xa596>
     eb5: 8e 19 c9     	stx	$c919                   ; 0xc919 <__heap_start+0xa597>
     eb8: 8e 1a c9     	stx	$c91a                   ; 0xc91a <__heap_start+0xa598>
     ebb: 8e 1b c9     	stx	$c91b                   ; 0xc91b <__heap_start+0xa599>
     ebe: 8e 1c c9     	stx	$c91c                   ; 0xc91c <__heap_start+0xa59a>
     ec1: 8e 1d c9     	stx	$c91d                   ; 0xc91d <__heap_start+0xa59b>
     ec4: 8e 1e c9     	stx	$c91e                   ; 0xc91e <__heap_start+0xa59c>
     ec7: 8e 1f c9     	stx	$c91f                   ; 0xc91f <__heap_start+0xa59d>
     eca: 8e 20 c9     	stx	$c920                   ; 0xc920 <__heap_start+0xa59e>
     ecd: 8e 21 c9     	stx	$c921                   ; 0xc921 <__heap_start+0xa59f>
     ed0: 8e 22 c9     	stx	$c922                   ; 0xc922 <__heap_start+0xa5a0>
     ed3: 8e 23 c9     	stx	$c923                   ; 0xc923 <__heap_start+0xa5a1>
     ed6: 8e 24 c9     	stx	$c924                   ; 0xc924 <__heap_start+0xa5a2>
     ed9: 8e 25 c9     	stx	$c925                   ; 0xc925 <__heap_start+0xa5a3>
     edc: 8e 26 c9     	stx	$c926                   ; 0xc926 <__heap_start+0xa5a4>
     edf: 8e 27 c9     	stx	$c927                   ; 0xc927 <__heap_start+0xa5a5>
     ee2: 8e 28 c9     	stx	$c928                   ; 0xc928 <__heap_start+0xa5a6>
     ee5: 8e 29 c9     	stx	$c929                   ; 0xc929 <__heap_start+0xa5a7>
     ee8: 8e 2a c9     	stx	$c92a                   ; 0xc92a <__heap_start+0xa5a8>
     eeb: 8e 2b c9     	stx	$c92b                   ; 0xc92b <__heap_start+0xa5a9>
     eee: 8e 2c c9     	stx	$c92c                   ; 0xc92c <__heap_start+0xa5aa>
     ef1: 8e 2d c9     	stx	$c92d                   ; 0xc92d <__heap_start+0xa5ab>
     ef4: 8e 2e c9     	stx	$c92e                   ; 0xc92e <__heap_start+0xa5ac>
     ef7: 8e 2f c9     	stx	$c92f                   ; 0xc92f <__heap_start+0xa5ad>
     efa: 8e 30 c9     	stx	$c930                   ; 0xc930 <__heap_start+0xa5ae>
     efd: 8e 31 c9     	stx	$c931                   ; 0xc931 <__heap_start+0xa5af>
     f00: 8e 32 c9     	stx	$c932                   ; 0xc932 <__heap_start+0xa5b0>
     f03: 8e 33 c9     	stx	$c933                   ; 0xc933 <__heap_start+0xa5b1>
     f06: 8e 34 c9     	stx	$c934                   ; 0xc934 <__heap_start+0xa5b2>
     f09: 8e 35 c9     	stx	$c935                   ; 0xc935 <__heap_start+0xa5b3>
     f0c: 8e 36 c9     	stx	$c936                   ; 0xc936 <__heap_start+0xa5b4>
     f0f: 8e 37 c9     	stx	$c937                   ; 0xc937 <__heap_start+0xa5b5>
     f12: 8e 38 c9     	stx	$c938                   ; 0xc938 <__heap_start+0xa5b6>
     f15: 8e 39 c9     	stx	$c939                   ; 0xc939 <__heap_start+0xa5b7>
     f18: 8e 3a c9     	stx	$c93a                   ; 0xc93a <__heap_start+0xa5b8>
     f1b: 8e 3b c9     	stx	$c93b                   ; 0xc93b <__heap_start+0xa5b9>
     f1e: 8e 3c c9     	stx	$c93c                   ; 0xc93c <__heap_start+0xa5ba>
     f21: 8e 3d c9     	stx	$c93d                   ; 0xc93d <__heap_start+0xa5bb>
     f24: 8e 3e c9     	stx	$c93e                   ; 0xc93e <__heap_start+0xa5bc>
     f27: 8e 3f c9     	stx	$c93f                   ; 0xc93f <__heap_start+0xa5bd>
     f2a: 8e 40 c9     	stx	$c940                   ; 0xc940 <__heap_start+0xa5be>
     f2d: 8e 41 c9     	stx	$c941                   ; 0xc941 <__heap_start+0xa5bf>
     f30: 8e 42 c9     	stx	$c942                   ; 0xc942 <__heap_start+0xa5c0>
     f33: 8e 43 c9     	stx	$c943                   ; 0xc943 <__heap_start+0xa5c1>
     f36: 8e 44 c9     	stx	$c944                   ; 0xc944 <__heap_start+0xa5c2>
     f39: 8e 45 c9     	stx	$c945                   ; 0xc945 <__heap_start+0xa5c3>
     f3c: 8e 46 c9     	stx	$c946                   ; 0xc946 <__heap_start+0xa5c4>
     f3f: 8e 47 c9     	stx	$c947                   ; 0xc947 <__heap_start+0xa5c5>
     f42: 8e 48 c9     	stx	$c948                   ; 0xc948 <__heap_start+0xa5c6>
     f45: 8e 49 c9     	stx	$c949                   ; 0xc949 <__heap_start+0xa5c7>
     f48: 8e 4a c9     	stx	$c94a                   ; 0xc94a <__heap_start+0xa5c8>
     f4b: 8e 4b c9     	stx	$c94b                   ; 0xc94b <__heap_start+0xa5c9>
     f4e: 8e 4c c9     	stx	$c94c                   ; 0xc94c <__heap_start+0xa5ca>
     f51: 8e 4d c9     	stx	$c94d                   ; 0xc94d <__heap_start+0xa5cb>
     f54: 8e 4e c9     	stx	$c94e                   ; 0xc94e <__heap_start+0xa5cc>
     f57: 8e 4f c9     	stx	$c94f                   ; 0xc94f <__heap_start+0xa5cd>
     f5a: 8e 50 c9     	stx	$c950                   ; 0xc950 <__heap_start+0xa5ce>
     f5d: 8e 51 c9     	stx	$c951                   ; 0xc951 <__heap_start+0xa5cf>
     f60: 8e 52 c9     	stx	$c952                   ; 0xc952 <__heap_start+0xa5d0>
     f63: 8e 53 c9     	stx	$c953                   ; 0xc953 <__heap_start+0xa5d1>
     f66: 8e 54 c9     	stx	$c954                   ; 0xc954 <__heap_start+0xa5d2>
     f69: 8e 55 c9     	stx	$c955                   ; 0xc955 <__heap_start+0xa5d3>
     f6c: 8e 56 c9     	stx	$c956                   ; 0xc956 <__heap_start+0xa5d4>
     f6f: 8e 57 c9     	stx	$c957                   ; 0xc957 <__heap_start+0xa5d5>
     f72: 8e 58 c9     	stx	$c958                   ; 0xc958 <__heap_start+0xa5d6>
     f75: 8e 59 c9     	stx	$c959                   ; 0xc959 <__heap_start+0xa5d7>
     f78: 8e 5a c9     	stx	$c95a                   ; 0xc95a <__heap_start+0xa5d8>
     f7b: 8e 5b c9     	stx	$c95b                   ; 0xc95b <__heap_start+0xa5d9>
     f7e: 8e 5c c9     	stx	$c95c                   ; 0xc95c <__heap_start+0xa5da>
     f81: 8e 5d c9     	stx	$c95d                   ; 0xc95d <__heap_start+0xa5db>
     f84: 8e 5e c9     	stx	$c95e                   ; 0xc95e <__heap_start+0xa5dc>
     f87: 8e 5f c9     	stx	$c95f                   ; 0xc95f <__heap_start+0xa5dd>
     f8a: c6 61        	dec	$61                     ; 0x61 <_row>
     f8c: 9c 08 de     	stz	$de08                   ; 0xde08 <__heap_start+0xba86>
     f8f: a2 c0        	ldx	#$c0
     f91: 8e 09 de     	stx	$de09                   ; 0xde09 <__heap_start+0xba87>
     f94: 9c 0a de     	stz	$de0a                   ; 0xde0a <__heap_start+0xba88>
     f97: 9c 0b de     	stz	$de0b                   ; 0xde0b <__heap_start+0xba89>
     f9a: a2 1d        	ldx	#$1d
     f9c: 8e 0c de     	stx	$de0c                   ; 0xde0c <__heap_start+0xba8a>
     f9f: 9c 0d de     	stz	$de0d                   ; 0xde0d <__heap_start+0xba8b>
     fa2: 9c 0e de     	stz	$de0e                   ; 0xde0e <__heap_start+0xba8c>
     fa5: 9c 0f de     	stz	$de0f                   ; 0xde0f <__heap_start+0xba8d>
     fa8: ae 18 de     	ldx	$de18                   ; 0xde18 <__heap_start+0xba96>
     fab: ac 19 de     	ldy	$de19                   ; 0xde19 <__heap_start+0xba97>
     fae: ad 1a de     	lda	$de1a                   ; 0xde1a <__heap_start+0xba98>
     fb1: 86 14        	stx	$14                     ; 0x14 <__rc4>
     fb3: ae 1b de     	ldx	$de1b                   ; 0xde1b <__heap_start+0xba99>
     fb6: 84 15        	sty	$15                     ; 0x15 <__rc5>
     fb8: e6 12        	inc	$12                     ; 0x12 <__rc2>
     fba: d0 02        	bne	$fbe <f256main+0x6c9>
     fbc: e6 13        	inc	$13                     ; 0x13 <__rc3>
     fbe: 80 13        	bra	$fd3 <f256main+0x6de>
     fc0: a5 14        	lda	$14                     ; 0x14 <__rc4>
     fc2: 18           	clc
     fc3: 69 50        	adc	#$50
     fc5: 85 14        	sta	$14                     ; 0x14 <__rc4>
     fc7: a5 15        	lda	$15                     ; 0x15 <__rc5>
     fc9: 69 00        	adc	#$0
     fcb: 85 15        	sta	$15                     ; 0x15 <__rc5>
     fcd: e6 12        	inc	$12                     ; 0x12 <__rc2>
     fcf: d0 02        	bne	$fd3 <f256main+0x6de>
     fd1: e6 13        	inc	$13                     ; 0x13 <__rc3>
     fd3: a9 27        	lda	#$27
     fd5: 18           	clc
     fd6: 65 12        	adc	$12                     ; 0x12 <__rc2>
     fd8: 85 16        	sta	$16                     ; 0x16 <__rc6>
     fda: a9 23        	lda	#$23
     fdc: 65 13        	adc	$13                     ; 0x13 <__rc3>
     fde: 85 17        	sta	$17                     ; 0x17 <__rc7>
     fe0: b2 16        	lda	($16)                   ; 0x16 <__rc6>
     fe2: c9 0a        	cmp	#$a
     fe4: f0 25        	beq	$100b <f256main+0x716>
     fe6: c9 0d        	cmp	#$d
     fe8: f0 21        	beq	$100b <f256main+0x716>
     fea: aa           	tax
     feb: f0 43        	beq	$1030 <f256main+0x73b>
     fed: a2 03        	ldx	#$3
     fef: 86 01        	stx	$1                      ; 0x1 <__data_size+0x1>
     ff1: a4 60        	ldy	$60                     ; 0x60 <_col>
     ff3: 85 16        	sta	$16                     ; 0x16 <__rc6>
     ff5: a9 f0        	lda	#$f0
     ff7: 91 14        	sta	($14),y                 ; 0x14 <__rc4>
     ff9: ca           	dex
     ffa: 86 01        	stx	$1                      ; 0x1 <__data_size+0x1>
     ffc: a4 60        	ldy	$60                     ; 0x60 <_col>
     ffe: a5 16        	lda	$16                     ; 0x16 <__rc6>
    1000: 91 14        	sta	($14),y                 ; 0x14 <__rc4>
    1002: a6 60        	ldx	$60                     ; 0x60 <_col>
    1004: e8           	inx
    1005: e6 60        	inc	$60                     ; 0x60 <_col>
    1007: e0 50        	cpx	#$50
    1009: d0 c2        	bne	$fcd <f256main+0x6d8>
    100b: 64 60        	stz	$60                     ; 0x60 <_col>
    100d: a6 61        	ldx	$61                     ; 0x61 <_row>
    100f: e8           	inx
    1010: e6 61        	inc	$61                     ; 0x61 <_row>
    1012: e0 1e        	cpx	#$1e
    1014: f0 03        	beq	$1019 <f256main+0x724>
    1016: 4c c0 0f     	jmp	$fc0 <f256main+0x6cb>
    1019: a2 03        	ldx	#$3
    101b: 86 01        	stx	$1                      ; 0x1 <__data_size+0x1>
    101d: a2 09        	ldx	#$9
    101f: a0 10        	ldy	#$10
    1021: a5 1c        	lda	$1c                     ; 0x1c <__rc12>
    1023: 85 14        	sta	$14                     ; 0x14 <__rc4>
    1025: a5 1d        	lda	$1d                     ; 0x1d <__rc13>
    1027: 85 15        	sta	$15                     ; 0x15 <__rc5>
    1029: 84 16        	sty	$16                     ; 0x16 <__rc6>
    102b: a4 19        	ldy	$19                     ; 0x19 <__rc9>
    102d: 4c 40 0d     	jmp	$d40 <f256main+0x44b>
    1030: 64 12        	stz	$12                     ; 0x12 <__rc2>
    1032: a9 00        	lda	#$0
    1034: 4c 3f 13     	jmp	$133f <f256main+0xa4a>
    1037: 64 12        	stz	$12                     ; 0x12 <__rc2>
    1039: 64 13        	stz	$13                     ; 0x13 <__rc3>
    103b: a0 00        	ldy	#$0
    103d: b1 10        	lda	($10),y                 ; 0x10 <__rc0>
    103f: 85 1c        	sta	$1c                     ; 0x1c <__rc12>
    1041: c8           	iny
    1042: b1 10        	lda	($10),y                 ; 0x10 <__rc0>
    1044: 85 1d        	sta	$1d                     ; 0x1d <__rc13>
    1046: 4c df 12     	jmp	$12df <f256main+0x9ea>
    1049: 8a           	txa
    104a: f0 1b        	beq	$1067 <f256main+0x772>
    104c: b1 14        	lda	($14),y                 ; 0x14 <__rc4>
    104e: 92 14        	sta	($14)                   ; 0x14 <__rc4>
    1050: a9 ff        	lda	#$ff
    1052: c6 16        	dec	$16                     ; 0x16 <__rc6>
    1054: c5 16        	cmp	$16                     ; 0x16 <__rc6>
    1056: f0 06        	beq	$105e <f256main+0x769>
    1058: e6 14        	inc	$14                     ; 0x14 <__rc4>
    105a: d0 ed        	bne	$1049 <f256main+0x754>
    105c: 80 05        	bra	$1063 <f256main+0x76e>
    105e: ca           	dex
    105f: e6 14        	inc	$14                     ; 0x14 <__rc4>
    1061: d0 e6        	bne	$1049 <f256main+0x754>
    1063: e6 15        	inc	$15                     ; 0x15 <__rc5>
    1065: 80 e2        	bra	$1049 <f256main+0x754>
    1067: a5 16        	lda	$16                     ; 0x16 <__rc6>
    1069: d0 e1        	bne	$104c <f256main+0x757>
    106b: a2 02        	ldx	#$2
    106d: 86 01        	stx	$1                      ; 0x1 <__data_size+0x1>
    106f: a9 09        	lda	#$9
    1071: a2 10        	ldx	#$10
    1073: 5a           	phy
    1074: a4 1c        	ldy	$1c                     ; 0x1c <__rc12>
    1076: 84 14        	sty	$14                     ; 0x14 <__rc4>
    1078: a4 1d        	ldy	$1d                     ; 0x1d <__rc13>
    107a: 84 15        	sty	$15                     ; 0x15 <__rc5>
    107c: 7a           	ply
    107d: 86 16        	stx	$16                     ; 0x16 <__rc6>
    107f: aa           	tax
    1080: 80 03        	bra	$1085 <f256main+0x790>
    1082: 8a           	txa
    1083: f0 1b        	beq	$10a0 <f256main+0x7ab>
    1085: b1 14        	lda	($14),y                 ; 0x14 <__rc4>
    1087: 92 14        	sta	($14)                   ; 0x14 <__rc4>
    1089: a9 ff        	lda	#$ff
    108b: c6 16        	dec	$16                     ; 0x16 <__rc6>
    108d: c5 16        	cmp	$16                     ; 0x16 <__rc6>
    108f: f0 06        	beq	$1097 <f256main+0x7a2>
    1091: e6 14        	inc	$14                     ; 0x14 <__rc4>
    1093: d0 ed        	bne	$1082 <f256main+0x78d>
    1095: 80 05        	bra	$109c <f256main+0x7a7>
    1097: ca           	dex
    1098: e6 14        	inc	$14                     ; 0x14 <__rc4>
    109a: d0 e6        	bne	$1082 <f256main+0x78d>
    109c: e6 15        	inc	$15                     ; 0x15 <__rc5>
    109e: 80 e2        	bra	$1082 <f256main+0x78d>
    10a0: a5 16        	lda	$16                     ; 0x16 <__rc6>
    10a2: d0 e1        	bne	$1085 <f256main+0x790>
    10a4: a2 50        	ldx	#$50
    10a6: 86 19        	stx	$19                     ; 0x19 <__rc9>
    10a8: a2 02        	ldx	#$2
    10aa: 86 01        	stx	$1                      ; 0x1 <__data_size+0x1>
    10ac: a0 03        	ldy	#$3
    10ae: 84 01        	sty	$1                      ; 0x1 <__data_size+0x1>
    10b0: a0 f0        	ldy	#$f0
    10b2: 8c 10 c9     	sty	$c910                   ; 0xc910 <__heap_start+0xa58e>
    10b5: 8c 11 c9     	sty	$c911                   ; 0xc911 <__heap_start+0xa58f>
    10b8: 8c 12 c9     	sty	$c912                   ; 0xc912 <__heap_start+0xa590>
    10bb: 8c 13 c9     	sty	$c913                   ; 0xc913 <__heap_start+0xa591>
    10be: 8c 14 c9     	sty	$c914                   ; 0xc914 <__heap_start+0xa592>
    10c1: 8c 15 c9     	sty	$c915                   ; 0xc915 <__heap_start+0xa593>
    10c4: 8c 16 c9     	sty	$c916                   ; 0xc916 <__heap_start+0xa594>
    10c7: 8c 17 c9     	sty	$c917                   ; 0xc917 <__heap_start+0xa595>
    10ca: 8c 18 c9     	sty	$c918                   ; 0xc918 <__heap_start+0xa596>
    10cd: 8c 19 c9     	sty	$c919                   ; 0xc919 <__heap_start+0xa597>
    10d0: 8c 1a c9     	sty	$c91a                   ; 0xc91a <__heap_start+0xa598>
    10d3: 8c 1b c9     	sty	$c91b                   ; 0xc91b <__heap_start+0xa599>
    10d6: 8c 1c c9     	sty	$c91c                   ; 0xc91c <__heap_start+0xa59a>
    10d9: 8c 1d c9     	sty	$c91d                   ; 0xc91d <__heap_start+0xa59b>
    10dc: 8c 1e c9     	sty	$c91e                   ; 0xc91e <__heap_start+0xa59c>
    10df: 8c 1f c9     	sty	$c91f                   ; 0xc91f <__heap_start+0xa59d>
    10e2: 8c 20 c9     	sty	$c920                   ; 0xc920 <__heap_start+0xa59e>
    10e5: 8c 21 c9     	sty	$c921                   ; 0xc921 <__heap_start+0xa59f>
    10e8: 8c 22 c9     	sty	$c922                   ; 0xc922 <__heap_start+0xa5a0>
    10eb: 8c 23 c9     	sty	$c923                   ; 0xc923 <__heap_start+0xa5a1>
    10ee: 8c 24 c9     	sty	$c924                   ; 0xc924 <__heap_start+0xa5a2>
    10f1: 8c 25 c9     	sty	$c925                   ; 0xc925 <__heap_start+0xa5a3>
    10f4: 8c 26 c9     	sty	$c926                   ; 0xc926 <__heap_start+0xa5a4>
    10f7: 8c 27 c9     	sty	$c927                   ; 0xc927 <__heap_start+0xa5a5>
    10fa: 8c 28 c9     	sty	$c928                   ; 0xc928 <__heap_start+0xa5a6>
    10fd: 8c 29 c9     	sty	$c929                   ; 0xc929 <__heap_start+0xa5a7>
    1100: 8c 2a c9     	sty	$c92a                   ; 0xc92a <__heap_start+0xa5a8>
    1103: 8c 2b c9     	sty	$c92b                   ; 0xc92b <__heap_start+0xa5a9>
    1106: 8c 2c c9     	sty	$c92c                   ; 0xc92c <__heap_start+0xa5aa>
    1109: 8c 2d c9     	sty	$c92d                   ; 0xc92d <__heap_start+0xa5ab>
    110c: 8c 2e c9     	sty	$c92e                   ; 0xc92e <__heap_start+0xa5ac>
    110f: 8c 2f c9     	sty	$c92f                   ; 0xc92f <__heap_start+0xa5ad>
    1112: 8c 30 c9     	sty	$c930                   ; 0xc930 <__heap_start+0xa5ae>
    1115: 8c 31 c9     	sty	$c931                   ; 0xc931 <__heap_start+0xa5af>
    1118: 8c 32 c9     	sty	$c932                   ; 0xc932 <__heap_start+0xa5b0>
    111b: 8c 33 c9     	sty	$c933                   ; 0xc933 <__heap_start+0xa5b1>
    111e: 8c 34 c9     	sty	$c934                   ; 0xc934 <__heap_start+0xa5b2>
    1121: 8c 35 c9     	sty	$c935                   ; 0xc935 <__heap_start+0xa5b3>
    1124: 8c 36 c9     	sty	$c936                   ; 0xc936 <__heap_start+0xa5b4>
    1127: 8c 37 c9     	sty	$c937                   ; 0xc937 <__heap_start+0xa5b5>
    112a: 8c 38 c9     	sty	$c938                   ; 0xc938 <__heap_start+0xa5b6>
    112d: 8c 39 c9     	sty	$c939                   ; 0xc939 <__heap_start+0xa5b7>
    1130: 8c 3a c9     	sty	$c93a                   ; 0xc93a <__heap_start+0xa5b8>
    1133: 8c 3b c9     	sty	$c93b                   ; 0xc93b <__heap_start+0xa5b9>
    1136: 8c 3c c9     	sty	$c93c                   ; 0xc93c <__heap_start+0xa5ba>
    1139: 8c 3d c9     	sty	$c93d                   ; 0xc93d <__heap_start+0xa5bb>
    113c: 8c 3e c9     	sty	$c93e                   ; 0xc93e <__heap_start+0xa5bc>
    113f: 8c 3f c9     	sty	$c93f                   ; 0xc93f <__heap_start+0xa5bd>
    1142: 8c 40 c9     	sty	$c940                   ; 0xc940 <__heap_start+0xa5be>
    1145: 8c 41 c9     	sty	$c941                   ; 0xc941 <__heap_start+0xa5bf>
    1148: 8c 42 c9     	sty	$c942                   ; 0xc942 <__heap_start+0xa5c0>
    114b: 8c 43 c9     	sty	$c943                   ; 0xc943 <__heap_start+0xa5c1>
    114e: 8c 44 c9     	sty	$c944                   ; 0xc944 <__heap_start+0xa5c2>
    1151: 8c 45 c9     	sty	$c945                   ; 0xc945 <__heap_start+0xa5c3>
    1154: 8c 46 c9     	sty	$c946                   ; 0xc946 <__heap_start+0xa5c4>
    1157: 8c 47 c9     	sty	$c947                   ; 0xc947 <__heap_start+0xa5c5>
    115a: 8c 48 c9     	sty	$c948                   ; 0xc948 <__heap_start+0xa5c6>
    115d: 8c 49 c9     	sty	$c949                   ; 0xc949 <__heap_start+0xa5c7>
    1160: 8c 4a c9     	sty	$c94a                   ; 0xc94a <__heap_start+0xa5c8>
    1163: 8c 4b c9     	sty	$c94b                   ; 0xc94b <__heap_start+0xa5c9>
    1166: 8c 4c c9     	sty	$c94c                   ; 0xc94c <__heap_start+0xa5ca>
    1169: 8c 4d c9     	sty	$c94d                   ; 0xc94d <__heap_start+0xa5cb>
    116c: 8c 4e c9     	sty	$c94e                   ; 0xc94e <__heap_start+0xa5cc>
    116f: 8c 4f c9     	sty	$c94f                   ; 0xc94f <__heap_start+0xa5cd>
    1172: 8c 50 c9     	sty	$c950                   ; 0xc950 <__heap_start+0xa5ce>
    1175: 8c 51 c9     	sty	$c951                   ; 0xc951 <__heap_start+0xa5cf>
    1178: 8c 52 c9     	sty	$c952                   ; 0xc952 <__heap_start+0xa5d0>
    117b: 8c 53 c9     	sty	$c953                   ; 0xc953 <__heap_start+0xa5d1>
    117e: 8c 54 c9     	sty	$c954                   ; 0xc954 <__heap_start+0xa5d2>
    1181: 8c 55 c9     	sty	$c955                   ; 0xc955 <__heap_start+0xa5d3>
    1184: 8c 56 c9     	sty	$c956                   ; 0xc956 <__heap_start+0xa5d4>
    1187: 8c 57 c9     	sty	$c957                   ; 0xc957 <__heap_start+0xa5d5>
    118a: 8c 58 c9     	sty	$c958                   ; 0xc958 <__heap_start+0xa5d6>
    118d: 8c 59 c9     	sty	$c959                   ; 0xc959 <__heap_start+0xa5d7>
    1190: 8c 5a c9     	sty	$c95a                   ; 0xc95a <__heap_start+0xa5d8>
    1193: 8c 5b c9     	sty	$c95b                   ; 0xc95b <__heap_start+0xa5d9>
    1196: 8c 5c c9     	sty	$c95c                   ; 0xc95c <__heap_start+0xa5da>
    1199: 8c 5d c9     	sty	$c95d                   ; 0xc95d <__heap_start+0xa5db>
    119c: 8c 5e c9     	sty	$c95e                   ; 0xc95e <__heap_start+0xa5dc>
    119f: 8c 5f c9     	sty	$c95f                   ; 0xc95f <__heap_start+0xa5dd>
    11a2: 86 01        	stx	$1                      ; 0x1 <__data_size+0x1>
    11a4: a2 20        	ldx	#$20
    11a6: 8e 10 c9     	stx	$c910                   ; 0xc910 <__heap_start+0xa58e>
    11a9: 8e 11 c9     	stx	$c911                   ; 0xc911 <__heap_start+0xa58f>
    11ac: 8e 12 c9     	stx	$c912                   ; 0xc912 <__heap_start+0xa590>
    11af: 8e 13 c9     	stx	$c913                   ; 0xc913 <__heap_start+0xa591>
    11b2: 8e 14 c9     	stx	$c914                   ; 0xc914 <__heap_start+0xa592>
    11b5: 8e 15 c9     	stx	$c915                   ; 0xc915 <__heap_start+0xa593>
    11b8: 8e 16 c9     	stx	$c916                   ; 0xc916 <__heap_start+0xa594>
    11bb: 8e 17 c9     	stx	$c917                   ; 0xc917 <__heap_start+0xa595>
    11be: 8e 18 c9     	stx	$c918                   ; 0xc918 <__heap_start+0xa596>
    11c1: 8e 19 c9     	stx	$c919                   ; 0xc919 <__heap_start+0xa597>
    11c4: 8e 1a c9     	stx	$c91a                   ; 0xc91a <__heap_start+0xa598>
    11c7: 8e 1b c9     	stx	$c91b                   ; 0xc91b <__heap_start+0xa599>
    11ca: 8e 1c c9     	stx	$c91c                   ; 0xc91c <__heap_start+0xa59a>
    11cd: 8e 1d c9     	stx	$c91d                   ; 0xc91d <__heap_start+0xa59b>
    11d0: 8e 1e c9     	stx	$c91e                   ; 0xc91e <__heap_start+0xa59c>
    11d3: 8e 1f c9     	stx	$c91f                   ; 0xc91f <__heap_start+0xa59d>
    11d6: 8e 20 c9     	stx	$c920                   ; 0xc920 <__heap_start+0xa59e>
    11d9: 8e 21 c9     	stx	$c921                   ; 0xc921 <__heap_start+0xa59f>
    11dc: 8e 22 c9     	stx	$c922                   ; 0xc922 <__heap_start+0xa5a0>
    11df: 8e 23 c9     	stx	$c923                   ; 0xc923 <__heap_start+0xa5a1>
    11e2: 8e 24 c9     	stx	$c924                   ; 0xc924 <__heap_start+0xa5a2>
    11e5: 8e 25 c9     	stx	$c925                   ; 0xc925 <__heap_start+0xa5a3>
    11e8: 8e 26 c9     	stx	$c926                   ; 0xc926 <__heap_start+0xa5a4>
    11eb: 8e 27 c9     	stx	$c927                   ; 0xc927 <__heap_start+0xa5a5>
    11ee: 8e 28 c9     	stx	$c928                   ; 0xc928 <__heap_start+0xa5a6>
    11f1: 8e 29 c9     	stx	$c929                   ; 0xc929 <__heap_start+0xa5a7>
    11f4: 8e 2a c9     	stx	$c92a                   ; 0xc92a <__heap_start+0xa5a8>
    11f7: 8e 2b c9     	stx	$c92b                   ; 0xc92b <__heap_start+0xa5a9>
    11fa: 8e 2c c9     	stx	$c92c                   ; 0xc92c <__heap_start+0xa5aa>
    11fd: 8e 2d c9     	stx	$c92d                   ; 0xc92d <__heap_start+0xa5ab>
    1200: 8e 2e c9     	stx	$c92e                   ; 0xc92e <__heap_start+0xa5ac>
    1203: 8e 2f c9     	stx	$c92f                   ; 0xc92f <__heap_start+0xa5ad>
    1206: 8e 30 c9     	stx	$c930                   ; 0xc930 <__heap_start+0xa5ae>
    1209: 8e 31 c9     	stx	$c931                   ; 0xc931 <__heap_start+0xa5af>
    120c: 8e 32 c9     	stx	$c932                   ; 0xc932 <__heap_start+0xa5b0>
    120f: 8e 33 c9     	stx	$c933                   ; 0xc933 <__heap_start+0xa5b1>
    1212: 8e 34 c9     	stx	$c934                   ; 0xc934 <__heap_start+0xa5b2>
    1215: 8e 35 c9     	stx	$c935                   ; 0xc935 <__heap_start+0xa5b3>
    1218: 8e 36 c9     	stx	$c936                   ; 0xc936 <__heap_start+0xa5b4>
    121b: 8e 37 c9     	stx	$c937                   ; 0xc937 <__heap_start+0xa5b5>
    121e: 8e 38 c9     	stx	$c938                   ; 0xc938 <__heap_start+0xa5b6>
    1221: 8e 39 c9     	stx	$c939                   ; 0xc939 <__heap_start+0xa5b7>
    1224: 8e 3a c9     	stx	$c93a                   ; 0xc93a <__heap_start+0xa5b8>
    1227: 8e 3b c9     	stx	$c93b                   ; 0xc93b <__heap_start+0xa5b9>
    122a: 8e 3c c9     	stx	$c93c                   ; 0xc93c <__heap_start+0xa5ba>
    122d: 8e 3d c9     	stx	$c93d                   ; 0xc93d <__heap_start+0xa5bb>
    1230: 8e 3e c9     	stx	$c93e                   ; 0xc93e <__heap_start+0xa5bc>
    1233: 8e 3f c9     	stx	$c93f                   ; 0xc93f <__heap_start+0xa5bd>
    1236: 8e 40 c9     	stx	$c940                   ; 0xc940 <__heap_start+0xa5be>
    1239: 8e 41 c9     	stx	$c941                   ; 0xc941 <__heap_start+0xa5bf>
    123c: 8e 42 c9     	stx	$c942                   ; 0xc942 <__heap_start+0xa5c0>
    123f: 8e 43 c9     	stx	$c943                   ; 0xc943 <__heap_start+0xa5c1>
    1242: 8e 44 c9     	stx	$c944                   ; 0xc944 <__heap_start+0xa5c2>
    1245: 8e 45 c9     	stx	$c945                   ; 0xc945 <__heap_start+0xa5c3>
    1248: 8e 46 c9     	stx	$c946                   ; 0xc946 <__heap_start+0xa5c4>
    124b: 8e 47 c9     	stx	$c947                   ; 0xc947 <__heap_start+0xa5c5>
    124e: 8e 48 c9     	stx	$c948                   ; 0xc948 <__heap_start+0xa5c6>
    1251: 8e 49 c9     	stx	$c949                   ; 0xc949 <__heap_start+0xa5c7>
    1254: 8e 4a c9     	stx	$c94a                   ; 0xc94a <__heap_start+0xa5c8>
    1257: 8e 4b c9     	stx	$c94b                   ; 0xc94b <__heap_start+0xa5c9>
    125a: 8e 4c c9     	stx	$c94c                   ; 0xc94c <__heap_start+0xa5ca>
    125d: 8e 4d c9     	stx	$c94d                   ; 0xc94d <__heap_start+0xa5cb>
    1260: 8e 4e c9     	stx	$c94e                   ; 0xc94e <__heap_start+0xa5cc>
    1263: 8e 4f c9     	stx	$c94f                   ; 0xc94f <__heap_start+0xa5cd>
    1266: 8e 50 c9     	stx	$c950                   ; 0xc950 <__heap_start+0xa5ce>
    1269: 8e 51 c9     	stx	$c951                   ; 0xc951 <__heap_start+0xa5cf>
    126c: 8e 52 c9     	stx	$c952                   ; 0xc952 <__heap_start+0xa5d0>
    126f: 8e 53 c9     	stx	$c953                   ; 0xc953 <__heap_start+0xa5d1>
    1272: 8e 54 c9     	stx	$c954                   ; 0xc954 <__heap_start+0xa5d2>
    1275: 8e 55 c9     	stx	$c955                   ; 0xc955 <__heap_start+0xa5d3>
    1278: 8e 56 c9     	stx	$c956                   ; 0xc956 <__heap_start+0xa5d4>
    127b: 8e 57 c9     	stx	$c957                   ; 0xc957 <__heap_start+0xa5d5>
    127e: 8e 58 c9     	stx	$c958                   ; 0xc958 <__heap_start+0xa5d6>
    1281: 8e 59 c9     	stx	$c959                   ; 0xc959 <__heap_start+0xa5d7>
    1284: 8e 5a c9     	stx	$c95a                   ; 0xc95a <__heap_start+0xa5d8>
    1287: 8e 5b c9     	stx	$c95b                   ; 0xc95b <__heap_start+0xa5d9>
    128a: 8e 5c c9     	stx	$c95c                   ; 0xc95c <__heap_start+0xa5da>
    128d: 8e 5d c9     	stx	$c95d                   ; 0xc95d <__heap_start+0xa5db>
    1290: 8e 5e c9     	stx	$c95e                   ; 0xc95e <__heap_start+0xa5dc>
    1293: 8e 5f c9     	stx	$c95f                   ; 0xc95f <__heap_start+0xa5dd>
    1296: c6 61        	dec	$61                     ; 0x61 <_row>
    1298: 9c 08 de     	stz	$de08                   ; 0xde08 <__heap_start+0xba86>
    129b: a2 c0        	ldx	#$c0
    129d: 8e 09 de     	stx	$de09                   ; 0xde09 <__heap_start+0xba87>
    12a0: 9c 0a de     	stz	$de0a                   ; 0xde0a <__heap_start+0xba88>
    12a3: 9c 0b de     	stz	$de0b                   ; 0xde0b <__heap_start+0xba89>
    12a6: a2 1d        	ldx	#$1d
    12a8: 8e 0c de     	stx	$de0c                   ; 0xde0c <__heap_start+0xba8a>
    12ab: 9c 0d de     	stz	$de0d                   ; 0xde0d <__heap_start+0xba8b>
    12ae: 9c 0e de     	stz	$de0e                   ; 0xde0e <__heap_start+0xba8c>
    12b1: 9c 0f de     	stz	$de0f                   ; 0xde0f <__heap_start+0xba8d>
    12b4: ae 18 de     	ldx	$de18                   ; 0xde18 <__heap_start+0xba96>
    12b7: ac 19 de     	ldy	$de19                   ; 0xde19 <__heap_start+0xba97>
    12ba: ad 1a de     	lda	$de1a                   ; 0xde1a <__heap_start+0xba98>
    12bd: 86 14        	stx	$14                     ; 0x14 <__rc4>
    12bf: ae 1b de     	ldx	$de1b                   ; 0xde1b <__heap_start+0xba99>
    12c2: 84 15        	sty	$15                     ; 0x15 <__rc5>
    12c4: e6 12        	inc	$12                     ; 0x12 <__rc2>
    12c6: d0 02        	bne	$12ca <f256main+0x9d5>
    12c8: e6 13        	inc	$13                     ; 0x13 <__rc3>
    12ca: 80 13        	bra	$12df <f256main+0x9ea>
    12cc: a5 14        	lda	$14                     ; 0x14 <__rc4>
    12ce: 18           	clc
    12cf: 69 50        	adc	#$50
    12d1: 85 14        	sta	$14                     ; 0x14 <__rc4>
    12d3: a5 15        	lda	$15                     ; 0x15 <__rc5>
    12d5: 69 00        	adc	#$0
    12d7: 85 15        	sta	$15                     ; 0x15 <__rc5>
    12d9: e6 12        	inc	$12                     ; 0x12 <__rc2>
    12db: d0 02        	bne	$12df <f256main+0x9ea>
    12dd: e6 13        	inc	$13                     ; 0x13 <__rc3>
    12df: a9 53        	lda	#$53
    12e1: 18           	clc
    12e2: 65 12        	adc	$12                     ; 0x12 <__rc2>
    12e4: 85 16        	sta	$16                     ; 0x16 <__rc6>
    12e6: a9 23        	lda	#$23
    12e8: 65 13        	adc	$13                     ; 0x13 <__rc3>
    12ea: 85 17        	sta	$17                     ; 0x17 <__rc7>
    12ec: b2 16        	lda	($16)                   ; 0x16 <__rc6>
    12ee: c9 0a        	cmp	#$a
    12f0: f0 25        	beq	$1317 <f256main+0xa22>
    12f2: c9 0d        	cmp	#$d
    12f4: f0 21        	beq	$1317 <f256main+0xa22>
    12f6: aa           	tax
    12f7: f0 43        	beq	$133c <f256main+0xa47>
    12f9: a2 03        	ldx	#$3
    12fb: 86 01        	stx	$1                      ; 0x1 <__data_size+0x1>
    12fd: a4 60        	ldy	$60                     ; 0x60 <_col>
    12ff: 85 16        	sta	$16                     ; 0x16 <__rc6>
    1301: a9 f0        	lda	#$f0
    1303: 91 14        	sta	($14),y                 ; 0x14 <__rc4>
    1305: ca           	dex
    1306: 86 01        	stx	$1                      ; 0x1 <__data_size+0x1>
    1308: a4 60        	ldy	$60                     ; 0x60 <_col>
    130a: a5 16        	lda	$16                     ; 0x16 <__rc6>
    130c: 91 14        	sta	($14),y                 ; 0x14 <__rc4>
    130e: a6 60        	ldx	$60                     ; 0x60 <_col>
    1310: e8           	inx
    1311: e6 60        	inc	$60                     ; 0x60 <_col>
    1313: e0 50        	cpx	#$50
    1315: d0 c2        	bne	$12d9 <f256main+0x9e4>
    1317: 64 60        	stz	$60                     ; 0x60 <_col>
    1319: a6 61        	ldx	$61                     ; 0x61 <_row>
    131b: e8           	inx
    131c: e6 61        	inc	$61                     ; 0x61 <_row>
    131e: e0 1e        	cpx	#$1e
    1320: f0 03        	beq	$1325 <f256main+0xa30>
    1322: 4c cc 12     	jmp	$12cc <f256main+0x9d7>
    1325: a2 03        	ldx	#$3
    1327: 86 01        	stx	$1                      ; 0x1 <__data_size+0x1>
    1329: a2 09        	ldx	#$9
    132b: a0 10        	ldy	#$10
    132d: a5 1c        	lda	$1c                     ; 0x1c <__rc12>
    132f: 85 14        	sta	$14                     ; 0x14 <__rc4>
    1331: a5 1d        	lda	$1d                     ; 0x1d <__rc13>
    1333: 85 15        	sta	$15                     ; 0x15 <__rc5>
    1335: 84 16        	sty	$16                     ; 0x16 <__rc6>
    1337: a4 19        	ldy	$19                     ; 0x19 <__rc9>
    1339: 4c 4c 10     	jmp	$104c <f256main+0x757>
    133c: a2 01        	ldx	#$1
    133e: 8a           	txa
    133f: a0 02        	ldy	#$2
    1341: 91 10        	sta	($10),y                 ; 0x10 <__rc0>
    1343: a6 1b        	ldx	$1b                     ; 0x1b <__rc11>
    1345: 86 01        	stx	$1                      ; 0x1 <__data_size+0x1>
    1347: a6 60        	ldx	$60                     ; 0x60 <_col>
    1349: a4 61        	ldy	$61                     ; 0x61 <_row>
    134b: 8e 14 d0     	stx	$d014                   ; 0xd014 <__heap_start+0xac92>
    134e: 9c 15 d0     	stz	$d015                   ; 0xd015 <__heap_start+0xac93>
    1351: 84 61        	sty	$61                     ; 0x61 <_row>
    1353: 8c 16 d0     	sty	$d016                   ; 0xd016 <__heap_start+0xac94>
    1356: 9c 17 d0     	stz	$d017                   ; 0xd017 <__heap_start+0xac95>
    1359: a4 18        	ldy	$18                     ; 0x18 <__rc8>
    135b: 4c 52 0a     	jmp	$a52 <f256main+0x15d>

0000135e <textPrint>:
    135e: a6 01        	ldx	$1                      ; 0x1 <__data_size+0x1>
    1360: 86 1c        	stx	$1c                     ; 0x1c <__rc12>
    1362: a6 61        	ldx	$61                     ; 0x61 <_row>
    1364: a9 50        	lda	#$50
    1366: a8           	tay
    1367: 84 1d        	sty	$1d                     ; 0x1d <__rc13>
    1369: 8d 00 de     	sta	$de00                   ; 0xde00 <__heap_start+0xba7e>
    136c: 9c 01 de     	stz	$de01                   ; 0xde01 <__heap_start+0xba7f>
    136f: 8e 02 de     	stx	$de02                   ; 0xde02 <__heap_start+0xba80>
    1372: 9c 03 de     	stz	$de03                   ; 0xde03 <__heap_start+0xba81>
    1375: ae 10 de     	ldx	$de10                   ; 0xde10 <__heap_start+0xba8e>
    1378: ac 11 de     	ldy	$de11                   ; 0xde11 <__heap_start+0xba8f>
    137b: 84 15        	sty	$15                     ; 0x15 <__rc5>
    137d: ad 12 de     	lda	$de12                   ; 0xde12 <__heap_start+0xba90>
    1380: ac 13 de     	ldy	$de13                   ; 0xde13 <__heap_start+0xba91>
    1383: 84 18        	sty	$18                     ; 0x18 <__rc8>
    1385: 9c 08 de     	stz	$de08                   ; 0xde08 <__heap_start+0xba86>
    1388: a0 c0        	ldy	#$c0
    138a: 8c 09 de     	sty	$de09                   ; 0xde09 <__heap_start+0xba87>
    138d: 9c 0a de     	stz	$de0a                   ; 0xde0a <__heap_start+0xba88>
    1390: 9c 0b de     	stz	$de0b                   ; 0xde0b <__heap_start+0xba89>
    1393: 8e 0c de     	stx	$de0c                   ; 0xde0c <__heap_start+0xba8a>
    1396: 64 14        	stz	$14                     ; 0x14 <__rc4>
    1398: a2 00        	ldx	#$0
    139a: 86 16        	stx	$16                     ; 0x16 <__rc6>
    139c: a2 c0        	ldx	#$c0
    139e: 86 17        	stx	$17                     ; 0x17 <__rc7>
    13a0: a6 15        	ldx	$15                     ; 0x15 <__rc5>
    13a2: 8e 0d de     	stx	$de0d                   ; 0xde0d <__heap_start+0xba8b>
    13a5: 8d 0e de     	sta	$de0e                   ; 0xde0e <__heap_start+0xba8c>
    13a8: a6 18        	ldx	$18                     ; 0x18 <__rc8>
    13aa: 8e 0f de     	stx	$de0f                   ; 0xde0f <__heap_start+0xba8d>
    13ad: ac 18 de     	ldy	$de18                   ; 0xde18 <__heap_start+0xba96>
    13b0: ad 19 de     	lda	$de19                   ; 0xde19 <__heap_start+0xba97>
    13b3: ae 1a de     	ldx	$de1a                   ; 0xde1a <__heap_start+0xba98>
    13b6: ae 1b de     	ldx	$de1b                   ; 0xde1b <__heap_start+0xba99>
    13b9: 84 18        	sty	$18                     ; 0x18 <__rc8>
    13bb: 85 19        	sta	$19                     ; 0x19 <__rc9>
    13bd: 64 15        	stz	$15                     ; 0x15 <__rc5>
    13bf: a2 20        	ldx	#$20
    13c1: 4c 5d 16     	jmp	$165d <textPrint+0x2ff>
    13c4: a5 1b        	lda	$1b                     ; 0x1b <__rc11>
    13c6: f0 1c        	beq	$13e4 <textPrint+0x86>
    13c8: b1 18        	lda	($18),y                 ; 0x18 <__rc8>
    13ca: 92 18        	sta	($18)                   ; 0x18 <__rc8>
    13cc: a9 ff        	lda	#$ff
    13ce: c6 1a        	dec	$1a                     ; 0x1a <__rc10>
    13d0: c5 1a        	cmp	$1a                     ; 0x1a <__rc10>
    13d2: f0 06        	beq	$13da <textPrint+0x7c>
    13d4: e6 18        	inc	$18                     ; 0x18 <__rc8>
    13d6: d0 ec        	bne	$13c4 <textPrint+0x66>
    13d8: 80 06        	bra	$13e0 <textPrint+0x82>
    13da: c6 1b        	dec	$1b                     ; 0x1b <__rc11>
    13dc: e6 18        	inc	$18                     ; 0x18 <__rc8>
    13de: d0 e4        	bne	$13c4 <textPrint+0x66>
    13e0: e6 19        	inc	$19                     ; 0x19 <__rc9>
    13e2: 80 e0        	bra	$13c4 <textPrint+0x66>
    13e4: a5 1a        	lda	$1a                     ; 0x1a <__rc10>
    13e6: d0 e0        	bne	$13c8 <textPrint+0x6a>
    13e8: a9 02        	lda	#$2
    13ea: 85 01        	sta	$1                      ; 0x1 <__data_size+0x1>
    13ec: a9 10        	lda	#$10
    13ee: 5a           	phy
    13ef: a0 00        	ldy	#$0
    13f1: 84 18        	sty	$18                     ; 0x18 <__rc8>
    13f3: a0 c0        	ldy	#$c0
    13f5: 84 19        	sty	$19                     ; 0x19 <__rc9>
    13f7: 7a           	ply
    13f8: 85 1a        	sta	$1a                     ; 0x1a <__rc10>
    13fa: a9 09        	lda	#$9
    13fc: 85 1b        	sta	$1b                     ; 0x1b <__rc11>
    13fe: 80 04        	bra	$1404 <textPrint+0xa6>
    1400: a5 1b        	lda	$1b                     ; 0x1b <__rc11>
    1402: f0 1c        	beq	$1420 <textPrint+0xc2>
    1404: b1 18        	lda	($18),y                 ; 0x18 <__rc8>
    1406: 92 18        	sta	($18)                   ; 0x18 <__rc8>
    1408: a9 ff        	lda	#$ff
    140a: c6 1a        	dec	$1a                     ; 0x1a <__rc10>
    140c: c5 1a        	cmp	$1a                     ; 0x1a <__rc10>
    140e: f0 06        	beq	$1416 <textPrint+0xb8>
    1410: e6 18        	inc	$18                     ; 0x18 <__rc8>
    1412: d0 ec        	bne	$1400 <textPrint+0xa2>
    1414: 80 06        	bra	$141c <textPrint+0xbe>
    1416: c6 1b        	dec	$1b                     ; 0x1b <__rc11>
    1418: e6 18        	inc	$18                     ; 0x18 <__rc8>
    141a: d0 e4        	bne	$1400 <textPrint+0xa2>
    141c: e6 19        	inc	$19                     ; 0x19 <__rc9>
    141e: 80 e0        	bra	$1400 <textPrint+0xa2>
    1420: a5 1a        	lda	$1a                     ; 0x1a <__rc10>
    1422: d0 e0        	bne	$1404 <textPrint+0xa6>
    1424: a0 50        	ldy	#$50
    1426: 84 1d        	sty	$1d                     ; 0x1d <__rc13>
    1428: a9 02        	lda	#$2
    142a: 85 01        	sta	$1                      ; 0x1 <__data_size+0x1>
    142c: a0 03        	ldy	#$3
    142e: 84 01        	sty	$1                      ; 0x1 <__data_size+0x1>
    1430: a0 f0        	ldy	#$f0
    1432: 8c 10 c9     	sty	$c910                   ; 0xc910 <__heap_start+0xa58e>
    1435: 8c 11 c9     	sty	$c911                   ; 0xc911 <__heap_start+0xa58f>
    1438: 8c 12 c9     	sty	$c912                   ; 0xc912 <__heap_start+0xa590>
    143b: 8c 13 c9     	sty	$c913                   ; 0xc913 <__heap_start+0xa591>
    143e: 8c 14 c9     	sty	$c914                   ; 0xc914 <__heap_start+0xa592>
    1441: 8c 15 c9     	sty	$c915                   ; 0xc915 <__heap_start+0xa593>
    1444: 8c 16 c9     	sty	$c916                   ; 0xc916 <__heap_start+0xa594>
    1447: 8c 17 c9     	sty	$c917                   ; 0xc917 <__heap_start+0xa595>
    144a: 8c 18 c9     	sty	$c918                   ; 0xc918 <__heap_start+0xa596>
    144d: 8c 19 c9     	sty	$c919                   ; 0xc919 <__heap_start+0xa597>
    1450: 8c 1a c9     	sty	$c91a                   ; 0xc91a <__heap_start+0xa598>
    1453: 8c 1b c9     	sty	$c91b                   ; 0xc91b <__heap_start+0xa599>
    1456: 8c 1c c9     	sty	$c91c                   ; 0xc91c <__heap_start+0xa59a>
    1459: 8c 1d c9     	sty	$c91d                   ; 0xc91d <__heap_start+0xa59b>
    145c: 8c 1e c9     	sty	$c91e                   ; 0xc91e <__heap_start+0xa59c>
    145f: 8c 1f c9     	sty	$c91f                   ; 0xc91f <__heap_start+0xa59d>
    1462: 8c 20 c9     	sty	$c920                   ; 0xc920 <__heap_start+0xa59e>
    1465: 8c 21 c9     	sty	$c921                   ; 0xc921 <__heap_start+0xa59f>
    1468: 8c 22 c9     	sty	$c922                   ; 0xc922 <__heap_start+0xa5a0>
    146b: 8c 23 c9     	sty	$c923                   ; 0xc923 <__heap_start+0xa5a1>
    146e: 8c 24 c9     	sty	$c924                   ; 0xc924 <__heap_start+0xa5a2>
    1471: 8c 25 c9     	sty	$c925                   ; 0xc925 <__heap_start+0xa5a3>
    1474: 8c 26 c9     	sty	$c926                   ; 0xc926 <__heap_start+0xa5a4>
    1477: 8c 27 c9     	sty	$c927                   ; 0xc927 <__heap_start+0xa5a5>
    147a: 8c 28 c9     	sty	$c928                   ; 0xc928 <__heap_start+0xa5a6>
    147d: 8c 29 c9     	sty	$c929                   ; 0xc929 <__heap_start+0xa5a7>
    1480: 8c 2a c9     	sty	$c92a                   ; 0xc92a <__heap_start+0xa5a8>
    1483: 8c 2b c9     	sty	$c92b                   ; 0xc92b <__heap_start+0xa5a9>
    1486: 8c 2c c9     	sty	$c92c                   ; 0xc92c <__heap_start+0xa5aa>
    1489: 8c 2d c9     	sty	$c92d                   ; 0xc92d <__heap_start+0xa5ab>
    148c: 8c 2e c9     	sty	$c92e                   ; 0xc92e <__heap_start+0xa5ac>
    148f: 8c 2f c9     	sty	$c92f                   ; 0xc92f <__heap_start+0xa5ad>
    1492: 8c 30 c9     	sty	$c930                   ; 0xc930 <__heap_start+0xa5ae>
    1495: 8c 31 c9     	sty	$c931                   ; 0xc931 <__heap_start+0xa5af>
    1498: 8c 32 c9     	sty	$c932                   ; 0xc932 <__heap_start+0xa5b0>
    149b: 8c 33 c9     	sty	$c933                   ; 0xc933 <__heap_start+0xa5b1>
    149e: 8c 34 c9     	sty	$c934                   ; 0xc934 <__heap_start+0xa5b2>
    14a1: 8c 35 c9     	sty	$c935                   ; 0xc935 <__heap_start+0xa5b3>
    14a4: 8c 36 c9     	sty	$c936                   ; 0xc936 <__heap_start+0xa5b4>
    14a7: 8c 37 c9     	sty	$c937                   ; 0xc937 <__heap_start+0xa5b5>
    14aa: 8c 38 c9     	sty	$c938                   ; 0xc938 <__heap_start+0xa5b6>
    14ad: 8c 39 c9     	sty	$c939                   ; 0xc939 <__heap_start+0xa5b7>
    14b0: 8c 3a c9     	sty	$c93a                   ; 0xc93a <__heap_start+0xa5b8>
    14b3: 8c 3b c9     	sty	$c93b                   ; 0xc93b <__heap_start+0xa5b9>
    14b6: 8c 3c c9     	sty	$c93c                   ; 0xc93c <__heap_start+0xa5ba>
    14b9: 8c 3d c9     	sty	$c93d                   ; 0xc93d <__heap_start+0xa5bb>
    14bc: 8c 3e c9     	sty	$c93e                   ; 0xc93e <__heap_start+0xa5bc>
    14bf: 8c 3f c9     	sty	$c93f                   ; 0xc93f <__heap_start+0xa5bd>
    14c2: 8c 40 c9     	sty	$c940                   ; 0xc940 <__heap_start+0xa5be>
    14c5: 8c 41 c9     	sty	$c941                   ; 0xc941 <__heap_start+0xa5bf>
    14c8: 8c 42 c9     	sty	$c942                   ; 0xc942 <__heap_start+0xa5c0>
    14cb: 8c 43 c9     	sty	$c943                   ; 0xc943 <__heap_start+0xa5c1>
    14ce: 8c 44 c9     	sty	$c944                   ; 0xc944 <__heap_start+0xa5c2>
    14d1: 8c 45 c9     	sty	$c945                   ; 0xc945 <__heap_start+0xa5c3>
    14d4: 8c 46 c9     	sty	$c946                   ; 0xc946 <__heap_start+0xa5c4>
    14d7: 8c 47 c9     	sty	$c947                   ; 0xc947 <__heap_start+0xa5c5>
    14da: 8c 48 c9     	sty	$c948                   ; 0xc948 <__heap_start+0xa5c6>
    14dd: 8c 49 c9     	sty	$c949                   ; 0xc949 <__heap_start+0xa5c7>
    14e0: 8c 4a c9     	sty	$c94a                   ; 0xc94a <__heap_start+0xa5c8>
    14e3: 8c 4b c9     	sty	$c94b                   ; 0xc94b <__heap_start+0xa5c9>
    14e6: 8c 4c c9     	sty	$c94c                   ; 0xc94c <__heap_start+0xa5ca>
    14e9: 8c 4d c9     	sty	$c94d                   ; 0xc94d <__heap_start+0xa5cb>
    14ec: 8c 4e c9     	sty	$c94e                   ; 0xc94e <__heap_start+0xa5cc>
    14ef: 8c 4f c9     	sty	$c94f                   ; 0xc94f <__heap_start+0xa5cd>
    14f2: 8c 50 c9     	sty	$c950                   ; 0xc950 <__heap_start+0xa5ce>
    14f5: 8c 51 c9     	sty	$c951                   ; 0xc951 <__heap_start+0xa5cf>
    14f8: 8c 52 c9     	sty	$c952                   ; 0xc952 <__heap_start+0xa5d0>
    14fb: 8c 53 c9     	sty	$c953                   ; 0xc953 <__heap_start+0xa5d1>
    14fe: 8c 54 c9     	sty	$c954                   ; 0xc954 <__heap_start+0xa5d2>
    1501: 8c 55 c9     	sty	$c955                   ; 0xc955 <__heap_start+0xa5d3>
    1504: 8c 56 c9     	sty	$c956                   ; 0xc956 <__heap_start+0xa5d4>
    1507: 8c 57 c9     	sty	$c957                   ; 0xc957 <__heap_start+0xa5d5>
    150a: 8c 58 c9     	sty	$c958                   ; 0xc958 <__heap_start+0xa5d6>
    150d: 8c 59 c9     	sty	$c959                   ; 0xc959 <__heap_start+0xa5d7>
    1510: 8c 5a c9     	sty	$c95a                   ; 0xc95a <__heap_start+0xa5d8>
    1513: 8c 5b c9     	sty	$c95b                   ; 0xc95b <__heap_start+0xa5d9>
    1516: 8c 5c c9     	sty	$c95c                   ; 0xc95c <__heap_start+0xa5da>
    1519: 8c 5d c9     	sty	$c95d                   ; 0xc95d <__heap_start+0xa5db>
    151c: 8c 5e c9     	sty	$c95e                   ; 0xc95e <__heap_start+0xa5dc>
    151f: 8c 5f c9     	sty	$c95f                   ; 0xc95f <__heap_start+0xa5dd>
    1522: 85 01        	sta	$1                      ; 0x1 <__data_size+0x1>
    1524: 8e 10 c9     	stx	$c910                   ; 0xc910 <__heap_start+0xa58e>
    1527: 8e 11 c9     	stx	$c911                   ; 0xc911 <__heap_start+0xa58f>
    152a: 8e 12 c9     	stx	$c912                   ; 0xc912 <__heap_start+0xa590>
    152d: 8e 13 c9     	stx	$c913                   ; 0xc913 <__heap_start+0xa591>
    1530: 8e 14 c9     	stx	$c914                   ; 0xc914 <__heap_start+0xa592>
    1533: 8e 15 c9     	stx	$c915                   ; 0xc915 <__heap_start+0xa593>
    1536: 8e 16 c9     	stx	$c916                   ; 0xc916 <__heap_start+0xa594>
    1539: 8e 17 c9     	stx	$c917                   ; 0xc917 <__heap_start+0xa595>
    153c: 8e 18 c9     	stx	$c918                   ; 0xc918 <__heap_start+0xa596>
    153f: 8e 19 c9     	stx	$c919                   ; 0xc919 <__heap_start+0xa597>
    1542: 8e 1a c9     	stx	$c91a                   ; 0xc91a <__heap_start+0xa598>
    1545: 8e 1b c9     	stx	$c91b                   ; 0xc91b <__heap_start+0xa599>
    1548: 8e 1c c9     	stx	$c91c                   ; 0xc91c <__heap_start+0xa59a>
    154b: 8e 1d c9     	stx	$c91d                   ; 0xc91d <__heap_start+0xa59b>
    154e: 8e 1e c9     	stx	$c91e                   ; 0xc91e <__heap_start+0xa59c>
    1551: 8e 1f c9     	stx	$c91f                   ; 0xc91f <__heap_start+0xa59d>
    1554: 8e 20 c9     	stx	$c920                   ; 0xc920 <__heap_start+0xa59e>
    1557: 8e 21 c9     	stx	$c921                   ; 0xc921 <__heap_start+0xa59f>
    155a: 8e 22 c9     	stx	$c922                   ; 0xc922 <__heap_start+0xa5a0>
    155d: 8e 23 c9     	stx	$c923                   ; 0xc923 <__heap_start+0xa5a1>
    1560: 8e 24 c9     	stx	$c924                   ; 0xc924 <__heap_start+0xa5a2>
    1563: 8e 25 c9     	stx	$c925                   ; 0xc925 <__heap_start+0xa5a3>
    1566: 8e 26 c9     	stx	$c926                   ; 0xc926 <__heap_start+0xa5a4>
    1569: 8e 27 c9     	stx	$c927                   ; 0xc927 <__heap_start+0xa5a5>
    156c: 8e 28 c9     	stx	$c928                   ; 0xc928 <__heap_start+0xa5a6>
    156f: 8e 29 c9     	stx	$c929                   ; 0xc929 <__heap_start+0xa5a7>
    1572: 8e 2a c9     	stx	$c92a                   ; 0xc92a <__heap_start+0xa5a8>
    1575: 8e 2b c9     	stx	$c92b                   ; 0xc92b <__heap_start+0xa5a9>
    1578: 8e 2c c9     	stx	$c92c                   ; 0xc92c <__heap_start+0xa5aa>
    157b: 8e 2d c9     	stx	$c92d                   ; 0xc92d <__heap_start+0xa5ab>
    157e: 8e 2e c9     	stx	$c92e                   ; 0xc92e <__heap_start+0xa5ac>
    1581: 8e 2f c9     	stx	$c92f                   ; 0xc92f <__heap_start+0xa5ad>
    1584: 8e 30 c9     	stx	$c930                   ; 0xc930 <__heap_start+0xa5ae>
    1587: 8e 31 c9     	stx	$c931                   ; 0xc931 <__heap_start+0xa5af>
    158a: 8e 32 c9     	stx	$c932                   ; 0xc932 <__heap_start+0xa5b0>
    158d: 8e 33 c9     	stx	$c933                   ; 0xc933 <__heap_start+0xa5b1>
    1590: 8e 34 c9     	stx	$c934                   ; 0xc934 <__heap_start+0xa5b2>
    1593: 8e 35 c9     	stx	$c935                   ; 0xc935 <__heap_start+0xa5b3>
    1596: 8e 36 c9     	stx	$c936                   ; 0xc936 <__heap_start+0xa5b4>
    1599: 8e 37 c9     	stx	$c937                   ; 0xc937 <__heap_start+0xa5b5>
    159c: 8e 38 c9     	stx	$c938                   ; 0xc938 <__heap_start+0xa5b6>
    159f: 8e 39 c9     	stx	$c939                   ; 0xc939 <__heap_start+0xa5b7>
    15a2: 8e 3a c9     	stx	$c93a                   ; 0xc93a <__heap_start+0xa5b8>
    15a5: 8e 3b c9     	stx	$c93b                   ; 0xc93b <__heap_start+0xa5b9>
    15a8: 8e 3c c9     	stx	$c93c                   ; 0xc93c <__heap_start+0xa5ba>
    15ab: 8e 3d c9     	stx	$c93d                   ; 0xc93d <__heap_start+0xa5bb>
    15ae: 8e 3e c9     	stx	$c93e                   ; 0xc93e <__heap_start+0xa5bc>
    15b1: 8e 3f c9     	stx	$c93f                   ; 0xc93f <__heap_start+0xa5bd>
    15b4: 8e 40 c9     	stx	$c940                   ; 0xc940 <__heap_start+0xa5be>
    15b7: 8e 41 c9     	stx	$c941                   ; 0xc941 <__heap_start+0xa5bf>
    15ba: 8e 42 c9     	stx	$c942                   ; 0xc942 <__heap_start+0xa5c0>
    15bd: 8e 43 c9     	stx	$c943                   ; 0xc943 <__heap_start+0xa5c1>
    15c0: 8e 44 c9     	stx	$c944                   ; 0xc944 <__heap_start+0xa5c2>
    15c3: 8e 45 c9     	stx	$c945                   ; 0xc945 <__heap_start+0xa5c3>
    15c6: 8e 46 c9     	stx	$c946                   ; 0xc946 <__heap_start+0xa5c4>
    15c9: 8e 47 c9     	stx	$c947                   ; 0xc947 <__heap_start+0xa5c5>
    15cc: 8e 48 c9     	stx	$c948                   ; 0xc948 <__heap_start+0xa5c6>
    15cf: 8e 49 c9     	stx	$c949                   ; 0xc949 <__heap_start+0xa5c7>
    15d2: 8e 4a c9     	stx	$c94a                   ; 0xc94a <__heap_start+0xa5c8>
    15d5: 8e 4b c9     	stx	$c94b                   ; 0xc94b <__heap_start+0xa5c9>
    15d8: 8e 4c c9     	stx	$c94c                   ; 0xc94c <__heap_start+0xa5ca>
    15db: 8e 4d c9     	stx	$c94d                   ; 0xc94d <__heap_start+0xa5cb>
    15de: 8e 4e c9     	stx	$c94e                   ; 0xc94e <__heap_start+0xa5cc>
    15e1: 8e 4f c9     	stx	$c94f                   ; 0xc94f <__heap_start+0xa5cd>
    15e4: 8e 50 c9     	stx	$c950                   ; 0xc950 <__heap_start+0xa5ce>
    15e7: 8e 51 c9     	stx	$c951                   ; 0xc951 <__heap_start+0xa5cf>
    15ea: 8e 52 c9     	stx	$c952                   ; 0xc952 <__heap_start+0xa5d0>
    15ed: 8e 53 c9     	stx	$c953                   ; 0xc953 <__heap_start+0xa5d1>
    15f0: 8e 54 c9     	stx	$c954                   ; 0xc954 <__heap_start+0xa5d2>
    15f3: 8e 55 c9     	stx	$c955                   ; 0xc955 <__heap_start+0xa5d3>
    15f6: 8e 56 c9     	stx	$c956                   ; 0xc956 <__heap_start+0xa5d4>
    15f9: 8e 57 c9     	stx	$c957                   ; 0xc957 <__heap_start+0xa5d5>
    15fc: 8e 58 c9     	stx	$c958                   ; 0xc958 <__heap_start+0xa5d6>
    15ff: 8e 59 c9     	stx	$c959                   ; 0xc959 <__heap_start+0xa5d7>
    1602: 8e 5a c9     	stx	$c95a                   ; 0xc95a <__heap_start+0xa5d8>
    1605: 8e 5b c9     	stx	$c95b                   ; 0xc95b <__heap_start+0xa5d9>
    1608: 8e 5c c9     	stx	$c95c                   ; 0xc95c <__heap_start+0xa5da>
    160b: 8e 5d c9     	stx	$c95d                   ; 0xc95d <__heap_start+0xa5db>
    160e: 8e 5e c9     	stx	$c95e                   ; 0xc95e <__heap_start+0xa5dc>
    1611: 8e 5f c9     	stx	$c95f                   ; 0xc95f <__heap_start+0xa5dd>
    1614: c6 61        	dec	$61                     ; 0x61 <_row>
    1616: 9c 08 de     	stz	$de08                   ; 0xde08 <__heap_start+0xba86>
    1619: a0 c0        	ldy	#$c0
    161b: 8c 09 de     	sty	$de09                   ; 0xde09 <__heap_start+0xba87>
    161e: 9c 0a de     	stz	$de0a                   ; 0xde0a <__heap_start+0xba88>
    1621: 9c 0b de     	stz	$de0b                   ; 0xde0b <__heap_start+0xba89>
    1624: a0 1d        	ldy	#$1d
    1626: 8c 0c de     	sty	$de0c                   ; 0xde0c <__heap_start+0xba8a>
    1629: 9c 0d de     	stz	$de0d                   ; 0xde0d <__heap_start+0xba8b>
    162c: 9c 0e de     	stz	$de0e                   ; 0xde0e <__heap_start+0xba8c>
    162f: 9c 0f de     	stz	$de0f                   ; 0xde0f <__heap_start+0xba8d>
    1632: ac 18 de     	ldy	$de18                   ; 0xde18 <__heap_start+0xba96>
    1635: ad 19 de     	lda	$de19                   ; 0xde19 <__heap_start+0xba97>
    1638: 85 19        	sta	$19                     ; 0x19 <__rc9>
    163a: ad 1a de     	lda	$de1a                   ; 0xde1a <__heap_start+0xba98>
    163d: 84 18        	sty	$18                     ; 0x18 <__rc8>
    163f: ac 1b de     	ldy	$de1b                   ; 0xde1b <__heap_start+0xba99>
    1642: e6 14        	inc	$14                     ; 0x14 <__rc4>
    1644: d0 02        	bne	$1648 <textPrint+0x2ea>
    1646: e6 15        	inc	$15                     ; 0x15 <__rc5>
    1648: 80 13        	bra	$165d <textPrint+0x2ff>
    164a: a5 18        	lda	$18                     ; 0x18 <__rc8>
    164c: 18           	clc
    164d: 69 50        	adc	#$50
    164f: 85 18        	sta	$18                     ; 0x18 <__rc8>
    1651: a5 19        	lda	$19                     ; 0x19 <__rc9>
    1653: 69 00        	adc	#$0
    1655: 85 19        	sta	$19                     ; 0x19 <__rc9>
    1657: e6 14        	inc	$14                     ; 0x14 <__rc4>
    1659: d0 02        	bne	$165d <textPrint+0x2ff>
    165b: e6 15        	inc	$15                     ; 0x15 <__rc5>
    165d: a5 12        	lda	$12                     ; 0x12 <__rc2>
    165f: 18           	clc
    1660: 65 14        	adc	$14                     ; 0x14 <__rc4>
    1662: 85 1a        	sta	$1a                     ; 0x1a <__rc10>
    1664: a5 13        	lda	$13                     ; 0x13 <__rc3>
    1666: 65 15        	adc	$15                     ; 0x15 <__rc5>
    1668: 85 1b        	sta	$1b                     ; 0x1b <__rc11>
    166a: b2 1a        	lda	($1a)                   ; 0x1a <__rc10>
    166c: c9 0a        	cmp	#$a
    166e: f0 24        	beq	$1694 <textPrint+0x336>
    1670: c9 0d        	cmp	#$d
    1672: f0 20        	beq	$1694 <textPrint+0x336>
    1674: a8           	tay
    1675: f0 46        	beq	$16bd <textPrint+0x35f>
    1677: a0 03        	ldy	#$3
    1679: 84 01        	sty	$1                      ; 0x1 <__data_size+0x1>
    167b: a4 60        	ldy	$60                     ; 0x60 <_col>
    167d: a9 f0        	lda	#$f0
    167f: 91 18        	sta	($18),y                 ; 0x18 <__rc8>
    1681: a0 02        	ldy	#$2
    1683: 84 01        	sty	$1                      ; 0x1 <__data_size+0x1>
    1685: b2 1a        	lda	($1a)                   ; 0x1a <__rc10>
    1687: a4 60        	ldy	$60                     ; 0x60 <_col>
    1689: 91 18        	sta	($18),y                 ; 0x18 <__rc8>
    168b: a4 60        	ldy	$60                     ; 0x60 <_col>
    168d: c8           	iny
    168e: e6 60        	inc	$60                     ; 0x60 <_col>
    1690: c0 50        	cpy	#$50
    1692: d0 c3        	bne	$1657 <textPrint+0x2f9>
    1694: 64 60        	stz	$60                     ; 0x60 <_col>
    1696: a4 61        	ldy	$61                     ; 0x61 <_row>
    1698: c8           	iny
    1699: e6 61        	inc	$61                     ; 0x61 <_row>
    169b: c0 1e        	cpy	#$1e
    169d: f0 03        	beq	$16a2 <textPrint+0x344>
    169f: 4c 4a 16     	jmp	$164a <textPrint+0x2ec>
    16a2: a0 03        	ldy	#$3
    16a4: 84 01        	sty	$1                      ; 0x1 <__data_size+0x1>
    16a6: a0 09        	ldy	#$9
    16a8: a9 10        	lda	#$10
    16aa: 5a           	phy
    16ab: a0 00        	ldy	#$0
    16ad: 84 18        	sty	$18                     ; 0x18 <__rc8>
    16af: a0 c0        	ldy	#$c0
    16b1: 84 19        	sty	$19                     ; 0x19 <__rc9>
    16b3: 7a           	ply
    16b4: 85 1a        	sta	$1a                     ; 0x1a <__rc10>
    16b6: 84 1b        	sty	$1b                     ; 0x1b <__rc11>
    16b8: a4 1d        	ldy	$1d                     ; 0x1d <__rc13>
    16ba: 4c c8 13     	jmp	$13c8 <textPrint+0x6a>
    16bd: a6 1c        	ldx	$1c                     ; 0x1c <__rc12>
    16bf: 86 01        	stx	$1                      ; 0x1 <__data_size+0x1>
    16c1: a6 60        	ldx	$60                     ; 0x60 <_col>
    16c3: a4 61        	ldy	$61                     ; 0x61 <_row>
    16c5: 8e 14 d0     	stx	$d014                   ; 0xd014 <__heap_start+0xac92>
    16c8: 9c 15 d0     	stz	$d015                   ; 0xd015 <__heap_start+0xac93>
    16cb: 84 61        	sty	$61                     ; 0x61 <_row>
    16cd: 8c 16 d0     	sty	$d016                   ; 0xd016 <__heap_start+0xac94>
    16d0: 9c 17 d0     	stz	$d017                   ; 0xd017 <__heap_start+0xac95>
    16d3: 60           	rts

000016d4 <exit>:
    16d4: 20 47 03     	jsr	$347 <_fini>
    16d7: 80 fe        	bra	$16d7 <exit+0x3>

000016d9 <memcpy>:
    16d9: a8           	tay
    16da: 8a           	txa
    16db: d0 03        	bne	$16e0 <memcpy+0x7>
    16dd: 98           	tya
    16de: f0 24        	beq	$1704 <memcpy+0x2b>
    16e0: a5 12        	lda	$12                     ; 0x12 <__rc2>
    16e2: 85 16        	sta	$16                     ; 0x16 <__rc6>
    16e4: a5 13        	lda	$13                     ; 0x13 <__rc3>
    16e6: 85 17        	sta	$17                     ; 0x17 <__rc7>
    16e8: b2 14        	lda	($14)                   ; 0x14 <__rc4>
    16ea: 92 16        	sta	($16)                   ; 0x16 <__rc6>
    16ec: e6 16        	inc	$16                     ; 0x16 <__rc6>
    16ee: d0 02        	bne	$16f2 <memcpy+0x19>
    16f0: e6 17        	inc	$17                     ; 0x17 <__rc7>
    16f2: e6 14        	inc	$14                     ; 0x14 <__rc4>
    16f4: d0 02        	bne	$16f8 <memcpy+0x1f>
    16f6: e6 15        	inc	$15                     ; 0x15 <__rc5>
    16f8: 88           	dey
    16f9: c0 ff        	cpy	#$ff
    16fb: d0 01        	bne	$16fe <memcpy+0x25>
    16fd: ca           	dex
    16fe: 8a           	txa
    16ff: d0 e7        	bne	$16e8 <memcpy+0xf>
    1701: 98           	tya
    1702: d0 e4        	bne	$16e8 <memcpy+0xf>
    1704: 60           	rts

00001705 <__memset>:
    1705: a4 14        	ldy	$14                     ; 0x14 <__rc4>
    1707: d0 04        	bne	$170d <__memset+0x8>
    1709: e0 00        	cpx	#$0
    170b: f0 17        	beq	$1724 <__memset+0x1f>
    170d: 92 12        	sta	($12)                   ; 0x12 <__rc2>
    170f: e6 12        	inc	$12                     ; 0x12 <__rc2>
    1711: d0 02        	bne	$1715 <__memset+0x10>
    1713: e6 13        	inc	$13                     ; 0x13 <__rc3>
    1715: ca           	dex
    1716: e0 ff        	cpx	#$ff
    1718: d0 02        	bne	$171c <__memset+0x17>
    171a: c6 14        	dec	$14                     ; 0x14 <__rc4>
    171c: a4 14        	ldy	$14                     ; 0x14 <__rc4>
    171e: d0 ed        	bne	$170d <__memset+0x8>
    1720: e0 00        	cpx	#$0
    1722: d0 e9        	bne	$170d <__memset+0x8>
    1724: 60           	rts

00001725 <__ashlsi3>:
    1725: 86 15        	stx	$15                     ; 0x15 <__rc5>
    1727: a6 14        	ldx	$14                     ; 0x14 <__rc4>
    1729: f0 0e        	beq	$1739 <__ashlsi3+0x14>
    172b: a6 14        	ldx	$14                     ; 0x14 <__rc4>
    172d: ca           	dex
    172e: 0a           	asl
    172f: 26 15        	rol	$15                     ; 0x15 <__rc5>
    1731: 26 12        	rol	$12                     ; 0x12 <__rc2>
    1733: 26 13        	rol	$13                     ; 0x13 <__rc3>
    1735: e0 00        	cpx	#$0
    1737: d0 f4        	bne	$172d <__ashlsi3+0x8>
    1739: a6 15        	ldx	$15                     ; 0x15 <__rc5>
    173b: 60           	rts

0000173c <__lshrsi3>:
    173c: 86 15        	stx	$15                     ; 0x15 <__rc5>
    173e: a6 14        	ldx	$14                     ; 0x14 <__rc4>
    1740: f0 0e        	beq	$1750 <__lshrsi3+0x14>
    1742: a6 14        	ldx	$14                     ; 0x14 <__rc4>
    1744: ca           	dex
    1745: 46 13        	lsr	$13                     ; 0x13 <__rc3>
    1747: 66 12        	ror	$12                     ; 0x12 <__rc2>
    1749: 66 15        	ror	$15                     ; 0x15 <__rc5>
    174b: 6a           	ror
    174c: e0 00        	cpx	#$0
    174e: d0 f4        	bne	$1744 <__lshrsi3+0x8>
    1750: a6 15        	ldx	$15                     ; 0x15 <__rc5>
    1752: 60           	rts

00001753 <__fixsfsi>:
    1753: 85 16        	sta	$16                     ; 0x16 <__rc6>
    1755: 86 15        	stx	$15                     ; 0x15 <__rc5>
    1757: a6 12        	ldx	$12                     ; 0x12 <__rc2>
    1759: 86 14        	stx	$14                     ; 0x14 <__rc4>
    175b: a5 13        	lda	$13                     ; 0x13 <__rc3>
    175d: 10 03        	bpl	$1762 <__fixsfsi+0xf>
    175f: b8           	clv
    1760: 80 03        	bra	$1765 <__fixsfsi+0x12>
    1762: 2c 36 22     	bit	$2236                   ; 0x2236 <__set_v>
    1765: a2 01        	ldx	#$1
    1767: a9 00        	lda	#$0
    1769: 64 b5        	stz	$b5                     ; 0xb5 <__zp_bss_size+0x60>
    176b: a8           	tay
    176c: 64 b6        	stz	$b6                     ; 0xb6 <__zp_bss_size+0x61>
    176e: 70 0a        	bvs	$177a <__fixsfsi+0x27>
    1770: a2 ff        	ldx	#$ff
    1772: a0 ff        	ldy	#$ff
    1774: 84 b5        	sty	$b5                     ; 0xb5 <__zp_bss_size+0x60>
    1776: 98           	tya
    1777: 85 b6        	sta	$b6                     ; 0xb6 <__zp_bss_size+0x61>
    1779: 1a           	inc
    177a: 86 b7        	stx	$b7                     ; 0xb7 <__zp_bss_size+0x62>
    177c: 06 12        	asl	$12                     ; 0x12 <__rc2>
    177e: 26 13        	rol	$13                     ; 0x13 <__rc3>
    1780: a6 13        	ldx	$13                     ; 0x13 <__rc3>
    1782: e0 7f        	cpx	#$7f
    1784: b0 09        	bcs	$178f <__fixsfsi+0x3c>
    1786: 64 14        	stz	$14                     ; 0x14 <__rc4>
    1788: a0 00        	ldy	#$0
    178a: a2 00        	ldx	#$0
    178c: 4c 0f 18     	jmp	$180f <__fixsfsi+0xbc>
    178f: a2 01        	ldx	#$1
    1791: 70 02        	bvs	$1795 <__fixsfsi+0x42>
    1793: a2 00        	ldx	#$0
    1795: 18           	clc
    1796: a5 13        	lda	$13                     ; 0x13 <__rc3>
    1798: 69 61        	adc	#$61
    179a: 85 17        	sta	$17                     ; 0x17 <__rc7>
    179c: a9 00        	lda	#$0
    179e: 69 ff        	adc	#$ff
    17a0: c9 ff        	cmp	#$ff
    17a2: d0 29        	bne	$17cd <__fixsfsi+0x7a>
    17a4: a5 17        	lda	$17                     ; 0x17 <__rc7>
    17a6: c9 e0        	cmp	#$e0
    17a8: 90 27        	bcc	$17d1 <__fixsfsi+0x7e>
    17aa: 98           	tya
    17ab: 85 b8        	sta	$b8                     ; 0xb8 <__zp_bss_size+0x63>
    17ad: a5 14        	lda	$14                     ; 0x14 <__rc4>
    17af: 29 7f        	and	#$7f
    17b1: 09 80        	ora	#$80
    17b3: 85 12        	sta	$12                     ; 0x12 <__rc2>
    17b5: a6 13        	ldx	$13                     ; 0x13 <__rc3>
    17b7: e0 96        	cpx	#$96
    17b9: b0 22        	bcs	$17dd <__fixsfsi+0x8a>
    17bb: 38           	sec
    17bc: a9 96        	lda	#$96
    17be: e5 13        	sbc	$13                     ; 0x13 <__rc3>
    17c0: 64 13        	stz	$13                     ; 0x13 <__rc3>
    17c2: 85 14        	sta	$14                     ; 0x14 <__rc4>
    17c4: a6 15        	ldx	$15                     ; 0x15 <__rc5>
    17c6: a5 16        	lda	$16                     ; 0x16 <__rc6>
    17c8: 20 3c 17     	jsr	$173c <__lshrsi3>
    17cb: 80 20        	bra	$17ed <__fixsfsi+0x9a>
    17cd: c9 ff        	cmp	#$ff
    17cf: b0 d9        	bcs	$17aa <__fixsfsi+0x57>
    17d1: 8a           	txa
    17d2: f0 34        	beq	$1808 <__fixsfsi+0xb5>
    17d4: a2 7f        	ldx	#$7f
    17d6: a9 ff        	lda	#$ff
    17d8: a8           	tay
    17d9: 84 14        	sty	$14                     ; 0x14 <__rc4>
    17db: 80 32        	bra	$180f <__fixsfsi+0xbc>
    17dd: 18           	clc
    17de: a5 13        	lda	$13                     ; 0x13 <__rc3>
    17e0: 69 6a        	adc	#$6a
    17e2: 64 13        	stz	$13                     ; 0x13 <__rc3>
    17e4: 85 14        	sta	$14                     ; 0x14 <__rc4>
    17e6: a6 15        	ldx	$15                     ; 0x15 <__rc5>
    17e8: a5 16        	lda	$16                     ; 0x16 <__rc6>
    17ea: 20 25 17     	jsr	$1725 <__ashlsi3>
    17ed: a4 b7        	ldy	$b7                     ; 0xb7 <__zp_bss_size+0x62>
    17ef: 84 14        	sty	$14                     ; 0x14 <__rc4>
    17f1: a4 b5        	ldy	$b5                     ; 0xb5 <__zp_bss_size+0x60>
    17f3: 84 15        	sty	$15                     ; 0x15 <__rc5>
    17f5: a4 b8        	ldy	$b8                     ; 0xb8 <__zp_bss_size+0x63>
    17f7: 84 16        	sty	$16                     ; 0x16 <__rc6>
    17f9: a4 b6        	ldy	$b6                     ; 0xb6 <__zp_bss_size+0x61>
    17fb: 84 17        	sty	$17                     ; 0x17 <__rc7>
    17fd: 20 16 18     	jsr	$1816 <__mulsi3>
    1800: 86 14        	stx	$14                     ; 0x14 <__rc4>
    1802: a4 12        	ldy	$12                     ; 0x12 <__rc2>
    1804: a6 13        	ldx	$13                     ; 0x13 <__rc3>
    1806: 80 07        	bra	$180f <__fixsfsi+0xbc>
    1808: a2 80        	ldx	#$80
    180a: a9 00        	lda	#$0
    180c: 64 14        	stz	$14                     ; 0x14 <__rc4>
    180e: a8           	tay
    180f: 84 12        	sty	$12                     ; 0x12 <__rc2>
    1811: 86 13        	stx	$13                     ; 0x13 <__rc3>
    1813: a6 14        	ldx	$14                     ; 0x14 <__rc4>
    1815: 60           	rts

00001816 <__mulsi3>:
    1816: a4 17        	ldy	$17                     ; 0x17 <__rc7>
    1818: d0 0f        	bne	$1829 <__mulsi3+0x13>
    181a: a4 16        	ldy	$16                     ; 0x16 <__rc6>
    181c: d0 0b        	bne	$1829 <__mulsi3+0x13>
    181e: a4 15        	ldy	$15                     ; 0x15 <__rc5>
    1820: d0 07        	bne	$1829 <__mulsi3+0x13>
    1822: a4 14        	ldy	$14                     ; 0x14 <__rc4>
    1824: d0 03        	bne	$1829 <__mulsi3+0x13>
    1826: 4c 7d 18     	jmp	$187d <__mulsi3+0x67>
    1829: 85 18        	sta	$18                     ; 0x18 <__rc8>
    182b: 86 19        	stx	$19                     ; 0x19 <__rc9>
    182d: a0 00        	ldy	#$0
    182f: a2 00        	ldx	#$0
    1831: 64 1a        	stz	$1a                     ; 0x1a <__rc10>
    1833: 98           	tya
    1834: 46 17        	lsr	$17                     ; 0x17 <__rc7>
    1836: 66 16        	ror	$16                     ; 0x16 <__rc6>
    1838: 66 15        	ror	$15                     ; 0x15 <__rc5>
    183a: 66 14        	ror	$14                     ; 0x14 <__rc4>
    183c: 90 15        	bcc	$1853 <__mulsi3+0x3d>
    183e: 85 1b        	sta	$1b                     ; 0x1b <__rc11>
    1840: 98           	tya
    1841: 18           	clc
    1842: 65 18        	adc	$18                     ; 0x18 <__rc8>
    1844: a8           	tay
    1845: 8a           	txa
    1846: 65 19        	adc	$19                     ; 0x19 <__rc9>
    1848: aa           	tax
    1849: a5 1a        	lda	$1a                     ; 0x1a <__rc10>
    184b: 65 12        	adc	$12                     ; 0x12 <__rc2>
    184d: 85 1a        	sta	$1a                     ; 0x1a <__rc10>
    184f: a5 1b        	lda	$1b                     ; 0x1b <__rc11>
    1851: 65 13        	adc	$13                     ; 0x13 <__rc3>
    1853: 06 18        	asl	$18                     ; 0x18 <__rc8>
    1855: 26 19        	rol	$19                     ; 0x19 <__rc9>
    1857: 26 12        	rol	$12                     ; 0x12 <__rc2>
    1859: 26 13        	rol	$13                     ; 0x13 <__rc3>
    185b: e6 17        	inc	$17                     ; 0x17 <__rc7>
    185d: c6 17        	dec	$17                     ; 0x17 <__rc7>
    185f: d0 d3        	bne	$1834 <__mulsi3+0x1e>
    1861: e6 16        	inc	$16                     ; 0x16 <__rc6>
    1863: c6 16        	dec	$16                     ; 0x16 <__rc6>
    1865: d0 cd        	bne	$1834 <__mulsi3+0x1e>
    1867: e6 15        	inc	$15                     ; 0x15 <__rc5>
    1869: c6 15        	dec	$15                     ; 0x15 <__rc5>
    186b: d0 c7        	bne	$1834 <__mulsi3+0x1e>
    186d: e6 14        	inc	$14                     ; 0x14 <__rc4>
    186f: c6 14        	dec	$14                     ; 0x14 <__rc4>
    1871: d0 c1        	bne	$1834 <__mulsi3+0x1e>
    1873: 5a           	phy
    1874: a4 1a        	ldy	$1a                     ; 0x1a <__rc10>
    1876: 84 12        	sty	$12                     ; 0x12 <__rc2>
    1878: 7a           	ply
    1879: 85 13        	sta	$13                     ; 0x13 <__rc3>
    187b: 98           	tya
    187c: 60           	rts
    187d: a0 00        	ldy	#$0
    187f: a2 00        	ldx	#$0
    1881: 64 1a        	stz	$1a                     ; 0x1a <__rc10>
    1883: 98           	tya
    1884: 80 ed        	bra	$1873 <__mulsi3+0x5d>

00001886 <__muldi3>:
    1886: a4 1f        	ldy	$1f                     ; 0x1f <__rc15>
    1888: d0 1f        	bne	$18a9 <__muldi3+0x23>
    188a: a4 1e        	ldy	$1e                     ; 0x1e <__rc14>
    188c: d0 1b        	bne	$18a9 <__muldi3+0x23>
    188e: a4 1d        	ldy	$1d                     ; 0x1d <__rc13>
    1890: d0 17        	bne	$18a9 <__muldi3+0x23>
    1892: a4 1c        	ldy	$1c                     ; 0x1c <__rc12>
    1894: d0 13        	bne	$18a9 <__muldi3+0x23>
    1896: a4 1b        	ldy	$1b                     ; 0x1b <__rc11>
    1898: d0 0f        	bne	$18a9 <__muldi3+0x23>
    189a: a4 1a        	ldy	$1a                     ; 0x1a <__rc10>
    189c: d0 0b        	bne	$18a9 <__muldi3+0x23>
    189e: a4 19        	ldy	$19                     ; 0x19 <__rc9>
    18a0: d0 07        	bne	$18a9 <__muldi3+0x23>
    18a2: a4 18        	ldy	$18                     ; 0x18 <__rc8>
    18a4: d0 03        	bne	$18a9 <__muldi3+0x23>
    18a6: 4c 6d 19     	jmp	$196d <__muldi3+0xe7>
    18a9: 85 22        	sta	$22                     ; 0x22 <__rc18>
    18ab: 86 23        	stx	$23                     ; 0x23 <__rc19>
    18ad: a0 00        	ldy	#$0
    18af: a2 00        	ldx	#$0
    18b1: 64 c4        	stz	$c4                     ; 0xc4 <__zp_bss_size+0x6f>
    18b3: 64 c5        	stz	$c5                     ; 0xc5 <__zp_bss_size+0x70>
    18b5: 64 c6        	stz	$c6                     ; 0xc6 <__zp_bss_size+0x71>
    18b7: 64 c7        	stz	$c7                     ; 0xc7 <__zp_bss_size+0x72>
    18b9: 64 c8        	stz	$c8                     ; 0xc8 <__zp_bss_size+0x73>
    18bb: 98           	tya
    18bc: 46 1f        	lsr	$1f                     ; 0x1f <__rc15>
    18be: 66 1e        	ror	$1e                     ; 0x1e <__rc14>
    18c0: 66 1d        	ror	$1d                     ; 0x1d <__rc13>
    18c2: 66 1c        	ror	$1c                     ; 0x1c <__rc12>
    18c4: 66 1b        	ror	$1b                     ; 0x1b <__rc11>
    18c6: 66 1a        	ror	$1a                     ; 0x1a <__rc10>
    18c8: 66 19        	ror	$19                     ; 0x19 <__rc9>
    18ca: 66 18        	ror	$18                     ; 0x18 <__rc8>
    18cc: 90 2d        	bcc	$18fb <__muldi3+0x75>
    18ce: 85 c9        	sta	$c9                     ; 0xc9 <__zp_bss_size+0x74>
    18d0: 98           	tya
    18d1: 18           	clc
    18d2: 65 22        	adc	$22                     ; 0x22 <__rc18>
    18d4: a8           	tay
    18d5: 8a           	txa
    18d6: 65 23        	adc	$23                     ; 0x23 <__rc19>
    18d8: aa           	tax
    18d9: a5 c4        	lda	$c4                     ; 0xc4 <__zp_bss_size+0x6f>
    18db: 65 12        	adc	$12                     ; 0x12 <__rc2>
    18dd: 85 c4        	sta	$c4                     ; 0xc4 <__zp_bss_size+0x6f>
    18df: a5 c5        	lda	$c5                     ; 0xc5 <__zp_bss_size+0x70>
    18e1: 65 13        	adc	$13                     ; 0x13 <__rc3>
    18e3: 85 c5        	sta	$c5                     ; 0xc5 <__zp_bss_size+0x70>
    18e5: a5 c6        	lda	$c6                     ; 0xc6 <__zp_bss_size+0x71>
    18e7: 65 14        	adc	$14                     ; 0x14 <__rc4>
    18e9: 85 c6        	sta	$c6                     ; 0xc6 <__zp_bss_size+0x71>
    18eb: a5 c7        	lda	$c7                     ; 0xc7 <__zp_bss_size+0x72>
    18ed: 65 15        	adc	$15                     ; 0x15 <__rc5>
    18ef: 85 c7        	sta	$c7                     ; 0xc7 <__zp_bss_size+0x72>
    18f1: a5 c8        	lda	$c8                     ; 0xc8 <__zp_bss_size+0x73>
    18f3: 65 16        	adc	$16                     ; 0x16 <__rc6>
    18f5: 85 c8        	sta	$c8                     ; 0xc8 <__zp_bss_size+0x73>
    18f7: a5 c9        	lda	$c9                     ; 0xc9 <__zp_bss_size+0x74>
    18f9: 65 17        	adc	$17                     ; 0x17 <__rc7>
    18fb: 06 22        	asl	$22                     ; 0x22 <__rc18>
    18fd: 26 23        	rol	$23                     ; 0x23 <__rc19>
    18ff: 26 12        	rol	$12                     ; 0x12 <__rc2>
    1901: 26 13        	rol	$13                     ; 0x13 <__rc3>
    1903: 26 14        	rol	$14                     ; 0x14 <__rc4>
    1905: 26 15        	rol	$15                     ; 0x15 <__rc5>
    1907: 26 16        	rol	$16                     ; 0x16 <__rc6>
    1909: 26 17        	rol	$17                     ; 0x17 <__rc7>
    190b: e6 1f        	inc	$1f                     ; 0x1f <__rc15>
    190d: c6 1f        	dec	$1f                     ; 0x1f <__rc15>
    190f: f0 03        	beq	$1914 <__muldi3+0x8e>
    1911: 4c bc 18     	jmp	$18bc <__muldi3+0x36>
    1914: e6 1e        	inc	$1e                     ; 0x1e <__rc14>
    1916: c6 1e        	dec	$1e                     ; 0x1e <__rc14>
    1918: f0 03        	beq	$191d <__muldi3+0x97>
    191a: 4c bc 18     	jmp	$18bc <__muldi3+0x36>
    191d: e6 1d        	inc	$1d                     ; 0x1d <__rc13>
    191f: c6 1d        	dec	$1d                     ; 0x1d <__rc13>
    1921: f0 03        	beq	$1926 <__muldi3+0xa0>
    1923: 4c bc 18     	jmp	$18bc <__muldi3+0x36>
    1926: e6 1c        	inc	$1c                     ; 0x1c <__rc12>
    1928: c6 1c        	dec	$1c                     ; 0x1c <__rc12>
    192a: f0 03        	beq	$192f <__muldi3+0xa9>
    192c: 4c bc 18     	jmp	$18bc <__muldi3+0x36>
    192f: e6 1b        	inc	$1b                     ; 0x1b <__rc11>
    1931: c6 1b        	dec	$1b                     ; 0x1b <__rc11>
    1933: f0 03        	beq	$1938 <__muldi3+0xb2>
    1935: 4c bc 18     	jmp	$18bc <__muldi3+0x36>
    1938: e6 1a        	inc	$1a                     ; 0x1a <__rc10>
    193a: c6 1a        	dec	$1a                     ; 0x1a <__rc10>
    193c: f0 03        	beq	$1941 <__muldi3+0xbb>
    193e: 4c bc 18     	jmp	$18bc <__muldi3+0x36>
    1941: e6 19        	inc	$19                     ; 0x19 <__rc9>
    1943: c6 19        	dec	$19                     ; 0x19 <__rc9>
    1945: f0 03        	beq	$194a <__muldi3+0xc4>
    1947: 4c bc 18     	jmp	$18bc <__muldi3+0x36>
    194a: e6 18        	inc	$18                     ; 0x18 <__rc8>
    194c: c6 18        	dec	$18                     ; 0x18 <__rc8>
    194e: f0 03        	beq	$1953 <__muldi3+0xcd>
    1950: 4c bc 18     	jmp	$18bc <__muldi3+0x36>
    1953: 5a           	phy
    1954: a4 c4        	ldy	$c4                     ; 0xc4 <__zp_bss_size+0x6f>
    1956: 84 12        	sty	$12                     ; 0x12 <__rc2>
    1958: a4 c5        	ldy	$c5                     ; 0xc5 <__zp_bss_size+0x70>
    195a: 84 13        	sty	$13                     ; 0x13 <__rc3>
    195c: a4 c6        	ldy	$c6                     ; 0xc6 <__zp_bss_size+0x71>
    195e: 84 14        	sty	$14                     ; 0x14 <__rc4>
    1960: a4 c7        	ldy	$c7                     ; 0xc7 <__zp_bss_size+0x72>
    1962: 84 15        	sty	$15                     ; 0x15 <__rc5>
    1964: a4 c8        	ldy	$c8                     ; 0xc8 <__zp_bss_size+0x73>
    1966: 84 16        	sty	$16                     ; 0x16 <__rc6>
    1968: 7a           	ply
    1969: 85 17        	sta	$17                     ; 0x17 <__rc7>
    196b: 98           	tya
    196c: 60           	rts
    196d: a0 00        	ldy	#$0
    196f: a2 00        	ldx	#$0
    1971: 64 c4        	stz	$c4                     ; 0xc4 <__zp_bss_size+0x6f>
    1973: 64 c5        	stz	$c5                     ; 0xc5 <__zp_bss_size+0x70>
    1975: 64 c6        	stz	$c6                     ; 0xc6 <__zp_bss_size+0x71>
    1977: 64 c7        	stz	$c7                     ; 0xc7 <__zp_bss_size+0x72>
    1979: 64 c8        	stz	$c8                     ; 0xc8 <__zp_bss_size+0x73>
    197b: 98           	tya
    197c: 80 d5        	bra	$1953 <__muldi3+0xcd>

0000197e <__mulsf3>:
    197e: 85 1b        	sta	$1b                     ; 0x1b <__rc11>
    1980: 86 18        	stx	$18                     ; 0x18 <__rc8>
    1982: a6 12        	ldx	$12                     ; 0x12 <__rc2>
    1984: 86 19        	stx	$19                     ; 0x19 <__rc9>
    1986: a6 14        	ldx	$14                     ; 0x14 <__rc4>
    1988: 86 b5        	stx	$b5                     ; 0xb5 <__zp_bss_size+0x60>
    198a: a6 15        	ldx	$15                     ; 0x15 <__rc5>
    198c: 86 b6        	stx	$b6                     ; 0xb6 <__zp_bss_size+0x61>
    198e: a5 12        	lda	$12                     ; 0x12 <__rc2>
    1990: 0a           	asl
    1991: a6 13        	ldx	$13                     ; 0x13 <__rc3>
    1993: 86 14        	stx	$14                     ; 0x14 <__rc4>
    1995: 26 14        	rol	$14                     ; 0x14 <__rc4>
    1997: a5 16        	lda	$16                     ; 0x16 <__rc6>
    1999: a6 17        	ldx	$17                     ; 0x17 <__rc7>
    199b: 86 12        	stx	$12                     ; 0x12 <__rc2>
    199d: 0a           	asl
    199e: 26 12        	rol	$12                     ; 0x12 <__rc2>
    19a0: 18           	clc
    19a1: a6 14        	ldx	$14                     ; 0x14 <__rc4>
    19a3: 86 bb        	stx	$bb                     ; 0xbb <__zp_bss_size+0x66>
    19a5: a5 14        	lda	$14                     ; 0x14 <__rc4>
    19a7: 69 01        	adc	#$1
    19a9: aa           	tax
    19aa: a9 00        	lda	#$0
    19ac: 69 ff        	adc	#$ff
    19ae: a8           	tay
    19af: a5 13        	lda	$13                     ; 0x13 <__rc3>
    19b1: 85 15        	sta	$15                     ; 0x15 <__rc5>
    19b3: a5 17        	lda	$17                     ; 0x17 <__rc7>
    19b5: 45 13        	eor	$13                     ; 0x13 <__rc3>
    19b7: 29 80        	and	#$80
    19b9: 85 b8        	sta	$b8                     ; 0xb8 <__zp_bss_size+0x63>
    19bb: a5 19        	lda	$19                     ; 0x19 <__rc9>
    19bd: 29 7f        	and	#$7f
    19bf: 85 b9        	sta	$b9                     ; 0xb9 <__zp_bss_size+0x64>
    19c1: a5 16        	lda	$16                     ; 0x16 <__rc6>
    19c3: 85 b7        	sta	$b7                     ; 0xb7 <__zp_bss_size+0x62>
    19c5: a5 16        	lda	$16                     ; 0x16 <__rc6>
    19c7: 29 7f        	and	#$7f
    19c9: 85 ba        	sta	$ba                     ; 0xba <__zp_bss_size+0x65>
    19cb: c0 ff        	cpy	#$ff
    19cd: d0 04        	bne	$19d3 <__mulsf3+0x55>
    19cf: e0 02        	cpx	#$2
    19d1: 80 02        	bra	$19d5 <__mulsf3+0x57>
    19d3: c0 ff        	cpy	#$ff
    19d5: a6 13        	ldx	$13                     ; 0x13 <__rc3>
    19d7: a5 19        	lda	$19                     ; 0x19 <__rc9>
    19d9: 90 30        	bcc	$1a0b <__mulsf3+0x8d>
    19db: 18           	clc
    19dc: a5 12        	lda	$12                     ; 0x12 <__rc2>
    19de: 69 01        	adc	#$1
    19e0: a8           	tay
    19e1: a2 00        	ldx	#$0
    19e3: 8a           	txa
    19e4: 69 ff        	adc	#$ff
    19e6: c9 ff        	cmp	#$ff
    19e8: d0 19        	bne	$1a03 <__mulsf3+0x85>
    19ea: c0 02        	cpy	#$2
    19ec: 90 19        	bcc	$1a07 <__mulsf3+0x89>
    19ee: a4 1b        	ldy	$1b                     ; 0x1b <__rc11>
    19f0: 84 be        	sty	$be                     ; 0xbe <__zp_bss_size+0x69>
    19f2: a4 12        	ldy	$12                     ; 0x12 <__rc2>
    19f4: 84 bd        	sty	$bd                     ; 0xbd <__zp_bss_size+0x68>
    19f6: a0 00        	ldy	#$0
    19f8: 84 bc        	sty	$bc                     ; 0xbc <__zp_bss_size+0x67>
    19fa: 84 bf        	sty	$bf                     ; 0xbf <__zp_bss_size+0x6a>
    19fc: a4 18        	ldy	$18                     ; 0x18 <__rc8>
    19fe: 84 14        	sty	$14                     ; 0x14 <__rc4>
    1a00: 4c ac 1f     	jmp	$1fac <__mulsf3+0x62e>
    1a03: c9 ff        	cmp	#$ff
    1a05: b0 e7        	bcs	$19ee <__mulsf3+0x70>
    1a07: a6 13        	ldx	$13                     ; 0x13 <__rc3>
    1a09: a5 19        	lda	$19                     ; 0x19 <__rc9>
    1a0b: 85 14        	sta	$14                     ; 0x14 <__rc4>
    1a0d: 8a           	txa
    1a0e: 29 7f        	and	#$7f
    1a10: c9 7f        	cmp	#$7f
    1a12: d0 14        	bne	$1a28 <__mulsf3+0xaa>
    1a14: 85 13        	sta	$13                     ; 0x13 <__rc3>
    1a16: a5 14        	lda	$14                     ; 0x14 <__rc4>
    1a18: c9 80        	cmp	#$80
    1a1a: d0 42        	bne	$1a5e <__mulsf3+0xe0>
    1a1c: a6 18        	ldx	$18                     ; 0x18 <__rc8>
    1a1e: d0 53        	bne	$1a73 <__mulsf3+0xf5>
    1a20: a6 1b        	ldx	$1b                     ; 0x1b <__rc11>
    1a22: e0 01        	cpx	#$1
    1a24: 90 0a        	bcc	$1a30 <__mulsf3+0xb2>
    1a26: 80 3a        	bra	$1a62 <__mulsf3+0xe4>
    1a28: 85 13        	sta	$13                     ; 0x13 <__rc3>
    1a2a: c9 7f        	cmp	#$7f
    1a2c: a5 14        	lda	$14                     ; 0x14 <__rc4>
    1a2e: b0 32        	bcs	$1a62 <__mulsf3+0xe4>
    1a30: a5 17        	lda	$17                     ; 0x17 <__rc7>
    1a32: 29 7f        	and	#$7f
    1a34: 85 bc        	sta	$bc                     ; 0xbc <__zp_bss_size+0x67>
    1a36: c9 7f        	cmp	#$7f
    1a38: d0 35        	bne	$1a6f <__mulsf3+0xf1>
    1a3a: a6 16        	ldx	$16                     ; 0x16 <__rc6>
    1a3c: e0 80        	cpx	#$80
    1a3e: d0 3b        	bne	$1a7b <__mulsf3+0xfd>
    1a40: a5 19        	lda	$19                     ; 0x19 <__rc9>
    1a42: a6 b6        	ldx	$b6                     ; 0xb6 <__zp_bss_size+0x61>
    1a44: f0 03        	beq	$1a49 <__mulsf3+0xcb>
    1a46: 4c 4d 1b     	jmp	$1b4d <__mulsf3+0x1cf>
    1a49: a6 b5        	ldx	$b5                     ; 0xb5 <__zp_bss_size+0x60>
    1a4b: e0 01        	cpx	#$1
    1a4d: 90 32        	bcc	$1a81 <__mulsf3+0x103>
    1a4f: a5 16        	lda	$16                     ; 0x16 <__rc6>
    1a51: 09 40        	ora	#$40
    1a53: a6 b5        	ldx	$b5                     ; 0xb5 <__zp_bss_size+0x60>
    1a55: 86 14        	stx	$14                     ; 0x14 <__rc4>
    1a57: a4 b6        	ldy	$b6                     ; 0xb6 <__zp_bss_size+0x61>
    1a59: a6 17        	ldx	$17                     ; 0x17 <__rc7>
    1a5b: 4c 2d 22     	jmp	$222d <__mulsf3+0x8af>
    1a5e: c9 80        	cmp	#$80
    1a60: 90 ce        	bcc	$1a30 <__mulsf3+0xb2>
    1a62: a6 1b        	ldx	$1b                     ; 0x1b <__rc11>
    1a64: 86 14        	stx	$14                     ; 0x14 <__rc4>
    1a66: 09 40        	ora	#$40
    1a68: a4 18        	ldy	$18                     ; 0x18 <__rc8>
    1a6a: a6 15        	ldx	$15                     ; 0x15 <__rc5>
    1a6c: 4c 2d 22     	jmp	$222d <__mulsf3+0x8af>
    1a6f: c9 7f        	cmp	#$7f
    1a71: 80 0a        	bra	$1a7d <__mulsf3+0xff>
    1a73: a6 18        	ldx	$18                     ; 0x18 <__rc8>
    1a75: e0 00        	cpx	#$0
    1a77: 90 b7        	bcc	$1a30 <__mulsf3+0xb2>
    1a79: 80 e7        	bra	$1a62 <__mulsf3+0xe4>
    1a7b: e0 80        	cpx	#$80
    1a7d: a5 19        	lda	$19                     ; 0x19 <__rc9>
    1a7f: b0 ce        	bcs	$1a4f <__mulsf3+0xd1>
    1a81: a6 13        	ldx	$13                     ; 0x13 <__rc3>
    1a83: 86 16        	stx	$16                     ; 0x16 <__rc6>
    1a85: e0 7f        	cpx	#$7f
    1a87: d0 2c        	bne	$1ab5 <__mulsf3+0x137>
    1a89: c9 80        	cmp	#$80
    1a8b: d0 28        	bne	$1ab5 <__mulsf3+0x137>
    1a8d: a6 18        	ldx	$18                     ; 0x18 <__rc8>
    1a8f: d0 24        	bne	$1ab5 <__mulsf3+0x137>
    1a91: a6 1b        	ldx	$1b                     ; 0x1b <__rc11>
    1a93: d0 20        	bne	$1ab5 <__mulsf3+0x137>
    1a95: a6 bc        	ldx	$bc                     ; 0xbc <__zp_bss_size+0x67>
    1a97: 86 12        	stx	$12                     ; 0x12 <__rc2>
    1a99: a5 12        	lda	$12                     ; 0x12 <__rc2>
    1a9b: f0 03        	beq	$1aa0 <__mulsf3+0x122>
    1a9d: 4c 8b 20     	jmp	$208b <__mulsf3+0x70d>
    1aa0: a5 b7        	lda	$b7                     ; 0xb7 <__zp_bss_size+0x62>
    1aa2: f0 03        	beq	$1aa7 <__mulsf3+0x129>
    1aa4: 4c 8b 20     	jmp	$208b <__mulsf3+0x70d>
    1aa7: a5 b6        	lda	$b6                     ; 0xb6 <__zp_bss_size+0x61>
    1aa9: f0 03        	beq	$1aae <__mulsf3+0x130>
    1aab: 4c 8b 20     	jmp	$208b <__mulsf3+0x70d>
    1aae: a5 b5        	lda	$b5                     ; 0xb5 <__zp_bss_size+0x60>
    1ab0: f0 33        	beq	$1ae5 <__mulsf3+0x167>
    1ab2: 4c 8b 20     	jmp	$208b <__mulsf3+0x70d>
    1ab5: a6 bc        	ldx	$bc                     ; 0xbc <__zp_bss_size+0x67>
    1ab7: e0 7f        	cpx	#$7f
    1ab9: d0 35        	bne	$1af0 <__mulsf3+0x172>
    1abb: a6 b7        	ldx	$b7                     ; 0xb7 <__zp_bss_size+0x62>
    1abd: e0 80        	cpx	#$80
    1abf: d0 2f        	bne	$1af0 <__mulsf3+0x172>
    1ac1: a6 b6        	ldx	$b6                     ; 0xb6 <__zp_bss_size+0x61>
    1ac3: d0 2b        	bne	$1af0 <__mulsf3+0x172>
    1ac5: a6 b5        	ldx	$b5                     ; 0xb5 <__zp_bss_size+0x60>
    1ac7: d0 27        	bne	$1af0 <__mulsf3+0x172>
    1ac9: a4 1b        	ldy	$1b                     ; 0x1b <__rc11>
    1acb: a6 16        	ldx	$16                     ; 0x16 <__rc6>
    1acd: f0 03        	beq	$1ad2 <__mulsf3+0x154>
    1acf: 4c 8b 20     	jmp	$208b <__mulsf3+0x70d>
    1ad2: aa           	tax
    1ad3: f0 03        	beq	$1ad8 <__mulsf3+0x15a>
    1ad5: 4c 8b 20     	jmp	$208b <__mulsf3+0x70d>
    1ad8: a5 18        	lda	$18                     ; 0x18 <__rc8>
    1ada: f0 03        	beq	$1adf <__mulsf3+0x161>
    1adc: 4c 8b 20     	jmp	$208b <__mulsf3+0x70d>
    1adf: 98           	tya
    1ae0: f0 03        	beq	$1ae5 <__mulsf3+0x167>
    1ae2: 4c 8b 20     	jmp	$208b <__mulsf3+0x70d>
    1ae5: a9 c0        	lda	#$c0
    1ae7: a2 7f        	ldx	#$7f
    1ae9: 64 14        	stz	$14                     ; 0x14 <__rc4>
    1aeb: a0 00        	ldy	#$0
    1aed: 4c 2d 22     	jmp	$222d <__mulsf3+0x8af>
    1af0: a6 18        	ldx	$18                     ; 0x18 <__rc8>
    1af2: a4 16        	ldy	$16                     ; 0x16 <__rc6>
    1af4: 84 13        	sty	$13                     ; 0x13 <__rc3>
    1af6: a4 1b        	ldy	$1b                     ; 0x1b <__rc11>
    1af8: 84 14        	sty	$14                     ; 0x14 <__rc4>
    1afa: a4 13        	ldy	$13                     ; 0x13 <__rc3>
    1afc: d0 0d        	bne	$1b0b <__mulsf3+0x18d>
    1afe: a8           	tay
    1aff: d0 0a        	bne	$1b0b <__mulsf3+0x18d>
    1b01: 8a           	txa
    1b02: d0 07        	bne	$1b0b <__mulsf3+0x18d>
    1b04: a5 14        	lda	$14                     ; 0x14 <__rc4>
    1b06: d0 03        	bne	$1b0b <__mulsf3+0x18d>
    1b08: 4c ea 20     	jmp	$20ea <__mulsf3+0x76c>
    1b0b: a6 b5        	ldx	$b5                     ; 0xb5 <__zp_bss_size+0x60>
    1b0d: a4 b6        	ldy	$b6                     ; 0xb6 <__zp_bss_size+0x61>
    1b0f: 84 13        	sty	$13                     ; 0x13 <__rc3>
    1b11: a4 b7        	ldy	$b7                     ; 0xb7 <__zp_bss_size+0x62>
    1b13: 84 14        	sty	$14                     ; 0x14 <__rc4>
    1b15: a5 bc        	lda	$bc                     ; 0xbc <__zp_bss_size+0x67>
    1b17: 85 15        	sta	$15                     ; 0x15 <__rc5>
    1b19: a5 15        	lda	$15                     ; 0x15 <__rc5>
    1b1b: d0 0e        	bne	$1b2b <__mulsf3+0x1ad>
    1b1d: a5 14        	lda	$14                     ; 0x14 <__rc4>
    1b1f: d0 0a        	bne	$1b2b <__mulsf3+0x1ad>
    1b21: a5 13        	lda	$13                     ; 0x13 <__rc3>
    1b23: d0 06        	bne	$1b2b <__mulsf3+0x1ad>
    1b25: 8a           	txa
    1b26: d0 03        	bne	$1b2b <__mulsf3+0x1ad>
    1b28: 4c ea 20     	jmp	$20ea <__mulsf3+0x76c>
    1b2b: a5 16        	lda	$16                     ; 0x16 <__rc6>
    1b2d: d0 16        	bne	$1b45 <__mulsf3+0x1c7>
    1b2f: a6 19        	ldx	$19                     ; 0x19 <__rc9>
    1b31: e0 80        	cpx	#$80
    1b33: d0 24        	bne	$1b59 <__mulsf3+0x1db>
    1b35: a6 18        	ldx	$18                     ; 0x18 <__rc8>
    1b37: a5 b7        	lda	$b7                     ; 0xb7 <__zp_bss_size+0x62>
    1b39: a4 18        	ldy	$18                     ; 0x18 <__rc8>
    1b3b: d0 35        	bne	$1b72 <__mulsf3+0x1f4>
    1b3d: a4 1b        	ldy	$1b                     ; 0x1b <__rc11>
    1b3f: c0 00        	cpy	#$0
    1b41: b0 1e        	bcs	$1b61 <__mulsf3+0x1e3>
    1b43: 80 31        	bra	$1b76 <__mulsf3+0x1f8>
    1b45: a6 16        	ldx	$16                     ; 0x16 <__rc6>
    1b47: e0 00        	cpx	#$0
    1b49: b0 12        	bcs	$1b5d <__mulsf3+0x1df>
    1b4b: 80 29        	bra	$1b76 <__mulsf3+0x1f8>
    1b4d: a6 b6        	ldx	$b6                     ; 0xb6 <__zp_bss_size+0x61>
    1b4f: e0 00        	cpx	#$0
    1b51: 90 03        	bcc	$1b56 <__mulsf3+0x1d8>
    1b53: 4c 4f 1a     	jmp	$1a4f <__mulsf3+0xd1>
    1b56: 4c 81 1a     	jmp	$1a81 <__mulsf3+0x103>
    1b59: e0 80        	cpx	#$80
    1b5b: 90 19        	bcc	$1b76 <__mulsf3+0x1f8>
    1b5d: a6 18        	ldx	$18                     ; 0x18 <__rc8>
    1b5f: a5 b7        	lda	$b7                     ; 0xb7 <__zp_bss_size+0x62>
    1b61: 86 14        	stx	$14                     ; 0x14 <__rc4>
    1b63: a4 1b        	ldy	$1b                     ; 0x1b <__rc11>
    1b65: 84 be        	sty	$be                     ; 0xbe <__zp_bss_size+0x69>
    1b67: a2 00        	ldx	#$0
    1b69: a0 00        	ldy	#$0
    1b6b: 84 c0        	sty	$c0                     ; 0xc0 <__zp_bss_size+0x6b>
    1b6d: 84 bf        	sty	$bf                     ; 0xbf <__zp_bss_size+0x6a>
    1b6f: 4c 6c 1d     	jmp	$1d6c <__mulsf3+0x3ee>
    1b72: e0 00        	cpx	#$0
    1b74: b0 eb        	bcs	$1b61 <__mulsf3+0x1e3>
    1b76: a6 12        	ldx	$12                     ; 0x12 <__rc2>
    1b78: 86 bd        	stx	$bd                     ; 0xbd <__zp_bss_size+0x68>
    1b7a: a6 b9        	ldx	$b9                     ; 0xb9 <__zp_bss_size+0x64>
    1b7c: 86 16        	stx	$16                     ; 0x16 <__rc6>
    1b7e: 8a           	txa
    1b7f: 4a           	lsr
    1b80: 85 12        	sta	$12                     ; 0x12 <__rc2>
    1b82: a6 18        	ldx	$18                     ; 0x18 <__rc8>
    1b84: a5 18        	lda	$18                     ; 0x18 <__rc8>
    1b86: 6a           	ror
    1b87: 85 13        	sta	$13                     ; 0x13 <__rc3>
    1b89: a5 1b        	lda	$1b                     ; 0x1b <__rc11>
    1b8b: 6a           	ror
    1b8c: 85 14        	sta	$14                     ; 0x14 <__rc4>
    1b8e: a5 1b        	lda	$1b                     ; 0x1b <__rc11>
    1b90: 05 14        	ora	$14                     ; 0x14 <__rc4>
    1b92: 85 17        	sta	$17                     ; 0x17 <__rc7>
    1b94: a5 18        	lda	$18                     ; 0x18 <__rc8>
    1b96: 05 13        	ora	$13                     ; 0x13 <__rc3>
    1b98: 85 15        	sta	$15                     ; 0x15 <__rc5>
    1b9a: a5 16        	lda	$16                     ; 0x16 <__rc6>
    1b9c: 05 12        	ora	$12                     ; 0x12 <__rc2>
    1b9e: 85 18        	sta	$18                     ; 0x18 <__rc8>
    1ba0: 4a           	lsr
    1ba1: a4 15        	ldy	$15                     ; 0x15 <__rc5>
    1ba3: 84 12        	sty	$12                     ; 0x12 <__rc2>
    1ba5: 66 12        	ror	$12                     ; 0x12 <__rc2>
    1ba7: a4 17        	ldy	$17                     ; 0x17 <__rc7>
    1ba9: 84 13        	sty	$13                     ; 0x13 <__rc3>
    1bab: 66 13        	ror	$13                     ; 0x13 <__rc3>
    1bad: 4a           	lsr
    1bae: 85 14        	sta	$14                     ; 0x14 <__rc4>
    1bb0: 66 12        	ror	$12                     ; 0x12 <__rc2>
    1bb2: 66 13        	ror	$13                     ; 0x13 <__rc3>
    1bb4: a5 17        	lda	$17                     ; 0x17 <__rc7>
    1bb6: 05 13        	ora	$13                     ; 0x13 <__rc3>
    1bb8: 85 17        	sta	$17                     ; 0x17 <__rc7>
    1bba: a5 15        	lda	$15                     ; 0x15 <__rc5>
    1bbc: 05 12        	ora	$12                     ; 0x12 <__rc2>
    1bbe: 85 15        	sta	$15                     ; 0x15 <__rc5>
    1bc0: a5 18        	lda	$18                     ; 0x18 <__rc8>
    1bc2: 05 14        	ora	$14                     ; 0x14 <__rc4>
    1bc4: 85 18        	sta	$18                     ; 0x18 <__rc8>
    1bc6: 4a           	lsr
    1bc7: a4 15        	ldy	$15                     ; 0x15 <__rc5>
    1bc9: 84 12        	sty	$12                     ; 0x12 <__rc2>
    1bcb: 66 12        	ror	$12                     ; 0x12 <__rc2>
    1bcd: a4 17        	ldy	$17                     ; 0x17 <__rc7>
    1bcf: 84 13        	sty	$13                     ; 0x13 <__rc3>
    1bd1: 66 13        	ror	$13                     ; 0x13 <__rc3>
    1bd3: 4a           	lsr
    1bd4: 66 12        	ror	$12                     ; 0x12 <__rc2>
    1bd6: 66 13        	ror	$13                     ; 0x13 <__rc3>
    1bd8: 4a           	lsr
    1bd9: 66 12        	ror	$12                     ; 0x12 <__rc2>
    1bdb: 66 13        	ror	$13                     ; 0x13 <__rc3>
    1bdd: 4a           	lsr
    1bde: 85 14        	sta	$14                     ; 0x14 <__rc4>
    1be0: 66 12        	ror	$12                     ; 0x12 <__rc2>
    1be2: 66 13        	ror	$13                     ; 0x13 <__rc3>
    1be4: a5 17        	lda	$17                     ; 0x17 <__rc7>
    1be6: 05 13        	ora	$13                     ; 0x13 <__rc3>
    1be8: 85 17        	sta	$17                     ; 0x17 <__rc7>
    1bea: a5 15        	lda	$15                     ; 0x15 <__rc5>
    1bec: 05 12        	ora	$12                     ; 0x12 <__rc2>
    1bee: 85 13        	sta	$13                     ; 0x13 <__rc3>
    1bf0: a5 18        	lda	$18                     ; 0x18 <__rc8>
    1bf2: 05 14        	ora	$14                     ; 0x14 <__rc4>
    1bf4: a8           	tay
    1bf5: a5 17        	lda	$17                     ; 0x17 <__rc7>
    1bf7: 05 13        	ora	$13                     ; 0x13 <__rc3>
    1bf9: 85 14        	sta	$14                     ; 0x14 <__rc4>
    1bfb: 84 12        	sty	$12                     ; 0x12 <__rc2>
    1bfd: a5 13        	lda	$13                     ; 0x13 <__rc3>
    1bff: 05 12        	ora	$12                     ; 0x12 <__rc2>
    1c01: 85 15        	sta	$15                     ; 0x15 <__rc5>
    1c03: a5 14        	lda	$14                     ; 0x14 <__rc4>
    1c05: 05 12        	ora	$12                     ; 0x12 <__rc2>
    1c07: 85 17        	sta	$17                     ; 0x17 <__rc7>
    1c09: 84 14        	sty	$14                     ; 0x14 <__rc4>
    1c0b: 84 18        	sty	$18                     ; 0x18 <__rc8>
    1c0d: 46 14        	lsr	$14                     ; 0x14 <__rc4>
    1c0f: 4a           	lsr
    1c10: 29 55        	and	#$55
    1c12: 85 12        	sta	$12                     ; 0x12 <__rc2>
    1c14: a5 15        	lda	$15                     ; 0x15 <__rc5>
    1c16: 4a           	lsr
    1c17: 29 55        	and	#$55
    1c19: 85 13        	sta	$13                     ; 0x13 <__rc3>
    1c1b: a5 14        	lda	$14                     ; 0x14 <__rc4>
    1c1d: 29 55        	and	#$55
    1c1f: 85 14        	sta	$14                     ; 0x14 <__rc4>
    1c21: 38           	sec
    1c22: a5 17        	lda	$17                     ; 0x17 <__rc7>
    1c24: e5 12        	sbc	$12                     ; 0x12 <__rc2>
    1c26: a8           	tay
    1c27: a5 15        	lda	$15                     ; 0x15 <__rc5>
    1c29: e5 13        	sbc	$13                     ; 0x13 <__rc3>
    1c2b: 85 13        	sta	$13                     ; 0x13 <__rc3>
    1c2d: a5 18        	lda	$18                     ; 0x18 <__rc8>
    1c2f: e5 14        	sbc	$14                     ; 0x14 <__rc4>
    1c31: 85 14        	sta	$14                     ; 0x14 <__rc4>
    1c33: a9 00        	lda	#$0
    1c35: e9 00        	sbc	#$0
    1c37: 85 15        	sta	$15                     ; 0x15 <__rc5>
    1c39: 98           	tya
    1c3a: 29 33        	and	#$33
    1c3c: 85 12        	sta	$12                     ; 0x12 <__rc2>
    1c3e: a5 13        	lda	$13                     ; 0x13 <__rc3>
    1c40: 85 18        	sta	$18                     ; 0x18 <__rc8>
    1c42: 29 33        	and	#$33
    1c44: 85 13        	sta	$13                     ; 0x13 <__rc3>
    1c46: a5 14        	lda	$14                     ; 0x14 <__rc4>
    1c48: 85 19        	sta	$19                     ; 0x19 <__rc9>
    1c4a: 29 33        	and	#$33
    1c4c: 85 14        	sta	$14                     ; 0x14 <__rc4>
    1c4e: a5 15        	lda	$15                     ; 0x15 <__rc5>
    1c50: 4a           	lsr
    1c51: 85 1a        	sta	$1a                     ; 0x1a <__rc10>
    1c53: 46 19        	lsr	$19                     ; 0x19 <__rc9>
    1c55: 46 18        	lsr	$18                     ; 0x18 <__rc8>
    1c57: 98           	tya
    1c58: 4a           	lsr
    1c59: 46 1a        	lsr	$1a                     ; 0x1a <__rc10>
    1c5b: 46 19        	lsr	$19                     ; 0x19 <__rc9>
    1c5d: a4 18        	ldy	$18                     ; 0x18 <__rc8>
    1c5f: 84 17        	sty	$17                     ; 0x17 <__rc7>
    1c61: 46 17        	lsr	$17                     ; 0x17 <__rc7>
    1c63: 4a           	lsr
    1c64: 29 33        	and	#$33
    1c66: a8           	tay
    1c67: a5 17        	lda	$17                     ; 0x17 <__rc7>
    1c69: 29 33        	and	#$33
    1c6b: 85 17        	sta	$17                     ; 0x17 <__rc7>
    1c6d: a5 19        	lda	$19                     ; 0x19 <__rc9>
    1c6f: 29 33        	and	#$33
    1c71: 85 18        	sta	$18                     ; 0x18 <__rc8>
    1c73: a5 1a        	lda	$1a                     ; 0x1a <__rc10>
    1c75: 29 33        	and	#$33
    1c77: 85 19        	sta	$19                     ; 0x19 <__rc9>
    1c79: a5 15        	lda	$15                     ; 0x15 <__rc5>
    1c7b: 29 33        	and	#$33
    1c7d: 85 15        	sta	$15                     ; 0x15 <__rc5>
    1c7f: 18           	clc
    1c80: 98           	tya
    1c81: 65 12        	adc	$12                     ; 0x12 <__rc2>
    1c83: 85 12        	sta	$12                     ; 0x12 <__rc2>
    1c85: a5 17        	lda	$17                     ; 0x17 <__rc7>
    1c87: 65 13        	adc	$13                     ; 0x13 <__rc3>
    1c89: 85 13        	sta	$13                     ; 0x13 <__rc3>
    1c8b: a5 18        	lda	$18                     ; 0x18 <__rc8>
    1c8d: 65 14        	adc	$14                     ; 0x14 <__rc4>
    1c8f: 85 14        	sta	$14                     ; 0x14 <__rc4>
    1c91: a5 19        	lda	$19                     ; 0x19 <__rc9>
    1c93: 65 15        	adc	$15                     ; 0x15 <__rc5>
    1c95: 85 15        	sta	$15                     ; 0x15 <__rc5>
    1c97: 4a           	lsr
    1c98: 85 17        	sta	$17                     ; 0x17 <__rc7>
    1c9a: a5 14        	lda	$14                     ; 0x14 <__rc4>
    1c9c: 6a           	ror
    1c9d: a4 13        	ldy	$13                     ; 0x13 <__rc3>
    1c9f: 84 18        	sty	$18                     ; 0x18 <__rc8>
    1ca1: 66 18        	ror	$18                     ; 0x18 <__rc8>
    1ca3: a4 12        	ldy	$12                     ; 0x12 <__rc2>
    1ca5: 84 19        	sty	$19                     ; 0x19 <__rc9>
    1ca7: 66 19        	ror	$19                     ; 0x19 <__rc9>
    1ca9: 46 17        	lsr	$17                     ; 0x17 <__rc7>
    1cab: 6a           	ror
    1cac: 66 18        	ror	$18                     ; 0x18 <__rc8>
    1cae: 66 19        	ror	$19                     ; 0x19 <__rc9>
    1cb0: 46 17        	lsr	$17                     ; 0x17 <__rc7>
    1cb2: 6a           	ror
    1cb3: 66 18        	ror	$18                     ; 0x18 <__rc8>
    1cb5: 66 19        	ror	$19                     ; 0x19 <__rc9>
    1cb7: 46 17        	lsr	$17                     ; 0x17 <__rc7>
    1cb9: 6a           	ror
    1cba: a8           	tay
    1cbb: a5 18        	lda	$18                     ; 0x18 <__rc8>
    1cbd: 85 1a        	sta	$1a                     ; 0x1a <__rc10>
    1cbf: 66 1a        	ror	$1a                     ; 0x1a <__rc10>
    1cc1: a5 19        	lda	$19                     ; 0x19 <__rc9>
    1cc3: 6a           	ror
    1cc4: 18           	clc
    1cc5: 65 12        	adc	$12                     ; 0x12 <__rc2>
    1cc7: 85 12        	sta	$12                     ; 0x12 <__rc2>
    1cc9: a5 1a        	lda	$1a                     ; 0x1a <__rc10>
    1ccb: 65 13        	adc	$13                     ; 0x13 <__rc3>
    1ccd: 85 13        	sta	$13                     ; 0x13 <__rc3>
    1ccf: 98           	tya
    1cd0: 65 14        	adc	$14                     ; 0x14 <__rc4>
    1cd2: a8           	tay
    1cd3: a5 17        	lda	$17                     ; 0x17 <__rc7>
    1cd5: 65 15        	adc	$15                     ; 0x15 <__rc5>
    1cd7: 85 15        	sta	$15                     ; 0x15 <__rc5>
    1cd9: a5 12        	lda	$12                     ; 0x12 <__rc2>
    1cdb: 29 0f        	and	#$f
    1cdd: 85 12        	sta	$12                     ; 0x12 <__rc2>
    1cdf: 85 19        	sta	$19                     ; 0x19 <__rc9>
    1ce1: a5 13        	lda	$13                     ; 0x13 <__rc3>
    1ce3: 29 0f        	and	#$f
    1ce5: 85 13        	sta	$13                     ; 0x13 <__rc3>
    1ce7: 85 18        	sta	$18                     ; 0x18 <__rc8>
    1ce9: 98           	tya
    1cea: 29 0f        	and	#$f
    1cec: 85 14        	sta	$14                     ; 0x14 <__rc4>
    1cee: 85 1a        	sta	$1a                     ; 0x1a <__rc10>
    1cf0: a5 15        	lda	$15                     ; 0x15 <__rc5>
    1cf2: 29 0f        	and	#$f
    1cf4: 85 17        	sta	$17                     ; 0x17 <__rc7>
    1cf6: 18           	clc
    1cf7: a5 19        	lda	$19                     ; 0x19 <__rc9>
    1cf9: 69 00        	adc	#$0
    1cfb: 85 15        	sta	$15                     ; 0x15 <__rc5>
    1cfd: 85 19        	sta	$19                     ; 0x19 <__rc9>
    1cff: a5 18        	lda	$18                     ; 0x18 <__rc8>
    1d01: 65 12        	adc	$12                     ; 0x12 <__rc2>
    1d03: 85 12        	sta	$12                     ; 0x12 <__rc2>
    1d05: a8           	tay
    1d06: a5 1a        	lda	$1a                     ; 0x1a <__rc10>
    1d08: 65 13        	adc	$13                     ; 0x13 <__rc3>
    1d0a: 85 18        	sta	$18                     ; 0x18 <__rc8>
    1d0c: a5 17        	lda	$17                     ; 0x17 <__rc7>
    1d0e: 65 14        	adc	$14                     ; 0x14 <__rc4>
    1d10: 85 13        	sta	$13                     ; 0x13 <__rc3>
    1d12: 18           	clc
    1d13: a5 19        	lda	$19                     ; 0x19 <__rc9>
    1d15: 69 00        	adc	#$0
    1d17: 98           	tya
    1d18: 69 00        	adc	#$0
    1d1a: a5 18        	lda	$18                     ; 0x18 <__rc8>
    1d1c: 65 15        	adc	$15                     ; 0x15 <__rc5>
    1d1e: a5 13        	lda	$13                     ; 0x13 <__rc3>
    1d20: 65 12        	adc	$12                     ; 0x12 <__rc2>
    1d22: 85 12        	sta	$12                     ; 0x12 <__rc2>
    1d24: a9 20        	lda	#$20
    1d26: 38           	sec
    1d27: e5 12        	sbc	$12                     ; 0x12 <__rc2>
    1d29: a8           	tay
    1d2a: a9 00        	lda	#$0
    1d2c: e9 00        	sbc	#$0
    1d2e: 85 14        	sta	$14                     ; 0x14 <__rc4>
    1d30: 64 13        	stz	$13                     ; 0x13 <__rc3>
    1d32: 98           	tya
    1d33: 84 c0        	sty	$c0                     ; 0xc0 <__zp_bss_size+0x6b>
    1d35: a4 14        	ldy	$14                     ; 0x14 <__rc4>
    1d37: 84 bf        	sty	$bf                     ; 0xbf <__zp_bss_size+0x6a>
    1d39: 18           	clc
    1d3a: 69 f8        	adc	#$f8
    1d3c: 85 14        	sta	$14                     ; 0x14 <__rc4>
    1d3e: a4 16        	ldy	$16                     ; 0x16 <__rc6>
    1d40: 84 12        	sty	$12                     ; 0x12 <__rc2>
    1d42: a5 1b        	lda	$1b                     ; 0x1b <__rc11>
    1d44: 20 25 17     	jsr	$1725 <__ashlsi3>
    1d47: 85 be        	sta	$be                     ; 0xbe <__zp_bss_size+0x69>
    1d49: 86 14        	stx	$14                     ; 0x14 <__rc4>
    1d4b: a6 12        	ldx	$12                     ; 0x12 <__rc2>
    1d4d: 86 b9        	stx	$b9                     ; 0xb9 <__zp_bss_size+0x64>
    1d4f: a6 13        	ldx	$13                     ; 0x13 <__rc3>
    1d51: a9 09        	lda	#$9
    1d53: a4 c0        	ldy	$c0                     ; 0xc0 <__zp_bss_size+0x6b>
    1d55: 84 12        	sty	$12                     ; 0x12 <__rc2>
    1d57: 38           	sec
    1d58: e5 12        	sbc	$12                     ; 0x12 <__rc2>
    1d5a: 85 c0        	sta	$c0                     ; 0xc0 <__zp_bss_size+0x6b>
    1d5c: a9 00        	lda	#$0
    1d5e: a4 bf        	ldy	$bf                     ; 0xbf <__zp_bss_size+0x6a>
    1d60: 84 12        	sty	$12                     ; 0x12 <__rc2>
    1d62: e5 12        	sbc	$12                     ; 0x12 <__rc2>
    1d64: 85 bf        	sta	$bf                     ; 0xbf <__zp_bss_size+0x6a>
    1d66: a4 bd        	ldy	$bd                     ; 0xbd <__zp_bss_size+0x68>
    1d68: 84 12        	sty	$12                     ; 0x12 <__rc2>
    1d6a: a5 b7        	lda	$b7                     ; 0xb7 <__zp_bss_size+0x62>
    1d6c: a4 bc        	ldy	$bc                     ; 0xbc <__zp_bss_size+0x67>
    1d6e: f0 03        	beq	$1d73 <__mulsf3+0x3f5>
    1d70: 4c 99 1f     	jmp	$1f99 <__mulsf3+0x61b>
    1d73: c9 80        	cmp	#$80
    1d75: d0 0c        	bne	$1d83 <__mulsf3+0x405>
    1d77: a5 b6        	lda	$b6                     ; 0xb6 <__zp_bss_size+0x61>
    1d79: f0 03        	beq	$1d7e <__mulsf3+0x400>
    1d7b: 4c 97 1f     	jmp	$1f97 <__mulsf3+0x619>
    1d7e: a4 b5        	ldy	$b5                     ; 0xb5 <__zp_bss_size+0x60>
    1d80: 4c 99 1f     	jmp	$1f99 <__mulsf3+0x61b>
    1d83: c9 80        	cmp	#$80
    1d85: 90 03        	bcc	$1d8a <__mulsf3+0x40c>
    1d87: 4c a0 1f     	jmp	$1fa0 <__mulsf3+0x622>
    1d8a: a5 14        	lda	$14                     ; 0x14 <__rc4>
    1d8c: 85 c2        	sta	$c2                     ; 0xc2 <__zp_bss_size+0x6d>
    1d8e: a4 12        	ldy	$12                     ; 0x12 <__rc2>
    1d90: 84 bd        	sty	$bd                     ; 0xbd <__zp_bss_size+0x68>
    1d92: 86 c1        	stx	$c1                     ; 0xc1 <__zp_bss_size+0x6c>
    1d94: a4 ba        	ldy	$ba                     ; 0xba <__zp_bss_size+0x65>
    1d96: 98           	tya
    1d97: 4a           	lsr
    1d98: 85 12        	sta	$12                     ; 0x12 <__rc2>
    1d9a: a6 b6        	ldx	$b6                     ; 0xb6 <__zp_bss_size+0x61>
    1d9c: a5 b6        	lda	$b6                     ; 0xb6 <__zp_bss_size+0x61>
    1d9e: 6a           	ror
    1d9f: 85 13        	sta	$13                     ; 0x13 <__rc3>
    1da1: a5 b5        	lda	$b5                     ; 0xb5 <__zp_bss_size+0x60>
    1da3: 6a           	ror
    1da4: 85 14        	sta	$14                     ; 0x14 <__rc4>
    1da6: a5 b5        	lda	$b5                     ; 0xb5 <__zp_bss_size+0x60>
    1da8: 05 14        	ora	$14                     ; 0x14 <__rc4>
    1daa: 85 16        	sta	$16                     ; 0x16 <__rc6>
    1dac: a5 b6        	lda	$b6                     ; 0xb6 <__zp_bss_size+0x61>
    1dae: 05 13        	ora	$13                     ; 0x13 <__rc3>
    1db0: 85 15        	sta	$15                     ; 0x15 <__rc5>
    1db2: 98           	tya
    1db3: 05 12        	ora	$12                     ; 0x12 <__rc2>
    1db5: 85 17        	sta	$17                     ; 0x17 <__rc7>
    1db7: 4a           	lsr
    1db8: 5a           	phy
    1db9: a4 15        	ldy	$15                     ; 0x15 <__rc5>
    1dbb: 84 12        	sty	$12                     ; 0x12 <__rc2>
    1dbd: 66 12        	ror	$12                     ; 0x12 <__rc2>
    1dbf: a4 16        	ldy	$16                     ; 0x16 <__rc6>
    1dc1: 84 13        	sty	$13                     ; 0x13 <__rc3>
    1dc3: 66 13        	ror	$13                     ; 0x13 <__rc3>
    1dc5: 4a           	lsr
    1dc6: 85 14        	sta	$14                     ; 0x14 <__rc4>
    1dc8: 66 12        	ror	$12                     ; 0x12 <__rc2>
    1dca: 66 13        	ror	$13                     ; 0x13 <__rc3>
    1dcc: a5 16        	lda	$16                     ; 0x16 <__rc6>
    1dce: 05 13        	ora	$13                     ; 0x13 <__rc3>
    1dd0: 85 16        	sta	$16                     ; 0x16 <__rc6>
    1dd2: a5 15        	lda	$15                     ; 0x15 <__rc5>
    1dd4: 05 12        	ora	$12                     ; 0x12 <__rc2>
    1dd6: 85 15        	sta	$15                     ; 0x15 <__rc5>
    1dd8: a5 17        	lda	$17                     ; 0x17 <__rc7>
    1dda: 05 14        	ora	$14                     ; 0x14 <__rc4>
    1ddc: 85 17        	sta	$17                     ; 0x17 <__rc7>
    1dde: 4a           	lsr
    1ddf: a4 15        	ldy	$15                     ; 0x15 <__rc5>
    1de1: 84 12        	sty	$12                     ; 0x12 <__rc2>
    1de3: 66 12        	ror	$12                     ; 0x12 <__rc2>
    1de5: a4 16        	ldy	$16                     ; 0x16 <__rc6>
    1de7: 84 13        	sty	$13                     ; 0x13 <__rc3>
    1de9: 66 13        	ror	$13                     ; 0x13 <__rc3>
    1deb: 4a           	lsr
    1dec: 66 12        	ror	$12                     ; 0x12 <__rc2>
    1dee: 66 13        	ror	$13                     ; 0x13 <__rc3>
    1df0: 4a           	lsr
    1df1: 66 12        	ror	$12                     ; 0x12 <__rc2>
    1df3: 66 13        	ror	$13                     ; 0x13 <__rc3>
    1df5: 4a           	lsr
    1df6: 85 14        	sta	$14                     ; 0x14 <__rc4>
    1df8: 66 12        	ror	$12                     ; 0x12 <__rc2>
    1dfa: 66 13        	ror	$13                     ; 0x13 <__rc3>
    1dfc: a5 16        	lda	$16                     ; 0x16 <__rc6>
    1dfe: 05 13        	ora	$13                     ; 0x13 <__rc3>
    1e00: 85 16        	sta	$16                     ; 0x16 <__rc6>
    1e02: a5 15        	lda	$15                     ; 0x15 <__rc5>
    1e04: 05 12        	ora	$12                     ; 0x12 <__rc2>
    1e06: 85 13        	sta	$13                     ; 0x13 <__rc3>
    1e08: a5 17        	lda	$17                     ; 0x17 <__rc7>
    1e0a: 05 14        	ora	$14                     ; 0x14 <__rc4>
    1e0c: 85 17        	sta	$17                     ; 0x17 <__rc7>
    1e0e: a5 16        	lda	$16                     ; 0x16 <__rc6>
    1e10: 05 13        	ora	$13                     ; 0x13 <__rc3>
    1e12: 85 14        	sta	$14                     ; 0x14 <__rc4>
    1e14: a5 13        	lda	$13                     ; 0x13 <__rc3>
    1e16: 05 17        	ora	$17                     ; 0x17 <__rc7>
    1e18: 85 15        	sta	$15                     ; 0x15 <__rc5>
    1e1a: a5 14        	lda	$14                     ; 0x14 <__rc4>
    1e1c: 05 17        	ora	$17                     ; 0x17 <__rc7>
    1e1e: 85 16        	sta	$16                     ; 0x16 <__rc6>
    1e20: a5 17        	lda	$17                     ; 0x17 <__rc7>
    1e22: 85 14        	sta	$14                     ; 0x14 <__rc4>
    1e24: 46 14        	lsr	$14                     ; 0x14 <__rc4>
    1e26: a5 16        	lda	$16                     ; 0x16 <__rc6>
    1e28: 4a           	lsr
    1e29: 29 55        	and	#$55
    1e2b: 85 12        	sta	$12                     ; 0x12 <__rc2>
    1e2d: a5 15        	lda	$15                     ; 0x15 <__rc5>
    1e2f: 4a           	lsr
    1e30: 29 55        	and	#$55
    1e32: 85 13        	sta	$13                     ; 0x13 <__rc3>
    1e34: a5 14        	lda	$14                     ; 0x14 <__rc4>
    1e36: 29 55        	and	#$55
    1e38: 85 14        	sta	$14                     ; 0x14 <__rc4>
    1e3a: 38           	sec
    1e3b: a5 16        	lda	$16                     ; 0x16 <__rc6>
    1e3d: e5 12        	sbc	$12                     ; 0x12 <__rc2>
    1e3f: 85 12        	sta	$12                     ; 0x12 <__rc2>
    1e41: a5 15        	lda	$15                     ; 0x15 <__rc5>
    1e43: e5 13        	sbc	$13                     ; 0x13 <__rc3>
    1e45: 85 13        	sta	$13                     ; 0x13 <__rc3>
    1e47: a5 17        	lda	$17                     ; 0x17 <__rc7>
    1e49: e5 14        	sbc	$14                     ; 0x14 <__rc4>
    1e4b: 85 14        	sta	$14                     ; 0x14 <__rc4>
    1e4d: a9 00        	lda	#$0
    1e4f: e9 00        	sbc	#$0
    1e51: 85 15        	sta	$15                     ; 0x15 <__rc5>
    1e53: a5 12        	lda	$12                     ; 0x12 <__rc2>
    1e55: 85 16        	sta	$16                     ; 0x16 <__rc6>
    1e57: 29 33        	and	#$33
    1e59: 85 12        	sta	$12                     ; 0x12 <__rc2>
    1e5b: a5 13        	lda	$13                     ; 0x13 <__rc3>
    1e5d: 85 17        	sta	$17                     ; 0x17 <__rc7>
    1e5f: 29 33        	and	#$33
    1e61: 85 13        	sta	$13                     ; 0x13 <__rc3>
    1e63: a5 14        	lda	$14                     ; 0x14 <__rc4>
    1e65: 85 18        	sta	$18                     ; 0x18 <__rc8>
    1e67: 29 33        	and	#$33
    1e69: 85 14        	sta	$14                     ; 0x14 <__rc4>
    1e6b: a5 15        	lda	$15                     ; 0x15 <__rc5>
    1e6d: 4a           	lsr
    1e6e: 85 19        	sta	$19                     ; 0x19 <__rc9>
    1e70: 46 18        	lsr	$18                     ; 0x18 <__rc8>
    1e72: 46 17        	lsr	$17                     ; 0x17 <__rc7>
    1e74: a5 16        	lda	$16                     ; 0x16 <__rc6>
    1e76: 4a           	lsr
    1e77: 46 19        	lsr	$19                     ; 0x19 <__rc9>
    1e79: 46 18        	lsr	$18                     ; 0x18 <__rc8>
    1e7b: a4 17        	ldy	$17                     ; 0x17 <__rc7>
    1e7d: 84 16        	sty	$16                     ; 0x16 <__rc6>
    1e7f: 46 16        	lsr	$16                     ; 0x16 <__rc6>
    1e81: 4a           	lsr
    1e82: 29 33        	and	#$33
    1e84: 85 1a        	sta	$1a                     ; 0x1a <__rc10>
    1e86: a5 16        	lda	$16                     ; 0x16 <__rc6>
    1e88: 29 33        	and	#$33
    1e8a: 85 16        	sta	$16                     ; 0x16 <__rc6>
    1e8c: a5 18        	lda	$18                     ; 0x18 <__rc8>
    1e8e: 29 33        	and	#$33
    1e90: 85 17        	sta	$17                     ; 0x17 <__rc7>
    1e92: a5 19        	lda	$19                     ; 0x19 <__rc9>
    1e94: 29 33        	and	#$33
    1e96: 85 18        	sta	$18                     ; 0x18 <__rc8>
    1e98: a5 15        	lda	$15                     ; 0x15 <__rc5>
    1e9a: 29 33        	and	#$33
    1e9c: 85 15        	sta	$15                     ; 0x15 <__rc5>
    1e9e: 18           	clc
    1e9f: a5 1a        	lda	$1a                     ; 0x1a <__rc10>
    1ea1: 65 12        	adc	$12                     ; 0x12 <__rc2>
    1ea3: 85 12        	sta	$12                     ; 0x12 <__rc2>
    1ea5: a5 16        	lda	$16                     ; 0x16 <__rc6>
    1ea7: 65 13        	adc	$13                     ; 0x13 <__rc3>
    1ea9: 85 13        	sta	$13                     ; 0x13 <__rc3>
    1eab: a5 17        	lda	$17                     ; 0x17 <__rc7>
    1ead: 65 14        	adc	$14                     ; 0x14 <__rc4>
    1eaf: 85 14        	sta	$14                     ; 0x14 <__rc4>
    1eb1: a5 18        	lda	$18                     ; 0x18 <__rc8>
    1eb3: 65 15        	adc	$15                     ; 0x15 <__rc5>
    1eb5: 85 15        	sta	$15                     ; 0x15 <__rc5>
    1eb7: 4a           	lsr
    1eb8: 85 16        	sta	$16                     ; 0x16 <__rc6>
    1eba: a5 14        	lda	$14                     ; 0x14 <__rc4>
    1ebc: 6a           	ror
    1ebd: a4 13        	ldy	$13                     ; 0x13 <__rc3>
    1ebf: 84 17        	sty	$17                     ; 0x17 <__rc7>
    1ec1: 66 17        	ror	$17                     ; 0x17 <__rc7>
    1ec3: a4 12        	ldy	$12                     ; 0x12 <__rc2>
    1ec5: 84 18        	sty	$18                     ; 0x18 <__rc8>
    1ec7: 7a           	ply
    1ec8: 66 18        	ror	$18                     ; 0x18 <__rc8>
    1eca: 46 16        	lsr	$16                     ; 0x16 <__rc6>
    1ecc: 6a           	ror
    1ecd: 66 17        	ror	$17                     ; 0x17 <__rc7>
    1ecf: 66 18        	ror	$18                     ; 0x18 <__rc8>
    1ed1: 46 16        	lsr	$16                     ; 0x16 <__rc6>
    1ed3: 6a           	ror
    1ed4: 66 17        	ror	$17                     ; 0x17 <__rc7>
    1ed6: 66 18        	ror	$18                     ; 0x18 <__rc8>
    1ed8: 46 16        	lsr	$16                     ; 0x16 <__rc6>
    1eda: 6a           	ror
    1edb: 85 19        	sta	$19                     ; 0x19 <__rc9>
    1edd: a5 17        	lda	$17                     ; 0x17 <__rc7>
    1edf: 85 1a        	sta	$1a                     ; 0x1a <__rc10>
    1ee1: 66 1a        	ror	$1a                     ; 0x1a <__rc10>
    1ee3: a5 18        	lda	$18                     ; 0x18 <__rc8>
    1ee5: 6a           	ror
    1ee6: 18           	clc
    1ee7: 65 12        	adc	$12                     ; 0x12 <__rc2>
    1ee9: 85 12        	sta	$12                     ; 0x12 <__rc2>
    1eeb: a5 1a        	lda	$1a                     ; 0x1a <__rc10>
    1eed: 65 13        	adc	$13                     ; 0x13 <__rc3>
    1eef: 85 13        	sta	$13                     ; 0x13 <__rc3>
    1ef1: a5 19        	lda	$19                     ; 0x19 <__rc9>
    1ef3: 65 14        	adc	$14                     ; 0x14 <__rc4>
    1ef5: 85 14        	sta	$14                     ; 0x14 <__rc4>
    1ef7: a5 16        	lda	$16                     ; 0x16 <__rc6>
    1ef9: 65 15        	adc	$15                     ; 0x15 <__rc5>
    1efb: 85 15        	sta	$15                     ; 0x15 <__rc5>
    1efd: a5 12        	lda	$12                     ; 0x12 <__rc2>
    1eff: 29 0f        	and	#$f
    1f01: 85 12        	sta	$12                     ; 0x12 <__rc2>
    1f03: 85 17        	sta	$17                     ; 0x17 <__rc7>
    1f05: a5 13        	lda	$13                     ; 0x13 <__rc3>
    1f07: 29 0f        	and	#$f
    1f09: 85 13        	sta	$13                     ; 0x13 <__rc3>
    1f0b: 85 19        	sta	$19                     ; 0x19 <__rc9>
    1f0d: a5 14        	lda	$14                     ; 0x14 <__rc4>
    1f0f: 29 0f        	and	#$f
    1f11: 85 14        	sta	$14                     ; 0x14 <__rc4>
    1f13: 85 18        	sta	$18                     ; 0x18 <__rc8>
    1f15: a5 15        	lda	$15                     ; 0x15 <__rc5>
    1f17: 29 0f        	and	#$f
    1f19: 85 16        	sta	$16                     ; 0x16 <__rc6>
    1f1b: 18           	clc
    1f1c: a5 17        	lda	$17                     ; 0x17 <__rc7>
    1f1e: 69 00        	adc	#$0
    1f20: 85 15        	sta	$15                     ; 0x15 <__rc5>
    1f22: 85 1a        	sta	$1a                     ; 0x1a <__rc10>
    1f24: a5 19        	lda	$19                     ; 0x19 <__rc9>
    1f26: 65 12        	adc	$12                     ; 0x12 <__rc2>
    1f28: 85 12        	sta	$12                     ; 0x12 <__rc2>
    1f2a: a5 18        	lda	$18                     ; 0x18 <__rc8>
    1f2c: 65 13        	adc	$13                     ; 0x13 <__rc3>
    1f2e: 85 17        	sta	$17                     ; 0x17 <__rc7>
    1f30: a5 16        	lda	$16                     ; 0x16 <__rc6>
    1f32: 65 14        	adc	$14                     ; 0x14 <__rc4>
    1f34: 85 13        	sta	$13                     ; 0x13 <__rc3>
    1f36: 18           	clc
    1f37: a5 1a        	lda	$1a                     ; 0x1a <__rc10>
    1f39: 69 00        	adc	#$0
    1f3b: a5 12        	lda	$12                     ; 0x12 <__rc2>
    1f3d: 69 00        	adc	#$0
    1f3f: a5 17        	lda	$17                     ; 0x17 <__rc7>
    1f41: 65 15        	adc	$15                     ; 0x15 <__rc5>
    1f43: a5 13        	lda	$13                     ; 0x13 <__rc3>
    1f45: 65 12        	adc	$12                     ; 0x12 <__rc2>
    1f47: 85 12        	sta	$12                     ; 0x12 <__rc2>
    1f49: a9 20        	lda	#$20
    1f4b: 38           	sec
    1f4c: e5 12        	sbc	$12                     ; 0x12 <__rc2>
    1f4e: 85 13        	sta	$13                     ; 0x13 <__rc3>
    1f50: 85 bc        	sta	$bc                     ; 0xbc <__zp_bss_size+0x67>
    1f52: a9 00        	lda	#$0
    1f54: e9 00        	sbc	#$0
    1f56: 85 b7        	sta	$b7                     ; 0xb7 <__zp_bss_size+0x62>
    1f58: 18           	clc
    1f59: a5 13        	lda	$13                     ; 0x13 <__rc3>
    1f5b: 69 f8        	adc	#$f8
    1f5d: 84 12        	sty	$12                     ; 0x12 <__rc2>
    1f5f: 64 13        	stz	$13                     ; 0x13 <__rc3>
    1f61: 85 14        	sta	$14                     ; 0x14 <__rc4>
    1f63: a5 b5        	lda	$b5                     ; 0xb5 <__zp_bss_size+0x60>
    1f65: 20 25 17     	jsr	$1725 <__ashlsi3>
    1f68: 85 b5        	sta	$b5                     ; 0xb5 <__zp_bss_size+0x60>
    1f6a: 86 b6        	stx	$b6                     ; 0xb6 <__zp_bss_size+0x61>
    1f6c: a6 12        	ldx	$12                     ; 0x12 <__rc2>
    1f6e: 86 ba        	stx	$ba                     ; 0xba <__zp_bss_size+0x65>
    1f70: a6 c0        	ldx	$c0                     ; 0xc0 <__zp_bss_size+0x6b>
    1f72: 8a           	txa
    1f73: a6 bc        	ldx	$bc                     ; 0xbc <__zp_bss_size+0x67>
    1f75: 86 12        	stx	$12                     ; 0x12 <__rc2>
    1f77: 38           	sec
    1f78: e5 12        	sbc	$12                     ; 0x12 <__rc2>
    1f7a: aa           	tax
    1f7b: a5 bf        	lda	$bf                     ; 0xbf <__zp_bss_size+0x6a>
    1f7d: e5 b7        	sbc	$b7                     ; 0xb7 <__zp_bss_size+0x62>
    1f7f: a8           	tay
    1f80: 18           	clc
    1f81: 8a           	txa
    1f82: 69 09        	adc	#$9
    1f84: 85 12        	sta	$12                     ; 0x12 <__rc2>
    1f86: 98           	tya
    1f87: 69 00        	adc	#$0
    1f89: a6 12        	ldx	$12                     ; 0x12 <__rc2>
    1f8b: 86 bc        	stx	$bc                     ; 0xbc <__zp_bss_size+0x67>
    1f8d: 85 bf        	sta	$bf                     ; 0xbf <__zp_bss_size+0x6a>
    1f8f: a6 c1        	ldx	$c1                     ; 0xc1 <__zp_bss_size+0x6c>
    1f91: a5 c2        	lda	$c2                     ; 0xc2 <__zp_bss_size+0x6d>
    1f93: 85 14        	sta	$14                     ; 0x14 <__rc4>
    1f95: 80 15        	bra	$1fac <__mulsf3+0x62e>
    1f97: a4 b6        	ldy	$b6                     ; 0xb6 <__zp_bss_size+0x61>
    1f99: c0 00        	cpy	#$0
    1f9b: b0 03        	bcs	$1fa0 <__mulsf3+0x622>
    1f9d: 4c 8a 1d     	jmp	$1d8a <__mulsf3+0x40c>
    1fa0: a4 12        	ldy	$12                     ; 0x12 <__rc2>
    1fa2: 84 bd        	sty	$bd                     ; 0xbd <__zp_bss_size+0x68>
    1fa4: a4 c0        	ldy	$c0                     ; 0xc0 <__zp_bss_size+0x6b>
    1fa6: 84 bc        	sty	$bc                     ; 0xbc <__zp_bss_size+0x67>
    1fa8: a4 bf        	ldy	$bf                     ; 0xbf <__zp_bss_size+0x6a>
    1faa: 84 bf        	sty	$bf                     ; 0xbf <__zp_bss_size+0x6a>
    1fac: a5 b9        	lda	$b9                     ; 0xb9 <__zp_bss_size+0x64>
    1fae: 09 80        	ora	#$80
    1fb0: 85 1a        	sta	$1a                     ; 0x1a <__rc10>
    1fb2: a5 ba        	lda	$ba                     ; 0xba <__zp_bss_size+0x65>
    1fb4: 09 80        	ora	#$80
    1fb6: a4 b6        	ldy	$b6                     ; 0xb6 <__zp_bss_size+0x61>
    1fb8: 84 12        	sty	$12                     ; 0x12 <__rc2>
    1fba: 85 13        	sta	$13                     ; 0x13 <__rc3>
    1fbc: a4 be        	ldy	$be                     ; 0xbe <__zp_bss_size+0x69>
    1fbe: 84 18        	sty	$18                     ; 0x18 <__rc8>
    1fc0: a4 14        	ldy	$14                     ; 0x14 <__rc4>
    1fc2: 84 19        	sty	$19                     ; 0x19 <__rc9>
    1fc4: 64 14        	stz	$14                     ; 0x14 <__rc4>
    1fc6: 64 15        	stz	$15                     ; 0x15 <__rc5>
    1fc8: 64 16        	stz	$16                     ; 0x16 <__rc6>
    1fca: 64 17        	stz	$17                     ; 0x17 <__rc7>
    1fcc: 86 1b        	stx	$1b                     ; 0x1b <__rc11>
    1fce: 64 1c        	stz	$1c                     ; 0x1c <__rc12>
    1fd0: 64 1d        	stz	$1d                     ; 0x1d <__rc13>
    1fd2: 64 1e        	stz	$1e                     ; 0x1e <__rc14>
    1fd4: 64 1f        	stz	$1f                     ; 0x1f <__rc15>
    1fd6: a6 b5        	ldx	$b5                     ; 0xb5 <__zp_bss_size+0x60>
    1fd8: a9 00        	lda	#$0
    1fda: 20 86 18     	jsr	$1886 <__muldi3>
    1fdd: 85 b6        	sta	$b6                     ; 0xb6 <__zp_bss_size+0x61>
    1fdf: 86 b5        	stx	$b5                     ; 0xb5 <__zp_bss_size+0x60>
    1fe1: a6 12        	ldx	$12                     ; 0x12 <__rc2>
    1fe3: 86 b7        	stx	$b7                     ; 0xb7 <__zp_bss_size+0x62>
    1fe5: a6 13        	ldx	$13                     ; 0x13 <__rc3>
    1fe7: 86 18        	stx	$18                     ; 0x18 <__rc8>
    1fe9: a6 bd        	ldx	$bd                     ; 0xbd <__zp_bss_size+0x68>
    1feb: 86 12        	stx	$12                     ; 0x12 <__rc2>
    1fed: a6 bb        	ldx	$bb                     ; 0xbb <__zp_bss_size+0x66>
    1fef: 8a           	txa
    1ff0: 18           	clc
    1ff1: 65 12        	adc	$12                     ; 0x12 <__rc2>
    1ff3: a8           	tay
    1ff4: a9 00        	lda	#$0
    1ff6: 69 00        	adc	#$0
    1ff8: 85 13        	sta	$13                     ; 0x13 <__rc3>
    1ffa: a6 bc        	ldx	$bc                     ; 0xbc <__zp_bss_size+0x67>
    1ffc: 86 12        	stx	$12                     ; 0x12 <__rc2>
    1ffe: 18           	clc
    1fff: 98           	tya
    2000: 65 12        	adc	$12                     ; 0x12 <__rc2>
    2002: a8           	tay
    2003: a6 bf        	ldx	$bf                     ; 0xbf <__zp_bss_size+0x6a>
    2005: 86 12        	stx	$12                     ; 0x12 <__rc2>
    2007: a5 13        	lda	$13                     ; 0x13 <__rc3>
    2009: 65 12        	adc	$12                     ; 0x12 <__rc2>
    200b: 85 12        	sta	$12                     ; 0x12 <__rc2>
    200d: a5 16        	lda	$16                     ; 0x16 <__rc6>
    200f: 29 80        	and	#$80
    2011: f0 03        	beq	$2016 <__mulsf3+0x698>
    2013: 4c 69 20     	jmp	$2069 <__mulsf3+0x6eb>
    2016: 98           	tya
    2017: 18           	clc
    2018: 69 81        	adc	#$81
    201a: a8           	tay
    201b: a5 12        	lda	$12                     ; 0x12 <__rc2>
    201d: 69 ff        	adc	#$ff
    201f: 85 12        	sta	$12                     ; 0x12 <__rc2>
    2021: 06 14        	asl	$14                     ; 0x14 <__rc4>
    2023: 26 15        	rol	$15                     ; 0x15 <__rc5>
    2025: 26 16        	rol	$16                     ; 0x16 <__rc6>
    2027: a6 16        	ldx	$16                     ; 0x16 <__rc6>
    2029: 86 13        	stx	$13                     ; 0x13 <__rc3>
    202b: 26 17        	rol	$17                     ; 0x17 <__rc7>
    202d: a5 18        	lda	$18                     ; 0x18 <__rc8>
    202f: 0a           	asl
    2030: a9 00        	lda	#$0
    2032: 2a           	rol
    2033: 85 19        	sta	$19                     ; 0x19 <__rc9>
    2035: 64 1a        	stz	$1a                     ; 0x1a <__rc10>
    2037: 26 1a        	rol	$1a                     ; 0x1a <__rc10>
    2039: 64 16        	stz	$16                     ; 0x16 <__rc6>
    203b: 26 16        	rol	$16                     ; 0x16 <__rc6>
    203d: a9 00        	lda	#$0
    203f: 2a           	rol
    2040: 85 1b        	sta	$1b                     ; 0x1b <__rc11>
    2042: 06 b6        	asl	$b6                     ; 0xb6 <__zp_bss_size+0x61>
    2044: 26 b5        	rol	$b5                     ; 0xb5 <__zp_bss_size+0x60>
    2046: 26 b7        	rol	$b7                     ; 0xb7 <__zp_bss_size+0x62>
    2048: 26 18        	rol	$18                     ; 0x18 <__rc8>
    204a: a6 18        	ldx	$18                     ; 0x18 <__rc8>
    204c: 86 ba        	stx	$ba                     ; 0xba <__zp_bss_size+0x65>
    204e: a5 19        	lda	$19                     ; 0x19 <__rc9>
    2050: 05 14        	ora	$14                     ; 0x14 <__rc4>
    2052: 85 14        	sta	$14                     ; 0x14 <__rc4>
    2054: a5 1a        	lda	$1a                     ; 0x1a <__rc10>
    2056: 05 15        	ora	$15                     ; 0x15 <__rc5>
    2058: 85 15        	sta	$15                     ; 0x15 <__rc5>
    205a: a5 1b        	lda	$1b                     ; 0x1b <__rc11>
    205c: 05 17        	ora	$17                     ; 0x17 <__rc7>
    205e: 85 17        	sta	$17                     ; 0x17 <__rc7>
    2060: a5 16        	lda	$16                     ; 0x16 <__rc6>
    2062: 05 13        	ora	$13                     ; 0x13 <__rc3>
    2064: 85 b9        	sta	$b9                     ; 0xb9 <__zp_bss_size+0x64>
    2066: 98           	tya
    2067: 80 14        	bra	$207d <__mulsf3+0x6ff>
    2069: a6 16        	ldx	$16                     ; 0x16 <__rc6>
    206b: 86 b9        	stx	$b9                     ; 0xb9 <__zp_bss_size+0x64>
    206d: a6 18        	ldx	$18                     ; 0x18 <__rc8>
    206f: 86 ba        	stx	$ba                     ; 0xba <__zp_bss_size+0x65>
    2071: 98           	tya
    2072: 18           	clc
    2073: 69 82        	adc	#$82
    2075: aa           	tax
    2076: a5 12        	lda	$12                     ; 0x12 <__rc2>
    2078: 69 ff        	adc	#$ff
    207a: 85 12        	sta	$12                     ; 0x12 <__rc2>
    207c: 8a           	txa
    207d: a8           	tay
    207e: c9 ff        	cmp	#$ff
    2080: a5 12        	lda	$12                     ; 0x12 <__rc2>
    2082: e9 00        	sbc	#$0
    2084: 50 02        	bvc	$2088 <__mulsf3+0x70a>
    2086: 49 80        	eor	#$80
    2088: aa           	tax
    2089: 30 0e        	bmi	$2099 <__mulsf3+0x71b>
    208b: a5 b8        	lda	$b8                     ; 0xb8 <__zp_bss_size+0x63>
    208d: 09 7f        	ora	#$7f
    208f: 64 14        	stz	$14                     ; 0x14 <__rc4>
    2091: a0 00        	ldy	#$0
    2093: aa           	tax
    2094: a9 80        	lda	#$80
    2096: 4c 2d 22     	jmp	$222d <__mulsf3+0x8af>
    2099: c0 01        	cpy	#$1
    209b: a5 12        	lda	$12                     ; 0x12 <__rc2>
    209d: e9 00        	sbc	#$0
    209f: 50 02        	bvc	$20a3 <__mulsf3+0x725>
    20a1: 49 80        	eor	#$80
    20a3: aa           	tax
    20a4: 30 30        	bmi	$20d6 <__mulsf3+0x758>
    20a6: a5 b9        	lda	$b9                     ; 0xb9 <__zp_bss_size+0x64>
    20a8: 29 7f        	and	#$7f
    20aa: 85 13        	sta	$13                     ; 0x13 <__rc3>
    20ac: 46 12        	lsr	$12                     ; 0x12 <__rc2>
    20ae: 84 12        	sty	$12                     ; 0x12 <__rc2>
    20b0: 66 12        	ror	$12                     ; 0x12 <__rc2>
    20b2: 64 17        	stz	$17                     ; 0x17 <__rc7>
    20b4: 66 17        	ror	$17                     ; 0x17 <__rc7>
    20b6: 64 18        	stz	$18                     ; 0x18 <__rc8>
    20b8: 66 18        	ror	$18                     ; 0x18 <__rc8>
    20ba: a9 00        	lda	#$0
    20bc: 6a           	ror
    20bd: 05 14        	ora	$14                     ; 0x14 <__rc4>
    20bf: 85 14        	sta	$14                     ; 0x14 <__rc4>
    20c1: a5 18        	lda	$18                     ; 0x18 <__rc8>
    20c3: 05 15        	ora	$15                     ; 0x15 <__rc5>
    20c5: 85 15        	sta	$15                     ; 0x15 <__rc5>
    20c7: a5 17        	lda	$17                     ; 0x17 <__rc7>
    20c9: 05 13        	ora	$13                     ; 0x13 <__rc3>
    20cb: 85 16        	sta	$16                     ; 0x16 <__rc6>
    20cd: a6 12        	ldx	$12                     ; 0x12 <__rc2>
    20cf: 86 13        	stx	$13                     ; 0x13 <__rc3>
    20d1: a4 ba        	ldy	$ba                     ; 0xba <__zp_bss_size+0x65>
    20d3: 4c bd 21     	jmp	$21bd <__mulsf3+0x83f>
    20d6: 38           	sec
    20d7: a9 01        	lda	#$1
    20d9: 84 13        	sty	$13                     ; 0x13 <__rc3>
    20db: e5 13        	sbc	$13                     ; 0x13 <__rc3>
    20dd: aa           	tax
    20de: a9 00        	lda	#$0
    20e0: e5 12        	sbc	$12                     ; 0x12 <__rc2>
    20e2: d0 10        	bne	$20f4 <__mulsf3+0x776>
    20e4: 86 c0        	stx	$c0                     ; 0xc0 <__zp_bss_size+0x6b>
    20e6: e0 20        	cpx	#$20
    20e8: 90 10        	bcc	$20fa <__mulsf3+0x77c>
    20ea: 64 14        	stz	$14                     ; 0x14 <__rc4>
    20ec: a0 00        	ldy	#$0
    20ee: 98           	tya
    20ef: a6 b8        	ldx	$b8                     ; 0xb8 <__zp_bss_size+0x63>
    20f1: 4c 2d 22     	jmp	$222d <__mulsf3+0x8af>
    20f4: 86 c0        	stx	$c0                     ; 0xc0 <__zp_bss_size+0x6b>
    20f6: c9 00        	cmp	#$0
    20f8: b0 f0        	bcs	$20ea <__mulsf3+0x76c>
    20fa: a6 17        	ldx	$17                     ; 0x17 <__rc7>
    20fc: 86 be        	stx	$be                     ; 0xbe <__zp_bss_size+0x69>
    20fe: a6 15        	ldx	$15                     ; 0x15 <__rc5>
    2100: 86 bd        	stx	$bd                     ; 0xbd <__zp_bss_size+0x68>
    2102: a6 14        	ldx	$14                     ; 0x14 <__rc4>
    2104: 86 bc        	stx	$bc                     ; 0xbc <__zp_bss_size+0x67>
    2106: 18           	clc
    2107: 98           	tya
    2108: 69 1f        	adc	#$1f
    210a: a6 b7        	ldx	$b7                     ; 0xb7 <__zp_bss_size+0x62>
    210c: 86 12        	stx	$12                     ; 0x12 <__rc2>
    210e: a6 ba        	ldx	$ba                     ; 0xba <__zp_bss_size+0x65>
    2110: 86 13        	stx	$13                     ; 0x13 <__rc3>
    2112: 85 bb        	sta	$bb                     ; 0xbb <__zp_bss_size+0x66>
    2114: 85 14        	sta	$14                     ; 0x14 <__rc4>
    2116: a6 b5        	ldx	$b5                     ; 0xb5 <__zp_bss_size+0x60>
    2118: a5 b6        	lda	$b6                     ; 0xb6 <__zp_bss_size+0x61>
    211a: 20 25 17     	jsr	$1725 <__ashlsi3>
    211d: a4 13        	ldy	$13                     ; 0x13 <__rc3>
    211f: d0 0f        	bne	$2130 <__mulsf3+0x7b2>
    2121: a4 12        	ldy	$12                     ; 0x12 <__rc2>
    2123: d0 0b        	bne	$2130 <__mulsf3+0x7b2>
    2125: e0 00        	cpx	#$0
    2127: d0 07        	bne	$2130 <__mulsf3+0x7b2>
    2129: aa           	tax
    212a: d0 04        	bne	$2130 <__mulsf3+0x7b2>
    212c: a2 00        	ldx	#$0
    212e: 80 02        	bra	$2132 <__mulsf3+0x7b4>
    2130: a2 01        	ldx	#$1
    2132: 86 c2        	stx	$c2                     ; 0xc2 <__zp_bss_size+0x6d>
    2134: a6 b9        	ldx	$b9                     ; 0xb9 <__zp_bss_size+0x64>
    2136: 86 12        	stx	$12                     ; 0x12 <__rc2>
    2138: 86 b9        	stx	$b9                     ; 0xb9 <__zp_bss_size+0x64>
    213a: a6 be        	ldx	$be                     ; 0xbe <__zp_bss_size+0x69>
    213c: 86 13        	stx	$13                     ; 0x13 <__rc3>
    213e: 86 be        	stx	$be                     ; 0xbe <__zp_bss_size+0x69>
    2140: a6 bb        	ldx	$bb                     ; 0xbb <__zp_bss_size+0x66>
    2142: 86 14        	stx	$14                     ; 0x14 <__rc4>
    2144: a6 bd        	ldx	$bd                     ; 0xbd <__zp_bss_size+0x68>
    2146: 86 bd        	stx	$bd                     ; 0xbd <__zp_bss_size+0x68>
    2148: a4 bc        	ldy	$bc                     ; 0xbc <__zp_bss_size+0x67>
    214a: 84 bc        	sty	$bc                     ; 0xbc <__zp_bss_size+0x67>
    214c: 98           	tya
    214d: 20 25 17     	jsr	$1725 <__ashlsi3>
    2150: 85 c1        	sta	$c1                     ; 0xc1 <__zp_bss_size+0x6c>
    2152: 86 c3        	stx	$c3                     ; 0xc3 <__zp_bss_size+0x6e>
    2154: a6 12        	ldx	$12                     ; 0x12 <__rc2>
    2156: 86 bb        	stx	$bb                     ; 0xbb <__zp_bss_size+0x66>
    2158: a6 13        	ldx	$13                     ; 0x13 <__rc3>
    215a: 86 bf        	stx	$bf                     ; 0xbf <__zp_bss_size+0x6a>
    215c: a6 b7        	ldx	$b7                     ; 0xb7 <__zp_bss_size+0x62>
    215e: 86 12        	stx	$12                     ; 0x12 <__rc2>
    2160: a6 ba        	ldx	$ba                     ; 0xba <__zp_bss_size+0x65>
    2162: 86 13        	stx	$13                     ; 0x13 <__rc3>
    2164: a6 c0        	ldx	$c0                     ; 0xc0 <__zp_bss_size+0x6b>
    2166: 86 b7        	stx	$b7                     ; 0xb7 <__zp_bss_size+0x62>
    2168: 86 14        	stx	$14                     ; 0x14 <__rc4>
    216a: a6 b5        	ldx	$b5                     ; 0xb5 <__zp_bss_size+0x60>
    216c: a5 b6        	lda	$b6                     ; 0xb6 <__zp_bss_size+0x61>
    216e: 20 3c 17     	jsr	$173c <__lshrsi3>
    2171: 85 14        	sta	$14                     ; 0x14 <__rc4>
    2173: 86 16        	stx	$16                     ; 0x16 <__rc6>
    2175: a5 c1        	lda	$c1                     ; 0xc1 <__zp_bss_size+0x6c>
    2177: 05 14        	ora	$14                     ; 0x14 <__rc4>
    2179: 85 14        	sta	$14                     ; 0x14 <__rc4>
    217b: a6 c3        	ldx	$c3                     ; 0xc3 <__zp_bss_size+0x6e>
    217d: 86 15        	stx	$15                     ; 0x15 <__rc5>
    217f: a5 16        	lda	$16                     ; 0x16 <__rc6>
    2181: 05 15        	ora	$15                     ; 0x15 <__rc5>
    2183: 85 b5        	sta	$b5                     ; 0xb5 <__zp_bss_size+0x60>
    2185: a5 bb        	lda	$bb                     ; 0xbb <__zp_bss_size+0x66>
    2187: 05 12        	ora	$12                     ; 0x12 <__rc2>
    2189: 85 bb        	sta	$bb                     ; 0xbb <__zp_bss_size+0x66>
    218b: a6 bf        	ldx	$bf                     ; 0xbf <__zp_bss_size+0x6a>
    218d: 8a           	txa
    218e: 05 13        	ora	$13                     ; 0x13 <__rc3>
    2190: 85 bf        	sta	$bf                     ; 0xbf <__zp_bss_size+0x6a>
    2192: a5 14        	lda	$14                     ; 0x14 <__rc4>
    2194: a6 c2        	ldx	$c2                     ; 0xc2 <__zp_bss_size+0x6d>
    2196: 86 12        	stx	$12                     ; 0x12 <__rc2>
    2198: 05 12        	ora	$12                     ; 0x12 <__rc2>
    219a: 85 b6        	sta	$b6                     ; 0xb6 <__zp_bss_size+0x61>
    219c: a6 b9        	ldx	$b9                     ; 0xb9 <__zp_bss_size+0x64>
    219e: 86 12        	stx	$12                     ; 0x12 <__rc2>
    21a0: a6 be        	ldx	$be                     ; 0xbe <__zp_bss_size+0x69>
    21a2: 86 13        	stx	$13                     ; 0x13 <__rc3>
    21a4: a6 b7        	ldx	$b7                     ; 0xb7 <__zp_bss_size+0x62>
    21a6: 86 14        	stx	$14                     ; 0x14 <__rc4>
    21a8: a6 bd        	ldx	$bd                     ; 0xbd <__zp_bss_size+0x68>
    21aa: a5 bc        	lda	$bc                     ; 0xbc <__zp_bss_size+0x67>
    21ac: 20 3c 17     	jsr	$173c <__lshrsi3>
    21af: 85 14        	sta	$14                     ; 0x14 <__rc4>
    21b1: 86 15        	stx	$15                     ; 0x15 <__rc5>
    21b3: a6 12        	ldx	$12                     ; 0x12 <__rc2>
    21b5: 86 16        	stx	$16                     ; 0x16 <__rc6>
    21b7: a6 bb        	ldx	$bb                     ; 0xbb <__zp_bss_size+0x66>
    21b9: 86 b7        	stx	$b7                     ; 0xb7 <__zp_bss_size+0x62>
    21bb: a4 bf        	ldy	$bf                     ; 0xbf <__zp_bss_size+0x6a>
    21bd: a5 b8        	lda	$b8                     ; 0xb8 <__zp_bss_size+0x63>
    21bf: 05 13        	ora	$13                     ; 0x13 <__rc3>
    21c1: 85 13        	sta	$13                     ; 0x13 <__rc3>
    21c3: c0 80        	cpy	#$80
    21c5: d0 14        	bne	$21db <__mulsf3+0x85d>
    21c7: 84 12        	sty	$12                     ; 0x12 <__rc2>
    21c9: a5 16        	lda	$16                     ; 0x16 <__rc6>
    21cb: a6 b7        	ldx	$b7                     ; 0xb7 <__zp_bss_size+0x62>
    21cd: d0 43        	bne	$2212 <__mulsf3+0x894>
    21cf: a6 b5        	ldx	$b5                     ; 0xb5 <__zp_bss_size+0x60>
    21d1: d0 43        	bne	$2216 <__mulsf3+0x898>
    21d3: a6 b6        	ldx	$b6                     ; 0xb6 <__zp_bss_size+0x61>
    21d5: e0 01        	cpx	#$1
    21d7: 90 0a        	bcc	$21e3 <__mulsf3+0x865>
    21d9: 80 41        	bra	$221c <__mulsf3+0x89e>
    21db: 84 12        	sty	$12                     ; 0x12 <__rc2>
    21dd: c0 80        	cpy	#$80
    21df: a5 16        	lda	$16                     ; 0x16 <__rc6>
    21e1: b0 39        	bcs	$221c <__mulsf3+0x89e>
    21e3: a6 12        	ldx	$12                     ; 0x12 <__rc2>
    21e5: e0 80        	cpx	#$80
    21e7: d0 40        	bne	$2229 <__mulsf3+0x8ab>
    21e9: a6 b7        	ldx	$b7                     ; 0xb7 <__zp_bss_size+0x62>
    21eb: d0 3c        	bne	$2229 <__mulsf3+0x8ab>
    21ed: a6 b5        	ldx	$b5                     ; 0xb5 <__zp_bss_size+0x60>
    21ef: d0 38        	bne	$2229 <__mulsf3+0x8ab>
    21f1: a6 b6        	ldx	$b6                     ; 0xb6 <__zp_bss_size+0x61>
    21f3: d0 34        	bne	$2229 <__mulsf3+0x8ab>
    21f5: a5 14        	lda	$14                     ; 0x14 <__rc4>
    21f7: 29 01        	and	#$1
    21f9: 18           	clc
    21fa: 65 14        	adc	$14                     ; 0x14 <__rc4>
    21fc: 85 14        	sta	$14                     ; 0x14 <__rc4>
    21fe: a5 15        	lda	$15                     ; 0x15 <__rc5>
    2200: 69 00        	adc	#$0
    2202: 85 15        	sta	$15                     ; 0x15 <__rc5>
    2204: a5 16        	lda	$16                     ; 0x16 <__rc6>
    2206: 69 00        	adc	#$0
    2208: aa           	tax
    2209: a5 13        	lda	$13                     ; 0x13 <__rc3>
    220b: 69 00        	adc	#$0
    220d: 85 13        	sta	$13                     ; 0x13 <__rc3>
    220f: 8a           	txa
    2210: 80 17        	bra	$2229 <__mulsf3+0x8ab>
    2212: a6 b7        	ldx	$b7                     ; 0xb7 <__zp_bss_size+0x62>
    2214: 80 02        	bra	$2218 <__mulsf3+0x89a>
    2216: a6 b5        	ldx	$b5                     ; 0xb5 <__zp_bss_size+0x60>
    2218: e0 00        	cpx	#$0
    221a: 90 c7        	bcc	$21e3 <__mulsf3+0x865>
    221c: e6 14        	inc	$14                     ; 0x14 <__rc4>
    221e: d0 09        	bne	$2229 <__mulsf3+0x8ab>
    2220: e6 15        	inc	$15                     ; 0x15 <__rc5>
    2222: d0 05        	bne	$2229 <__mulsf3+0x8ab>
    2224: 1a           	inc
    2225: d0 02        	bne	$2229 <__mulsf3+0x8ab>
    2227: e6 13        	inc	$13                     ; 0x13 <__rc3>
    2229: a4 15        	ldy	$15                     ; 0x15 <__rc5>
    222b: a6 13        	ldx	$13                     ; 0x13 <__rc3>
    222d: 85 12        	sta	$12                     ; 0x12 <__rc2>
    222f: 86 13        	stx	$13                     ; 0x13 <__rc3>
    2231: 5a           	phy
    2232: fa           	plx
    2233: a5 14        	lda	$14                     ; 0x14 <__rc4>
    2235: 60           	rts
