
badapple.elf:	file format elf32-mos

SYMBOL TABLE:
00000000 l    df *ABS*	00000000 zero-bss.c
00000000 l    df *ABS*	00000000 zero-zp-bss.c
00000000 l    df *ABS*	00000000 copy-zp-data.c
00000000 l    df *ABS*	00000000 ld-temp.o
00000641 l     F .text	0000017b f256Init
00000067 l     O .zp.bss	00000002 kernelArgs
000000ca l     O .zp.bss	00000007 kernelEventData
000007bc l     F .text	00000173 textReset
0000092f l     F .text	00000156 bitmapReset
0000007e l     O .zp.bss	00000003 _tileSize
00000081 l     O .zp.bss	00000040 _spriteCtl
000000c1 l     O .zp.bss	00000008 _dirStream
000000c9 l     O .zp.bss	00000001 kernelError
00000062 l     O .zp.data	00000001 _ccolor
00000060 l     O .zp.data	00000001 _MAX_COL
00000061 l     O .zp.data	00000001 _MAX_ROW
00000030 l     O .zp.data	00000030 textColors
00000069 l     O .zp.bss	00000001 _col
0000006a l     O .zp.bss	00000001 _row
00000079 l     O .zp.bss	00000001 _MAX_X
0000007a l     O .zp.bss	00000001 _MAX_Y
00000077 l     O .zp.bss	00000001 _active
00000078 l     O .zp.bss	00000001 _color
0000006b l     O .zp.bss	0000000c _BITMAP_BASE
0000007b l     O .zp.bss	00000003 _BITMAP_CLUT
00000aa9 l     F .text	0000063e f256main
00001611 l     F .text	00000017 openAllCODEC
0000165c l     F .text	0000001e boostVSClock
000010e7 l     F .text	00000103 fileOpen
0000263b l     F .text	00000057 printf
00001628 l     F .text	00000034 hitspace
000011ea l     F .text	000001bf fileRead
00002888 l     F .text	00000186 free
00002a5a l     F .text	00000039 strlen
000026d2 l     F .text	00000100 malloc
00002b01 l     F .text	00000032 __mulhi3
00002b33 l     F .text	000000c0 __udivhi3
000013a9 l     F .text	0000025a textPrint
00001603 l     F .text	0000000e __putchar
00002c8f l     O .bss	00000002 __putchar.s
00001688 l     F .text	00000002 _Exit
0000168a l     F .text	00000218 vfprintf
000026c4 l     F .text	00000003 putc
000018a2 l     F .text	00000b44 _ZN12_GLOBAL__N_15printEPKcP6Status
000023e6 l     F .text	000000e1 _ZN12_GLOBAL__N_13putEcP6Status
00002a93 l     F .text	0000006e __simple_strtoui
000024c7 l     F .text	00000174 _ZN12_GLOBAL__N_112print_stringEPKcP6Status
0000055e l     F .text	00000003 _ZN6__impl6VarInt4makeEPvc
00000570 l     F .text	0000000d _ZNK6__impl6VarInt8negativeEv
0000057e l     F .text	00000047 _ZN6__impl6VarInt6negateEv
00000562 l     F .text	0000000d _ZNK6__impl6VarInt8high_bitEv
000005c6 l     F .text	0000003b _ZN6__impl6VarInt3shlEv
00000063 l     O .zp.data	00000002 stdout
00002692 l     F .text	00000003 fputc
00002695 l     F .text	00000028 putchar
000026bd l     F .text	00000007 putchar_wrapper
000026c7 l     F .text	0000000b __from_ascii
000000d1 l     O .zp.bss	00000001 _ZN12_GLOBAL__N_111initializedE
00000065 l     O .zp.data	00000002 _ZN12_GLOBAL__N_110heap_limitE
00000350 l     F .text	00000135 _ZN12_GLOBAL__N_19FreeChunk6insertEPvj
000000d2 l     O .zp.bss	00000001 _ZN12_GLOBAL__N_19last_freeE
000000d5 l     O .zp.bss	00000002 _ZN12_GLOBAL__N_19free_listE
000027d2 l     F .text	000000b6 _ZN12_GLOBAL__N_119allocate_free_chunkEPNS_9FreeChunkEj
000000d3 l     O .zp.bss	00000002 _ZN12_GLOBAL__N_19free_sizeE
00000486 l     F .text	000000d7 _ZN12_GLOBAL__N_19FreeChunk6removeEv
00000a85 g     F .text	00000024 main
0000034c g       .text	00000000 __after_main
00000338 g       .text	00000000 __do_init_stack
00000346 g       .text	00000000 __do_copy_zp_data
0000062a g     F .text	00000017 __copy_zp_data
00000340 g       .text	00000000 __do_zero_bss
00000604 g     F .text	00000013 __zero_bss
00000343 g       .text	00000000 __do_zero_zp_bss
00000617 g     F .text	00000013 __zero_zp_bss
0000167a g     F .text	0000000e exit
0000034f g       .text	00000000 _fini
00000601 g       .text	00000000 __call_indir
00002a3a  w    F .text	00000020 __memset
00001000  w      *ABS*	00000000 __heap_default_limit
00002c92 g       .noinit	00000000 __heap_start
00002a0e  w    F .text	0000002c memcpy
00000010 g       *ABS*	00000000 __rc0
00000012 g       *ABS*	00000000 __rc2
00000014 g       *ABS*	00000000 __rc4
00000016 g       *ABS*	00000000 __rc6
00000018 g       *ABS*	00000000 __rc8
0000001a g       *ABS*	00000000 __rc10
0000001c g       *ABS*	00000000 __rc12
0000001e g       *ABS*	00000000 __rc14
00000020 g       *ABS*	00000000 __rc16
00000022 g       *ABS*	00000000 __rc18
00000024 g       *ABS*	00000000 __rc20
00000026 g       *ABS*	00000000 __rc22
00000028 g       *ABS*	00000000 __rc24
0000002a g       *ABS*	00000000 __rc26
0000002c g       *ABS*	00000000 __rc28
0000002e g       *ABS*	00000000 __rc30
0000002f g       *ABS*	00000000 __rc31
00000300 g       *ABS*	00000000 __f256_start
0000c000 g       *ABS*	00000000 __stack
0000c000 g       *ABS*	00000000 __SLOT_ADDR
0800c000 g       *ABS*	00000000 __block8_lma
00002000 g       *ABS*	00000000 __BLOCK_SIZE
0900c000 g       *ABS*	00000000 __block9_lma
0a00c000 g       *ABS*	00000000 __block10_lma
0b00c000 g       *ABS*	00000000 __block11_lma
0c00c000 g       *ABS*	00000000 __block12_lma
0d00c000 g       *ABS*	00000000 __block13_lma
0e00c000 g       *ABS*	00000000 __block14_lma
0f00c000 g       *ABS*	00000000 __block15_lma
1000c000 g       *ABS*	00000000 __block16_lma
1100c000 g       *ABS*	00000000 __block17_lma
1200c000 g       *ABS*	00000000 __block18_lma
1300c000 g       *ABS*	00000000 __block19_lma
1400c000 g       *ABS*	00000000 __block20_lma
1500c000 g       *ABS*	00000000 __block21_lma
1600c000 g       *ABS*	00000000 __block22_lma
1700c000 g       *ABS*	00000000 __block23_lma
00002c8f g       .bss	00000000 __bss_start
00000338 g       .text	00000000 _start
0000002d g       *ABS*	00000000 __rc29
0000002b g       *ABS*	00000000 __rc27
00000029 g       *ABS*	00000000 __rc25
00000027 g       *ABS*	00000000 __rc23
00000025 g       *ABS*	00000000 __rc21
00000023 g       *ABS*	00000000 __rc19
00000021 g       *ABS*	00000000 __rc17
0000001f g       *ABS*	00000000 __rc15
0000001d g       *ABS*	00000000 __rc13
0000001b g       *ABS*	00000000 __rc11
00000019 g       *ABS*	00000000 __rc9
00000017 g       *ABS*	00000000 __rc7
00000015 g       *ABS*	00000000 __rc5
00000013 g       *ABS*	00000000 __rc3
00000011 g       *ABS*	00000000 __rc1
00000030 g       .zp.data	00000000 __zp_data_start
00000300 g       *ABS*	00000000 __zp_data_load_start
00000037 g       *ABS*	00000000 __zp_data_size
00000067 g       .zp.bss	00000000 __zp_bss_start
00000070 g       *ABS*	00000000 __zp_bss_size
00000338 g       .text	00000000 _init
00002bf3 g       .text	00000000 __init_array_start
00002bf3 g       .text	00000000 __init_array_end
00002bf3 g       .text	00000000 __fini_array_start
00002bf3 g       .text	00000000 __fini_array_end
00002c8f g       .data	00000000 __data_start
00002c8f g       .data	00000000 __data_end
00002c8f g       *ABS*	00000000 __data_load_start
00000000 g       *ABS*	00000000 __data_size
00002c91 g       .bss	00000000 __bss_end
00000002 g       *ABS*	00000000 __bss_size
00002c91 g       .noinit	00000000 end_block8
00002c91 g       .noinit	00000000 end_block9
00002c91 g       .noinit	00000000 end_block10
00002c91 g       .noinit	00000000 end_block11
00002c91 g       .noinit	00000000 end_block12
00002c91 g       .noinit	00000000 end_block13
00002c91 g       .noinit	00000000 end_block14
00002c91 g       .noinit	00000000 end_block15
00002c91 g       .noinit	00000000 end_block16
00002c91 g       .noinit	00000000 end_block17
00002c91 g       .noinit	00000000 end_block18
00002c91 g       .noinit	00000000 end_block19
00002c91 g       .noinit	00000000 end_block20
00002c91 g       .noinit	00000000 end_block21
00002c91 g       .noinit	00000000 end_block22
00002c91 g       .noinit	00000000 end_block23

Disassembly of section .text:

00000338 <_start>:
     338: a9 00        	lda	#$0
     33a: 85 10        	sta	$10                     ; 0x2010 <_ZN12_GLOBAL__N_15printEPKcP6Status+0x76e>
     33c: a9 c0        	lda	#$c0
     33e: 85 11        	sta	$11                     ; 0x2011 <_ZN12_GLOBAL__N_15printEPKcP6Status+0x76f>

00000340 <__do_zero_bss>:
     340: 20 04 06     	jsr	$604 <__zero_bss>

00000343 <__do_zero_zp_bss>:
     343: 20 17 06     	jsr	$617 <__zero_zp_bss>

00000346 <__do_copy_zp_data>:
     346: 20 2a 06     	jsr	$62a <__copy_zp_data>
     349: 20 85 0a     	jsr	$a85 <main>

0000034c <__after_main>:
     34c: 4c 7a 16     	jmp	$167a <exit>

0000034f <_fini>:
     34f: 60           	rts

00000350 <_ZN12_GLOBAL__N_19FreeChunk6insertEPvj>:
     350: 85 16        	sta	$16                     ; 0x2016 <_ZN12_GLOBAL__N_15printEPKcP6Status+0x774>
     352: 29 fe        	and	#$fe
     354: 85 14        	sta	$14                     ; 0x2014 <_ZN12_GLOBAL__N_15printEPKcP6Status+0x772>
     356: a0 01        	ldy	#$1
     358: 98           	tya
     359: 32 12        	and	($12)                   ; 0x2012 <_ZN12_GLOBAL__N_15printEPKcP6Status+0x770>
     35b: 05 14        	ora	$14                     ; 0x2014 <_ZN12_GLOBAL__N_15printEPKcP6Status+0x772>
     35d: 92 12        	sta	($12)                   ; 0x2012 <_ZN12_GLOBAL__N_15printEPKcP6Status+0x770>
     35f: a5 12        	lda	$12                     ; 0x2012 <_ZN12_GLOBAL__N_15printEPKcP6Status+0x770>
     361: 18           	clc
     362: 65 14        	adc	$14                     ; 0x2014 <_ZN12_GLOBAL__N_15printEPKcP6Status+0x772>
     364: 85 15        	sta	$15                     ; 0x2015 <_ZN12_GLOBAL__N_15printEPKcP6Status+0x773>
     366: 8a           	txa
     367: 65 13        	adc	$13                     ; 0x2013 <_ZN12_GLOBAL__N_15printEPKcP6Status+0x771>
     369: 85 14        	sta	$14                     ; 0x2014 <_ZN12_GLOBAL__N_15printEPKcP6Status+0x772>
     36b: 18           	clc
     36c: a5 15        	lda	$15                     ; 0x2015 <_ZN12_GLOBAL__N_15printEPKcP6Status+0x773>
     36e: 69 fe        	adc	#$fe
     370: 85 17        	sta	$17                     ; 0x2017 <_ZN12_GLOBAL__N_15printEPKcP6Status+0x775>
     372: a5 14        	lda	$14                     ; 0x2014 <_ZN12_GLOBAL__N_15printEPKcP6Status+0x772>
     374: 69 ff        	adc	#$ff
     376: 85 15        	sta	$15                     ; 0x2015 <_ZN12_GLOBAL__N_15printEPKcP6Status+0x773>
     378: a5 17        	lda	$17                     ; 0x2017 <_ZN12_GLOBAL__N_15printEPKcP6Status+0x775>
     37a: 85 14        	sta	$14                     ; 0x2014 <_ZN12_GLOBAL__N_15printEPKcP6Status+0x772>
     37c: 8a           	txa
     37d: 91 12        	sta	($12),y                 ; 0x2012 <_ZN12_GLOBAL__N_15printEPKcP6Status+0x770>
     37f: a5 16        	lda	$16                     ; 0x2016 <_ZN12_GLOBAL__N_15printEPKcP6Status+0x774>
     381: 92 14        	sta	($14)                   ; 0x2014 <_ZN12_GLOBAL__N_15printEPKcP6Status+0x772>
     383: 8a           	txa
     384: 91 14        	sta	($14),y                 ; 0x2014 <_ZN12_GLOBAL__N_15printEPKcP6Status+0x772>
     386: b1 12        	lda	($12),y                 ; 0x2012 <_ZN12_GLOBAL__N_15printEPKcP6Status+0x770>
     388: 85 14        	sta	$14                     ; 0x2014 <_ZN12_GLOBAL__N_15printEPKcP6Status+0x772>
     38a: a9 fe        	lda	#$fe
     38c: 32 12        	and	($12)                   ; 0x2012 <_ZN12_GLOBAL__N_15printEPKcP6Status+0x770>
     38e: 18           	clc
     38f: 65 d3        	adc	$d3                     ; 0x20d3 <_ZN12_GLOBAL__N_15printEPKcP6Status+0x831>
     391: aa           	tax
     392: a5 14        	lda	$14                     ; 0x2014 <_ZN12_GLOBAL__N_15printEPKcP6Status+0x772>
     394: 65 d4        	adc	$d4                     ; 0x20d4 <_ZN12_GLOBAL__N_15printEPKcP6Status+0x832>
     396: a8           	tay
     397: 18           	clc
     398: 8a           	txa
     399: 69 fe        	adc	#$fe
     39b: aa           	tax
     39c: 98           	tya
     39d: 69 ff        	adc	#$ff
     39f: 86 d3        	stx	$d3                     ; 0x20d3 <_ZN12_GLOBAL__N_15printEPKcP6Status+0x831>
     3a1: 85 d4        	sta	$d4                     ; 0x20d4 <_ZN12_GLOBAL__N_15printEPKcP6Status+0x832>
     3a3: a6 d5        	ldx	$d5                     ; 0x20d5 <_ZN12_GLOBAL__N_15printEPKcP6Status+0x833>
     3a5: 86 16        	stx	$16                     ; 0x2016 <_ZN12_GLOBAL__N_15printEPKcP6Status+0x774>
     3a7: a4 d6        	ldy	$d6                     ; 0x20d6 <_ZN12_GLOBAL__N_15printEPKcP6Status+0x834>
     3a9: a2 00        	ldx	#$0
     3ab: 86 14        	stx	$14                     ; 0x2014 <_ZN12_GLOBAL__N_15printEPKcP6Status+0x772>
     3ad: a2 00        	ldx	#$0
     3af: 86 15        	stx	$15                     ; 0x2015 <_ZN12_GLOBAL__N_15printEPKcP6Status+0x773>
     3b1: c4 15        	cpy	$15                     ; 0x2015 <_ZN12_GLOBAL__N_15printEPKcP6Status+0x773>
     3b3: d0 3c        	bne	$3f1 <_ZN12_GLOBAL__N_19FreeChunk6insertEPvj+0xa1>
     3b5: a6 16        	ldx	$16                     ; 0x2016 <_ZN12_GLOBAL__N_15printEPKcP6Status+0x774>
     3b7: e4 14        	cpx	$14                     ; 0x2014 <_ZN12_GLOBAL__N_15printEPKcP6Status+0x772>
     3b9: d0 36        	bne	$3f1 <_ZN12_GLOBAL__N_19FreeChunk6insertEPvj+0xa1>
     3bb: a0 04        	ldy	#$4
     3bd: a5 12        	lda	$12                     ; 0x2012 <_ZN12_GLOBAL__N_15printEPKcP6Status+0x770>
     3bf: 18           	clc
     3c0: 69 04        	adc	#$4
     3c2: 85 14        	sta	$14                     ; 0x2014 <_ZN12_GLOBAL__N_15printEPKcP6Status+0x772>
     3c4: a5 13        	lda	$13                     ; 0x2013 <_ZN12_GLOBAL__N_15printEPKcP6Status+0x771>
     3c6: 69 00        	adc	#$0
     3c8: 18           	clc
     3c9: 85 15        	sta	$15                     ; 0x2015 <_ZN12_GLOBAL__N_15printEPKcP6Status+0x773>
     3cb: a5 12        	lda	$12                     ; 0x2012 <_ZN12_GLOBAL__N_15printEPKcP6Status+0x770>
     3cd: 91 12        	sta	($12),y                 ; 0x2012 <_ZN12_GLOBAL__N_15printEPKcP6Status+0x770>
     3cf: a0 02        	ldy	#$2
     3d1: 85 17        	sta	$17                     ; 0x2017 <_ZN12_GLOBAL__N_15printEPKcP6Status+0x775>
     3d3: 69 02        	adc	#$2
     3d5: 85 16        	sta	$16                     ; 0x2016 <_ZN12_GLOBAL__N_15printEPKcP6Status+0x774>
     3d7: a5 17        	lda	$17                     ; 0x2017 <_ZN12_GLOBAL__N_15printEPKcP6Status+0x775>
     3d9: 91 12        	sta	($12),y                 ; 0x2012 <_ZN12_GLOBAL__N_15printEPKcP6Status+0x770>
     3db: a5 13        	lda	$13                     ; 0x2013 <_ZN12_GLOBAL__N_15printEPKcP6Status+0x771>
     3dd: 69 00        	adc	#$0
     3df: 85 17        	sta	$17                     ; 0x2017 <_ZN12_GLOBAL__N_15printEPKcP6Status+0x775>
     3e1: 88           	dey
     3e2: a5 13        	lda	$13                     ; 0x2013 <_ZN12_GLOBAL__N_15printEPKcP6Status+0x771>
     3e4: 91 14        	sta	($14),y                 ; 0x2014 <_ZN12_GLOBAL__N_15printEPKcP6Status+0x772>
     3e6: 91 16        	sta	($16),y                 ; 0x2016 <_ZN12_GLOBAL__N_15printEPKcP6Status+0x774>
     3e8: a6 12        	ldx	$12                     ; 0x2012 <_ZN12_GLOBAL__N_15printEPKcP6Status+0x770>
     3ea: 86 d5        	stx	$d5                     ; 0x20d5 <_ZN12_GLOBAL__N_15printEPKcP6Status+0x833>
     3ec: a6 13        	ldx	$13                     ; 0x2013 <_ZN12_GLOBAL__N_15printEPKcP6Status+0x771>
     3ee: 86 d6        	stx	$d6                     ; 0x20d6 <_ZN12_GLOBAL__N_15printEPKcP6Status+0x834>
     3f0: 60           	rts
     3f1: a6 12        	ldx	$12                     ; 0x2012 <_ZN12_GLOBAL__N_15printEPKcP6Status+0x770>
     3f3: a5 12        	lda	$12                     ; 0x2012 <_ZN12_GLOBAL__N_15printEPKcP6Status+0x770>
     3f5: 18           	clc
     3f6: 69 02        	adc	#$2
     3f8: 85 14        	sta	$14                     ; 0x2014 <_ZN12_GLOBAL__N_15printEPKcP6Status+0x772>
     3fa: 84 18        	sty	$18                     ; 0x2018 <_ZN12_GLOBAL__N_15printEPKcP6Status+0x776>
     3fc: a5 13        	lda	$13                     ; 0x2013 <_ZN12_GLOBAL__N_15printEPKcP6Status+0x771>
     3fe: 69 00        	adc	#$0
     400: 85 15        	sta	$15                     ; 0x2015 <_ZN12_GLOBAL__N_15printEPKcP6Status+0x773>
     402: a5 16        	lda	$16                     ; 0x2016 <_ZN12_GLOBAL__N_15printEPKcP6Status+0x774>
     404: 84 17        	sty	$17                     ; 0x2017 <_ZN12_GLOBAL__N_15printEPKcP6Status+0x775>
     406: a0 02        	ldy	#$2
     408: 91 12        	sta	($12),y                 ; 0x2012 <_ZN12_GLOBAL__N_15printEPKcP6Status+0x770>
     40a: 85 19        	sta	$19                     ; 0x2019 <_ZN12_GLOBAL__N_15printEPKcP6Status+0x777>
     40c: 88           	dey
     40d: a5 18        	lda	$18                     ; 0x2018 <_ZN12_GLOBAL__N_15printEPKcP6Status+0x776>
     40f: 91 14        	sta	($14),y                 ; 0x2014 <_ZN12_GLOBAL__N_15printEPKcP6Status+0x772>
     411: 18           	clc
     412: a5 19        	lda	$19                     ; 0x2019 <_ZN12_GLOBAL__N_15printEPKcP6Status+0x777>
     414: 69 04        	adc	#$4
     416: a8           	tay
     417: a5 18        	lda	$18                     ; 0x2018 <_ZN12_GLOBAL__N_15printEPKcP6Status+0x776>
     419: 69 00        	adc	#$0
     41b: 85 19        	sta	$19                     ; 0x2019 <_ZN12_GLOBAL__N_15printEPKcP6Status+0x777>
     41d: 84 18        	sty	$18                     ; 0x2018 <_ZN12_GLOBAL__N_15printEPKcP6Status+0x776>
     41f: 8a           	txa
     420: 18           	clc
     421: 69 04        	adc	#$4
     423: 85 1a        	sta	$1a                     ; 0x201a <_ZN12_GLOBAL__N_15printEPKcP6Status+0x778>
     425: a5 13        	lda	$13                     ; 0x2013 <_ZN12_GLOBAL__N_15printEPKcP6Status+0x771>
     427: 69 00        	adc	#$0
     429: 85 1b        	sta	$1b                     ; 0x201b <_ZN12_GLOBAL__N_15printEPKcP6Status+0x779>
     42b: a0 04        	ldy	#$4
     42d: b1 16        	lda	($16),y                 ; 0x2016 <_ZN12_GLOBAL__N_15printEPKcP6Status+0x774>
     42f: 85 16        	sta	$16                     ; 0x2016 <_ZN12_GLOBAL__N_15printEPKcP6Status+0x774>
     431: 85 1d        	sta	$1d                     ; 0x201d <_ZN12_GLOBAL__N_15printEPKcP6Status+0x77b>
     433: a0 01        	ldy	#$1
     435: b1 18        	lda	($18),y                 ; 0x2018 <_ZN12_GLOBAL__N_15printEPKcP6Status+0x776>
     437: 85 17        	sta	$17                     ; 0x2017 <_ZN12_GLOBAL__N_15printEPKcP6Status+0x775>
     439: 85 19        	sta	$19                     ; 0x2019 <_ZN12_GLOBAL__N_15printEPKcP6Status+0x777>
     43b: a0 04        	ldy	#$4
     43d: a5 1d        	lda	$1d                     ; 0x201d <_ZN12_GLOBAL__N_15printEPKcP6Status+0x77b>
     43f: 91 12        	sta	($12),y                 ; 0x2012 <_ZN12_GLOBAL__N_15printEPKcP6Status+0x770>
     441: a5 19        	lda	$19                     ; 0x2019 <_ZN12_GLOBAL__N_15printEPKcP6Status+0x777>
     443: a0 01        	ldy	#$1
     445: 91 1a        	sta	($1a),y                 ; 0x201a <_ZN12_GLOBAL__N_15printEPKcP6Status+0x778>
     447: 18           	clc
     448: a5 1d        	lda	$1d                     ; 0x201d <_ZN12_GLOBAL__N_15printEPKcP6Status+0x77b>
     44a: 69 02        	adc	#$2
     44c: 85 18        	sta	$18                     ; 0x2018 <_ZN12_GLOBAL__N_15printEPKcP6Status+0x776>
     44e: a5 19        	lda	$19                     ; 0x2019 <_ZN12_GLOBAL__N_15printEPKcP6Status+0x777>
     450: 69 00        	adc	#$0
     452: 85 19        	sta	$19                     ; 0x2019 <_ZN12_GLOBAL__N_15printEPKcP6Status+0x777>
     454: 8a           	txa
     455: c8           	iny
     456: 91 16        	sta	($16),y                 ; 0x2016 <_ZN12_GLOBAL__N_15printEPKcP6Status+0x774>
     458: a5 13        	lda	$13                     ; 0x2013 <_ZN12_GLOBAL__N_15printEPKcP6Status+0x771>
     45a: 88           	dey
     45b: 91 18        	sta	($18),y                 ; 0x2018 <_ZN12_GLOBAL__N_15printEPKcP6Status+0x776>
     45d: c8           	iny
     45e: b1 12        	lda	($12),y                 ; 0x2012 <_ZN12_GLOBAL__N_15printEPKcP6Status+0x770>
     460: 85 16        	sta	$16                     ; 0x2016 <_ZN12_GLOBAL__N_15printEPKcP6Status+0x774>
     462: 85 18        	sta	$18                     ; 0x2018 <_ZN12_GLOBAL__N_15printEPKcP6Status+0x776>
     464: 88           	dey
     465: b1 14        	lda	($14),y                 ; 0x2014 <_ZN12_GLOBAL__N_15printEPKcP6Status+0x772>
     467: 85 17        	sta	$17                     ; 0x2017 <_ZN12_GLOBAL__N_15printEPKcP6Status+0x775>
     469: 85 14        	sta	$14                     ; 0x2014 <_ZN12_GLOBAL__N_15printEPKcP6Status+0x772>
     46b: 8a           	txa
     46c: a0 04        	ldy	#$4
     46e: 91 16        	sta	($16),y                 ; 0x2016 <_ZN12_GLOBAL__N_15printEPKcP6Status+0x774>
     470: 18           	clc
     471: a5 18        	lda	$18                     ; 0x2018 <_ZN12_GLOBAL__N_15printEPKcP6Status+0x776>
     473: 69 04        	adc	#$4
     475: a8           	tay
     476: a5 14        	lda	$14                     ; 0x2014 <_ZN12_GLOBAL__N_15printEPKcP6Status+0x772>
     478: 69 00        	adc	#$0
     47a: 84 14        	sty	$14                     ; 0x2014 <_ZN12_GLOBAL__N_15printEPKcP6Status+0x772>
     47c: 85 15        	sta	$15                     ; 0x2015 <_ZN12_GLOBAL__N_15printEPKcP6Status+0x773>
     47e: a5 13        	lda	$13                     ; 0x2013 <_ZN12_GLOBAL__N_15printEPKcP6Status+0x771>
     480: a0 01        	ldy	#$1
     482: 91 14        	sta	($14),y                 ; 0x2014 <_ZN12_GLOBAL__N_15printEPKcP6Status+0x772>
     484: 60           	rts
     485: 00           	brk

00000486 <_ZN12_GLOBAL__N_19FreeChunk6removeEv>:
     486: a0 01        	ldy	#$1
     488: a9 fe        	lda	#$fe
     48a: 32 12        	and	($12)                   ; 0x2012 <_ZN12_GLOBAL__N_15printEPKcP6Status+0x770>
     48c: 85 14        	sta	$14                     ; 0x2014 <_ZN12_GLOBAL__N_15printEPKcP6Status+0x772>
     48e: a5 d3        	lda	$d3                     ; 0x20d3 <_ZN12_GLOBAL__N_15printEPKcP6Status+0x831>
     490: a6 d4        	ldx	$d4                     ; 0x20d4 <_ZN12_GLOBAL__N_15printEPKcP6Status+0x832>
     492: 86 15        	stx	$15                     ; 0x2015 <_ZN12_GLOBAL__N_15printEPKcP6Status+0x773>
     494: 38           	sec
     495: e5 14        	sbc	$14                     ; 0x2014 <_ZN12_GLOBAL__N_15printEPKcP6Status+0x772>
     497: aa           	tax
     498: a5 15        	lda	$15                     ; 0x2015 <_ZN12_GLOBAL__N_15printEPKcP6Status+0x773>
     49a: f1 12        	sbc	($12),y                 ; 0x2012 <_ZN12_GLOBAL__N_15printEPKcP6Status+0x770>
     49c: 85 14        	sta	$14                     ; 0x2014 <_ZN12_GLOBAL__N_15printEPKcP6Status+0x772>
     49e: 18           	clc
     49f: 8a           	txa
     4a0: 69 02        	adc	#$2
     4a2: 85 15        	sta	$15                     ; 0x2015 <_ZN12_GLOBAL__N_15printEPKcP6Status+0x773>
     4a4: a5 14        	lda	$14                     ; 0x2014 <_ZN12_GLOBAL__N_15printEPKcP6Status+0x772>
     4a6: 69 00        	adc	#$0
     4a8: a6 15        	ldx	$15                     ; 0x2015 <_ZN12_GLOBAL__N_15printEPKcP6Status+0x773>
     4aa: 86 d3        	stx	$d3                     ; 0x20d3 <_ZN12_GLOBAL__N_15printEPKcP6Status+0x831>
     4ac: 85 d4        	sta	$d4                     ; 0x20d4 <_ZN12_GLOBAL__N_15printEPKcP6Status+0x832>
     4ae: a5 12        	lda	$12                     ; 0x2012 <_ZN12_GLOBAL__N_15printEPKcP6Status+0x770>
     4b0: 18           	clc
     4b1: 69 02        	adc	#$2
     4b3: 85 14        	sta	$14                     ; 0x2014 <_ZN12_GLOBAL__N_15printEPKcP6Status+0x772>
     4b5: a5 13        	lda	$13                     ; 0x2013 <_ZN12_GLOBAL__N_15printEPKcP6Status+0x771>
     4b7: 69 00        	adc	#$0
     4b9: c8           	iny
     4ba: 85 15        	sta	$15                     ; 0x2015 <_ZN12_GLOBAL__N_15printEPKcP6Status+0x773>
     4bc: b1 12        	lda	($12),y                 ; 0x2012 <_ZN12_GLOBAL__N_15printEPKcP6Status+0x770>
     4be: aa           	tax
     4bf: 88           	dey
     4c0: b1 14        	lda	($14),y                 ; 0x2014 <_ZN12_GLOBAL__N_15printEPKcP6Status+0x772>
     4c2: 85 19        	sta	$19                     ; 0x2019 <_ZN12_GLOBAL__N_15printEPKcP6Status+0x777>
     4c4: c5 13        	cmp	$13                     ; 0x2013 <_ZN12_GLOBAL__N_15printEPKcP6Status+0x771>
     4c6: d0 0f        	bne	$4d7 <_ZN12_GLOBAL__N_19FreeChunk6removeEv+0x51>
     4c8: e4 12        	cpx	$12                     ; 0x2012 <_ZN12_GLOBAL__N_15printEPKcP6Status+0x770>
     4ca: d0 0b        	bne	$4d7 <_ZN12_GLOBAL__N_19FreeChunk6removeEv+0x51>
     4cc: a2 00        	ldx	#$0
     4ce: 86 14        	stx	$14                     ; 0x2014 <_ZN12_GLOBAL__N_15printEPKcP6Status+0x772>
     4d0: a2 00        	ldx	#$0
     4d2: 86 15        	stx	$15                     ; 0x2015 <_ZN12_GLOBAL__N_15printEPKcP6Status+0x773>
     4d4: 4c 54 05     	jmp	$554 <_ZN12_GLOBAL__N_19FreeChunk6removeEv+0xce>
     4d7: 86 18        	stx	$18                     ; 0x2018 <_ZN12_GLOBAL__N_15printEPKcP6Status+0x776>
     4d9: a6 12        	ldx	$12                     ; 0x2012 <_ZN12_GLOBAL__N_15printEPKcP6Status+0x770>
     4db: a5 12        	lda	$12                     ; 0x2012 <_ZN12_GLOBAL__N_15printEPKcP6Status+0x770>
     4dd: 86 1b        	stx	$1b                     ; 0x201b <_ZN12_GLOBAL__N_15printEPKcP6Status+0x779>
     4df: 18           	clc
     4e0: 69 04        	adc	#$4
     4e2: 85 14        	sta	$14                     ; 0x2014 <_ZN12_GLOBAL__N_15printEPKcP6Status+0x772>
     4e4: a5 13        	lda	$13                     ; 0x2013 <_ZN12_GLOBAL__N_15printEPKcP6Status+0x771>
     4e6: 69 00        	adc	#$0
     4e8: a0 04        	ldy	#$4
     4ea: 85 15        	sta	$15                     ; 0x2015 <_ZN12_GLOBAL__N_15printEPKcP6Status+0x773>
     4ec: b1 12        	lda	($12),y                 ; 0x2012 <_ZN12_GLOBAL__N_15printEPKcP6Status+0x770>
     4ee: 85 1c        	sta	$1c                     ; 0x201c <_ZN12_GLOBAL__N_15printEPKcP6Status+0x77a>
     4f0: 18           	clc
     4f1: 69 02        	adc	#$2
     4f3: 85 16        	sta	$16                     ; 0x2016 <_ZN12_GLOBAL__N_15printEPKcP6Status+0x774>
     4f5: a0 01        	ldy	#$1
     4f7: b1 14        	lda	($14),y                 ; 0x2014 <_ZN12_GLOBAL__N_15printEPKcP6Status+0x772>
     4f9: aa           	tax
     4fa: 69 00        	adc	#$0
     4fc: a4 16        	ldy	$16                     ; 0x2016 <_ZN12_GLOBAL__N_15printEPKcP6Status+0x774>
     4fe: 84 14        	sty	$14                     ; 0x2014 <_ZN12_GLOBAL__N_15printEPKcP6Status+0x772>
     500: 85 15        	sta	$15                     ; 0x2015 <_ZN12_GLOBAL__N_15printEPKcP6Status+0x773>
     502: a4 1c        	ldy	$1c                     ; 0x201c <_ZN12_GLOBAL__N_15printEPKcP6Status+0x77a>
     504: 84 16        	sty	$16                     ; 0x2016 <_ZN12_GLOBAL__N_15printEPKcP6Status+0x774>
     506: 86 17        	stx	$17                     ; 0x2017 <_ZN12_GLOBAL__N_15printEPKcP6Status+0x775>
     508: a0 02        	ldy	#$2
     50a: a5 18        	lda	$18                     ; 0x2018 <_ZN12_GLOBAL__N_15printEPKcP6Status+0x776>
     50c: 91 16        	sta	($16),y                 ; 0x2016 <_ZN12_GLOBAL__N_15printEPKcP6Status+0x774>
     50e: a5 19        	lda	$19                     ; 0x2019 <_ZN12_GLOBAL__N_15printEPKcP6Status+0x777>
     510: 88           	dey
     511: 91 14        	sta	($14),y                 ; 0x2014 <_ZN12_GLOBAL__N_15printEPKcP6Status+0x772>
     513: 18           	clc
     514: a5 1b        	lda	$1b                     ; 0x201b <_ZN12_GLOBAL__N_15printEPKcP6Status+0x779>
     516: 69 02        	adc	#$2
     518: 85 14        	sta	$14                     ; 0x2014 <_ZN12_GLOBAL__N_15printEPKcP6Status+0x772>
     51a: a5 13        	lda	$13                     ; 0x2013 <_ZN12_GLOBAL__N_15printEPKcP6Status+0x771>
     51c: 69 00        	adc	#$0
     51e: 85 15        	sta	$15                     ; 0x2015 <_ZN12_GLOBAL__N_15printEPKcP6Status+0x773>
     520: c8           	iny
     521: b1 12        	lda	($12),y                 ; 0x2012 <_ZN12_GLOBAL__N_15printEPKcP6Status+0x770>
     523: 85 16        	sta	$16                     ; 0x2016 <_ZN12_GLOBAL__N_15printEPKcP6Status+0x774>
     525: 88           	dey
     526: b1 14        	lda	($14),y                 ; 0x2014 <_ZN12_GLOBAL__N_15printEPKcP6Status+0x772>
     528: a4 16        	ldy	$16                     ; 0x2016 <_ZN12_GLOBAL__N_15printEPKcP6Status+0x774>
     52a: 84 14        	sty	$14                     ; 0x2014 <_ZN12_GLOBAL__N_15printEPKcP6Status+0x772>
     52c: 85 15        	sta	$15                     ; 0x2015 <_ZN12_GLOBAL__N_15printEPKcP6Status+0x773>
     52e: 85 17        	sta	$17                     ; 0x2017 <_ZN12_GLOBAL__N_15printEPKcP6Status+0x775>
     530: a0 04        	ldy	#$4
     532: a5 1c        	lda	$1c                     ; 0x201c <_ZN12_GLOBAL__N_15printEPKcP6Status+0x77a>
     534: 91 14        	sta	($14),y                 ; 0x2014 <_ZN12_GLOBAL__N_15printEPKcP6Status+0x772>
     536: 18           	clc
     537: a5 16        	lda	$16                     ; 0x2016 <_ZN12_GLOBAL__N_15printEPKcP6Status+0x774>
     539: 69 04        	adc	#$4
     53b: 85 16        	sta	$16                     ; 0x2016 <_ZN12_GLOBAL__N_15printEPKcP6Status+0x774>
     53d: a5 17        	lda	$17                     ; 0x2017 <_ZN12_GLOBAL__N_15printEPKcP6Status+0x775>
     53f: 69 00        	adc	#$0
     541: 85 17        	sta	$17                     ; 0x2017 <_ZN12_GLOBAL__N_15printEPKcP6Status+0x775>
     543: 8a           	txa
     544: a0 01        	ldy	#$1
     546: 91 16        	sta	($16),y                 ; 0x2016 <_ZN12_GLOBAL__N_15printEPKcP6Status+0x774>
     548: a6 d6        	ldx	$d6                     ; 0x20d6 <_ZN12_GLOBAL__N_15printEPKcP6Status+0x834>
     54a: e4 13        	cpx	$13                     ; 0x2013 <_ZN12_GLOBAL__N_15printEPKcP6Status+0x771>
     54c: d0 0e        	bne	$55c <_ZN12_GLOBAL__N_19FreeChunk6removeEv+0xd6>
     54e: a6 d5        	ldx	$d5                     ; 0x20d5 <_ZN12_GLOBAL__N_15printEPKcP6Status+0x833>
     550: e4 12        	cpx	$12                     ; 0x2012 <_ZN12_GLOBAL__N_15printEPKcP6Status+0x770>
     552: d0 08        	bne	$55c <_ZN12_GLOBAL__N_19FreeChunk6removeEv+0xd6>
     554: a6 14        	ldx	$14                     ; 0x2014 <_ZN12_GLOBAL__N_15printEPKcP6Status+0x772>
     556: a4 15        	ldy	$15                     ; 0x2015 <_ZN12_GLOBAL__N_15printEPKcP6Status+0x773>
     558: 86 d5        	stx	$d5                     ; 0x20d5 <_ZN12_GLOBAL__N_15printEPKcP6Status+0x833>
     55a: 84 d6        	sty	$d6                     ; 0x20d6 <_ZN12_GLOBAL__N_15printEPKcP6Status+0x834>
     55c: 60           	rts
     55d: 00           	brk

0000055e <_ZN6__impl6VarInt4makeEPvc>:
     55e: 92 12        	sta	($12)                   ; 0x2012 <_ZN12_GLOBAL__N_15printEPKcP6Status+0x770>
     560: 60           	rts
     561: 00           	brk

00000562 <_ZNK6__impl6VarInt8high_bitEv>:
     562: b2 12        	lda	($12)                   ; 0x2012 <_ZN12_GLOBAL__N_15printEPKcP6Status+0x770>
     564: a8           	tay
     565: b1 12        	lda	($12),y                 ; 0x2012 <_ZN12_GLOBAL__N_15printEPKcP6Status+0x770>
     567: 10 03        	bpl	$56c <_ZNK6__impl6VarInt8high_bitEv+0xa>
     569: a9 01        	lda	#$1
     56b: 60           	rts
     56c: a9 00        	lda	#$0
     56e: 60           	rts
     56f: 00           	brk

00000570 <_ZNK6__impl6VarInt8negativeEv>:
     570: b2 12        	lda	($12)                   ; 0x2012 <_ZN12_GLOBAL__N_15printEPKcP6Status+0x770>
     572: a8           	tay
     573: b1 12        	lda	($12),y                 ; 0x2012 <_ZN12_GLOBAL__N_15printEPKcP6Status+0x770>
     575: 10 03        	bpl	$57a <_ZNK6__impl6VarInt8negativeEv+0xa>
     577: a9 01        	lda	#$1
     579: 60           	rts
     57a: a9 00        	lda	#$0
     57c: 60           	rts
     57d: 00           	brk

0000057e <_ZN6__impl6VarInt6negateEv>:
     57e: b2 12        	lda	($12)                   ; 0x2012 <_ZN12_GLOBAL__N_15printEPKcP6Status+0x770>
     580: f0 42        	beq	$5c4 <_ZN6__impl6VarInt6negateEv+0x46>
     582: aa           	tax
     583: a4 12        	ldy	$12                     ; 0x2012 <_ZN12_GLOBAL__N_15printEPKcP6Status+0x770>
     585: 84 16        	sty	$16                     ; 0x2016 <_ZN12_GLOBAL__N_15printEPKcP6Status+0x774>
     587: a4 13        	ldy	$13                     ; 0x2013 <_ZN12_GLOBAL__N_15printEPKcP6Status+0x771>
     589: 84 17        	sty	$17                     ; 0x2017 <_ZN12_GLOBAL__N_15printEPKcP6Status+0x775>
     58b: 64 12        	stz	$12                     ; 0x2012 <_ZN12_GLOBAL__N_15printEPKcP6Status+0x770>
     58d: 64 13        	stz	$13                     ; 0x2013 <_ZN12_GLOBAL__N_15printEPKcP6Status+0x771>
     58f: a0 01        	ldy	#$1
     591: a5 16        	lda	$16                     ; 0x2016 <_ZN12_GLOBAL__N_15printEPKcP6Status+0x774>
     593: 18           	clc
     594: 65 12        	adc	$12                     ; 0x2012 <_ZN12_GLOBAL__N_15printEPKcP6Status+0x770>
     596: 85 14        	sta	$14                     ; 0x2014 <_ZN12_GLOBAL__N_15printEPKcP6Status+0x772>
     598: a5 17        	lda	$17                     ; 0x2017 <_ZN12_GLOBAL__N_15printEPKcP6Status+0x775>
     59a: 69 00        	adc	#$0
     59c: 85 15        	sta	$15                     ; 0x2015 <_ZN12_GLOBAL__N_15printEPKcP6Status+0x773>
     59e: a9 00        	lda	#$0
     5a0: 38           	sec
     5a1: f1 14        	sbc	($14),y                 ; 0x2014 <_ZN12_GLOBAL__N_15printEPKcP6Status+0x772>
     5a3: 64 19        	stz	$19                     ; 0x2019 <_ZN12_GLOBAL__N_15printEPKcP6Status+0x777>
     5a5: b0 02        	bcs	$5a9 <_ZN6__impl6VarInt6negateEv+0x2b>
     5a7: 84 19        	sty	$19                     ; 0x2019 <_ZN12_GLOBAL__N_15printEPKcP6Status+0x777>
     5a9: 38           	sec
     5aa: e5 13        	sbc	$13                     ; 0x2013 <_ZN12_GLOBAL__N_15printEPKcP6Status+0x771>
     5ac: 85 18        	sta	$18                     ; 0x2018 <_ZN12_GLOBAL__N_15printEPKcP6Status+0x776>
     5ae: 64 13        	stz	$13                     ; 0x2013 <_ZN12_GLOBAL__N_15printEPKcP6Status+0x771>
     5b0: b0 02        	bcs	$5b4 <_ZN6__impl6VarInt6negateEv+0x36>
     5b2: 84 13        	sty	$13                     ; 0x2013 <_ZN12_GLOBAL__N_15printEPKcP6Status+0x771>
     5b4: a5 19        	lda	$19                     ; 0x2019 <_ZN12_GLOBAL__N_15printEPKcP6Status+0x777>
     5b6: 05 13        	ora	$13                     ; 0x2013 <_ZN12_GLOBAL__N_15printEPKcP6Status+0x771>
     5b8: 85 13        	sta	$13                     ; 0x2013 <_ZN12_GLOBAL__N_15printEPKcP6Status+0x771>
     5ba: a5 18        	lda	$18                     ; 0x2018 <_ZN12_GLOBAL__N_15printEPKcP6Status+0x776>
     5bc: 91 14        	sta	($14),y                 ; 0x2014 <_ZN12_GLOBAL__N_15printEPKcP6Status+0x772>
     5be: e6 12        	inc	$12                     ; 0x2012 <_ZN12_GLOBAL__N_15printEPKcP6Status+0x770>
     5c0: e4 12        	cpx	$12                     ; 0x2012 <_ZN12_GLOBAL__N_15printEPKcP6Status+0x770>
     5c2: d0 cd        	bne	$591 <_ZN6__impl6VarInt6negateEv+0x13>
     5c4: 60           	rts
     5c5: 00           	brk

000005c6 <_ZN6__impl6VarInt3shlEv>:
     5c6: b2 12        	lda	($12)                   ; 0x2012 <_ZN12_GLOBAL__N_15printEPKcP6Status+0x770>
     5c8: f0 36        	beq	$600 <_ZN6__impl6VarInt3shlEv+0x3a>
     5ca: 85 17        	sta	$17                     ; 0x2017 <_ZN12_GLOBAL__N_15printEPKcP6Status+0x775>
     5cc: 64 14        	stz	$14                     ; 0x2014 <_ZN12_GLOBAL__N_15printEPKcP6Status+0x772>
     5ce: a6 12        	ldx	$12                     ; 0x2012 <_ZN12_GLOBAL__N_15printEPKcP6Status+0x770>
     5d0: 86 15        	stx	$15                     ; 0x2015 <_ZN12_GLOBAL__N_15printEPKcP6Status+0x773>
     5d2: a6 13        	ldx	$13                     ; 0x2013 <_ZN12_GLOBAL__N_15printEPKcP6Status+0x771>
     5d4: 86 18        	stx	$18                     ; 0x2018 <_ZN12_GLOBAL__N_15printEPKcP6Status+0x776>
     5d6: a0 01        	ldy	#$1
     5d8: 64 12        	stz	$12                     ; 0x2012 <_ZN12_GLOBAL__N_15printEPKcP6Status+0x770>
     5da: a5 15        	lda	$15                     ; 0x2015 <_ZN12_GLOBAL__N_15printEPKcP6Status+0x773>
     5dc: 18           	clc
     5dd: 65 12        	adc	$12                     ; 0x2012 <_ZN12_GLOBAL__N_15printEPKcP6Status+0x770>
     5df: 85 16        	sta	$16                     ; 0x2016 <_ZN12_GLOBAL__N_15printEPKcP6Status+0x774>
     5e1: a6 17        	ldx	$17                     ; 0x2017 <_ZN12_GLOBAL__N_15printEPKcP6Status+0x775>
     5e3: a5 18        	lda	$18                     ; 0x2018 <_ZN12_GLOBAL__N_15printEPKcP6Status+0x776>
     5e5: 69 00        	adc	#$0
     5e7: 85 17        	sta	$17                     ; 0x2017 <_ZN12_GLOBAL__N_15printEPKcP6Status+0x775>
     5e9: b1 16        	lda	($16),y                 ; 0x2016 <_ZN12_GLOBAL__N_15printEPKcP6Status+0x774>
     5eb: 0a           	asl
     5ec: 64 13        	stz	$13                     ; 0x2013 <_ZN12_GLOBAL__N_15printEPKcP6Status+0x771>
     5ee: 26 13        	rol	$13                     ; 0x2013 <_ZN12_GLOBAL__N_15printEPKcP6Status+0x771>
     5f0: 05 14        	ora	$14                     ; 0x2014 <_ZN12_GLOBAL__N_15printEPKcP6Status+0x772>
     5f2: 91 16        	sta	($16),y                 ; 0x2016 <_ZN12_GLOBAL__N_15printEPKcP6Status+0x774>
     5f4: e6 12        	inc	$12                     ; 0x2012 <_ZN12_GLOBAL__N_15printEPKcP6Status+0x770>
     5f6: a5 13        	lda	$13                     ; 0x2013 <_ZN12_GLOBAL__N_15printEPKcP6Status+0x771>
     5f8: 85 14        	sta	$14                     ; 0x2014 <_ZN12_GLOBAL__N_15printEPKcP6Status+0x772>
     5fa: 86 17        	stx	$17                     ; 0x2017 <_ZN12_GLOBAL__N_15printEPKcP6Status+0x775>
     5fc: e4 12        	cpx	$12                     ; 0x2012 <_ZN12_GLOBAL__N_15printEPKcP6Status+0x770>
     5fe: d0 da        	bne	$5da <_ZN6__impl6VarInt3shlEv+0x14>
     600: 60           	rts

00000601 <__call_indir>:
     601: 6c 22 00     	jmp	($22)                   ; 0x22 <__rc18>

00000604 <__zero_bss>:
     604: a2 02        	ldx	#$2
     606: a0 00        	ldy	#$0
     608: a9 8f        	lda	#$8f
     60a: 85 12        	sta	$12                     ; 0x2012 <_ZN12_GLOBAL__N_15printEPKcP6Status+0x770>
     60c: a9 2c        	lda	#$2c
     60e: 85 13        	sta	$13                     ; 0x2013 <_ZN12_GLOBAL__N_15printEPKcP6Status+0x771>
     610: a9 00        	lda	#$0
     612: 84 14        	sty	$14                     ; 0x2014 <_ZN12_GLOBAL__N_15printEPKcP6Status+0x772>
     614: 4c 3a 2a     	jmp	$2a3a <__memset>

00000617 <__zero_zp_bss>:
     617: a2 70        	ldx	#$70
     619: a0 00        	ldy	#$0
     61b: a9 67        	lda	#$67
     61d: 85 12        	sta	$12                     ; 0x2012 <_ZN12_GLOBAL__N_15printEPKcP6Status+0x770>
     61f: a9 00        	lda	#$0
     621: 85 13        	sta	$13                     ; 0x2013 <_ZN12_GLOBAL__N_15printEPKcP6Status+0x771>
     623: a9 00        	lda	#$0
     625: 84 14        	sty	$14                     ; 0x2014 <_ZN12_GLOBAL__N_15printEPKcP6Status+0x772>
     627: 4c 3a 2a     	jmp	$2a3a <__memset>

0000062a <__copy_zp_data>:
     62a: a9 37        	lda	#$37
     62c: a2 00        	ldx	#$0
     62e: a0 30        	ldy	#$30
     630: 84 12        	sty	$12                     ; 0x2012 <_ZN12_GLOBAL__N_15printEPKcP6Status+0x770>
     632: a0 00        	ldy	#$0
     634: 84 13        	sty	$13                     ; 0x2013 <_ZN12_GLOBAL__N_15printEPKcP6Status+0x771>
     636: a0 00        	ldy	#$0
     638: 84 14        	sty	$14                     ; 0x2014 <_ZN12_GLOBAL__N_15printEPKcP6Status+0x772>
     63a: a0 03        	ldy	#$3
     63c: 84 15        	sty	$15                     ; 0x2015 <_ZN12_GLOBAL__N_15printEPKcP6Status+0x773>
     63e: 4c 0e 2a     	jmp	$2a0e <memcpy>

00000641 <f256Init>:
     641: 64 12        	stz	$12                     ; 0x2012 <_ZN12_GLOBAL__N_15printEPKcP6Status+0x770>
     643: 64 01        	stz	$1                      ; 0x2001 <_ZN12_GLOBAL__N_15printEPKcP6Status+0x75f>
     645: a2 3f        	ldx	#$3f
     647: 8e 00 d0     	stx	$d000                   ; 0xd000 <__heap_start+0xa36e>
     64a: a2 b3        	ldx	#$b3
     64c: 86 00        	stx	$0                      ; 0x2000 <_ZN12_GLOBAL__N_15printEPKcP6Status+0x75e>
     64e: 64 08        	stz	$8                      ; 0x2008 <_ZN12_GLOBAL__N_15printEPKcP6Status+0x766>
     650: a2 01        	ldx	#$1
     652: 86 09        	stx	$9                      ; 0x2009 <_ZN12_GLOBAL__N_15printEPKcP6Status+0x767>
     654: e8           	inx
     655: 86 0a        	stx	$a                      ; 0x200a <_ZN12_GLOBAL__N_15printEPKcP6Status+0x768>
     657: e8           	inx
     658: 86 0b        	stx	$b                      ; 0x200b <_ZN12_GLOBAL__N_15printEPKcP6Status+0x769>
     65a: e8           	inx
     65b: 86 0c        	stx	$c                      ; 0x200c <_ZN12_GLOBAL__N_15printEPKcP6Status+0x76a>
     65d: e8           	inx
     65e: 86 0d        	stx	$d                      ; 0x200d <_ZN12_GLOBAL__N_15printEPKcP6Status+0x76b>
     660: a2 f0        	ldx	#$f0
     662: 86 67        	stx	$67                     ; 0x2067 <_ZN12_GLOBAL__N_15printEPKcP6Status+0x7c5>
     664: 64 68        	stz	$68                     ; 0x2068 <_ZN12_GLOBAL__N_15printEPKcP6Status+0x7c6>
     666: a2 ca        	ldx	#$ca
     668: a0 00        	ldy	#$0
     66a: 86 f0        	stx	$f0                     ; 0x20f0 <_ZN12_GLOBAL__N_15printEPKcP6Status+0x84e>
     66c: 84 f1        	sty	$f1                     ; 0x20f1 <_ZN12_GLOBAL__N_15printEPKcP6Status+0x84f>
     66e: a2 00        	ldx	#$0
     670: 86 16        	stx	$16                     ; 0x2016 <_ZN12_GLOBAL__N_15printEPKcP6Status+0x774>
     672: ca           	dex
     673: 86 17        	stx	$17                     ; 0x2017 <_ZN12_GLOBAL__N_15printEPKcP6Status+0x775>
     675: 8a           	txa
     676: 0a           	asl
     677: 0a           	asl
     678: 18           	clc
     679: 69 d4        	adc	#$d4
     67b: 85 18        	sta	$18                     ; 0x2018 <_ZN12_GLOBAL__N_15printEPKcP6Status+0x776>
     67d: a0 00        	ldy	#$0
     67f: 64 15        	stz	$15                     ; 0x2015 <_ZN12_GLOBAL__N_15printEPKcP6Status+0x773>
     681: 64 14        	stz	$14                     ; 0x2014 <_ZN12_GLOBAL__N_15printEPKcP6Status+0x772>
     683: a6 17        	ldx	$17                     ; 0x2017 <_ZN12_GLOBAL__N_15printEPKcP6Status+0x775>
     685: e0 03        	cpx	#$3
     687: a6 01        	ldx	$1                      ; 0x2001 <_ZN12_GLOBAL__N_15printEPKcP6Status+0x75f>
     689: 86 1a        	stx	$1a                     ; 0x201a <_ZN12_GLOBAL__N_15printEPKcP6Status+0x778>
     68b: a2 d0        	ldx	#$d0
     68d: 84 19        	sty	$19                     ; 0x2019 <_ZN12_GLOBAL__N_15printEPKcP6Status+0x777>
     68f: b0 02        	bcs	$693 <f256Init+0x52>
     691: a6 18        	ldx	$18                     ; 0x2018 <_ZN12_GLOBAL__N_15printEPKcP6Status+0x776>
     693: 86 13        	stx	$13                     ; 0x2013 <_ZN12_GLOBAL__N_15printEPKcP6Status+0x771>
     695: a5 15        	lda	$15                     ; 0x2015 <_ZN12_GLOBAL__N_15printEPKcP6Status+0x773>
     697: 18           	clc
     698: 65 12        	adc	$12                     ; 0x2012 <_ZN12_GLOBAL__N_15printEPKcP6Status+0x770>
     69a: a8           	tay
     69b: a6 15        	ldx	$15                     ; 0x2015 <_ZN12_GLOBAL__N_15printEPKcP6Status+0x773>
     69d: a5 14        	lda	$14                     ; 0x2014 <_ZN12_GLOBAL__N_15printEPKcP6Status+0x772>
     69f: 85 1b        	sta	$1b                     ; 0x201b <_ZN12_GLOBAL__N_15printEPKcP6Status+0x779>
     6a1: a5 14        	lda	$14                     ; 0x2014 <_ZN12_GLOBAL__N_15printEPKcP6Status+0x772>
     6a3: 65 13        	adc	$13                     ; 0x2013 <_ZN12_GLOBAL__N_15printEPKcP6Status+0x771>
     6a5: 84 14        	sty	$14                     ; 0x2014 <_ZN12_GLOBAL__N_15printEPKcP6Status+0x772>
     6a7: a0 01        	ldy	#$1
     6a9: 84 01        	sty	$1                      ; 0x2001 <_ZN12_GLOBAL__N_15printEPKcP6Status+0x75f>
     6ab: 85 15        	sta	$15                     ; 0x2015 <_ZN12_GLOBAL__N_15printEPKcP6Status+0x773>
     6ad: a5 19        	lda	$19                     ; 0x2019 <_ZN12_GLOBAL__N_15printEPKcP6Status+0x777>
     6af: 92 14        	sta	($14)                   ; 0x2014 <_ZN12_GLOBAL__N_15printEPKcP6Status+0x772>
     6b1: 91 14        	sta	($14),y                 ; 0x2014 <_ZN12_GLOBAL__N_15printEPKcP6Status+0x772>
     6b3: c8           	iny
     6b4: 91 14        	sta	($14),y                 ; 0x2014 <_ZN12_GLOBAL__N_15printEPKcP6Status+0x772>
     6b6: 85 13        	sta	$13                     ; 0x2013 <_ZN12_GLOBAL__N_15printEPKcP6Status+0x771>
     6b8: c8           	iny
     6b9: a9 ff        	lda	#$ff
     6bb: 91 14        	sta	($14),y                 ; 0x2014 <_ZN12_GLOBAL__N_15printEPKcP6Status+0x772>
     6bd: 8a           	txa
     6be: a6 1a        	ldx	$1a                     ; 0x201a <_ZN12_GLOBAL__N_15printEPKcP6Status+0x778>
     6c0: 86 01        	stx	$1                      ; 0x2001 <_ZN12_GLOBAL__N_15printEPKcP6Status+0x75f>
     6c2: 18           	clc
     6c3: 69 04        	adc	#$4
     6c5: 85 15        	sta	$15                     ; 0x2015 <_ZN12_GLOBAL__N_15printEPKcP6Status+0x773>
     6c7: a5 1b        	lda	$1b                     ; 0x201b <_ZN12_GLOBAL__N_15printEPKcP6Status+0x779>
     6c9: 69 00        	adc	#$0
     6cb: e6 13        	inc	$13                     ; 0x2013 <_ZN12_GLOBAL__N_15printEPKcP6Status+0x771>
     6cd: a4 13        	ldy	$13                     ; 0x2013 <_ZN12_GLOBAL__N_15printEPKcP6Status+0x771>
     6cf: 85 14        	sta	$14                     ; 0x2014 <_ZN12_GLOBAL__N_15printEPKcP6Status+0x772>
     6d1: c9 04        	cmp	#$4
     6d3: f0 03        	beq	$6d8 <f256Init+0x97>
     6d5: 4c 83 06     	jmp	$683 <f256Init+0x42>
     6d8: a5 15        	lda	$15                     ; 0x2015 <_ZN12_GLOBAL__N_15printEPKcP6Status+0x773>
     6da: f0 03        	beq	$6df <f256Init+0x9e>
     6dc: 4c 83 06     	jmp	$683 <f256Init+0x42>
     6df: a6 16        	ldx	$16                     ; 0x2016 <_ZN12_GLOBAL__N_15printEPKcP6Status+0x774>
     6e1: e8           	inx
     6e2: e0 04        	cpx	#$4
     6e4: f0 03        	beq	$6e9 <f256Init+0xa8>
     6e6: 4c 70 06     	jmp	$670 <f256Init+0x2f>
     6e9: ad 02 d0     	lda	$d002                   ; 0xd002 <__heap_start+0xa370>
     6ec: 29 f0        	and	#$f0
     6ee: 8d 02 d0     	sta	$d002                   ; 0xd002 <__heap_start+0xa370>
     6f1: ad 02 d0     	lda	$d002                   ; 0xd002 <__heap_start+0xa370>
     6f4: 29 0f        	and	#$f
     6f6: 09 10        	ora	#$10
     6f8: 8d 02 d0     	sta	$d002                   ; 0xd002 <__heap_start+0xa370>
     6fb: a2 02        	ldx	#$2
     6fd: 8e 03 d0     	stx	$d003                   ; 0xd003 <__heap_start+0xa371>
     700: 20 bc 07     	jsr	$7bc <textReset>
     703: 20 2f 09     	jsr	$92f <bitmapReset>
     706: a9 10        	lda	#$10
     708: a2 08        	ldx	#$8
     70a: 86 7e        	stx	$7e                     ; 0x207e <_ZN12_GLOBAL__N_15printEPKcP6Status+0x7dc>
     70c: 86 7f        	stx	$7f                     ; 0x207f <_ZN12_GLOBAL__N_15printEPKcP6Status+0x7dd>
     70e: 86 80        	stx	$80                     ; 0x2080 <_ZN12_GLOBAL__N_15printEPKcP6Status+0x7de>
     710: 8d 00 d2     	sta	$d200                   ; 0xd200 <__heap_start+0xa56e>
     713: a4 7f        	ldy	$7f                     ; 0x207f <_ZN12_GLOBAL__N_15printEPKcP6Status+0x7dd>
     715: aa           	tax
     716: c0 08        	cpy	#$8
     718: f0 02        	beq	$71c <f256Init+0xdb>
     71a: a2 00        	ldx	#$0
     71c: 8e 0c d2     	stx	$d20c                   ; 0xd20c <__heap_start+0xa57a>
     71f: a6 80        	ldx	$80                     ; 0x2080 <_ZN12_GLOBAL__N_15printEPKcP6Status+0x7de>
     721: e0 08        	cpx	#$8
     723: f0 02        	beq	$727 <f256Init+0xe6>
     725: a9 00        	lda	#$0
     727: 8d 18 d2     	sta	$d218                   ; 0xd218 <__heap_start+0xa586>
     72a: a0 d9        	ldy	#$d9
     72c: a2 00        	ldx	#$0
     72e: 64 12        	stz	$12                     ; 0x2012 <_ZN12_GLOBAL__N_15printEPKcP6Status+0x770>
     730: 84 13        	sty	$13                     ; 0x2013 <_ZN12_GLOBAL__N_15printEPKcP6Status+0x771>
     732: b5 81        	lda	$81,x                   ; 0x2081 <_ZN12_GLOBAL__N_15printEPKcP6Status+0x7df>
     734: 92 12        	sta	($12)                   ; 0x2012 <_ZN12_GLOBAL__N_15printEPKcP6Status+0x770>
     736: e8           	inx
     737: 18           	clc
     738: a5 12        	lda	$12                     ; 0x2012 <_ZN12_GLOBAL__N_15printEPKcP6Status+0x770>
     73a: 69 08        	adc	#$8
     73c: 85 12        	sta	$12                     ; 0x2012 <_ZN12_GLOBAL__N_15printEPKcP6Status+0x770>
     73e: 98           	tya
     73f: 69 00        	adc	#$0
     741: a8           	tay
     742: e0 40        	cpx	#$40
     744: d0 ea        	bne	$730 <f256Init+0xef>
     746: 64 c1        	stz	$c1                     ; 0x20c1 <_ZN12_GLOBAL__N_15printEPKcP6Status+0x81f>
     748: 64 c2        	stz	$c2                     ; 0x20c2 <_ZN12_GLOBAL__N_15printEPKcP6Status+0x820>
     74a: 64 c3        	stz	$c3                     ; 0x20c3 <_ZN12_GLOBAL__N_15printEPKcP6Status+0x821>
     74c: 64 c4        	stz	$c4                     ; 0x20c4 <_ZN12_GLOBAL__N_15printEPKcP6Status+0x822>
     74e: 64 c5        	stz	$c5                     ; 0x20c5 <_ZN12_GLOBAL__N_15printEPKcP6Status+0x823>
     750: 64 c6        	stz	$c6                     ; 0x20c6 <_ZN12_GLOBAL__N_15printEPKcP6Status+0x824>
     752: 64 c7        	stz	$c7                     ; 0x20c7 <_ZN12_GLOBAL__N_15printEPKcP6Status+0x825>
     754: 64 c8        	stz	$c8                     ; 0x20c8 <_ZN12_GLOBAL__N_15printEPKcP6Status+0x826>
     756: a5 67        	lda	$67                     ; 0x2067 <_ZN12_GLOBAL__N_15printEPKcP6Status+0x7c5>
     758: a6 68        	ldx	$68                     ; 0x2068 <_ZN12_GLOBAL__N_15printEPKcP6Status+0x7c6>
     75a: 85 12        	sta	$12                     ; 0x2012 <_ZN12_GLOBAL__N_15printEPKcP6Status+0x770>
     75c: 86 13        	stx	$13                     ; 0x2013 <_ZN12_GLOBAL__N_15printEPKcP6Status+0x771>
     75e: a0 0b        	ldy	#$b
     760: 18           	clc
     761: 69 0b        	adc	#$b
     763: 85 14        	sta	$14                     ; 0x2014 <_ZN12_GLOBAL__N_15printEPKcP6Status+0x772>
     765: 8a           	txa
     766: 69 00        	adc	#$0
     768: 85 15        	sta	$15                     ; 0x2015 <_ZN12_GLOBAL__N_15printEPKcP6Status+0x773>
     76a: a9 d7        	lda	#$d7
     76c: 91 12        	sta	($12),y                 ; 0x2012 <_ZN12_GLOBAL__N_15printEPKcP6Status+0x770>
     76e: a0 01        	ldy	#$1
     770: a9 00        	lda	#$0
     772: 91 14        	sta	($14),y                 ; 0x2014 <_ZN12_GLOBAL__N_15printEPKcP6Status+0x772>
     774: a0 0d        	ldy	#$d
     776: a9 08        	lda	#$8
     778: 91 12        	sta	($12),y                 ; 0x2012 <_ZN12_GLOBAL__N_15printEPKcP6Status+0x770>
     77a: a2 df        	ldx	#$df
     77c: a0 00        	ldy	#$0
     77e: 86 12        	stx	$12                     ; 0x2012 <_ZN12_GLOBAL__N_15printEPKcP6Status+0x770>
     780: 84 13        	sty	$13                     ; 0x2013 <_ZN12_GLOBAL__N_15printEPKcP6Status+0x771>
     782: a2 c9        	ldx	#$c9
     784: 86 14        	stx	$14                     ; 0x2014 <_ZN12_GLOBAL__N_15printEPKcP6Status+0x772>
     786: a2 00        	ldx	#$0
     788: 86 15        	stx	$15                     ; 0x2015 <_ZN12_GLOBAL__N_15printEPKcP6Status+0x773>
     78a: 20 dc ff     	jsr	$ffdc <__heap_start+0xd34a>
     78d: 92 12        	sta	($12)                   ; 0x2012 <_ZN12_GLOBAL__N_15printEPKcP6Status+0x770>
     78f: a9 00        	lda	#$0
     791: 6a           	ror
     792: 85 14        	sta	$14                     ; 0x2014 <_ZN12_GLOBAL__N_15printEPKcP6Status+0x772>
     794: a6 dd        	ldx	$dd                     ; 0x20dd <_ZN12_GLOBAL__N_15printEPKcP6Status+0x83b>
     796: a4 de        	ldy	$de                     ; 0x20de <_ZN12_GLOBAL__N_15printEPKcP6Status+0x83c>
     798: 8e 00 de     	stx	$de00                   ; 0xde00 <__heap_start+0xb16e>
     79b: 9c 01 de     	stz	$de01                   ; 0xde01 <__heap_start+0xb16f>
     79e: 8c 02 de     	sty	$de02                   ; 0xde02 <__heap_start+0xb170>
     7a1: 9c 03 de     	stz	$de03                   ; 0xde03 <__heap_start+0xb171>
     7a4: ae 10 de     	ldx	$de10                   ; 0xde10 <__heap_start+0xb17e>
     7a7: ac 11 de     	ldy	$de11                   ; 0xde11 <__heap_start+0xb17f>
     7aa: ad 12 de     	lda	$de12                   ; 0xde12 <__heap_start+0xb180>
     7ad: ad 13 de     	lda	$de13                   ; 0xde13 <__heap_start+0xb181>
     7b0: 8e a4 d6     	stx	$d6a4                   ; 0xd6a4 <__heap_start+0xaa12>
     7b3: 8c a5 d6     	sty	$d6a5                   ; 0xd6a5 <__heap_start+0xaa13>
     7b6: a2 03        	ldx	#$3
     7b8: 8e a6 d6     	stx	$d6a6                   ; 0xd6a6 <__heap_start+0xaa14>
     7bb: 60           	rts

000007bc <textReset>:
     7bc: 64 14        	stz	$14                     ; 0x2014 <_ZN12_GLOBAL__N_15printEPKcP6Status+0x772>
     7be: a2 00        	ldx	#$0
     7c0: 86 12        	stx	$12                     ; 0x2012 <_ZN12_GLOBAL__N_15printEPKcP6Status+0x770>
     7c2: a2 c0        	ldx	#$c0
     7c4: 86 13        	stx	$13                     ; 0x2013 <_ZN12_GLOBAL__N_15printEPKcP6Status+0x771>
     7c6: a2 f0        	ldx	#$f0
     7c8: 86 62        	stx	$62                     ; 0x2062 <_ZN12_GLOBAL__N_15printEPKcP6Status+0x7c0>
     7ca: ad 01 d0     	lda	$d001                   ; 0xd001 <__heap_start+0xa36f>
     7cd: 29 f9        	and	#$f9
     7cf: 09 04        	ora	#$4
     7d1: 8d 01 d0     	sta	$d001                   ; 0xd001 <__heap_start+0xa36f>
     7d4: a2 50        	ldx	#$50
     7d6: 86 60        	stx	$60                     ; 0x2060 <_ZN12_GLOBAL__N_15printEPKcP6Status+0x7be>
     7d8: a2 1e        	ldx	#$1e
     7da: 86 61        	stx	$61                     ; 0x2061 <_ZN12_GLOBAL__N_15printEPKcP6Status+0x7bf>
     7dc: 9c 10 d0     	stz	$d010                   ; 0xd010 <__heap_start+0xa37e>
     7df: a0 00        	ldy	#$0
     7e1: a2 00        	ldx	#$0
     7e3: 84 18        	sty	$18                     ; 0x2018 <_ZN12_GLOBAL__N_15printEPKcP6Status+0x776>
     7e5: b9 30 00     	lda	$30,y                   ; 0x30 <textColors>
     7e8: 85 1b        	sta	$1b                     ; 0x201b <_ZN12_GLOBAL__N_15printEPKcP6Status+0x779>
     7ea: b9 31 00     	lda	$31,y                   ; 0x31 <textColors+0x1>
     7ed: 85 1c        	sta	$1c                     ; 0x201c <_ZN12_GLOBAL__N_15printEPKcP6Status+0x77a>
     7ef: b9 32 00     	lda	$32,y                   ; 0x32 <textColors+0x2>
     7f2: 85 1d        	sta	$1d                     ; 0x201d <_ZN12_GLOBAL__N_15printEPKcP6Status+0x77b>
     7f4: 84 1a        	sty	$1a                     ; 0x201a <_ZN12_GLOBAL__N_15printEPKcP6Status+0x778>
     7f6: 8e 00 de     	stx	$de00                   ; 0xde00 <__heap_start+0xb16e>
     7f9: 9c 01 de     	stz	$de01                   ; 0xde01 <__heap_start+0xb16f>
     7fc: a0 04        	ldy	#$4
     7fe: 8c 02 de     	sty	$de02                   ; 0xde02 <__heap_start+0xb170>
     801: 9c 03 de     	stz	$de03                   ; 0xde03 <__heap_start+0xb171>
     804: ac 10 de     	ldy	$de10                   ; 0xde10 <__heap_start+0xb17e>
     807: ad 11 de     	lda	$de11                   ; 0xde11 <__heap_start+0xb17f>
     80a: 85 15        	sta	$15                     ; 0x2015 <_ZN12_GLOBAL__N_15printEPKcP6Status+0x773>
     80c: 18           	clc
     80d: 98           	tya
     80e: 65 14        	adc	$14                     ; 0x2014 <_ZN12_GLOBAL__N_15printEPKcP6Status+0x772>
     810: 85 16        	sta	$16                     ; 0x2016 <_ZN12_GLOBAL__N_15printEPKcP6Status+0x774>
     812: a9 d8        	lda	#$d8
     814: 65 15        	adc	$15                     ; 0x2015 <_ZN12_GLOBAL__N_15printEPKcP6Status+0x773>
     816: 86 19        	stx	$19                     ; 0x2019 <_ZN12_GLOBAL__N_15printEPKcP6Status+0x777>
     818: ae 12 de     	ldx	$de12                   ; 0xde12 <__heap_start+0xb180>
     81b: ae 13 de     	ldx	$de13                   ; 0xde13 <__heap_start+0xb181>
     81e: 85 17        	sta	$17                     ; 0x2017 <_ZN12_GLOBAL__N_15printEPKcP6Status+0x775>
     820: a5 1d        	lda	$1d                     ; 0x201d <_ZN12_GLOBAL__N_15printEPKcP6Status+0x77b>
     822: 92 16        	sta	($16)                   ; 0x2016 <_ZN12_GLOBAL__N_15printEPKcP6Status+0x774>
     824: a0 01        	ldy	#$1
     826: a5 1c        	lda	$1c                     ; 0x201c <_ZN12_GLOBAL__N_15printEPKcP6Status+0x77a>
     828: 91 16        	sta	($16),y                 ; 0x2016 <_ZN12_GLOBAL__N_15printEPKcP6Status+0x774>
     82a: c8           	iny
     82b: a5 1b        	lda	$1b                     ; 0x201b <_ZN12_GLOBAL__N_15printEPKcP6Status+0x779>
     82d: 91 16        	sta	($16),y                 ; 0x2016 <_ZN12_GLOBAL__N_15printEPKcP6Status+0x774>
     82f: c8           	iny
     830: a9 ff        	lda	#$ff
     832: 91 16        	sta	($16),y                 ; 0x2016 <_ZN12_GLOBAL__N_15printEPKcP6Status+0x774>
     834: a6 1a        	ldx	$1a                     ; 0x201a <_ZN12_GLOBAL__N_15printEPKcP6Status+0x778>
     836: b4 30        	ldy	$30,x                   ; 0x2030 <_ZN12_GLOBAL__N_15printEPKcP6Status+0x78e>
     838: 84 1a        	sty	$1a                     ; 0x201a <_ZN12_GLOBAL__N_15printEPKcP6Status+0x778>
     83a: b4 31        	ldy	$31,x                   ; 0x2031 <_ZN12_GLOBAL__N_15printEPKcP6Status+0x78f>
     83c: 84 1b        	sty	$1b                     ; 0x201b <_ZN12_GLOBAL__N_15printEPKcP6Status+0x779>
     83e: b5 32        	lda	$32,x                   ; 0x2032 <_ZN12_GLOBAL__N_15printEPKcP6Status+0x790>
     840: aa           	tax
     841: 86 1c        	stx	$1c                     ; 0x201c <_ZN12_GLOBAL__N_15printEPKcP6Status+0x77a>
     843: a6 19        	ldx	$19                     ; 0x2019 <_ZN12_GLOBAL__N_15printEPKcP6Status+0x777>
     845: 8e 00 de     	stx	$de00                   ; 0xde00 <__heap_start+0xb16e>
     848: 9c 01 de     	stz	$de01                   ; 0xde01 <__heap_start+0xb16f>
     84b: a2 04        	ldx	#$4
     84d: 8e 02 de     	stx	$de02                   ; 0xde02 <__heap_start+0xb170>
     850: 9c 03 de     	stz	$de03                   ; 0xde03 <__heap_start+0xb171>
     853: ae 10 de     	ldx	$de10                   ; 0xde10 <__heap_start+0xb17e>
     856: 86 15        	stx	$15                     ; 0x2015 <_ZN12_GLOBAL__N_15printEPKcP6Status+0x773>
     858: ae 11 de     	ldx	$de11                   ; 0xde11 <__heap_start+0xb17f>
     85b: 86 16        	stx	$16                     ; 0x2016 <_ZN12_GLOBAL__N_15printEPKcP6Status+0x774>
     85d: a9 40        	lda	#$40
     85f: 18           	clc
     860: 65 15        	adc	$15                     ; 0x2015 <_ZN12_GLOBAL__N_15printEPKcP6Status+0x773>
     862: aa           	tax
     863: a9 d8        	lda	#$d8
     865: 65 16        	adc	$16                     ; 0x2016 <_ZN12_GLOBAL__N_15printEPKcP6Status+0x774>
     867: 86 16        	stx	$16                     ; 0x2016 <_ZN12_GLOBAL__N_15printEPKcP6Status+0x774>
     869: ae 12 de     	ldx	$de12                   ; 0xde12 <__heap_start+0xb180>
     86c: 85 17        	sta	$17                     ; 0x2017 <_ZN12_GLOBAL__N_15printEPKcP6Status+0x775>
     86e: ae 13 de     	ldx	$de13                   ; 0xde13 <__heap_start+0xb181>
     871: a6 19        	ldx	$19                     ; 0x2019 <_ZN12_GLOBAL__N_15printEPKcP6Status+0x777>
     873: a5 1c        	lda	$1c                     ; 0x201c <_ZN12_GLOBAL__N_15printEPKcP6Status+0x77a>
     875: 92 16        	sta	($16)                   ; 0x2016 <_ZN12_GLOBAL__N_15printEPKcP6Status+0x774>
     877: a0 01        	ldy	#$1
     879: a5 1b        	lda	$1b                     ; 0x201b <_ZN12_GLOBAL__N_15printEPKcP6Status+0x779>
     87b: 91 16        	sta	($16),y                 ; 0x2016 <_ZN12_GLOBAL__N_15printEPKcP6Status+0x774>
     87d: c8           	iny
     87e: a5 1a        	lda	$1a                     ; 0x201a <_ZN12_GLOBAL__N_15printEPKcP6Status+0x778>
     880: 91 16        	sta	($16),y                 ; 0x2016 <_ZN12_GLOBAL__N_15printEPKcP6Status+0x774>
     882: a9 ff        	lda	#$ff
     884: c8           	iny
     885: 91 16        	sta	($16),y                 ; 0x2016 <_ZN12_GLOBAL__N_15printEPKcP6Status+0x774>
     887: e8           	inx
     888: 18           	clc
     889: a5 18        	lda	$18                     ; 0x2018 <_ZN12_GLOBAL__N_15printEPKcP6Status+0x776>
     88b: 69 03        	adc	#$3
     88d: a8           	tay
     88e: c9 30        	cmp	#$30
     890: f0 03        	beq	$895 <textReset+0xd9>
     892: 4c e3 07     	jmp	$7e3 <textReset+0x27>
     895: a6 01        	ldx	$1                      ; 0x2001 <_ZN12_GLOBAL__N_15printEPKcP6Status+0x75f>
     897: 86 18        	stx	$18                     ; 0x2018 <_ZN12_GLOBAL__N_15printEPKcP6Status+0x776>
     899: a6 60        	ldx	$60                     ; 0x2060 <_ZN12_GLOBAL__N_15printEPKcP6Status+0x7be>
     89b: a4 61        	ldy	$61                     ; 0x2061 <_ZN12_GLOBAL__N_15printEPKcP6Status+0x7bf>
     89d: 8e 00 de     	stx	$de00                   ; 0xde00 <__heap_start+0xb16e>
     8a0: 9c 01 de     	stz	$de01                   ; 0xde01 <__heap_start+0xb16f>
     8a3: 8c 02 de     	sty	$de02                   ; 0xde02 <__heap_start+0xb170>
     8a6: 9c 03 de     	stz	$de03                   ; 0xde03 <__heap_start+0xb171>
     8a9: ae 10 de     	ldx	$de10                   ; 0xde10 <__heap_start+0xb17e>
     8ac: ac 11 de     	ldy	$de11                   ; 0xde11 <__heap_start+0xb17f>
     8af: ad 12 de     	lda	$de12                   ; 0xde12 <__heap_start+0xb180>
     8b2: ad 13 de     	lda	$de13                   ; 0xde13 <__heap_start+0xb181>
     8b5: a9 02        	lda	#$2
     8b7: 85 01        	sta	$1                      ; 0x2001 <_ZN12_GLOBAL__N_15printEPKcP6Status+0x75f>
     8b9: e0 01        	cpx	#$1
     8bb: 98           	tya
     8bc: e9 00        	sbc	#$0
     8be: 50 02        	bvc	$8c2 <textReset+0x106>
     8c0: 49 80        	eor	#$80
     8c2: c9 00        	cmp	#$0
     8c4: 30 50        	bmi	$916 <textReset+0x15a>
     8c6: a9 20        	lda	#$20
     8c8: 86 19        	stx	$19                     ; 0x2019 <_ZN12_GLOBAL__N_15printEPKcP6Status+0x777>
     8ca: 86 14        	stx	$14                     ; 0x2014 <_ZN12_GLOBAL__N_15printEPKcP6Status+0x772>
     8cc: 84 15        	sty	$15                     ; 0x2015 <_ZN12_GLOBAL__N_15printEPKcP6Status+0x773>
     8ce: a2 00        	ldx	#$0
     8d0: 86 16        	stx	$16                     ; 0x2016 <_ZN12_GLOBAL__N_15printEPKcP6Status+0x774>
     8d2: a2 c0        	ldx	#$c0
     8d4: 86 17        	stx	$17                     ; 0x2017 <_ZN12_GLOBAL__N_15printEPKcP6Status+0x775>
     8d6: 80 04        	bra	$8dc <textReset+0x120>
     8d8: a6 15        	ldx	$15                     ; 0x2015 <_ZN12_GLOBAL__N_15printEPKcP6Status+0x773>
     8da: f0 14        	beq	$8f0 <textReset+0x134>
     8dc: 92 16        	sta	($16)                   ; 0x2016 <_ZN12_GLOBAL__N_15printEPKcP6Status+0x774>
     8de: e6 16        	inc	$16                     ; 0x2016 <_ZN12_GLOBAL__N_15printEPKcP6Status+0x774>
     8e0: d0 02        	bne	$8e4 <textReset+0x128>
     8e2: e6 17        	inc	$17                     ; 0x2017 <_ZN12_GLOBAL__N_15printEPKcP6Status+0x775>
     8e4: a2 ff        	ldx	#$ff
     8e6: c6 14        	dec	$14                     ; 0x2014 <_ZN12_GLOBAL__N_15printEPKcP6Status+0x772>
     8e8: e4 14        	cpx	$14                     ; 0x2014 <_ZN12_GLOBAL__N_15printEPKcP6Status+0x772>
     8ea: d0 ec        	bne	$8d8 <textReset+0x11c>
     8ec: c6 15        	dec	$15                     ; 0x2015 <_ZN12_GLOBAL__N_15printEPKcP6Status+0x773>
     8ee: 80 e8        	bra	$8d8 <textReset+0x11c>
     8f0: a6 14        	ldx	$14                     ; 0x2014 <_ZN12_GLOBAL__N_15printEPKcP6Status+0x772>
     8f2: d0 e8        	bne	$8dc <textReset+0x120>
     8f4: a2 03        	ldx	#$3
     8f6: 86 01        	stx	$1                      ; 0x2001 <_ZN12_GLOBAL__N_15printEPKcP6Status+0x75f>
     8f8: a6 19        	ldx	$19                     ; 0x2019 <_ZN12_GLOBAL__N_15printEPKcP6Status+0x777>
     8fa: 80 03        	bra	$8ff <textReset+0x143>
     8fc: 98           	tya
     8fd: f0 12        	beq	$911 <textReset+0x155>
     8ff: a5 62        	lda	$62                     ; 0x2062 <_ZN12_GLOBAL__N_15printEPKcP6Status+0x7c0>
     901: 92 12        	sta	($12)                   ; 0x2012 <_ZN12_GLOBAL__N_15printEPKcP6Status+0x770>
     903: e6 12        	inc	$12                     ; 0x2012 <_ZN12_GLOBAL__N_15printEPKcP6Status+0x770>
     905: d0 02        	bne	$909 <textReset+0x14d>
     907: e6 13        	inc	$13                     ; 0x2013 <_ZN12_GLOBAL__N_15printEPKcP6Status+0x771>
     909: ca           	dex
     90a: e0 ff        	cpx	#$ff
     90c: d0 ee        	bne	$8fc <textReset+0x140>
     90e: 88           	dey
     90f: 80 eb        	bra	$8fc <textReset+0x140>
     911: 8a           	txa
     912: d0 eb        	bne	$8ff <textReset+0x143>
     914: 80 04        	bra	$91a <textReset+0x15e>
     916: a2 03        	ldx	#$3
     918: 86 01        	stx	$1                      ; 0x2001 <_ZN12_GLOBAL__N_15printEPKcP6Status+0x75f>
     91a: a6 18        	ldx	$18                     ; 0x2018 <_ZN12_GLOBAL__N_15printEPKcP6Status+0x776>
     91c: 86 01        	stx	$1                      ; 0x2001 <_ZN12_GLOBAL__N_15printEPKcP6Status+0x75f>
     91e: 64 69        	stz	$69                     ; 0x2069 <_ZN12_GLOBAL__N_15printEPKcP6Status+0x7c7>
     920: 9c 14 d0     	stz	$d014                   ; 0xd014 <__heap_start+0xa382>
     923: 9c 15 d0     	stz	$d015                   ; 0xd015 <__heap_start+0xa383>
     926: 64 6a        	stz	$6a                     ; 0x206a <_ZN12_GLOBAL__N_15printEPKcP6Status+0x7c8>
     928: 9c 16 d0     	stz	$d016                   ; 0xd016 <__heap_start+0xa384>
     92b: 9c 17 d0     	stz	$d017                   ; 0xd017 <__heap_start+0xa385>
     92e: 60           	rts

0000092f <bitmapReset>:
     92f: a2 01        	ldx	#$1
     931: 86 79        	stx	$79                     ; 0x2079 <_ZN12_GLOBAL__N_15printEPKcP6Status+0x7d7>
     933: 86 7a        	stx	$7a                     ; 0x207a <_ZN12_GLOBAL__N_15printEPKcP6Status+0x7d8>
     935: a0 40        	ldy	#$40
     937: 8c 00 de     	sty	$de00                   ; 0xde00 <__heap_start+0xb16e>
     93a: 8e 01 de     	stx	$de01                   ; 0xde01 <__heap_start+0xb16f>
     93d: a2 f0        	ldx	#$f0
     93f: 8e 02 de     	stx	$de02                   ; 0xde02 <__heap_start+0xb170>
     942: 9c 03 de     	stz	$de03                   ; 0xde03 <__heap_start+0xb171>
     945: ae 10 de     	ldx	$de10                   ; 0xde10 <__heap_start+0xb17e>
     948: 86 17        	stx	$17                     ; 0x2017 <_ZN12_GLOBAL__N_15printEPKcP6Status+0x775>
     94a: ae 11 de     	ldx	$de11                   ; 0xde11 <__heap_start+0xb17f>
     94d: 86 12        	stx	$12                     ; 0x2012 <_ZN12_GLOBAL__N_15printEPKcP6Status+0x770>
     94f: ae 12 de     	ldx	$de12                   ; 0xde12 <__heap_start+0xb180>
     952: 86 13        	stx	$13                     ; 0x2013 <_ZN12_GLOBAL__N_15printEPKcP6Status+0x771>
     954: ae 13 de     	ldx	$de13                   ; 0xde13 <__heap_start+0xb181>
     957: 86 14        	stx	$14                     ; 0x2014 <_ZN12_GLOBAL__N_15printEPKcP6Status+0x772>
     959: 64 77        	stz	$77                     ; 0x2077 <_ZN12_GLOBAL__N_15printEPKcP6Status+0x7d5>
     95b: a2 ff        	ldx	#$ff
     95d: 86 78        	stx	$78                     ; 0x2078 <_ZN12_GLOBAL__N_15printEPKcP6Status+0x7d6>
     95f: a6 12        	ldx	$12                     ; 0x2012 <_ZN12_GLOBAL__N_15printEPKcP6Status+0x770>
     961: 86 15        	stx	$15                     ; 0x2015 <_ZN12_GLOBAL__N_15printEPKcP6Status+0x773>
     963: 06 15        	asl	$15                     ; 0x2015 <_ZN12_GLOBAL__N_15printEPKcP6Status+0x773>
     965: a5 13        	lda	$13                     ; 0x2013 <_ZN12_GLOBAL__N_15printEPKcP6Status+0x771>
     967: 2a           	rol
     968: a6 14        	ldx	$14                     ; 0x2014 <_ZN12_GLOBAL__N_15printEPKcP6Status+0x772>
     96a: 86 16        	stx	$16                     ; 0x2016 <_ZN12_GLOBAL__N_15printEPKcP6Status+0x774>
     96c: 26 16        	rol	$16                     ; 0x2016 <_ZN12_GLOBAL__N_15printEPKcP6Status+0x774>
     96e: 06 15        	asl	$15                     ; 0x2015 <_ZN12_GLOBAL__N_15printEPKcP6Status+0x773>
     970: 2a           	rol
     971: 26 16        	rol	$16                     ; 0x2016 <_ZN12_GLOBAL__N_15printEPKcP6Status+0x774>
     973: 06 15        	asl	$15                     ; 0x2015 <_ZN12_GLOBAL__N_15printEPKcP6Status+0x773>
     975: 2a           	rol
     976: 26 16        	rol	$16                     ; 0x2016 <_ZN12_GLOBAL__N_15printEPKcP6Status+0x774>
     978: 85 15        	sta	$15                     ; 0x2015 <_ZN12_GLOBAL__N_15printEPKcP6Status+0x773>
     97a: 8d 00 de     	sta	$de00                   ; 0xde00 <__heap_start+0xb16e>
     97d: a5 16        	lda	$16                     ; 0x2016 <_ZN12_GLOBAL__N_15printEPKcP6Status+0x774>
     97f: 8d 01 de     	sta	$de01                   ; 0xde01 <__heap_start+0xb16f>
     982: 9c 02 de     	stz	$de02                   ; 0xde02 <__heap_start+0xb170>
     985: a2 20        	ldx	#$20
     987: 8e 03 de     	stx	$de03                   ; 0xde03 <__heap_start+0xb171>
     98a: ae 10 de     	ldx	$de10                   ; 0xde10 <__heap_start+0xb17e>
     98d: 86 16        	stx	$16                     ; 0x2016 <_ZN12_GLOBAL__N_15printEPKcP6Status+0x774>
     98f: ae 11 de     	ldx	$de11                   ; 0xde11 <__heap_start+0xb17f>
     992: 86 18        	stx	$18                     ; 0x2018 <_ZN12_GLOBAL__N_15printEPKcP6Status+0x776>
     994: ac 12 de     	ldy	$de12                   ; 0xde12 <__heap_start+0xb180>
     997: ae 13 de     	ldx	$de13                   ; 0xde13 <__heap_start+0xb181>
     99a: e4 14        	cpx	$14                     ; 0x2014 <_ZN12_GLOBAL__N_15printEPKcP6Status+0x772>
     99c: d0 14        	bne	$9b2 <bitmapReset+0x83>
     99e: c4 13        	cpy	$13                     ; 0x2013 <_ZN12_GLOBAL__N_15printEPKcP6Status+0x771>
     9a0: d0 10        	bne	$9b2 <bitmapReset+0x83>
     9a2: a6 18        	ldx	$18                     ; 0x2018 <_ZN12_GLOBAL__N_15printEPKcP6Status+0x776>
     9a4: e4 12        	cpx	$12                     ; 0x2012 <_ZN12_GLOBAL__N_15printEPKcP6Status+0x770>
     9a6: d0 0a        	bne	$9b2 <bitmapReset+0x83>
     9a8: a6 16        	ldx	$16                     ; 0x2016 <_ZN12_GLOBAL__N_15printEPKcP6Status+0x774>
     9aa: e4 17        	cpx	$17                     ; 0x2017 <_ZN12_GLOBAL__N_15printEPKcP6Status+0x775>
     9ac: d0 04        	bne	$9b2 <bitmapReset+0x83>
     9ae: a6 15        	ldx	$15                     ; 0x2015 <_ZN12_GLOBAL__N_15printEPKcP6Status+0x773>
     9b0: 80 06        	bra	$9b8 <bitmapReset+0x89>
     9b2: a6 15        	ldx	$15                     ; 0x2015 <_ZN12_GLOBAL__N_15printEPKcP6Status+0x773>
     9b4: e8           	inx
     9b5: d0 01        	bne	$9b8 <bitmapReset+0x89>
     9b7: 1a           	inc
     9b8: 8e 00 de     	stx	$de00                   ; 0xde00 <__heap_start+0xb16e>
     9bb: 8d 01 de     	sta	$de01                   ; 0xde01 <__heap_start+0xb16f>
     9be: 9c 02 de     	stz	$de02                   ; 0xde02 <__heap_start+0xb170>
     9c1: a2 20        	ldx	#$20
     9c3: 8e 03 de     	stx	$de03                   ; 0xde03 <__heap_start+0xb171>
     9c6: ae 10 de     	ldx	$de10                   ; 0xde10 <__heap_start+0xb17e>
     9c9: 86 12        	stx	$12                     ; 0x2012 <_ZN12_GLOBAL__N_15printEPKcP6Status+0x770>
     9cb: ae 11 de     	ldx	$de11                   ; 0xde11 <__heap_start+0xb17f>
     9ce: 86 13        	stx	$13                     ; 0x2013 <_ZN12_GLOBAL__N_15printEPKcP6Status+0x771>
     9d0: ae 12 de     	ldx	$de12                   ; 0xde12 <__heap_start+0xb180>
     9d3: 86 14        	stx	$14                     ; 0x2014 <_ZN12_GLOBAL__N_15printEPKcP6Status+0x772>
     9d5: ae 13 de     	ldx	$de13                   ; 0xde13 <__heap_start+0xb181>
     9d8: 86 15        	stx	$15                     ; 0x2015 <_ZN12_GLOBAL__N_15printEPKcP6Status+0x773>
     9da: a9 00        	lda	#$0
     9dc: 38           	sec
     9dd: e5 12        	sbc	$12                     ; 0x2012 <_ZN12_GLOBAL__N_15printEPKcP6Status+0x770>
     9df: 85 1a        	sta	$1a                     ; 0x201a <_ZN12_GLOBAL__N_15printEPKcP6Status+0x778>
     9e1: a9 00        	lda	#$0
     9e3: e5 13        	sbc	$13                     ; 0x2013 <_ZN12_GLOBAL__N_15printEPKcP6Status+0x771>
     9e5: 85 18        	sta	$18                     ; 0x2018 <_ZN12_GLOBAL__N_15printEPKcP6Status+0x776>
     9e7: a9 08        	lda	#$8
     9e9: e5 14        	sbc	$14                     ; 0x2014 <_ZN12_GLOBAL__N_15printEPKcP6Status+0x772>
     9eb: a8           	tay
     9ec: a9 00        	lda	#$0
     9ee: e5 15        	sbc	$15                     ; 0x2015 <_ZN12_GLOBAL__N_15printEPKcP6Status+0x773>
     9f0: 85 16        	sta	$16                     ; 0x2016 <_ZN12_GLOBAL__N_15printEPKcP6Status+0x774>
     9f2: a6 18        	ldx	$18                     ; 0x2018 <_ZN12_GLOBAL__N_15printEPKcP6Status+0x776>
     9f4: 86 6c        	stx	$6c                     ; 0x206c <_ZN12_GLOBAL__N_15printEPKcP6Status+0x7ca>
     9f6: 84 6d        	sty	$6d                     ; 0x206d <_ZN12_GLOBAL__N_15printEPKcP6Status+0x7cb>
     9f8: 85 6e        	sta	$6e                     ; 0x206e <_ZN12_GLOBAL__N_15printEPKcP6Status+0x7cc>
     9fa: a5 1a        	lda	$1a                     ; 0x201a <_ZN12_GLOBAL__N_15printEPKcP6Status+0x778>
     9fc: 38           	sec
     9fd: e5 12        	sbc	$12                     ; 0x2012 <_ZN12_GLOBAL__N_15printEPKcP6Status+0x770>
     9ff: 85 17        	sta	$17                     ; 0x2017 <_ZN12_GLOBAL__N_15printEPKcP6Status+0x775>
     a01: a5 18        	lda	$18                     ; 0x2018 <_ZN12_GLOBAL__N_15printEPKcP6Status+0x776>
     a03: e5 13        	sbc	$13                     ; 0x2013 <_ZN12_GLOBAL__N_15printEPKcP6Status+0x771>
     a05: 85 18        	sta	$18                     ; 0x2018 <_ZN12_GLOBAL__N_15printEPKcP6Status+0x776>
     a07: 98           	tya
     a08: e5 14        	sbc	$14                     ; 0x2014 <_ZN12_GLOBAL__N_15printEPKcP6Status+0x772>
     a0a: 85 19        	sta	$19                     ; 0x2019 <_ZN12_GLOBAL__N_15printEPKcP6Status+0x777>
     a0c: a5 16        	lda	$16                     ; 0x2016 <_ZN12_GLOBAL__N_15printEPKcP6Status+0x774>
     a0e: e5 15        	sbc	$15                     ; 0x2015 <_ZN12_GLOBAL__N_15printEPKcP6Status+0x773>
     a10: 85 16        	sta	$16                     ; 0x2016 <_ZN12_GLOBAL__N_15printEPKcP6Status+0x774>
     a12: 38           	sec
     a13: a6 17        	ldx	$17                     ; 0x2017 <_ZN12_GLOBAL__N_15printEPKcP6Status+0x775>
     a15: 86 6f        	stx	$6f                     ; 0x206f <_ZN12_GLOBAL__N_15printEPKcP6Status+0x7cd>
     a17: a4 18        	ldy	$18                     ; 0x2018 <_ZN12_GLOBAL__N_15printEPKcP6Status+0x776>
     a19: 84 70        	sty	$70                     ; 0x2070 <_ZN12_GLOBAL__N_15printEPKcP6Status+0x7ce>
     a1b: a6 19        	ldx	$19                     ; 0x2019 <_ZN12_GLOBAL__N_15printEPKcP6Status+0x777>
     a1d: 86 71        	stx	$71                     ; 0x2071 <_ZN12_GLOBAL__N_15printEPKcP6Status+0x7cf>
     a1f: 85 72        	sta	$72                     ; 0x2072 <_ZN12_GLOBAL__N_15printEPKcP6Status+0x7d0>
     a21: a5 17        	lda	$17                     ; 0x2017 <_ZN12_GLOBAL__N_15printEPKcP6Status+0x775>
     a23: e5 12        	sbc	$12                     ; 0x2012 <_ZN12_GLOBAL__N_15printEPKcP6Status+0x770>
     a25: 85 17        	sta	$17                     ; 0x2017 <_ZN12_GLOBAL__N_15printEPKcP6Status+0x775>
     a27: a5 18        	lda	$18                     ; 0x2018 <_ZN12_GLOBAL__N_15printEPKcP6Status+0x776>
     a29: e5 13        	sbc	$13                     ; 0x2013 <_ZN12_GLOBAL__N_15printEPKcP6Status+0x771>
     a2b: aa           	tax
     a2c: a5 19        	lda	$19                     ; 0x2019 <_ZN12_GLOBAL__N_15printEPKcP6Status+0x777>
     a2e: e5 14        	sbc	$14                     ; 0x2014 <_ZN12_GLOBAL__N_15printEPKcP6Status+0x772>
     a30: 85 13        	sta	$13                     ; 0x2013 <_ZN12_GLOBAL__N_15printEPKcP6Status+0x771>
     a32: a5 16        	lda	$16                     ; 0x2016 <_ZN12_GLOBAL__N_15printEPKcP6Status+0x774>
     a34: e5 15        	sbc	$15                     ; 0x2015 <_ZN12_GLOBAL__N_15printEPKcP6Status+0x773>
     a36: 85 12        	sta	$12                     ; 0x2012 <_ZN12_GLOBAL__N_15printEPKcP6Status+0x770>
     a38: a5 17        	lda	$17                     ; 0x2017 <_ZN12_GLOBAL__N_15printEPKcP6Status+0x775>
     a3a: 85 73        	sta	$73                     ; 0x2073 <_ZN12_GLOBAL__N_15printEPKcP6Status+0x7d1>
     a3c: 86 74        	stx	$74                     ; 0x2074 <_ZN12_GLOBAL__N_15printEPKcP6Status+0x7d2>
     a3e: a6 13        	ldx	$13                     ; 0x2013 <_ZN12_GLOBAL__N_15printEPKcP6Status+0x771>
     a40: 86 75        	stx	$75                     ; 0x2075 <_ZN12_GLOBAL__N_15printEPKcP6Status+0x7d3>
     a42: a6 12        	ldx	$12                     ; 0x2012 <_ZN12_GLOBAL__N_15printEPKcP6Status+0x770>
     a44: 86 76        	stx	$76                     ; 0x2076 <_ZN12_GLOBAL__N_15printEPKcP6Status+0x7d4>
     a46: a6 1a        	ldx	$1a                     ; 0x201a <_ZN12_GLOBAL__N_15printEPKcP6Status+0x778>
     a48: 86 6b        	stx	$6b                     ; 0x206b <_ZN12_GLOBAL__N_15printEPKcP6Status+0x7c9>
     a4a: 64 7b        	stz	$7b                     ; 0x207b <_ZN12_GLOBAL__N_15printEPKcP6Status+0x7d9>
     a4c: 64 7c        	stz	$7c                     ; 0x207c <_ZN12_GLOBAL__N_15printEPKcP6Status+0x7da>
     a4e: 64 7d        	stz	$7d                     ; 0x207d <_ZN12_GLOBAL__N_15printEPKcP6Status+0x7db>
     a50: 8e 01 d1     	stx	$d101                   ; 0xd101 <__heap_start+0xa46f>
     a53: a6 6c        	ldx	$6c                     ; 0x206c <_ZN12_GLOBAL__N_15printEPKcP6Status+0x7ca>
     a55: 8e 02 d1     	stx	$d102                   ; 0xd102 <__heap_start+0xa470>
     a58: a6 6d        	ldx	$6d                     ; 0x206d <_ZN12_GLOBAL__N_15printEPKcP6Status+0x7cb>
     a5a: 8e 03 d1     	stx	$d103                   ; 0xd103 <__heap_start+0xa471>
     a5d: a6 6f        	ldx	$6f                     ; 0x206f <_ZN12_GLOBAL__N_15printEPKcP6Status+0x7cd>
     a5f: 8e 09 d1     	stx	$d109                   ; 0xd109 <__heap_start+0xa477>
     a62: a6 70        	ldx	$70                     ; 0x2070 <_ZN12_GLOBAL__N_15printEPKcP6Status+0x7ce>
     a64: 8e 0a d1     	stx	$d10a                   ; 0xd10a <__heap_start+0xa478>
     a67: a6 71        	ldx	$71                     ; 0x2071 <_ZN12_GLOBAL__N_15printEPKcP6Status+0x7cf>
     a69: 8e 0b d1     	stx	$d10b                   ; 0xd10b <__heap_start+0xa479>
     a6c: a6 73        	ldx	$73                     ; 0x2073 <_ZN12_GLOBAL__N_15printEPKcP6Status+0x7d1>
     a6e: 8e 11 d1     	stx	$d111                   ; 0xd111 <__heap_start+0xa47f>
     a71: a6 74        	ldx	$74                     ; 0x2074 <_ZN12_GLOBAL__N_15printEPKcP6Status+0x7d2>
     a73: 8e 12 d1     	stx	$d112                   ; 0xd112 <__heap_start+0xa480>
     a76: a6 75        	ldx	$75                     ; 0x2075 <_ZN12_GLOBAL__N_15printEPKcP6Status+0x7d3>
     a78: 8e 13 d1     	stx	$d113                   ; 0xd113 <__heap_start+0xa481>
     a7b: 9c 00 d1     	stz	$d100                   ; 0xd100 <__heap_start+0xa46e>
     a7e: 9c 08 d1     	stz	$d108                   ; 0xd108 <__heap_start+0xa476>
     a81: 9c 10 d1     	stz	$d110                   ; 0xd110 <__heap_start+0xa47e>
     a84: 60           	rts

00000a85 <main>:
     a85: 20 41 06     	jsr	$641 <f256Init>
     a88: 20 a9 0a     	jsr	$aa9 <f256main>
     a8b: 78           	sei
     a8c: a2 07        	ldx	#$7
     a8e: 86 0f        	stx	$f                      ; 0x200f <_ZN12_GLOBAL__N_15printEPKcP6Status+0x76d>
     a90: a2 de        	ldx	#$de
     a92: 8e a2 d6     	stx	$d6a2                   ; 0xd6a2 <__heap_start+0xaa10>
     a95: a2 ad        	ldx	#$ad
     a97: 8e a3 d6     	stx	$d6a3                   ; 0xd6a3 <__heap_start+0xaa11>
     a9a: a2 f0        	ldx	#$f0
     a9c: 8e a0 d6     	stx	$d6a0                   ; 0xd6a0 <__heap_start+0xaa0e>
     a9f: 9c a0 d6     	stz	$d6a0                   ; 0xd6a0 <__heap_start+0xaa0e>
     aa2: 6c fc ff     	jmp	($fffc)                 ; 0xfffc <__heap_start+0xd36a>
     aa5: a2 00        	ldx	#$0
     aa7: 8a           	txa
     aa8: 60           	rts

00000aa9 <f256main>:
     aa9: 18           	clc
     aaa: a5 10        	lda	$10                     ; 0x2010 <_ZN12_GLOBAL__N_15printEPKcP6Status+0x76e>
     aac: 69 6a        	adc	#$6a
     aae: 85 10        	sta	$10                     ; 0x2010 <_ZN12_GLOBAL__N_15printEPKcP6Status+0x76e>
     ab0: a5 11        	lda	$11                     ; 0x2011 <_ZN12_GLOBAL__N_15printEPKcP6Status+0x76f>
     ab2: 69 cc        	adc	#$cc
     ab4: 85 11        	sta	$11                     ; 0x2011 <_ZN12_GLOBAL__N_15printEPKcP6Status+0x76f>
     ab6: a6 24        	ldx	$24                     ; 0x2024 <_ZN12_GLOBAL__N_15printEPKcP6Status+0x782>
     ab8: da           	phx
     ab9: a6 25        	ldx	$25                     ; 0x2025 <_ZN12_GLOBAL__N_15printEPKcP6Status+0x783>
     abb: da           	phx
     abc: a6 26        	ldx	$26                     ; 0x2026 <_ZN12_GLOBAL__N_15printEPKcP6Status+0x784>
     abe: da           	phx
     abf: a6 27        	ldx	$27                     ; 0x2027 <_ZN12_GLOBAL__N_15printEPKcP6Status+0x785>
     ac1: da           	phx
     ac2: a5 28        	lda	$28                     ; 0x2028 <_ZN12_GLOBAL__N_15printEPKcP6Status+0x786>
     ac4: a0 07        	ldy	#$7
     ac6: 91 10        	sta	($10),y                 ; 0x2010 <_ZN12_GLOBAL__N_15printEPKcP6Status+0x76e>
     ac8: a5 29        	lda	$29                     ; 0x2029 <_ZN12_GLOBAL__N_15printEPKcP6Status+0x787>
     aca: 88           	dey
     acb: 91 10        	sta	($10),y                 ; 0x2010 <_ZN12_GLOBAL__N_15printEPKcP6Status+0x76e>
     acd: a5 2a        	lda	$2a                     ; 0x202a <_ZN12_GLOBAL__N_15printEPKcP6Status+0x788>
     acf: 88           	dey
     ad0: 91 10        	sta	($10),y                 ; 0x2010 <_ZN12_GLOBAL__N_15printEPKcP6Status+0x76e>
     ad2: a5 2b        	lda	$2b                     ; 0x202b <_ZN12_GLOBAL__N_15printEPKcP6Status+0x789>
     ad4: 88           	dey
     ad5: 91 10        	sta	($10),y                 ; 0x2010 <_ZN12_GLOBAL__N_15printEPKcP6Status+0x76e>
     ad7: a5 2c        	lda	$2c                     ; 0x202c <_ZN12_GLOBAL__N_15printEPKcP6Status+0x78a>
     ad9: 88           	dey
     ada: 91 10        	sta	($10),y                 ; 0x2010 <_ZN12_GLOBAL__N_15printEPKcP6Status+0x76e>
     adc: a5 2d        	lda	$2d                     ; 0x202d <_ZN12_GLOBAL__N_15printEPKcP6Status+0x78b>
     ade: 88           	dey
     adf: 91 10        	sta	($10),y                 ; 0x2010 <_ZN12_GLOBAL__N_15printEPKcP6Status+0x76e>
     ae1: a5 2e        	lda	$2e                     ; 0x202e <_ZN12_GLOBAL__N_15printEPKcP6Status+0x78c>
     ae3: 88           	dey
     ae4: 91 10        	sta	($10),y                 ; 0x2010 <_ZN12_GLOBAL__N_15printEPKcP6Status+0x76e>
     ae6: a5 2f        	lda	$2f                     ; 0x202f <_ZN12_GLOBAL__N_15printEPKcP6Status+0x78d>
     ae8: 88           	dey
     ae9: 91 10        	sta	($10),y                 ; 0x2010 <_ZN12_GLOBAL__N_15printEPKcP6Status+0x76e>
     aeb: 64 12        	stz	$12                     ; 0x2012 <_ZN12_GLOBAL__N_15printEPKcP6Status+0x770>
     aed: 64 01        	stz	$1                      ; 0x2001 <_ZN12_GLOBAL__N_15printEPKcP6Status+0x75f>
     aef: a2 01        	ldx	#$1
     af1: 8e 00 d0     	stx	$d000                   ; 0xd000 <__heap_start+0xa36e>
     af4: 9c 01 d0     	stz	$d001                   ; 0xd001 <__heap_start+0xa36f>
     af7: 64 01        	stz	$1                      ; 0x2001 <_ZN12_GLOBAL__N_15printEPKcP6Status+0x75f>
     af9: 9c 0d d0     	stz	$d00d                   ; 0xd00d <__heap_start+0xa37b>
     afc: a2 03        	ldx	#$3
     afe: 86 01        	stx	$1                      ; 0x2001 <_ZN12_GLOBAL__N_15printEPKcP6Status+0x75f>
     b00: a9 c0        	lda	#$c0
     b02: a2 00        	ldx	#$0
     b04: a0 50        	ldy	#$50
     b06: 48           	pha
     b07: a5 12        	lda	$12                     ; 0x2012 <_ZN12_GLOBAL__N_15printEPKcP6Status+0x770>
     b09: 85 14        	sta	$14                     ; 0x2014 <_ZN12_GLOBAL__N_15printEPKcP6Status+0x772>
     b0b: 68           	pla
     b0c: 85 15        	sta	$15                     ; 0x2015 <_ZN12_GLOBAL__N_15printEPKcP6Status+0x773>
     b0e: 85 13        	sta	$13                     ; 0x2013 <_ZN12_GLOBAL__N_15printEPKcP6Status+0x771>
     b10: a9 f0        	lda	#$f0
     b12: 92 12        	sta	($12)                   ; 0x2012 <_ZN12_GLOBAL__N_15printEPKcP6Status+0x770>
     b14: 88           	dey
     b15: e6 12        	inc	$12                     ; 0x2012 <_ZN12_GLOBAL__N_15printEPKcP6Status+0x770>
     b17: d0 02        	bne	$b1b <f256main+0x72>
     b19: e6 13        	inc	$13                     ; 0x2013 <_ZN12_GLOBAL__N_15printEPKcP6Status+0x771>
     b1b: c0 00        	cpy	#$0
     b1d: d0 f3        	bne	$b12 <f256main+0x69>
     b1f: e8           	inx
     b20: 18           	clc
     b21: a5 14        	lda	$14                     ; 0x2014 <_ZN12_GLOBAL__N_15printEPKcP6Status+0x772>
     b23: 69 50        	adc	#$50
     b25: 85 12        	sta	$12                     ; 0x2012 <_ZN12_GLOBAL__N_15printEPKcP6Status+0x770>
     b27: a5 15        	lda	$15                     ; 0x2015 <_ZN12_GLOBAL__N_15printEPKcP6Status+0x773>
     b29: 69 00        	adc	#$0
     b2b: e0 3c        	cpx	#$3c
     b2d: d0 d5        	bne	$b04 <f256main+0x5b>
     b2f: 64 12        	stz	$12                     ; 0x2012 <_ZN12_GLOBAL__N_15printEPKcP6Status+0x770>
     b31: 64 01        	stz	$1                      ; 0x2001 <_ZN12_GLOBAL__N_15printEPKcP6Status+0x75f>
     b33: a2 02        	ldx	#$2
     b35: 86 01        	stx	$1                      ; 0x2001 <_ZN12_GLOBAL__N_15printEPKcP6Status+0x75f>
     b37: a9 c0        	lda	#$c0
     b39: a2 00        	ldx	#$0
     b3b: a0 50        	ldy	#$50
     b3d: 48           	pha
     b3e: a5 12        	lda	$12                     ; 0x2012 <_ZN12_GLOBAL__N_15printEPKcP6Status+0x770>
     b40: 85 14        	sta	$14                     ; 0x2014 <_ZN12_GLOBAL__N_15printEPKcP6Status+0x772>
     b42: 68           	pla
     b43: 85 15        	sta	$15                     ; 0x2015 <_ZN12_GLOBAL__N_15printEPKcP6Status+0x773>
     b45: 85 13        	sta	$13                     ; 0x2013 <_ZN12_GLOBAL__N_15printEPKcP6Status+0x771>
     b47: a9 20        	lda	#$20
     b49: 92 12        	sta	($12)                   ; 0x2012 <_ZN12_GLOBAL__N_15printEPKcP6Status+0x770>
     b4b: 88           	dey
     b4c: e6 12        	inc	$12                     ; 0x2012 <_ZN12_GLOBAL__N_15printEPKcP6Status+0x770>
     b4e: d0 02        	bne	$b52 <f256main+0xa9>
     b50: e6 13        	inc	$13                     ; 0x2013 <_ZN12_GLOBAL__N_15printEPKcP6Status+0x771>
     b52: c0 00        	cpy	#$0
     b54: d0 f3        	bne	$b49 <f256main+0xa0>
     b56: e8           	inx
     b57: 18           	clc
     b58: a5 14        	lda	$14                     ; 0x2014 <_ZN12_GLOBAL__N_15printEPKcP6Status+0x772>
     b5a: 69 50        	adc	#$50
     b5c: 85 12        	sta	$12                     ; 0x2012 <_ZN12_GLOBAL__N_15printEPKcP6Status+0x770>
     b5e: a5 15        	lda	$15                     ; 0x2015 <_ZN12_GLOBAL__N_15printEPKcP6Status+0x773>
     b60: 69 00        	adc	#$0
     b62: e0 3c        	cpx	#$3c
     b64: d0 d5        	bne	$b3b <f256main+0x92>
     b66: 64 01        	stz	$1                      ; 0x2001 <_ZN12_GLOBAL__N_15printEPKcP6Status+0x75f>
     b68: 20 11 16     	jsr	$1611 <openAllCODEC>
     b6b: 20 5c 16     	jsr	$165c <boostVSClock>
     b6e: a2 60        	ldx	#$60
     b70: 86 12        	stx	$12                     ; 0x2012 <_ZN12_GLOBAL__N_15printEPKcP6Status+0x770>
     b72: a2 2c        	ldx	#$2c
     b74: 86 13        	stx	$13                     ; 0x2013 <_ZN12_GLOBAL__N_15printEPKcP6Status+0x771>
     b76: a2 5e        	ldx	#$5e
     b78: 86 14        	stx	$14                     ; 0x2014 <_ZN12_GLOBAL__N_15printEPKcP6Status+0x772>
     b7a: a2 2c        	ldx	#$2c
     b7c: 86 15        	stx	$15                     ; 0x2015 <_ZN12_GLOBAL__N_15printEPKcP6Status+0x773>
     b7e: 20 e7 10     	jsr	$10e7 <fileOpen>
     b81: a6 12        	ldx	$12                     ; 0x2012 <_ZN12_GLOBAL__N_15printEPKcP6Status+0x770>
     b83: 86 24        	stx	$24                     ; 0x2024 <_ZN12_GLOBAL__N_15printEPKcP6Status+0x782>
     b85: a6 13        	ldx	$13                     ; 0x2013 <_ZN12_GLOBAL__N_15printEPKcP6Status+0x771>
     b87: 86 25        	stx	$25                     ; 0x2025 <_ZN12_GLOBAL__N_15printEPKcP6Status+0x783>
     b89: a2 00        	ldx	#$0
     b8b: 86 12        	stx	$12                     ; 0x2012 <_ZN12_GLOBAL__N_15printEPKcP6Status+0x770>
     b8d: a2 00        	ldx	#$0
     b8f: 86 13        	stx	$13                     ; 0x2013 <_ZN12_GLOBAL__N_15printEPKcP6Status+0x771>
     b91: a6 25        	ldx	$25                     ; 0x2025 <_ZN12_GLOBAL__N_15printEPKcP6Status+0x783>
     b93: e4 13        	cpx	$13                     ; 0x2013 <_ZN12_GLOBAL__N_15printEPKcP6Status+0x771>
     b95: d0 0e        	bne	$ba5 <f256main+0xfc>
     b97: a6 24        	ldx	$24                     ; 0x2024 <_ZN12_GLOBAL__N_15printEPKcP6Status+0x782>
     b99: e4 12        	cpx	$12                     ; 0x2012 <_ZN12_GLOBAL__N_15printEPKcP6Status+0x770>
     b9b: d0 08        	bne	$ba5 <f256main+0xfc>
     b9d: a2 72        	ldx	#$72
     b9f: 86 12        	stx	$12                     ; 0x2012 <_ZN12_GLOBAL__N_15printEPKcP6Status+0x770>
     ba1: a2 2c        	ldx	#$2c
     ba3: 80 35        	bra	$bda <f256main+0x131>
     ba5: a2 2d        	ldx	#$2d
     ba7: 86 12        	stx	$12                     ; 0x2012 <_ZN12_GLOBAL__N_15printEPKcP6Status+0x770>
     ba9: a2 2c        	ldx	#$2c
     bab: 86 13        	stx	$13                     ; 0x2013 <_ZN12_GLOBAL__N_15printEPKcP6Status+0x771>
     bad: a2 5e        	ldx	#$5e
     baf: 86 14        	stx	$14                     ; 0x2014 <_ZN12_GLOBAL__N_15printEPKcP6Status+0x772>
     bb1: a2 2c        	ldx	#$2c
     bb3: 86 15        	stx	$15                     ; 0x2015 <_ZN12_GLOBAL__N_15printEPKcP6Status+0x773>
     bb5: 20 e7 10     	jsr	$10e7 <fileOpen>
     bb8: a6 12        	ldx	$12                     ; 0x2012 <_ZN12_GLOBAL__N_15printEPKcP6Status+0x770>
     bba: 86 26        	stx	$26                     ; 0x2026 <_ZN12_GLOBAL__N_15printEPKcP6Status+0x784>
     bbc: a6 13        	ldx	$13                     ; 0x2013 <_ZN12_GLOBAL__N_15printEPKcP6Status+0x771>
     bbe: 86 27        	stx	$27                     ; 0x2027 <_ZN12_GLOBAL__N_15printEPKcP6Status+0x785>
     bc0: a2 00        	ldx	#$0
     bc2: 86 12        	stx	$12                     ; 0x2012 <_ZN12_GLOBAL__N_15printEPKcP6Status+0x770>
     bc4: a2 00        	ldx	#$0
     bc6: 86 13        	stx	$13                     ; 0x2013 <_ZN12_GLOBAL__N_15printEPKcP6Status+0x771>
     bc8: a6 27        	ldx	$27                     ; 0x2027 <_ZN12_GLOBAL__N_15printEPKcP6Status+0x785>
     bca: e4 13        	cpx	$13                     ; 0x2013 <_ZN12_GLOBAL__N_15printEPKcP6Status+0x771>
     bcc: d0 19        	bne	$be7 <f256main+0x13e>
     bce: a6 26        	ldx	$26                     ; 0x2026 <_ZN12_GLOBAL__N_15printEPKcP6Status+0x784>
     bd0: e4 12        	cpx	$12                     ; 0x2012 <_ZN12_GLOBAL__N_15printEPKcP6Status+0x770>
     bd2: d0 13        	bne	$be7 <f256main+0x13e>
     bd4: a2 40        	ldx	#$40
     bd6: 86 12        	stx	$12                     ; 0x2012 <_ZN12_GLOBAL__N_15printEPKcP6Status+0x770>
     bd8: a2 2c        	ldx	#$2c
     bda: 86 13        	stx	$13                     ; 0x2013 <_ZN12_GLOBAL__N_15printEPKcP6Status+0x771>
     bdc: 20 3b 26     	jsr	$263b <printf>
     bdf: 20 28 16     	jsr	$1628 <hitspace>
     be2: a9 01        	lda	#$1
     be4: 4c 9e 10     	jmp	$109e <f256main+0x5f5>
     be7: 18           	clc
     be8: a5 10        	lda	$10                     ; 0x2010 <_ZN12_GLOBAL__N_15printEPKcP6Status+0x76e>
     bea: 69 0d        	adc	#$d
     bec: 85 2a        	sta	$2a                     ; 0x202a <_ZN12_GLOBAL__N_15printEPKcP6Status+0x788>
     bee: a5 11        	lda	$11                     ; 0x2011 <_ZN12_GLOBAL__N_15printEPKcP6Status+0x76f>
     bf0: 69 00        	adc	#$0
     bf2: 85 2b        	sta	$2b                     ; 0x202b <_ZN12_GLOBAL__N_15printEPKcP6Status+0x789>
     bf4: a2 40        	ldx	#$40
     bf6: a4 2a        	ldy	$2a                     ; 0x202a <_ZN12_GLOBAL__N_15printEPKcP6Status+0x788>
     bf8: 84 28        	sty	$28                     ; 0x2028 <_ZN12_GLOBAL__N_15printEPKcP6Status+0x786>
     bfa: 85 29        	sta	$29                     ; 0x2029 <_ZN12_GLOBAL__N_15printEPKcP6Status+0x787>
     bfc: a4 28        	ldy	$28                     ; 0x2028 <_ZN12_GLOBAL__N_15printEPKcP6Status+0x786>
     bfe: 84 12        	sty	$12                     ; 0x2012 <_ZN12_GLOBAL__N_15printEPKcP6Status+0x770>
     c00: a4 29        	ldy	$29                     ; 0x2029 <_ZN12_GLOBAL__N_15printEPKcP6Status+0x787>
     c02: 84 13        	sty	$13                     ; 0x2013 <_ZN12_GLOBAL__N_15printEPKcP6Status+0x771>
     c04: a4 26        	ldy	$26                     ; 0x2026 <_ZN12_GLOBAL__N_15printEPKcP6Status+0x784>
     c06: 84 16        	sty	$16                     ; 0x2016 <_ZN12_GLOBAL__N_15printEPKcP6Status+0x774>
     c08: a4 27        	ldy	$27                     ; 0x2027 <_ZN12_GLOBAL__N_15printEPKcP6Status+0x785>
     c0a: 84 17        	sty	$17                     ; 0x2017 <_ZN12_GLOBAL__N_15printEPKcP6Status+0x775>
     c0c: a0 80        	ldy	#$80
     c0e: 84 14        	sty	$14                     ; 0x2014 <_ZN12_GLOBAL__N_15printEPKcP6Status+0x772>
     c10: 64 15        	stz	$15                     ; 0x2015 <_ZN12_GLOBAL__N_15printEPKcP6Status+0x773>
     c12: 86 2c        	stx	$2c                     ; 0x202c <_ZN12_GLOBAL__N_15printEPKcP6Status+0x78a>
     c14: a2 00        	ldx	#$0
     c16: a9 01        	lda	#$1
     c18: 20 ea 11     	jsr	$11ea <fileRead>
     c1b: a6 2c        	ldx	$2c                     ; 0x202c <_ZN12_GLOBAL__N_15printEPKcP6Status+0x78a>
     c1d: ca           	dex
     c1e: a5 28        	lda	$28                     ; 0x2028 <_ZN12_GLOBAL__N_15printEPKcP6Status+0x786>
     c20: 18           	clc
     c21: 69 80        	adc	#$80
     c23: 85 28        	sta	$28                     ; 0x2028 <_ZN12_GLOBAL__N_15printEPKcP6Status+0x786>
     c25: a5 29        	lda	$29                     ; 0x2029 <_ZN12_GLOBAL__N_15printEPKcP6Status+0x787>
     c27: 69 00        	adc	#$0
     c29: 85 29        	sta	$29                     ; 0x2029 <_ZN12_GLOBAL__N_15printEPKcP6Status+0x787>
     c2b: 8a           	txa
     c2c: d0 ce        	bne	$bfc <f256main+0x153>
     c2e: a2 40        	ldx	#$40
     c30: a4 2a        	ldy	$2a                     ; 0x202a <_ZN12_GLOBAL__N_15printEPKcP6Status+0x788>
     c32: 84 28        	sty	$28                     ; 0x2028 <_ZN12_GLOBAL__N_15printEPKcP6Status+0x786>
     c34: a4 2b        	ldy	$2b                     ; 0x202b <_ZN12_GLOBAL__N_15printEPKcP6Status+0x789>
     c36: 84 29        	sty	$29                     ; 0x2029 <_ZN12_GLOBAL__N_15printEPKcP6Status+0x787>
     c38: a4 28        	ldy	$28                     ; 0x2028 <_ZN12_GLOBAL__N_15printEPKcP6Status+0x786>
     c3a: 84 12        	sty	$12                     ; 0x2012 <_ZN12_GLOBAL__N_15printEPKcP6Status+0x770>
     c3c: a4 29        	ldy	$29                     ; 0x2029 <_ZN12_GLOBAL__N_15printEPKcP6Status+0x787>
     c3e: 84 13        	sty	$13                     ; 0x2013 <_ZN12_GLOBAL__N_15printEPKcP6Status+0x771>
     c40: a4 26        	ldy	$26                     ; 0x2026 <_ZN12_GLOBAL__N_15printEPKcP6Status+0x784>
     c42: 84 16        	sty	$16                     ; 0x2016 <_ZN12_GLOBAL__N_15printEPKcP6Status+0x774>
     c44: a4 27        	ldy	$27                     ; 0x2027 <_ZN12_GLOBAL__N_15printEPKcP6Status+0x785>
     c46: 84 17        	sty	$17                     ; 0x2017 <_ZN12_GLOBAL__N_15printEPKcP6Status+0x775>
     c48: a0 80        	ldy	#$80
     c4a: 84 14        	sty	$14                     ; 0x2014 <_ZN12_GLOBAL__N_15printEPKcP6Status+0x772>
     c4c: 64 15        	stz	$15                     ; 0x2015 <_ZN12_GLOBAL__N_15printEPKcP6Status+0x773>
     c4e: 86 2c        	stx	$2c                     ; 0x202c <_ZN12_GLOBAL__N_15printEPKcP6Status+0x78a>
     c50: a2 00        	ldx	#$0
     c52: a9 01        	lda	#$1
     c54: 20 ea 11     	jsr	$11ea <fileRead>
     c57: a6 2c        	ldx	$2c                     ; 0x202c <_ZN12_GLOBAL__N_15printEPKcP6Status+0x78a>
     c59: ca           	dex
     c5a: a5 28        	lda	$28                     ; 0x2028 <_ZN12_GLOBAL__N_15printEPKcP6Status+0x786>
     c5c: 18           	clc
     c5d: 69 80        	adc	#$80
     c5f: 85 28        	sta	$28                     ; 0x2028 <_ZN12_GLOBAL__N_15printEPKcP6Status+0x786>
     c61: a5 29        	lda	$29                     ; 0x2029 <_ZN12_GLOBAL__N_15printEPKcP6Status+0x787>
     c63: 69 00        	adc	#$0
     c65: 85 29        	sta	$29                     ; 0x2029 <_ZN12_GLOBAL__N_15printEPKcP6Status+0x787>
     c67: 8a           	txa
     c68: d0 ce        	bne	$c38 <f256main+0x18f>
     c6a: a0 08        	ldy	#$8
     c6c: a2 00        	ldx	#$0
     c6e: 80 03        	bra	$c73 <f256main+0x1ca>
     c70: 98           	tya
     c71: f0 13        	beq	$c86 <f256main+0x1dd>
     c73: b2 2a        	lda	($2a)                   ; 0x202a <_ZN12_GLOBAL__N_15printEPKcP6Status+0x788>
     c75: 8d 07 d7     	sta	$d707                   ; 0xd707 <__heap_start+0xaa75>
     c78: ca           	dex
     c79: e0 ff        	cpx	#$ff
     c7b: d0 01        	bne	$c7e <f256main+0x1d5>
     c7d: 88           	dey
     c7e: e6 2a        	inc	$2a                     ; 0x202a <_ZN12_GLOBAL__N_15printEPKcP6Status+0x788>
     c80: d0 ee        	bne	$c70 <f256main+0x1c7>
     c82: e6 2b        	inc	$2b                     ; 0x202b <_ZN12_GLOBAL__N_15printEPKcP6Status+0x789>
     c84: 80 ea        	bra	$c70 <f256main+0x1c7>
     c86: 8a           	txa
     c87: d0 ea        	bne	$c73 <f256main+0x1ca>
     c89: a5 26        	lda	$26                     ; 0x2026 <_ZN12_GLOBAL__N_15printEPKcP6Status+0x784>
     c8b: a0 09        	ldy	#$9
     c8d: 91 10        	sta	($10),y                 ; 0x2010 <_ZN12_GLOBAL__N_15printEPKcP6Status+0x76e>
     c8f: a5 27        	lda	$27                     ; 0x2027 <_ZN12_GLOBAL__N_15printEPKcP6Status+0x785>
     c91: c8           	iny
     c92: 91 10        	sta	($10),y                 ; 0x2010 <_ZN12_GLOBAL__N_15printEPKcP6Status+0x76e>
     c94: 18           	clc
     c95: a5 10        	lda	$10                     ; 0x2010 <_ZN12_GLOBAL__N_15printEPKcP6Status+0x76e>
     c97: 69 0d        	adc	#$d
     c99: 48           	pha
     c9a: a5 11        	lda	$11                     ; 0x2011 <_ZN12_GLOBAL__N_15printEPKcP6Status+0x76f>
     c9c: 69 00        	adc	#$0
     c9e: 85 12        	sta	$12                     ; 0x2012 <_ZN12_GLOBAL__N_15printEPKcP6Status+0x770>
     ca0: 68           	pla
     ca1: 18           	clc
     ca2: 69 00        	adc	#$0
     ca4: aa           	tax
     ca5: a5 12        	lda	$12                     ; 0x2012 <_ZN12_GLOBAL__N_15printEPKcP6Status+0x770>
     ca7: 69 08        	adc	#$8
     ca9: 86 12        	stx	$12                     ; 0x2012 <_ZN12_GLOBAL__N_15printEPKcP6Status+0x770>
     cab: 85 13        	sta	$13                     ; 0x2013 <_ZN12_GLOBAL__N_15printEPKcP6Status+0x771>
     cad: a0 08        	ldy	#$8
     caf: a2 00        	ldx	#$0
     cb1: 80 03        	bra	$cb6 <f256main+0x20d>
     cb3: 98           	tya
     cb4: f0 13        	beq	$cc9 <f256main+0x220>
     cb6: b2 12        	lda	($12)                   ; 0x2012 <_ZN12_GLOBAL__N_15printEPKcP6Status+0x770>
     cb8: 8d 07 d7     	sta	$d707                   ; 0xd707 <__heap_start+0xaa75>
     cbb: ca           	dex
     cbc: e0 ff        	cpx	#$ff
     cbe: d0 01        	bne	$cc1 <f256main+0x218>
     cc0: 88           	dey
     cc1: e6 12        	inc	$12                     ; 0x2012 <_ZN12_GLOBAL__N_15printEPKcP6Status+0x770>
     cc3: d0 ee        	bne	$cb3 <f256main+0x20a>
     cc5: e6 13        	inc	$13                     ; 0x2013 <_ZN12_GLOBAL__N_15printEPKcP6Status+0x771>
     cc7: 80 ea        	bra	$cb3 <f256main+0x20a>
     cc9: 8a           	txa
     cca: d0 ea        	bne	$cb6 <f256main+0x20d>
     ccc: 18           	clc
     ccd: a5 10        	lda	$10                     ; 0x2010 <_ZN12_GLOBAL__N_15printEPKcP6Status+0x76e>
     ccf: 69 0d        	adc	#$d
     cd1: 85 12        	sta	$12                     ; 0x2012 <_ZN12_GLOBAL__N_15printEPKcP6Status+0x770>
     cd3: a5 11        	lda	$11                     ; 0x2011 <_ZN12_GLOBAL__N_15printEPKcP6Status+0x76f>
     cd5: 69 20        	adc	#$20
     cd7: 85 13        	sta	$13                     ; 0x2013 <_ZN12_GLOBAL__N_15printEPKcP6Status+0x771>
     cd9: a9 ff        	lda	#$ff
     cdb: a2 c0        	ldx	#$c0
     cdd: a0 12        	ldy	#$12
     cdf: 84 14        	sty	$14                     ; 0x2014 <_ZN12_GLOBAL__N_15printEPKcP6Status+0x772>
     ce1: 20 3a 2a     	jsr	$2a3a <__memset>
     ce4: a2 10        	ldx	#$10
     ce6: 8a           	txa
     ce7: a0 0b        	ldy	#$b
     ce9: 91 10        	sta	($10),y                 ; 0x2010 <_ZN12_GLOBAL__N_15printEPKcP6Status+0x76e>
     ceb: 64 2e        	stz	$2e                     ; 0x202e <_ZN12_GLOBAL__N_15printEPKcP6Status+0x78c>
     ced: 64 26        	stz	$26                     ; 0x2026 <_ZN12_GLOBAL__N_15printEPKcP6Status+0x784>
     cef: a9 00        	lda	#$0
     cf1: 64 2c        	stz	$2c                     ; 0x202c <_ZN12_GLOBAL__N_15printEPKcP6Status+0x78a>
     cf3: aa           	tax
     cf4: 48           	pha
     cf5: 8a           	txa
     cf6: c8           	iny
     cf7: 91 10        	sta	($10),y                 ; 0x2010 <_ZN12_GLOBAL__N_15printEPKcP6Status+0x76e>
     cf9: 68           	pla
     cfa: 80 12        	bra	$d0e <f256main+0x265>
     cfc: a0 08        	ldy	#$8
     cfe: b1 10        	lda	($10),y                 ; 0x2010 <_ZN12_GLOBAL__N_15printEPKcP6Status+0x76e>
     d00: 48           	pha
     d01: a0 0c        	ldy	#$c
     d03: b1 10        	lda	($10),y                 ; 0x2010 <_ZN12_GLOBAL__N_15printEPKcP6Status+0x76e>
     d05: aa           	tax
     d06: 68           	pla
     d07: e0 00        	cpx	#$0
     d09: f0 03        	beq	$d0e <f256main+0x265>
     d0b: 4c 4e 10     	jmp	$104e <f256main+0x5a5>
     d0e: a0 08        	ldy	#$8
     d10: 91 10        	sta	($10),y                 ; 0x2010 <_ZN12_GLOBAL__N_15printEPKcP6Status+0x76e>
     d12: a2 00        	ldx	#$0
     d14: 64 2f        	stz	$2f                     ; 0x202f <_ZN12_GLOBAL__N_15printEPKcP6Status+0x78d>
     d16: 64 28        	stz	$28                     ; 0x2028 <_ZN12_GLOBAL__N_15printEPKcP6Status+0x786>
     d18: a0 00        	ldy	#$0
     d1a: a9 c0        	lda	#$c0
     d1c: 80 22        	bra	$d40 <f256main+0x297>
     d1e: 18           	clc
     d1f: a5 2f        	lda	$2f                     ; 0x202f <_ZN12_GLOBAL__N_15printEPKcP6Status+0x78d>
     d21: 69 c8        	adc	#$c8
     d23: 85 2f        	sta	$2f                     ; 0x202f <_ZN12_GLOBAL__N_15printEPKcP6Status+0x78d>
     d25: a5 28        	lda	$28                     ; 0x2028 <_ZN12_GLOBAL__N_15printEPKcP6Status+0x786>
     d27: 69 00        	adc	#$0
     d29: 85 28        	sta	$28                     ; 0x2028 <_ZN12_GLOBAL__N_15printEPKcP6Status+0x786>
     d2b: 18           	clc
     d2c: a5 17        	lda	$17                     ; 0x2017 <_ZN12_GLOBAL__N_15printEPKcP6Status+0x775>
     d2e: 65 14        	adc	$14                     ; 0x2014 <_ZN12_GLOBAL__N_15printEPKcP6Status+0x772>
     d30: a8           	tay
     d31: a5 16        	lda	$16                     ; 0x2016 <_ZN12_GLOBAL__N_15printEPKcP6Status+0x774>
     d33: 65 15        	adc	$15                     ; 0x2015 <_ZN12_GLOBAL__N_15printEPKcP6Status+0x773>
     d35: e6 29        	inc	$29                     ; 0x2029 <_ZN12_GLOBAL__N_15printEPKcP6Status+0x787>
     d37: a6 29        	ldx	$29                     ; 0x2029 <_ZN12_GLOBAL__N_15printEPKcP6Status+0x787>
     d39: e0 03        	cpx	#$3
     d3b: d0 03        	bne	$d40 <f256main+0x297>
     d3d: 4c 3f 0f     	jmp	$f3f <f256main+0x496>
     d40: 85 2d        	sta	$2d                     ; 0x202d <_ZN12_GLOBAL__N_15printEPKcP6Status+0x78b>
     d42: 84 27        	sty	$27                     ; 0x2027 <_ZN12_GLOBAL__N_15printEPKcP6Status+0x785>
     d44: 86 29        	stx	$29                     ; 0x2029 <_ZN12_GLOBAL__N_15printEPKcP6Status+0x787>
     d46: 64 01        	stz	$1                      ; 0x2001 <_ZN12_GLOBAL__N_15printEPKcP6Status+0x75f>
     d48: 18           	clc
     d49: a5 10        	lda	$10                     ; 0x2010 <_ZN12_GLOBAL__N_15printEPKcP6Status+0x76e>
     d4b: 69 cd        	adc	#$cd
     d4d: 85 2a        	sta	$2a                     ; 0x202a <_ZN12_GLOBAL__N_15printEPKcP6Status+0x788>
     d4f: a5 11        	lda	$11                     ; 0x2011 <_ZN12_GLOBAL__N_15printEPKcP6Status+0x76f>
     d51: 69 32        	adc	#$32
     d53: 85 2b        	sta	$2b                     ; 0x202b <_ZN12_GLOBAL__N_15printEPKcP6Status+0x789>
     d55: a6 2a        	ldx	$2a                     ; 0x202a <_ZN12_GLOBAL__N_15printEPKcP6Status+0x788>
     d57: 86 12        	stx	$12                     ; 0x2012 <_ZN12_GLOBAL__N_15printEPKcP6Status+0x770>
     d59: 85 13        	sta	$13                     ; 0x2013 <_ZN12_GLOBAL__N_15printEPKcP6Status+0x771>
     d5b: a6 24        	ldx	$24                     ; 0x2024 <_ZN12_GLOBAL__N_15printEPKcP6Status+0x782>
     d5d: 86 16        	stx	$16                     ; 0x2016 <_ZN12_GLOBAL__N_15printEPKcP6Status+0x774>
     d5f: a6 25        	ldx	$25                     ; 0x2025 <_ZN12_GLOBAL__N_15printEPKcP6Status+0x783>
     d61: 86 17        	stx	$17                     ; 0x2017 <_ZN12_GLOBAL__N_15printEPKcP6Status+0x775>
     d63: a2 c8        	ldx	#$c8
     d65: 86 14        	stx	$14                     ; 0x2014 <_ZN12_GLOBAL__N_15printEPKcP6Status+0x772>
     d67: 64 15        	stz	$15                     ; 0x2015 <_ZN12_GLOBAL__N_15printEPKcP6Status+0x773>
     d69: a2 00        	ldx	#$0
     d6b: a9 01        	lda	#$1
     d6d: 20 ea 11     	jsr	$11ea <fileRead>
     d70: a2 02        	ldx	#$2
     d72: 86 01        	stx	$1                      ; 0x2001 <_ZN12_GLOBAL__N_15printEPKcP6Status+0x75f>
     d74: aa           	tax
     d75: d0 03        	bne	$d7a <f256main+0x2d1>
     d77: 4c 31 0f     	jmp	$f31 <f256main+0x488>
     d7a: 18           	clc
     d7b: a5 10        	lda	$10                     ; 0x2010 <_ZN12_GLOBAL__N_15printEPKcP6Status+0x76e>
     d7d: 69 0d        	adc	#$d
     d7f: 85 12        	sta	$12                     ; 0x2012 <_ZN12_GLOBAL__N_15printEPKcP6Status+0x770>
     d81: a5 11        	lda	$11                     ; 0x2011 <_ZN12_GLOBAL__N_15printEPKcP6Status+0x76f>
     d83: 69 20        	adc	#$20
     d85: 85 13        	sta	$13                     ; 0x2013 <_ZN12_GLOBAL__N_15printEPKcP6Status+0x771>
     d87: a5 2f        	lda	$2f                     ; 0x202f <_ZN12_GLOBAL__N_15printEPKcP6Status+0x78d>
     d89: 18           	clc
     d8a: 65 12        	adc	$12                     ; 0x2012 <_ZN12_GLOBAL__N_15printEPKcP6Status+0x770>
     d8c: 85 12        	sta	$12                     ; 0x2012 <_ZN12_GLOBAL__N_15printEPKcP6Status+0x770>
     d8e: a5 28        	lda	$28                     ; 0x2028 <_ZN12_GLOBAL__N_15printEPKcP6Status+0x786>
     d90: 65 13        	adc	$13                     ; 0x2013 <_ZN12_GLOBAL__N_15printEPKcP6Status+0x771>
     d92: 85 13        	sta	$13                     ; 0x2013 <_ZN12_GLOBAL__N_15printEPKcP6Status+0x771>
     d94: a2 00        	ldx	#$0
     d96: a4 27        	ldy	$27                     ; 0x2027 <_ZN12_GLOBAL__N_15printEPKcP6Status+0x785>
     d98: a5 2d        	lda	$2d                     ; 0x202d <_ZN12_GLOBAL__N_15printEPKcP6Status+0x78b>
     d9a: 80 2e        	bra	$dca <f256main+0x321>
     d9c: a6 1e        	ldx	$1e                     ; 0x201e <_ZN12_GLOBAL__N_15printEPKcP6Status+0x77c>
     d9e: e8           	inx
     d9f: a5 2a        	lda	$2a                     ; 0x202a <_ZN12_GLOBAL__N_15printEPKcP6Status+0x788>
     da1: 18           	clc
     da2: 69 0a        	adc	#$a
     da4: 85 2a        	sta	$2a                     ; 0x202a <_ZN12_GLOBAL__N_15printEPKcP6Status+0x788>
     da6: a5 2b        	lda	$2b                     ; 0x202b <_ZN12_GLOBAL__N_15printEPKcP6Status+0x789>
     da8: 69 00        	adc	#$0
     daa: 85 2b        	sta	$2b                     ; 0x202b <_ZN12_GLOBAL__N_15printEPKcP6Status+0x789>
     dac: a5 12        	lda	$12                     ; 0x2012 <_ZN12_GLOBAL__N_15printEPKcP6Status+0x770>
     dae: 18           	clc
     daf: 69 0a        	adc	#$a
     db1: 85 12        	sta	$12                     ; 0x2012 <_ZN12_GLOBAL__N_15printEPKcP6Status+0x770>
     db3: a5 13        	lda	$13                     ; 0x2013 <_ZN12_GLOBAL__N_15printEPKcP6Status+0x771>
     db5: 69 00        	adc	#$0
     db7: 85 13        	sta	$13                     ; 0x2013 <_ZN12_GLOBAL__N_15printEPKcP6Status+0x771>
     db9: a5 17        	lda	$17                     ; 0x2017 <_ZN12_GLOBAL__N_15printEPKcP6Status+0x775>
     dbb: 18           	clc
     dbc: 65 14        	adc	$14                     ; 0x2014 <_ZN12_GLOBAL__N_15printEPKcP6Status+0x772>
     dbe: a8           	tay
     dbf: a5 16        	lda	$16                     ; 0x2016 <_ZN12_GLOBAL__N_15printEPKcP6Status+0x774>
     dc1: 65 15        	adc	$15                     ; 0x2015 <_ZN12_GLOBAL__N_15printEPKcP6Status+0x773>
     dc3: e0 14        	cpx	#$14
     dc5: d0 03        	bne	$dca <f256main+0x321>
     dc7: 4c 1e 0d     	jmp	$d1e <f256main+0x275>
     dca: 86 1e        	stx	$1e                     ; 0x201e <_ZN12_GLOBAL__N_15printEPKcP6Status+0x77c>
     dcc: 85 16        	sta	$16                     ; 0x2016 <_ZN12_GLOBAL__N_15printEPKcP6Status+0x774>
     dce: 84 17        	sty	$17                     ; 0x2017 <_ZN12_GLOBAL__N_15printEPKcP6Status+0x775>
     dd0: a9 00        	lda	#$0
     dd2: 64 1c        	stz	$1c                     ; 0x201c <_ZN12_GLOBAL__N_15printEPKcP6Status+0x77a>
     dd4: a8           	tay
     dd5: 4c b8 0e     	jmp	$eb8 <f256main+0x40f>
     dd8: a9 07        	lda	#$7
     dda: a0 02        	ldy	#$2
     ddc: 91 14        	sta	($14),y                 ; 0x2014 <_ZN12_GLOBAL__N_15printEPKcP6Status+0x772>
     dde: a5 17        	lda	$17                     ; 0x2017 <_ZN12_GLOBAL__N_15printEPKcP6Status+0x775>
     de0: 18           	clc
     de1: 65 1a        	adc	$1a                     ; 0x201a <_ZN12_GLOBAL__N_15printEPKcP6Status+0x778>
     de3: aa           	tax
     de4: a4 1c        	ldy	$1c                     ; 0x201c <_ZN12_GLOBAL__N_15printEPKcP6Status+0x77a>
     de6: 84 14        	sty	$14                     ; 0x2014 <_ZN12_GLOBAL__N_15printEPKcP6Status+0x772>
     de8: a5 16        	lda	$16                     ; 0x2016 <_ZN12_GLOBAL__N_15printEPKcP6Status+0x774>
     dea: 65 14        	adc	$14                     ; 0x2014 <_ZN12_GLOBAL__N_15printEPKcP6Status+0x772>
     dec: 86 14        	stx	$14                     ; 0x2014 <_ZN12_GLOBAL__N_15printEPKcP6Status+0x772>
     dee: 85 15        	sta	$15                     ; 0x2015 <_ZN12_GLOBAL__N_15printEPKcP6Status+0x773>
     df0: a9 10        	lda	#$10
     df2: a4 18        	ldy	$18                     ; 0x2018 <_ZN12_GLOBAL__N_15printEPKcP6Status+0x776>
     df4: 31 2a        	and	($2a),y                 ; 0x202a <_ZN12_GLOBAL__N_15printEPKcP6Status+0x788>
     df6: a2 20        	ldx	#$20
     df8: a8           	tay
     df9: d0 02        	bne	$dfd <f256main+0x354>
     dfb: a2 07        	ldx	#$7
     dfd: a0 03        	ldy	#$3
     dff: 8a           	txa
     e00: 91 14        	sta	($14),y                 ; 0x2014 <_ZN12_GLOBAL__N_15printEPKcP6Status+0x772>
     e02: a5 17        	lda	$17                     ; 0x2017 <_ZN12_GLOBAL__N_15printEPKcP6Status+0x775>
     e04: 18           	clc
     e05: 65 1a        	adc	$1a                     ; 0x201a <_ZN12_GLOBAL__N_15printEPKcP6Status+0x778>
     e07: aa           	tax
     e08: a4 1c        	ldy	$1c                     ; 0x201c <_ZN12_GLOBAL__N_15printEPKcP6Status+0x77a>
     e0a: 84 14        	sty	$14                     ; 0x2014 <_ZN12_GLOBAL__N_15printEPKcP6Status+0x772>
     e0c: a5 16        	lda	$16                     ; 0x2016 <_ZN12_GLOBAL__N_15printEPKcP6Status+0x774>
     e0e: 65 14        	adc	$14                     ; 0x2014 <_ZN12_GLOBAL__N_15printEPKcP6Status+0x772>
     e10: 86 14        	stx	$14                     ; 0x2014 <_ZN12_GLOBAL__N_15printEPKcP6Status+0x772>
     e12: 85 15        	sta	$15                     ; 0x2015 <_ZN12_GLOBAL__N_15printEPKcP6Status+0x773>
     e14: a9 08        	lda	#$8
     e16: a4 18        	ldy	$18                     ; 0x2018 <_ZN12_GLOBAL__N_15printEPKcP6Status+0x776>
     e18: 31 2a        	and	($2a),y                 ; 0x202a <_ZN12_GLOBAL__N_15printEPKcP6Status+0x788>
     e1a: f0 04        	beq	$e20 <f256main+0x377>
     e1c: a9 20        	lda	#$20
     e1e: 80 02        	bra	$e22 <f256main+0x379>
     e20: a9 07        	lda	#$7
     e22: a0 04        	ldy	#$4
     e24: 91 14        	sta	($14),y                 ; 0x2014 <_ZN12_GLOBAL__N_15printEPKcP6Status+0x772>
     e26: a5 17        	lda	$17                     ; 0x2017 <_ZN12_GLOBAL__N_15printEPKcP6Status+0x775>
     e28: 18           	clc
     e29: 65 1a        	adc	$1a                     ; 0x201a <_ZN12_GLOBAL__N_15printEPKcP6Status+0x778>
     e2b: aa           	tax
     e2c: a4 1c        	ldy	$1c                     ; 0x201c <_ZN12_GLOBAL__N_15printEPKcP6Status+0x77a>
     e2e: 84 14        	sty	$14                     ; 0x2014 <_ZN12_GLOBAL__N_15printEPKcP6Status+0x772>
     e30: a5 16        	lda	$16                     ; 0x2016 <_ZN12_GLOBAL__N_15printEPKcP6Status+0x774>
     e32: 65 14        	adc	$14                     ; 0x2014 <_ZN12_GLOBAL__N_15printEPKcP6Status+0x772>
     e34: 86 14        	stx	$14                     ; 0x2014 <_ZN12_GLOBAL__N_15printEPKcP6Status+0x772>
     e36: 85 15        	sta	$15                     ; 0x2015 <_ZN12_GLOBAL__N_15printEPKcP6Status+0x773>
     e38: a9 04        	lda	#$4
     e3a: a4 18        	ldy	$18                     ; 0x2018 <_ZN12_GLOBAL__N_15printEPKcP6Status+0x776>
     e3c: 31 2a        	and	($2a),y                 ; 0x202a <_ZN12_GLOBAL__N_15printEPKcP6Status+0x788>
     e3e: a2 20        	ldx	#$20
     e40: a8           	tay
     e41: d0 02        	bne	$e45 <f256main+0x39c>
     e43: a2 07        	ldx	#$7
     e45: a0 05        	ldy	#$5
     e47: 8a           	txa
     e48: 91 14        	sta	($14),y                 ; 0x2014 <_ZN12_GLOBAL__N_15printEPKcP6Status+0x772>
     e4a: a9 02        	lda	#$2
     e4c: a4 18        	ldy	$18                     ; 0x2018 <_ZN12_GLOBAL__N_15printEPKcP6Status+0x776>
     e4e: 31 2a        	and	($2a),y                 ; 0x202a <_ZN12_GLOBAL__N_15printEPKcP6Status+0x788>
     e50: f0 04        	beq	$e56 <f256main+0x3ad>
     e52: a2 20        	ldx	#$20
     e54: 80 02        	bra	$e58 <f256main+0x3af>
     e56: a2 07        	ldx	#$7
     e58: a5 17        	lda	$17                     ; 0x2017 <_ZN12_GLOBAL__N_15printEPKcP6Status+0x775>
     e5a: 18           	clc
     e5b: 65 1a        	adc	$1a                     ; 0x201a <_ZN12_GLOBAL__N_15printEPKcP6Status+0x778>
     e5d: 85 15        	sta	$15                     ; 0x2015 <_ZN12_GLOBAL__N_15printEPKcP6Status+0x773>
     e5f: a4 1c        	ldy	$1c                     ; 0x201c <_ZN12_GLOBAL__N_15printEPKcP6Status+0x77a>
     e61: 84 14        	sty	$14                     ; 0x2014 <_ZN12_GLOBAL__N_15printEPKcP6Status+0x772>
     e63: a5 16        	lda	$16                     ; 0x2016 <_ZN12_GLOBAL__N_15printEPKcP6Status+0x774>
     e65: 65 14        	adc	$14                     ; 0x2014 <_ZN12_GLOBAL__N_15printEPKcP6Status+0x772>
     e67: a4 15        	ldy	$15                     ; 0x2015 <_ZN12_GLOBAL__N_15printEPKcP6Status+0x773>
     e69: 84 14        	sty	$14                     ; 0x2014 <_ZN12_GLOBAL__N_15printEPKcP6Status+0x772>
     e6b: 85 15        	sta	$15                     ; 0x2015 <_ZN12_GLOBAL__N_15printEPKcP6Status+0x773>
     e6d: a0 06        	ldy	#$6
     e6f: 8a           	txa
     e70: 91 14        	sta	($14),y                 ; 0x2014 <_ZN12_GLOBAL__N_15printEPKcP6Status+0x772>
     e72: a4 18        	ldy	$18                     ; 0x2018 <_ZN12_GLOBAL__N_15printEPKcP6Status+0x776>
     e74: b1 2a        	lda	($2a),y                 ; 0x202a <_ZN12_GLOBAL__N_15printEPKcP6Status+0x788>
     e76: 29 01        	and	#$1
     e78: a2 20        	ldx	#$20
     e7a: a8           	tay
     e7b: d0 02        	bne	$e7f <f256main+0x3d6>
     e7d: a2 07        	ldx	#$7
     e7f: a5 17        	lda	$17                     ; 0x2017 <_ZN12_GLOBAL__N_15printEPKcP6Status+0x775>
     e81: 18           	clc
     e82: 65 1a        	adc	$1a                     ; 0x201a <_ZN12_GLOBAL__N_15printEPKcP6Status+0x778>
     e84: 85 15        	sta	$15                     ; 0x2015 <_ZN12_GLOBAL__N_15printEPKcP6Status+0x773>
     e86: a4 1c        	ldy	$1c                     ; 0x201c <_ZN12_GLOBAL__N_15printEPKcP6Status+0x77a>
     e88: 84 14        	sty	$14                     ; 0x2014 <_ZN12_GLOBAL__N_15printEPKcP6Status+0x772>
     e8a: a5 16        	lda	$16                     ; 0x2016 <_ZN12_GLOBAL__N_15printEPKcP6Status+0x774>
     e8c: 65 14        	adc	$14                     ; 0x2014 <_ZN12_GLOBAL__N_15printEPKcP6Status+0x772>
     e8e: a4 15        	ldy	$15                     ; 0x2015 <_ZN12_GLOBAL__N_15printEPKcP6Status+0x773>
     e90: 84 14        	sty	$14                     ; 0x2014 <_ZN12_GLOBAL__N_15printEPKcP6Status+0x772>
     e92: 85 15        	sta	$15                     ; 0x2015 <_ZN12_GLOBAL__N_15printEPKcP6Status+0x773>
     e94: a0 07        	ldy	#$7
     e96: 8a           	txa
     e97: 91 14        	sta	($14),y                 ; 0x2014 <_ZN12_GLOBAL__N_15printEPKcP6Status+0x772>
     e99: a4 18        	ldy	$18                     ; 0x2018 <_ZN12_GLOBAL__N_15printEPKcP6Status+0x776>
     e9b: c8           	iny
     e9c: 18           	clc
     e9d: a5 1a        	lda	$1a                     ; 0x201a <_ZN12_GLOBAL__N_15printEPKcP6Status+0x778>
     e9f: 69 08        	adc	#$8
     ea1: 85 14        	sta	$14                     ; 0x2014 <_ZN12_GLOBAL__N_15printEPKcP6Status+0x772>
     ea3: aa           	tax
     ea4: a5 1c        	lda	$1c                     ; 0x201c <_ZN12_GLOBAL__N_15printEPKcP6Status+0x77a>
     ea6: 69 00        	adc	#$0
     ea8: 85 15        	sta	$15                     ; 0x2015 <_ZN12_GLOBAL__N_15printEPKcP6Status+0x773>
     eaa: 8a           	txa
     eab: 5a           	phy
     eac: a4 15        	ldy	$15                     ; 0x2015 <_ZN12_GLOBAL__N_15printEPKcP6Status+0x773>
     eae: 84 1c        	sty	$1c                     ; 0x201c <_ZN12_GLOBAL__N_15printEPKcP6Status+0x77a>
     eb0: 7a           	ply
     eb1: e0 50        	cpx	#$50
     eb3: d0 03        	bne	$eb8 <f256main+0x40f>
     eb5: 4c 9c 0d     	jmp	$d9c <f256main+0x2f3>
     eb8: 85 1a        	sta	$1a                     ; 0x201a <_ZN12_GLOBAL__N_15printEPKcP6Status+0x778>
     eba: b1 12        	lda	($12),y                 ; 0x2012 <_ZN12_GLOBAL__N_15printEPKcP6Status+0x770>
     ebc: 85 15        	sta	$15                     ; 0x2015 <_ZN12_GLOBAL__N_15printEPKcP6Status+0x773>
     ebe: b1 2a        	lda	($2a),y                 ; 0x202a <_ZN12_GLOBAL__N_15printEPKcP6Status+0x788>
     ec0: 85 14        	sta	$14                     ; 0x2014 <_ZN12_GLOBAL__N_15printEPKcP6Status+0x772>
     ec2: a6 15        	ldx	$15                     ; 0x2015 <_ZN12_GLOBAL__N_15printEPKcP6Status+0x773>
     ec4: e4 14        	cpx	$14                     ; 0x2014 <_ZN12_GLOBAL__N_15printEPKcP6Status+0x772>
     ec6: f0 d3        	beq	$e9b <f256main+0x3f2>
     ec8: a6 1a        	ldx	$1a                     ; 0x201a <_ZN12_GLOBAL__N_15printEPKcP6Status+0x778>
     eca: 86 19        	stx	$19                     ; 0x2019 <_ZN12_GLOBAL__N_15printEPKcP6Status+0x777>
     ecc: 18           	clc
     ecd: 85 1f        	sta	$1f                     ; 0x201f <_ZN12_GLOBAL__N_15printEPKcP6Status+0x77d>
     ecf: a5 17        	lda	$17                     ; 0x2017 <_ZN12_GLOBAL__N_15printEPKcP6Status+0x775>
     ed1: 65 1a        	adc	$1a                     ; 0x201a <_ZN12_GLOBAL__N_15printEPKcP6Status+0x778>
     ed3: aa           	tax
     ed4: a5 1c        	lda	$1c                     ; 0x201c <_ZN12_GLOBAL__N_15printEPKcP6Status+0x77a>
     ed6: 85 1d        	sta	$1d                     ; 0x201d <_ZN12_GLOBAL__N_15printEPKcP6Status+0x77b>
     ed8: a5 16        	lda	$16                     ; 0x2016 <_ZN12_GLOBAL__N_15printEPKcP6Status+0x774>
     eda: 65 1c        	adc	$1c                     ; 0x201c <_ZN12_GLOBAL__N_15printEPKcP6Status+0x77a>
     edc: 86 14        	stx	$14                     ; 0x2014 <_ZN12_GLOBAL__N_15printEPKcP6Status+0x772>
     ede: 85 15        	sta	$15                     ; 0x2015 <_ZN12_GLOBAL__N_15printEPKcP6Status+0x773>
     ee0: a5 1f        	lda	$1f                     ; 0x201f <_ZN12_GLOBAL__N_15printEPKcP6Status+0x77d>
     ee2: 91 12        	sta	($12),y                 ; 0x2012 <_ZN12_GLOBAL__N_15printEPKcP6Status+0x770>
     ee4: a2 07        	ldx	#$7
     ee6: a5 1f        	lda	$1f                     ; 0x201f <_ZN12_GLOBAL__N_15printEPKcP6Status+0x77d>
     ee8: 10 02        	bpl	$eec <f256main+0x443>
     eea: a2 20        	ldx	#$20
     eec: 8a           	txa
     eed: 92 14        	sta	($14)                   ; 0x2014 <_ZN12_GLOBAL__N_15printEPKcP6Status+0x772>
     eef: a5 17        	lda	$17                     ; 0x2017 <_ZN12_GLOBAL__N_15printEPKcP6Status+0x775>
     ef1: 18           	clc
     ef2: 65 19        	adc	$19                     ; 0x2019 <_ZN12_GLOBAL__N_15printEPKcP6Status+0x777>
     ef4: aa           	tax
     ef5: a5 16        	lda	$16                     ; 0x2016 <_ZN12_GLOBAL__N_15printEPKcP6Status+0x774>
     ef7: 65 1d        	adc	$1d                     ; 0x201d <_ZN12_GLOBAL__N_15printEPKcP6Status+0x77b>
     ef9: 86 14        	stx	$14                     ; 0x2014 <_ZN12_GLOBAL__N_15printEPKcP6Status+0x772>
     efb: 85 15        	sta	$15                     ; 0x2015 <_ZN12_GLOBAL__N_15printEPKcP6Status+0x773>
     efd: a9 40        	lda	#$40
     eff: 84 18        	sty	$18                     ; 0x2018 <_ZN12_GLOBAL__N_15printEPKcP6Status+0x776>
     f01: 31 2a        	and	($2a),y                 ; 0x202a <_ZN12_GLOBAL__N_15printEPKcP6Status+0x788>
     f03: a2 20        	ldx	#$20
     f05: a8           	tay
     f06: d0 02        	bne	$f0a <f256main+0x461>
     f08: a2 07        	ldx	#$7
     f0a: a0 01        	ldy	#$1
     f0c: 8a           	txa
     f0d: 91 14        	sta	($14),y                 ; 0x2014 <_ZN12_GLOBAL__N_15printEPKcP6Status+0x772>
     f0f: a5 17        	lda	$17                     ; 0x2017 <_ZN12_GLOBAL__N_15printEPKcP6Status+0x775>
     f11: 18           	clc
     f12: 65 1a        	adc	$1a                     ; 0x201a <_ZN12_GLOBAL__N_15printEPKcP6Status+0x778>
     f14: aa           	tax
     f15: a4 1c        	ldy	$1c                     ; 0x201c <_ZN12_GLOBAL__N_15printEPKcP6Status+0x77a>
     f17: 84 14        	sty	$14                     ; 0x2014 <_ZN12_GLOBAL__N_15printEPKcP6Status+0x772>
     f19: a5 16        	lda	$16                     ; 0x2016 <_ZN12_GLOBAL__N_15printEPKcP6Status+0x774>
     f1b: 65 14        	adc	$14                     ; 0x2014 <_ZN12_GLOBAL__N_15printEPKcP6Status+0x772>
     f1d: 86 14        	stx	$14                     ; 0x2014 <_ZN12_GLOBAL__N_15printEPKcP6Status+0x772>
     f1f: 85 15        	sta	$15                     ; 0x2015 <_ZN12_GLOBAL__N_15printEPKcP6Status+0x773>
     f21: a9 20        	lda	#$20
     f23: a4 18        	ldy	$18                     ; 0x2018 <_ZN12_GLOBAL__N_15printEPKcP6Status+0x776>
     f25: 31 2a        	and	($2a),y                 ; 0x202a <_ZN12_GLOBAL__N_15printEPKcP6Status+0x788>
     f27: d0 03        	bne	$f2c <f256main+0x483>
     f29: 4c d8 0d     	jmp	$dd8 <f256main+0x32f>
     f2c: a9 20        	lda	#$20
     f2e: 4c da 0d     	jmp	$dda <f256main+0x331>
     f31: a2 01        	ldx	#$1
     f33: 8a           	txa
     f34: a0 0c        	ldy	#$c
     f36: 91 10        	sta	($10),y                 ; 0x2010 <_ZN12_GLOBAL__N_15printEPKcP6Status+0x76e>
     f38: a4 27        	ldy	$27                     ; 0x2027 <_ZN12_GLOBAL__N_15printEPKcP6Status+0x785>
     f3a: a5 2d        	lda	$2d                     ; 0x202d <_ZN12_GLOBAL__N_15printEPKcP6Status+0x78b>
     f3c: 4c 35 0d     	jmp	$d35 <f256main+0x28c>
     f3f: 64 01        	stz	$1                      ; 0x2001 <_ZN12_GLOBAL__N_15printEPKcP6Status+0x75f>
     f41: ae 04 d7     	ldx	$d704                   ; 0xd704 <__heap_start+0xaa72>
     f44: 86 12        	stx	$12                     ; 0x2012 <_ZN12_GLOBAL__N_15printEPKcP6Status+0x770>
     f46: ad 05 d7     	lda	$d705                   ; 0xd705 <__heap_start+0xaa73>
     f49: 29 07        	and	#$7
     f4b: 85 13        	sta	$13                     ; 0x2013 <_ZN12_GLOBAL__N_15printEPKcP6Status+0x771>
     f4d: a9 00        	lda	#$0
     f4f: 38           	sec
     f50: e5 12        	sbc	$12                     ; 0x2012 <_ZN12_GLOBAL__N_15printEPKcP6Status+0x770>
     f52: 85 12        	sta	$12                     ; 0x2012 <_ZN12_GLOBAL__N_15printEPKcP6Status+0x770>
     f54: a9 08        	lda	#$8
     f56: e5 13        	sbc	$13                     ; 0x2013 <_ZN12_GLOBAL__N_15printEPKcP6Status+0x771>
     f58: 06 12        	asl	$12                     ; 0x2012 <_ZN12_GLOBAL__N_15printEPKcP6Status+0x770>
     f5a: 2a           	rol
     f5b: 64 2a        	stz	$2a                     ; 0x202a <_ZN12_GLOBAL__N_15printEPKcP6Status+0x788>
     f5d: 26 2a        	rol	$2a                     ; 0x202a <_ZN12_GLOBAL__N_15printEPKcP6Status+0x788>
     f5f: 06 12        	asl	$12                     ; 0x2012 <_ZN12_GLOBAL__N_15printEPKcP6Status+0x770>
     f61: 2a           	rol
     f62: 85 29        	sta	$29                     ; 0x2029 <_ZN12_GLOBAL__N_15printEPKcP6Status+0x787>
     f64: 26 2a        	rol	$2a                     ; 0x202a <_ZN12_GLOBAL__N_15printEPKcP6Status+0x788>
     f66: d0 07        	bne	$f6f <f256main+0x4c6>
     f68: a5 29        	lda	$29                     ; 0x2029 <_ZN12_GLOBAL__N_15printEPKcP6Status+0x787>
     f6a: d0 03        	bne	$f6f <f256main+0x4c6>
     f6c: 4c fc 0c     	jmp	$cfc <f256main+0x253>
     f6f: a2 00        	ldx	#$0
     f71: a0 00        	ldy	#$0
     f73: 5a           	phy
     f74: a0 08        	ldy	#$8
     f76: b1 10        	lda	($10),y                 ; 0x2010 <_ZN12_GLOBAL__N_15printEPKcP6Status+0x76e>
     f78: 7a           	ply
     f79: 84 28        	sty	$28                     ; 0x2028 <_ZN12_GLOBAL__N_15printEPKcP6Status+0x786>
     f7b: 86 27        	stx	$27                     ; 0x2027 <_ZN12_GLOBAL__N_15printEPKcP6Status+0x785>
     f7d: 85 2b        	sta	$2b                     ; 0x202b <_ZN12_GLOBAL__N_15printEPKcP6Status+0x789>
     f7f: 18           	clc
     f80: a5 10        	lda	$10                     ; 0x2010 <_ZN12_GLOBAL__N_15printEPKcP6Status+0x76e>
     f82: 69 0d        	adc	#$d
     f84: 85 12        	sta	$12                     ; 0x2012 <_ZN12_GLOBAL__N_15printEPKcP6Status+0x770>
     f86: a5 11        	lda	$11                     ; 0x2011 <_ZN12_GLOBAL__N_15printEPKcP6Status+0x76f>
     f88: 69 00        	adc	#$0
     f8a: 85 13        	sta	$13                     ; 0x2013 <_ZN12_GLOBAL__N_15printEPKcP6Status+0x771>
     f8c: a6 2c        	ldx	$2c                     ; 0x202c <_ZN12_GLOBAL__N_15printEPKcP6Status+0x78a>
     f8e: a5 2c        	lda	$2c                     ; 0x202c <_ZN12_GLOBAL__N_15printEPKcP6Status+0x78a>
     f90: 18           	clc
     f91: 65 12        	adc	$12                     ; 0x2012 <_ZN12_GLOBAL__N_15printEPKcP6Status+0x770>
     f93: 85 12        	sta	$12                     ; 0x2012 <_ZN12_GLOBAL__N_15printEPKcP6Status+0x770>
     f95: a0 0b        	ldy	#$b
     f97: b1 10        	lda	($10),y                 ; 0x2010 <_ZN12_GLOBAL__N_15printEPKcP6Status+0x76e>
     f99: 65 13        	adc	$13                     ; 0x2013 <_ZN12_GLOBAL__N_15printEPKcP6Status+0x771>
     f9b: 85 13        	sta	$13                     ; 0x2013 <_ZN12_GLOBAL__N_15printEPKcP6Status+0x771>
     f9d: a0 00        	ldy	#$0
     f9f: b1 12        	lda	($12),y                 ; 0x2012 <_ZN12_GLOBAL__N_15printEPKcP6Status+0x770>
     fa1: 8d 07 d7     	sta	$d707                   ; 0xd707 <__heap_start+0xaa75>
     fa4: c8           	iny
     fa5: c0 40        	cpy	#$40
     fa7: d0 f6        	bne	$f9f <f256main+0x4f6>
     fa9: 18           	clc
     faa: 8a           	txa
     fab: 69 40        	adc	#$40
     fad: 85 2c        	sta	$2c                     ; 0x202c <_ZN12_GLOBAL__N_15printEPKcP6Status+0x78a>
     faf: a0 0b        	ldy	#$b
     fb1: b1 10        	lda	($10),y                 ; 0x2010 <_ZN12_GLOBAL__N_15printEPKcP6Status+0x76e>
     fb3: 69 00        	adc	#$0
     fb5: 91 10        	sta	($10),y                 ; 0x2010 <_ZN12_GLOBAL__N_15printEPKcP6Status+0x76e>
     fb7: c9 20        	cmp	#$20
     fb9: d0 16        	bne	$fd1 <f256main+0x528>
     fbb: a6 2b        	ldx	$2b                     ; 0x202b <_ZN12_GLOBAL__N_15printEPKcP6Status+0x789>
     fbd: a4 26        	ldy	$26                     ; 0x2026 <_ZN12_GLOBAL__N_15printEPKcP6Status+0x784>
     fbf: a5 2c        	lda	$2c                     ; 0x202c <_ZN12_GLOBAL__N_15printEPKcP6Status+0x78a>
     fc1: d0 12        	bne	$fd5 <f256main+0x52c>
     fc3: 64 2c        	stz	$2c                     ; 0x202c <_ZN12_GLOBAL__N_15printEPKcP6Status+0x78a>
     fc5: 64 12        	stz	$12                     ; 0x2012 <_ZN12_GLOBAL__N_15printEPKcP6Status+0x770>
     fc7: a9 00        	lda	#$0
     fc9: 5a           	phy
     fca: a0 0b        	ldy	#$b
     fcc: 91 10        	sta	($10),y                 ; 0x2010 <_ZN12_GLOBAL__N_15printEPKcP6Status+0x76e>
     fce: 7a           	ply
     fcf: 80 04        	bra	$fd5 <f256main+0x52c>
     fd1: a6 2b        	ldx	$2b                     ; 0x202b <_ZN12_GLOBAL__N_15printEPKcP6Status+0x789>
     fd3: a4 26        	ldy	$26                     ; 0x2026 <_ZN12_GLOBAL__N_15printEPKcP6Status+0x784>
     fd5: 18           	clc
     fd6: a5 10        	lda	$10                     ; 0x2010 <_ZN12_GLOBAL__N_15printEPKcP6Status+0x76e>
     fd8: 69 0d        	adc	#$d
     fda: 85 12        	sta	$12                     ; 0x2012 <_ZN12_GLOBAL__N_15printEPKcP6Status+0x770>
     fdc: a5 11        	lda	$11                     ; 0x2011 <_ZN12_GLOBAL__N_15printEPKcP6Status+0x76f>
     fde: 69 00        	adc	#$0
     fe0: 85 13        	sta	$13                     ; 0x2013 <_ZN12_GLOBAL__N_15printEPKcP6Status+0x771>
     fe2: 98           	tya
     fe3: 18           	clc
     fe4: 65 12        	adc	$12                     ; 0x2012 <_ZN12_GLOBAL__N_15printEPKcP6Status+0x770>
     fe6: 85 12        	sta	$12                     ; 0x2012 <_ZN12_GLOBAL__N_15printEPKcP6Status+0x770>
     fe8: 8a           	txa
     fe9: 84 2d        	sty	$2d                     ; 0x202d <_ZN12_GLOBAL__N_15printEPKcP6Status+0x78b>
     feb: 86 2f        	stx	$2f                     ; 0x202f <_ZN12_GLOBAL__N_15printEPKcP6Status+0x78d>
     fed: 65 13        	adc	$13                     ; 0x2013 <_ZN12_GLOBAL__N_15printEPKcP6Status+0x771>
     fef: 85 13        	sta	$13                     ; 0x2013 <_ZN12_GLOBAL__N_15printEPKcP6Status+0x771>
     ff1: a0 09        	ldy	#$9
     ff3: b1 10        	lda	($10),y                 ; 0x2010 <_ZN12_GLOBAL__N_15printEPKcP6Status+0x76e>
     ff5: 85 16        	sta	$16                     ; 0x2016 <_ZN12_GLOBAL__N_15printEPKcP6Status+0x774>
     ff7: c8           	iny
     ff8: b1 10        	lda	($10),y                 ; 0x2010 <_ZN12_GLOBAL__N_15printEPKcP6Status+0x76e>
     ffa: 85 17        	sta	$17                     ; 0x2017 <_ZN12_GLOBAL__N_15printEPKcP6Status+0x775>
     ffc: a2 40        	ldx	#$40
     ffe: 86 14        	stx	$14                     ; 0x2014 <_ZN12_GLOBAL__N_15printEPKcP6Status+0x772>
    1000: 64 15        	stz	$15                     ; 0x2015 <_ZN12_GLOBAL__N_15printEPKcP6Status+0x773>
    1002: a2 00        	ldx	#$0
    1004: a9 01        	lda	#$1
    1006: 20 ea 11     	jsr	$11ea <fileRead>
    1009: c9 40        	cmp	#$40
    100b: d0 1f        	bne	$102c <f256main+0x583>
    100d: 18           	clc
    100e: a5 2d        	lda	$2d                     ; 0x202d <_ZN12_GLOBAL__N_15printEPKcP6Status+0x78b>
    1010: 69 40        	adc	#$40
    1012: 85 26        	sta	$26                     ; 0x2026 <_ZN12_GLOBAL__N_15printEPKcP6Status+0x784>
    1014: a5 2f        	lda	$2f                     ; 0x202f <_ZN12_GLOBAL__N_15printEPKcP6Status+0x78d>
    1016: 69 00        	adc	#$0
    1018: a6 27        	ldx	$27                     ; 0x2027 <_ZN12_GLOBAL__N_15printEPKcP6Status+0x785>
    101a: a4 28        	ldy	$28                     ; 0x2028 <_ZN12_GLOBAL__N_15printEPKcP6Status+0x786>
    101c: c9 20        	cmp	#$20
    101e: d0 19        	bne	$1039 <f256main+0x590>
    1020: e6 26        	inc	$26                     ; 0x2026 <_ZN12_GLOBAL__N_15printEPKcP6Status+0x784>
    1022: c6 26        	dec	$26                     ; 0x2026 <_ZN12_GLOBAL__N_15printEPKcP6Status+0x784>
    1024: d0 13        	bne	$1039 <f256main+0x590>
    1026: 64 26        	stz	$26                     ; 0x2026 <_ZN12_GLOBAL__N_15printEPKcP6Status+0x784>
    1028: a9 00        	lda	#$0
    102a: 80 0d        	bra	$1039 <f256main+0x590>
    102c: a6 27        	ldx	$27                     ; 0x2027 <_ZN12_GLOBAL__N_15printEPKcP6Status+0x785>
    102e: a4 28        	ldy	$28                     ; 0x2028 <_ZN12_GLOBAL__N_15printEPKcP6Status+0x786>
    1030: 18           	clc
    1031: 65 26        	adc	$26                     ; 0x2026 <_ZN12_GLOBAL__N_15printEPKcP6Status+0x784>
    1033: 85 26        	sta	$26                     ; 0x2026 <_ZN12_GLOBAL__N_15printEPKcP6Status+0x784>
    1035: a5 2b        	lda	$2b                     ; 0x202b <_ZN12_GLOBAL__N_15printEPKcP6Status+0x789>
    1037: 65 2e        	adc	$2e                     ; 0x202e <_ZN12_GLOBAL__N_15printEPKcP6Status+0x78c>
    1039: e8           	inx
    103a: d0 01        	bne	$103d <f256main+0x594>
    103c: c8           	iny
    103d: c4 2a        	cpy	$2a                     ; 0x202a <_ZN12_GLOBAL__N_15printEPKcP6Status+0x788>
    103f: f0 03        	beq	$1044 <f256main+0x59b>
    1041: 4c 79 0f     	jmp	$f79 <f256main+0x4d0>
    1044: e4 29        	cpx	$29                     ; 0x2029 <_ZN12_GLOBAL__N_15printEPKcP6Status+0x787>
    1046: d0 03        	bne	$104b <f256main+0x5a2>
    1048: 4c 00 0d     	jmp	$d00 <f256main+0x257>
    104b: 4c 79 0f     	jmp	$f79 <f256main+0x4d0>
    104e: b2 24        	lda	($24)                   ; 0x2024 <_ZN12_GLOBAL__N_15printEPKcP6Status+0x782>
    1050: a6 67        	ldx	$67                     ; 0x2067 <_ZN12_GLOBAL__N_15printEPKcP6Status+0x7c5>
    1052: a4 68        	ldy	$68                     ; 0x2068 <_ZN12_GLOBAL__N_15printEPKcP6Status+0x7c6>
    1054: 86 12        	stx	$12                     ; 0x2012 <_ZN12_GLOBAL__N_15printEPKcP6Status+0x770>
    1056: 84 13        	sty	$13                     ; 0x2013 <_ZN12_GLOBAL__N_15printEPKcP6Status+0x771>
    1058: a0 03        	ldy	#$3
    105a: 91 12        	sta	($12),y                 ; 0x2012 <_ZN12_GLOBAL__N_15printEPKcP6Status+0x770>
    105c: 18           	clc
    105d: a5 10        	lda	$10                     ; 0x2010 <_ZN12_GLOBAL__N_15printEPKcP6Status+0x76e>
    105f: 69 95        	adc	#$95
    1061: 85 26        	sta	$26                     ; 0x2026 <_ZN12_GLOBAL__N_15printEPKcP6Status+0x784>
    1063: a5 11        	lda	$11                     ; 0x2011 <_ZN12_GLOBAL__N_15printEPKcP6Status+0x76f>
    1065: 69 33        	adc	#$33
    1067: 85 27        	sta	$27                     ; 0x2027 <_ZN12_GLOBAL__N_15printEPKcP6Status+0x785>
    1069: a2 c9        	ldx	#$c9
    106b: 86 28        	stx	$28                     ; 0x2028 <_ZN12_GLOBAL__N_15printEPKcP6Status+0x786>
    106d: a2 00        	ldx	#$0
    106f: 86 29        	stx	$29                     ; 0x2029 <_ZN12_GLOBAL__N_15printEPKcP6Status+0x787>
    1071: 20 68 ff     	jsr	$ff68 <__heap_start+0xd2d6>
    1074: 92 26        	sta	($26)                   ; 0x2026 <_ZN12_GLOBAL__N_15printEPKcP6Status+0x784>
    1076: a9 00        	lda	#$0
    1078: 6a           	ror
    1079: 85 28        	sta	$28                     ; 0x2028 <_ZN12_GLOBAL__N_15printEPKcP6Status+0x786>
    107b: a6 24        	ldx	$24                     ; 0x2024 <_ZN12_GLOBAL__N_15printEPKcP6Status+0x782>
    107d: 86 12        	stx	$12                     ; 0x2012 <_ZN12_GLOBAL__N_15printEPKcP6Status+0x770>
    107f: a6 25        	ldx	$25                     ; 0x2025 <_ZN12_GLOBAL__N_15printEPKcP6Status+0x783>
    1081: 86 13        	stx	$13                     ; 0x2013 <_ZN12_GLOBAL__N_15printEPKcP6Status+0x771>
    1083: 20 88 28     	jsr	$2888 <free>
    1086: 64 ca        	stz	$ca                     ; 0x20ca <_ZN12_GLOBAL__N_15printEPKcP6Status+0x828>
    1088: 20 00 ff     	jsr	$ff00 <__heap_start+0xd26e>
    108b: 92 26        	sta	($26)                   ; 0x2026 <_ZN12_GLOBAL__N_15printEPKcP6Status+0x784>
    108d: a9 00        	lda	#$0
    108f: 6a           	ror
    1090: 85 28        	sta	$28                     ; 0x2028 <_ZN12_GLOBAL__N_15printEPKcP6Status+0x786>
    1092: a6 ca        	ldx	$ca                     ; 0x20ca <_ZN12_GLOBAL__N_15printEPKcP6Status+0x828>
    1094: e0 32        	cpx	#$32
    1096: f0 04        	beq	$109c <f256main+0x5f3>
    1098: e0 38        	cpx	#$38
    109a: d0 ea        	bne	$1086 <f256main+0x5dd>
    109c: a9 00        	lda	#$0
    109e: a2 00        	ldx	#$0
    10a0: 85 20        	sta	$20                     ; 0x2020 <_ZN12_GLOBAL__N_15printEPKcP6Status+0x77e>
    10a2: a0 00        	ldy	#$0
    10a4: b1 10        	lda	($10),y                 ; 0x2010 <_ZN12_GLOBAL__N_15printEPKcP6Status+0x76e>
    10a6: 85 2f        	sta	$2f                     ; 0x202f <_ZN12_GLOBAL__N_15printEPKcP6Status+0x78d>
    10a8: c8           	iny
    10a9: b1 10        	lda	($10),y                 ; 0x2010 <_ZN12_GLOBAL__N_15printEPKcP6Status+0x76e>
    10ab: 85 2e        	sta	$2e                     ; 0x202e <_ZN12_GLOBAL__N_15printEPKcP6Status+0x78c>
    10ad: c8           	iny
    10ae: b1 10        	lda	($10),y                 ; 0x2010 <_ZN12_GLOBAL__N_15printEPKcP6Status+0x76e>
    10b0: 85 2d        	sta	$2d                     ; 0x202d <_ZN12_GLOBAL__N_15printEPKcP6Status+0x78b>
    10b2: c8           	iny
    10b3: b1 10        	lda	($10),y                 ; 0x2010 <_ZN12_GLOBAL__N_15printEPKcP6Status+0x76e>
    10b5: 85 2c        	sta	$2c                     ; 0x202c <_ZN12_GLOBAL__N_15printEPKcP6Status+0x78a>
    10b7: c8           	iny
    10b8: b1 10        	lda	($10),y                 ; 0x2010 <_ZN12_GLOBAL__N_15printEPKcP6Status+0x76e>
    10ba: 85 2b        	sta	$2b                     ; 0x202b <_ZN12_GLOBAL__N_15printEPKcP6Status+0x789>
    10bc: c8           	iny
    10bd: b1 10        	lda	($10),y                 ; 0x2010 <_ZN12_GLOBAL__N_15printEPKcP6Status+0x76e>
    10bf: 85 2a        	sta	$2a                     ; 0x202a <_ZN12_GLOBAL__N_15printEPKcP6Status+0x788>
    10c1: c8           	iny
    10c2: b1 10        	lda	($10),y                 ; 0x2010 <_ZN12_GLOBAL__N_15printEPKcP6Status+0x76e>
    10c4: 85 29        	sta	$29                     ; 0x2029 <_ZN12_GLOBAL__N_15printEPKcP6Status+0x787>
    10c6: c8           	iny
    10c7: b1 10        	lda	($10),y                 ; 0x2010 <_ZN12_GLOBAL__N_15printEPKcP6Status+0x76e>
    10c9: 85 28        	sta	$28                     ; 0x2028 <_ZN12_GLOBAL__N_15printEPKcP6Status+0x786>
    10cb: 7a           	ply
    10cc: 84 27        	sty	$27                     ; 0x2027 <_ZN12_GLOBAL__N_15printEPKcP6Status+0x785>
    10ce: 7a           	ply
    10cf: 84 26        	sty	$26                     ; 0x2026 <_ZN12_GLOBAL__N_15printEPKcP6Status+0x784>
    10d1: 7a           	ply
    10d2: 84 25        	sty	$25                     ; 0x2025 <_ZN12_GLOBAL__N_15printEPKcP6Status+0x783>
    10d4: 7a           	ply
    10d5: 84 24        	sty	$24                     ; 0x2024 <_ZN12_GLOBAL__N_15printEPKcP6Status+0x782>
    10d7: 18           	clc
    10d8: a5 10        	lda	$10                     ; 0x2010 <_ZN12_GLOBAL__N_15printEPKcP6Status+0x76e>
    10da: 69 96        	adc	#$96
    10dc: 85 10        	sta	$10                     ; 0x2010 <_ZN12_GLOBAL__N_15printEPKcP6Status+0x76e>
    10de: a5 11        	lda	$11                     ; 0x2011 <_ZN12_GLOBAL__N_15printEPKcP6Status+0x76f>
    10e0: 69 33        	adc	#$33
    10e2: 85 11        	sta	$11                     ; 0x2011 <_ZN12_GLOBAL__N_15printEPKcP6Status+0x76f>
    10e4: a5 20        	lda	$20                     ; 0x2020 <_ZN12_GLOBAL__N_15printEPKcP6Status+0x77e>
    10e6: 60           	rts

000010e7 <fileOpen>:
    10e7: a6 12        	ldx	$12                     ; 0x2012 <_ZN12_GLOBAL__N_15printEPKcP6Status+0x770>
    10e9: 86 d7        	stx	$d7                     ; 0x20d7 <_ZN12_GLOBAL__N_15printEPKcP6Status+0x835>
    10eb: a6 13        	ldx	$13                     ; 0x2013 <_ZN12_GLOBAL__N_15printEPKcP6Status+0x771>
    10ed: 86 d8        	stx	$d8                     ; 0x20d8 <_ZN12_GLOBAL__N_15printEPKcP6Status+0x836>
    10ef: a6 14        	ldx	$14                     ; 0x2014 <_ZN12_GLOBAL__N_15printEPKcP6Status+0x772>
    10f1: 86 d9        	stx	$d9                     ; 0x20d9 <_ZN12_GLOBAL__N_15printEPKcP6Status+0x837>
    10f3: a6 15        	ldx	$15                     ; 0x2015 <_ZN12_GLOBAL__N_15printEPKcP6Status+0x773>
    10f5: 86 da        	stx	$da                     ; 0x20da <_ZN12_GLOBAL__N_15printEPKcP6Status+0x838>
    10f7: 20 5a 2a     	jsr	$2a5a <strlen>
    10fa: 64 db        	stz	$db                     ; 0x20db <_ZN12_GLOBAL__N_15printEPKcP6Status+0x839>
    10fc: e0 00        	cpx	#$0
    10fe: d0 06        	bne	$1106 <fileOpen+0x1f>
    1100: c9 02        	cmp	#$2
    1102: b0 06        	bcs	$110a <fileOpen+0x23>
    1104: 80 28        	bra	$112e <fileOpen+0x47>
    1106: e0 00        	cpx	#$0
    1108: 90 24        	bcc	$112e <fileOpen+0x47>
    110a: a0 01        	ldy	#$1
    110c: b1 d7        	lda	($d7),y                 ; 0x20d7 <_ZN12_GLOBAL__N_15printEPKcP6Status+0x835>
    110e: c9 3a        	cmp	#$3a
    1110: d0 1c        	bne	$112e <fileOpen+0x47>
    1112: b2 d7        	lda	($d7)                   ; 0x20d7 <_ZN12_GLOBAL__N_15printEPKcP6Status+0x835>
    1114: c9 30        	cmp	#$30
    1116: 90 09        	bcc	$1121 <fileOpen+0x3a>
    1118: c9 38        	cmp	#$38
    111a: b0 05        	bcs	$1121 <fileOpen+0x3a>
    111c: 18           	clc
    111d: 69 d0        	adc	#$d0
    111f: 85 db        	sta	$db                     ; 0x20db <_ZN12_GLOBAL__N_15printEPKcP6Status+0x839>
    1121: a5 d7        	lda	$d7                     ; 0x20d7 <_ZN12_GLOBAL__N_15printEPKcP6Status+0x835>
    1123: 18           	clc
    1124: 69 02        	adc	#$2
    1126: 85 d7        	sta	$d7                     ; 0x20d7 <_ZN12_GLOBAL__N_15printEPKcP6Status+0x835>
    1128: a5 d8        	lda	$d8                     ; 0x20d8 <_ZN12_GLOBAL__N_15printEPKcP6Status+0x836>
    112a: 69 00        	adc	#$0
    112c: 85 d8        	sta	$d8                     ; 0x20d8 <_ZN12_GLOBAL__N_15printEPKcP6Status+0x836>
    112e: a2 00        	ldx	#$0
    1130: 86 de        	stx	$de                     ; 0x20de <_ZN12_GLOBAL__N_15printEPKcP6Status+0x83c>
    1132: 80 00        	bra	$1134 <fileOpen+0x4d>
    1134: b2 d9        	lda	($d9)                   ; 0x20d9 <_ZN12_GLOBAL__N_15printEPKcP6Status+0x837>
    1136: c9 77        	cmp	#$77
    1138: f0 13        	beq	$114d <fileOpen+0x66>
    113a: aa           	tax
    113b: f0 1a        	beq	$1157 <fileOpen+0x70>
    113d: c9 61        	cmp	#$61
    113f: d0 04        	bne	$1145 <fileOpen+0x5e>
    1141: a2 02        	ldx	#$2
    1143: 86 de        	stx	$de                     ; 0x20de <_ZN12_GLOBAL__N_15printEPKcP6Status+0x83c>
    1145: e6 d9        	inc	$d9                     ; 0x20d9 <_ZN12_GLOBAL__N_15printEPKcP6Status+0x837>
    1147: d0 eb        	bne	$1134 <fileOpen+0x4d>
    1149: e6 da        	inc	$da                     ; 0x20da <_ZN12_GLOBAL__N_15printEPKcP6Status+0x838>
    114b: 80 e7        	bra	$1134 <fileOpen+0x4d>
    114d: a2 01        	ldx	#$1
    114f: 86 de        	stx	$de                     ; 0x20de <_ZN12_GLOBAL__N_15printEPKcP6Status+0x83c>
    1151: c9 61        	cmp	#$61
    1153: f0 ec        	beq	$1141 <fileOpen+0x5a>
    1155: 80 ee        	bra	$1145 <fileOpen+0x5e>
    1157: a5 67        	lda	$67                     ; 0x2067 <_ZN12_GLOBAL__N_15printEPKcP6Status+0x7c5>
    1159: a6 68        	ldx	$68                     ; 0x2068 <_ZN12_GLOBAL__N_15printEPKcP6Status+0x7c6>
    115b: 85 d9        	sta	$d9                     ; 0x20d9 <_ZN12_GLOBAL__N_15printEPKcP6Status+0x837>
    115d: 86 da        	stx	$da                     ; 0x20da <_ZN12_GLOBAL__N_15printEPKcP6Status+0x838>
    115f: a0 0b        	ldy	#$b
    1161: 18           	clc
    1162: 69 0b        	adc	#$b
    1164: 85 12        	sta	$12                     ; 0x2012 <_ZN12_GLOBAL__N_15printEPKcP6Status+0x770>
    1166: 8a           	txa
    1167: 69 00        	adc	#$0
    1169: 85 13        	sta	$13                     ; 0x2013 <_ZN12_GLOBAL__N_15printEPKcP6Status+0x771>
    116b: a5 d7        	lda	$d7                     ; 0x20d7 <_ZN12_GLOBAL__N_15printEPKcP6Status+0x835>
    116d: 91 d9        	sta	($d9),y                 ; 0x20d9 <_ZN12_GLOBAL__N_15printEPKcP6Status+0x837>
    116f: a0 01        	ldy	#$1
    1171: a5 d8        	lda	$d8                     ; 0x20d8 <_ZN12_GLOBAL__N_15printEPKcP6Status+0x836>
    1173: 91 12        	sta	($12),y                 ; 0x2012 <_ZN12_GLOBAL__N_15printEPKcP6Status+0x770>
    1175: a6 d7        	ldx	$d7                     ; 0x20d7 <_ZN12_GLOBAL__N_15printEPKcP6Status+0x835>
    1177: 86 12        	stx	$12                     ; 0x2012 <_ZN12_GLOBAL__N_15printEPKcP6Status+0x770>
    1179: a6 d8        	ldx	$d8                     ; 0x20d8 <_ZN12_GLOBAL__N_15printEPKcP6Status+0x836>
    117b: 86 13        	stx	$13                     ; 0x2013 <_ZN12_GLOBAL__N_15printEPKcP6Status+0x771>
    117d: 20 5a 2a     	jsr	$2a5a <strlen>
    1180: a0 0d        	ldy	#$d
    1182: 91 d9        	sta	($d9),y                 ; 0x20d9 <_ZN12_GLOBAL__N_15printEPKcP6Status+0x837>
    1184: a0 03        	ldy	#$3
    1186: a5 db        	lda	$db                     ; 0x20db <_ZN12_GLOBAL__N_15printEPKcP6Status+0x839>
    1188: 91 d9        	sta	($d9),y                 ; 0x20d9 <_ZN12_GLOBAL__N_15printEPKcP6Status+0x837>
    118a: a0 05        	ldy	#$5
    118c: a5 de        	lda	$de                     ; 0x20de <_ZN12_GLOBAL__N_15printEPKcP6Status+0x83c>
    118e: 91 d9        	sta	($d9),y                 ; 0x20d9 <_ZN12_GLOBAL__N_15printEPKcP6Status+0x837>
    1190: a2 dc        	ldx	#$dc
    1192: a0 00        	ldy	#$0
    1194: 86 12        	stx	$12                     ; 0x2012 <_ZN12_GLOBAL__N_15printEPKcP6Status+0x770>
    1196: 84 13        	sty	$13                     ; 0x2013 <_ZN12_GLOBAL__N_15printEPKcP6Status+0x771>
    1198: a2 c9        	ldx	#$c9
    119a: 86 14        	stx	$14                     ; 0x2014 <_ZN12_GLOBAL__N_15printEPKcP6Status+0x772>
    119c: a2 00        	ldx	#$0
    119e: 86 15        	stx	$15                     ; 0x2015 <_ZN12_GLOBAL__N_15printEPKcP6Status+0x773>
    11a0: 20 5c ff     	jsr	$ff5c <__heap_start+0xd2ca>
    11a3: 92 12        	sta	($12)                   ; 0x2012 <_ZN12_GLOBAL__N_15printEPKcP6Status+0x770>
    11a5: a9 00        	lda	#$0
    11a7: 6a           	ror
    11a8: 85 14        	sta	$14                     ; 0x2014 <_ZN12_GLOBAL__N_15printEPKcP6Status+0x772>
    11aa: a6 c9        	ldx	$c9                     ; 0x20c9 <_ZN12_GLOBAL__N_15printEPKcP6Status+0x827>
    11ac: a0 00        	ldy	#$0
    11ae: 84 12        	sty	$12                     ; 0x2012 <_ZN12_GLOBAL__N_15printEPKcP6Status+0x770>
    11b0: a0 00        	ldy	#$0
    11b2: 84 13        	sty	$13                     ; 0x2013 <_ZN12_GLOBAL__N_15printEPKcP6Status+0x771>
    11b4: 8a           	txa
    11b5: f0 01        	beq	$11b8 <fileOpen+0xd1>
    11b7: 60           	rts
    11b8: a6 dc        	ldx	$dc                     ; 0x20dc <_ZN12_GLOBAL__N_15printEPKcP6Status+0x83a>
    11ba: 86 d7        	stx	$d7                     ; 0x20d7 <_ZN12_GLOBAL__N_15printEPKcP6Status+0x835>
    11bc: a2 dd        	ldx	#$dd
    11be: a0 00        	ldy	#$0
    11c0: 86 16        	stx	$16                     ; 0x2016 <_ZN12_GLOBAL__N_15printEPKcP6Status+0x774>
    11c2: 84 17        	sty	$17                     ; 0x2017 <_ZN12_GLOBAL__N_15printEPKcP6Status+0x775>
    11c4: 64 ca        	stz	$ca                     ; 0x20ca <_ZN12_GLOBAL__N_15printEPKcP6Status+0x828>
    11c6: 20 00 ff     	jsr	$ff00 <__heap_start+0xd26e>
    11c9: 92 16        	sta	($16)                   ; 0x2016 <_ZN12_GLOBAL__N_15printEPKcP6Status+0x774>
    11cb: a9 00        	lda	#$0
    11cd: 6a           	ror
    11ce: 85 14        	sta	$14                     ; 0x2014 <_ZN12_GLOBAL__N_15printEPKcP6Status+0x772>
    11d0: a6 ca        	ldx	$ca                     ; 0x20ca <_ZN12_GLOBAL__N_15printEPKcP6Status+0x828>
    11d2: e0 28        	cpx	#$28
    11d4: f0 e1        	beq	$11b7 <fileOpen+0xd0>
    11d6: e0 38        	cpx	#$38
    11d8: f0 dd        	beq	$11b7 <fileOpen+0xd0>
    11da: e0 2a        	cpx	#$2a
    11dc: d0 e6        	bne	$11c4 <fileOpen+0xdd>
    11de: a9 01        	lda	#$1
    11e0: a2 00        	ldx	#$0
    11e2: 20 d2 26     	jsr	$26d2 <malloc>
    11e5: a5 d7        	lda	$d7                     ; 0x20d7 <_ZN12_GLOBAL__N_15printEPKcP6Status+0x835>
    11e7: 92 12        	sta	($12)                   ; 0x2012 <_ZN12_GLOBAL__N_15printEPKcP6Status+0x770>
    11e9: 60           	rts

000011ea <fileRead>:
    11ea: 85 d7        	sta	$d7                     ; 0x20d7 <_ZN12_GLOBAL__N_15printEPKcP6Status+0x835>
    11ec: 86 d8        	stx	$d8                     ; 0x20d8 <_ZN12_GLOBAL__N_15printEPKcP6Status+0x836>
    11ee: a4 12        	ldy	$12                     ; 0x2012 <_ZN12_GLOBAL__N_15printEPKcP6Status+0x770>
    11f0: 84 db        	sty	$db                     ; 0x20db <_ZN12_GLOBAL__N_15printEPKcP6Status+0x839>
    11f2: a4 13        	ldy	$13                     ; 0x2013 <_ZN12_GLOBAL__N_15printEPKcP6Status+0x771>
    11f4: 84 dc        	sty	$dc                     ; 0x20dc <_ZN12_GLOBAL__N_15printEPKcP6Status+0x83a>
    11f6: a4 16        	ldy	$16                     ; 0x2016 <_ZN12_GLOBAL__N_15printEPKcP6Status+0x774>
    11f8: 84 d9        	sty	$d9                     ; 0x20d9 <_ZN12_GLOBAL__N_15printEPKcP6Status+0x837>
    11fa: a4 17        	ldy	$17                     ; 0x2017 <_ZN12_GLOBAL__N_15printEPKcP6Status+0x775>
    11fc: 84 da        	sty	$da                     ; 0x20da <_ZN12_GLOBAL__N_15printEPKcP6Status+0x838>
    11fe: 85 12        	sta	$12                     ; 0x2012 <_ZN12_GLOBAL__N_15printEPKcP6Status+0x770>
    1200: 86 13        	stx	$13                     ; 0x2013 <_ZN12_GLOBAL__N_15printEPKcP6Status+0x771>
    1202: a6 15        	ldx	$15                     ; 0x2015 <_ZN12_GLOBAL__N_15printEPKcP6Status+0x773>
    1204: a5 14        	lda	$14                     ; 0x2014 <_ZN12_GLOBAL__N_15printEPKcP6Status+0x772>
    1206: 20 01 2b     	jsr	$2b01 <__mulhi3>
    1209: 85 12        	sta	$12                     ; 0x2012 <_ZN12_GLOBAL__N_15printEPKcP6Status+0x770>
    120b: 64 14        	stz	$14                     ; 0x2014 <_ZN12_GLOBAL__N_15printEPKcP6Status+0x772>
    120d: 86 13        	stx	$13                     ; 0x2013 <_ZN12_GLOBAL__N_15printEPKcP6Status+0x771>
    120f: a5 13        	lda	$13                     ; 0x2013 <_ZN12_GLOBAL__N_15printEPKcP6Status+0x771>
    1211: d0 07        	bne	$121a <fileRead+0x30>
    1213: a5 12        	lda	$12                     ; 0x2012 <_ZN12_GLOBAL__N_15printEPKcP6Status+0x770>
    1215: d0 03        	bne	$121a <fileRead+0x30>
    1217: 4c 95 13     	jmp	$1395 <fileRead+0x1ab>
    121a: a2 00        	ldx	#$0
    121c: a0 c9        	ldy	#$c9
    121e: 84 16        	sty	$16                     ; 0x2016 <_ZN12_GLOBAL__N_15printEPKcP6Status+0x774>
    1220: a0 00        	ldy	#$0
    1222: 84 17        	sty	$17                     ; 0x2017 <_ZN12_GLOBAL__N_15printEPKcP6Status+0x775>
    1224: 64 15        	stz	$15                     ; 0x2015 <_ZN12_GLOBAL__N_15printEPKcP6Status+0x773>
    1226: b2 d9        	lda	($d9)                   ; 0x20d9 <_ZN12_GLOBAL__N_15printEPKcP6Status+0x837>
    1228: 85 1a        	sta	$1a                     ; 0x201a <_ZN12_GLOBAL__N_15printEPKcP6Status+0x778>
    122a: a4 db        	ldy	$db                     ; 0x20db <_ZN12_GLOBAL__N_15printEPKcP6Status+0x839>
    122c: 84 1c        	sty	$1c                     ; 0x201c <_ZN12_GLOBAL__N_15printEPKcP6Status+0x77a>
    122e: a5 db        	lda	$db                     ; 0x20db <_ZN12_GLOBAL__N_15printEPKcP6Status+0x839>
    1230: 18           	clc
    1231: 65 14        	adc	$14                     ; 0x2014 <_ZN12_GLOBAL__N_15printEPKcP6Status+0x772>
    1233: a8           	tay
    1234: a5 dc        	lda	$dc                     ; 0x20dc <_ZN12_GLOBAL__N_15printEPKcP6Status+0x83a>
    1236: 85 1d        	sta	$1d                     ; 0x201d <_ZN12_GLOBAL__N_15printEPKcP6Status+0x77b>
    1238: a5 dc        	lda	$dc                     ; 0x20dc <_ZN12_GLOBAL__N_15printEPKcP6Status+0x83a>
    123a: 65 15        	adc	$15                     ; 0x2015 <_ZN12_GLOBAL__N_15printEPKcP6Status+0x773>
    123c: e6 1a        	inc	$1a                     ; 0x201a <_ZN12_GLOBAL__N_15printEPKcP6Status+0x778>
    123e: c6 1a        	dec	$1a                     ; 0x201a <_ZN12_GLOBAL__N_15printEPKcP6Status+0x778>
    1240: f0 53        	beq	$1295 <fileRead+0xab>
    1242: 85 1f        	sta	$1f                     ; 0x201f <_ZN12_GLOBAL__N_15printEPKcP6Status+0x77d>
    1244: 84 1e        	sty	$1e                     ; 0x201e <_ZN12_GLOBAL__N_15printEPKcP6Status+0x77c>
    1246: a5 12        	lda	$12                     ; 0x2012 <_ZN12_GLOBAL__N_15printEPKcP6Status+0x770>
    1248: 38           	sec
    1249: e5 14        	sbc	$14                     ; 0x2014 <_ZN12_GLOBAL__N_15printEPKcP6Status+0x772>
    124b: 85 1b        	sta	$1b                     ; 0x201b <_ZN12_GLOBAL__N_15printEPKcP6Status+0x779>
    124d: a5 13        	lda	$13                     ; 0x2013 <_ZN12_GLOBAL__N_15printEPKcP6Status+0x771>
    124f: e5 15        	sbc	$15                     ; 0x2015 <_ZN12_GLOBAL__N_15printEPKcP6Status+0x773>
    1251: c9 01        	cmp	#$1
    1253: f0 03        	beq	$1258 <fileRead+0x6e>
    1255: 4c 0c 13     	jmp	$130c <fileRead+0x122>
    1258: a4 1b        	ldy	$1b                     ; 0x201b <_ZN12_GLOBAL__N_15printEPKcP6Status+0x779>
    125a: c0 01        	cpy	#$1
    125c: 90 02        	bcc	$1260 <fileRead+0x76>
    125e: 64 1b        	stz	$1b                     ; 0x201b <_ZN12_GLOBAL__N_15printEPKcP6Status+0x779>
    1260: a5 67        	lda	$67                     ; 0x2067 <_ZN12_GLOBAL__N_15printEPKcP6Status+0x7c5>
    1262: 85 18        	sta	$18                     ; 0x2018 <_ZN12_GLOBAL__N_15printEPKcP6Status+0x776>
    1264: a5 68        	lda	$68                     ; 0x2068 <_ZN12_GLOBAL__N_15printEPKcP6Status+0x7c6>
    1266: 85 19        	sta	$19                     ; 0x2019 <_ZN12_GLOBAL__N_15printEPKcP6Status+0x777>
    1268: a0 03        	ldy	#$3
    126a: a5 1a        	lda	$1a                     ; 0x201a <_ZN12_GLOBAL__N_15printEPKcP6Status+0x778>
    126c: 91 18        	sta	($18),y                 ; 0x2018 <_ZN12_GLOBAL__N_15printEPKcP6Status+0x776>
    126e: c8           	iny
    126f: a5 1b        	lda	$1b                     ; 0x201b <_ZN12_GLOBAL__N_15printEPKcP6Status+0x779>
    1271: 91 18        	sta	($18),y                 ; 0x2018 <_ZN12_GLOBAL__N_15printEPKcP6Status+0x776>
    1273: a0 df        	ldy	#$df
    1275: 84 18        	sty	$18                     ; 0x2018 <_ZN12_GLOBAL__N_15printEPKcP6Status+0x776>
    1277: a0 00        	ldy	#$0
    1279: 84 19        	sty	$19                     ; 0x2019 <_ZN12_GLOBAL__N_15printEPKcP6Status+0x777>
    127b: 20 60 ff     	jsr	$ff60 <__heap_start+0xd2ce>
    127e: 92 18        	sta	($18)                   ; 0x2018 <_ZN12_GLOBAL__N_15printEPKcP6Status+0x776>
    1280: a9 00        	lda	#$0
    1282: 6a           	ror
    1283: 85 16        	sta	$16                     ; 0x2016 <_ZN12_GLOBAL__N_15printEPKcP6Status+0x774>
    1285: a5 c9        	lda	$c9                     ; 0x20c9 <_ZN12_GLOBAL__N_15printEPKcP6Status+0x827>
    1287: a0 ff        	ldy	#$ff
    1289: 84 e2        	sty	$e2                     ; 0x20e2 <_ZN12_GLOBAL__N_15printEPKcP6Status+0x840>
    128b: a8           	tay
    128c: d0 03        	bne	$1291 <fileRead+0xa7>
    128e: 4c 16 13     	jmp	$1316 <fileRead+0x12c>
    1291: a9 ff        	lda	#$ff
    1293: 80 42        	bra	$12d7 <fileRead+0xed>
    1295: 84 18        	sty	$18                     ; 0x2018 <_ZN12_GLOBAL__N_15printEPKcP6Status+0x776>
    1297: 85 19        	sta	$19                     ; 0x2019 <_ZN12_GLOBAL__N_15printEPKcP6Status+0x777>
    1299: 80 12        	bra	$12ad <fileRead+0xc3>
    129b: a9 de        	lda	#$de
    129d: 85 1a        	sta	$1a                     ; 0x201a <_ZN12_GLOBAL__N_15printEPKcP6Status+0x778>
    129f: a9 00        	lda	#$0
    12a1: 85 1b        	sta	$1b                     ; 0x201b <_ZN12_GLOBAL__N_15printEPKcP6Status+0x779>
    12a3: 20 0c ff     	jsr	$ff0c <__heap_start+0xd27a>
    12a6: 92 1a        	sta	($1a)                   ; 0x201a <_ZN12_GLOBAL__N_15printEPKcP6Status+0x778>
    12a8: a9 00        	lda	#$0
    12aa: 6a           	ror
    12ab: 85 16        	sta	$16                     ; 0x2016 <_ZN12_GLOBAL__N_15printEPKcP6Status+0x774>
    12ad: 64 ca        	stz	$ca                     ; 0x20ca <_ZN12_GLOBAL__N_15printEPKcP6Status+0x828>
    12af: a9 dd        	lda	#$dd
    12b1: 85 1a        	sta	$1a                     ; 0x201a <_ZN12_GLOBAL__N_15printEPKcP6Status+0x778>
    12b3: 86 1b        	stx	$1b                     ; 0x201b <_ZN12_GLOBAL__N_15printEPKcP6Status+0x779>
    12b5: 20 00 ff     	jsr	$ff00 <__heap_start+0xd26e>
    12b8: 92 1a        	sta	($1a)                   ; 0x201a <_ZN12_GLOBAL__N_15printEPKcP6Status+0x778>
    12ba: a9 00        	lda	#$0
    12bc: 6a           	ror
    12bd: 85 16        	sta	$16                     ; 0x2016 <_ZN12_GLOBAL__N_15printEPKcP6Status+0x774>
    12bf: a5 c9        	lda	$c9                     ; 0x20c9 <_ZN12_GLOBAL__N_15printEPKcP6Status+0x827>
    12c1: d0 d8        	bne	$129b <fileRead+0xb1>
    12c3: a5 ca        	lda	$ca                     ; 0x20ca <_ZN12_GLOBAL__N_15printEPKcP6Status+0x828>
    12c5: c9 08        	cmp	#$8
    12c7: d0 e4        	bne	$12ad <fileRead+0xc3>
    12c9: a5 d0        	lda	$d0                     ; 0x20d0 <_ZN12_GLOBAL__N_15printEPKcP6Status+0x82e>
    12cb: d0 e0        	bne	$12ad <fileRead+0xc3>
    12cd: a5 cf        	lda	$cf                     ; 0x20cf <_ZN12_GLOBAL__N_15printEPKcP6Status+0x82d>
    12cf: 92 18        	sta	($18)                   ; 0x2018 <_ZN12_GLOBAL__N_15printEPKcP6Status+0x776>
    12d1: a0 01        	ldy	#$1
    12d3: 84 e2        	sty	$e2                     ; 0x20e2 <_ZN12_GLOBAL__N_15printEPKcP6Status+0x840>
    12d5: a9 00        	lda	#$0
    12d7: a8           	tay
    12d8: 10 03        	bpl	$12dd <fileRead+0xf3>
    12da: 4c 9e 13     	jmp	$139e <fileRead+0x1b4>
    12dd: a4 e2        	ldy	$e2                     ; 0x20e2 <_ZN12_GLOBAL__N_15printEPKcP6Status+0x840>
    12df: c9 00        	cmp	#$0
    12e1: d0 03        	bne	$12e6 <fileRead+0xfc>
    12e3: 4c a2 13     	jmp	$13a2 <fileRead+0x1b8>
    12e6: 84 18        	sty	$18                     ; 0x2018 <_ZN12_GLOBAL__N_15printEPKcP6Status+0x776>
    12e8: 18           	clc
    12e9: a8           	tay
    12ea: a5 18        	lda	$18                     ; 0x2018 <_ZN12_GLOBAL__N_15printEPKcP6Status+0x776>
    12ec: 65 14        	adc	$14                     ; 0x2014 <_ZN12_GLOBAL__N_15printEPKcP6Status+0x772>
    12ee: 85 14        	sta	$14                     ; 0x2014 <_ZN12_GLOBAL__N_15printEPKcP6Status+0x772>
    12f0: 98           	tya
    12f1: 65 15        	adc	$15                     ; 0x2015 <_ZN12_GLOBAL__N_15printEPKcP6Status+0x773>
    12f3: c5 13        	cmp	$13                     ; 0x2013 <_ZN12_GLOBAL__N_15printEPKcP6Status+0x771>
    12f5: d0 09        	bne	$1300 <fileRead+0x116>
    12f7: a4 14        	ldy	$14                     ; 0x2014 <_ZN12_GLOBAL__N_15printEPKcP6Status+0x772>
    12f9: c4 12        	cpy	$12                     ; 0x2012 <_ZN12_GLOBAL__N_15printEPKcP6Status+0x770>
    12fb: 90 0a        	bcc	$1307 <fileRead+0x11d>
    12fd: 4c 84 13     	jmp	$1384 <fileRead+0x19a>
    1300: c5 13        	cmp	$13                     ; 0x2013 <_ZN12_GLOBAL__N_15printEPKcP6Status+0x771>
    1302: 90 03        	bcc	$1307 <fileRead+0x11d>
    1304: 4c 84 13     	jmp	$1384 <fileRead+0x19a>
    1307: 85 15        	sta	$15                     ; 0x2015 <_ZN12_GLOBAL__N_15printEPKcP6Status+0x773>
    1309: 4c 26 12     	jmp	$1226 <fileRead+0x3c>
    130c: c9 01        	cmp	#$1
    130e: 90 03        	bcc	$1313 <fileRead+0x129>
    1310: 4c 5e 12     	jmp	$125e <fileRead+0x74>
    1313: 4c 60 12     	jmp	$1260 <fileRead+0x76>
    1316: a0 e0        	ldy	#$e0
    1318: 64 ca        	stz	$ca                     ; 0x20ca <_ZN12_GLOBAL__N_15printEPKcP6Status+0x828>
    131a: 84 18        	sty	$18                     ; 0x2018 <_ZN12_GLOBAL__N_15printEPKcP6Status+0x776>
    131c: a9 00        	lda	#$0
    131e: 85 19        	sta	$19                     ; 0x2019 <_ZN12_GLOBAL__N_15printEPKcP6Status+0x777>
    1320: 20 00 ff     	jsr	$ff00 <__heap_start+0xd26e>
    1323: 92 18        	sta	($18)                   ; 0x2018 <_ZN12_GLOBAL__N_15printEPKcP6Status+0x776>
    1325: a9 00        	lda	#$0
    1327: 6a           	ror
    1328: 85 16        	sta	$16                     ; 0x2016 <_ZN12_GLOBAL__N_15printEPKcP6Status+0x774>
    132a: a5 ca        	lda	$ca                     ; 0x20ca <_ZN12_GLOBAL__N_15printEPKcP6Status+0x828>
    132c: c9 38        	cmp	#$38
    132e: d0 03        	bne	$1333 <fileRead+0x149>
    1330: 4c 91 12     	jmp	$1291 <fileRead+0xa7>
    1333: c9 30        	cmp	#$30
    1335: d0 03        	bne	$133a <fileRead+0x150>
    1337: 4c 99 13     	jmp	$1399 <fileRead+0x1af>
    133a: c9 2c        	cmp	#$2c
    133c: d0 da        	bne	$1318 <fileRead+0x12e>
    133e: a5 67        	lda	$67                     ; 0x2067 <_ZN12_GLOBAL__N_15printEPKcP6Status+0x7c5>
    1340: a4 68        	ldy	$68                     ; 0x2068 <_ZN12_GLOBAL__N_15printEPKcP6Status+0x7c6>
    1342: 85 18        	sta	$18                     ; 0x2018 <_ZN12_GLOBAL__N_15printEPKcP6Status+0x776>
    1344: 84 19        	sty	$19                     ; 0x2019 <_ZN12_GLOBAL__N_15printEPKcP6Status+0x777>
    1346: 18           	clc
    1347: 69 0b        	adc	#$b
    1349: 85 1a        	sta	$1a                     ; 0x201a <_ZN12_GLOBAL__N_15printEPKcP6Status+0x778>
    134b: 98           	tya
    134c: 69 00        	adc	#$0
    134e: 85 1b        	sta	$1b                     ; 0x201b <_ZN12_GLOBAL__N_15printEPKcP6Status+0x779>
    1350: a0 0b        	ldy	#$b
    1352: a5 1e        	lda	$1e                     ; 0x201e <_ZN12_GLOBAL__N_15printEPKcP6Status+0x77c>
    1354: 91 18        	sta	($18),y                 ; 0x2018 <_ZN12_GLOBAL__N_15printEPKcP6Status+0x776>
    1356: a0 01        	ldy	#$1
    1358: a5 1f        	lda	$1f                     ; 0x201f <_ZN12_GLOBAL__N_15printEPKcP6Status+0x77d>
    135a: 91 1a        	sta	($1a),y                 ; 0x201a <_ZN12_GLOBAL__N_15printEPKcP6Status+0x778>
    135c: a5 d0        	lda	$d0                     ; 0x20d0 <_ZN12_GLOBAL__N_15printEPKcP6Status+0x82e>
    135e: a0 0d        	ldy	#$d
    1360: 91 18        	sta	($18),y                 ; 0x2018 <_ZN12_GLOBAL__N_15printEPKcP6Status+0x776>
    1362: a0 e1        	ldy	#$e1
    1364: 84 18        	sty	$18                     ; 0x2018 <_ZN12_GLOBAL__N_15printEPKcP6Status+0x776>
    1366: a0 00        	ldy	#$0
    1368: 84 19        	sty	$19                     ; 0x2019 <_ZN12_GLOBAL__N_15printEPKcP6Status+0x777>
    136a: 20 04 ff     	jsr	$ff04 <__heap_start+0xd272>
    136d: 92 18        	sta	($18)                   ; 0x2018 <_ZN12_GLOBAL__N_15printEPKcP6Status+0x776>
    136f: a9 00        	lda	#$0
    1371: 6a           	ror
    1372: 85 16        	sta	$16                     ; 0x2016 <_ZN12_GLOBAL__N_15printEPKcP6Status+0x774>
    1374: a4 d0        	ldy	$d0                     ; 0x20d0 <_ZN12_GLOBAL__N_15printEPKcP6Status+0x82e>
    1376: f0 03        	beq	$137b <fileRead+0x191>
    1378: 4c d3 12     	jmp	$12d3 <fileRead+0xe9>
    137b: a0 00        	ldy	#$0
    137d: 84 e2        	sty	$e2                     ; 0x20e2 <_ZN12_GLOBAL__N_15printEPKcP6Status+0x840>
    137f: a9 01        	lda	#$1
    1381: 4c d7 12     	jmp	$12d7 <fileRead+0xed>
    1384: 85 15        	sta	$15                     ; 0x2015 <_ZN12_GLOBAL__N_15printEPKcP6Status+0x773>
    1386: a6 d7        	ldx	$d7                     ; 0x20d7 <_ZN12_GLOBAL__N_15printEPKcP6Status+0x835>
    1388: 86 12        	stx	$12                     ; 0x2012 <_ZN12_GLOBAL__N_15printEPKcP6Status+0x770>
    138a: a6 d8        	ldx	$d8                     ; 0x20d8 <_ZN12_GLOBAL__N_15printEPKcP6Status+0x836>
    138c: 86 13        	stx	$13                     ; 0x2013 <_ZN12_GLOBAL__N_15printEPKcP6Status+0x771>
    138e: a6 15        	ldx	$15                     ; 0x2015 <_ZN12_GLOBAL__N_15printEPKcP6Status+0x773>
    1390: a5 14        	lda	$14                     ; 0x2014 <_ZN12_GLOBAL__N_15printEPKcP6Status+0x772>
    1392: 4c 33 2b     	jmp	$2b33 <__udivhi3>
    1395: 64 15        	stz	$15                     ; 0x2015 <_ZN12_GLOBAL__N_15printEPKcP6Status+0x773>
    1397: 80 ed        	bra	$1386 <fileRead+0x19c>
    1399: a0 00        	ldy	#$0
    139b: 4c d3 12     	jmp	$12d3 <fileRead+0xe9>
    139e: a9 ff        	lda	#$ff
    13a0: aa           	tax
    13a1: 60           	rts
    13a2: c0 00        	cpy	#$0
    13a4: f0 e0        	beq	$1386 <fileRead+0x19c>
    13a6: 4c e6 12     	jmp	$12e6 <fileRead+0xfc>

000013a9 <textPrint>:
    13a9: a6 12        	ldx	$12                     ; 0x2012 <_ZN12_GLOBAL__N_15printEPKcP6Status+0x770>
    13ab: 86 d7        	stx	$d7                     ; 0x20d7 <_ZN12_GLOBAL__N_15printEPKcP6Status+0x835>
    13ad: a6 13        	ldx	$13                     ; 0x2013 <_ZN12_GLOBAL__N_15printEPKcP6Status+0x771>
    13af: 86 d8        	stx	$d8                     ; 0x20d8 <_ZN12_GLOBAL__N_15printEPKcP6Status+0x836>
    13b1: a2 00        	ldx	#$0
    13b3: 86 d9        	stx	$d9                     ; 0x20d9 <_ZN12_GLOBAL__N_15printEPKcP6Status+0x837>
    13b5: a2 c0        	ldx	#$c0
    13b7: 86 da        	stx	$da                     ; 0x20da <_ZN12_GLOBAL__N_15printEPKcP6Status+0x838>
    13b9: a6 01        	ldx	$1                      ; 0x2001 <_ZN12_GLOBAL__N_15printEPKcP6Status+0x75f>
    13bb: 86 de        	stx	$de                     ; 0x20de <_ZN12_GLOBAL__N_15printEPKcP6Status+0x83c>
    13bd: a6 60        	ldx	$60                     ; 0x2060 <_ZN12_GLOBAL__N_15printEPKcP6Status+0x7be>
    13bf: a4 6a        	ldy	$6a                     ; 0x206a <_ZN12_GLOBAL__N_15printEPKcP6Status+0x7c8>
    13c1: 8e 00 de     	stx	$de00                   ; 0xde00 <__heap_start+0xb16e>
    13c4: 9c 01 de     	stz	$de01                   ; 0xde01 <__heap_start+0xb16f>
    13c7: 8c 02 de     	sty	$de02                   ; 0xde02 <__heap_start+0xb170>
    13ca: 9c 03 de     	stz	$de03                   ; 0xde03 <__heap_start+0xb171>
    13cd: ae 10 de     	ldx	$de10                   ; 0xde10 <__heap_start+0xb17e>
    13d0: 86 12        	stx	$12                     ; 0x2012 <_ZN12_GLOBAL__N_15printEPKcP6Status+0x770>
    13d2: ac 11 de     	ldy	$de11                   ; 0xde11 <__heap_start+0xb17f>
    13d5: ad 12 de     	lda	$de12                   ; 0xde12 <__heap_start+0xb180>
    13d8: ae 13 de     	ldx	$de13                   ; 0xde13 <__heap_start+0xb181>
    13db: 86 13        	stx	$13                     ; 0x2013 <_ZN12_GLOBAL__N_15printEPKcP6Status+0x771>
    13dd: 9c 08 de     	stz	$de08                   ; 0xde08 <__heap_start+0xb176>
    13e0: a2 c0        	ldx	#$c0
    13e2: 8e 09 de     	stx	$de09                   ; 0xde09 <__heap_start+0xb177>
    13e5: 9c 0a de     	stz	$de0a                   ; 0xde0a <__heap_start+0xb178>
    13e8: 9c 0b de     	stz	$de0b                   ; 0xde0b <__heap_start+0xb179>
    13eb: a6 12        	ldx	$12                     ; 0x2012 <_ZN12_GLOBAL__N_15printEPKcP6Status+0x770>
    13ed: 8e 0c de     	stx	$de0c                   ; 0xde0c <__heap_start+0xb17a>
    13f0: 8c 0d de     	sty	$de0d                   ; 0xde0d <__heap_start+0xb17b>
    13f3: 8d 0e de     	sta	$de0e                   ; 0xde0e <__heap_start+0xb17c>
    13f6: a6 13        	ldx	$13                     ; 0x2013 <_ZN12_GLOBAL__N_15printEPKcP6Status+0x771>
    13f8: 8e 0f de     	stx	$de0f                   ; 0xde0f <__heap_start+0xb17d>
    13fb: ae 18 de     	ldx	$de18                   ; 0xde18 <__heap_start+0xb186>
    13fe: ac 19 de     	ldy	$de19                   ; 0xde19 <__heap_start+0xb187>
    1401: ad 1a de     	lda	$de1a                   ; 0xde1a <__heap_start+0xb188>
    1404: ad 1b de     	lda	$de1b                   ; 0xde1b <__heap_start+0xb189>
    1407: 86 12        	stx	$12                     ; 0x2012 <_ZN12_GLOBAL__N_15printEPKcP6Status+0x770>
    1409: 84 13        	sty	$13                     ; 0x2013 <_ZN12_GLOBAL__N_15printEPKcP6Status+0x771>
    140b: 64 db        	stz	$db                     ; 0x20db <_ZN12_GLOBAL__N_15printEPKcP6Status+0x839>
    140d: 64 dc        	stz	$dc                     ; 0x20dc <_ZN12_GLOBAL__N_15printEPKcP6Status+0x83a>
    140f: 80 00        	bra	$1411 <textPrint+0x68>
    1411: a5 d7        	lda	$d7                     ; 0x20d7 <_ZN12_GLOBAL__N_15printEPKcP6Status+0x835>
    1413: 18           	clc
    1414: 65 db        	adc	$db                     ; 0x20db <_ZN12_GLOBAL__N_15printEPKcP6Status+0x839>
    1416: 85 14        	sta	$14                     ; 0x2014 <_ZN12_GLOBAL__N_15printEPKcP6Status+0x772>
    1418: a5 d8        	lda	$d8                     ; 0x20d8 <_ZN12_GLOBAL__N_15printEPKcP6Status+0x836>
    141a: 65 dc        	adc	$dc                     ; 0x20dc <_ZN12_GLOBAL__N_15printEPKcP6Status+0x83a>
    141c: 85 15        	sta	$15                     ; 0x2015 <_ZN12_GLOBAL__N_15printEPKcP6Status+0x773>
    141e: b2 14        	lda	($14)                   ; 0x2014 <_ZN12_GLOBAL__N_15printEPKcP6Status+0x772>
    1420: c9 0a        	cmp	#$a
    1422: f0 29        	beq	$144d <textPrint+0xa4>
    1424: c9 0d        	cmp	#$d
    1426: f0 25        	beq	$144d <textPrint+0xa4>
    1428: aa           	tax
    1429: d0 03        	bne	$142e <textPrint+0x85>
    142b: 4c ec 15     	jmp	$15ec <textPrint+0x243>
    142e: a2 03        	ldx	#$3
    1430: 86 01        	stx	$1                      ; 0x2001 <_ZN12_GLOBAL__N_15printEPKcP6Status+0x75f>
    1432: a5 62        	lda	$62                     ; 0x2062 <_ZN12_GLOBAL__N_15printEPKcP6Status+0x7c0>
    1434: a4 69        	ldy	$69                     ; 0x2069 <_ZN12_GLOBAL__N_15printEPKcP6Status+0x7c7>
    1436: 91 12        	sta	($12),y                 ; 0x2012 <_ZN12_GLOBAL__N_15printEPKcP6Status+0x770>
    1438: ca           	dex
    1439: 86 01        	stx	$1                      ; 0x2001 <_ZN12_GLOBAL__N_15printEPKcP6Status+0x75f>
    143b: b2 14        	lda	($14)                   ; 0x2014 <_ZN12_GLOBAL__N_15printEPKcP6Status+0x772>
    143d: a4 69        	ldy	$69                     ; 0x2069 <_ZN12_GLOBAL__N_15printEPKcP6Status+0x7c7>
    143f: 91 12        	sta	($12),y                 ; 0x2012 <_ZN12_GLOBAL__N_15printEPKcP6Status+0x770>
    1441: a6 69        	ldx	$69                     ; 0x2069 <_ZN12_GLOBAL__N_15printEPKcP6Status+0x7c7>
    1443: e8           	inx
    1444: e6 69        	inc	$69                     ; 0x2069 <_ZN12_GLOBAL__N_15printEPKcP6Status+0x7c7>
    1446: e4 60        	cpx	$60                     ; 0x2060 <_ZN12_GLOBAL__N_15printEPKcP6Status+0x7be>
    1448: f0 03        	beq	$144d <textPrint+0xa4>
    144a: 4c 1e 15     	jmp	$151e <textPrint+0x175>
    144d: 64 69        	stz	$69                     ; 0x2069 <_ZN12_GLOBAL__N_15printEPKcP6Status+0x7c7>
    144f: a6 6a        	ldx	$6a                     ; 0x206a <_ZN12_GLOBAL__N_15printEPKcP6Status+0x7c8>
    1451: e8           	inx
    1452: e6 6a        	inc	$6a                     ; 0x206a <_ZN12_GLOBAL__N_15printEPKcP6Status+0x7c8>
    1454: a4 61        	ldy	$61                     ; 0x2061 <_ZN12_GLOBAL__N_15printEPKcP6Status+0x7bf>
    1456: 84 dd        	sty	$dd                     ; 0x20dd <_ZN12_GLOBAL__N_15printEPKcP6Status+0x83b>
    1458: e4 dd        	cpx	$dd                     ; 0x20dd <_ZN12_GLOBAL__N_15printEPKcP6Status+0x83b>
    145a: f0 03        	beq	$145f <textPrint+0xb6>
    145c: 4c 11 15     	jmp	$1511 <textPrint+0x168>
    145f: a6 60        	ldx	$60                     ; 0x2060 <_ZN12_GLOBAL__N_15printEPKcP6Status+0x7be>
    1461: 86 e1        	stx	$e1                     ; 0x20e1 <_ZN12_GLOBAL__N_15printEPKcP6Status+0x83f>
    1463: 98           	tya
    1464: a2 00        	ldx	#$0
    1466: 3a           	dec
    1467: c9 ff        	cmp	#$ff
    1469: d0 01        	bne	$146c <textPrint+0xc3>
    146b: ca           	dex
    146c: a4 e1        	ldy	$e1                     ; 0x20e1 <_ZN12_GLOBAL__N_15printEPKcP6Status+0x83f>
    146e: 84 12        	sty	$12                     ; 0x2012 <_ZN12_GLOBAL__N_15printEPKcP6Status+0x770>
    1470: 64 13        	stz	$13                     ; 0x2013 <_ZN12_GLOBAL__N_15printEPKcP6Status+0x771>
    1472: 20 01 2b     	jsr	$2b01 <__mulhi3>
    1475: 85 df        	sta	$df                     ; 0x20df <_ZN12_GLOBAL__N_15printEPKcP6Status+0x83d>
    1477: 86 e0        	stx	$e0                     ; 0x20e0 <_ZN12_GLOBAL__N_15printEPKcP6Status+0x83e>
    1479: a2 03        	ldx	#$3
    147b: 86 01        	stx	$1                      ; 0x2001 <_ZN12_GLOBAL__N_15printEPKcP6Status+0x75f>
    147d: 38           	sec
    147e: a9 01        	lda	#$1
    1480: e5 dd        	sbc	$dd                     ; 0x20dd <_ZN12_GLOBAL__N_15printEPKcP6Status+0x83b>
    1482: a8           	tay
    1483: 64 dd        	stz	$dd                     ; 0x20dd <_ZN12_GLOBAL__N_15printEPKcP6Status+0x83b>
    1485: a9 00        	lda	#$0
    1487: e9 00        	sbc	#$0
    1489: a6 e1        	ldx	$e1                     ; 0x20e1 <_ZN12_GLOBAL__N_15printEPKcP6Status+0x83f>
    148b: 86 12        	stx	$12                     ; 0x2012 <_ZN12_GLOBAL__N_15printEPKcP6Status+0x770>
    148d: 64 13        	stz	$13                     ; 0x2013 <_ZN12_GLOBAL__N_15printEPKcP6Status+0x771>
    148f: aa           	tax
    1490: 98           	tya
    1491: 20 01 2b     	jsr	$2b01 <__mulhi3>
    1494: 85 1a        	sta	$1a                     ; 0x201a <_ZN12_GLOBAL__N_15printEPKcP6Status+0x778>
    1496: a9 00        	lda	#$0
    1498: 80 1d        	bra	$14b7 <textPrint+0x10e>
    149a: 64 14        	stz	$14                     ; 0x2014 <_ZN12_GLOBAL__N_15printEPKcP6Status+0x772>
    149c: 64 15        	stz	$15                     ; 0x2015 <_ZN12_GLOBAL__N_15printEPKcP6Status+0x773>
    149e: a0 02        	ldy	#$2
    14a0: 84 01        	sty	$1                      ; 0x2001 <_ZN12_GLOBAL__N_15printEPKcP6Status+0x75f>
    14a2: a5 12        	lda	$12                     ; 0x2012 <_ZN12_GLOBAL__N_15printEPKcP6Status+0x770>
    14a4: e6 dd        	inc	$dd                     ; 0x20dd <_ZN12_GLOBAL__N_15printEPKcP6Status+0x83b>
    14a6: d0 01        	bne	$14a9 <textPrint+0x100>
    14a8: 1a           	inc
    14a9: a4 12        	ldy	$12                     ; 0x2012 <_ZN12_GLOBAL__N_15printEPKcP6Status+0x770>
    14ab: f0 03        	beq	$14b0 <textPrint+0x107>
    14ad: 4c 2a 15     	jmp	$152a <textPrint+0x181>
    14b0: a4 13        	ldy	$13                     ; 0x2013 <_ZN12_GLOBAL__N_15printEPKcP6Status+0x771>
    14b2: f0 03        	beq	$14b7 <textPrint+0x10e>
    14b4: 4c 2a 15     	jmp	$152a <textPrint+0x181>
    14b7: 85 12        	sta	$12                     ; 0x2012 <_ZN12_GLOBAL__N_15printEPKcP6Status+0x770>
    14b9: a4 dd        	ldy	$dd                     ; 0x20dd <_ZN12_GLOBAL__N_15printEPKcP6Status+0x83b>
    14bb: 84 13        	sty	$13                     ; 0x2013 <_ZN12_GLOBAL__N_15printEPKcP6Status+0x771>
    14bd: a4 df        	ldy	$df                     ; 0x20df <_ZN12_GLOBAL__N_15printEPKcP6Status+0x83d>
    14bf: c0 01        	cpy	#$1
    14c1: a5 e0        	lda	$e0                     ; 0x20e0 <_ZN12_GLOBAL__N_15printEPKcP6Status+0x83e>
    14c3: e9 00        	sbc	#$0
    14c5: 50 02        	bvc	$14c9 <textPrint+0x120>
    14c7: 49 80        	eor	#$80
    14c9: a8           	tay
    14ca: 30 ce        	bmi	$149a <textPrint+0xf1>
    14cc: 64 15        	stz	$15                     ; 0x2015 <_ZN12_GLOBAL__N_15printEPKcP6Status+0x773>
    14ce: a0 00        	ldy	#$0
    14d0: 84 18        	sty	$18                     ; 0x2018 <_ZN12_GLOBAL__N_15printEPKcP6Status+0x776>
    14d2: a0 c0        	ldy	#$c0
    14d4: 84 19        	sty	$19                     ; 0x2019 <_ZN12_GLOBAL__N_15printEPKcP6Status+0x777>
    14d6: 64 17        	stz	$17                     ; 0x2017 <_ZN12_GLOBAL__N_15printEPKcP6Status+0x775>
    14d8: a4 17        	ldy	$17                     ; 0x2017 <_ZN12_GLOBAL__N_15printEPKcP6Status+0x775>
    14da: 84 14        	sty	$14                     ; 0x2014 <_ZN12_GLOBAL__N_15printEPKcP6Status+0x772>
    14dc: a4 15        	ldy	$15                     ; 0x2015 <_ZN12_GLOBAL__N_15printEPKcP6Status+0x773>
    14de: 84 16        	sty	$16                     ; 0x2016 <_ZN12_GLOBAL__N_15printEPKcP6Status+0x774>
    14e0: a4 60        	ldy	$60                     ; 0x2060 <_ZN12_GLOBAL__N_15printEPKcP6Status+0x7be>
    14e2: b1 18        	lda	($18),y                 ; 0x2018 <_ZN12_GLOBAL__N_15printEPKcP6Status+0x776>
    14e4: 92 18        	sta	($18)                   ; 0x2018 <_ZN12_GLOBAL__N_15printEPKcP6Status+0x776>
    14e6: a0 ff        	ldy	#$ff
    14e8: c6 15        	dec	$15                     ; 0x2015 <_ZN12_GLOBAL__N_15printEPKcP6Status+0x773>
    14ea: c4 15        	cpy	$15                     ; 0x2015 <_ZN12_GLOBAL__N_15printEPKcP6Status+0x773>
    14ec: d0 02        	bne	$14f0 <textPrint+0x147>
    14ee: c6 17        	dec	$17                     ; 0x2017 <_ZN12_GLOBAL__N_15printEPKcP6Status+0x775>
    14f0: e6 18        	inc	$18                     ; 0x2018 <_ZN12_GLOBAL__N_15printEPKcP6Status+0x776>
    14f2: d0 02        	bne	$14f6 <textPrint+0x14d>
    14f4: e6 19        	inc	$19                     ; 0x2019 <_ZN12_GLOBAL__N_15printEPKcP6Status+0x777>
    14f6: e4 17        	cpx	$17                     ; 0x2017 <_ZN12_GLOBAL__N_15printEPKcP6Status+0x775>
    14f8: d0 de        	bne	$14d8 <textPrint+0x12f>
    14fa: a4 1a        	ldy	$1a                     ; 0x201a <_ZN12_GLOBAL__N_15printEPKcP6Status+0x778>
    14fc: c4 15        	cpy	$15                     ; 0x2015 <_ZN12_GLOBAL__N_15printEPKcP6Status+0x773>
    14fe: d0 d8        	bne	$14d8 <textPrint+0x12f>
    1500: 38           	sec
    1501: a9 01        	lda	#$1
    1503: e5 16        	sbc	$16                     ; 0x2016 <_ZN12_GLOBAL__N_15printEPKcP6Status+0x774>
    1505: a8           	tay
    1506: a9 00        	lda	#$0
    1508: e5 14        	sbc	$14                     ; 0x2014 <_ZN12_GLOBAL__N_15printEPKcP6Status+0x772>
    150a: 84 14        	sty	$14                     ; 0x2014 <_ZN12_GLOBAL__N_15printEPKcP6Status+0x772>
    150c: 85 15        	sta	$15                     ; 0x2015 <_ZN12_GLOBAL__N_15printEPKcP6Status+0x773>
    150e: 4c 9e 14     	jmp	$149e <textPrint+0xf5>
    1511: a5 12        	lda	$12                     ; 0x2012 <_ZN12_GLOBAL__N_15printEPKcP6Status+0x770>
    1513: 18           	clc
    1514: 65 60        	adc	$60                     ; 0x2060 <_ZN12_GLOBAL__N_15printEPKcP6Status+0x7be>
    1516: 85 12        	sta	$12                     ; 0x2012 <_ZN12_GLOBAL__N_15printEPKcP6Status+0x770>
    1518: a5 13        	lda	$13                     ; 0x2013 <_ZN12_GLOBAL__N_15printEPKcP6Status+0x771>
    151a: 69 00        	adc	#$0
    151c: 85 13        	sta	$13                     ; 0x2013 <_ZN12_GLOBAL__N_15printEPKcP6Status+0x771>
    151e: e6 db        	inc	$db                     ; 0x20db <_ZN12_GLOBAL__N_15printEPKcP6Status+0x839>
    1520: f0 03        	beq	$1525 <textPrint+0x17c>
    1522: 4c 11 14     	jmp	$1411 <textPrint+0x68>
    1525: e6 dc        	inc	$dc                     ; 0x20dc <_ZN12_GLOBAL__N_15printEPKcP6Status+0x83a>
    1527: 4c 11 14     	jmp	$1411 <textPrint+0x68>
    152a: a9 00        	lda	#$0
    152c: 18           	clc
    152d: 65 14        	adc	$14                     ; 0x2014 <_ZN12_GLOBAL__N_15printEPKcP6Status+0x772>
    152f: 85 12        	sta	$12                     ; 0x2012 <_ZN12_GLOBAL__N_15printEPKcP6Status+0x770>
    1531: a9 c0        	lda	#$c0
    1533: 65 15        	adc	$15                     ; 0x2015 <_ZN12_GLOBAL__N_15printEPKcP6Status+0x773>
    1535: 85 13        	sta	$13                     ; 0x2013 <_ZN12_GLOBAL__N_15printEPKcP6Status+0x771>
    1537: a2 03        	ldx	#$3
    1539: 86 01        	stx	$1                      ; 0x2001 <_ZN12_GLOBAL__N_15printEPKcP6Status+0x75f>
    153b: a6 60        	ldx	$60                     ; 0x2060 <_ZN12_GLOBAL__N_15printEPKcP6Status+0x7be>
    153d: f0 37        	beq	$1576 <textPrint+0x1cd>
    153f: a9 01        	lda	#$1
    1541: 18           	clc
    1542: 65 14        	adc	$14                     ; 0x2014 <_ZN12_GLOBAL__N_15printEPKcP6Status+0x772>
    1544: 85 17        	sta	$17                     ; 0x2017 <_ZN12_GLOBAL__N_15printEPKcP6Status+0x775>
    1546: a9 c0        	lda	#$c0
    1548: 65 15        	adc	$15                     ; 0x2015 <_ZN12_GLOBAL__N_15printEPKcP6Status+0x773>
    154a: a8           	tay
    154b: 64 16        	stz	$16                     ; 0x2016 <_ZN12_GLOBAL__N_15printEPKcP6Status+0x774>
    154d: a6 12        	ldx	$12                     ; 0x2012 <_ZN12_GLOBAL__N_15printEPKcP6Status+0x770>
    154f: 86 18        	stx	$18                     ; 0x2018 <_ZN12_GLOBAL__N_15printEPKcP6Status+0x776>
    1551: a6 13        	ldx	$13                     ; 0x2013 <_ZN12_GLOBAL__N_15printEPKcP6Status+0x771>
    1553: 86 19        	stx	$19                     ; 0x2019 <_ZN12_GLOBAL__N_15printEPKcP6Status+0x777>
    1555: a5 17        	lda	$17                     ; 0x2017 <_ZN12_GLOBAL__N_15printEPKcP6Status+0x775>
    1557: 18           	clc
    1558: 65 16        	adc	$16                     ; 0x2016 <_ZN12_GLOBAL__N_15printEPKcP6Status+0x774>
    155a: 85 1a        	sta	$1a                     ; 0x201a <_ZN12_GLOBAL__N_15printEPKcP6Status+0x778>
    155c: 98           	tya
    155d: 69 00        	adc	#$0
    155f: 85 1b        	sta	$1b                     ; 0x201b <_ZN12_GLOBAL__N_15printEPKcP6Status+0x779>
    1561: a5 62        	lda	$62                     ; 0x2062 <_ZN12_GLOBAL__N_15printEPKcP6Status+0x7c0>
    1563: 92 18        	sta	($18)                   ; 0x2018 <_ZN12_GLOBAL__N_15printEPKcP6Status+0x776>
    1565: a6 16        	ldx	$16                     ; 0x2016 <_ZN12_GLOBAL__N_15printEPKcP6Status+0x774>
    1567: e8           	inx
    1568: 86 16        	stx	$16                     ; 0x2016 <_ZN12_GLOBAL__N_15printEPKcP6Status+0x774>
    156a: e4 60        	cpx	$60                     ; 0x2060 <_ZN12_GLOBAL__N_15printEPKcP6Status+0x7be>
    156c: a6 1a        	ldx	$1a                     ; 0x201a <_ZN12_GLOBAL__N_15printEPKcP6Status+0x778>
    156e: 86 18        	stx	$18                     ; 0x2018 <_ZN12_GLOBAL__N_15printEPKcP6Status+0x776>
    1570: a6 1b        	ldx	$1b                     ; 0x201b <_ZN12_GLOBAL__N_15printEPKcP6Status+0x779>
    1572: 86 19        	stx	$19                     ; 0x2019 <_ZN12_GLOBAL__N_15printEPKcP6Status+0x777>
    1574: 90 df        	bcc	$1555 <textPrint+0x1ac>
    1576: a2 02        	ldx	#$2
    1578: 86 01        	stx	$1                      ; 0x2001 <_ZN12_GLOBAL__N_15printEPKcP6Status+0x75f>
    157a: a6 60        	ldx	$60                     ; 0x2060 <_ZN12_GLOBAL__N_15printEPKcP6Status+0x7be>
    157c: f0 2f        	beq	$15ad <textPrint+0x204>
    157e: a9 01        	lda	#$1
    1580: 18           	clc
    1581: 65 14        	adc	$14                     ; 0x2014 <_ZN12_GLOBAL__N_15printEPKcP6Status+0x772>
    1583: 85 18        	sta	$18                     ; 0x2018 <_ZN12_GLOBAL__N_15printEPKcP6Status+0x776>
    1585: a9 c0        	lda	#$c0
    1587: 65 15        	adc	$15                     ; 0x2015 <_ZN12_GLOBAL__N_15printEPKcP6Status+0x773>
    1589: a8           	tay
    158a: 64 14        	stz	$14                     ; 0x2014 <_ZN12_GLOBAL__N_15printEPKcP6Status+0x772>
    158c: a5 18        	lda	$18                     ; 0x2018 <_ZN12_GLOBAL__N_15printEPKcP6Status+0x776>
    158e: 18           	clc
    158f: 65 14        	adc	$14                     ; 0x2014 <_ZN12_GLOBAL__N_15printEPKcP6Status+0x772>
    1591: 85 16        	sta	$16                     ; 0x2016 <_ZN12_GLOBAL__N_15printEPKcP6Status+0x774>
    1593: 98           	tya
    1594: 69 00        	adc	#$0
    1596: 85 17        	sta	$17                     ; 0x2017 <_ZN12_GLOBAL__N_15printEPKcP6Status+0x775>
    1598: a9 20        	lda	#$20
    159a: 92 12        	sta	($12)                   ; 0x2012 <_ZN12_GLOBAL__N_15printEPKcP6Status+0x770>
    159c: a6 14        	ldx	$14                     ; 0x2014 <_ZN12_GLOBAL__N_15printEPKcP6Status+0x772>
    159e: e8           	inx
    159f: 86 14        	stx	$14                     ; 0x2014 <_ZN12_GLOBAL__N_15printEPKcP6Status+0x772>
    15a1: e4 60        	cpx	$60                     ; 0x2060 <_ZN12_GLOBAL__N_15printEPKcP6Status+0x7be>
    15a3: a6 16        	ldx	$16                     ; 0x2016 <_ZN12_GLOBAL__N_15printEPKcP6Status+0x774>
    15a5: 86 12        	stx	$12                     ; 0x2012 <_ZN12_GLOBAL__N_15printEPKcP6Status+0x770>
    15a7: a6 17        	ldx	$17                     ; 0x2017 <_ZN12_GLOBAL__N_15printEPKcP6Status+0x775>
    15a9: 86 13        	stx	$13                     ; 0x2013 <_ZN12_GLOBAL__N_15printEPKcP6Status+0x771>
    15ab: 90 df        	bcc	$158c <textPrint+0x1e3>
    15ad: c6 6a        	dec	$6a                     ; 0x206a <_ZN12_GLOBAL__N_15printEPKcP6Status+0x7c8>
    15af: a6 61        	ldx	$61                     ; 0x2061 <_ZN12_GLOBAL__N_15printEPKcP6Status+0x7bf>
    15b1: a0 00        	ldy	#$0
    15b3: ca           	dex
    15b4: e0 ff        	cpx	#$ff
    15b6: d0 01        	bne	$15b9 <textPrint+0x210>
    15b8: 88           	dey
    15b9: 9c 08 de     	stz	$de08                   ; 0xde08 <__heap_start+0xb176>
    15bc: a9 c0        	lda	#$c0
    15be: 8d 09 de     	sta	$de09                   ; 0xde09 <__heap_start+0xb177>
    15c1: 9c 0a de     	stz	$de0a                   ; 0xde0a <__heap_start+0xb178>
    15c4: 9c 0b de     	stz	$de0b                   ; 0xde0b <__heap_start+0xb179>
    15c7: 8e 0c de     	stx	$de0c                   ; 0xde0c <__heap_start+0xb17a>
    15ca: 8c 0d de     	sty	$de0d                   ; 0xde0d <__heap_start+0xb17b>
    15cd: 9c 0e de     	stz	$de0e                   ; 0xde0e <__heap_start+0xb17c>
    15d0: 9c 0f de     	stz	$de0f                   ; 0xde0f <__heap_start+0xb17d>
    15d3: ae 18 de     	ldx	$de18                   ; 0xde18 <__heap_start+0xb186>
    15d6: ac 19 de     	ldy	$de19                   ; 0xde19 <__heap_start+0xb187>
    15d9: ad 1a de     	lda	$de1a                   ; 0xde1a <__heap_start+0xb188>
    15dc: ad 1b de     	lda	$de1b                   ; 0xde1b <__heap_start+0xb189>
    15df: 86 12        	stx	$12                     ; 0x2012 <_ZN12_GLOBAL__N_15printEPKcP6Status+0x770>
    15e1: 84 13        	sty	$13                     ; 0x2013 <_ZN12_GLOBAL__N_15printEPKcP6Status+0x771>
    15e3: e6 db        	inc	$db                     ; 0x20db <_ZN12_GLOBAL__N_15printEPKcP6Status+0x839>
    15e5: d0 02        	bne	$15e9 <textPrint+0x240>
    15e7: e6 dc        	inc	$dc                     ; 0x20dc <_ZN12_GLOBAL__N_15printEPKcP6Status+0x83a>
    15e9: 4c 11 14     	jmp	$1411 <textPrint+0x68>
    15ec: a6 de        	ldx	$de                     ; 0x20de <_ZN12_GLOBAL__N_15printEPKcP6Status+0x83c>
    15ee: 86 01        	stx	$1                      ; 0x2001 <_ZN12_GLOBAL__N_15printEPKcP6Status+0x75f>
    15f0: a6 69        	ldx	$69                     ; 0x2069 <_ZN12_GLOBAL__N_15printEPKcP6Status+0x7c7>
    15f2: a4 6a        	ldy	$6a                     ; 0x206a <_ZN12_GLOBAL__N_15printEPKcP6Status+0x7c8>
    15f4: 8e 14 d0     	stx	$d014                   ; 0xd014 <__heap_start+0xa382>
    15f7: 9c 15 d0     	stz	$d015                   ; 0xd015 <__heap_start+0xa383>
    15fa: 84 6a        	sty	$6a                     ; 0x206a <_ZN12_GLOBAL__N_15printEPKcP6Status+0x7c8>
    15fc: 8c 16 d0     	sty	$d016                   ; 0xd016 <__heap_start+0xa384>
    15ff: 9c 17 d0     	stz	$d017                   ; 0xd017 <__heap_start+0xa385>
    1602: 60           	rts

00001603 <__putchar>:
    1603: 8d 8f 2c     	sta	$2c8f                   ; 0x2c8f <__putchar.s>
    1606: a2 8f        	ldx	#$8f
    1608: 86 12        	stx	$12                     ; 0x2012 <_ZN12_GLOBAL__N_15printEPKcP6Status+0x770>
    160a: a2 2c        	ldx	#$2c
    160c: 86 13        	stx	$13                     ; 0x2013 <_ZN12_GLOBAL__N_15printEPKcP6Status+0x771>
    160e: 4c a9 13     	jmp	$13a9 <textPrint>

00001611 <openAllCODEC>:
    1611: a2 1f        	ldx	#$1f
    1613: 8e 20 d6     	stx	$d620                   ; 0xd620 <__heap_start+0xa98e>
    1616: a2 2a        	ldx	#$2a
    1618: 8e 21 d6     	stx	$d621                   ; 0xd621 <__heap_start+0xa98f>
    161b: a2 01        	ldx	#$1
    161d: 8e 22 d6     	stx	$d622                   ; 0xd622 <__heap_start+0xa990>
    1620: ad 22 d6     	lda	$d622                   ; 0xd622 <__heap_start+0xa990>
    1623: 29 01        	and	#$1
    1625: d0 f9        	bne	$1620 <openAllCODEC+0xf>
    1627: 60           	rts

00001628 <hitspace>:
    1628: a2 00        	ldx	#$0
    162a: a0 d7        	ldy	#$d7
    162c: a9 00        	lda	#$0
    162e: 84 12        	sty	$12                     ; 0x2012 <_ZN12_GLOBAL__N_15printEPKcP6Status+0x770>
    1630: 85 13        	sta	$13                     ; 0x2013 <_ZN12_GLOBAL__N_15printEPKcP6Status+0x771>
    1632: a0 c9        	ldy	#$c9
    1634: 84 14        	sty	$14                     ; 0x2014 <_ZN12_GLOBAL__N_15printEPKcP6Status+0x772>
    1636: a0 00        	ldy	#$0
    1638: 84 15        	sty	$15                     ; 0x2015 <_ZN12_GLOBAL__N_15printEPKcP6Status+0x773>
    163a: 64 ca        	stz	$ca                     ; 0x20ca <_ZN12_GLOBAL__N_15printEPKcP6Status+0x828>
    163c: 20 00 ff     	jsr	$ff00 <__heap_start+0xd26e>
    163f: 92 12        	sta	($12)                   ; 0x2012 <_ZN12_GLOBAL__N_15printEPKcP6Status+0x770>
    1641: a9 00        	lda	#$0
    1643: 6a           	ror
    1644: 85 14        	sta	$14                     ; 0x2014 <_ZN12_GLOBAL__N_15printEPKcP6Status+0x772>
    1646: a4 ca        	ldy	$ca                     ; 0x20ca <_ZN12_GLOBAL__N_15printEPKcP6Status+0x828>
    1648: c0 08        	cpy	#$8
    164a: d0 0c        	bne	$1658 <hitspace+0x30>
    164c: a4 ce        	ldy	$ce                     ; 0x20ce <_ZN12_GLOBAL__N_15printEPKcP6Status+0x82c>
    164e: c0 20        	cpy	#$20
    1650: f0 04        	beq	$1656 <hitspace+0x2e>
    1652: c0 94        	cpy	#$94
    1654: d0 02        	bne	$1658 <hitspace+0x30>
    1656: a2 01        	ldx	#$1
    1658: 8a           	txa
    1659: f0 df        	beq	$163a <hitspace+0x12>
    165b: 60           	rts

0000165c <boostVSClock>:
    165c: a2 03        	ldx	#$3
    165e: 8e 01 d7     	stx	$d701                   ; 0xd701 <__heap_start+0xaa6f>
    1661: 9c 02 d7     	stz	$d702                   ; 0xd702 <__heap_start+0xaa70>
    1664: 9c 02 d7     	stz	$d702                   ; 0xd702 <__heap_start+0xaa70>
    1667: a2 c0        	ldx	#$c0
    1669: 8e 03 d7     	stx	$d703                   ; 0xd703 <__heap_start+0xaa71>
    166c: a2 01        	ldx	#$1
    166e: 8e 00 d7     	stx	$d700                   ; 0xd700 <__heap_start+0xaa6e>
    1671: 9c 00 d7     	stz	$d700                   ; 0xd700 <__heap_start+0xaa6e>
    1674: ae 00 d7     	ldx	$d700                   ; 0xd700 <__heap_start+0xaa6e>
    1677: 30 fb        	bmi	$1674 <boostVSClock+0x18>
    1679: 60           	rts

0000167a <exit>:
    167a: 85 d7        	sta	$d7                     ; 0x20d7 <_ZN12_GLOBAL__N_15printEPKcP6Status+0x835>
    167c: 86 d8        	stx	$d8                     ; 0x20d8 <_ZN12_GLOBAL__N_15printEPKcP6Status+0x836>
    167e: 20 4f 03     	jsr	$34f <_fini>
    1681: a6 d8        	ldx	$d8                     ; 0x20d8 <_ZN12_GLOBAL__N_15printEPKcP6Status+0x836>
    1683: a5 d7        	lda	$d7                     ; 0x20d7 <_ZN12_GLOBAL__N_15printEPKcP6Status+0x835>
    1685: 20 88 16     	jsr	$1688 <_Exit>

00001688 <_Exit>:
    1688: 80 fe        	bra	$1688 <_Exit>

0000168a <vfprintf>:
    168a: 18           	clc
    168b: a5 10        	lda	$10                     ; 0x2010 <_ZN12_GLOBAL__N_15printEPKcP6Status+0x76e>
    168d: 69 e8        	adc	#$e8
    168f: 85 10        	sta	$10                     ; 0x2010 <_ZN12_GLOBAL__N_15printEPKcP6Status+0x76e>
    1691: a5 11        	lda	$11                     ; 0x2011 <_ZN12_GLOBAL__N_15printEPKcP6Status+0x76f>
    1693: 69 ff        	adc	#$ff
    1695: 85 11        	sta	$11                     ; 0x2011 <_ZN12_GLOBAL__N_15printEPKcP6Status+0x76f>
    1697: a6 24        	ldx	$24                     ; 0x2024 <_ZN12_GLOBAL__N_15printEPKcP6Status+0x782>
    1699: da           	phx
    169a: a6 25        	ldx	$25                     ; 0x2025 <_ZN12_GLOBAL__N_15printEPKcP6Status+0x783>
    169c: da           	phx
    169d: a6 26        	ldx	$26                     ; 0x2026 <_ZN12_GLOBAL__N_15printEPKcP6Status+0x784>
    169f: da           	phx
    16a0: a6 27        	ldx	$27                     ; 0x2027 <_ZN12_GLOBAL__N_15printEPKcP6Status+0x785>
    16a2: da           	phx
    16a3: a5 28        	lda	$28                     ; 0x2028 <_ZN12_GLOBAL__N_15printEPKcP6Status+0x786>
    16a5: a0 01        	ldy	#$1
    16a7: 91 10        	sta	($10),y                 ; 0x2010 <_ZN12_GLOBAL__N_15printEPKcP6Status+0x76e>
    16a9: a5 29        	lda	$29                     ; 0x2029 <_ZN12_GLOBAL__N_15printEPKcP6Status+0x787>
    16ab: 88           	dey
    16ac: 91 10        	sta	($10),y                 ; 0x2010 <_ZN12_GLOBAL__N_15printEPKcP6Status+0x76e>
    16ae: a6 12        	ldx	$12                     ; 0x2012 <_ZN12_GLOBAL__N_15printEPKcP6Status+0x770>
    16b0: 86 24        	stx	$24                     ; 0x2024 <_ZN12_GLOBAL__N_15printEPKcP6Status+0x782>
    16b2: a6 13        	ldx	$13                     ; 0x2013 <_ZN12_GLOBAL__N_15printEPKcP6Status+0x771>
    16b4: 86 25        	stx	$25                     ; 0x2025 <_ZN12_GLOBAL__N_15printEPKcP6Status+0x783>
    16b6: a5 16        	lda	$16                     ; 0x2016 <_ZN12_GLOBAL__N_15printEPKcP6Status+0x774>
    16b8: 18           	clc
    16b9: 48           	pha
    16ba: a5 10        	lda	$10                     ; 0x2010 <_ZN12_GLOBAL__N_15printEPKcP6Status+0x76e>
    16bc: 69 16        	adc	#$16
    16be: 85 12        	sta	$12                     ; 0x2012 <_ZN12_GLOBAL__N_15printEPKcP6Status+0x770>
    16c0: a5 11        	lda	$11                     ; 0x2011 <_ZN12_GLOBAL__N_15printEPKcP6Status+0x76f>
    16c2: 69 00        	adc	#$0
    16c4: 85 13        	sta	$13                     ; 0x2013 <_ZN12_GLOBAL__N_15printEPKcP6Status+0x771>
    16c6: 68           	pla
    16c7: 92 12        	sta	($12)                   ; 0x2012 <_ZN12_GLOBAL__N_15printEPKcP6Status+0x770>
    16c9: c8           	iny
    16ca: a5 17        	lda	$17                     ; 0x2017 <_ZN12_GLOBAL__N_15printEPKcP6Status+0x775>
    16cc: 91 12        	sta	($12),y                 ; 0x2012 <_ZN12_GLOBAL__N_15printEPKcP6Status+0x770>
    16ce: 18           	clc
    16cf: a5 10        	lda	$10                     ; 0x2010 <_ZN12_GLOBAL__N_15printEPKcP6Status+0x76e>
    16d1: 69 03        	adc	#$3
    16d3: 48           	pha
    16d4: a5 11        	lda	$11                     ; 0x2011 <_ZN12_GLOBAL__N_15printEPKcP6Status+0x76f>
    16d6: 69 00        	adc	#$0
    16d8: a8           	tay
    16d9: 68           	pla
    16da: 85 16        	sta	$16                     ; 0x2016 <_ZN12_GLOBAL__N_15printEPKcP6Status+0x774>
    16dc: 84 17        	sty	$17                     ; 0x2017 <_ZN12_GLOBAL__N_15printEPKcP6Status+0x775>
    16de: 85 28        	sta	$28                     ; 0x2028 <_ZN12_GLOBAL__N_15printEPKcP6Status+0x786>
    16e0: 18           	clc
    16e1: 69 03        	adc	#$3
    16e3: 85 18        	sta	$18                     ; 0x2018 <_ZN12_GLOBAL__N_15printEPKcP6Status+0x776>
    16e5: 84 29        	sty	$29                     ; 0x2029 <_ZN12_GLOBAL__N_15printEPKcP6Status+0x787>
    16e7: 98           	tya
    16e8: 69 00        	adc	#$0
    16ea: a0 03        	ldy	#$3
    16ec: 85 19        	sta	$19                     ; 0x2019 <_ZN12_GLOBAL__N_15printEPKcP6Status+0x777>
    16ee: a9 ff        	lda	#$ff
    16f0: 91 16        	sta	($16),y                 ; 0x2016 <_ZN12_GLOBAL__N_15printEPKcP6Status+0x774>
    16f2: 18           	clc
    16f3: a5 10        	lda	$10                     ; 0x2010 <_ZN12_GLOBAL__N_15printEPKcP6Status+0x76e>
    16f5: 69 03        	adc	#$3
    16f7: 85 1b        	sta	$1b                     ; 0x201b <_ZN12_GLOBAL__N_15printEPKcP6Status+0x779>
    16f9: a5 11        	lda	$11                     ; 0x2011 <_ZN12_GLOBAL__N_15printEPKcP6Status+0x76f>
    16fb: 69 00        	adc	#$0
    16fd: 85 1a        	sta	$1a                     ; 0x201a <_ZN12_GLOBAL__N_15printEPKcP6Status+0x778>
    16ff: a0 01        	ldy	#$1
    1701: a9 ff        	lda	#$ff
    1703: 91 18        	sta	($18),y                 ; 0x2018 <_ZN12_GLOBAL__N_15printEPKcP6Status+0x776>
    1705: 18           	clc
    1706: a5 1b        	lda	$1b                     ; 0x201b <_ZN12_GLOBAL__N_15printEPKcP6Status+0x779>
    1708: 69 05        	adc	#$5
    170a: 85 18        	sta	$18                     ; 0x2018 <_ZN12_GLOBAL__N_15printEPKcP6Status+0x776>
    170c: a5 1a        	lda	$1a                     ; 0x201a <_ZN12_GLOBAL__N_15printEPKcP6Status+0x778>
    170e: 69 00        	adc	#$0
    1710: 85 19        	sta	$19                     ; 0x2019 <_ZN12_GLOBAL__N_15printEPKcP6Status+0x777>
    1712: 18           	clc
    1713: a5 10        	lda	$10                     ; 0x2010 <_ZN12_GLOBAL__N_15printEPKcP6Status+0x76e>
    1715: 69 03        	adc	#$3
    1717: 48           	pha
    1718: a5 11        	lda	$11                     ; 0x2011 <_ZN12_GLOBAL__N_15printEPKcP6Status+0x76f>
    171a: 69 00        	adc	#$0
    171c: 85 1b        	sta	$1b                     ; 0x201b <_ZN12_GLOBAL__N_15printEPKcP6Status+0x779>
    171e: 68           	pla
    171f: 18           	clc
    1720: 69 09        	adc	#$9
    1722: 85 1a        	sta	$1a                     ; 0x201a <_ZN12_GLOBAL__N_15printEPKcP6Status+0x778>
    1724: a5 1b        	lda	$1b                     ; 0x201b <_ZN12_GLOBAL__N_15printEPKcP6Status+0x779>
    1726: 69 00        	adc	#$0
    1728: 85 1b        	sta	$1b                     ; 0x201b <_ZN12_GLOBAL__N_15printEPKcP6Status+0x779>
    172a: a0 09        	ldy	#$9
    172c: a2 00        	ldx	#$0
    172e: 86 1c        	stx	$1c                     ; 0x201c <_ZN12_GLOBAL__N_15printEPKcP6Status+0x77a>
    1730: a2 00        	ldx	#$0
    1732: 86 1d        	stx	$1d                     ; 0x201d <_ZN12_GLOBAL__N_15printEPKcP6Status+0x77b>
    1734: a5 1c        	lda	$1c                     ; 0x201c <_ZN12_GLOBAL__N_15printEPKcP6Status+0x77a>
    1736: 91 16        	sta	($16),y                 ; 0x2016 <_ZN12_GLOBAL__N_15printEPKcP6Status+0x774>
    1738: a0 0f        	ldy	#$f
    173a: a5 24        	lda	$24                     ; 0x2024 <_ZN12_GLOBAL__N_15printEPKcP6Status+0x782>
    173c: 91 16        	sta	($16),y                 ; 0x2016 <_ZN12_GLOBAL__N_15printEPKcP6Status+0x774>
    173e: 18           	clc
    173f: a5 10        	lda	$10                     ; 0x2010 <_ZN12_GLOBAL__N_15printEPKcP6Status+0x76e>
    1741: 69 03        	adc	#$3
    1743: 85 1c        	sta	$1c                     ; 0x201c <_ZN12_GLOBAL__N_15printEPKcP6Status+0x77a>
    1745: a5 11        	lda	$11                     ; 0x2011 <_ZN12_GLOBAL__N_15printEPKcP6Status+0x76f>
    1747: 69 00        	adc	#$0
    1749: aa           	tax
    174a: a5 1d        	lda	$1d                     ; 0x201d <_ZN12_GLOBAL__N_15printEPKcP6Status+0x77b>
    174c: a0 01        	ldy	#$1
    174e: 91 1a        	sta	($1a),y                 ; 0x201a <_ZN12_GLOBAL__N_15printEPKcP6Status+0x778>
    1750: 18           	clc
    1751: a5 1c        	lda	$1c                     ; 0x201c <_ZN12_GLOBAL__N_15printEPKcP6Status+0x77a>
    1753: 69 0f        	adc	#$f
    1755: 85 1a        	sta	$1a                     ; 0x201a <_ZN12_GLOBAL__N_15printEPKcP6Status+0x778>
    1757: 8a           	txa
    1758: 69 00        	adc	#$0
    175a: aa           	tax
    175b: a0 05        	ldy	#$5
    175d: a9 00        	lda	#$0
    175f: 91 16        	sta	($16),y                 ; 0x2016 <_ZN12_GLOBAL__N_15printEPKcP6Status+0x774>
    1761: 64 1b        	stz	$1b                     ; 0x201b <_ZN12_GLOBAL__N_15printEPKcP6Status+0x779>
    1763: a9 00        	lda	#$0
    1765: a0 02        	ldy	#$2
    1767: 91 10        	sta	($10),y                 ; 0x2010 <_ZN12_GLOBAL__N_15printEPKcP6Status+0x76e>
    1769: 88           	dey
    176a: a9 00        	lda	#$0
    176c: 91 18        	sta	($18),y                 ; 0x2018 <_ZN12_GLOBAL__N_15printEPKcP6Status+0x776>
    176e: 86 1b        	stx	$1b                     ; 0x201b <_ZN12_GLOBAL__N_15printEPKcP6Status+0x779>
    1770: a5 25        	lda	$25                     ; 0x2025 <_ZN12_GLOBAL__N_15printEPKcP6Status+0x783>
    1772: 91 1a        	sta	($1a),y                 ; 0x201a <_ZN12_GLOBAL__N_15printEPKcP6Status+0x778>
    1774: b2 12        	lda	($12)                   ; 0x2012 <_ZN12_GLOBAL__N_15printEPKcP6Status+0x770>
    1776: 85 19        	sta	$19                     ; 0x2019 <_ZN12_GLOBAL__N_15printEPKcP6Status+0x777>
    1778: b1 12        	lda	($12),y                 ; 0x2012 <_ZN12_GLOBAL__N_15printEPKcP6Status+0x770>
    177a: 85 18        	sta	$18                     ; 0x2018 <_ZN12_GLOBAL__N_15printEPKcP6Status+0x776>
    177c: a0 11        	ldy	#$11
    177e: a5 19        	lda	$19                     ; 0x2019 <_ZN12_GLOBAL__N_15printEPKcP6Status+0x777>
    1780: 91 16        	sta	($16),y                 ; 0x2016 <_ZN12_GLOBAL__N_15printEPKcP6Status+0x774>
    1782: 18           	clc
    1783: a5 10        	lda	$10                     ; 0x2010 <_ZN12_GLOBAL__N_15printEPKcP6Status+0x76e>
    1785: 69 03        	adc	#$3
    1787: 48           	pha
    1788: a5 11        	lda	$11                     ; 0x2011 <_ZN12_GLOBAL__N_15printEPKcP6Status+0x76f>
    178a: 69 00        	adc	#$0
    178c: 85 12        	sta	$12                     ; 0x2012 <_ZN12_GLOBAL__N_15printEPKcP6Status+0x770>
    178e: 68           	pla
    178f: 18           	clc
    1790: 69 11        	adc	#$11
    1792: aa           	tax
    1793: a5 12        	lda	$12                     ; 0x2012 <_ZN12_GLOBAL__N_15printEPKcP6Status+0x770>
    1795: 69 00        	adc	#$0
    1797: 86 12        	stx	$12                     ; 0x2012 <_ZN12_GLOBAL__N_15printEPKcP6Status+0x770>
    1799: 85 13        	sta	$13                     ; 0x2013 <_ZN12_GLOBAL__N_15printEPKcP6Status+0x771>
    179b: a5 18        	lda	$18                     ; 0x2018 <_ZN12_GLOBAL__N_15printEPKcP6Status+0x776>
    179d: a0 01        	ldy	#$1
    179f: 91 12        	sta	($12),y                 ; 0x2012 <_ZN12_GLOBAL__N_15printEPKcP6Status+0x770>
    17a1: a6 14        	ldx	$14                     ; 0x2014 <_ZN12_GLOBAL__N_15printEPKcP6Status+0x772>
    17a3: 86 12        	stx	$12                     ; 0x2012 <_ZN12_GLOBAL__N_15printEPKcP6Status+0x770>
    17a5: a6 15        	ldx	$15                     ; 0x2015 <_ZN12_GLOBAL__N_15printEPKcP6Status+0x773>
    17a7: 86 13        	stx	$13                     ; 0x2013 <_ZN12_GLOBAL__N_15printEPKcP6Status+0x771>
    17a9: a6 12        	ldx	$12                     ; 0x2012 <_ZN12_GLOBAL__N_15printEPKcP6Status+0x770>
    17ab: 86 26        	stx	$26                     ; 0x2026 <_ZN12_GLOBAL__N_15printEPKcP6Status+0x784>
    17ad: a6 13        	ldx	$13                     ; 0x2013 <_ZN12_GLOBAL__N_15printEPKcP6Status+0x771>
    17af: 86 27        	stx	$27                     ; 0x2027 <_ZN12_GLOBAL__N_15printEPKcP6Status+0x785>
    17b1: b2 12        	lda	($12)                   ; 0x2012 <_ZN12_GLOBAL__N_15printEPKcP6Status+0x770>
    17b3: c9 25        	cmp	#$25
    17b5: d0 03        	bne	$17ba <vfprintf+0x130>
    17b7: 4c 22 18     	jmp	$1822 <vfprintf+0x198>
    17ba: aa           	tax
    17bb: d0 03        	bne	$17c0 <vfprintf+0x136>
    17bd: 4c 7a 18     	jmp	$187a <vfprintf+0x1f0>
    17c0: a6 24        	ldx	$24                     ; 0x2024 <_ZN12_GLOBAL__N_15printEPKcP6Status+0x782>
    17c2: 86 12        	stx	$12                     ; 0x2012 <_ZN12_GLOBAL__N_15printEPKcP6Status+0x770>
    17c4: a6 25        	ldx	$25                     ; 0x2025 <_ZN12_GLOBAL__N_15printEPKcP6Status+0x783>
    17c6: 86 13        	stx	$13                     ; 0x2013 <_ZN12_GLOBAL__N_15printEPKcP6Status+0x771>
    17c8: 48           	pha
    17c9: a0 02        	ldy	#$2
    17cb: b1 10        	lda	($10),y                 ; 0x2010 <_ZN12_GLOBAL__N_15printEPKcP6Status+0x76e>
    17cd: aa           	tax
    17ce: 68           	pla
    17cf: 20 c4 26     	jsr	$26c4 <putc>
    17d2: e0 ff        	cpx	#$ff
    17d4: d0 07        	bne	$17dd <vfprintf+0x153>
    17d6: c9 ff        	cmp	#$ff
    17d8: d0 03        	bne	$17dd <vfprintf+0x153>
    17da: 4c 44 18     	jmp	$1844 <vfprintf+0x1ba>
    17dd: e6 26        	inc	$26                     ; 0x2026 <_ZN12_GLOBAL__N_15printEPKcP6Status+0x784>
    17df: d0 02        	bne	$17e3 <vfprintf+0x159>
    17e1: e6 27        	inc	$27                     ; 0x2027 <_ZN12_GLOBAL__N_15printEPKcP6Status+0x785>
    17e3: 18           	clc
    17e4: a5 10        	lda	$10                     ; 0x2010 <_ZN12_GLOBAL__N_15printEPKcP6Status+0x76e>
    17e6: 69 03        	adc	#$3
    17e8: 48           	pha
    17e9: a5 11        	lda	$11                     ; 0x2011 <_ZN12_GLOBAL__N_15printEPKcP6Status+0x76f>
    17eb: 69 00        	adc	#$0
    17ed: aa           	tax
    17ee: 68           	pla
    17ef: 85 12        	sta	$12                     ; 0x2012 <_ZN12_GLOBAL__N_15printEPKcP6Status+0x770>
    17f1: 86 13        	stx	$13                     ; 0x2013 <_ZN12_GLOBAL__N_15printEPKcP6Status+0x771>
    17f3: 18           	clc
    17f4: 69 05        	adc	#$5
    17f6: 85 14        	sta	$14                     ; 0x2014 <_ZN12_GLOBAL__N_15printEPKcP6Status+0x772>
    17f8: 8a           	txa
    17f9: 69 00        	adc	#$0
    17fb: 85 15        	sta	$15                     ; 0x2015 <_ZN12_GLOBAL__N_15printEPKcP6Status+0x773>
    17fd: a0 05        	ldy	#$5
    17ff: b1 12        	lda	($12),y                 ; 0x2012 <_ZN12_GLOBAL__N_15printEPKcP6Status+0x770>
    1801: 85 16        	sta	$16                     ; 0x2016 <_ZN12_GLOBAL__N_15printEPKcP6Status+0x774>
    1803: a0 01        	ldy	#$1
    1805: b1 14        	lda	($14),y                 ; 0x2014 <_ZN12_GLOBAL__N_15printEPKcP6Status+0x772>
    1807: aa           	tax
    1808: a5 16        	lda	$16                     ; 0x2016 <_ZN12_GLOBAL__N_15printEPKcP6Status+0x774>
    180a: 1a           	inc
    180b: d0 01        	bne	$180e <vfprintf+0x184>
    180d: e8           	inx
    180e: a0 05        	ldy	#$5
    1810: 91 12        	sta	($12),y                 ; 0x2012 <_ZN12_GLOBAL__N_15printEPKcP6Status+0x770>
    1812: 8a           	txa
    1813: a0 01        	ldy	#$1
    1815: 91 14        	sta	($14),y                 ; 0x2014 <_ZN12_GLOBAL__N_15printEPKcP6Status+0x772>
    1817: a6 26        	ldx	$26                     ; 0x2026 <_ZN12_GLOBAL__N_15printEPKcP6Status+0x784>
    1819: 86 12        	stx	$12                     ; 0x2012 <_ZN12_GLOBAL__N_15printEPKcP6Status+0x770>
    181b: a6 27        	ldx	$27                     ; 0x2027 <_ZN12_GLOBAL__N_15printEPKcP6Status+0x785>
    181d: 86 13        	stx	$13                     ; 0x2013 <_ZN12_GLOBAL__N_15printEPKcP6Status+0x771>
    181f: 4c a9 17     	jmp	$17a9 <vfprintf+0x11f>
    1822: a6 28        	ldx	$28                     ; 0x2028 <_ZN12_GLOBAL__N_15printEPKcP6Status+0x786>
    1824: 86 14        	stx	$14                     ; 0x2014 <_ZN12_GLOBAL__N_15printEPKcP6Status+0x772>
    1826: a6 29        	ldx	$29                     ; 0x2029 <_ZN12_GLOBAL__N_15printEPKcP6Status+0x787>
    1828: 86 15        	stx	$15                     ; 0x2015 <_ZN12_GLOBAL__N_15printEPKcP6Status+0x773>
    182a: 20 a2 18     	jsr	$18a2 <_ZN12_GLOBAL__N_15printEPKcP6Status>
    182d: a6 13        	ldx	$13                     ; 0x2013 <_ZN12_GLOBAL__N_15printEPKcP6Status+0x771>
    182f: e4 27        	cpx	$27                     ; 0x2027 <_ZN12_GLOBAL__N_15printEPKcP6Status+0x785>
    1831: f0 03        	beq	$1836 <vfprintf+0x1ac>
    1833: 4c a9 17     	jmp	$17a9 <vfprintf+0x11f>
    1836: a6 12        	ldx	$12                     ; 0x2012 <_ZN12_GLOBAL__N_15printEPKcP6Status+0x770>
    1838: e4 26        	cpx	$26                     ; 0x2026 <_ZN12_GLOBAL__N_15printEPKcP6Status+0x784>
    183a: f0 03        	beq	$183f <vfprintf+0x1b5>
    183c: 4c a9 17     	jmp	$17a9 <vfprintf+0x11f>
    183f: b2 26        	lda	($26)                   ; 0x2026 <_ZN12_GLOBAL__N_15printEPKcP6Status+0x784>
    1841: 4c c0 17     	jmp	$17c0 <vfprintf+0x136>
    1844: a2 ff        	ldx	#$ff
    1846: 8a           	txa
    1847: a0 02        	ldy	#$2
    1849: 91 10        	sta	($10),y                 ; 0x2010 <_ZN12_GLOBAL__N_15printEPKcP6Status+0x76e>
    184b: 8a           	txa
    184c: aa           	tax
    184d: a0 02        	ldy	#$2
    184f: b1 10        	lda	($10),y                 ; 0x2010 <_ZN12_GLOBAL__N_15printEPKcP6Status+0x76e>
    1851: 85 20        	sta	$20                     ; 0x2020 <_ZN12_GLOBAL__N_15printEPKcP6Status+0x77e>
    1853: a0 00        	ldy	#$0
    1855: b1 10        	lda	($10),y                 ; 0x2010 <_ZN12_GLOBAL__N_15printEPKcP6Status+0x76e>
    1857: 85 29        	sta	$29                     ; 0x2029 <_ZN12_GLOBAL__N_15printEPKcP6Status+0x787>
    1859: c8           	iny
    185a: b1 10        	lda	($10),y                 ; 0x2010 <_ZN12_GLOBAL__N_15printEPKcP6Status+0x76e>
    185c: 85 28        	sta	$28                     ; 0x2028 <_ZN12_GLOBAL__N_15printEPKcP6Status+0x786>
    185e: 7a           	ply
    185f: 84 27        	sty	$27                     ; 0x2027 <_ZN12_GLOBAL__N_15printEPKcP6Status+0x785>
    1861: 7a           	ply
    1862: 84 26        	sty	$26                     ; 0x2026 <_ZN12_GLOBAL__N_15printEPKcP6Status+0x784>
    1864: 7a           	ply
    1865: 84 25        	sty	$25                     ; 0x2025 <_ZN12_GLOBAL__N_15printEPKcP6Status+0x783>
    1867: 7a           	ply
    1868: 84 24        	sty	$24                     ; 0x2024 <_ZN12_GLOBAL__N_15printEPKcP6Status+0x782>
    186a: 18           	clc
    186b: a5 10        	lda	$10                     ; 0x2010 <_ZN12_GLOBAL__N_15printEPKcP6Status+0x76e>
    186d: 69 18        	adc	#$18
    186f: 85 10        	sta	$10                     ; 0x2010 <_ZN12_GLOBAL__N_15printEPKcP6Status+0x76e>
    1871: a5 11        	lda	$11                     ; 0x2011 <_ZN12_GLOBAL__N_15printEPKcP6Status+0x76f>
    1873: 69 00        	adc	#$0
    1875: 85 11        	sta	$11                     ; 0x2011 <_ZN12_GLOBAL__N_15printEPKcP6Status+0x76f>
    1877: a5 20        	lda	$20                     ; 0x2020 <_ZN12_GLOBAL__N_15printEPKcP6Status+0x77e>
    1879: 60           	rts
    187a: a0 05        	ldy	#$5
    187c: 18           	clc
    187d: a5 10        	lda	$10                     ; 0x2010 <_ZN12_GLOBAL__N_15printEPKcP6Status+0x76e>
    187f: 69 03        	adc	#$3
    1881: 48           	pha
    1882: a5 11        	lda	$11                     ; 0x2011 <_ZN12_GLOBAL__N_15printEPKcP6Status+0x76f>
    1884: 69 00        	adc	#$0
    1886: aa           	tax
    1887: 68           	pla
    1888: 85 12        	sta	$12                     ; 0x2012 <_ZN12_GLOBAL__N_15printEPKcP6Status+0x770>
    188a: 86 13        	stx	$13                     ; 0x2013 <_ZN12_GLOBAL__N_15printEPKcP6Status+0x771>
    188c: 18           	clc
    188d: 69 05        	adc	#$5
    188f: 85 14        	sta	$14                     ; 0x2014 <_ZN12_GLOBAL__N_15printEPKcP6Status+0x772>
    1891: 8a           	txa
    1892: 69 00        	adc	#$0
    1894: 85 15        	sta	$15                     ; 0x2015 <_ZN12_GLOBAL__N_15printEPKcP6Status+0x773>
    1896: b1 12        	lda	($12),y                 ; 0x2012 <_ZN12_GLOBAL__N_15printEPKcP6Status+0x770>
    1898: a0 02        	ldy	#$2
    189a: 91 10        	sta	($10),y                 ; 0x2010 <_ZN12_GLOBAL__N_15printEPKcP6Status+0x76e>
    189c: 88           	dey
    189d: b1 14        	lda	($14),y                 ; 0x2014 <_ZN12_GLOBAL__N_15printEPKcP6Status+0x772>
    189f: 4c 4c 18     	jmp	$184c <vfprintf+0x1c2>

000018a2 <_ZN12_GLOBAL__N_15printEPKcP6Status>:
    18a2: 18           	clc
    18a3: a5 10        	lda	$10                     ; 0x2010 <_ZN12_GLOBAL__N_15printEPKcP6Status+0x76e>
    18a5: 69 d1        	adc	#$d1
    18a7: 85 10        	sta	$10                     ; 0x2010 <_ZN12_GLOBAL__N_15printEPKcP6Status+0x76e>
    18a9: a5 11        	lda	$11                     ; 0x2011 <_ZN12_GLOBAL__N_15printEPKcP6Status+0x76f>
    18ab: 69 ff        	adc	#$ff
    18ad: 85 11        	sta	$11                     ; 0x2011 <_ZN12_GLOBAL__N_15printEPKcP6Status+0x76f>
    18af: a6 24        	ldx	$24                     ; 0x2024 <_ZN12_GLOBAL__N_15printEPKcP6Status+0x782>
    18b1: da           	phx
    18b2: a6 25        	ldx	$25                     ; 0x2025 <_ZN12_GLOBAL__N_15printEPKcP6Status+0x783>
    18b4: da           	phx
    18b5: a6 26        	ldx	$26                     ; 0x2026 <_ZN12_GLOBAL__N_15printEPKcP6Status+0x784>
    18b7: da           	phx
    18b8: a6 27        	ldx	$27                     ; 0x2027 <_ZN12_GLOBAL__N_15printEPKcP6Status+0x785>
    18ba: da           	phx
    18bb: a5 28        	lda	$28                     ; 0x2028 <_ZN12_GLOBAL__N_15printEPKcP6Status+0x786>
    18bd: a0 07        	ldy	#$7
    18bf: 91 10        	sta	($10),y                 ; 0x2010 <_ZN12_GLOBAL__N_15printEPKcP6Status+0x76e>
    18c1: a5 29        	lda	$29                     ; 0x2029 <_ZN12_GLOBAL__N_15printEPKcP6Status+0x787>
    18c3: 88           	dey
    18c4: 91 10        	sta	($10),y                 ; 0x2010 <_ZN12_GLOBAL__N_15printEPKcP6Status+0x76e>
    18c6: a5 2a        	lda	$2a                     ; 0x202a <_ZN12_GLOBAL__N_15printEPKcP6Status+0x788>
    18c8: 88           	dey
    18c9: 91 10        	sta	($10),y                 ; 0x2010 <_ZN12_GLOBAL__N_15printEPKcP6Status+0x76e>
    18cb: a5 2b        	lda	$2b                     ; 0x202b <_ZN12_GLOBAL__N_15printEPKcP6Status+0x789>
    18cd: 88           	dey
    18ce: 91 10        	sta	($10),y                 ; 0x2010 <_ZN12_GLOBAL__N_15printEPKcP6Status+0x76e>
    18d0: a5 2c        	lda	$2c                     ; 0x202c <_ZN12_GLOBAL__N_15printEPKcP6Status+0x78a>
    18d2: 88           	dey
    18d3: 91 10        	sta	($10),y                 ; 0x2010 <_ZN12_GLOBAL__N_15printEPKcP6Status+0x76e>
    18d5: a5 2d        	lda	$2d                     ; 0x202d <_ZN12_GLOBAL__N_15printEPKcP6Status+0x78b>
    18d7: 88           	dey
    18d8: 91 10        	sta	($10),y                 ; 0x2010 <_ZN12_GLOBAL__N_15printEPKcP6Status+0x76e>
    18da: a5 2e        	lda	$2e                     ; 0x202e <_ZN12_GLOBAL__N_15printEPKcP6Status+0x78c>
    18dc: 88           	dey
    18dd: 91 10        	sta	($10),y                 ; 0x2010 <_ZN12_GLOBAL__N_15printEPKcP6Status+0x76e>
    18df: a5 2f        	lda	$2f                     ; 0x202f <_ZN12_GLOBAL__N_15printEPKcP6Status+0x78d>
    18e1: 88           	dey
    18e2: 91 10        	sta	($10),y                 ; 0x2010 <_ZN12_GLOBAL__N_15printEPKcP6Status+0x76e>
    18e4: a6 12        	ldx	$12                     ; 0x2012 <_ZN12_GLOBAL__N_15printEPKcP6Status+0x770>
    18e6: 86 28        	stx	$28                     ; 0x2028 <_ZN12_GLOBAL__N_15printEPKcP6Status+0x786>
    18e8: a6 13        	ldx	$13                     ; 0x2013 <_ZN12_GLOBAL__N_15printEPKcP6Status+0x771>
    18ea: 86 29        	stx	$29                     ; 0x2029 <_ZN12_GLOBAL__N_15printEPKcP6Status+0x787>
    18ec: a6 14        	ldx	$14                     ; 0x2014 <_ZN12_GLOBAL__N_15printEPKcP6Status+0x772>
    18ee: 86 24        	stx	$24                     ; 0x2024 <_ZN12_GLOBAL__N_15printEPKcP6Status+0x782>
    18f0: a6 15        	ldx	$15                     ; 0x2015 <_ZN12_GLOBAL__N_15printEPKcP6Status+0x773>
    18f2: 86 25        	stx	$25                     ; 0x2025 <_ZN12_GLOBAL__N_15printEPKcP6Status+0x783>
    18f4: e6 12        	inc	$12                     ; 0x2012 <_ZN12_GLOBAL__N_15printEPKcP6Status+0x770>
    18f6: d0 02        	bne	$18fa <_ZN12_GLOBAL__N_15printEPKcP6Status+0x58>
    18f8: e6 13        	inc	$13                     ; 0x2013 <_ZN12_GLOBAL__N_15printEPKcP6Status+0x771>
    18fa: a5 12        	lda	$12                     ; 0x2012 <_ZN12_GLOBAL__N_15printEPKcP6Status+0x770>
    18fc: 18           	clc
    18fd: 48           	pha
    18fe: a5 10        	lda	$10                     ; 0x2010 <_ZN12_GLOBAL__N_15printEPKcP6Status+0x76e>
    1900: 69 16        	adc	#$16
    1902: 85 26        	sta	$26                     ; 0x2026 <_ZN12_GLOBAL__N_15printEPKcP6Status+0x784>
    1904: a5 11        	lda	$11                     ; 0x2011 <_ZN12_GLOBAL__N_15printEPKcP6Status+0x76f>
    1906: 69 00        	adc	#$0
    1908: 85 27        	sta	$27                     ; 0x2027 <_ZN12_GLOBAL__N_15printEPKcP6Status+0x785>
    190a: 68           	pla
    190b: 92 26        	sta	($26)                   ; 0x2026 <_ZN12_GLOBAL__N_15printEPKcP6Status+0x784>
    190d: a0 01        	ldy	#$1
    190f: a5 13        	lda	$13                     ; 0x2013 <_ZN12_GLOBAL__N_15printEPKcP6Status+0x771>
    1911: 91 26        	sta	($26),y                 ; 0x2026 <_ZN12_GLOBAL__N_15printEPKcP6Status+0x784>
    1913: b1 28        	lda	($28),y                 ; 0x2028 <_ZN12_GLOBAL__N_15printEPKcP6Status+0x786>
    1915: c9 25        	cmp	#$25
    1917: d0 1d        	bne	$1936 <_ZN12_GLOBAL__N_15printEPKcP6Status+0x94>
    1919: a9 25        	lda	#$25
    191b: a6 14        	ldx	$14                     ; 0x2014 <_ZN12_GLOBAL__N_15printEPKcP6Status+0x772>
    191d: 86 12        	stx	$12                     ; 0x2012 <_ZN12_GLOBAL__N_15printEPKcP6Status+0x770>
    191f: a6 15        	ldx	$15                     ; 0x2015 <_ZN12_GLOBAL__N_15printEPKcP6Status+0x773>
    1921: 86 13        	stx	$13                     ; 0x2013 <_ZN12_GLOBAL__N_15printEPKcP6Status+0x771>
    1923: 20 e6 23     	jsr	$23e6 <_ZN12_GLOBAL__N_13putEcP6Status>
    1926: a5 28        	lda	$28                     ; 0x2028 <_ZN12_GLOBAL__N_15printEPKcP6Status+0x786>
    1928: 18           	clc
    1929: 69 02        	adc	#$2
    192b: 85 28        	sta	$28                     ; 0x2028 <_ZN12_GLOBAL__N_15printEPKcP6Status+0x786>
    192d: a5 29        	lda	$29                     ; 0x2029 <_ZN12_GLOBAL__N_15printEPKcP6Status+0x787>
    192f: 69 00        	adc	#$0
    1931: 85 29        	sta	$29                     ; 0x2029 <_ZN12_GLOBAL__N_15printEPKcP6Status+0x787>
    1933: 4c 9b 23     	jmp	$239b <_ZN12_GLOBAL__N_15printEPKcP6Status+0xaf9>
    1936: 64 2a        	stz	$2a                     ; 0x202a <_ZN12_GLOBAL__N_15printEPKcP6Status+0x788>
    1938: 18           	clc
    1939: a5 24        	lda	$24                     ; 0x2024 <_ZN12_GLOBAL__N_15printEPKcP6Status+0x782>
    193b: 69 0b        	adc	#$b
    193d: 85 16        	sta	$16                     ; 0x2016 <_ZN12_GLOBAL__N_15printEPKcP6Status+0x774>
    193f: a5 25        	lda	$25                     ; 0x2025 <_ZN12_GLOBAL__N_15printEPKcP6Status+0x783>
    1941: 69 00        	adc	#$0
    1943: 85 17        	sta	$17                     ; 0x2017 <_ZN12_GLOBAL__N_15printEPKcP6Status+0x775>
    1945: 18           	clc
    1946: a9 00        	lda	#$0
    1948: a0 0b        	ldy	#$b
    194a: 91 10        	sta	($10),y                 ; 0x2010 <_ZN12_GLOBAL__N_15printEPKcP6Status+0x76e>
    194c: a9 00        	lda	#$0
    194e: 91 24        	sta	($24),y                 ; 0x2024 <_ZN12_GLOBAL__N_15printEPKcP6Status+0x782>
    1950: a5 24        	lda	$24                     ; 0x2024 <_ZN12_GLOBAL__N_15printEPKcP6Status+0x782>
    1952: 69 0d        	adc	#$d
    1954: 85 18        	sta	$18                     ; 0x2018 <_ZN12_GLOBAL__N_15printEPKcP6Status+0x776>
    1956: a5 25        	lda	$25                     ; 0x2025 <_ZN12_GLOBAL__N_15printEPKcP6Status+0x783>
    1958: 69 00        	adc	#$0
    195a: e6 14        	inc	$14                     ; 0x2014 <_ZN12_GLOBAL__N_15printEPKcP6Status+0x772>
    195c: d0 02        	bne	$1960 <_ZN12_GLOBAL__N_15printEPKcP6Status+0xbe>
    195e: e6 15        	inc	$15                     ; 0x2015 <_ZN12_GLOBAL__N_15printEPKcP6Status+0x773>
    1960: a0 0d        	ldy	#$d
    1962: 85 19        	sta	$19                     ; 0x2019 <_ZN12_GLOBAL__N_15printEPKcP6Status+0x777>
    1964: a9 ff        	lda	#$ff
    1966: 91 24        	sta	($24),y                 ; 0x2024 <_ZN12_GLOBAL__N_15printEPKcP6Status+0x782>
    1968: a0 01        	ldy	#$1
    196a: 1a           	inc
    196b: 91 24        	sta	($24),y                 ; 0x2024 <_ZN12_GLOBAL__N_15printEPKcP6Status+0x782>
    196d: 91 14        	sta	($14),y                 ; 0x2014 <_ZN12_GLOBAL__N_15printEPKcP6Status+0x772>
    196f: 92 24        	sta	($24)                   ; 0x2024 <_ZN12_GLOBAL__N_15printEPKcP6Status+0x782>
    1971: 91 16        	sta	($16),y                 ; 0x2016 <_ZN12_GLOBAL__N_15printEPKcP6Status+0x774>
    1973: 3a           	dec
    1974: 91 18        	sta	($18),y                 ; 0x2018 <_ZN12_GLOBAL__N_15printEPKcP6Status+0x776>
    1976: 64 18        	stz	$18                     ; 0x2018 <_ZN12_GLOBAL__N_15printEPKcP6Status+0x776>
    1978: 80 35        	bra	$19af <_ZN12_GLOBAL__N_15printEPKcP6Status+0x10d>
    197a: a2 02        	ldx	#$2
    197c: 80 15        	bra	$1993 <_ZN12_GLOBAL__N_15printEPKcP6Status+0xf1>
    197e: e0 20        	cpx	#$20
    1980: f0 0f        	beq	$1991 <_ZN12_GLOBAL__N_15printEPKcP6Status+0xef>
    1982: e0 23        	cpx	#$23
    1984: f0 03        	beq	$1989 <_ZN12_GLOBAL__N_15printEPKcP6Status+0xe7>
    1986: 4c f4 19     	jmp	$19f4 <_ZN12_GLOBAL__N_15printEPKcP6Status+0x152>
    1989: a2 04        	ldx	#$4
    198b: 80 06        	bra	$1993 <_ZN12_GLOBAL__N_15printEPKcP6Status+0xf1>
    198d: a2 10        	ldx	#$10
    198f: 80 02        	bra	$1993 <_ZN12_GLOBAL__N_15printEPKcP6Status+0xf1>
    1991: a2 08        	ldx	#$8
    1993: 86 16        	stx	$16                     ; 0x2016 <_ZN12_GLOBAL__N_15printEPKcP6Status+0x774>
    1995: a5 18        	lda	$18                     ; 0x2018 <_ZN12_GLOBAL__N_15printEPKcP6Status+0x776>
    1997: 05 16        	ora	$16                     ; 0x2016 <_ZN12_GLOBAL__N_15printEPKcP6Status+0x774>
    1999: 85 18        	sta	$18                     ; 0x2018 <_ZN12_GLOBAL__N_15printEPKcP6Status+0x776>
    199b: 91 24        	sta	($24),y                 ; 0x2024 <_ZN12_GLOBAL__N_15printEPKcP6Status+0x782>
    199d: a9 00        	lda	#$0
    199f: 91 14        	sta	($14),y                 ; 0x2014 <_ZN12_GLOBAL__N_15printEPKcP6Status+0x772>
    19a1: e6 12        	inc	$12                     ; 0x2012 <_ZN12_GLOBAL__N_15printEPKcP6Status+0x770>
    19a3: d0 02        	bne	$19a7 <_ZN12_GLOBAL__N_15printEPKcP6Status+0x105>
    19a5: e6 13        	inc	$13                     ; 0x2013 <_ZN12_GLOBAL__N_15printEPKcP6Status+0x771>
    19a7: a5 12        	lda	$12                     ; 0x2012 <_ZN12_GLOBAL__N_15printEPKcP6Status+0x770>
    19a9: 92 26        	sta	($26)                   ; 0x2026 <_ZN12_GLOBAL__N_15printEPKcP6Status+0x784>
    19ab: a5 13        	lda	$13                     ; 0x2013 <_ZN12_GLOBAL__N_15printEPKcP6Status+0x771>
    19ad: 91 26        	sta	($26),y                 ; 0x2026 <_ZN12_GLOBAL__N_15printEPKcP6Status+0x784>
    19af: b2 12        	lda	($12)                   ; 0x2012 <_ZN12_GLOBAL__N_15printEPKcP6Status+0x770>
    19b1: 18           	clc
    19b2: aa           	tax
    19b3: 69 d6        	adc	#$d6
    19b5: c9 07        	cmp	#$7
    19b7: b0 c5        	bcs	$197e <_ZN12_GLOBAL__N_15printEPKcP6Status+0xdc>
    19b9: 0a           	asl
    19ba: aa           	tax
    19bb: a9 01        	lda	#$1
    19bd: 85 16        	sta	$16                     ; 0x2016 <_ZN12_GLOBAL__N_15printEPKcP6Status+0x774>
    19bf: 7c f3 2b     	jmp	($2bf3,x)               ; 0x2bf3 <__BLOCK_SIZE+0xbf3>
    19c2: a0 11        	ldy	#$11
    19c4: a5 24        	lda	$24                     ; 0x2024 <_ZN12_GLOBAL__N_15printEPKcP6Status+0x782>
    19c6: 18           	clc
    19c7: 69 11        	adc	#$11
    19c9: 85 14        	sta	$14                     ; 0x2014 <_ZN12_GLOBAL__N_15printEPKcP6Status+0x772>
    19cb: a5 25        	lda	$25                     ; 0x2025 <_ZN12_GLOBAL__N_15printEPKcP6Status+0x783>
    19cd: 69 00        	adc	#$0
    19cf: 85 15        	sta	$15                     ; 0x2015 <_ZN12_GLOBAL__N_15printEPKcP6Status+0x773>
    19d1: b1 24        	lda	($24),y                 ; 0x2024 <_ZN12_GLOBAL__N_15printEPKcP6Status+0x782>
    19d3: 85 16        	sta	$16                     ; 0x2016 <_ZN12_GLOBAL__N_15printEPKcP6Status+0x774>
    19d5: 18           	clc
    19d6: 69 02        	adc	#$2
    19d8: 91 24        	sta	($24),y                 ; 0x2024 <_ZN12_GLOBAL__N_15printEPKcP6Status+0x782>
    19da: a0 01        	ldy	#$1
    19dc: b1 14        	lda	($14),y                 ; 0x2014 <_ZN12_GLOBAL__N_15printEPKcP6Status+0x772>
    19de: 85 17        	sta	$17                     ; 0x2017 <_ZN12_GLOBAL__N_15printEPKcP6Status+0x775>
    19e0: 69 00        	adc	#$0
    19e2: 91 14        	sta	($14),y                 ; 0x2014 <_ZN12_GLOBAL__N_15printEPKcP6Status+0x772>
    19e4: b2 16        	lda	($16)                   ; 0x2016 <_ZN12_GLOBAL__N_15printEPKcP6Status+0x774>
    19e6: 85 15        	sta	$15                     ; 0x2015 <_ZN12_GLOBAL__N_15printEPKcP6Status+0x773>
    19e8: b1 16        	lda	($16),y                 ; 0x2016 <_ZN12_GLOBAL__N_15printEPKcP6Status+0x774>
    19ea: 85 14        	sta	$14                     ; 0x2014 <_ZN12_GLOBAL__N_15printEPKcP6Status+0x772>
    19ec: 30 31        	bmi	$1a1f <_ZN12_GLOBAL__N_15printEPKcP6Status+0x17d>
    19ee: a5 15        	lda	$15                     ; 0x2015 <_ZN12_GLOBAL__N_15printEPKcP6Status+0x773>
    19f0: a6 14        	ldx	$14                     ; 0x2014 <_ZN12_GLOBAL__N_15printEPKcP6Status+0x772>
    19f2: 80 4d        	bra	$1a41 <_ZN12_GLOBAL__N_15printEPKcP6Status+0x19f>
    19f4: a6 26        	ldx	$26                     ; 0x2026 <_ZN12_GLOBAL__N_15printEPKcP6Status+0x784>
    19f6: 86 14        	stx	$14                     ; 0x2014 <_ZN12_GLOBAL__N_15printEPKcP6Status+0x772>
    19f8: a6 27        	ldx	$27                     ; 0x2027 <_ZN12_GLOBAL__N_15printEPKcP6Status+0x785>
    19fa: 86 15        	stx	$15                     ; 0x2015 <_ZN12_GLOBAL__N_15printEPKcP6Status+0x773>
    19fc: 20 93 2a     	jsr	$2a93 <__simple_strtoui>
    19ff: a0 0b        	ldy	#$b
    1a01: 91 24        	sta	($24),y                 ; 0x2024 <_ZN12_GLOBAL__N_15printEPKcP6Status+0x782>
    1a03: 18           	clc
    1a04: a5 24        	lda	$24                     ; 0x2024 <_ZN12_GLOBAL__N_15printEPKcP6Status+0x782>
    1a06: 69 0b        	adc	#$b
    1a08: 85 12        	sta	$12                     ; 0x2012 <_ZN12_GLOBAL__N_15printEPKcP6Status+0x770>
    1a0a: a5 25        	lda	$25                     ; 0x2025 <_ZN12_GLOBAL__N_15printEPKcP6Status+0x783>
    1a0c: 69 00        	adc	#$0
    1a0e: 85 13        	sta	$13                     ; 0x2013 <_ZN12_GLOBAL__N_15printEPKcP6Status+0x771>
    1a10: a0 01        	ldy	#$1
    1a12: 8a           	txa
    1a13: 91 12        	sta	($12),y                 ; 0x2012 <_ZN12_GLOBAL__N_15printEPKcP6Status+0x770>
    1a15: b2 26        	lda	($26)                   ; 0x2026 <_ZN12_GLOBAL__N_15printEPKcP6Status+0x784>
    1a17: 85 12        	sta	$12                     ; 0x2012 <_ZN12_GLOBAL__N_15printEPKcP6Status+0x770>
    1a19: b1 26        	lda	($26),y                 ; 0x2026 <_ZN12_GLOBAL__N_15printEPKcP6Status+0x784>
    1a1b: 85 13        	sta	$13                     ; 0x2013 <_ZN12_GLOBAL__N_15printEPKcP6Status+0x771>
    1a1d: 80 46        	bra	$1a65 <_ZN12_GLOBAL__N_15printEPKcP6Status+0x1c3>
    1a1f: a5 18        	lda	$18                     ; 0x2018 <_ZN12_GLOBAL__N_15printEPKcP6Status+0x776>
    1a21: 09 01        	ora	#$1
    1a23: a6 24        	ldx	$24                     ; 0x2024 <_ZN12_GLOBAL__N_15printEPKcP6Status+0x782>
    1a25: 86 16        	stx	$16                     ; 0x2016 <_ZN12_GLOBAL__N_15printEPKcP6Status+0x774>
    1a27: a6 25        	ldx	$25                     ; 0x2025 <_ZN12_GLOBAL__N_15printEPKcP6Status+0x783>
    1a29: 86 17        	stx	$17                     ; 0x2017 <_ZN12_GLOBAL__N_15printEPKcP6Status+0x775>
    1a2b: e6 16        	inc	$16                     ; 0x2016 <_ZN12_GLOBAL__N_15printEPKcP6Status+0x774>
    1a2d: d0 02        	bne	$1a31 <_ZN12_GLOBAL__N_15printEPKcP6Status+0x18f>
    1a2f: e6 17        	inc	$17                     ; 0x2017 <_ZN12_GLOBAL__N_15printEPKcP6Status+0x775>
    1a31: 91 24        	sta	($24),y                 ; 0x2024 <_ZN12_GLOBAL__N_15printEPKcP6Status+0x782>
    1a33: a9 00        	lda	#$0
    1a35: 91 16        	sta	($16),y                 ; 0x2016 <_ZN12_GLOBAL__N_15printEPKcP6Status+0x774>
    1a37: 38           	sec
    1a38: e5 15        	sbc	$15                     ; 0x2015 <_ZN12_GLOBAL__N_15printEPKcP6Status+0x773>
    1a3a: a8           	tay
    1a3b: a9 00        	lda	#$0
    1a3d: e5 14        	sbc	$14                     ; 0x2014 <_ZN12_GLOBAL__N_15printEPKcP6Status+0x772>
    1a3f: aa           	tax
    1a40: 98           	tya
    1a41: a0 0b        	ldy	#$b
    1a43: 91 24        	sta	($24),y                 ; 0x2024 <_ZN12_GLOBAL__N_15printEPKcP6Status+0x782>
    1a45: 18           	clc
    1a46: a5 24        	lda	$24                     ; 0x2024 <_ZN12_GLOBAL__N_15printEPKcP6Status+0x782>
    1a48: 69 0b        	adc	#$b
    1a4a: 85 14        	sta	$14                     ; 0x2014 <_ZN12_GLOBAL__N_15printEPKcP6Status+0x772>
    1a4c: a5 25        	lda	$25                     ; 0x2025 <_ZN12_GLOBAL__N_15printEPKcP6Status+0x783>
    1a4e: 69 00        	adc	#$0
    1a50: 85 15        	sta	$15                     ; 0x2015 <_ZN12_GLOBAL__N_15printEPKcP6Status+0x773>
    1a52: 8a           	txa
    1a53: a0 01        	ldy	#$1
    1a55: 91 14        	sta	($14),y                 ; 0x2014 <_ZN12_GLOBAL__N_15printEPKcP6Status+0x772>
    1a57: e6 12        	inc	$12                     ; 0x2012 <_ZN12_GLOBAL__N_15printEPKcP6Status+0x770>
    1a59: d0 02        	bne	$1a5d <_ZN12_GLOBAL__N_15printEPKcP6Status+0x1bb>
    1a5b: e6 13        	inc	$13                     ; 0x2013 <_ZN12_GLOBAL__N_15printEPKcP6Status+0x771>
    1a5d: a5 13        	lda	$13                     ; 0x2013 <_ZN12_GLOBAL__N_15printEPKcP6Status+0x771>
    1a5f: 91 26        	sta	($26),y                 ; 0x2026 <_ZN12_GLOBAL__N_15printEPKcP6Status+0x784>
    1a61: a5 12        	lda	$12                     ; 0x2012 <_ZN12_GLOBAL__N_15printEPKcP6Status+0x770>
    1a63: 92 26        	sta	($26)                   ; 0x2026 <_ZN12_GLOBAL__N_15printEPKcP6Status+0x784>
    1a65: b2 12        	lda	($12)                   ; 0x2012 <_ZN12_GLOBAL__N_15printEPKcP6Status+0x770>
    1a67: c9 2e        	cmp	#$2e
    1a69: f0 03        	beq	$1a6e <_ZN12_GLOBAL__N_15printEPKcP6Status+0x1cc>
    1a6b: 4c 83 1b     	jmp	$1b83 <_ZN12_GLOBAL__N_15printEPKcP6Status+0x2e1>
    1a6e: a6 12        	ldx	$12                     ; 0x2012 <_ZN12_GLOBAL__N_15printEPKcP6Status+0x770>
    1a70: 86 14        	stx	$14                     ; 0x2014 <_ZN12_GLOBAL__N_15printEPKcP6Status+0x772>
    1a72: a6 13        	ldx	$13                     ; 0x2013 <_ZN12_GLOBAL__N_15printEPKcP6Status+0x771>
    1a74: 86 15        	stx	$15                     ; 0x2015 <_ZN12_GLOBAL__N_15printEPKcP6Status+0x773>
    1a76: e6 14        	inc	$14                     ; 0x2014 <_ZN12_GLOBAL__N_15printEPKcP6Status+0x772>
    1a78: d0 02        	bne	$1a7c <_ZN12_GLOBAL__N_15printEPKcP6Status+0x1da>
    1a7a: e6 15        	inc	$15                     ; 0x2015 <_ZN12_GLOBAL__N_15printEPKcP6Status+0x773>
    1a7c: a5 14        	lda	$14                     ; 0x2014 <_ZN12_GLOBAL__N_15printEPKcP6Status+0x772>
    1a7e: 92 26        	sta	($26)                   ; 0x2026 <_ZN12_GLOBAL__N_15printEPKcP6Status+0x784>
    1a80: a5 15        	lda	$15                     ; 0x2015 <_ZN12_GLOBAL__N_15printEPKcP6Status+0x773>
    1a82: 91 26        	sta	($26),y                 ; 0x2026 <_ZN12_GLOBAL__N_15printEPKcP6Status+0x784>
    1a84: b1 12        	lda	($12),y                 ; 0x2012 <_ZN12_GLOBAL__N_15printEPKcP6Status+0x770>
    1a86: c9 2a        	cmp	#$2a
    1a88: f0 03        	beq	$1a8d <_ZN12_GLOBAL__N_15printEPKcP6Status+0x1eb>
    1a8a: 4c f8 1a     	jmp	$1af8 <_ZN12_GLOBAL__N_15printEPKcP6Status+0x256>
    1a8d: a4 24        	ldy	$24                     ; 0x2024 <_ZN12_GLOBAL__N_15printEPKcP6Status+0x782>
    1a8f: a5 24        	lda	$24                     ; 0x2024 <_ZN12_GLOBAL__N_15printEPKcP6Status+0x782>
    1a91: 84 18        	sty	$18                     ; 0x2018 <_ZN12_GLOBAL__N_15printEPKcP6Status+0x776>
    1a93: 18           	clc
    1a94: 69 11        	adc	#$11
    1a96: 85 14        	sta	$14                     ; 0x2014 <_ZN12_GLOBAL__N_15printEPKcP6Status+0x772>
    1a98: a5 25        	lda	$25                     ; 0x2025 <_ZN12_GLOBAL__N_15printEPKcP6Status+0x783>
    1a9a: 69 00        	adc	#$0
    1a9c: a0 11        	ldy	#$11
    1a9e: 85 15        	sta	$15                     ; 0x2015 <_ZN12_GLOBAL__N_15printEPKcP6Status+0x773>
    1aa0: b1 24        	lda	($24),y                 ; 0x2024 <_ZN12_GLOBAL__N_15printEPKcP6Status+0x782>
    1aa2: 85 16        	sta	$16                     ; 0x2016 <_ZN12_GLOBAL__N_15printEPKcP6Status+0x774>
    1aa4: a0 01        	ldy	#$1
    1aa6: b1 14        	lda	($14),y                 ; 0x2014 <_ZN12_GLOBAL__N_15printEPKcP6Status+0x772>
    1aa8: 85 19        	sta	$19                     ; 0x2019 <_ZN12_GLOBAL__N_15printEPKcP6Status+0x777>
    1aaa: a5 16        	lda	$16                     ; 0x2016 <_ZN12_GLOBAL__N_15printEPKcP6Status+0x774>
    1aac: a6 19        	ldx	$19                     ; 0x2019 <_ZN12_GLOBAL__N_15printEPKcP6Status+0x777>
    1aae: 86 17        	stx	$17                     ; 0x2017 <_ZN12_GLOBAL__N_15printEPKcP6Status+0x775>
    1ab0: 18           	clc
    1ab1: 69 02        	adc	#$2
    1ab3: 85 1a        	sta	$1a                     ; 0x201a <_ZN12_GLOBAL__N_15printEPKcP6Status+0x778>
    1ab5: a5 19        	lda	$19                     ; 0x2019 <_ZN12_GLOBAL__N_15printEPKcP6Status+0x777>
    1ab7: 69 00        	adc	#$0
    1ab9: 85 19        	sta	$19                     ; 0x2019 <_ZN12_GLOBAL__N_15printEPKcP6Status+0x777>
    1abb: a0 11        	ldy	#$11
    1abd: a5 1a        	lda	$1a                     ; 0x201a <_ZN12_GLOBAL__N_15printEPKcP6Status+0x778>
    1abf: 91 24        	sta	($24),y                 ; 0x2024 <_ZN12_GLOBAL__N_15printEPKcP6Status+0x782>
    1ac1: a5 19        	lda	$19                     ; 0x2019 <_ZN12_GLOBAL__N_15printEPKcP6Status+0x777>
    1ac3: a0 01        	ldy	#$1
    1ac5: 91 14        	sta	($14),y                 ; 0x2014 <_ZN12_GLOBAL__N_15printEPKcP6Status+0x772>
    1ac7: b2 16        	lda	($16)                   ; 0x2016 <_ZN12_GLOBAL__N_15printEPKcP6Status+0x774>
    1ac9: 85 14        	sta	$14                     ; 0x2014 <_ZN12_GLOBAL__N_15printEPKcP6Status+0x772>
    1acb: b1 16        	lda	($16),y                 ; 0x2016 <_ZN12_GLOBAL__N_15printEPKcP6Status+0x774>
    1acd: 85 16        	sta	$16                     ; 0x2016 <_ZN12_GLOBAL__N_15printEPKcP6Status+0x774>
    1acf: a0 0d        	ldy	#$d
    1ad1: a5 14        	lda	$14                     ; 0x2014 <_ZN12_GLOBAL__N_15printEPKcP6Status+0x772>
    1ad3: 91 24        	sta	($24),y                 ; 0x2024 <_ZN12_GLOBAL__N_15printEPKcP6Status+0x782>
    1ad5: 18           	clc
    1ad6: a5 18        	lda	$18                     ; 0x2018 <_ZN12_GLOBAL__N_15printEPKcP6Status+0x776>
    1ad8: 69 0d        	adc	#$d
    1ada: 85 14        	sta	$14                     ; 0x2014 <_ZN12_GLOBAL__N_15printEPKcP6Status+0x772>
    1adc: a5 25        	lda	$25                     ; 0x2025 <_ZN12_GLOBAL__N_15printEPKcP6Status+0x783>
    1ade: 69 00        	adc	#$0
    1ae0: 18           	clc
    1ae1: 85 15        	sta	$15                     ; 0x2015 <_ZN12_GLOBAL__N_15printEPKcP6Status+0x773>
    1ae3: a5 16        	lda	$16                     ; 0x2016 <_ZN12_GLOBAL__N_15printEPKcP6Status+0x774>
    1ae5: a0 01        	ldy	#$1
    1ae7: 91 14        	sta	($14),y                 ; 0x2014 <_ZN12_GLOBAL__N_15printEPKcP6Status+0x772>
    1ae9: a5 12        	lda	$12                     ; 0x2012 <_ZN12_GLOBAL__N_15printEPKcP6Status+0x770>
    1aeb: 69 02        	adc	#$2
    1aed: 85 12        	sta	$12                     ; 0x2012 <_ZN12_GLOBAL__N_15printEPKcP6Status+0x770>
    1aef: a5 13        	lda	$13                     ; 0x2013 <_ZN12_GLOBAL__N_15printEPKcP6Status+0x771>
    1af1: 69 00        	adc	#$0
    1af3: 85 13        	sta	$13                     ; 0x2013 <_ZN12_GLOBAL__N_15printEPKcP6Status+0x771>
    1af5: 4c 67 1b     	jmp	$1b67 <_ZN12_GLOBAL__N_15printEPKcP6Status+0x2c5>
    1af8: a6 28        	ldx	$28                     ; 0x2028 <_ZN12_GLOBAL__N_15printEPKcP6Status+0x786>
    1afa: 86 2c        	stx	$2c                     ; 0x202c <_ZN12_GLOBAL__N_15printEPKcP6Status+0x78a>
    1afc: a6 29        	ldx	$29                     ; 0x2029 <_ZN12_GLOBAL__N_15printEPKcP6Status+0x787>
    1afe: 86 2d        	stx	$2d                     ; 0x202d <_ZN12_GLOBAL__N_15printEPKcP6Status+0x78b>
    1b00: a6 14        	ldx	$14                     ; 0x2014 <_ZN12_GLOBAL__N_15printEPKcP6Status+0x772>
    1b02: 86 12        	stx	$12                     ; 0x2012 <_ZN12_GLOBAL__N_15printEPKcP6Status+0x770>
    1b04: a6 15        	ldx	$15                     ; 0x2015 <_ZN12_GLOBAL__N_15printEPKcP6Status+0x773>
    1b06: 86 13        	stx	$13                     ; 0x2013 <_ZN12_GLOBAL__N_15printEPKcP6Status+0x771>
    1b08: 18           	clc
    1b09: a5 10        	lda	$10                     ; 0x2010 <_ZN12_GLOBAL__N_15printEPKcP6Status+0x76e>
    1b0b: 69 18        	adc	#$18
    1b0d: 85 28        	sta	$28                     ; 0x2028 <_ZN12_GLOBAL__N_15printEPKcP6Status+0x786>
    1b0f: a5 11        	lda	$11                     ; 0x2011 <_ZN12_GLOBAL__N_15printEPKcP6Status+0x76f>
    1b11: 69 00        	adc	#$0
    1b13: 85 29        	sta	$29                     ; 0x2029 <_ZN12_GLOBAL__N_15printEPKcP6Status+0x787>
    1b15: a6 28        	ldx	$28                     ; 0x2028 <_ZN12_GLOBAL__N_15printEPKcP6Status+0x786>
    1b17: 86 14        	stx	$14                     ; 0x2014 <_ZN12_GLOBAL__N_15printEPKcP6Status+0x772>
    1b19: 85 15        	sta	$15                     ; 0x2015 <_ZN12_GLOBAL__N_15printEPKcP6Status+0x773>
    1b1b: 20 93 2a     	jsr	$2a93 <__simple_strtoui>
    1b1e: a0 0d        	ldy	#$d
    1b20: 91 24        	sta	($24),y                 ; 0x2024 <_ZN12_GLOBAL__N_15printEPKcP6Status+0x782>
    1b22: 18           	clc
    1b23: a5 24        	lda	$24                     ; 0x2024 <_ZN12_GLOBAL__N_15printEPKcP6Status+0x782>
    1b25: 69 0d        	adc	#$d
    1b27: 85 12        	sta	$12                     ; 0x2012 <_ZN12_GLOBAL__N_15printEPKcP6Status+0x770>
    1b29: a5 25        	lda	$25                     ; 0x2025 <_ZN12_GLOBAL__N_15printEPKcP6Status+0x783>
    1b2b: 69 00        	adc	#$0
    1b2d: 85 13        	sta	$13                     ; 0x2013 <_ZN12_GLOBAL__N_15printEPKcP6Status+0x771>
    1b2f: a0 01        	ldy	#$1
    1b31: 8a           	txa
    1b32: 91 12        	sta	($12),y                 ; 0x2012 <_ZN12_GLOBAL__N_15printEPKcP6Status+0x770>
    1b34: b2 28        	lda	($28)                   ; 0x2028 <_ZN12_GLOBAL__N_15printEPKcP6Status+0x786>
    1b36: 85 12        	sta	$12                     ; 0x2012 <_ZN12_GLOBAL__N_15printEPKcP6Status+0x770>
    1b38: b1 28        	lda	($28),y                 ; 0x2028 <_ZN12_GLOBAL__N_15printEPKcP6Status+0x786>
    1b3a: 85 13        	sta	$13                     ; 0x2013 <_ZN12_GLOBAL__N_15printEPKcP6Status+0x771>
    1b3c: b1 26        	lda	($26),y                 ; 0x2026 <_ZN12_GLOBAL__N_15printEPKcP6Status+0x784>
    1b3e: c5 13        	cmp	$13                     ; 0x2013 <_ZN12_GLOBAL__N_15printEPKcP6Status+0x771>
    1b40: d0 1d        	bne	$1b5f <_ZN12_GLOBAL__N_15printEPKcP6Status+0x2bd>
    1b42: b2 26        	lda	($26)                   ; 0x2026 <_ZN12_GLOBAL__N_15printEPKcP6Status+0x784>
    1b44: c5 12        	cmp	$12                     ; 0x2012 <_ZN12_GLOBAL__N_15printEPKcP6Status+0x770>
    1b46: d0 17        	bne	$1b5f <_ZN12_GLOBAL__N_15printEPKcP6Status+0x2bd>
    1b48: a0 0d        	ldy	#$d
    1b4a: a5 24        	lda	$24                     ; 0x2024 <_ZN12_GLOBAL__N_15printEPKcP6Status+0x782>
    1b4c: 18           	clc
    1b4d: 69 0d        	adc	#$d
    1b4f: 85 14        	sta	$14                     ; 0x2014 <_ZN12_GLOBAL__N_15printEPKcP6Status+0x772>
    1b51: a5 25        	lda	$25                     ; 0x2025 <_ZN12_GLOBAL__N_15printEPKcP6Status+0x783>
    1b53: 69 00        	adc	#$0
    1b55: 85 15        	sta	$15                     ; 0x2015 <_ZN12_GLOBAL__N_15printEPKcP6Status+0x773>
    1b57: a9 00        	lda	#$0
    1b59: 91 24        	sta	($24),y                 ; 0x2024 <_ZN12_GLOBAL__N_15printEPKcP6Status+0x782>
    1b5b: a0 01        	ldy	#$1
    1b5d: 91 14        	sta	($14),y                 ; 0x2014 <_ZN12_GLOBAL__N_15printEPKcP6Status+0x772>
    1b5f: a6 2c        	ldx	$2c                     ; 0x202c <_ZN12_GLOBAL__N_15printEPKcP6Status+0x78a>
    1b61: 86 28        	stx	$28                     ; 0x2028 <_ZN12_GLOBAL__N_15printEPKcP6Status+0x786>
    1b63: a6 2d        	ldx	$2d                     ; 0x202d <_ZN12_GLOBAL__N_15printEPKcP6Status+0x78b>
    1b65: 86 29        	stx	$29                     ; 0x2029 <_ZN12_GLOBAL__N_15printEPKcP6Status+0x787>
    1b67: a6 24        	ldx	$24                     ; 0x2024 <_ZN12_GLOBAL__N_15printEPKcP6Status+0x782>
    1b69: 86 14        	stx	$14                     ; 0x2014 <_ZN12_GLOBAL__N_15printEPKcP6Status+0x772>
    1b6b: a6 25        	ldx	$25                     ; 0x2025 <_ZN12_GLOBAL__N_15printEPKcP6Status+0x783>
    1b6d: 86 15        	stx	$15                     ; 0x2015 <_ZN12_GLOBAL__N_15printEPKcP6Status+0x773>
    1b6f: e6 14        	inc	$14                     ; 0x2014 <_ZN12_GLOBAL__N_15printEPKcP6Status+0x772>
    1b71: d0 02        	bne	$1b75 <_ZN12_GLOBAL__N_15printEPKcP6Status+0x2d3>
    1b73: e6 15        	inc	$15                     ; 0x2015 <_ZN12_GLOBAL__N_15printEPKcP6Status+0x773>
    1b75: b1 14        	lda	($14),y                 ; 0x2014 <_ZN12_GLOBAL__N_15printEPKcP6Status+0x772>
    1b77: 85 16        	sta	$16                     ; 0x2016 <_ZN12_GLOBAL__N_15printEPKcP6Status+0x774>
    1b79: a9 ef        	lda	#$ef
    1b7b: 31 24        	and	($24),y                 ; 0x2024 <_ZN12_GLOBAL__N_15printEPKcP6Status+0x782>
    1b7d: 91 24        	sta	($24),y                 ; 0x2024 <_ZN12_GLOBAL__N_15printEPKcP6Status+0x782>
    1b7f: a5 16        	lda	$16                     ; 0x2016 <_ZN12_GLOBAL__N_15printEPKcP6Status+0x774>
    1b81: 91 14        	sta	($14),y                 ; 0x2014 <_ZN12_GLOBAL__N_15printEPKcP6Status+0x772>
    1b83: a6 12        	ldx	$12                     ; 0x2012 <_ZN12_GLOBAL__N_15printEPKcP6Status+0x770>
    1b85: 86 14        	stx	$14                     ; 0x2014 <_ZN12_GLOBAL__N_15printEPKcP6Status+0x772>
    1b87: a6 13        	ldx	$13                     ; 0x2013 <_ZN12_GLOBAL__N_15printEPKcP6Status+0x771>
    1b89: 86 15        	stx	$15                     ; 0x2015 <_ZN12_GLOBAL__N_15printEPKcP6Status+0x773>
    1b8b: e6 14        	inc	$14                     ; 0x2014 <_ZN12_GLOBAL__N_15printEPKcP6Status+0x772>
    1b8d: d0 02        	bne	$1b91 <_ZN12_GLOBAL__N_15printEPKcP6Status+0x2ef>
    1b8f: e6 15        	inc	$15                     ; 0x2015 <_ZN12_GLOBAL__N_15printEPKcP6Status+0x773>
    1b91: a5 14        	lda	$14                     ; 0x2014 <_ZN12_GLOBAL__N_15printEPKcP6Status+0x772>
    1b93: 92 26        	sta	($26)                   ; 0x2026 <_ZN12_GLOBAL__N_15printEPKcP6Status+0x784>
    1b95: a5 15        	lda	$15                     ; 0x2015 <_ZN12_GLOBAL__N_15printEPKcP6Status+0x773>
    1b97: 91 26        	sta	($26),y                 ; 0x2026 <_ZN12_GLOBAL__N_15printEPKcP6Status+0x784>
    1b99: b2 12        	lda	($12)                   ; 0x2012 <_ZN12_GLOBAL__N_15printEPKcP6Status+0x770>
    1b9b: 38           	sec
    1b9c: aa           	tax
    1b9d: e9 6c        	sbc	#$6c
    1b9f: 50 02        	bvc	$1ba3 <_ZN12_GLOBAL__N_15printEPKcP6Status+0x301>
    1ba1: 49 80        	eor	#$80
    1ba3: c9 00        	cmp	#$0
    1ba5: 10 16        	bpl	$1bbd <_ZN12_GLOBAL__N_15printEPKcP6Status+0x31b>
    1ba7: e0 4c        	cpx	#$4c
    1ba9: f0 3c        	beq	$1be7 <_ZN12_GLOBAL__N_15printEPKcP6Status+0x345>
    1bab: 8a           	txa
    1bac: e0 68        	cpx	#$68
    1bae: d0 03        	bne	$1bb3 <_ZN12_GLOBAL__N_15printEPKcP6Status+0x311>
    1bb0: 4c 63 1c     	jmp	$1c63 <_ZN12_GLOBAL__N_15printEPKcP6Status+0x3c1>
    1bb3: a2 08        	ldx	#$8
    1bb5: a0 08        	ldy	#$8
    1bb7: c9 6a        	cmp	#$6a
    1bb9: d0 14        	bne	$1bcf <_ZN12_GLOBAL__N_15printEPKcP6Status+0x32d>
    1bbb: 80 4a        	bra	$1c07 <_ZN12_GLOBAL__N_15printEPKcP6Status+0x365>
    1bbd: e0 6c        	cpx	#$6c
    1bbf: d0 03        	bne	$1bc4 <_ZN12_GLOBAL__N_15printEPKcP6Status+0x322>
    1bc1: 4c 2e 1c     	jmp	$1c2e <_ZN12_GLOBAL__N_15printEPKcP6Status+0x38c>
    1bc4: 8a           	txa
    1bc5: e0 74        	cpx	#$74
    1bc7: f0 3a        	beq	$1c03 <_ZN12_GLOBAL__N_15printEPKcP6Status+0x361>
    1bc9: a2 02        	ldx	#$2
    1bcb: c9 7a        	cmp	#$7a
    1bcd: f0 14        	beq	$1be3 <_ZN12_GLOBAL__N_15printEPKcP6Status+0x341>
    1bcf: a5 12        	lda	$12                     ; 0x2012 <_ZN12_GLOBAL__N_15printEPKcP6Status+0x770>
    1bd1: 92 26        	sta	($26)                   ; 0x2026 <_ZN12_GLOBAL__N_15printEPKcP6Status+0x784>
    1bd3: a0 01        	ldy	#$1
    1bd5: a5 13        	lda	$13                     ; 0x2013 <_ZN12_GLOBAL__N_15printEPKcP6Status+0x771>
    1bd7: 91 26        	sta	($26),y                 ; 0x2026 <_ZN12_GLOBAL__N_15printEPKcP6Status+0x784>
    1bd9: a6 12        	ldx	$12                     ; 0x2012 <_ZN12_GLOBAL__N_15printEPKcP6Status+0x770>
    1bdb: 86 14        	stx	$14                     ; 0x2014 <_ZN12_GLOBAL__N_15printEPKcP6Status+0x772>
    1bdd: a6 13        	ldx	$13                     ; 0x2013 <_ZN12_GLOBAL__N_15printEPKcP6Status+0x771>
    1bdf: 86 15        	stx	$15                     ; 0x2015 <_ZN12_GLOBAL__N_15printEPKcP6Status+0x773>
    1be1: a2 02        	ldx	#$2
    1be3: a0 02        	ldy	#$2
    1be5: 80 20        	bra	$1c07 <_ZN12_GLOBAL__N_15printEPKcP6Status+0x365>
    1be7: a6 24        	ldx	$24                     ; 0x2024 <_ZN12_GLOBAL__N_15printEPKcP6Status+0x782>
    1be9: 86 12        	stx	$12                     ; 0x2012 <_ZN12_GLOBAL__N_15printEPKcP6Status+0x770>
    1beb: a6 25        	ldx	$25                     ; 0x2025 <_ZN12_GLOBAL__N_15printEPKcP6Status+0x783>
    1bed: 86 13        	stx	$13                     ; 0x2013 <_ZN12_GLOBAL__N_15printEPKcP6Status+0x771>
    1bef: e6 12        	inc	$12                     ; 0x2012 <_ZN12_GLOBAL__N_15printEPKcP6Status+0x770>
    1bf1: d0 02        	bne	$1bf5 <_ZN12_GLOBAL__N_15printEPKcP6Status+0x353>
    1bf3: e6 13        	inc	$13                     ; 0x2013 <_ZN12_GLOBAL__N_15printEPKcP6Status+0x771>
    1bf5: b1 12        	lda	($12),y                 ; 0x2012 <_ZN12_GLOBAL__N_15printEPKcP6Status+0x770>
    1bf7: 85 16        	sta	$16                     ; 0x2016 <_ZN12_GLOBAL__N_15printEPKcP6Status+0x774>
    1bf9: a9 40        	lda	#$40
    1bfb: 11 24        	ora	($24),y                 ; 0x2024 <_ZN12_GLOBAL__N_15printEPKcP6Status+0x782>
    1bfd: 91 24        	sta	($24),y                 ; 0x2024 <_ZN12_GLOBAL__N_15printEPKcP6Status+0x782>
    1bff: a5 16        	lda	$16                     ; 0x2016 <_ZN12_GLOBAL__N_15printEPKcP6Status+0x774>
    1c01: 91 12        	sta	($12),y                 ; 0x2012 <_ZN12_GLOBAL__N_15printEPKcP6Status+0x770>
    1c03: a0 02        	ldy	#$2
    1c05: a2 02        	ldx	#$2
    1c07: b2 14        	lda	($14)                   ; 0x2014 <_ZN12_GLOBAL__N_15printEPKcP6Status+0x772>
    1c09: 85 16        	sta	$16                     ; 0x2016 <_ZN12_GLOBAL__N_15printEPKcP6Status+0x774>
    1c0b: 86 2b        	stx	$2b                     ; 0x202b <_ZN12_GLOBAL__N_15printEPKcP6Status+0x789>
    1c0d: 98           	tya
    1c0e: a0 0c        	ldy	#$c
    1c10: 91 10        	sta	($10),y                 ; 0x2010 <_ZN12_GLOBAL__N_15printEPKcP6Status+0x76e>
    1c12: 18           	clc
    1c13: a5 16        	lda	$16                     ; 0x2016 <_ZN12_GLOBAL__N_15printEPKcP6Status+0x774>
    1c15: 69 9d        	adc	#$9d
    1c17: c9 16        	cmp	#$16
    1c19: 90 03        	bcc	$1c1e <_ZN12_GLOBAL__N_15printEPKcP6Status+0x37c>
    1c1b: 4c 97 1c     	jmp	$1c97 <_ZN12_GLOBAL__N_15printEPKcP6Status+0x3f5>
    1c1e: aa           	tax
    1c1f: b1 10        	lda	($10),y                 ; 0x2010 <_ZN12_GLOBAL__N_15printEPKcP6Status+0x76e>
    1c21: 8a           	txa
    1c22: 0a           	asl
    1c23: aa           	tax
    1c24: 7c 01 2c     	jmp	($2c01,x)               ; 0x2c01 <__BLOCK_SIZE+0xc01>
    1c27: a9 0a        	lda	#$a
    1c29: 92 24        	sta	($24)                   ; 0x2024 <_ZN12_GLOBAL__N_15printEPKcP6Status+0x782>
    1c2b: 4c 00 1e     	jmp	$1e00 <_ZN12_GLOBAL__N_15printEPKcP6Status+0x55e>
    1c2e: b1 12        	lda	($12),y                 ; 0x2012 <_ZN12_GLOBAL__N_15printEPKcP6Status+0x770>
    1c30: a2 04        	ldx	#$4
    1c32: a0 04        	ldy	#$4
    1c34: 48           	pha
    1c35: 98           	tya
    1c36: a0 0c        	ldy	#$c
    1c38: 91 10        	sta	($10),y                 ; 0x2010 <_ZN12_GLOBAL__N_15printEPKcP6Status+0x76e>
    1c3a: 68           	pla
    1c3b: 86 2b        	stx	$2b                     ; 0x202b <_ZN12_GLOBAL__N_15printEPKcP6Status+0x789>
    1c3d: 85 16        	sta	$16                     ; 0x2016 <_ZN12_GLOBAL__N_15printEPKcP6Status+0x774>
    1c3f: c9 6c        	cmp	#$6c
    1c41: d0 cf        	bne	$1c12 <_ZN12_GLOBAL__N_15printEPKcP6Status+0x370>
    1c43: a5 12        	lda	$12                     ; 0x2012 <_ZN12_GLOBAL__N_15printEPKcP6Status+0x770>
    1c45: 18           	clc
    1c46: 69 02        	adc	#$2
    1c48: aa           	tax
    1c49: a5 13        	lda	$13                     ; 0x2013 <_ZN12_GLOBAL__N_15printEPKcP6Status+0x771>
    1c4b: 69 00        	adc	#$0
    1c4d: 86 14        	stx	$14                     ; 0x2014 <_ZN12_GLOBAL__N_15printEPKcP6Status+0x772>
    1c4f: 85 15        	sta	$15                     ; 0x2015 <_ZN12_GLOBAL__N_15printEPKcP6Status+0x773>
    1c51: 85 12        	sta	$12                     ; 0x2012 <_ZN12_GLOBAL__N_15printEPKcP6Status+0x770>
    1c53: 8a           	txa
    1c54: 92 26        	sta	($26)                   ; 0x2026 <_ZN12_GLOBAL__N_15printEPKcP6Status+0x784>
    1c56: a0 01        	ldy	#$1
    1c58: a5 12        	lda	$12                     ; 0x2012 <_ZN12_GLOBAL__N_15printEPKcP6Status+0x770>
    1c5a: 91 26        	sta	($26),y                 ; 0x2026 <_ZN12_GLOBAL__N_15printEPKcP6Status+0x784>
    1c5c: a2 08        	ldx	#$8
    1c5e: a0 08        	ldy	#$8
    1c60: 4c 07 1c     	jmp	$1c07 <_ZN12_GLOBAL__N_15printEPKcP6Status+0x365>
    1c63: b1 12        	lda	($12),y                 ; 0x2012 <_ZN12_GLOBAL__N_15printEPKcP6Status+0x770>
    1c65: a2 02        	ldx	#$2
    1c67: a0 02        	ldy	#$2
    1c69: 48           	pha
    1c6a: 98           	tya
    1c6b: a0 0c        	ldy	#$c
    1c6d: 91 10        	sta	($10),y                 ; 0x2010 <_ZN12_GLOBAL__N_15printEPKcP6Status+0x76e>
    1c6f: 68           	pla
    1c70: 86 2b        	stx	$2b                     ; 0x202b <_ZN12_GLOBAL__N_15printEPKcP6Status+0x789>
    1c72: 85 16        	sta	$16                     ; 0x2016 <_ZN12_GLOBAL__N_15printEPKcP6Status+0x774>
    1c74: c9 68        	cmp	#$68
    1c76: f0 03        	beq	$1c7b <_ZN12_GLOBAL__N_15printEPKcP6Status+0x3d9>
    1c78: 4c 12 1c     	jmp	$1c12 <_ZN12_GLOBAL__N_15printEPKcP6Status+0x370>
    1c7b: a5 12        	lda	$12                     ; 0x2012 <_ZN12_GLOBAL__N_15printEPKcP6Status+0x770>
    1c7d: 18           	clc
    1c7e: 69 02        	adc	#$2
    1c80: aa           	tax
    1c81: a5 13        	lda	$13                     ; 0x2013 <_ZN12_GLOBAL__N_15printEPKcP6Status+0x771>
    1c83: 69 00        	adc	#$0
    1c85: 86 14        	stx	$14                     ; 0x2014 <_ZN12_GLOBAL__N_15printEPKcP6Status+0x772>
    1c87: 85 15        	sta	$15                     ; 0x2015 <_ZN12_GLOBAL__N_15printEPKcP6Status+0x773>
    1c89: 85 12        	sta	$12                     ; 0x2012 <_ZN12_GLOBAL__N_15printEPKcP6Status+0x770>
    1c8b: 8a           	txa
    1c8c: 92 26        	sta	($26)                   ; 0x2026 <_ZN12_GLOBAL__N_15printEPKcP6Status+0x784>
    1c8e: a0 01        	ldy	#$1
    1c90: a5 12        	lda	$12                     ; 0x2012 <_ZN12_GLOBAL__N_15printEPKcP6Status+0x770>
    1c92: 91 26        	sta	($26),y                 ; 0x2026 <_ZN12_GLOBAL__N_15printEPKcP6Status+0x784>
    1c94: 4c 05 1c     	jmp	$1c05 <_ZN12_GLOBAL__N_15printEPKcP6Status+0x363>
    1c97: a6 16        	ldx	$16                     ; 0x2016 <_ZN12_GLOBAL__N_15printEPKcP6Status+0x774>
    1c99: e0 58        	cpx	#$58
    1c9b: f0 03        	beq	$1ca0 <_ZN12_GLOBAL__N_15printEPKcP6Status+0x3fe>
    1c9d: 4c 9b 23     	jmp	$239b <_ZN12_GLOBAL__N_15printEPKcP6Status+0xaf9>
    1ca0: a9 10        	lda	#$10
    1ca2: 4c df 1d     	jmp	$1ddf <_ZN12_GLOBAL__N_15printEPKcP6Status+0x53d>
    1ca5: a9 10        	lda	#$10
    1ca7: 92 24        	sta	($24)                   ; 0x2024 <_ZN12_GLOBAL__N_15printEPKcP6Status+0x782>
    1ca9: a6 24        	ldx	$24                     ; 0x2024 <_ZN12_GLOBAL__N_15printEPKcP6Status+0x782>
    1cab: 86 12        	stx	$12                     ; 0x2012 <_ZN12_GLOBAL__N_15printEPKcP6Status+0x770>
    1cad: a6 25        	ldx	$25                     ; 0x2025 <_ZN12_GLOBAL__N_15printEPKcP6Status+0x783>
    1caf: 86 13        	stx	$13                     ; 0x2013 <_ZN12_GLOBAL__N_15printEPKcP6Status+0x771>
    1cb1: e6 12        	inc	$12                     ; 0x2012 <_ZN12_GLOBAL__N_15printEPKcP6Status+0x770>
    1cb3: d0 02        	bne	$1cb7 <_ZN12_GLOBAL__N_15printEPKcP6Status+0x415>
    1cb5: e6 13        	inc	$13                     ; 0x2013 <_ZN12_GLOBAL__N_15printEPKcP6Status+0x771>
    1cb7: a0 01        	ldy	#$1
    1cb9: a9 84        	lda	#$84
    1cbb: 80 16        	bra	$1cd3 <_ZN12_GLOBAL__N_15printEPKcP6Status+0x431>
    1cbd: a9 10        	lda	#$10
    1cbf: 92 24        	sta	($24)                   ; 0x2024 <_ZN12_GLOBAL__N_15printEPKcP6Status+0x782>
    1cc1: a6 24        	ldx	$24                     ; 0x2024 <_ZN12_GLOBAL__N_15printEPKcP6Status+0x782>
    1cc3: 86 12        	stx	$12                     ; 0x2012 <_ZN12_GLOBAL__N_15printEPKcP6Status+0x770>
    1cc5: a6 25        	ldx	$25                     ; 0x2025 <_ZN12_GLOBAL__N_15printEPKcP6Status+0x783>
    1cc7: 86 13        	stx	$13                     ; 0x2013 <_ZN12_GLOBAL__N_15printEPKcP6Status+0x771>
    1cc9: e6 12        	inc	$12                     ; 0x2012 <_ZN12_GLOBAL__N_15printEPKcP6Status+0x770>
    1ccb: d0 02        	bne	$1ccf <_ZN12_GLOBAL__N_15printEPKcP6Status+0x42d>
    1ccd: e6 13        	inc	$13                     ; 0x2013 <_ZN12_GLOBAL__N_15printEPKcP6Status+0x771>
    1ccf: a0 01        	ldy	#$1
    1cd1: a9 80        	lda	#$80
    1cd3: 11 24        	ora	($24),y                 ; 0x2024 <_ZN12_GLOBAL__N_15printEPKcP6Status+0x782>
    1cd5: aa           	tax
    1cd6: a9 01        	lda	#$1
    1cd8: 11 12        	ora	($12),y                 ; 0x2012 <_ZN12_GLOBAL__N_15printEPKcP6Status+0x770>
    1cda: 85 14        	sta	$14                     ; 0x2014 <_ZN12_GLOBAL__N_15printEPKcP6Status+0x772>
    1cdc: 8a           	txa
    1cdd: 91 24        	sta	($24),y                 ; 0x2024 <_ZN12_GLOBAL__N_15printEPKcP6Status+0x782>
    1cdf: a5 14        	lda	$14                     ; 0x2014 <_ZN12_GLOBAL__N_15printEPKcP6Status+0x772>
    1ce1: 4c fe 1d     	jmp	$1dfe <_ZN12_GLOBAL__N_15printEPKcP6Status+0x55c>
    1ce4: a4 24        	ldy	$24                     ; 0x2024 <_ZN12_GLOBAL__N_15printEPKcP6Status+0x782>
    1ce6: 18           	clc
    1ce7: a5 24        	lda	$24                     ; 0x2024 <_ZN12_GLOBAL__N_15printEPKcP6Status+0x782>
    1ce9: 84 18        	sty	$18                     ; 0x2018 <_ZN12_GLOBAL__N_15printEPKcP6Status+0x776>
    1ceb: 69 11        	adc	#$11
    1ced: 85 12        	sta	$12                     ; 0x2012 <_ZN12_GLOBAL__N_15printEPKcP6Status+0x770>
    1cef: a5 25        	lda	$25                     ; 0x2025 <_ZN12_GLOBAL__N_15printEPKcP6Status+0x783>
    1cf1: 69 00        	adc	#$0
    1cf3: 85 13        	sta	$13                     ; 0x2013 <_ZN12_GLOBAL__N_15printEPKcP6Status+0x771>
    1cf5: a0 11        	ldy	#$11
    1cf7: b1 24        	lda	($24),y                 ; 0x2024 <_ZN12_GLOBAL__N_15printEPKcP6Status+0x782>
    1cf9: 85 16        	sta	$16                     ; 0x2016 <_ZN12_GLOBAL__N_15printEPKcP6Status+0x774>
    1cfb: 18           	clc
    1cfc: 69 02        	adc	#$2
    1cfe: 91 24        	sta	($24),y                 ; 0x2024 <_ZN12_GLOBAL__N_15printEPKcP6Status+0x782>
    1d00: a0 01        	ldy	#$1
    1d02: b1 12        	lda	($12),y                 ; 0x2012 <_ZN12_GLOBAL__N_15printEPKcP6Status+0x770>
    1d04: 85 17        	sta	$17                     ; 0x2017 <_ZN12_GLOBAL__N_15printEPKcP6Status+0x775>
    1d06: 69 00        	adc	#$0
    1d08: 18           	clc
    1d09: 91 12        	sta	($12),y                 ; 0x2012 <_ZN12_GLOBAL__N_15printEPKcP6Status+0x770>
    1d0b: b2 16        	lda	($16)                   ; 0x2016 <_ZN12_GLOBAL__N_15printEPKcP6Status+0x774>
    1d0d: 85 12        	sta	$12                     ; 0x2012 <_ZN12_GLOBAL__N_15printEPKcP6Status+0x770>
    1d0f: b1 16        	lda	($16),y                 ; 0x2016 <_ZN12_GLOBAL__N_15printEPKcP6Status+0x774>
    1d11: 85 13        	sta	$13                     ; 0x2013 <_ZN12_GLOBAL__N_15printEPKcP6Status+0x771>
    1d13: a5 18        	lda	$18                     ; 0x2018 <_ZN12_GLOBAL__N_15printEPKcP6Status+0x776>
    1d15: 69 05        	adc	#$5
    1d17: 85 16        	sta	$16                     ; 0x2016 <_ZN12_GLOBAL__N_15printEPKcP6Status+0x774>
    1d19: a5 25        	lda	$25                     ; 0x2025 <_ZN12_GLOBAL__N_15printEPKcP6Status+0x783>
    1d1b: 69 00        	adc	#$0
    1d1d: 85 17        	sta	$17                     ; 0x2017 <_ZN12_GLOBAL__N_15printEPKcP6Status+0x775>
    1d1f: a0 05        	ldy	#$5
    1d21: b1 24        	lda	($24),y                 ; 0x2024 <_ZN12_GLOBAL__N_15printEPKcP6Status+0x782>
    1d23: 85 18        	sta	$18                     ; 0x2018 <_ZN12_GLOBAL__N_15printEPKcP6Status+0x776>
    1d25: a0 01        	ldy	#$1
    1d27: b1 16        	lda	($16),y                 ; 0x2016 <_ZN12_GLOBAL__N_15printEPKcP6Status+0x774>
    1d29: 85 16        	sta	$16                     ; 0x2016 <_ZN12_GLOBAL__N_15printEPKcP6Status+0x774>
    1d2b: a5 18        	lda	$18                     ; 0x2018 <_ZN12_GLOBAL__N_15printEPKcP6Status+0x776>
    1d2d: 92 12        	sta	($12)                   ; 0x2012 <_ZN12_GLOBAL__N_15printEPKcP6Status+0x770>
    1d2f: a5 16        	lda	$16                     ; 0x2016 <_ZN12_GLOBAL__N_15printEPKcP6Status+0x774>
    1d31: 91 12        	sta	($12),y                 ; 0x2012 <_ZN12_GLOBAL__N_15printEPKcP6Status+0x770>
    1d33: e6 14        	inc	$14                     ; 0x2014 <_ZN12_GLOBAL__N_15printEPKcP6Status+0x772>
    1d35: d0 02        	bne	$1d39 <_ZN12_GLOBAL__N_15printEPKcP6Status+0x497>
    1d37: e6 15        	inc	$15                     ; 0x2015 <_ZN12_GLOBAL__N_15printEPKcP6Status+0x773>
    1d39: a6 14        	ldx	$14                     ; 0x2014 <_ZN12_GLOBAL__N_15printEPKcP6Status+0x772>
    1d3b: 86 28        	stx	$28                     ; 0x2028 <_ZN12_GLOBAL__N_15printEPKcP6Status+0x786>
    1d3d: a6 15        	ldx	$15                     ; 0x2015 <_ZN12_GLOBAL__N_15printEPKcP6Status+0x773>
    1d3f: 86 29        	stx	$29                     ; 0x2029 <_ZN12_GLOBAL__N_15printEPKcP6Status+0x787>
    1d41: 4c 9b 23     	jmp	$239b <_ZN12_GLOBAL__N_15printEPKcP6Status+0xaf9>
    1d44: a0 11        	ldy	#$11
    1d46: a5 24        	lda	$24                     ; 0x2024 <_ZN12_GLOBAL__N_15printEPKcP6Status+0x782>
    1d48: 18           	clc
    1d49: 69 11        	adc	#$11
    1d4b: 85 12        	sta	$12                     ; 0x2012 <_ZN12_GLOBAL__N_15printEPKcP6Status+0x770>
    1d4d: a5 25        	lda	$25                     ; 0x2025 <_ZN12_GLOBAL__N_15printEPKcP6Status+0x783>
    1d4f: 69 00        	adc	#$0
    1d51: 85 13        	sta	$13                     ; 0x2013 <_ZN12_GLOBAL__N_15printEPKcP6Status+0x771>
    1d53: b1 24        	lda	($24),y                 ; 0x2024 <_ZN12_GLOBAL__N_15printEPKcP6Status+0x782>
    1d55: aa           	tax
    1d56: a0 01        	ldy	#$1
    1d58: b1 12        	lda	($12),y                 ; 0x2012 <_ZN12_GLOBAL__N_15printEPKcP6Status+0x770>
    1d5a: 86 14        	stx	$14                     ; 0x2014 <_ZN12_GLOBAL__N_15printEPKcP6Status+0x772>
    1d5c: 85 15        	sta	$15                     ; 0x2015 <_ZN12_GLOBAL__N_15printEPKcP6Status+0x773>
    1d5e: a8           	tay
    1d5f: 18           	clc
    1d60: 8a           	txa
    1d61: 69 02        	adc	#$2
    1d63: 85 16        	sta	$16                     ; 0x2016 <_ZN12_GLOBAL__N_15printEPKcP6Status+0x774>
    1d65: 98           	tya
    1d66: 69 00        	adc	#$0
    1d68: 85 17        	sta	$17                     ; 0x2017 <_ZN12_GLOBAL__N_15printEPKcP6Status+0x775>
    1d6a: a5 16        	lda	$16                     ; 0x2016 <_ZN12_GLOBAL__N_15printEPKcP6Status+0x774>
    1d6c: a0 11        	ldy	#$11
    1d6e: 91 24        	sta	($24),y                 ; 0x2024 <_ZN12_GLOBAL__N_15printEPKcP6Status+0x782>
    1d70: a0 01        	ldy	#$1
    1d72: a5 17        	lda	$17                     ; 0x2017 <_ZN12_GLOBAL__N_15printEPKcP6Status+0x775>
    1d74: 91 12        	sta	($12),y                 ; 0x2012 <_ZN12_GLOBAL__N_15printEPKcP6Status+0x770>
    1d76: b2 14        	lda	($14)                   ; 0x2014 <_ZN12_GLOBAL__N_15printEPKcP6Status+0x772>
    1d78: 85 12        	sta	$12                     ; 0x2012 <_ZN12_GLOBAL__N_15printEPKcP6Status+0x770>
    1d7a: b1 14        	lda	($14),y                 ; 0x2014 <_ZN12_GLOBAL__N_15printEPKcP6Status+0x772>
    1d7c: 85 13        	sta	$13                     ; 0x2013 <_ZN12_GLOBAL__N_15printEPKcP6Status+0x771>
    1d7e: 4c cf 1d     	jmp	$1dcf <_ZN12_GLOBAL__N_15printEPKcP6Status+0x52d>
    1d81: a9 08        	lda	#$8
    1d83: 4c df 1d     	jmp	$1ddf <_ZN12_GLOBAL__N_15printEPKcP6Status+0x53d>
    1d86: a0 11        	ldy	#$11
    1d88: a5 24        	lda	$24                     ; 0x2024 <_ZN12_GLOBAL__N_15printEPKcP6Status+0x782>
    1d8a: 18           	clc
    1d8b: 69 11        	adc	#$11
    1d8d: 85 12        	sta	$12                     ; 0x2012 <_ZN12_GLOBAL__N_15printEPKcP6Status+0x770>
    1d8f: a5 25        	lda	$25                     ; 0x2025 <_ZN12_GLOBAL__N_15printEPKcP6Status+0x783>
    1d91: 69 00        	adc	#$0
    1d93: 85 13        	sta	$13                     ; 0x2013 <_ZN12_GLOBAL__N_15printEPKcP6Status+0x771>
    1d95: b1 24        	lda	($24),y                 ; 0x2024 <_ZN12_GLOBAL__N_15printEPKcP6Status+0x782>
    1d97: aa           	tax
    1d98: a0 01        	ldy	#$1
    1d9a: b1 12        	lda	($12),y                 ; 0x2012 <_ZN12_GLOBAL__N_15printEPKcP6Status+0x770>
    1d9c: 86 14        	stx	$14                     ; 0x2014 <_ZN12_GLOBAL__N_15printEPKcP6Status+0x772>
    1d9e: 85 15        	sta	$15                     ; 0x2015 <_ZN12_GLOBAL__N_15printEPKcP6Status+0x773>
    1da0: a8           	tay
    1da1: 18           	clc
    1da2: 8a           	txa
    1da3: 69 02        	adc	#$2
    1da5: 85 16        	sta	$16                     ; 0x2016 <_ZN12_GLOBAL__N_15printEPKcP6Status+0x774>
    1da7: 98           	tya
    1da8: 69 00        	adc	#$0
    1daa: 85 17        	sta	$17                     ; 0x2017 <_ZN12_GLOBAL__N_15printEPKcP6Status+0x775>
    1dac: a5 16        	lda	$16                     ; 0x2016 <_ZN12_GLOBAL__N_15printEPKcP6Status+0x774>
    1dae: a0 11        	ldy	#$11
    1db0: 91 24        	sta	($24),y                 ; 0x2024 <_ZN12_GLOBAL__N_15printEPKcP6Status+0x782>
    1db2: a0 01        	ldy	#$1
    1db4: a5 17        	lda	$17                     ; 0x2017 <_ZN12_GLOBAL__N_15printEPKcP6Status+0x775>
    1db6: 91 12        	sta	($12),y                 ; 0x2012 <_ZN12_GLOBAL__N_15printEPKcP6Status+0x770>
    1db8: b2 14        	lda	($14)                   ; 0x2014 <_ZN12_GLOBAL__N_15printEPKcP6Status+0x772>
    1dba: 18           	clc
    1dbb: 48           	pha
    1dbc: a5 10        	lda	$10                     ; 0x2010 <_ZN12_GLOBAL__N_15printEPKcP6Status+0x76e>
    1dbe: 69 18        	adc	#$18
    1dc0: 85 12        	sta	$12                     ; 0x2012 <_ZN12_GLOBAL__N_15printEPKcP6Status+0x770>
    1dc2: a5 11        	lda	$11                     ; 0x2011 <_ZN12_GLOBAL__N_15printEPKcP6Status+0x76f>
    1dc4: 69 00        	adc	#$0
    1dc6: 85 13        	sta	$13                     ; 0x2013 <_ZN12_GLOBAL__N_15printEPKcP6Status+0x771>
    1dc8: 68           	pla
    1dc9: 92 12        	sta	($12)                   ; 0x2012 <_ZN12_GLOBAL__N_15printEPKcP6Status+0x770>
    1dcb: a9 00        	lda	#$0
    1dcd: 91 12        	sta	($12),y                 ; 0x2012 <_ZN12_GLOBAL__N_15printEPKcP6Status+0x770>
    1dcf: a6 24        	ldx	$24                     ; 0x2024 <_ZN12_GLOBAL__N_15printEPKcP6Status+0x782>
    1dd1: 86 14        	stx	$14                     ; 0x2014 <_ZN12_GLOBAL__N_15printEPKcP6Status+0x772>
    1dd3: a6 25        	ldx	$25                     ; 0x2025 <_ZN12_GLOBAL__N_15printEPKcP6Status+0x783>
    1dd5: 86 15        	stx	$15                     ; 0x2015 <_ZN12_GLOBAL__N_15printEPKcP6Status+0x773>
    1dd7: 20 c7 24     	jsr	$24c7 <_ZN12_GLOBAL__N_112print_stringEPKcP6Status>
    1dda: 4c 8b 23     	jmp	$238b <_ZN12_GLOBAL__N_15printEPKcP6Status+0xae9>
    1ddd: a9 0a        	lda	#$a
    1ddf: 92 24        	sta	($24)                   ; 0x2024 <_ZN12_GLOBAL__N_15printEPKcP6Status+0x782>
    1de1: a6 24        	ldx	$24                     ; 0x2024 <_ZN12_GLOBAL__N_15printEPKcP6Status+0x782>
    1de3: 86 12        	stx	$12                     ; 0x2012 <_ZN12_GLOBAL__N_15printEPKcP6Status+0x770>
    1de5: a6 25        	ldx	$25                     ; 0x2025 <_ZN12_GLOBAL__N_15printEPKcP6Status+0x783>
    1de7: 86 13        	stx	$13                     ; 0x2013 <_ZN12_GLOBAL__N_15printEPKcP6Status+0x771>
    1de9: e6 12        	inc	$12                     ; 0x2012 <_ZN12_GLOBAL__N_15printEPKcP6Status+0x770>
    1deb: d0 02        	bne	$1def <_ZN12_GLOBAL__N_15printEPKcP6Status+0x54d>
    1ded: e6 13        	inc	$13                     ; 0x2013 <_ZN12_GLOBAL__N_15printEPKcP6Status+0x771>
    1def: a0 01        	ldy	#$1
    1df1: b1 24        	lda	($24),y                 ; 0x2024 <_ZN12_GLOBAL__N_15printEPKcP6Status+0x782>
    1df3: 85 14        	sta	$14                     ; 0x2014 <_ZN12_GLOBAL__N_15printEPKcP6Status+0x772>
    1df5: 98           	tya
    1df6: 11 12        	ora	($12),y                 ; 0x2012 <_ZN12_GLOBAL__N_15printEPKcP6Status+0x770>
    1df8: aa           	tax
    1df9: a5 14        	lda	$14                     ; 0x2014 <_ZN12_GLOBAL__N_15printEPKcP6Status+0x772>
    1dfb: 91 24        	sta	($24),y                 ; 0x2024 <_ZN12_GLOBAL__N_15printEPKcP6Status+0x782>
    1dfd: 8a           	txa
    1dfe: 91 12        	sta	($12),y                 ; 0x2012 <_ZN12_GLOBAL__N_15printEPKcP6Status+0x770>
    1e00: 18           	clc
    1e01: a5 10        	lda	$10                     ; 0x2010 <_ZN12_GLOBAL__N_15printEPKcP6Status+0x76e>
    1e03: 69 0d        	adc	#$d
    1e05: 85 28        	sta	$28                     ; 0x2028 <_ZN12_GLOBAL__N_15printEPKcP6Status+0x786>
    1e07: a5 11        	lda	$11                     ; 0x2011 <_ZN12_GLOBAL__N_15printEPKcP6Status+0x76f>
    1e09: 69 00        	adc	#$0
    1e0b: 85 29        	sta	$29                     ; 0x2029 <_ZN12_GLOBAL__N_15printEPKcP6Status+0x787>
    1e0d: a6 28        	ldx	$28                     ; 0x2028 <_ZN12_GLOBAL__N_15printEPKcP6Status+0x786>
    1e0f: 86 12        	stx	$12                     ; 0x2012 <_ZN12_GLOBAL__N_15printEPKcP6Status+0x770>
    1e11: 85 13        	sta	$13                     ; 0x2013 <_ZN12_GLOBAL__N_15printEPKcP6Status+0x771>
    1e13: a0 0c        	ldy	#$c
    1e15: b1 10        	lda	($10),y                 ; 0x2010 <_ZN12_GLOBAL__N_15printEPKcP6Status+0x76e>
    1e17: 20 5e 05     	jsr	$55e <_ZN6__impl6VarInt4makeEPvc>
    1e1a: a6 28        	ldx	$28                     ; 0x2028 <_ZN12_GLOBAL__N_15printEPKcP6Status+0x786>
    1e1c: 86 12        	stx	$12                     ; 0x2012 <_ZN12_GLOBAL__N_15printEPKcP6Status+0x770>
    1e1e: a6 29        	ldx	$29                     ; 0x2029 <_ZN12_GLOBAL__N_15printEPKcP6Status+0x787>
    1e20: 86 13        	stx	$13                     ; 0x2013 <_ZN12_GLOBAL__N_15printEPKcP6Status+0x771>
    1e22: e6 12        	inc	$12                     ; 0x2012 <_ZN12_GLOBAL__N_15printEPKcP6Status+0x770>
    1e24: d0 02        	bne	$1e28 <_ZN12_GLOBAL__N_15printEPKcP6Status+0x586>
    1e26: e6 13        	inc	$13                     ; 0x2013 <_ZN12_GLOBAL__N_15printEPKcP6Status+0x771>
    1e28: a0 11        	ldy	#$11
    1e2a: a2 00        	ldx	#$0
    1e2c: a5 24        	lda	$24                     ; 0x2024 <_ZN12_GLOBAL__N_15printEPKcP6Status+0x782>
    1e2e: 18           	clc
    1e2f: 69 11        	adc	#$11
    1e31: 85 2c        	sta	$2c                     ; 0x202c <_ZN12_GLOBAL__N_15printEPKcP6Status+0x78a>
    1e33: a5 25        	lda	$25                     ; 0x2025 <_ZN12_GLOBAL__N_15printEPKcP6Status+0x783>
    1e35: 69 00        	adc	#$0
    1e37: 85 2d        	sta	$2d                     ; 0x202d <_ZN12_GLOBAL__N_15printEPKcP6Status+0x78b>
    1e39: b1 24        	lda	($24),y                 ; 0x2024 <_ZN12_GLOBAL__N_15printEPKcP6Status+0x782>
    1e3b: 85 2f        	sta	$2f                     ; 0x202f <_ZN12_GLOBAL__N_15printEPKcP6Status+0x78d>
    1e3d: a0 01        	ldy	#$1
    1e3f: b1 2c        	lda	($2c),y                 ; 0x202c <_ZN12_GLOBAL__N_15printEPKcP6Status+0x78a>
    1e41: a4 2f        	ldy	$2f                     ; 0x202f <_ZN12_GLOBAL__N_15printEPKcP6Status+0x78d>
    1e43: 84 14        	sty	$14                     ; 0x2014 <_ZN12_GLOBAL__N_15printEPKcP6Status+0x772>
    1e45: 85 15        	sta	$15                     ; 0x2015 <_ZN12_GLOBAL__N_15printEPKcP6Status+0x773>
    1e47: 85 2e        	sta	$2e                     ; 0x202e <_ZN12_GLOBAL__N_15printEPKcP6Status+0x78c>
    1e49: b2 28        	lda	($28)                   ; 0x2028 <_ZN12_GLOBAL__N_15printEPKcP6Status+0x786>
    1e4b: 64 16        	stz	$16                     ; 0x2016 <_ZN12_GLOBAL__N_15printEPKcP6Status+0x774>
    1e4d: 48           	pha
    1e4e: 8a           	txa
    1e4f: a0 0c        	ldy	#$c
    1e51: 91 10        	sta	($10),y                 ; 0x2010 <_ZN12_GLOBAL__N_15printEPKcP6Status+0x76e>
    1e53: 68           	pla
    1e54: 20 0e 2a     	jsr	$2a0e <memcpy>
    1e57: 18           	clc
    1e58: a9 00        	lda	#$0
    1e5a: a0 0a        	ldy	#$a
    1e5c: 91 10        	sta	($10),y                 ; 0x2010 <_ZN12_GLOBAL__N_15printEPKcP6Status+0x76e>
    1e5e: a5 2f        	lda	$2f                     ; 0x202f <_ZN12_GLOBAL__N_15printEPKcP6Status+0x78d>
    1e60: 65 2b        	adc	$2b                     ; 0x202b <_ZN12_GLOBAL__N_15printEPKcP6Status+0x789>
    1e62: aa           	tax
    1e63: a5 2e        	lda	$2e                     ; 0x202e <_ZN12_GLOBAL__N_15printEPKcP6Status+0x78c>
    1e65: 69 00        	adc	#$0
    1e67: 85 12        	sta	$12                     ; 0x2012 <_ZN12_GLOBAL__N_15printEPKcP6Status+0x770>
    1e69: a0 11        	ldy	#$11
    1e6b: 8a           	txa
    1e6c: 91 24        	sta	($24),y                 ; 0x2024 <_ZN12_GLOBAL__N_15printEPKcP6Status+0x782>
    1e6e: a0 01        	ldy	#$1
    1e70: a5 12        	lda	$12                     ; 0x2012 <_ZN12_GLOBAL__N_15printEPKcP6Status+0x770>
    1e72: 91 2c        	sta	($2c),y                 ; 0x202c <_ZN12_GLOBAL__N_15printEPKcP6Status+0x78a>
    1e74: a6 24        	ldx	$24                     ; 0x2024 <_ZN12_GLOBAL__N_15printEPKcP6Status+0x782>
    1e76: 86 12        	stx	$12                     ; 0x2012 <_ZN12_GLOBAL__N_15printEPKcP6Status+0x770>
    1e78: a6 25        	ldx	$25                     ; 0x2025 <_ZN12_GLOBAL__N_15printEPKcP6Status+0x783>
    1e7a: 86 13        	stx	$13                     ; 0x2013 <_ZN12_GLOBAL__N_15printEPKcP6Status+0x771>
    1e7c: e6 12        	inc	$12                     ; 0x2012 <_ZN12_GLOBAL__N_15printEPKcP6Status+0x770>
    1e7e: d0 02        	bne	$1e82 <_ZN12_GLOBAL__N_15printEPKcP6Status+0x5e0>
    1e80: e6 13        	inc	$13                     ; 0x2013 <_ZN12_GLOBAL__N_15printEPKcP6Status+0x771>
    1e82: a9 01        	lda	#$1
    1e84: 31 12        	and	($12),y                 ; 0x2012 <_ZN12_GLOBAL__N_15printEPKcP6Status+0x770>
    1e86: d0 21        	bne	$1ea9 <_ZN12_GLOBAL__N_15printEPKcP6Status+0x607>
    1e88: a6 28        	ldx	$28                     ; 0x2028 <_ZN12_GLOBAL__N_15printEPKcP6Status+0x786>
    1e8a: 86 12        	stx	$12                     ; 0x2012 <_ZN12_GLOBAL__N_15printEPKcP6Status+0x770>
    1e8c: a6 29        	ldx	$29                     ; 0x2029 <_ZN12_GLOBAL__N_15printEPKcP6Status+0x787>
    1e8e: 86 13        	stx	$13                     ; 0x2013 <_ZN12_GLOBAL__N_15printEPKcP6Status+0x771>
    1e90: 20 70 05     	jsr	$570 <_ZNK6__impl6VarInt8negativeEv>
    1e93: 29 01        	and	#$1
    1e95: f0 12        	beq	$1ea9 <_ZN12_GLOBAL__N_15printEPKcP6Status+0x607>
    1e97: a6 28        	ldx	$28                     ; 0x2028 <_ZN12_GLOBAL__N_15printEPKcP6Status+0x786>
    1e99: 86 12        	stx	$12                     ; 0x2012 <_ZN12_GLOBAL__N_15printEPKcP6Status+0x770>
    1e9b: a6 29        	ldx	$29                     ; 0x2029 <_ZN12_GLOBAL__N_15printEPKcP6Status+0x787>
    1e9d: 86 13        	stx	$13                     ; 0x2013 <_ZN12_GLOBAL__N_15printEPKcP6Status+0x771>
    1e9f: 20 7e 05     	jsr	$57e <_ZN6__impl6VarInt6negateEv>
    1ea2: 38           	sec
    1ea3: a9 01        	lda	#$1
    1ea5: a0 0a        	ldy	#$a
    1ea7: 91 10        	sta	($10),y                 ; 0x2010 <_ZN12_GLOBAL__N_15printEPKcP6Status+0x76e>
    1ea9: b2 28        	lda	($28)                   ; 0x2028 <_ZN12_GLOBAL__N_15printEPKcP6Status+0x786>
    1eab: d0 03        	bne	$1eb0 <_ZN12_GLOBAL__N_15printEPKcP6Status+0x60e>
    1ead: 4c a7 1f     	jmp	$1fa7 <_ZN12_GLOBAL__N_15printEPKcP6Status+0x705>
    1eb0: b2 24        	lda	($24)                   ; 0x2024 <_ZN12_GLOBAL__N_15printEPKcP6Status+0x782>
    1eb2: 85 2b        	sta	$2b                     ; 0x202b <_ZN12_GLOBAL__N_15printEPKcP6Status+0x789>
    1eb4: 18           	clc
    1eb5: a5 10        	lda	$10                     ; 0x2010 <_ZN12_GLOBAL__N_15printEPKcP6Status+0x76e>
    1eb7: 69 18        	adc	#$18
    1eb9: 48           	pha
    1eba: a5 11        	lda	$11                     ; 0x2011 <_ZN12_GLOBAL__N_15printEPKcP6Status+0x76f>
    1ebc: 69 00        	adc	#$0
    1ebe: 85 12        	sta	$12                     ; 0x2012 <_ZN12_GLOBAL__N_15printEPKcP6Status+0x770>
    1ec0: 68           	pla
    1ec1: 18           	clc
    1ec2: 69 02        	adc	#$2
    1ec4: 85 2c        	sta	$2c                     ; 0x202c <_ZN12_GLOBAL__N_15printEPKcP6Status+0x78a>
    1ec6: a5 12        	lda	$12                     ; 0x2012 <_ZN12_GLOBAL__N_15printEPKcP6Status+0x770>
    1ec8: 69 00        	adc	#$0
    1eca: 85 2d        	sta	$2d                     ; 0x202d <_ZN12_GLOBAL__N_15printEPKcP6Status+0x78b>
    1ecc: a2 00        	ldx	#$0
    1ece: a0 00        	ldy	#$0
    1ed0: 8a           	txa
    1ed1: d0 03        	bne	$1ed6 <_ZN12_GLOBAL__N_15printEPKcP6Status+0x634>
    1ed3: 4c 50 1f     	jmp	$1f50 <_ZN12_GLOBAL__N_15printEPKcP6Status+0x6ae>
    1ed6: 84 2f        	sty	$2f                     ; 0x202f <_ZN12_GLOBAL__N_15printEPKcP6Status+0x78d>
    1ed8: 86 2e        	stx	$2e                     ; 0x202e <_ZN12_GLOBAL__N_15printEPKcP6Status+0x78c>
    1eda: ca           	dex
    1edb: 86 13        	stx	$13                     ; 0x2013 <_ZN12_GLOBAL__N_15printEPKcP6Status+0x771>
    1edd: a2 00        	ldx	#$0
    1edf: 64 12        	stz	$12                     ; 0x2012 <_ZN12_GLOBAL__N_15printEPKcP6Status+0x770>
    1ee1: 80 0c        	bra	$1eef <_ZN12_GLOBAL__N_15printEPKcP6Status+0x64d>
    1ee3: a4 12        	ldy	$12                     ; 0x2012 <_ZN12_GLOBAL__N_15printEPKcP6Status+0x770>
    1ee5: 91 2c        	sta	($2c),y                 ; 0x202c <_ZN12_GLOBAL__N_15printEPKcP6Status+0x78a>
    1ee7: a4 13        	ldy	$13                     ; 0x2013 <_ZN12_GLOBAL__N_15printEPKcP6Status+0x771>
    1ee9: c4 12        	cpy	$12                     ; 0x2012 <_ZN12_GLOBAL__N_15printEPKcP6Status+0x770>
    1eeb: f0 2f        	beq	$1f1c <_ZN12_GLOBAL__N_15printEPKcP6Status+0x67a>
    1eed: e6 12        	inc	$12                     ; 0x2012 <_ZN12_GLOBAL__N_15printEPKcP6Status+0x770>
    1eef: a4 12        	ldy	$12                     ; 0x2012 <_ZN12_GLOBAL__N_15printEPKcP6Status+0x770>
    1ef1: b1 2c        	lda	($2c),y                 ; 0x202c <_ZN12_GLOBAL__N_15printEPKcP6Status+0x78a>
    1ef3: 0a           	asl
    1ef4: e0 00        	cpx	#$0
    1ef6: f0 02        	beq	$1efa <_ZN12_GLOBAL__N_15printEPKcP6Status+0x658>
    1ef8: 09 01        	ora	#$1
    1efa: c5 2b        	cmp	$2b                     ; 0x202b <_ZN12_GLOBAL__N_15printEPKcP6Status+0x789>
    1efc: a2 01        	ldx	#$1
    1efe: b0 02        	bcs	$1f02 <_ZN12_GLOBAL__N_15printEPKcP6Status+0x660>
    1f00: a2 00        	ldx	#$0
    1f02: 90 df        	bcc	$1ee3 <_ZN12_GLOBAL__N_15printEPKcP6Status+0x641>
    1f04: 38           	sec
    1f05: e5 2b        	sbc	$2b                     ; 0x202b <_ZN12_GLOBAL__N_15printEPKcP6Status+0x789>
    1f07: a4 12        	ldy	$12                     ; 0x2012 <_ZN12_GLOBAL__N_15printEPKcP6Status+0x770>
    1f09: 91 2c        	sta	($2c),y                 ; 0x202c <_ZN12_GLOBAL__N_15printEPKcP6Status+0x78a>
    1f0b: a4 13        	ldy	$13                     ; 0x2013 <_ZN12_GLOBAL__N_15printEPKcP6Status+0x771>
    1f0d: c4 12        	cpy	$12                     ; 0x2012 <_ZN12_GLOBAL__N_15printEPKcP6Status+0x770>
    1f0f: d0 dc        	bne	$1eed <_ZN12_GLOBAL__N_15printEPKcP6Status+0x64b>
    1f11: a4 2e        	ldy	$2e                     ; 0x202e <_ZN12_GLOBAL__N_15printEPKcP6Status+0x78c>
    1f13: a6 2e        	ldx	$2e                     ; 0x202e <_ZN12_GLOBAL__N_15printEPKcP6Status+0x78c>
    1f15: e8           	inx
    1f16: a9 01        	lda	#$1
    1f18: 91 2c        	sta	($2c),y                 ; 0x202c <_ZN12_GLOBAL__N_15printEPKcP6Status+0x78a>
    1f1a: 86 2e        	stx	$2e                     ; 0x202e <_ZN12_GLOBAL__N_15printEPKcP6Status+0x78c>
    1f1c: a6 28        	ldx	$28                     ; 0x2028 <_ZN12_GLOBAL__N_15printEPKcP6Status+0x786>
    1f1e: 86 12        	stx	$12                     ; 0x2012 <_ZN12_GLOBAL__N_15printEPKcP6Status+0x770>
    1f20: a6 29        	ldx	$29                     ; 0x2029 <_ZN12_GLOBAL__N_15printEPKcP6Status+0x787>
    1f22: 86 13        	stx	$13                     ; 0x2013 <_ZN12_GLOBAL__N_15printEPKcP6Status+0x771>
    1f24: 20 62 05     	jsr	$562 <_ZNK6__impl6VarInt8high_bitEv>
    1f27: 29 01        	and	#$1
    1f29: f0 21        	beq	$1f4c <_ZN12_GLOBAL__N_15printEPKcP6Status+0x6aa>
    1f2b: a0 00        	ldy	#$0
    1f2d: a5 2e        	lda	$2e                     ; 0x202e <_ZN12_GLOBAL__N_15printEPKcP6Status+0x78c>
    1f2f: f0 33        	beq	$1f64 <_ZN12_GLOBAL__N_15printEPKcP6Status+0x6c2>
    1f31: b1 2c        	lda	($2c),y                 ; 0x202c <_ZN12_GLOBAL__N_15printEPKcP6Status+0x78a>
    1f33: 1a           	inc
    1f34: 91 2c        	sta	($2c),y                 ; 0x202c <_ZN12_GLOBAL__N_15printEPKcP6Status+0x78a>
    1f36: c5 2b        	cmp	$2b                     ; 0x202b <_ZN12_GLOBAL__N_15printEPKcP6Status+0x789>
    1f38: 90 12        	bcc	$1f4c <_ZN12_GLOBAL__N_15printEPKcP6Status+0x6aa>
    1f3a: 38           	sec
    1f3b: e5 2b        	sbc	$2b                     ; 0x202b <_ZN12_GLOBAL__N_15printEPKcP6Status+0x789>
    1f3d: 91 2c        	sta	($2c),y                 ; 0x202c <_ZN12_GLOBAL__N_15printEPKcP6Status+0x78a>
    1f3f: c8           	iny
    1f40: 84 12        	sty	$12                     ; 0x2012 <_ZN12_GLOBAL__N_15printEPKcP6Status+0x770>
    1f42: a6 2e        	ldx	$2e                     ; 0x202e <_ZN12_GLOBAL__N_15printEPKcP6Status+0x78c>
    1f44: e4 12        	cpx	$12                     ; 0x2012 <_ZN12_GLOBAL__N_15printEPKcP6Status+0x770>
    1f46: d0 e9        	bne	$1f31 <_ZN12_GLOBAL__N_15printEPKcP6Status+0x68f>
    1f48: a4 2e        	ldy	$2e                     ; 0x202e <_ZN12_GLOBAL__N_15printEPKcP6Status+0x78c>
    1f4a: 80 18        	bra	$1f64 <_ZN12_GLOBAL__N_15printEPKcP6Status+0x6c2>
    1f4c: a4 2e        	ldy	$2e                     ; 0x202e <_ZN12_GLOBAL__N_15printEPKcP6Status+0x78c>
    1f4e: 80 1d        	bra	$1f6d <_ZN12_GLOBAL__N_15printEPKcP6Status+0x6cb>
    1f50: 84 2f        	sty	$2f                     ; 0x202f <_ZN12_GLOBAL__N_15printEPKcP6Status+0x78d>
    1f52: a6 28        	ldx	$28                     ; 0x2028 <_ZN12_GLOBAL__N_15printEPKcP6Status+0x786>
    1f54: 86 12        	stx	$12                     ; 0x2012 <_ZN12_GLOBAL__N_15printEPKcP6Status+0x770>
    1f56: a6 29        	ldx	$29                     ; 0x2029 <_ZN12_GLOBAL__N_15printEPKcP6Status+0x787>
    1f58: 86 13        	stx	$13                     ; 0x2013 <_ZN12_GLOBAL__N_15printEPKcP6Status+0x771>
    1f5a: 20 62 05     	jsr	$562 <_ZNK6__impl6VarInt8high_bitEv>
    1f5d: 29 01        	and	#$1
    1f5f: a0 00        	ldy	#$0
    1f61: aa           	tax
    1f62: f0 09        	beq	$1f6d <_ZN12_GLOBAL__N_15printEPKcP6Status+0x6cb>
    1f64: 5a           	phy
    1f65: fa           	plx
    1f66: e8           	inx
    1f67: a9 01        	lda	#$1
    1f69: 91 2c        	sta	($2c),y                 ; 0x202c <_ZN12_GLOBAL__N_15printEPKcP6Status+0x78a>
    1f6b: da           	phx
    1f6c: 7a           	ply
    1f6d: 98           	tya
    1f6e: a0 0c        	ldy	#$c
    1f70: 91 10        	sta	($10),y                 ; 0x2010 <_ZN12_GLOBAL__N_15printEPKcP6Status+0x76e>
    1f72: a6 28        	ldx	$28                     ; 0x2028 <_ZN12_GLOBAL__N_15printEPKcP6Status+0x786>
    1f74: 86 12        	stx	$12                     ; 0x2012 <_ZN12_GLOBAL__N_15printEPKcP6Status+0x770>
    1f76: a6 29        	ldx	$29                     ; 0x2029 <_ZN12_GLOBAL__N_15printEPKcP6Status+0x787>
    1f78: 86 13        	stx	$13                     ; 0x2013 <_ZN12_GLOBAL__N_15printEPKcP6Status+0x771>
    1f7a: 20 c6 05     	jsr	$5c6 <_ZN6__impl6VarInt3shlEv>
    1f7d: a4 2f        	ldy	$2f                     ; 0x202f <_ZN12_GLOBAL__N_15printEPKcP6Status+0x78d>
    1f7f: c8           	iny
    1f80: b2 28        	lda	($28)                   ; 0x2028 <_ZN12_GLOBAL__N_15printEPKcP6Status+0x786>
    1f82: 0a           	asl
    1f83: 64 13        	stz	$13                     ; 0x2013 <_ZN12_GLOBAL__N_15printEPKcP6Status+0x771>
    1f85: 26 13        	rol	$13                     ; 0x2013 <_ZN12_GLOBAL__N_15printEPKcP6Status+0x771>
    1f87: 0a           	asl
    1f88: 26 13        	rol	$13                     ; 0x2013 <_ZN12_GLOBAL__N_15printEPKcP6Status+0x771>
    1f8a: 0a           	asl
    1f8b: 26 13        	rol	$13                     ; 0x2013 <_ZN12_GLOBAL__N_15printEPKcP6Status+0x771>
    1f8d: a2 00        	ldx	#$0
    1f8f: e4 13        	cpx	$13                     ; 0x2013 <_ZN12_GLOBAL__N_15printEPKcP6Status+0x771>
    1f91: d0 06        	bne	$1f99 <_ZN12_GLOBAL__N_15printEPKcP6Status+0x6f7>
    1f93: 85 12        	sta	$12                     ; 0x2012 <_ZN12_GLOBAL__N_15printEPKcP6Status+0x770>
    1f95: c4 12        	cpy	$12                     ; 0x2012 <_ZN12_GLOBAL__N_15printEPKcP6Status+0x770>
    1f97: 80 02        	bra	$1f9b <_ZN12_GLOBAL__N_15printEPKcP6Status+0x6f9>
    1f99: e4 13        	cpx	$13                     ; 0x2013 <_ZN12_GLOBAL__N_15printEPKcP6Status+0x771>
    1f9b: 5a           	phy
    1f9c: a0 0c        	ldy	#$c
    1f9e: b1 10        	lda	($10),y                 ; 0x2010 <_ZN12_GLOBAL__N_15printEPKcP6Status+0x76e>
    1fa0: 7a           	ply
    1fa1: aa           	tax
    1fa2: b0 03        	bcs	$1fa7 <_ZN12_GLOBAL__N_15printEPKcP6Status+0x705>
    1fa4: 4c d0 1e     	jmp	$1ed0 <_ZN12_GLOBAL__N_15printEPKcP6Status+0x62e>
    1fa7: a5 24        	lda	$24                     ; 0x2024 <_ZN12_GLOBAL__N_15printEPKcP6Status+0x782>
    1fa9: 18           	clc
    1faa: 69 0d        	adc	#$d
    1fac: 85 12        	sta	$12                     ; 0x2012 <_ZN12_GLOBAL__N_15printEPKcP6Status+0x770>
    1fae: a5 25        	lda	$25                     ; 0x2025 <_ZN12_GLOBAL__N_15printEPKcP6Status+0x783>
    1fb0: 69 00        	adc	#$0
    1fb2: 85 13        	sta	$13                     ; 0x2013 <_ZN12_GLOBAL__N_15printEPKcP6Status+0x771>
    1fb4: a0 01        	ldy	#$1
    1fb6: b1 12        	lda	($12),y                 ; 0x2012 <_ZN12_GLOBAL__N_15printEPKcP6Status+0x770>
    1fb8: 30 0a        	bmi	$1fc4 <_ZN12_GLOBAL__N_15printEPKcP6Status+0x722>
    1fba: a0 0d        	ldy	#$d
    1fbc: 85 29        	sta	$29                     ; 0x2029 <_ZN12_GLOBAL__N_15printEPKcP6Status+0x787>
    1fbe: b1 24        	lda	($24),y                 ; 0x2024 <_ZN12_GLOBAL__N_15printEPKcP6Status+0x782>
    1fc0: 85 28        	sta	$28                     ; 0x2028 <_ZN12_GLOBAL__N_15printEPKcP6Status+0x786>
    1fc2: 80 04        	bra	$1fc8 <_ZN12_GLOBAL__N_15printEPKcP6Status+0x726>
    1fc4: 64 29        	stz	$29                     ; 0x2029 <_ZN12_GLOBAL__N_15printEPKcP6Status+0x787>
    1fc6: 84 28        	sty	$28                     ; 0x2028 <_ZN12_GLOBAL__N_15printEPKcP6Status+0x786>
    1fc8: a0 01        	ldy	#$1
    1fca: b1 24        	lda	($24),y                 ; 0x2024 <_ZN12_GLOBAL__N_15printEPKcP6Status+0x782>
    1fcc: 85 18        	sta	$18                     ; 0x2018 <_ZN12_GLOBAL__N_15printEPKcP6Status+0x776>
    1fce: 29 04        	and	#$4
    1fd0: f0 35        	beq	$2007 <_ZN12_GLOBAL__N_15printEPKcP6Status+0x765>
    1fd2: b2 24        	lda	($24)                   ; 0x2024 <_ZN12_GLOBAL__N_15printEPKcP6Status+0x782>
    1fd4: c9 10        	cmp	#$10
    1fd6: f0 18        	beq	$1ff0 <_ZN12_GLOBAL__N_15printEPKcP6Status+0x74e>
    1fd8: c9 08        	cmp	#$8
    1fda: d0 2b        	bne	$2007 <_ZN12_GLOBAL__N_15printEPKcP6Status+0x765>
    1fdc: a2 00        	ldx	#$0
    1fde: e4 29        	cpx	$29                     ; 0x2029 <_ZN12_GLOBAL__N_15printEPKcP6Status+0x787>
    1fe0: f0 03        	beq	$1fe5 <_ZN12_GLOBAL__N_15printEPKcP6Status+0x743>
    1fe2: 4c a6 21     	jmp	$21a6 <_ZN12_GLOBAL__N_15printEPKcP6Status+0x904>
    1fe5: 5a           	phy
    1fe6: a0 0c        	ldy	#$c
    1fe8: b1 10        	lda	($10),y                 ; 0x2010 <_ZN12_GLOBAL__N_15printEPKcP6Status+0x76e>
    1fea: 7a           	ply
    1feb: c5 28        	cmp	$28                     ; 0x2028 <_ZN12_GLOBAL__N_15printEPKcP6Status+0x786>
    1fed: 4c a8 21     	jmp	$21a8 <_ZN12_GLOBAL__N_15printEPKcP6Status+0x906>
    1ff0: 5a           	phy
    1ff1: a0 0c        	ldy	#$c
    1ff3: b1 10        	lda	($10),y                 ; 0x2010 <_ZN12_GLOBAL__N_15printEPKcP6Status+0x76e>
    1ff5: 7a           	ply
    1ff6: aa           	tax
    1ff7: f0 0e        	beq	$2007 <_ZN12_GLOBAL__N_15printEPKcP6Status+0x765>
    1ff9: a5 18        	lda	$18                     ; 0x2018 <_ZN12_GLOBAL__N_15printEPKcP6Status+0x776>
    1ffb: 29 80        	and	#$80
    1ffd: d0 03        	bne	$2002 <_ZN12_GLOBAL__N_15printEPKcP6Status+0x760>
    1fff: 4c c3 21     	jmp	$21c3 <_ZN12_GLOBAL__N_15printEPKcP6Status+0x921>
    2002: a2 78        	ldx	#$78
    2004: 4c c5 21     	jmp	$21c5 <_ZN12_GLOBAL__N_15printEPKcP6Status+0x923>
    2007: a5 18        	lda	$18                     ; 0x2018 <_ZN12_GLOBAL__N_15printEPKcP6Status+0x776>
    2009: a2 2d        	ldx	#$2d
    200b: 48           	pha
    200c: 5a           	phy
    200d: 8a           	txa
    200e: a0 09        	ldy	#$9
    2010: 91 10        	sta	($10),y                 ; 0x2010 <_ZN12_GLOBAL__N_15printEPKcP6Status+0x76e>
    2012: c8           	iny
    2013: b1 10        	lda	($10),y                 ; 0x2010 <_ZN12_GLOBAL__N_15printEPKcP6Status+0x76e>
    2015: 7a           	ply
    2016: 85 12        	sta	$12                     ; 0x2012 <_ZN12_GLOBAL__N_15printEPKcP6Status+0x770>
    2018: 68           	pla
    2019: a6 12        	ldx	$12                     ; 0x2012 <_ZN12_GLOBAL__N_15printEPKcP6Status+0x770>
    201b: f0 0d        	beq	$202a <_ZN12_GLOBAL__N_15printEPKcP6Status+0x788>
    201d: 18           	clc
    201e: a9 00        	lda	#$0
    2020: 5a           	phy
    2021: a0 0a        	ldy	#$a
    2023: 91 10        	sta	($10),y                 ; 0x2010 <_ZN12_GLOBAL__N_15printEPKcP6Status+0x76e>
    2025: 7a           	ply
    2026: 84 12        	sty	$12                     ; 0x2012 <_ZN12_GLOBAL__N_15printEPKcP6Status+0x770>
    2028: 80 2f        	bra	$2059 <_ZN12_GLOBAL__N_15printEPKcP6Status+0x7b7>
    202a: aa           	tax
    202b: 29 02        	and	#$2
    202d: a0 2b        	ldy	#$2b
    202f: 48           	pha
    2030: 98           	tya
    2031: a0 09        	ldy	#$9
    2033: 91 10        	sta	($10),y                 ; 0x2010 <_ZN12_GLOBAL__N_15printEPKcP6Status+0x76e>
    2035: 68           	pla
    2036: d0 16        	bne	$204e <_ZN12_GLOBAL__N_15printEPKcP6Status+0x7ac>
    2038: 8a           	txa
    2039: 29 08        	and	#$8
    203b: a0 01        	ldy	#$1
    203d: aa           	tax
    203e: f0 03        	beq	$2043 <_ZN12_GLOBAL__N_15printEPKcP6Status+0x7a1>
    2040: 4c 98 21     	jmp	$2198 <_ZN12_GLOBAL__N_15printEPKcP6Status+0x8f6>
    2043: 38           	sec
    2044: a9 01        	lda	#$1
    2046: a0 0a        	ldy	#$a
    2048: 91 10        	sta	($10),y                 ; 0x2010 <_ZN12_GLOBAL__N_15printEPKcP6Status+0x76e>
    204a: 64 12        	stz	$12                     ; 0x2012 <_ZN12_GLOBAL__N_15printEPKcP6Status+0x770>
    204c: 80 0b        	bra	$2059 <_ZN12_GLOBAL__N_15printEPKcP6Status+0x7b7>
    204e: 18           	clc
    204f: a9 00        	lda	#$0
    2051: a0 0a        	ldy	#$a
    2053: 91 10        	sta	($10),y                 ; 0x2010 <_ZN12_GLOBAL__N_15printEPKcP6Status+0x76e>
    2055: a2 01        	ldx	#$1
    2057: 86 12        	stx	$12                     ; 0x2012 <_ZN12_GLOBAL__N_15printEPKcP6Status+0x770>
    2059: a0 0c        	ldy	#$c
    205b: b1 10        	lda	($10),y                 ; 0x2010 <_ZN12_GLOBAL__N_15printEPKcP6Status+0x76e>
    205d: a8           	tay
    205e: a5 29        	lda	$29                     ; 0x2029 <_ZN12_GLOBAL__N_15printEPKcP6Status+0x787>
    2060: d0 4d        	bne	$20af <_ZN12_GLOBAL__N_15printEPKcP6Status+0x80d>
    2062: a6 28        	ldx	$28                     ; 0x2028 <_ZN12_GLOBAL__N_15printEPKcP6Status+0x786>
    2064: 84 13        	sty	$13                     ; 0x2013 <_ZN12_GLOBAL__N_15printEPKcP6Status+0x771>
    2066: e4 13        	cpx	$13                     ; 0x2013 <_ZN12_GLOBAL__N_15printEPKcP6Status+0x771>
    2068: a5 28        	lda	$28                     ; 0x2028 <_ZN12_GLOBAL__N_15printEPKcP6Status+0x786>
    206a: a6 29        	ldx	$29                     ; 0x2029 <_ZN12_GLOBAL__N_15printEPKcP6Status+0x787>
    206c: b0 03        	bcs	$2071 <_ZN12_GLOBAL__N_15printEPKcP6Status+0x7cf>
    206e: 98           	tya
    206f: a2 00        	ldx	#$0
    2071: 18           	clc
    2072: 85 19        	sta	$19                     ; 0x2019 <_ZN12_GLOBAL__N_15printEPKcP6Status+0x777>
    2074: 65 12        	adc	$12                     ; 0x2012 <_ZN12_GLOBAL__N_15printEPKcP6Status+0x770>
    2076: 85 1c        	sta	$1c                     ; 0x201c <_ZN12_GLOBAL__N_15printEPKcP6Status+0x77a>
    2078: 85 13        	sta	$13                     ; 0x2013 <_ZN12_GLOBAL__N_15printEPKcP6Status+0x771>
    207a: 86 1a        	stx	$1a                     ; 0x201a <_ZN12_GLOBAL__N_15printEPKcP6Status+0x778>
    207c: 8a           	txa
    207d: 69 00        	adc	#$0
    207f: 85 14        	sta	$14                     ; 0x2014 <_ZN12_GLOBAL__N_15printEPKcP6Status+0x772>
    2081: 85 1d        	sta	$1d                     ; 0x201d <_ZN12_GLOBAL__N_15printEPKcP6Status+0x77b>
    2083: a5 24        	lda	$24                     ; 0x2024 <_ZN12_GLOBAL__N_15printEPKcP6Status+0x782>
    2085: 18           	clc
    2086: 69 0b        	adc	#$b
    2088: 85 16        	sta	$16                     ; 0x2016 <_ZN12_GLOBAL__N_15printEPKcP6Status+0x774>
    208a: a5 25        	lda	$25                     ; 0x2025 <_ZN12_GLOBAL__N_15printEPKcP6Status+0x783>
    208c: 69 00        	adc	#$0
    208e: a0 0b        	ldy	#$b
    2090: 85 17        	sta	$17                     ; 0x2017 <_ZN12_GLOBAL__N_15printEPKcP6Status+0x775>
    2092: b1 24        	lda	($24),y                 ; 0x2024 <_ZN12_GLOBAL__N_15printEPKcP6Status+0x782>
    2094: 85 1b        	sta	$1b                     ; 0x201b <_ZN12_GLOBAL__N_15printEPKcP6Status+0x779>
    2096: 85 15        	sta	$15                     ; 0x2015 <_ZN12_GLOBAL__N_15printEPKcP6Status+0x773>
    2098: a0 01        	ldy	#$1
    209a: b1 16        	lda	($16),y                 ; 0x2016 <_ZN12_GLOBAL__N_15printEPKcP6Status+0x774>
    209c: 85 17        	sta	$17                     ; 0x2017 <_ZN12_GLOBAL__N_15printEPKcP6Status+0x775>
    209e: 85 16        	sta	$16                     ; 0x2016 <_ZN12_GLOBAL__N_15printEPKcP6Status+0x774>
    20a0: a5 1d        	lda	$1d                     ; 0x201d <_ZN12_GLOBAL__N_15printEPKcP6Status+0x77b>
    20a2: c5 16        	cmp	$16                     ; 0x2016 <_ZN12_GLOBAL__N_15printEPKcP6Status+0x774>
    20a4: d0 13        	bne	$20b9 <_ZN12_GLOBAL__N_15printEPKcP6Status+0x817>
    20a6: a6 1c        	ldx	$1c                     ; 0x201c <_ZN12_GLOBAL__N_15printEPKcP6Status+0x77a>
    20a8: e4 15        	cpx	$15                     ; 0x2015 <_ZN12_GLOBAL__N_15printEPKcP6Status+0x773>
    20aa: 90 13        	bcc	$20bf <_ZN12_GLOBAL__N_15printEPKcP6Status+0x81d>
    20ac: 4c 07 21     	jmp	$2107 <_ZN12_GLOBAL__N_15printEPKcP6Status+0x865>
    20af: a6 29        	ldx	$29                     ; 0x2029 <_ZN12_GLOBAL__N_15printEPKcP6Status+0x787>
    20b1: e0 00        	cpx	#$0
    20b3: a5 28        	lda	$28                     ; 0x2028 <_ZN12_GLOBAL__N_15printEPKcP6Status+0x786>
    20b5: 90 b7        	bcc	$206e <_ZN12_GLOBAL__N_15printEPKcP6Status+0x7cc>
    20b7: 80 b8        	bra	$2071 <_ZN12_GLOBAL__N_15printEPKcP6Status+0x7cf>
    20b9: a6 1d        	ldx	$1d                     ; 0x201d <_ZN12_GLOBAL__N_15printEPKcP6Status+0x77b>
    20bb: e4 16        	cpx	$16                     ; 0x2016 <_ZN12_GLOBAL__N_15printEPKcP6Status+0x774>
    20bd: b0 48        	bcs	$2107 <_ZN12_GLOBAL__N_15printEPKcP6Status+0x865>
    20bf: a5 18        	lda	$18                     ; 0x2018 <_ZN12_GLOBAL__N_15printEPKcP6Status+0x776>
    20c1: 29 11        	and	#$11
    20c3: f0 0d        	beq	$20d2 <_ZN12_GLOBAL__N_15printEPKcP6Status+0x830>
    20c5: a5 1b        	lda	$1b                     ; 0x201b <_ZN12_GLOBAL__N_15printEPKcP6Status+0x779>
    20c7: 38           	sec
    20c8: e5 13        	sbc	$13                     ; 0x2013 <_ZN12_GLOBAL__N_15printEPKcP6Status+0x771>
    20ca: 85 2a        	sta	$2a                     ; 0x202a <_ZN12_GLOBAL__N_15printEPKcP6Status+0x788>
    20cc: a5 17        	lda	$17                     ; 0x2017 <_ZN12_GLOBAL__N_15printEPKcP6Status+0x775>
    20ce: e5 14        	sbc	$14                     ; 0x2014 <_ZN12_GLOBAL__N_15printEPKcP6Status+0x772>
    20d0: 80 37        	bra	$2109 <_ZN12_GLOBAL__N_15printEPKcP6Status+0x867>
    20d2: 18           	clc
    20d3: a5 19        	lda	$19                     ; 0x2019 <_ZN12_GLOBAL__N_15printEPKcP6Status+0x777>
    20d5: 65 12        	adc	$12                     ; 0x2012 <_ZN12_GLOBAL__N_15printEPKcP6Status+0x770>
    20d7: aa           	tax
    20d8: a5 1a        	lda	$1a                     ; 0x201a <_ZN12_GLOBAL__N_15printEPKcP6Status+0x778>
    20da: 69 00        	adc	#$0
    20dc: 85 12        	sta	$12                     ; 0x2012 <_ZN12_GLOBAL__N_15printEPKcP6Status+0x770>
    20de: 38           	sec
    20df: 8a           	txa
    20e0: e5 15        	sbc	$15                     ; 0x2015 <_ZN12_GLOBAL__N_15printEPKcP6Status+0x773>
    20e2: 85 2b        	sta	$2b                     ; 0x202b <_ZN12_GLOBAL__N_15printEPKcP6Status+0x789>
    20e4: a5 12        	lda	$12                     ; 0x2012 <_ZN12_GLOBAL__N_15printEPKcP6Status+0x770>
    20e6: e5 16        	sbc	$16                     ; 0x2016 <_ZN12_GLOBAL__N_15printEPKcP6Status+0x774>
    20e8: 85 2c        	sta	$2c                     ; 0x202c <_ZN12_GLOBAL__N_15printEPKcP6Status+0x78a>
    20ea: a6 24        	ldx	$24                     ; 0x2024 <_ZN12_GLOBAL__N_15printEPKcP6Status+0x782>
    20ec: 86 12        	stx	$12                     ; 0x2012 <_ZN12_GLOBAL__N_15printEPKcP6Status+0x770>
    20ee: a6 25        	ldx	$25                     ; 0x2025 <_ZN12_GLOBAL__N_15printEPKcP6Status+0x783>
    20f0: 86 13        	stx	$13                     ; 0x2013 <_ZN12_GLOBAL__N_15printEPKcP6Status+0x771>
    20f2: a9 20        	lda	#$20
    20f4: 20 e6 23     	jsr	$23e6 <_ZN12_GLOBAL__N_13putEcP6Status>
    20f7: a6 2c        	ldx	$2c                     ; 0x202c <_ZN12_GLOBAL__N_15printEPKcP6Status+0x78a>
    20f9: e6 2b        	inc	$2b                     ; 0x202b <_ZN12_GLOBAL__N_15printEPKcP6Status+0x789>
    20fb: d0 01        	bne	$20fe <_ZN12_GLOBAL__N_15printEPKcP6Status+0x85c>
    20fd: e8           	inx
    20fe: 86 2c        	stx	$2c                     ; 0x202c <_ZN12_GLOBAL__N_15printEPKcP6Status+0x78a>
    2100: 8a           	txa
    2101: d0 e7        	bne	$20ea <_ZN12_GLOBAL__N_15printEPKcP6Status+0x848>
    2103: a5 2b        	lda	$2b                     ; 0x202b <_ZN12_GLOBAL__N_15printEPKcP6Status+0x789>
    2105: d0 e3        	bne	$20ea <_ZN12_GLOBAL__N_15printEPKcP6Status+0x848>
    2107: a9 00        	lda	#$0
    2109: 85 2b        	sta	$2b                     ; 0x202b <_ZN12_GLOBAL__N_15printEPKcP6Status+0x789>
    210b: a0 0a        	ldy	#$a
    210d: b1 10        	lda	($10),y                 ; 0x2010 <_ZN12_GLOBAL__N_15printEPKcP6Status+0x76e>
    210f: 85 12        	sta	$12                     ; 0x2012 <_ZN12_GLOBAL__N_15printEPKcP6Status+0x770>
    2111: a5 12        	lda	$12                     ; 0x2012 <_ZN12_GLOBAL__N_15printEPKcP6Status+0x770>
    2113: d0 0f        	bne	$2124 <_ZN12_GLOBAL__N_15printEPKcP6Status+0x882>
    2115: a6 24        	ldx	$24                     ; 0x2024 <_ZN12_GLOBAL__N_15printEPKcP6Status+0x782>
    2117: 86 12        	stx	$12                     ; 0x2012 <_ZN12_GLOBAL__N_15printEPKcP6Status+0x770>
    2119: a6 25        	ldx	$25                     ; 0x2025 <_ZN12_GLOBAL__N_15printEPKcP6Status+0x783>
    211b: 86 13        	stx	$13                     ; 0x2013 <_ZN12_GLOBAL__N_15printEPKcP6Status+0x771>
    211d: a0 09        	ldy	#$9
    211f: b1 10        	lda	($10),y                 ; 0x2010 <_ZN12_GLOBAL__N_15printEPKcP6Status+0x76e>
    2121: 20 e6 23     	jsr	$23e6 <_ZN12_GLOBAL__N_13putEcP6Status>
    2124: a0 0b        	ldy	#$b
    2126: b1 10        	lda	($10),y                 ; 0x2010 <_ZN12_GLOBAL__N_15printEPKcP6Status+0x76e>
    2128: 85 12        	sta	$12                     ; 0x2012 <_ZN12_GLOBAL__N_15printEPKcP6Status+0x770>
    212a: a5 12        	lda	$12                     ; 0x2012 <_ZN12_GLOBAL__N_15printEPKcP6Status+0x770>
    212c: f0 0f        	beq	$213d <_ZN12_GLOBAL__N_15printEPKcP6Status+0x89b>
    212e: a6 24        	ldx	$24                     ; 0x2024 <_ZN12_GLOBAL__N_15printEPKcP6Status+0x782>
    2130: 86 12        	stx	$12                     ; 0x2012 <_ZN12_GLOBAL__N_15printEPKcP6Status+0x770>
    2132: a6 25        	ldx	$25                     ; 0x2025 <_ZN12_GLOBAL__N_15printEPKcP6Status+0x783>
    2134: 86 13        	stx	$13                     ; 0x2013 <_ZN12_GLOBAL__N_15printEPKcP6Status+0x771>
    2136: a0 08        	ldy	#$8
    2138: b1 10        	lda	($10),y                 ; 0x2010 <_ZN12_GLOBAL__N_15printEPKcP6Status+0x76e>
    213a: 20 e6 23     	jsr	$23e6 <_ZN12_GLOBAL__N_13putEcP6Status>
    213d: a0 01        	ldy	#$1
    213f: b1 24        	lda	($24),y                 ; 0x2024 <_ZN12_GLOBAL__N_15printEPKcP6Status+0x782>
    2141: aa           	tax
    2142: 29 10        	and	#$10
    2144: f0 3a        	beq	$2180 <_ZN12_GLOBAL__N_15printEPKcP6Status+0x8de>
    2146: 8a           	txa
    2147: 29 01        	and	#$1
    2149: 48           	pha
    214a: a0 0c        	ldy	#$c
    214c: b1 10        	lda	($10),y                 ; 0x2010 <_ZN12_GLOBAL__N_15printEPKcP6Status+0x76e>
    214e: aa           	tax
    214f: 68           	pla
    2150: d0 33        	bne	$2185 <_ZN12_GLOBAL__N_15printEPKcP6Status+0x8e3>
    2152: a5 2b        	lda	$2b                     ; 0x202b <_ZN12_GLOBAL__N_15printEPKcP6Status+0x789>
    2154: d0 07        	bne	$215d <_ZN12_GLOBAL__N_15printEPKcP6Status+0x8bb>
    2156: a5 2a        	lda	$2a                     ; 0x202a <_ZN12_GLOBAL__N_15printEPKcP6Status+0x788>
    2158: d0 03        	bne	$215d <_ZN12_GLOBAL__N_15printEPKcP6Status+0x8bb>
    215a: 4c ec 21     	jmp	$21ec <_ZN12_GLOBAL__N_15printEPKcP6Status+0x94a>
    215d: a6 24        	ldx	$24                     ; 0x2024 <_ZN12_GLOBAL__N_15printEPKcP6Status+0x782>
    215f: 86 12        	stx	$12                     ; 0x2012 <_ZN12_GLOBAL__N_15printEPKcP6Status+0x770>
    2161: a6 25        	ldx	$25                     ; 0x2025 <_ZN12_GLOBAL__N_15printEPKcP6Status+0x783>
    2163: 86 13        	stx	$13                     ; 0x2013 <_ZN12_GLOBAL__N_15printEPKcP6Status+0x771>
    2165: a9 30        	lda	#$30
    2167: 20 e6 23     	jsr	$23e6 <_ZN12_GLOBAL__N_13putEcP6Status>
    216a: a2 ff        	ldx	#$ff
    216c: c6 2a        	dec	$2a                     ; 0x202a <_ZN12_GLOBAL__N_15printEPKcP6Status+0x788>
    216e: e4 2a        	cpx	$2a                     ; 0x202a <_ZN12_GLOBAL__N_15printEPKcP6Status+0x788>
    2170: d0 02        	bne	$2174 <_ZN12_GLOBAL__N_15printEPKcP6Status+0x8d2>
    2172: c6 2b        	dec	$2b                     ; 0x202b <_ZN12_GLOBAL__N_15printEPKcP6Status+0x789>
    2174: a5 2b        	lda	$2b                     ; 0x202b <_ZN12_GLOBAL__N_15printEPKcP6Status+0x789>
    2176: d0 e5        	bne	$215d <_ZN12_GLOBAL__N_15printEPKcP6Status+0x8bb>
    2178: a5 2a        	lda	$2a                     ; 0x202a <_ZN12_GLOBAL__N_15printEPKcP6Status+0x788>
    217a: d0 e1        	bne	$215d <_ZN12_GLOBAL__N_15printEPKcP6Status+0x8bb>
    217c: 64 2a        	stz	$2a                     ; 0x202a <_ZN12_GLOBAL__N_15printEPKcP6Status+0x788>
    217e: 64 2b        	stz	$2b                     ; 0x202b <_ZN12_GLOBAL__N_15printEPKcP6Status+0x789>
    2180: a0 0c        	ldy	#$c
    2182: b1 10        	lda	($10),y                 ; 0x2010 <_ZN12_GLOBAL__N_15printEPKcP6Status+0x76e>
    2184: aa           	tax
    2185: a0 00        	ldy	#$0
    2187: c4 29        	cpy	$29                     ; 0x2029 <_ZN12_GLOBAL__N_15printEPKcP6Status+0x787>
    2189: d0 03        	bne	$218e <_ZN12_GLOBAL__N_15printEPKcP6Status+0x8ec>
    218b: 4c f8 21     	jmp	$21f8 <_ZN12_GLOBAL__N_15printEPKcP6Status+0x956>
    218e: c4 29        	cpy	$29                     ; 0x2029 <_ZN12_GLOBAL__N_15printEPKcP6Status+0x787>
    2190: b0 03        	bcs	$2195 <_ZN12_GLOBAL__N_15printEPKcP6Status+0x8f3>
    2192: 4c fc 21     	jmp	$21fc <_ZN12_GLOBAL__N_15printEPKcP6Status+0x95a>
    2195: 4c 22 22     	jmp	$2222 <_ZN12_GLOBAL__N_15printEPKcP6Status+0x980>
    2198: a2 20        	ldx	#$20
    219a: 5a           	phy
    219b: 8a           	txa
    219c: a0 09        	ldy	#$9
    219e: 91 10        	sta	($10),y                 ; 0x2010 <_ZN12_GLOBAL__N_15printEPKcP6Status+0x76e>
    21a0: 18           	clc
    21a1: a9 00        	lda	#$0
    21a3: 4c 21 20     	jmp	$2021 <_ZN12_GLOBAL__N_15printEPKcP6Status+0x77f>
    21a6: e4 29        	cpx	$29                     ; 0x2029 <_ZN12_GLOBAL__N_15printEPKcP6Status+0x787>
    21a8: a5 18        	lda	$18                     ; 0x2018 <_ZN12_GLOBAL__N_15printEPKcP6Status+0x776>
    21aa: b0 03        	bcs	$21af <_ZN12_GLOBAL__N_15printEPKcP6Status+0x90d>
    21ac: 4c 09 20     	jmp	$2009 <_ZN12_GLOBAL__N_15printEPKcP6Status+0x767>
    21af: 48           	pha
    21b0: 5a           	phy
    21b1: a0 0c        	ldy	#$c
    21b3: b1 10        	lda	($10),y                 ; 0x2010 <_ZN12_GLOBAL__N_15printEPKcP6Status+0x76e>
    21b5: 7a           	ply
    21b6: 85 28        	sta	$28                     ; 0x2028 <_ZN12_GLOBAL__N_15printEPKcP6Status+0x786>
    21b8: 68           	pla
    21b9: e6 28        	inc	$28                     ; 0x2028 <_ZN12_GLOBAL__N_15printEPKcP6Status+0x786>
    21bb: d0 01        	bne	$21be <_ZN12_GLOBAL__N_15printEPKcP6Status+0x91c>
    21bd: e8           	inx
    21be: 86 29        	stx	$29                     ; 0x2029 <_ZN12_GLOBAL__N_15printEPKcP6Status+0x787>
    21c0: 4c 09 20     	jmp	$2009 <_ZN12_GLOBAL__N_15printEPKcP6Status+0x767>
    21c3: a2 58        	ldx	#$58
    21c5: 8a           	txa
    21c6: a0 08        	ldy	#$8
    21c8: 91 10        	sta	($10),y                 ; 0x2010 <_ZN12_GLOBAL__N_15printEPKcP6Status+0x76e>
    21ca: a0 0c        	ldy	#$c
    21cc: b1 10        	lda	($10),y                 ; 0x2010 <_ZN12_GLOBAL__N_15printEPKcP6Status+0x76e>
    21ce: a8           	tay
    21cf: 38           	sec
    21d0: 5a           	phy
    21d1: a9 01        	lda	#$1
    21d3: a0 0b        	ldy	#$b
    21d5: 91 10        	sta	($10),y                 ; 0x2010 <_ZN12_GLOBAL__N_15printEPKcP6Status+0x76e>
    21d7: a2 30        	ldx	#$30
    21d9: 8a           	txa
    21da: a0 09        	ldy	#$9
    21dc: 91 10        	sta	($10),y                 ; 0x2010 <_ZN12_GLOBAL__N_15printEPKcP6Status+0x76e>
    21de: a2 02        	ldx	#$2
    21e0: 18           	clc
    21e1: a9 00        	lda	#$0
    21e3: c8           	iny
    21e4: 91 10        	sta	($10),y                 ; 0x2010 <_ZN12_GLOBAL__N_15printEPKcP6Status+0x76e>
    21e6: 7a           	ply
    21e7: 86 12        	stx	$12                     ; 0x2012 <_ZN12_GLOBAL__N_15printEPKcP6Status+0x770>
    21e9: 4c 5e 20     	jmp	$205e <_ZN12_GLOBAL__N_15printEPKcP6Status+0x7bc>
    21ec: 64 2a        	stz	$2a                     ; 0x202a <_ZN12_GLOBAL__N_15printEPKcP6Status+0x788>
    21ee: 64 2b        	stz	$2b                     ; 0x202b <_ZN12_GLOBAL__N_15printEPKcP6Status+0x789>
    21f0: 4c 85 21     	jmp	$2185 <_ZN12_GLOBAL__N_15printEPKcP6Status+0x8e3>
    21f3: a0 0c        	ldy	#$c
    21f5: b1 10        	lda	($10),y                 ; 0x2010 <_ZN12_GLOBAL__N_15printEPKcP6Status+0x76e>
    21f7: aa           	tax
    21f8: e4 28        	cpx	$28                     ; 0x2028 <_ZN12_GLOBAL__N_15printEPKcP6Status+0x786>
    21fa: b0 26        	bcs	$2222 <_ZN12_GLOBAL__N_15printEPKcP6Status+0x980>
    21fc: a2 ff        	ldx	#$ff
    21fe: c6 28        	dec	$28                     ; 0x2028 <_ZN12_GLOBAL__N_15printEPKcP6Status+0x786>
    2200: e4 28        	cpx	$28                     ; 0x2028 <_ZN12_GLOBAL__N_15printEPKcP6Status+0x786>
    2202: d0 02        	bne	$2206 <_ZN12_GLOBAL__N_15printEPKcP6Status+0x964>
    2204: c6 29        	dec	$29                     ; 0x2029 <_ZN12_GLOBAL__N_15printEPKcP6Status+0x787>
    2206: a6 24        	ldx	$24                     ; 0x2024 <_ZN12_GLOBAL__N_15printEPKcP6Status+0x782>
    2208: 86 12        	stx	$12                     ; 0x2012 <_ZN12_GLOBAL__N_15printEPKcP6Status+0x770>
    220a: a6 25        	ldx	$25                     ; 0x2025 <_ZN12_GLOBAL__N_15printEPKcP6Status+0x783>
    220c: 86 13        	stx	$13                     ; 0x2013 <_ZN12_GLOBAL__N_15printEPKcP6Status+0x771>
    220e: a9 30        	lda	#$30
    2210: 20 e6 23     	jsr	$23e6 <_ZN12_GLOBAL__N_13putEcP6Status>
    2213: a2 00        	ldx	#$0
    2215: e4 29        	cpx	$29                     ; 0x2029 <_ZN12_GLOBAL__N_15printEPKcP6Status+0x787>
    2217: f0 da        	beq	$21f3 <_ZN12_GLOBAL__N_15printEPKcP6Status+0x951>
    2219: e4 29        	cpx	$29                     ; 0x2029 <_ZN12_GLOBAL__N_15printEPKcP6Status+0x787>
    221b: a0 0c        	ldy	#$c
    221d: b1 10        	lda	($10),y                 ; 0x2010 <_ZN12_GLOBAL__N_15printEPKcP6Status+0x76e>
    221f: aa           	tax
    2220: 90 da        	bcc	$21fc <_ZN12_GLOBAL__N_15printEPKcP6Status+0x95a>
    2222: a4 2b        	ldy	$2b                     ; 0x202b <_ZN12_GLOBAL__N_15printEPKcP6Status+0x789>
    2224: 84 2c        	sty	$2c                     ; 0x202c <_ZN12_GLOBAL__N_15printEPKcP6Status+0x78a>
    2226: 8a           	txa
    2227: d0 03        	bne	$222c <_ZN12_GLOBAL__N_15printEPKcP6Status+0x98a>
    2229: 4c d6 22     	jmp	$22d6 <_ZN12_GLOBAL__N_15printEPKcP6Status+0xa34>
    222c: ca           	dex
    222d: d0 03        	bne	$2232 <_ZN12_GLOBAL__N_15printEPKcP6Status+0x990>
    222f: 4c 98 22     	jmp	$2298 <_ZN12_GLOBAL__N_15printEPKcP6Status+0x9f6>
    2232: 86 2b        	stx	$2b                     ; 0x202b <_ZN12_GLOBAL__N_15printEPKcP6Status+0x789>
    2234: 18           	clc
    2235: a5 10        	lda	$10                     ; 0x2010 <_ZN12_GLOBAL__N_15printEPKcP6Status+0x76e>
    2237: 69 18        	adc	#$18
    2239: 48           	pha
    223a: a5 11        	lda	$11                     ; 0x2011 <_ZN12_GLOBAL__N_15printEPKcP6Status+0x76f>
    223c: 69 00        	adc	#$0
    223e: 85 12        	sta	$12                     ; 0x2012 <_ZN12_GLOBAL__N_15printEPKcP6Status+0x770>
    2240: 68           	pla
    2241: 18           	clc
    2242: 65 2b        	adc	$2b                     ; 0x202b <_ZN12_GLOBAL__N_15printEPKcP6Status+0x789>
    2244: aa           	tax
    2245: a5 12        	lda	$12                     ; 0x2012 <_ZN12_GLOBAL__N_15printEPKcP6Status+0x770>
    2247: 69 00        	adc	#$0
    2249: 85 12        	sta	$12                     ; 0x2012 <_ZN12_GLOBAL__N_15printEPKcP6Status+0x770>
    224b: 18           	clc
    224c: 8a           	txa
    224d: 69 02        	adc	#$2
    224f: 85 28        	sta	$28                     ; 0x2028 <_ZN12_GLOBAL__N_15printEPKcP6Status+0x786>
    2251: a5 12        	lda	$12                     ; 0x2012 <_ZN12_GLOBAL__N_15printEPKcP6Status+0x770>
    2253: 69 00        	adc	#$0
    2255: 85 29        	sta	$29                     ; 0x2029 <_ZN12_GLOBAL__N_15printEPKcP6Status+0x787>
    2257: 80 35        	bra	$228e <_ZN12_GLOBAL__N_15printEPKcP6Status+0x9ec>
    2259: 85 13        	sta	$13                     ; 0x2013 <_ZN12_GLOBAL__N_15printEPKcP6Status+0x771>
    225b: a9 80        	lda	#$80
    225d: a0 01        	ldy	#$1
    225f: 31 24        	and	($24),y                 ; 0x2024 <_ZN12_GLOBAL__N_15printEPKcP6Status+0x782>
    2261: f0 04        	beq	$2267 <_ZN12_GLOBAL__N_15printEPKcP6Status+0x9c5>
    2263: a2 61        	ldx	#$61
    2265: 80 02        	bra	$2269 <_ZN12_GLOBAL__N_15printEPKcP6Status+0x9c7>
    2267: a2 41        	ldx	#$41
    2269: 86 12        	stx	$12                     ; 0x2012 <_ZN12_GLOBAL__N_15printEPKcP6Status+0x770>
    226b: 18           	clc
    226c: a5 13        	lda	$13                     ; 0x2013 <_ZN12_GLOBAL__N_15printEPKcP6Status+0x771>
    226e: 65 12        	adc	$12                     ; 0x2012 <_ZN12_GLOBAL__N_15printEPKcP6Status+0x770>
    2270: 18           	clc
    2271: 69 f6        	adc	#$f6
    2273: a6 24        	ldx	$24                     ; 0x2024 <_ZN12_GLOBAL__N_15printEPKcP6Status+0x782>
    2275: 86 12        	stx	$12                     ; 0x2012 <_ZN12_GLOBAL__N_15printEPKcP6Status+0x770>
    2277: a6 25        	ldx	$25                     ; 0x2025 <_ZN12_GLOBAL__N_15printEPKcP6Status+0x783>
    2279: 86 13        	stx	$13                     ; 0x2013 <_ZN12_GLOBAL__N_15printEPKcP6Status+0x771>
    227b: 20 e6 23     	jsr	$23e6 <_ZN12_GLOBAL__N_13putEcP6Status>
    227e: c6 2b        	dec	$2b                     ; 0x202b <_ZN12_GLOBAL__N_15printEPKcP6Status+0x789>
    2280: a2 ff        	ldx	#$ff
    2282: c6 28        	dec	$28                     ; 0x2028 <_ZN12_GLOBAL__N_15printEPKcP6Status+0x786>
    2284: e4 28        	cpx	$28                     ; 0x2028 <_ZN12_GLOBAL__N_15printEPKcP6Status+0x786>
    2286: d0 02        	bne	$228a <_ZN12_GLOBAL__N_15printEPKcP6Status+0x9e8>
    2288: c6 29        	dec	$29                     ; 0x2029 <_ZN12_GLOBAL__N_15printEPKcP6Status+0x787>
    228a: a5 2b        	lda	$2b                     ; 0x202b <_ZN12_GLOBAL__N_15printEPKcP6Status+0x789>
    228c: f0 0a        	beq	$2298 <_ZN12_GLOBAL__N_15printEPKcP6Status+0x9f6>
    228e: b2 28        	lda	($28)                   ; 0x2028 <_ZN12_GLOBAL__N_15printEPKcP6Status+0x786>
    2290: c9 0a        	cmp	#$a
    2292: b0 c5        	bcs	$2259 <_ZN12_GLOBAL__N_15printEPKcP6Status+0x9b7>
    2294: 09 30        	ora	#$30
    2296: 80 db        	bra	$2273 <_ZN12_GLOBAL__N_15printEPKcP6Status+0x9d1>
    2298: a0 02        	ldy	#$2
    229a: 18           	clc
    229b: a5 10        	lda	$10                     ; 0x2010 <_ZN12_GLOBAL__N_15printEPKcP6Status+0x76e>
    229d: 69 18        	adc	#$18
    229f: 85 12        	sta	$12                     ; 0x2012 <_ZN12_GLOBAL__N_15printEPKcP6Status+0x770>
    22a1: a5 11        	lda	$11                     ; 0x2011 <_ZN12_GLOBAL__N_15printEPKcP6Status+0x76f>
    22a3: 69 00        	adc	#$0
    22a5: 85 13        	sta	$13                     ; 0x2013 <_ZN12_GLOBAL__N_15printEPKcP6Status+0x771>
    22a7: b1 12        	lda	($12),y                 ; 0x2012 <_ZN12_GLOBAL__N_15printEPKcP6Status+0x770>
    22a9: c9 0a        	cmp	#$a
    22ab: b0 04        	bcs	$22b1 <_ZN12_GLOBAL__N_15printEPKcP6Status+0xa0f>
    22ad: 09 30        	ora	#$30
    22af: 80 1a        	bra	$22cb <_ZN12_GLOBAL__N_15printEPKcP6Status+0xa29>
    22b1: 85 13        	sta	$13                     ; 0x2013 <_ZN12_GLOBAL__N_15printEPKcP6Status+0x771>
    22b3: a0 01        	ldy	#$1
    22b5: a9 80        	lda	#$80
    22b7: 31 24        	and	($24),y                 ; 0x2024 <_ZN12_GLOBAL__N_15printEPKcP6Status+0x782>
    22b9: f0 04        	beq	$22bf <_ZN12_GLOBAL__N_15printEPKcP6Status+0xa1d>
    22bb: a2 61        	ldx	#$61
    22bd: 80 02        	bra	$22c1 <_ZN12_GLOBAL__N_15printEPKcP6Status+0xa1f>
    22bf: a2 41        	ldx	#$41
    22c1: 86 12        	stx	$12                     ; 0x2012 <_ZN12_GLOBAL__N_15printEPKcP6Status+0x770>
    22c3: a5 13        	lda	$13                     ; 0x2013 <_ZN12_GLOBAL__N_15printEPKcP6Status+0x771>
    22c5: 18           	clc
    22c6: 65 12        	adc	$12                     ; 0x2012 <_ZN12_GLOBAL__N_15printEPKcP6Status+0x770>
    22c8: 18           	clc
    22c9: 69 f6        	adc	#$f6
    22cb: a6 24        	ldx	$24                     ; 0x2024 <_ZN12_GLOBAL__N_15printEPKcP6Status+0x782>
    22cd: 86 12        	stx	$12                     ; 0x2012 <_ZN12_GLOBAL__N_15printEPKcP6Status+0x770>
    22cf: a6 25        	ldx	$25                     ; 0x2025 <_ZN12_GLOBAL__N_15printEPKcP6Status+0x783>
    22d1: 86 13        	stx	$13                     ; 0x2013 <_ZN12_GLOBAL__N_15printEPKcP6Status+0x771>
    22d3: 20 e6 23     	jsr	$23e6 <_ZN12_GLOBAL__N_13putEcP6Status>
    22d6: a0 01        	ldy	#$1
    22d8: 98           	tya
    22d9: 31 24        	and	($24),y                 ; 0x2024 <_ZN12_GLOBAL__N_15printEPKcP6Status+0x782>
    22db: f0 21        	beq	$22fe <_ZN12_GLOBAL__N_15printEPKcP6Status+0xa5c>
    22dd: a5 2c        	lda	$2c                     ; 0x202c <_ZN12_GLOBAL__N_15printEPKcP6Status+0x78a>
    22df: f0 19        	beq	$22fa <_ZN12_GLOBAL__N_15printEPKcP6Status+0xa58>
    22e1: a6 24        	ldx	$24                     ; 0x2024 <_ZN12_GLOBAL__N_15printEPKcP6Status+0x782>
    22e3: 86 12        	stx	$12                     ; 0x2012 <_ZN12_GLOBAL__N_15printEPKcP6Status+0x770>
    22e5: a6 25        	ldx	$25                     ; 0x2025 <_ZN12_GLOBAL__N_15printEPKcP6Status+0x783>
    22e7: 86 13        	stx	$13                     ; 0x2013 <_ZN12_GLOBAL__N_15printEPKcP6Status+0x771>
    22e9: a9 20        	lda	#$20
    22eb: 20 e6 23     	jsr	$23e6 <_ZN12_GLOBAL__N_13putEcP6Status>
    22ee: a2 ff        	ldx	#$ff
    22f0: c6 2a        	dec	$2a                     ; 0x202a <_ZN12_GLOBAL__N_15printEPKcP6Status+0x788>
    22f2: e4 2a        	cpx	$2a                     ; 0x202a <_ZN12_GLOBAL__N_15printEPKcP6Status+0x788>
    22f4: d0 e7        	bne	$22dd <_ZN12_GLOBAL__N_15printEPKcP6Status+0xa3b>
    22f6: c6 2c        	dec	$2c                     ; 0x202c <_ZN12_GLOBAL__N_15printEPKcP6Status+0x78a>
    22f8: 80 e3        	bra	$22dd <_ZN12_GLOBAL__N_15printEPKcP6Status+0xa3b>
    22fa: a5 2a        	lda	$2a                     ; 0x202a <_ZN12_GLOBAL__N_15printEPKcP6Status+0x788>
    22fc: d0 e3        	bne	$22e1 <_ZN12_GLOBAL__N_15printEPKcP6Status+0xa3f>
    22fe: a4 24        	ldy	$24                     ; 0x2024 <_ZN12_GLOBAL__N_15printEPKcP6Status+0x782>
    2300: a5 24        	lda	$24                     ; 0x2024 <_ZN12_GLOBAL__N_15printEPKcP6Status+0x782>
    2302: 84 14        	sty	$14                     ; 0x2014 <_ZN12_GLOBAL__N_15printEPKcP6Status+0x772>
    2304: 18           	clc
    2305: 69 05        	adc	#$5
    2307: 85 12        	sta	$12                     ; 0x2012 <_ZN12_GLOBAL__N_15printEPKcP6Status+0x770>
    2309: a5 25        	lda	$25                     ; 0x2025 <_ZN12_GLOBAL__N_15printEPKcP6Status+0x783>
    230b: 69 00        	adc	#$0
    230d: 18           	clc
    230e: 85 13        	sta	$13                     ; 0x2013 <_ZN12_GLOBAL__N_15printEPKcP6Status+0x771>
    2310: a0 01        	ldy	#$1
    2312: a5 14        	lda	$14                     ; 0x2014 <_ZN12_GLOBAL__N_15printEPKcP6Status+0x772>
    2314: 69 03        	adc	#$3
    2316: 85 14        	sta	$14                     ; 0x2014 <_ZN12_GLOBAL__N_15printEPKcP6Status+0x772>
    2318: a5 25        	lda	$25                     ; 0x2025 <_ZN12_GLOBAL__N_15printEPKcP6Status+0x783>
    231a: 69 00        	adc	#$0
    231c: aa           	tax
    231d: b1 12        	lda	($12),y                 ; 0x2012 <_ZN12_GLOBAL__N_15printEPKcP6Status+0x770>
    231f: 85 15        	sta	$15                     ; 0x2015 <_ZN12_GLOBAL__N_15printEPKcP6Status+0x773>
    2321: a4 14        	ldy	$14                     ; 0x2014 <_ZN12_GLOBAL__N_15printEPKcP6Status+0x772>
    2323: 84 12        	sty	$12                     ; 0x2012 <_ZN12_GLOBAL__N_15printEPKcP6Status+0x770>
    2325: 86 13        	stx	$13                     ; 0x2013 <_ZN12_GLOBAL__N_15printEPKcP6Status+0x771>
    2327: a0 03        	ldy	#$3
    2329: b1 24        	lda	($24),y                 ; 0x2024 <_ZN12_GLOBAL__N_15printEPKcP6Status+0x782>
    232b: aa           	tax
    232c: a0 01        	ldy	#$1
    232e: b1 12        	lda	($12),y                 ; 0x2012 <_ZN12_GLOBAL__N_15printEPKcP6Status+0x770>
    2330: 85 12        	sta	$12                     ; 0x2012 <_ZN12_GLOBAL__N_15printEPKcP6Status+0x770>
    2332: a4 15        	ldy	$15                     ; 0x2015 <_ZN12_GLOBAL__N_15printEPKcP6Status+0x773>
    2334: c4 12        	cpy	$12                     ; 0x2012 <_ZN12_GLOBAL__N_15printEPKcP6Status+0x770>
    2336: d0 10        	bne	$2348 <_ZN12_GLOBAL__N_15printEPKcP6Status+0xaa6>
    2338: a0 05        	ldy	#$5
    233a: 85 15        	sta	$15                     ; 0x2015 <_ZN12_GLOBAL__N_15printEPKcP6Status+0x773>
    233c: b1 24        	lda	($24),y                 ; 0x2024 <_ZN12_GLOBAL__N_15printEPKcP6Status+0x782>
    233e: 86 13        	stx	$13                     ; 0x2013 <_ZN12_GLOBAL__N_15printEPKcP6Status+0x771>
    2340: 86 12        	stx	$12                     ; 0x2012 <_ZN12_GLOBAL__N_15printEPKcP6Status+0x770>
    2342: c5 12        	cmp	$12                     ; 0x2012 <_ZN12_GLOBAL__N_15printEPKcP6Status+0x770>
    2344: b0 10        	bcs	$2356 <_ZN12_GLOBAL__N_15printEPKcP6Status+0xab4>
    2346: 80 43        	bra	$238b <_ZN12_GLOBAL__N_15printEPKcP6Status+0xae9>
    2348: 84 14        	sty	$14                     ; 0x2014 <_ZN12_GLOBAL__N_15printEPKcP6Status+0x772>
    234a: 86 13        	stx	$13                     ; 0x2013 <_ZN12_GLOBAL__N_15printEPKcP6Status+0x771>
    234c: 85 12        	sta	$12                     ; 0x2012 <_ZN12_GLOBAL__N_15printEPKcP6Status+0x770>
    234e: a6 14        	ldx	$14                     ; 0x2014 <_ZN12_GLOBAL__N_15printEPKcP6Status+0x772>
    2350: e4 12        	cpx	$12                     ; 0x2012 <_ZN12_GLOBAL__N_15printEPKcP6Status+0x770>
    2352: 85 15        	sta	$15                     ; 0x2015 <_ZN12_GLOBAL__N_15printEPKcP6Status+0x773>
    2354: 90 35        	bcc	$238b <_ZN12_GLOBAL__N_15printEPKcP6Status+0xae9>
    2356: a6 13        	ldx	$13                     ; 0x2013 <_ZN12_GLOBAL__N_15printEPKcP6Status+0x771>
    2358: a5 15        	lda	$15                     ; 0x2015 <_ZN12_GLOBAL__N_15printEPKcP6Status+0x773>
    235a: d0 03        	bne	$235f <_ZN12_GLOBAL__N_15printEPKcP6Status+0xabd>
    235c: 8a           	txa
    235d: f0 2c        	beq	$238b <_ZN12_GLOBAL__N_15printEPKcP6Status+0xae9>
    235f: a5 24        	lda	$24                     ; 0x2024 <_ZN12_GLOBAL__N_15printEPKcP6Status+0x782>
    2361: 18           	clc
    2362: 69 09        	adc	#$9
    2364: 85 12        	sta	$12                     ; 0x2012 <_ZN12_GLOBAL__N_15printEPKcP6Status+0x770>
    2366: a5 25        	lda	$25                     ; 0x2025 <_ZN12_GLOBAL__N_15printEPKcP6Status+0x783>
    2368: 69 00        	adc	#$0
    236a: a0 09        	ldy	#$9
    236c: 85 13        	sta	$13                     ; 0x2013 <_ZN12_GLOBAL__N_15printEPKcP6Status+0x771>
    236e: 18           	clc
    236f: 8a           	txa
    2370: 71 24        	adc	($24),y                 ; 0x2024 <_ZN12_GLOBAL__N_15printEPKcP6Status+0x782>
    2372: aa           	tax
    2373: a0 01        	ldy	#$1
    2375: a5 15        	lda	$15                     ; 0x2015 <_ZN12_GLOBAL__N_15printEPKcP6Status+0x773>
    2377: 71 12        	adc	($12),y                 ; 0x2012 <_ZN12_GLOBAL__N_15printEPKcP6Status+0x770>
    2379: 86 12        	stx	$12                     ; 0x2012 <_ZN12_GLOBAL__N_15printEPKcP6Status+0x770>
    237b: 85 13        	sta	$13                     ; 0x2013 <_ZN12_GLOBAL__N_15printEPKcP6Status+0x771>
    237d: a2 ff        	ldx	#$ff
    237f: c6 12        	dec	$12                     ; 0x2012 <_ZN12_GLOBAL__N_15printEPKcP6Status+0x770>
    2381: e4 12        	cpx	$12                     ; 0x2012 <_ZN12_GLOBAL__N_15printEPKcP6Status+0x770>
    2383: d0 02        	bne	$2387 <_ZN12_GLOBAL__N_15printEPKcP6Status+0xae5>
    2385: c6 13        	dec	$13                     ; 0x2013 <_ZN12_GLOBAL__N_15printEPKcP6Status+0x771>
    2387: a9 00        	lda	#$0
    2389: 92 12        	sta	($12)                   ; 0x2012 <_ZN12_GLOBAL__N_15printEPKcP6Status+0x770>
    238b: b2 26        	lda	($26)                   ; 0x2026 <_ZN12_GLOBAL__N_15printEPKcP6Status+0x784>
    238d: 85 28        	sta	$28                     ; 0x2028 <_ZN12_GLOBAL__N_15printEPKcP6Status+0x786>
    238f: a0 01        	ldy	#$1
    2391: b1 26        	lda	($26),y                 ; 0x2026 <_ZN12_GLOBAL__N_15printEPKcP6Status+0x784>
    2393: 85 29        	sta	$29                     ; 0x2029 <_ZN12_GLOBAL__N_15printEPKcP6Status+0x787>
    2395: e6 28        	inc	$28                     ; 0x2028 <_ZN12_GLOBAL__N_15printEPKcP6Status+0x786>
    2397: d0 02        	bne	$239b <_ZN12_GLOBAL__N_15printEPKcP6Status+0xaf9>
    2399: e6 29        	inc	$29                     ; 0x2029 <_ZN12_GLOBAL__N_15printEPKcP6Status+0x787>
    239b: a6 28        	ldx	$28                     ; 0x2028 <_ZN12_GLOBAL__N_15printEPKcP6Status+0x786>
    239d: 86 12        	stx	$12                     ; 0x2012 <_ZN12_GLOBAL__N_15printEPKcP6Status+0x770>
    239f: a6 29        	ldx	$29                     ; 0x2029 <_ZN12_GLOBAL__N_15printEPKcP6Status+0x787>
    23a1: 86 13        	stx	$13                     ; 0x2013 <_ZN12_GLOBAL__N_15printEPKcP6Status+0x771>
    23a3: a0 00        	ldy	#$0
    23a5: b1 10        	lda	($10),y                 ; 0x2010 <_ZN12_GLOBAL__N_15printEPKcP6Status+0x76e>
    23a7: 85 2f        	sta	$2f                     ; 0x202f <_ZN12_GLOBAL__N_15printEPKcP6Status+0x78d>
    23a9: c8           	iny
    23aa: b1 10        	lda	($10),y                 ; 0x2010 <_ZN12_GLOBAL__N_15printEPKcP6Status+0x76e>
    23ac: 85 2e        	sta	$2e                     ; 0x202e <_ZN12_GLOBAL__N_15printEPKcP6Status+0x78c>
    23ae: c8           	iny
    23af: b1 10        	lda	($10),y                 ; 0x2010 <_ZN12_GLOBAL__N_15printEPKcP6Status+0x76e>
    23b1: 85 2d        	sta	$2d                     ; 0x202d <_ZN12_GLOBAL__N_15printEPKcP6Status+0x78b>
    23b3: c8           	iny
    23b4: b1 10        	lda	($10),y                 ; 0x2010 <_ZN12_GLOBAL__N_15printEPKcP6Status+0x76e>
    23b6: 85 2c        	sta	$2c                     ; 0x202c <_ZN12_GLOBAL__N_15printEPKcP6Status+0x78a>
    23b8: c8           	iny
    23b9: b1 10        	lda	($10),y                 ; 0x2010 <_ZN12_GLOBAL__N_15printEPKcP6Status+0x76e>
    23bb: 85 2b        	sta	$2b                     ; 0x202b <_ZN12_GLOBAL__N_15printEPKcP6Status+0x789>
    23bd: c8           	iny
    23be: b1 10        	lda	($10),y                 ; 0x2010 <_ZN12_GLOBAL__N_15printEPKcP6Status+0x76e>
    23c0: 85 2a        	sta	$2a                     ; 0x202a <_ZN12_GLOBAL__N_15printEPKcP6Status+0x788>
    23c2: c8           	iny
    23c3: b1 10        	lda	($10),y                 ; 0x2010 <_ZN12_GLOBAL__N_15printEPKcP6Status+0x76e>
    23c5: 85 29        	sta	$29                     ; 0x2029 <_ZN12_GLOBAL__N_15printEPKcP6Status+0x787>
    23c7: c8           	iny
    23c8: b1 10        	lda	($10),y                 ; 0x2010 <_ZN12_GLOBAL__N_15printEPKcP6Status+0x76e>
    23ca: 85 28        	sta	$28                     ; 0x2028 <_ZN12_GLOBAL__N_15printEPKcP6Status+0x786>
    23cc: fa           	plx
    23cd: 86 27        	stx	$27                     ; 0x2027 <_ZN12_GLOBAL__N_15printEPKcP6Status+0x785>
    23cf: fa           	plx
    23d0: 86 26        	stx	$26                     ; 0x2026 <_ZN12_GLOBAL__N_15printEPKcP6Status+0x784>
    23d2: fa           	plx
    23d3: 86 25        	stx	$25                     ; 0x2025 <_ZN12_GLOBAL__N_15printEPKcP6Status+0x783>
    23d5: fa           	plx
    23d6: 86 24        	stx	$24                     ; 0x2024 <_ZN12_GLOBAL__N_15printEPKcP6Status+0x782>
    23d8: 18           	clc
    23d9: a5 10        	lda	$10                     ; 0x2010 <_ZN12_GLOBAL__N_15printEPKcP6Status+0x76e>
    23db: 69 2f        	adc	#$2f
    23dd: 85 10        	sta	$10                     ; 0x2010 <_ZN12_GLOBAL__N_15printEPKcP6Status+0x76e>
    23df: a5 11        	lda	$11                     ; 0x2011 <_ZN12_GLOBAL__N_15printEPKcP6Status+0x76f>
    23e1: 69 00        	adc	#$0
    23e3: 85 11        	sta	$11                     ; 0x2011 <_ZN12_GLOBAL__N_15printEPKcP6Status+0x76f>
    23e5: 60           	rts

000023e6 <_ZN12_GLOBAL__N_13putEcP6Status>:
    23e6: a6 24        	ldx	$24                     ; 0x2024 <_ZN12_GLOBAL__N_15printEPKcP6Status+0x782>
    23e8: da           	phx
    23e9: a6 25        	ldx	$25                     ; 0x2025 <_ZN12_GLOBAL__N_15printEPKcP6Status+0x783>
    23eb: da           	phx
    23ec: 85 16        	sta	$16                     ; 0x2016 <_ZN12_GLOBAL__N_15printEPKcP6Status+0x774>
    23ee: a6 12        	ldx	$12                     ; 0x2012 <_ZN12_GLOBAL__N_15printEPKcP6Status+0x770>
    23f0: 86 24        	stx	$24                     ; 0x2024 <_ZN12_GLOBAL__N_15printEPKcP6Status+0x782>
    23f2: a6 13        	ldx	$13                     ; 0x2013 <_ZN12_GLOBAL__N_15printEPKcP6Status+0x771>
    23f4: 86 25        	stx	$25                     ; 0x2025 <_ZN12_GLOBAL__N_15printEPKcP6Status+0x783>
    23f6: a6 25        	ldx	$25                     ; 0x2025 <_ZN12_GLOBAL__N_15printEPKcP6Status+0x783>
    23f8: 18           	clc
    23f9: a5 12        	lda	$12                     ; 0x2012 <_ZN12_GLOBAL__N_15printEPKcP6Status+0x770>
    23fb: 69 05        	adc	#$5
    23fd: a8           	tay
    23fe: a5 25        	lda	$25                     ; 0x2025 <_ZN12_GLOBAL__N_15printEPKcP6Status+0x783>
    2400: 86 13        	stx	$13                     ; 0x2013 <_ZN12_GLOBAL__N_15printEPKcP6Status+0x771>
    2402: 69 00        	adc	#$0
    2404: 18           	clc
    2405: 84 14        	sty	$14                     ; 0x2014 <_ZN12_GLOBAL__N_15printEPKcP6Status+0x772>
    2407: a0 05        	ldy	#$5
    2409: 85 15        	sta	$15                     ; 0x2015 <_ZN12_GLOBAL__N_15printEPKcP6Status+0x773>
    240b: b1 24        	lda	($24),y                 ; 0x2024 <_ZN12_GLOBAL__N_15printEPKcP6Status+0x782>
    240d: aa           	tax
    240e: a5 12        	lda	$12                     ; 0x2012 <_ZN12_GLOBAL__N_15printEPKcP6Status+0x770>
    2410: 69 03        	adc	#$3
    2412: 85 12        	sta	$12                     ; 0x2012 <_ZN12_GLOBAL__N_15printEPKcP6Status+0x770>
    2414: a5 13        	lda	$13                     ; 0x2013 <_ZN12_GLOBAL__N_15printEPKcP6Status+0x771>
    2416: 69 00        	adc	#$0
    2418: 85 13        	sta	$13                     ; 0x2013 <_ZN12_GLOBAL__N_15printEPKcP6Status+0x771>
    241a: a0 01        	ldy	#$1
    241c: b1 14        	lda	($14),y                 ; 0x2014 <_ZN12_GLOBAL__N_15printEPKcP6Status+0x772>
    241e: d1 12        	cmp	($12),y                 ; 0x2012 <_ZN12_GLOBAL__N_15printEPKcP6Status+0x770>
    2420: d0 11        	bne	$2433 <_ZN12_GLOBAL__N_13putEcP6Status+0x4d>
    2422: a0 03        	ldy	#$3
    2424: 85 15        	sta	$15                     ; 0x2015 <_ZN12_GLOBAL__N_15printEPKcP6Status+0x773>
    2426: b1 24        	lda	($24),y                 ; 0x2024 <_ZN12_GLOBAL__N_15printEPKcP6Status+0x782>
    2428: 85 12        	sta	$12                     ; 0x2012 <_ZN12_GLOBAL__N_15printEPKcP6Status+0x770>
    242a: 86 14        	stx	$14                     ; 0x2014 <_ZN12_GLOBAL__N_15printEPKcP6Status+0x772>
    242c: e4 12        	cpx	$12                     ; 0x2012 <_ZN12_GLOBAL__N_15printEPKcP6Status+0x770>
    242e: 90 0e        	bcc	$243e <_ZN12_GLOBAL__N_13putEcP6Status+0x58>
    2430: 4c 99 24     	jmp	$2499 <_ZN12_GLOBAL__N_13putEcP6Status+0xb3>
    2433: 86 14        	stx	$14                     ; 0x2014 <_ZN12_GLOBAL__N_15printEPKcP6Status+0x772>
    2435: d1 12        	cmp	($12),y                 ; 0x2012 <_ZN12_GLOBAL__N_15printEPKcP6Status+0x770>
    2437: 85 15        	sta	$15                     ; 0x2015 <_ZN12_GLOBAL__N_15printEPKcP6Status+0x773>
    2439: 90 03        	bcc	$243e <_ZN12_GLOBAL__N_13putEcP6Status+0x58>
    243b: 4c 99 24     	jmp	$2499 <_ZN12_GLOBAL__N_13putEcP6Status+0xb3>
    243e: a0 0f        	ldy	#$f
    2440: a5 24        	lda	$24                     ; 0x2024 <_ZN12_GLOBAL__N_15printEPKcP6Status+0x782>
    2442: 18           	clc
    2443: 69 0f        	adc	#$f
    2445: 85 12        	sta	$12                     ; 0x2012 <_ZN12_GLOBAL__N_15printEPKcP6Status+0x770>
    2447: a5 25        	lda	$25                     ; 0x2025 <_ZN12_GLOBAL__N_15printEPKcP6Status+0x783>
    2449: 69 00        	adc	#$0
    244b: 85 13        	sta	$13                     ; 0x2013 <_ZN12_GLOBAL__N_15printEPKcP6Status+0x771>
    244d: b1 24        	lda	($24),y                 ; 0x2024 <_ZN12_GLOBAL__N_15printEPKcP6Status+0x782>
    244f: 85 17        	sta	$17                     ; 0x2017 <_ZN12_GLOBAL__N_15printEPKcP6Status+0x775>
    2451: a0 01        	ldy	#$1
    2453: b1 12        	lda	($12),y                 ; 0x2012 <_ZN12_GLOBAL__N_15printEPKcP6Status+0x770>
    2455: a2 00        	ldx	#$0
    2457: 86 12        	stx	$12                     ; 0x2012 <_ZN12_GLOBAL__N_15printEPKcP6Status+0x770>
    2459: a2 00        	ldx	#$0
    245b: 86 13        	stx	$13                     ; 0x2013 <_ZN12_GLOBAL__N_15printEPKcP6Status+0x771>
    245d: c5 13        	cmp	$13                     ; 0x2013 <_ZN12_GLOBAL__N_15printEPKcP6Status+0x771>
    245f: d0 2b        	bne	$248c <_ZN12_GLOBAL__N_13putEcP6Status+0xa6>
    2461: a4 17        	ldy	$17                     ; 0x2017 <_ZN12_GLOBAL__N_15printEPKcP6Status+0x775>
    2463: c4 12        	cpy	$12                     ; 0x2012 <_ZN12_GLOBAL__N_15printEPKcP6Status+0x770>
    2465: d0 27        	bne	$248e <_ZN12_GLOBAL__N_13putEcP6Status+0xa8>
    2467: a5 24        	lda	$24                     ; 0x2024 <_ZN12_GLOBAL__N_15printEPKcP6Status+0x782>
    2469: 18           	clc
    246a: 69 09        	adc	#$9
    246c: 85 12        	sta	$12                     ; 0x2012 <_ZN12_GLOBAL__N_15printEPKcP6Status+0x770>
    246e: a5 25        	lda	$25                     ; 0x2025 <_ZN12_GLOBAL__N_15printEPKcP6Status+0x783>
    2470: 69 00        	adc	#$0
    2472: a0 09        	ldy	#$9
    2474: 85 13        	sta	$13                     ; 0x2013 <_ZN12_GLOBAL__N_15printEPKcP6Status+0x771>
    2476: 18           	clc
    2477: a5 14        	lda	$14                     ; 0x2014 <_ZN12_GLOBAL__N_15printEPKcP6Status+0x772>
    2479: 71 24        	adc	($24),y                 ; 0x2024 <_ZN12_GLOBAL__N_15printEPKcP6Status+0x782>
    247b: aa           	tax
    247c: a0 01        	ldy	#$1
    247e: a5 15        	lda	$15                     ; 0x2015 <_ZN12_GLOBAL__N_15printEPKcP6Status+0x773>
    2480: 71 12        	adc	($12),y                 ; 0x2012 <_ZN12_GLOBAL__N_15printEPKcP6Status+0x770>
    2482: 86 12        	stx	$12                     ; 0x2012 <_ZN12_GLOBAL__N_15printEPKcP6Status+0x770>
    2484: 85 13        	sta	$13                     ; 0x2013 <_ZN12_GLOBAL__N_15printEPKcP6Status+0x771>
    2486: a5 16        	lda	$16                     ; 0x2016 <_ZN12_GLOBAL__N_15printEPKcP6Status+0x774>
    2488: 92 12        	sta	($12)                   ; 0x2012 <_ZN12_GLOBAL__N_15printEPKcP6Status+0x770>
    248a: 80 0d        	bra	$2499 <_ZN12_GLOBAL__N_13putEcP6Status+0xb3>
    248c: a4 17        	ldy	$17                     ; 0x2017 <_ZN12_GLOBAL__N_15printEPKcP6Status+0x775>
    248e: 84 12        	sty	$12                     ; 0x2012 <_ZN12_GLOBAL__N_15printEPKcP6Status+0x770>
    2490: 85 13        	sta	$13                     ; 0x2013 <_ZN12_GLOBAL__N_15printEPKcP6Status+0x771>
    2492: a2 00        	ldx	#$0
    2494: a5 16        	lda	$16                     ; 0x2016 <_ZN12_GLOBAL__N_15printEPKcP6Status+0x774>
    2496: 20 c4 26     	jsr	$26c4 <putc>
    2499: a0 05        	ldy	#$5
    249b: a5 24        	lda	$24                     ; 0x2024 <_ZN12_GLOBAL__N_15printEPKcP6Status+0x782>
    249d: 18           	clc
    249e: 69 05        	adc	#$5
    24a0: 85 12        	sta	$12                     ; 0x2012 <_ZN12_GLOBAL__N_15printEPKcP6Status+0x770>
    24a2: a5 25        	lda	$25                     ; 0x2025 <_ZN12_GLOBAL__N_15printEPKcP6Status+0x783>
    24a4: 69 00        	adc	#$0
    24a6: 85 13        	sta	$13                     ; 0x2013 <_ZN12_GLOBAL__N_15printEPKcP6Status+0x771>
    24a8: b1 24        	lda	($24),y                 ; 0x2024 <_ZN12_GLOBAL__N_15printEPKcP6Status+0x782>
    24aa: aa           	tax
    24ab: a0 01        	ldy	#$1
    24ad: b1 12        	lda	($12),y                 ; 0x2012 <_ZN12_GLOBAL__N_15printEPKcP6Status+0x770>
    24af: e8           	inx
    24b0: d0 01        	bne	$24b3 <_ZN12_GLOBAL__N_13putEcP6Status+0xcd>
    24b2: 1a           	inc
    24b3: 85 14        	sta	$14                     ; 0x2014 <_ZN12_GLOBAL__N_15printEPKcP6Status+0x772>
    24b5: 8a           	txa
    24b6: a0 05        	ldy	#$5
    24b8: 91 24        	sta	($24),y                 ; 0x2024 <_ZN12_GLOBAL__N_15printEPKcP6Status+0x782>
    24ba: a0 01        	ldy	#$1
    24bc: a5 14        	lda	$14                     ; 0x2014 <_ZN12_GLOBAL__N_15printEPKcP6Status+0x772>
    24be: 91 12        	sta	($12),y                 ; 0x2012 <_ZN12_GLOBAL__N_15printEPKcP6Status+0x770>
    24c0: fa           	plx
    24c1: 86 25        	stx	$25                     ; 0x2025 <_ZN12_GLOBAL__N_15printEPKcP6Status+0x783>
    24c3: fa           	plx
    24c4: 86 24        	stx	$24                     ; 0x2024 <_ZN12_GLOBAL__N_15printEPKcP6Status+0x782>
    24c6: 60           	rts

000024c7 <_ZN12_GLOBAL__N_112print_stringEPKcP6Status>:
    24c7: 18           	clc
    24c8: a5 10        	lda	$10                     ; 0x2010 <_ZN12_GLOBAL__N_15printEPKcP6Status+0x76e>
    24ca: 69 fc        	adc	#$fc
    24cc: 85 10        	sta	$10                     ; 0x2010 <_ZN12_GLOBAL__N_15printEPKcP6Status+0x76e>
    24ce: a5 11        	lda	$11                     ; 0x2011 <_ZN12_GLOBAL__N_15printEPKcP6Status+0x76f>
    24d0: 69 ff        	adc	#$ff
    24d2: 85 11        	sta	$11                     ; 0x2011 <_ZN12_GLOBAL__N_15printEPKcP6Status+0x76f>
    24d4: a6 24        	ldx	$24                     ; 0x2024 <_ZN12_GLOBAL__N_15printEPKcP6Status+0x782>
    24d6: da           	phx
    24d7: a6 25        	ldx	$25                     ; 0x2025 <_ZN12_GLOBAL__N_15printEPKcP6Status+0x783>
    24d9: da           	phx
    24da: a6 26        	ldx	$26                     ; 0x2026 <_ZN12_GLOBAL__N_15printEPKcP6Status+0x784>
    24dc: da           	phx
    24dd: a6 27        	ldx	$27                     ; 0x2027 <_ZN12_GLOBAL__N_15printEPKcP6Status+0x785>
    24df: da           	phx
    24e0: a5 28        	lda	$28                     ; 0x2028 <_ZN12_GLOBAL__N_15printEPKcP6Status+0x786>
    24e2: a0 02        	ldy	#$2
    24e4: 91 10        	sta	($10),y                 ; 0x2010 <_ZN12_GLOBAL__N_15printEPKcP6Status+0x76e>
    24e6: a5 29        	lda	$29                     ; 0x2029 <_ZN12_GLOBAL__N_15printEPKcP6Status+0x787>
    24e8: 88           	dey
    24e9: 91 10        	sta	($10),y                 ; 0x2010 <_ZN12_GLOBAL__N_15printEPKcP6Status+0x76e>
    24eb: a5 2a        	lda	$2a                     ; 0x202a <_ZN12_GLOBAL__N_15printEPKcP6Status+0x788>
    24ed: 88           	dey
    24ee: 91 10        	sta	($10),y                 ; 0x2010 <_ZN12_GLOBAL__N_15printEPKcP6Status+0x76e>
    24f0: a6 12        	ldx	$12                     ; 0x2012 <_ZN12_GLOBAL__N_15printEPKcP6Status+0x770>
    24f2: 86 24        	stx	$24                     ; 0x2024 <_ZN12_GLOBAL__N_15printEPKcP6Status+0x782>
    24f4: a6 13        	ldx	$13                     ; 0x2013 <_ZN12_GLOBAL__N_15printEPKcP6Status+0x771>
    24f6: 86 25        	stx	$25                     ; 0x2025 <_ZN12_GLOBAL__N_15printEPKcP6Status+0x783>
    24f8: a6 14        	ldx	$14                     ; 0x2014 <_ZN12_GLOBAL__N_15printEPKcP6Status+0x772>
    24fa: 86 26        	stx	$26                     ; 0x2026 <_ZN12_GLOBAL__N_15printEPKcP6Status+0x784>
    24fc: a6 15        	ldx	$15                     ; 0x2015 <_ZN12_GLOBAL__N_15printEPKcP6Status+0x773>
    24fe: 86 27        	stx	$27                     ; 0x2027 <_ZN12_GLOBAL__N_15printEPKcP6Status+0x785>
    2500: a5 26        	lda	$26                     ; 0x2026 <_ZN12_GLOBAL__N_15printEPKcP6Status+0x784>
    2502: 18           	clc
    2503: 69 0d        	adc	#$d
    2505: 85 12        	sta	$12                     ; 0x2012 <_ZN12_GLOBAL__N_15printEPKcP6Status+0x770>
    2507: a5 27        	lda	$27                     ; 0x2027 <_ZN12_GLOBAL__N_15printEPKcP6Status+0x785>
    2509: 69 00        	adc	#$0
    250b: 85 13        	sta	$13                     ; 0x2013 <_ZN12_GLOBAL__N_15printEPKcP6Status+0x771>
    250d: c8           	iny
    250e: b1 12        	lda	($12),y                 ; 0x2012 <_ZN12_GLOBAL__N_15printEPKcP6Status+0x770>
    2510: 30 1c        	bmi	$252e <_ZN12_GLOBAL__N_112print_stringEPKcP6Status+0x67>
    2512: a0 0d        	ldy	#$d
    2514: aa           	tax
    2515: b1 26        	lda	($26),y                 ; 0x2026 <_ZN12_GLOBAL__N_15printEPKcP6Status+0x784>
    2517: 48           	pha
    2518: 8a           	txa
    2519: a0 03        	ldy	#$3
    251b: 91 10        	sta	($10),y                 ; 0x2010 <_ZN12_GLOBAL__N_15printEPKcP6Status+0x76e>
    251d: 68           	pla
    251e: e0 00        	cpx	#$0
    2520: d0 16        	bne	$2538 <_ZN12_GLOBAL__N_112print_stringEPKcP6Status+0x71>
    2522: aa           	tax
    2523: d0 13        	bne	$2538 <_ZN12_GLOBAL__N_112print_stringEPKcP6Status+0x71>
    2525: 64 28        	stz	$28                     ; 0x2028 <_ZN12_GLOBAL__N_15printEPKcP6Status+0x786>
    2527: 64 12        	stz	$12                     ; 0x2012 <_ZN12_GLOBAL__N_15printEPKcP6Status+0x770>
    2529: a9 00        	lda	#$0
    252b: 4c 36 26     	jmp	$2636 <_ZN12_GLOBAL__N_112print_stringEPKcP6Status+0x16f>
    252e: a9 ff        	lda	#$ff
    2530: aa           	tax
    2531: 48           	pha
    2532: 8a           	txa
    2533: a0 03        	ldy	#$3
    2535: 91 10        	sta	($10),y                 ; 0x2010 <_ZN12_GLOBAL__N_15printEPKcP6Status+0x76e>
    2537: 68           	pla
    2538: 85 28        	sta	$28                     ; 0x2028 <_ZN12_GLOBAL__N_15printEPKcP6Status+0x786>
    253a: 64 12        	stz	$12                     ; 0x2012 <_ZN12_GLOBAL__N_15printEPKcP6Status+0x770>
    253c: a4 24        	ldy	$24                     ; 0x2024 <_ZN12_GLOBAL__N_15printEPKcP6Status+0x782>
    253e: a6 25        	ldx	$25                     ; 0x2025 <_ZN12_GLOBAL__N_15printEPKcP6Status+0x783>
    2540: 86 16        	stx	$16                     ; 0x2016 <_ZN12_GLOBAL__N_15printEPKcP6Status+0x774>
    2542: 64 13        	stz	$13                     ; 0x2013 <_ZN12_GLOBAL__N_15printEPKcP6Status+0x771>
    2544: 98           	tya
    2545: 18           	clc
    2546: 65 12        	adc	$12                     ; 0x2012 <_ZN12_GLOBAL__N_15printEPKcP6Status+0x770>
    2548: 85 14        	sta	$14                     ; 0x2014 <_ZN12_GLOBAL__N_15printEPKcP6Status+0x772>
    254a: a5 25        	lda	$25                     ; 0x2025 <_ZN12_GLOBAL__N_15printEPKcP6Status+0x783>
    254c: 65 13        	adc	$13                     ; 0x2013 <_ZN12_GLOBAL__N_15printEPKcP6Status+0x771>
    254e: 85 15        	sta	$15                     ; 0x2015 <_ZN12_GLOBAL__N_15printEPKcP6Status+0x773>
    2550: b2 14        	lda	($14)                   ; 0x2014 <_ZN12_GLOBAL__N_15printEPKcP6Status+0x772>
    2552: d0 03        	bne	$2557 <_ZN12_GLOBAL__N_112print_stringEPKcP6Status+0x90>
    2554: 4c 2e 26     	jmp	$262e <_ZN12_GLOBAL__N_112print_stringEPKcP6Status+0x167>
    2557: e6 12        	inc	$12                     ; 0x2012 <_ZN12_GLOBAL__N_15printEPKcP6Status+0x770>
    2559: d0 02        	bne	$255d <_ZN12_GLOBAL__N_112print_stringEPKcP6Status+0x96>
    255b: e6 13        	inc	$13                     ; 0x2013 <_ZN12_GLOBAL__N_15printEPKcP6Status+0x771>
    255d: 5a           	phy
    255e: a0 03        	ldy	#$3
    2560: b1 10        	lda	($10),y                 ; 0x2010 <_ZN12_GLOBAL__N_15printEPKcP6Status+0x76e>
    2562: 7a           	ply
    2563: c5 13        	cmp	$13                     ; 0x2013 <_ZN12_GLOBAL__N_15printEPKcP6Status+0x771>
    2565: d0 dd        	bne	$2544 <_ZN12_GLOBAL__N_112print_stringEPKcP6Status+0x7d>
    2567: a6 28        	ldx	$28                     ; 0x2028 <_ZN12_GLOBAL__N_15printEPKcP6Status+0x786>
    2569: e4 12        	cpx	$12                     ; 0x2012 <_ZN12_GLOBAL__N_15printEPKcP6Status+0x770>
    256b: d0 d7        	bne	$2544 <_ZN12_GLOBAL__N_112print_stringEPKcP6Status+0x7d>
    256d: a0 01        	ldy	#$1
    256f: b1 26        	lda	($26),y                 ; 0x2026 <_ZN12_GLOBAL__N_15printEPKcP6Status+0x784>
    2571: 29 01        	and	#$1
    2573: f0 03        	beq	$2578 <_ZN12_GLOBAL__N_112print_stringEPKcP6Status+0xb1>
    2575: 4c d3 25     	jmp	$25d3 <_ZN12_GLOBAL__N_112print_stringEPKcP6Status+0x10c>
    2578: a5 26        	lda	$26                     ; 0x2026 <_ZN12_GLOBAL__N_15printEPKcP6Status+0x784>
    257a: 18           	clc
    257b: 69 0b        	adc	#$b
    257d: 85 14        	sta	$14                     ; 0x2014 <_ZN12_GLOBAL__N_15printEPKcP6Status+0x772>
    257f: a5 27        	lda	$27                     ; 0x2027 <_ZN12_GLOBAL__N_15printEPKcP6Status+0x785>
    2581: 69 00        	adc	#$0
    2583: 85 15        	sta	$15                     ; 0x2015 <_ZN12_GLOBAL__N_15printEPKcP6Status+0x773>
    2585: a0 0b        	ldy	#$b
    2587: b1 26        	lda	($26),y                 ; 0x2026 <_ZN12_GLOBAL__N_15printEPKcP6Status+0x784>
    2589: 85 13        	sta	$13                     ; 0x2013 <_ZN12_GLOBAL__N_15printEPKcP6Status+0x771>
    258b: a0 01        	ldy	#$1
    258d: b1 14        	lda	($14),y                 ; 0x2014 <_ZN12_GLOBAL__N_15printEPKcP6Status+0x772>
    258f: 85 12        	sta	$12                     ; 0x2012 <_ZN12_GLOBAL__N_15printEPKcP6Status+0x770>
    2591: a0 03        	ldy	#$3
    2593: b1 10        	lda	($10),y                 ; 0x2010 <_ZN12_GLOBAL__N_15printEPKcP6Status+0x76e>
    2595: aa           	tax
    2596: c5 12        	cmp	$12                     ; 0x2012 <_ZN12_GLOBAL__N_15printEPKcP6Status+0x770>
    2598: d0 08        	bne	$25a2 <_ZN12_GLOBAL__N_112print_stringEPKcP6Status+0xdb>
    259a: a6 28        	ldx	$28                     ; 0x2028 <_ZN12_GLOBAL__N_15printEPKcP6Status+0x786>
    259c: e4 13        	cpx	$13                     ; 0x2013 <_ZN12_GLOBAL__N_15printEPKcP6Status+0x771>
    259e: 90 06        	bcc	$25a6 <_ZN12_GLOBAL__N_112print_stringEPKcP6Status+0xdf>
    25a0: 80 31        	bra	$25d3 <_ZN12_GLOBAL__N_112print_stringEPKcP6Status+0x10c>
    25a2: e4 12        	cpx	$12                     ; 0x2012 <_ZN12_GLOBAL__N_15printEPKcP6Status+0x770>
    25a4: b0 2d        	bcs	$25d3 <_ZN12_GLOBAL__N_112print_stringEPKcP6Status+0x10c>
    25a6: 38           	sec
    25a7: a5 28        	lda	$28                     ; 0x2028 <_ZN12_GLOBAL__N_15printEPKcP6Status+0x786>
    25a9: e5 13        	sbc	$13                     ; 0x2013 <_ZN12_GLOBAL__N_15printEPKcP6Status+0x771>
    25ab: aa           	tax
    25ac: b1 10        	lda	($10),y                 ; 0x2010 <_ZN12_GLOBAL__N_15printEPKcP6Status+0x76e>
    25ae: e5 12        	sbc	$12                     ; 0x2012 <_ZN12_GLOBAL__N_15printEPKcP6Status+0x770>
    25b0: 85 2a        	sta	$2a                     ; 0x202a <_ZN12_GLOBAL__N_15printEPKcP6Status+0x788>
    25b2: a4 26        	ldy	$26                     ; 0x2026 <_ZN12_GLOBAL__N_15printEPKcP6Status+0x784>
    25b4: 84 12        	sty	$12                     ; 0x2012 <_ZN12_GLOBAL__N_15printEPKcP6Status+0x770>
    25b6: a4 27        	ldy	$27                     ; 0x2027 <_ZN12_GLOBAL__N_15printEPKcP6Status+0x785>
    25b8: 84 13        	sty	$13                     ; 0x2013 <_ZN12_GLOBAL__N_15printEPKcP6Status+0x771>
    25ba: 86 29        	stx	$29                     ; 0x2029 <_ZN12_GLOBAL__N_15printEPKcP6Status+0x787>
    25bc: a9 20        	lda	#$20
    25be: 20 e6 23     	jsr	$23e6 <_ZN12_GLOBAL__N_13putEcP6Status>
    25c1: a4 2a        	ldy	$2a                     ; 0x202a <_ZN12_GLOBAL__N_15printEPKcP6Status+0x788>
    25c3: e6 29        	inc	$29                     ; 0x2029 <_ZN12_GLOBAL__N_15printEPKcP6Status+0x787>
    25c5: d0 01        	bne	$25c8 <_ZN12_GLOBAL__N_112print_stringEPKcP6Status+0x101>
    25c7: c8           	iny
    25c8: 84 2a        	sty	$2a                     ; 0x202a <_ZN12_GLOBAL__N_15printEPKcP6Status+0x788>
    25ca: a6 29        	ldx	$29                     ; 0x2029 <_ZN12_GLOBAL__N_15printEPKcP6Status+0x787>
    25cc: 98           	tya
    25cd: d0 e3        	bne	$25b2 <_ZN12_GLOBAL__N_112print_stringEPKcP6Status+0xeb>
    25cf: a5 29        	lda	$29                     ; 0x2029 <_ZN12_GLOBAL__N_15printEPKcP6Status+0x787>
    25d1: d0 df        	bne	$25b2 <_ZN12_GLOBAL__N_112print_stringEPKcP6Status+0xeb>
    25d3: a0 03        	ldy	#$3
    25d5: b1 10        	lda	($10),y                 ; 0x2010 <_ZN12_GLOBAL__N_15printEPKcP6Status+0x76e>
    25d7: a8           	tay
    25d8: d0 04        	bne	$25de <_ZN12_GLOBAL__N_112print_stringEPKcP6Status+0x117>
    25da: a5 28        	lda	$28                     ; 0x2028 <_ZN12_GLOBAL__N_15printEPKcP6Status+0x786>
    25dc: f0 26        	beq	$2604 <_ZN12_GLOBAL__N_112print_stringEPKcP6Status+0x13d>
    25de: a2 ff        	ldx	#$ff
    25e0: c6 28        	dec	$28                     ; 0x2028 <_ZN12_GLOBAL__N_15printEPKcP6Status+0x786>
    25e2: e4 28        	cpx	$28                     ; 0x2028 <_ZN12_GLOBAL__N_15printEPKcP6Status+0x786>
    25e4: d0 01        	bne	$25e7 <_ZN12_GLOBAL__N_112print_stringEPKcP6Status+0x120>
    25e6: 88           	dey
    25e7: 84 29        	sty	$29                     ; 0x2029 <_ZN12_GLOBAL__N_15printEPKcP6Status+0x787>
    25e9: b2 24        	lda	($24)                   ; 0x2024 <_ZN12_GLOBAL__N_15printEPKcP6Status+0x782>
    25eb: e6 24        	inc	$24                     ; 0x2024 <_ZN12_GLOBAL__N_15printEPKcP6Status+0x782>
    25ed: d0 02        	bne	$25f1 <_ZN12_GLOBAL__N_112print_stringEPKcP6Status+0x12a>
    25ef: e6 25        	inc	$25                     ; 0x2025 <_ZN12_GLOBAL__N_15printEPKcP6Status+0x783>
    25f1: a6 26        	ldx	$26                     ; 0x2026 <_ZN12_GLOBAL__N_15printEPKcP6Status+0x784>
    25f3: 86 12        	stx	$12                     ; 0x2012 <_ZN12_GLOBAL__N_15printEPKcP6Status+0x770>
    25f5: a6 27        	ldx	$27                     ; 0x2027 <_ZN12_GLOBAL__N_15printEPKcP6Status+0x785>
    25f7: 86 13        	stx	$13                     ; 0x2013 <_ZN12_GLOBAL__N_15printEPKcP6Status+0x771>
    25f9: 20 e6 23     	jsr	$23e6 <_ZN12_GLOBAL__N_13putEcP6Status>
    25fc: a4 29        	ldy	$29                     ; 0x2029 <_ZN12_GLOBAL__N_15printEPKcP6Status+0x787>
    25fe: d0 de        	bne	$25de <_ZN12_GLOBAL__N_112print_stringEPKcP6Status+0x117>
    2600: a5 28        	lda	$28                     ; 0x2028 <_ZN12_GLOBAL__N_15printEPKcP6Status+0x786>
    2602: d0 da        	bne	$25de <_ZN12_GLOBAL__N_112print_stringEPKcP6Status+0x117>
    2604: a0 00        	ldy	#$0
    2606: b1 10        	lda	($10),y                 ; 0x2010 <_ZN12_GLOBAL__N_15printEPKcP6Status+0x76e>
    2608: 85 2a        	sta	$2a                     ; 0x202a <_ZN12_GLOBAL__N_15printEPKcP6Status+0x788>
    260a: c8           	iny
    260b: b1 10        	lda	($10),y                 ; 0x2010 <_ZN12_GLOBAL__N_15printEPKcP6Status+0x76e>
    260d: 85 29        	sta	$29                     ; 0x2029 <_ZN12_GLOBAL__N_15printEPKcP6Status+0x787>
    260f: c8           	iny
    2610: b1 10        	lda	($10),y                 ; 0x2010 <_ZN12_GLOBAL__N_15printEPKcP6Status+0x76e>
    2612: 85 28        	sta	$28                     ; 0x2028 <_ZN12_GLOBAL__N_15printEPKcP6Status+0x786>
    2614: fa           	plx
    2615: 86 27        	stx	$27                     ; 0x2027 <_ZN12_GLOBAL__N_15printEPKcP6Status+0x785>
    2617: fa           	plx
    2618: 86 26        	stx	$26                     ; 0x2026 <_ZN12_GLOBAL__N_15printEPKcP6Status+0x784>
    261a: fa           	plx
    261b: 86 25        	stx	$25                     ; 0x2025 <_ZN12_GLOBAL__N_15printEPKcP6Status+0x783>
    261d: fa           	plx
    261e: 86 24        	stx	$24                     ; 0x2024 <_ZN12_GLOBAL__N_15printEPKcP6Status+0x782>
    2620: 18           	clc
    2621: a5 10        	lda	$10                     ; 0x2010 <_ZN12_GLOBAL__N_15printEPKcP6Status+0x76e>
    2623: 69 04        	adc	#$4
    2625: 85 10        	sta	$10                     ; 0x2010 <_ZN12_GLOBAL__N_15printEPKcP6Status+0x76e>
    2627: a5 11        	lda	$11                     ; 0x2011 <_ZN12_GLOBAL__N_15printEPKcP6Status+0x76f>
    2629: 69 00        	adc	#$0
    262b: 85 11        	sta	$11                     ; 0x2011 <_ZN12_GLOBAL__N_15printEPKcP6Status+0x76f>
    262d: 60           	rts
    262e: a6 12        	ldx	$12                     ; 0x2012 <_ZN12_GLOBAL__N_15printEPKcP6Status+0x770>
    2630: 86 28        	stx	$28                     ; 0x2028 <_ZN12_GLOBAL__N_15printEPKcP6Status+0x786>
    2632: a5 13        	lda	$13                     ; 0x2013 <_ZN12_GLOBAL__N_15printEPKcP6Status+0x771>
    2634: a0 03        	ldy	#$3
    2636: 91 10        	sta	($10),y                 ; 0x2010 <_ZN12_GLOBAL__N_15printEPKcP6Status+0x76e>
    2638: 4c 6d 25     	jmp	$256d <_ZN12_GLOBAL__N_112print_stringEPKcP6Status+0xa6>

0000263b <printf>:
    263b: 18           	clc
    263c: a5 10        	lda	$10                     ; 0x2010 <_ZN12_GLOBAL__N_15printEPKcP6Status+0x76e>
    263e: 69 fe        	adc	#$fe
    2640: 85 10        	sta	$10                     ; 0x2010 <_ZN12_GLOBAL__N_15printEPKcP6Status+0x76e>
    2642: a5 11        	lda	$11                     ; 0x2011 <_ZN12_GLOBAL__N_15printEPKcP6Status+0x76f>
    2644: 69 ff        	adc	#$ff
    2646: 85 11        	sta	$11                     ; 0x2011 <_ZN12_GLOBAL__N_15printEPKcP6Status+0x76f>
    2648: a6 12        	ldx	$12                     ; 0x2012 <_ZN12_GLOBAL__N_15printEPKcP6Status+0x770>
    264a: 86 14        	stx	$14                     ; 0x2014 <_ZN12_GLOBAL__N_15printEPKcP6Status+0x772>
    264c: a6 13        	ldx	$13                     ; 0x2013 <_ZN12_GLOBAL__N_15printEPKcP6Status+0x771>
    264e: 86 15        	stx	$15                     ; 0x2015 <_ZN12_GLOBAL__N_15printEPKcP6Status+0x773>
    2650: 18           	clc
    2651: a5 10        	lda	$10                     ; 0x2010 <_ZN12_GLOBAL__N_15printEPKcP6Status+0x76e>
    2653: 69 02        	adc	#$2
    2655: 48           	pha
    2656: a5 11        	lda	$11                     ; 0x2011 <_ZN12_GLOBAL__N_15printEPKcP6Status+0x76f>
    2658: 69 00        	adc	#$0
    265a: 85 12        	sta	$12                     ; 0x2012 <_ZN12_GLOBAL__N_15printEPKcP6Status+0x770>
    265c: 68           	pla
    265d: 18           	clc
    265e: a6 10        	ldx	$10                     ; 0x2010 <_ZN12_GLOBAL__N_15printEPKcP6Status+0x76e>
    2660: 86 16        	stx	$16                     ; 0x2016 <_ZN12_GLOBAL__N_15printEPKcP6Status+0x774>
    2662: a6 11        	ldx	$11                     ; 0x2011 <_ZN12_GLOBAL__N_15printEPKcP6Status+0x76f>
    2664: 86 17        	stx	$17                     ; 0x2017 <_ZN12_GLOBAL__N_15printEPKcP6Status+0x775>
    2666: 92 16        	sta	($16)                   ; 0x2016 <_ZN12_GLOBAL__N_15printEPKcP6Status+0x774>
    2668: a0 01        	ldy	#$1
    266a: a5 12        	lda	$12                     ; 0x2012 <_ZN12_GLOBAL__N_15printEPKcP6Status+0x770>
    266c: 91 16        	sta	($16),y                 ; 0x2016 <_ZN12_GLOBAL__N_15printEPKcP6Status+0x774>
    266e: a6 63        	ldx	$63                     ; 0x2063 <_ZN12_GLOBAL__N_15printEPKcP6Status+0x7c1>
    2670: a5 64        	lda	$64                     ; 0x2064 <_ZN12_GLOBAL__N_15printEPKcP6Status+0x7c2>
    2672: 86 12        	stx	$12                     ; 0x2012 <_ZN12_GLOBAL__N_15printEPKcP6Status+0x770>
    2674: 85 13        	sta	$13                     ; 0x2013 <_ZN12_GLOBAL__N_15printEPKcP6Status+0x771>
    2676: b2 16        	lda	($16)                   ; 0x2016 <_ZN12_GLOBAL__N_15printEPKcP6Status+0x774>
    2678: aa           	tax
    2679: b1 16        	lda	($16),y                 ; 0x2016 <_ZN12_GLOBAL__N_15printEPKcP6Status+0x774>
    267b: 86 16        	stx	$16                     ; 0x2016 <_ZN12_GLOBAL__N_15printEPKcP6Status+0x774>
    267d: 85 17        	sta	$17                     ; 0x2017 <_ZN12_GLOBAL__N_15printEPKcP6Status+0x775>
    267f: 20 8a 16     	jsr	$168a <vfprintf>
    2682: 48           	pha
    2683: 18           	clc
    2684: a5 10        	lda	$10                     ; 0x2010 <_ZN12_GLOBAL__N_15printEPKcP6Status+0x76e>
    2686: 69 02        	adc	#$2
    2688: 85 10        	sta	$10                     ; 0x2010 <_ZN12_GLOBAL__N_15printEPKcP6Status+0x76e>
    268a: a5 11        	lda	$11                     ; 0x2011 <_ZN12_GLOBAL__N_15printEPKcP6Status+0x76f>
    268c: 69 00        	adc	#$0
    268e: 85 11        	sta	$11                     ; 0x2011 <_ZN12_GLOBAL__N_15printEPKcP6Status+0x76f>
    2690: 68           	pla
    2691: 60           	rts

00002692 <fputc>:
    2692: 4c 95 26     	jmp	$2695 <putchar>

00002695 <putchar>:
    2695: a4 24        	ldy	$24                     ; 0x2024 <_ZN12_GLOBAL__N_15printEPKcP6Status+0x782>
    2697: 5a           	phy
    2698: a4 25        	ldy	$25                     ; 0x2025 <_ZN12_GLOBAL__N_15printEPKcP6Status+0x783>
    269a: 5a           	phy
    269b: 85 24        	sta	$24                     ; 0x2024 <_ZN12_GLOBAL__N_15printEPKcP6Status+0x782>
    269d: 86 25        	stx	$25                     ; 0x2025 <_ZN12_GLOBAL__N_15printEPKcP6Status+0x783>
    269f: a2 00        	ldx	#$0
    26a1: 86 12        	stx	$12                     ; 0x2012 <_ZN12_GLOBAL__N_15printEPKcP6Status+0x770>
    26a3: a2 00        	ldx	#$0
    26a5: 86 13        	stx	$13                     ; 0x2013 <_ZN12_GLOBAL__N_15printEPKcP6Status+0x771>
    26a7: a2 bd        	ldx	#$bd
    26a9: 86 14        	stx	$14                     ; 0x2014 <_ZN12_GLOBAL__N_15printEPKcP6Status+0x772>
    26ab: a2 26        	ldx	#$26
    26ad: 86 15        	stx	$15                     ; 0x2015 <_ZN12_GLOBAL__N_15printEPKcP6Status+0x773>
    26af: 20 c7 26     	jsr	$26c7 <__from_ascii>
    26b2: a6 25        	ldx	$25                     ; 0x2025 <_ZN12_GLOBAL__N_15printEPKcP6Status+0x783>
    26b4: a5 24        	lda	$24                     ; 0x2024 <_ZN12_GLOBAL__N_15printEPKcP6Status+0x782>
    26b6: 7a           	ply
    26b7: 84 25        	sty	$25                     ; 0x2025 <_ZN12_GLOBAL__N_15printEPKcP6Status+0x783>
    26b9: 7a           	ply
    26ba: 84 24        	sty	$24                     ; 0x2024 <_ZN12_GLOBAL__N_15printEPKcP6Status+0x782>
    26bc: 60           	rts

000026bd <putchar_wrapper>:
    26bd: 20 03 16     	jsr	$1603 <__putchar>
    26c0: a2 00        	ldx	#$0
    26c2: 8a           	txa
    26c3: 60           	rts

000026c4 <putc>:
    26c4: 4c 92 26     	jmp	$2692 <fputc>

000026c7 <__from_ascii>:
    26c7: a6 14        	ldx	$14                     ; 0x2014 <_ZN12_GLOBAL__N_15printEPKcP6Status+0x772>
    26c9: 86 22        	stx	$22                     ; 0x2022 <_ZN12_GLOBAL__N_15printEPKcP6Status+0x780>
    26cb: a6 15        	ldx	$15                     ; 0x2015 <_ZN12_GLOBAL__N_15printEPKcP6Status+0x773>
    26cd: 86 23        	stx	$23                     ; 0x2023 <_ZN12_GLOBAL__N_15printEPKcP6Status+0x781>
    26cf: 4c 01 06     	jmp	$601 <__call_indir>

000026d2 <malloc>:
    26d2: a8           	tay
    26d3: 8a           	txa
    26d4: a2 00        	ldx	#$0
    26d6: 86 12        	stx	$12                     ; 0x2012 <_ZN12_GLOBAL__N_15printEPKcP6Status+0x770>
    26d8: a2 00        	ldx	#$0
    26da: 86 13        	stx	$13                     ; 0x2013 <_ZN12_GLOBAL__N_15printEPKcP6Status+0x771>
    26dc: aa           	tax
    26dd: d0 07        	bne	$26e6 <malloc+0x14>
    26df: c0 00        	cpy	#$0
    26e1: d0 03        	bne	$26e6 <malloc+0x14>
    26e3: 4c c2 27     	jmp	$27c2 <malloc+0xf0>
    26e6: 84 16        	sty	$16                     ; 0x2016 <_ZN12_GLOBAL__N_15printEPKcP6Status+0x774>
    26e8: aa           	tax
    26e9: d0 0e        	bne	$26f9 <malloc+0x27>
    26eb: a6 16        	ldx	$16                     ; 0x2016 <_ZN12_GLOBAL__N_15printEPKcP6Status+0x774>
    26ed: e0 07        	cpx	#$7
    26ef: b0 0c        	bcs	$26fd <malloc+0x2b>
    26f1: a2 08        	ldx	#$8
    26f3: 64 17        	stz	$17                     ; 0x2017 <_ZN12_GLOBAL__N_15printEPKcP6Status+0x775>
    26f5: 86 16        	stx	$16                     ; 0x2016 <_ZN12_GLOBAL__N_15printEPKcP6Status+0x774>
    26f7: 80 30        	bra	$2729 <malloc+0x57>
    26f9: c9 00        	cmp	#$0
    26fb: 90 f4        	bcc	$26f1 <malloc+0x1f>
    26fd: a8           	tay
    26fe: a5 16        	lda	$16                     ; 0x2016 <_ZN12_GLOBAL__N_15printEPKcP6Status+0x774>
    2700: 29 01        	and	#$1
    2702: a2 02        	ldx	#$2
    2704: 64 14        	stz	$14                     ; 0x2014 <_ZN12_GLOBAL__N_15printEPKcP6Status+0x772>
    2706: c9 00        	cmp	#$0
    2708: f0 02        	beq	$270c <malloc+0x3a>
    270a: a2 03        	ldx	#$3
    270c: 86 15        	stx	$15                     ; 0x2015 <_ZN12_GLOBAL__N_15printEPKcP6Status+0x773>
    270e: 18           	clc
    270f: a5 16        	lda	$16                     ; 0x2016 <_ZN12_GLOBAL__N_15printEPKcP6Status+0x774>
    2711: 65 15        	adc	$15                     ; 0x2015 <_ZN12_GLOBAL__N_15printEPKcP6Status+0x773>
    2713: aa           	tax
    2714: 98           	tya
    2715: 65 14        	adc	$14                     ; 0x2014 <_ZN12_GLOBAL__N_15printEPKcP6Status+0x772>
    2717: 90 03        	bcc	$271c <malloc+0x4a>
    2719: 4c c2 27     	jmp	$27c2 <malloc+0xf0>
    271c: 86 16        	stx	$16                     ; 0x2016 <_ZN12_GLOBAL__N_15printEPKcP6Status+0x774>
    271e: 85 17        	sta	$17                     ; 0x2017 <_ZN12_GLOBAL__N_15printEPKcP6Status+0x775>
    2720: a8           	tay
    2721: d0 06        	bne	$2729 <malloc+0x57>
    2723: 8a           	txa
    2724: d0 03        	bne	$2729 <malloc+0x57>
    2726: 4c c2 27     	jmp	$27c2 <malloc+0xf0>
    2729: a5 d1        	lda	$d1                     ; 0x20d1 <_ZN12_GLOBAL__N_15printEPKcP6Status+0x82f>
    272b: 29 01        	and	#$1
    272d: d0 3b        	bne	$276a <malloc+0x98>
    272f: a5 65        	lda	$65                     ; 0x2065 <_ZN12_GLOBAL__N_15printEPKcP6Status+0x7c3>
    2731: a6 66        	ldx	$66                     ; 0x2066 <_ZN12_GLOBAL__N_15printEPKcP6Status+0x7c4>
    2733: a0 92        	ldy	#$92
    2735: 84 12        	sty	$12                     ; 0x2012 <_ZN12_GLOBAL__N_15printEPKcP6Status+0x770>
    2737: a0 2c        	ldy	#$2c
    2739: 84 13        	sty	$13                     ; 0x2013 <_ZN12_GLOBAL__N_15printEPKcP6Status+0x771>
    273b: a4 16        	ldy	$16                     ; 0x2016 <_ZN12_GLOBAL__N_15printEPKcP6Status+0x774>
    273d: 84 df        	sty	$df                     ; 0x20df <_ZN12_GLOBAL__N_15printEPKcP6Status+0x83d>
    273f: a4 17        	ldy	$17                     ; 0x2017 <_ZN12_GLOBAL__N_15printEPKcP6Status+0x775>
    2741: 84 e0        	sty	$e0                     ; 0x20e0 <_ZN12_GLOBAL__N_15printEPKcP6Status+0x83e>
    2743: 20 50 03     	jsr	$350 <_ZN12_GLOBAL__N_19FreeChunk6insertEPvj>
    2746: a6 e0        	ldx	$e0                     ; 0x20e0 <_ZN12_GLOBAL__N_15printEPKcP6Status+0x83e>
    2748: 86 17        	stx	$17                     ; 0x2017 <_ZN12_GLOBAL__N_15printEPKcP6Status+0x775>
    274a: a6 df        	ldx	$df                     ; 0x20df <_ZN12_GLOBAL__N_15printEPKcP6Status+0x83d>
    274c: 86 16        	stx	$16                     ; 0x2016 <_ZN12_GLOBAL__N_15printEPKcP6Status+0x774>
    274e: a2 00        	ldx	#$0
    2750: 86 12        	stx	$12                     ; 0x2012 <_ZN12_GLOBAL__N_15printEPKcP6Status+0x770>
    2752: a2 00        	ldx	#$0
    2754: 86 13        	stx	$13                     ; 0x2013 <_ZN12_GLOBAL__N_15printEPKcP6Status+0x771>
    2756: ae 93 2c     	ldx	$2c93                   ; 0x2c93 <__heap_start+0x1>
    2759: a9 fe        	lda	#$fe
    275b: 2d 92 2c     	and	$2c92                   ; 0x2c92 <__heap_start>
    275e: 8d 92 2c     	sta	$2c92                   ; 0x2c92 <__heap_start>
    2761: 8e 93 2c     	stx	$2c93                   ; 0x2c93 <__heap_start+0x1>
    2764: a2 01        	ldx	#$1
    2766: 86 d2        	stx	$d2                     ; 0x20d2 <_ZN12_GLOBAL__N_15printEPKcP6Status+0x830>
    2768: 86 d1        	stx	$d1                     ; 0x20d1 <_ZN12_GLOBAL__N_15printEPKcP6Status+0x82f>
    276a: a6 d5        	ldx	$d5                     ; 0x20d5 <_ZN12_GLOBAL__N_15printEPKcP6Status+0x833>
    276c: 86 18        	stx	$18                     ; 0x2018 <_ZN12_GLOBAL__N_15printEPKcP6Status+0x776>
    276e: a4 d6        	ldy	$d6                     ; 0x20d6 <_ZN12_GLOBAL__N_15printEPKcP6Status+0x834>
    2770: 84 19        	sty	$19                     ; 0x2019 <_ZN12_GLOBAL__N_15printEPKcP6Status+0x777>
    2772: a9 00        	lda	#$0
    2774: 85 14        	sta	$14                     ; 0x2014 <_ZN12_GLOBAL__N_15printEPKcP6Status+0x772>
    2776: a9 00        	lda	#$0
    2778: 85 15        	sta	$15                     ; 0x2015 <_ZN12_GLOBAL__N_15printEPKcP6Status+0x773>
    277a: c4 15        	cpy	$15                     ; 0x2015 <_ZN12_GLOBAL__N_15printEPKcP6Status+0x773>
    277c: d0 04        	bne	$2782 <malloc+0xb0>
    277e: e4 14        	cpx	$14                     ; 0x2014 <_ZN12_GLOBAL__N_15printEPKcP6Status+0x772>
    2780: f0 40        	beq	$27c2 <malloc+0xf0>
    2782: a0 01        	ldy	#$1
    2784: a6 18        	ldx	$18                     ; 0x2018 <_ZN12_GLOBAL__N_15printEPKcP6Status+0x776>
    2786: 86 14        	stx	$14                     ; 0x2014 <_ZN12_GLOBAL__N_15printEPKcP6Status+0x772>
    2788: a6 19        	ldx	$19                     ; 0x2019 <_ZN12_GLOBAL__N_15printEPKcP6Status+0x777>
    278a: 86 15        	stx	$15                     ; 0x2015 <_ZN12_GLOBAL__N_15printEPKcP6Status+0x773>
    278c: b1 14        	lda	($14),y                 ; 0x2014 <_ZN12_GLOBAL__N_15printEPKcP6Status+0x772>
    278e: c5 17        	cmp	$17                     ; 0x2017 <_ZN12_GLOBAL__N_15printEPKcP6Status+0x775>
    2790: d0 0a        	bne	$279c <malloc+0xca>
    2792: b2 14        	lda	($14)                   ; 0x2014 <_ZN12_GLOBAL__N_15printEPKcP6Status+0x772>
    2794: 29 fe        	and	#$fe
    2796: c5 16        	cmp	$16                     ; 0x2016 <_ZN12_GLOBAL__N_15printEPKcP6Status+0x774>
    2798: b0 29        	bcs	$27c3 <malloc+0xf1>
    279a: 80 04        	bra	$27a0 <malloc+0xce>
    279c: c5 17        	cmp	$17                     ; 0x2017 <_ZN12_GLOBAL__N_15printEPKcP6Status+0x775>
    279e: b0 23        	bcs	$27c3 <malloc+0xf1>
    27a0: a5 14        	lda	$14                     ; 0x2014 <_ZN12_GLOBAL__N_15printEPKcP6Status+0x772>
    27a2: 18           	clc
    27a3: 69 02        	adc	#$2
    27a5: 85 1a        	sta	$1a                     ; 0x201a <_ZN12_GLOBAL__N_15printEPKcP6Status+0x778>
    27a7: a5 15        	lda	$15                     ; 0x2015 <_ZN12_GLOBAL__N_15printEPKcP6Status+0x773>
    27a9: 69 00        	adc	#$0
    27ab: 85 1b        	sta	$1b                     ; 0x201b <_ZN12_GLOBAL__N_15printEPKcP6Status+0x779>
    27ad: a0 02        	ldy	#$2
    27af: b1 14        	lda	($14),y                 ; 0x2014 <_ZN12_GLOBAL__N_15printEPKcP6Status+0x772>
    27b1: 85 14        	sta	$14                     ; 0x2014 <_ZN12_GLOBAL__N_15printEPKcP6Status+0x772>
    27b3: 88           	dey
    27b4: b1 1a        	lda	($1a),y                 ; 0x201a <_ZN12_GLOBAL__N_15printEPKcP6Status+0x778>
    27b6: 85 15        	sta	$15                     ; 0x2015 <_ZN12_GLOBAL__N_15printEPKcP6Status+0x773>
    27b8: c5 19        	cmp	$19                     ; 0x2019 <_ZN12_GLOBAL__N_15printEPKcP6Status+0x777>
    27ba: d0 d0        	bne	$278c <malloc+0xba>
    27bc: a5 14        	lda	$14                     ; 0x2014 <_ZN12_GLOBAL__N_15printEPKcP6Status+0x772>
    27be: c5 18        	cmp	$18                     ; 0x2018 <_ZN12_GLOBAL__N_15printEPKcP6Status+0x776>
    27c0: d0 ca        	bne	$278c <malloc+0xba>
    27c2: 60           	rts
    27c3: a6 14        	ldx	$14                     ; 0x2014 <_ZN12_GLOBAL__N_15printEPKcP6Status+0x772>
    27c5: 86 12        	stx	$12                     ; 0x2012 <_ZN12_GLOBAL__N_15printEPKcP6Status+0x770>
    27c7: a6 15        	ldx	$15                     ; 0x2015 <_ZN12_GLOBAL__N_15printEPKcP6Status+0x773>
    27c9: 86 13        	stx	$13                     ; 0x2013 <_ZN12_GLOBAL__N_15printEPKcP6Status+0x771>
    27cb: a6 17        	ldx	$17                     ; 0x2017 <_ZN12_GLOBAL__N_15printEPKcP6Status+0x775>
    27cd: a5 16        	lda	$16                     ; 0x2016 <_ZN12_GLOBAL__N_15printEPKcP6Status+0x774>
    27cf: 4c d2 27     	jmp	$27d2 <_ZN12_GLOBAL__N_119allocate_free_chunkEPNS_9FreeChunkEj>

000027d2 <_ZN12_GLOBAL__N_119allocate_free_chunkEPNS_9FreeChunkEj>:
    27d2: 85 e1        	sta	$e1                     ; 0x20e1 <_ZN12_GLOBAL__N_15printEPKcP6Status+0x83f>
    27d4: 86 e4        	stx	$e4                     ; 0x20e4 <_ZN12_GLOBAL__N_15printEPKcP6Status+0x842>
    27d6: a6 12        	ldx	$12                     ; 0x2012 <_ZN12_GLOBAL__N_15printEPKcP6Status+0x770>
    27d8: 86 e2        	stx	$e2                     ; 0x20e2 <_ZN12_GLOBAL__N_15printEPKcP6Status+0x840>
    27da: a6 13        	ldx	$13                     ; 0x2013 <_ZN12_GLOBAL__N_15printEPKcP6Status+0x771>
    27dc: 86 e3        	stx	$e3                     ; 0x20e3 <_ZN12_GLOBAL__N_15printEPKcP6Status+0x841>
    27de: 20 86 04     	jsr	$486 <_ZN12_GLOBAL__N_19FreeChunk6removeEv>
    27e1: a0 01        	ldy	#$1
    27e3: b1 e2        	lda	($e2),y                 ; 0x20e2 <_ZN12_GLOBAL__N_15printEPKcP6Status+0x840>
    27e5: 85 14        	sta	$14                     ; 0x2014 <_ZN12_GLOBAL__N_15printEPKcP6Status+0x772>
    27e7: a9 fe        	lda	#$fe
    27e9: 32 e2        	and	($e2)                   ; 0x20e2 <_ZN12_GLOBAL__N_15printEPKcP6Status+0x840>
    27eb: 38           	sec
    27ec: a6 e1        	ldx	$e1                     ; 0x20e1 <_ZN12_GLOBAL__N_15printEPKcP6Status+0x83f>
    27ee: a8           	tay
    27ef: e5 e1        	sbc	$e1                     ; 0x20e1 <_ZN12_GLOBAL__N_15printEPKcP6Status+0x83f>
    27f1: 85 16        	sta	$16                     ; 0x2016 <_ZN12_GLOBAL__N_15printEPKcP6Status+0x774>
    27f3: a5 e4        	lda	$e4                     ; 0x20e4 <_ZN12_GLOBAL__N_15printEPKcP6Status+0x842>
    27f5: 85 13        	sta	$13                     ; 0x2013 <_ZN12_GLOBAL__N_15printEPKcP6Status+0x771>
    27f7: 85 12        	sta	$12                     ; 0x2012 <_ZN12_GLOBAL__N_15printEPKcP6Status+0x770>
    27f9: a5 14        	lda	$14                     ; 0x2014 <_ZN12_GLOBAL__N_15printEPKcP6Status+0x772>
    27fb: e5 12        	sbc	$12                     ; 0x2012 <_ZN12_GLOBAL__N_15printEPKcP6Status+0x770>
    27fd: f0 03        	beq	$2802 <_ZN12_GLOBAL__N_119allocate_free_chunkEPNS_9FreeChunkEj+0x30>
    27ff: 4c 7d 28     	jmp	$287d <_ZN12_GLOBAL__N_119allocate_free_chunkEPNS_9FreeChunkEj+0xab>
    2802: 85 15        	sta	$15                     ; 0x2015 <_ZN12_GLOBAL__N_15printEPKcP6Status+0x773>
    2804: a5 16        	lda	$16                     ; 0x2016 <_ZN12_GLOBAL__N_15printEPKcP6Status+0x774>
    2806: c9 08        	cmp	#$8
    2808: 90 2e        	bcc	$2838 <_ZN12_GLOBAL__N_119allocate_free_chunkEPNS_9FreeChunkEj+0x66>
    280a: a8           	tay
    280b: 18           	clc
    280c: 8a           	txa
    280d: 65 e2        	adc	$e2                     ; 0x20e2 <_ZN12_GLOBAL__N_15printEPKcP6Status+0x840>
    280f: 85 12        	sta	$12                     ; 0x2012 <_ZN12_GLOBAL__N_15printEPKcP6Status+0x770>
    2811: a5 13        	lda	$13                     ; 0x2013 <_ZN12_GLOBAL__N_15printEPKcP6Status+0x771>
    2813: a6 13        	ldx	$13                     ; 0x2013 <_ZN12_GLOBAL__N_15printEPKcP6Status+0x771>
    2815: 86 e4        	stx	$e4                     ; 0x20e4 <_ZN12_GLOBAL__N_15printEPKcP6Status+0x842>
    2817: 65 e3        	adc	$e3                     ; 0x20e3 <_ZN12_GLOBAL__N_15printEPKcP6Status+0x841>
    2819: 85 13        	sta	$13                     ; 0x2013 <_ZN12_GLOBAL__N_15printEPKcP6Status+0x771>
    281b: a6 15        	ldx	$15                     ; 0x2015 <_ZN12_GLOBAL__N_15printEPKcP6Status+0x773>
    281d: 98           	tya
    281e: 20 50 03     	jsr	$350 <_ZN12_GLOBAL__N_19FreeChunk6insertEPvj>
    2821: a5 e1        	lda	$e1                     ; 0x20e1 <_ZN12_GLOBAL__N_15printEPKcP6Status+0x83f>
    2823: 29 fe        	and	#$fe
    2825: 85 12        	sta	$12                     ; 0x2012 <_ZN12_GLOBAL__N_15printEPKcP6Status+0x770>
    2827: a0 01        	ldy	#$1
    2829: 98           	tya
    282a: 32 e2        	and	($e2)                   ; 0x20e2 <_ZN12_GLOBAL__N_15printEPKcP6Status+0x840>
    282c: 05 12        	ora	$12                     ; 0x2012 <_ZN12_GLOBAL__N_15printEPKcP6Status+0x770>
    282e: 92 e2        	sta	($e2)                   ; 0x20e2 <_ZN12_GLOBAL__N_15printEPKcP6Status+0x840>
    2830: a5 e4        	lda	$e4                     ; 0x20e4 <_ZN12_GLOBAL__N_15printEPKcP6Status+0x842>
    2832: 91 e2        	sta	($e2),y                 ; 0x20e2 <_ZN12_GLOBAL__N_15printEPKcP6Status+0x840>
    2834: a4 12        	ldy	$12                     ; 0x2012 <_ZN12_GLOBAL__N_15printEPKcP6Status+0x770>
    2836: 85 14        	sta	$14                     ; 0x2014 <_ZN12_GLOBAL__N_15printEPKcP6Status+0x772>
    2838: 18           	clc
    2839: 98           	tya
    283a: 65 e2        	adc	$e2                     ; 0x20e2 <_ZN12_GLOBAL__N_15printEPKcP6Status+0x840>
    283c: a8           	tay
    283d: a5 14        	lda	$14                     ; 0x2014 <_ZN12_GLOBAL__N_15printEPKcP6Status+0x772>
    283f: 65 e3        	adc	$e3                     ; 0x20e3 <_ZN12_GLOBAL__N_15printEPKcP6Status+0x841>
    2841: aa           	tax
    2842: 18           	clc
    2843: a9 92        	lda	#$92
    2845: 65 65        	adc	$65                     ; 0x2065 <_ZN12_GLOBAL__N_15printEPKcP6Status+0x7c3>
    2847: 85 13        	sta	$13                     ; 0x2013 <_ZN12_GLOBAL__N_15printEPKcP6Status+0x771>
    2849: a9 2c        	lda	#$2c
    284b: 65 66        	adc	$66                     ; 0x2066 <_ZN12_GLOBAL__N_15printEPKcP6Status+0x7c4>
    284d: 85 12        	sta	$12                     ; 0x2012 <_ZN12_GLOBAL__N_15printEPKcP6Status+0x770>
    284f: e4 12        	cpx	$12                     ; 0x2012 <_ZN12_GLOBAL__N_15printEPKcP6Status+0x770>
    2851: d0 08        	bne	$285b <_ZN12_GLOBAL__N_119allocate_free_chunkEPNS_9FreeChunkEj+0x89>
    2853: c4 13        	cpy	$13                     ; 0x2013 <_ZN12_GLOBAL__N_15printEPKcP6Status+0x771>
    2855: d0 04        	bne	$285b <_ZN12_GLOBAL__N_119allocate_free_chunkEPNS_9FreeChunkEj+0x89>
    2857: 64 d2        	stz	$d2                     ; 0x20d2 <_ZN12_GLOBAL__N_15printEPKcP6Status+0x830>
    2859: 80 14        	bra	$286f <_ZN12_GLOBAL__N_119allocate_free_chunkEPNS_9FreeChunkEj+0x9d>
    285b: 84 12        	sty	$12                     ; 0x2012 <_ZN12_GLOBAL__N_15printEPKcP6Status+0x770>
    285d: 86 13        	stx	$13                     ; 0x2013 <_ZN12_GLOBAL__N_15printEPKcP6Status+0x771>
    285f: a0 01        	ldy	#$1
    2861: b1 12        	lda	($12),y                 ; 0x2012 <_ZN12_GLOBAL__N_15printEPKcP6Status+0x770>
    2863: 85 14        	sta	$14                     ; 0x2014 <_ZN12_GLOBAL__N_15printEPKcP6Status+0x772>
    2865: a9 fe        	lda	#$fe
    2867: 32 12        	and	($12)                   ; 0x2012 <_ZN12_GLOBAL__N_15printEPKcP6Status+0x770>
    2869: 92 12        	sta	($12)                   ; 0x2012 <_ZN12_GLOBAL__N_15printEPKcP6Status+0x770>
    286b: a5 14        	lda	$14                     ; 0x2014 <_ZN12_GLOBAL__N_15printEPKcP6Status+0x772>
    286d: 91 12        	sta	($12),y                 ; 0x2012 <_ZN12_GLOBAL__N_15printEPKcP6Status+0x770>
    286f: a5 e2        	lda	$e2                     ; 0x20e2 <_ZN12_GLOBAL__N_15printEPKcP6Status+0x840>
    2871: 18           	clc
    2872: 69 02        	adc	#$2
    2874: 85 12        	sta	$12                     ; 0x2012 <_ZN12_GLOBAL__N_15printEPKcP6Status+0x770>
    2876: a5 e3        	lda	$e3                     ; 0x20e3 <_ZN12_GLOBAL__N_15printEPKcP6Status+0x841>
    2878: 69 00        	adc	#$0
    287a: 85 13        	sta	$13                     ; 0x2013 <_ZN12_GLOBAL__N_15printEPKcP6Status+0x771>
    287c: 60           	rts
    287d: 85 15        	sta	$15                     ; 0x2015 <_ZN12_GLOBAL__N_15printEPKcP6Status+0x773>
    287f: c9 00        	cmp	#$0
    2881: a5 16        	lda	$16                     ; 0x2016 <_ZN12_GLOBAL__N_15printEPKcP6Status+0x774>
    2883: 90 b3        	bcc	$2838 <_ZN12_GLOBAL__N_119allocate_free_chunkEPNS_9FreeChunkEj+0x66>
    2885: 4c 0a 28     	jmp	$280a <_ZN12_GLOBAL__N_119allocate_free_chunkEPNS_9FreeChunkEj+0x38>

00002888 <free>:
    2888: a6 12        	ldx	$12                     ; 0x2012 <_ZN12_GLOBAL__N_15printEPKcP6Status+0x770>
    288a: 86 14        	stx	$14                     ; 0x2014 <_ZN12_GLOBAL__N_15printEPKcP6Status+0x772>
    288c: a6 13        	ldx	$13                     ; 0x2013 <_ZN12_GLOBAL__N_15printEPKcP6Status+0x771>
    288e: 86 15        	stx	$15                     ; 0x2015 <_ZN12_GLOBAL__N_15printEPKcP6Status+0x773>
    2890: a2 00        	ldx	#$0
    2892: 86 12        	stx	$12                     ; 0x2012 <_ZN12_GLOBAL__N_15printEPKcP6Status+0x770>
    2894: a2 00        	ldx	#$0
    2896: 86 13        	stx	$13                     ; 0x2013 <_ZN12_GLOBAL__N_15printEPKcP6Status+0x771>
    2898: a6 15        	ldx	$15                     ; 0x2015 <_ZN12_GLOBAL__N_15printEPKcP6Status+0x773>
    289a: e4 13        	cpx	$13                     ; 0x2013 <_ZN12_GLOBAL__N_15printEPKcP6Status+0x771>
    289c: d0 09        	bne	$28a7 <free+0x1f>
    289e: a6 14        	ldx	$14                     ; 0x2014 <_ZN12_GLOBAL__N_15printEPKcP6Status+0x772>
    28a0: e4 12        	cpx	$12                     ; 0x2012 <_ZN12_GLOBAL__N_15printEPKcP6Status+0x770>
    28a2: d0 03        	bne	$28a7 <free+0x1f>
    28a4: 4c ff 29     	jmp	$29ff <free+0x177>
    28a7: a5 14        	lda	$14                     ; 0x2014 <_ZN12_GLOBAL__N_15printEPKcP6Status+0x772>
    28a9: 18           	clc
    28aa: 69 fe        	adc	#$fe
    28ac: aa           	tax
    28ad: a5 15        	lda	$15                     ; 0x2015 <_ZN12_GLOBAL__N_15printEPKcP6Status+0x773>
    28af: 69 ff        	adc	#$ff
    28b1: 86 d7        	stx	$d7                     ; 0x20d7 <_ZN12_GLOBAL__N_15printEPKcP6Status+0x835>
    28b3: 85 d8        	sta	$d8                     ; 0x20d8 <_ZN12_GLOBAL__N_15printEPKcP6Status+0x836>
    28b5: 85 12        	sta	$12                     ; 0x2012 <_ZN12_GLOBAL__N_15printEPKcP6Status+0x770>
    28b7: a0 01        	ldy	#$1
    28b9: b1 d7        	lda	($d7),y                 ; 0x20d7 <_ZN12_GLOBAL__N_15printEPKcP6Status+0x835>
    28bb: 85 16        	sta	$16                     ; 0x2016 <_ZN12_GLOBAL__N_15printEPKcP6Status+0x774>
    28bd: a9 fe        	lda	#$fe
    28bf: 32 d7        	and	($d7)                   ; 0x20d7 <_ZN12_GLOBAL__N_15printEPKcP6Status+0x835>
    28c1: 85 17        	sta	$17                     ; 0x2017 <_ZN12_GLOBAL__N_15printEPKcP6Status+0x775>
    28c3: 8a           	txa
    28c4: 86 1b        	stx	$1b                     ; 0x201b <_ZN12_GLOBAL__N_15printEPKcP6Status+0x779>
    28c6: 18           	clc
    28c7: 65 17        	adc	$17                     ; 0x2017 <_ZN12_GLOBAL__N_15printEPKcP6Status+0x775>
    28c9: aa           	tax
    28ca: a4 12        	ldy	$12                     ; 0x2012 <_ZN12_GLOBAL__N_15printEPKcP6Status+0x770>
    28cc: 84 1c        	sty	$1c                     ; 0x201c <_ZN12_GLOBAL__N_15printEPKcP6Status+0x77a>
    28ce: a5 12        	lda	$12                     ; 0x2012 <_ZN12_GLOBAL__N_15printEPKcP6Status+0x770>
    28d0: 65 16        	adc	$16                     ; 0x2016 <_ZN12_GLOBAL__N_15printEPKcP6Status+0x774>
    28d2: a8           	tay
    28d3: b2 d7        	lda	($d7)                   ; 0x20d7 <_ZN12_GLOBAL__N_15printEPKcP6Status+0x835>
    28d5: 85 1a        	sta	$1a                     ; 0x201a <_ZN12_GLOBAL__N_15printEPKcP6Status+0x778>
    28d7: a9 92        	lda	#$92
    28d9: 18           	clc
    28da: 65 65        	adc	$65                     ; 0x2065 <_ZN12_GLOBAL__N_15printEPKcP6Status+0x7c3>
    28dc: 85 18        	sta	$18                     ; 0x2018 <_ZN12_GLOBAL__N_15printEPKcP6Status+0x776>
    28de: a9 2c        	lda	#$2c
    28e0: 65 66        	adc	$66                     ; 0x2066 <_ZN12_GLOBAL__N_15printEPKcP6Status+0x7c4>
    28e2: 85 19        	sta	$19                     ; 0x2019 <_ZN12_GLOBAL__N_15printEPKcP6Status+0x777>
    28e4: c4 19        	cpy	$19                     ; 0x2019 <_ZN12_GLOBAL__N_15printEPKcP6Status+0x777>
    28e6: d0 0e        	bne	$28f6 <free+0x6e>
    28e8: e4 18        	cpx	$18                     ; 0x2018 <_ZN12_GLOBAL__N_15printEPKcP6Status+0x776>
    28ea: d0 0a        	bne	$28f6 <free+0x6e>
    28ec: a2 00        	ldx	#$0
    28ee: 86 12        	stx	$12                     ; 0x2012 <_ZN12_GLOBAL__N_15printEPKcP6Status+0x770>
    28f0: a2 00        	ldx	#$0
    28f2: 86 13        	stx	$13                     ; 0x2013 <_ZN12_GLOBAL__N_15printEPKcP6Status+0x771>
    28f4: 80 04        	bra	$28fa <free+0x72>
    28f6: 86 12        	stx	$12                     ; 0x2012 <_ZN12_GLOBAL__N_15printEPKcP6Status+0x770>
    28f8: 84 13        	sty	$13                     ; 0x2013 <_ZN12_GLOBAL__N_15printEPKcP6Status+0x771>
    28fa: a5 1a        	lda	$1a                     ; 0x201a <_ZN12_GLOBAL__N_15printEPKcP6Status+0x778>
    28fc: 29 01        	and	#$1
    28fe: d0 03        	bne	$2903 <free+0x7b>
    2900: 4c 7e 29     	jmp	$297e <free+0xf6>
    2903: a5 14        	lda	$14                     ; 0x2014 <_ZN12_GLOBAL__N_15printEPKcP6Status+0x772>
    2905: 18           	clc
    2906: 69 fc        	adc	#$fc
    2908: 85 14        	sta	$14                     ; 0x2014 <_ZN12_GLOBAL__N_15printEPKcP6Status+0x772>
    290a: a5 15        	lda	$15                     ; 0x2015 <_ZN12_GLOBAL__N_15printEPKcP6Status+0x773>
    290c: 69 ff        	adc	#$ff
    290e: 85 15        	sta	$15                     ; 0x2015 <_ZN12_GLOBAL__N_15printEPKcP6Status+0x773>
    2910: a0 01        	ldy	#$1
    2912: 38           	sec
    2913: a9 00        	lda	#$0
    2915: f2 14        	sbc	($14)                   ; 0x2014 <_ZN12_GLOBAL__N_15printEPKcP6Status+0x772>
    2917: 85 1a        	sta	$1a                     ; 0x201a <_ZN12_GLOBAL__N_15printEPKcP6Status+0x778>
    2919: a9 00        	lda	#$0
    291b: f1 14        	sbc	($14),y                 ; 0x2014 <_ZN12_GLOBAL__N_15printEPKcP6Status+0x772>
    291d: 85 14        	sta	$14                     ; 0x2014 <_ZN12_GLOBAL__N_15printEPKcP6Status+0x772>
    291f: a5 1b        	lda	$1b                     ; 0x201b <_ZN12_GLOBAL__N_15printEPKcP6Status+0x779>
    2921: 18           	clc
    2922: 65 1a        	adc	$1a                     ; 0x201a <_ZN12_GLOBAL__N_15printEPKcP6Status+0x778>
    2924: 85 d7        	sta	$d7                     ; 0x20d7 <_ZN12_GLOBAL__N_15printEPKcP6Status+0x835>
    2926: a5 1c        	lda	$1c                     ; 0x201c <_ZN12_GLOBAL__N_15printEPKcP6Status+0x77a>
    2928: 65 14        	adc	$14                     ; 0x2014 <_ZN12_GLOBAL__N_15printEPKcP6Status+0x772>
    292a: 85 d8        	sta	$d8                     ; 0x20d8 <_ZN12_GLOBAL__N_15printEPKcP6Status+0x836>
    292c: b1 d7        	lda	($d7),y                 ; 0x20d7 <_ZN12_GLOBAL__N_15printEPKcP6Status+0x835>
    292e: 85 df        	sta	$df                     ; 0x20df <_ZN12_GLOBAL__N_15printEPKcP6Status+0x83d>
    2930: a9 fe        	lda	#$fe
    2932: 32 d7        	and	($d7)                   ; 0x20d7 <_ZN12_GLOBAL__N_15printEPKcP6Status+0x835>
    2934: 85 e0        	sta	$e0                     ; 0x20e0 <_ZN12_GLOBAL__N_15printEPKcP6Status+0x83e>
    2936: a6 12        	ldx	$12                     ; 0x2012 <_ZN12_GLOBAL__N_15printEPKcP6Status+0x770>
    2938: 86 d9        	stx	$d9                     ; 0x20d9 <_ZN12_GLOBAL__N_15printEPKcP6Status+0x837>
    293a: a6 13        	ldx	$13                     ; 0x2013 <_ZN12_GLOBAL__N_15printEPKcP6Status+0x771>
    293c: 86 da        	stx	$da                     ; 0x20da <_ZN12_GLOBAL__N_15printEPKcP6Status+0x838>
    293e: a6 d7        	ldx	$d7                     ; 0x20d7 <_ZN12_GLOBAL__N_15printEPKcP6Status+0x835>
    2940: 86 12        	stx	$12                     ; 0x2012 <_ZN12_GLOBAL__N_15printEPKcP6Status+0x770>
    2942: a6 d8        	ldx	$d8                     ; 0x20d8 <_ZN12_GLOBAL__N_15printEPKcP6Status+0x836>
    2944: 86 13        	stx	$13                     ; 0x2013 <_ZN12_GLOBAL__N_15printEPKcP6Status+0x771>
    2946: a6 16        	ldx	$16                     ; 0x2016 <_ZN12_GLOBAL__N_15printEPKcP6Status+0x774>
    2948: 86 db        	stx	$db                     ; 0x20db <_ZN12_GLOBAL__N_15printEPKcP6Status+0x839>
    294a: a6 17        	ldx	$17                     ; 0x2017 <_ZN12_GLOBAL__N_15printEPKcP6Status+0x775>
    294c: 86 dc        	stx	$dc                     ; 0x20dc <_ZN12_GLOBAL__N_15printEPKcP6Status+0x83a>
    294e: a6 18        	ldx	$18                     ; 0x2018 <_ZN12_GLOBAL__N_15printEPKcP6Status+0x776>
    2950: 86 dd        	stx	$dd                     ; 0x20dd <_ZN12_GLOBAL__N_15printEPKcP6Status+0x83b>
    2952: a6 19        	ldx	$19                     ; 0x2019 <_ZN12_GLOBAL__N_15printEPKcP6Status+0x777>
    2954: 86 de        	stx	$de                     ; 0x20de <_ZN12_GLOBAL__N_15printEPKcP6Status+0x83c>
    2956: 20 86 04     	jsr	$486 <_ZN12_GLOBAL__N_19FreeChunk6removeEv>
    2959: a6 de        	ldx	$de                     ; 0x20de <_ZN12_GLOBAL__N_15printEPKcP6Status+0x83c>
    295b: 86 19        	stx	$19                     ; 0x2019 <_ZN12_GLOBAL__N_15printEPKcP6Status+0x777>
    295d: a6 dd        	ldx	$dd                     ; 0x20dd <_ZN12_GLOBAL__N_15printEPKcP6Status+0x83b>
    295f: 86 18        	stx	$18                     ; 0x2018 <_ZN12_GLOBAL__N_15printEPKcP6Status+0x776>
    2961: a6 d9        	ldx	$d9                     ; 0x20d9 <_ZN12_GLOBAL__N_15printEPKcP6Status+0x837>
    2963: 86 12        	stx	$12                     ; 0x2012 <_ZN12_GLOBAL__N_15printEPKcP6Status+0x770>
    2965: a6 da        	ldx	$da                     ; 0x20da <_ZN12_GLOBAL__N_15printEPKcP6Status+0x838>
    2967: 86 13        	stx	$13                     ; 0x2013 <_ZN12_GLOBAL__N_15printEPKcP6Status+0x771>
    2969: 18           	clc
    296a: a5 e0        	lda	$e0                     ; 0x20e0 <_ZN12_GLOBAL__N_15printEPKcP6Status+0x83e>
    296c: a6 dc        	ldx	$dc                     ; 0x20dc <_ZN12_GLOBAL__N_15printEPKcP6Status+0x83a>
    296e: 86 14        	stx	$14                     ; 0x2014 <_ZN12_GLOBAL__N_15printEPKcP6Status+0x772>
    2970: 65 14        	adc	$14                     ; 0x2014 <_ZN12_GLOBAL__N_15printEPKcP6Status+0x772>
    2972: 85 17        	sta	$17                     ; 0x2017 <_ZN12_GLOBAL__N_15printEPKcP6Status+0x775>
    2974: a5 df        	lda	$df                     ; 0x20df <_ZN12_GLOBAL__N_15printEPKcP6Status+0x83d>
    2976: a6 db        	ldx	$db                     ; 0x20db <_ZN12_GLOBAL__N_15printEPKcP6Status+0x839>
    2978: 86 14        	stx	$14                     ; 0x2014 <_ZN12_GLOBAL__N_15printEPKcP6Status+0x772>
    297a: 65 14        	adc	$14                     ; 0x2014 <_ZN12_GLOBAL__N_15printEPKcP6Status+0x772>
    297c: 85 16        	sta	$16                     ; 0x2016 <_ZN12_GLOBAL__N_15printEPKcP6Status+0x774>
    297e: a2 00        	ldx	#$0
    2980: 86 14        	stx	$14                     ; 0x2014 <_ZN12_GLOBAL__N_15printEPKcP6Status+0x772>
    2982: a2 00        	ldx	#$0
    2984: 86 15        	stx	$15                     ; 0x2015 <_ZN12_GLOBAL__N_15printEPKcP6Status+0x773>
    2986: a6 13        	ldx	$13                     ; 0x2013 <_ZN12_GLOBAL__N_15printEPKcP6Status+0x771>
    2988: e4 15        	cpx	$15                     ; 0x2015 <_ZN12_GLOBAL__N_15printEPKcP6Status+0x773>
    298a: d0 0d        	bne	$2999 <free+0x111>
    298c: a6 12        	ldx	$12                     ; 0x2012 <_ZN12_GLOBAL__N_15printEPKcP6Status+0x770>
    298e: e4 14        	cpx	$14                     ; 0x2014 <_ZN12_GLOBAL__N_15printEPKcP6Status+0x772>
    2990: d0 07        	bne	$2999 <free+0x111>
    2992: a2 01        	ldx	#$1
    2994: 86 d2        	stx	$d2                     ; 0x20d2 <_ZN12_GLOBAL__N_15printEPKcP6Status+0x830>
    2996: 4c f0 29     	jmp	$29f0 <free+0x168>
    2999: a0 01        	ldy	#$1
    299b: b1 12        	lda	($12),y                 ; 0x2012 <_ZN12_GLOBAL__N_15printEPKcP6Status+0x770>
    299d: a8           	tay
    299e: a9 fe        	lda	#$fe
    29a0: 32 12        	and	($12)                   ; 0x2012 <_ZN12_GLOBAL__N_15printEPKcP6Status+0x770>
    29a2: 18           	clc
    29a3: 85 dd        	sta	$dd                     ; 0x20dd <_ZN12_GLOBAL__N_15printEPKcP6Status+0x83b>
    29a5: 65 12        	adc	$12                     ; 0x2012 <_ZN12_GLOBAL__N_15printEPKcP6Status+0x770>
    29a7: 85 14        	sta	$14                     ; 0x2014 <_ZN12_GLOBAL__N_15printEPKcP6Status+0x772>
    29a9: 98           	tya
    29aa: 85 d9        	sta	$d9                     ; 0x20d9 <_ZN12_GLOBAL__N_15printEPKcP6Status+0x837>
    29ac: 65 13        	adc	$13                     ; 0x2013 <_ZN12_GLOBAL__N_15printEPKcP6Status+0x771>
    29ae: c5 19        	cmp	$19                     ; 0x2019 <_ZN12_GLOBAL__N_15printEPKcP6Status+0x777>
    29b0: d0 0e        	bne	$29c0 <free+0x138>
    29b2: a6 14        	ldx	$14                     ; 0x2014 <_ZN12_GLOBAL__N_15printEPKcP6Status+0x772>
    29b4: e4 18        	cpx	$18                     ; 0x2018 <_ZN12_GLOBAL__N_15printEPKcP6Status+0x776>
    29b6: d0 08        	bne	$29c0 <free+0x138>
    29b8: a9 01        	lda	#$1
    29ba: 64 14        	stz	$14                     ; 0x2014 <_ZN12_GLOBAL__N_15printEPKcP6Status+0x772>
    29bc: 25 d2        	and	$d2                     ; 0x20d2 <_ZN12_GLOBAL__N_15printEPKcP6Status+0x830>
    29be: 80 08        	bra	$29c8 <free+0x140>
    29c0: 85 15        	sta	$15                     ; 0x2015 <_ZN12_GLOBAL__N_15printEPKcP6Status+0x773>
    29c2: a9 01        	lda	#$1
    29c4: 32 14        	and	($14)                   ; 0x2014 <_ZN12_GLOBAL__N_15printEPKcP6Status+0x772>
    29c6: 64 14        	stz	$14                     ; 0x2014 <_ZN12_GLOBAL__N_15printEPKcP6Status+0x772>
    29c8: a6 14        	ldx	$14                     ; 0x2014 <_ZN12_GLOBAL__N_15printEPKcP6Status+0x772>
    29ca: d0 03        	bne	$29cf <free+0x147>
    29cc: aa           	tax
    29cd: f0 31        	beq	$2a00 <free+0x178>
    29cf: a6 16        	ldx	$16                     ; 0x2016 <_ZN12_GLOBAL__N_15printEPKcP6Status+0x774>
    29d1: 86 db        	stx	$db                     ; 0x20db <_ZN12_GLOBAL__N_15printEPKcP6Status+0x839>
    29d3: a6 17        	ldx	$17                     ; 0x2017 <_ZN12_GLOBAL__N_15printEPKcP6Status+0x775>
    29d5: 86 dc        	stx	$dc                     ; 0x20dc <_ZN12_GLOBAL__N_15printEPKcP6Status+0x83a>
    29d7: 20 86 04     	jsr	$486 <_ZN12_GLOBAL__N_19FreeChunk6removeEv>
    29da: 18           	clc
    29db: a6 dd        	ldx	$dd                     ; 0x20dd <_ZN12_GLOBAL__N_15printEPKcP6Status+0x83b>
    29dd: 8a           	txa
    29de: a6 dc        	ldx	$dc                     ; 0x20dc <_ZN12_GLOBAL__N_15printEPKcP6Status+0x83a>
    29e0: 86 12        	stx	$12                     ; 0x2012 <_ZN12_GLOBAL__N_15printEPKcP6Status+0x770>
    29e2: 65 12        	adc	$12                     ; 0x2012 <_ZN12_GLOBAL__N_15printEPKcP6Status+0x770>
    29e4: 85 17        	sta	$17                     ; 0x2017 <_ZN12_GLOBAL__N_15printEPKcP6Status+0x775>
    29e6: a5 d9        	lda	$d9                     ; 0x20d9 <_ZN12_GLOBAL__N_15printEPKcP6Status+0x837>
    29e8: a6 db        	ldx	$db                     ; 0x20db <_ZN12_GLOBAL__N_15printEPKcP6Status+0x839>
    29ea: 86 12        	stx	$12                     ; 0x2012 <_ZN12_GLOBAL__N_15printEPKcP6Status+0x770>
    29ec: 65 12        	adc	$12                     ; 0x2012 <_ZN12_GLOBAL__N_15printEPKcP6Status+0x770>
    29ee: 85 16        	sta	$16                     ; 0x2016 <_ZN12_GLOBAL__N_15printEPKcP6Status+0x774>
    29f0: a6 d7        	ldx	$d7                     ; 0x20d7 <_ZN12_GLOBAL__N_15printEPKcP6Status+0x835>
    29f2: 86 12        	stx	$12                     ; 0x2012 <_ZN12_GLOBAL__N_15printEPKcP6Status+0x770>
    29f4: a6 d8        	ldx	$d8                     ; 0x20d8 <_ZN12_GLOBAL__N_15printEPKcP6Status+0x836>
    29f6: 86 13        	stx	$13                     ; 0x2013 <_ZN12_GLOBAL__N_15printEPKcP6Status+0x771>
    29f8: a6 16        	ldx	$16                     ; 0x2016 <_ZN12_GLOBAL__N_15printEPKcP6Status+0x774>
    29fa: a5 17        	lda	$17                     ; 0x2017 <_ZN12_GLOBAL__N_15printEPKcP6Status+0x775>
    29fc: 20 50 03     	jsr	$350 <_ZN12_GLOBAL__N_19FreeChunk6insertEPvj>
    29ff: 60           	rts
    2a00: b2 12        	lda	($12)                   ; 0x2012 <_ZN12_GLOBAL__N_15printEPKcP6Status+0x770>
    2a02: 09 01        	ora	#$1
    2a04: 92 12        	sta	($12)                   ; 0x2012 <_ZN12_GLOBAL__N_15printEPKcP6Status+0x770>
    2a06: a0 01        	ldy	#$1
    2a08: a5 d9        	lda	$d9                     ; 0x20d9 <_ZN12_GLOBAL__N_15printEPKcP6Status+0x837>
    2a0a: 91 12        	sta	($12),y                 ; 0x2012 <_ZN12_GLOBAL__N_15printEPKcP6Status+0x770>
    2a0c: 80 e2        	bra	$29f0 <free+0x168>

00002a0e <memcpy>:
    2a0e: a8           	tay
    2a0f: 8a           	txa
    2a10: d0 03        	bne	$2a15 <memcpy+0x7>
    2a12: 98           	tya
    2a13: f0 24        	beq	$2a39 <memcpy+0x2b>
    2a15: a5 12        	lda	$12                     ; 0x2012 <_ZN12_GLOBAL__N_15printEPKcP6Status+0x770>
    2a17: 85 16        	sta	$16                     ; 0x2016 <_ZN12_GLOBAL__N_15printEPKcP6Status+0x774>
    2a19: a5 13        	lda	$13                     ; 0x2013 <_ZN12_GLOBAL__N_15printEPKcP6Status+0x771>
    2a1b: 85 17        	sta	$17                     ; 0x2017 <_ZN12_GLOBAL__N_15printEPKcP6Status+0x775>
    2a1d: b2 14        	lda	($14)                   ; 0x2014 <_ZN12_GLOBAL__N_15printEPKcP6Status+0x772>
    2a1f: 92 16        	sta	($16)                   ; 0x2016 <_ZN12_GLOBAL__N_15printEPKcP6Status+0x774>
    2a21: e6 16        	inc	$16                     ; 0x2016 <_ZN12_GLOBAL__N_15printEPKcP6Status+0x774>
    2a23: d0 02        	bne	$2a27 <memcpy+0x19>
    2a25: e6 17        	inc	$17                     ; 0x2017 <_ZN12_GLOBAL__N_15printEPKcP6Status+0x775>
    2a27: e6 14        	inc	$14                     ; 0x2014 <_ZN12_GLOBAL__N_15printEPKcP6Status+0x772>
    2a29: d0 02        	bne	$2a2d <memcpy+0x1f>
    2a2b: e6 15        	inc	$15                     ; 0x2015 <_ZN12_GLOBAL__N_15printEPKcP6Status+0x773>
    2a2d: 88           	dey
    2a2e: c0 ff        	cpy	#$ff
    2a30: d0 01        	bne	$2a33 <memcpy+0x25>
    2a32: ca           	dex
    2a33: 8a           	txa
    2a34: d0 e7        	bne	$2a1d <memcpy+0xf>
    2a36: 98           	tya
    2a37: d0 e4        	bne	$2a1d <memcpy+0xf>
    2a39: 60           	rts

00002a3a <__memset>:
    2a3a: a4 14        	ldy	$14                     ; 0x2014 <_ZN12_GLOBAL__N_15printEPKcP6Status+0x772>
    2a3c: d0 04        	bne	$2a42 <__memset+0x8>
    2a3e: e0 00        	cpx	#$0
    2a40: f0 17        	beq	$2a59 <__memset+0x1f>
    2a42: 92 12        	sta	($12)                   ; 0x2012 <_ZN12_GLOBAL__N_15printEPKcP6Status+0x770>
    2a44: e6 12        	inc	$12                     ; 0x2012 <_ZN12_GLOBAL__N_15printEPKcP6Status+0x770>
    2a46: d0 02        	bne	$2a4a <__memset+0x10>
    2a48: e6 13        	inc	$13                     ; 0x2013 <_ZN12_GLOBAL__N_15printEPKcP6Status+0x771>
    2a4a: ca           	dex
    2a4b: e0 ff        	cpx	#$ff
    2a4d: d0 02        	bne	$2a51 <__memset+0x17>
    2a4f: c6 14        	dec	$14                     ; 0x2014 <_ZN12_GLOBAL__N_15printEPKcP6Status+0x772>
    2a51: a4 14        	ldy	$14                     ; 0x2014 <_ZN12_GLOBAL__N_15printEPKcP6Status+0x772>
    2a53: d0 ed        	bne	$2a42 <__memset+0x8>
    2a55: e0 00        	cpx	#$0
    2a57: d0 e9        	bne	$2a42 <__memset+0x8>
    2a59: 60           	rts

00002a5a <strlen>:
    2a5a: b2 12        	lda	($12)                   ; 0x2012 <_ZN12_GLOBAL__N_15printEPKcP6Status+0x770>
    2a5c: f0 2e        	beq	$2a8c <strlen+0x32>
    2a5e: 64 15        	stz	$15                     ; 0x2015 <_ZN12_GLOBAL__N_15printEPKcP6Status+0x773>
    2a60: a0 01        	ldy	#$1
    2a62: a9 00        	lda	#$0
    2a64: 64 14        	stz	$14                     ; 0x2014 <_ZN12_GLOBAL__N_15printEPKcP6Status+0x772>
    2a66: aa           	tax
    2a67: e6 14        	inc	$14                     ; 0x2014 <_ZN12_GLOBAL__N_15printEPKcP6Status+0x772>
    2a69: d0 01        	bne	$2a6c <strlen+0x12>
    2a6b: e8           	inx
    2a6c: 18           	clc
    2a6d: 85 17        	sta	$17                     ; 0x2017 <_ZN12_GLOBAL__N_15printEPKcP6Status+0x775>
    2a6f: a5 15        	lda	$15                     ; 0x2015 <_ZN12_GLOBAL__N_15printEPKcP6Status+0x773>
    2a71: 65 12        	adc	$12                     ; 0x2012 <_ZN12_GLOBAL__N_15printEPKcP6Status+0x770>
    2a73: 85 16        	sta	$16                     ; 0x2016 <_ZN12_GLOBAL__N_15printEPKcP6Status+0x774>
    2a75: a5 17        	lda	$17                     ; 0x2017 <_ZN12_GLOBAL__N_15printEPKcP6Status+0x775>
    2a77: 65 13        	adc	$13                     ; 0x2013 <_ZN12_GLOBAL__N_15printEPKcP6Status+0x771>
    2a79: 85 17        	sta	$17                     ; 0x2017 <_ZN12_GLOBAL__N_15printEPKcP6Status+0x775>
    2a7b: b1 16        	lda	($16),y                 ; 0x2016 <_ZN12_GLOBAL__N_15printEPKcP6Status+0x774>
    2a7d: 85 16        	sta	$16                     ; 0x2016 <_ZN12_GLOBAL__N_15printEPKcP6Status+0x774>
    2a7f: a5 14        	lda	$14                     ; 0x2014 <_ZN12_GLOBAL__N_15printEPKcP6Status+0x772>
    2a81: 85 15        	sta	$15                     ; 0x2015 <_ZN12_GLOBAL__N_15printEPKcP6Status+0x773>
    2a83: 8a           	txa
    2a84: e6 16        	inc	$16                     ; 0x2016 <_ZN12_GLOBAL__N_15printEPKcP6Status+0x774>
    2a86: c6 16        	dec	$16                     ; 0x2016 <_ZN12_GLOBAL__N_15printEPKcP6Status+0x774>
    2a88: d0 dd        	bne	$2a67 <strlen+0xd>
    2a8a: 80 04        	bra	$2a90 <strlen+0x36>
    2a8c: 64 14        	stz	$14                     ; 0x2014 <_ZN12_GLOBAL__N_15printEPKcP6Status+0x772>
    2a8e: a2 00        	ldx	#$0
    2a90: a5 14        	lda	$14                     ; 0x2014 <_ZN12_GLOBAL__N_15printEPKcP6Status+0x772>
    2a92: 60           	rts

00002a93 <__simple_strtoui>:
    2a93: a9 d0        	lda	#$d0
    2a95: 18           	clc
    2a96: 72 12        	adc	($12)                   ; 0x2012 <_ZN12_GLOBAL__N_15printEPKcP6Status+0x770>
    2a98: c9 0a        	cmp	#$a
    2a9a: 90 03        	bcc	$2a9f <__simple_strtoui+0xc>
    2a9c: 4c f0 2a     	jmp	$2af0 <__simple_strtoui+0x5d>
    2a9f: b2 12        	lda	($12)                   ; 0x2012 <_ZN12_GLOBAL__N_15printEPKcP6Status+0x770>
    2aa1: 64 16        	stz	$16                     ; 0x2016 <_ZN12_GLOBAL__N_15printEPKcP6Status+0x774>
    2aa3: a0 01        	ldy	#$1
    2aa5: 85 17        	sta	$17                     ; 0x2017 <_ZN12_GLOBAL__N_15printEPKcP6Status+0x775>
    2aa7: 64 18        	stz	$18                     ; 0x2018 <_ZN12_GLOBAL__N_15printEPKcP6Status+0x776>
    2aa9: a2 00        	ldx	#$0
    2aab: 06 18        	asl	$18                     ; 0x2018 <_ZN12_GLOBAL__N_15printEPKcP6Status+0x776>
    2aad: 8a           	txa
    2aae: 2a           	rol
    2aaf: 85 19        	sta	$19                     ; 0x2019 <_ZN12_GLOBAL__N_15printEPKcP6Status+0x777>
    2ab1: a5 18        	lda	$18                     ; 0x2018 <_ZN12_GLOBAL__N_15printEPKcP6Status+0x776>
    2ab3: 0a           	asl
    2ab4: a6 19        	ldx	$19                     ; 0x2019 <_ZN12_GLOBAL__N_15printEPKcP6Status+0x777>
    2ab6: 86 1a        	stx	$1a                     ; 0x201a <_ZN12_GLOBAL__N_15printEPKcP6Status+0x778>
    2ab8: 26 1a        	rol	$1a                     ; 0x201a <_ZN12_GLOBAL__N_15printEPKcP6Status+0x778>
    2aba: 0a           	asl
    2abb: 26 1a        	rol	$1a                     ; 0x201a <_ZN12_GLOBAL__N_15printEPKcP6Status+0x778>
    2abd: 18           	clc
    2abe: 65 18        	adc	$18                     ; 0x2018 <_ZN12_GLOBAL__N_15printEPKcP6Status+0x776>
    2ac0: aa           	tax
    2ac1: a5 1a        	lda	$1a                     ; 0x201a <_ZN12_GLOBAL__N_15printEPKcP6Status+0x778>
    2ac3: 65 19        	adc	$19                     ; 0x2019 <_ZN12_GLOBAL__N_15printEPKcP6Status+0x777>
    2ac5: 85 18        	sta	$18                     ; 0x2018 <_ZN12_GLOBAL__N_15printEPKcP6Status+0x776>
    2ac7: 8a           	txa
    2ac8: 18           	clc
    2ac9: 65 17        	adc	$17                     ; 0x2017 <_ZN12_GLOBAL__N_15printEPKcP6Status+0x775>
    2acb: 85 17        	sta	$17                     ; 0x2017 <_ZN12_GLOBAL__N_15printEPKcP6Status+0x775>
    2acd: a5 18        	lda	$18                     ; 0x2018 <_ZN12_GLOBAL__N_15printEPKcP6Status+0x776>
    2acf: 65 16        	adc	$16                     ; 0x2016 <_ZN12_GLOBAL__N_15printEPKcP6Status+0x774>
    2ad1: aa           	tax
    2ad2: 18           	clc
    2ad3: a5 17        	lda	$17                     ; 0x2017 <_ZN12_GLOBAL__N_15printEPKcP6Status+0x775>
    2ad5: 69 d0        	adc	#$d0
    2ad7: 85 18        	sta	$18                     ; 0x2018 <_ZN12_GLOBAL__N_15printEPKcP6Status+0x776>
    2ad9: 8a           	txa
    2ada: 69 ff        	adc	#$ff
    2adc: aa           	tax
    2add: b1 12        	lda	($12),y                 ; 0x2012 <_ZN12_GLOBAL__N_15printEPKcP6Status+0x770>
    2adf: 85 17        	sta	$17                     ; 0x2017 <_ZN12_GLOBAL__N_15printEPKcP6Status+0x775>
    2ae1: 18           	clc
    2ae2: 69 d0        	adc	#$d0
    2ae4: e6 12        	inc	$12                     ; 0x2012 <_ZN12_GLOBAL__N_15printEPKcP6Status+0x770>
    2ae6: d0 02        	bne	$2aea <__simple_strtoui+0x57>
    2ae8: e6 13        	inc	$13                     ; 0x2013 <_ZN12_GLOBAL__N_15printEPKcP6Status+0x771>
    2aea: c9 0a        	cmp	#$a
    2aec: 90 bd        	bcc	$2aab <__simple_strtoui+0x18>
    2aee: 80 04        	bra	$2af4 <__simple_strtoui+0x61>
    2af0: 64 18        	stz	$18                     ; 0x2018 <_ZN12_GLOBAL__N_15printEPKcP6Status+0x776>
    2af2: a2 00        	ldx	#$0
    2af4: a5 12        	lda	$12                     ; 0x2012 <_ZN12_GLOBAL__N_15printEPKcP6Status+0x770>
    2af6: 92 14        	sta	($14)                   ; 0x2014 <_ZN12_GLOBAL__N_15printEPKcP6Status+0x772>
    2af8: a0 01        	ldy	#$1
    2afa: a5 13        	lda	$13                     ; 0x2013 <_ZN12_GLOBAL__N_15printEPKcP6Status+0x771>
    2afc: 91 14        	sta	($14),y                 ; 0x2014 <_ZN12_GLOBAL__N_15printEPKcP6Status+0x772>
    2afe: a5 18        	lda	$18                     ; 0x2018 <_ZN12_GLOBAL__N_15printEPKcP6Status+0x776>
    2b00: 60           	rts

00002b01 <__mulhi3>:
    2b01: a4 13        	ldy	$13                     ; 0x2013 <_ZN12_GLOBAL__N_15printEPKcP6Status+0x771>
    2b03: d0 04        	bne	$2b09 <__mulhi3+0x8>
    2b05: a4 12        	ldy	$12                     ; 0x2012 <_ZN12_GLOBAL__N_15printEPKcP6Status+0x770>
    2b07: f0 25        	beq	$2b2e <__mulhi3+0x2d>
    2b09: 85 14        	sta	$14                     ; 0x2014 <_ZN12_GLOBAL__N_15printEPKcP6Status+0x772>
    2b0b: 86 15        	stx	$15                     ; 0x2015 <_ZN12_GLOBAL__N_15printEPKcP6Status+0x773>
    2b0d: a0 00        	ldy	#$0
    2b0f: 98           	tya
    2b10: 46 13        	lsr	$13                     ; 0x2013 <_ZN12_GLOBAL__N_15printEPKcP6Status+0x771>
    2b12: 66 12        	ror	$12                     ; 0x2012 <_ZN12_GLOBAL__N_15printEPKcP6Status+0x770>
    2b14: 90 09        	bcc	$2b1f <__mulhi3+0x1e>
    2b16: aa           	tax
    2b17: 98           	tya
    2b18: 18           	clc
    2b19: 65 14        	adc	$14                     ; 0x2014 <_ZN12_GLOBAL__N_15printEPKcP6Status+0x772>
    2b1b: a8           	tay
    2b1c: 8a           	txa
    2b1d: 65 15        	adc	$15                     ; 0x2015 <_ZN12_GLOBAL__N_15printEPKcP6Status+0x773>
    2b1f: 06 14        	asl	$14                     ; 0x2014 <_ZN12_GLOBAL__N_15printEPKcP6Status+0x772>
    2b21: 26 15        	rol	$15                     ; 0x2015 <_ZN12_GLOBAL__N_15printEPKcP6Status+0x773>
    2b23: a6 13        	ldx	$13                     ; 0x2013 <_ZN12_GLOBAL__N_15printEPKcP6Status+0x771>
    2b25: d0 e9        	bne	$2b10 <__mulhi3+0xf>
    2b27: a6 12        	ldx	$12                     ; 0x2012 <_ZN12_GLOBAL__N_15printEPKcP6Status+0x770>
    2b29: d0 e5        	bne	$2b10 <__mulhi3+0xf>
    2b2b: aa           	tax
    2b2c: 98           	tya
    2b2d: 60           	rts
    2b2e: a0 00        	ldy	#$0
    2b30: 98           	tya
    2b31: 80 f8        	bra	$2b2b <__mulhi3+0x2a>

00002b33 <__udivhi3>:
    2b33: 64 14        	stz	$14                     ; 0x2014 <_ZN12_GLOBAL__N_15printEPKcP6Status+0x772>
    2b35: a4 13        	ldy	$13                     ; 0x2013 <_ZN12_GLOBAL__N_15printEPKcP6Status+0x771>
    2b37: d0 04        	bne	$2b3d <__udivhi3+0xa>
    2b39: a4 12        	ldy	$12                     ; 0x2012 <_ZN12_GLOBAL__N_15printEPKcP6Status+0x770>
    2b3b: f0 0e        	beq	$2b4b <__udivhi3+0x18>
    2b3d: 85 17        	sta	$17                     ; 0x2017 <_ZN12_GLOBAL__N_15printEPKcP6Status+0x775>
    2b3f: 8a           	txa
    2b40: e4 13        	cpx	$13                     ; 0x2013 <_ZN12_GLOBAL__N_15printEPKcP6Status+0x771>
    2b42: d0 0e        	bne	$2b52 <__udivhi3+0x1f>
    2b44: a5 17        	lda	$17                     ; 0x2017 <_ZN12_GLOBAL__N_15printEPKcP6Status+0x775>
    2b46: c5 12        	cmp	$12                     ; 0x2012 <_ZN12_GLOBAL__N_15printEPKcP6Status+0x770>
    2b48: 8a           	txa
    2b49: b0 0b        	bcs	$2b56 <__udivhi3+0x23>
    2b4b: a2 00        	ldx	#$0
    2b4d: 86 e3        	stx	$e3                     ; 0x20e3 <_ZN12_GLOBAL__N_15printEPKcP6Status+0x841>
    2b4f: 4c ee 2b     	jmp	$2bee <__udivhi3+0xbb>
    2b52: c5 13        	cmp	$13                     ; 0x2013 <_ZN12_GLOBAL__N_15printEPKcP6Status+0x771>
    2b54: 90 f5        	bcc	$2b4b <__udivhi3+0x18>
    2b56: a2 01        	ldx	#$1
    2b58: 86 e3        	stx	$e3                     ; 0x20e3 <_ZN12_GLOBAL__N_15printEPKcP6Status+0x841>
    2b5a: a6 13        	ldx	$13                     ; 0x2013 <_ZN12_GLOBAL__N_15printEPKcP6Status+0x771>
    2b5c: 10 03        	bpl	$2b61 <__udivhi3+0x2e>
    2b5e: 4c ee 2b     	jmp	$2bee <__udivhi3+0xbb>
    2b61: a2 00        	ldx	#$0
    2b63: a4 12        	ldy	$12                     ; 0x2012 <_ZN12_GLOBAL__N_15printEPKcP6Status+0x770>
    2b65: 84 15        	sty	$15                     ; 0x2015 <_ZN12_GLOBAL__N_15printEPKcP6Status+0x773>
    2b67: a4 13        	ldy	$13                     ; 0x2013 <_ZN12_GLOBAL__N_15printEPKcP6Status+0x771>
    2b69: 84 16        	sty	$16                     ; 0x2016 <_ZN12_GLOBAL__N_15printEPKcP6Status+0x774>
    2b6b: 06 15        	asl	$15                     ; 0x2015 <_ZN12_GLOBAL__N_15printEPKcP6Status+0x773>
    2b6d: 26 16        	rol	$16                     ; 0x2016 <_ZN12_GLOBAL__N_15printEPKcP6Status+0x774>
    2b6f: c5 16        	cmp	$16                     ; 0x2016 <_ZN12_GLOBAL__N_15printEPKcP6Status+0x774>
    2b71: d0 08        	bne	$2b7b <__udivhi3+0x48>
    2b73: a4 17        	ldy	$17                     ; 0x2017 <_ZN12_GLOBAL__N_15printEPKcP6Status+0x775>
    2b75: c4 15        	cpy	$15                     ; 0x2015 <_ZN12_GLOBAL__N_15printEPKcP6Status+0x773>
    2b77: 90 13        	bcc	$2b8c <__udivhi3+0x59>
    2b79: 80 04        	bra	$2b7f <__udivhi3+0x4c>
    2b7b: c5 16        	cmp	$16                     ; 0x2016 <_ZN12_GLOBAL__N_15printEPKcP6Status+0x774>
    2b7d: 90 0d        	bcc	$2b8c <__udivhi3+0x59>
    2b7f: e8           	inx
    2b80: a4 15        	ldy	$15                     ; 0x2015 <_ZN12_GLOBAL__N_15printEPKcP6Status+0x773>
    2b82: 84 12        	sty	$12                     ; 0x2012 <_ZN12_GLOBAL__N_15printEPKcP6Status+0x770>
    2b84: a4 16        	ldy	$16                     ; 0x2016 <_ZN12_GLOBAL__N_15printEPKcP6Status+0x774>
    2b86: 84 13        	sty	$13                     ; 0x2013 <_ZN12_GLOBAL__N_15printEPKcP6Status+0x771>
    2b88: 10 e1        	bpl	$2b6b <__udivhi3+0x38>
    2b8a: 80 08        	bra	$2b94 <__udivhi3+0x61>
    2b8c: a4 12        	ldy	$12                     ; 0x2012 <_ZN12_GLOBAL__N_15printEPKcP6Status+0x770>
    2b8e: 84 15        	sty	$15                     ; 0x2015 <_ZN12_GLOBAL__N_15printEPKcP6Status+0x773>
    2b90: a4 13        	ldy	$13                     ; 0x2013 <_ZN12_GLOBAL__N_15printEPKcP6Status+0x771>
    2b92: 84 16        	sty	$16                     ; 0x2016 <_ZN12_GLOBAL__N_15printEPKcP6Status+0x774>
    2b94: e0 00        	cpx	#$0
    2b96: d0 03        	bne	$2b9b <__udivhi3+0x68>
    2b98: 4c ee 2b     	jmp	$2bee <__udivhi3+0xbb>
    2b9b: 38           	sec
    2b9c: a8           	tay
    2b9d: a5 17        	lda	$17                     ; 0x2017 <_ZN12_GLOBAL__N_15printEPKcP6Status+0x775>
    2b9f: e5 15        	sbc	$15                     ; 0x2015 <_ZN12_GLOBAL__N_15printEPKcP6Status+0x773>
    2ba1: 85 12        	sta	$12                     ; 0x2012 <_ZN12_GLOBAL__N_15printEPKcP6Status+0x770>
    2ba3: 98           	tya
    2ba4: e5 16        	sbc	$16                     ; 0x2016 <_ZN12_GLOBAL__N_15printEPKcP6Status+0x774>
    2ba6: a0 01        	ldy	#$1
    2ba8: 84 e3        	sty	$e3                     ; 0x20e3 <_ZN12_GLOBAL__N_15printEPKcP6Status+0x841>
    2baa: 64 14        	stz	$14                     ; 0x2014 <_ZN12_GLOBAL__N_15printEPKcP6Status+0x772>
    2bac: 46 16        	lsr	$16                     ; 0x2016 <_ZN12_GLOBAL__N_15printEPKcP6Status+0x774>
    2bae: 66 15        	ror	$15                     ; 0x2015 <_ZN12_GLOBAL__N_15printEPKcP6Status+0x773>
    2bb0: a4 e3        	ldy	$e3                     ; 0x20e3 <_ZN12_GLOBAL__N_15printEPKcP6Status+0x841>
    2bb2: 84 13        	sty	$13                     ; 0x2013 <_ZN12_GLOBAL__N_15printEPKcP6Status+0x771>
    2bb4: 06 13        	asl	$13                     ; 0x2013 <_ZN12_GLOBAL__N_15printEPKcP6Status+0x771>
    2bb6: a0 01        	ldy	#$1
    2bb8: b0 02        	bcs	$2bbc <__udivhi3+0x89>
    2bba: a0 00        	ldy	#$0
    2bbc: 84 17        	sty	$17                     ; 0x2017 <_ZN12_GLOBAL__N_15printEPKcP6Status+0x775>
    2bbe: a4 13        	ldy	$13                     ; 0x2013 <_ZN12_GLOBAL__N_15printEPKcP6Status+0x771>
    2bc0: 84 e3        	sty	$e3                     ; 0x20e3 <_ZN12_GLOBAL__N_15printEPKcP6Status+0x841>
    2bc2: c5 16        	cmp	$16                     ; 0x2016 <_ZN12_GLOBAL__N_15printEPKcP6Status+0x774>
    2bc4: d0 22        	bne	$2be8 <__udivhi3+0xb5>
    2bc6: a4 12        	ldy	$12                     ; 0x2012 <_ZN12_GLOBAL__N_15printEPKcP6Status+0x770>
    2bc8: c4 15        	cpy	$15                     ; 0x2015 <_ZN12_GLOBAL__N_15printEPKcP6Status+0x773>
    2bca: 90 11        	bcc	$2bdd <__udivhi3+0xaa>
    2bcc: a8           	tay
    2bcd: a5 e3        	lda	$e3                     ; 0x20e3 <_ZN12_GLOBAL__N_15printEPKcP6Status+0x841>
    2bcf: 09 01        	ora	#$1
    2bd1: 85 e3        	sta	$e3                     ; 0x20e3 <_ZN12_GLOBAL__N_15printEPKcP6Status+0x841>
    2bd3: 38           	sec
    2bd4: a5 12        	lda	$12                     ; 0x2012 <_ZN12_GLOBAL__N_15printEPKcP6Status+0x770>
    2bd6: e5 15        	sbc	$15                     ; 0x2015 <_ZN12_GLOBAL__N_15printEPKcP6Status+0x773>
    2bd8: 85 12        	sta	$12                     ; 0x2012 <_ZN12_GLOBAL__N_15printEPKcP6Status+0x770>
    2bda: 98           	tya
    2bdb: e5 16        	sbc	$16                     ; 0x2016 <_ZN12_GLOBAL__N_15printEPKcP6Status+0x774>
    2bdd: a4 17        	ldy	$17                     ; 0x2017 <_ZN12_GLOBAL__N_15printEPKcP6Status+0x775>
    2bdf: c0 01        	cpy	#$1
    2be1: 26 14        	rol	$14                     ; 0x2014 <_ZN12_GLOBAL__N_15printEPKcP6Status+0x772>
    2be3: ca           	dex
    2be4: d0 c6        	bne	$2bac <__udivhi3+0x79>
    2be6: 80 06        	bra	$2bee <__udivhi3+0xbb>
    2be8: c5 16        	cmp	$16                     ; 0x2016 <_ZN12_GLOBAL__N_15printEPKcP6Status+0x774>
    2bea: b0 e0        	bcs	$2bcc <__udivhi3+0x99>
    2bec: 80 ef        	bra	$2bdd <__udivhi3+0xaa>
    2bee: a6 14        	ldx	$14                     ; 0x2014 <_ZN12_GLOBAL__N_15printEPKcP6Status+0x772>
    2bf0: a5 e3        	lda	$e3                     ; 0x20e3 <_ZN12_GLOBAL__N_15printEPKcP6Status+0x841>
    2bf2: 60           	rts
