
badapple.elf:	file format elf32-mos

SYMBOL TABLE:
00000000 l    df *ABS*	00000000 zero-bss.c
00000000 l    df *ABS*	00000000 zero-zp-bss.c
00000000 l    df *ABS*	00000000 ld-temp.o
00000035 l     O .zp.bss	00000007 kernelEventData
0000348e l     O .rodata	00000030 textColors
00000030 l     O .zp.bss	00000001 _col
00000031 l     O .zp.bss	00000001 _row
00000034 l     O .zp.bss	00000001 kernelError
000009d2 l     F .text	00000e43 f256main
00001815 l     F .text	00000040 setTextColorMatrix
00001855 l     F .text	00000040 fillFrame
00002096 l     F .text	00000017 openAllCODEC
000020da l     F .text	0000001e boostVSClock
00001895 l     F .text	00000057 initNibbleTable
000018ec l     F .text	0000013c fileOpen
000022e3 l     F .text	00000d3a printf
000020ad l     F .text	0000002d hitspace
00001a28 l     F .text	00000043 read8KChunk
00001a6b l     F .text	00000179 fileRead
00003520 l     O .bss	00000040 expandNibble
00001be4 l     F .text	000004b2 fileClose
00003220 l     F .text	000001e8 malloc
00003562 l     O .bss	00000002 _ZN12_GLOBAL__N_19free_sizeE
00003564 l     O .bss	00000002 _ZN12_GLOBAL__N_19free_listE
00003561 l     O .bss	00000001 _ZN12_GLOBAL__N_19last_freeE
000020fd l     F .text	000000d7 _ZN12_GLOBAL__N_13putEcP6Status
0000301d l     F .text	00000203 putchar
000021d4 l     F .text	0000010f _ZN12_GLOBAL__N_112print_stringEPKcP6Status
00000032 l     O .zp.bss	00000002 __putchar.s
00003560 l     O .bss	00000001 _ZN12_GLOBAL__N_111initializedE
00000316 l     F .text	00000153 _ZN12_GLOBAL__N_19FreeChunk6insertEPvj
0000046a l     F .text	000000f0 _ZN12_GLOBAL__N_19FreeChunk6removeEv
00000580 g     F .text	00000452 main
00000311 g       .text	00000000 __after_main
00000300 g       .text	00000000 __do_init_stack
00000308 g       .text	00000000 __do_zero_bss
0000055a g     F .text	00000013 __zero_bss
0000030b g       .text	00000000 __do_zero_zp_bss
0000056d g     F .text	00000013 __zero_zp_bss
000020f8 g     F .text	00000005 exit
00000314 g       .text	00000000 _fini
00003434  w    F .text	00000020 __memset
00001000  w      *ABS*	00000000 __heap_default_limit
00003566 g       .noinit	00000000 __heap_start
00003408  w    F .text	0000002c memcpy
00000010 g       *ABS*	00000000 __rc0
00000012 g       *ABS*	00000000 __rc2
00000014 g       *ABS*	00000000 __rc4
00000016 g       *ABS*	00000000 __rc6
00000018 g       *ABS*	00000000 __rc8
0000001a g       *ABS*	00000000 __rc10
0000001c g       *ABS*	00000000 __rc12
0000001e g       *ABS*	00000000 __rc14
00000020 g       *ABS*	00000000 __rc16
00000022 g       *ABS*	00000000 __rc18
00000024 g       *ABS*	00000000 __rc20
00000026 g       *ABS*	00000000 __rc22
00000028 g       *ABS*	00000000 __rc24
0000002a g       *ABS*	00000000 __rc26
0000002c g       *ABS*	00000000 __rc28
0000002e g       *ABS*	00000000 __rc30
0000002f g       *ABS*	00000000 __rc31
00000300 g       *ABS*	00000000 __f256_start
0000a000 g       *ABS*	00000000 __stack
0000a000 g       *ABS*	00000000 __SLOT_ADDR
0800a000 g       *ABS*	00000000 __block8_lma
00002000 g       *ABS*	00000000 __BLOCK_SIZE
0900a000 g       *ABS*	00000000 __block9_lma
0a00a000 g       *ABS*	00000000 __block10_lma
0b00a000 g       *ABS*	00000000 __block11_lma
0c00a000 g       *ABS*	00000000 __block12_lma
0d00a000 g       *ABS*	00000000 __block13_lma
0e00a000 g       *ABS*	00000000 __block14_lma
0f00a000 g       *ABS*	00000000 __block15_lma
1000a000 g       *ABS*	00000000 __block16_lma
1100a000 g       *ABS*	00000000 __block17_lma
1200a000 g       *ABS*	00000000 __block18_lma
1300a000 g       *ABS*	00000000 __block19_lma
1400a000 g       *ABS*	00000000 __block20_lma
1500a000 g       *ABS*	00000000 __block21_lma
1600a000 g       *ABS*	00000000 __block22_lma
1700a000 g       *ABS*	00000000 __block23_lma
00003520 g       .bss	00000000 __bss_start
00000300 g       .text	00000000 _start
0000002d g       *ABS*	00000000 __rc29
0000002b g       *ABS*	00000000 __rc27
00000029 g       *ABS*	00000000 __rc25
00000027 g       *ABS*	00000000 __rc23
00000025 g       *ABS*	00000000 __rc21
00000023 g       *ABS*	00000000 __rc19
00000021 g       *ABS*	00000000 __rc17
0000001f g       *ABS*	00000000 __rc15
0000001d g       *ABS*	00000000 __rc13
0000001b g       *ABS*	00000000 __rc11
00000019 g       *ABS*	00000000 __rc9
00000017 g       *ABS*	00000000 __rc7
00000015 g       *ABS*	00000000 __rc5
00000013 g       *ABS*	00000000 __rc3
00000011 g       *ABS*	00000000 __rc1
00000030 g       .zp.data	00000000 __zp_data_start
00000300 g       *ABS*	00000000 __zp_data_load_start
00000000 g       *ABS*	00000000 __zp_data_size
00000030 g       .zp.bss	00000000 __zp_bss_start
0000000c g       *ABS*	00000000 __zp_bss_size
00000300 g       .text	00000000 _init
00003454 g       .text	00000000 __init_array_start
00003454 g       .text	00000000 __init_array_end
00003454 g       .text	00000000 __fini_array_start
00003454 g       .text	00000000 __fini_array_end
00003520 g       .data	00000000 __data_start
00003520 g       .data	00000000 __data_end
00003520 g       *ABS*	00000000 __data_load_start
00000000 g       *ABS*	00000000 __data_size
00003566 g       .bss	00000000 __bss_end
00000046 g       *ABS*	00000000 __bss_size
00003566 g       .noinit	00000000 end_block8
00003566 g       .noinit	00000000 end_block9
00003566 g       .noinit	00000000 end_block10
00003566 g       .noinit	00000000 end_block11
00003566 g       .noinit	00000000 end_block12
00003566 g       .noinit	00000000 end_block13
00003566 g       .noinit	00000000 end_block14
00003566 g       .noinit	00000000 end_block15
00003566 g       .noinit	00000000 end_block16
00003566 g       .noinit	00000000 end_block17
00003566 g       .noinit	00000000 end_block18
00003566 g       .noinit	00000000 end_block19
00003566 g       .noinit	00000000 end_block20
00003566 g       .noinit	00000000 end_block21
00003566 g       .noinit	00000000 end_block22
00003566 g       .noinit	00000000 end_block23

Disassembly of section .text:

00000300 <_start>:
     300: a9 00        	lda	#$0
     302: 85 10        	sta	$10                     ; 0x10 <__rc0>
     304: a9 a0        	lda	#$a0
     306: 85 11        	sta	$11                     ; 0x11 <__rc1>

00000308 <__do_zero_bss>:
     308: 20 5a 05     	jsr	$55a <__zero_bss>

0000030b <__do_zero_zp_bss>:
     30b: 20 6d 05     	jsr	$56d <__zero_zp_bss>
     30e: 20 80 05     	jsr	$580 <main>

00000311 <__after_main>:
     311: 4c f8 20     	jmp	$20f8 <exit>

00000314 <_fini>:
     314: 60           	rts
     315: 00           	brk

00000316 <_ZN12_GLOBAL__N_19FreeChunk6insertEPvj>:
     316: 85 16        	sta	$16                     ; 0x16 <__rc6>
     318: 29 fe        	and	#$fe
     31a: 85 14        	sta	$14                     ; 0x14 <__rc4>
     31c: a0 01        	ldy	#$1
     31e: 98           	tya
     31f: 32 12        	and	($12)                   ; 0x12 <__rc2>
     321: 05 14        	ora	$14                     ; 0x14 <__rc4>
     323: 92 12        	sta	($12)                   ; 0x12 <__rc2>
     325: a5 12        	lda	$12                     ; 0x12 <__rc2>
     327: 18           	clc
     328: 65 14        	adc	$14                     ; 0x14 <__rc4>
     32a: 85 15        	sta	$15                     ; 0x15 <__rc5>
     32c: 8a           	txa
     32d: 65 13        	adc	$13                     ; 0x13 <__rc3>
     32f: 85 14        	sta	$14                     ; 0x14 <__rc4>
     331: 18           	clc
     332: a5 15        	lda	$15                     ; 0x15 <__rc5>
     334: 69 fe        	adc	#$fe
     336: 85 17        	sta	$17                     ; 0x17 <__rc7>
     338: a5 14        	lda	$14                     ; 0x14 <__rc4>
     33a: 69 ff        	adc	#$ff
     33c: 85 15        	sta	$15                     ; 0x15 <__rc5>
     33e: a5 17        	lda	$17                     ; 0x17 <__rc7>
     340: 85 14        	sta	$14                     ; 0x14 <__rc4>
     342: 8a           	txa
     343: 91 12        	sta	($12),y                 ; 0x12 <__rc2>
     345: a5 16        	lda	$16                     ; 0x16 <__rc6>
     347: 92 14        	sta	($14)                   ; 0x14 <__rc4>
     349: 8a           	txa
     34a: 91 14        	sta	($14),y                 ; 0x14 <__rc4>
     34c: a2 01        	ldx	#$1
     34e: 86 18        	stx	$18                     ; 0x18 <__rc8>
     350: b1 12        	lda	($12),y                 ; 0x12 <__rc2>
     352: 85 14        	sta	$14                     ; 0x14 <__rc4>
     354: a9 fe        	lda	#$fe
     356: 32 12        	and	($12)                   ; 0x12 <__rc2>
     358: 18           	clc
     359: 6d 62 35     	adc	$3562                   ; 0x3562 <_ZN12_GLOBAL__N_19free_sizeE>
     35c: aa           	tax
     35d: a5 14        	lda	$14                     ; 0x14 <__rc4>
     35f: 6d 63 35     	adc	$3563                   ; 0x3563 <_ZN12_GLOBAL__N_19free_sizeE+0x1>
     362: a8           	tay
     363: 18           	clc
     364: 8a           	txa
     365: 69 fe        	adc	#$fe
     367: aa           	tax
     368: 98           	tya
     369: 69 ff        	adc	#$ff
     36b: 8e 62 35     	stx	$3562                   ; 0x3562 <_ZN12_GLOBAL__N_19free_sizeE>
     36e: 8d 63 35     	sta	$3563                   ; 0x3563 <_ZN12_GLOBAL__N_19free_sizeE+0x1>
     371: ae 64 35     	ldx	$3564                   ; 0x3564 <_ZN12_GLOBAL__N_19free_listE>
     374: 86 16        	stx	$16                     ; 0x16 <__rc6>
     376: ac 65 35     	ldy	$3565                   ; 0x3565 <_ZN12_GLOBAL__N_19free_listE+0x1>
     379: a2 00        	ldx	#$0
     37b: 86 14        	stx	$14                     ; 0x14 <__rc4>
     37d: a2 00        	ldx	#$0
     37f: 86 15        	stx	$15                     ; 0x15 <__rc5>
     381: 84 17        	sty	$17                     ; 0x17 <__rc7>
     383: c4 15        	cpy	$15                     ; 0x15 <__rc5>
     385: d0 3e        	bne	$3c5 <_ZN12_GLOBAL__N_19FreeChunk6insertEPvj+0xaf>
     387: a6 16        	ldx	$16                     ; 0x16 <__rc6>
     389: e4 14        	cpx	$14                     ; 0x14 <__rc4>
     38b: d0 38        	bne	$3c5 <_ZN12_GLOBAL__N_19FreeChunk6insertEPvj+0xaf>
     38d: a0 04        	ldy	#$4
     38f: a5 12        	lda	$12                     ; 0x12 <__rc2>
     391: 18           	clc
     392: 69 04        	adc	#$4
     394: 85 14        	sta	$14                     ; 0x14 <__rc4>
     396: a5 13        	lda	$13                     ; 0x13 <__rc3>
     398: 69 00        	adc	#$0
     39a: 18           	clc
     39b: 85 15        	sta	$15                     ; 0x15 <__rc5>
     39d: a5 12        	lda	$12                     ; 0x12 <__rc2>
     39f: 91 12        	sta	($12),y                 ; 0x12 <__rc2>
     3a1: a0 02        	ldy	#$2
     3a3: 85 17        	sta	$17                     ; 0x17 <__rc7>
     3a5: 69 02        	adc	#$2
     3a7: 85 16        	sta	$16                     ; 0x16 <__rc6>
     3a9: a5 17        	lda	$17                     ; 0x17 <__rc7>
     3ab: 91 12        	sta	($12),y                 ; 0x12 <__rc2>
     3ad: a5 13        	lda	$13                     ; 0x13 <__rc3>
     3af: 69 00        	adc	#$0
     3b1: 85 17        	sta	$17                     ; 0x17 <__rc7>
     3b3: 88           	dey
     3b4: a5 13        	lda	$13                     ; 0x13 <__rc3>
     3b6: 91 14        	sta	($14),y                 ; 0x14 <__rc4>
     3b8: 91 16        	sta	($16),y                 ; 0x16 <__rc6>
     3ba: a6 12        	ldx	$12                     ; 0x12 <__rc2>
     3bc: 8e 64 35     	stx	$3564                   ; 0x3564 <_ZN12_GLOBAL__N_19free_listE>
     3bf: a6 13        	ldx	$13                     ; 0x13 <__rc3>
     3c1: 8e 65 35     	stx	$3565                   ; 0x3565 <_ZN12_GLOBAL__N_19free_listE+0x1>
     3c4: 60           	rts
     3c5: a6 12        	ldx	$12                     ; 0x12 <__rc2>
     3c7: a5 12        	lda	$12                     ; 0x12 <__rc2>
     3c9: 18           	clc
     3ca: 69 02        	adc	#$2
     3cc: 85 14        	sta	$14                     ; 0x14 <__rc4>
     3ce: a4 16        	ldy	$16                     ; 0x16 <__rc6>
     3d0: a5 13        	lda	$13                     ; 0x13 <__rc3>
     3d2: 69 00        	adc	#$0
     3d4: 85 15        	sta	$15                     ; 0x15 <__rc5>
     3d6: 84 19        	sty	$19                     ; 0x19 <__rc9>
     3d8: a4 17        	ldy	$17                     ; 0x17 <__rc7>
     3da: 84 1a        	sty	$1a                     ; 0x1a <__rc10>
     3dc: a0 02        	ldy	#$2
     3de: a5 19        	lda	$19                     ; 0x19 <__rc9>
     3e0: 91 12        	sta	($12),y                 ; 0x12 <__rc2>
     3e2: 84 1d        	sty	$1d                     ; 0x1d <__rc13>
     3e4: a4 18        	ldy	$18                     ; 0x18 <__rc8>
     3e6: a5 1a        	lda	$1a                     ; 0x1a <__rc10>
     3e8: 91 14        	sta	($14),y                 ; 0x14 <__rc4>
     3ea: 84 1e        	sty	$1e                     ; 0x1e <__rc14>
     3ec: 18           	clc
     3ed: a5 19        	lda	$19                     ; 0x19 <__rc9>
     3ef: 69 04        	adc	#$4
     3f1: 85 18        	sta	$18                     ; 0x18 <__rc8>
     3f3: a5 1a        	lda	$1a                     ; 0x1a <__rc10>
     3f5: 69 00        	adc	#$0
     3f7: 85 19        	sta	$19                     ; 0x19 <__rc9>
     3f9: 8a           	txa
     3fa: 18           	clc
     3fb: 69 04        	adc	#$4
     3fd: 85 1a        	sta	$1a                     ; 0x1a <__rc10>
     3ff: a5 13        	lda	$13                     ; 0x13 <__rc3>
     401: 69 00        	adc	#$0
     403: 85 1b        	sta	$1b                     ; 0x1b <__rc11>
     405: a0 04        	ldy	#$4
     407: b1 16        	lda	($16),y                 ; 0x16 <__rc6>
     409: 85 16        	sta	$16                     ; 0x16 <__rc6>
     40b: 85 22        	sta	$22                     ; 0x22 <__rc18>
     40d: a4 1e        	ldy	$1e                     ; 0x1e <__rc14>
     40f: b1 18        	lda	($18),y                 ; 0x18 <__rc8>
     411: 85 17        	sta	$17                     ; 0x17 <__rc7>
     413: 85 19        	sta	$19                     ; 0x19 <__rc9>
     415: a0 04        	ldy	#$4
     417: a5 22        	lda	$22                     ; 0x22 <__rc18>
     419: 91 12        	sta	($12),y                 ; 0x12 <__rc2>
     41b: 84 1f        	sty	$1f                     ; 0x1f <__rc15>
     41d: a4 1e        	ldy	$1e                     ; 0x1e <__rc14>
     41f: a5 19        	lda	$19                     ; 0x19 <__rc9>
     421: 91 1a        	sta	($1a),y                 ; 0x1a <__rc10>
     423: 84 1a        	sty	$1a                     ; 0x1a <__rc10>
     425: 18           	clc
     426: a5 22        	lda	$22                     ; 0x22 <__rc18>
     428: 69 02        	adc	#$2
     42a: 85 18        	sta	$18                     ; 0x18 <__rc8>
     42c: a5 19        	lda	$19                     ; 0x19 <__rc9>
     42e: 69 00        	adc	#$0
     430: 85 19        	sta	$19                     ; 0x19 <__rc9>
     432: 8a           	txa
     433: a4 1d        	ldy	$1d                     ; 0x1d <__rc13>
     435: 91 16        	sta	($16),y                 ; 0x16 <__rc6>
     437: a5 13        	lda	$13                     ; 0x13 <__rc3>
     439: a4 1a        	ldy	$1a                     ; 0x1a <__rc10>
     43b: 91 18        	sta	($18),y                 ; 0x18 <__rc8>
     43d: a4 1d        	ldy	$1d                     ; 0x1d <__rc13>
     43f: b1 12        	lda	($12),y                 ; 0x12 <__rc2>
     441: 85 16        	sta	$16                     ; 0x16 <__rc6>
     443: 85 19        	sta	$19                     ; 0x19 <__rc9>
     445: a4 1a        	ldy	$1a                     ; 0x1a <__rc10>
     447: b1 14        	lda	($14),y                 ; 0x14 <__rc4>
     449: 84 18        	sty	$18                     ; 0x18 <__rc8>
     44b: 85 17        	sta	$17                     ; 0x17 <__rc7>
     44d: 85 14        	sta	$14                     ; 0x14 <__rc4>
     44f: 8a           	txa
     450: a4 1f        	ldy	$1f                     ; 0x1f <__rc15>
     452: 91 16        	sta	($16),y                 ; 0x16 <__rc6>
     454: 18           	clc
     455: a5 19        	lda	$19                     ; 0x19 <__rc9>
     457: 69 04        	adc	#$4
     459: a8           	tay
     45a: a5 14        	lda	$14                     ; 0x14 <__rc4>
     45c: 69 00        	adc	#$0
     45e: 84 14        	sty	$14                     ; 0x14 <__rc4>
     460: 85 15        	sta	$15                     ; 0x15 <__rc5>
     462: a5 13        	lda	$13                     ; 0x13 <__rc3>
     464: a4 18        	ldy	$18                     ; 0x18 <__rc8>
     466: 91 14        	sta	($14),y                 ; 0x14 <__rc4>
     468: 60           	rts
     469: 00           	brk

0000046a <_ZN12_GLOBAL__N_19FreeChunk6removeEv>:
     46a: a0 01        	ldy	#$1
     46c: a9 fe        	lda	#$fe
     46e: 32 12        	and	($12)                   ; 0x12 <__rc2>
     470: 85 14        	sta	$14                     ; 0x14 <__rc4>
     472: ad 62 35     	lda	$3562                   ; 0x3562 <_ZN12_GLOBAL__N_19free_sizeE>
     475: ae 63 35     	ldx	$3563                   ; 0x3563 <_ZN12_GLOBAL__N_19free_sizeE+0x1>
     478: 38           	sec
     479: e5 14        	sbc	$14                     ; 0x14 <__rc4>
     47b: 85 17        	sta	$17                     ; 0x17 <__rc7>
     47d: 8a           	txa
     47e: f1 12        	sbc	($12),y                 ; 0x12 <__rc2>
     480: 85 14        	sta	$14                     ; 0x14 <__rc4>
     482: a2 01        	ldx	#$1
     484: 86 16        	stx	$16                     ; 0x16 <__rc6>
     486: 18           	clc
     487: a5 17        	lda	$17                     ; 0x17 <__rc7>
     489: 69 02        	adc	#$2
     48b: 85 15        	sta	$15                     ; 0x15 <__rc5>
     48d: a5 14        	lda	$14                     ; 0x14 <__rc4>
     48f: 69 00        	adc	#$0
     491: a6 15        	ldx	$15                     ; 0x15 <__rc5>
     493: 8e 62 35     	stx	$3562                   ; 0x3562 <_ZN12_GLOBAL__N_19free_sizeE>
     496: 8d 63 35     	sta	$3563                   ; 0x3563 <_ZN12_GLOBAL__N_19free_sizeE+0x1>
     499: a5 12        	lda	$12                     ; 0x12 <__rc2>
     49b: 18           	clc
     49c: 69 02        	adc	#$2
     49e: 85 14        	sta	$14                     ; 0x14 <__rc4>
     4a0: a5 13        	lda	$13                     ; 0x13 <__rc3>
     4a2: 69 00        	adc	#$0
     4a4: c8           	iny
     4a5: 85 15        	sta	$15                     ; 0x15 <__rc5>
     4a7: b1 12        	lda	($12),y                 ; 0x12 <__rc2>
     4a9: aa           	tax
     4aa: a4 16        	ldy	$16                     ; 0x16 <__rc6>
     4ac: b1 14        	lda	($14),y                 ; 0x14 <__rc4>
     4ae: 85 19        	sta	$19                     ; 0x19 <__rc9>
     4b0: c5 13        	cmp	$13                     ; 0x13 <__rc3>
     4b2: d0 0f        	bne	$4c3 <_ZN12_GLOBAL__N_19FreeChunk6removeEv+0x59>
     4b4: e4 12        	cpx	$12                     ; 0x12 <__rc2>
     4b6: d0 0b        	bne	$4c3 <_ZN12_GLOBAL__N_19FreeChunk6removeEv+0x59>
     4b8: a2 00        	ldx	#$0
     4ba: 86 14        	stx	$14                     ; 0x14 <__rc4>
     4bc: a2 00        	ldx	#$0
     4be: 86 15        	stx	$15                     ; 0x15 <__rc5>
     4c0: 4c 4f 05     	jmp	$54f <_ZN12_GLOBAL__N_19FreeChunk6removeEv+0xe5>
     4c3: 86 18        	stx	$18                     ; 0x18 <__rc8>
     4c5: a6 12        	ldx	$12                     ; 0x12 <__rc2>
     4c7: a5 12        	lda	$12                     ; 0x12 <__rc2>
     4c9: 86 1c        	stx	$1c                     ; 0x1c <__rc12>
     4cb: 18           	clc
     4cc: 69 04        	adc	#$4
     4ce: 85 14        	sta	$14                     ; 0x14 <__rc4>
     4d0: a5 13        	lda	$13                     ; 0x13 <__rc3>
     4d2: 69 00        	adc	#$0
     4d4: a0 04        	ldy	#$4
     4d6: 85 15        	sta	$15                     ; 0x15 <__rc5>
     4d8: b1 12        	lda	($12),y                 ; 0x12 <__rc2>
     4da: 85 1d        	sta	$1d                     ; 0x1d <__rc13>
     4dc: a2 04        	ldx	#$4
     4de: 86 1a        	stx	$1a                     ; 0x1a <__rc10>
     4e0: 18           	clc
     4e1: 69 02        	adc	#$2
     4e3: 85 16        	sta	$16                     ; 0x16 <__rc6>
     4e5: a0 01        	ldy	#$1
     4e7: b1 14        	lda	($14),y                 ; 0x14 <__rc4>
     4e9: aa           	tax
     4ea: 84 1e        	sty	$1e                     ; 0x1e <__rc14>
     4ec: 69 00        	adc	#$0
     4ee: a4 16        	ldy	$16                     ; 0x16 <__rc6>
     4f0: 84 14        	sty	$14                     ; 0x14 <__rc4>
     4f2: 85 15        	sta	$15                     ; 0x15 <__rc5>
     4f4: a4 1d        	ldy	$1d                     ; 0x1d <__rc13>
     4f6: 84 16        	sty	$16                     ; 0x16 <__rc6>
     4f8: 86 17        	stx	$17                     ; 0x17 <__rc7>
     4fa: a5 18        	lda	$18                     ; 0x18 <__rc8>
     4fc: a0 02        	ldy	#$2
     4fe: 91 16        	sta	($16),y                 ; 0x16 <__rc6>
     500: 84 16        	sty	$16                     ; 0x16 <__rc6>
     502: a5 19        	lda	$19                     ; 0x19 <__rc9>
     504: a4 1e        	ldy	$1e                     ; 0x1e <__rc14>
     506: 91 14        	sta	($14),y                 ; 0x14 <__rc4>
     508: 18           	clc
     509: a5 1c        	lda	$1c                     ; 0x1c <__rc12>
     50b: 69 02        	adc	#$2
     50d: 85 14        	sta	$14                     ; 0x14 <__rc4>
     50f: a5 13        	lda	$13                     ; 0x13 <__rc3>
     511: 69 00        	adc	#$0
     513: 85 15        	sta	$15                     ; 0x15 <__rc5>
     515: a4 16        	ldy	$16                     ; 0x16 <__rc6>
     517: b1 12        	lda	($12),y                 ; 0x12 <__rc2>
     519: 85 16        	sta	$16                     ; 0x16 <__rc6>
     51b: a4 1e        	ldy	$1e                     ; 0x1e <__rc14>
     51d: b1 14        	lda	($14),y                 ; 0x14 <__rc4>
     51f: 84 18        	sty	$18                     ; 0x18 <__rc8>
     521: a4 16        	ldy	$16                     ; 0x16 <__rc6>
     523: 84 14        	sty	$14                     ; 0x14 <__rc4>
     525: 85 15        	sta	$15                     ; 0x15 <__rc5>
     527: 85 17        	sta	$17                     ; 0x17 <__rc7>
     529: a4 1a        	ldy	$1a                     ; 0x1a <__rc10>
     52b: a5 1d        	lda	$1d                     ; 0x1d <__rc13>
     52d: 91 14        	sta	($14),y                 ; 0x14 <__rc4>
     52f: 18           	clc
     530: a5 16        	lda	$16                     ; 0x16 <__rc6>
     532: 69 04        	adc	#$4
     534: 85 16        	sta	$16                     ; 0x16 <__rc6>
     536: a5 17        	lda	$17                     ; 0x17 <__rc7>
     538: 69 00        	adc	#$0
     53a: 85 17        	sta	$17                     ; 0x17 <__rc7>
     53c: 8a           	txa
     53d: a4 18        	ldy	$18                     ; 0x18 <__rc8>
     53f: 91 16        	sta	($16),y                 ; 0x16 <__rc6>
     541: ae 65 35     	ldx	$3565                   ; 0x3565 <_ZN12_GLOBAL__N_19free_listE+0x1>
     544: e4 13        	cpx	$13                     ; 0x13 <__rc3>
     546: d0 11        	bne	$559 <_ZN12_GLOBAL__N_19FreeChunk6removeEv+0xef>
     548: ae 64 35     	ldx	$3564                   ; 0x3564 <_ZN12_GLOBAL__N_19free_listE>
     54b: e4 12        	cpx	$12                     ; 0x12 <__rc2>
     54d: d0 0a        	bne	$559 <_ZN12_GLOBAL__N_19FreeChunk6removeEv+0xef>
     54f: a6 14        	ldx	$14                     ; 0x14 <__rc4>
     551: a4 15        	ldy	$15                     ; 0x15 <__rc5>
     553: 8e 64 35     	stx	$3564                   ; 0x3564 <_ZN12_GLOBAL__N_19free_listE>
     556: 8c 65 35     	sty	$3565                   ; 0x3565 <_ZN12_GLOBAL__N_19free_listE+0x1>
     559: 60           	rts

0000055a <__zero_bss>:
     55a: a2 46        	ldx	#$46
     55c: a0 00        	ldy	#$0
     55e: a9 20        	lda	#$20
     560: 85 12        	sta	$12                     ; 0x12 <__rc2>
     562: a9 35        	lda	#$35
     564: 85 13        	sta	$13                     ; 0x13 <__rc3>
     566: a9 00        	lda	#$0
     568: 84 14        	sty	$14                     ; 0x14 <__rc4>
     56a: 4c 34 34     	jmp	$3434 <__memset>

0000056d <__zero_zp_bss>:
     56d: a2 0c        	ldx	#$c
     56f: a0 00        	ldy	#$0
     571: a9 30        	lda	#$30
     573: 85 12        	sta	$12                     ; 0x12 <__rc2>
     575: a9 00        	lda	#$0
     577: 85 13        	sta	$13                     ; 0x13 <__rc3>
     579: a9 00        	lda	#$0
     57b: 84 14        	sty	$14                     ; 0x14 <__rc4>
     57d: 4c 34 34     	jmp	$3434 <__memset>

00000580 <main>:
     580: 18           	clc
     581: a5 10        	lda	$10                     ; 0x10 <__rc0>
     583: 69 f7        	adc	#$f7
     585: 85 10        	sta	$10                     ; 0x10 <__rc0>
     587: a5 11        	lda	$11                     ; 0x11 <__rc1>
     589: 69 ff        	adc	#$ff
     58b: 85 11        	sta	$11                     ; 0x11 <__rc1>
     58d: a6 24        	ldx	$24                     ; 0x24 <__rc20>
     58f: da           	phx
     590: 64 1c        	stz	$1c                     ; 0x1c <__rc12>
     592: a2 00        	ldx	#$0
     594: 86 1a        	stx	$1a                     ; 0x1a <__rc10>
     596: a2 d0        	ldx	#$d0
     598: 86 1b        	stx	$1b                     ; 0x1b <__rc11>
     59a: a2 00        	ldx	#$0
     59c: 86 16        	stx	$16                     ; 0x16 <__rc6>
     59e: a2 d8        	ldx	#$d8
     5a0: 86 17        	stx	$17                     ; 0x17 <__rc7>
     5a2: a2 00        	ldx	#$0
     5a4: 86 18        	stx	$18                     ; 0x18 <__rc8>
     5a6: a2 d4        	ldx	#$d4
     5a8: 86 19        	stx	$19                     ; 0x19 <__rc9>
     5aa: a2 00        	ldx	#$0
     5ac: 86 14        	stx	$14                     ; 0x14 <__rc4>
     5ae: a2 dc        	ldx	#$dc
     5b0: 86 15        	stx	$15                     ; 0x15 <__rc5>
     5b2: a2 00        	ldx	#$0
     5b4: 86 12        	stx	$12                     ; 0x12 <__rc2>
     5b6: a2 c0        	ldx	#$c0
     5b8: 86 13        	stx	$13                     ; 0x13 <__rc3>
     5ba: 64 01        	stz	$1                      ; 0x1 <__zp_data_size+0x1>
     5bc: a2 3f        	ldx	#$3f
     5be: 8e 00 d0     	stx	$d000                   ; 0xd000 <end_block9+0x9a9a>
     5c1: a2 b3        	ldx	#$b3
     5c3: 86 00        	stx	$0                      ; 0x0 <__zp_data_size>
     5c5: 64 08        	stz	$8                      ; 0x8 <__zp_data_size+0x8>
     5c7: a2 01        	ldx	#$1
     5c9: 86 09        	stx	$9                      ; 0x9 <__zp_data_size+0x9>
     5cb: e8           	inx
     5cc: 86 0a        	stx	$a                      ; 0xa <__zp_data_size+0xa>
     5ce: e8           	inx
     5cf: 86 0b        	stx	$b                      ; 0xb <__zp_data_size+0xb>
     5d1: e8           	inx
     5d2: 86 0c        	stx	$c                      ; 0xc <__zp_bss_size>
     5d4: e8           	inx
     5d5: 86 0d        	stx	$d                      ; 0xd <__zp_bss_size+0x1>
     5d7: a2 35        	ldx	#$35
     5d9: a9 00        	lda	#$0
     5db: 86 f0        	stx	$f0                     ; 0xf0 <__bss_size+0xaa>
     5dd: 85 f1        	sta	$f1                     ; 0xf1 <__bss_size+0xab>
     5df: a6 01        	ldx	$1                      ; 0x1 <__zp_data_size+0x1>
     5e1: a0 01        	ldy	#$1
     5e3: 84 01        	sty	$1                      ; 0x1 <__zp_data_size+0x1>
     5e5: a5 1c        	lda	$1c                     ; 0x1c <__rc12>
     5e7: 92 1a        	sta	($1a)                   ; 0x1a <__rc10>
     5e9: 91 1a        	sta	($1a),y                 ; 0x1a <__rc10>
     5eb: c8           	iny
     5ec: 91 1a        	sta	($1a),y                 ; 0x1a <__rc10>
     5ee: c8           	iny
     5ef: a9 ff        	lda	#$ff
     5f1: 91 1a        	sta	($1a),y                 ; 0x1a <__rc10>
     5f3: 86 01        	stx	$1                      ; 0x1 <__zp_data_size+0x1>
     5f5: a5 1a        	lda	$1a                     ; 0x1a <__rc10>
     5f7: 18           	clc
     5f8: 69 04        	adc	#$4
     5fa: 85 1a        	sta	$1a                     ; 0x1a <__rc10>
     5fc: a5 1b        	lda	$1b                     ; 0x1b <__rc11>
     5fe: 69 00        	adc	#$0
     600: e6 1c        	inc	$1c                     ; 0x1c <__rc12>
     602: 85 1b        	sta	$1b                     ; 0x1b <__rc11>
     604: d0 d9        	bne	$5df <main+0x5f>
     606: a9 00        	lda	#$0
     608: a6 01        	ldx	$1                      ; 0x1 <__zp_data_size+0x1>
     60a: a0 01        	ldy	#$1
     60c: 84 01        	sty	$1                      ; 0x1 <__zp_data_size+0x1>
     60e: 92 18        	sta	($18)                   ; 0x18 <__rc8>
     610: 91 18        	sta	($18),y                 ; 0x18 <__rc8>
     612: c8           	iny
     613: 91 18        	sta	($18),y                 ; 0x18 <__rc8>
     615: c8           	iny
     616: 85 1a        	sta	$1a                     ; 0x1a <__rc10>
     618: a9 ff        	lda	#$ff
     61a: 91 18        	sta	($18),y                 ; 0x18 <__rc8>
     61c: 86 01        	stx	$1                      ; 0x1 <__zp_data_size+0x1>
     61e: a5 18        	lda	$18                     ; 0x18 <__rc8>
     620: 18           	clc
     621: 69 04        	adc	#$4
     623: 85 18        	sta	$18                     ; 0x18 <__rc8>
     625: a5 19        	lda	$19                     ; 0x19 <__rc9>
     627: 69 00        	adc	#$0
     629: e6 1a        	inc	$1a                     ; 0x1a <__rc10>
     62b: 85 19        	sta	$19                     ; 0x19 <__rc9>
     62d: a5 1a        	lda	$1a                     ; 0x1a <__rc10>
     62f: d0 d7        	bne	$608 <main+0x88>
     631: a9 00        	lda	#$0
     633: a6 01        	ldx	$1                      ; 0x1 <__zp_data_size+0x1>
     635: a0 01        	ldy	#$1
     637: 84 01        	sty	$1                      ; 0x1 <__zp_data_size+0x1>
     639: 92 16        	sta	($16)                   ; 0x16 <__rc6>
     63b: 91 16        	sta	($16),y                 ; 0x16 <__rc6>
     63d: c8           	iny
     63e: 91 16        	sta	($16),y                 ; 0x16 <__rc6>
     640: c8           	iny
     641: 85 18        	sta	$18                     ; 0x18 <__rc8>
     643: a9 ff        	lda	#$ff
     645: 91 16        	sta	($16),y                 ; 0x16 <__rc6>
     647: 86 01        	stx	$1                      ; 0x1 <__zp_data_size+0x1>
     649: a5 16        	lda	$16                     ; 0x16 <__rc6>
     64b: 18           	clc
     64c: 69 04        	adc	#$4
     64e: 85 16        	sta	$16                     ; 0x16 <__rc6>
     650: a5 17        	lda	$17                     ; 0x17 <__rc7>
     652: 69 00        	adc	#$0
     654: e6 18        	inc	$18                     ; 0x18 <__rc8>
     656: 85 17        	sta	$17                     ; 0x17 <__rc7>
     658: a5 18        	lda	$18                     ; 0x18 <__rc8>
     65a: d0 d7        	bne	$633 <main+0xb3>
     65c: a9 00        	lda	#$0
     65e: a6 01        	ldx	$1                      ; 0x1 <__zp_data_size+0x1>
     660: a0 01        	ldy	#$1
     662: 84 01        	sty	$1                      ; 0x1 <__zp_data_size+0x1>
     664: 92 14        	sta	($14)                   ; 0x14 <__rc4>
     666: 91 14        	sta	($14),y                 ; 0x14 <__rc4>
     668: c8           	iny
     669: 91 14        	sta	($14),y                 ; 0x14 <__rc4>
     66b: c8           	iny
     66c: 85 16        	sta	$16                     ; 0x16 <__rc6>
     66e: a9 ff        	lda	#$ff
     670: 91 14        	sta	($14),y                 ; 0x14 <__rc4>
     672: 86 01        	stx	$1                      ; 0x1 <__zp_data_size+0x1>
     674: a5 14        	lda	$14                     ; 0x14 <__rc4>
     676: 18           	clc
     677: 69 04        	adc	#$4
     679: 85 14        	sta	$14                     ; 0x14 <__rc4>
     67b: a5 15        	lda	$15                     ; 0x15 <__rc5>
     67d: 69 00        	adc	#$0
     67f: e6 16        	inc	$16                     ; 0x16 <__rc6>
     681: 85 15        	sta	$15                     ; 0x15 <__rc5>
     683: a5 16        	lda	$16                     ; 0x16 <__rc6>
     685: d0 d7        	bne	$65e <main+0xde>
     687: ad 02 d0     	lda	$d002                   ; 0xd002 <end_block9+0x9a9c>
     68a: 29 f0        	and	#$f0
     68c: 8d 02 d0     	sta	$d002                   ; 0xd002 <end_block9+0x9a9c>
     68f: ad 02 d0     	lda	$d002                   ; 0xd002 <end_block9+0x9a9c>
     692: 29 0f        	and	#$f
     694: 09 10        	ora	#$10
     696: 8d 02 d0     	sta	$d002                   ; 0xd002 <end_block9+0x9a9c>
     699: a2 02        	ldx	#$2
     69b: 8e 03 d0     	stx	$d003                   ; 0xd003 <end_block9+0x9a9d>
     69e: ad 01 d0     	lda	$d001                   ; 0xd001 <end_block9+0x9a9b>
     6a1: 29 f9        	and	#$f9
     6a3: 09 04        	ora	#$4
     6a5: 8d 01 d0     	sta	$d001                   ; 0xd001 <end_block9+0x9a9b>
     6a8: 64 14        	stz	$14                     ; 0x14 <__rc4>
     6aa: 9c 10 d0     	stz	$d010                   ; 0xd010 <end_block9+0x9aaa>
     6ad: a2 00        	ldx	#$0
     6af: 64 15        	stz	$15                     ; 0x15 <__rc5>
     6b1: 86 18        	stx	$18                     ; 0x18 <__rc8>
     6b3: a4 18        	ldy	$18                     ; 0x18 <__rc8>
     6b5: be 8e 34     	ldx	$348e,y                 ; 0x348e <textColors>
     6b8: 86 19        	stx	$19                     ; 0x19 <__rc9>
     6ba: be 8f 34     	ldx	$348f,y                 ; 0x348f <textColors+0x1>
     6bd: 86 1a        	stx	$1a                     ; 0x1a <__rc10>
     6bf: be 90 34     	ldx	$3490,y                 ; 0x3490 <textColors+0x2>
     6c2: 86 1b        	stx	$1b                     ; 0x1b <__rc11>
     6c4: a6 15        	ldx	$15                     ; 0x15 <__rc5>
     6c6: 8e 00 de     	stx	$de00                   ; 0xde00 <end_block9+0xa89a>
     6c9: 86 17        	stx	$17                     ; 0x17 <__rc7>
     6cb: 9c 01 de     	stz	$de01                   ; 0xde01 <end_block9+0xa89b>
     6ce: a2 04        	ldx	#$4
     6d0: 8e 02 de     	stx	$de02                   ; 0xde02 <end_block9+0xa89c>
     6d3: 86 1d        	stx	$1d                     ; 0x1d <__rc13>
     6d5: 9c 03 de     	stz	$de03                   ; 0xde03 <end_block9+0xa89d>
     6d8: ad 10 de     	lda	$de10                   ; 0xde10 <end_block9+0xa8aa>
     6db: ac 11 de     	ldy	$de11                   ; 0xde11 <end_block9+0xa8ab>
     6de: 84 15        	sty	$15                     ; 0x15 <__rc5>
     6e0: ac 12 de     	ldy	$de12                   ; 0xde12 <end_block9+0xa8ac>
     6e3: ac 13 de     	ldy	$de13                   ; 0xde13 <end_block9+0xa8ad>
     6e6: a2 00        	ldx	#$0
     6e8: 18           	clc
     6e9: 65 14        	adc	$14                     ; 0x14 <__rc4>
     6eb: a8           	tay
     6ec: 86 1f        	stx	$1f                     ; 0x1f <__rc15>
     6ee: a6 17        	ldx	$17                     ; 0x17 <__rc7>
     6f0: a9 d8        	lda	#$d8
     6f2: 65 15        	adc	$15                     ; 0x15 <__rc5>
     6f4: 84 16        	sty	$16                     ; 0x16 <__rc6>
     6f6: 85 17        	sta	$17                     ; 0x17 <__rc7>
     6f8: a5 1b        	lda	$1b                     ; 0x1b <__rc11>
     6fa: 92 16        	sta	($16)                   ; 0x16 <__rc6>
     6fc: a0 01        	ldy	#$1
     6fe: a5 1a        	lda	$1a                     ; 0x1a <__rc10>
     700: 91 16        	sta	($16),y                 ; 0x16 <__rc6>
     702: 84 1c        	sty	$1c                     ; 0x1c <__rc12>
     704: c8           	iny
     705: a5 19        	lda	$19                     ; 0x19 <__rc9>
     707: 91 16        	sta	($16),y                 ; 0x16 <__rc6>
     709: 84 1e        	sty	$1e                     ; 0x1e <__rc14>
     70b: c8           	iny
     70c: a9 ff        	lda	#$ff
     70e: 91 16        	sta	($16),y                 ; 0x16 <__rc6>
     710: 85 23        	sta	$23                     ; 0x23 <__rc19>
     712: 84 22        	sty	$22                     ; 0x22 <__rc18>
     714: 8e 00 de     	stx	$de00                   ; 0xde00 <end_block9+0xa89a>
     717: 9c 01 de     	stz	$de01                   ; 0xde01 <end_block9+0xa89b>
     71a: a4 1d        	ldy	$1d                     ; 0x1d <__rc13>
     71c: 8c 02 de     	sty	$de02                   ; 0xde02 <end_block9+0xa89c>
     71f: 9c 03 de     	stz	$de03                   ; 0xde03 <end_block9+0xa89d>
     722: ad 10 de     	lda	$de10                   ; 0xde10 <end_block9+0xa8aa>
     725: 85 15        	sta	$15                     ; 0x15 <__rc5>
     727: ad 11 de     	lda	$de11                   ; 0xde11 <end_block9+0xa8ab>
     72a: 85 16        	sta	$16                     ; 0x16 <__rc6>
     72c: a9 40        	lda	#$40
     72e: a4 1f        	ldy	$1f                     ; 0x1f <__rc15>
     730: c0 01        	cpy	#$1
     732: 65 15        	adc	$15                     ; 0x15 <__rc5>
     734: a8           	tay
     735: a9 d8        	lda	#$d8
     737: 65 16        	adc	$16                     ; 0x16 <__rc6>
     739: 85 17        	sta	$17                     ; 0x17 <__rc7>
     73b: 84 16        	sty	$16                     ; 0x16 <__rc6>
     73d: ad 12 de     	lda	$de12                   ; 0xde12 <end_block9+0xa8ac>
     740: ad 13 de     	lda	$de13                   ; 0xde13 <end_block9+0xa8ad>
     743: a5 1b        	lda	$1b                     ; 0x1b <__rc11>
     745: 92 16        	sta	($16)                   ; 0x16 <__rc6>
     747: a5 1a        	lda	$1a                     ; 0x1a <__rc10>
     749: a4 1c        	ldy	$1c                     ; 0x1c <__rc12>
     74b: 91 16        	sta	($16),y                 ; 0x16 <__rc6>
     74d: a5 19        	lda	$19                     ; 0x19 <__rc9>
     74f: a4 1e        	ldy	$1e                     ; 0x1e <__rc14>
     751: 91 16        	sta	($16),y                 ; 0x16 <__rc6>
     753: a4 22        	ldy	$22                     ; 0x22 <__rc18>
     755: a5 23        	lda	$23                     ; 0x23 <__rc19>
     757: 91 16        	sta	($16),y                 ; 0x16 <__rc6>
     759: e8           	inx
     75a: 86 15        	stx	$15                     ; 0x15 <__rc5>
     75c: 18           	clc
     75d: a5 18        	lda	$18                     ; 0x18 <__rc8>
     75f: 69 03        	adc	#$3
     761: aa           	tax
     762: c9 30        	cmp	#$30
     764: f0 03        	beq	$769 <main+0x1e9>
     766: 4c b1 06     	jmp	$6b1 <main+0x131>
     769: a6 01        	ldx	$1                      ; 0x1 <__zp_data_size+0x1>
     76b: 86 18        	stx	$18                     ; 0x18 <__rc8>
     76d: a2 50        	ldx	#$50
     76f: 8e 00 de     	stx	$de00                   ; 0xde00 <end_block9+0xa89a>
     772: 9c 01 de     	stz	$de01                   ; 0xde01 <end_block9+0xa89b>
     775: a2 1e        	ldx	#$1e
     777: 8e 02 de     	stx	$de02                   ; 0xde02 <end_block9+0xa89c>
     77a: 9c 03 de     	stz	$de03                   ; 0xde03 <end_block9+0xa89d>
     77d: ae 10 de     	ldx	$de10                   ; 0xde10 <end_block9+0xa8aa>
     780: ac 11 de     	ldy	$de11                   ; 0xde11 <end_block9+0xa8ab>
     783: ad 12 de     	lda	$de12                   ; 0xde12 <end_block9+0xa8ac>
     786: ad 13 de     	lda	$de13                   ; 0xde13 <end_block9+0xa8ad>
     789: a9 02        	lda	#$2
     78b: 85 01        	sta	$1                      ; 0x1 <__zp_data_size+0x1>
     78d: e0 01        	cpx	#$1
     78f: 98           	tya
     790: e9 00        	sbc	#$0
     792: 50 02        	bvc	$796 <main+0x216>
     794: 49 80        	eor	#$80
     796: c9 00        	cmp	#$0
     798: 30 50        	bmi	$7ea <main+0x26a>
     79a: a9 20        	lda	#$20
     79c: 86 19        	stx	$19                     ; 0x19 <__rc9>
     79e: 86 14        	stx	$14                     ; 0x14 <__rc4>
     7a0: 84 15        	sty	$15                     ; 0x15 <__rc5>
     7a2: a2 00        	ldx	#$0
     7a4: 86 16        	stx	$16                     ; 0x16 <__rc6>
     7a6: a2 c0        	ldx	#$c0
     7a8: 86 17        	stx	$17                     ; 0x17 <__rc7>
     7aa: 80 04        	bra	$7b0 <main+0x230>
     7ac: a6 15        	ldx	$15                     ; 0x15 <__rc5>
     7ae: f0 14        	beq	$7c4 <main+0x244>
     7b0: 92 16        	sta	($16)                   ; 0x16 <__rc6>
     7b2: e6 16        	inc	$16                     ; 0x16 <__rc6>
     7b4: d0 02        	bne	$7b8 <main+0x238>
     7b6: e6 17        	inc	$17                     ; 0x17 <__rc7>
     7b8: a2 ff        	ldx	#$ff
     7ba: c6 14        	dec	$14                     ; 0x14 <__rc4>
     7bc: e4 14        	cpx	$14                     ; 0x14 <__rc4>
     7be: d0 ec        	bne	$7ac <main+0x22c>
     7c0: c6 15        	dec	$15                     ; 0x15 <__rc5>
     7c2: 80 e8        	bra	$7ac <main+0x22c>
     7c4: a6 14        	ldx	$14                     ; 0x14 <__rc4>
     7c6: d0 e8        	bne	$7b0 <main+0x230>
     7c8: a2 03        	ldx	#$3
     7ca: 86 01        	stx	$1                      ; 0x1 <__zp_data_size+0x1>
     7cc: a6 19        	ldx	$19                     ; 0x19 <__rc9>
     7ce: 80 03        	bra	$7d3 <main+0x253>
     7d0: 98           	tya
     7d1: f0 12        	beq	$7e5 <main+0x265>
     7d3: a9 f0        	lda	#$f0
     7d5: 92 12        	sta	($12)                   ; 0x12 <__rc2>
     7d7: e6 12        	inc	$12                     ; 0x12 <__rc2>
     7d9: d0 02        	bne	$7dd <main+0x25d>
     7db: e6 13        	inc	$13                     ; 0x13 <__rc3>
     7dd: ca           	dex
     7de: e0 ff        	cpx	#$ff
     7e0: d0 ee        	bne	$7d0 <main+0x250>
     7e2: 88           	dey
     7e3: 80 eb        	bra	$7d0 <main+0x250>
     7e5: 8a           	txa
     7e6: d0 eb        	bne	$7d3 <main+0x253>
     7e8: 80 04        	bra	$7ee <main+0x26e>
     7ea: a2 03        	ldx	#$3
     7ec: 86 01        	stx	$1                      ; 0x1 <__zp_data_size+0x1>
     7ee: a6 18        	ldx	$18                     ; 0x18 <__rc8>
     7f0: 86 01        	stx	$1                      ; 0x1 <__zp_data_size+0x1>
     7f2: 64 30        	stz	$30                     ; 0x30 <_col>
     7f4: 9c 14 d0     	stz	$d014                   ; 0xd014 <end_block9+0x9aae>
     7f7: 9c 15 d0     	stz	$d015                   ; 0xd015 <end_block9+0x9aaf>
     7fa: 64 31        	stz	$31                     ; 0x31 <_row>
     7fc: 9c 16 d0     	stz	$d016                   ; 0xd016 <end_block9+0x9ab0>
     7ff: 9c 17 d0     	stz	$d017                   ; 0xd017 <end_block9+0x9ab1>
     802: a2 40        	ldx	#$40
     804: 8e 00 de     	stx	$de00                   ; 0xde00 <end_block9+0xa89a>
     807: a2 01        	ldx	#$1
     809: 8e 01 de     	stx	$de01                   ; 0xde01 <end_block9+0xa89b>
     80c: a2 f0        	ldx	#$f0
     80e: 8e 02 de     	stx	$de02                   ; 0xde02 <end_block9+0xa89c>
     811: 9c 03 de     	stz	$de03                   ; 0xde03 <end_block9+0xa89d>
     814: ae 10 de     	ldx	$de10                   ; 0xde10 <end_block9+0xa8aa>
     817: 86 17        	stx	$17                     ; 0x17 <__rc7>
     819: ae 11 de     	ldx	$de11                   ; 0xde11 <end_block9+0xa8ab>
     81c: 86 12        	stx	$12                     ; 0x12 <__rc2>
     81e: ae 12 de     	ldx	$de12                   ; 0xde12 <end_block9+0xa8ac>
     821: 86 13        	stx	$13                     ; 0x13 <__rc3>
     823: ae 13 de     	ldx	$de13                   ; 0xde13 <end_block9+0xa8ad>
     826: 86 14        	stx	$14                     ; 0x14 <__rc4>
     828: a4 12        	ldy	$12                     ; 0x12 <__rc2>
     82a: 84 15        	sty	$15                     ; 0x15 <__rc5>
     82c: 06 15        	asl	$15                     ; 0x15 <__rc5>
     82e: a5 13        	lda	$13                     ; 0x13 <__rc3>
     830: 2a           	rol
     831: 86 16        	stx	$16                     ; 0x16 <__rc6>
     833: 26 16        	rol	$16                     ; 0x16 <__rc6>
     835: 06 15        	asl	$15                     ; 0x15 <__rc5>
     837: 2a           	rol
     838: 26 16        	rol	$16                     ; 0x16 <__rc6>
     83a: 06 15        	asl	$15                     ; 0x15 <__rc5>
     83c: 2a           	rol
     83d: 26 16        	rol	$16                     ; 0x16 <__rc6>
     83f: 85 15        	sta	$15                     ; 0x15 <__rc5>
     841: 8d 00 de     	sta	$de00                   ; 0xde00 <end_block9+0xa89a>
     844: a5 16        	lda	$16                     ; 0x16 <__rc6>
     846: 8d 01 de     	sta	$de01                   ; 0xde01 <end_block9+0xa89b>
     849: 9c 02 de     	stz	$de02                   ; 0xde02 <end_block9+0xa89c>
     84c: a2 20        	ldx	#$20
     84e: 8e 03 de     	stx	$de03                   ; 0xde03 <end_block9+0xa89d>
     851: ae 10 de     	ldx	$de10                   ; 0xde10 <end_block9+0xa8aa>
     854: 86 16        	stx	$16                     ; 0x16 <__rc6>
     856: ae 11 de     	ldx	$de11                   ; 0xde11 <end_block9+0xa8ab>
     859: 86 18        	stx	$18                     ; 0x18 <__rc8>
     85b: ac 12 de     	ldy	$de12                   ; 0xde12 <end_block9+0xa8ac>
     85e: ae 13 de     	ldx	$de13                   ; 0xde13 <end_block9+0xa8ad>
     861: e4 14        	cpx	$14                     ; 0x14 <__rc4>
     863: d0 14        	bne	$879 <main+0x2f9>
     865: c4 13        	cpy	$13                     ; 0x13 <__rc3>
     867: d0 10        	bne	$879 <main+0x2f9>
     869: a6 18        	ldx	$18                     ; 0x18 <__rc8>
     86b: e4 12        	cpx	$12                     ; 0x12 <__rc2>
     86d: d0 0a        	bne	$879 <main+0x2f9>
     86f: a6 16        	ldx	$16                     ; 0x16 <__rc6>
     871: e4 17        	cpx	$17                     ; 0x17 <__rc7>
     873: d0 04        	bne	$879 <main+0x2f9>
     875: a6 15        	ldx	$15                     ; 0x15 <__rc5>
     877: 80 06        	bra	$87f <main+0x2ff>
     879: a6 15        	ldx	$15                     ; 0x15 <__rc5>
     87b: e8           	inx
     87c: d0 01        	bne	$87f <main+0x2ff>
     87e: 1a           	inc
     87f: 8e 00 de     	stx	$de00                   ; 0xde00 <end_block9+0xa89a>
     882: 8d 01 de     	sta	$de01                   ; 0xde01 <end_block9+0xa89b>
     885: 9c 02 de     	stz	$de02                   ; 0xde02 <end_block9+0xa89c>
     888: a2 20        	ldx	#$20
     88a: 8e 03 de     	stx	$de03                   ; 0xde03 <end_block9+0xa89d>
     88d: ae 10 de     	ldx	$de10                   ; 0xde10 <end_block9+0xa8aa>
     890: 86 12        	stx	$12                     ; 0x12 <__rc2>
     892: ae 11 de     	ldx	$de11                   ; 0xde11 <end_block9+0xa8ab>
     895: 86 13        	stx	$13                     ; 0x13 <__rc3>
     897: ae 12 de     	ldx	$de12                   ; 0xde12 <end_block9+0xa8ac>
     89a: 86 14        	stx	$14                     ; 0x14 <__rc4>
     89c: a9 00        	lda	#$0
     89e: 38           	sec
     89f: e5 12        	sbc	$12                     ; 0x12 <__rc2>
     8a1: a8           	tay
     8a2: a9 00        	lda	#$0
     8a4: e5 13        	sbc	$13                     ; 0x13 <__rc3>
     8a6: 85 15        	sta	$15                     ; 0x15 <__rc5>
     8a8: a9 08        	lda	#$8
     8aa: e5 14        	sbc	$14                     ; 0x14 <__rc4>
     8ac: aa           	tax
     8ad: 98           	tya
     8ae: 84 17        	sty	$17                     ; 0x17 <__rc7>
     8b0: 38           	sec
     8b1: e5 12        	sbc	$12                     ; 0x12 <__rc2>
     8b3: 85 16        	sta	$16                     ; 0x16 <__rc6>
     8b5: a5 15        	lda	$15                     ; 0x15 <__rc5>
     8b7: e5 13        	sbc	$13                     ; 0x13 <__rc3>
     8b9: 85 18        	sta	$18                     ; 0x18 <__rc8>
     8bb: 8a           	txa
     8bc: 86 19        	stx	$19                     ; 0x19 <__rc9>
     8be: e5 14        	sbc	$14                     ; 0x14 <__rc4>
     8c0: a8           	tay
     8c1: 38           	sec
     8c2: a5 16        	lda	$16                     ; 0x16 <__rc6>
     8c4: e5 12        	sbc	$12                     ; 0x12 <__rc2>
     8c6: 85 12        	sta	$12                     ; 0x12 <__rc2>
     8c8: a5 18        	lda	$18                     ; 0x18 <__rc8>
     8ca: e5 13        	sbc	$13                     ; 0x13 <__rc3>
     8cc: 85 13        	sta	$13                     ; 0x13 <__rc3>
     8ce: 98           	tya
     8cf: e5 14        	sbc	$14                     ; 0x14 <__rc4>
     8d1: ae 13 de     	ldx	$de13                   ; 0xde13 <end_block9+0xa8ad>
     8d4: a6 17        	ldx	$17                     ; 0x17 <__rc7>
     8d6: 8e 01 d1     	stx	$d101                   ; 0xd101 <end_block9+0x9b9b>
     8d9: a6 15        	ldx	$15                     ; 0x15 <__rc5>
     8db: 8e 02 d1     	stx	$d102                   ; 0xd102 <end_block9+0x9b9c>
     8de: a6 19        	ldx	$19                     ; 0x19 <__rc9>
     8e0: 8e 03 d1     	stx	$d103                   ; 0xd103 <end_block9+0x9b9d>
     8e3: a6 16        	ldx	$16                     ; 0x16 <__rc6>
     8e5: 8e 09 d1     	stx	$d109                   ; 0xd109 <end_block9+0x9ba3>
     8e8: a6 18        	ldx	$18                     ; 0x18 <__rc8>
     8ea: 8e 0a d1     	stx	$d10a                   ; 0xd10a <end_block9+0x9ba4>
     8ed: 8c 0b d1     	sty	$d10b                   ; 0xd10b <end_block9+0x9ba5>
     8f0: a6 12        	ldx	$12                     ; 0x12 <__rc2>
     8f2: 8e 11 d1     	stx	$d111                   ; 0xd111 <end_block9+0x9bab>
     8f5: a6 13        	ldx	$13                     ; 0x13 <__rc3>
     8f7: 8e 12 d1     	stx	$d112                   ; 0xd112 <end_block9+0x9bac>
     8fa: 8d 13 d1     	sta	$d113                   ; 0xd113 <end_block9+0x9bad>
     8fd: 9c 00 d1     	stz	$d100                   ; 0xd100 <end_block9+0x9b9a>
     900: 9c 08 d1     	stz	$d108                   ; 0xd108 <end_block9+0x9ba2>
     903: 9c 10 d1     	stz	$d110                   ; 0xd110 <end_block9+0x9baa>
     906: a2 10        	ldx	#$10
     908: 8e 00 d2     	stx	$d200                   ; 0xd200 <end_block9+0x9c9a>
     90b: 8e 0c d2     	stx	$d20c                   ; 0xd20c <end_block9+0x9ca6>
     90e: 8e 18 d2     	stx	$d218                   ; 0xd218 <end_block9+0x9cb2>
     911: a0 d9        	ldy	#$d9
     913: a2 40        	ldx	#$40
     915: 64 12        	stz	$12                     ; 0x12 <__rc2>
     917: 84 13        	sty	$13                     ; 0x13 <__rc3>
     919: a9 00        	lda	#$0
     91b: 92 12        	sta	($12)                   ; 0x12 <__rc2>
     91d: ca           	dex
     91e: 18           	clc
     91f: a5 12        	lda	$12                     ; 0x12 <__rc2>
     921: 69 08        	adc	#$8
     923: 85 12        	sta	$12                     ; 0x12 <__rc2>
     925: 98           	tya
     926: 69 00        	adc	#$0
     928: a8           	tay
     929: 8a           	txa
     92a: d0 eb        	bne	$917 <main+0x397>
     92c: 18           	clc
     92d: a5 10        	lda	$10                     ; 0x10 <__rc0>
     92f: 69 01        	adc	#$1
     931: 85 12        	sta	$12                     ; 0x12 <__rc2>
     933: a5 11        	lda	$11                     ; 0x11 <__rc1>
     935: 69 00        	adc	#$0
     937: 85 13        	sta	$13                     ; 0x13 <__rc3>
     939: a6 12        	ldx	$12                     ; 0x12 <__rc2>
     93b: 86 fb        	stx	$fb                     ; 0xfb <__bss_size+0xb5>
     93d: 85 fc        	sta	$fc                     ; 0xfc <__bss_size+0xb6>
     93f: a2 08        	ldx	#$8
     941: 86 fd        	stx	$fd                     ; 0xfd <__bss_size+0xb7>
     943: 18           	clc
     944: a6 10        	ldx	$10                     ; 0x10 <__rc0>
     946: 86 14        	stx	$14                     ; 0x14 <__rc4>
     948: a6 11        	ldx	$11                     ; 0x11 <__rc1>
     94a: 86 15        	stx	$15                     ; 0x15 <__rc5>
     94c: a2 34        	ldx	#$34
     94e: 86 16        	stx	$16                     ; 0x16 <__rc6>
     950: a2 00        	ldx	#$0
     952: 86 17        	stx	$17                     ; 0x17 <__rc7>
     954: a0 06        	ldy	#$6
     956: 20 dc ff     	jsr	$ffdc <end_block9+0xca76>
     959: 92 14        	sta	($14)                   ; 0x14 <__rc4>
     95b: a9 00        	lda	#$0
     95d: 6a           	ror
     95e: 85 16        	sta	$16                     ; 0x16 <__rc6>
     960: b1 12        	lda	($12),y                 ; 0x12 <__rc2>
     962: 85 14        	sta	$14                     ; 0x14 <__rc4>
     964: c8           	iny
     965: b1 12        	lda	($12),y                 ; 0x12 <__rc2>
     967: a2 07        	ldx	#$7
     969: 86 24        	stx	$24                     ; 0x24 <__rc20>
     96b: a6 14        	ldx	$14                     ; 0x14 <__rc4>
     96d: 8e 00 de     	stx	$de00                   ; 0xde00 <end_block9+0xa89a>
     970: 9c 01 de     	stz	$de01                   ; 0xde01 <end_block9+0xa89b>
     973: 8d 02 de     	sta	$de02                   ; 0xde02 <end_block9+0xa89c>
     976: 9c 03 de     	stz	$de03                   ; 0xde03 <end_block9+0xa89d>
     979: ae 10 de     	ldx	$de10                   ; 0xde10 <end_block9+0xa8aa>
     97c: ac 11 de     	ldy	$de11                   ; 0xde11 <end_block9+0xa8ab>
     97f: ad 12 de     	lda	$de12                   ; 0xde12 <end_block9+0xa8ac>
     982: ad 13 de     	lda	$de13                   ; 0xde13 <end_block9+0xa8ad>
     985: 8e a4 d6     	stx	$d6a4                   ; 0xd6a4 <end_block9+0xa13e>
     988: 8c a5 d6     	sty	$d6a5                   ; 0xd6a5 <end_block9+0xa13f>
     98b: a2 03        	ldx	#$3
     98d: 8e a6 d6     	stx	$d6a6                   ; 0xd6a6 <end_block9+0xa140>
     990: a5 fa        	lda	$fa                     ; 0xfa <__bss_size+0xb4>
     992: 4a           	lsr
     993: a6 f8        	ldx	$f8                     ; 0xf8 <__bss_size+0xb2>
     995: a4 f9        	ldy	$f9                     ; 0xf9 <__bss_size+0xb3>
     997: 86 12        	stx	$12                     ; 0x12 <__rc2>
     999: 84 13        	sty	$13                     ; 0x13 <__rc3>
     99b: a2 00        	ldx	#$0
     99d: 20 d2 09     	jsr	$9d2 <f256main>
     9a0: 78           	sei
     9a1: a6 24        	ldx	$24                     ; 0x24 <__rc20>
     9a3: 86 0f        	stx	$f                      ; 0xf <__zp_bss_size+0x3>
     9a5: a2 de        	ldx	#$de
     9a7: 8e a2 d6     	stx	$d6a2                   ; 0xd6a2 <end_block9+0xa13c>
     9aa: a2 ad        	ldx	#$ad
     9ac: 8e a3 d6     	stx	$d6a3                   ; 0xd6a3 <end_block9+0xa13d>
     9af: a2 f0        	ldx	#$f0
     9b1: 8e a0 d6     	stx	$d6a0                   ; 0xd6a0 <end_block9+0xa13a>
     9b4: 9c a0 d6     	stz	$d6a0                   ; 0xd6a0 <end_block9+0xa13a>
     9b7: 6c fc ff     	jmp	($fffc)                 ; 0xfffc <end_block9+0xca96>
     9ba: a2 00        	ldx	#$0
     9bc: 8a           	txa
     9bd: 85 20        	sta	$20                     ; 0x20 <__rc16>
     9bf: 7a           	ply
     9c0: 84 24        	sty	$24                     ; 0x24 <__rc20>
     9c2: 18           	clc
     9c3: a5 10        	lda	$10                     ; 0x10 <__rc0>
     9c5: 69 09        	adc	#$9
     9c7: 85 10        	sta	$10                     ; 0x10 <__rc0>
     9c9: a5 11        	lda	$11                     ; 0x11 <__rc1>
     9cb: 69 00        	adc	#$0
     9cd: 85 11        	sta	$11                     ; 0x11 <__rc1>
     9cf: a5 20        	lda	$20                     ; 0x20 <__rc16>
     9d1: 60           	rts

000009d2 <f256main>:
     9d2: 48           	pha
     9d3: 18           	clc
     9d4: a5 10        	lda	$10                     ; 0x10 <__rc0>
     9d6: 69 43        	adc	#$43
     9d8: 85 10        	sta	$10                     ; 0x10 <__rc0>
     9da: a5 11        	lda	$11                     ; 0x11 <__rc1>
     9dc: 69 cc        	adc	#$cc
     9de: 85 11        	sta	$11                     ; 0x11 <__rc1>
     9e0: 68           	pla
     9e1: a4 24        	ldy	$24                     ; 0x24 <__rc20>
     9e3: 5a           	phy
     9e4: a4 25        	ldy	$25                     ; 0x25 <__rc21>
     9e6: 5a           	phy
     9e7: a4 26        	ldy	$26                     ; 0x26 <__rc22>
     9e9: 5a           	phy
     9ea: a4 27        	ldy	$27                     ; 0x27 <__rc23>
     9ec: 5a           	phy
     9ed: 48           	pha
     9ee: a5 28        	lda	$28                     ; 0x28 <__rc24>
     9f0: a0 00        	ldy	#$0
     9f2: 91 10        	sta	($10),y                 ; 0x10 <__rc0>
     9f4: 18           	clc
     9f5: a5 10        	lda	$10                     ; 0x10 <__rc0>
     9f7: 69 b9        	adc	#$b9
     9f9: 85 14        	sta	$14                     ; 0x14 <__rc4>
     9fb: a5 11        	lda	$11                     ; 0x11 <__rc1>
     9fd: 69 33        	adc	#$33
     9ff: 85 15        	sta	$15                     ; 0x15 <__rc5>
     a01: 68           	pla
     a02: 92 14        	sta	($14)                   ; 0x14 <__rc4>
     a04: c8           	iny
     a05: 8a           	txa
     a06: 91 14        	sta	($14),y                 ; 0x14 <__rc4>
     a08: a5 12        	lda	$12                     ; 0x12 <__rc2>
     a0a: a6 13        	ldx	$13                     ; 0x13 <__rc3>
     a0c: 18           	clc
     a0d: 48           	pha
     a0e: a5 10        	lda	$10                     ; 0x10 <__rc0>
     a10: 69 b7        	adc	#$b7
     a12: 85 12        	sta	$12                     ; 0x12 <__rc2>
     a14: a5 11        	lda	$11                     ; 0x11 <__rc1>
     a16: 69 33        	adc	#$33
     a18: 85 13        	sta	$13                     ; 0x13 <__rc3>
     a1a: 68           	pla
     a1b: 92 12        	sta	($12)                   ; 0x12 <__rc2>
     a1d: 8a           	txa
     a1e: 91 12        	sta	($12),y                 ; 0x12 <__rc2>
     a20: a2 00        	ldx	#$0
     a22: 86 24        	stx	$24                     ; 0x24 <__rc20>
     a24: a2 00        	ldx	#$0
     a26: 86 25        	stx	$25                     ; 0x25 <__rc21>
     a28: a5 24        	lda	$24                     ; 0x24 <__rc20>
     a2a: 18           	clc
     a2b: 48           	pha
     a2c: a5 10        	lda	$10                     ; 0x10 <__rc0>
     a2e: 69 b5        	adc	#$b5
     a30: 85 26        	sta	$26                     ; 0x26 <__rc22>
     a32: a5 11        	lda	$11                     ; 0x11 <__rc1>
     a34: 69 33        	adc	#$33
     a36: 85 27        	sta	$27                     ; 0x27 <__rc23>
     a38: 68           	pla
     a39: 92 26        	sta	($26)                   ; 0x26 <__rc22>
     a3b: 8a           	txa
     a3c: 91 26        	sta	($26),y                 ; 0x26 <__rc22>
     a3e: a5 24        	lda	$24                     ; 0x24 <__rc20>
     a40: 18           	clc
     a41: 48           	pha
     a42: a5 10        	lda	$10                     ; 0x10 <__rc0>
     a44: 69 b3        	adc	#$b3
     a46: 85 12        	sta	$12                     ; 0x12 <__rc2>
     a48: a5 11        	lda	$11                     ; 0x11 <__rc1>
     a4a: 69 33        	adc	#$33
     a4c: 85 13        	sta	$13                     ; 0x13 <__rc3>
     a4e: 68           	pla
     a4f: 92 12        	sta	($12)                   ; 0x12 <__rc2>
     a51: 8a           	txa
     a52: 91 12        	sta	($12),y                 ; 0x12 <__rc2>
     a54: 18           	clc
     a55: a5 10        	lda	$10                     ; 0x10 <__rc0>
     a57: 69 29        	adc	#$29
     a59: 85 12        	sta	$12                     ; 0x12 <__rc2>
     a5b: a5 11        	lda	$11                     ; 0x11 <__rc1>
     a5d: 69 20        	adc	#$20
     a5f: 85 13        	sta	$13                     ; 0x13 <__rc3>
     a61: 8a           	txa
     a62: 92 12        	sta	($12)                   ; 0x12 <__rc2>
     a64: 18           	clc
     a65: 48           	pha
     a66: a5 10        	lda	$10                     ; 0x10 <__rc0>
     a68: 69 27        	adc	#$27
     a6a: 85 12        	sta	$12                     ; 0x12 <__rc2>
     a6c: a5 11        	lda	$11                     ; 0x11 <__rc1>
     a6e: 69 20        	adc	#$20
     a70: 85 13        	sta	$13                     ; 0x13 <__rc3>
     a72: 68           	pla
     a73: 92 12        	sta	($12)                   ; 0x12 <__rc2>
     a75: 91 12        	sta	($12),y                 ; 0x12 <__rc2>
     a77: 18           	clc
     a78: 48           	pha
     a79: a5 10        	lda	$10                     ; 0x10 <__rc0>
     a7b: 69 25        	adc	#$25
     a7d: 85 12        	sta	$12                     ; 0x12 <__rc2>
     a7f: a5 11        	lda	$11                     ; 0x11 <__rc1>
     a81: 69 20        	adc	#$20
     a83: 85 13        	sta	$13                     ; 0x13 <__rc3>
     a85: 68           	pla
     a86: 92 12        	sta	($12)                   ; 0x12 <__rc2>
     a88: 91 12        	sta	($12),y                 ; 0x12 <__rc2>
     a8a: 18           	clc
     a8b: 48           	pha
     a8c: a5 10        	lda	$10                     ; 0x10 <__rc0>
     a8e: 69 23        	adc	#$23
     a90: 85 12        	sta	$12                     ; 0x12 <__rc2>
     a92: a5 11        	lda	$11                     ; 0x11 <__rc1>
     a94: 69 20        	adc	#$20
     a96: 85 13        	sta	$13                     ; 0x13 <__rc3>
     a98: 68           	pla
     a99: 92 12        	sta	($12)                   ; 0x12 <__rc2>
     a9b: 91 12        	sta	($12),y                 ; 0x12 <__rc2>
     a9d: 18           	clc
     a9e: 48           	pha
     a9f: a5 10        	lda	$10                     ; 0x10 <__rc0>
     aa1: 69 21        	adc	#$21
     aa3: 85 12        	sta	$12                     ; 0x12 <__rc2>
     aa5: a5 11        	lda	$11                     ; 0x11 <__rc1>
     aa7: 69 20        	adc	#$20
     aa9: 85 13        	sta	$13                     ; 0x13 <__rc3>
     aab: 68           	pla
     aac: 92 12        	sta	($12)                   ; 0x12 <__rc2>
     aae: 91 12        	sta	($12),y                 ; 0x12 <__rc2>
     ab0: 18           	clc
     ab1: 48           	pha
     ab2: a5 10        	lda	$10                     ; 0x10 <__rc0>
     ab4: 69 1f        	adc	#$1f
     ab6: 85 12        	sta	$12                     ; 0x12 <__rc2>
     ab8: a5 11        	lda	$11                     ; 0x11 <__rc1>
     aba: 69 20        	adc	#$20
     abc: 85 13        	sta	$13                     ; 0x13 <__rc3>
     abe: 68           	pla
     abf: 92 12        	sta	($12)                   ; 0x12 <__rc2>
     ac1: 91 12        	sta	($12),y                 ; 0x12 <__rc2>
     ac3: 18           	clc
     ac4: 48           	pha
     ac5: a5 10        	lda	$10                     ; 0x10 <__rc0>
     ac7: 69 1d        	adc	#$1d
     ac9: 85 12        	sta	$12                     ; 0x12 <__rc2>
     acb: a5 11        	lda	$11                     ; 0x11 <__rc1>
     acd: 69 20        	adc	#$20
     acf: 85 13        	sta	$13                     ; 0x13 <__rc3>
     ad1: 68           	pla
     ad2: 92 12        	sta	($12)                   ; 0x12 <__rc2>
     ad4: 91 12        	sta	($12),y                 ; 0x12 <__rc2>
     ad6: 18           	clc
     ad7: 48           	pha
     ad8: a5 10        	lda	$10                     ; 0x10 <__rc0>
     ada: 69 1b        	adc	#$1b
     adc: 85 12        	sta	$12                     ; 0x12 <__rc2>
     ade: a5 11        	lda	$11                     ; 0x11 <__rc1>
     ae0: 69 00        	adc	#$0
     ae2: 85 13        	sta	$13                     ; 0x13 <__rc3>
     ae4: 68           	pla
     ae5: 92 12        	sta	($12)                   ; 0x12 <__rc2>
     ae7: 91 12        	sta	($12),y                 ; 0x12 <__rc2>
     ae9: 18           	clc
     aea: 48           	pha
     aeb: a5 10        	lda	$10                     ; 0x10 <__rc0>
     aed: 69 19        	adc	#$19
     aef: 85 12        	sta	$12                     ; 0x12 <__rc2>
     af1: a5 11        	lda	$11                     ; 0x11 <__rc1>
     af3: 69 00        	adc	#$0
     af5: 85 13        	sta	$13                     ; 0x13 <__rc3>
     af7: 68           	pla
     af8: 92 12        	sta	($12)                   ; 0x12 <__rc2>
     afa: 91 12        	sta	($12),y                 ; 0x12 <__rc2>
     afc: 18           	clc
     afd: 48           	pha
     afe: a5 10        	lda	$10                     ; 0x10 <__rc0>
     b00: 69 17        	adc	#$17
     b02: 85 12        	sta	$12                     ; 0x12 <__rc2>
     b04: a5 11        	lda	$11                     ; 0x11 <__rc1>
     b06: 69 00        	adc	#$0
     b08: 85 13        	sta	$13                     ; 0x13 <__rc3>
     b0a: 68           	pla
     b0b: 92 12        	sta	($12)                   ; 0x12 <__rc2>
     b0d: 91 12        	sta	($12),y                 ; 0x12 <__rc2>
     b0f: a0 01        	ldy	#$1
     b11: 18           	clc
     b12: 48           	pha
     b13: a5 10        	lda	$10                     ; 0x10 <__rc0>
     b15: 69 16        	adc	#$16
     b17: 85 12        	sta	$12                     ; 0x12 <__rc2>
     b19: a5 11        	lda	$11                     ; 0x11 <__rc1>
     b1b: 69 00        	adc	#$0
     b1d: 85 13        	sta	$13                     ; 0x13 <__rc3>
     b1f: 68           	pla
     b20: 92 12        	sta	($12)                   ; 0x12 <__rc2>
     b22: 18           	clc
     b23: 48           	pha
     b24: a5 10        	lda	$10                     ; 0x10 <__rc0>
     b26: 69 15        	adc	#$15
     b28: 85 12        	sta	$12                     ; 0x12 <__rc2>
     b2a: a5 11        	lda	$11                     ; 0x11 <__rc1>
     b2c: 69 00        	adc	#$0
     b2e: 85 13        	sta	$13                     ; 0x13 <__rc3>
     b30: 68           	pla
     b31: 92 12        	sta	($12)                   ; 0x12 <__rc2>
     b33: 18           	clc
     b34: 48           	pha
     b35: a5 10        	lda	$10                     ; 0x10 <__rc0>
     b37: 69 13        	adc	#$13
     b39: 85 12        	sta	$12                     ; 0x12 <__rc2>
     b3b: a5 11        	lda	$11                     ; 0x11 <__rc1>
     b3d: 69 00        	adc	#$0
     b3f: 85 13        	sta	$13                     ; 0x13 <__rc3>
     b41: 68           	pla
     b42: 92 12        	sta	($12)                   ; 0x12 <__rc2>
     b44: 91 12        	sta	($12),y                 ; 0x12 <__rc2>
     b46: 64 01        	stz	$1                      ; 0x1 <__zp_data_size+0x1>
     b48: 8c 00 d0     	sty	$d000                   ; 0xd000 <end_block9+0x9a9a>
     b4b: 84 28        	sty	$28                     ; 0x28 <__rc24>
     b4d: 9c 01 d0     	stz	$d001                   ; 0xd001 <end_block9+0x9a9b>
     b50: 64 01        	stz	$1                      ; 0x1 <__zp_data_size+0x1>
     b52: 9c 0d d0     	stz	$d00d                   ; 0xd00d <end_block9+0x9aa7>
     b55: 20 15 18     	jsr	$1815 <setTextColorMatrix>
     b58: 20 55 18     	jsr	$1855 <fillFrame>
     b5b: 20 96 20     	jsr	$2096 <openAllCODEC>
     b5e: 20 da 20     	jsr	$20da <boostVSClock>
     b61: 20 95 18     	jsr	$1895 <initNibbleTable>
     b64: a2 f1        	ldx	#$f1
     b66: 86 12        	stx	$12                     ; 0x12 <__rc2>
     b68: a2 34        	ldx	#$34
     b6a: 86 13        	stx	$13                     ; 0x13 <__rc3>
     b6c: 20 ec 18     	jsr	$18ec <fileOpen>
     b6f: a5 12        	lda	$12                     ; 0x12 <__rc2>
     b71: 92 26        	sta	($26)                   ; 0x26 <__rc22>
     b73: a4 28        	ldy	$28                     ; 0x28 <__rc24>
     b75: a5 13        	lda	$13                     ; 0x13 <__rc3>
     b77: 91 26        	sta	($26),y                 ; 0x26 <__rc22>
     b79: b2 26        	lda	($26)                   ; 0x26 <__rc22>
     b7b: 85 12        	sta	$12                     ; 0x12 <__rc2>
     b7d: b1 26        	lda	($26),y                 ; 0x26 <__rc22>
     b7f: c5 25        	cmp	$25                     ; 0x25 <__rc21>
     b81: f0 02        	beq	$b85 <f256main+0x1b3>
     b83: 80 0e        	bra	$b93 <f256main+0x1c1>
     b85: a6 12        	ldx	$12                     ; 0x12 <__rc2>
     b87: e4 24        	cpx	$24                     ; 0x24 <__rc20>
     b89: f0 02        	beq	$b8d <f256main+0x1bb>
     b8b: 80 02        	bra	$b8f <f256main+0x1bd>
     b8d: 80 02        	bra	$b91 <f256main+0x1bf>
     b8f: 80 49        	bra	$bda <f256main+0x208>
     b91: 80 02        	bra	$b95 <f256main+0x1c3>
     b93: 80 45        	bra	$bda <f256main+0x208>
     b95: 80 00        	bra	$b97 <f256main+0x1c5>
     b97: a2 03        	ldx	#$3
     b99: 86 12        	stx	$12                     ; 0x12 <__rc2>
     b9b: a2 35        	ldx	#$35
     b9d: 86 13        	stx	$13                     ; 0x13 <__rc3>
     b9f: 20 e3 22     	jsr	$22e3 <printf>
     ba2: 20 ad 20     	jsr	$20ad <hitspace>
     ba5: 18           	clc
     ba6: a5 10        	lda	$10                     ; 0x10 <__rc0>
     ba8: 69 bb        	adc	#$bb
     baa: 85 12        	sta	$12                     ; 0x12 <__rc2>
     bac: a5 11        	lda	$11                     ; 0x11 <__rc1>
     bae: 69 33        	adc	#$33
     bb0: 85 13        	sta	$13                     ; 0x13 <__rc3>
     bb2: a9 01        	lda	#$1
     bb4: 92 12        	sta	($12)                   ; 0x12 <__rc2>
     bb6: aa           	tax
     bb7: a8           	tay
     bb8: 3a           	dec
     bb9: 91 12        	sta	($12),y                 ; 0x12 <__rc2>
     bbb: 18           	clc
     bbc: a5 10        	lda	$10                     ; 0x10 <__rc0>
     bbe: 69 0f        	adc	#$f
     bc0: 85 12        	sta	$12                     ; 0x12 <__rc2>
     bc2: a5 11        	lda	$11                     ; 0x11 <__rc1>
     bc4: 69 00        	adc	#$0
     bc6: 85 13        	sta	$13                     ; 0x13 <__rc3>
     bc8: 8a           	txa
     bc9: 92 12        	sta	($12)                   ; 0x12 <__rc2>
     bcb: a9 00        	lda	#$0
     bcd: 91 12        	sta	($12),y                 ; 0x12 <__rc2>
     bcf: c8           	iny
     bd0: 91 12        	sta	($12),y                 ; 0x12 <__rc2>
     bd2: a9 00        	lda	#$0
     bd4: c8           	iny
     bd5: 91 12        	sta	($12),y                 ; 0x12 <__rc2>
     bd7: 4c f5 17     	jmp	$17f5 <f256main+0xe23>
     bda: a2 be        	ldx	#$be
     bdc: 86 12        	stx	$12                     ; 0x12 <__rc2>
     bde: a2 34        	ldx	#$34
     be0: 86 13        	stx	$13                     ; 0x13 <__rc3>
     be2: 20 ec 18     	jsr	$18ec <fileOpen>
     be5: a5 12        	lda	$12                     ; 0x12 <__rc2>
     be7: a6 13        	ldx	$13                     ; 0x13 <__rc3>
     be9: 18           	clc
     bea: 48           	pha
     beb: a5 10        	lda	$10                     ; 0x10 <__rc0>
     bed: 69 b3        	adc	#$b3
     bef: 85 12        	sta	$12                     ; 0x12 <__rc2>
     bf1: a5 11        	lda	$11                     ; 0x11 <__rc1>
     bf3: 69 33        	adc	#$33
     bf5: 85 13        	sta	$13                     ; 0x13 <__rc3>
     bf7: 68           	pla
     bf8: 92 12        	sta	($12)                   ; 0x12 <__rc2>
     bfa: a0 01        	ldy	#$1
     bfc: 8a           	txa
     bfd: 91 12        	sta	($12),y                 ; 0x12 <__rc2>
     bff: b2 12        	lda	($12)                   ; 0x12 <__rc2>
     c01: 85 14        	sta	$14                     ; 0x14 <__rc4>
     c03: b1 12        	lda	($12),y                 ; 0x12 <__rc2>
     c05: a2 00        	ldx	#$0
     c07: 86 12        	stx	$12                     ; 0x12 <__rc2>
     c09: a2 00        	ldx	#$0
     c0b: 86 13        	stx	$13                     ; 0x13 <__rc3>
     c0d: c5 13        	cmp	$13                     ; 0x13 <__rc3>
     c0f: f0 02        	beq	$c13 <f256main+0x241>
     c11: 80 0e        	bra	$c21 <f256main+0x24f>
     c13: a6 14        	ldx	$14                     ; 0x14 <__rc4>
     c15: e4 12        	cpx	$12                     ; 0x12 <__rc2>
     c17: f0 02        	beq	$c1b <f256main+0x249>
     c19: 80 02        	bra	$c1d <f256main+0x24b>
     c1b: 80 02        	bra	$c1f <f256main+0x24d>
     c1d: 80 49        	bra	$c68 <f256main+0x296>
     c1f: 80 02        	bra	$c23 <f256main+0x251>
     c21: 80 45        	bra	$c68 <f256main+0x296>
     c23: 80 00        	bra	$c25 <f256main+0x253>
     c25: a2 d1        	ldx	#$d1
     c27: 86 12        	stx	$12                     ; 0x12 <__rc2>
     c29: a2 34        	ldx	#$34
     c2b: 86 13        	stx	$13                     ; 0x13 <__rc3>
     c2d: 20 e3 22     	jsr	$22e3 <printf>
     c30: 20 ad 20     	jsr	$20ad <hitspace>
     c33: 18           	clc
     c34: a5 10        	lda	$10                     ; 0x10 <__rc0>
     c36: 69 bb        	adc	#$bb
     c38: 85 12        	sta	$12                     ; 0x12 <__rc2>
     c3a: a5 11        	lda	$11                     ; 0x11 <__rc1>
     c3c: 69 33        	adc	#$33
     c3e: 85 13        	sta	$13                     ; 0x13 <__rc3>
     c40: a9 01        	lda	#$1
     c42: 92 12        	sta	($12)                   ; 0x12 <__rc2>
     c44: aa           	tax
     c45: a8           	tay
     c46: 3a           	dec
     c47: 91 12        	sta	($12),y                 ; 0x12 <__rc2>
     c49: 18           	clc
     c4a: a5 10        	lda	$10                     ; 0x10 <__rc0>
     c4c: 69 0f        	adc	#$f
     c4e: 85 12        	sta	$12                     ; 0x12 <__rc2>
     c50: a5 11        	lda	$11                     ; 0x11 <__rc1>
     c52: 69 00        	adc	#$0
     c54: 85 13        	sta	$13                     ; 0x13 <__rc3>
     c56: 8a           	txa
     c57: 92 12        	sta	($12)                   ; 0x12 <__rc2>
     c59: a9 00        	lda	#$0
     c5b: 91 12        	sta	($12),y                 ; 0x12 <__rc2>
     c5d: c8           	iny
     c5e: 91 12        	sta	($12),y                 ; 0x12 <__rc2>
     c60: a9 00        	lda	#$0
     c62: c8           	iny
     c63: 91 12        	sta	($12),y                 ; 0x12 <__rc2>
     c65: 4c f5 17     	jmp	$17f5 <f256main+0xe23>
     c68: 18           	clc
     c69: a5 10        	lda	$10                     ; 0x10 <__rc0>
     c6b: 69 b3        	adc	#$b3
     c6d: 85 26        	sta	$26                     ; 0x26 <__rc22>
     c6f: a5 11        	lda	$11                     ; 0x11 <__rc1>
     c71: 69 33        	adc	#$33
     c73: 85 27        	sta	$27                     ; 0x27 <__rc23>
     c75: b2 26        	lda	($26)                   ; 0x26 <__rc22>
     c77: 85 14        	sta	$14                     ; 0x14 <__rc4>
     c79: a0 01        	ldy	#$1
     c7b: b1 26        	lda	($26),y                 ; 0x26 <__rc22>
     c7d: a2 01        	ldx	#$1
     c7f: 86 28        	stx	$28                     ; 0x28 <__rc24>
     c81: 85 15        	sta	$15                     ; 0x15 <__rc5>
     c83: 18           	clc
     c84: a5 10        	lda	$10                     ; 0x10 <__rc0>
     c86: 69 1d        	adc	#$1d
     c88: 85 24        	sta	$24                     ; 0x24 <__rc20>
     c8a: a5 11        	lda	$11                     ; 0x11 <__rc1>
     c8c: 69 00        	adc	#$0
     c8e: 85 25        	sta	$25                     ; 0x25 <__rc21>
     c90: a6 24        	ldx	$24                     ; 0x24 <__rc20>
     c92: 86 12        	stx	$12                     ; 0x12 <__rc2>
     c94: 85 13        	sta	$13                     ; 0x13 <__rc3>
     c96: 20 28 1a     	jsr	$1a28 <read8KChunk>
     c99: b2 26        	lda	($26)                   ; 0x26 <__rc22>
     c9b: 85 14        	sta	$14                     ; 0x14 <__rc4>
     c9d: a4 28        	ldy	$28                     ; 0x28 <__rc24>
     c9f: b1 26        	lda	($26),y                 ; 0x26 <__rc22>
     ca1: 85 15        	sta	$15                     ; 0x15 <__rc5>
     ca3: a6 24        	ldx	$24                     ; 0x24 <__rc20>
     ca5: 86 12        	stx	$12                     ; 0x12 <__rc2>
     ca7: a6 25        	ldx	$25                     ; 0x25 <__rc21>
     ca9: 86 13        	stx	$13                     ; 0x13 <__rc3>
     cab: 20 28 1a     	jsr	$1a28 <read8KChunk>
     cae: 18           	clc
     caf: a5 10        	lda	$10                     ; 0x10 <__rc0>
     cb1: 69 1d        	adc	#$1d
     cb3: 85 12        	sta	$12                     ; 0x12 <__rc2>
     cb5: a5 11        	lda	$11                     ; 0x11 <__rc1>
     cb7: 69 20        	adc	#$20
     cb9: 85 13        	sta	$13                     ; 0x13 <__rc3>
     cbb: b2 12        	lda	($12)                   ; 0x12 <__rc2>
     cbd: 18           	clc
     cbe: 48           	pha
     cbf: a5 10        	lda	$10                     ; 0x10 <__rc0>
     cc1: 69 21        	adc	#$21
     cc3: 85 14        	sta	$14                     ; 0x14 <__rc4>
     cc5: a5 11        	lda	$11                     ; 0x11 <__rc1>
     cc7: 69 20        	adc	#$20
     cc9: 85 15        	sta	$15                     ; 0x15 <__rc5>
     ccb: 68           	pla
     ccc: 92 14        	sta	($14)                   ; 0x14 <__rc4>
     cce: a0 01        	ldy	#$1
     cd0: b1 12        	lda	($12),y                 ; 0x12 <__rc2>
     cd2: 91 14        	sta	($14),y                 ; 0x14 <__rc4>
     cd4: 18           	clc
     cd5: a5 10        	lda	$10                     ; 0x10 <__rc0>
     cd7: 69 21        	adc	#$21
     cd9: 85 12        	sta	$12                     ; 0x12 <__rc2>
     cdb: a5 11        	lda	$11                     ; 0x11 <__rc1>
     cdd: 69 20        	adc	#$20
     cdf: 85 13        	sta	$13                     ; 0x13 <__rc3>
     ce1: b2 12        	lda	($12)                   ; 0x12 <__rc2>
     ce3: 85 14        	sta	$14                     ; 0x14 <__rc4>
     ce5: a0 01        	ldy	#$1
     ce7: b1 12        	lda	($12),y                 ; 0x12 <__rc2>
     ce9: aa           	tax
     cea: 18           	clc
     ceb: a5 10        	lda	$10                     ; 0x10 <__rc0>
     ced: 69 1d        	adc	#$1d
     cef: 85 12        	sta	$12                     ; 0x12 <__rc2>
     cf1: a5 11        	lda	$11                     ; 0x11 <__rc1>
     cf3: 69 20        	adc	#$20
     cf5: 85 13        	sta	$13                     ; 0x13 <__rc3>
     cf7: b2 12        	lda	($12)                   ; 0x12 <__rc2>
     cf9: 85 15        	sta	$15                     ; 0x15 <__rc5>
     cfb: b1 12        	lda	($12),y                 ; 0x12 <__rc2>
     cfd: a8           	tay
     cfe: 18           	clc
     cff: a5 15        	lda	$15                     ; 0x15 <__rc5>
     d01: 69 00        	adc	#$0
     d03: 85 12        	sta	$12                     ; 0x12 <__rc2>
     d05: 98           	tya
     d06: 69 08        	adc	#$8
     d08: 85 13        	sta	$13                     ; 0x13 <__rc3>
     d0a: e4 13        	cpx	$13                     ; 0x13 <__rc3>
     d0c: a0 01        	ldy	#$1
     d0e: b0 02        	bcs	$d12 <f256main+0x340>
     d10: a0 00        	ldy	#$0
     d12: 84 15        	sty	$15                     ; 0x15 <__rc5>
     d14: e4 13        	cpx	$13                     ; 0x13 <__rc3>
     d16: f0 02        	beq	$d1a <f256main+0x348>
     d18: 80 09        	bra	$d23 <f256main+0x351>
     d1a: a6 14        	ldx	$14                     ; 0x14 <__rc4>
     d1c: e4 12        	cpx	$12                     ; 0x12 <__rc2>
     d1e: 90 0a        	bcc	$d2a <f256main+0x358>
     d20: 4c 83 0d     	jmp	$d83 <f256main+0x3b1>
     d23: a5 15        	lda	$15                     ; 0x15 <__rc5>
     d25: f0 03        	beq	$d2a <f256main+0x358>
     d27: 4c 83 0d     	jmp	$d83 <f256main+0x3b1>
     d2a: 80 00        	bra	$d2c <f256main+0x35a>
     d2c: 18           	clc
     d2d: a5 10        	lda	$10                     ; 0x10 <__rc0>
     d2f: 69 21        	adc	#$21
     d31: 85 12        	sta	$12                     ; 0x12 <__rc2>
     d33: a5 11        	lda	$11                     ; 0x11 <__rc1>
     d35: 69 20        	adc	#$20
     d37: 85 13        	sta	$13                     ; 0x13 <__rc3>
     d39: a0 01        	ldy	#$1
     d3b: 18           	clc
     d3c: a5 10        	lda	$10                     ; 0x10 <__rc0>
     d3e: 69 1d        	adc	#$1d
     d40: 48           	pha
     d41: a5 11        	lda	$11                     ; 0x11 <__rc1>
     d43: 69 00        	adc	#$0
     d45: 85 14        	sta	$14                     ; 0x14 <__rc4>
     d47: 68           	pla
     d48: 18           	clc
     d49: 72 12        	adc	($12)                   ; 0x12 <__rc2>
     d4b: aa           	tax
     d4c: a5 14        	lda	$14                     ; 0x14 <__rc4>
     d4e: 71 12        	adc	($12),y                 ; 0x12 <__rc2>
     d50: 86 12        	stx	$12                     ; 0x12 <__rc2>
     d52: 85 13        	sta	$13                     ; 0x13 <__rc3>
     d54: b2 12        	lda	($12)                   ; 0x12 <__rc2>
     d56: 8d 07 d7     	sta	$d707                   ; 0xd707 <end_block9+0xa1a1>
     d59: 18           	clc
     d5a: a5 10        	lda	$10                     ; 0x10 <__rc0>
     d5c: 69 21        	adc	#$21
     d5e: 85 12        	sta	$12                     ; 0x12 <__rc2>
     d60: a5 11        	lda	$11                     ; 0x11 <__rc1>
     d62: 69 20        	adc	#$20
     d64: 85 13        	sta	$13                     ; 0x13 <__rc3>
     d66: b2 12        	lda	($12)                   ; 0x12 <__rc2>
     d68: aa           	tax
     d69: a0 01        	ldy	#$1
     d6b: b1 12        	lda	($12),y                 ; 0x12 <__rc2>
     d6d: e8           	inx
     d6e: f0 03        	beq	$d73 <f256main+0x3a1>
     d70: 4c 77 0d     	jmp	$d77 <f256main+0x3a5>
     d73: 1a           	inc
     d74: 4c 77 0d     	jmp	$d77 <f256main+0x3a5>
     d77: 85 14        	sta	$14                     ; 0x14 <__rc4>
     d79: 8a           	txa
     d7a: 92 12        	sta	($12)                   ; 0x12 <__rc2>
     d7c: a5 14        	lda	$14                     ; 0x14 <__rc4>
     d7e: 91 12        	sta	($12),y                 ; 0x12 <__rc2>
     d80: 4c d4 0c     	jmp	$cd4 <f256main+0x302>
     d83: 18           	clc
     d84: a5 10        	lda	$10                     ; 0x10 <__rc0>
     d86: 69 1d        	adc	#$1d
     d88: 85 12        	sta	$12                     ; 0x12 <__rc2>
     d8a: a5 11        	lda	$11                     ; 0x11 <__rc1>
     d8c: 69 20        	adc	#$20
     d8e: 85 13        	sta	$13                     ; 0x13 <__rc3>
     d90: b2 12        	lda	($12)                   ; 0x12 <__rc2>
     d92: 85 14        	sta	$14                     ; 0x14 <__rc4>
     d94: a0 01        	ldy	#$1
     d96: b1 12        	lda	($12),y                 ; 0x12 <__rc2>
     d98: 85 15        	sta	$15                     ; 0x15 <__rc5>
     d9a: 18           	clc
     d9b: a5 14        	lda	$14                     ; 0x14 <__rc4>
     d9d: 69 00        	adc	#$0
     d9f: 85 14        	sta	$14                     ; 0x14 <__rc4>
     da1: a5 15        	lda	$15                     ; 0x15 <__rc5>
     da3: 69 08        	adc	#$8
     da5: 85 15        	sta	$15                     ; 0x15 <__rc5>
     da7: a5 14        	lda	$14                     ; 0x14 <__rc4>
     da9: 92 12        	sta	($12)                   ; 0x12 <__rc2>
     dab: a5 15        	lda	$15                     ; 0x15 <__rc5>
     dad: 91 12        	sta	($12),y                 ; 0x12 <__rc2>
     daf: b2 12        	lda	($12)                   ; 0x12 <__rc2>
     db1: 18           	clc
     db2: 48           	pha
     db3: a5 10        	lda	$10                     ; 0x10 <__rc0>
     db5: 69 21        	adc	#$21
     db7: 85 14        	sta	$14                     ; 0x14 <__rc4>
     db9: a5 11        	lda	$11                     ; 0x11 <__rc1>
     dbb: 69 20        	adc	#$20
     dbd: 85 15        	sta	$15                     ; 0x15 <__rc5>
     dbf: 68           	pla
     dc0: 92 14        	sta	($14)                   ; 0x14 <__rc4>
     dc2: b1 12        	lda	($12),y                 ; 0x12 <__rc2>
     dc4: 91 14        	sta	($14),y                 ; 0x14 <__rc4>
     dc6: 18           	clc
     dc7: a5 10        	lda	$10                     ; 0x10 <__rc0>
     dc9: 69 21        	adc	#$21
     dcb: 85 12        	sta	$12                     ; 0x12 <__rc2>
     dcd: a5 11        	lda	$11                     ; 0x11 <__rc1>
     dcf: 69 20        	adc	#$20
     dd1: 85 13        	sta	$13                     ; 0x13 <__rc3>
     dd3: b2 12        	lda	($12)                   ; 0x12 <__rc2>
     dd5: 85 14        	sta	$14                     ; 0x14 <__rc4>
     dd7: a0 01        	ldy	#$1
     dd9: b1 12        	lda	($12),y                 ; 0x12 <__rc2>
     ddb: aa           	tax
     ddc: 18           	clc
     ddd: a5 10        	lda	$10                     ; 0x10 <__rc0>
     ddf: 69 1d        	adc	#$1d
     de1: 85 12        	sta	$12                     ; 0x12 <__rc2>
     de3: a5 11        	lda	$11                     ; 0x11 <__rc1>
     de5: 69 20        	adc	#$20
     de7: 85 13        	sta	$13                     ; 0x13 <__rc3>
     de9: b2 12        	lda	($12)                   ; 0x12 <__rc2>
     deb: 85 15        	sta	$15                     ; 0x15 <__rc5>
     ded: b1 12        	lda	($12),y                 ; 0x12 <__rc2>
     def: a8           	tay
     df0: 18           	clc
     df1: a5 15        	lda	$15                     ; 0x15 <__rc5>
     df3: 69 00        	adc	#$0
     df5: 85 12        	sta	$12                     ; 0x12 <__rc2>
     df7: 98           	tya
     df8: 69 08        	adc	#$8
     dfa: 85 13        	sta	$13                     ; 0x13 <__rc3>
     dfc: e4 13        	cpx	$13                     ; 0x13 <__rc3>
     dfe: a0 01        	ldy	#$1
     e00: b0 02        	bcs	$e04 <f256main+0x432>
     e02: a0 00        	ldy	#$0
     e04: 84 15        	sty	$15                     ; 0x15 <__rc5>
     e06: e4 13        	cpx	$13                     ; 0x13 <__rc3>
     e08: f0 02        	beq	$e0c <f256main+0x43a>
     e0a: 80 09        	bra	$e15 <f256main+0x443>
     e0c: a6 14        	ldx	$14                     ; 0x14 <__rc4>
     e0e: e4 12        	cpx	$12                     ; 0x12 <__rc2>
     e10: 90 0a        	bcc	$e1c <f256main+0x44a>
     e12: 4c 75 0e     	jmp	$e75 <f256main+0x4a3>
     e15: a5 15        	lda	$15                     ; 0x15 <__rc5>
     e17: f0 03        	beq	$e1c <f256main+0x44a>
     e19: 4c 75 0e     	jmp	$e75 <f256main+0x4a3>
     e1c: 80 00        	bra	$e1e <f256main+0x44c>
     e1e: 18           	clc
     e1f: a5 10        	lda	$10                     ; 0x10 <__rc0>
     e21: 69 21        	adc	#$21
     e23: 85 12        	sta	$12                     ; 0x12 <__rc2>
     e25: a5 11        	lda	$11                     ; 0x11 <__rc1>
     e27: 69 20        	adc	#$20
     e29: 85 13        	sta	$13                     ; 0x13 <__rc3>
     e2b: a0 01        	ldy	#$1
     e2d: 18           	clc
     e2e: a5 10        	lda	$10                     ; 0x10 <__rc0>
     e30: 69 1d        	adc	#$1d
     e32: 48           	pha
     e33: a5 11        	lda	$11                     ; 0x11 <__rc1>
     e35: 69 00        	adc	#$0
     e37: 85 14        	sta	$14                     ; 0x14 <__rc4>
     e39: 68           	pla
     e3a: 18           	clc
     e3b: 72 12        	adc	($12)                   ; 0x12 <__rc2>
     e3d: aa           	tax
     e3e: a5 14        	lda	$14                     ; 0x14 <__rc4>
     e40: 71 12        	adc	($12),y                 ; 0x12 <__rc2>
     e42: 86 12        	stx	$12                     ; 0x12 <__rc2>
     e44: 85 13        	sta	$13                     ; 0x13 <__rc3>
     e46: b2 12        	lda	($12)                   ; 0x12 <__rc2>
     e48: 8d 07 d7     	sta	$d707                   ; 0xd707 <end_block9+0xa1a1>
     e4b: 18           	clc
     e4c: a5 10        	lda	$10                     ; 0x10 <__rc0>
     e4e: 69 21        	adc	#$21
     e50: 85 12        	sta	$12                     ; 0x12 <__rc2>
     e52: a5 11        	lda	$11                     ; 0x11 <__rc1>
     e54: 69 20        	adc	#$20
     e56: 85 13        	sta	$13                     ; 0x13 <__rc3>
     e58: b2 12        	lda	($12)                   ; 0x12 <__rc2>
     e5a: aa           	tax
     e5b: a0 01        	ldy	#$1
     e5d: b1 12        	lda	($12),y                 ; 0x12 <__rc2>
     e5f: e8           	inx
     e60: f0 03        	beq	$e65 <f256main+0x493>
     e62: 4c 69 0e     	jmp	$e69 <f256main+0x497>
     e65: 1a           	inc
     e66: 4c 69 0e     	jmp	$e69 <f256main+0x497>
     e69: 85 14        	sta	$14                     ; 0x14 <__rc4>
     e6b: 8a           	txa
     e6c: 92 12        	sta	($12)                   ; 0x12 <__rc2>
     e6e: a5 14        	lda	$14                     ; 0x14 <__rc4>
     e70: 91 12        	sta	($12),y                 ; 0x12 <__rc2>
     e72: 4c c6 0d     	jmp	$dc6 <f256main+0x3f4>
     e75: 18           	clc
     e76: a5 10        	lda	$10                     ; 0x10 <__rc0>
     e78: 69 1d        	adc	#$1d
     e7a: 85 12        	sta	$12                     ; 0x12 <__rc2>
     e7c: a5 11        	lda	$11                     ; 0x11 <__rc1>
     e7e: 69 20        	adc	#$20
     e80: 85 13        	sta	$13                     ; 0x13 <__rc3>
     e82: b2 12        	lda	($12)                   ; 0x12 <__rc2>
     e84: 85 14        	sta	$14                     ; 0x14 <__rc4>
     e86: a0 01        	ldy	#$1
     e88: b1 12        	lda	($12),y                 ; 0x12 <__rc2>
     e8a: 85 15        	sta	$15                     ; 0x15 <__rc5>
     e8c: 18           	clc
     e8d: a5 14        	lda	$14                     ; 0x14 <__rc4>
     e8f: 69 00        	adc	#$0
     e91: 85 14        	sta	$14                     ; 0x14 <__rc4>
     e93: a5 15        	lda	$15                     ; 0x15 <__rc5>
     e95: 69 08        	adc	#$8
     e97: 85 15        	sta	$15                     ; 0x15 <__rc5>
     e99: a5 14        	lda	$14                     ; 0x14 <__rc4>
     e9b: 92 12        	sta	($12)                   ; 0x12 <__rc2>
     e9d: a5 15        	lda	$15                     ; 0x15 <__rc5>
     e9f: 91 12        	sta	($12),y                 ; 0x12 <__rc2>
     ea1: 18           	clc
     ea2: a5 10        	lda	$10                     ; 0x10 <__rc0>
     ea4: 69 0d        	adc	#$d
     ea6: 85 12        	sta	$12                     ; 0x12 <__rc2>
     ea8: a5 11        	lda	$11                     ; 0x11 <__rc1>
     eaa: 69 00        	adc	#$0
     eac: 85 13        	sta	$13                     ; 0x13 <__rc3>
     eae: a9 00        	lda	#$0
     eb0: 92 12        	sta	($12)                   ; 0x12 <__rc2>
     eb2: 91 12        	sta	($12),y                 ; 0x12 <__rc2>
     eb4: 18           	clc
     eb5: a5 10        	lda	$10                     ; 0x10 <__rc0>
     eb7: 69 0d        	adc	#$d
     eb9: 85 12        	sta	$12                     ; 0x12 <__rc2>
     ebb: a5 11        	lda	$11                     ; 0x11 <__rc1>
     ebd: 69 00        	adc	#$0
     ebf: 85 13        	sta	$13                     ; 0x13 <__rc3>
     ec1: b2 12        	lda	($12)                   ; 0x12 <__rc2>
     ec3: 85 14        	sta	$14                     ; 0x14 <__rc4>
     ec5: a0 01        	ldy	#$1
     ec7: b1 12        	lda	($12),y                 ; 0x12 <__rc2>
     ec9: c9 12        	cmp	#$12
     ecb: a2 01        	ldx	#$1
     ecd: b0 02        	bcs	$ed1 <f256main+0x4ff>
     ecf: a2 00        	ldx	#$0
     ed1: 86 12        	stx	$12                     ; 0x12 <__rc2>
     ed3: c9 12        	cmp	#$12
     ed5: f0 02        	beq	$ed9 <f256main+0x507>
     ed7: 80 08        	bra	$ee1 <f256main+0x50f>
     ed9: a6 14        	ldx	$14                     ; 0x14 <__rc4>
     edb: e0 c0        	cpx	#$c0
     edd: 90 2a        	bcc	$f09 <f256main+0x537>
     edf: 80 06        	bra	$ee7 <f256main+0x515>
     ee1: a5 12        	lda	$12                     ; 0x12 <__rc2>
     ee3: f0 24        	beq	$f09 <f256main+0x537>
     ee5: 80 00        	bra	$ee7 <f256main+0x515>
     ee7: 80 00        	bra	$ee9 <f256main+0x517>
     ee9: 18           	clc
     eea: a5 10        	lda	$10                     ; 0x10 <__rc0>
     eec: 69 0f        	adc	#$f
     eee: 85 12        	sta	$12                     ; 0x12 <__rc2>
     ef0: a5 11        	lda	$11                     ; 0x11 <__rc1>
     ef2: 69 00        	adc	#$0
     ef4: 85 13        	sta	$13                     ; 0x13 <__rc3>
     ef6: a9 08        	lda	#$8
     ef8: 92 12        	sta	($12)                   ; 0x12 <__rc2>
     efa: a0 01        	ldy	#$1
     efc: a9 00        	lda	#$0
     efe: 91 12        	sta	($12),y                 ; 0x12 <__rc2>
     f00: c8           	iny
     f01: 91 12        	sta	($12),y                 ; 0x12 <__rc2>
     f03: c8           	iny
     f04: 91 12        	sta	($12),y                 ; 0x12 <__rc2>
     f06: 4c 5f 0f     	jmp	$f5f <f256main+0x58d>
     f09: 18           	clc
     f0a: a5 10        	lda	$10                     ; 0x10 <__rc0>
     f0c: 69 0d        	adc	#$d
     f0e: 85 12        	sta	$12                     ; 0x12 <__rc2>
     f10: a5 11        	lda	$11                     ; 0x11 <__rc1>
     f12: 69 00        	adc	#$0
     f14: 85 13        	sta	$13                     ; 0x13 <__rc3>
     f16: a0 01        	ldy	#$1
     f18: 18           	clc
     f19: a5 10        	lda	$10                     ; 0x10 <__rc0>
     f1b: 69 2b        	adc	#$2b
     f1d: 48           	pha
     f1e: a5 11        	lda	$11                     ; 0x11 <__rc1>
     f20: 69 20        	adc	#$20
     f22: 85 14        	sta	$14                     ; 0x14 <__rc4>
     f24: 68           	pla
     f25: 18           	clc
     f26: 72 12        	adc	($12)                   ; 0x12 <__rc2>
     f28: aa           	tax
     f29: a5 14        	lda	$14                     ; 0x14 <__rc4>
     f2b: 71 12        	adc	($12),y                 ; 0x12 <__rc2>
     f2d: 86 12        	stx	$12                     ; 0x12 <__rc2>
     f2f: 85 13        	sta	$13                     ; 0x13 <__rc3>
     f31: a9 ff        	lda	#$ff
     f33: 92 12        	sta	($12)                   ; 0x12 <__rc2>
     f35: 18           	clc
     f36: a5 10        	lda	$10                     ; 0x10 <__rc0>
     f38: 69 0d        	adc	#$d
     f3a: 85 12        	sta	$12                     ; 0x12 <__rc2>
     f3c: a5 11        	lda	$11                     ; 0x11 <__rc1>
     f3e: 69 00        	adc	#$0
     f40: 85 13        	sta	$13                     ; 0x13 <__rc3>
     f42: b2 12        	lda	($12)                   ; 0x12 <__rc2>
     f44: aa           	tax
     f45: a0 01        	ldy	#$1
     f47: b1 12        	lda	($12),y                 ; 0x12 <__rc2>
     f49: e8           	inx
     f4a: f0 03        	beq	$f4f <f256main+0x57d>
     f4c: 4c 53 0f     	jmp	$f53 <f256main+0x581>
     f4f: 1a           	inc
     f50: 4c 53 0f     	jmp	$f53 <f256main+0x581>
     f53: 85 14        	sta	$14                     ; 0x14 <__rc4>
     f55: 8a           	txa
     f56: 92 12        	sta	($12)                   ; 0x12 <__rc2>
     f58: a5 14        	lda	$14                     ; 0x14 <__rc4>
     f5a: 91 12        	sta	($12),y                 ; 0x12 <__rc2>
     f5c: 4c b4 0e     	jmp	$eb4 <f256main+0x4e2>
     f5f: 18           	clc
     f60: a5 10        	lda	$10                     ; 0x10 <__rc0>
     f62: 69 29        	adc	#$29
     f64: 85 12        	sta	$12                     ; 0x12 <__rc2>
     f66: a5 11        	lda	$11                     ; 0x11 <__rc1>
     f68: 69 20        	adc	#$20
     f6a: 85 13        	sta	$13                     ; 0x13 <__rc3>
     f6c: b2 12        	lda	($12)                   ; 0x12 <__rc2>
     f6e: f0 03        	beq	$f73 <f256main+0x5a1>
     f70: 4c a1 17     	jmp	$17a1 <f256main+0xdcf>
     f73: 18           	clc
     f74: a5 10        	lda	$10                     ; 0x10 <__rc0>
     f76: 69 27        	adc	#$27
     f78: 85 12        	sta	$12                     ; 0x12 <__rc2>
     f7a: a5 11        	lda	$11                     ; 0x11 <__rc1>
     f7c: 69 20        	adc	#$20
     f7e: 85 13        	sta	$13                     ; 0x13 <__rc3>
     f80: a9 00        	lda	#$0
     f82: 92 12        	sta	($12)                   ; 0x12 <__rc2>
     f84: a0 01        	ldy	#$1
     f86: a9 c0        	lda	#$c0
     f88: 91 12        	sta	($12),y                 ; 0x12 <__rc2>
     f8a: 18           	clc
     f8b: a5 10        	lda	$10                     ; 0x10 <__rc0>
     f8d: 69 23        	adc	#$23
     f8f: 85 12        	sta	$12                     ; 0x12 <__rc2>
     f91: a5 11        	lda	$11                     ; 0x11 <__rc1>
     f93: 69 20        	adc	#$20
     f95: 85 13        	sta	$13                     ; 0x13 <__rc3>
     f97: a9 00        	lda	#$0
     f99: 92 12        	sta	($12)                   ; 0x12 <__rc2>
     f9b: 91 12        	sta	($12),y                 ; 0x12 <__rc2>
     f9d: a9 00        	lda	#$0
     f9f: 18           	clc
     fa0: 48           	pha
     fa1: a5 10        	lda	$10                     ; 0x10 <__rc0>
     fa3: 69 0c        	adc	#$c
     fa5: 85 12        	sta	$12                     ; 0x12 <__rc2>
     fa7: a5 11        	lda	$11                     ; 0x11 <__rc1>
     fa9: 69 00        	adc	#$0
     fab: 85 13        	sta	$13                     ; 0x13 <__rc3>
     fad: 68           	pla
     fae: 92 12        	sta	($12)                   ; 0x12 <__rc2>
     fb0: 18           	clc
     fb1: a5 10        	lda	$10                     ; 0x10 <__rc0>
     fb3: 69 0c        	adc	#$c
     fb5: 85 12        	sta	$12                     ; 0x12 <__rc2>
     fb7: a5 11        	lda	$11                     ; 0x11 <__rc1>
     fb9: 69 00        	adc	#$0
     fbb: 85 13        	sta	$13                     ; 0x13 <__rc3>
     fbd: b2 12        	lda	($12)                   ; 0x12 <__rc2>
     fbf: 85 12        	sta	$12                     ; 0x12 <__rc2>
     fc1: a9 00        	lda	#$0
     fc3: a6 12        	ldx	$12                     ; 0x12 <__rc2>
     fc5: e0 03        	cpx	#$3
     fc7: e9 00        	sbc	#$0
     fc9: 70 02        	bvs	$fcd <f256main+0x5fb>
     fcb: 80 04        	bra	$fd1 <f256main+0x5ff>
     fcd: 49 80        	eor	#$80
     fcf: 80 02        	bra	$fd3 <f256main+0x601>
     fd1: 80 00        	bra	$fd3 <f256main+0x601>
     fd3: aa           	tax
     fd4: 30 22        	bmi	$ff8 <f256main+0x626>
     fd6: 80 00        	bra	$fd8 <f256main+0x606>
     fd8: 18           	clc
     fd9: a5 10        	lda	$10                     ; 0x10 <__rc0>
     fdb: 69 0f        	adc	#$f
     fdd: 85 12        	sta	$12                     ; 0x12 <__rc2>
     fdf: a5 11        	lda	$11                     ; 0x11 <__rc1>
     fe1: 69 00        	adc	#$0
     fe3: 85 13        	sta	$13                     ; 0x13 <__rc3>
     fe5: a9 0d        	lda	#$d
     fe7: 92 12        	sta	($12)                   ; 0x12 <__rc2>
     fe9: a0 01        	ldy	#$1
     feb: a9 00        	lda	#$0
     fed: 91 12        	sta	($12),y                 ; 0x12 <__rc2>
     fef: c8           	iny
     ff0: 91 12        	sta	($12),y                 ; 0x12 <__rc2>
     ff2: c8           	iny
     ff3: 91 12        	sta	($12),y                 ; 0x12 <__rc2>
     ff5: 4c 64 14     	jmp	$1464 <f256main+0xa92>
     ff8: 18           	clc
     ff9: a5 10        	lda	$10                     ; 0x10 <__rc0>
     ffb: 69 25        	adc	#$25
     ffd: 85 12        	sta	$12                     ; 0x12 <__rc2>
     fff: a5 11        	lda	$11                     ; 0x11 <__rc1>
    1001: 69 20        	adc	#$20
    1003: 85 13        	sta	$13                     ; 0x13 <__rc3>
    1005: a9 00        	lda	#$0
    1007: 92 12        	sta	($12)                   ; 0x12 <__rc2>
    1009: a0 01        	ldy	#$1
    100b: 91 12        	sta	($12),y                 ; 0x12 <__rc2>
    100d: 64 01        	stz	$1                      ; 0x1 <__zp_data_size+0x1>
    100f: 18           	clc
    1010: a5 10        	lda	$10                     ; 0x10 <__rc0>
    1012: 69 b5        	adc	#$b5
    1014: 85 12        	sta	$12                     ; 0x12 <__rc2>
    1016: a5 11        	lda	$11                     ; 0x11 <__rc1>
    1018: 69 33        	adc	#$33
    101a: 85 13        	sta	$13                     ; 0x13 <__rc3>
    101c: b2 12        	lda	($12)                   ; 0x12 <__rc2>
    101e: 85 14        	sta	$14                     ; 0x14 <__rc4>
    1020: b1 12        	lda	($12),y                 ; 0x12 <__rc2>
    1022: 85 15        	sta	$15                     ; 0x15 <__rc5>
    1024: a9 c8        	lda	#$c8
    1026: a2 00        	ldx	#$0
    1028: 18           	clc
    1029: 48           	pha
    102a: a5 10        	lda	$10                     ; 0x10 <__rc0>
    102c: 69 eb        	adc	#$eb
    102e: 85 12        	sta	$12                     ; 0x12 <__rc2>
    1030: a5 11        	lda	$11                     ; 0x11 <__rc1>
    1032: 69 32        	adc	#$32
    1034: 85 13        	sta	$13                     ; 0x13 <__rc3>
    1036: 68           	pla
    1037: 20 6b 1a     	jsr	$1a6b <fileRead>
    103a: 18           	clc
    103b: 48           	pha
    103c: a5 10        	lda	$10                     ; 0x10 <__rc0>
    103e: 69 2a        	adc	#$2a
    1040: 85 12        	sta	$12                     ; 0x12 <__rc2>
    1042: a5 11        	lda	$11                     ; 0x11 <__rc1>
    1044: 69 20        	adc	#$20
    1046: 85 13        	sta	$13                     ; 0x13 <__rc3>
    1048: 68           	pla
    1049: 92 12        	sta	($12)                   ; 0x12 <__rc2>
    104b: a2 02        	ldx	#$2
    104d: 86 01        	stx	$1                      ; 0x1 <__zp_data_size+0x1>
    104f: b2 12        	lda	($12)                   ; 0x12 <__rc2>
    1051: d0 16        	bne	$1069 <f256main+0x697>
    1053: 80 00        	bra	$1055 <f256main+0x683>
    1055: 18           	clc
    1056: a5 10        	lda	$10                     ; 0x10 <__rc0>
    1058: 69 29        	adc	#$29
    105a: 85 12        	sta	$12                     ; 0x12 <__rc2>
    105c: a5 11        	lda	$11                     ; 0x11 <__rc1>
    105e: 69 20        	adc	#$20
    1060: 85 13        	sta	$13                     ; 0x13 <__rc3>
    1062: a9 01        	lda	#$1
    1064: 92 12        	sta	($12)                   ; 0x12 <__rc2>
    1066: 4c 4f 14     	jmp	$144f <f256main+0xa7d>
    1069: 18           	clc
    106a: a5 10        	lda	$10                     ; 0x10 <__rc0>
    106c: 69 0b        	adc	#$b
    106e: 85 12        	sta	$12                     ; 0x12 <__rc2>
    1070: a5 11        	lda	$11                     ; 0x11 <__rc1>
    1072: 69 00        	adc	#$0
    1074: 85 13        	sta	$13                     ; 0x13 <__rc3>
    1076: a9 00        	lda	#$0
    1078: 92 12        	sta	($12)                   ; 0x12 <__rc2>
    107a: 18           	clc
    107b: a5 10        	lda	$10                     ; 0x10 <__rc0>
    107d: 69 0b        	adc	#$b
    107f: 85 12        	sta	$12                     ; 0x12 <__rc2>
    1081: a5 11        	lda	$11                     ; 0x11 <__rc1>
    1083: 69 00        	adc	#$0
    1085: 85 13        	sta	$13                     ; 0x13 <__rc3>
    1087: b2 12        	lda	($12)                   ; 0x12 <__rc2>
    1089: 85 12        	sta	$12                     ; 0x12 <__rc2>
    108b: a9 00        	lda	#$0
    108d: a6 12        	ldx	$12                     ; 0x12 <__rc2>
    108f: e0 c8        	cpx	#$c8
    1091: e9 00        	sbc	#$0
    1093: 70 02        	bvs	$1097 <f256main+0x6c5>
    1095: 80 04        	bra	$109b <f256main+0x6c9>
    1097: 49 80        	eor	#$80
    1099: 80 02        	bra	$109d <f256main+0x6cb>
    109b: 80 00        	bra	$109d <f256main+0x6cb>
    109d: aa           	tax
    109e: 30 22        	bmi	$10c2 <f256main+0x6f0>
    10a0: 80 00        	bra	$10a2 <f256main+0x6d0>
    10a2: 18           	clc
    10a3: a5 10        	lda	$10                     ; 0x10 <__rc0>
    10a5: 69 0f        	adc	#$f
    10a7: 85 12        	sta	$12                     ; 0x12 <__rc2>
    10a9: a5 11        	lda	$11                     ; 0x11 <__rc1>
    10ab: 69 00        	adc	#$0
    10ad: 85 13        	sta	$13                     ; 0x13 <__rc3>
    10af: a9 10        	lda	#$10
    10b1: 92 12        	sta	($12)                   ; 0x12 <__rc2>
    10b3: a0 01        	ldy	#$1
    10b5: a9 00        	lda	#$0
    10b7: 91 12        	sta	($12),y                 ; 0x12 <__rc2>
    10b9: c8           	iny
    10ba: 91 12        	sta	($12),y                 ; 0x12 <__rc2>
    10bc: c8           	iny
    10bd: 91 12        	sta	($12),y                 ; 0x12 <__rc2>
    10bf: 4c 4f 14     	jmp	$144f <f256main+0xa7d>
    10c2: 18           	clc
    10c3: a5 10        	lda	$10                     ; 0x10 <__rc0>
    10c5: 69 23        	adc	#$23
    10c7: 85 12        	sta	$12                     ; 0x12 <__rc2>
    10c9: a5 11        	lda	$11                     ; 0x11 <__rc1>
    10cb: 69 20        	adc	#$20
    10cd: 85 13        	sta	$13                     ; 0x13 <__rc3>
    10cf: a0 01        	ldy	#$1
    10d1: 18           	clc
    10d2: a5 10        	lda	$10                     ; 0x10 <__rc0>
    10d4: 69 2b        	adc	#$2b
    10d6: 48           	pha
    10d7: a5 11        	lda	$11                     ; 0x11 <__rc1>
    10d9: 69 20        	adc	#$20
    10db: 85 14        	sta	$14                     ; 0x14 <__rc4>
    10dd: 68           	pla
    10de: 18           	clc
    10df: 72 12        	adc	($12)                   ; 0x12 <__rc2>
    10e1: aa           	tax
    10e2: a5 14        	lda	$14                     ; 0x14 <__rc4>
    10e4: 71 12        	adc	($12),y                 ; 0x12 <__rc2>
    10e6: 86 12        	stx	$12                     ; 0x12 <__rc2>
    10e8: 85 13        	sta	$13                     ; 0x13 <__rc3>
    10ea: b2 12        	lda	($12)                   ; 0x12 <__rc2>
    10ec: 18           	clc
    10ed: 48           	pha
    10ee: a5 10        	lda	$10                     ; 0x10 <__rc0>
    10f0: 69 0a        	adc	#$a
    10f2: 85 12        	sta	$12                     ; 0x12 <__rc2>
    10f4: a5 11        	lda	$11                     ; 0x11 <__rc1>
    10f6: 69 00        	adc	#$0
    10f8: 85 13        	sta	$13                     ; 0x13 <__rc3>
    10fa: 68           	pla
    10fb: 92 12        	sta	($12)                   ; 0x12 <__rc2>
    10fd: 18           	clc
    10fe: a5 10        	lda	$10                     ; 0x10 <__rc0>
    1100: 69 25        	adc	#$25
    1102: 85 14        	sta	$14                     ; 0x14 <__rc4>
    1104: a5 11        	lda	$11                     ; 0x11 <__rc1>
    1106: 69 20        	adc	#$20
    1108: 85 15        	sta	$15                     ; 0x15 <__rc5>
    110a: 18           	clc
    110b: a5 10        	lda	$10                     ; 0x10 <__rc0>
    110d: 69 eb        	adc	#$eb
    110f: 48           	pha
    1110: a5 11        	lda	$11                     ; 0x11 <__rc1>
    1112: 69 32        	adc	#$32
    1114: 85 16        	sta	$16                     ; 0x16 <__rc6>
    1116: 68           	pla
    1117: 18           	clc
    1118: 72 14        	adc	($14)                   ; 0x14 <__rc4>
    111a: aa           	tax
    111b: a5 16        	lda	$16                     ; 0x16 <__rc6>
    111d: 71 14        	adc	($14),y                 ; 0x14 <__rc4>
    111f: 86 14        	stx	$14                     ; 0x14 <__rc4>
    1121: 85 15        	sta	$15                     ; 0x15 <__rc5>
    1123: b2 14        	lda	($14)                   ; 0x14 <__rc4>
    1125: 18           	clc
    1126: 48           	pha
    1127: a5 10        	lda	$10                     ; 0x10 <__rc0>
    1129: 69 09        	adc	#$9
    112b: 85 14        	sta	$14                     ; 0x14 <__rc4>
    112d: a5 11        	lda	$11                     ; 0x11 <__rc1>
    112f: 69 00        	adc	#$0
    1131: 85 15        	sta	$15                     ; 0x15 <__rc5>
    1133: 68           	pla
    1134: 92 14        	sta	($14)                   ; 0x14 <__rc4>
    1136: b2 12        	lda	($12)                   ; 0x12 <__rc2>
    1138: d2 14        	cmp	($14)                   ; 0x14 <__rc4>
    113a: f0 02        	beq	$113e <f256main+0x76c>
    113c: 80 02        	bra	$1140 <f256main+0x76e>
    113e: 80 03        	bra	$1143 <f256main+0x771>
    1140: 4c da 11     	jmp	$11da <f256main+0x808>
    1143: 80 00        	bra	$1145 <f256main+0x773>
    1145: 18           	clc
    1146: a5 10        	lda	$10                     ; 0x10 <__rc0>
    1148: 69 23        	adc	#$23
    114a: 85 12        	sta	$12                     ; 0x12 <__rc2>
    114c: a5 11        	lda	$11                     ; 0x11 <__rc1>
    114e: 69 20        	adc	#$20
    1150: 85 13        	sta	$13                     ; 0x13 <__rc3>
    1152: b2 12        	lda	($12)                   ; 0x12 <__rc2>
    1154: aa           	tax
    1155: a0 01        	ldy	#$1
    1157: b1 12        	lda	($12),y                 ; 0x12 <__rc2>
    1159: e8           	inx
    115a: f0 03        	beq	$115f <f256main+0x78d>
    115c: 4c 63 11     	jmp	$1163 <f256main+0x791>
    115f: 1a           	inc
    1160: 4c 63 11     	jmp	$1163 <f256main+0x791>
    1163: 85 14        	sta	$14                     ; 0x14 <__rc4>
    1165: 8a           	txa
    1166: 92 12        	sta	($12)                   ; 0x12 <__rc2>
    1168: a5 14        	lda	$14                     ; 0x14 <__rc4>
    116a: 91 12        	sta	($12),y                 ; 0x12 <__rc2>
    116c: 18           	clc
    116d: a5 10        	lda	$10                     ; 0x10 <__rc0>
    116f: 69 27        	adc	#$27
    1171: 85 12        	sta	$12                     ; 0x12 <__rc2>
    1173: a5 11        	lda	$11                     ; 0x11 <__rc1>
    1175: 69 20        	adc	#$20
    1177: 85 13        	sta	$13                     ; 0x13 <__rc3>
    1179: b2 12        	lda	($12)                   ; 0x12 <__rc2>
    117b: 85 15        	sta	$15                     ; 0x15 <__rc5>
    117d: b1 12        	lda	($12),y                 ; 0x12 <__rc2>
    117f: 85 14        	sta	$14                     ; 0x14 <__rc4>
    1181: 18           	clc
    1182: a5 15        	lda	$15                     ; 0x15 <__rc5>
    1184: 69 08        	adc	#$8
    1186: 85 15        	sta	$15                     ; 0x15 <__rc5>
    1188: a5 14        	lda	$14                     ; 0x14 <__rc4>
    118a: 69 00        	adc	#$0
    118c: aa           	tax
    118d: a5 15        	lda	$15                     ; 0x15 <__rc5>
    118f: 92 12        	sta	($12)                   ; 0x12 <__rc2>
    1191: 8a           	txa
    1192: 91 12        	sta	($12),y                 ; 0x12 <__rc2>
    1194: 18           	clc
    1195: a5 10        	lda	$10                     ; 0x10 <__rc0>
    1197: 69 25        	adc	#$25
    1199: 85 12        	sta	$12                     ; 0x12 <__rc2>
    119b: a5 11        	lda	$11                     ; 0x11 <__rc1>
    119d: 69 20        	adc	#$20
    119f: 85 13        	sta	$13                     ; 0x13 <__rc3>
    11a1: b2 12        	lda	($12)                   ; 0x12 <__rc2>
    11a3: 85 14        	sta	$14                     ; 0x14 <__rc4>
    11a5: b1 12        	lda	($12),y                 ; 0x12 <__rc2>
    11a7: aa           	tax
    11a8: a5 14        	lda	$14                     ; 0x14 <__rc4>
    11aa: 1a           	inc
    11ab: f0 03        	beq	$11b0 <f256main+0x7de>
    11ad: 4c b4 11     	jmp	$11b4 <f256main+0x7e2>
    11b0: e8           	inx
    11b1: 4c b4 11     	jmp	$11b4 <f256main+0x7e2>
    11b4: 92 12        	sta	($12)                   ; 0x12 <__rc2>
    11b6: 8a           	txa
    11b7: 91 12        	sta	($12),y                 ; 0x12 <__rc2>
    11b9: 18           	clc
    11ba: a5 10        	lda	$10                     ; 0x10 <__rc0>
    11bc: 69 0f        	adc	#$f
    11be: 85 12        	sta	$12                     ; 0x12 <__rc2>
    11c0: a5 11        	lda	$11                     ; 0x11 <__rc1>
    11c2: 69 00        	adc	#$0
    11c4: 85 13        	sta	$13                     ; 0x13 <__rc3>
    11c6: a9 12        	lda	#$12
    11c8: 92 12        	sta	($12)                   ; 0x12 <__rc2>
    11ca: a9 00        	lda	#$0
    11cc: 91 12        	sta	($12),y                 ; 0x12 <__rc2>
    11ce: a0 02        	ldy	#$2
    11d0: 91 12        	sta	($12),y                 ; 0x12 <__rc2>
    11d2: a9 00        	lda	#$0
    11d4: c8           	iny
    11d5: 91 12        	sta	($12),y                 ; 0x12 <__rc2>
    11d7: 4c 03 14     	jmp	$1403 <f256main+0xa31>
    11da: 18           	clc
    11db: a5 10        	lda	$10                     ; 0x10 <__rc0>
    11dd: 69 09        	adc	#$9
    11df: 85 14        	sta	$14                     ; 0x14 <__rc4>
    11e1: a5 11        	lda	$11                     ; 0x11 <__rc1>
    11e3: 69 00        	adc	#$0
    11e5: 85 15        	sta	$15                     ; 0x15 <__rc5>
    11e7: b2 14        	lda	($14)                   ; 0x14 <__rc4>
    11e9: 85 22        	sta	$22                     ; 0x22 <__rc18>
    11eb: 18           	clc
    11ec: a5 10        	lda	$10                     ; 0x10 <__rc0>
    11ee: 69 23        	adc	#$23
    11f0: 85 12        	sta	$12                     ; 0x12 <__rc2>
    11f2: a5 11        	lda	$11                     ; 0x11 <__rc1>
    11f4: 69 20        	adc	#$20
    11f6: 85 13        	sta	$13                     ; 0x13 <__rc3>
    11f8: a0 01        	ldy	#$1
    11fa: 18           	clc
    11fb: a5 10        	lda	$10                     ; 0x10 <__rc0>
    11fd: 69 2b        	adc	#$2b
    11ff: 48           	pha
    1200: a5 11        	lda	$11                     ; 0x11 <__rc1>
    1202: 69 20        	adc	#$20
    1204: 85 16        	sta	$16                     ; 0x16 <__rc6>
    1206: 68           	pla
    1207: 18           	clc
    1208: 72 12        	adc	($12)                   ; 0x12 <__rc2>
    120a: 85 24        	sta	$24                     ; 0x24 <__rc20>
    120c: a5 16        	lda	$16                     ; 0x16 <__rc6>
    120e: 71 12        	adc	($12),y                 ; 0x12 <__rc2>
    1210: 85 23        	sta	$23                     ; 0x23 <__rc19>
    1212: b2 14        	lda	($14)                   ; 0x14 <__rc4>
    1214: 4a           	lsr
    1215: 4a           	lsr
    1216: 4a           	lsr
    1217: 4a           	lsr
    1218: 18           	clc
    1219: 48           	pha
    121a: a5 10        	lda	$10                     ; 0x10 <__rc0>
    121c: 69 08        	adc	#$8
    121e: 85 1a        	sta	$1a                     ; 0x1a <__rc10>
    1220: a5 11        	lda	$11                     ; 0x11 <__rc1>
    1222: 69 00        	adc	#$0
    1224: 85 1b        	sta	$1b                     ; 0x1b <__rc11>
    1226: 68           	pla
    1227: 92 1a        	sta	($1a)                   ; 0x1a <__rc10>
    1229: a9 0f        	lda	#$f
    122b: 32 14        	and	($14)                   ; 0x14 <__rc4>
    122d: 18           	clc
    122e: 48           	pha
    122f: a5 10        	lda	$10                     ; 0x10 <__rc0>
    1231: 69 07        	adc	#$7
    1233: 85 18        	sta	$18                     ; 0x18 <__rc8>
    1235: a5 11        	lda	$11                     ; 0x11 <__rc1>
    1237: 69 00        	adc	#$0
    1239: 85 19        	sta	$19                     ; 0x19 <__rc9>
    123b: 68           	pla
    123c: 92 18        	sta	($18)                   ; 0x18 <__rc8>
    123e: 18           	clc
    123f: a5 10        	lda	$10                     ; 0x10 <__rc0>
    1241: 69 27        	adc	#$27
    1243: 85 14        	sta	$14                     ; 0x14 <__rc4>
    1245: a5 11        	lda	$11                     ; 0x11 <__rc1>
    1247: 69 20        	adc	#$20
    1249: 85 15        	sta	$15                     ; 0x15 <__rc5>
    124b: b2 14        	lda	($14)                   ; 0x14 <__rc4>
    124d: 85 1c        	sta	$1c                     ; 0x1c <__rc12>
    124f: 18           	clc
    1250: a5 10        	lda	$10                     ; 0x10 <__rc0>
    1252: 69 05        	adc	#$5
    1254: 85 16        	sta	$16                     ; 0x16 <__rc6>
    1256: a5 11        	lda	$11                     ; 0x11 <__rc1>
    1258: 69 00        	adc	#$0
    125a: 85 17        	sta	$17                     ; 0x17 <__rc7>
    125c: b1 14        	lda	($14),y                 ; 0x14 <__rc4>
    125e: 85 1d        	sta	$1d                     ; 0x1d <__rc13>
    1260: a5 1c        	lda	$1c                     ; 0x1c <__rc12>
    1262: 92 16        	sta	($16)                   ; 0x16 <__rc6>
    1264: a5 1d        	lda	$1d                     ; 0x1d <__rc13>
    1266: 91 16        	sta	($16),y                 ; 0x16 <__rc6>
    1268: b2 1a        	lda	($1a)                   ; 0x1a <__rc10>
    126a: 0a           	asl
    126b: 64 1a        	stz	$1a                     ; 0x1a <__rc10>
    126d: 26 1a        	rol	$1a                     ; 0x1a <__rc10>
    126f: 85 1b        	sta	$1b                     ; 0x1b <__rc11>
    1271: 06 1b        	asl	$1b                     ; 0x1b <__rc11>
    1273: 26 1a        	rol	$1a                     ; 0x1a <__rc10>
    1275: a9 20        	lda	#$20
    1277: 18           	clc
    1278: 65 1b        	adc	$1b                     ; 0x1b <__rc11>
    127a: aa           	tax
    127b: a9 35        	lda	#$35
    127d: 65 1a        	adc	$1a                     ; 0x1a <__rc10>
    127f: 85 1d        	sta	$1d                     ; 0x1d <__rc13>
    1281: 18           	clc
    1282: a5 10        	lda	$10                     ; 0x10 <__rc0>
    1284: 69 03        	adc	#$3
    1286: 85 1a        	sta	$1a                     ; 0x1a <__rc10>
    1288: a5 11        	lda	$11                     ; 0x11 <__rc1>
    128a: 69 00        	adc	#$0
    128c: 85 1b        	sta	$1b                     ; 0x1b <__rc11>
    128e: 8a           	txa
    128f: 92 1a        	sta	($1a)                   ; 0x1a <__rc10>
    1291: 64 1c        	stz	$1c                     ; 0x1c <__rc12>
    1293: a5 1d        	lda	$1d                     ; 0x1d <__rc13>
    1295: 91 1a        	sta	($1a),y                 ; 0x1a <__rc10>
    1297: b2 18        	lda	($18)                   ; 0x18 <__rc8>
    1299: 0a           	asl
    129a: 26 1c        	rol	$1c                     ; 0x1c <__rc12>
    129c: 85 18        	sta	$18                     ; 0x18 <__rc8>
    129e: 06 18        	asl	$18                     ; 0x18 <__rc8>
    12a0: 26 1c        	rol	$1c                     ; 0x1c <__rc12>
    12a2: a9 20        	lda	#$20
    12a4: 18           	clc
    12a5: 65 18        	adc	$18                     ; 0x18 <__rc8>
    12a7: aa           	tax
    12a8: a9 35        	lda	#$35
    12aa: 65 1c        	adc	$1c                     ; 0x1c <__rc12>
    12ac: 85 1c        	sta	$1c                     ; 0x1c <__rc12>
    12ae: 18           	clc
    12af: a5 10        	lda	$10                     ; 0x10 <__rc0>
    12b1: 69 01        	adc	#$1
    12b3: 85 18        	sta	$18                     ; 0x18 <__rc8>
    12b5: a5 11        	lda	$11                     ; 0x11 <__rc1>
    12b7: 69 00        	adc	#$0
    12b9: 85 19        	sta	$19                     ; 0x19 <__rc9>
    12bb: 8a           	txa
    12bc: 92 18        	sta	($18)                   ; 0x18 <__rc8>
    12be: a5 1c        	lda	$1c                     ; 0x1c <__rc12>
    12c0: 91 18        	sta	($18),y                 ; 0x18 <__rc8>
    12c2: b2 1a        	lda	($1a)                   ; 0x1a <__rc10>
    12c4: 85 1c        	sta	$1c                     ; 0x1c <__rc12>
    12c6: b1 1a        	lda	($1a),y                 ; 0x1a <__rc10>
    12c8: 85 1d        	sta	$1d                     ; 0x1d <__rc13>
    12ca: b2 16        	lda	($16)                   ; 0x16 <__rc6>
    12cc: 85 1e        	sta	$1e                     ; 0x1e <__rc14>
    12ce: b1 16        	lda	($16),y                 ; 0x16 <__rc6>
    12d0: 85 1f        	sta	$1f                     ; 0x1f <__rc15>
    12d2: b2 1c        	lda	($1c)                   ; 0x1c <__rc12>
    12d4: 92 1e        	sta	($1e)                   ; 0x1e <__rc14>
    12d6: b2 1a        	lda	($1a)                   ; 0x1a <__rc10>
    12d8: 85 1c        	sta	$1c                     ; 0x1c <__rc12>
    12da: b1 1a        	lda	($1a),y                 ; 0x1a <__rc10>
    12dc: 85 1d        	sta	$1d                     ; 0x1d <__rc13>
    12de: b2 16        	lda	($16)                   ; 0x16 <__rc6>
    12e0: 85 1e        	sta	$1e                     ; 0x1e <__rc14>
    12e2: b1 16        	lda	($16),y                 ; 0x16 <__rc6>
    12e4: 85 1f        	sta	$1f                     ; 0x1f <__rc15>
    12e6: b1 1c        	lda	($1c),y                 ; 0x1c <__rc12>
    12e8: 91 1e        	sta	($1e),y                 ; 0x1e <__rc14>
    12ea: b2 1a        	lda	($1a)                   ; 0x1a <__rc10>
    12ec: 85 1c        	sta	$1c                     ; 0x1c <__rc12>
    12ee: b1 1a        	lda	($1a),y                 ; 0x1a <__rc10>
    12f0: 85 1d        	sta	$1d                     ; 0x1d <__rc13>
    12f2: b2 16        	lda	($16)                   ; 0x16 <__rc6>
    12f4: 85 1e        	sta	$1e                     ; 0x1e <__rc14>
    12f6: b1 16        	lda	($16),y                 ; 0x16 <__rc6>
    12f8: a2 01        	ldx	#$1
    12fa: 85 1f        	sta	$1f                     ; 0x1f <__rc15>
    12fc: c8           	iny
    12fd: b1 1c        	lda	($1c),y                 ; 0x1c <__rc12>
    12ff: 91 1e        	sta	($1e),y                 ; 0x1e <__rc14>
    1301: a0 02        	ldy	#$2
    1303: 84 1e        	sty	$1e                     ; 0x1e <__rc14>
    1305: b2 1a        	lda	($1a)                   ; 0x1a <__rc10>
    1307: 85 1c        	sta	$1c                     ; 0x1c <__rc12>
    1309: 88           	dey
    130a: b1 1a        	lda	($1a),y                 ; 0x1a <__rc10>
    130c: 85 1d        	sta	$1d                     ; 0x1d <__rc13>
    130e: b2 16        	lda	($16)                   ; 0x16 <__rc6>
    1310: 85 1a        	sta	$1a                     ; 0x1a <__rc10>
    1312: b1 16        	lda	($16),y                 ; 0x16 <__rc6>
    1314: 86 25        	stx	$25                     ; 0x25 <__rc21>
    1316: 85 1b        	sta	$1b                     ; 0x1b <__rc11>
    1318: a0 03        	ldy	#$3
    131a: b1 1c        	lda	($1c),y                 ; 0x1c <__rc12>
    131c: 91 1a        	sta	($1a),y                 ; 0x1a <__rc10>
    131e: a0 03        	ldy	#$3
    1320: 84 1f        	sty	$1f                     ; 0x1f <__rc15>
    1322: b2 18        	lda	($18)                   ; 0x18 <__rc8>
    1324: 85 1a        	sta	$1a                     ; 0x1a <__rc10>
    1326: a4 25        	ldy	$25                     ; 0x25 <__rc21>
    1328: b1 18        	lda	($18),y                 ; 0x18 <__rc8>
    132a: 85 1b        	sta	$1b                     ; 0x1b <__rc11>
    132c: b2 16        	lda	($16)                   ; 0x16 <__rc6>
    132e: 85 1c        	sta	$1c                     ; 0x1c <__rc12>
    1330: b1 16        	lda	($16),y                 ; 0x16 <__rc6>
    1332: 85 1d        	sta	$1d                     ; 0x1d <__rc13>
    1334: b2 1a        	lda	($1a)                   ; 0x1a <__rc10>
    1336: a0 04        	ldy	#$4
    1338: 91 1c        	sta	($1c),y                 ; 0x1c <__rc12>
    133a: b2 18        	lda	($18)                   ; 0x18 <__rc8>
    133c: 85 1a        	sta	$1a                     ; 0x1a <__rc10>
    133e: a0 01        	ldy	#$1
    1340: b1 18        	lda	($18),y                 ; 0x18 <__rc8>
    1342: 85 1b        	sta	$1b                     ; 0x1b <__rc11>
    1344: b2 16        	lda	($16)                   ; 0x16 <__rc6>
    1346: 85 1c        	sta	$1c                     ; 0x1c <__rc12>
    1348: b1 16        	lda	($16),y                 ; 0x16 <__rc6>
    134a: 85 1d        	sta	$1d                     ; 0x1d <__rc13>
    134c: b1 1a        	lda	($1a),y                 ; 0x1a <__rc10>
    134e: a2 01        	ldx	#$1
    1350: 86 1b        	stx	$1b                     ; 0x1b <__rc11>
    1352: a0 05        	ldy	#$5
    1354: 91 1c        	sta	($1c),y                 ; 0x1c <__rc12>
    1356: b2 18        	lda	($18)                   ; 0x18 <__rc8>
    1358: 85 1a        	sta	$1a                     ; 0x1a <__rc10>
    135a: a4 1b        	ldy	$1b                     ; 0x1b <__rc11>
    135c: b1 18        	lda	($18),y                 ; 0x18 <__rc8>
    135e: 85 1b        	sta	$1b                     ; 0x1b <__rc11>
    1360: b2 16        	lda	($16)                   ; 0x16 <__rc6>
    1362: 85 1c        	sta	$1c                     ; 0x1c <__rc12>
    1364: b1 16        	lda	($16),y                 ; 0x16 <__rc6>
    1366: 84 25        	sty	$25                     ; 0x25 <__rc21>
    1368: 85 1d        	sta	$1d                     ; 0x1d <__rc13>
    136a: a4 1e        	ldy	$1e                     ; 0x1e <__rc14>
    136c: b1 1a        	lda	($1a),y                 ; 0x1a <__rc10>
    136e: a0 06        	ldy	#$6
    1370: 91 1c        	sta	($1c),y                 ; 0x1c <__rc12>
    1372: b2 18        	lda	($18)                   ; 0x18 <__rc8>
    1374: 85 1a        	sta	$1a                     ; 0x1a <__rc10>
    1376: a4 25        	ldy	$25                     ; 0x25 <__rc21>
    1378: b1 18        	lda	($18),y                 ; 0x18 <__rc8>
    137a: 85 1b        	sta	$1b                     ; 0x1b <__rc11>
    137c: b2 16        	lda	($16)                   ; 0x16 <__rc6>
    137e: 85 18        	sta	$18                     ; 0x18 <__rc8>
    1380: b1 16        	lda	($16),y                 ; 0x16 <__rc6>
    1382: 85 19        	sta	$19                     ; 0x19 <__rc9>
    1384: a4 1f        	ldy	$1f                     ; 0x1f <__rc15>
    1386: b1 1a        	lda	($1a),y                 ; 0x1a <__rc10>
    1388: a0 07        	ldy	#$7
    138a: 91 18        	sta	($18),y                 ; 0x18 <__rc8>
    138c: a6 24        	ldx	$24                     ; 0x24 <__rc20>
    138e: 86 16        	stx	$16                     ; 0x16 <__rc6>
    1390: a6 23        	ldx	$23                     ; 0x23 <__rc19>
    1392: 86 17        	stx	$17                     ; 0x17 <__rc7>
    1394: a5 22        	lda	$22                     ; 0x22 <__rc18>
    1396: 92 16        	sta	($16)                   ; 0x16 <__rc6>
    1398: 18           	clc
    1399: a5 10        	lda	$10                     ; 0x10 <__rc0>
    139b: 69 25        	adc	#$25
    139d: 85 16        	sta	$16                     ; 0x16 <__rc6>
    139f: a5 11        	lda	$11                     ; 0x11 <__rc1>
    13a1: 69 20        	adc	#$20
    13a3: 85 17        	sta	$17                     ; 0x17 <__rc7>
    13a5: b2 16        	lda	($16)                   ; 0x16 <__rc6>
    13a7: 85 18        	sta	$18                     ; 0x18 <__rc8>
    13a9: a0 01        	ldy	#$1
    13ab: b1 16        	lda	($16),y                 ; 0x16 <__rc6>
    13ad: aa           	tax
    13ae: a5 18        	lda	$18                     ; 0x18 <__rc8>
    13b0: 1a           	inc
    13b1: f0 03        	beq	$13b6 <f256main+0x9e4>
    13b3: 4c ba 13     	jmp	$13ba <f256main+0x9e8>
    13b6: e8           	inx
    13b7: 4c ba 13     	jmp	$13ba <f256main+0x9e8>
    13ba: 92 16        	sta	($16)                   ; 0x16 <__rc6>
    13bc: 8a           	txa
    13bd: 91 16        	sta	($16),y                 ; 0x16 <__rc6>
    13bf: b2 12        	lda	($12)                   ; 0x12 <__rc2>
    13c1: aa           	tax
    13c2: b1 12        	lda	($12),y                 ; 0x12 <__rc2>
    13c4: e8           	inx
    13c5: f0 03        	beq	$13ca <f256main+0x9f8>
    13c7: 4c ce 13     	jmp	$13ce <f256main+0x9fc>
    13ca: 1a           	inc
    13cb: 4c ce 13     	jmp	$13ce <f256main+0x9fc>
    13ce: 91 12        	sta	($12),y                 ; 0x12 <__rc2>
    13d0: b2 14        	lda	($14)                   ; 0x14 <__rc4>
    13d2: 18           	clc
    13d3: 69 08        	adc	#$8
    13d5: 85 18        	sta	$18                     ; 0x18 <__rc8>
    13d7: b1 14        	lda	($14),y                 ; 0x14 <__rc4>
    13d9: 69 00        	adc	#$0
    13db: 91 14        	sta	($14),y                 ; 0x14 <__rc4>
    13dd: a0 01        	ldy	#$1
    13df: 18           	clc
    13e0: a5 10        	lda	$10                     ; 0x10 <__rc0>
    13e2: 69 0f        	adc	#$f
    13e4: 85 16        	sta	$16                     ; 0x16 <__rc6>
    13e6: a5 11        	lda	$11                     ; 0x11 <__rc1>
    13e8: 69 00        	adc	#$0
    13ea: 85 17        	sta	$17                     ; 0x17 <__rc7>
    13ec: a9 00        	lda	#$0
    13ee: 91 16        	sta	($16),y                 ; 0x16 <__rc6>
    13f0: a4 1e        	ldy	$1e                     ; 0x1e <__rc14>
    13f2: 91 16        	sta	($16),y                 ; 0x16 <__rc6>
    13f4: a4 1f        	ldy	$1f                     ; 0x1f <__rc15>
    13f6: 91 16        	sta	($16),y                 ; 0x16 <__rc6>
    13f8: 8a           	txa
    13f9: 92 12        	sta	($12)                   ; 0x12 <__rc2>
    13fb: a5 18        	lda	$18                     ; 0x18 <__rc8>
    13fd: 92 14        	sta	($14)                   ; 0x14 <__rc4>
    13ff: a9 00        	lda	#$0
    1401: 92 16        	sta	($16)                   ; 0x16 <__rc6>
    1403: 18           	clc
    1404: a5 10        	lda	$10                     ; 0x10 <__rc0>
    1406: 69 0f        	adc	#$f
    1408: 85 12        	sta	$12                     ; 0x12 <__rc2>
    140a: a5 11        	lda	$11                     ; 0x11 <__rc1>
    140c: 69 00        	adc	#$0
    140e: 85 13        	sta	$13                     ; 0x13 <__rc3>
    1410: b2 12        	lda	($12)                   ; 0x12 <__rc2>
    1412: 85 14        	sta	$14                     ; 0x14 <__rc4>
    1414: a0 01        	ldy	#$1
    1416: b1 12        	lda	($12),y                 ; 0x12 <__rc2>
    1418: 85 15        	sta	$15                     ; 0x15 <__rc5>
    141a: c8           	iny
    141b: b1 12        	lda	($12),y                 ; 0x12 <__rc2>
    141d: 85 16        	sta	$16                     ; 0x16 <__rc6>
    141f: c8           	iny
    1420: b1 12        	lda	($12),y                 ; 0x12 <__rc2>
    1422: d0 14        	bne	$1438 <f256main+0xa66>
    1424: 80 00        	bra	$1426 <f256main+0xa54>
    1426: a5 16        	lda	$16                     ; 0x16 <__rc6>
    1428: d0 0e        	bne	$1438 <f256main+0xa66>
    142a: 80 00        	bra	$142c <f256main+0xa5a>
    142c: a5 15        	lda	$15                     ; 0x15 <__rc5>
    142e: d0 08        	bne	$1438 <f256main+0xa66>
    1430: 80 00        	bra	$1432 <f256main+0xa60>
    1432: a5 14        	lda	$14                     ; 0x14 <__rc4>
    1434: f0 04        	beq	$143a <f256main+0xa68>
    1436: 80 00        	bra	$1438 <f256main+0xa66>
    1438: 80 00        	bra	$143a <f256main+0xa68>
    143a: 18           	clc
    143b: a5 10        	lda	$10                     ; 0x10 <__rc0>
    143d: 69 0b        	adc	#$b
    143f: 85 12        	sta	$12                     ; 0x12 <__rc2>
    1441: a5 11        	lda	$11                     ; 0x11 <__rc1>
    1443: 69 00        	adc	#$0
    1445: 85 13        	sta	$13                     ; 0x13 <__rc3>
    1447: b2 12        	lda	($12)                   ; 0x12 <__rc2>
    1449: 1a           	inc
    144a: 92 12        	sta	($12)                   ; 0x12 <__rc2>
    144c: 4c 7a 10     	jmp	$107a <f256main+0x6a8>
    144f: 18           	clc
    1450: a5 10        	lda	$10                     ; 0x10 <__rc0>
    1452: 69 0c        	adc	#$c
    1454: 85 12        	sta	$12                     ; 0x12 <__rc2>
    1456: a5 11        	lda	$11                     ; 0x11 <__rc1>
    1458: 69 00        	adc	#$0
    145a: 85 13        	sta	$13                     ; 0x13 <__rc3>
    145c: b2 12        	lda	($12)                   ; 0x12 <__rc2>
    145e: 1a           	inc
    145f: 92 12        	sta	($12)                   ; 0x12 <__rc2>
    1461: 4c b0 0f     	jmp	$fb0 <f256main+0x5de>
    1464: 64 01        	stz	$1                      ; 0x1 <__zp_data_size+0x1>
    1466: ad 04 d7     	lda	$d704                   ; 0xd704 <end_block9+0xa19e>
    1469: ae 05 d7     	ldx	$d705                   ; 0xd705 <end_block9+0xa19f>
    146c: 18           	clc
    146d: 48           	pha
    146e: a5 10        	lda	$10                     ; 0x10 <__rc0>
    1470: 69 1b        	adc	#$1b
    1472: 85 12        	sta	$12                     ; 0x12 <__rc2>
    1474: a5 11        	lda	$11                     ; 0x11 <__rc1>
    1476: 69 00        	adc	#$0
    1478: 85 13        	sta	$13                     ; 0x13 <__rc3>
    147a: 68           	pla
    147b: 92 12        	sta	($12)                   ; 0x12 <__rc2>
    147d: a0 01        	ldy	#$1
    147f: 8a           	txa
    1480: 91 12        	sta	($12),y                 ; 0x12 <__rc2>
    1482: a9 07        	lda	#$7
    1484: 31 12        	and	($12),y                 ; 0x12 <__rc2>
    1486: 85 14        	sta	$14                     ; 0x14 <__rc4>
    1488: 38           	sec
    1489: a9 00        	lda	#$0
    148b: f2 12        	sbc	($12)                   ; 0x12 <__rc2>
    148d: aa           	tax
    148e: a9 08        	lda	#$8
    1490: e5 14        	sbc	$14                     ; 0x14 <__rc4>
    1492: 85 14        	sta	$14                     ; 0x14 <__rc4>
    1494: 18           	clc
    1495: a5 10        	lda	$10                     ; 0x10 <__rc0>
    1497: 69 19        	adc	#$19
    1499: 85 12        	sta	$12                     ; 0x12 <__rc2>
    149b: a5 11        	lda	$11                     ; 0x11 <__rc1>
    149d: 69 00        	adc	#$0
    149f: 85 13        	sta	$13                     ; 0x13 <__rc3>
    14a1: 8a           	txa
    14a2: 92 12        	sta	($12)                   ; 0x12 <__rc2>
    14a4: a5 14        	lda	$14                     ; 0x14 <__rc4>
    14a6: 91 12        	sta	($12),y                 ; 0x12 <__rc2>
    14a8: b2 12        	lda	($12)                   ; 0x12 <__rc2>
    14aa: aa           	tax
    14ab: b1 12        	lda	($12),y                 ; 0x12 <__rc2>
    14ad: 85 12        	sta	$12                     ; 0x12 <__rc2>
    14af: 8a           	txa
    14b0: 0a           	asl
    14b1: 26 12        	rol	$12                     ; 0x12 <__rc2>
    14b3: a6 12        	ldx	$12                     ; 0x12 <__rc2>
    14b5: 64 12        	stz	$12                     ; 0x12 <__rc2>
    14b7: 26 12        	rol	$12                     ; 0x12 <__rc2>
    14b9: 0a           	asl
    14ba: 8a           	txa
    14bb: 2a           	rol
    14bc: 26 12        	rol	$12                     ; 0x12 <__rc2>
    14be: a6 12        	ldx	$12                     ; 0x12 <__rc2>
    14c0: 86 14        	stx	$14                     ; 0x14 <__rc4>
    14c2: 18           	clc
    14c3: 48           	pha
    14c4: a5 10        	lda	$10                     ; 0x10 <__rc0>
    14c6: 69 17        	adc	#$17
    14c8: 85 12        	sta	$12                     ; 0x12 <__rc2>
    14ca: a5 11        	lda	$11                     ; 0x11 <__rc1>
    14cc: 69 00        	adc	#$0
    14ce: 85 13        	sta	$13                     ; 0x13 <__rc3>
    14d0: 68           	pla
    14d1: 92 12        	sta	($12)                   ; 0x12 <__rc2>
    14d3: a5 14        	lda	$14                     ; 0x14 <__rc4>
    14d5: 91 12        	sta	($12),y                 ; 0x12 <__rc2>
    14d7: 18           	clc
    14d8: a5 10        	lda	$10                     ; 0x10 <__rc0>
    14da: 69 21        	adc	#$21
    14dc: 85 12        	sta	$12                     ; 0x12 <__rc2>
    14de: a5 11        	lda	$11                     ; 0x11 <__rc1>
    14e0: 69 20        	adc	#$20
    14e2: 85 13        	sta	$13                     ; 0x13 <__rc3>
    14e4: a9 00        	lda	#$0
    14e6: 92 12        	sta	($12)                   ; 0x12 <__rc2>
    14e8: 91 12        	sta	($12),y                 ; 0x12 <__rc2>
    14ea: 18           	clc
    14eb: a5 10        	lda	$10                     ; 0x10 <__rc0>
    14ed: 69 21        	adc	#$21
    14ef: 85 12        	sta	$12                     ; 0x12 <__rc2>
    14f1: a5 11        	lda	$11                     ; 0x11 <__rc1>
    14f3: 69 20        	adc	#$20
    14f5: 85 13        	sta	$13                     ; 0x13 <__rc3>
    14f7: b2 12        	lda	($12)                   ; 0x12 <__rc2>
    14f9: 85 16        	sta	$16                     ; 0x16 <__rc6>
    14fb: a0 01        	ldy	#$1
    14fd: b1 12        	lda	($12),y                 ; 0x12 <__rc2>
    14ff: aa           	tax
    1500: 18           	clc
    1501: a5 10        	lda	$10                     ; 0x10 <__rc0>
    1503: 69 17        	adc	#$17
    1505: 85 14        	sta	$14                     ; 0x14 <__rc4>
    1507: a5 11        	lda	$11                     ; 0x11 <__rc1>
    1509: 69 00        	adc	#$0
    150b: 85 15        	sta	$15                     ; 0x15 <__rc5>
    150d: b2 14        	lda	($14)                   ; 0x14 <__rc4>
    150f: 85 12        	sta	$12                     ; 0x12 <__rc2>
    1511: 8a           	txa
    1512: d1 14        	cmp	($14),y                 ; 0x14 <__rc4>
    1514: a2 01        	ldx	#$1
    1516: b0 02        	bcs	$151a <f256main+0xb48>
    1518: a2 00        	ldx	#$0
    151a: 86 13        	stx	$13                     ; 0x13 <__rc3>
    151c: d1 14        	cmp	($14),y                 ; 0x14 <__rc4>
    151e: f0 02        	beq	$1522 <f256main+0xb50>
    1520: 80 09        	bra	$152b <f256main+0xb59>
    1522: a6 16        	ldx	$16                     ; 0x16 <__rc6>
    1524: e4 12        	cpx	$12                     ; 0x12 <__rc2>
    1526: 90 0a        	bcc	$1532 <f256main+0xb60>
    1528: 4c 9e 17     	jmp	$179e <f256main+0xdcc>
    152b: a5 13        	lda	$13                     ; 0x13 <__rc3>
    152d: f0 03        	beq	$1532 <f256main+0xb60>
    152f: 4c 9e 17     	jmp	$179e <f256main+0xdcc>
    1532: 80 00        	bra	$1534 <f256main+0xb62>
    1534: 18           	clc
    1535: a5 10        	lda	$10                     ; 0x10 <__rc0>
    1537: 69 16        	adc	#$16
    1539: 85 12        	sta	$12                     ; 0x12 <__rc2>
    153b: a5 11        	lda	$11                     ; 0x11 <__rc1>
    153d: 69 00        	adc	#$0
    153f: 85 13        	sta	$13                     ; 0x13 <__rc3>
    1541: b2 12        	lda	($12)                   ; 0x12 <__rc2>
    1543: f0 13        	beq	$1558 <f256main+0xb86>
    1545: 80 00        	bra	$1547 <f256main+0xb75>
    1547: 18           	clc
    1548: a5 10        	lda	$10                     ; 0x10 <__rc0>
    154a: 69 29        	adc	#$29
    154c: 85 12        	sta	$12                     ; 0x12 <__rc2>
    154e: a5 11        	lda	$11                     ; 0x11 <__rc1>
    1550: 69 20        	adc	#$20
    1552: 85 13        	sta	$13                     ; 0x13 <__rc3>
    1554: a9 01        	lda	#$1
    1556: 92 12        	sta	($12)                   ; 0x12 <__rc2>
    1558: 18           	clc
    1559: a5 10        	lda	$10                     ; 0x10 <__rc0>
    155b: 69 1f        	adc	#$1f
    155d: 85 12        	sta	$12                     ; 0x12 <__rc2>
    155f: a5 11        	lda	$11                     ; 0x11 <__rc1>
    1561: 69 20        	adc	#$20
    1563: 85 13        	sta	$13                     ; 0x13 <__rc3>
    1565: a9 00        	lda	#$0
    1567: 92 12        	sta	($12)                   ; 0x12 <__rc2>
    1569: a0 01        	ldy	#$1
    156b: 91 12        	sta	($12),y                 ; 0x12 <__rc2>
    156d: 18           	clc
    156e: a5 10        	lda	$10                     ; 0x10 <__rc0>
    1570: 69 1f        	adc	#$1f
    1572: 85 12        	sta	$12                     ; 0x12 <__rc2>
    1574: a5 11        	lda	$11                     ; 0x11 <__rc1>
    1576: 69 20        	adc	#$20
    1578: 85 13        	sta	$13                     ; 0x13 <__rc3>
    157a: b2 12        	lda	($12)                   ; 0x12 <__rc2>
    157c: 85 14        	sta	$14                     ; 0x14 <__rc4>
    157e: a0 01        	ldy	#$1
    1580: b1 12        	lda	($12),y                 ; 0x12 <__rc2>
    1582: c9 00        	cmp	#$0
    1584: a2 01        	ldx	#$1
    1586: b0 02        	bcs	$158a <f256main+0xbb8>
    1588: a2 00        	ldx	#$0
    158a: 86 12        	stx	$12                     ; 0x12 <__rc2>
    158c: aa           	tax
    158d: f0 02        	beq	$1591 <f256main+0xbbf>
    158f: 80 09        	bra	$159a <f256main+0xbc8>
    1591: a6 14        	ldx	$14                     ; 0x14 <__rc4>
    1593: e0 40        	cpx	#$40
    1595: 90 0a        	bcc	$15a1 <f256main+0xbcf>
    1597: 4c 1a 16     	jmp	$161a <f256main+0xc48>
    159a: a5 12        	lda	$12                     ; 0x12 <__rc2>
    159c: f0 03        	beq	$15a1 <f256main+0xbcf>
    159e: 4c 1a 16     	jmp	$161a <f256main+0xc48>
    15a1: 80 00        	bra	$15a3 <f256main+0xbd1>
    15a3: 18           	clc
    15a4: a5 10        	lda	$10                     ; 0x10 <__rc0>
    15a6: 69 1d        	adc	#$1d
    15a8: 85 12        	sta	$12                     ; 0x12 <__rc2>
    15aa: a5 11        	lda	$11                     ; 0x11 <__rc1>
    15ac: 69 20        	adc	#$20
    15ae: 85 13        	sta	$13                     ; 0x13 <__rc3>
    15b0: a0 01        	ldy	#$1
    15b2: 18           	clc
    15b3: a5 10        	lda	$10                     ; 0x10 <__rc0>
    15b5: 69 1f        	adc	#$1f
    15b7: 85 14        	sta	$14                     ; 0x14 <__rc4>
    15b9: a5 11        	lda	$11                     ; 0x11 <__rc1>
    15bb: 69 20        	adc	#$20
    15bd: 85 15        	sta	$15                     ; 0x15 <__rc5>
    15bf: b2 14        	lda	($14)                   ; 0x14 <__rc4>
    15c1: 85 16        	sta	$16                     ; 0x16 <__rc6>
    15c3: b1 14        	lda	($14),y                 ; 0x14 <__rc4>
    15c5: aa           	tax
    15c6: 18           	clc
    15c7: a5 16        	lda	$16                     ; 0x16 <__rc6>
    15c9: 72 12        	adc	($12)                   ; 0x12 <__rc2>
    15cb: 85 14        	sta	$14                     ; 0x14 <__rc4>
    15cd: 8a           	txa
    15ce: 71 12        	adc	($12),y                 ; 0x12 <__rc2>
    15d0: 85 12        	sta	$12                     ; 0x12 <__rc2>
    15d2: 18           	clc
    15d3: a5 10        	lda	$10                     ; 0x10 <__rc0>
    15d5: 69 1d        	adc	#$1d
    15d7: 48           	pha
    15d8: a5 11        	lda	$11                     ; 0x11 <__rc1>
    15da: 69 00        	adc	#$0
    15dc: 85 13        	sta	$13                     ; 0x13 <__rc3>
    15de: 68           	pla
    15df: 18           	clc
    15e0: 65 14        	adc	$14                     ; 0x14 <__rc4>
    15e2: aa           	tax
    15e3: a5 13        	lda	$13                     ; 0x13 <__rc3>
    15e5: 65 12        	adc	$12                     ; 0x12 <__rc2>
    15e7: 86 12        	stx	$12                     ; 0x12 <__rc2>
    15e9: 85 13        	sta	$13                     ; 0x13 <__rc3>
    15eb: b2 12        	lda	($12)                   ; 0x12 <__rc2>
    15ed: 8d 07 d7     	sta	$d707                   ; 0xd707 <end_block9+0xa1a1>
    15f0: 18           	clc
    15f1: a5 10        	lda	$10                     ; 0x10 <__rc0>
    15f3: 69 1f        	adc	#$1f
    15f5: 85 12        	sta	$12                     ; 0x12 <__rc2>
    15f7: a5 11        	lda	$11                     ; 0x11 <__rc1>
    15f9: 69 20        	adc	#$20
    15fb: 85 13        	sta	$13                     ; 0x13 <__rc3>
    15fd: b2 12        	lda	($12)                   ; 0x12 <__rc2>
    15ff: aa           	tax
    1600: a0 01        	ldy	#$1
    1602: b1 12        	lda	($12),y                 ; 0x12 <__rc2>
    1604: e8           	inx
    1605: f0 03        	beq	$160a <f256main+0xc38>
    1607: 4c 0e 16     	jmp	$160e <f256main+0xc3c>
    160a: 1a           	inc
    160b: 4c 0e 16     	jmp	$160e <f256main+0xc3c>
    160e: 85 14        	sta	$14                     ; 0x14 <__rc4>
    1610: 8a           	txa
    1611: 92 12        	sta	($12)                   ; 0x12 <__rc2>
    1613: a5 14        	lda	$14                     ; 0x14 <__rc4>
    1615: 91 12        	sta	($12),y                 ; 0x12 <__rc2>
    1617: 4c 6d 15     	jmp	$156d <f256main+0xb9b>
    161a: 18           	clc
    161b: a5 10        	lda	$10                     ; 0x10 <__rc0>
    161d: 69 1d        	adc	#$1d
    161f: 85 12        	sta	$12                     ; 0x12 <__rc2>
    1621: a5 11        	lda	$11                     ; 0x11 <__rc1>
    1623: 69 20        	adc	#$20
    1625: 85 13        	sta	$13                     ; 0x13 <__rc3>
    1627: b2 12        	lda	($12)                   ; 0x12 <__rc2>
    1629: 85 14        	sta	$14                     ; 0x14 <__rc4>
    162b: a0 01        	ldy	#$1
    162d: b1 12        	lda	($12),y                 ; 0x12 <__rc2>
    162f: 85 15        	sta	$15                     ; 0x15 <__rc5>
    1631: 18           	clc
    1632: a5 14        	lda	$14                     ; 0x14 <__rc4>
    1634: 69 40        	adc	#$40
    1636: 85 14        	sta	$14                     ; 0x14 <__rc4>
    1638: a5 15        	lda	$15                     ; 0x15 <__rc5>
    163a: 69 00        	adc	#$0
    163c: 85 15        	sta	$15                     ; 0x15 <__rc5>
    163e: a5 14        	lda	$14                     ; 0x14 <__rc4>
    1640: 92 12        	sta	($12)                   ; 0x12 <__rc2>
    1642: a5 15        	lda	$15                     ; 0x15 <__rc5>
    1644: 91 12        	sta	($12),y                 ; 0x12 <__rc2>
    1646: b2 12        	lda	($12)                   ; 0x12 <__rc2>
    1648: 85 14        	sta	$14                     ; 0x14 <__rc4>
    164a: b1 12        	lda	($12),y                 ; 0x12 <__rc2>
    164c: c9 20        	cmp	#$20
    164e: f0 02        	beq	$1652 <f256main+0xc80>
    1650: 80 0c        	bra	$165e <f256main+0xc8c>
    1652: a5 14        	lda	$14                     ; 0x14 <__rc4>
    1654: f0 02        	beq	$1658 <f256main+0xc86>
    1656: 80 02        	bra	$165a <f256main+0xc88>
    1658: 80 02        	bra	$165c <f256main+0xc8a>
    165a: 80 1b        	bra	$1677 <f256main+0xca5>
    165c: 80 02        	bra	$1660 <f256main+0xc8e>
    165e: 80 17        	bra	$1677 <f256main+0xca5>
    1660: 80 00        	bra	$1662 <f256main+0xc90>
    1662: 18           	clc
    1663: a5 10        	lda	$10                     ; 0x10 <__rc0>
    1665: 69 1d        	adc	#$1d
    1667: 85 12        	sta	$12                     ; 0x12 <__rc2>
    1669: a5 11        	lda	$11                     ; 0x11 <__rc1>
    166b: 69 20        	adc	#$20
    166d: 85 13        	sta	$13                     ; 0x13 <__rc3>
    166f: a9 00        	lda	#$0
    1671: 92 12        	sta	($12)                   ; 0x12 <__rc2>
    1673: a0 01        	ldy	#$1
    1675: 91 12        	sta	($12),y                 ; 0x12 <__rc2>
    1677: 18           	clc
    1678: a5 10        	lda	$10                     ; 0x10 <__rc0>
    167a: 69 13        	adc	#$13
    167c: 85 12        	sta	$12                     ; 0x12 <__rc2>
    167e: a5 11        	lda	$11                     ; 0x11 <__rc1>
    1680: 69 00        	adc	#$0
    1682: 85 13        	sta	$13                     ; 0x13 <__rc3>
    1684: a0 01        	ldy	#$1
    1686: 18           	clc
    1687: a5 10        	lda	$10                     ; 0x10 <__rc0>
    1689: 69 1d        	adc	#$1d
    168b: 48           	pha
    168c: a5 11        	lda	$11                     ; 0x11 <__rc1>
    168e: 69 00        	adc	#$0
    1690: 85 14        	sta	$14                     ; 0x14 <__rc4>
    1692: 68           	pla
    1693: 18           	clc
    1694: 72 12        	adc	($12)                   ; 0x12 <__rc2>
    1696: aa           	tax
    1697: a5 14        	lda	$14                     ; 0x14 <__rc4>
    1699: 71 12        	adc	($12),y                 ; 0x12 <__rc2>
    169b: 86 12        	stx	$12                     ; 0x12 <__rc2>
    169d: 85 13        	sta	$13                     ; 0x13 <__rc3>
    169f: 18           	clc
    16a0: a5 10        	lda	$10                     ; 0x10 <__rc0>
    16a2: 69 b3        	adc	#$b3
    16a4: 85 14        	sta	$14                     ; 0x14 <__rc4>
    16a6: a5 11        	lda	$11                     ; 0x11 <__rc1>
    16a8: 69 33        	adc	#$33
    16aa: 85 15        	sta	$15                     ; 0x15 <__rc5>
    16ac: b2 14        	lda	($14)                   ; 0x14 <__rc4>
    16ae: aa           	tax
    16af: b1 14        	lda	($14),y                 ; 0x14 <__rc4>
    16b1: 86 14        	stx	$14                     ; 0x14 <__rc4>
    16b3: 85 15        	sta	$15                     ; 0x15 <__rc5>
    16b5: a9 40        	lda	#$40
    16b7: a2 00        	ldx	#$0
    16b9: 20 6b 1a     	jsr	$1a6b <fileRead>
    16bc: 18           	clc
    16bd: 48           	pha
    16be: a5 10        	lda	$10                     ; 0x10 <__rc0>
    16c0: 69 15        	adc	#$15
    16c2: 85 12        	sta	$12                     ; 0x12 <__rc2>
    16c4: a5 11        	lda	$11                     ; 0x11 <__rc1>
    16c6: 69 00        	adc	#$0
    16c8: 85 13        	sta	$13                     ; 0x13 <__rc3>
    16ca: 68           	pla
    16cb: 92 12        	sta	($12)                   ; 0x12 <__rc2>
    16cd: b2 12        	lda	($12)                   ; 0x12 <__rc2>
    16cf: c9 40        	cmp	#$40
    16d1: f0 02        	beq	$16d5 <f256main+0xd03>
    16d3: 80 02        	bra	$16d7 <f256main+0xd05>
    16d5: 80 40        	bra	$1717 <f256main+0xd45>
    16d7: 80 00        	bra	$16d9 <f256main+0xd07>
    16d9: 80 00        	bra	$16db <f256main+0xd09>
    16db: 18           	clc
    16dc: a5 10        	lda	$10                     ; 0x10 <__rc0>
    16de: 69 15        	adc	#$15
    16e0: 85 12        	sta	$12                     ; 0x12 <__rc2>
    16e2: a5 11        	lda	$11                     ; 0x11 <__rc1>
    16e4: 69 00        	adc	#$0
    16e6: 85 13        	sta	$13                     ; 0x13 <__rc3>
    16e8: b2 12        	lda	($12)                   ; 0x12 <__rc2>
    16ea: 85 14        	sta	$14                     ; 0x14 <__rc4>
    16ec: 18           	clc
    16ed: a5 10        	lda	$10                     ; 0x10 <__rc0>
    16ef: 69 13        	adc	#$13
    16f1: 85 12        	sta	$12                     ; 0x12 <__rc2>
    16f3: a5 11        	lda	$11                     ; 0x11 <__rc1>
    16f5: 69 00        	adc	#$0
    16f7: 85 13        	sta	$13                     ; 0x13 <__rc3>
    16f9: a0 01        	ldy	#$1
    16fb: b1 12        	lda	($12),y                 ; 0x12 <__rc2>
    16fd: 85 15        	sta	$15                     ; 0x15 <__rc5>
    16ff: 18           	clc
    1700: a5 14        	lda	$14                     ; 0x14 <__rc4>
    1702: 72 12        	adc	($12)                   ; 0x12 <__rc2>
    1704: 85 14        	sta	$14                     ; 0x14 <__rc4>
    1706: a5 15        	lda	$15                     ; 0x15 <__rc5>
    1708: 69 00        	adc	#$0
    170a: 85 15        	sta	$15                     ; 0x15 <__rc5>
    170c: a5 14        	lda	$14                     ; 0x14 <__rc4>
    170e: 92 12        	sta	($12)                   ; 0x12 <__rc2>
    1710: a5 15        	lda	$15                     ; 0x15 <__rc5>
    1712: 91 12        	sta	($12),y                 ; 0x12 <__rc2>
    1714: 4c 74 17     	jmp	$1774 <f256main+0xda2>
    1717: 18           	clc
    1718: a5 10        	lda	$10                     ; 0x10 <__rc0>
    171a: 69 13        	adc	#$13
    171c: 85 12        	sta	$12                     ; 0x12 <__rc2>
    171e: a5 11        	lda	$11                     ; 0x11 <__rc1>
    1720: 69 00        	adc	#$0
    1722: 85 13        	sta	$13                     ; 0x13 <__rc3>
    1724: b2 12        	lda	($12)                   ; 0x12 <__rc2>
    1726: 85 14        	sta	$14                     ; 0x14 <__rc4>
    1728: a0 01        	ldy	#$1
    172a: b1 12        	lda	($12),y                 ; 0x12 <__rc2>
    172c: 85 15        	sta	$15                     ; 0x15 <__rc5>
    172e: 18           	clc
    172f: a5 14        	lda	$14                     ; 0x14 <__rc4>
    1731: 69 40        	adc	#$40
    1733: 85 14        	sta	$14                     ; 0x14 <__rc4>
    1735: a5 15        	lda	$15                     ; 0x15 <__rc5>
    1737: 69 00        	adc	#$0
    1739: 85 15        	sta	$15                     ; 0x15 <__rc5>
    173b: a5 14        	lda	$14                     ; 0x14 <__rc4>
    173d: 92 12        	sta	($12)                   ; 0x12 <__rc2>
    173f: a5 15        	lda	$15                     ; 0x15 <__rc5>
    1741: 91 12        	sta	($12),y                 ; 0x12 <__rc2>
    1743: b2 12        	lda	($12)                   ; 0x12 <__rc2>
    1745: 85 14        	sta	$14                     ; 0x14 <__rc4>
    1747: b1 12        	lda	($12),y                 ; 0x12 <__rc2>
    1749: c9 20        	cmp	#$20
    174b: f0 02        	beq	$174f <f256main+0xd7d>
    174d: 80 0c        	bra	$175b <f256main+0xd89>
    174f: a5 14        	lda	$14                     ; 0x14 <__rc4>
    1751: f0 02        	beq	$1755 <f256main+0xd83>
    1753: 80 02        	bra	$1757 <f256main+0xd85>
    1755: 80 02        	bra	$1759 <f256main+0xd87>
    1757: 80 1b        	bra	$1774 <f256main+0xda2>
    1759: 80 02        	bra	$175d <f256main+0xd8b>
    175b: 80 17        	bra	$1774 <f256main+0xda2>
    175d: 80 00        	bra	$175f <f256main+0xd8d>
    175f: 18           	clc
    1760: a5 10        	lda	$10                     ; 0x10 <__rc0>
    1762: 69 13        	adc	#$13
    1764: 85 12        	sta	$12                     ; 0x12 <__rc2>
    1766: a5 11        	lda	$11                     ; 0x11 <__rc1>
    1768: 69 00        	adc	#$0
    176a: 85 13        	sta	$13                     ; 0x13 <__rc3>
    176c: a9 00        	lda	#$0
    176e: 92 12        	sta	($12)                   ; 0x12 <__rc2>
    1770: a0 01        	ldy	#$1
    1772: 91 12        	sta	($12),y                 ; 0x12 <__rc2>
    1774: 18           	clc
    1775: a5 10        	lda	$10                     ; 0x10 <__rc0>
    1777: 69 21        	adc	#$21
    1779: 85 12        	sta	$12                     ; 0x12 <__rc2>
    177b: a5 11        	lda	$11                     ; 0x11 <__rc1>
    177d: 69 20        	adc	#$20
    177f: 85 13        	sta	$13                     ; 0x13 <__rc3>
    1781: b2 12        	lda	($12)                   ; 0x12 <__rc2>
    1783: aa           	tax
    1784: a0 01        	ldy	#$1
    1786: b1 12        	lda	($12),y                 ; 0x12 <__rc2>
    1788: e8           	inx
    1789: f0 03        	beq	$178e <f256main+0xdbc>
    178b: 4c 92 17     	jmp	$1792 <f256main+0xdc0>
    178e: 1a           	inc
    178f: 4c 92 17     	jmp	$1792 <f256main+0xdc0>
    1792: 85 14        	sta	$14                     ; 0x14 <__rc4>
    1794: 8a           	txa
    1795: 92 12        	sta	($12)                   ; 0x12 <__rc2>
    1797: a5 14        	lda	$14                     ; 0x14 <__rc4>
    1799: 91 12        	sta	($12),y                 ; 0x12 <__rc2>
    179b: 4c ea 14     	jmp	$14ea <f256main+0xb18>
    179e: 4c 5f 0f     	jmp	$f5f <f256main+0x58d>
    17a1: 18           	clc
    17a2: a5 10        	lda	$10                     ; 0x10 <__rc0>
    17a4: 69 b5        	adc	#$b5
    17a6: 85 12        	sta	$12                     ; 0x12 <__rc2>
    17a8: a5 11        	lda	$11                     ; 0x11 <__rc1>
    17aa: 69 33        	adc	#$33
    17ac: 85 13        	sta	$13                     ; 0x13 <__rc3>
    17ae: b2 12        	lda	($12)                   ; 0x12 <__rc2>
    17b0: 85 14        	sta	$14                     ; 0x14 <__rc4>
    17b2: a0 01        	ldy	#$1
    17b4: b1 12        	lda	($12),y                 ; 0x12 <__rc2>
    17b6: a2 01        	ldx	#$1
    17b8: 86 24        	stx	$24                     ; 0x24 <__rc20>
    17ba: a6 14        	ldx	$14                     ; 0x14 <__rc4>
    17bc: 86 12        	stx	$12                     ; 0x12 <__rc2>
    17be: 85 13        	sta	$13                     ; 0x13 <__rc3>
    17c0: 20 e4 1b     	jsr	$1be4 <fileClose>
    17c3: 18           	clc
    17c4: a5 10        	lda	$10                     ; 0x10 <__rc0>
    17c6: 69 bb        	adc	#$bb
    17c8: 85 12        	sta	$12                     ; 0x12 <__rc2>
    17ca: a5 11        	lda	$11                     ; 0x11 <__rc1>
    17cc: 69 33        	adc	#$33
    17ce: 85 13        	sta	$13                     ; 0x13 <__rc3>
    17d0: a9 00        	lda	#$0
    17d2: 92 12        	sta	($12)                   ; 0x12 <__rc2>
    17d4: a4 24        	ldy	$24                     ; 0x24 <__rc20>
    17d6: 91 12        	sta	($12),y                 ; 0x12 <__rc2>
    17d8: 18           	clc
    17d9: a5 10        	lda	$10                     ; 0x10 <__rc0>
    17db: 69 0f        	adc	#$f
    17dd: 85 12        	sta	$12                     ; 0x12 <__rc2>
    17df: a5 11        	lda	$11                     ; 0x11 <__rc1>
    17e1: 69 00        	adc	#$0
    17e3: 85 13        	sta	$13                     ; 0x13 <__rc3>
    17e5: a9 01        	lda	#$1
    17e7: 92 12        	sta	($12)                   ; 0x12 <__rc2>
    17e9: 3a           	dec
    17ea: 91 12        	sta	($12),y                 ; 0x12 <__rc2>
    17ec: a0 02        	ldy	#$2
    17ee: 91 12        	sta	($12),y                 ; 0x12 <__rc2>
    17f0: a9 00        	lda	#$0
    17f2: c8           	iny
    17f3: 91 12        	sta	($12),y                 ; 0x12 <__rc2>
    17f5: a0 00        	ldy	#$0
    17f7: b1 10        	lda	($10),y                 ; 0x10 <__rc0>
    17f9: 85 28        	sta	$28                     ; 0x28 <__rc24>
    17fb: fa           	plx
    17fc: 86 27        	stx	$27                     ; 0x27 <__rc23>
    17fe: fa           	plx
    17ff: 86 26        	stx	$26                     ; 0x26 <__rc22>
    1801: fa           	plx
    1802: 86 25        	stx	$25                     ; 0x25 <__rc21>
    1804: fa           	plx
    1805: 86 24        	stx	$24                     ; 0x24 <__rc20>
    1807: 18           	clc
    1808: a5 10        	lda	$10                     ; 0x10 <__rc0>
    180a: 69 bd        	adc	#$bd
    180c: 85 10        	sta	$10                     ; 0x10 <__rc0>
    180e: a5 11        	lda	$11                     ; 0x11 <__rc1>
    1810: 69 33        	adc	#$33
    1812: 85 11        	sta	$11                     ; 0x11 <__rc1>
    1814: 60           	rts

00001815 <setTextColorMatrix>:
    1815: a2 03        	ldx	#$3
    1817: 86 01        	stx	$1                      ; 0x1 <__zp_data_size+0x1>
    1819: a9 c0        	lda	#$c0
    181b: 64 12        	stz	$12                     ; 0x12 <__rc2>
    181d: a2 f0        	ldx	#$f0
    181f: 86 16        	stx	$16                     ; 0x16 <__rc6>
    1821: a2 00        	ldx	#$0
    1823: a0 50        	ldy	#$50
    1825: 48           	pha
    1826: a5 12        	lda	$12                     ; 0x12 <__rc2>
    1828: 85 15        	sta	$15                     ; 0x15 <__rc5>
    182a: 68           	pla
    182b: 85 14        	sta	$14                     ; 0x14 <__rc4>
    182d: 85 13        	sta	$13                     ; 0x13 <__rc3>
    182f: a5 16        	lda	$16                     ; 0x16 <__rc6>
    1831: 92 12        	sta	($12)                   ; 0x12 <__rc2>
    1833: 88           	dey
    1834: e6 12        	inc	$12                     ; 0x12 <__rc2>
    1836: d0 02        	bne	$183a <setTextColorMatrix+0x25>
    1838: e6 13        	inc	$13                     ; 0x13 <__rc3>
    183a: c0 00        	cpy	#$0
    183c: d0 f3        	bne	$1831 <setTextColorMatrix+0x1c>
    183e: a0 f0        	ldy	#$f0
    1840: 84 16        	sty	$16                     ; 0x16 <__rc6>
    1842: e8           	inx
    1843: 18           	clc
    1844: a5 15        	lda	$15                     ; 0x15 <__rc5>
    1846: 69 50        	adc	#$50
    1848: 85 12        	sta	$12                     ; 0x12 <__rc2>
    184a: a5 14        	lda	$14                     ; 0x14 <__rc4>
    184c: 69 00        	adc	#$0
    184e: e0 3c        	cpx	#$3c
    1850: d0 d1        	bne	$1823 <setTextColorMatrix+0xe>
    1852: 64 01        	stz	$1                      ; 0x1 <__zp_data_size+0x1>
    1854: 60           	rts

00001855 <fillFrame>:
    1855: a2 02        	ldx	#$2
    1857: 86 01        	stx	$1                      ; 0x1 <__zp_data_size+0x1>
    1859: a9 c0        	lda	#$c0
    185b: 64 12        	stz	$12                     ; 0x12 <__rc2>
    185d: a2 20        	ldx	#$20
    185f: 86 16        	stx	$16                     ; 0x16 <__rc6>
    1861: a2 00        	ldx	#$0
    1863: a0 50        	ldy	#$50
    1865: 48           	pha
    1866: a5 12        	lda	$12                     ; 0x12 <__rc2>
    1868: 85 15        	sta	$15                     ; 0x15 <__rc5>
    186a: 68           	pla
    186b: 85 14        	sta	$14                     ; 0x14 <__rc4>
    186d: 85 13        	sta	$13                     ; 0x13 <__rc3>
    186f: a5 16        	lda	$16                     ; 0x16 <__rc6>
    1871: 92 12        	sta	($12)                   ; 0x12 <__rc2>
    1873: 88           	dey
    1874: e6 12        	inc	$12                     ; 0x12 <__rc2>
    1876: d0 02        	bne	$187a <fillFrame+0x25>
    1878: e6 13        	inc	$13                     ; 0x13 <__rc3>
    187a: c0 00        	cpy	#$0
    187c: d0 f3        	bne	$1871 <fillFrame+0x1c>
    187e: a0 20        	ldy	#$20
    1880: 84 16        	sty	$16                     ; 0x16 <__rc6>
    1882: e8           	inx
    1883: 18           	clc
    1884: a5 15        	lda	$15                     ; 0x15 <__rc5>
    1886: 69 50        	adc	#$50
    1888: 85 12        	sta	$12                     ; 0x12 <__rc2>
    188a: a5 14        	lda	$14                     ; 0x14 <__rc4>
    188c: 69 00        	adc	#$0
    188e: e0 3c        	cpx	#$3c
    1890: d0 d1        	bne	$1863 <fillFrame+0xe>
    1892: 64 01        	stz	$1                      ; 0x1 <__zp_data_size+0x1>
    1894: 60           	rts

00001895 <initNibbleTable>:
    1895: 64 12        	stz	$12                     ; 0x12 <__rc2>
    1897: a2 00        	ldx	#$0
    1899: 80 13        	bra	$18ae <initNibbleTable+0x19>
    189b: a9 20        	lda	#$20
    189d: a4 12        	ldy	$12                     ; 0x12 <__rc2>
    189f: 99 23 35     	sta	$3523,y                 ; 0x3523 <expandNibble+0x3>
    18a2: e8           	inx
    18a3: 18           	clc
    18a4: a5 12        	lda	$12                     ; 0x12 <__rc2>
    18a6: 69 04        	adc	#$4
    18a8: 85 12        	sta	$12                     ; 0x12 <__rc2>
    18aa: c9 40        	cmp	#$40
    18ac: f0 3d        	beq	$18eb <initNibbleTable+0x56>
    18ae: e0 08        	cpx	#$8
    18b0: a9 20        	lda	#$20
    18b2: b0 02        	bcs	$18b6 <initNibbleTable+0x21>
    18b4: a9 07        	lda	#$7
    18b6: a4 12        	ldy	$12                     ; 0x12 <__rc2>
    18b8: 99 20 35     	sta	$3520,y                 ; 0x3520 <expandNibble>
    18bb: 8a           	txa
    18bc: 29 04        	and	#$4
    18be: a0 07        	ldy	#$7
    18c0: 84 13        	sty	$13                     ; 0x13 <__rc3>
    18c2: 84 14        	sty	$14                     ; 0x14 <__rc4>
    18c4: a8           	tay
    18c5: f0 04        	beq	$18cb <initNibbleTable+0x36>
    18c7: a0 20        	ldy	#$20
    18c9: 84 14        	sty	$14                     ; 0x14 <__rc4>
    18cb: a4 12        	ldy	$12                     ; 0x12 <__rc2>
    18cd: a5 14        	lda	$14                     ; 0x14 <__rc4>
    18cf: 99 21 35     	sta	$3521,y                 ; 0x3521 <expandNibble+0x1>
    18d2: 8a           	txa
    18d3: 29 02        	and	#$2
    18d5: f0 04        	beq	$18db <initNibbleTable+0x46>
    18d7: a0 20        	ldy	#$20
    18d9: 84 13        	sty	$13                     ; 0x13 <__rc3>
    18db: a4 12        	ldy	$12                     ; 0x12 <__rc2>
    18dd: a5 13        	lda	$13                     ; 0x13 <__rc3>
    18df: 99 22 35     	sta	$3522,y                 ; 0x3522 <expandNibble+0x2>
    18e2: 8a           	txa
    18e3: 29 01        	and	#$1
    18e5: d0 b4        	bne	$189b <initNibbleTable+0x6>
    18e7: a9 07        	lda	#$7
    18e9: 80 b2        	bra	$189d <initNibbleTable+0x8>
    18eb: 60           	rts

000018ec <fileOpen>:
    18ec: b2 12        	lda	($12)                   ; 0x12 <__rc2>
    18ee: d0 03        	bne	$18f3 <fileOpen+0x7>
    18f0: 4c 50 19     	jmp	$1950 <fileOpen+0x64>
    18f3: 85 16        	sta	$16                     ; 0x16 <__rc6>
    18f5: a0 00        	ldy	#$0
    18f7: a2 00        	ldx	#$0
    18f9: 86 14        	stx	$14                     ; 0x14 <__rc4>
    18fb: 98           	tya
    18fc: c8           	iny
    18fd: d0 01        	bne	$1900 <fileOpen+0x14>
    18ff: e8           	inx
    1900: 18           	clc
    1901: 65 12        	adc	$12                     ; 0x12 <__rc2>
    1903: 85 18        	sta	$18                     ; 0x18 <__rc8>
    1905: a5 14        	lda	$14                     ; 0x14 <__rc4>
    1907: 65 13        	adc	$13                     ; 0x13 <__rc3>
    1909: 84 17        	sty	$17                     ; 0x17 <__rc7>
    190b: a4 18        	ldy	$18                     ; 0x18 <__rc8>
    190d: 84 14        	sty	$14                     ; 0x14 <__rc4>
    190f: 85 15        	sta	$15                     ; 0x15 <__rc5>
    1911: a0 01        	ldy	#$1
    1913: b1 14        	lda	($14),y                 ; 0x14 <__rc4>
    1915: a4 17        	ldy	$17                     ; 0x17 <__rc7>
    1917: c9 00        	cmp	#$0
    1919: d0 de        	bne	$18f9 <fileOpen+0xd>
    191b: 8a           	txa
    191c: d0 06        	bne	$1924 <fileOpen+0x38>
    191e: c0 02        	cpy	#$2
    1920: b0 06        	bcs	$1928 <fileOpen+0x3c>
    1922: 80 2c        	bra	$1950 <fileOpen+0x64>
    1924: e0 00        	cpx	#$0
    1926: 90 28        	bcc	$1950 <fileOpen+0x64>
    1928: a0 01        	ldy	#$1
    192a: b1 12        	lda	($12),y                 ; 0x12 <__rc2>
    192c: c9 3a        	cmp	#$3a
    192e: d0 20        	bne	$1950 <fileOpen+0x64>
    1930: a5 16        	lda	$16                     ; 0x16 <__rc6>
    1932: c9 30        	cmp	#$30
    1934: 64 19        	stz	$19                     ; 0x19 <__rc9>
    1936: 90 09        	bcc	$1941 <fileOpen+0x55>
    1938: c9 38        	cmp	#$38
    193a: b0 05        	bcs	$1941 <fileOpen+0x55>
    193c: 18           	clc
    193d: 69 d0        	adc	#$d0
    193f: 85 19        	sta	$19                     ; 0x19 <__rc9>
    1941: a5 12        	lda	$12                     ; 0x12 <__rc2>
    1943: 18           	clc
    1944: 69 02        	adc	#$2
    1946: 85 12        	sta	$12                     ; 0x12 <__rc2>
    1948: a5 13        	lda	$13                     ; 0x13 <__rc3>
    194a: 69 00        	adc	#$0
    194c: 85 13        	sta	$13                     ; 0x13 <__rc3>
    194e: 80 02        	bra	$1952 <fileOpen+0x66>
    1950: 64 19        	stz	$19                     ; 0x19 <__rc9>
    1952: a2 ef        	ldx	#$ef
    1954: 86 14        	stx	$14                     ; 0x14 <__rc4>
    1956: a2 34        	ldx	#$34
    1958: 86 15        	stx	$15                     ; 0x15 <__rc5>
    195a: 64 16        	stz	$16                     ; 0x16 <__rc6>
    195c: 80 0a        	bra	$1968 <fileOpen+0x7c>
    195e: a0 02        	ldy	#$2
    1960: e6 14        	inc	$14                     ; 0x14 <__rc4>
    1962: d0 02        	bne	$1966 <fileOpen+0x7a>
    1964: e6 15        	inc	$15                     ; 0x15 <__rc5>
    1966: 84 16        	sty	$16                     ; 0x16 <__rc6>
    1968: b2 14        	lda	($14)                   ; 0x14 <__rc4>
    196a: c9 61        	cmp	#$61
    196c: f0 f0        	beq	$195e <fileOpen+0x72>
    196e: a0 01        	ldy	#$1
    1970: c9 77        	cmp	#$77
    1972: f0 05        	beq	$1979 <fileOpen+0x8d>
    1974: aa           	tax
    1975: f0 08        	beq	$197f <fileOpen+0x93>
    1977: a4 16        	ldy	$16                     ; 0x16 <__rc6>
    1979: e6 14        	inc	$14                     ; 0x14 <__rc4>
    197b: d0 e9        	bne	$1966 <fileOpen+0x7a>
    197d: 80 e5        	bra	$1964 <fileOpen+0x78>
    197f: a6 16        	ldx	$16                     ; 0x16 <__rc6>
    1981: 86 18        	stx	$18                     ; 0x18 <__rc8>
    1983: a6 12        	ldx	$12                     ; 0x12 <__rc2>
    1985: a4 13        	ldy	$13                     ; 0x13 <__rc3>
    1987: 86 fb        	stx	$fb                     ; 0xfb <__bss_size+0xb5>
    1989: 84 fc        	sty	$fc                     ; 0xfc <__bss_size+0xb6>
    198b: b2 12        	lda	($12)                   ; 0x12 <__rc2>
    198d: f0 2b        	beq	$19ba <fileOpen+0xce>
    198f: 64 15        	stz	$15                     ; 0x15 <__rc5>
    1991: a0 01        	ldy	#$1
    1993: a9 00        	lda	#$0
    1995: 64 14        	stz	$14                     ; 0x14 <__rc4>
    1997: a6 15        	ldx	$15                     ; 0x15 <__rc5>
    1999: e6 15        	inc	$15                     ; 0x15 <__rc5>
    199b: d0 02        	bne	$199f <fileOpen+0xb3>
    199d: e6 14        	inc	$14                     ; 0x14 <__rc4>
    199f: 18           	clc
    19a0: 85 17        	sta	$17                     ; 0x17 <__rc7>
    19a2: 8a           	txa
    19a3: 65 12        	adc	$12                     ; 0x12 <__rc2>
    19a5: 85 16        	sta	$16                     ; 0x16 <__rc6>
    19a7: a5 17        	lda	$17                     ; 0x17 <__rc7>
    19a9: 65 13        	adc	$13                     ; 0x13 <__rc3>
    19ab: 85 17        	sta	$17                     ; 0x17 <__rc7>
    19ad: b1 16        	lda	($16),y                 ; 0x16 <__rc6>
    19af: aa           	tax
    19b0: a5 14        	lda	$14                     ; 0x14 <__rc4>
    19b2: e0 00        	cpx	#$0
    19b4: d0 e1        	bne	$1997 <fileOpen+0xab>
    19b6: a4 15        	ldy	$15                     ; 0x15 <__rc5>
    19b8: 80 02        	bra	$19bc <fileOpen+0xd0>
    19ba: a0 00        	ldy	#$0
    19bc: a6 18        	ldx	$18                     ; 0x18 <__rc8>
    19be: 84 fd        	sty	$fd                     ; 0xfd <__bss_size+0xb7>
    19c0: a4 19        	ldy	$19                     ; 0x19 <__rc9>
    19c2: 84 f3        	sty	$f3                     ; 0xf3 <__bss_size+0xad>
    19c4: 86 f5        	stx	$f5                     ; 0xf5 <__bss_size+0xaf>
    19c6: a2 3c        	ldx	#$3c
    19c8: a0 00        	ldy	#$0
    19ca: 86 12        	stx	$12                     ; 0x12 <__rc2>
    19cc: 84 13        	sty	$13                     ; 0x13 <__rc3>
    19ce: a2 34        	ldx	#$34
    19d0: 86 14        	stx	$14                     ; 0x14 <__rc4>
    19d2: a2 00        	ldx	#$0
    19d4: 86 15        	stx	$15                     ; 0x15 <__rc5>
    19d6: 20 5c ff     	jsr	$ff5c <end_block9+0xc9f6>
    19d9: 92 12        	sta	($12)                   ; 0x12 <__rc2>
    19db: a9 00        	lda	#$0
    19dd: 6a           	ror
    19de: 85 14        	sta	$14                     ; 0x14 <__rc4>
    19e0: a6 34        	ldx	$34                     ; 0x34 <kernelError>
    19e2: a0 00        	ldy	#$0
    19e4: 84 12        	sty	$12                     ; 0x12 <__rc2>
    19e6: a0 00        	ldy	#$0
    19e8: 84 13        	sty	$13                     ; 0x13 <__rc3>
    19ea: 8a           	txa
    19eb: f0 01        	beq	$19ee <fileOpen+0x102>
    19ed: 60           	rts
    19ee: a6 3c        	ldx	$3c                     ; 0x3c <__rc31+0xd>
    19f0: 86 3e        	stx	$3e                     ; 0x3e <__rc31+0xf>
    19f2: a2 3d        	ldx	#$3d
    19f4: a0 00        	ldy	#$0
    19f6: 86 14        	stx	$14                     ; 0x14 <__rc4>
    19f8: 84 15        	sty	$15                     ; 0x15 <__rc5>
    19fa: a2 34        	ldx	#$34
    19fc: 86 16        	stx	$16                     ; 0x16 <__rc6>
    19fe: a2 00        	ldx	#$0
    1a00: 86 17        	stx	$17                     ; 0x17 <__rc7>
    1a02: 64 35        	stz	$35                     ; 0x35 <kernelEventData>
    1a04: 20 00 ff     	jsr	$ff00 <end_block9+0xc99a>
    1a07: 92 14        	sta	($14)                   ; 0x14 <__rc4>
    1a09: a9 00        	lda	#$0
    1a0b: 6a           	ror
    1a0c: 85 16        	sta	$16                     ; 0x16 <__rc6>
    1a0e: a6 35        	ldx	$35                     ; 0x35 <kernelEventData>
    1a10: e0 28        	cpx	#$28
    1a12: f0 d9        	beq	$19ed <fileOpen+0x101>
    1a14: e0 38        	cpx	#$38
    1a16: f0 d5        	beq	$19ed <fileOpen+0x101>
    1a18: e0 2a        	cpx	#$2a
    1a1a: d0 e6        	bne	$1a02 <fileOpen+0x116>
    1a1c: a9 01        	lda	#$1
    1a1e: a2 00        	ldx	#$0
    1a20: 20 20 32     	jsr	$3220 <malloc>
    1a23: a5 3e        	lda	$3e                     ; 0x3e <__rc31+0xf>
    1a25: 92 12        	sta	($12)                   ; 0x12 <__rc2>
    1a27: 60           	rts

00001a28 <read8KChunk>:
    1a28: a6 12        	ldx	$12                     ; 0x12 <__rc2>
    1a2a: 86 3e        	stx	$3e                     ; 0x3e <__rc31+0xf>
    1a2c: a6 13        	ldx	$13                     ; 0x13 <__rc3>
    1a2e: 86 3f        	stx	$3f                     ; 0x3f <__rc31+0x10>
    1a30: a6 14        	ldx	$14                     ; 0x14 <__rc4>
    1a32: 86 3c        	stx	$3c                     ; 0x3c <__rc31+0xd>
    1a34: a6 15        	ldx	$15                     ; 0x15 <__rc5>
    1a36: 86 3d        	stx	$3d                     ; 0x3d <__rc31+0xe>
    1a38: a2 40        	ldx	#$40
    1a3a: a0 80        	ldy	#$80
    1a3c: 84 41        	sty	$41                     ; 0x41 <__rc31+0x12>
    1a3e: a4 3e        	ldy	$3e                     ; 0x3e <__rc31+0xf>
    1a40: 84 12        	sty	$12                     ; 0x12 <__rc2>
    1a42: a4 3f        	ldy	$3f                     ; 0x3f <__rc31+0x10>
    1a44: 84 13        	sty	$13                     ; 0x13 <__rc3>
    1a46: a4 3c        	ldy	$3c                     ; 0x3c <__rc31+0xd>
    1a48: 84 14        	sty	$14                     ; 0x14 <__rc4>
    1a4a: a4 3d        	ldy	$3d                     ; 0x3d <__rc31+0xe>
    1a4c: 84 15        	sty	$15                     ; 0x15 <__rc5>
    1a4e: 86 40        	stx	$40                     ; 0x40 <__rc31+0x11>
    1a50: a2 00        	ldx	#$0
    1a52: a5 41        	lda	$41                     ; 0x41 <__rc31+0x12>
    1a54: 20 6b 1a     	jsr	$1a6b <fileRead>
    1a57: a6 40        	ldx	$40                     ; 0x40 <__rc31+0x11>
    1a59: ca           	dex
    1a5a: a5 3e        	lda	$3e                     ; 0x3e <__rc31+0xf>
    1a5c: 18           	clc
    1a5d: 69 80        	adc	#$80
    1a5f: 85 3e        	sta	$3e                     ; 0x3e <__rc31+0xf>
    1a61: a5 3f        	lda	$3f                     ; 0x3f <__rc31+0x10>
    1a63: 69 00        	adc	#$0
    1a65: 85 3f        	sta	$3f                     ; 0x3f <__rc31+0x10>
    1a67: 8a           	txa
    1a68: d0 d4        	bne	$1a3e <read8KChunk+0x16>
    1a6a: 60           	rts

00001a6b <fileRead>:
    1a6b: 85 16        	sta	$16                     ; 0x16 <__rc6>
    1a6d: 86 17        	stx	$17                     ; 0x17 <__rc7>
    1a6f: 64 18        	stz	$18                     ; 0x18 <__rc8>
    1a71: a6 12        	ldx	$12                     ; 0x12 <__rc2>
    1a73: 86 19        	stx	$19                     ; 0x19 <__rc9>
    1a75: a6 13        	ldx	$13                     ; 0x13 <__rc3>
    1a77: 86 1a        	stx	$1a                     ; 0x1a <__rc10>
    1a79: a2 00        	ldx	#$0
    1a7b: 86 1b        	stx	$1b                     ; 0x1b <__rc11>
    1a7d: a2 4b        	ldx	#$4b
    1a7f: 86 49        	stx	$49                     ; 0x49 <__bss_size+0x3>
    1a81: a2 00        	ldx	#$0
    1a83: 86 4a        	stx	$4a                     ; 0x4a <__bss_size+0x4>
    1a85: a9 4c        	lda	#$4c
    1a87: 85 23        	sta	$23                     ; 0x23 <__rc19>
    1a89: 64 12        	stz	$12                     ; 0x12 <__rc2>
    1a8b: a9 00        	lda	#$0
    1a8d: 85 42        	sta	$42                     ; 0x42 <__rc31+0x13>
    1a8f: a9 4d        	lda	#$4d
    1a91: 85 43        	sta	$43                     ; 0x43 <__rc31+0x14>
    1a93: a9 00        	lda	#$0
    1a95: 85 44        	sta	$44                     ; 0x44 <__rc31+0x15>
    1a97: a9 4e        	lda	#$4e
    1a99: 85 45        	sta	$45                     ; 0x45 <__rc31+0x16>
    1a9b: a9 00        	lda	#$0
    1a9d: 85 46        	sta	$46                     ; 0x46 <__bss_size>
    1a9f: a9 4f        	lda	#$4f
    1aa1: 85 47        	sta	$47                     ; 0x47 <__bss_size+0x1>
    1aa3: a9 00        	lda	#$0
    1aa5: 85 48        	sta	$48                     ; 0x48 <__bss_size+0x2>
    1aa7: b2 14        	lda	($14)                   ; 0x14 <__rc4>
    1aa9: a8           	tay
    1aaa: a6 19        	ldx	$19                     ; 0x19 <__rc9>
    1aac: 86 13        	stx	$13                     ; 0x13 <__rc3>
    1aae: a5 19        	lda	$19                     ; 0x19 <__rc9>
    1ab0: a6 1b        	ldx	$1b                     ; 0x1b <__rc11>
    1ab2: e0 01        	cpx	#$1
    1ab4: 65 18        	adc	$18                     ; 0x18 <__rc8>
    1ab6: aa           	tax
    1ab7: a5 1a        	lda	$1a                     ; 0x1a <__rc10>
    1ab9: 85 22        	sta	$22                     ; 0x22 <__rc18>
    1abb: a5 1a        	lda	$1a                     ; 0x1a <__rc10>
    1abd: 65 12        	adc	$12                     ; 0x12 <__rc2>
    1abf: c0 00        	cpy	#$0
    1ac1: d0 03        	bne	$1ac6 <fileRead+0x5b>
    1ac3: 4c 52 1b     	jmp	$1b52 <fileRead+0xe7>
    1ac6: 85 1e        	sta	$1e                     ; 0x1e <__rc14>
    1ac8: a5 16        	lda	$16                     ; 0x16 <__rc6>
    1aca: 38           	sec
    1acb: e5 18        	sbc	$18                     ; 0x18 <__rc8>
    1acd: 84 f3        	sty	$f3                     ; 0xf3 <__bss_size+0xad>
    1acf: 85 f4        	sta	$f4                     ; 0xf4 <__bss_size+0xae>
    1ad1: a5 43        	lda	$43                     ; 0x43 <__rc31+0x14>
    1ad3: 85 1a        	sta	$1a                     ; 0x1a <__rc10>
    1ad5: a5 44        	lda	$44                     ; 0x44 <__rc31+0x15>
    1ad7: 85 1b        	sta	$1b                     ; 0x1b <__rc11>
    1ad9: a9 34        	lda	#$34
    1adb: 85 1c        	sta	$1c                     ; 0x1c <__rc12>
    1add: a9 00        	lda	#$0
    1adf: 85 1d        	sta	$1d                     ; 0x1d <__rc13>
    1ae1: 20 60 ff     	jsr	$ff60 <end_block9+0xc9fa>
    1ae4: 92 1a        	sta	($1a)                   ; 0x1a <__rc10>
    1ae6: a9 00        	lda	#$0
    1ae8: 6a           	ror
    1ae9: 85 1c        	sta	$1c                     ; 0x1c <__rc12>
    1aeb: a4 34        	ldy	$34                     ; 0x34 <kernelError>
    1aed: a9 ff        	lda	#$ff
    1aef: 85 19        	sta	$19                     ; 0x19 <__rc9>
    1af1: 98           	tya
    1af2: f0 03        	beq	$1af7 <fileRead+0x8c>
    1af4: 4c d0 1b     	jmp	$1bd0 <fileRead+0x165>
    1af7: 64 35        	stz	$35                     ; 0x35 <kernelEventData>
    1af9: a5 45        	lda	$45                     ; 0x45 <__rc31+0x16>
    1afb: 85 1a        	sta	$1a                     ; 0x1a <__rc10>
    1afd: a5 46        	lda	$46                     ; 0x46 <__bss_size>
    1aff: 85 1b        	sta	$1b                     ; 0x1b <__rc11>
    1b01: a9 34        	lda	#$34
    1b03: 85 1c        	sta	$1c                     ; 0x1c <__rc12>
    1b05: a9 00        	lda	#$0
    1b07: 85 1d        	sta	$1d                     ; 0x1d <__rc13>
    1b09: 20 00 ff     	jsr	$ff00 <end_block9+0xc99a>
    1b0c: 92 1a        	sta	($1a)                   ; 0x1a <__rc10>
    1b0e: a9 00        	lda	#$0
    1b10: 6a           	ror
    1b11: 85 1c        	sta	$1c                     ; 0x1c <__rc12>
    1b13: a5 35        	lda	$35                     ; 0x35 <kernelEventData>
    1b15: c9 38        	cmp	#$38
    1b17: d0 03        	bne	$1b1c <fileRead+0xb1>
    1b19: 4c d0 1b     	jmp	$1bd0 <fileRead+0x165>
    1b1c: c9 30        	cmp	#$30
    1b1e: d0 03        	bne	$1b23 <fileRead+0xb8>
    1b20: 4c d9 1b     	jmp	$1bd9 <fileRead+0x16e>
    1b23: c9 2c        	cmp	#$2c
    1b25: d0 d0        	bne	$1af7 <fileRead+0x8c>
    1b27: 86 fb        	stx	$fb                     ; 0xfb <__bss_size+0xb5>
    1b29: a4 1e        	ldy	$1e                     ; 0x1e <__rc14>
    1b2b: 84 fc        	sty	$fc                     ; 0xfc <__bss_size+0xb6>
    1b2d: a5 3b        	lda	$3b                     ; 0x3b <kernelEventData+0x6>
    1b2f: 85 fd        	sta	$fd                     ; 0xfd <__bss_size+0xb7>
    1b31: a5 47        	lda	$47                     ; 0x47 <__bss_size+0x1>
    1b33: 85 1a        	sta	$1a                     ; 0x1a <__rc10>
    1b35: a5 48        	lda	$48                     ; 0x48 <__bss_size+0x2>
    1b37: 85 1b        	sta	$1b                     ; 0x1b <__rc11>
    1b39: a9 34        	lda	#$34
    1b3b: 85 1c        	sta	$1c                     ; 0x1c <__rc12>
    1b3d: a9 00        	lda	#$0
    1b3f: 85 1d        	sta	$1d                     ; 0x1d <__rc13>
    1b41: 20 04 ff     	jsr	$ff04 <end_block9+0xc99e>
    1b44: 92 1a        	sta	($1a)                   ; 0x1a <__rc10>
    1b46: a9 00        	lda	#$0
    1b48: 6a           	ror
    1b49: 85 1c        	sta	$1c                     ; 0x1c <__rc12>
    1b4b: a5 3b        	lda	$3b                     ; 0x3b <kernelEventData+0x6>
    1b4d: d0 4b        	bne	$1b9a <fileRead+0x12f>
    1b4f: 4c de 1b     	jmp	$1bde <fileRead+0x173>
    1b52: 86 1a        	stx	$1a                     ; 0x1a <__rc10>
    1b54: 85 1b        	sta	$1b                     ; 0x1b <__rc11>
    1b56: 80 12        	bra	$1b6a <fileRead+0xff>
    1b58: a6 23        	ldx	$23                     ; 0x23 <__rc19>
    1b5a: 86 1e        	stx	$1e                     ; 0x1e <__rc14>
    1b5c: a5 42        	lda	$42                     ; 0x42 <__rc31+0x13>
    1b5e: 85 1f        	sta	$1f                     ; 0x1f <__rc15>
    1b60: 20 0c ff     	jsr	$ff0c <end_block9+0xc9a6>
    1b63: 92 1e        	sta	($1e)                   ; 0x1e <__rc14>
    1b65: a9 00        	lda	#$0
    1b67: 6a           	ror
    1b68: 85 1c        	sta	$1c                     ; 0x1c <__rc12>
    1b6a: 64 35        	stz	$35                     ; 0x35 <kernelEventData>
    1b6c: a6 49        	ldx	$49                     ; 0x49 <__bss_size+0x3>
    1b6e: 86 1e        	stx	$1e                     ; 0x1e <__rc14>
    1b70: a6 4a        	ldx	$4a                     ; 0x4a <__bss_size+0x4>
    1b72: 86 1f        	stx	$1f                     ; 0x1f <__rc15>
    1b74: a9 34        	lda	#$34
    1b76: 85 1c        	sta	$1c                     ; 0x1c <__rc12>
    1b78: a9 00        	lda	#$0
    1b7a: 85 1d        	sta	$1d                     ; 0x1d <__rc13>
    1b7c: 20 00 ff     	jsr	$ff00 <end_block9+0xc99a>
    1b7f: 92 1e        	sta	($1e)                   ; 0x1e <__rc14>
    1b81: a9 00        	lda	#$0
    1b83: 6a           	ror
    1b84: 85 1c        	sta	$1c                     ; 0x1c <__rc12>
    1b86: a5 34        	lda	$34                     ; 0x34 <kernelError>
    1b88: d0 ce        	bne	$1b58 <fileRead+0xed>
    1b8a: a5 35        	lda	$35                     ; 0x35 <kernelEventData>
    1b8c: c9 08        	cmp	#$8
    1b8e: d0 da        	bne	$1b6a <fileRead+0xff>
    1b90: a5 3b        	lda	$3b                     ; 0x3b <kernelEventData+0x6>
    1b92: d0 d6        	bne	$1b6a <fileRead+0xff>
    1b94: a5 3a        	lda	$3a                     ; 0x3a <kernelEventData+0x5>
    1b96: 92 1a        	sta	($1a)                   ; 0x1a <__rc10>
    1b98: a9 01        	lda	#$1
    1b9a: a0 00        	ldy	#$0
    1b9c: 18           	clc
    1b9d: b8           	clv
    1b9e: a2 01        	ldx	#$1
    1ba0: 70 02        	bvs	$1ba4 <fileRead+0x139>
    1ba2: a2 00        	ldx	#$0
    1ba4: 86 1b        	stx	$1b                     ; 0x1b <__rc11>
    1ba6: 65 18        	adc	$18                     ; 0x18 <__rc8>
    1ba8: 85 1c        	sta	$1c                     ; 0x1c <__rc12>
    1baa: 98           	tya
    1bab: 65 12        	adc	$12                     ; 0x12 <__rc2>
    1bad: aa           	tax
    1bae: c5 17        	cmp	$17                     ; 0x17 <__rc7>
    1bb0: d0 06        	bne	$1bb8 <fileRead+0x14d>
    1bb2: a4 1c        	ldy	$1c                     ; 0x1c <__rc12>
    1bb4: c4 16        	cpy	$16                     ; 0x16 <__rc6>
    1bb6: 80 04        	bra	$1bbc <fileRead+0x151>
    1bb8: e4 17        	cpx	$17                     ; 0x17 <__rc7>
    1bba: a4 1c        	ldy	$1c                     ; 0x1c <__rc12>
    1bbc: 84 18        	sty	$18                     ; 0x18 <__rc8>
    1bbe: 85 12        	sta	$12                     ; 0x12 <__rc2>
    1bc0: a4 13        	ldy	$13                     ; 0x13 <__rc3>
    1bc2: 84 19        	sty	$19                     ; 0x19 <__rc9>
    1bc4: a4 22        	ldy	$22                     ; 0x22 <__rc18>
    1bc6: 84 1a        	sty	$1a                     ; 0x1a <__rc10>
    1bc8: b0 03        	bcs	$1bcd <fileRead+0x162>
    1bca: 4c a7 1a     	jmp	$1aa7 <fileRead+0x3c>
    1bcd: a5 1c        	lda	$1c                     ; 0x1c <__rc12>
    1bcf: 60           	rts
    1bd0: a2 ff        	ldx	#$ff
    1bd2: a4 19        	ldy	$19                     ; 0x19 <__rc9>
    1bd4: 84 1c        	sty	$1c                     ; 0x1c <__rc12>
    1bd6: a5 1c        	lda	$1c                     ; 0x1c <__rc12>
    1bd8: 60           	rts
    1bd9: a6 12        	ldx	$12                     ; 0x12 <__rc2>
    1bdb: a5 18        	lda	$18                     ; 0x18 <__rc8>
    1bdd: 60           	rts
    1bde: a9 00        	lda	#$0
    1be0: a0 01        	ldy	#$1
    1be2: 80 b8        	bra	$1b9c <fileRead+0x131>

00001be4 <fileClose>:
    1be4: a2 00        	ldx	#$0
    1be6: a0 10        	ldy	#$10
    1be8: a9 66        	lda	#$66
    1bea: 86 14        	stx	$14                     ; 0x14 <__rc4>
    1bec: 84 15        	sty	$15                     ; 0x15 <__rc5>
    1bee: 18           	clc
    1bef: 65 14        	adc	$14                     ; 0x14 <__rc4>
    1bf1: a2 00        	ldx	#$0
    1bf3: 86 1c        	stx	$1c                     ; 0x1c <__rc12>
    1bf5: 85 1a        	sta	$1a                     ; 0x1a <__rc10>
    1bf7: a9 35        	lda	#$35
    1bf9: 65 15        	adc	$15                     ; 0x15 <__rc5>
    1bfb: 85 1b        	sta	$1b                     ; 0x1b <__rc11>
    1bfd: b2 12        	lda	($12)                   ; 0x12 <__rc2>
    1bff: 85 f3        	sta	$f3                     ; 0xf3 <__bss_size+0xad>
    1c01: a2 3d        	ldx	#$3d
    1c03: a0 00        	ldy	#$0
    1c05: 86 16        	stx	$16                     ; 0x16 <__rc6>
    1c07: 84 17        	sty	$17                     ; 0x17 <__rc7>
    1c09: a2 34        	ldx	#$34
    1c0b: 86 18        	stx	$18                     ; 0x18 <__rc8>
    1c0d: a2 00        	ldx	#$0
    1c0f: 86 19        	stx	$19                     ; 0x19 <__rc9>
    1c11: a5 12        	lda	$12                     ; 0x12 <__rc2>
    1c13: 18           	clc
    1c14: 69 fe        	adc	#$fe
    1c16: 85 1d        	sta	$1d                     ; 0x1d <__rc13>
    1c18: a5 13        	lda	$13                     ; 0x13 <__rc3>
    1c1a: 69 ff        	adc	#$ff
    1c1c: a6 1d        	ldx	$1d                     ; 0x1d <__rc13>
    1c1e: 86 14        	stx	$14                     ; 0x14 <__rc4>
    1c20: aa           	tax
    1c21: 85 15        	sta	$15                     ; 0x15 <__rc5>
    1c23: 20 68 ff     	jsr	$ff68 <end_block9+0xca02>
    1c26: 92 16        	sta	($16)                   ; 0x16 <__rc6>
    1c28: a9 00        	lda	#$0
    1c2a: 6a           	ror
    1c2b: 85 18        	sta	$18                     ; 0x18 <__rc8>
    1c2d: b2 14        	lda	($14)                   ; 0x14 <__rc4>
    1c2f: 85 1e        	sta	$1e                     ; 0x1e <__rc14>
    1c31: a0 01        	ldy	#$1
    1c33: b1 14        	lda	($14),y                 ; 0x14 <__rc4>
    1c35: 85 16        	sta	$16                     ; 0x16 <__rc6>
    1c37: a9 fe        	lda	#$fe
    1c39: 32 14        	and	($14)                   ; 0x14 <__rc4>
    1c3b: 85 17        	sta	$17                     ; 0x17 <__rc7>
    1c3d: a5 1d        	lda	$1d                     ; 0x1d <__rc13>
    1c3f: 5a           	phy
    1c40: a4 1c        	ldy	$1c                     ; 0x1c <__rc12>
    1c42: c0 01        	cpy	#$1
    1c44: 7a           	ply
    1c45: 65 17        	adc	$17                     ; 0x17 <__rc7>
    1c47: 85 18        	sta	$18                     ; 0x18 <__rc8>
    1c49: 8a           	txa
    1c4a: 86 1c        	stx	$1c                     ; 0x1c <__rc12>
    1c4c: 65 16        	adc	$16                     ; 0x16 <__rc6>
    1c4e: c5 1b        	cmp	$1b                     ; 0x1b <__rc11>
    1c50: d0 10        	bne	$1c62 <fileClose+0x7e>
    1c52: a6 18        	ldx	$18                     ; 0x18 <__rc8>
    1c54: e4 1a        	cpx	$1a                     ; 0x1a <__rc10>
    1c56: d0 0a        	bne	$1c62 <fileClose+0x7e>
    1c58: a2 00        	ldx	#$0
    1c5a: 86 18        	stx	$18                     ; 0x18 <__rc8>
    1c5c: a2 00        	ldx	#$0
    1c5e: 86 19        	stx	$19                     ; 0x19 <__rc9>
    1c60: 80 02        	bra	$1c64 <fileClose+0x80>
    1c62: 85 19        	sta	$19                     ; 0x19 <__rc9>
    1c64: a5 1e        	lda	$1e                     ; 0x1e <__rc14>
    1c66: 29 01        	and	#$1
    1c68: d0 03        	bne	$1c6d <fileClose+0x89>
    1c6a: 4c c7 1d     	jmp	$1dc7 <fileClose+0x1e3>
    1c6d: a5 12        	lda	$12                     ; 0x12 <__rc2>
    1c6f: 18           	clc
    1c70: 69 fc        	adc	#$fc
    1c72: 85 12        	sta	$12                     ; 0x12 <__rc2>
    1c74: a5 13        	lda	$13                     ; 0x13 <__rc3>
    1c76: 69 ff        	adc	#$ff
    1c78: 85 13        	sta	$13                     ; 0x13 <__rc3>
    1c7a: a9 00        	lda	#$0
    1c7c: 38           	sec
    1c7d: f2 12        	sbc	($12)                   ; 0x12 <__rc2>
    1c7f: 85 14        	sta	$14                     ; 0x14 <__rc4>
    1c81: a9 00        	lda	#$0
    1c83: f1 12        	sbc	($12),y                 ; 0x12 <__rc2>
    1c85: 85 12        	sta	$12                     ; 0x12 <__rc2>
    1c87: a5 1d        	lda	$1d                     ; 0x1d <__rc13>
    1c89: 18           	clc
    1c8a: 65 14        	adc	$14                     ; 0x14 <__rc4>
    1c8c: 85 14        	sta	$14                     ; 0x14 <__rc4>
    1c8e: 85 1f        	sta	$1f                     ; 0x1f <__rc15>
    1c90: a5 1c        	lda	$1c                     ; 0x1c <__rc12>
    1c92: 65 12        	adc	$12                     ; 0x12 <__rc2>
    1c94: 85 15        	sta	$15                     ; 0x15 <__rc5>
    1c96: 85 13        	sta	$13                     ; 0x13 <__rc3>
    1c98: b1 14        	lda	($14),y                 ; 0x14 <__rc4>
    1c9a: a8           	tay
    1c9b: a2 01        	ldx	#$1
    1c9d: 86 1e        	stx	$1e                     ; 0x1e <__rc14>
    1c9f: a9 fe        	lda	#$fe
    1ca1: 32 14        	and	($14)                   ; 0x14 <__rc4>
    1ca3: ae 62 35     	ldx	$3562                   ; 0x3562 <_ZN12_GLOBAL__N_19free_sizeE>
    1ca6: 85 3f        	sta	$3f                     ; 0x3f <__rc31+0x10>
    1ca8: 85 12        	sta	$12                     ; 0x12 <__rc2>
    1caa: 38           	sec
    1cab: 8a           	txa
    1cac: e5 12        	sbc	$12                     ; 0x12 <__rc2>
    1cae: 85 1c        	sta	$1c                     ; 0x1c <__rc12>
    1cb0: 84 12        	sty	$12                     ; 0x12 <__rc2>
    1cb2: a6 12        	ldx	$12                     ; 0x12 <__rc2>
    1cb4: 86 40        	stx	$40                     ; 0x40 <__rc31+0x11>
    1cb6: ad 63 35     	lda	$3563                   ; 0x3563 <_ZN12_GLOBAL__N_19free_sizeE+0x1>
    1cb9: e5 12        	sbc	$12                     ; 0x12 <__rc2>
    1cbb: aa           	tax
    1cbc: 18           	clc
    1cbd: a5 1c        	lda	$1c                     ; 0x1c <__rc12>
    1cbf: 69 02        	adc	#$2
    1cc1: 85 12        	sta	$12                     ; 0x12 <__rc2>
    1cc3: 8a           	txa
    1cc4: 69 00        	adc	#$0
    1cc6: a6 12        	ldx	$12                     ; 0x12 <__rc2>
    1cc8: 8e 62 35     	stx	$3562                   ; 0x3562 <_ZN12_GLOBAL__N_19free_sizeE>
    1ccb: 8d 63 35     	sta	$3563                   ; 0x3563 <_ZN12_GLOBAL__N_19free_sizeE+0x1>
    1cce: a6 1f        	ldx	$1f                     ; 0x1f <__rc15>
    1cd0: 86 1d        	stx	$1d                     ; 0x1d <__rc13>
    1cd2: a5 1f        	lda	$1f                     ; 0x1f <__rc15>
    1cd4: 18           	clc
    1cd5: 69 02        	adc	#$2
    1cd7: 85 12        	sta	$12                     ; 0x12 <__rc2>
    1cd9: a6 13        	ldx	$13                     ; 0x13 <__rc3>
    1cdb: 86 1c        	stx	$1c                     ; 0x1c <__rc12>
    1cdd: a5 13        	lda	$13                     ; 0x13 <__rc3>
    1cdf: 69 00        	adc	#$0
    1ce1: a0 02        	ldy	#$2
    1ce3: 85 13        	sta	$13                     ; 0x13 <__rc3>
    1ce5: b1 14        	lda	($14),y                 ; 0x14 <__rc4>
    1ce7: 85 1f        	sta	$1f                     ; 0x1f <__rc15>
    1ce9: a4 1e        	ldy	$1e                     ; 0x1e <__rc14>
    1ceb: b1 12        	lda	($12),y                 ; 0x12 <__rc2>
    1ced: 85 23        	sta	$23                     ; 0x23 <__rc19>
    1cef: c5 15        	cmp	$15                     ; 0x15 <__rc5>
    1cf1: d0 11        	bne	$1d04 <fileClose+0x120>
    1cf3: a4 1f        	ldy	$1f                     ; 0x1f <__rc15>
    1cf5: c4 14        	cpy	$14                     ; 0x14 <__rc4>
    1cf7: d0 0d        	bne	$1d06 <fileClose+0x122>
    1cf9: a2 00        	ldx	#$0
    1cfb: 86 12        	stx	$12                     ; 0x12 <__rc2>
    1cfd: a2 00        	ldx	#$0
    1cff: 86 13        	stx	$13                     ; 0x13 <__rc3>
    1d01: 4c af 1d     	jmp	$1daf <fileClose+0x1cb>
    1d04: a4 1f        	ldy	$1f                     ; 0x1f <__rc15>
    1d06: a6 1b        	ldx	$1b                     ; 0x1b <__rc11>
    1d08: 86 43        	stx	$43                     ; 0x43 <__rc31+0x14>
    1d0a: a6 16        	ldx	$16                     ; 0x16 <__rc6>
    1d0c: 86 42        	stx	$42                     ; 0x42 <__rc31+0x13>
    1d0e: a6 1a        	ldx	$1a                     ; 0x1a <__rc10>
    1d10: 86 41        	stx	$41                     ; 0x41 <__rc31+0x12>
    1d12: 84 22        	sty	$22                     ; 0x22 <__rc18>
    1d14: a6 1d        	ldx	$1d                     ; 0x1d <__rc13>
    1d16: 86 1e        	stx	$1e                     ; 0x1e <__rc14>
    1d18: a5 1d        	lda	$1d                     ; 0x1d <__rc13>
    1d1a: 18           	clc
    1d1b: 69 04        	adc	#$4
    1d1d: 85 12        	sta	$12                     ; 0x12 <__rc2>
    1d1f: a6 1c        	ldx	$1c                     ; 0x1c <__rc12>
    1d21: 86 16        	stx	$16                     ; 0x16 <__rc6>
    1d23: a5 1c        	lda	$1c                     ; 0x1c <__rc12>
    1d25: 69 00        	adc	#$0
    1d27: a0 04        	ldy	#$4
    1d29: 85 13        	sta	$13                     ; 0x13 <__rc3>
    1d2b: b1 14        	lda	($14),y                 ; 0x14 <__rc4>
    1d2d: 85 1f        	sta	$1f                     ; 0x1f <__rc15>
    1d2f: a2 04        	ldx	#$4
    1d31: 18           	clc
    1d32: 69 02        	adc	#$2
    1d34: 85 1c        	sta	$1c                     ; 0x1c <__rc12>
    1d36: a0 01        	ldy	#$1
    1d38: b1 12        	lda	($12),y                 ; 0x12 <__rc2>
    1d3a: 85 1a        	sta	$1a                     ; 0x1a <__rc10>
    1d3c: 84 1b        	sty	$1b                     ; 0x1b <__rc11>
    1d3e: 69 00        	adc	#$0
    1d40: a6 1c        	ldx	$1c                     ; 0x1c <__rc12>
    1d42: 86 12        	stx	$12                     ; 0x12 <__rc2>
    1d44: 85 13        	sta	$13                     ; 0x13 <__rc3>
    1d46: a6 1f        	ldx	$1f                     ; 0x1f <__rc15>
    1d48: 86 1c        	stx	$1c                     ; 0x1c <__rc12>
    1d4a: a6 1a        	ldx	$1a                     ; 0x1a <__rc10>
    1d4c: 86 1d        	stx	$1d                     ; 0x1d <__rc13>
    1d4e: a5 22        	lda	$22                     ; 0x22 <__rc18>
    1d50: c8           	iny
    1d51: 91 1c        	sta	($1c),y                 ; 0x1c <__rc12>
    1d53: 84 1c        	sty	$1c                     ; 0x1c <__rc12>
    1d55: a5 23        	lda	$23                     ; 0x23 <__rc19>
    1d57: a4 1b        	ldy	$1b                     ; 0x1b <__rc11>
    1d59: 91 12        	sta	($12),y                 ; 0x12 <__rc2>
    1d5b: 18           	clc
    1d5c: a5 1e        	lda	$1e                     ; 0x1e <__rc14>
    1d5e: 69 02        	adc	#$2
    1d60: 85 12        	sta	$12                     ; 0x12 <__rc2>
    1d62: a5 16        	lda	$16                     ; 0x16 <__rc6>
    1d64: 69 00        	adc	#$0
    1d66: 85 13        	sta	$13                     ; 0x13 <__rc3>
    1d68: a4 1c        	ldy	$1c                     ; 0x1c <__rc12>
    1d6a: b1 14        	lda	($14),y                 ; 0x14 <__rc4>
    1d6c: 85 1c        	sta	$1c                     ; 0x1c <__rc12>
    1d6e: a4 1b        	ldy	$1b                     ; 0x1b <__rc11>
    1d70: b1 12        	lda	($12),y                 ; 0x12 <__rc2>
    1d72: 84 16        	sty	$16                     ; 0x16 <__rc6>
    1d74: a6 1c        	ldx	$1c                     ; 0x1c <__rc12>
    1d76: 86 12        	stx	$12                     ; 0x12 <__rc2>
    1d78: 85 13        	sta	$13                     ; 0x13 <__rc3>
    1d7a: 85 1d        	sta	$1d                     ; 0x1d <__rc13>
    1d7c: a0 04        	ldy	#$4
    1d7e: a5 1f        	lda	$1f                     ; 0x1f <__rc15>
    1d80: 91 12        	sta	($12),y                 ; 0x12 <__rc2>
    1d82: 18           	clc
    1d83: a5 1c        	lda	$1c                     ; 0x1c <__rc12>
    1d85: 69 04        	adc	#$4
    1d87: 85 1c        	sta	$1c                     ; 0x1c <__rc12>
    1d89: a5 1d        	lda	$1d                     ; 0x1d <__rc13>
    1d8b: 69 00        	adc	#$0
    1d8d: 85 1d        	sta	$1d                     ; 0x1d <__rc13>
    1d8f: a5 1a        	lda	$1a                     ; 0x1a <__rc10>
    1d91: a4 16        	ldy	$16                     ; 0x16 <__rc6>
    1d93: 91 1c        	sta	($1c),y                 ; 0x1c <__rc12>
    1d95: ae 65 35     	ldx	$3565                   ; 0x3565 <_ZN12_GLOBAL__N_19free_listE+0x1>
    1d98: a4 41        	ldy	$41                     ; 0x41 <__rc31+0x12>
    1d9a: 84 1a        	sty	$1a                     ; 0x1a <__rc10>
    1d9c: a4 42        	ldy	$42                     ; 0x42 <__rc31+0x13>
    1d9e: 84 16        	sty	$16                     ; 0x16 <__rc6>
    1da0: a4 43        	ldy	$43                     ; 0x43 <__rc31+0x14>
    1da2: 84 1b        	sty	$1b                     ; 0x1b <__rc11>
    1da4: e4 15        	cpx	$15                     ; 0x15 <__rc5>
    1da6: d0 11        	bne	$1db9 <fileClose+0x1d5>
    1da8: ae 64 35     	ldx	$3564                   ; 0x3564 <_ZN12_GLOBAL__N_19free_listE>
    1dab: e4 14        	cpx	$14                     ; 0x14 <__rc4>
    1dad: d0 0a        	bne	$1db9 <fileClose+0x1d5>
    1daf: a6 12        	ldx	$12                     ; 0x12 <__rc2>
    1db1: a4 13        	ldy	$13                     ; 0x13 <__rc3>
    1db3: 8e 64 35     	stx	$3564                   ; 0x3564 <_ZN12_GLOBAL__N_19free_listE>
    1db6: 8c 65 35     	sty	$3565                   ; 0x3565 <_ZN12_GLOBAL__N_19free_listE+0x1>
    1db9: 18           	clc
    1dba: a6 3f        	ldx	$3f                     ; 0x3f <__rc31+0x10>
    1dbc: 8a           	txa
    1dbd: 65 17        	adc	$17                     ; 0x17 <__rc7>
    1dbf: 85 17        	sta	$17                     ; 0x17 <__rc7>
    1dc1: a5 40        	lda	$40                     ; 0x40 <__rc31+0x11>
    1dc3: 65 16        	adc	$16                     ; 0x16 <__rc6>
    1dc5: 85 16        	sta	$16                     ; 0x16 <__rc6>
    1dc7: a2 00        	ldx	#$0
    1dc9: 86 12        	stx	$12                     ; 0x12 <__rc2>
    1dcb: a2 00        	ldx	#$0
    1dcd: 86 13        	stx	$13                     ; 0x13 <__rc3>
    1dcf: a6 19        	ldx	$19                     ; 0x19 <__rc9>
    1dd1: e4 13        	cpx	$13                     ; 0x13 <__rc3>
    1dd3: d0 0e        	bne	$1de3 <fileClose+0x1ff>
    1dd5: a6 18        	ldx	$18                     ; 0x18 <__rc8>
    1dd7: e4 12        	cpx	$12                     ; 0x12 <__rc2>
    1dd9: d0 08        	bne	$1de3 <fileClose+0x1ff>
    1ddb: a2 01        	ldx	#$1
    1ddd: 8e 61 35     	stx	$3561                   ; 0x3561 <_ZN12_GLOBAL__N_19last_freeE>
    1de0: 4c 18 1f     	jmp	$1f18 <fileClose+0x334>
    1de3: b2 18        	lda	($18)                   ; 0x18 <__rc8>
    1de5: 85 1e        	sta	$1e                     ; 0x1e <__rc14>
    1de7: a0 01        	ldy	#$1
    1de9: b1 18        	lda	($18),y                 ; 0x18 <__rc8>
    1deb: aa           	tax
    1dec: a9 fe        	lda	#$fe
    1dee: 32 18        	and	($18)                   ; 0x18 <__rc8>
    1df0: 18           	clc
    1df1: 85 3c        	sta	$3c                     ; 0x3c <__rc31+0xd>
    1df3: 65 18        	adc	$18                     ; 0x18 <__rc8>
    1df5: 85 12        	sta	$12                     ; 0x12 <__rc2>
    1df7: 8a           	txa
    1df8: 86 1c        	stx	$1c                     ; 0x1c <__rc12>
    1dfa: 65 19        	adc	$19                     ; 0x19 <__rc9>
    1dfc: c5 1b        	cmp	$1b                     ; 0x1b <__rc11>
    1dfe: d0 1a        	bne	$1e1a <fileClose+0x236>
    1e00: a6 12        	ldx	$12                     ; 0x12 <__rc2>
    1e02: e4 1a        	cpx	$1a                     ; 0x1a <__rc10>
    1e04: d0 14        	bne	$1e1a <fileClose+0x236>
    1e06: ad 61 35     	lda	$3561                   ; 0x3561 <_ZN12_GLOBAL__N_19last_freeE>
    1e09: 29 01        	and	#$1
    1e0b: d0 15        	bne	$1e22 <fileClose+0x23e>
    1e0d: a5 1e        	lda	$1e                     ; 0x1e <__rc14>
    1e0f: 09 01        	ora	#$1
    1e11: 92 18        	sta	($18)                   ; 0x18 <__rc8>
    1e13: a5 1c        	lda	$1c                     ; 0x1c <__rc12>
    1e15: 91 18        	sta	($18),y                 ; 0x18 <__rc8>
    1e17: 4c 18 1f     	jmp	$1f18 <fileClose+0x334>
    1e1a: 85 13        	sta	$13                     ; 0x13 <__rc3>
    1e1c: a9 01        	lda	#$1
    1e1e: 32 12        	and	($12)                   ; 0x12 <__rc2>
    1e20: f0 eb        	beq	$1e0d <fileClose+0x229>
    1e22: ad 62 35     	lda	$3562                   ; 0x3562 <_ZN12_GLOBAL__N_19free_sizeE>
    1e25: ae 63 35     	ldx	$3563                   ; 0x3563 <_ZN12_GLOBAL__N_19free_sizeE+0x1>
    1e28: 86 13        	stx	$13                     ; 0x13 <__rc3>
    1e2a: 38           	sec
    1e2b: e5 3c        	sbc	$3c                     ; 0x3c <__rc31+0xd>
    1e2d: aa           	tax
    1e2e: a5 13        	lda	$13                     ; 0x13 <__rc3>
    1e30: e5 1c        	sbc	$1c                     ; 0x1c <__rc12>
    1e32: 85 12        	sta	$12                     ; 0x12 <__rc2>
    1e34: 18           	clc
    1e35: 8a           	txa
    1e36: 69 02        	adc	#$2
    1e38: 85 13        	sta	$13                     ; 0x13 <__rc3>
    1e3a: a5 12        	lda	$12                     ; 0x12 <__rc2>
    1e3c: 69 00        	adc	#$0
    1e3e: a6 13        	ldx	$13                     ; 0x13 <__rc3>
    1e40: 8e 62 35     	stx	$3562                   ; 0x3562 <_ZN12_GLOBAL__N_19free_sizeE>
    1e43: 8d 63 35     	sta	$3563                   ; 0x3563 <_ZN12_GLOBAL__N_19free_sizeE+0x1>
    1e46: a5 18        	lda	$18                     ; 0x18 <__rc8>
    1e48: 18           	clc
    1e49: 69 02        	adc	#$2
    1e4b: 85 12        	sta	$12                     ; 0x12 <__rc2>
    1e4d: a5 19        	lda	$19                     ; 0x19 <__rc9>
    1e4f: 69 00        	adc	#$0
    1e51: a0 02        	ldy	#$2
    1e53: 85 13        	sta	$13                     ; 0x13 <__rc3>
    1e55: b1 18        	lda	($18),y                 ; 0x18 <__rc8>
    1e57: 85 1a        	sta	$1a                     ; 0x1a <__rc10>
    1e59: 88           	dey
    1e5a: b1 12        	lda	($12),y                 ; 0x12 <__rc2>
    1e5c: 85 1f        	sta	$1f                     ; 0x1f <__rc15>
    1e5e: c5 19        	cmp	$19                     ; 0x19 <__rc9>
    1e60: d0 11        	bne	$1e73 <fileClose+0x28f>
    1e62: a4 1a        	ldy	$1a                     ; 0x1a <__rc10>
    1e64: c4 18        	cpy	$18                     ; 0x18 <__rc8>
    1e66: d0 0d        	bne	$1e75 <fileClose+0x291>
    1e68: a2 00        	ldx	#$0
    1e6a: 86 12        	stx	$12                     ; 0x12 <__rc2>
    1e6c: a2 00        	ldx	#$0
    1e6e: 86 13        	stx	$13                     ; 0x13 <__rc3>
    1e70: 4c 01 1f     	jmp	$1f01 <fileClose+0x31d>
    1e73: a4 1a        	ldy	$1a                     ; 0x1a <__rc10>
    1e75: a6 17        	ldx	$17                     ; 0x17 <__rc7>
    1e77: 86 3f        	stx	$3f                     ; 0x3f <__rc31+0x10>
    1e79: 84 1e        	sty	$1e                     ; 0x1e <__rc14>
    1e7b: a5 18        	lda	$18                     ; 0x18 <__rc8>
    1e7d: 18           	clc
    1e7e: 69 04        	adc	#$4
    1e80: 85 12        	sta	$12                     ; 0x12 <__rc2>
    1e82: a5 19        	lda	$19                     ; 0x19 <__rc9>
    1e84: 69 00        	adc	#$0
    1e86: a0 04        	ldy	#$4
    1e88: 85 13        	sta	$13                     ; 0x13 <__rc3>
    1e8a: b1 18        	lda	($18),y                 ; 0x18 <__rc8>
    1e8c: 85 22        	sta	$22                     ; 0x22 <__rc18>
    1e8e: 18           	clc
    1e8f: 69 02        	adc	#$2
    1e91: 85 1a        	sta	$1a                     ; 0x1a <__rc10>
    1e93: a0 01        	ldy	#$1
    1e95: b1 12        	lda	($12),y                 ; 0x12 <__rc2>
    1e97: aa           	tax
    1e98: 84 1d        	sty	$1d                     ; 0x1d <__rc13>
    1e9a: 69 00        	adc	#$0
    1e9c: a4 1a        	ldy	$1a                     ; 0x1a <__rc10>
    1e9e: 84 12        	sty	$12                     ; 0x12 <__rc2>
    1ea0: 85 13        	sta	$13                     ; 0x13 <__rc3>
    1ea2: a4 22        	ldy	$22                     ; 0x22 <__rc18>
    1ea4: 84 1a        	sty	$1a                     ; 0x1a <__rc10>
    1ea6: 86 1b        	stx	$1b                     ; 0x1b <__rc11>
    1ea8: a5 1e        	lda	$1e                     ; 0x1e <__rc14>
    1eaa: a0 02        	ldy	#$2
    1eac: 91 1a        	sta	($1a),y                 ; 0x1a <__rc10>
    1eae: 84 1a        	sty	$1a                     ; 0x1a <__rc10>
    1eb0: a5 1f        	lda	$1f                     ; 0x1f <__rc15>
    1eb2: a4 1d        	ldy	$1d                     ; 0x1d <__rc13>
    1eb4: 91 12        	sta	($12),y                 ; 0x12 <__rc2>
    1eb6: 18           	clc
    1eb7: a5 18        	lda	$18                     ; 0x18 <__rc8>
    1eb9: 69 02        	adc	#$2
    1ebb: 85 12        	sta	$12                     ; 0x12 <__rc2>
    1ebd: a5 19        	lda	$19                     ; 0x19 <__rc9>
    1ebf: 69 00        	adc	#$0
    1ec1: 85 13        	sta	$13                     ; 0x13 <__rc3>
    1ec3: a4 1a        	ldy	$1a                     ; 0x1a <__rc10>
    1ec5: b1 18        	lda	($18),y                 ; 0x18 <__rc8>
    1ec7: 85 1a        	sta	$1a                     ; 0x1a <__rc10>
    1ec9: a4 1d        	ldy	$1d                     ; 0x1d <__rc13>
    1ecb: b1 12        	lda	($12),y                 ; 0x12 <__rc2>
    1ecd: 84 17        	sty	$17                     ; 0x17 <__rc7>
    1ecf: a4 1a        	ldy	$1a                     ; 0x1a <__rc10>
    1ed1: 84 12        	sty	$12                     ; 0x12 <__rc2>
    1ed3: 85 13        	sta	$13                     ; 0x13 <__rc3>
    1ed5: 85 1b        	sta	$1b                     ; 0x1b <__rc11>
    1ed7: a0 04        	ldy	#$4
    1ed9: a5 22        	lda	$22                     ; 0x22 <__rc18>
    1edb: 91 12        	sta	($12),y                 ; 0x12 <__rc2>
    1edd: 18           	clc
    1ede: a5 1a        	lda	$1a                     ; 0x1a <__rc10>
    1ee0: 69 04        	adc	#$4
    1ee2: 85 1a        	sta	$1a                     ; 0x1a <__rc10>
    1ee4: a5 1b        	lda	$1b                     ; 0x1b <__rc11>
    1ee6: 69 00        	adc	#$0
    1ee8: 85 1b        	sta	$1b                     ; 0x1b <__rc11>
    1eea: 8a           	txa
    1eeb: a4 17        	ldy	$17                     ; 0x17 <__rc7>
    1eed: 91 1a        	sta	($1a),y                 ; 0x1a <__rc10>
    1eef: ae 65 35     	ldx	$3565                   ; 0x3565 <_ZN12_GLOBAL__N_19free_listE+0x1>
    1ef2: a4 3f        	ldy	$3f                     ; 0x3f <__rc31+0x10>
    1ef4: 84 17        	sty	$17                     ; 0x17 <__rc7>
    1ef6: e4 19        	cpx	$19                     ; 0x19 <__rc9>
    1ef8: d0 11        	bne	$1f0b <fileClose+0x327>
    1efa: ae 64 35     	ldx	$3564                   ; 0x3564 <_ZN12_GLOBAL__N_19free_listE>
    1efd: e4 18        	cpx	$18                     ; 0x18 <__rc8>
    1eff: d0 0a        	bne	$1f0b <fileClose+0x327>
    1f01: a6 12        	ldx	$12                     ; 0x12 <__rc2>
    1f03: a4 13        	ldy	$13                     ; 0x13 <__rc3>
    1f05: 8e 64 35     	stx	$3564                   ; 0x3564 <_ZN12_GLOBAL__N_19free_listE>
    1f08: 8c 65 35     	sty	$3565                   ; 0x3565 <_ZN12_GLOBAL__N_19free_listE+0x1>
    1f0b: 18           	clc
    1f0c: a5 3c        	lda	$3c                     ; 0x3c <__rc31+0xd>
    1f0e: 65 17        	adc	$17                     ; 0x17 <__rc7>
    1f10: 85 17        	sta	$17                     ; 0x17 <__rc7>
    1f12: a5 1c        	lda	$1c                     ; 0x1c <__rc12>
    1f14: 65 16        	adc	$16                     ; 0x16 <__rc6>
    1f16: 85 16        	sta	$16                     ; 0x16 <__rc6>
    1f18: a9 01        	lda	#$1
    1f1a: 32 14        	and	($14)                   ; 0x14 <__rc4>
    1f1c: a6 17        	ldx	$17                     ; 0x17 <__rc7>
    1f1e: 86 12        	stx	$12                     ; 0x12 <__rc2>
    1f20: 05 12        	ora	$12                     ; 0x12 <__rc2>
    1f22: 92 14        	sta	($14)                   ; 0x14 <__rc4>
    1f24: a5 14        	lda	$14                     ; 0x14 <__rc4>
    1f26: 18           	clc
    1f27: 65 12        	adc	$12                     ; 0x12 <__rc2>
    1f29: a8           	tay
    1f2a: a5 16        	lda	$16                     ; 0x16 <__rc6>
    1f2c: 65 15        	adc	$15                     ; 0x15 <__rc5>
    1f2e: 85 13        	sta	$13                     ; 0x13 <__rc3>
    1f30: 18           	clc
    1f31: 98           	tya
    1f32: 69 fe        	adc	#$fe
    1f34: 85 12        	sta	$12                     ; 0x12 <__rc2>
    1f36: a5 13        	lda	$13                     ; 0x13 <__rc3>
    1f38: 69 ff        	adc	#$ff
    1f3a: 85 13        	sta	$13                     ; 0x13 <__rc3>
    1f3c: a0 01        	ldy	#$1
    1f3e: a5 16        	lda	$16                     ; 0x16 <__rc6>
    1f40: 91 14        	sta	($14),y                 ; 0x14 <__rc4>
    1f42: a5 17        	lda	$17                     ; 0x17 <__rc7>
    1f44: 92 12        	sta	($12)                   ; 0x12 <__rc2>
    1f46: a5 16        	lda	$16                     ; 0x16 <__rc6>
    1f48: 91 12        	sta	($12),y                 ; 0x12 <__rc2>
    1f4a: b1 14        	lda	($14),y                 ; 0x14 <__rc4>
    1f4c: 85 12        	sta	$12                     ; 0x12 <__rc2>
    1f4e: a9 fe        	lda	#$fe
    1f50: 32 14        	and	($14)                   ; 0x14 <__rc4>
    1f52: 18           	clc
    1f53: 6d 62 35     	adc	$3562                   ; 0x3562 <_ZN12_GLOBAL__N_19free_sizeE>
    1f56: aa           	tax
    1f57: a5 12        	lda	$12                     ; 0x12 <__rc2>
    1f59: 6d 63 35     	adc	$3563                   ; 0x3563 <_ZN12_GLOBAL__N_19free_sizeE+0x1>
    1f5c: 85 12        	sta	$12                     ; 0x12 <__rc2>
    1f5e: 18           	clc
    1f5f: 8a           	txa
    1f60: 69 fe        	adc	#$fe
    1f62: 85 13        	sta	$13                     ; 0x13 <__rc3>
    1f64: a5 12        	lda	$12                     ; 0x12 <__rc2>
    1f66: 69 ff        	adc	#$ff
    1f68: a6 13        	ldx	$13                     ; 0x13 <__rc3>
    1f6a: 8e 62 35     	stx	$3562                   ; 0x3562 <_ZN12_GLOBAL__N_19free_sizeE>
    1f6d: 8d 63 35     	sta	$3563                   ; 0x3563 <_ZN12_GLOBAL__N_19free_sizeE+0x1>
    1f70: ae 64 35     	ldx	$3564                   ; 0x3564 <_ZN12_GLOBAL__N_19free_listE>
    1f73: 86 16        	stx	$16                     ; 0x16 <__rc6>
    1f75: ac 65 35     	ldy	$3565                   ; 0x3565 <_ZN12_GLOBAL__N_19free_listE+0x1>
    1f78: a2 00        	ldx	#$0
    1f7a: 86 12        	stx	$12                     ; 0x12 <__rc2>
    1f7c: a2 00        	ldx	#$0
    1f7e: 86 13        	stx	$13                     ; 0x13 <__rc3>
    1f80: c4 13        	cpy	$13                     ; 0x13 <__rc3>
    1f82: d0 40        	bne	$1fc4 <fileClose+0x3e0>
    1f84: a6 16        	ldx	$16                     ; 0x16 <__rc6>
    1f86: e4 12        	cpx	$12                     ; 0x12 <__rc2>
    1f88: d0 3a        	bne	$1fc4 <fileClose+0x3e0>
    1f8a: a0 04        	ldy	#$4
    1f8c: 18           	clc
    1f8d: a5 14        	lda	$14                     ; 0x14 <__rc4>
    1f8f: 69 04        	adc	#$4
    1f91: 85 12        	sta	$12                     ; 0x12 <__rc2>
    1f93: a5 15        	lda	$15                     ; 0x15 <__rc5>
    1f95: 69 00        	adc	#$0
    1f97: 18           	clc
    1f98: 85 13        	sta	$13                     ; 0x13 <__rc3>
    1f9a: a5 14        	lda	$14                     ; 0x14 <__rc4>
    1f9c: 91 14        	sta	($14),y                 ; 0x14 <__rc4>
    1f9e: a0 02        	ldy	#$2
    1fa0: 85 17        	sta	$17                     ; 0x17 <__rc7>
    1fa2: 69 02        	adc	#$2
    1fa4: 85 16        	sta	$16                     ; 0x16 <__rc6>
    1fa6: a5 17        	lda	$17                     ; 0x17 <__rc7>
    1fa8: 91 14        	sta	($14),y                 ; 0x14 <__rc4>
    1faa: a5 15        	lda	$15                     ; 0x15 <__rc5>
    1fac: 69 00        	adc	#$0
    1fae: 85 17        	sta	$17                     ; 0x17 <__rc7>
    1fb0: 88           	dey
    1fb1: a5 15        	lda	$15                     ; 0x15 <__rc5>
    1fb3: 91 12        	sta	($12),y                 ; 0x12 <__rc2>
    1fb5: 91 16        	sta	($16),y                 ; 0x16 <__rc6>
    1fb7: a6 14        	ldx	$14                     ; 0x14 <__rc4>
    1fb9: 8e 64 35     	stx	$3564                   ; 0x3564 <_ZN12_GLOBAL__N_19free_listE>
    1fbc: a6 15        	ldx	$15                     ; 0x15 <__rc5>
    1fbe: 8e 65 35     	stx	$3565                   ; 0x3565 <_ZN12_GLOBAL__N_19free_listE+0x1>
    1fc1: 4c 6f 20     	jmp	$206f <fileClose+0x48b>
    1fc4: a6 14        	ldx	$14                     ; 0x14 <__rc4>
    1fc6: a5 14        	lda	$14                     ; 0x14 <__rc4>
    1fc8: 86 1c        	stx	$1c                     ; 0x1c <__rc12>
    1fca: 18           	clc
    1fcb: 69 02        	adc	#$2
    1fcd: 85 12        	sta	$12                     ; 0x12 <__rc2>
    1fcf: a6 15        	ldx	$15                     ; 0x15 <__rc5>
    1fd1: 84 18        	sty	$18                     ; 0x18 <__rc8>
    1fd3: a5 15        	lda	$15                     ; 0x15 <__rc5>
    1fd5: 69 00        	adc	#$0
    1fd7: 85 13        	sta	$13                     ; 0x13 <__rc3>
    1fd9: a5 16        	lda	$16                     ; 0x16 <__rc6>
    1fdb: 84 17        	sty	$17                     ; 0x17 <__rc7>
    1fdd: a0 02        	ldy	#$2
    1fdf: 91 14        	sta	($14),y                 ; 0x14 <__rc4>
    1fe1: 85 19        	sta	$19                     ; 0x19 <__rc9>
    1fe3: 84 1d        	sty	$1d                     ; 0x1d <__rc13>
    1fe5: 88           	dey
    1fe6: a5 18        	lda	$18                     ; 0x18 <__rc8>
    1fe8: 91 12        	sta	($12),y                 ; 0x12 <__rc2>
    1fea: 84 1e        	sty	$1e                     ; 0x1e <__rc14>
    1fec: 18           	clc
    1fed: a5 19        	lda	$19                     ; 0x19 <__rc9>
    1fef: 69 04        	adc	#$4
    1ff1: a8           	tay
    1ff2: a5 18        	lda	$18                     ; 0x18 <__rc8>
    1ff4: 69 00        	adc	#$0
    1ff6: 84 18        	sty	$18                     ; 0x18 <__rc8>
    1ff8: 85 19        	sta	$19                     ; 0x19 <__rc9>
    1ffa: a5 1c        	lda	$1c                     ; 0x1c <__rc12>
    1ffc: 18           	clc
    1ffd: 69 04        	adc	#$4
    1fff: 85 1a        	sta	$1a                     ; 0x1a <__rc10>
    2001: a5 15        	lda	$15                     ; 0x15 <__rc5>
    2003: 69 00        	adc	#$0
    2005: 85 1b        	sta	$1b                     ; 0x1b <__rc11>
    2007: a0 04        	ldy	#$4
    2009: b1 16        	lda	($16),y                 ; 0x16 <__rc6>
    200b: 85 16        	sta	$16                     ; 0x16 <__rc6>
    200d: 85 1f        	sta	$1f                     ; 0x1f <__rc15>
    200f: a4 1e        	ldy	$1e                     ; 0x1e <__rc14>
    2011: b1 18        	lda	($18),y                 ; 0x18 <__rc8>
    2013: a4 1e        	ldy	$1e                     ; 0x1e <__rc14>
    2015: 84 18        	sty	$18                     ; 0x18 <__rc8>
    2017: 85 17        	sta	$17                     ; 0x17 <__rc7>
    2019: 85 19        	sta	$19                     ; 0x19 <__rc9>
    201b: a0 04        	ldy	#$4
    201d: a5 1f        	lda	$1f                     ; 0x1f <__rc15>
    201f: 91 14        	sta	($14),y                 ; 0x14 <__rc4>
    2021: 84 1e        	sty	$1e                     ; 0x1e <__rc14>
    2023: a4 18        	ldy	$18                     ; 0x18 <__rc8>
    2025: a5 19        	lda	$19                     ; 0x19 <__rc9>
    2027: 91 1a        	sta	($1a),y                 ; 0x1a <__rc10>
    2029: 84 1a        	sty	$1a                     ; 0x1a <__rc10>
    202b: 18           	clc
    202c: a5 1f        	lda	$1f                     ; 0x1f <__rc15>
    202e: 69 02        	adc	#$2
    2030: 85 18        	sta	$18                     ; 0x18 <__rc8>
    2032: a5 19        	lda	$19                     ; 0x19 <__rc9>
    2034: 69 00        	adc	#$0
    2036: 85 19        	sta	$19                     ; 0x19 <__rc9>
    2038: a5 1c        	lda	$1c                     ; 0x1c <__rc12>
    203a: a4 1d        	ldy	$1d                     ; 0x1d <__rc13>
    203c: 91 16        	sta	($16),y                 ; 0x16 <__rc6>
    203e: a5 15        	lda	$15                     ; 0x15 <__rc5>
    2040: a4 1a        	ldy	$1a                     ; 0x1a <__rc10>
    2042: 91 18        	sta	($18),y                 ; 0x18 <__rc8>
    2044: 84 16        	sty	$16                     ; 0x16 <__rc6>
    2046: a4 1d        	ldy	$1d                     ; 0x1d <__rc13>
    2048: b1 14        	lda	($14),y                 ; 0x14 <__rc4>
    204a: 85 14        	sta	$14                     ; 0x14 <__rc4>
    204c: 85 17        	sta	$17                     ; 0x17 <__rc7>
    204e: a4 16        	ldy	$16                     ; 0x16 <__rc6>
    2050: b1 12        	lda	($12),y                 ; 0x12 <__rc2>
    2052: 85 15        	sta	$15                     ; 0x15 <__rc5>
    2054: 85 12        	sta	$12                     ; 0x12 <__rc2>
    2056: a5 1c        	lda	$1c                     ; 0x1c <__rc12>
    2058: a4 1e        	ldy	$1e                     ; 0x1e <__rc14>
    205a: 91 14        	sta	($14),y                 ; 0x14 <__rc4>
    205c: 18           	clc
    205d: a5 17        	lda	$17                     ; 0x17 <__rc7>
    205f: 69 04        	adc	#$4
    2061: a8           	tay
    2062: a5 12        	lda	$12                     ; 0x12 <__rc2>
    2064: 69 00        	adc	#$0
    2066: 84 12        	sty	$12                     ; 0x12 <__rc2>
    2068: 85 13        	sta	$13                     ; 0x13 <__rc3>
    206a: 8a           	txa
    206b: a4 16        	ldy	$16                     ; 0x16 <__rc6>
    206d: 91 12        	sta	($12),y                 ; 0x12 <__rc2>
    206f: a2 3e        	ldx	#$3e
    2071: a0 00        	ldy	#$0
    2073: 86 12        	stx	$12                     ; 0x12 <__rc2>
    2075: 84 13        	sty	$13                     ; 0x13 <__rc3>
    2077: a2 34        	ldx	#$34
    2079: 86 14        	stx	$14                     ; 0x14 <__rc4>
    207b: a2 00        	ldx	#$0
    207d: 86 15        	stx	$15                     ; 0x15 <__rc5>
    207f: 64 35        	stz	$35                     ; 0x35 <kernelEventData>
    2081: 20 00 ff     	jsr	$ff00 <end_block9+0xc99a>
    2084: 92 12        	sta	($12)                   ; 0x12 <__rc2>
    2086: a9 00        	lda	#$0
    2088: 6a           	ror
    2089: 85 14        	sta	$14                     ; 0x14 <__rc4>
    208b: a6 35        	ldx	$35                     ; 0x35 <kernelEventData>
    208d: e0 38        	cpx	#$38
    208f: f0 04        	beq	$2095 <fileClose+0x4b1>
    2091: e0 32        	cpx	#$32
    2093: d0 ea        	bne	$207f <fileClose+0x49b>
    2095: 60           	rts

00002096 <openAllCODEC>:
    2096: a2 1f        	ldx	#$1f
    2098: 8e 20 d6     	stx	$d620                   ; 0xd620 <end_block9+0xa0ba>
    209b: a2 2a        	ldx	#$2a
    209d: 8e 21 d6     	stx	$d621                   ; 0xd621 <end_block9+0xa0bb>
    20a0: a2 01        	ldx	#$1
    20a2: 8e 22 d6     	stx	$d622                   ; 0xd622 <end_block9+0xa0bc>
    20a5: ad 22 d6     	lda	$d622                   ; 0xd622 <end_block9+0xa0bc>
    20a8: 29 01        	and	#$1
    20aa: d0 f9        	bne	$20a5 <openAllCODEC+0xf>
    20ac: 60           	rts

000020ad <hitspace>:
    20ad: a2 3c        	ldx	#$3c
    20af: a0 00        	ldy	#$0
    20b1: 86 12        	stx	$12                     ; 0x12 <__rc2>
    20b3: 84 13        	sty	$13                     ; 0x13 <__rc3>
    20b5: a2 34        	ldx	#$34
    20b7: 86 14        	stx	$14                     ; 0x14 <__rc4>
    20b9: a2 00        	ldx	#$0
    20bb: 86 15        	stx	$15                     ; 0x15 <__rc5>
    20bd: 64 35        	stz	$35                     ; 0x35 <kernelEventData>
    20bf: 20 00 ff     	jsr	$ff00 <end_block9+0xc99a>
    20c2: 92 12        	sta	($12)                   ; 0x12 <__rc2>
    20c4: a9 00        	lda	#$0
    20c6: 6a           	ror
    20c7: 85 14        	sta	$14                     ; 0x14 <__rc4>
    20c9: a6 35        	ldx	$35                     ; 0x35 <kernelEventData>
    20cb: e0 08        	cpx	#$8
    20cd: d0 ee        	bne	$20bd <hitspace+0x10>
    20cf: a6 39        	ldx	$39                     ; 0x39 <kernelEventData+0x4>
    20d1: e0 20        	cpx	#$20
    20d3: f0 04        	beq	$20d9 <hitspace+0x2c>
    20d5: e0 94        	cpx	#$94
    20d7: d0 e4        	bne	$20bd <hitspace+0x10>
    20d9: 60           	rts

000020da <boostVSClock>:
    20da: a2 03        	ldx	#$3
    20dc: 8e 01 d7     	stx	$d701                   ; 0xd701 <end_block9+0xa19b>
    20df: 9c 02 d7     	stz	$d702                   ; 0xd702 <end_block9+0xa19c>
    20e2: 9c 02 d7     	stz	$d702                   ; 0xd702 <end_block9+0xa19c>
    20e5: a2 c0        	ldx	#$c0
    20e7: 8e 03 d7     	stx	$d703                   ; 0xd703 <end_block9+0xa19d>
    20ea: a2 01        	ldx	#$1
    20ec: 8e 00 d7     	stx	$d700                   ; 0xd700 <end_block9+0xa19a>
    20ef: 9c 00 d7     	stz	$d700                   ; 0xd700 <end_block9+0xa19a>
    20f2: ae 00 d7     	ldx	$d700                   ; 0xd700 <end_block9+0xa19a>
    20f5: 30 fb        	bmi	$20f2 <boostVSClock+0x18>
    20f7: 60           	rts

000020f8 <exit>:
    20f8: 20 14 03     	jsr	$314 <_fini>
    20fb: 80 fe        	bra	$20fb <exit+0x3>

000020fd <_ZN12_GLOBAL__N_13putEcP6Status>:
    20fd: 85 18        	sta	$18                     ; 0x18 <__rc8>
    20ff: a6 13        	ldx	$13                     ; 0x13 <__rc3>
    2101: 18           	clc
    2102: a5 12        	lda	$12                     ; 0x12 <__rc2>
    2104: 69 05        	adc	#$5
    2106: a8           	tay
    2107: a5 13        	lda	$13                     ; 0x13 <__rc3>
    2109: 86 15        	stx	$15                     ; 0x15 <__rc5>
    210b: 69 00        	adc	#$0
    210d: 18           	clc
    210e: 84 16        	sty	$16                     ; 0x16 <__rc6>
    2110: a0 05        	ldy	#$5
    2112: 85 17        	sta	$17                     ; 0x17 <__rc7>
    2114: b1 12        	lda	($12),y                 ; 0x12 <__rc2>
    2116: aa           	tax
    2117: a5 12        	lda	$12                     ; 0x12 <__rc2>
    2119: 69 03        	adc	#$3
    211b: 85 14        	sta	$14                     ; 0x14 <__rc4>
    211d: a5 15        	lda	$15                     ; 0x15 <__rc5>
    211f: 69 00        	adc	#$0
    2121: 85 15        	sta	$15                     ; 0x15 <__rc5>
    2123: a0 01        	ldy	#$1
    2125: b1 16        	lda	($16),y                 ; 0x16 <__rc6>
    2127: d1 14        	cmp	($14),y                 ; 0x14 <__rc4>
    2129: d0 11        	bne	$213c <_ZN12_GLOBAL__N_13putEcP6Status+0x3f>
    212b: a0 03        	ldy	#$3
    212d: 85 17        	sta	$17                     ; 0x17 <__rc7>
    212f: b1 12        	lda	($12),y                 ; 0x12 <__rc2>
    2131: 85 14        	sta	$14                     ; 0x14 <__rc4>
    2133: 86 16        	stx	$16                     ; 0x16 <__rc6>
    2135: e4 14        	cpx	$14                     ; 0x14 <__rc4>
    2137: 90 0e        	bcc	$2147 <_ZN12_GLOBAL__N_13putEcP6Status+0x4a>
    2139: 4c a8 21     	jmp	$21a8 <_ZN12_GLOBAL__N_13putEcP6Status+0xab>
    213c: 86 16        	stx	$16                     ; 0x16 <__rc6>
    213e: d1 14        	cmp	($14),y                 ; 0x14 <__rc4>
    2140: 85 17        	sta	$17                     ; 0x17 <__rc7>
    2142: 90 03        	bcc	$2147 <_ZN12_GLOBAL__N_13putEcP6Status+0x4a>
    2144: 4c a8 21     	jmp	$21a8 <_ZN12_GLOBAL__N_13putEcP6Status+0xab>
    2147: a5 12        	lda	$12                     ; 0x12 <__rc2>
    2149: 18           	clc
    214a: 69 0f        	adc	#$f
    214c: 85 14        	sta	$14                     ; 0x14 <__rc4>
    214e: a5 13        	lda	$13                     ; 0x13 <__rc3>
    2150: 69 00        	adc	#$0
    2152: 85 15        	sta	$15                     ; 0x15 <__rc5>
    2154: a0 01        	ldy	#$1
    2156: b1 14        	lda	($14),y                 ; 0x14 <__rc4>
    2158: a2 00        	ldx	#$0
    215a: 86 14        	stx	$14                     ; 0x14 <__rc4>
    215c: a2 00        	ldx	#$0
    215e: 86 15        	stx	$15                     ; 0x15 <__rc5>
    2160: c5 15        	cmp	$15                     ; 0x15 <__rc5>
    2162: d0 2d        	bne	$2191 <_ZN12_GLOBAL__N_13putEcP6Status+0x94>
    2164: a0 0f        	ldy	#$f
    2166: b1 12        	lda	($12),y                 ; 0x12 <__rc2>
    2168: c5 14        	cmp	$14                     ; 0x14 <__rc4>
    216a: d0 25        	bne	$2191 <_ZN12_GLOBAL__N_13putEcP6Status+0x94>
    216c: a5 12        	lda	$12                     ; 0x12 <__rc2>
    216e: 18           	clc
    216f: 69 09        	adc	#$9
    2171: 85 14        	sta	$14                     ; 0x14 <__rc4>
    2173: a5 13        	lda	$13                     ; 0x13 <__rc3>
    2175: 69 00        	adc	#$0
    2177: a0 09        	ldy	#$9
    2179: 85 15        	sta	$15                     ; 0x15 <__rc5>
    217b: 18           	clc
    217c: a5 16        	lda	$16                     ; 0x16 <__rc6>
    217e: 71 12        	adc	($12),y                 ; 0x12 <__rc2>
    2180: aa           	tax
    2181: a0 01        	ldy	#$1
    2183: a5 17        	lda	$17                     ; 0x17 <__rc7>
    2185: 71 14        	adc	($14),y                 ; 0x14 <__rc4>
    2187: 86 14        	stx	$14                     ; 0x14 <__rc4>
    2189: 85 15        	sta	$15                     ; 0x15 <__rc5>
    218b: a5 18        	lda	$18                     ; 0x18 <__rc8>
    218d: 92 14        	sta	($14)                   ; 0x14 <__rc4>
    218f: 80 17        	bra	$21a8 <_ZN12_GLOBAL__N_13putEcP6Status+0xab>
    2191: a6 12        	ldx	$12                     ; 0x12 <__rc2>
    2193: 86 93        	stx	$93                     ; 0x93 <__bss_size+0x4d>
    2195: a6 13        	ldx	$13                     ; 0x13 <__rc3>
    2197: 86 94        	stx	$94                     ; 0x94 <__bss_size+0x4e>
    2199: a2 00        	ldx	#$0
    219b: a5 18        	lda	$18                     ; 0x18 <__rc8>
    219d: 20 1d 30     	jsr	$301d <putchar>
    21a0: a6 93        	ldx	$93                     ; 0x93 <__bss_size+0x4d>
    21a2: 86 12        	stx	$12                     ; 0x12 <__rc2>
    21a4: a6 94        	ldx	$94                     ; 0x94 <__bss_size+0x4e>
    21a6: 86 13        	stx	$13                     ; 0x13 <__rc3>
    21a8: a0 05        	ldy	#$5
    21aa: a5 12        	lda	$12                     ; 0x12 <__rc2>
    21ac: 18           	clc
    21ad: 69 05        	adc	#$5
    21af: 85 14        	sta	$14                     ; 0x14 <__rc4>
    21b1: a5 13        	lda	$13                     ; 0x13 <__rc3>
    21b3: 69 00        	adc	#$0
    21b5: 85 15        	sta	$15                     ; 0x15 <__rc5>
    21b7: b1 12        	lda	($12),y                 ; 0x12 <__rc2>
    21b9: aa           	tax
    21ba: 84 16        	sty	$16                     ; 0x16 <__rc6>
    21bc: a0 01        	ldy	#$1
    21be: b1 14        	lda	($14),y                 ; 0x14 <__rc4>
    21c0: 84 17        	sty	$17                     ; 0x17 <__rc7>
    21c2: e8           	inx
    21c3: d0 01        	bne	$21c6 <_ZN12_GLOBAL__N_13putEcP6Status+0xc9>
    21c5: 1a           	inc
    21c6: 85 18        	sta	$18                     ; 0x18 <__rc8>
    21c8: 8a           	txa
    21c9: a4 16        	ldy	$16                     ; 0x16 <__rc6>
    21cb: 91 12        	sta	($12),y                 ; 0x12 <__rc2>
    21cd: a4 17        	ldy	$17                     ; 0x17 <__rc7>
    21cf: a5 18        	lda	$18                     ; 0x18 <__rc8>
    21d1: 91 14        	sta	($14),y                 ; 0x14 <__rc4>
    21d3: 60           	rts

000021d4 <_ZN12_GLOBAL__N_112print_stringEPKcP6Status>:
    21d4: a6 12        	ldx	$12                     ; 0x12 <__rc2>
    21d6: 86 8a        	stx	$8a                     ; 0x8a <__bss_size+0x44>
    21d8: a6 13        	ldx	$13                     ; 0x13 <__rc3>
    21da: 86 8b        	stx	$8b                     ; 0x8b <__bss_size+0x45>
    21dc: a6 14        	ldx	$14                     ; 0x14 <__rc4>
    21de: 86 8c        	stx	$8c                     ; 0x8c <__bss_size+0x46>
    21e0: a6 15        	ldx	$15                     ; 0x15 <__rc5>
    21e2: 86 8d        	stx	$8d                     ; 0x8d <__bss_size+0x47>
    21e4: a5 8c        	lda	$8c                     ; 0x8c <__bss_size+0x46>
    21e6: 18           	clc
    21e7: 69 0d        	adc	#$d
    21e9: 85 12        	sta	$12                     ; 0x12 <__rc2>
    21eb: a5 8d        	lda	$8d                     ; 0x8d <__bss_size+0x47>
    21ed: 69 00        	adc	#$0
    21ef: 85 13        	sta	$13                     ; 0x13 <__rc3>
    21f1: a0 01        	ldy	#$1
    21f3: b1 12        	lda	($12),y                 ; 0x12 <__rc2>
    21f5: 30 14        	bmi	$220b <_ZN12_GLOBAL__N_112print_stringEPKcP6Status+0x37>
    21f7: a0 0d        	ldy	#$d
    21f9: aa           	tax
    21fa: b1 8c        	lda	($8c),y                 ; 0x8c <__bss_size+0x46>
    21fc: 86 8f        	stx	$8f                     ; 0x8f <__bss_size+0x49>
    21fe: e0 00        	cpx	#$0
    2200: d0 0e        	bne	$2210 <_ZN12_GLOBAL__N_112print_stringEPKcP6Status+0x3c>
    2202: aa           	tax
    2203: d0 0b        	bne	$2210 <_ZN12_GLOBAL__N_112print_stringEPKcP6Status+0x3c>
    2205: 64 8e        	stz	$8e                     ; 0x8e <__bss_size+0x48>
    2207: 64 8f        	stz	$8f                     ; 0x8f <__bss_size+0x49>
    2209: 80 36        	bra	$2241 <_ZN12_GLOBAL__N_112print_stringEPKcP6Status+0x6d>
    220b: a9 ff        	lda	#$ff
    220d: aa           	tax
    220e: 86 8f        	stx	$8f                     ; 0x8f <__bss_size+0x49>
    2210: 85 8e        	sta	$8e                     ; 0x8e <__bss_size+0x48>
    2212: 64 12        	stz	$12                     ; 0x12 <__rc2>
    2214: a4 8a        	ldy	$8a                     ; 0x8a <__bss_size+0x44>
    2216: a6 8b        	ldx	$8b                     ; 0x8b <__bss_size+0x45>
    2218: 86 16        	stx	$16                     ; 0x16 <__rc6>
    221a: 64 13        	stz	$13                     ; 0x13 <__rc3>
    221c: 98           	tya
    221d: 18           	clc
    221e: 65 12        	adc	$12                     ; 0x12 <__rc2>
    2220: 85 14        	sta	$14                     ; 0x14 <__rc4>
    2222: a5 8b        	lda	$8b                     ; 0x8b <__bss_size+0x45>
    2224: 65 13        	adc	$13                     ; 0x13 <__rc3>
    2226: 85 15        	sta	$15                     ; 0x15 <__rc5>
    2228: b2 14        	lda	($14)                   ; 0x14 <__rc4>
    222a: d0 03        	bne	$222f <_ZN12_GLOBAL__N_112print_stringEPKcP6Status+0x5b>
    222c: 4c d8 22     	jmp	$22d8 <_ZN12_GLOBAL__N_112print_stringEPKcP6Status+0x104>
    222f: e6 12        	inc	$12                     ; 0x12 <__rc2>
    2231: d0 02        	bne	$2235 <_ZN12_GLOBAL__N_112print_stringEPKcP6Status+0x61>
    2233: e6 13        	inc	$13                     ; 0x13 <__rc3>
    2235: a6 8f        	ldx	$8f                     ; 0x8f <__bss_size+0x49>
    2237: e4 13        	cpx	$13                     ; 0x13 <__rc3>
    2239: d0 e1        	bne	$221c <_ZN12_GLOBAL__N_112print_stringEPKcP6Status+0x48>
    223b: a6 8e        	ldx	$8e                     ; 0x8e <__bss_size+0x48>
    223d: e4 12        	cpx	$12                     ; 0x12 <__rc2>
    223f: d0 db        	bne	$221c <_ZN12_GLOBAL__N_112print_stringEPKcP6Status+0x48>
    2241: a0 01        	ldy	#$1
    2243: b1 8c        	lda	($8c),y                 ; 0x8c <__bss_size+0x46>
    2245: 29 01        	and	#$1
    2247: f0 03        	beq	$224c <_ZN12_GLOBAL__N_112print_stringEPKcP6Status+0x78>
    2249: 4c aa 22     	jmp	$22aa <_ZN12_GLOBAL__N_112print_stringEPKcP6Status+0xd6>
    224c: a5 8c        	lda	$8c                     ; 0x8c <__bss_size+0x46>
    224e: 18           	clc
    224f: 69 0b        	adc	#$b
    2251: 85 14        	sta	$14                     ; 0x14 <__rc4>
    2253: a5 8d        	lda	$8d                     ; 0x8d <__bss_size+0x47>
    2255: 69 00        	adc	#$0
    2257: 85 15        	sta	$15                     ; 0x15 <__rc5>
    2259: 84 12        	sty	$12                     ; 0x12 <__rc2>
    225b: a0 0b        	ldy	#$b
    225d: b1 8c        	lda	($8c),y                 ; 0x8c <__bss_size+0x46>
    225f: 85 13        	sta	$13                     ; 0x13 <__rc3>
    2261: a4 12        	ldy	$12                     ; 0x12 <__rc2>
    2263: b1 14        	lda	($14),y                 ; 0x14 <__rc4>
    2265: 85 12        	sta	$12                     ; 0x12 <__rc2>
    2267: a6 8f        	ldx	$8f                     ; 0x8f <__bss_size+0x49>
    2269: e4 12        	cpx	$12                     ; 0x12 <__rc2>
    226b: d0 08        	bne	$2275 <_ZN12_GLOBAL__N_112print_stringEPKcP6Status+0xa1>
    226d: a6 8e        	ldx	$8e                     ; 0x8e <__bss_size+0x48>
    226f: e4 13        	cpx	$13                     ; 0x13 <__rc3>
    2271: 90 06        	bcc	$2279 <_ZN12_GLOBAL__N_112print_stringEPKcP6Status+0xa5>
    2273: 80 35        	bra	$22aa <_ZN12_GLOBAL__N_112print_stringEPKcP6Status+0xd6>
    2275: e4 12        	cpx	$12                     ; 0x12 <__rc2>
    2277: b0 31        	bcs	$22aa <_ZN12_GLOBAL__N_112print_stringEPKcP6Status+0xd6>
    2279: 38           	sec
    227a: a5 8e        	lda	$8e                     ; 0x8e <__bss_size+0x48>
    227c: e5 13        	sbc	$13                     ; 0x13 <__rc3>
    227e: a8           	tay
    227f: a5 8f        	lda	$8f                     ; 0x8f <__bss_size+0x49>
    2281: e5 12        	sbc	$12                     ; 0x12 <__rc2>
    2283: 85 91        	sta	$91                     ; 0x91 <__bss_size+0x4b>
    2285: a2 20        	ldx	#$20
    2287: 86 92        	stx	$92                     ; 0x92 <__bss_size+0x4c>
    2289: a6 8c        	ldx	$8c                     ; 0x8c <__bss_size+0x46>
    228b: 86 12        	stx	$12                     ; 0x12 <__rc2>
    228d: a6 8d        	ldx	$8d                     ; 0x8d <__bss_size+0x47>
    228f: 86 13        	stx	$13                     ; 0x13 <__rc3>
    2291: 84 90        	sty	$90                     ; 0x90 <__bss_size+0x4a>
    2293: a5 92        	lda	$92                     ; 0x92 <__bss_size+0x4c>
    2295: 20 fd 20     	jsr	$20fd <_ZN12_GLOBAL__N_13putEcP6Status>
    2298: a6 91        	ldx	$91                     ; 0x91 <__bss_size+0x4b>
    229a: e6 90        	inc	$90                     ; 0x90 <__bss_size+0x4a>
    229c: d0 01        	bne	$229f <_ZN12_GLOBAL__N_112print_stringEPKcP6Status+0xcb>
    229e: e8           	inx
    229f: 86 91        	stx	$91                     ; 0x91 <__bss_size+0x4b>
    22a1: a4 90        	ldy	$90                     ; 0x90 <__bss_size+0x4a>
    22a3: 8a           	txa
    22a4: d0 e3        	bne	$2289 <_ZN12_GLOBAL__N_112print_stringEPKcP6Status+0xb5>
    22a6: a5 90        	lda	$90                     ; 0x90 <__bss_size+0x4a>
    22a8: d0 df        	bne	$2289 <_ZN12_GLOBAL__N_112print_stringEPKcP6Status+0xb5>
    22aa: a5 8f        	lda	$8f                     ; 0x8f <__bss_size+0x49>
    22ac: d0 04        	bne	$22b2 <_ZN12_GLOBAL__N_112print_stringEPKcP6Status+0xde>
    22ae: a5 8e        	lda	$8e                     ; 0x8e <__bss_size+0x48>
    22b0: f0 25        	beq	$22d7 <_ZN12_GLOBAL__N_112print_stringEPKcP6Status+0x103>
    22b2: a2 ff        	ldx	#$ff
    22b4: c6 8e        	dec	$8e                     ; 0x8e <__bss_size+0x48>
    22b6: e4 8e        	cpx	$8e                     ; 0x8e <__bss_size+0x48>
    22b8: d0 02        	bne	$22bc <_ZN12_GLOBAL__N_112print_stringEPKcP6Status+0xe8>
    22ba: c6 8f        	dec	$8f                     ; 0x8f <__bss_size+0x49>
    22bc: b2 8a        	lda	($8a)                   ; 0x8a <__bss_size+0x44>
    22be: e6 8a        	inc	$8a                     ; 0x8a <__bss_size+0x44>
    22c0: d0 02        	bne	$22c4 <_ZN12_GLOBAL__N_112print_stringEPKcP6Status+0xf0>
    22c2: e6 8b        	inc	$8b                     ; 0x8b <__bss_size+0x45>
    22c4: a6 8c        	ldx	$8c                     ; 0x8c <__bss_size+0x46>
    22c6: 86 12        	stx	$12                     ; 0x12 <__rc2>
    22c8: a6 8d        	ldx	$8d                     ; 0x8d <__bss_size+0x47>
    22ca: 86 13        	stx	$13                     ; 0x13 <__rc3>
    22cc: 20 fd 20     	jsr	$20fd <_ZN12_GLOBAL__N_13putEcP6Status>
    22cf: a5 8f        	lda	$8f                     ; 0x8f <__bss_size+0x49>
    22d1: d0 df        	bne	$22b2 <_ZN12_GLOBAL__N_112print_stringEPKcP6Status+0xde>
    22d3: a5 8e        	lda	$8e                     ; 0x8e <__bss_size+0x48>
    22d5: d0 db        	bne	$22b2 <_ZN12_GLOBAL__N_112print_stringEPKcP6Status+0xde>
    22d7: 60           	rts
    22d8: a6 12        	ldx	$12                     ; 0x12 <__rc2>
    22da: 86 8e        	stx	$8e                     ; 0x8e <__bss_size+0x48>
    22dc: a6 13        	ldx	$13                     ; 0x13 <__rc3>
    22de: 86 8f        	stx	$8f                     ; 0x8f <__bss_size+0x49>
    22e0: 4c 41 22     	jmp	$2241 <_ZN12_GLOBAL__N_112print_stringEPKcP6Status+0x6d>

000022e3 <printf>:
    22e3: a6 12        	ldx	$12                     ; 0x12 <__rc2>
    22e5: 86 3e        	stx	$3e                     ; 0x3e <__rc31+0xf>
    22e7: a6 13        	ldx	$13                     ; 0x13 <__rc3>
    22e9: 86 3f        	stx	$3f                     ; 0x3f <__rc31+0x10>
    22eb: 18           	clc
    22ec: a6 10        	ldx	$10                     ; 0x10 <__rc0>
    22ee: a4 11        	ldy	$11                     ; 0x11 <__rc1>
    22f0: 86 7f        	stx	$7f                     ; 0x7f <__bss_size+0x39>
    22f2: 84 80        	sty	$80                     ; 0x80 <__bss_size+0x3a>
    22f4: a6 7f        	ldx	$7f                     ; 0x7f <__bss_size+0x39>
    22f6: a4 80        	ldy	$80                     ; 0x80 <__bss_size+0x3a>
    22f8: 86 6a        	stx	$6a                     ; 0x6a <__bss_size+0x24>
    22fa: 84 6b        	sty	$6b                     ; 0x6b <__bss_size+0x25>
    22fc: a2 ff        	ldx	#$ff
    22fe: 86 6f        	stx	$6f                     ; 0x6f <__bss_size+0x29>
    2300: 86 70        	stx	$70                     ; 0x70 <__bss_size+0x2a>
    2302: 64 71        	stz	$71                     ; 0x71 <__bss_size+0x2b>
    2304: 64 72        	stz	$72                     ; 0x72 <__bss_size+0x2c>
    2306: e8           	inx
    2307: 86 12        	stx	$12                     ; 0x12 <__rc2>
    2309: a2 00        	ldx	#$0
    230b: 86 13        	stx	$13                     ; 0x13 <__rc3>
    230d: a6 12        	ldx	$12                     ; 0x12 <__rc2>
    230f: a4 13        	ldy	$13                     ; 0x13 <__rc3>
    2311: 86 75        	stx	$75                     ; 0x75 <__bss_size+0x2f>
    2313: 84 76        	sty	$76                     ; 0x76 <__bss_size+0x30>
    2315: a2 02        	ldx	#$2
    2317: 86 7b        	stx	$7b                     ; 0x7b <__bss_size+0x35>
    2319: 64 7c        	stz	$7c                     ; 0x7c <__bss_size+0x36>
    231b: a6 6a        	ldx	$6a                     ; 0x6a <__bss_size+0x24>
    231d: a4 6b        	ldy	$6b                     ; 0x6b <__bss_size+0x25>
    231f: 86 7d        	stx	$7d                     ; 0x7d <__bss_size+0x37>
    2321: 84 7e        	sty	$7e                     ; 0x7e <__bss_size+0x38>
    2323: a2 61        	ldx	#$61
    2325: a0 00        	ldy	#$0
    2327: 86 12        	stx	$12                     ; 0x12 <__rc2>
    2329: 84 13        	sty	$13                     ; 0x13 <__rc3>
    232b: a0 01        	ldy	#$1
    232d: a9 48        	lda	#$48
    232f: 18           	clc
    2330: 69 02        	adc	#$2
    2332: 85 88        	sta	$88                     ; 0x88 <__bss_size+0x42>
    2334: a9 00        	lda	#$0
    2336: 69 00        	adc	#$0
    2338: 85 89        	sta	$89                     ; 0x89 <__bss_size+0x43>
    233a: e6 12        	inc	$12                     ; 0x12 <__rc2>
    233c: d0 02        	bne	$2340 <printf+0x5d>
    233e: e6 13        	inc	$13                     ; 0x13 <__rc3>
    2340: a6 12        	ldx	$12                     ; 0x12 <__rc2>
    2342: 86 84        	stx	$84                     ; 0x84 <__bss_size+0x3e>
    2344: a6 13        	ldx	$13                     ; 0x13 <__rc3>
    2346: 86 85        	stx	$85                     ; 0x85 <__bss_size+0x3f>
    2348: a6 3e        	ldx	$3e                     ; 0x3e <__rc31+0xf>
    234a: 86 40        	stx	$40                     ; 0x40 <__rc31+0x11>
    234c: a6 3f        	ldx	$3f                     ; 0x3f <__rc31+0x10>
    234e: 86 41        	stx	$41                     ; 0x41 <__rc31+0x12>
    2350: b2 3e        	lda	($3e)                   ; 0x3e <__rc31+0xf>
    2352: c9 25        	cmp	#$25
    2354: f0 26        	beq	$237c <printf+0x99>
    2356: a2 00        	ldx	#$0
    2358: c9 00        	cmp	#$0
    235a: d0 03        	bne	$235f <printf+0x7c>
    235c: 4c 1c 30     	jmp	$301c <printf+0xd39>
    235f: 84 3e        	sty	$3e                     ; 0x3e <__rc31+0xf>
    2361: 20 1d 30     	jsr	$301d <putchar>
    2364: a4 3e        	ldy	$3e                     ; 0x3e <__rc31+0xf>
    2366: e6 40        	inc	$40                     ; 0x40 <__rc31+0x11>
    2368: d0 02        	bne	$236c <printf+0x89>
    236a: e6 41        	inc	$41                     ; 0x41 <__rc31+0x12>
    236c: e6 71        	inc	$71                     ; 0x71 <__bss_size+0x2b>
    236e: d0 02        	bne	$2372 <printf+0x8f>
    2370: e6 72        	inc	$72                     ; 0x72 <__bss_size+0x2c>
    2372: a6 40        	ldx	$40                     ; 0x40 <__rc31+0x11>
    2374: 86 3e        	stx	$3e                     ; 0x3e <__rc31+0xf>
    2376: a6 41        	ldx	$41                     ; 0x41 <__rc31+0x12>
    2378: 86 3f        	stx	$3f                     ; 0x3f <__rc31+0x10>
    237a: 80 cc        	bra	$2348 <printf+0x65>
    237c: a6 3e        	ldx	$3e                     ; 0x3e <__rc31+0xf>
    237e: 86 12        	stx	$12                     ; 0x12 <__rc2>
    2380: a6 3f        	ldx	$3f                     ; 0x3f <__rc31+0x10>
    2382: 86 13        	stx	$13                     ; 0x13 <__rc3>
    2384: e6 12        	inc	$12                     ; 0x12 <__rc2>
    2386: d0 02        	bne	$238a <printf+0xa7>
    2388: e6 13        	inc	$13                     ; 0x13 <__rc3>
    238a: b1 40        	lda	($40),y                 ; 0x40 <__rc31+0x11>
    238c: c9 25        	cmp	#$25
    238e: d0 18        	bne	$23a8 <printf+0xc5>
    2390: a2 01        	ldx	#$1
    2392: 86 13        	stx	$13                     ; 0x13 <__rc3>
    2394: a5 71        	lda	$71                     ; 0x71 <__bss_size+0x2b>
    2396: a4 72        	ldy	$72                     ; 0x72 <__bss_size+0x2c>
    2398: c4 70        	cpy	$70                     ; 0x70 <__bss_size+0x2a>
    239a: f0 03        	beq	$239f <printf+0xbc>
    239c: 4c b8 24     	jmp	$24b8 <printf+0x1d5>
    239f: a6 6f        	ldx	$6f                     ; 0x6f <__bss_size+0x29>
    23a1: 86 12        	stx	$12                     ; 0x12 <__rc2>
    23a3: c5 12        	cmp	$12                     ; 0x12 <__rc2>
    23a5: 4c ba 24     	jmp	$24ba <printf+0x1d7>
    23a8: a2 01        	ldx	#$1
    23aa: 86 15        	stx	$15                     ; 0x15 <__rc5>
    23ac: 64 6d        	stz	$6d                     ; 0x6d <__bss_size+0x27>
    23ae: 64 6e        	stz	$6e                     ; 0x6e <__bss_size+0x28>
    23b0: 64 6c        	stz	$6c                     ; 0x6c <__bss_size+0x26>
    23b2: 64 77        	stz	$77                     ; 0x77 <__bss_size+0x31>
    23b4: 64 78        	stz	$78                     ; 0x78 <__bss_size+0x32>
    23b6: a2 ff        	ldx	#$ff
    23b8: 86 79        	stx	$79                     ; 0x79 <__bss_size+0x33>
    23ba: 86 7a        	stx	$7a                     ; 0x7a <__bss_size+0x34>
    23bc: 64 3c        	stz	$3c                     ; 0x3c <__rc31+0xd>
    23be: 80 33        	bra	$23f3 <printf+0x110>
    23c0: a2 02        	ldx	#$2
    23c2: 80 15        	bra	$23d9 <printf+0xf6>
    23c4: e0 20        	cpx	#$20
    23c6: f0 15        	beq	$23dd <printf+0xfa>
    23c8: 86 16        	stx	$16                     ; 0x16 <__rc6>
    23ca: e0 23        	cpx	#$23
    23cc: f0 03        	beq	$23d1 <printf+0xee>
    23ce: 4c 50 24     	jmp	$2450 <printf+0x16d>
    23d1: a5 3c        	lda	$3c                     ; 0x3c <__rc31+0xd>
    23d3: a2 04        	ldx	#$4
    23d5: 80 02        	bra	$23d9 <printf+0xf6>
    23d7: a2 10        	ldx	#$10
    23d9: 86 14        	stx	$14                     ; 0x14 <__rc4>
    23db: 80 06        	bra	$23e3 <printf+0x100>
    23dd: a2 08        	ldx	#$8
    23df: 86 14        	stx	$14                     ; 0x14 <__rc4>
    23e1: a5 3c        	lda	$3c                     ; 0x3c <__rc31+0xd>
    23e3: 05 14        	ora	$14                     ; 0x14 <__rc4>
    23e5: 85 3c        	sta	$3c                     ; 0x3c <__rc31+0xd>
    23e7: 85 6d        	sta	$6d                     ; 0x6d <__bss_size+0x27>
    23e9: a2 00        	ldx	#$0
    23eb: 86 6e        	stx	$6e                     ; 0x6e <__bss_size+0x28>
    23ed: e6 12        	inc	$12                     ; 0x12 <__rc2>
    23ef: d0 02        	bne	$23f3 <printf+0x110>
    23f1: e6 13        	inc	$13                     ; 0x13 <__rc3>
    23f3: b2 12        	lda	($12)                   ; 0x12 <__rc2>
    23f5: 18           	clc
    23f6: aa           	tax
    23f7: 69 d6        	adc	#$d6
    23f9: c9 07        	cmp	#$7
    23fb: b0 c7        	bcs	$23c4 <printf+0xe1>
    23fd: 86 16        	stx	$16                     ; 0x16 <__rc6>
    23ff: 0a           	asl
    2400: aa           	tax
    2401: a0 01        	ldy	#$1
    2403: 84 14        	sty	$14                     ; 0x14 <__rc4>
    2405: a5 3c        	lda	$3c                     ; 0x3c <__rc31+0xd>
    2407: 7c 54 34     	jmp	($3454,x)               ; 0x3454 <__BLOCK_SIZE+0x1454>
    240a: a5 7d        	lda	$7d                     ; 0x7d <__bss_size+0x37>
    240c: a6 7e        	ldx	$7e                     ; 0x7e <__bss_size+0x38>
    240e: 85 16        	sta	$16                     ; 0x16 <__rc6>
    2410: 86 17        	stx	$17                     ; 0x17 <__rc7>
    2412: 18           	clc
    2413: 69 02        	adc	#$2
    2415: a8           	tay
    2416: 8a           	txa
    2417: 69 00        	adc	#$0
    2419: 84 7d        	sty	$7d                     ; 0x7d <__bss_size+0x37>
    241b: 85 7e        	sta	$7e                     ; 0x7e <__bss_size+0x38>
    241d: b2 16        	lda	($16)                   ; 0x16 <__rc6>
    241f: 85 15        	sta	$15                     ; 0x15 <__rc5>
    2421: a0 01        	ldy	#$1
    2423: b1 16        	lda	($16),y                 ; 0x16 <__rc6>
    2425: 85 14        	sta	$14                     ; 0x14 <__rc4>
    2427: 10 15        	bpl	$243e <printf+0x15b>
    2429: a5 3c        	lda	$3c                     ; 0x3c <__rc31+0xd>
    242b: 09 01        	ora	#$1
    242d: 85 3c        	sta	$3c                     ; 0x3c <__rc31+0xd>
    242f: 85 6d        	sta	$6d                     ; 0x6d <__bss_size+0x27>
    2431: a2 00        	ldx	#$0
    2433: 86 6e        	stx	$6e                     ; 0x6e <__bss_size+0x28>
    2435: 8a           	txa
    2436: 38           	sec
    2437: e5 15        	sbc	$15                     ; 0x15 <__rc5>
    2439: 85 15        	sta	$15                     ; 0x15 <__rc5>
    243b: 8a           	txa
    243c: e5 14        	sbc	$14                     ; 0x14 <__rc4>
    243e: a6 15        	ldx	$15                     ; 0x15 <__rc5>
    2440: 86 77        	stx	$77                     ; 0x77 <__bss_size+0x31>
    2442: 85 78        	sta	$78                     ; 0x78 <__bss_size+0x32>
    2444: e6 12        	inc	$12                     ; 0x12 <__rc2>
    2446: f0 03        	beq	$244b <printf+0x168>
    2448: 4c 1b 25     	jmp	$251b <printf+0x238>
    244b: e6 13        	inc	$13                     ; 0x13 <__rc3>
    244d: 4c 1b 25     	jmp	$251b <printf+0x238>
    2450: 18           	clc
    2451: a5 16        	lda	$16                     ; 0x16 <__rc6>
    2453: 69 d0        	adc	#$d0
    2455: c9 0a        	cmp	#$a
    2457: 90 03        	bcc	$245c <printf+0x179>
    2459: 4c 0d 25     	jmp	$250d <printf+0x22a>
    245c: a6 16        	ldx	$16                     ; 0x16 <__rc6>
    245e: 86 14        	stx	$14                     ; 0x14 <__rc4>
    2460: 64 16        	stz	$16                     ; 0x16 <__rc6>
    2462: 64 15        	stz	$15                     ; 0x15 <__rc5>
    2464: 64 17        	stz	$17                     ; 0x17 <__rc7>
    2466: a0 01        	ldy	#$1
    2468: a2 00        	ldx	#$0
    246a: 06 16        	asl	$16                     ; 0x16 <__rc6>
    246c: 26 17        	rol	$17                     ; 0x17 <__rc7>
    246e: a5 16        	lda	$16                     ; 0x16 <__rc6>
    2470: 0a           	asl
    2471: 85 18        	sta	$18                     ; 0x18 <__rc8>
    2473: a5 17        	lda	$17                     ; 0x17 <__rc7>
    2475: 2a           	rol
    2476: 06 18        	asl	$18                     ; 0x18 <__rc8>
    2478: 2a           	rol
    2479: 85 19        	sta	$19                     ; 0x19 <__rc9>
    247b: a5 18        	lda	$18                     ; 0x18 <__rc8>
    247d: 18           	clc
    247e: 65 16        	adc	$16                     ; 0x16 <__rc6>
    2480: 85 16        	sta	$16                     ; 0x16 <__rc6>
    2482: a5 19        	lda	$19                     ; 0x19 <__rc9>
    2484: 65 17        	adc	$17                     ; 0x17 <__rc7>
    2486: 85 17        	sta	$17                     ; 0x17 <__rc7>
    2488: a5 16        	lda	$16                     ; 0x16 <__rc6>
    248a: 18           	clc
    248b: 65 14        	adc	$14                     ; 0x14 <__rc4>
    248d: 85 14        	sta	$14                     ; 0x14 <__rc4>
    248f: a5 17        	lda	$17                     ; 0x17 <__rc7>
    2491: 65 15        	adc	$15                     ; 0x15 <__rc5>
    2493: 85 15        	sta	$15                     ; 0x15 <__rc5>
    2495: 18           	clc
    2496: a5 14        	lda	$14                     ; 0x14 <__rc4>
    2498: 69 d0        	adc	#$d0
    249a: 85 16        	sta	$16                     ; 0x16 <__rc6>
    249c: a5 15        	lda	$15                     ; 0x15 <__rc5>
    249e: 69 ff        	adc	#$ff
    24a0: 85 17        	sta	$17                     ; 0x17 <__rc7>
    24a2: b1 12        	lda	($12),y                 ; 0x12 <__rc2>
    24a4: 85 14        	sta	$14                     ; 0x14 <__rc4>
    24a6: 18           	clc
    24a7: 69 d0        	adc	#$d0
    24a9: e6 12        	inc	$12                     ; 0x12 <__rc2>
    24ab: d0 02        	bne	$24af <printf+0x1cc>
    24ad: e6 13        	inc	$13                     ; 0x13 <__rc3>
    24af: c9 0a        	cmp	#$a
    24b1: 64 15        	stz	$15                     ; 0x15 <__rc5>
    24b3: 90 b5        	bcc	$246a <printf+0x187>
    24b5: 4c 13 25     	jmp	$2513 <printf+0x230>
    24b8: c4 70        	cpy	$70                     ; 0x70 <__bss_size+0x2a>
    24ba: 84 16        	sty	$16                     ; 0x16 <__rc6>
    24bc: a4 13        	ldy	$13                     ; 0x13 <__rc3>
    24be: b0 37        	bcs	$24f7 <printf+0x214>
    24c0: a2 01        	ldx	#$1
    24c2: 86 14        	stx	$14                     ; 0x14 <__rc4>
    24c4: a6 7c        	ldx	$7c                     ; 0x7c <__bss_size+0x36>
    24c6: a0 00        	ldy	#$0
    24c8: 84 12        	sty	$12                     ; 0x12 <__rc2>
    24ca: a0 00        	ldy	#$0
    24cc: 84 13        	sty	$13                     ; 0x13 <__rc3>
    24ce: e4 13        	cpx	$13                     ; 0x13 <__rc3>
    24d0: d0 19        	bne	$24eb <printf+0x208>
    24d2: a6 7b        	ldx	$7b                     ; 0x7b <__bss_size+0x35>
    24d4: e4 12        	cpx	$12                     ; 0x12 <__rc2>
    24d6: d0 13        	bne	$24eb <printf+0x208>
    24d8: a4 14        	ldy	$14                     ; 0x14 <__rc4>
    24da: 18           	clc
    24db: 65 75        	adc	$75                     ; 0x75 <__bss_size+0x2f>
    24dd: 85 12        	sta	$12                     ; 0x12 <__rc2>
    24df: a5 16        	lda	$16                     ; 0x16 <__rc6>
    24e1: 65 76        	adc	$76                     ; 0x76 <__bss_size+0x30>
    24e3: 85 13        	sta	$13                     ; 0x13 <__rc3>
    24e5: a9 25        	lda	#$25
    24e7: 92 12        	sta	($12)                   ; 0x12 <__rc2>
    24e9: 80 0c        	bra	$24f7 <printf+0x214>
    24eb: a2 01        	ldx	#$1
    24ed: 86 3e        	stx	$3e                     ; 0x3e <__rc31+0xf>
    24ef: ca           	dex
    24f0: a9 25        	lda	#$25
    24f2: 20 1d 30     	jsr	$301d <putchar>
    24f5: a4 3e        	ldy	$3e                     ; 0x3e <__rc31+0xf>
    24f7: e6 71        	inc	$71                     ; 0x71 <__bss_size+0x2b>
    24f9: d0 02        	bne	$24fd <printf+0x21a>
    24fb: e6 72        	inc	$72                     ; 0x72 <__bss_size+0x2c>
    24fd: a5 40        	lda	$40                     ; 0x40 <__rc31+0x11>
    24ff: 18           	clc
    2500: 69 02        	adc	#$2
    2502: 85 3e        	sta	$3e                     ; 0x3e <__rc31+0xf>
    2504: a5 41        	lda	$41                     ; 0x41 <__rc31+0x12>
    2506: 69 00        	adc	#$0
    2508: 85 3f        	sta	$3f                     ; 0x3f <__rc31+0x10>
    250a: 4c 48 23     	jmp	$2348 <printf+0x65>
    250d: 64 16        	stz	$16                     ; 0x16 <__rc6>
    250f: 64 17        	stz	$17                     ; 0x17 <__rc7>
    2511: a4 15        	ldy	$15                     ; 0x15 <__rc5>
    2513: a6 16        	ldx	$16                     ; 0x16 <__rc6>
    2515: 86 77        	stx	$77                     ; 0x77 <__bss_size+0x31>
    2517: a5 17        	lda	$17                     ; 0x17 <__rc7>
    2519: 85 78        	sta	$78                     ; 0x78 <__bss_size+0x32>
    251b: 86 1a        	stx	$1a                     ; 0x1a <__rc10>
    251d: 85 1e        	sta	$1e                     ; 0x1e <__rc14>
    251f: b2 12        	lda	($12)                   ; 0x12 <__rc2>
    2521: a2 ff        	ldx	#$ff
    2523: c9 2e        	cmp	#$2e
    2525: d0 39        	bne	$2560 <printf+0x27d>
    2527: b1 12        	lda	($12),y                 ; 0x12 <__rc2>
    2529: c9 2a        	cmp	#$2a
    252b: d0 38        	bne	$2565 <printf+0x282>
    252d: a5 7d        	lda	$7d                     ; 0x7d <__bss_size+0x37>
    252f: a6 7e        	ldx	$7e                     ; 0x7e <__bss_size+0x38>
    2531: 85 14        	sta	$14                     ; 0x14 <__rc4>
    2533: 86 15        	stx	$15                     ; 0x15 <__rc5>
    2535: 18           	clc
    2536: 69 02        	adc	#$2
    2538: 85 16        	sta	$16                     ; 0x16 <__rc6>
    253a: 8a           	txa
    253b: 69 00        	adc	#$0
    253d: a6 16        	ldx	$16                     ; 0x16 <__rc6>
    253f: 86 7d        	stx	$7d                     ; 0x7d <__bss_size+0x37>
    2541: 85 7e        	sta	$7e                     ; 0x7e <__bss_size+0x38>
    2543: a5 12        	lda	$12                     ; 0x12 <__rc2>
    2545: 18           	clc
    2546: 69 02        	adc	#$2
    2548: 85 12        	sta	$12                     ; 0x12 <__rc2>
    254a: a5 13        	lda	$13                     ; 0x13 <__rc3>
    254c: 69 00        	adc	#$0
    254e: 85 13        	sta	$13                     ; 0x13 <__rc3>
    2550: b2 14        	lda	($14)                   ; 0x14 <__rc4>
    2552: aa           	tax
    2553: b1 14        	lda	($14),y                 ; 0x14 <__rc4>
    2555: 86 18        	stx	$18                     ; 0x18 <__rc8>
    2557: 86 79        	stx	$79                     ; 0x79 <__bss_size+0x33>
    2559: 85 19        	sta	$19                     ; 0x19 <__rc9>
    255b: 85 7a        	sta	$7a                     ; 0x7a <__bss_size+0x34>
    255d: 4c 23 26     	jmp	$2623 <printf+0x340>
    2560: 86 18        	stx	$18                     ; 0x18 <__rc8>
    2562: 4c 33 26     	jmp	$2633 <printf+0x350>
    2565: 85 17        	sta	$17                     ; 0x17 <__rc7>
    2567: 18           	clc
    2568: 69 d0        	adc	#$d0
    256a: c9 0a        	cmp	#$a
    256c: 90 03        	bcc	$2571 <printf+0x28e>
    256e: 4c 15 26     	jmp	$2615 <printf+0x332>
    2571: 64 16        	stz	$16                     ; 0x16 <__rc6>
    2573: a2 01        	ldx	#$1
    2575: 64 18        	stz	$18                     ; 0x18 <__rc8>
    2577: 64 19        	stz	$19                     ; 0x19 <__rc9>
    2579: 84 1b        	sty	$1b                     ; 0x1b <__rc11>
    257b: 64 1c        	stz	$1c                     ; 0x1c <__rc12>
    257d: 18           	clc
    257e: a0 01        	ldy	#$1
    2580: b0 02        	bcs	$2584 <printf+0x2a1>
    2582: a0 00        	ldy	#$0
    2584: 84 1d        	sty	$1d                     ; 0x1d <__rc13>
    2586: a4 1c        	ldy	$1c                     ; 0x1c <__rc12>
    2588: 84 14        	sty	$14                     ; 0x14 <__rc4>
    258a: 86 15        	stx	$15                     ; 0x15 <__rc5>
    258c: 06 18        	asl	$18                     ; 0x18 <__rc8>
    258e: 26 19        	rol	$19                     ; 0x19 <__rc9>
    2590: a5 18        	lda	$18                     ; 0x18 <__rc8>
    2592: 0a           	asl
    2593: a8           	tay
    2594: a5 19        	lda	$19                     ; 0x19 <__rc9>
    2596: 2a           	rol
    2597: 84 1f        	sty	$1f                     ; 0x1f <__rc15>
    2599: 06 1f        	asl	$1f                     ; 0x1f <__rc15>
    259b: 2a           	rol
    259c: 85 22        	sta	$22                     ; 0x22 <__rc18>
    259e: a5 1f        	lda	$1f                     ; 0x1f <__rc15>
    25a0: a4 1d        	ldy	$1d                     ; 0x1d <__rc13>
    25a2: c0 01        	cpy	#$1
    25a4: 65 18        	adc	$18                     ; 0x18 <__rc8>
    25a6: 85 18        	sta	$18                     ; 0x18 <__rc8>
    25a8: a5 22        	lda	$22                     ; 0x22 <__rc18>
    25aa: 65 19        	adc	$19                     ; 0x19 <__rc9>
    25ac: 85 19        	sta	$19                     ; 0x19 <__rc9>
    25ae: a5 18        	lda	$18                     ; 0x18 <__rc8>
    25b0: a4 1d        	ldy	$1d                     ; 0x1d <__rc13>
    25b2: c0 01        	cpy	#$1
    25b4: 65 17        	adc	$17                     ; 0x17 <__rc7>
    25b6: 85 17        	sta	$17                     ; 0x17 <__rc7>
    25b8: a5 19        	lda	$19                     ; 0x19 <__rc9>
    25ba: 65 16        	adc	$16                     ; 0x16 <__rc6>
    25bc: 85 16        	sta	$16                     ; 0x16 <__rc6>
    25be: 18           	clc
    25bf: a5 17        	lda	$17                     ; 0x17 <__rc7>
    25c1: 69 d0        	adc	#$d0
    25c3: 85 18        	sta	$18                     ; 0x18 <__rc8>
    25c5: a5 16        	lda	$16                     ; 0x16 <__rc6>
    25c7: 69 ff        	adc	#$ff
    25c9: 85 19        	sta	$19                     ; 0x19 <__rc9>
    25cb: e8           	inx
    25cc: d0 02        	bne	$25d0 <printf+0x2ed>
    25ce: e6 1c        	inc	$1c                     ; 0x1c <__rc12>
    25d0: a5 12        	lda	$12                     ; 0x12 <__rc2>
    25d2: a4 1d        	ldy	$1d                     ; 0x1d <__rc13>
    25d4: c0 01        	cpy	#$1
    25d6: 65 15        	adc	$15                     ; 0x15 <__rc5>
    25d8: a8           	tay
    25d9: a5 13        	lda	$13                     ; 0x13 <__rc3>
    25db: 65 14        	adc	$14                     ; 0x14 <__rc4>
    25dd: 84 16        	sty	$16                     ; 0x16 <__rc6>
    25df: 85 17        	sta	$17                     ; 0x17 <__rc7>
    25e1: a4 1b        	ldy	$1b                     ; 0x1b <__rc11>
    25e3: b1 16        	lda	($16),y                 ; 0x16 <__rc6>
    25e5: 85 17        	sta	$17                     ; 0x17 <__rc7>
    25e7: 18           	clc
    25e8: 69 d0        	adc	#$d0
    25ea: c9 0a        	cmp	#$a
    25ec: 64 16        	stz	$16                     ; 0x16 <__rc6>
    25ee: b0 03        	bcs	$25f3 <printf+0x310>
    25f0: 4c 86 25     	jmp	$2586 <printf+0x2a3>
    25f3: a5 12        	lda	$12                     ; 0x12 <__rc2>
    25f5: a6 1d        	ldx	$1d                     ; 0x1d <__rc13>
    25f7: e0 01        	cpx	#$1
    25f9: 65 15        	adc	$15                     ; 0x15 <__rc5>
    25fb: 85 12        	sta	$12                     ; 0x12 <__rc2>
    25fd: a5 13        	lda	$13                     ; 0x13 <__rc3>
    25ff: 65 14        	adc	$14                     ; 0x14 <__rc4>
    2601: 85 13        	sta	$13                     ; 0x13 <__rc3>
    2603: e6 12        	inc	$12                     ; 0x12 <__rc2>
    2605: d0 02        	bne	$2609 <printf+0x326>
    2607: e6 13        	inc	$13                     ; 0x13 <__rc3>
    2609: a6 18        	ldx	$18                     ; 0x18 <__rc8>
    260b: 86 79        	stx	$79                     ; 0x79 <__bss_size+0x33>
    260d: a6 19        	ldx	$19                     ; 0x19 <__rc9>
    260f: 86 7a        	stx	$7a                     ; 0x7a <__bss_size+0x34>
    2611: a4 1b        	ldy	$1b                     ; 0x1b <__rc11>
    2613: 80 0e        	bra	$2623 <printf+0x340>
    2615: e6 12        	inc	$12                     ; 0x12 <__rc2>
    2617: d0 02        	bne	$261b <printf+0x338>
    2619: e6 13        	inc	$13                     ; 0x13 <__rc3>
    261b: 64 18        	stz	$18                     ; 0x18 <__rc8>
    261d: 64 79        	stz	$79                     ; 0x79 <__bss_size+0x33>
    261f: 64 7a        	stz	$7a                     ; 0x7a <__bss_size+0x34>
    2621: 64 19        	stz	$19                     ; 0x19 <__rc9>
    2623: a5 3c        	lda	$3c                     ; 0x3c <__rc31+0xd>
    2625: 29 ef        	and	#$ef
    2627: 85 3c        	sta	$3c                     ; 0x3c <__rc31+0xd>
    2629: 85 6d        	sta	$6d                     ; 0x6d <__bss_size+0x27>
    262b: a2 00        	ldx	#$0
    262d: 86 6e        	stx	$6e                     ; 0x6e <__bss_size+0x28>
    262f: b2 12        	lda	($12)                   ; 0x12 <__rc2>
    2631: a6 19        	ldx	$19                     ; 0x19 <__rc9>
    2633: 86 15        	stx	$15                     ; 0x15 <__rc5>
    2635: a6 12        	ldx	$12                     ; 0x12 <__rc2>
    2637: 86 3e        	stx	$3e                     ; 0x3e <__rc31+0xf>
    2639: a6 13        	ldx	$13                     ; 0x13 <__rc3>
    263b: 86 3f        	stx	$3f                     ; 0x3f <__rc31+0x10>
    263d: e6 3e        	inc	$3e                     ; 0x3e <__rc31+0xf>
    263f: d0 02        	bne	$2643 <printf+0x360>
    2641: e6 3f        	inc	$3f                     ; 0x3f <__rc31+0x10>
    2643: 85 14        	sta	$14                     ; 0x14 <__rc4>
    2645: 38           	sec
    2646: e9 6c        	sbc	#$6c
    2648: 50 02        	bvc	$264c <printf+0x369>
    264a: 49 80        	eor	#$80
    264c: aa           	tax
    264d: 10 21        	bpl	$2670 <printf+0x38d>
    264f: a6 14        	ldx	$14                     ; 0x14 <__rc4>
    2651: e0 4c        	cpx	#$4c
    2653: f0 37        	beq	$268c <printf+0x3a9>
    2655: e0 68        	cpx	#$68
    2657: d0 03        	bne	$265c <printf+0x379>
    2659: 4c 07 27     	jmp	$2707 <printf+0x424>
    265c: a4 14        	ldy	$14                     ; 0x14 <__rc4>
    265e: a9 01        	lda	#$1
    2660: a2 08        	ldx	#$8
    2662: c0 6a        	cpy	#$6a
    2664: d0 22        	bne	$2688 <printf+0x3a5>
    2666: a4 3e        	ldy	$3e                     ; 0x3e <__rc31+0xf>
    2668: 84 12        	sty	$12                     ; 0x12 <__rc2>
    266a: a4 3f        	ldy	$3f                     ; 0x3f <__rc31+0x10>
    266c: 84 13        	sty	$13                     ; 0x13 <__rc3>
    266e: 80 52        	bra	$26c2 <printf+0x3df>
    2670: a6 14        	ldx	$14                     ; 0x14 <__rc4>
    2672: e0 6c        	cpx	#$6c
    2674: f0 31        	beq	$26a7 <printf+0x3c4>
    2676: e0 74        	cpx	#$74
    2678: f0 1e        	beq	$2698 <printf+0x3b5>
    267a: a9 01        	lda	#$1
    267c: e0 7a        	cpx	#$7a
    267e: d0 08        	bne	$2688 <printf+0x3a5>
    2680: a6 3e        	ldx	$3e                     ; 0x3e <__rc31+0xf>
    2682: 86 12        	stx	$12                     ; 0x12 <__rc2>
    2684: a6 3f        	ldx	$3f                     ; 0x3f <__rc31+0x10>
    2686: 86 13        	stx	$13                     ; 0x13 <__rc3>
    2688: a2 02        	ldx	#$2
    268a: 80 17        	bra	$26a3 <printf+0x3c0>
    268c: a5 3c        	lda	$3c                     ; 0x3c <__rc31+0xd>
    268e: 09 40        	ora	#$40
    2690: 85 3c        	sta	$3c                     ; 0x3c <__rc31+0xd>
    2692: 85 6d        	sta	$6d                     ; 0x6d <__bss_size+0x27>
    2694: a2 00        	ldx	#$0
    2696: 86 6e        	stx	$6e                     ; 0x6e <__bss_size+0x28>
    2698: a6 3e        	ldx	$3e                     ; 0x3e <__rc31+0xf>
    269a: 86 12        	stx	$12                     ; 0x12 <__rc2>
    269c: a6 3f        	ldx	$3f                     ; 0x3f <__rc31+0x10>
    269e: 86 13        	stx	$13                     ; 0x13 <__rc3>
    26a0: a2 02        	ldx	#$2
    26a2: 98           	tya
    26a3: a0 02        	ldy	#$2
    26a5: 80 1d        	bra	$26c4 <printf+0x3e1>
    26a7: b1 12        	lda	($12),y                 ; 0x12 <__rc2>
    26a9: a2 04        	ldx	#$4
    26ab: c9 6c        	cmp	#$6c
    26ad: f0 03        	beq	$26b2 <printf+0x3cf>
    26af: 4c 24 27     	jmp	$2724 <printf+0x441>
    26b2: a5 12        	lda	$12                     ; 0x12 <__rc2>
    26b4: 18           	clc
    26b5: 69 02        	adc	#$2
    26b7: 85 12        	sta	$12                     ; 0x12 <__rc2>
    26b9: a5 13        	lda	$13                     ; 0x13 <__rc3>
    26bb: 69 00        	adc	#$0
    26bd: 85 13        	sta	$13                     ; 0x13 <__rc3>
    26bf: a2 08        	ldx	#$8
    26c1: 98           	tya
    26c2: a0 08        	ldy	#$8
    26c4: 84 3d        	sty	$3d                     ; 0x3d <__rc31+0xe>
    26c6: a8           	tay
    26c7: b2 12        	lda	($12)                   ; 0x12 <__rc2>
    26c9: 5a           	phy
    26ca: a4 12        	ldy	$12                     ; 0x12 <__rc2>
    26cc: 84 3e        	sty	$3e                     ; 0x3e <__rc31+0xf>
    26ce: a4 13        	ldy	$13                     ; 0x13 <__rc3>
    26d0: 84 3f        	sty	$3f                     ; 0x3f <__rc31+0x10>
    26d2: 7a           	ply
    26d3: 86 46        	stx	$46                     ; 0x46 <__bss_size>
    26d5: aa           	tax
    26d6: 18           	clc
    26d7: 69 9d        	adc	#$9d
    26d9: c9 16        	cmp	#$16
    26db: b0 4c        	bcs	$2729 <printf+0x446>
    26dd: 0a           	asl
    26de: aa           	tax
    26df: 7c 62 34     	jmp	($3462,x)               ; 0x3462 <__BLOCK_SIZE+0x1462>
    26e2: a6 3e        	ldx	$3e                     ; 0x3e <__rc31+0xf>
    26e4: 86 82        	stx	$82                     ; 0x82 <__bss_size+0x3c>
    26e6: a6 3f        	ldx	$3f                     ; 0x3f <__rc31+0x10>
    26e8: 86 83        	stx	$83                     ; 0x83 <__bss_size+0x3d>
    26ea: a6 15        	ldx	$15                     ; 0x15 <__rc5>
    26ec: 86 86        	stx	$86                     ; 0x86 <__bss_size+0x40>
    26ee: a6 18        	ldx	$18                     ; 0x18 <__rc8>
    26f0: 86 81        	stx	$81                     ; 0x81 <__bss_size+0x3b>
    26f2: a6 1e        	ldx	$1e                     ; 0x1e <__rc14>
    26f4: 86 87        	stx	$87                     ; 0x87 <__bss_size+0x41>
    26f6: a6 1a        	ldx	$1a                     ; 0x1a <__rc10>
    26f8: 86 45        	stx	$45                     ; 0x45 <__rc31+0x16>
    26fa: a0 0a        	ldy	#$a
    26fc: a2 0a        	ldx	#$a
    26fe: 86 47        	stx	$47                     ; 0x47 <__bss_size+0x1>
    2700: 84 6c        	sty	$6c                     ; 0x6c <__bss_size+0x26>
    2702: 64 44        	stz	$44                     ; 0x44 <__rc31+0x15>
    2704: 4c 76 28     	jmp	$2876 <printf+0x593>
    2707: b1 12        	lda	($12),y                 ; 0x12 <__rc2>
    2709: a2 02        	ldx	#$2
    270b: c9 68        	cmp	#$68
    270d: d0 15        	bne	$2724 <printf+0x441>
    270f: a5 12        	lda	$12                     ; 0x12 <__rc2>
    2711: 18           	clc
    2712: 69 02        	adc	#$2
    2714: 85 12        	sta	$12                     ; 0x12 <__rc2>
    2716: a5 13        	lda	$13                     ; 0x13 <__rc3>
    2718: 69 00        	adc	#$0
    271a: 85 13        	sta	$13                     ; 0x13 <__rc3>
    271c: a2 01        	ldx	#$1
    271e: 86 3d        	stx	$3d                     ; 0x3d <__rc31+0xe>
    2720: e8           	inx
    2721: 4c c7 26     	jmp	$26c7 <printf+0x3e4>
    2724: 86 3d        	stx	$3d                     ; 0x3d <__rc31+0xe>
    2726: 4c d3 26     	jmp	$26d3 <printf+0x3f0>
    2729: e0 58        	cpx	#$58
    272b: f0 03        	beq	$2730 <printf+0x44d>
    272d: 4c d1 2f     	jmp	$2fd1 <printf+0xcee>
    2730: a6 3e        	ldx	$3e                     ; 0x3e <__rc31+0xf>
    2732: 86 82        	stx	$82                     ; 0x82 <__bss_size+0x3c>
    2734: a6 3f        	ldx	$3f                     ; 0x3f <__rc31+0x10>
    2736: 86 83        	stx	$83                     ; 0x83 <__bss_size+0x3d>
    2738: a6 15        	ldx	$15                     ; 0x15 <__rc5>
    273a: 86 86        	stx	$86                     ; 0x86 <__bss_size+0x40>
    273c: a6 18        	ldx	$18                     ; 0x18 <__rc8>
    273e: 86 81        	stx	$81                     ; 0x81 <__bss_size+0x3b>
    2740: a6 1e        	ldx	$1e                     ; 0x1e <__rc14>
    2742: 86 87        	stx	$87                     ; 0x87 <__bss_size+0x41>
    2744: a6 1a        	ldx	$1a                     ; 0x1a <__rc10>
    2746: 86 45        	stx	$45                     ; 0x45 <__rc31+0x16>
    2748: a2 10        	ldx	#$10
    274a: 86 6c        	stx	$6c                     ; 0x6c <__bss_size+0x26>
    274c: a9 00        	lda	#$0
    274e: 09 01        	ora	#$1
    2750: a6 3c        	ldx	$3c                     ; 0x3c <__rc31+0xd>
    2752: 80 49        	bra	$279d <printf+0x4ba>
    2754: a6 3e        	ldx	$3e                     ; 0x3e <__rc31+0xf>
    2756: 86 82        	stx	$82                     ; 0x82 <__bss_size+0x3c>
    2758: a6 3f        	ldx	$3f                     ; 0x3f <__rc31+0x10>
    275a: 86 83        	stx	$83                     ; 0x83 <__bss_size+0x3d>
    275c: a6 15        	ldx	$15                     ; 0x15 <__rc5>
    275e: 86 86        	stx	$86                     ; 0x86 <__bss_size+0x40>
    2760: a6 18        	ldx	$18                     ; 0x18 <__rc8>
    2762: 86 81        	stx	$81                     ; 0x81 <__bss_size+0x3b>
    2764: a6 1e        	ldx	$1e                     ; 0x1e <__rc14>
    2766: 86 87        	stx	$87                     ; 0x87 <__bss_size+0x41>
    2768: a6 1a        	ldx	$1a                     ; 0x1a <__rc10>
    276a: 86 45        	stx	$45                     ; 0x45 <__rc31+0x16>
    276c: a2 10        	ldx	#$10
    276e: 86 6c        	stx	$6c                     ; 0x6c <__bss_size+0x26>
    2770: a5 3c        	lda	$3c                     ; 0x3c <__rc31+0xd>
    2772: 09 84        	ora	#$84
    2774: 80 20        	bra	$2796 <printf+0x4b3>
    2776: a6 3e        	ldx	$3e                     ; 0x3e <__rc31+0xf>
    2778: 86 82        	stx	$82                     ; 0x82 <__bss_size+0x3c>
    277a: a6 3f        	ldx	$3f                     ; 0x3f <__rc31+0x10>
    277c: 86 83        	stx	$83                     ; 0x83 <__bss_size+0x3d>
    277e: a6 15        	ldx	$15                     ; 0x15 <__rc5>
    2780: 86 86        	stx	$86                     ; 0x86 <__bss_size+0x40>
    2782: a6 18        	ldx	$18                     ; 0x18 <__rc8>
    2784: 86 81        	stx	$81                     ; 0x81 <__bss_size+0x3b>
    2786: a6 1e        	ldx	$1e                     ; 0x1e <__rc14>
    2788: 86 87        	stx	$87                     ; 0x87 <__bss_size+0x41>
    278a: a6 1a        	ldx	$1a                     ; 0x1a <__rc10>
    278c: 86 45        	stx	$45                     ; 0x45 <__rc31+0x16>
    278e: a2 10        	ldx	#$10
    2790: 86 6c        	stx	$6c                     ; 0x6c <__bss_size+0x26>
    2792: a5 3c        	lda	$3c                     ; 0x3c <__rc31+0xd>
    2794: 09 80        	ora	#$80
    2796: aa           	tax
    2797: a9 00        	lda	#$0
    2799: 09 01        	ora	#$1
    279b: 86 3c        	stx	$3c                     ; 0x3c <__rc31+0xd>
    279d: 86 6d        	stx	$6d                     ; 0x6d <__bss_size+0x27>
    279f: 85 44        	sta	$44                     ; 0x44 <__rc31+0x15>
    27a1: 85 6e        	sta	$6e                     ; 0x6e <__bss_size+0x28>
    27a3: a2 10        	ldx	#$10
    27a5: 86 47        	stx	$47                     ; 0x47 <__bss_size+0x1>
    27a7: 4c 76 28     	jmp	$2876 <printf+0x593>
    27aa: a5 7d        	lda	$7d                     ; 0x7d <__bss_size+0x37>
    27ac: a6 7e        	ldx	$7e                     ; 0x7e <__bss_size+0x38>
    27ae: 85 12        	sta	$12                     ; 0x12 <__rc2>
    27b0: 86 13        	stx	$13                     ; 0x13 <__rc3>
    27b2: 18           	clc
    27b3: 69 02        	adc	#$2
    27b5: 85 14        	sta	$14                     ; 0x14 <__rc4>
    27b7: 8a           	txa
    27b8: 69 00        	adc	#$0
    27ba: a6 14        	ldx	$14                     ; 0x14 <__rc4>
    27bc: 86 7d        	stx	$7d                     ; 0x7d <__bss_size+0x37>
    27be: 85 7e        	sta	$7e                     ; 0x7e <__bss_size+0x38>
    27c0: b2 12        	lda	($12)                   ; 0x12 <__rc2>
    27c2: aa           	tax
    27c3: b1 12        	lda	($12),y                 ; 0x12 <__rc2>
    27c5: 86 12        	stx	$12                     ; 0x12 <__rc2>
    27c7: 85 13        	sta	$13                     ; 0x13 <__rc3>
    27c9: a5 71        	lda	$71                     ; 0x71 <__bss_size+0x2b>
    27cb: a6 72        	ldx	$72                     ; 0x72 <__bss_size+0x2c>
    27cd: 92 12        	sta	($12)                   ; 0x12 <__rc2>
    27cf: 8a           	txa
    27d0: 91 12        	sta	($12),y                 ; 0x12 <__rc2>
    27d2: 4c b9 2f     	jmp	$2fb9 <printf+0xcd6>
    27d5: a5 7d        	lda	$7d                     ; 0x7d <__bss_size+0x37>
    27d7: a6 7e        	ldx	$7e                     ; 0x7e <__bss_size+0x38>
    27d9: 85 12        	sta	$12                     ; 0x12 <__rc2>
    27db: 86 13        	stx	$13                     ; 0x13 <__rc3>
    27dd: 18           	clc
    27de: 69 02        	adc	#$2
    27e0: 85 14        	sta	$14                     ; 0x14 <__rc4>
    27e2: 8a           	txa
    27e3: 69 00        	adc	#$0
    27e5: a6 14        	ldx	$14                     ; 0x14 <__rc4>
    27e7: 86 7d        	stx	$7d                     ; 0x7d <__bss_size+0x37>
    27e9: 85 7e        	sta	$7e                     ; 0x7e <__bss_size+0x38>
    27eb: b2 12        	lda	($12)                   ; 0x12 <__rc2>
    27ed: aa           	tax
    27ee: b1 12        	lda	($12),y                 ; 0x12 <__rc2>
    27f0: 86 12        	stx	$12                     ; 0x12 <__rc2>
    27f2: 85 13        	sta	$13                     ; 0x13 <__rc3>
    27f4: 80 42        	bra	$2838 <printf+0x555>
    27f6: a6 3e        	ldx	$3e                     ; 0x3e <__rc31+0xf>
    27f8: 86 82        	stx	$82                     ; 0x82 <__bss_size+0x3c>
    27fa: a6 3f        	ldx	$3f                     ; 0x3f <__rc31+0x10>
    27fc: 86 83        	stx	$83                     ; 0x83 <__bss_size+0x3d>
    27fe: a6 15        	ldx	$15                     ; 0x15 <__rc5>
    2800: 86 86        	stx	$86                     ; 0x86 <__bss_size+0x40>
    2802: a6 18        	ldx	$18                     ; 0x18 <__rc8>
    2804: 86 81        	stx	$81                     ; 0x81 <__bss_size+0x3b>
    2806: a6 1e        	ldx	$1e                     ; 0x1e <__rc14>
    2808: 86 87        	stx	$87                     ; 0x87 <__bss_size+0x41>
    280a: a6 1a        	ldx	$1a                     ; 0x1a <__rc10>
    280c: 86 45        	stx	$45                     ; 0x45 <__rc31+0x16>
    280e: a0 08        	ldy	#$8
    2810: a2 08        	ldx	#$8
    2812: 80 52        	bra	$2866 <printf+0x583>
    2814: a5 7d        	lda	$7d                     ; 0x7d <__bss_size+0x37>
    2816: a6 7e        	ldx	$7e                     ; 0x7e <__bss_size+0x38>
    2818: 85 12        	sta	$12                     ; 0x12 <__rc2>
    281a: 86 13        	stx	$13                     ; 0x13 <__rc3>
    281c: 18           	clc
    281d: 69 02        	adc	#$2
    281f: 85 14        	sta	$14                     ; 0x14 <__rc4>
    2821: 8a           	txa
    2822: 69 00        	adc	#$0
    2824: a6 14        	ldx	$14                     ; 0x14 <__rc4>
    2826: 86 7d        	stx	$7d                     ; 0x7d <__bss_size+0x37>
    2828: 85 7e        	sta	$7e                     ; 0x7e <__bss_size+0x38>
    282a: b2 12        	lda	($12)                   ; 0x12 <__rc2>
    282c: 85 5f        	sta	$5f                     ; 0x5f <__bss_size+0x19>
    282e: 64 60        	stz	$60                     ; 0x60 <__bss_size+0x1a>
    2830: a2 5f        	ldx	#$5f
    2832: 86 12        	stx	$12                     ; 0x12 <__rc2>
    2834: a2 00        	ldx	#$0
    2836: 86 13        	stx	$13                     ; 0x13 <__rc3>
    2838: a2 6c        	ldx	#$6c
    283a: 86 14        	stx	$14                     ; 0x14 <__rc4>
    283c: a2 00        	ldx	#$0
    283e: 86 15        	stx	$15                     ; 0x15 <__rc5>
    2840: 84 42        	sty	$42                     ; 0x42 <__rc31+0x13>
    2842: 20 d4 21     	jsr	$21d4 <_ZN12_GLOBAL__N_112print_stringEPKcP6Status>
    2845: a4 42        	ldy	$42                     ; 0x42 <__rc31+0x13>
    2847: 4c b9 2f     	jmp	$2fb9 <printf+0xcd6>
    284a: a6 3e        	ldx	$3e                     ; 0x3e <__rc31+0xf>
    284c: 86 82        	stx	$82                     ; 0x82 <__bss_size+0x3c>
    284e: a6 3f        	ldx	$3f                     ; 0x3f <__rc31+0x10>
    2850: 86 83        	stx	$83                     ; 0x83 <__bss_size+0x3d>
    2852: a6 15        	ldx	$15                     ; 0x15 <__rc5>
    2854: 86 86        	stx	$86                     ; 0x86 <__bss_size+0x40>
    2856: a6 18        	ldx	$18                     ; 0x18 <__rc8>
    2858: 86 81        	stx	$81                     ; 0x81 <__bss_size+0x3b>
    285a: a6 1e        	ldx	$1e                     ; 0x1e <__rc14>
    285c: 86 87        	stx	$87                     ; 0x87 <__bss_size+0x41>
    285e: a6 1a        	ldx	$1a                     ; 0x1a <__rc10>
    2860: 86 45        	stx	$45                     ; 0x45 <__rc31+0x16>
    2862: a0 0a        	ldy	#$a
    2864: a2 0a        	ldx	#$a
    2866: 86 47        	stx	$47                     ; 0x47 <__bss_size+0x1>
    2868: 84 6c        	sty	$6c                     ; 0x6c <__bss_size+0x26>
    286a: a9 00        	lda	#$0
    286c: 09 01        	ora	#$1
    286e: a6 3c        	ldx	$3c                     ; 0x3c <__rc31+0xd>
    2870: 86 6d        	stx	$6d                     ; 0x6d <__bss_size+0x27>
    2872: 85 44        	sta	$44                     ; 0x44 <__rc31+0x15>
    2874: 85 6e        	sta	$6e                     ; 0x6e <__bss_size+0x28>
    2876: a5 3d        	lda	$3d                     ; 0x3d <__rc31+0xe>
    2878: 85 61        	sta	$61                     ; 0x61 <__bss_size+0x1b>
    287a: a4 7d        	ldy	$7d                     ; 0x7d <__bss_size+0x37>
    287c: a6 7e        	ldx	$7e                     ; 0x7e <__bss_size+0x38>
    287e: 86 42        	stx	$42                     ; 0x42 <__rc31+0x13>
    2880: 84 14        	sty	$14                     ; 0x14 <__rc4>
    2882: 84 3e        	sty	$3e                     ; 0x3e <__rc31+0xf>
    2884: 86 15        	stx	$15                     ; 0x15 <__rc5>
    2886: a6 84        	ldx	$84                     ; 0x84 <__bss_size+0x3e>
    2888: 86 12        	stx	$12                     ; 0x12 <__rc2>
    288a: a6 85        	ldx	$85                     ; 0x85 <__bss_size+0x3f>
    288c: 86 13        	stx	$13                     ; 0x13 <__rc3>
    288e: a2 00        	ldx	#$0
    2890: 85 43        	sta	$43                     ; 0x43 <__rc31+0x14>
    2892: 20 08 34     	jsr	$3408 <memcpy>
    2895: 18           	clc
    2896: a5 3e        	lda	$3e                     ; 0x3e <__rc31+0xf>
    2898: 65 46        	adc	$46                     ; 0x46 <__bss_size>
    289a: aa           	tax
    289b: a5 42        	lda	$42                     ; 0x42 <__rc31+0x13>
    289d: 69 00        	adc	#$0
    289f: 86 7d        	stx	$7d                     ; 0x7d <__bss_size+0x37>
    28a1: 85 7e        	sta	$7e                     ; 0x7e <__bss_size+0x38>
    28a3: a5 44        	lda	$44                     ; 0x44 <__rc31+0x15>
    28a5: 29 01        	and	#$1
    28a7: a0 00        	ldy	#$0
    28a9: aa           	tax
    28aa: f0 03        	beq	$28af <printf+0x5cc>
    28ac: 4c 01 29     	jmp	$2901 <printf+0x61e>
    28af: a6 43        	ldx	$43                     ; 0x43 <__rc31+0x14>
    28b1: b5 61        	lda	$61,x                   ; 0x61 <__bss_size+0x1b>
    28b3: aa           	tax
    28b4: a5 45        	lda	$45                     ; 0x45 <__rc31+0x16>
    28b6: 85 17        	sta	$17                     ; 0x17 <__rc7>
    28b8: a5 87        	lda	$87                     ; 0x87 <__bss_size+0x41>
    28ba: 85 1a        	sta	$1a                     ; 0x1a <__rc10>
    28bc: a5 86        	lda	$86                     ; 0x86 <__bss_size+0x40>
    28be: 85 43        	sta	$43                     ; 0x43 <__rc31+0x14>
    28c0: a5 82        	lda	$82                     ; 0x82 <__bss_size+0x3c>
    28c2: 85 3e        	sta	$3e                     ; 0x3e <__rc31+0xf>
    28c4: a5 83        	lda	$83                     ; 0x83 <__bss_size+0x3d>
    28c6: 85 3f        	sta	$3f                     ; 0x3f <__rc31+0x10>
    28c8: 8a           	txa
    28c9: 10 4a        	bpl	$2915 <printf+0x632>
    28cb: a2 00        	ldx	#$0
    28cd: 64 12        	stz	$12                     ; 0x12 <__rc2>
    28cf: a9 00        	lda	#$0
    28d1: 38           	sec
    28d2: f5 62        	sbc	$62,x                   ; 0x62 <__bss_size+0x1c>
    28d4: a0 01        	ldy	#$1
    28d6: 84 14        	sty	$14                     ; 0x14 <__rc4>
    28d8: 88           	dey
    28d9: b0 02        	bcs	$28dd <printf+0x5fa>
    28db: a0 01        	ldy	#$1
    28dd: 38           	sec
    28de: e5 12        	sbc	$12                     ; 0x12 <__rc2>
    28e0: 85 13        	sta	$13                     ; 0x13 <__rc3>
    28e2: 64 12        	stz	$12                     ; 0x12 <__rc2>
    28e4: b0 04        	bcs	$28ea <printf+0x607>
    28e6: a5 14        	lda	$14                     ; 0x14 <__rc4>
    28e8: 85 12        	sta	$12                     ; 0x12 <__rc2>
    28ea: 98           	tya
    28eb: 05 12        	ora	$12                     ; 0x12 <__rc2>
    28ed: 85 12        	sta	$12                     ; 0x12 <__rc2>
    28ef: a5 13        	lda	$13                     ; 0x13 <__rc3>
    28f1: 9d 62 00     	sta	$62,x                   ; 0x62 <__bss_size+0x1c>
    28f4: e8           	inx
    28f5: 86 13        	stx	$13                     ; 0x13 <__rc3>
    28f7: a4 3d        	ldy	$3d                     ; 0x3d <__rc31+0xe>
    28f9: c4 13        	cpy	$13                     ; 0x13 <__rc3>
    28fb: d0 d2        	bne	$28cf <printf+0x5ec>
    28fd: a0 01        	ldy	#$1
    28ff: 80 14        	bra	$2915 <printf+0x632>
    2901: a6 45        	ldx	$45                     ; 0x45 <__rc31+0x16>
    2903: 86 17        	stx	$17                     ; 0x17 <__rc7>
    2905: a6 87        	ldx	$87                     ; 0x87 <__bss_size+0x41>
    2907: 86 1a        	stx	$1a                     ; 0x1a <__rc10>
    2909: a6 86        	ldx	$86                     ; 0x86 <__bss_size+0x40>
    290b: 86 43        	stx	$43                     ; 0x43 <__rc31+0x14>
    290d: a6 82        	ldx	$82                     ; 0x82 <__bss_size+0x3c>
    290f: 86 3e        	stx	$3e                     ; 0x3e <__rc31+0xf>
    2911: a6 83        	ldx	$83                     ; 0x83 <__bss_size+0x3d>
    2913: 86 3f        	stx	$3f                     ; 0x3f <__rc31+0x10>
    2915: 84 18        	sty	$18                     ; 0x18 <__rc8>
    2917: a5 3d        	lda	$3d                     ; 0x3d <__rc31+0xe>
    2919: 0a           	asl
    291a: 0a           	asl
    291b: 0a           	asl
    291c: 85 12        	sta	$12                     ; 0x12 <__rc2>
    291e: a2 00        	ldx	#$0
    2920: 8a           	txa
    2921: 4c d8 29     	jmp	$29d8 <printf+0x6f5>
    2924: a4 13        	ldy	$13                     ; 0x13 <__rc3>
    2926: 99 4a 00     	sta	$4a,y                   ; 0x4a <__bss_size+0x4>
    2929: a4 15        	ldy	$15                     ; 0x15 <__rc5>
    292b: c4 13        	cpy	$13                     ; 0x13 <__rc3>
    292d: f0 38        	beq	$2967 <printf+0x684>
    292f: e6 13        	inc	$13                     ; 0x13 <__rc3>
    2931: a4 13        	ldy	$13                     ; 0x13 <__rc3>
    2933: b9 4a 00     	lda	$4a,y                   ; 0x4a <__bss_size+0x4>
    2936: 0a           	asl
    2937: e0 00        	cpx	#$0
    2939: f0 02        	beq	$293d <printf+0x65a>
    293b: 09 01        	ora	#$1
    293d: a4 47        	ldy	$47                     ; 0x47 <__bss_size+0x1>
    293f: 84 14        	sty	$14                     ; 0x14 <__rc4>
    2941: c5 14        	cmp	$14                     ; 0x14 <__rc4>
    2943: a2 01        	ldx	#$1
    2945: b0 02        	bcs	$2949 <printf+0x666>
    2947: a2 00        	ldx	#$0
    2949: 90 d9        	bcc	$2924 <printf+0x641>
    294b: 84 14        	sty	$14                     ; 0x14 <__rc4>
    294d: 38           	sec
    294e: e5 14        	sbc	$14                     ; 0x14 <__rc4>
    2950: a4 13        	ldy	$13                     ; 0x13 <__rc3>
    2952: 99 4a 00     	sta	$4a,y                   ; 0x4a <__bss_size+0x4>
    2955: a4 15        	ldy	$15                     ; 0x15 <__rc5>
    2957: c4 13        	cpy	$13                     ; 0x13 <__rc3>
    2959: d0 d4        	bne	$292f <printf+0x64c>
    295b: a4 46        	ldy	$46                     ; 0x46 <__bss_size>
    295d: a6 46        	ldx	$46                     ; 0x46 <__bss_size>
    295f: e8           	inx
    2960: a9 01        	lda	#$1
    2962: 99 4a 00     	sta	$4a,y                   ; 0x4a <__bss_size+0x4>
    2965: 86 46        	stx	$46                     ; 0x46 <__bss_size>
    2967: a6 3d        	ldx	$3d                     ; 0x3d <__rc31+0xe>
    2969: b5 61        	lda	$61,x                   ; 0x61 <__bss_size+0x1b>
    296b: aa           	tax
    296c: 10 41        	bpl	$29af <printf+0x6cc>
    296e: a5 46        	lda	$46                     ; 0x46 <__bss_size>
    2970: f0 2f        	beq	$29a1 <printf+0x6be>
    2972: a2 00        	ldx	#$0
    2974: a4 47        	ldy	$47                     ; 0x47 <__bss_size+0x1>
    2976: 84 14        	sty	$14                     ; 0x14 <__rc4>
    2978: b5 4a        	lda	$4a,x                   ; 0x4a <__bss_size+0x4>
    297a: 1a           	inc
    297b: f6 4a        	inc	$4a,x                   ; 0x4a <__bss_size+0x4>
    297d: c5 14        	cmp	$14                     ; 0x14 <__rc4>
    297f: 90 2e        	bcc	$29af <printf+0x6cc>
    2981: a4 47        	ldy	$47                     ; 0x47 <__bss_size+0x1>
    2983: 84 13        	sty	$13                     ; 0x13 <__rc3>
    2985: 38           	sec
    2986: e5 13        	sbc	$13                     ; 0x13 <__rc3>
    2988: 9d 4a 00     	sta	$4a,x                   ; 0x4a <__bss_size+0x4>
    298b: e8           	inx
    298c: 86 13        	stx	$13                     ; 0x13 <__rc3>
    298e: a4 46        	ldy	$46                     ; 0x46 <__bss_size>
    2990: c4 13        	cpy	$13                     ; 0x13 <__rc3>
    2992: d0 e4        	bne	$2978 <printf+0x695>
    2994: 80 0d        	bra	$29a3 <printf+0x6c0>
    2996: a6 3d        	ldx	$3d                     ; 0x3d <__rc31+0xe>
    2998: b5 61        	lda	$61,x                   ; 0x61 <__bss_size+0x1b>
    299a: aa           	tax
    299b: 64 46        	stz	$46                     ; 0x46 <__bss_size>
    299d: 30 04        	bmi	$29a3 <printf+0x6c0>
    299f: 80 0e        	bra	$29af <printf+0x6cc>
    29a1: 64 46        	stz	$46                     ; 0x46 <__bss_size>
    29a3: a4 46        	ldy	$46                     ; 0x46 <__bss_size>
    29a5: a6 46        	ldx	$46                     ; 0x46 <__bss_size>
    29a7: e8           	inx
    29a8: a9 01        	lda	#$1
    29aa: 99 4a 00     	sta	$4a,y                   ; 0x4a <__bss_size+0x4>
    29ad: 86 46        	stx	$46                     ; 0x46 <__bss_size>
    29af: a2 01        	ldx	#$1
    29b1: 86 16        	stx	$16                     ; 0x16 <__rc6>
    29b3: 64 13        	stz	$13                     ; 0x13 <__rc3>
    29b5: ca           	dex
    29b6: a4 3d        	ldy	$3d                     ; 0x3d <__rc31+0xe>
    29b8: b5 62        	lda	$62,x                   ; 0x62 <__bss_size+0x1c>
    29ba: 0a           	asl
    29bb: 64 14        	stz	$14                     ; 0x14 <__rc4>
    29bd: 26 14        	rol	$14                     ; 0x14 <__rc4>
    29bf: 05 13        	ora	$13                     ; 0x13 <__rc3>
    29c1: 9d 62 00     	sta	$62,x                   ; 0x62 <__bss_size+0x1c>
    29c4: e8           	inx
    29c5: 86 15        	stx	$15                     ; 0x15 <__rc5>
    29c7: a5 14        	lda	$14                     ; 0x14 <__rc4>
    29c9: 85 13        	sta	$13                     ; 0x13 <__rc3>
    29cb: c4 15        	cpy	$15                     ; 0x15 <__rc5>
    29cd: d0 e9        	bne	$29b8 <printf+0x6d5>
    29cf: a5 19        	lda	$19                     ; 0x19 <__rc9>
    29d1: 1a           	inc
    29d2: c5 12        	cmp	$12                     ; 0x12 <__rc2>
    29d4: a6 46        	ldx	$46                     ; 0x46 <__bss_size>
    29d6: b0 12        	bcs	$29ea <printf+0x707>
    29d8: 85 19        	sta	$19                     ; 0x19 <__rc9>
    29da: 8a           	txa
    29db: f0 b9        	beq	$2996 <printf+0x6b3>
    29dd: 8a           	txa
    29de: 86 46        	stx	$46                     ; 0x46 <__bss_size>
    29e0: 3a           	dec
    29e1: 85 15        	sta	$15                     ; 0x15 <__rc5>
    29e3: a2 00        	ldx	#$0
    29e5: 64 13        	stz	$13                     ; 0x13 <__rc3>
    29e7: 4c 31 29     	jmp	$2931 <printf+0x64e>
    29ea: a4 16        	ldy	$16                     ; 0x16 <__rc6>
    29ec: a5 43        	lda	$43                     ; 0x43 <__rc31+0x14>
    29ee: 30 06        	bmi	$29f6 <printf+0x713>
    29f0: a5 81        	lda	$81                     ; 0x81 <__bss_size+0x3b>
    29f2: 85 42        	sta	$42                     ; 0x42 <__rc31+0x13>
    29f4: 80 08        	bra	$29fe <printf+0x71b>
    29f6: a2 01        	ldx	#$1
    29f8: 64 43        	stz	$43                     ; 0x43 <__rc31+0x14>
    29fa: 86 42        	stx	$42                     ; 0x42 <__rc31+0x13>
    29fc: a6 46        	ldx	$46                     ; 0x46 <__bss_size>
    29fe: a5 3c        	lda	$3c                     ; 0x3c <__rc31+0xd>
    2a00: 29 04        	and	#$4
    2a02: f0 2f        	beq	$2a33 <printf+0x750>
    2a04: a5 47        	lda	$47                     ; 0x47 <__bss_size+0x1>
    2a06: c9 10        	cmp	#$10
    2a08: f0 14        	beq	$2a1e <printf+0x73b>
    2a0a: c9 08        	cmp	#$8
    2a0c: d0 25        	bne	$2a33 <printf+0x750>
    2a0e: a2 00        	ldx	#$0
    2a10: e4 43        	cpx	$43                     ; 0x43 <__rc31+0x14>
    2a12: f0 03        	beq	$2a17 <printf+0x734>
    2a14: 4c df 2f     	jmp	$2fdf <printf+0xcfc>
    2a17: a6 46        	ldx	$46                     ; 0x46 <__bss_size>
    2a19: e4 42        	cpx	$42                     ; 0x42 <__rc31+0x13>
    2a1b: 4c e1 2f     	jmp	$2fe1 <printf+0xcfe>
    2a1e: 8a           	txa
    2a1f: f0 12        	beq	$2a33 <printf+0x750>
    2a21: a5 3c        	lda	$3c                     ; 0x3c <__rc31+0xd>
    2a23: a6 42        	ldx	$42                     ; 0x42 <__rc31+0x13>
    2a25: 29 80        	and	#$80
    2a27: d0 03        	bne	$2a2c <printf+0x749>
    2a29: 4c fa 2f     	jmp	$2ffa <printf+0xd17>
    2a2c: 86 81        	stx	$81                     ; 0x81 <__bss_size+0x3b>
    2a2e: a2 78        	ldx	#$78
    2a30: 4c fe 2f     	jmp	$2ffe <printf+0xd1b>
    2a33: a6 3c        	ldx	$3c                     ; 0x3c <__rc31+0xd>
    2a35: a9 2d        	lda	#$2d
    2a37: 85 82        	sta	$82                     ; 0x82 <__bss_size+0x3c>
    2a39: a5 18        	lda	$18                     ; 0x18 <__rc8>
    2a3b: d0 22        	bne	$2a5f <printf+0x77c>
    2a3d: 86 12        	stx	$12                     ; 0x12 <__rc2>
    2a3f: 8a           	txa
    2a40: 29 02        	and	#$2
    2a42: a2 2b        	ldx	#$2b
    2a44: 86 82        	stx	$82                     ; 0x82 <__bss_size+0x3c>
    2a46: aa           	tax
    2a47: d0 16        	bne	$2a5f <printf+0x77c>
    2a49: a6 42        	ldx	$42                     ; 0x42 <__rc31+0x13>
    2a4b: 86 81        	stx	$81                     ; 0x81 <__bss_size+0x3b>
    2a4d: a5 12        	lda	$12                     ; 0x12 <__rc2>
    2a4f: 29 08        	and	#$8
    2a51: f0 03        	beq	$2a56 <printf+0x773>
    2a53: 4c d8 2f     	jmp	$2fd8 <printf+0xcf5>
    2a56: a2 01        	ldx	#$1
    2a58: 86 45        	stx	$45                     ; 0x45 <__rc31+0x16>
    2a5a: 64 16        	stz	$16                     ; 0x16 <__rc6>
    2a5c: ca           	dex
    2a5d: 80 08        	bra	$2a67 <printf+0x784>
    2a5f: a6 42        	ldx	$42                     ; 0x42 <__rc31+0x13>
    2a61: 86 81        	stx	$81                     ; 0x81 <__bss_size+0x3b>
    2a63: a2 00        	ldx	#$0
    2a65: 86 45        	stx	$45                     ; 0x45 <__rc31+0x16>
    2a67: 86 42        	stx	$42                     ; 0x42 <__rc31+0x13>
    2a69: a5 43        	lda	$43                     ; 0x43 <__rc31+0x14>
    2a6b: d0 08        	bne	$2a75 <printf+0x792>
    2a6d: a5 81        	lda	$81                     ; 0x81 <__bss_size+0x3b>
    2a6f: c5 46        	cmp	$46                     ; 0x46 <__bss_size>
    2a71: 85 12        	sta	$12                     ; 0x12 <__rc2>
    2a73: 80 08        	bra	$2a7d <printf+0x79a>
    2a75: a6 43        	ldx	$43                     ; 0x43 <__rc31+0x14>
    2a77: e0 00        	cpx	#$0
    2a79: a6 81        	ldx	$81                     ; 0x81 <__bss_size+0x3b>
    2a7b: 86 12        	stx	$12                     ; 0x12 <__rc2>
    2a7d: a6 43        	ldx	$43                     ; 0x43 <__rc31+0x14>
    2a7f: 86 13        	stx	$13                     ; 0x13 <__rc3>
    2a81: b0 06        	bcs	$2a89 <printf+0x7a6>
    2a83: a6 46        	ldx	$46                     ; 0x46 <__bss_size>
    2a85: 86 12        	stx	$12                     ; 0x12 <__rc2>
    2a87: 64 13        	stz	$13                     ; 0x13 <__rc3>
    2a89: a5 16        	lda	$16                     ; 0x16 <__rc6>
    2a8b: 18           	clc
    2a8c: 65 12        	adc	$12                     ; 0x12 <__rc2>
    2a8e: aa           	tax
    2a8f: 85 14        	sta	$14                     ; 0x14 <__rc4>
    2a91: a5 13        	lda	$13                     ; 0x13 <__rc3>
    2a93: 69 00        	adc	#$0
    2a95: 85 15        	sta	$15                     ; 0x15 <__rc5>
    2a97: c5 1a        	cmp	$1a                     ; 0x1a <__rc10>
    2a99: d0 04        	bne	$2a9f <printf+0x7bc>
    2a9b: e4 17        	cpx	$17                     ; 0x17 <__rc7>
    2a9d: 80 02        	bra	$2aa1 <printf+0x7be>
    2a9f: c5 1a        	cmp	$1a                     ; 0x1a <__rc10>
    2aa1: 64 47        	stz	$47                     ; 0x47 <__bss_size+0x1>
    2aa3: 64 3d        	stz	$3d                     ; 0x3d <__rc31+0xe>
    2aa5: a6 46        	ldx	$46                     ; 0x46 <__bss_size>
    2aa7: 90 03        	bcc	$2aac <printf+0x7c9>
    2aa9: 4c 67 2b     	jmp	$2b67 <printf+0x884>
    2aac: a5 3c        	lda	$3c                     ; 0x3c <__rc31+0xd>
    2aae: 29 11        	and	#$11
    2ab0: f0 10        	beq	$2ac2 <printf+0x7df>
    2ab2: a5 17        	lda	$17                     ; 0x17 <__rc7>
    2ab4: 38           	sec
    2ab5: e5 14        	sbc	$14                     ; 0x14 <__rc4>
    2ab7: 85 47        	sta	$47                     ; 0x47 <__bss_size+0x1>
    2ab9: a5 1a        	lda	$1a                     ; 0x1a <__rc10>
    2abb: e5 15        	sbc	$15                     ; 0x15 <__rc5>
    2abd: 85 3d        	sta	$3d                     ; 0x3d <__rc31+0xe>
    2abf: 4c 67 2b     	jmp	$2b67 <printf+0x884>
    2ac2: a6 71        	ldx	$71                     ; 0x71 <__bss_size+0x2b>
    2ac4: 86 15        	stx	$15                     ; 0x15 <__rc5>
    2ac6: 38           	sec
    2ac7: a5 16        	lda	$16                     ; 0x16 <__rc6>
    2ac9: e5 17        	sbc	$17                     ; 0x17 <__rc7>
    2acb: aa           	tax
    2acc: a9 00        	lda	#$0
    2ace: e5 1a        	sbc	$1a                     ; 0x1a <__rc10>
    2ad0: 85 14        	sta	$14                     ; 0x14 <__rc4>
    2ad2: 18           	clc
    2ad3: 8a           	txa
    2ad4: 65 12        	adc	$12                     ; 0x12 <__rc2>
    2ad6: 85 3c        	sta	$3c                     ; 0x3c <__rc31+0xd>
    2ad8: a5 14        	lda	$14                     ; 0x14 <__rc4>
    2ada: 65 13        	adc	$13                     ; 0x13 <__rc3>
    2adc: 85 3d        	sta	$3d                     ; 0x3d <__rc31+0xe>
    2ade: a5 72        	lda	$72                     ; 0x72 <__bss_size+0x2c>
    2ae0: 4c 4f 2b     	jmp	$2b4f <printf+0x86c>
    2ae3: c5 70        	cmp	$70                     ; 0x70 <__bss_size+0x2a>
    2ae5: a6 3d        	ldx	$3d                     ; 0x3d <__rc31+0xe>
    2ae7: 86 12        	stx	$12                     ; 0x12 <__rc2>
    2ae9: b0 3d        	bcs	$2b28 <printf+0x845>
    2aeb: a2 01        	ldx	#$1
    2aed: 86 14        	stx	$14                     ; 0x14 <__rc4>
    2aef: a6 7c        	ldx	$7c                     ; 0x7c <__bss_size+0x36>
    2af1: a0 00        	ldy	#$0
    2af3: 84 12        	sty	$12                     ; 0x12 <__rc2>
    2af5: a0 00        	ldy	#$0
    2af7: 84 13        	sty	$13                     ; 0x13 <__rc3>
    2af9: e4 13        	cpx	$13                     ; 0x13 <__rc3>
    2afb: d0 1b        	bne	$2b18 <printf+0x835>
    2afd: a6 7b        	ldx	$7b                     ; 0x7b <__bss_size+0x35>
    2aff: e4 12        	cpx	$12                     ; 0x12 <__rc2>
    2b01: d0 15        	bne	$2b18 <printf+0x835>
    2b03: a4 14        	ldy	$14                     ; 0x14 <__rc4>
    2b05: 18           	clc
    2b06: aa           	tax
    2b07: a5 15        	lda	$15                     ; 0x15 <__rc5>
    2b09: 65 75        	adc	$75                     ; 0x75 <__bss_size+0x2f>
    2b0b: 85 12        	sta	$12                     ; 0x12 <__rc2>
    2b0d: 8a           	txa
    2b0e: 65 76        	adc	$76                     ; 0x76 <__bss_size+0x30>
    2b10: 85 13        	sta	$13                     ; 0x13 <__rc3>
    2b12: a9 20        	lda	#$20
    2b14: 92 12        	sta	($12)                   ; 0x12 <__rc2>
    2b16: 80 0c        	bra	$2b24 <printf+0x841>
    2b18: a2 01        	ldx	#$1
    2b1a: 86 44        	stx	$44                     ; 0x44 <__rc31+0x15>
    2b1c: ca           	dex
    2b1d: a9 20        	lda	#$20
    2b1f: 20 1d 30     	jsr	$301d <putchar>
    2b22: a4 44        	ldy	$44                     ; 0x44 <__rc31+0x15>
    2b24: a6 3d        	ldx	$3d                     ; 0x3d <__rc31+0xe>
    2b26: 86 12        	stx	$12                     ; 0x12 <__rc2>
    2b28: a6 71        	ldx	$71                     ; 0x71 <__bss_size+0x2b>
    2b2a: a5 72        	lda	$72                     ; 0x72 <__bss_size+0x2c>
    2b2c: e8           	inx
    2b2d: d0 01        	bne	$2b30 <printf+0x84d>
    2b2f: 1a           	inc
    2b30: 86 15        	stx	$15                     ; 0x15 <__rc5>
    2b32: 86 71        	stx	$71                     ; 0x71 <__bss_size+0x2b>
    2b34: 85 72        	sta	$72                     ; 0x72 <__bss_size+0x2c>
    2b36: a6 3c        	ldx	$3c                     ; 0x3c <__rc31+0xd>
    2b38: e8           	inx
    2b39: d0 02        	bne	$2b3d <printf+0x85a>
    2b3b: e6 12        	inc	$12                     ; 0x12 <__rc2>
    2b3d: 86 3c        	stx	$3c                     ; 0x3c <__rc31+0xd>
    2b3f: 5a           	phy
    2b40: a4 12        	ldy	$12                     ; 0x12 <__rc2>
    2b42: 84 3d        	sty	$3d                     ; 0x3d <__rc31+0xe>
    2b44: 7a           	ply
    2b45: e6 12        	inc	$12                     ; 0x12 <__rc2>
    2b47: c6 12        	dec	$12                     ; 0x12 <__rc2>
    2b49: d0 04        	bne	$2b4f <printf+0x86c>
    2b4b: e0 00        	cpx	#$0
    2b4d: f0 12        	beq	$2b61 <printf+0x87e>
    2b4f: c5 70        	cmp	$70                     ; 0x70 <__bss_size+0x2a>
    2b51: f0 03        	beq	$2b56 <printf+0x873>
    2b53: 4c e3 2a     	jmp	$2ae3 <printf+0x800>
    2b56: a6 6f        	ldx	$6f                     ; 0x6f <__bss_size+0x29>
    2b58: 86 12        	stx	$12                     ; 0x12 <__rc2>
    2b5a: a6 15        	ldx	$15                     ; 0x15 <__rc5>
    2b5c: e4 12        	cpx	$12                     ; 0x12 <__rc2>
    2b5e: 4c e5 2a     	jmp	$2ae5 <printf+0x802>
    2b61: 64 47        	stz	$47                     ; 0x47 <__bss_size+0x1>
    2b63: 64 3d        	stz	$3d                     ; 0x3d <__rc31+0xe>
    2b65: a6 46        	ldx	$46                     ; 0x46 <__bss_size>
    2b67: a5 45        	lda	$45                     ; 0x45 <__rc31+0x16>
    2b69: f0 03        	beq	$2b6e <printf+0x88b>
    2b6b: 4c cf 2b     	jmp	$2bcf <printf+0x8ec>
    2b6e: a6 71        	ldx	$71                     ; 0x71 <__bss_size+0x2b>
    2b70: a5 72        	lda	$72                     ; 0x72 <__bss_size+0x2c>
    2b72: c5 70        	cmp	$70                     ; 0x70 <__bss_size+0x2a>
    2b74: d0 10        	bne	$2b86 <printf+0x8a3>
    2b76: 86 13        	stx	$13                     ; 0x13 <__rc3>
    2b78: a6 6f        	ldx	$6f                     ; 0x6f <__bss_size+0x29>
    2b7a: 86 12        	stx	$12                     ; 0x12 <__rc2>
    2b7c: a6 13        	ldx	$13                     ; 0x13 <__rc3>
    2b7e: 86 15        	stx	$15                     ; 0x15 <__rc5>
    2b80: e4 12        	cpx	$12                     ; 0x12 <__rc2>
    2b82: 90 08        	bcc	$2b8c <printf+0x8a9>
    2b84: 80 41        	bra	$2bc7 <printf+0x8e4>
    2b86: 86 15        	stx	$15                     ; 0x15 <__rc5>
    2b88: c5 70        	cmp	$70                     ; 0x70 <__bss_size+0x2a>
    2b8a: b0 3b        	bcs	$2bc7 <printf+0x8e4>
    2b8c: a2 01        	ldx	#$1
    2b8e: 86 14        	stx	$14                     ; 0x14 <__rc4>
    2b90: a6 7c        	ldx	$7c                     ; 0x7c <__bss_size+0x36>
    2b92: a0 00        	ldy	#$0
    2b94: 84 12        	sty	$12                     ; 0x12 <__rc2>
    2b96: a0 00        	ldy	#$0
    2b98: 84 13        	sty	$13                     ; 0x13 <__rc3>
    2b9a: e4 13        	cpx	$13                     ; 0x13 <__rc3>
    2b9c: d0 1d        	bne	$2bbb <printf+0x8d8>
    2b9e: a6 7b        	ldx	$7b                     ; 0x7b <__bss_size+0x35>
    2ba0: e4 12        	cpx	$12                     ; 0x12 <__rc2>
    2ba2: d0 17        	bne	$2bbb <printf+0x8d8>
    2ba4: a4 14        	ldy	$14                     ; 0x14 <__rc4>
    2ba6: 18           	clc
    2ba7: 85 16        	sta	$16                     ; 0x16 <__rc6>
    2ba9: a5 15        	lda	$15                     ; 0x15 <__rc5>
    2bab: 65 75        	adc	$75                     ; 0x75 <__bss_size+0x2f>
    2bad: 85 12        	sta	$12                     ; 0x12 <__rc2>
    2baf: a5 16        	lda	$16                     ; 0x16 <__rc6>
    2bb1: 65 76        	adc	$76                     ; 0x76 <__bss_size+0x30>
    2bb3: 85 13        	sta	$13                     ; 0x13 <__rc3>
    2bb5: a5 82        	lda	$82                     ; 0x82 <__bss_size+0x3c>
    2bb7: 92 12        	sta	($12)                   ; 0x12 <__rc2>
    2bb9: 80 0c        	bra	$2bc7 <printf+0x8e4>
    2bbb: a2 01        	ldx	#$1
    2bbd: 86 44        	stx	$44                     ; 0x44 <__rc31+0x15>
    2bbf: ca           	dex
    2bc0: a5 82        	lda	$82                     ; 0x82 <__bss_size+0x3c>
    2bc2: 20 1d 30     	jsr	$301d <putchar>
    2bc5: a4 44        	ldy	$44                     ; 0x44 <__rc31+0x15>
    2bc7: e6 71        	inc	$71                     ; 0x71 <__bss_size+0x2b>
    2bc9: d0 02        	bne	$2bcd <printf+0x8ea>
    2bcb: e6 72        	inc	$72                     ; 0x72 <__bss_size+0x2c>
    2bcd: a6 46        	ldx	$46                     ; 0x46 <__bss_size>
    2bcf: a5 42        	lda	$42                     ; 0x42 <__rc31+0x13>
    2bd1: d0 03        	bne	$2bd6 <printf+0x8f3>
    2bd3: 4c 37 2c     	jmp	$2c37 <printf+0x954>
    2bd6: a6 71        	ldx	$71                     ; 0x71 <__bss_size+0x2b>
    2bd8: a5 72        	lda	$72                     ; 0x72 <__bss_size+0x2c>
    2bda: c5 70        	cmp	$70                     ; 0x70 <__bss_size+0x2a>
    2bdc: d0 10        	bne	$2bee <printf+0x90b>
    2bde: 86 13        	stx	$13                     ; 0x13 <__rc3>
    2be0: a6 6f        	ldx	$6f                     ; 0x6f <__bss_size+0x29>
    2be2: 86 12        	stx	$12                     ; 0x12 <__rc2>
    2be4: a6 13        	ldx	$13                     ; 0x13 <__rc3>
    2be6: 86 15        	stx	$15                     ; 0x15 <__rc5>
    2be8: e4 12        	cpx	$12                     ; 0x12 <__rc2>
    2bea: 90 08        	bcc	$2bf4 <printf+0x911>
    2bec: 80 41        	bra	$2c2f <printf+0x94c>
    2bee: 86 15        	stx	$15                     ; 0x15 <__rc5>
    2bf0: c5 70        	cmp	$70                     ; 0x70 <__bss_size+0x2a>
    2bf2: b0 3b        	bcs	$2c2f <printf+0x94c>
    2bf4: a2 01        	ldx	#$1
    2bf6: 86 14        	stx	$14                     ; 0x14 <__rc4>
    2bf8: a6 7c        	ldx	$7c                     ; 0x7c <__bss_size+0x36>
    2bfa: a0 00        	ldy	#$0
    2bfc: 84 12        	sty	$12                     ; 0x12 <__rc2>
    2bfe: a0 00        	ldy	#$0
    2c00: 84 13        	sty	$13                     ; 0x13 <__rc3>
    2c02: e4 13        	cpx	$13                     ; 0x13 <__rc3>
    2c04: d0 1d        	bne	$2c23 <printf+0x940>
    2c06: a6 7b        	ldx	$7b                     ; 0x7b <__bss_size+0x35>
    2c08: e4 12        	cpx	$12                     ; 0x12 <__rc2>
    2c0a: d0 17        	bne	$2c23 <printf+0x940>
    2c0c: a4 14        	ldy	$14                     ; 0x14 <__rc4>
    2c0e: 18           	clc
    2c0f: 85 16        	sta	$16                     ; 0x16 <__rc6>
    2c11: a5 15        	lda	$15                     ; 0x15 <__rc5>
    2c13: 65 75        	adc	$75                     ; 0x75 <__bss_size+0x2f>
    2c15: 85 12        	sta	$12                     ; 0x12 <__rc2>
    2c17: a5 16        	lda	$16                     ; 0x16 <__rc6>
    2c19: 65 76        	adc	$76                     ; 0x76 <__bss_size+0x30>
    2c1b: 85 13        	sta	$13                     ; 0x13 <__rc3>
    2c1d: a5 86        	lda	$86                     ; 0x86 <__bss_size+0x40>
    2c1f: 92 12        	sta	($12)                   ; 0x12 <__rc2>
    2c21: 80 0c        	bra	$2c2f <printf+0x94c>
    2c23: a2 01        	ldx	#$1
    2c25: 86 44        	stx	$44                     ; 0x44 <__rc31+0x15>
    2c27: ca           	dex
    2c28: a5 86        	lda	$86                     ; 0x86 <__bss_size+0x40>
    2c2a: 20 1d 30     	jsr	$301d <putchar>
    2c2d: a4 44        	ldy	$44                     ; 0x44 <__rc31+0x15>
    2c2f: e6 71        	inc	$71                     ; 0x71 <__bss_size+0x2b>
    2c31: d0 02        	bne	$2c35 <printf+0x952>
    2c33: e6 72        	inc	$72                     ; 0x72 <__bss_size+0x2c>
    2c35: a6 46        	ldx	$46                     ; 0x46 <__bss_size>
    2c37: a9 10        	lda	#$10
    2c39: 25 6d        	and	$6d                     ; 0x6d <__bss_size+0x27>
    2c3b: d0 07        	bne	$2c44 <printf+0x961>
    2c3d: a5 81        	lda	$81                     ; 0x81 <__bss_size+0x3b>
    2c3f: 85 45        	sta	$45                     ; 0x45 <__rc31+0x16>
    2c41: 4c f6 2c     	jmp	$2cf6 <printf+0xa13>
    2c44: 86 13        	stx	$13                     ; 0x13 <__rc3>
    2c46: a5 6d        	lda	$6d                     ; 0x6d <__bss_size+0x27>
    2c48: 29 01        	and	#$1
    2c4a: a6 81        	ldx	$81                     ; 0x81 <__bss_size+0x3b>
    2c4c: 86 45        	stx	$45                     ; 0x45 <__rc31+0x16>
    2c4e: aa           	tax
    2c4f: f0 03        	beq	$2c54 <printf+0x971>
    2c51: 4c ec 2c     	jmp	$2cec <printf+0xa09>
    2c54: a5 47        	lda	$47                     ; 0x47 <__bss_size+0x1>
    2c56: a6 3d        	ldx	$3d                     ; 0x3d <__rc31+0xe>
    2c58: 86 12        	stx	$12                     ; 0x12 <__rc2>
    2c5a: a6 12        	ldx	$12                     ; 0x12 <__rc2>
    2c5c: d0 06        	bne	$2c64 <printf+0x981>
    2c5e: aa           	tax
    2c5f: d0 03        	bne	$2c64 <printf+0x981>
    2c61: 4c 13 30     	jmp	$3013 <printf+0xd30>
    2c64: a6 71        	ldx	$71                     ; 0x71 <__bss_size+0x2b>
    2c66: 86 15        	stx	$15                     ; 0x15 <__rc5>
    2c68: a5 72        	lda	$72                     ; 0x72 <__bss_size+0x2c>
    2c6a: 4c d8 2c     	jmp	$2cd8 <printf+0x9f5>
    2c6d: c5 70        	cmp	$70                     ; 0x70 <__bss_size+0x2a>
    2c6f: b0 39        	bcs	$2caa <printf+0x9c7>
    2c71: a2 01        	ldx	#$1
    2c73: 86 14        	stx	$14                     ; 0x14 <__rc4>
    2c75: a6 7c        	ldx	$7c                     ; 0x7c <__bss_size+0x36>
    2c77: a0 00        	ldy	#$0
    2c79: 84 12        	sty	$12                     ; 0x12 <__rc2>
    2c7b: a0 00        	ldy	#$0
    2c7d: 84 13        	sty	$13                     ; 0x13 <__rc3>
    2c7f: e4 13        	cpx	$13                     ; 0x13 <__rc3>
    2c81: d0 1b        	bne	$2c9e <printf+0x9bb>
    2c83: a6 7b        	ldx	$7b                     ; 0x7b <__bss_size+0x35>
    2c85: e4 12        	cpx	$12                     ; 0x12 <__rc2>
    2c87: d0 15        	bne	$2c9e <printf+0x9bb>
    2c89: a4 14        	ldy	$14                     ; 0x14 <__rc4>
    2c8b: 18           	clc
    2c8c: aa           	tax
    2c8d: a5 15        	lda	$15                     ; 0x15 <__rc5>
    2c8f: 65 75        	adc	$75                     ; 0x75 <__bss_size+0x2f>
    2c91: 85 12        	sta	$12                     ; 0x12 <__rc2>
    2c93: 8a           	txa
    2c94: 65 76        	adc	$76                     ; 0x76 <__bss_size+0x30>
    2c96: 85 13        	sta	$13                     ; 0x13 <__rc3>
    2c98: a9 30        	lda	#$30
    2c9a: 92 12        	sta	($12)                   ; 0x12 <__rc2>
    2c9c: 80 0c        	bra	$2caa <printf+0x9c7>
    2c9e: a2 01        	ldx	#$1
    2ca0: 86 44        	stx	$44                     ; 0x44 <__rc31+0x15>
    2ca2: ca           	dex
    2ca3: a9 30        	lda	#$30
    2ca5: 20 1d 30     	jsr	$301d <putchar>
    2ca8: a4 44        	ldy	$44                     ; 0x44 <__rc31+0x15>
    2caa: a6 71        	ldx	$71                     ; 0x71 <__bss_size+0x2b>
    2cac: a5 72        	lda	$72                     ; 0x72 <__bss_size+0x2c>
    2cae: e8           	inx
    2caf: d0 01        	bne	$2cb2 <printf+0x9cf>
    2cb1: 1a           	inc
    2cb2: 86 15        	stx	$15                     ; 0x15 <__rc5>
    2cb4: 86 71        	stx	$71                     ; 0x71 <__bss_size+0x2b>
    2cb6: 85 72        	sta	$72                     ; 0x72 <__bss_size+0x2c>
    2cb8: a6 47        	ldx	$47                     ; 0x47 <__bss_size+0x1>
    2cba: 86 12        	stx	$12                     ; 0x12 <__rc2>
    2cbc: a6 3d        	ldx	$3d                     ; 0x3d <__rc31+0xe>
    2cbe: 86 13        	stx	$13                     ; 0x13 <__rc3>
    2cc0: a2 ff        	ldx	#$ff
    2cc2: c6 12        	dec	$12                     ; 0x12 <__rc2>
    2cc4: e4 12        	cpx	$12                     ; 0x12 <__rc2>
    2cc6: d0 02        	bne	$2cca <printf+0x9e7>
    2cc8: c6 13        	dec	$13                     ; 0x13 <__rc3>
    2cca: a6 12        	ldx	$12                     ; 0x12 <__rc2>
    2ccc: 86 47        	stx	$47                     ; 0x47 <__bss_size+0x1>
    2cce: a6 13        	ldx	$13                     ; 0x13 <__rc3>
    2cd0: 86 3d        	stx	$3d                     ; 0x3d <__rc31+0xe>
    2cd2: d0 04        	bne	$2cd8 <printf+0x9f5>
    2cd4: a6 12        	ldx	$12                     ; 0x12 <__rc2>
    2cd6: f0 18        	beq	$2cf0 <printf+0xa0d>
    2cd8: c5 70        	cmp	$70                     ; 0x70 <__bss_size+0x2a>
    2cda: f0 03        	beq	$2cdf <printf+0x9fc>
    2cdc: 4c 6d 2c     	jmp	$2c6d <printf+0x98a>
    2cdf: a6 6f        	ldx	$6f                     ; 0x6f <__bss_size+0x29>
    2ce1: 86 12        	stx	$12                     ; 0x12 <__rc2>
    2ce3: a6 15        	ldx	$15                     ; 0x15 <__rc5>
    2ce5: e4 12        	cpx	$12                     ; 0x12 <__rc2>
    2ce7: b0 c1        	bcs	$2caa <printf+0x9c7>
    2ce9: 4c 71 2c     	jmp	$2c71 <printf+0x98e>
    2cec: a6 13        	ldx	$13                     ; 0x13 <__rc3>
    2cee: 80 06        	bra	$2cf6 <printf+0xa13>
    2cf0: 64 47        	stz	$47                     ; 0x47 <__bss_size+0x1>
    2cf2: 64 3d        	stz	$3d                     ; 0x3d <__rc31+0xe>
    2cf4: a6 46        	ldx	$46                     ; 0x46 <__bss_size>
    2cf6: a9 00        	lda	#$0
    2cf8: c5 43        	cmp	$43                     ; 0x43 <__rc31+0x14>
    2cfa: d0 07        	bne	$2d03 <printf+0xa20>
    2cfc: e4 45        	cpx	$45                     ; 0x45 <__rc31+0x16>
    2cfe: 90 0a        	bcc	$2d0a <printf+0xa27>
    2d00: 4c 8d 2d     	jmp	$2d8d <printf+0xaaa>
    2d03: c5 43        	cmp	$43                     ; 0x43 <__rc31+0x14>
    2d05: 90 03        	bcc	$2d0a <printf+0xa27>
    2d07: 4c 8d 2d     	jmp	$2d8d <printf+0xaaa>
    2d0a: a6 71        	ldx	$71                     ; 0x71 <__bss_size+0x2b>
    2d0c: 86 15        	stx	$15                     ; 0x15 <__rc5>
    2d0e: a5 72        	lda	$72                     ; 0x72 <__bss_size+0x2c>
    2d10: a2 ff        	ldx	#$ff
    2d12: c6 45        	dec	$45                     ; 0x45 <__rc31+0x16>
    2d14: e4 45        	cpx	$45                     ; 0x45 <__rc31+0x16>
    2d16: d0 02        	bne	$2d1a <printf+0xa37>
    2d18: c6 43        	dec	$43                     ; 0x43 <__rc31+0x14>
    2d1a: c5 70        	cmp	$70                     ; 0x70 <__bss_size+0x2a>
    2d1c: d0 0c        	bne	$2d2a <printf+0xa47>
    2d1e: a6 6f        	ldx	$6f                     ; 0x6f <__bss_size+0x29>
    2d20: 86 12        	stx	$12                     ; 0x12 <__rc2>
    2d22: a6 15        	ldx	$15                     ; 0x15 <__rc5>
    2d24: e4 12        	cpx	$12                     ; 0x12 <__rc2>
    2d26: 90 06        	bcc	$2d2e <printf+0xa4b>
    2d28: 80 3d        	bra	$2d67 <printf+0xa84>
    2d2a: c5 70        	cmp	$70                     ; 0x70 <__bss_size+0x2a>
    2d2c: b0 39        	bcs	$2d67 <printf+0xa84>
    2d2e: a2 01        	ldx	#$1
    2d30: 86 14        	stx	$14                     ; 0x14 <__rc4>
    2d32: a6 7c        	ldx	$7c                     ; 0x7c <__bss_size+0x36>
    2d34: a0 00        	ldy	#$0
    2d36: 84 12        	sty	$12                     ; 0x12 <__rc2>
    2d38: a0 00        	ldy	#$0
    2d3a: 84 13        	sty	$13                     ; 0x13 <__rc3>
    2d3c: e4 13        	cpx	$13                     ; 0x13 <__rc3>
    2d3e: d0 1b        	bne	$2d5b <printf+0xa78>
    2d40: a6 7b        	ldx	$7b                     ; 0x7b <__bss_size+0x35>
    2d42: e4 12        	cpx	$12                     ; 0x12 <__rc2>
    2d44: d0 15        	bne	$2d5b <printf+0xa78>
    2d46: a4 14        	ldy	$14                     ; 0x14 <__rc4>
    2d48: 18           	clc
    2d49: aa           	tax
    2d4a: a5 15        	lda	$15                     ; 0x15 <__rc5>
    2d4c: 65 75        	adc	$75                     ; 0x75 <__bss_size+0x2f>
    2d4e: 85 12        	sta	$12                     ; 0x12 <__rc2>
    2d50: 8a           	txa
    2d51: 65 76        	adc	$76                     ; 0x76 <__bss_size+0x30>
    2d53: 85 13        	sta	$13                     ; 0x13 <__rc3>
    2d55: a9 30        	lda	#$30
    2d57: 92 12        	sta	($12)                   ; 0x12 <__rc2>
    2d59: 80 0c        	bra	$2d67 <printf+0xa84>
    2d5b: a2 01        	ldx	#$1
    2d5d: 86 44        	stx	$44                     ; 0x44 <__rc31+0x15>
    2d5f: ca           	dex
    2d60: a9 30        	lda	#$30
    2d62: 20 1d 30     	jsr	$301d <putchar>
    2d65: a4 44        	ldy	$44                     ; 0x44 <__rc31+0x15>
    2d67: a6 71        	ldx	$71                     ; 0x71 <__bss_size+0x2b>
    2d69: a5 72        	lda	$72                     ; 0x72 <__bss_size+0x2c>
    2d6b: e8           	inx
    2d6c: d0 01        	bne	$2d6f <printf+0xa8c>
    2d6e: 1a           	inc
    2d6f: 86 15        	stx	$15                     ; 0x15 <__rc5>
    2d71: 86 71        	stx	$71                     ; 0x71 <__bss_size+0x2b>
    2d73: 85 72        	sta	$72                     ; 0x72 <__bss_size+0x2c>
    2d75: a2 00        	ldx	#$0
    2d77: e4 43        	cpx	$43                     ; 0x43 <__rc31+0x14>
    2d79: d0 09        	bne	$2d84 <printf+0xaa1>
    2d7b: a6 46        	ldx	$46                     ; 0x46 <__bss_size>
    2d7d: e4 45        	cpx	$45                     ; 0x45 <__rc31+0x16>
    2d7f: b0 0c        	bcs	$2d8d <printf+0xaaa>
    2d81: 4c 10 2d     	jmp	$2d10 <printf+0xa2d>
    2d84: e4 43        	cpx	$43                     ; 0x43 <__rc31+0x14>
    2d86: a6 46        	ldx	$46                     ; 0x46 <__bss_size>
    2d88: b0 03        	bcs	$2d8d <printf+0xaaa>
    2d8a: 4c 10 2d     	jmp	$2d10 <printf+0xa2d>
    2d8d: 8a           	txa
    2d8e: d0 03        	bne	$2d93 <printf+0xab0>
    2d90: 4c c4 2e     	jmp	$2ec4 <printf+0xbe1>
    2d93: ca           	dex
    2d94: d0 03        	bne	$2d99 <printf+0xab6>
    2d96: 4c 46 2e     	jmp	$2e46 <printf+0xb63>
    2d99: 86 44        	stx	$44                     ; 0x44 <__rc31+0x15>
    2d9b: a6 88        	ldx	$88                     ; 0x88 <__bss_size+0x42>
    2d9d: 8a           	txa
    2d9e: 18           	clc
    2d9f: 65 44        	adc	$44                     ; 0x44 <__rc31+0x15>
    2da1: 85 42        	sta	$42                     ; 0x42 <__rc31+0x13>
    2da3: a5 89        	lda	$89                     ; 0x89 <__bss_size+0x43>
    2da5: 69 00        	adc	#$0
    2da7: 85 43        	sta	$43                     ; 0x43 <__rc31+0x14>
    2da9: 4c 34 2e     	jmp	$2e34 <printf+0xb51>
    2dac: 85 13        	sta	$13                     ; 0x13 <__rc3>
    2dae: a9 80        	lda	#$80
    2db0: 25 6d        	and	$6d                     ; 0x6d <__bss_size+0x27>
    2db2: f0 04        	beq	$2db8 <printf+0xad5>
    2db4: a2 61        	ldx	#$61
    2db6: 80 02        	bra	$2dba <printf+0xad7>
    2db8: a2 41        	ldx	#$41
    2dba: 86 12        	stx	$12                     ; 0x12 <__rc2>
    2dbc: a2 01        	ldx	#$1
    2dbe: 86 14        	stx	$14                     ; 0x14 <__rc4>
    2dc0: 18           	clc
    2dc1: a5 13        	lda	$13                     ; 0x13 <__rc3>
    2dc3: 65 12        	adc	$12                     ; 0x12 <__rc2>
    2dc5: 18           	clc
    2dc6: 69 f6        	adc	#$f6
    2dc8: a4 71        	ldy	$71                     ; 0x71 <__bss_size+0x2b>
    2dca: a6 72        	ldx	$72                     ; 0x72 <__bss_size+0x2c>
    2dcc: e4 70        	cpx	$70                     ; 0x70 <__bss_size+0x2a>
    2dce: d0 0c        	bne	$2ddc <printf+0xaf9>
    2dd0: 86 16        	stx	$16                     ; 0x16 <__rc6>
    2dd2: a6 6f        	ldx	$6f                     ; 0x6f <__bss_size+0x29>
    2dd4: 86 12        	stx	$12                     ; 0x12 <__rc2>
    2dd6: 84 15        	sty	$15                     ; 0x15 <__rc5>
    2dd8: c4 12        	cpy	$12                     ; 0x12 <__rc2>
    2dda: 80 06        	bra	$2de2 <printf+0xaff>
    2ddc: 84 15        	sty	$15                     ; 0x15 <__rc5>
    2dde: 86 16        	stx	$16                     ; 0x16 <__rc6>
    2de0: e4 70        	cpx	$70                     ; 0x70 <__bss_size+0x2a>
    2de2: a4 14        	ldy	$14                     ; 0x14 <__rc4>
    2de4: b0 38        	bcs	$2e1e <printf+0xb3b>
    2de6: 85 14        	sta	$14                     ; 0x14 <__rc4>
    2de8: a9 01        	lda	#$1
    2dea: a6 7c        	ldx	$7c                     ; 0x7c <__bss_size+0x36>
    2dec: a0 00        	ldy	#$0
    2dee: 84 12        	sty	$12                     ; 0x12 <__rc2>
    2df0: a0 00        	ldy	#$0
    2df2: 84 13        	sty	$13                     ; 0x13 <__rc3>
    2df4: e4 13        	cpx	$13                     ; 0x13 <__rc3>
    2df6: d0 1a        	bne	$2e12 <printf+0xb2f>
    2df8: a6 7b        	ldx	$7b                     ; 0x7b <__bss_size+0x35>
    2dfa: e4 12        	cpx	$12                     ; 0x12 <__rc2>
    2dfc: d0 14        	bne	$2e12 <printf+0xb2f>
    2dfe: a8           	tay
    2dff: 18           	clc
    2e00: a5 15        	lda	$15                     ; 0x15 <__rc5>
    2e02: 65 75        	adc	$75                     ; 0x75 <__bss_size+0x2f>
    2e04: 85 12        	sta	$12                     ; 0x12 <__rc2>
    2e06: a5 16        	lda	$16                     ; 0x16 <__rc6>
    2e08: 65 76        	adc	$76                     ; 0x76 <__bss_size+0x30>
    2e0a: 85 13        	sta	$13                     ; 0x13 <__rc3>
    2e0c: a5 14        	lda	$14                     ; 0x14 <__rc4>
    2e0e: 92 12        	sta	($12)                   ; 0x12 <__rc2>
    2e10: 80 0c        	bra	$2e1e <printf+0xb3b>
    2e12: a2 01        	ldx	#$1
    2e14: 86 45        	stx	$45                     ; 0x45 <__rc31+0x16>
    2e16: ca           	dex
    2e17: a5 14        	lda	$14                     ; 0x14 <__rc4>
    2e19: 20 1d 30     	jsr	$301d <putchar>
    2e1c: a4 45        	ldy	$45                     ; 0x45 <__rc31+0x16>
    2e1e: e6 71        	inc	$71                     ; 0x71 <__bss_size+0x2b>
    2e20: d0 02        	bne	$2e24 <printf+0xb41>
    2e22: e6 72        	inc	$72                     ; 0x72 <__bss_size+0x2c>
    2e24: c6 44        	dec	$44                     ; 0x44 <__rc31+0x15>
    2e26: a2 ff        	ldx	#$ff
    2e28: c6 42        	dec	$42                     ; 0x42 <__rc31+0x13>
    2e2a: e4 42        	cpx	$42                     ; 0x42 <__rc31+0x13>
    2e2c: d0 02        	bne	$2e30 <printf+0xb4d>
    2e2e: c6 43        	dec	$43                     ; 0x43 <__rc31+0x14>
    2e30: a5 44        	lda	$44                     ; 0x44 <__rc31+0x15>
    2e32: f0 12        	beq	$2e46 <printf+0xb63>
    2e34: b2 42        	lda	($42)                   ; 0x42 <__rc31+0x13>
    2e36: c9 0a        	cmp	#$a
    2e38: 90 03        	bcc	$2e3d <printf+0xb5a>
    2e3a: 4c ac 2d     	jmp	$2dac <printf+0xac9>
    2e3d: a2 01        	ldx	#$1
    2e3f: 86 14        	stx	$14                     ; 0x14 <__rc4>
    2e41: 09 30        	ora	#$30
    2e43: 4c c8 2d     	jmp	$2dc8 <printf+0xae5>
    2e46: a5 4a        	lda	$4a                     ; 0x4a <__bss_size+0x4>
    2e48: c9 0a        	cmp	#$a
    2e4a: b0 04        	bcs	$2e50 <printf+0xb6d>
    2e4c: 09 30        	ora	#$30
    2e4e: 80 18        	bra	$2e68 <printf+0xb85>
    2e50: 85 13        	sta	$13                     ; 0x13 <__rc3>
    2e52: a9 80        	lda	#$80
    2e54: 25 6d        	and	$6d                     ; 0x6d <__bss_size+0x27>
    2e56: f0 04        	beq	$2e5c <printf+0xb79>
    2e58: a2 61        	ldx	#$61
    2e5a: 80 02        	bra	$2e5e <printf+0xb7b>
    2e5c: a2 41        	ldx	#$41
    2e5e: 86 12        	stx	$12                     ; 0x12 <__rc2>
    2e60: 18           	clc
    2e61: a5 13        	lda	$13                     ; 0x13 <__rc3>
    2e63: 65 12        	adc	$12                     ; 0x12 <__rc2>
    2e65: 18           	clc
    2e66: 69 f6        	adc	#$f6
    2e68: a6 71        	ldx	$71                     ; 0x71 <__bss_size+0x2b>
    2e6a: 86 15        	stx	$15                     ; 0x15 <__rc5>
    2e6c: a6 72        	ldx	$72                     ; 0x72 <__bss_size+0x2c>
    2e6e: e4 70        	cpx	$70                     ; 0x70 <__bss_size+0x2a>
    2e70: d0 0e        	bne	$2e80 <printf+0xb9d>
    2e72: 86 16        	stx	$16                     ; 0x16 <__rc6>
    2e74: a6 6f        	ldx	$6f                     ; 0x6f <__bss_size+0x29>
    2e76: 86 12        	stx	$12                     ; 0x12 <__rc2>
    2e78: a6 15        	ldx	$15                     ; 0x15 <__rc5>
    2e7a: e4 12        	cpx	$12                     ; 0x12 <__rc2>
    2e7c: 90 08        	bcc	$2e86 <printf+0xba3>
    2e7e: 80 3e        	bra	$2ebe <printf+0xbdb>
    2e80: 86 16        	stx	$16                     ; 0x16 <__rc6>
    2e82: e4 70        	cpx	$70                     ; 0x70 <__bss_size+0x2a>
    2e84: b0 38        	bcs	$2ebe <printf+0xbdb>
    2e86: 85 14        	sta	$14                     ; 0x14 <__rc4>
    2e88: a9 01        	lda	#$1
    2e8a: a6 7c        	ldx	$7c                     ; 0x7c <__bss_size+0x36>
    2e8c: a0 00        	ldy	#$0
    2e8e: 84 12        	sty	$12                     ; 0x12 <__rc2>
    2e90: a0 00        	ldy	#$0
    2e92: 84 13        	sty	$13                     ; 0x13 <__rc3>
    2e94: e4 13        	cpx	$13                     ; 0x13 <__rc3>
    2e96: d0 1a        	bne	$2eb2 <printf+0xbcf>
    2e98: a6 7b        	ldx	$7b                     ; 0x7b <__bss_size+0x35>
    2e9a: e4 12        	cpx	$12                     ; 0x12 <__rc2>
    2e9c: d0 14        	bne	$2eb2 <printf+0xbcf>
    2e9e: a8           	tay
    2e9f: 18           	clc
    2ea0: a5 15        	lda	$15                     ; 0x15 <__rc5>
    2ea2: 65 75        	adc	$75                     ; 0x75 <__bss_size+0x2f>
    2ea4: 85 12        	sta	$12                     ; 0x12 <__rc2>
    2ea6: a5 16        	lda	$16                     ; 0x16 <__rc6>
    2ea8: 65 76        	adc	$76                     ; 0x76 <__bss_size+0x30>
    2eaa: 85 13        	sta	$13                     ; 0x13 <__rc3>
    2eac: a5 14        	lda	$14                     ; 0x14 <__rc4>
    2eae: 92 12        	sta	($12)                   ; 0x12 <__rc2>
    2eb0: 80 0c        	bra	$2ebe <printf+0xbdb>
    2eb2: a2 01        	ldx	#$1
    2eb4: 86 42        	stx	$42                     ; 0x42 <__rc31+0x13>
    2eb6: ca           	dex
    2eb7: a5 14        	lda	$14                     ; 0x14 <__rc4>
    2eb9: 20 1d 30     	jsr	$301d <putchar>
    2ebc: a4 42        	ldy	$42                     ; 0x42 <__rc31+0x13>
    2ebe: e6 71        	inc	$71                     ; 0x71 <__bss_size+0x2b>
    2ec0: d0 02        	bne	$2ec4 <printf+0xbe1>
    2ec2: e6 72        	inc	$72                     ; 0x72 <__bss_size+0x2c>
    2ec4: a5 6d        	lda	$6d                     ; 0x6d <__bss_size+0x27>
    2ec6: 29 01        	and	#$1
    2ec8: d0 27        	bne	$2ef1 <printf+0xc0e>
    2eca: a6 71        	ldx	$71                     ; 0x71 <__bss_size+0x2b>
    2ecc: 86 15        	stx	$15                     ; 0x15 <__rc5>
    2ece: a5 72        	lda	$72                     ; 0x72 <__bss_size+0x2c>
    2ed0: a6 6f        	ldx	$6f                     ; 0x6f <__bss_size+0x29>
    2ed2: 86 14        	stx	$14                     ; 0x14 <__rc4>
    2ed4: a6 70        	ldx	$70                     ; 0x70 <__bss_size+0x2a>
    2ed6: 86 12        	stx	$12                     ; 0x12 <__rc2>
    2ed8: 86 13        	stx	$13                     ; 0x13 <__rc3>
    2eda: c5 12        	cmp	$12                     ; 0x12 <__rc2>
    2edc: f0 03        	beq	$2ee1 <printf+0xbfe>
    2ede: 4c 91 2f     	jmp	$2f91 <printf+0xcae>
    2ee1: a5 14        	lda	$14                     ; 0x14 <__rc4>
    2ee3: 85 12        	sta	$12                     ; 0x12 <__rc2>
    2ee5: a6 15        	ldx	$15                     ; 0x15 <__rc5>
    2ee7: e4 12        	cpx	$12                     ; 0x12 <__rc2>
    2ee9: 90 03        	bcc	$2eee <printf+0xc0b>
    2eeb: 4c 99 2f     	jmp	$2f99 <printf+0xcb6>
    2eee: 4c b9 2f     	jmp	$2fb9 <printf+0xcd6>
    2ef1: a6 71        	ldx	$71                     ; 0x71 <__bss_size+0x2b>
    2ef3: 86 15        	stx	$15                     ; 0x15 <__rc5>
    2ef5: a5 72        	lda	$72                     ; 0x72 <__bss_size+0x2c>
    2ef7: a6 47        	ldx	$47                     ; 0x47 <__bss_size+0x1>
    2ef9: 5a           	phy
    2efa: a4 3d        	ldy	$3d                     ; 0x3d <__rc31+0xe>
    2efc: 84 12        	sty	$12                     ; 0x12 <__rc2>
    2efe: 7a           	ply
    2eff: e6 12        	inc	$12                     ; 0x12 <__rc2>
    2f01: c6 12        	dec	$12                     ; 0x12 <__rc2>
    2f03: f0 03        	beq	$2f08 <printf+0xc25>
    2f05: 4c 7d 2f     	jmp	$2f7d <printf+0xc9a>
    2f08: e0 00        	cpx	#$0
    2f0a: f0 c4        	beq	$2ed0 <printf+0xbed>
    2f0c: 4c 7d 2f     	jmp	$2f7d <printf+0xc9a>
    2f0f: c5 70        	cmp	$70                     ; 0x70 <__bss_size+0x2a>
    2f11: b0 39        	bcs	$2f4c <printf+0xc69>
    2f13: a2 01        	ldx	#$1
    2f15: 86 14        	stx	$14                     ; 0x14 <__rc4>
    2f17: a6 7c        	ldx	$7c                     ; 0x7c <__bss_size+0x36>
    2f19: a0 00        	ldy	#$0
    2f1b: 84 12        	sty	$12                     ; 0x12 <__rc2>
    2f1d: a0 00        	ldy	#$0
    2f1f: 84 13        	sty	$13                     ; 0x13 <__rc3>
    2f21: e4 13        	cpx	$13                     ; 0x13 <__rc3>
    2f23: d0 1b        	bne	$2f40 <printf+0xc5d>
    2f25: a6 7b        	ldx	$7b                     ; 0x7b <__bss_size+0x35>
    2f27: e4 12        	cpx	$12                     ; 0x12 <__rc2>
    2f29: d0 15        	bne	$2f40 <printf+0xc5d>
    2f2b: a4 14        	ldy	$14                     ; 0x14 <__rc4>
    2f2d: 18           	clc
    2f2e: aa           	tax
    2f2f: a5 15        	lda	$15                     ; 0x15 <__rc5>
    2f31: 65 75        	adc	$75                     ; 0x75 <__bss_size+0x2f>
    2f33: 85 12        	sta	$12                     ; 0x12 <__rc2>
    2f35: 8a           	txa
    2f36: 65 76        	adc	$76                     ; 0x76 <__bss_size+0x30>
    2f38: 85 13        	sta	$13                     ; 0x13 <__rc3>
    2f3a: a9 20        	lda	#$20
    2f3c: 92 12        	sta	($12)                   ; 0x12 <__rc2>
    2f3e: 80 0c        	bra	$2f4c <printf+0xc69>
    2f40: a2 01        	ldx	#$1
    2f42: 86 42        	stx	$42                     ; 0x42 <__rc31+0x13>
    2f44: ca           	dex
    2f45: a9 20        	lda	#$20
    2f47: 20 1d 30     	jsr	$301d <putchar>
    2f4a: a4 42        	ldy	$42                     ; 0x42 <__rc31+0x13>
    2f4c: a6 71        	ldx	$71                     ; 0x71 <__bss_size+0x2b>
    2f4e: a5 72        	lda	$72                     ; 0x72 <__bss_size+0x2c>
    2f50: e8           	inx
    2f51: d0 01        	bne	$2f54 <printf+0xc71>
    2f53: 1a           	inc
    2f54: 86 15        	stx	$15                     ; 0x15 <__rc5>
    2f56: 86 71        	stx	$71                     ; 0x71 <__bss_size+0x2b>
    2f58: 85 72        	sta	$72                     ; 0x72 <__bss_size+0x2c>
    2f5a: a6 47        	ldx	$47                     ; 0x47 <__bss_size+0x1>
    2f5c: 86 12        	stx	$12                     ; 0x12 <__rc2>
    2f5e: a6 3d        	ldx	$3d                     ; 0x3d <__rc31+0xe>
    2f60: 86 13        	stx	$13                     ; 0x13 <__rc3>
    2f62: a2 ff        	ldx	#$ff
    2f64: c6 12        	dec	$12                     ; 0x12 <__rc2>
    2f66: e4 12        	cpx	$12                     ; 0x12 <__rc2>
    2f68: d0 02        	bne	$2f6c <printf+0xc89>
    2f6a: c6 13        	dec	$13                     ; 0x13 <__rc3>
    2f6c: a6 12        	ldx	$12                     ; 0x12 <__rc2>
    2f6e: 86 47        	stx	$47                     ; 0x47 <__bss_size+0x1>
    2f70: a6 13        	ldx	$13                     ; 0x13 <__rc3>
    2f72: 86 3d        	stx	$3d                     ; 0x3d <__rc31+0xe>
    2f74: d0 07        	bne	$2f7d <printf+0xc9a>
    2f76: a6 12        	ldx	$12                     ; 0x12 <__rc2>
    2f78: d0 03        	bne	$2f7d <printf+0xc9a>
    2f7a: 4c d0 2e     	jmp	$2ed0 <printf+0xbed>
    2f7d: c5 70        	cmp	$70                     ; 0x70 <__bss_size+0x2a>
    2f7f: f0 03        	beq	$2f84 <printf+0xca1>
    2f81: 4c 0f 2f     	jmp	$2f0f <printf+0xc2c>
    2f84: a6 6f        	ldx	$6f                     ; 0x6f <__bss_size+0x29>
    2f86: 86 12        	stx	$12                     ; 0x12 <__rc2>
    2f88: a6 15        	ldx	$15                     ; 0x15 <__rc5>
    2f8a: e4 12        	cpx	$12                     ; 0x12 <__rc2>
    2f8c: b0 be        	bcs	$2f4c <printf+0xc69>
    2f8e: 4c 13 2f     	jmp	$2f13 <printf+0xc30>
    2f91: 86 12        	stx	$12                     ; 0x12 <__rc2>
    2f93: c5 12        	cmp	$12                     ; 0x12 <__rc2>
    2f95: a5 14        	lda	$14                     ; 0x14 <__rc4>
    2f97: 90 20        	bcc	$2fb9 <printf+0xcd6>
    2f99: a6 13        	ldx	$13                     ; 0x13 <__rc3>
    2f9b: d0 03        	bne	$2fa0 <printf+0xcbd>
    2f9d: aa           	tax
    2f9e: f0 19        	beq	$2fb9 <printf+0xcd6>
    2fa0: 18           	clc
    2fa1: 65 75        	adc	$75                     ; 0x75 <__bss_size+0x2f>
    2fa3: 85 12        	sta	$12                     ; 0x12 <__rc2>
    2fa5: a5 13        	lda	$13                     ; 0x13 <__rc3>
    2fa7: 65 76        	adc	$76                     ; 0x76 <__bss_size+0x30>
    2fa9: 85 13        	sta	$13                     ; 0x13 <__rc3>
    2fab: a2 ff        	ldx	#$ff
    2fad: c6 12        	dec	$12                     ; 0x12 <__rc2>
    2faf: e4 12        	cpx	$12                     ; 0x12 <__rc2>
    2fb1: d0 02        	bne	$2fb5 <printf+0xcd2>
    2fb3: c6 13        	dec	$13                     ; 0x13 <__rc3>
    2fb5: a9 00        	lda	#$0
    2fb7: 92 12        	sta	($12)                   ; 0x12 <__rc2>
    2fb9: e6 3e        	inc	$3e                     ; 0x3e <__rc31+0xf>
    2fbb: d0 02        	bne	$2fbf <printf+0xcdc>
    2fbd: e6 3f        	inc	$3f                     ; 0x3f <__rc31+0x10>
    2fbf: a6 3f        	ldx	$3f                     ; 0x3f <__rc31+0x10>
    2fc1: e4 41        	cpx	$41                     ; 0x41 <__rc31+0x12>
    2fc3: f0 03        	beq	$2fc8 <printf+0xce5>
    2fc5: 4c 48 23     	jmp	$2348 <printf+0x65>
    2fc8: a6 3e        	ldx	$3e                     ; 0x3e <__rc31+0xf>
    2fca: e4 40        	cpx	$40                     ; 0x40 <__rc31+0x11>
    2fcc: f0 03        	beq	$2fd1 <printf+0xcee>
    2fce: 4c 48 23     	jmp	$2348 <printf+0x65>
    2fd1: b2 40        	lda	($40)                   ; 0x40 <__rc31+0x11>
    2fd3: a2 00        	ldx	#$0
    2fd5: 4c 5f 23     	jmp	$235f <printf+0x7c>
    2fd8: a2 20        	ldx	#$20
    2fda: 86 82        	stx	$82                     ; 0x82 <__bss_size+0x3c>
    2fdc: 4c 63 2a     	jmp	$2a63 <printf+0x780>
    2fdf: e4 43        	cpx	$43                     ; 0x43 <__rc31+0x14>
    2fe1: a6 3c        	ldx	$3c                     ; 0x3c <__rc31+0xd>
    2fe3: b0 03        	bcs	$2fe8 <printf+0xd05>
    2fe5: 4c 35 2a     	jmp	$2a35 <printf+0x752>
    2fe8: a5 46        	lda	$46                     ; 0x46 <__bss_size>
    2fea: 85 42        	sta	$42                     ; 0x42 <__rc31+0x13>
    2fec: 64 43        	stz	$43                     ; 0x43 <__rc31+0x14>
    2fee: e6 42        	inc	$42                     ; 0x42 <__rc31+0x13>
    2ff0: f0 03        	beq	$2ff5 <printf+0xd12>
    2ff2: 4c 35 2a     	jmp	$2a35 <printf+0x752>
    2ff5: e6 43        	inc	$43                     ; 0x43 <__rc31+0x14>
    2ff7: 4c 35 2a     	jmp	$2a35 <printf+0x752>
    2ffa: 86 81        	stx	$81                     ; 0x81 <__bss_size+0x3b>
    2ffc: a2 58        	ldx	#$58
    2ffe: 86 86        	stx	$86                     ; 0x86 <__bss_size+0x40>
    3000: a2 01        	ldx	#$1
    3002: 86 42        	stx	$42                     ; 0x42 <__rc31+0x13>
    3004: a2 30        	ldx	#$30
    3006: 86 82        	stx	$82                     ; 0x82 <__bss_size+0x3c>
    3008: a2 02        	ldx	#$2
    300a: 86 16        	stx	$16                     ; 0x16 <__rc6>
    300c: a2 00        	ldx	#$0
    300e: 86 45        	stx	$45                     ; 0x45 <__rc31+0x16>
    3010: 4c 69 2a     	jmp	$2a69 <printf+0x786>
    3013: a6 13        	ldx	$13                     ; 0x13 <__rc3>
    3015: 64 47        	stz	$47                     ; 0x47 <__bss_size+0x1>
    3017: 64 3d        	stz	$3d                     ; 0x3d <__rc31+0xe>
    3019: 4c f6 2c     	jmp	$2cf6 <printf+0xa13>
    301c: 60           	rts

0000301d <putchar>:
    301d: 86 12        	stx	$12                     ; 0x12 <__rc2>
    301f: 85 95        	sta	$95                     ; 0x95 <__bss_size+0x4f>
    3021: 85 32        	sta	$32                     ; 0x32 <__putchar.s>
    3023: a6 01        	ldx	$1                      ; 0x1 <__zp_data_size+0x1>
    3025: 86 96        	stx	$96                     ; 0x96 <__bss_size+0x50>
    3027: a6 31        	ldx	$31                     ; 0x31 <_row>
    3029: a0 50        	ldy	#$50
    302b: 8c 00 de     	sty	$de00                   ; 0xde00 <end_block9+0xa89a>
    302e: 9c 01 de     	stz	$de01                   ; 0xde01 <end_block9+0xa89b>
    3031: 8e 02 de     	stx	$de02                   ; 0xde02 <end_block9+0xa89c>
    3034: 9c 03 de     	stz	$de03                   ; 0xde03 <end_block9+0xa89d>
    3037: ae 10 de     	ldx	$de10                   ; 0xde10 <end_block9+0xa8aa>
    303a: 86 13        	stx	$13                     ; 0x13 <__rc3>
    303c: ad 11 de     	lda	$de11                   ; 0xde11 <end_block9+0xa8ab>
    303f: ae 12 de     	ldx	$de12                   ; 0xde12 <end_block9+0xa8ac>
    3042: 86 1a        	stx	$1a                     ; 0x1a <__rc10>
    3044: ae 13 de     	ldx	$de13                   ; 0xde13 <end_block9+0xa8ad>
    3047: 86 1b        	stx	$1b                     ; 0x1b <__rc11>
    3049: 9c 08 de     	stz	$de08                   ; 0xde08 <end_block9+0xa8a2>
    304c: a2 c0        	ldx	#$c0
    304e: 8e 09 de     	stx	$de09                   ; 0xde09 <end_block9+0xa8a3>
    3051: 9c 0a de     	stz	$de0a                   ; 0xde0a <end_block9+0xa8a4>
    3054: 9c 0b de     	stz	$de0b                   ; 0xde0b <end_block9+0xa8a5>
    3057: a6 13        	ldx	$13                     ; 0x13 <__rc3>
    3059: 8e 0c de     	stx	$de0c                   ; 0xde0c <end_block9+0xa8a6>
    305c: 8d 0d de     	sta	$de0d                   ; 0xde0d <end_block9+0xa8a7>
    305f: 64 13        	stz	$13                     ; 0x13 <__rc3>
    3061: a2 00        	ldx	#$0
    3063: 86 14        	stx	$14                     ; 0x14 <__rc4>
    3065: a2 c0        	ldx	#$c0
    3067: 86 15        	stx	$15                     ; 0x15 <__rc5>
    3069: a2 11        	ldx	#$11
    306b: 86 16        	stx	$16                     ; 0x16 <__rc6>
    306d: a2 c9        	ldx	#$c9
    306f: 86 17        	stx	$17                     ; 0x17 <__rc7>
    3071: a2 10        	ldx	#$10
    3073: 86 18        	stx	$18                     ; 0x18 <__rc8>
    3075: a2 c9        	ldx	#$c9
    3077: 86 19        	stx	$19                     ; 0x19 <__rc9>
    3079: a6 1a        	ldx	$1a                     ; 0x1a <__rc10>
    307b: 8e 0e de     	stx	$de0e                   ; 0xde0e <end_block9+0xa8a8>
    307e: a6 1b        	ldx	$1b                     ; 0x1b <__rc11>
    3080: 8e 0f de     	stx	$de0f                   ; 0xde0f <end_block9+0xa8a9>
    3083: ae 18 de     	ldx	$de18                   ; 0xde18 <end_block9+0xa8b2>
    3086: 86 1c        	stx	$1c                     ; 0x1c <__rc12>
    3088: ad 19 de     	lda	$de19                   ; 0xde19 <end_block9+0xa8b3>
    308b: ae 1a de     	ldx	$de1a                   ; 0xde1a <end_block9+0xa8b4>
    308e: ae 1b de     	ldx	$de1b                   ; 0xde1b <end_block9+0xa8b5>
    3091: 85 1d        	sta	$1d                     ; 0x1d <__rc13>
    3093: 64 1a        	stz	$1a                     ; 0x1a <__rc10>
    3095: a2 f0        	ldx	#$f0
    3097: 86 97        	stx	$97                     ; 0x97 <__bss_size+0x51>
    3099: a2 20        	ldx	#$20
    309b: 86 98        	stx	$98                     ; 0x98 <__bss_size+0x52>
    309d: 80 13        	bra	$30b2 <putchar+0x95>
    309f: a5 1c        	lda	$1c                     ; 0x1c <__rc12>
    30a1: 18           	clc
    30a2: 69 50        	adc	#$50
    30a4: 85 1c        	sta	$1c                     ; 0x1c <__rc12>
    30a6: a5 1d        	lda	$1d                     ; 0x1d <__rc13>
    30a8: 69 00        	adc	#$0
    30aa: 85 1d        	sta	$1d                     ; 0x1d <__rc13>
    30ac: e6 13        	inc	$13                     ; 0x13 <__rc3>
    30ae: d0 02        	bne	$30b2 <putchar+0x95>
    30b0: e6 1a        	inc	$1a                     ; 0x1a <__rc10>
    30b2: a9 32        	lda	#$32
    30b4: 18           	clc
    30b5: 65 13        	adc	$13                     ; 0x13 <__rc3>
    30b7: 85 1e        	sta	$1e                     ; 0x1e <__rc14>
    30b9: a9 00        	lda	#$0
    30bb: 65 1a        	adc	$1a                     ; 0x1a <__rc10>
    30bd: 85 1f        	sta	$1f                     ; 0x1f <__rc15>
    30bf: b2 1e        	lda	($1e)                   ; 0x1e <__rc14>
    30c1: c9 0a        	cmp	#$a
    30c3: f0 2e        	beq	$30f3 <putchar+0xd6>
    30c5: c9 0d        	cmp	#$d
    30c7: f0 2a        	beq	$30f3 <putchar+0xd6>
    30c9: aa           	tax
    30ca: d0 03        	bne	$30cf <putchar+0xb2>
    30cc: 4c 05 32     	jmp	$3205 <putchar+0x1e8>
    30cf: a2 03        	ldx	#$3
    30d1: 86 01        	stx	$1                      ; 0x1 <__zp_data_size+0x1>
    30d3: 84 1b        	sty	$1b                     ; 0x1b <__rc11>
    30d5: a4 30        	ldy	$30                     ; 0x30 <_col>
    30d7: a9 f0        	lda	#$f0
    30d9: aa           	tax
    30da: 86 97        	stx	$97                     ; 0x97 <__bss_size+0x51>
    30dc: 91 1c        	sta	($1c),y                 ; 0x1c <__rc12>
    30de: a2 02        	ldx	#$2
    30e0: 86 01        	stx	$1                      ; 0x1 <__zp_data_size+0x1>
    30e2: b2 1e        	lda	($1e)                   ; 0x1e <__rc14>
    30e4: a4 30        	ldy	$30                     ; 0x30 <_col>
    30e6: 91 1c        	sta	($1c),y                 ; 0x1c <__rc12>
    30e8: a4 1b        	ldy	$1b                     ; 0x1b <__rc11>
    30ea: a6 30        	ldx	$30                     ; 0x30 <_col>
    30ec: e8           	inx
    30ed: e6 30        	inc	$30                     ; 0x30 <_col>
    30ef: e0 50        	cpx	#$50
    30f1: d0 b9        	bne	$30ac <putchar+0x8f>
    30f3: 64 30        	stz	$30                     ; 0x30 <_col>
    30f5: a6 31        	ldx	$31                     ; 0x31 <_row>
    30f7: e8           	inx
    30f8: e6 31        	inc	$31                     ; 0x31 <_row>
    30fa: e0 1e        	cpx	#$1e
    30fc: f0 03        	beq	$3101 <putchar+0xe4>
    30fe: 4c 9f 30     	jmp	$309f <putchar+0x82>
    3101: a2 03        	ldx	#$3
    3103: 86 01        	stx	$1                      ; 0x1 <__zp_data_size+0x1>
    3105: a2 09        	ldx	#$9
    3107: a9 10        	lda	#$10
    3109: 5a           	phy
    310a: a0 00        	ldy	#$0
    310c: 84 1c        	sty	$1c                     ; 0x1c <__rc12>
    310e: a0 c0        	ldy	#$c0
    3110: 84 1d        	sty	$1d                     ; 0x1d <__rc13>
    3112: 7a           	ply
    3113: 85 1b        	sta	$1b                     ; 0x1b <__rc11>
    3115: b1 1c        	lda	($1c),y                 ; 0x1c <__rc12>
    3117: 92 1c        	sta	($1c)                   ; 0x1c <__rc12>
    3119: a9 ff        	lda	#$ff
    311b: c6 1b        	dec	$1b                     ; 0x1b <__rc11>
    311d: c5 1b        	cmp	$1b                     ; 0x1b <__rc11>
    311f: d0 01        	bne	$3122 <putchar+0x105>
    3121: ca           	dex
    3122: e6 1c        	inc	$1c                     ; 0x1c <__rc12>
    3124: d0 02        	bne	$3128 <putchar+0x10b>
    3126: e6 1d        	inc	$1d                     ; 0x1d <__rc13>
    3128: 8a           	txa
    3129: d0 ea        	bne	$3115 <putchar+0xf8>
    312b: a5 1b        	lda	$1b                     ; 0x1b <__rc11>
    312d: d0 e6        	bne	$3115 <putchar+0xf8>
    312f: a2 02        	ldx	#$2
    3131: 86 01        	stx	$1                      ; 0x1 <__zp_data_size+0x1>
    3133: a2 09        	ldx	#$9
    3135: a9 10        	lda	#$10
    3137: 5a           	phy
    3138: a0 00        	ldy	#$0
    313a: 84 1c        	sty	$1c                     ; 0x1c <__rc12>
    313c: a0 c0        	ldy	#$c0
    313e: 84 1d        	sty	$1d                     ; 0x1d <__rc13>
    3140: 7a           	ply
    3141: 85 1b        	sta	$1b                     ; 0x1b <__rc11>
    3143: b1 1c        	lda	($1c),y                 ; 0x1c <__rc12>
    3145: 92 1c        	sta	($1c)                   ; 0x1c <__rc12>
    3147: a9 ff        	lda	#$ff
    3149: c6 1b        	dec	$1b                     ; 0x1b <__rc11>
    314b: c5 1b        	cmp	$1b                     ; 0x1b <__rc11>
    314d: d0 01        	bne	$3150 <putchar+0x133>
    314f: ca           	dex
    3150: e6 1c        	inc	$1c                     ; 0x1c <__rc12>
    3152: d0 02        	bne	$3156 <putchar+0x139>
    3154: e6 1d        	inc	$1d                     ; 0x1d <__rc13>
    3156: 8a           	txa
    3157: d0 ea        	bne	$3143 <putchar+0x126>
    3159: a5 1b        	lda	$1b                     ; 0x1b <__rc11>
    315b: d0 e6        	bne	$3143 <putchar+0x126>
    315d: a2 50        	ldx	#$50
    315f: 86 1b        	stx	$1b                     ; 0x1b <__rc11>
    3161: a2 02        	ldx	#$2
    3163: 86 01        	stx	$1                      ; 0x1 <__zp_data_size+0x1>
    3165: e8           	inx
    3166: 86 01        	stx	$1                      ; 0x1 <__zp_data_size+0x1>
    3168: a2 50        	ldx	#$50
    316a: a0 11        	ldy	#$11
    316c: 84 1c        	sty	$1c                     ; 0x1c <__rc12>
    316e: a0 c9        	ldy	#$c9
    3170: 84 1d        	sty	$1d                     ; 0x1d <__rc13>
    3172: a0 10        	ldy	#$10
    3174: 84 1e        	sty	$1e                     ; 0x1e <__rc14>
    3176: a0 c9        	ldy	#$c9
    3178: 84 1f        	sty	$1f                     ; 0x1f <__rc15>
    317a: a5 97        	lda	$97                     ; 0x97 <__bss_size+0x51>
    317c: a4 1e        	ldy	$1e                     ; 0x1e <__rc14>
    317e: 84 22        	sty	$22                     ; 0x22 <__rc18>
    3180: a4 1f        	ldy	$1f                     ; 0x1f <__rc15>
    3182: 84 23        	sty	$23                     ; 0x23 <__rc19>
    3184: a4 1c        	ldy	$1c                     ; 0x1c <__rc12>
    3186: 84 1e        	sty	$1e                     ; 0x1e <__rc14>
    3188: a4 1d        	ldy	$1d                     ; 0x1d <__rc13>
    318a: 84 1f        	sty	$1f                     ; 0x1f <__rc15>
    318c: 92 22        	sta	($22)                   ; 0x22 <__rc18>
    318e: e6 1c        	inc	$1c                     ; 0x1c <__rc12>
    3190: d0 02        	bne	$3194 <putchar+0x177>
    3192: e6 1d        	inc	$1d                     ; 0x1d <__rc13>
    3194: ca           	dex
    3195: d0 e5        	bne	$317c <putchar+0x15f>
    3197: a2 f0        	ldx	#$f0
    3199: 86 97        	stx	$97                     ; 0x97 <__bss_size+0x51>
    319b: a2 02        	ldx	#$2
    319d: 86 01        	stx	$1                      ; 0x1 <__zp_data_size+0x1>
    319f: a2 50        	ldx	#$50
    31a1: a0 11        	ldy	#$11
    31a3: 84 1c        	sty	$1c                     ; 0x1c <__rc12>
    31a5: a0 c9        	ldy	#$c9
    31a7: 84 1d        	sty	$1d                     ; 0x1d <__rc13>
    31a9: a0 10        	ldy	#$10
    31ab: 84 1e        	sty	$1e                     ; 0x1e <__rc14>
    31ad: a0 c9        	ldy	#$c9
    31af: 84 1f        	sty	$1f                     ; 0x1f <__rc15>
    31b1: a5 98        	lda	$98                     ; 0x98 <__bss_size+0x52>
    31b3: a4 1e        	ldy	$1e                     ; 0x1e <__rc14>
    31b5: 84 22        	sty	$22                     ; 0x22 <__rc18>
    31b7: a4 1f        	ldy	$1f                     ; 0x1f <__rc15>
    31b9: 84 23        	sty	$23                     ; 0x23 <__rc19>
    31bb: a4 1c        	ldy	$1c                     ; 0x1c <__rc12>
    31bd: 84 1e        	sty	$1e                     ; 0x1e <__rc14>
    31bf: a4 1d        	ldy	$1d                     ; 0x1d <__rc13>
    31c1: 84 1f        	sty	$1f                     ; 0x1f <__rc15>
    31c3: 92 22        	sta	($22)                   ; 0x22 <__rc18>
    31c5: e6 1c        	inc	$1c                     ; 0x1c <__rc12>
    31c7: d0 02        	bne	$31cb <putchar+0x1ae>
    31c9: e6 1d        	inc	$1d                     ; 0x1d <__rc13>
    31cb: ca           	dex
    31cc: d0 e5        	bne	$31b3 <putchar+0x196>
    31ce: a2 20        	ldx	#$20
    31d0: 86 98        	stx	$98                     ; 0x98 <__bss_size+0x52>
    31d2: c6 31        	dec	$31                     ; 0x31 <_row>
    31d4: 9c 08 de     	stz	$de08                   ; 0xde08 <end_block9+0xa8a2>
    31d7: a2 c0        	ldx	#$c0
    31d9: 8e 09 de     	stx	$de09                   ; 0xde09 <end_block9+0xa8a3>
    31dc: 9c 0a de     	stz	$de0a                   ; 0xde0a <end_block9+0xa8a4>
    31df: 9c 0b de     	stz	$de0b                   ; 0xde0b <end_block9+0xa8a5>
    31e2: a2 1d        	ldx	#$1d
    31e4: 8e 0c de     	stx	$de0c                   ; 0xde0c <end_block9+0xa8a6>
    31e7: 9c 0d de     	stz	$de0d                   ; 0xde0d <end_block9+0xa8a7>
    31ea: 9c 0e de     	stz	$de0e                   ; 0xde0e <end_block9+0xa8a8>
    31ed: 9c 0f de     	stz	$de0f                   ; 0xde0f <end_block9+0xa8a9>
    31f0: ae 18 de     	ldx	$de18                   ; 0xde18 <end_block9+0xa8b2>
    31f3: ac 19 de     	ldy	$de19                   ; 0xde19 <end_block9+0xa8b3>
    31f6: ad 1a de     	lda	$de1a                   ; 0xde1a <end_block9+0xa8b4>
    31f9: ad 1b de     	lda	$de1b                   ; 0xde1b <end_block9+0xa8b5>
    31fc: 86 1c        	stx	$1c                     ; 0x1c <__rc12>
    31fe: 84 1d        	sty	$1d                     ; 0x1d <__rc13>
    3200: a4 1b        	ldy	$1b                     ; 0x1b <__rc11>
    3202: 4c ac 30     	jmp	$30ac <putchar+0x8f>
    3205: a6 96        	ldx	$96                     ; 0x96 <__bss_size+0x50>
    3207: 86 01        	stx	$1                      ; 0x1 <__zp_data_size+0x1>
    3209: a6 30        	ldx	$30                     ; 0x30 <_col>
    320b: a4 31        	ldy	$31                     ; 0x31 <_row>
    320d: 8e 14 d0     	stx	$d014                   ; 0xd014 <end_block9+0x9aae>
    3210: 9c 15 d0     	stz	$d015                   ; 0xd015 <end_block9+0x9aaf>
    3213: 84 31        	sty	$31                     ; 0x31 <_row>
    3215: 8c 16 d0     	sty	$d016                   ; 0xd016 <end_block9+0x9ab0>
    3218: 9c 17 d0     	stz	$d017                   ; 0xd017 <end_block9+0x9ab1>
    321b: a6 12        	ldx	$12                     ; 0x12 <__rc2>
    321d: a5 95        	lda	$95                     ; 0x95 <__bss_size+0x4f>
    321f: 60           	rts

00003220 <malloc>:
    3220: a8           	tay
    3221: 8a           	txa
    3222: a2 00        	ldx	#$0
    3224: 86 12        	stx	$12                     ; 0x12 <__rc2>
    3226: a2 00        	ldx	#$0
    3228: 86 13        	stx	$13                     ; 0x13 <__rc3>
    322a: aa           	tax
    322b: d0 07        	bne	$3234 <malloc+0x14>
    322d: c0 00        	cpy	#$0
    322f: d0 03        	bne	$3234 <malloc+0x14>
    3231: 4c 38 33     	jmp	$3338 <malloc+0x118>
    3234: 84 16        	sty	$16                     ; 0x16 <__rc6>
    3236: aa           	tax
    3237: d0 0e        	bne	$3247 <malloc+0x27>
    3239: a6 16        	ldx	$16                     ; 0x16 <__rc6>
    323b: e0 07        	cpx	#$7
    323d: b0 0c        	bcs	$324b <malloc+0x2b>
    323f: a2 08        	ldx	#$8
    3241: 86 40        	stx	$40                     ; 0x40 <__rc31+0x11>
    3243: a9 00        	lda	#$0
    3245: 80 31        	bra	$3278 <malloc+0x58>
    3247: c9 00        	cmp	#$0
    3249: 90 f4        	bcc	$323f <malloc+0x1f>
    324b: a8           	tay
    324c: a5 16        	lda	$16                     ; 0x16 <__rc6>
    324e: 29 01        	and	#$1
    3250: a2 02        	ldx	#$2
    3252: 64 14        	stz	$14                     ; 0x14 <__rc4>
    3254: c9 00        	cmp	#$0
    3256: f0 02        	beq	$325a <malloc+0x3a>
    3258: a2 03        	ldx	#$3
    325a: 86 15        	stx	$15                     ; 0x15 <__rc5>
    325c: 18           	clc
    325d: a5 16        	lda	$16                     ; 0x16 <__rc6>
    325f: 65 15        	adc	$15                     ; 0x15 <__rc5>
    3261: aa           	tax
    3262: 98           	tya
    3263: 65 14        	adc	$14                     ; 0x14 <__rc4>
    3265: 90 03        	bcc	$326a <malloc+0x4a>
    3267: 4c 38 33     	jmp	$3338 <malloc+0x118>
    326a: 86 14        	stx	$14                     ; 0x14 <__rc4>
    326c: 86 40        	stx	$40                     ; 0x40 <__rc31+0x11>
    326e: aa           	tax
    326f: d0 07        	bne	$3278 <malloc+0x58>
    3271: a6 14        	ldx	$14                     ; 0x14 <__rc4>
    3273: d0 03        	bne	$3278 <malloc+0x58>
    3275: 4c 38 33     	jmp	$3338 <malloc+0x118>
    3278: 85 3f        	sta	$3f                     ; 0x3f <__rc31+0x10>
    327a: ad 60 35     	lda	$3560                   ; 0x3560 <_ZN12_GLOBAL__N_111initializedE>
    327d: 29 01        	and	#$1
    327f: d0 3d        	bne	$32be <malloc+0x9e>
    3281: a9 00        	lda	#$0
    3283: a2 10        	ldx	#$10
    3285: a0 66        	ldy	#$66
    3287: 84 14        	sty	$14                     ; 0x14 <__rc4>
    3289: a0 35        	ldy	#$35
    328b: 84 15        	sty	$15                     ; 0x15 <__rc5>
    328d: a4 12        	ldy	$12                     ; 0x12 <__rc2>
    328f: 84 41        	sty	$41                     ; 0x41 <__rc31+0x12>
    3291: a4 13        	ldy	$13                     ; 0x13 <__rc3>
    3293: 84 42        	sty	$42                     ; 0x42 <__rc31+0x13>
    3295: a0 66        	ldy	#$66
    3297: 84 12        	sty	$12                     ; 0x12 <__rc2>
    3299: a0 35        	ldy	#$35
    329b: 84 13        	sty	$13                     ; 0x13 <__rc3>
    329d: 20 16 03     	jsr	$316 <_ZN12_GLOBAL__N_19FreeChunk6insertEPvj>
    32a0: a6 41        	ldx	$41                     ; 0x41 <__rc31+0x12>
    32a2: 86 12        	stx	$12                     ; 0x12 <__rc2>
    32a4: a6 42        	ldx	$42                     ; 0x42 <__rc31+0x13>
    32a6: 86 13        	stx	$13                     ; 0x13 <__rc3>
    32a8: ae 67 35     	ldx	$3567                   ; 0x3567 <end_block9+0x1>
    32ab: a9 fe        	lda	#$fe
    32ad: 2d 66 35     	and	$3566                   ; 0x3566 <end_block9>
    32b0: 8d 66 35     	sta	$3566                   ; 0x3566 <end_block9>
    32b3: 8e 67 35     	stx	$3567                   ; 0x3567 <end_block9+0x1>
    32b6: a2 01        	ldx	#$1
    32b8: 8e 61 35     	stx	$3561                   ; 0x3561 <_ZN12_GLOBAL__N_19last_freeE>
    32bb: 8e 60 35     	stx	$3560                   ; 0x3560 <_ZN12_GLOBAL__N_111initializedE>
    32be: ae 64 35     	ldx	$3564                   ; 0x3564 <_ZN12_GLOBAL__N_19free_listE>
    32c1: 86 16        	stx	$16                     ; 0x16 <__rc6>
    32c3: ac 65 35     	ldy	$3565                   ; 0x3565 <_ZN12_GLOBAL__N_19free_listE+0x1>
    32c6: 84 17        	sty	$17                     ; 0x17 <__rc7>
    32c8: a9 00        	lda	#$0
    32ca: 85 14        	sta	$14                     ; 0x14 <__rc4>
    32cc: a9 00        	lda	#$0
    32ce: 85 15        	sta	$15                     ; 0x15 <__rc5>
    32d0: c4 15        	cpy	$15                     ; 0x15 <__rc5>
    32d2: d0 07        	bne	$32db <malloc+0xbb>
    32d4: e4 14        	cpx	$14                     ; 0x14 <__rc4>
    32d6: d0 03        	bne	$32db <malloc+0xbb>
    32d8: 4c 38 33     	jmp	$3338 <malloc+0x118>
    32db: a2 00        	ldx	#$0
    32dd: a0 10        	ldy	#$10
    32df: 86 14        	stx	$14                     ; 0x14 <__rc4>
    32e1: 84 15        	sty	$15                     ; 0x15 <__rc5>
    32e3: 18           	clc
    32e4: a9 66        	lda	#$66
    32e6: 65 14        	adc	$14                     ; 0x14 <__rc4>
    32e8: 85 18        	sta	$18                     ; 0x18 <__rc8>
    32ea: a9 35        	lda	#$35
    32ec: 65 15        	adc	$15                     ; 0x15 <__rc5>
    32ee: 85 43        	sta	$43                     ; 0x43 <__rc31+0x14>
    32f0: a0 01        	ldy	#$1
    32f2: a6 3f        	ldx	$3f                     ; 0x3f <__rc31+0x10>
    32f4: 86 19        	stx	$19                     ; 0x19 <__rc9>
    32f6: a6 16        	ldx	$16                     ; 0x16 <__rc6>
    32f8: 86 14        	stx	$14                     ; 0x14 <__rc4>
    32fa: a6 17        	ldx	$17                     ; 0x17 <__rc7>
    32fc: 86 15        	stx	$15                     ; 0x15 <__rc5>
    32fe: b1 14        	lda	($14),y                 ; 0x14 <__rc4>
    3300: c5 19        	cmp	$19                     ; 0x19 <__rc9>
    3302: d0 0e        	bne	$3312 <malloc+0xf2>
    3304: b2 14        	lda	($14)                   ; 0x14 <__rc4>
    3306: 29 fe        	and	#$fe
    3308: a6 40        	ldx	$40                     ; 0x40 <__rc31+0x11>
    330a: 86 1a        	stx	$1a                     ; 0x1a <__rc10>
    330c: c5 1a        	cmp	$1a                     ; 0x1a <__rc10>
    330e: b0 29        	bcs	$3339 <malloc+0x119>
    3310: 80 04        	bra	$3316 <malloc+0xf6>
    3312: c5 19        	cmp	$19                     ; 0x19 <__rc9>
    3314: b0 23        	bcs	$3339 <malloc+0x119>
    3316: a5 14        	lda	$14                     ; 0x14 <__rc4>
    3318: 18           	clc
    3319: 69 02        	adc	#$2
    331b: 85 1a        	sta	$1a                     ; 0x1a <__rc10>
    331d: a5 15        	lda	$15                     ; 0x15 <__rc5>
    331f: 69 00        	adc	#$0
    3321: 85 1b        	sta	$1b                     ; 0x1b <__rc11>
    3323: a0 02        	ldy	#$2
    3325: b1 14        	lda	($14),y                 ; 0x14 <__rc4>
    3327: 85 14        	sta	$14                     ; 0x14 <__rc4>
    3329: 88           	dey
    332a: b1 1a        	lda	($1a),y                 ; 0x1a <__rc10>
    332c: 85 15        	sta	$15                     ; 0x15 <__rc5>
    332e: c5 17        	cmp	$17                     ; 0x17 <__rc7>
    3330: d0 cc        	bne	$32fe <malloc+0xde>
    3332: a5 14        	lda	$14                     ; 0x14 <__rc4>
    3334: c5 16        	cmp	$16                     ; 0x16 <__rc6>
    3336: d0 c6        	bne	$32fe <malloc+0xde>
    3338: 60           	rts
    3339: a6 18        	ldx	$18                     ; 0x18 <__rc8>
    333b: 86 44        	stx	$44                     ; 0x44 <__rc31+0x15>
    333d: a6 14        	ldx	$14                     ; 0x14 <__rc4>
    333f: 86 12        	stx	$12                     ; 0x12 <__rc2>
    3341: a6 15        	ldx	$15                     ; 0x15 <__rc5>
    3343: 86 13        	stx	$13                     ; 0x13 <__rc3>
    3345: a6 14        	ldx	$14                     ; 0x14 <__rc4>
    3347: 86 41        	stx	$41                     ; 0x41 <__rc31+0x12>
    3349: a6 15        	ldx	$15                     ; 0x15 <__rc5>
    334b: 86 42        	stx	$42                     ; 0x42 <__rc31+0x13>
    334d: 20 6a 04     	jsr	$46a <_ZN12_GLOBAL__N_19FreeChunk6removeEv>
    3350: a6 41        	ldx	$41                     ; 0x41 <__rc31+0x12>
    3352: 86 12        	stx	$12                     ; 0x12 <__rc2>
    3354: a6 42        	ldx	$42                     ; 0x42 <__rc31+0x13>
    3356: 86 13        	stx	$13                     ; 0x13 <__rc3>
    3358: a0 01        	ldy	#$1
    335a: b1 12        	lda	($12),y                 ; 0x12 <__rc2>
    335c: 85 15        	sta	$15                     ; 0x15 <__rc5>
    335e: a9 fe        	lda	#$fe
    3360: 32 12        	and	($12)                   ; 0x12 <__rc2>
    3362: 38           	sec
    3363: a6 40        	ldx	$40                     ; 0x40 <__rc31+0x11>
    3365: 86 14        	stx	$14                     ; 0x14 <__rc4>
    3367: 85 17        	sta	$17                     ; 0x17 <__rc7>
    3369: e5 14        	sbc	$14                     ; 0x14 <__rc4>
    336b: a8           	tay
    336c: a6 3f        	ldx	$3f                     ; 0x3f <__rc31+0x10>
    336e: 86 14        	stx	$14                     ; 0x14 <__rc4>
    3370: a5 15        	lda	$15                     ; 0x15 <__rc5>
    3372: 85 16        	sta	$16                     ; 0x16 <__rc6>
    3374: e5 14        	sbc	$14                     ; 0x14 <__rc4>
    3376: d0 06        	bne	$337e <malloc+0x15e>
    3378: 85 18        	sta	$18                     ; 0x18 <__rc8>
    337a: c0 08        	cpy	#$8
    337c: 80 04        	bra	$3382 <malloc+0x162>
    337e: 85 18        	sta	$18                     ; 0x18 <__rc8>
    3380: c9 00        	cmp	#$0
    3382: a6 44        	ldx	$44                     ; 0x44 <__rc31+0x15>
    3384: 86 14        	stx	$14                     ; 0x14 <__rc4>
    3386: a6 43        	ldx	$43                     ; 0x43 <__rc31+0x14>
    3388: 86 15        	stx	$15                     ; 0x15 <__rc5>
    338a: a5 17        	lda	$17                     ; 0x17 <__rc7>
    338c: 90 43        	bcc	$33d1 <malloc+0x1b1>
    338e: 18           	clc
    338f: a6 40        	ldx	$40                     ; 0x40 <__rc31+0x11>
    3391: 86 40        	stx	$40                     ; 0x40 <__rc31+0x11>
    3393: 8a           	txa
    3394: 65 12        	adc	$12                     ; 0x12 <__rc2>
    3396: 85 12        	sta	$12                     ; 0x12 <__rc2>
    3398: a6 3f        	ldx	$3f                     ; 0x3f <__rc31+0x10>
    339a: 86 3f        	stx	$3f                     ; 0x3f <__rc31+0x10>
    339c: a5 3f        	lda	$3f                     ; 0x3f <__rc31+0x10>
    339e: 65 13        	adc	$13                     ; 0x13 <__rc3>
    33a0: 85 13        	sta	$13                     ; 0x13 <__rc3>
    33a2: a6 18        	ldx	$18                     ; 0x18 <__rc8>
    33a4: 98           	tya
    33a5: 20 16 03     	jsr	$316 <_ZN12_GLOBAL__N_19FreeChunk6insertEPvj>
    33a8: a6 41        	ldx	$41                     ; 0x41 <__rc31+0x12>
    33aa: 86 12        	stx	$12                     ; 0x12 <__rc2>
    33ac: a6 42        	ldx	$42                     ; 0x42 <__rc31+0x13>
    33ae: 86 13        	stx	$13                     ; 0x13 <__rc3>
    33b0: a5 40        	lda	$40                     ; 0x40 <__rc31+0x11>
    33b2: 29 fe        	and	#$fe
    33b4: 85 14        	sta	$14                     ; 0x14 <__rc4>
    33b6: a0 01        	ldy	#$1
    33b8: 98           	tya
    33b9: 32 12        	and	($12)                   ; 0x12 <__rc2>
    33bb: 05 14        	ora	$14                     ; 0x14 <__rc4>
    33bd: 92 12        	sta	($12)                   ; 0x12 <__rc2>
    33bf: a5 3f        	lda	$3f                     ; 0x3f <__rc31+0x10>
    33c1: 91 12        	sta	($12),y                 ; 0x12 <__rc2>
    33c3: a5 14        	lda	$14                     ; 0x14 <__rc4>
    33c5: a6 3f        	ldx	$3f                     ; 0x3f <__rc31+0x10>
    33c7: 86 16        	stx	$16                     ; 0x16 <__rc6>
    33c9: a6 44        	ldx	$44                     ; 0x44 <__rc31+0x15>
    33cb: 86 14        	stx	$14                     ; 0x14 <__rc4>
    33cd: a6 43        	ldx	$43                     ; 0x43 <__rc31+0x14>
    33cf: 86 15        	stx	$15                     ; 0x15 <__rc5>
    33d1: 18           	clc
    33d2: 65 12        	adc	$12                     ; 0x12 <__rc2>
    33d4: a8           	tay
    33d5: a5 16        	lda	$16                     ; 0x16 <__rc6>
    33d7: 65 13        	adc	$13                     ; 0x13 <__rc3>
    33d9: c5 15        	cmp	$15                     ; 0x15 <__rc5>
    33db: d0 09        	bne	$33e6 <malloc+0x1c6>
    33dd: c4 14        	cpy	$14                     ; 0x14 <__rc4>
    33df: d0 05        	bne	$33e6 <malloc+0x1c6>
    33e1: 9c 61 35     	stz	$3561                   ; 0x3561 <_ZN12_GLOBAL__N_19last_freeE>
    33e4: 80 14        	bra	$33fa <malloc+0x1da>
    33e6: 84 14        	sty	$14                     ; 0x14 <__rc4>
    33e8: 85 15        	sta	$15                     ; 0x15 <__rc5>
    33ea: a0 01        	ldy	#$1
    33ec: b1 14        	lda	($14),y                 ; 0x14 <__rc4>
    33ee: 85 16        	sta	$16                     ; 0x16 <__rc6>
    33f0: a9 fe        	lda	#$fe
    33f2: 32 14        	and	($14)                   ; 0x14 <__rc4>
    33f4: 92 14        	sta	($14)                   ; 0x14 <__rc4>
    33f6: a5 16        	lda	$16                     ; 0x16 <__rc6>
    33f8: 91 14        	sta	($14),y                 ; 0x14 <__rc4>
    33fa: a5 12        	lda	$12                     ; 0x12 <__rc2>
    33fc: 18           	clc
    33fd: 69 02        	adc	#$2
    33ff: 85 12        	sta	$12                     ; 0x12 <__rc2>
    3401: a5 13        	lda	$13                     ; 0x13 <__rc3>
    3403: 69 00        	adc	#$0
    3405: 85 13        	sta	$13                     ; 0x13 <__rc3>
    3407: 60           	rts

00003408 <memcpy>:
    3408: a8           	tay
    3409: 8a           	txa
    340a: d0 03        	bne	$340f <memcpy+0x7>
    340c: 98           	tya
    340d: f0 24        	beq	$3433 <memcpy+0x2b>
    340f: a5 12        	lda	$12                     ; 0x12 <__rc2>
    3411: 85 16        	sta	$16                     ; 0x16 <__rc6>
    3413: a5 13        	lda	$13                     ; 0x13 <__rc3>
    3415: 85 17        	sta	$17                     ; 0x17 <__rc7>
    3417: b2 14        	lda	($14)                   ; 0x14 <__rc4>
    3419: 92 16        	sta	($16)                   ; 0x16 <__rc6>
    341b: e6 16        	inc	$16                     ; 0x16 <__rc6>
    341d: d0 02        	bne	$3421 <memcpy+0x19>
    341f: e6 17        	inc	$17                     ; 0x17 <__rc7>
    3421: e6 14        	inc	$14                     ; 0x14 <__rc4>
    3423: d0 02        	bne	$3427 <memcpy+0x1f>
    3425: e6 15        	inc	$15                     ; 0x15 <__rc5>
    3427: 88           	dey
    3428: c0 ff        	cpy	#$ff
    342a: d0 01        	bne	$342d <memcpy+0x25>
    342c: ca           	dex
    342d: 8a           	txa
    342e: d0 e7        	bne	$3417 <memcpy+0xf>
    3430: 98           	tya
    3431: d0 e4        	bne	$3417 <memcpy+0xf>
    3433: 60           	rts

00003434 <__memset>:
    3434: a4 14        	ldy	$14                     ; 0x14 <__rc4>
    3436: d0 04        	bne	$343c <__memset+0x8>
    3438: e0 00        	cpx	#$0
    343a: f0 17        	beq	$3453 <__memset+0x1f>
    343c: 92 12        	sta	($12)                   ; 0x12 <__rc2>
    343e: e6 12        	inc	$12                     ; 0x12 <__rc2>
    3440: d0 02        	bne	$3444 <__memset+0x10>
    3442: e6 13        	inc	$13                     ; 0x13 <__rc3>
    3444: ca           	dex
    3445: e0 ff        	cpx	#$ff
    3447: d0 02        	bne	$344b <__memset+0x17>
    3449: c6 14        	dec	$14                     ; 0x14 <__rc4>
    344b: a4 14        	ldy	$14                     ; 0x14 <__rc4>
    344d: d0 ed        	bne	$343c <__memset+0x8>
    344f: e0 00        	cpx	#$0
    3451: d0 e9        	bne	$343c <__memset+0x8>
    3453: 60           	rts
