
badapple.elf:	file format elf32-mos

SYMBOL TABLE:
00000000 l    df *ABS*	00000000 zero-bss.c
00000000 l    df *ABS*	00000000 zero-zp-bss.c
00000000 l    df *ABS*	00000000 ld-temp.o
00000035 l     O .zp.bss	00000007 kernelEventData
00002ca0 l     O .rodata	00000030 textColors
00000030 l     O .zp.bss	00000001 _col
00000031 l     O .zp.bss	00000001 _row
00002d32 l     O .bss	00000004 _BITMAP_BASE.0
00002d36 l     O .bss	00000004 _BITMAP_BASE.1
00002d3a l     O .bss	00000004 _BITMAP_BASE.2
00000034 l     O .zp.bss	00000001 kernelError
000017cc l     F .text	00000380 fileOpen
00001e59 l     F .text	00000bd9 printf
00001b4c l     F .text	00000129 fileRead
00002d40 l     O .bss	00000002 _ZN12_GLOBAL__N_19free_sizeE
00002d42 l     O .bss	00000002 _ZN12_GLOBAL__N_19free_listE
00002d3f l     O .bss	00000001 _ZN12_GLOBAL__N_19last_freeE
00002d3e l     O .bss	00000001 _ZN12_GLOBAL__N_111initializedE
00000454 l     F .text	000000df _ZN12_GLOBAL__N_19FreeChunk6removeEv
00000316 l     F .text	0000013d _ZN12_GLOBAL__N_19FreeChunk6insertEPvj
00001c7a l     F .text	000000d3 _ZN12_GLOBAL__N_13putEcP6Status
00002a32 l     F .text	000001e7 putchar
00001d4d l     F .text	0000010c _ZN12_GLOBAL__N_112print_stringEPKcP6Status
00000032 l     O .zp.bss	00000002 __putchar.s
00000559 g     F .text	00001273 main
00000311 g       .text	00000000 __after_main
00000300 g       .text	00000000 __do_init_stack
00000308 g       .text	00000000 __do_zero_bss
00000533 g     F .text	00000013 __zero_bss
0000030b g       .text	00000000 __do_zero_zp_bss
00000546 g     F .text	00000013 __zero_zp_bss
00001c75 g     F .text	00000005 exit
00000314 g       .text	00000000 _fini
00002c65 g       .rodata	00000000 __set_v
00002c45  w    F .text	00000020 __memset
00001000  w      *ABS*	00000000 __heap_default_limit
00002d44 g       .noinit	00000000 __heap_start
00002c19  w    F .text	0000002c memcpy
00000010 g       *ABS*	00000000 __rc0
00000012 g       *ABS*	00000000 __rc2
00000014 g       *ABS*	00000000 __rc4
00000016 g       *ABS*	00000000 __rc6
00000018 g       *ABS*	00000000 __rc8
0000001a g       *ABS*	00000000 __rc10
0000001c g       *ABS*	00000000 __rc12
0000001e g       *ABS*	00000000 __rc14
00000020 g       *ABS*	00000000 __rc16
00000022 g       *ABS*	00000000 __rc18
00000024 g       *ABS*	00000000 __rc20
00000026 g       *ABS*	00000000 __rc22
00000028 g       *ABS*	00000000 __rc24
0000002a g       *ABS*	00000000 __rc26
0000002c g       *ABS*	00000000 __rc28
0000002e g       *ABS*	00000000 __rc30
0000002f g       *ABS*	00000000 __rc31
00000300 g       *ABS*	00000000 __f256_start
0000c000 g       *ABS*	00000000 __stack
0000c000 g       *ABS*	00000000 __SLOT_ADDR
0800c000 g       *ABS*	00000000 __block8_lma
00002000 g       *ABS*	00000000 __BLOCK_SIZE
0900c000 g       *ABS*	00000000 __block9_lma
0a00c000 g       *ABS*	00000000 __block10_lma
0b00c000 g       *ABS*	00000000 __block11_lma
0c00c000 g       *ABS*	00000000 __block12_lma
0d00c000 g       *ABS*	00000000 __block13_lma
0e00c000 g       *ABS*	00000000 __block14_lma
0f00c000 g       *ABS*	00000000 __block15_lma
1000c000 g       *ABS*	00000000 __block16_lma
1100c000 g       *ABS*	00000000 __block17_lma
1200c000 g       *ABS*	00000000 __block18_lma
1300c000 g       *ABS*	00000000 __block19_lma
1400c000 g       *ABS*	00000000 __block20_lma
1500c000 g       *ABS*	00000000 __block21_lma
1600c000 g       *ABS*	00000000 __block22_lma
1700c000 g       *ABS*	00000000 __block23_lma
00002d32 g       .bss	00000000 __bss_start
00000300 g       .text	00000000 _start
0000002d g       *ABS*	00000000 __rc29
0000002b g       *ABS*	00000000 __rc27
00000029 g       *ABS*	00000000 __rc25
00000027 g       *ABS*	00000000 __rc23
00000025 g       *ABS*	00000000 __rc21
00000023 g       *ABS*	00000000 __rc19
00000021 g       *ABS*	00000000 __rc17
0000001f g       *ABS*	00000000 __rc15
0000001d g       *ABS*	00000000 __rc13
0000001b g       *ABS*	00000000 __rc11
00000019 g       *ABS*	00000000 __rc9
00000017 g       *ABS*	00000000 __rc7
00000015 g       *ABS*	00000000 __rc5
00000013 g       *ABS*	00000000 __rc3
00000011 g       *ABS*	00000000 __rc1
00000030 g       .zp.data	00000000 __zp_data_start
00000300 g       *ABS*	00000000 __zp_data_load_start
00000000 g       *ABS*	00000000 __zp_data_size
00000030 g       .zp.bss	00000000 __zp_bss_start
0000000c g       *ABS*	00000000 __zp_bss_size
00000300 g       .text	00000000 _init
00002c65 g       .text	00000000 __init_array_start
00002c65 g       .text	00000000 __init_array_end
00002c65 g       .text	00000000 __fini_array_start
00002c65 g       .text	00000000 __fini_array_end
00002d32 g       .data	00000000 __data_start
00002d32 g       .data	00000000 __data_end
00002d32 g       *ABS*	00000000 __data_load_start
00000000 g       *ABS*	00000000 __data_size
00002d44 g       .bss	00000000 __bss_end
00000012 g       *ABS*	00000000 __bss_size
00002d44 g       .noinit	00000000 end_block8
00002d44 g       .noinit	00000000 end_block9
00002d44 g       .noinit	00000000 end_block10
00002d44 g       .noinit	00000000 end_block11
00002d44 g       .noinit	00000000 end_block12
00002d44 g       .noinit	00000000 end_block13
00002d44 g       .noinit	00000000 end_block14
00002d44 g       .noinit	00000000 end_block15
00002d44 g       .noinit	00000000 end_block16
00002d44 g       .noinit	00000000 end_block17
00002d44 g       .noinit	00000000 end_block18
00002d44 g       .noinit	00000000 end_block19
00002d44 g       .noinit	00000000 end_block20
00002d44 g       .noinit	00000000 end_block21
00002d44 g       .noinit	00000000 end_block22
00002d44 g       .noinit	00000000 end_block23

Disassembly of section .text:

00000300 <_start>:
     300: a9 00        	lda	#$0
     302: 85 10        	sta	$10                     ; 0x10 <__rc0>
     304: a9 c0        	lda	#$c0
     306: 85 11        	sta	$11                     ; 0x11 <__rc1>

00000308 <__do_zero_bss>:
     308: 20 33 05     	jsr	$533 <__zero_bss>

0000030b <__do_zero_zp_bss>:
     30b: 20 46 05     	jsr	$546 <__zero_zp_bss>
     30e: 20 59 05     	jsr	$559 <main>

00000311 <__after_main>:
     311: 4c 75 1c     	jmp	$1c75 <exit>

00000314 <_fini>:
     314: 60           	rts
     315: 00           	brk

00000316 <_ZN12_GLOBAL__N_19FreeChunk6insertEPvj>:
     316: 85 16        	sta	$16                     ; 0x16 <__rc6>
     318: 29 fe        	and	#$fe
     31a: 85 14        	sta	$14                     ; 0x14 <__rc4>
     31c: a0 01        	ldy	#$1
     31e: 98           	tya
     31f: 32 12        	and	($12)                   ; 0x12 <__rc2>
     321: 05 14        	ora	$14                     ; 0x14 <__rc4>
     323: 92 12        	sta	($12)                   ; 0x12 <__rc2>
     325: a5 12        	lda	$12                     ; 0x12 <__rc2>
     327: 18           	clc
     328: 65 14        	adc	$14                     ; 0x14 <__rc4>
     32a: 85 15        	sta	$15                     ; 0x15 <__rc5>
     32c: 8a           	txa
     32d: 65 13        	adc	$13                     ; 0x13 <__rc3>
     32f: 85 14        	sta	$14                     ; 0x14 <__rc4>
     331: 18           	clc
     332: a5 15        	lda	$15                     ; 0x15 <__rc5>
     334: 69 fe        	adc	#$fe
     336: 85 17        	sta	$17                     ; 0x17 <__rc7>
     338: a5 14        	lda	$14                     ; 0x14 <__rc4>
     33a: 69 ff        	adc	#$ff
     33c: 85 15        	sta	$15                     ; 0x15 <__rc5>
     33e: a5 17        	lda	$17                     ; 0x17 <__rc7>
     340: 85 14        	sta	$14                     ; 0x14 <__rc4>
     342: 8a           	txa
     343: 91 12        	sta	($12),y                 ; 0x12 <__rc2>
     345: a5 16        	lda	$16                     ; 0x16 <__rc6>
     347: 92 14        	sta	($14)                   ; 0x14 <__rc4>
     349: 8a           	txa
     34a: 91 14        	sta	($14),y                 ; 0x14 <__rc4>
     34c: b1 12        	lda	($12),y                 ; 0x12 <__rc2>
     34e: 85 14        	sta	$14                     ; 0x14 <__rc4>
     350: a9 fe        	lda	#$fe
     352: 32 12        	and	($12)                   ; 0x12 <__rc2>
     354: 18           	clc
     355: 6d 40 2d     	adc	$2d40                   ; 0x2d40 <_ZN12_GLOBAL__N_19free_sizeE>
     358: aa           	tax
     359: a5 14        	lda	$14                     ; 0x14 <__rc4>
     35b: 6d 41 2d     	adc	$2d41                   ; 0x2d41 <_ZN12_GLOBAL__N_19free_sizeE+0x1>
     35e: a8           	tay
     35f: 18           	clc
     360: 8a           	txa
     361: 69 fe        	adc	#$fe
     363: aa           	tax
     364: 98           	tya
     365: 69 ff        	adc	#$ff
     367: 8e 40 2d     	stx	$2d40                   ; 0x2d40 <_ZN12_GLOBAL__N_19free_sizeE>
     36a: 8d 41 2d     	sta	$2d41                   ; 0x2d41 <_ZN12_GLOBAL__N_19free_sizeE+0x1>
     36d: ae 42 2d     	ldx	$2d42                   ; 0x2d42 <_ZN12_GLOBAL__N_19free_listE>
     370: 86 16        	stx	$16                     ; 0x16 <__rc6>
     372: ac 43 2d     	ldy	$2d43                   ; 0x2d43 <_ZN12_GLOBAL__N_19free_listE+0x1>
     375: a2 00        	ldx	#$0
     377: 86 14        	stx	$14                     ; 0x14 <__rc4>
     379: a2 00        	ldx	#$0
     37b: 86 15        	stx	$15                     ; 0x15 <__rc5>
     37d: c4 15        	cpy	$15                     ; 0x15 <__rc5>
     37f: d0 3e        	bne	$3bf <_ZN12_GLOBAL__N_19FreeChunk6insertEPvj+0xa9>
     381: a6 16        	ldx	$16                     ; 0x16 <__rc6>
     383: e4 14        	cpx	$14                     ; 0x14 <__rc4>
     385: d0 38        	bne	$3bf <_ZN12_GLOBAL__N_19FreeChunk6insertEPvj+0xa9>
     387: a0 04        	ldy	#$4
     389: a5 12        	lda	$12                     ; 0x12 <__rc2>
     38b: 18           	clc
     38c: 69 04        	adc	#$4
     38e: 85 14        	sta	$14                     ; 0x14 <__rc4>
     390: a5 13        	lda	$13                     ; 0x13 <__rc3>
     392: 69 00        	adc	#$0
     394: 18           	clc
     395: 85 15        	sta	$15                     ; 0x15 <__rc5>
     397: a5 12        	lda	$12                     ; 0x12 <__rc2>
     399: 91 12        	sta	($12),y                 ; 0x12 <__rc2>
     39b: a0 02        	ldy	#$2
     39d: 85 17        	sta	$17                     ; 0x17 <__rc7>
     39f: 69 02        	adc	#$2
     3a1: 85 16        	sta	$16                     ; 0x16 <__rc6>
     3a3: a5 17        	lda	$17                     ; 0x17 <__rc7>
     3a5: 91 12        	sta	($12),y                 ; 0x12 <__rc2>
     3a7: a5 13        	lda	$13                     ; 0x13 <__rc3>
     3a9: 69 00        	adc	#$0
     3ab: 85 17        	sta	$17                     ; 0x17 <__rc7>
     3ad: 88           	dey
     3ae: a5 13        	lda	$13                     ; 0x13 <__rc3>
     3b0: 91 14        	sta	($14),y                 ; 0x14 <__rc4>
     3b2: 91 16        	sta	($16),y                 ; 0x16 <__rc6>
     3b4: a6 12        	ldx	$12                     ; 0x12 <__rc2>
     3b6: 8e 42 2d     	stx	$2d42                   ; 0x2d42 <_ZN12_GLOBAL__N_19free_listE>
     3b9: a6 13        	ldx	$13                     ; 0x13 <__rc3>
     3bb: 8e 43 2d     	stx	$2d43                   ; 0x2d43 <_ZN12_GLOBAL__N_19free_listE+0x1>
     3be: 60           	rts
     3bf: a6 12        	ldx	$12                     ; 0x12 <__rc2>
     3c1: a5 12        	lda	$12                     ; 0x12 <__rc2>
     3c3: 18           	clc
     3c4: 69 02        	adc	#$2
     3c6: 85 14        	sta	$14                     ; 0x14 <__rc4>
     3c8: 84 18        	sty	$18                     ; 0x18 <__rc8>
     3ca: a5 13        	lda	$13                     ; 0x13 <__rc3>
     3cc: 69 00        	adc	#$0
     3ce: 85 15        	sta	$15                     ; 0x15 <__rc5>
     3d0: a5 16        	lda	$16                     ; 0x16 <__rc6>
     3d2: 84 17        	sty	$17                     ; 0x17 <__rc7>
     3d4: a0 02        	ldy	#$2
     3d6: 91 12        	sta	($12),y                 ; 0x12 <__rc2>
     3d8: 85 19        	sta	$19                     ; 0x19 <__rc9>
     3da: 88           	dey
     3db: a5 18        	lda	$18                     ; 0x18 <__rc8>
     3dd: 91 14        	sta	($14),y                 ; 0x14 <__rc4>
     3df: 18           	clc
     3e0: a5 19        	lda	$19                     ; 0x19 <__rc9>
     3e2: 69 04        	adc	#$4
     3e4: a8           	tay
     3e5: a5 18        	lda	$18                     ; 0x18 <__rc8>
     3e7: 69 00        	adc	#$0
     3e9: 85 19        	sta	$19                     ; 0x19 <__rc9>
     3eb: 84 18        	sty	$18                     ; 0x18 <__rc8>
     3ed: 8a           	txa
     3ee: 18           	clc
     3ef: 69 04        	adc	#$4
     3f1: 85 1a        	sta	$1a                     ; 0x1a <__rc10>
     3f3: a5 13        	lda	$13                     ; 0x13 <__rc3>
     3f5: 69 00        	adc	#$0
     3f7: 85 1b        	sta	$1b                     ; 0x1b <__rc11>
     3f9: a0 04        	ldy	#$4
     3fb: b1 16        	lda	($16),y                 ; 0x16 <__rc6>
     3fd: 85 16        	sta	$16                     ; 0x16 <__rc6>
     3ff: 85 1d        	sta	$1d                     ; 0x1d <__rc13>
     401: a0 01        	ldy	#$1
     403: b1 18        	lda	($18),y                 ; 0x18 <__rc8>
     405: 85 17        	sta	$17                     ; 0x17 <__rc7>
     407: 85 19        	sta	$19                     ; 0x19 <__rc9>
     409: a0 04        	ldy	#$4
     40b: a5 1d        	lda	$1d                     ; 0x1d <__rc13>
     40d: 91 12        	sta	($12),y                 ; 0x12 <__rc2>
     40f: a5 19        	lda	$19                     ; 0x19 <__rc9>
     411: a0 01        	ldy	#$1
     413: 91 1a        	sta	($1a),y                 ; 0x1a <__rc10>
     415: 18           	clc
     416: a5 1d        	lda	$1d                     ; 0x1d <__rc13>
     418: 69 02        	adc	#$2
     41a: 85 18        	sta	$18                     ; 0x18 <__rc8>
     41c: a5 19        	lda	$19                     ; 0x19 <__rc9>
     41e: 69 00        	adc	#$0
     420: 85 19        	sta	$19                     ; 0x19 <__rc9>
     422: 8a           	txa
     423: c8           	iny
     424: 91 16        	sta	($16),y                 ; 0x16 <__rc6>
     426: a5 13        	lda	$13                     ; 0x13 <__rc3>
     428: 88           	dey
     429: 91 18        	sta	($18),y                 ; 0x18 <__rc8>
     42b: c8           	iny
     42c: b1 12        	lda	($12),y                 ; 0x12 <__rc2>
     42e: 85 16        	sta	$16                     ; 0x16 <__rc6>
     430: 85 18        	sta	$18                     ; 0x18 <__rc8>
     432: 88           	dey
     433: b1 14        	lda	($14),y                 ; 0x14 <__rc4>
     435: 85 17        	sta	$17                     ; 0x17 <__rc7>
     437: 85 14        	sta	$14                     ; 0x14 <__rc4>
     439: 8a           	txa
     43a: a0 04        	ldy	#$4
     43c: 91 16        	sta	($16),y                 ; 0x16 <__rc6>
     43e: 18           	clc
     43f: a5 18        	lda	$18                     ; 0x18 <__rc8>
     441: 69 04        	adc	#$4
     443: a8           	tay
     444: a5 14        	lda	$14                     ; 0x14 <__rc4>
     446: 69 00        	adc	#$0
     448: 84 14        	sty	$14                     ; 0x14 <__rc4>
     44a: 85 15        	sta	$15                     ; 0x15 <__rc5>
     44c: a5 13        	lda	$13                     ; 0x13 <__rc3>
     44e: a0 01        	ldy	#$1
     450: 91 14        	sta	($14),y                 ; 0x14 <__rc4>
     452: 60           	rts
     453: 00           	brk

00000454 <_ZN12_GLOBAL__N_19FreeChunk6removeEv>:
     454: a0 01        	ldy	#$1
     456: a9 fe        	lda	#$fe
     458: 32 12        	and	($12)                   ; 0x12 <__rc2>
     45a: 85 14        	sta	$14                     ; 0x14 <__rc4>
     45c: ad 40 2d     	lda	$2d40                   ; 0x2d40 <_ZN12_GLOBAL__N_19free_sizeE>
     45f: ae 41 2d     	ldx	$2d41                   ; 0x2d41 <_ZN12_GLOBAL__N_19free_sizeE+0x1>
     462: 86 15        	stx	$15                     ; 0x15 <__rc5>
     464: 38           	sec
     465: e5 14        	sbc	$14                     ; 0x14 <__rc4>
     467: aa           	tax
     468: a5 15        	lda	$15                     ; 0x15 <__rc5>
     46a: f1 12        	sbc	($12),y                 ; 0x12 <__rc2>
     46c: 85 14        	sta	$14                     ; 0x14 <__rc4>
     46e: 18           	clc
     46f: 8a           	txa
     470: 69 02        	adc	#$2
     472: 85 15        	sta	$15                     ; 0x15 <__rc5>
     474: a5 14        	lda	$14                     ; 0x14 <__rc4>
     476: 69 00        	adc	#$0
     478: a6 15        	ldx	$15                     ; 0x15 <__rc5>
     47a: 8e 40 2d     	stx	$2d40                   ; 0x2d40 <_ZN12_GLOBAL__N_19free_sizeE>
     47d: 8d 41 2d     	sta	$2d41                   ; 0x2d41 <_ZN12_GLOBAL__N_19free_sizeE+0x1>
     480: a5 12        	lda	$12                     ; 0x12 <__rc2>
     482: 18           	clc
     483: 69 02        	adc	#$2
     485: 85 14        	sta	$14                     ; 0x14 <__rc4>
     487: a5 13        	lda	$13                     ; 0x13 <__rc3>
     489: 69 00        	adc	#$0
     48b: c8           	iny
     48c: 85 15        	sta	$15                     ; 0x15 <__rc5>
     48e: b1 12        	lda	($12),y                 ; 0x12 <__rc2>
     490: aa           	tax
     491: 88           	dey
     492: b1 14        	lda	($14),y                 ; 0x14 <__rc4>
     494: 85 19        	sta	$19                     ; 0x19 <__rc9>
     496: c5 13        	cmp	$13                     ; 0x13 <__rc3>
     498: d0 0f        	bne	$4a9 <_ZN12_GLOBAL__N_19FreeChunk6removeEv+0x55>
     49a: e4 12        	cpx	$12                     ; 0x12 <__rc2>
     49c: d0 0b        	bne	$4a9 <_ZN12_GLOBAL__N_19FreeChunk6removeEv+0x55>
     49e: a2 00        	ldx	#$0
     4a0: 86 14        	stx	$14                     ; 0x14 <__rc4>
     4a2: a2 00        	ldx	#$0
     4a4: 86 15        	stx	$15                     ; 0x15 <__rc5>
     4a6: 4c 28 05     	jmp	$528 <_ZN12_GLOBAL__N_19FreeChunk6removeEv+0xd4>
     4a9: 86 18        	stx	$18                     ; 0x18 <__rc8>
     4ab: a6 12        	ldx	$12                     ; 0x12 <__rc2>
     4ad: a5 12        	lda	$12                     ; 0x12 <__rc2>
     4af: 86 1b        	stx	$1b                     ; 0x1b <__rc11>
     4b1: 18           	clc
     4b2: 69 04        	adc	#$4
     4b4: 85 14        	sta	$14                     ; 0x14 <__rc4>
     4b6: a5 13        	lda	$13                     ; 0x13 <__rc3>
     4b8: 69 00        	adc	#$0
     4ba: a0 04        	ldy	#$4
     4bc: 85 15        	sta	$15                     ; 0x15 <__rc5>
     4be: b1 12        	lda	($12),y                 ; 0x12 <__rc2>
     4c0: 85 1c        	sta	$1c                     ; 0x1c <__rc12>
     4c2: 18           	clc
     4c3: 69 02        	adc	#$2
     4c5: 85 16        	sta	$16                     ; 0x16 <__rc6>
     4c7: a0 01        	ldy	#$1
     4c9: b1 14        	lda	($14),y                 ; 0x14 <__rc4>
     4cb: aa           	tax
     4cc: 69 00        	adc	#$0
     4ce: a4 16        	ldy	$16                     ; 0x16 <__rc6>
     4d0: 84 14        	sty	$14                     ; 0x14 <__rc4>
     4d2: 85 15        	sta	$15                     ; 0x15 <__rc5>
     4d4: a4 1c        	ldy	$1c                     ; 0x1c <__rc12>
     4d6: 84 16        	sty	$16                     ; 0x16 <__rc6>
     4d8: 86 17        	stx	$17                     ; 0x17 <__rc7>
     4da: a0 02        	ldy	#$2
     4dc: a5 18        	lda	$18                     ; 0x18 <__rc8>
     4de: 91 16        	sta	($16),y                 ; 0x16 <__rc6>
     4e0: a5 19        	lda	$19                     ; 0x19 <__rc9>
     4e2: 88           	dey
     4e3: 91 14        	sta	($14),y                 ; 0x14 <__rc4>
     4e5: 18           	clc
     4e6: a5 1b        	lda	$1b                     ; 0x1b <__rc11>
     4e8: 69 02        	adc	#$2
     4ea: 85 14        	sta	$14                     ; 0x14 <__rc4>
     4ec: a5 13        	lda	$13                     ; 0x13 <__rc3>
     4ee: 69 00        	adc	#$0
     4f0: 85 15        	sta	$15                     ; 0x15 <__rc5>
     4f2: c8           	iny
     4f3: b1 12        	lda	($12),y                 ; 0x12 <__rc2>
     4f5: 85 16        	sta	$16                     ; 0x16 <__rc6>
     4f7: 88           	dey
     4f8: b1 14        	lda	($14),y                 ; 0x14 <__rc4>
     4fa: a4 16        	ldy	$16                     ; 0x16 <__rc6>
     4fc: 84 14        	sty	$14                     ; 0x14 <__rc4>
     4fe: 85 15        	sta	$15                     ; 0x15 <__rc5>
     500: 85 17        	sta	$17                     ; 0x17 <__rc7>
     502: a0 04        	ldy	#$4
     504: a5 1c        	lda	$1c                     ; 0x1c <__rc12>
     506: 91 14        	sta	($14),y                 ; 0x14 <__rc4>
     508: 18           	clc
     509: a5 16        	lda	$16                     ; 0x16 <__rc6>
     50b: 69 04        	adc	#$4
     50d: 85 16        	sta	$16                     ; 0x16 <__rc6>
     50f: a5 17        	lda	$17                     ; 0x17 <__rc7>
     511: 69 00        	adc	#$0
     513: 85 17        	sta	$17                     ; 0x17 <__rc7>
     515: 8a           	txa
     516: a0 01        	ldy	#$1
     518: 91 16        	sta	($16),y                 ; 0x16 <__rc6>
     51a: ae 43 2d     	ldx	$2d43                   ; 0x2d43 <_ZN12_GLOBAL__N_19free_listE+0x1>
     51d: e4 13        	cpx	$13                     ; 0x13 <__rc3>
     51f: d0 11        	bne	$532 <_ZN12_GLOBAL__N_19FreeChunk6removeEv+0xde>
     521: ae 42 2d     	ldx	$2d42                   ; 0x2d42 <_ZN12_GLOBAL__N_19free_listE>
     524: e4 12        	cpx	$12                     ; 0x12 <__rc2>
     526: d0 0a        	bne	$532 <_ZN12_GLOBAL__N_19FreeChunk6removeEv+0xde>
     528: a6 14        	ldx	$14                     ; 0x14 <__rc4>
     52a: a4 15        	ldy	$15                     ; 0x15 <__rc5>
     52c: 8e 42 2d     	stx	$2d42                   ; 0x2d42 <_ZN12_GLOBAL__N_19free_listE>
     52f: 8c 43 2d     	sty	$2d43                   ; 0x2d43 <_ZN12_GLOBAL__N_19free_listE+0x1>
     532: 60           	rts

00000533 <__zero_bss>:
     533: a2 12        	ldx	#$12
     535: a0 00        	ldy	#$0
     537: a9 32        	lda	#$32
     539: 85 12        	sta	$12                     ; 0x12 <__rc2>
     53b: a9 2d        	lda	#$2d
     53d: 85 13        	sta	$13                     ; 0x13 <__rc3>
     53f: a9 00        	lda	#$0
     541: 84 14        	sty	$14                     ; 0x14 <__rc4>
     543: 4c 45 2c     	jmp	$2c45 <__memset>

00000546 <__zero_zp_bss>:
     546: a2 0c        	ldx	#$c
     548: a0 00        	ldy	#$0
     54a: a9 30        	lda	#$30
     54c: 85 12        	sta	$12                     ; 0x12 <__rc2>
     54e: a9 00        	lda	#$0
     550: 85 13        	sta	$13                     ; 0x13 <__rc3>
     552: a9 00        	lda	#$0
     554: 84 14        	sty	$14                     ; 0x14 <__rc4>
     556: 4c 45 2c     	jmp	$2c45 <__memset>

00000559 <main>:
     559: 18           	clc
     55a: a5 10        	lda	$10                     ; 0x10 <__rc0>
     55c: 69 69        	adc	#$69
     55e: 85 10        	sta	$10                     ; 0x10 <__rc0>
     560: a5 11        	lda	$11                     ; 0x11 <__rc1>
     562: 69 cc        	adc	#$cc
     564: 85 11        	sta	$11                     ; 0x11 <__rc1>
     566: a6 24        	ldx	$24                     ; 0x24 <__rc20>
     568: da           	phx
     569: a6 25        	ldx	$25                     ; 0x25 <__rc21>
     56b: da           	phx
     56c: a6 26        	ldx	$26                     ; 0x26 <__rc22>
     56e: da           	phx
     56f: a6 27        	ldx	$27                     ; 0x27 <__rc23>
     571: da           	phx
     572: a5 28        	lda	$28                     ; 0x28 <__rc24>
     574: a0 07        	ldy	#$7
     576: 91 10        	sta	($10),y                 ; 0x10 <__rc0>
     578: a5 29        	lda	$29                     ; 0x29 <__rc25>
     57a: 88           	dey
     57b: 91 10        	sta	($10),y                 ; 0x10 <__rc0>
     57d: a5 2a        	lda	$2a                     ; 0x2a <__rc26>
     57f: 88           	dey
     580: 91 10        	sta	($10),y                 ; 0x10 <__rc0>
     582: a5 2b        	lda	$2b                     ; 0x2b <__rc27>
     584: 88           	dey
     585: 91 10        	sta	($10),y                 ; 0x10 <__rc0>
     587: a5 2c        	lda	$2c                     ; 0x2c <__rc28>
     589: 88           	dey
     58a: 91 10        	sta	($10),y                 ; 0x10 <__rc0>
     58c: a5 2d        	lda	$2d                     ; 0x2d <__rc29>
     58e: 88           	dey
     58f: 91 10        	sta	($10),y                 ; 0x10 <__rc0>
     591: a5 2e        	lda	$2e                     ; 0x2e <__rc30>
     593: 88           	dey
     594: 91 10        	sta	($10),y                 ; 0x10 <__rc0>
     596: a5 2f        	lda	$2f                     ; 0x2f <__rc31>
     598: 88           	dey
     599: 91 10        	sta	($10),y                 ; 0x10 <__rc0>
     59b: a2 00        	ldx	#$0
     59d: 86 1a        	stx	$1a                     ; 0x1a <__rc10>
     59f: a2 d0        	ldx	#$d0
     5a1: 86 1b        	stx	$1b                     ; 0x1b <__rc11>
     5a3: a2 00        	ldx	#$0
     5a5: 86 16        	stx	$16                     ; 0x16 <__rc6>
     5a7: a2 d8        	ldx	#$d8
     5a9: 86 17        	stx	$17                     ; 0x17 <__rc7>
     5ab: a2 00        	ldx	#$0
     5ad: 86 12        	stx	$12                     ; 0x12 <__rc2>
     5af: a2 c0        	ldx	#$c0
     5b1: 86 13        	stx	$13                     ; 0x13 <__rc3>
     5b3: a2 00        	ldx	#$0
     5b5: a0 10        	ldy	#$10
     5b7: a9 44        	lda	#$44
     5b9: 86 14        	stx	$14                     ; 0x14 <__rc4>
     5bb: 84 15        	sty	$15                     ; 0x15 <__rc5>
     5bd: 18           	clc
     5be: 65 14        	adc	$14                     ; 0x14 <__rc4>
     5c0: 85 2b        	sta	$2b                     ; 0x2b <__rc27>
     5c2: a9 2d        	lda	#$2d
     5c4: 65 15        	adc	$15                     ; 0x15 <__rc5>
     5c6: 85 2a        	sta	$2a                     ; 0x2a <__rc26>
     5c8: a2 00        	ldx	#$0
     5ca: 86 18        	stx	$18                     ; 0x18 <__rc8>
     5cc: a2 d4        	ldx	#$d4
     5ce: 86 19        	stx	$19                     ; 0x19 <__rc9>
     5d0: a2 00        	ldx	#$0
     5d2: 86 14        	stx	$14                     ; 0x14 <__rc4>
     5d4: a2 dc        	ldx	#$dc
     5d6: 86 15        	stx	$15                     ; 0x15 <__rc5>
     5d8: 64 01        	stz	$1                      ; 0x1 <__zp_data_size+0x1>
     5da: a2 3f        	ldx	#$3f
     5dc: 8e 00 d0     	stx	$d000                   ; 0xd000 <end_block9+0xa2bc>
     5df: a2 b3        	ldx	#$b3
     5e1: 86 00        	stx	$0                      ; 0x0 <__zp_data_size>
     5e3: 64 08        	stz	$8                      ; 0x8 <__zp_data_size+0x8>
     5e5: a2 01        	ldx	#$1
     5e7: 86 09        	stx	$9                      ; 0x9 <__zp_data_size+0x9>
     5e9: e8           	inx
     5ea: 86 0a        	stx	$a                      ; 0xa <__zp_data_size+0xa>
     5ec: e8           	inx
     5ed: 86 0b        	stx	$b                      ; 0xb <__zp_data_size+0xb>
     5ef: e8           	inx
     5f0: 86 0c        	stx	$c                      ; 0xc <__zp_bss_size>
     5f2: e8           	inx
     5f3: 86 0d        	stx	$d                      ; 0xd <__zp_bss_size+0x1>
     5f5: a2 35        	ldx	#$35
     5f7: a9 00        	lda	#$0
     5f9: 86 f0        	stx	$f0                     ; 0xf0 <__rc31+0xc1>
     5fb: 85 f1        	sta	$f1                     ; 0xf1 <__rc31+0xc2>
     5fd: a9 00        	lda	#$0
     5ff: a6 01        	ldx	$1                      ; 0x1 <__zp_data_size+0x1>
     601: a0 01        	ldy	#$1
     603: 84 01        	sty	$1                      ; 0x1 <__zp_data_size+0x1>
     605: 92 1a        	sta	($1a)                   ; 0x1a <__rc10>
     607: 91 1a        	sta	($1a),y                 ; 0x1a <__rc10>
     609: c8           	iny
     60a: 91 1a        	sta	($1a),y                 ; 0x1a <__rc10>
     60c: c8           	iny
     60d: 85 1c        	sta	$1c                     ; 0x1c <__rc12>
     60f: a9 ff        	lda	#$ff
     611: 91 1a        	sta	($1a),y                 ; 0x1a <__rc10>
     613: 86 01        	stx	$1                      ; 0x1 <__zp_data_size+0x1>
     615: a5 1a        	lda	$1a                     ; 0x1a <__rc10>
     617: 18           	clc
     618: 69 04        	adc	#$4
     61a: 85 1a        	sta	$1a                     ; 0x1a <__rc10>
     61c: a5 1b        	lda	$1b                     ; 0x1b <__rc11>
     61e: 69 00        	adc	#$0
     620: e6 1c        	inc	$1c                     ; 0x1c <__rc12>
     622: 85 1b        	sta	$1b                     ; 0x1b <__rc11>
     624: a5 1c        	lda	$1c                     ; 0x1c <__rc12>
     626: d0 d7        	bne	$5ff <main+0xa6>
     628: a9 00        	lda	#$0
     62a: a6 01        	ldx	$1                      ; 0x1 <__zp_data_size+0x1>
     62c: a0 01        	ldy	#$1
     62e: 84 01        	sty	$1                      ; 0x1 <__zp_data_size+0x1>
     630: 92 18        	sta	($18)                   ; 0x18 <__rc8>
     632: 91 18        	sta	($18),y                 ; 0x18 <__rc8>
     634: c8           	iny
     635: 91 18        	sta	($18),y                 ; 0x18 <__rc8>
     637: c8           	iny
     638: 85 1a        	sta	$1a                     ; 0x1a <__rc10>
     63a: a9 ff        	lda	#$ff
     63c: 91 18        	sta	($18),y                 ; 0x18 <__rc8>
     63e: 86 01        	stx	$1                      ; 0x1 <__zp_data_size+0x1>
     640: a5 18        	lda	$18                     ; 0x18 <__rc8>
     642: 18           	clc
     643: 69 04        	adc	#$4
     645: 85 18        	sta	$18                     ; 0x18 <__rc8>
     647: a5 19        	lda	$19                     ; 0x19 <__rc9>
     649: 69 00        	adc	#$0
     64b: e6 1a        	inc	$1a                     ; 0x1a <__rc10>
     64d: 85 19        	sta	$19                     ; 0x19 <__rc9>
     64f: a5 1a        	lda	$1a                     ; 0x1a <__rc10>
     651: d0 d7        	bne	$62a <main+0xd1>
     653: a9 00        	lda	#$0
     655: a6 01        	ldx	$1                      ; 0x1 <__zp_data_size+0x1>
     657: a0 01        	ldy	#$1
     659: 84 01        	sty	$1                      ; 0x1 <__zp_data_size+0x1>
     65b: 92 16        	sta	($16)                   ; 0x16 <__rc6>
     65d: 91 16        	sta	($16),y                 ; 0x16 <__rc6>
     65f: c8           	iny
     660: 91 16        	sta	($16),y                 ; 0x16 <__rc6>
     662: c8           	iny
     663: 85 18        	sta	$18                     ; 0x18 <__rc8>
     665: a9 ff        	lda	#$ff
     667: 91 16        	sta	($16),y                 ; 0x16 <__rc6>
     669: 86 01        	stx	$1                      ; 0x1 <__zp_data_size+0x1>
     66b: a5 16        	lda	$16                     ; 0x16 <__rc6>
     66d: 18           	clc
     66e: 69 04        	adc	#$4
     670: 85 16        	sta	$16                     ; 0x16 <__rc6>
     672: a5 17        	lda	$17                     ; 0x17 <__rc7>
     674: 69 00        	adc	#$0
     676: e6 18        	inc	$18                     ; 0x18 <__rc8>
     678: 85 17        	sta	$17                     ; 0x17 <__rc7>
     67a: a5 18        	lda	$18                     ; 0x18 <__rc8>
     67c: d0 d7        	bne	$655 <main+0xfc>
     67e: a9 00        	lda	#$0
     680: a6 01        	ldx	$1                      ; 0x1 <__zp_data_size+0x1>
     682: a0 01        	ldy	#$1
     684: 84 01        	sty	$1                      ; 0x1 <__zp_data_size+0x1>
     686: 92 14        	sta	($14)                   ; 0x14 <__rc4>
     688: 91 14        	sta	($14),y                 ; 0x14 <__rc4>
     68a: c8           	iny
     68b: 91 14        	sta	($14),y                 ; 0x14 <__rc4>
     68d: c8           	iny
     68e: 85 16        	sta	$16                     ; 0x16 <__rc6>
     690: a9 ff        	lda	#$ff
     692: 91 14        	sta	($14),y                 ; 0x14 <__rc4>
     694: 86 01        	stx	$1                      ; 0x1 <__zp_data_size+0x1>
     696: a5 14        	lda	$14                     ; 0x14 <__rc4>
     698: 18           	clc
     699: 69 04        	adc	#$4
     69b: 85 14        	sta	$14                     ; 0x14 <__rc4>
     69d: a5 15        	lda	$15                     ; 0x15 <__rc5>
     69f: 69 00        	adc	#$0
     6a1: e6 16        	inc	$16                     ; 0x16 <__rc6>
     6a3: 85 15        	sta	$15                     ; 0x15 <__rc5>
     6a5: a5 16        	lda	$16                     ; 0x16 <__rc6>
     6a7: d0 d7        	bne	$680 <main+0x127>
     6a9: ad 02 d0     	lda	$d002                   ; 0xd002 <end_block9+0xa2be>
     6ac: 29 f0        	and	#$f0
     6ae: 8d 02 d0     	sta	$d002                   ; 0xd002 <end_block9+0xa2be>
     6b1: ad 02 d0     	lda	$d002                   ; 0xd002 <end_block9+0xa2be>
     6b4: 29 0f        	and	#$f
     6b6: 09 10        	ora	#$10
     6b8: 8d 02 d0     	sta	$d002                   ; 0xd002 <end_block9+0xa2be>
     6bb: a2 02        	ldx	#$2
     6bd: 8e 03 d0     	stx	$d003                   ; 0xd003 <end_block9+0xa2bf>
     6c0: ad 01 d0     	lda	$d001                   ; 0xd001 <end_block9+0xa2bd>
     6c3: 29 f9        	and	#$f9
     6c5: 09 04        	ora	#$4
     6c7: 8d 01 d0     	sta	$d001                   ; 0xd001 <end_block9+0xa2bd>
     6ca: 64 14        	stz	$14                     ; 0x14 <__rc4>
     6cc: 9c 10 d0     	stz	$d010                   ; 0xd010 <end_block9+0xa2cc>
     6cf: a2 00        	ldx	#$0
     6d1: 64 15        	stz	$15                     ; 0x15 <__rc5>
     6d3: 86 18        	stx	$18                     ; 0x18 <__rc8>
     6d5: a4 18        	ldy	$18                     ; 0x18 <__rc8>
     6d7: be a0 2c     	ldx	$2ca0,y                 ; 0x2ca0 <textColors>
     6da: 86 19        	stx	$19                     ; 0x19 <__rc9>
     6dc: be a1 2c     	ldx	$2ca1,y                 ; 0x2ca1 <textColors+0x1>
     6df: 86 1a        	stx	$1a                     ; 0x1a <__rc10>
     6e1: be a2 2c     	ldx	$2ca2,y                 ; 0x2ca2 <textColors+0x2>
     6e4: 86 1b        	stx	$1b                     ; 0x1b <__rc11>
     6e6: a6 15        	ldx	$15                     ; 0x15 <__rc5>
     6e8: 8e 00 de     	stx	$de00                   ; 0xde00 <end_block9+0xb0bc>
     6eb: 86 17        	stx	$17                     ; 0x17 <__rc7>
     6ed: 9c 01 de     	stz	$de01                   ; 0xde01 <end_block9+0xb0bd>
     6f0: a2 04        	ldx	#$4
     6f2: 8e 02 de     	stx	$de02                   ; 0xde02 <end_block9+0xb0be>
     6f5: 9c 03 de     	stz	$de03                   ; 0xde03 <end_block9+0xb0bf>
     6f8: ad 10 de     	lda	$de10                   ; 0xde10 <end_block9+0xb0cc>
     6fb: ac 11 de     	ldy	$de11                   ; 0xde11 <end_block9+0xb0cd>
     6fe: 84 15        	sty	$15                     ; 0x15 <__rc5>
     700: ac 12 de     	ldy	$de12                   ; 0xde12 <end_block9+0xb0ce>
     703: ac 13 de     	ldy	$de13                   ; 0xde13 <end_block9+0xb0cf>
     706: 18           	clc
     707: 65 14        	adc	$14                     ; 0x14 <__rc4>
     709: 85 16        	sta	$16                     ; 0x16 <__rc6>
     70b: a6 17        	ldx	$17                     ; 0x17 <__rc7>
     70d: a9 d8        	lda	#$d8
     70f: 65 15        	adc	$15                     ; 0x15 <__rc5>
     711: 85 17        	sta	$17                     ; 0x17 <__rc7>
     713: a5 1b        	lda	$1b                     ; 0x1b <__rc11>
     715: 92 16        	sta	($16)                   ; 0x16 <__rc6>
     717: a0 01        	ldy	#$1
     719: a5 1a        	lda	$1a                     ; 0x1a <__rc10>
     71b: 91 16        	sta	($16),y                 ; 0x16 <__rc6>
     71d: c8           	iny
     71e: a5 19        	lda	$19                     ; 0x19 <__rc9>
     720: 91 16        	sta	($16),y                 ; 0x16 <__rc6>
     722: c8           	iny
     723: a9 ff        	lda	#$ff
     725: 91 16        	sta	($16),y                 ; 0x16 <__rc6>
     727: 8e 00 de     	stx	$de00                   ; 0xde00 <end_block9+0xb0bc>
     72a: 9c 01 de     	stz	$de01                   ; 0xde01 <end_block9+0xb0bd>
     72d: c8           	iny
     72e: 8c 02 de     	sty	$de02                   ; 0xde02 <end_block9+0xb0be>
     731: 9c 03 de     	stz	$de03                   ; 0xde03 <end_block9+0xb0bf>
     734: ad 10 de     	lda	$de10                   ; 0xde10 <end_block9+0xb0cc>
     737: 85 15        	sta	$15                     ; 0x15 <__rc5>
     739: ad 11 de     	lda	$de11                   ; 0xde11 <end_block9+0xb0cd>
     73c: 85 16        	sta	$16                     ; 0x16 <__rc6>
     73e: a9 40        	lda	#$40
     740: 18           	clc
     741: 65 15        	adc	$15                     ; 0x15 <__rc5>
     743: a8           	tay
     744: a9 d8        	lda	#$d8
     746: 65 16        	adc	$16                     ; 0x16 <__rc6>
     748: 85 17        	sta	$17                     ; 0x17 <__rc7>
     74a: 84 16        	sty	$16                     ; 0x16 <__rc6>
     74c: ad 12 de     	lda	$de12                   ; 0xde12 <end_block9+0xb0ce>
     74f: ad 13 de     	lda	$de13                   ; 0xde13 <end_block9+0xb0cf>
     752: a5 1b        	lda	$1b                     ; 0x1b <__rc11>
     754: 92 16        	sta	($16)                   ; 0x16 <__rc6>
     756: a5 1a        	lda	$1a                     ; 0x1a <__rc10>
     758: a0 01        	ldy	#$1
     75a: 91 16        	sta	($16),y                 ; 0x16 <__rc6>
     75c: a5 19        	lda	$19                     ; 0x19 <__rc9>
     75e: c8           	iny
     75f: 91 16        	sta	($16),y                 ; 0x16 <__rc6>
     761: c8           	iny
     762: a9 ff        	lda	#$ff
     764: 91 16        	sta	($16),y                 ; 0x16 <__rc6>
     766: e8           	inx
     767: 86 15        	stx	$15                     ; 0x15 <__rc5>
     769: 18           	clc
     76a: a5 18        	lda	$18                     ; 0x18 <__rc8>
     76c: 69 03        	adc	#$3
     76e: aa           	tax
     76f: c9 30        	cmp	#$30
     771: f0 03        	beq	$776 <main+0x21d>
     773: 4c d3 06     	jmp	$6d3 <main+0x17a>
     776: a6 01        	ldx	$1                      ; 0x1 <__zp_data_size+0x1>
     778: 86 18        	stx	$18                     ; 0x18 <__rc8>
     77a: a2 50        	ldx	#$50
     77c: 8e 00 de     	stx	$de00                   ; 0xde00 <end_block9+0xb0bc>
     77f: 9c 01 de     	stz	$de01                   ; 0xde01 <end_block9+0xb0bd>
     782: a2 1e        	ldx	#$1e
     784: 8e 02 de     	stx	$de02                   ; 0xde02 <end_block9+0xb0be>
     787: 9c 03 de     	stz	$de03                   ; 0xde03 <end_block9+0xb0bf>
     78a: ae 10 de     	ldx	$de10                   ; 0xde10 <end_block9+0xb0cc>
     78d: ac 11 de     	ldy	$de11                   ; 0xde11 <end_block9+0xb0cd>
     790: ad 12 de     	lda	$de12                   ; 0xde12 <end_block9+0xb0ce>
     793: ad 13 de     	lda	$de13                   ; 0xde13 <end_block9+0xb0cf>
     796: a9 02        	lda	#$2
     798: 85 01        	sta	$1                      ; 0x1 <__zp_data_size+0x1>
     79a: e0 01        	cpx	#$1
     79c: 98           	tya
     79d: e9 00        	sbc	#$0
     79f: 50 02        	bvc	$7a3 <main+0x24a>
     7a1: 49 80        	eor	#$80
     7a3: c9 00        	cmp	#$0
     7a5: 10 03        	bpl	$7aa <main+0x251>
     7a7: 4c 01 08     	jmp	$801 <main+0x2a8>
     7aa: a9 20        	lda	#$20
     7ac: 86 19        	stx	$19                     ; 0x19 <__rc9>
     7ae: 86 14        	stx	$14                     ; 0x14 <__rc4>
     7b0: 84 15        	sty	$15                     ; 0x15 <__rc5>
     7b2: a2 00        	ldx	#$0
     7b4: 86 16        	stx	$16                     ; 0x16 <__rc6>
     7b6: a2 c0        	ldx	#$c0
     7b8: 86 17        	stx	$17                     ; 0x17 <__rc7>
     7ba: 80 04        	bra	$7c0 <main+0x267>
     7bc: a6 15        	ldx	$15                     ; 0x15 <__rc5>
     7be: f0 14        	beq	$7d4 <main+0x27b>
     7c0: 92 16        	sta	($16)                   ; 0x16 <__rc6>
     7c2: e6 16        	inc	$16                     ; 0x16 <__rc6>
     7c4: d0 02        	bne	$7c8 <main+0x26f>
     7c6: e6 17        	inc	$17                     ; 0x17 <__rc7>
     7c8: a2 ff        	ldx	#$ff
     7ca: c6 14        	dec	$14                     ; 0x14 <__rc4>
     7cc: e4 14        	cpx	$14                     ; 0x14 <__rc4>
     7ce: d0 ec        	bne	$7bc <main+0x263>
     7d0: c6 15        	dec	$15                     ; 0x15 <__rc5>
     7d2: 80 e8        	bra	$7bc <main+0x263>
     7d4: a6 14        	ldx	$14                     ; 0x14 <__rc4>
     7d6: d0 e8        	bne	$7c0 <main+0x267>
     7d8: a2 03        	ldx	#$3
     7da: 86 01        	stx	$1                      ; 0x1 <__zp_data_size+0x1>
     7dc: a6 19        	ldx	$19                     ; 0x19 <__rc9>
     7de: 80 03        	bra	$7e3 <main+0x28a>
     7e0: 98           	tya
     7e1: f0 19        	beq	$7fc <main+0x2a3>
     7e3: a9 f0        	lda	#$f0
     7e5: 92 12        	sta	($12)                   ; 0x12 <__rc2>
     7e7: e6 12        	inc	$12                     ; 0x12 <__rc2>
     7e9: f0 07        	beq	$7f2 <main+0x299>
     7eb: ca           	dex
     7ec: e0 ff        	cpx	#$ff
     7ee: d0 f0        	bne	$7e0 <main+0x287>
     7f0: 80 07        	bra	$7f9 <main+0x2a0>
     7f2: e6 13        	inc	$13                     ; 0x13 <__rc3>
     7f4: ca           	dex
     7f5: e0 ff        	cpx	#$ff
     7f7: d0 e7        	bne	$7e0 <main+0x287>
     7f9: 88           	dey
     7fa: 80 e4        	bra	$7e0 <main+0x287>
     7fc: 8a           	txa
     7fd: d0 e4        	bne	$7e3 <main+0x28a>
     7ff: 80 04        	bra	$805 <main+0x2ac>
     801: a2 03        	ldx	#$3
     803: 86 01        	stx	$1                      ; 0x1 <__zp_data_size+0x1>
     805: a6 18        	ldx	$18                     ; 0x18 <__rc8>
     807: 86 01        	stx	$1                      ; 0x1 <__zp_data_size+0x1>
     809: 64 30        	stz	$30                     ; 0x30 <_col>
     80b: 9c 14 d0     	stz	$d014                   ; 0xd014 <end_block9+0xa2d0>
     80e: 9c 15 d0     	stz	$d015                   ; 0xd015 <end_block9+0xa2d1>
     811: 64 31        	stz	$31                     ; 0x31 <_row>
     813: 9c 16 d0     	stz	$d016                   ; 0xd016 <end_block9+0xa2d2>
     816: 9c 17 d0     	stz	$d017                   ; 0xd017 <end_block9+0xa2d3>
     819: a2 40        	ldx	#$40
     81b: 8e 00 de     	stx	$de00                   ; 0xde00 <end_block9+0xb0bc>
     81e: a2 01        	ldx	#$1
     820: 8e 01 de     	stx	$de01                   ; 0xde01 <end_block9+0xb0bd>
     823: a2 f0        	ldx	#$f0
     825: 8e 02 de     	stx	$de02                   ; 0xde02 <end_block9+0xb0be>
     828: 9c 03 de     	stz	$de03                   ; 0xde03 <end_block9+0xb0bf>
     82b: ae 10 de     	ldx	$de10                   ; 0xde10 <end_block9+0xb0cc>
     82e: 86 17        	stx	$17                     ; 0x17 <__rc7>
     830: ae 11 de     	ldx	$de11                   ; 0xde11 <end_block9+0xb0cd>
     833: 86 12        	stx	$12                     ; 0x12 <__rc2>
     835: ae 12 de     	ldx	$de12                   ; 0xde12 <end_block9+0xb0ce>
     838: 86 13        	stx	$13                     ; 0x13 <__rc3>
     83a: ae 13 de     	ldx	$de13                   ; 0xde13 <end_block9+0xb0cf>
     83d: 86 14        	stx	$14                     ; 0x14 <__rc4>
     83f: a4 12        	ldy	$12                     ; 0x12 <__rc2>
     841: 84 15        	sty	$15                     ; 0x15 <__rc5>
     843: 06 15        	asl	$15                     ; 0x15 <__rc5>
     845: a5 13        	lda	$13                     ; 0x13 <__rc3>
     847: 2a           	rol
     848: 86 16        	stx	$16                     ; 0x16 <__rc6>
     84a: 26 16        	rol	$16                     ; 0x16 <__rc6>
     84c: 06 15        	asl	$15                     ; 0x15 <__rc5>
     84e: 2a           	rol
     84f: 26 16        	rol	$16                     ; 0x16 <__rc6>
     851: 06 15        	asl	$15                     ; 0x15 <__rc5>
     853: 2a           	rol
     854: 26 16        	rol	$16                     ; 0x16 <__rc6>
     856: 85 15        	sta	$15                     ; 0x15 <__rc5>
     858: 8d 00 de     	sta	$de00                   ; 0xde00 <end_block9+0xb0bc>
     85b: a5 16        	lda	$16                     ; 0x16 <__rc6>
     85d: 8d 01 de     	sta	$de01                   ; 0xde01 <end_block9+0xb0bd>
     860: 9c 02 de     	stz	$de02                   ; 0xde02 <end_block9+0xb0be>
     863: a2 20        	ldx	#$20
     865: 8e 03 de     	stx	$de03                   ; 0xde03 <end_block9+0xb0bf>
     868: ae 10 de     	ldx	$de10                   ; 0xde10 <end_block9+0xb0cc>
     86b: 86 16        	stx	$16                     ; 0x16 <__rc6>
     86d: ae 11 de     	ldx	$de11                   ; 0xde11 <end_block9+0xb0cd>
     870: 86 18        	stx	$18                     ; 0x18 <__rc8>
     872: ac 12 de     	ldy	$de12                   ; 0xde12 <end_block9+0xb0ce>
     875: ae 13 de     	ldx	$de13                   ; 0xde13 <end_block9+0xb0cf>
     878: e4 14        	cpx	$14                     ; 0x14 <__rc4>
     87a: d0 14        	bne	$890 <main+0x337>
     87c: c4 13        	cpy	$13                     ; 0x13 <__rc3>
     87e: d0 10        	bne	$890 <main+0x337>
     880: a6 18        	ldx	$18                     ; 0x18 <__rc8>
     882: e4 12        	cpx	$12                     ; 0x12 <__rc2>
     884: d0 0a        	bne	$890 <main+0x337>
     886: a6 16        	ldx	$16                     ; 0x16 <__rc6>
     888: e4 17        	cpx	$17                     ; 0x17 <__rc7>
     88a: d0 04        	bne	$890 <main+0x337>
     88c: a6 15        	ldx	$15                     ; 0x15 <__rc5>
     88e: 80 06        	bra	$896 <main+0x33d>
     890: a6 15        	ldx	$15                     ; 0x15 <__rc5>
     892: e8           	inx
     893: d0 01        	bne	$896 <main+0x33d>
     895: 1a           	inc
     896: 8e 00 de     	stx	$de00                   ; 0xde00 <end_block9+0xb0bc>
     899: 8d 01 de     	sta	$de01                   ; 0xde01 <end_block9+0xb0bd>
     89c: 9c 02 de     	stz	$de02                   ; 0xde02 <end_block9+0xb0be>
     89f: a2 20        	ldx	#$20
     8a1: 8e 03 de     	stx	$de03                   ; 0xde03 <end_block9+0xb0bf>
     8a4: ae 10 de     	ldx	$de10                   ; 0xde10 <end_block9+0xb0cc>
     8a7: 86 12        	stx	$12                     ; 0x12 <__rc2>
     8a9: ae 11 de     	ldx	$de11                   ; 0xde11 <end_block9+0xb0cd>
     8ac: 86 13        	stx	$13                     ; 0x13 <__rc3>
     8ae: ae 12 de     	ldx	$de12                   ; 0xde12 <end_block9+0xb0ce>
     8b1: 86 14        	stx	$14                     ; 0x14 <__rc4>
     8b3: ae 13 de     	ldx	$de13                   ; 0xde13 <end_block9+0xb0cf>
     8b6: 86 15        	stx	$15                     ; 0x15 <__rc5>
     8b8: 38           	sec
     8b9: a9 00        	lda	#$0
     8bb: e5 12        	sbc	$12                     ; 0x12 <__rc2>
     8bd: 85 19        	sta	$19                     ; 0x19 <__rc9>
     8bf: a9 00        	lda	#$0
     8c1: e5 13        	sbc	$13                     ; 0x13 <__rc3>
     8c3: aa           	tax
     8c4: a9 08        	lda	#$8
     8c6: e5 14        	sbc	$14                     ; 0x14 <__rc4>
     8c8: 85 16        	sta	$16                     ; 0x16 <__rc6>
     8ca: a9 00        	lda	#$0
     8cc: e5 15        	sbc	$15                     ; 0x15 <__rc5>
     8ce: 8e 33 2d     	stx	$2d33                   ; 0x2d33 <__bss_start+0x1>
     8d1: a4 16        	ldy	$16                     ; 0x16 <__rc6>
     8d3: 8c 34 2d     	sty	$2d34                   ; 0x2d34 <__bss_start+0x2>
     8d6: 8d 35 2d     	sta	$2d35                   ; 0x2d35 <__bss_start+0x3>
     8d9: a8           	tay
     8da: a5 19        	lda	$19                     ; 0x19 <__rc9>
     8dc: 38           	sec
     8dd: e5 12        	sbc	$12                     ; 0x12 <__rc2>
     8df: 85 18        	sta	$18                     ; 0x18 <__rc8>
     8e1: 8a           	txa
     8e2: e5 13        	sbc	$13                     ; 0x13 <__rc3>
     8e4: 85 1a        	sta	$1a                     ; 0x1a <__rc10>
     8e6: a5 16        	lda	$16                     ; 0x16 <__rc6>
     8e8: e5 14        	sbc	$14                     ; 0x14 <__rc4>
     8ea: 85 16        	sta	$16                     ; 0x16 <__rc6>
     8ec: 98           	tya
     8ed: e5 15        	sbc	$15                     ; 0x15 <__rc5>
     8ef: 85 17        	sta	$17                     ; 0x17 <__rc7>
     8f1: 38           	sec
     8f2: a4 18        	ldy	$18                     ; 0x18 <__rc8>
     8f4: 8c 36 2d     	sty	$2d36                   ; 0x2d36 <_BITMAP_BASE.1>
     8f7: a6 1a        	ldx	$1a                     ; 0x1a <__rc10>
     8f9: 8e 37 2d     	stx	$2d37                   ; 0x2d37 <_BITMAP_BASE.1+0x1>
     8fc: a4 16        	ldy	$16                     ; 0x16 <__rc6>
     8fe: 8c 38 2d     	sty	$2d38                   ; 0x2d38 <_BITMAP_BASE.1+0x2>
     901: 8d 39 2d     	sta	$2d39                   ; 0x2d39 <_BITMAP_BASE.1+0x3>
     904: a5 18        	lda	$18                     ; 0x18 <__rc8>
     906: e5 12        	sbc	$12                     ; 0x12 <__rc2>
     908: 85 18        	sta	$18                     ; 0x18 <__rc8>
     90a: a5 1a        	lda	$1a                     ; 0x1a <__rc10>
     90c: e5 13        	sbc	$13                     ; 0x13 <__rc3>
     90e: a8           	tay
     90f: a5 16        	lda	$16                     ; 0x16 <__rc6>
     911: e5 14        	sbc	$14                     ; 0x14 <__rc4>
     913: 85 12        	sta	$12                     ; 0x12 <__rc2>
     915: a5 17        	lda	$17                     ; 0x17 <__rc7>
     917: e5 15        	sbc	$15                     ; 0x15 <__rc5>
     919: a6 18        	ldx	$18                     ; 0x18 <__rc8>
     91b: 8e 3a 2d     	stx	$2d3a                   ; 0x2d3a <_BITMAP_BASE.2>
     91e: 8c 3b 2d     	sty	$2d3b                   ; 0x2d3b <_BITMAP_BASE.2+0x1>
     921: a6 19        	ldx	$19                     ; 0x19 <__rc9>
     923: 8e 32 2d     	stx	$2d32                   ; 0x2d32 <__bss_start>
     926: a4 12        	ldy	$12                     ; 0x12 <__rc2>
     928: 8c 3c 2d     	sty	$2d3c                   ; 0x2d3c <_BITMAP_BASE.2+0x2>
     92b: 8d 3d 2d     	sta	$2d3d                   ; 0x2d3d <_BITMAP_BASE.2+0x3>
     92e: 8e 01 d1     	stx	$d101                   ; 0xd101 <end_block9+0xa3bd>
     931: ae 33 2d     	ldx	$2d33                   ; 0x2d33 <__bss_start+0x1>
     934: 8e 02 d1     	stx	$d102                   ; 0xd102 <end_block9+0xa3be>
     937: ae 34 2d     	ldx	$2d34                   ; 0x2d34 <__bss_start+0x2>
     93a: 8e 03 d1     	stx	$d103                   ; 0xd103 <end_block9+0xa3bf>
     93d: ae 36 2d     	ldx	$2d36                   ; 0x2d36 <_BITMAP_BASE.1>
     940: 8e 09 d1     	stx	$d109                   ; 0xd109 <end_block9+0xa3c5>
     943: ae 37 2d     	ldx	$2d37                   ; 0x2d37 <_BITMAP_BASE.1+0x1>
     946: 8e 0a d1     	stx	$d10a                   ; 0xd10a <end_block9+0xa3c6>
     949: ae 38 2d     	ldx	$2d38                   ; 0x2d38 <_BITMAP_BASE.1+0x2>
     94c: 8e 0b d1     	stx	$d10b                   ; 0xd10b <end_block9+0xa3c7>
     94f: ae 3a 2d     	ldx	$2d3a                   ; 0x2d3a <_BITMAP_BASE.2>
     952: 8e 11 d1     	stx	$d111                   ; 0xd111 <end_block9+0xa3cd>
     955: ae 3b 2d     	ldx	$2d3b                   ; 0x2d3b <_BITMAP_BASE.2+0x1>
     958: 8e 12 d1     	stx	$d112                   ; 0xd112 <end_block9+0xa3ce>
     95b: ae 3c 2d     	ldx	$2d3c                   ; 0x2d3c <_BITMAP_BASE.2+0x2>
     95e: 8e 13 d1     	stx	$d113                   ; 0xd113 <end_block9+0xa3cf>
     961: 9c 00 d1     	stz	$d100                   ; 0xd100 <end_block9+0xa3bc>
     964: 9c 08 d1     	stz	$d108                   ; 0xd108 <end_block9+0xa3c4>
     967: 9c 10 d1     	stz	$d110                   ; 0xd110 <end_block9+0xa3cc>
     96a: a2 10        	ldx	#$10
     96c: 8e 00 d2     	stx	$d200                   ; 0xd200 <end_block9+0xa4bc>
     96f: 8e 0c d2     	stx	$d20c                   ; 0xd20c <end_block9+0xa4c8>
     972: 8e 18 d2     	stx	$d218                   ; 0xd218 <end_block9+0xa4d4>
     975: a0 d9        	ldy	#$d9
     977: a2 40        	ldx	#$40
     979: 64 12        	stz	$12                     ; 0x12 <__rc2>
     97b: 84 13        	sty	$13                     ; 0x13 <__rc3>
     97d: a9 00        	lda	#$0
     97f: 92 12        	sta	($12)                   ; 0x12 <__rc2>
     981: ca           	dex
     982: 18           	clc
     983: a5 12        	lda	$12                     ; 0x12 <__rc2>
     985: 69 08        	adc	#$8
     987: 85 12        	sta	$12                     ; 0x12 <__rc2>
     989: 98           	tya
     98a: 69 00        	adc	#$0
     98c: a8           	tay
     98d: 8a           	txa
     98e: d0 eb        	bne	$97b <main+0x422>
     990: 18           	clc
     991: a5 10        	lda	$10                     ; 0x10 <__rc0>
     993: 69 0e        	adc	#$e
     995: 85 2c        	sta	$2c                     ; 0x2c <__rc28>
     997: a5 11        	lda	$11                     ; 0x11 <__rc1>
     999: 69 00        	adc	#$0
     99b: 85 2d        	sta	$2d                     ; 0x2d <__rc29>
     99d: a6 2c        	ldx	$2c                     ; 0x2c <__rc28>
     99f: 86 fb        	stx	$fb                     ; 0xfb <__rc31+0xcc>
     9a1: 85 fc        	sta	$fc                     ; 0xfc <__rc31+0xcd>
     9a3: a2 08        	ldx	#$8
     9a5: 86 fd        	stx	$fd                     ; 0xfd <__rc31+0xce>
     9a7: 18           	clc
     9a8: a5 10        	lda	$10                     ; 0x10 <__rc0>
     9aa: 69 0e        	adc	#$e
     9ac: 85 28        	sta	$28                     ; 0x28 <__rc24>
     9ae: a5 11        	lda	$11                     ; 0x11 <__rc1>
     9b0: 69 20        	adc	#$20
     9b2: 85 29        	sta	$29                     ; 0x29 <__rc25>
     9b4: a2 34        	ldx	#$34
     9b6: 86 12        	stx	$12                     ; 0x12 <__rc2>
     9b8: a2 00        	ldx	#$0
     9ba: 86 13        	stx	$13                     ; 0x13 <__rc3>
     9bc: a0 06        	ldy	#$6
     9be: 20 dc ff     	jsr	$ffdc <end_block9+0xd298>
     9c1: 92 28        	sta	($28)                   ; 0x28 <__rc24>
     9c3: a9 00        	lda	#$0
     9c5: 6a           	ror
     9c6: 85 12        	sta	$12                     ; 0x12 <__rc2>
     9c8: b1 2c        	lda	($2c),y                 ; 0x2c <__rc28>
     9ca: 85 12        	sta	$12                     ; 0x12 <__rc2>
     9cc: c8           	iny
     9cd: b1 2c        	lda	($2c),y                 ; 0x2c <__rc28>
     9cf: a6 12        	ldx	$12                     ; 0x12 <__rc2>
     9d1: 8e 00 de     	stx	$de00                   ; 0xde00 <end_block9+0xb0bc>
     9d4: 9c 01 de     	stz	$de01                   ; 0xde01 <end_block9+0xb0bd>
     9d7: 8d 02 de     	sta	$de02                   ; 0xde02 <end_block9+0xb0be>
     9da: 9c 03 de     	stz	$de03                   ; 0xde03 <end_block9+0xb0bf>
     9dd: ae 10 de     	ldx	$de10                   ; 0xde10 <end_block9+0xb0cc>
     9e0: ac 11 de     	ldy	$de11                   ; 0xde11 <end_block9+0xb0cd>
     9e3: ad 12 de     	lda	$de12                   ; 0xde12 <end_block9+0xb0ce>
     9e6: ad 13 de     	lda	$de13                   ; 0xde13 <end_block9+0xb0cf>
     9e9: 8e a4 d6     	stx	$d6a4                   ; 0xd6a4 <end_block9+0xa960>
     9ec: 8c a5 d6     	sty	$d6a5                   ; 0xd6a5 <end_block9+0xa961>
     9ef: a2 03        	ldx	#$3
     9f1: 8e a6 d6     	stx	$d6a6                   ; 0xd6a6 <end_block9+0xa962>
     9f4: 64 12        	stz	$12                     ; 0x12 <__rc2>
     9f6: 64 01        	stz	$1                      ; 0x1 <__zp_data_size+0x1>
     9f8: a0 01        	ldy	#$1
     9fa: 8c 00 d0     	sty	$d000                   ; 0xd000 <end_block9+0xa2bc>
     9fd: 9c 01 d0     	stz	$d001                   ; 0xd001 <end_block9+0xa2bd>
     a00: 64 01        	stz	$1                      ; 0x1 <__zp_data_size+0x1>
     a02: 9c 0d d0     	stz	$d00d                   ; 0xd00d <end_block9+0xa2c9>
     a05: 86 01        	stx	$1                      ; 0x1 <__zp_data_size+0x1>
     a07: a9 c0        	lda	#$c0
     a09: a2 00        	ldx	#$0
     a0b: a0 50        	ldy	#$50
     a0d: 48           	pha
     a0e: a5 12        	lda	$12                     ; 0x12 <__rc2>
     a10: 85 14        	sta	$14                     ; 0x14 <__rc4>
     a12: 68           	pla
     a13: 85 15        	sta	$15                     ; 0x15 <__rc5>
     a15: 85 13        	sta	$13                     ; 0x13 <__rc3>
     a17: a9 f0        	lda	#$f0
     a19: 92 12        	sta	($12)                   ; 0x12 <__rc2>
     a1b: 88           	dey
     a1c: e6 12        	inc	$12                     ; 0x12 <__rc2>
     a1e: d0 02        	bne	$a22 <main+0x4c9>
     a20: e6 13        	inc	$13                     ; 0x13 <__rc3>
     a22: c0 00        	cpy	#$0
     a24: d0 f3        	bne	$a19 <main+0x4c0>
     a26: e8           	inx
     a27: 18           	clc
     a28: a5 14        	lda	$14                     ; 0x14 <__rc4>
     a2a: 69 50        	adc	#$50
     a2c: 85 12        	sta	$12                     ; 0x12 <__rc2>
     a2e: a5 15        	lda	$15                     ; 0x15 <__rc5>
     a30: 69 00        	adc	#$0
     a32: e0 3c        	cpx	#$3c
     a34: d0 d5        	bne	$a0b <main+0x4b2>
     a36: 64 12        	stz	$12                     ; 0x12 <__rc2>
     a38: 64 01        	stz	$1                      ; 0x1 <__zp_data_size+0x1>
     a3a: a2 02        	ldx	#$2
     a3c: 86 01        	stx	$1                      ; 0x1 <__zp_data_size+0x1>
     a3e: a9 c0        	lda	#$c0
     a40: a2 00        	ldx	#$0
     a42: a0 50        	ldy	#$50
     a44: 48           	pha
     a45: a5 12        	lda	$12                     ; 0x12 <__rc2>
     a47: 85 14        	sta	$14                     ; 0x14 <__rc4>
     a49: 68           	pla
     a4a: 85 15        	sta	$15                     ; 0x15 <__rc5>
     a4c: 85 13        	sta	$13                     ; 0x13 <__rc3>
     a4e: a9 20        	lda	#$20
     a50: 92 12        	sta	($12)                   ; 0x12 <__rc2>
     a52: 88           	dey
     a53: e6 12        	inc	$12                     ; 0x12 <__rc2>
     a55: d0 02        	bne	$a59 <main+0x500>
     a57: e6 13        	inc	$13                     ; 0x13 <__rc3>
     a59: c0 00        	cpy	#$0
     a5b: d0 f3        	bne	$a50 <main+0x4f7>
     a5d: e8           	inx
     a5e: 18           	clc
     a5f: a5 14        	lda	$14                     ; 0x14 <__rc4>
     a61: 69 50        	adc	#$50
     a63: 85 12        	sta	$12                     ; 0x12 <__rc2>
     a65: a5 15        	lda	$15                     ; 0x15 <__rc5>
     a67: 69 00        	adc	#$0
     a69: e0 3c        	cpx	#$3c
     a6b: d0 d5        	bne	$a42 <main+0x4e9>
     a6d: 64 01        	stz	$1                      ; 0x1 <__zp_data_size+0x1>
     a6f: a2 1f        	ldx	#$1f
     a71: 8e 20 d6     	stx	$d620                   ; 0xd620 <end_block9+0xa8dc>
     a74: a2 2a        	ldx	#$2a
     a76: 8e 21 d6     	stx	$d621                   ; 0xd621 <end_block9+0xa8dd>
     a79: a2 01        	ldx	#$1
     a7b: 8e 22 d6     	stx	$d622                   ; 0xd622 <end_block9+0xa8de>
     a7e: ad 22 d6     	lda	$d622                   ; 0xd622 <end_block9+0xa8de>
     a81: 29 01        	and	#$1
     a83: d0 f9        	bne	$a7e <main+0x525>
     a85: a2 03        	ldx	#$3
     a87: 8e 01 d7     	stx	$d701                   ; 0xd701 <end_block9+0xa9bd>
     a8a: 9c 02 d7     	stz	$d702                   ; 0xd702 <end_block9+0xa9be>
     a8d: 9c 02 d7     	stz	$d702                   ; 0xd702 <end_block9+0xa9be>
     a90: a2 c0        	ldx	#$c0
     a92: 8e 03 d7     	stx	$d703                   ; 0xd703 <end_block9+0xa9bf>
     a95: a2 01        	ldx	#$1
     a97: 8e 00 d7     	stx	$d700                   ; 0xd700 <end_block9+0xa9bc>
     a9a: 9c 00 d7     	stz	$d700                   ; 0xd700 <end_block9+0xa9bc>
     a9d: ae 00 d7     	ldx	$d700                   ; 0xd700 <end_block9+0xa9bc>
     aa0: 30 fb        	bmi	$a9d <main+0x544>
     aa2: a2 03        	ldx	#$3
     aa4: 86 12        	stx	$12                     ; 0x12 <__rc2>
     aa6: a2 2d        	ldx	#$2d
     aa8: 86 13        	stx	$13                     ; 0x13 <__rc3>
     aaa: 20 cc 17     	jsr	$17cc <fileOpen>
     aad: a6 12        	ldx	$12                     ; 0x12 <__rc2>
     aaf: 86 26        	stx	$26                     ; 0x26 <__rc22>
     ab1: a6 13        	ldx	$13                     ; 0x13 <__rc3>
     ab3: 86 27        	stx	$27                     ; 0x27 <__rc23>
     ab5: a2 00        	ldx	#$0
     ab7: 86 12        	stx	$12                     ; 0x12 <__rc2>
     ab9: a2 00        	ldx	#$0
     abb: 86 13        	stx	$13                     ; 0x13 <__rc3>
     abd: a6 27        	ldx	$27                     ; 0x27 <__rc23>
     abf: e4 13        	cpx	$13                     ; 0x13 <__rc3>
     ac1: d0 0e        	bne	$ad1 <main+0x578>
     ac3: a6 26        	ldx	$26                     ; 0x26 <__rc22>
     ac5: e4 12        	cpx	$12                     ; 0x12 <__rc2>
     ac7: d0 08        	bne	$ad1 <main+0x578>
     ac9: a2 15        	ldx	#$15
     acb: 86 12        	stx	$12                     ; 0x12 <__rc2>
     acd: a2 2d        	ldx	#$2d
     acf: 80 39        	bra	$b0a <main+0x5b1>
     ad1: a2 d0        	ldx	#$d0
     ad3: 86 12        	stx	$12                     ; 0x12 <__rc2>
     ad5: a2 2c        	ldx	#$2c
     ad7: 86 13        	stx	$13                     ; 0x13 <__rc3>
     ad9: 20 cc 17     	jsr	$17cc <fileOpen>
     adc: a2 00        	ldx	#$0
     ade: 86 14        	stx	$14                     ; 0x14 <__rc4>
     ae0: a2 00        	ldx	#$0
     ae2: 86 15        	stx	$15                     ; 0x15 <__rc5>
     ae4: a5 12        	lda	$12                     ; 0x12 <__rc2>
     ae6: a0 0a        	ldy	#$a
     ae8: 91 10        	sta	($10),y                 ; 0x10 <__rc0>
     aea: a5 13        	lda	$13                     ; 0x13 <__rc3>
     aec: c8           	iny
     aed: 91 10        	sta	($10),y                 ; 0x10 <__rc0>
     aef: a6 13        	ldx	$13                     ; 0x13 <__rc3>
     af1: e4 15        	cpx	$15                     ; 0x15 <__rc5>
     af3: d0 44        	bne	$b39 <main+0x5e0>
     af5: a0 0a        	ldy	#$a
     af7: b1 10        	lda	($10),y                 ; 0x10 <__rc0>
     af9: 85 12        	sta	$12                     ; 0x12 <__rc2>
     afb: c8           	iny
     afc: b1 10        	lda	($10),y                 ; 0x10 <__rc0>
     afe: a6 12        	ldx	$12                     ; 0x12 <__rc2>
     b00: e4 14        	cpx	$14                     ; 0x14 <__rc4>
     b02: d0 35        	bne	$b39 <main+0x5e0>
     b04: a2 e3        	ldx	#$e3
     b06: 86 12        	stx	$12                     ; 0x12 <__rc2>
     b08: a2 2c        	ldx	#$2c
     b0a: 86 13        	stx	$13                     ; 0x13 <__rc3>
     b0c: 20 59 1e     	jsr	$1e59 <printf>
     b0f: a2 34        	ldx	#$34
     b11: 86 12        	stx	$12                     ; 0x12 <__rc2>
     b13: a2 00        	ldx	#$0
     b15: 86 13        	stx	$13                     ; 0x13 <__rc3>
     b17: 64 35        	stz	$35                     ; 0x35 <kernelEventData>
     b19: 20 00 ff     	jsr	$ff00 <end_block9+0xd1bc>
     b1c: 92 2c        	sta	($2c)                   ; 0x2c <__rc28>
     b1e: a9 00        	lda	#$0
     b20: 6a           	ror
     b21: 85 12        	sta	$12                     ; 0x12 <__rc2>
     b23: a6 35        	ldx	$35                     ; 0x35 <kernelEventData>
     b25: e0 08        	cpx	#$8
     b27: d0 ee        	bne	$b17 <main+0x5be>
     b29: a6 39        	ldx	$39                     ; 0x39 <kernelEventData+0x4>
     b2b: e0 20        	cpx	#$20
     b2d: d0 03        	bne	$b32 <main+0x5d9>
     b2f: 4c 69 17     	jmp	$1769 <main+0x1210>
     b32: e0 94        	cpx	#$94
     b34: d0 e1        	bne	$b17 <main+0x5be>
     b36: 4c 69 17     	jmp	$1769 <main+0x1210>
     b39: a5 2b        	lda	$2b                     ; 0x2b <__rc27>
     b3b: a0 08        	ldy	#$8
     b3d: 91 10        	sta	($10),y                 ; 0x10 <__rc0>
     b3f: a5 2a        	lda	$2a                     ; 0x2a <__rc26>
     b41: c8           	iny
     b42: 91 10        	sta	($10),y                 ; 0x10 <__rc0>
     b44: a2 40        	ldx	#$40
     b46: a4 2c        	ldy	$2c                     ; 0x2c <__rc28>
     b48: 84 2a        	sty	$2a                     ; 0x2a <__rc26>
     b4a: a4 2d        	ldy	$2d                     ; 0x2d <__rc29>
     b4c: 84 2b        	sty	$2b                     ; 0x2b <__rc27>
     b4e: a4 2a        	ldy	$2a                     ; 0x2a <__rc26>
     b50: 84 12        	sty	$12                     ; 0x12 <__rc2>
     b52: a4 2b        	ldy	$2b                     ; 0x2b <__rc27>
     b54: 84 13        	sty	$13                     ; 0x13 <__rc3>
     b56: a0 0a        	ldy	#$a
     b58: b1 10        	lda	($10),y                 ; 0x10 <__rc0>
     b5a: 85 14        	sta	$14                     ; 0x14 <__rc4>
     b5c: c8           	iny
     b5d: b1 10        	lda	($10),y                 ; 0x10 <__rc0>
     b5f: 85 15        	sta	$15                     ; 0x15 <__rc5>
     b61: 86 24        	stx	$24                     ; 0x24 <__rc20>
     b63: 20 4c 1b     	jsr	$1b4c <fileRead>
     b66: a6 24        	ldx	$24                     ; 0x24 <__rc20>
     b68: ca           	dex
     b69: a5 2a        	lda	$2a                     ; 0x2a <__rc26>
     b6b: 18           	clc
     b6c: 69 80        	adc	#$80
     b6e: 85 2a        	sta	$2a                     ; 0x2a <__rc26>
     b70: a5 2b        	lda	$2b                     ; 0x2b <__rc27>
     b72: 69 00        	adc	#$0
     b74: 85 2b        	sta	$2b                     ; 0x2b <__rc27>
     b76: 8a           	txa
     b77: d0 d5        	bne	$b4e <main+0x5f5>
     b79: a2 40        	ldx	#$40
     b7b: a4 2c        	ldy	$2c                     ; 0x2c <__rc28>
     b7d: 84 2a        	sty	$2a                     ; 0x2a <__rc26>
     b7f: a4 2d        	ldy	$2d                     ; 0x2d <__rc29>
     b81: 84 2b        	sty	$2b                     ; 0x2b <__rc27>
     b83: a4 2a        	ldy	$2a                     ; 0x2a <__rc26>
     b85: 84 12        	sty	$12                     ; 0x12 <__rc2>
     b87: a4 2b        	ldy	$2b                     ; 0x2b <__rc27>
     b89: 84 13        	sty	$13                     ; 0x13 <__rc3>
     b8b: a0 0a        	ldy	#$a
     b8d: b1 10        	lda	($10),y                 ; 0x10 <__rc0>
     b8f: 85 14        	sta	$14                     ; 0x14 <__rc4>
     b91: c8           	iny
     b92: b1 10        	lda	($10),y                 ; 0x10 <__rc0>
     b94: 85 15        	sta	$15                     ; 0x15 <__rc5>
     b96: 86 2e        	stx	$2e                     ; 0x2e <__rc30>
     b98: 20 4c 1b     	jsr	$1b4c <fileRead>
     b9b: a6 2e        	ldx	$2e                     ; 0x2e <__rc30>
     b9d: ca           	dex
     b9e: a5 2a        	lda	$2a                     ; 0x2a <__rc26>
     ba0: 18           	clc
     ba1: 69 80        	adc	#$80
     ba3: 85 2a        	sta	$2a                     ; 0x2a <__rc26>
     ba5: a5 2b        	lda	$2b                     ; 0x2b <__rc27>
     ba7: 69 00        	adc	#$0
     ba9: 85 2b        	sta	$2b                     ; 0x2b <__rc27>
     bab: 8a           	txa
     bac: d0 d5        	bne	$b83 <main+0x62a>
     bae: a0 08        	ldy	#$8
     bb0: a2 00        	ldx	#$0
     bb2: 80 03        	bra	$bb7 <main+0x65e>
     bb4: 98           	tya
     bb5: f0 19        	beq	$bd0 <main+0x677>
     bb7: b2 2c        	lda	($2c)                   ; 0x2c <__rc28>
     bb9: 8d 07 d7     	sta	$d707                   ; 0xd707 <end_block9+0xa9c3>
     bbc: ca           	dex
     bbd: e0 ff        	cpx	#$ff
     bbf: f0 06        	beq	$bc7 <main+0x66e>
     bc1: e6 2c        	inc	$2c                     ; 0x2c <__rc28>
     bc3: d0 ef        	bne	$bb4 <main+0x65b>
     bc5: 80 05        	bra	$bcc <main+0x673>
     bc7: 88           	dey
     bc8: e6 2c        	inc	$2c                     ; 0x2c <__rc28>
     bca: d0 e8        	bne	$bb4 <main+0x65b>
     bcc: e6 2d        	inc	$2d                     ; 0x2d <__rc29>
     bce: 80 e4        	bra	$bb4 <main+0x65b>
     bd0: 8a           	txa
     bd1: d0 e4        	bne	$bb7 <main+0x65e>
     bd3: 18           	clc
     bd4: a5 10        	lda	$10                     ; 0x10 <__rc0>
     bd6: 69 0e        	adc	#$e
     bd8: 48           	pha
     bd9: a5 11        	lda	$11                     ; 0x11 <__rc1>
     bdb: 69 00        	adc	#$0
     bdd: 85 12        	sta	$12                     ; 0x12 <__rc2>
     bdf: 68           	pla
     be0: 18           	clc
     be1: 69 00        	adc	#$0
     be3: aa           	tax
     be4: a5 12        	lda	$12                     ; 0x12 <__rc2>
     be6: 69 08        	adc	#$8
     be8: 86 12        	stx	$12                     ; 0x12 <__rc2>
     bea: 85 13        	sta	$13                     ; 0x13 <__rc3>
     bec: a0 08        	ldy	#$8
     bee: a2 00        	ldx	#$0
     bf0: 80 03        	bra	$bf5 <main+0x69c>
     bf2: 98           	tya
     bf3: f0 19        	beq	$c0e <main+0x6b5>
     bf5: b2 12        	lda	($12)                   ; 0x12 <__rc2>
     bf7: 8d 07 d7     	sta	$d707                   ; 0xd707 <end_block9+0xa9c3>
     bfa: ca           	dex
     bfb: e0 ff        	cpx	#$ff
     bfd: f0 06        	beq	$c05 <main+0x6ac>
     bff: e6 12        	inc	$12                     ; 0x12 <__rc2>
     c01: d0 ef        	bne	$bf2 <main+0x699>
     c03: 80 05        	bra	$c0a <main+0x6b1>
     c05: 88           	dey
     c06: e6 12        	inc	$12                     ; 0x12 <__rc2>
     c08: d0 e8        	bne	$bf2 <main+0x699>
     c0a: e6 13        	inc	$13                     ; 0x13 <__rc3>
     c0c: 80 e4        	bra	$bf2 <main+0x699>
     c0e: 8a           	txa
     c0f: d0 e4        	bne	$bf5 <main+0x69c>
     c11: a6 28        	ldx	$28                     ; 0x28 <__rc24>
     c13: 86 12        	stx	$12                     ; 0x12 <__rc2>
     c15: a6 29        	ldx	$29                     ; 0x29 <__rc25>
     c17: 86 13        	stx	$13                     ; 0x13 <__rc3>
     c19: a9 ff        	lda	#$ff
     c1b: a2 c0        	ldx	#$c0
     c1d: a0 12        	ldy	#$12
     c1f: 84 14        	sty	$14                     ; 0x14 <__rc4>
     c21: 20 45 2c     	jsr	$2c45 <__memset>
     c24: a0 10        	ldy	#$10
     c26: a9 00        	lda	#$0
     c28: a2 34        	ldx	#$34
     c2a: 86 2a        	stx	$2a                     ; 0x2a <__rc26>
     c2c: a2 00        	ldx	#$0
     c2e: 86 2b        	stx	$2b                     ; 0x2b <__rc27>
     c30: 64 1f        	stz	$1f                     ; 0x1f <__rc15>
     c32: 64 1e        	stz	$1e                     ; 0x1e <__rc14>
     c34: 84 22        	sty	$22                     ; 0x22 <__rc18>
     c36: 80 10        	bra	$c48 <main+0x6ef>
     c38: a5 1a        	lda	$1a                     ; 0x1a <__rc10>
     c3a: 48           	pha
     c3b: a0 0c        	ldy	#$c
     c3d: b1 10        	lda	($10),y                 ; 0x10 <__rc0>
     c3f: aa           	tax
     c40: 68           	pla
     c41: e0 00        	cpx	#$0
     c43: f0 03        	beq	$c48 <main+0x6ef>
     c45: 4c 00 13     	jmp	$1300 <main+0xda7>
     c48: 85 18        	sta	$18                     ; 0x18 <__rc8>
     c4a: a2 00        	ldx	#$0
     c4c: 64 1d        	stz	$1d                     ; 0x1d <__rc13>
     c4e: 64 23        	stz	$23                     ; 0x23 <__rc19>
     c50: a0 00        	ldy	#$0
     c52: a9 c0        	lda	#$c0
     c54: 64 14        	stz	$14                     ; 0x14 <__rc4>
     c56: 48           	pha
     c57: 98           	tya
     c58: 5a           	phy
     c59: a0 0c        	ldy	#$c
     c5b: 91 10        	sta	($10),y                 ; 0x10 <__rc0>
     c5d: 7a           	ply
     c5e: 68           	pla
     c5f: 80 27        	bra	$c88 <main+0x72f>
     c61: a9 00        	lda	#$0
     c63: a0 01        	ldy	#$1
     c65: 4c 60 0d     	jmp	$d60 <main+0x807>
     c68: 18           	clc
     c69: a5 1d        	lda	$1d                     ; 0x1d <__rc13>
     c6b: 69 c8        	adc	#$c8
     c6d: 85 1d        	sta	$1d                     ; 0x1d <__rc13>
     c6f: a5 23        	lda	$23                     ; 0x23 <__rc19>
     c71: 69 00        	adc	#$0
     c73: 85 23        	sta	$23                     ; 0x23 <__rc19>
     c75: a6 1a        	ldx	$1a                     ; 0x1a <__rc10>
     c77: 86 18        	stx	$18                     ; 0x18 <__rc8>
     c79: a4 28        	ldy	$28                     ; 0x28 <__rc24>
     c7b: a5 2c        	lda	$2c                     ; 0x2c <__rc28>
     c7d: e6 1b        	inc	$1b                     ; 0x1b <__rc11>
     c7f: a6 1b        	ldx	$1b                     ; 0x1b <__rc11>
     c81: e0 03        	cpx	#$3
     c83: d0 03        	bne	$c88 <main+0x72f>
     c85: 4c 78 0f     	jmp	$f78 <main+0xa1f>
     c88: 86 1b        	stx	$1b                     ; 0x1b <__rc11>
     c8a: 64 14        	stz	$14                     ; 0x14 <__rc4>
     c8c: 64 01        	stz	$1                      ; 0x1 <__zp_data_size+0x1>
     c8e: 64 15        	stz	$15                     ; 0x15 <__rc5>
     c90: 85 2c        	sta	$2c                     ; 0x2c <__rc28>
     c92: 84 28        	sty	$28                     ; 0x28 <__rc24>
     c94: a6 18        	ldx	$18                     ; 0x18 <__rc8>
     c96: 86 1a        	stx	$1a                     ; 0x1a <__rc10>
     c98: b2 26        	lda	($26)                   ; 0x26 <__rc22>
     c9a: 85 17        	sta	$17                     ; 0x17 <__rc7>
     c9c: 18           	clc
     c9d: a5 10        	lda	$10                     ; 0x10 <__rc0>
     c9f: 69 ce        	adc	#$ce
     ca1: aa           	tax
     ca2: a5 11        	lda	$11                     ; 0x11 <__rc1>
     ca4: 69 32        	adc	#$32
     ca6: a8           	tay
     ca7: 86 12        	stx	$12                     ; 0x12 <__rc2>
     ca9: 8a           	txa
     caa: 18           	clc
     cab: 65 14        	adc	$14                     ; 0x14 <__rc4>
     cad: 85 16        	sta	$16                     ; 0x16 <__rc6>
     caf: 84 13        	sty	$13                     ; 0x13 <__rc3>
     cb1: 98           	tya
     cb2: 65 15        	adc	$15                     ; 0x15 <__rc5>
     cb4: a6 17        	ldx	$17                     ; 0x17 <__rc7>
     cb6: d0 03        	bne	$cbb <main+0x762>
     cb8: 4c 23 0d     	jmp	$d23 <main+0x7ca>
     cbb: a6 17        	ldx	$17                     ; 0x17 <__rc7>
     cbd: 85 18        	sta	$18                     ; 0x18 <__rc8>
     cbf: a4 16        	ldy	$16                     ; 0x16 <__rc6>
     cc1: 38           	sec
     cc2: a9 c8        	lda	#$c8
     cc4: e5 14        	sbc	$14                     ; 0x14 <__rc4>
     cc6: 86 f3        	stx	$f3                     ; 0xf3 <__rc31+0xc4>
     cc8: 85 f4        	sta	$f4                     ; 0xf4 <__rc31+0xc5>
     cca: 18           	clc
     ccb: a5 10        	lda	$10                     ; 0x10 <__rc0>
     ccd: 69 96        	adc	#$96
     ccf: 85 16        	sta	$16                     ; 0x16 <__rc6>
     cd1: a5 11        	lda	$11                     ; 0x11 <__rc1>
     cd3: 69 33        	adc	#$33
     cd5: 85 17        	sta	$17                     ; 0x17 <__rc7>
     cd7: 20 60 ff     	jsr	$ff60 <end_block9+0xd21c>
     cda: 92 16        	sta	($16)                   ; 0x16 <__rc6>
     cdc: a9 00        	lda	#$0
     cde: 6a           	ror
     cdf: 85 2a        	sta	$2a                     ; 0x2a <__rc26>
     ce1: a6 34        	ldx	$34                     ; 0x34 <kernelError>
     ce3: f0 03        	beq	$ce8 <main+0x78f>
     ce5: 4c 90 0d     	jmp	$d90 <main+0x837>
     ce8: 64 35        	stz	$35                     ; 0x35 <kernelEventData>
     cea: 20 00 ff     	jsr	$ff00 <end_block9+0xd1bc>
     ced: 92 16        	sta	($16)                   ; 0x16 <__rc6>
     cef: a9 00        	lda	#$0
     cf1: 6a           	ror
     cf2: 85 2a        	sta	$2a                     ; 0x2a <__rc26>
     cf4: a6 35        	ldx	$35                     ; 0x35 <kernelEventData>
     cf6: e0 38        	cpx	#$38
     cf8: d0 03        	bne	$cfd <main+0x7a4>
     cfa: 4c 90 0d     	jmp	$d90 <main+0x837>
     cfd: e0 30        	cpx	#$30
     cff: d0 03        	bne	$d04 <main+0x7ab>
     d01: 4c 96 0d     	jmp	$d96 <main+0x83d>
     d04: e0 2c        	cpx	#$2c
     d06: d0 e0        	bne	$ce8 <main+0x78f>
     d08: 84 fb        	sty	$fb                     ; 0xfb <__rc31+0xcc>
     d0a: a6 18        	ldx	$18                     ; 0x18 <__rc8>
     d0c: 86 fc        	stx	$fc                     ; 0xfc <__rc31+0xcd>
     d0e: a6 3b        	ldx	$3b                     ; 0x3b <kernelEventData+0x6>
     d10: 86 fd        	stx	$fd                     ; 0xfd <__rc31+0xce>
     d12: 20 04 ff     	jsr	$ff04 <end_block9+0xd1c0>
     d15: 92 16        	sta	($16)                   ; 0x16 <__rc6>
     d17: a9 00        	lda	#$0
     d19: 6a           	ror
     d1a: 85 2a        	sta	$2a                     ; 0x2a <__rc26>
     d1c: a5 3b        	lda	$3b                     ; 0x3b <kernelEventData+0x6>
     d1e: d0 3e        	bne	$d5e <main+0x805>
     d20: 4c 61 0c     	jmp	$c61 <main+0x708>
     d23: 85 17        	sta	$17                     ; 0x17 <__rc7>
     d25: 80 0a        	bra	$d31 <main+0x7d8>
     d27: 20 0c ff     	jsr	$ff0c <end_block9+0xd1c8>
     d2a: 92 18        	sta	($18)                   ; 0x18 <__rc8>
     d2c: a9 00        	lda	#$0
     d2e: 6a           	ror
     d2f: 85 2a        	sta	$2a                     ; 0x2a <__rc26>
     d31: 64 35        	stz	$35                     ; 0x35 <kernelEventData>
     d33: 18           	clc
     d34: a5 10        	lda	$10                     ; 0x10 <__rc0>
     d36: 69 96        	adc	#$96
     d38: 85 18        	sta	$18                     ; 0x18 <__rc8>
     d3a: a5 11        	lda	$11                     ; 0x11 <__rc1>
     d3c: 69 33        	adc	#$33
     d3e: 85 19        	sta	$19                     ; 0x19 <__rc9>
     d40: 20 00 ff     	jsr	$ff00 <end_block9+0xd1bc>
     d43: 92 18        	sta	($18)                   ; 0x18 <__rc8>
     d45: a9 00        	lda	#$0
     d47: 6a           	ror
     d48: 85 2a        	sta	$2a                     ; 0x2a <__rc26>
     d4a: a6 34        	ldx	$34                     ; 0x34 <kernelError>
     d4c: d0 d9        	bne	$d27 <main+0x7ce>
     d4e: a6 35        	ldx	$35                     ; 0x35 <kernelEventData>
     d50: e0 08        	cpx	#$8
     d52: d0 dd        	bne	$d31 <main+0x7d8>
     d54: a6 3b        	ldx	$3b                     ; 0x3b <kernelEventData+0x6>
     d56: d0 d9        	bne	$d31 <main+0x7d8>
     d58: a5 3a        	lda	$3a                     ; 0x3a <kernelEventData+0x5>
     d5a: 92 16        	sta	($16)                   ; 0x16 <__rc6>
     d5c: a9 01        	lda	#$1
     d5e: a0 00        	ldy	#$0
     d60: 18           	clc
     d61: 65 14        	adc	$14                     ; 0x14 <__rc4>
     d63: 85 16        	sta	$16                     ; 0x16 <__rc6>
     d65: 98           	tya
     d66: 65 15        	adc	$15                     ; 0x15 <__rc5>
     d68: d0 06        	bne	$d70 <main+0x817>
     d6a: a6 16        	ldx	$16                     ; 0x16 <__rc6>
     d6c: e0 c8        	cpx	#$c8
     d6e: 80 04        	bra	$d74 <main+0x81b>
     d70: c9 00        	cmp	#$0
     d72: a6 16        	ldx	$16                     ; 0x16 <__rc6>
     d74: 86 14        	stx	$14                     ; 0x14 <__rc4>
     d76: 85 15        	sta	$15                     ; 0x15 <__rc5>
     d78: a6 1a        	ldx	$1a                     ; 0x1a <__rc10>
     d7a: 86 18        	stx	$18                     ; 0x18 <__rc8>
     d7c: a4 28        	ldy	$28                     ; 0x28 <__rc24>
     d7e: a5 2c        	lda	$2c                     ; 0x2c <__rc28>
     d80: b0 03        	bcs	$d85 <main+0x82c>
     d82: 4c 90 0c     	jmp	$c90 <main+0x737>
     d85: a2 02        	ldx	#$2
     d87: 86 01        	stx	$1                      ; 0x1 <__zp_data_size+0x1>
     d89: a6 16        	ldx	$16                     ; 0x16 <__rc6>
     d8b: d0 20        	bne	$dad <main+0x854>
     d8d: 4c 62 0f     	jmp	$f62 <main+0xa09>
     d90: a2 02        	ldx	#$2
     d92: 86 01        	stx	$1                      ; 0x1 <__zp_data_size+0x1>
     d94: 80 17        	bra	$dad <main+0x854>
     d96: a6 14        	ldx	$14                     ; 0x14 <__rc4>
     d98: 86 16        	stx	$16                     ; 0x16 <__rc6>
     d9a: a6 1a        	ldx	$1a                     ; 0x1a <__rc10>
     d9c: 86 18        	stx	$18                     ; 0x18 <__rc8>
     d9e: a4 28        	ldy	$28                     ; 0x28 <__rc24>
     da0: a5 2c        	lda	$2c                     ; 0x2c <__rc28>
     da2: a2 02        	ldx	#$2
     da4: 86 01        	stx	$1                      ; 0x1 <__zp_data_size+0x1>
     da6: a6 16        	ldx	$16                     ; 0x16 <__rc6>
     da8: d0 03        	bne	$dad <main+0x854>
     daa: 4c 62 0f     	jmp	$f62 <main+0xa09>
     dad: 18           	clc
     dae: a5 10        	lda	$10                     ; 0x10 <__rc0>
     db0: 69 0e        	adc	#$e
     db2: 85 14        	sta	$14                     ; 0x14 <__rc4>
     db4: a5 11        	lda	$11                     ; 0x11 <__rc1>
     db6: 69 20        	adc	#$20
     db8: 85 15        	sta	$15                     ; 0x15 <__rc5>
     dba: a5 1d        	lda	$1d                     ; 0x1d <__rc13>
     dbc: 18           	clc
     dbd: 65 14        	adc	$14                     ; 0x14 <__rc4>
     dbf: 85 14        	sta	$14                     ; 0x14 <__rc4>
     dc1: a5 23        	lda	$23                     ; 0x23 <__rc19>
     dc3: 65 15        	adc	$15                     ; 0x15 <__rc5>
     dc5: 85 15        	sta	$15                     ; 0x15 <__rc5>
     dc7: a6 12        	ldx	$12                     ; 0x12 <__rc2>
     dc9: 86 16        	stx	$16                     ; 0x16 <__rc6>
     dcb: a6 13        	ldx	$13                     ; 0x13 <__rc3>
     dcd: 86 17        	stx	$17                     ; 0x17 <__rc7>
     dcf: a2 00        	ldx	#$0
     dd1: 80 31        	bra	$e04 <main+0x8ab>
     dd3: 18           	clc
     dd4: a5 28        	lda	$28                     ; 0x28 <__rc24>
     dd6: 65 18        	adc	$18                     ; 0x18 <__rc8>
     dd8: 85 28        	sta	$28                     ; 0x28 <__rc24>
     dda: a5 2c        	lda	$2c                     ; 0x2c <__rc28>
     ddc: 65 19        	adc	$19                     ; 0x19 <__rc9>
     dde: 85 2c        	sta	$2c                     ; 0x2c <__rc28>
     de0: a5 16        	lda	$16                     ; 0x16 <__rc6>
     de2: 18           	clc
     de3: 69 0a        	adc	#$a
     de5: 85 16        	sta	$16                     ; 0x16 <__rc6>
     de7: a5 17        	lda	$17                     ; 0x17 <__rc7>
     de9: 69 00        	adc	#$0
     deb: 85 17        	sta	$17                     ; 0x17 <__rc7>
     ded: a5 14        	lda	$14                     ; 0x14 <__rc4>
     def: 18           	clc
     df0: 69 0a        	adc	#$a
     df2: 85 14        	sta	$14                     ; 0x14 <__rc4>
     df4: a5 15        	lda	$15                     ; 0x15 <__rc5>
     df6: 69 00        	adc	#$0
     df8: a6 13        	ldx	$13                     ; 0x13 <__rc3>
     dfa: e8           	inx
     dfb: 85 15        	sta	$15                     ; 0x15 <__rc5>
     dfd: e0 14        	cpx	#$14
     dff: d0 03        	bne	$e04 <main+0x8ab>
     e01: 4c 68 0c     	jmp	$c68 <main+0x70f>
     e04: 86 13        	stx	$13                     ; 0x13 <__rc3>
     e06: a9 00        	lda	#$0
     e08: 64 1c        	stz	$1c                     ; 0x1c <__rc12>
     e0a: a8           	tay
     e0b: 4c ed 0e     	jmp	$eed <main+0x994>
     e0e: a9 07        	lda	#$7
     e10: a0 02        	ldy	#$2
     e12: 91 18        	sta	($18),y                 ; 0x18 <__rc8>
     e14: a5 28        	lda	$28                     ; 0x28 <__rc24>
     e16: 18           	clc
     e17: 65 2e        	adc	$2e                     ; 0x2e <__rc30>
     e19: aa           	tax
     e1a: a5 2c        	lda	$2c                     ; 0x2c <__rc28>
     e1c: 65 1c        	adc	$1c                     ; 0x1c <__rc12>
     e1e: 86 18        	stx	$18                     ; 0x18 <__rc8>
     e20: 85 19        	sta	$19                     ; 0x19 <__rc9>
     e22: a9 10        	lda	#$10
     e24: a4 29        	ldy	$29                     ; 0x29 <__rc25>
     e26: 31 16        	and	($16),y                 ; 0x16 <__rc6>
     e28: a2 20        	ldx	#$20
     e2a: a8           	tay
     e2b: d0 02        	bne	$e2f <main+0x8d6>
     e2d: a2 07        	ldx	#$7
     e2f: a0 03        	ldy	#$3
     e31: 8a           	txa
     e32: 91 18        	sta	($18),y                 ; 0x18 <__rc8>
     e34: a5 28        	lda	$28                     ; 0x28 <__rc24>
     e36: 18           	clc
     e37: 65 2e        	adc	$2e                     ; 0x2e <__rc30>
     e39: aa           	tax
     e3a: a5 2c        	lda	$2c                     ; 0x2c <__rc28>
     e3c: 65 1c        	adc	$1c                     ; 0x1c <__rc12>
     e3e: 86 18        	stx	$18                     ; 0x18 <__rc8>
     e40: 85 19        	sta	$19                     ; 0x19 <__rc9>
     e42: a9 08        	lda	#$8
     e44: a4 29        	ldy	$29                     ; 0x29 <__rc25>
     e46: 31 16        	and	($16),y                 ; 0x16 <__rc6>
     e48: f0 04        	beq	$e4e <main+0x8f5>
     e4a: a9 20        	lda	#$20
     e4c: 80 02        	bra	$e50 <main+0x8f7>
     e4e: a9 07        	lda	#$7
     e50: a0 04        	ldy	#$4
     e52: 91 18        	sta	($18),y                 ; 0x18 <__rc8>
     e54: a5 28        	lda	$28                     ; 0x28 <__rc24>
     e56: 18           	clc
     e57: 65 2e        	adc	$2e                     ; 0x2e <__rc30>
     e59: aa           	tax
     e5a: a5 2c        	lda	$2c                     ; 0x2c <__rc28>
     e5c: 65 1c        	adc	$1c                     ; 0x1c <__rc12>
     e5e: 86 18        	stx	$18                     ; 0x18 <__rc8>
     e60: 85 19        	sta	$19                     ; 0x19 <__rc9>
     e62: 98           	tya
     e63: a4 29        	ldy	$29                     ; 0x29 <__rc25>
     e65: 31 16        	and	($16),y                 ; 0x16 <__rc6>
     e67: a2 20        	ldx	#$20
     e69: a8           	tay
     e6a: d0 02        	bne	$e6e <main+0x915>
     e6c: a2 07        	ldx	#$7
     e6e: a0 05        	ldy	#$5
     e70: 8a           	txa
     e71: 91 18        	sta	($18),y                 ; 0x18 <__rc8>
     e73: a9 02        	lda	#$2
     e75: a4 29        	ldy	$29                     ; 0x29 <__rc25>
     e77: 31 16        	and	($16),y                 ; 0x16 <__rc6>
     e79: f0 04        	beq	$e7f <main+0x926>
     e7b: a0 20        	ldy	#$20
     e7d: 80 02        	bra	$e81 <main+0x928>
     e7f: a0 07        	ldy	#$7
     e81: 98           	tya
     e82: a0 0d        	ldy	#$d
     e84: 91 10        	sta	($10),y                 ; 0x10 <__rc0>
     e86: a5 28        	lda	$28                     ; 0x28 <__rc24>
     e88: 18           	clc
     e89: 65 2e        	adc	$2e                     ; 0x2e <__rc30>
     e8b: aa           	tax
     e8c: a5 2c        	lda	$2c                     ; 0x2c <__rc28>
     e8e: 65 1c        	adc	$1c                     ; 0x1c <__rc12>
     e90: 86 18        	stx	$18                     ; 0x18 <__rc8>
     e92: 85 19        	sta	$19                     ; 0x19 <__rc9>
     e94: a0 06        	ldy	#$6
     e96: 5a           	phy
     e97: a0 0d        	ldy	#$d
     e99: b1 10        	lda	($10),y                 ; 0x10 <__rc0>
     e9b: 7a           	ply
     e9c: 91 18        	sta	($18),y                 ; 0x18 <__rc8>
     e9e: a4 29        	ldy	$29                     ; 0x29 <__rc25>
     ea0: b1 16        	lda	($16),y                 ; 0x16 <__rc6>
     ea2: 29 01        	and	#$1
     ea4: a0 20        	ldy	#$20
     ea6: 48           	pha
     ea7: 98           	tya
     ea8: a0 0d        	ldy	#$d
     eaa: 91 10        	sta	($10),y                 ; 0x10 <__rc0>
     eac: 68           	pla
     ead: d0 07        	bne	$eb6 <main+0x95d>
     eaf: a0 07        	ldy	#$7
     eb1: 98           	tya
     eb2: a0 0d        	ldy	#$d
     eb4: 91 10        	sta	($10),y                 ; 0x10 <__rc0>
     eb6: a5 28        	lda	$28                     ; 0x28 <__rc24>
     eb8: 18           	clc
     eb9: 65 2e        	adc	$2e                     ; 0x2e <__rc30>
     ebb: aa           	tax
     ebc: a5 2c        	lda	$2c                     ; 0x2c <__rc28>
     ebe: 65 1c        	adc	$1c                     ; 0x1c <__rc12>
     ec0: 86 18        	stx	$18                     ; 0x18 <__rc8>
     ec2: 85 19        	sta	$19                     ; 0x19 <__rc9>
     ec4: a0 07        	ldy	#$7
     ec6: 5a           	phy
     ec7: a0 0d        	ldy	#$d
     ec9: b1 10        	lda	($10),y                 ; 0x10 <__rc0>
     ecb: 7a           	ply
     ecc: 91 18        	sta	($18),y                 ; 0x18 <__rc8>
     ece: a4 29        	ldy	$29                     ; 0x29 <__rc25>
     ed0: c8           	iny
     ed1: 18           	clc
     ed2: a5 2e        	lda	$2e                     ; 0x2e <__rc30>
     ed4: 69 08        	adc	#$8
     ed6: 85 18        	sta	$18                     ; 0x18 <__rc8>
     ed8: 85 12        	sta	$12                     ; 0x12 <__rc2>
     eda: a5 1c        	lda	$1c                     ; 0x1c <__rc12>
     edc: 69 00        	adc	#$0
     ede: 85 19        	sta	$19                     ; 0x19 <__rc9>
     ee0: a5 12        	lda	$12                     ; 0x12 <__rc2>
     ee2: a6 19        	ldx	$19                     ; 0x19 <__rc9>
     ee4: 86 1c        	stx	$1c                     ; 0x1c <__rc12>
     ee6: c9 50        	cmp	#$50
     ee8: d0 03        	bne	$eed <main+0x994>
     eea: 4c d3 0d     	jmp	$dd3 <main+0x87a>
     eed: 85 2e        	sta	$2e                     ; 0x2e <__rc30>
     eef: b1 14        	lda	($14),y                 ; 0x14 <__rc4>
     ef1: 85 12        	sta	$12                     ; 0x12 <__rc2>
     ef3: b1 16        	lda	($16),y                 ; 0x16 <__rc6>
     ef5: 85 18        	sta	$18                     ; 0x18 <__rc8>
     ef7: a6 12        	ldx	$12                     ; 0x12 <__rc2>
     ef9: e4 18        	cpx	$18                     ; 0x18 <__rc8>
     efb: f0 d3        	beq	$ed0 <main+0x977>
     efd: a6 2e        	ldx	$2e                     ; 0x2e <__rc30>
     eff: 86 2d        	stx	$2d                     ; 0x2d <__rc29>
     f01: 18           	clc
     f02: 85 24        	sta	$24                     ; 0x24 <__rc20>
     f04: a5 28        	lda	$28                     ; 0x28 <__rc24>
     f06: 65 2e        	adc	$2e                     ; 0x2e <__rc30>
     f08: aa           	tax
     f09: a5 1c        	lda	$1c                     ; 0x1c <__rc12>
     f0b: 85 12        	sta	$12                     ; 0x12 <__rc2>
     f0d: a5 2c        	lda	$2c                     ; 0x2c <__rc28>
     f0f: 65 1c        	adc	$1c                     ; 0x1c <__rc12>
     f11: 86 18        	stx	$18                     ; 0x18 <__rc8>
     f13: 85 19        	sta	$19                     ; 0x19 <__rc9>
     f15: a5 24        	lda	$24                     ; 0x24 <__rc20>
     f17: 91 14        	sta	($14),y                 ; 0x14 <__rc4>
     f19: a2 07        	ldx	#$7
     f1b: a5 24        	lda	$24                     ; 0x24 <__rc20>
     f1d: 10 02        	bpl	$f21 <main+0x9c8>
     f1f: a2 20        	ldx	#$20
     f21: 8a           	txa
     f22: 92 18        	sta	($18)                   ; 0x18 <__rc8>
     f24: a5 28        	lda	$28                     ; 0x28 <__rc24>
     f26: 18           	clc
     f27: 65 2d        	adc	$2d                     ; 0x2d <__rc29>
     f29: aa           	tax
     f2a: a5 2c        	lda	$2c                     ; 0x2c <__rc28>
     f2c: 65 12        	adc	$12                     ; 0x12 <__rc2>
     f2e: 86 18        	stx	$18                     ; 0x18 <__rc8>
     f30: 85 19        	sta	$19                     ; 0x19 <__rc9>
     f32: a9 40        	lda	#$40
     f34: 84 29        	sty	$29                     ; 0x29 <__rc25>
     f36: 31 16        	and	($16),y                 ; 0x16 <__rc6>
     f38: a2 20        	ldx	#$20
     f3a: a8           	tay
     f3b: d0 02        	bne	$f3f <main+0x9e6>
     f3d: a2 07        	ldx	#$7
     f3f: a0 01        	ldy	#$1
     f41: 8a           	txa
     f42: 91 18        	sta	($18),y                 ; 0x18 <__rc8>
     f44: a5 28        	lda	$28                     ; 0x28 <__rc24>
     f46: 18           	clc
     f47: 65 2e        	adc	$2e                     ; 0x2e <__rc30>
     f49: aa           	tax
     f4a: a5 2c        	lda	$2c                     ; 0x2c <__rc28>
     f4c: 65 1c        	adc	$1c                     ; 0x1c <__rc12>
     f4e: 86 18        	stx	$18                     ; 0x18 <__rc8>
     f50: 85 19        	sta	$19                     ; 0x19 <__rc9>
     f52: a9 20        	lda	#$20
     f54: a4 29        	ldy	$29                     ; 0x29 <__rc25>
     f56: 31 16        	and	($16),y                 ; 0x16 <__rc6>
     f58: d0 03        	bne	$f5d <main+0xa04>
     f5a: 4c 0e 0e     	jmp	$e0e <main+0x8b5>
     f5d: a9 20        	lda	#$20
     f5f: 4c 10 0e     	jmp	$e10 <main+0x8b7>
     f62: a2 01        	ldx	#$1
     f64: 48           	pha
     f65: 8a           	txa
     f66: 5a           	phy
     f67: a0 0c        	ldy	#$c
     f69: 91 10        	sta	($10),y                 ; 0x10 <__rc0>
     f6b: 7a           	ply
     f6c: 68           	pla
     f6d: e6 1b        	inc	$1b                     ; 0x1b <__rc11>
     f6f: a6 1b        	ldx	$1b                     ; 0x1b <__rc11>
     f71: e0 03        	cpx	#$3
     f73: f0 03        	beq	$f78 <main+0xa1f>
     f75: 4c 88 0c     	jmp	$c88 <main+0x72f>
     f78: 64 01        	stz	$1                      ; 0x1 <__zp_data_size+0x1>
     f7a: ae 04 d7     	ldx	$d704                   ; 0xd704 <end_block9+0xa9c0>
     f7d: 86 14        	stx	$14                     ; 0x14 <__rc4>
     f7f: ad 05 d7     	lda	$d705                   ; 0xd705 <end_block9+0xa9c1>
     f82: 29 07        	and	#$7
     f84: 85 15        	sta	$15                     ; 0x15 <__rc5>
     f86: a9 00        	lda	#$0
     f88: 38           	sec
     f89: e5 14        	sbc	$14                     ; 0x14 <__rc4>
     f8b: 85 12        	sta	$12                     ; 0x12 <__rc2>
     f8d: a9 08        	lda	#$8
     f8f: e5 15        	sbc	$15                     ; 0x15 <__rc5>
     f91: 06 12        	asl	$12                     ; 0x12 <__rc2>
     f93: 2a           	rol
     f94: 64 15        	stz	$15                     ; 0x15 <__rc5>
     f96: 26 15        	rol	$15                     ; 0x15 <__rc5>
     f98: 06 12        	asl	$12                     ; 0x12 <__rc2>
     f9a: 2a           	rol
     f9b: 85 14        	sta	$14                     ; 0x14 <__rc4>
     f9d: 26 15        	rol	$15                     ; 0x15 <__rc5>
     f9f: d0 07        	bne	$fa8 <main+0xa4f>
     fa1: a5 14        	lda	$14                     ; 0x14 <__rc4>
     fa3: d0 03        	bne	$fa8 <main+0xa4f>
     fa5: 4c 38 0c     	jmp	$c38 <main+0x6df>
     fa8: a0 00        	ldy	#$0
     faa: a2 00        	ldx	#$0
     fac: a5 1a        	lda	$1a                     ; 0x1a <__rc10>
     fae: 84 23        	sty	$23                     ; 0x23 <__rc19>
     fb0: 85 1d        	sta	$1d                     ; 0x1d <__rc13>
     fb2: 18           	clc
     fb3: a5 10        	lda	$10                     ; 0x10 <__rc0>
     fb5: 69 0e        	adc	#$e
     fb7: 85 16        	sta	$16                     ; 0x16 <__rc6>
     fb9: a5 11        	lda	$11                     ; 0x11 <__rc1>
     fbb: 69 00        	adc	#$0
     fbd: 85 17        	sta	$17                     ; 0x17 <__rc7>
     fbf: a5 1e        	lda	$1e                     ; 0x1e <__rc14>
     fc1: 18           	clc
     fc2: 65 16        	adc	$16                     ; 0x16 <__rc6>
     fc4: 85 16        	sta	$16                     ; 0x16 <__rc6>
     fc6: a5 22        	lda	$22                     ; 0x22 <__rc18>
     fc8: 65 17        	adc	$17                     ; 0x17 <__rc7>
     fca: 85 17        	sta	$17                     ; 0x17 <__rc7>
     fcc: b2 16        	lda	($16)                   ; 0x16 <__rc6>
     fce: 8d 07 d7     	sta	$d707                   ; 0xd707 <end_block9+0xa9c3>
     fd1: a0 01        	ldy	#$1
     fd3: b1 16        	lda	($16),y                 ; 0x16 <__rc6>
     fd5: 8d 07 d7     	sta	$d707                   ; 0xd707 <end_block9+0xa9c3>
     fd8: c8           	iny
     fd9: b1 16        	lda	($16),y                 ; 0x16 <__rc6>
     fdb: 8d 07 d7     	sta	$d707                   ; 0xd707 <end_block9+0xa9c3>
     fde: c8           	iny
     fdf: b1 16        	lda	($16),y                 ; 0x16 <__rc6>
     fe1: 8d 07 d7     	sta	$d707                   ; 0xd707 <end_block9+0xa9c3>
     fe4: c8           	iny
     fe5: b1 16        	lda	($16),y                 ; 0x16 <__rc6>
     fe7: 8d 07 d7     	sta	$d707                   ; 0xd707 <end_block9+0xa9c3>
     fea: c8           	iny
     feb: b1 16        	lda	($16),y                 ; 0x16 <__rc6>
     fed: 8d 07 d7     	sta	$d707                   ; 0xd707 <end_block9+0xa9c3>
     ff0: c8           	iny
     ff1: b1 16        	lda	($16),y                 ; 0x16 <__rc6>
     ff3: 8d 07 d7     	sta	$d707                   ; 0xd707 <end_block9+0xa9c3>
     ff6: c8           	iny
     ff7: b1 16        	lda	($16),y                 ; 0x16 <__rc6>
     ff9: 8d 07 d7     	sta	$d707                   ; 0xd707 <end_block9+0xa9c3>
     ffc: c8           	iny
     ffd: b1 16        	lda	($16),y                 ; 0x16 <__rc6>
     fff: 8d 07 d7     	sta	$d707                   ; 0xd707 <end_block9+0xa9c3>
    1002: c8           	iny
    1003: b1 16        	lda	($16),y                 ; 0x16 <__rc6>
    1005: 8d 07 d7     	sta	$d707                   ; 0xd707 <end_block9+0xa9c3>
    1008: c8           	iny
    1009: b1 16        	lda	($16),y                 ; 0x16 <__rc6>
    100b: 8d 07 d7     	sta	$d707                   ; 0xd707 <end_block9+0xa9c3>
    100e: c8           	iny
    100f: b1 16        	lda	($16),y                 ; 0x16 <__rc6>
    1011: 8d 07 d7     	sta	$d707                   ; 0xd707 <end_block9+0xa9c3>
    1014: c8           	iny
    1015: b1 16        	lda	($16),y                 ; 0x16 <__rc6>
    1017: 8d 07 d7     	sta	$d707                   ; 0xd707 <end_block9+0xa9c3>
    101a: c8           	iny
    101b: b1 16        	lda	($16),y                 ; 0x16 <__rc6>
    101d: 8d 07 d7     	sta	$d707                   ; 0xd707 <end_block9+0xa9c3>
    1020: c8           	iny
    1021: b1 16        	lda	($16),y                 ; 0x16 <__rc6>
    1023: 8d 07 d7     	sta	$d707                   ; 0xd707 <end_block9+0xa9c3>
    1026: c8           	iny
    1027: b1 16        	lda	($16),y                 ; 0x16 <__rc6>
    1029: 8d 07 d7     	sta	$d707                   ; 0xd707 <end_block9+0xa9c3>
    102c: c8           	iny
    102d: b1 16        	lda	($16),y                 ; 0x16 <__rc6>
    102f: 8d 07 d7     	sta	$d707                   ; 0xd707 <end_block9+0xa9c3>
    1032: c8           	iny
    1033: b1 16        	lda	($16),y                 ; 0x16 <__rc6>
    1035: 8d 07 d7     	sta	$d707                   ; 0xd707 <end_block9+0xa9c3>
    1038: c8           	iny
    1039: b1 16        	lda	($16),y                 ; 0x16 <__rc6>
    103b: 8d 07 d7     	sta	$d707                   ; 0xd707 <end_block9+0xa9c3>
    103e: c8           	iny
    103f: b1 16        	lda	($16),y                 ; 0x16 <__rc6>
    1041: 8d 07 d7     	sta	$d707                   ; 0xd707 <end_block9+0xa9c3>
    1044: c8           	iny
    1045: b1 16        	lda	($16),y                 ; 0x16 <__rc6>
    1047: 8d 07 d7     	sta	$d707                   ; 0xd707 <end_block9+0xa9c3>
    104a: c8           	iny
    104b: b1 16        	lda	($16),y                 ; 0x16 <__rc6>
    104d: 8d 07 d7     	sta	$d707                   ; 0xd707 <end_block9+0xa9c3>
    1050: c8           	iny
    1051: b1 16        	lda	($16),y                 ; 0x16 <__rc6>
    1053: 8d 07 d7     	sta	$d707                   ; 0xd707 <end_block9+0xa9c3>
    1056: c8           	iny
    1057: b1 16        	lda	($16),y                 ; 0x16 <__rc6>
    1059: 8d 07 d7     	sta	$d707                   ; 0xd707 <end_block9+0xa9c3>
    105c: c8           	iny
    105d: b1 16        	lda	($16),y                 ; 0x16 <__rc6>
    105f: 8d 07 d7     	sta	$d707                   ; 0xd707 <end_block9+0xa9c3>
    1062: c8           	iny
    1063: b1 16        	lda	($16),y                 ; 0x16 <__rc6>
    1065: 8d 07 d7     	sta	$d707                   ; 0xd707 <end_block9+0xa9c3>
    1068: c8           	iny
    1069: b1 16        	lda	($16),y                 ; 0x16 <__rc6>
    106b: 8d 07 d7     	sta	$d707                   ; 0xd707 <end_block9+0xa9c3>
    106e: c8           	iny
    106f: b1 16        	lda	($16),y                 ; 0x16 <__rc6>
    1071: 8d 07 d7     	sta	$d707                   ; 0xd707 <end_block9+0xa9c3>
    1074: c8           	iny
    1075: b1 16        	lda	($16),y                 ; 0x16 <__rc6>
    1077: 8d 07 d7     	sta	$d707                   ; 0xd707 <end_block9+0xa9c3>
    107a: c8           	iny
    107b: b1 16        	lda	($16),y                 ; 0x16 <__rc6>
    107d: 8d 07 d7     	sta	$d707                   ; 0xd707 <end_block9+0xa9c3>
    1080: c8           	iny
    1081: b1 16        	lda	($16),y                 ; 0x16 <__rc6>
    1083: 8d 07 d7     	sta	$d707                   ; 0xd707 <end_block9+0xa9c3>
    1086: c8           	iny
    1087: b1 16        	lda	($16),y                 ; 0x16 <__rc6>
    1089: 8d 07 d7     	sta	$d707                   ; 0xd707 <end_block9+0xa9c3>
    108c: c8           	iny
    108d: b1 16        	lda	($16),y                 ; 0x16 <__rc6>
    108f: 8d 07 d7     	sta	$d707                   ; 0xd707 <end_block9+0xa9c3>
    1092: c8           	iny
    1093: b1 16        	lda	($16),y                 ; 0x16 <__rc6>
    1095: 8d 07 d7     	sta	$d707                   ; 0xd707 <end_block9+0xa9c3>
    1098: c8           	iny
    1099: b1 16        	lda	($16),y                 ; 0x16 <__rc6>
    109b: 8d 07 d7     	sta	$d707                   ; 0xd707 <end_block9+0xa9c3>
    109e: c8           	iny
    109f: b1 16        	lda	($16),y                 ; 0x16 <__rc6>
    10a1: 8d 07 d7     	sta	$d707                   ; 0xd707 <end_block9+0xa9c3>
    10a4: c8           	iny
    10a5: b1 16        	lda	($16),y                 ; 0x16 <__rc6>
    10a7: 8d 07 d7     	sta	$d707                   ; 0xd707 <end_block9+0xa9c3>
    10aa: c8           	iny
    10ab: b1 16        	lda	($16),y                 ; 0x16 <__rc6>
    10ad: 8d 07 d7     	sta	$d707                   ; 0xd707 <end_block9+0xa9c3>
    10b0: c8           	iny
    10b1: b1 16        	lda	($16),y                 ; 0x16 <__rc6>
    10b3: 8d 07 d7     	sta	$d707                   ; 0xd707 <end_block9+0xa9c3>
    10b6: c8           	iny
    10b7: b1 16        	lda	($16),y                 ; 0x16 <__rc6>
    10b9: 8d 07 d7     	sta	$d707                   ; 0xd707 <end_block9+0xa9c3>
    10bc: c8           	iny
    10bd: b1 16        	lda	($16),y                 ; 0x16 <__rc6>
    10bf: 8d 07 d7     	sta	$d707                   ; 0xd707 <end_block9+0xa9c3>
    10c2: c8           	iny
    10c3: b1 16        	lda	($16),y                 ; 0x16 <__rc6>
    10c5: 8d 07 d7     	sta	$d707                   ; 0xd707 <end_block9+0xa9c3>
    10c8: c8           	iny
    10c9: b1 16        	lda	($16),y                 ; 0x16 <__rc6>
    10cb: 8d 07 d7     	sta	$d707                   ; 0xd707 <end_block9+0xa9c3>
    10ce: c8           	iny
    10cf: b1 16        	lda	($16),y                 ; 0x16 <__rc6>
    10d1: 8d 07 d7     	sta	$d707                   ; 0xd707 <end_block9+0xa9c3>
    10d4: c8           	iny
    10d5: b1 16        	lda	($16),y                 ; 0x16 <__rc6>
    10d7: 8d 07 d7     	sta	$d707                   ; 0xd707 <end_block9+0xa9c3>
    10da: c8           	iny
    10db: b1 16        	lda	($16),y                 ; 0x16 <__rc6>
    10dd: 8d 07 d7     	sta	$d707                   ; 0xd707 <end_block9+0xa9c3>
    10e0: c8           	iny
    10e1: b1 16        	lda	($16),y                 ; 0x16 <__rc6>
    10e3: 8d 07 d7     	sta	$d707                   ; 0xd707 <end_block9+0xa9c3>
    10e6: c8           	iny
    10e7: b1 16        	lda	($16),y                 ; 0x16 <__rc6>
    10e9: 8d 07 d7     	sta	$d707                   ; 0xd707 <end_block9+0xa9c3>
    10ec: c8           	iny
    10ed: b1 16        	lda	($16),y                 ; 0x16 <__rc6>
    10ef: 8d 07 d7     	sta	$d707                   ; 0xd707 <end_block9+0xa9c3>
    10f2: c8           	iny
    10f3: b1 16        	lda	($16),y                 ; 0x16 <__rc6>
    10f5: 8d 07 d7     	sta	$d707                   ; 0xd707 <end_block9+0xa9c3>
    10f8: c8           	iny
    10f9: b1 16        	lda	($16),y                 ; 0x16 <__rc6>
    10fb: 8d 07 d7     	sta	$d707                   ; 0xd707 <end_block9+0xa9c3>
    10fe: c8           	iny
    10ff: b1 16        	lda	($16),y                 ; 0x16 <__rc6>
    1101: 8d 07 d7     	sta	$d707                   ; 0xd707 <end_block9+0xa9c3>
    1104: c8           	iny
    1105: b1 16        	lda	($16),y                 ; 0x16 <__rc6>
    1107: 8d 07 d7     	sta	$d707                   ; 0xd707 <end_block9+0xa9c3>
    110a: c8           	iny
    110b: b1 16        	lda	($16),y                 ; 0x16 <__rc6>
    110d: 8d 07 d7     	sta	$d707                   ; 0xd707 <end_block9+0xa9c3>
    1110: c8           	iny
    1111: b1 16        	lda	($16),y                 ; 0x16 <__rc6>
    1113: 8d 07 d7     	sta	$d707                   ; 0xd707 <end_block9+0xa9c3>
    1116: c8           	iny
    1117: b1 16        	lda	($16),y                 ; 0x16 <__rc6>
    1119: 8d 07 d7     	sta	$d707                   ; 0xd707 <end_block9+0xa9c3>
    111c: c8           	iny
    111d: b1 16        	lda	($16),y                 ; 0x16 <__rc6>
    111f: 8d 07 d7     	sta	$d707                   ; 0xd707 <end_block9+0xa9c3>
    1122: c8           	iny
    1123: b1 16        	lda	($16),y                 ; 0x16 <__rc6>
    1125: 8d 07 d7     	sta	$d707                   ; 0xd707 <end_block9+0xa9c3>
    1128: c8           	iny
    1129: b1 16        	lda	($16),y                 ; 0x16 <__rc6>
    112b: 8d 07 d7     	sta	$d707                   ; 0xd707 <end_block9+0xa9c3>
    112e: c8           	iny
    112f: b1 16        	lda	($16),y                 ; 0x16 <__rc6>
    1131: 8d 07 d7     	sta	$d707                   ; 0xd707 <end_block9+0xa9c3>
    1134: c8           	iny
    1135: b1 16        	lda	($16),y                 ; 0x16 <__rc6>
    1137: 8d 07 d7     	sta	$d707                   ; 0xd707 <end_block9+0xa9c3>
    113a: c8           	iny
    113b: b1 16        	lda	($16),y                 ; 0x16 <__rc6>
    113d: 8d 07 d7     	sta	$d707                   ; 0xd707 <end_block9+0xa9c3>
    1140: c8           	iny
    1141: b1 16        	lda	($16),y                 ; 0x16 <__rc6>
    1143: 8d 07 d7     	sta	$d707                   ; 0xd707 <end_block9+0xa9c3>
    1146: c8           	iny
    1147: b1 16        	lda	($16),y                 ; 0x16 <__rc6>
    1149: 8d 07 d7     	sta	$d707                   ; 0xd707 <end_block9+0xa9c3>
    114c: a5 1e        	lda	$1e                     ; 0x1e <__rc14>
    114e: 18           	clc
    114f: 69 40        	adc	#$40
    1151: 85 12        	sta	$12                     ; 0x12 <__rc2>
    1153: a5 22        	lda	$22                     ; 0x22 <__rc18>
    1155: 69 00        	adc	#$0
    1157: 85 22        	sta	$22                     ; 0x22 <__rc18>
    1159: c9 20        	cmp	#$20
    115b: d0 0c        	bne	$1169 <main+0xc10>
    115d: a4 1d        	ldy	$1d                     ; 0x1d <__rc13>
    115f: a5 12        	lda	$12                     ; 0x12 <__rc2>
    1161: d0 0a        	bne	$116d <main+0xc14>
    1163: a9 00        	lda	#$0
    1165: 64 22        	stz	$22                     ; 0x22 <__rc18>
    1167: 80 04        	bra	$116d <main+0xc14>
    1169: a4 1d        	ldy	$1d                     ; 0x1d <__rc13>
    116b: a5 12        	lda	$12                     ; 0x12 <__rc2>
    116d: 85 1e        	sta	$1e                     ; 0x1e <__rc14>
    116f: 18           	clc
    1170: a5 10        	lda	$10                     ; 0x10 <__rc0>
    1172: 69 0e        	adc	#$e
    1174: 85 16        	sta	$16                     ; 0x16 <__rc6>
    1176: a5 11        	lda	$11                     ; 0x11 <__rc1>
    1178: 69 00        	adc	#$0
    117a: 85 17        	sta	$17                     ; 0x17 <__rc7>
    117c: 98           	tya
    117d: 18           	clc
    117e: 65 16        	adc	$16                     ; 0x16 <__rc6>
    1180: 85 12        	sta	$12                     ; 0x12 <__rc2>
    1182: a5 1f        	lda	$1f                     ; 0x1f <__rc15>
    1184: 65 17        	adc	$17                     ; 0x17 <__rc7>
    1186: 85 13        	sta	$13                     ; 0x13 <__rc3>
    1188: 64 16        	stz	$16                     ; 0x16 <__rc6>
    118a: 64 17        	stz	$17                     ; 0x17 <__rc7>
    118c: a0 0a        	ldy	#$a
    118e: b1 10        	lda	($10),y                 ; 0x10 <__rc0>
    1190: 85 18        	sta	$18                     ; 0x18 <__rc8>
    1192: c8           	iny
    1193: b1 10        	lda	($10),y                 ; 0x10 <__rc0>
    1195: 85 19        	sta	$19                     ; 0x19 <__rc9>
    1197: b2 18        	lda	($18)                   ; 0x18 <__rc8>
    1199: 85 1a        	sta	$1a                     ; 0x1a <__rc10>
    119b: a5 12        	lda	$12                     ; 0x12 <__rc2>
    119d: 18           	clc
    119e: 65 16        	adc	$16                     ; 0x16 <__rc6>
    11a0: 85 18        	sta	$18                     ; 0x18 <__rc8>
    11a2: a5 13        	lda	$13                     ; 0x13 <__rc3>
    11a4: 65 17        	adc	$17                     ; 0x17 <__rc7>
    11a6: a4 1a        	ldy	$1a                     ; 0x1a <__rc10>
    11a8: d0 03        	bne	$11ad <main+0xc54>
    11aa: 4c 1d 12     	jmp	$121d <main+0xcc4>
    11ad: a4 1a        	ldy	$1a                     ; 0x1a <__rc10>
    11af: 85 1b        	sta	$1b                     ; 0x1b <__rc11>
    11b1: a5 18        	lda	$18                     ; 0x18 <__rc8>
    11b3: 85 1a        	sta	$1a                     ; 0x1a <__rc10>
    11b5: 38           	sec
    11b6: a9 40        	lda	#$40
    11b8: e5 16        	sbc	$16                     ; 0x16 <__rc6>
    11ba: 84 f3        	sty	$f3                     ; 0xf3 <__rc31+0xc4>
    11bc: 85 f4        	sta	$f4                     ; 0xf4 <__rc31+0xc5>
    11be: 18           	clc
    11bf: a5 10        	lda	$10                     ; 0x10 <__rc0>
    11c1: 69 96        	adc	#$96
    11c3: 85 18        	sta	$18                     ; 0x18 <__rc8>
    11c5: a5 11        	lda	$11                     ; 0x11 <__rc1>
    11c7: 69 33        	adc	#$33
    11c9: 85 19        	sta	$19                     ; 0x19 <__rc9>
    11cb: 20 60 ff     	jsr	$ff60 <end_block9+0xd21c>
    11ce: 92 18        	sta	($18)                   ; 0x18 <__rc8>
    11d0: a9 00        	lda	#$0
    11d2: 6a           	ror
    11d3: 85 2a        	sta	$2a                     ; 0x2a <__rc26>
    11d5: a4 34        	ldy	$34                     ; 0x34 <kernelError>
    11d7: a9 ff        	lda	#$ff
    11d9: c0 00        	cpy	#$0
    11db: f0 03        	beq	$11e0 <main+0xc87>
    11dd: 4c fc 12     	jmp	$12fc <main+0xda3>
    11e0: 64 35        	stz	$35                     ; 0x35 <kernelEventData>
    11e2: 20 00 ff     	jsr	$ff00 <end_block9+0xd1bc>
    11e5: 92 18        	sta	($18)                   ; 0x18 <__rc8>
    11e7: a9 00        	lda	#$0
    11e9: 6a           	ror
    11ea: 85 2a        	sta	$2a                     ; 0x2a <__rc26>
    11ec: a4 35        	ldy	$35                     ; 0x35 <kernelEventData>
    11ee: c0 38        	cpy	#$38
    11f0: d0 03        	bne	$11f5 <main+0xc9c>
    11f2: 4c 8a 12     	jmp	$128a <main+0xd31>
    11f5: c0 30        	cpy	#$30
    11f7: d0 03        	bne	$11fc <main+0xca3>
    11f9: 4c 90 12     	jmp	$1290 <main+0xd37>
    11fc: c0 2c        	cpy	#$2c
    11fe: d0 e0        	bne	$11e0 <main+0xc87>
    1200: a4 1a        	ldy	$1a                     ; 0x1a <__rc10>
    1202: 84 fb        	sty	$fb                     ; 0xfb <__rc31+0xcc>
    1204: a4 1b        	ldy	$1b                     ; 0x1b <__rc11>
    1206: 84 fc        	sty	$fc                     ; 0xfc <__rc31+0xcd>
    1208: a4 3b        	ldy	$3b                     ; 0x3b <kernelEventData+0x6>
    120a: 84 fd        	sty	$fd                     ; 0xfd <__rc31+0xce>
    120c: 20 04 ff     	jsr	$ff04 <end_block9+0xd1c0>
    120f: 92 18        	sta	($18)                   ; 0x18 <__rc8>
    1211: a9 00        	lda	#$0
    1213: 6a           	ror
    1214: 85 2a        	sta	$2a                     ; 0x2a <__rc26>
    1216: a5 3b        	lda	$3b                     ; 0x3b <kernelEventData+0x6>
    1218: d0 3e        	bne	$1258 <main+0xcff>
    121a: 4c f5 12     	jmp	$12f5 <main+0xd9c>
    121d: 85 19        	sta	$19                     ; 0x19 <__rc9>
    121f: 80 0a        	bra	$122b <main+0xcd2>
    1221: 20 0c ff     	jsr	$ff0c <end_block9+0xd1c8>
    1224: 92 1a        	sta	($1a)                   ; 0x1a <__rc10>
    1226: a9 00        	lda	#$0
    1228: 6a           	ror
    1229: 85 2a        	sta	$2a                     ; 0x2a <__rc26>
    122b: 64 35        	stz	$35                     ; 0x35 <kernelEventData>
    122d: 18           	clc
    122e: a5 10        	lda	$10                     ; 0x10 <__rc0>
    1230: 69 96        	adc	#$96
    1232: 85 1a        	sta	$1a                     ; 0x1a <__rc10>
    1234: a5 11        	lda	$11                     ; 0x11 <__rc1>
    1236: 69 33        	adc	#$33
    1238: 85 1b        	sta	$1b                     ; 0x1b <__rc11>
    123a: 20 00 ff     	jsr	$ff00 <end_block9+0xd1bc>
    123d: 92 1a        	sta	($1a)                   ; 0x1a <__rc10>
    123f: a9 00        	lda	#$0
    1241: 6a           	ror
    1242: 85 2a        	sta	$2a                     ; 0x2a <__rc26>
    1244: a4 34        	ldy	$34                     ; 0x34 <kernelError>
    1246: d0 d9        	bne	$1221 <main+0xcc8>
    1248: a4 35        	ldy	$35                     ; 0x35 <kernelEventData>
    124a: c0 08        	cpy	#$8
    124c: d0 dd        	bne	$122b <main+0xcd2>
    124e: a4 3b        	ldy	$3b                     ; 0x3b <kernelEventData+0x6>
    1250: d0 d9        	bne	$122b <main+0xcd2>
    1252: a5 3a        	lda	$3a                     ; 0x3a <kernelEventData+0x5>
    1254: 92 18        	sta	($18)                   ; 0x18 <__rc8>
    1256: a9 01        	lda	#$1
    1258: a0 00        	ldy	#$0
    125a: 18           	clc
    125b: 65 16        	adc	$16                     ; 0x16 <__rc6>
    125d: 85 18        	sta	$18                     ; 0x18 <__rc8>
    125f: 98           	tya
    1260: 65 17        	adc	$17                     ; 0x17 <__rc7>
    1262: d0 0f        	bne	$1273 <main+0xd1a>
    1264: a4 18        	ldy	$18                     ; 0x18 <__rc8>
    1266: c0 40        	cpy	#$40
    1268: 84 16        	sty	$16                     ; 0x16 <__rc6>
    126a: 85 17        	sta	$17                     ; 0x17 <__rc7>
    126c: a4 1d        	ldy	$1d                     ; 0x1d <__rc13>
    126e: b0 12        	bcs	$1282 <main+0xd29>
    1270: 4c 8c 11     	jmp	$118c <main+0xc33>
    1273: c9 00        	cmp	#$0
    1275: a4 18        	ldy	$18                     ; 0x18 <__rc8>
    1277: 84 16        	sty	$16                     ; 0x16 <__rc6>
    1279: 85 17        	sta	$17                     ; 0x17 <__rc7>
    127b: a4 1d        	ldy	$1d                     ; 0x1d <__rc13>
    127d: b0 03        	bcs	$1282 <main+0xd29>
    127f: 4c 8c 11     	jmp	$118c <main+0xc33>
    1282: a5 18        	lda	$18                     ; 0x18 <__rc8>
    1284: c9 40        	cmp	#$40
    1286: d0 3d        	bne	$12c5 <main+0xd6c>
    1288: 80 12        	bra	$129c <main+0xd43>
    128a: a4 1d        	ldy	$1d                     ; 0x1d <__rc13>
    128c: a9 ff        	lda	#$ff
    128e: 80 35        	bra	$12c5 <main+0xd6c>
    1290: a4 16        	ldy	$16                     ; 0x16 <__rc6>
    1292: 84 18        	sty	$18                     ; 0x18 <__rc8>
    1294: a4 1d        	ldy	$1d                     ; 0x1d <__rc13>
    1296: a5 18        	lda	$18                     ; 0x18 <__rc8>
    1298: c9 40        	cmp	#$40
    129a: d0 29        	bne	$12c5 <main+0xd6c>
    129c: 18           	clc
    129d: 98           	tya
    129e: 69 40        	adc	#$40
    12a0: 85 16        	sta	$16                     ; 0x16 <__rc6>
    12a2: a5 1f        	lda	$1f                     ; 0x1f <__rc15>
    12a4: 69 00        	adc	#$0
    12a6: 85 1f        	sta	$1f                     ; 0x1f <__rc15>
    12a8: c9 20        	cmp	#$20
    12aa: d0 40        	bne	$12ec <main+0xd93>
    12ac: a4 23        	ldy	$23                     ; 0x23 <__rc19>
    12ae: a5 16        	lda	$16                     ; 0x16 <__rc6>
    12b0: d0 09        	bne	$12bb <main+0xd62>
    12b2: a9 00        	lda	#$0
    12b4: 64 1f        	stz	$1f                     ; 0x1f <__rc15>
    12b6: c8           	iny
    12b7: d0 05        	bne	$12be <main+0xd65>
    12b9: 80 1f        	bra	$12da <main+0xd81>
    12bb: c8           	iny
    12bc: f0 1c        	beq	$12da <main+0xd81>
    12be: e4 15        	cpx	$15                     ; 0x15 <__rc5>
    12c0: f0 20        	beq	$12e2 <main+0xd89>
    12c2: 4c ae 0f     	jmp	$fae <main+0xa55>
    12c5: 85 16        	sta	$16                     ; 0x16 <__rc6>
    12c7: 18           	clc
    12c8: 98           	tya
    12c9: 65 16        	adc	$16                     ; 0x16 <__rc6>
    12cb: a8           	tay
    12cc: a5 1f        	lda	$1f                     ; 0x1f <__rc15>
    12ce: 64 12        	stz	$12                     ; 0x12 <__rc2>
    12d0: 65 12        	adc	$12                     ; 0x12 <__rc2>
    12d2: 85 1f        	sta	$1f                     ; 0x1f <__rc15>
    12d4: 98           	tya
    12d5: a4 23        	ldy	$23                     ; 0x23 <__rc19>
    12d7: c8           	iny
    12d8: d0 e4        	bne	$12be <main+0xd65>
    12da: e8           	inx
    12db: e4 15        	cpx	$15                     ; 0x15 <__rc5>
    12dd: f0 03        	beq	$12e2 <main+0xd89>
    12df: 4c ae 0f     	jmp	$fae <main+0xa55>
    12e2: c4 14        	cpy	$14                     ; 0x14 <__rc4>
    12e4: d0 03        	bne	$12e9 <main+0xd90>
    12e6: 4c 3a 0c     	jmp	$c3a <main+0x6e1>
    12e9: 4c ae 0f     	jmp	$fae <main+0xa55>
    12ec: a4 23        	ldy	$23                     ; 0x23 <__rc19>
    12ee: a5 16        	lda	$16                     ; 0x16 <__rc6>
    12f0: c8           	iny
    12f1: f0 e7        	beq	$12da <main+0xd81>
    12f3: 80 c9        	bra	$12be <main+0xd65>
    12f5: a9 00        	lda	#$0
    12f7: a0 01        	ldy	#$1
    12f9: 4c 5a 12     	jmp	$125a <main+0xd01>
    12fc: a4 1d        	ldy	$1d                     ; 0x1d <__rc13>
    12fe: 80 c5        	bra	$12c5 <main+0xd6c>
    1300: b2 26        	lda	($26)                   ; 0x26 <__rc22>
    1302: 85 f3        	sta	$f3                     ; 0xf3 <__rc31+0xc4>
    1304: 18           	clc
    1305: a5 10        	lda	$10                     ; 0x10 <__rc0>
    1307: 69 96        	adc	#$96
    1309: 85 12        	sta	$12                     ; 0x12 <__rc2>
    130b: a5 11        	lda	$11                     ; 0x11 <__rc1>
    130d: 69 33        	adc	#$33
    130f: 85 13        	sta	$13                     ; 0x13 <__rc3>
    1311: a2 34        	ldx	#$34
    1313: 86 16        	stx	$16                     ; 0x16 <__rc6>
    1315: a2 00        	ldx	#$0
    1317: 86 17        	stx	$17                     ; 0x17 <__rc7>
    1319: a5 26        	lda	$26                     ; 0x26 <__rc22>
    131b: 18           	clc
    131c: 69 fe        	adc	#$fe
    131e: 85 18        	sta	$18                     ; 0x18 <__rc8>
    1320: a5 27        	lda	$27                     ; 0x27 <__rc23>
    1322: 69 ff        	adc	#$ff
    1324: a6 18        	ldx	$18                     ; 0x18 <__rc8>
    1326: 86 14        	stx	$14                     ; 0x14 <__rc4>
    1328: aa           	tax
    1329: 85 15        	sta	$15                     ; 0x15 <__rc5>
    132b: 20 68 ff     	jsr	$ff68 <end_block9+0xd224>
    132e: 92 12        	sta	($12)                   ; 0x12 <__rc2>
    1330: a9 00        	lda	#$0
    1332: 6a           	ror
    1333: 85 16        	sta	$16                     ; 0x16 <__rc6>
    1335: b2 14        	lda	($14)                   ; 0x14 <__rc4>
    1337: 85 1e        	sta	$1e                     ; 0x1e <__rc14>
    1339: a0 01        	ldy	#$1
    133b: b1 14        	lda	($14),y                 ; 0x14 <__rc4>
    133d: 85 16        	sta	$16                     ; 0x16 <__rc6>
    133f: a9 fe        	lda	#$fe
    1341: 32 14        	and	($14)                   ; 0x14 <__rc4>
    1343: 85 17        	sta	$17                     ; 0x17 <__rc7>
    1345: a4 18        	ldy	$18                     ; 0x18 <__rc8>
    1347: 84 1d        	sty	$1d                     ; 0x1d <__rc13>
    1349: a5 18        	lda	$18                     ; 0x18 <__rc8>
    134b: 18           	clc
    134c: 65 17        	adc	$17                     ; 0x17 <__rc7>
    134e: a8           	tay
    134f: 8a           	txa
    1350: 86 1c        	stx	$1c                     ; 0x1c <__rc12>
    1352: 65 16        	adc	$16                     ; 0x16 <__rc6>
    1354: 48           	pha
    1355: 5a           	phy
    1356: a0 09        	ldy	#$9
    1358: b1 10        	lda	($10),y                 ; 0x10 <__rc0>
    135a: 7a           	ply
    135b: 85 22        	sta	$22                     ; 0x22 <__rc18>
    135d: 68           	pla
    135e: c5 22        	cmp	$22                     ; 0x22 <__rc18>
    1360: d0 1f        	bne	$1381 <main+0xe28>
    1362: 48           	pha
    1363: 5a           	phy
    1364: a0 08        	ldy	#$8
    1366: b1 10        	lda	($10),y                 ; 0x10 <__rc0>
    1368: 7a           	ply
    1369: 85 18        	sta	$18                     ; 0x18 <__rc8>
    136b: 68           	pla
    136c: c4 18        	cpy	$18                     ; 0x18 <__rc8>
    136e: d0 11        	bne	$1381 <main+0xe28>
    1370: a2 00        	ldx	#$0
    1372: 86 18        	stx	$18                     ; 0x18 <__rc8>
    1374: a2 00        	ldx	#$0
    1376: 86 19        	stx	$19                     ; 0x19 <__rc9>
    1378: a5 1e        	lda	$1e                     ; 0x1e <__rc14>
    137a: 29 01        	and	#$1
    137c: d0 10        	bne	$138e <main+0xe35>
    137e: 4c b6 14     	jmp	$14b6 <main+0xf5d>
    1381: 84 18        	sty	$18                     ; 0x18 <__rc8>
    1383: 85 19        	sta	$19                     ; 0x19 <__rc9>
    1385: a5 1e        	lda	$1e                     ; 0x1e <__rc14>
    1387: 29 01        	and	#$1
    1389: d0 03        	bne	$138e <main+0xe35>
    138b: 4c b6 14     	jmp	$14b6 <main+0xf5d>
    138e: a5 26        	lda	$26                     ; 0x26 <__rc22>
    1390: 18           	clc
    1391: 69 fc        	adc	#$fc
    1393: 85 14        	sta	$14                     ; 0x14 <__rc4>
    1395: a5 27        	lda	$27                     ; 0x27 <__rc23>
    1397: 69 ff        	adc	#$ff
    1399: 85 15        	sta	$15                     ; 0x15 <__rc5>
    139b: a0 01        	ldy	#$1
    139d: a9 00        	lda	#$0
    139f: 38           	sec
    13a0: f2 14        	sbc	($14)                   ; 0x14 <__rc4>
    13a2: 85 1a        	sta	$1a                     ; 0x1a <__rc10>
    13a4: a9 00        	lda	#$0
    13a6: f1 14        	sbc	($14),y                 ; 0x14 <__rc4>
    13a8: 85 15        	sta	$15                     ; 0x15 <__rc5>
    13aa: a5 1d        	lda	$1d                     ; 0x1d <__rc13>
    13ac: 18           	clc
    13ad: 65 1a        	adc	$1a                     ; 0x1a <__rc10>
    13af: 85 14        	sta	$14                     ; 0x14 <__rc4>
    13b1: 85 1b        	sta	$1b                     ; 0x1b <__rc11>
    13b3: a5 1c        	lda	$1c                     ; 0x1c <__rc12>
    13b5: 65 15        	adc	$15                     ; 0x15 <__rc5>
    13b7: 85 15        	sta	$15                     ; 0x15 <__rc5>
    13b9: aa           	tax
    13ba: b1 14        	lda	($14),y                 ; 0x14 <__rc4>
    13bc: 85 1d        	sta	$1d                     ; 0x1d <__rc13>
    13be: a9 fe        	lda	#$fe
    13c0: 32 14        	and	($14)                   ; 0x14 <__rc4>
    13c2: ac 40 2d     	ldy	$2d40                   ; 0x2d40 <_ZN12_GLOBAL__N_19free_sizeE>
    13c5: 85 1f        	sta	$1f                     ; 0x1f <__rc15>
    13c7: 85 1a        	sta	$1a                     ; 0x1a <__rc10>
    13c9: 38           	sec
    13ca: 98           	tya
    13cb: e5 1a        	sbc	$1a                     ; 0x1a <__rc10>
    13cd: 85 1c        	sta	$1c                     ; 0x1c <__rc12>
    13cf: a4 1d        	ldy	$1d                     ; 0x1d <__rc13>
    13d1: 84 1e        	sty	$1e                     ; 0x1e <__rc14>
    13d3: 84 1a        	sty	$1a                     ; 0x1a <__rc10>
    13d5: ad 41 2d     	lda	$2d41                   ; 0x2d41 <_ZN12_GLOBAL__N_19free_sizeE+0x1>
    13d8: e5 1a        	sbc	$1a                     ; 0x1a <__rc10>
    13da: a8           	tay
    13db: 18           	clc
    13dc: a5 1c        	lda	$1c                     ; 0x1c <__rc12>
    13de: 69 02        	adc	#$2
    13e0: 85 1a        	sta	$1a                     ; 0x1a <__rc10>
    13e2: 98           	tya
    13e3: 69 00        	adc	#$0
    13e5: a4 1a        	ldy	$1a                     ; 0x1a <__rc10>
    13e7: 8c 40 2d     	sty	$2d40                   ; 0x2d40 <_ZN12_GLOBAL__N_19free_sizeE>
    13ea: 8d 41 2d     	sta	$2d41                   ; 0x2d41 <_ZN12_GLOBAL__N_19free_sizeE+0x1>
    13ed: a4 1b        	ldy	$1b                     ; 0x1b <__rc11>
    13ef: 84 1d        	sty	$1d                     ; 0x1d <__rc13>
    13f1: a5 1b        	lda	$1b                     ; 0x1b <__rc11>
    13f3: 18           	clc
    13f4: 69 02        	adc	#$2
    13f6: 85 1a        	sta	$1a                     ; 0x1a <__rc10>
    13f8: 86 1c        	stx	$1c                     ; 0x1c <__rc12>
    13fa: 8a           	txa
    13fb: 69 00        	adc	#$0
    13fd: a0 02        	ldy	#$2
    13ff: 85 1b        	sta	$1b                     ; 0x1b <__rc11>
    1401: b1 14        	lda	($14),y                 ; 0x14 <__rc4>
    1403: 85 23        	sta	$23                     ; 0x23 <__rc19>
    1405: 88           	dey
    1406: b1 1a        	lda	($1a),y                 ; 0x1a <__rc10>
    1408: aa           	tax
    1409: c5 15        	cmp	$15                     ; 0x15 <__rc5>
    140b: d0 11        	bne	$141e <main+0xec5>
    140d: a4 23        	ldy	$23                     ; 0x23 <__rc19>
    140f: c4 14        	cpy	$14                     ; 0x14 <__rc4>
    1411: d0 0b        	bne	$141e <main+0xec5>
    1413: a2 00        	ldx	#$0
    1415: 86 1a        	stx	$1a                     ; 0x1a <__rc10>
    1417: a2 00        	ldx	#$0
    1419: 86 1b        	stx	$1b                     ; 0x1b <__rc11>
    141b: 4c 9f 14     	jmp	$149f <main+0xf46>
    141e: a5 1d        	lda	$1d                     ; 0x1d <__rc13>
    1420: a4 1d        	ldy	$1d                     ; 0x1d <__rc13>
    1422: 84 25        	sty	$25                     ; 0x25 <__rc21>
    1424: 18           	clc
    1425: 69 04        	adc	#$4
    1427: 85 1a        	sta	$1a                     ; 0x1a <__rc10>
    1429: a4 1c        	ldy	$1c                     ; 0x1c <__rc12>
    142b: 84 27        	sty	$27                     ; 0x27 <__rc23>
    142d: a5 1c        	lda	$1c                     ; 0x1c <__rc12>
    142f: 69 00        	adc	#$0
    1431: a0 04        	ldy	#$4
    1433: 85 1b        	sta	$1b                     ; 0x1b <__rc11>
    1435: b1 14        	lda	($14),y                 ; 0x14 <__rc4>
    1437: 85 26        	sta	$26                     ; 0x26 <__rc22>
    1439: 18           	clc
    143a: 69 02        	adc	#$2
    143c: 85 1c        	sta	$1c                     ; 0x1c <__rc12>
    143e: a0 01        	ldy	#$1
    1440: b1 1a        	lda	($1a),y                 ; 0x1a <__rc10>
    1442: 85 24        	sta	$24                     ; 0x24 <__rc20>
    1444: 69 00        	adc	#$0
    1446: a4 1c        	ldy	$1c                     ; 0x1c <__rc12>
    1448: 84 1a        	sty	$1a                     ; 0x1a <__rc10>
    144a: 85 1b        	sta	$1b                     ; 0x1b <__rc11>
    144c: a4 26        	ldy	$26                     ; 0x26 <__rc22>
    144e: 84 1c        	sty	$1c                     ; 0x1c <__rc12>
    1450: a4 24        	ldy	$24                     ; 0x24 <__rc20>
    1452: 84 1d        	sty	$1d                     ; 0x1d <__rc13>
    1454: a0 02        	ldy	#$2
    1456: a5 23        	lda	$23                     ; 0x23 <__rc19>
    1458: 91 1c        	sta	($1c),y                 ; 0x1c <__rc12>
    145a: 8a           	txa
    145b: 88           	dey
    145c: 91 1a        	sta	($1a),y                 ; 0x1a <__rc10>
    145e: 18           	clc
    145f: a5 25        	lda	$25                     ; 0x25 <__rc21>
    1461: 69 02        	adc	#$2
    1463: 85 1a        	sta	$1a                     ; 0x1a <__rc10>
    1465: a5 27        	lda	$27                     ; 0x27 <__rc23>
    1467: 69 00        	adc	#$0
    1469: 85 1b        	sta	$1b                     ; 0x1b <__rc11>
    146b: c8           	iny
    146c: b1 14        	lda	($14),y                 ; 0x14 <__rc4>
    146e: aa           	tax
    146f: 88           	dey
    1470: b1 1a        	lda	($1a),y                 ; 0x1a <__rc10>
    1472: 86 1a        	stx	$1a                     ; 0x1a <__rc10>
    1474: 85 1b        	sta	$1b                     ; 0x1b <__rc11>
    1476: 85 1c        	sta	$1c                     ; 0x1c <__rc12>
    1478: a0 04        	ldy	#$4
    147a: a5 26        	lda	$26                     ; 0x26 <__rc22>
    147c: 91 1a        	sta	($1a),y                 ; 0x1a <__rc10>
    147e: 18           	clc
    147f: 8a           	txa
    1480: 69 04        	adc	#$4
    1482: aa           	tax
    1483: a5 1c        	lda	$1c                     ; 0x1c <__rc12>
    1485: 69 00        	adc	#$0
    1487: 86 1c        	stx	$1c                     ; 0x1c <__rc12>
    1489: 85 1d        	sta	$1d                     ; 0x1d <__rc13>
    148b: a5 24        	lda	$24                     ; 0x24 <__rc20>
    148d: a0 01        	ldy	#$1
    148f: 91 1c        	sta	($1c),y                 ; 0x1c <__rc12>
    1491: ae 43 2d     	ldx	$2d43                   ; 0x2d43 <_ZN12_GLOBAL__N_19free_listE+0x1>
    1494: e4 15        	cpx	$15                     ; 0x15 <__rc5>
    1496: d0 11        	bne	$14a9 <main+0xf50>
    1498: ae 42 2d     	ldx	$2d42                   ; 0x2d42 <_ZN12_GLOBAL__N_19free_listE>
    149b: e4 14        	cpx	$14                     ; 0x14 <__rc4>
    149d: d0 0a        	bne	$14a9 <main+0xf50>
    149f: a6 1a        	ldx	$1a                     ; 0x1a <__rc10>
    14a1: a4 1b        	ldy	$1b                     ; 0x1b <__rc11>
    14a3: 8e 42 2d     	stx	$2d42                   ; 0x2d42 <_ZN12_GLOBAL__N_19free_listE>
    14a6: 8c 43 2d     	sty	$2d43                   ; 0x2d43 <_ZN12_GLOBAL__N_19free_listE+0x1>
    14a9: 18           	clc
    14aa: a5 1f        	lda	$1f                     ; 0x1f <__rc15>
    14ac: 65 17        	adc	$17                     ; 0x17 <__rc7>
    14ae: 85 17        	sta	$17                     ; 0x17 <__rc7>
    14b0: a5 1e        	lda	$1e                     ; 0x1e <__rc14>
    14b2: 65 16        	adc	$16                     ; 0x16 <__rc6>
    14b4: 85 16        	sta	$16                     ; 0x16 <__rc6>
    14b6: a2 00        	ldx	#$0
    14b8: 86 1a        	stx	$1a                     ; 0x1a <__rc10>
    14ba: a2 00        	ldx	#$0
    14bc: 86 1b        	stx	$1b                     ; 0x1b <__rc11>
    14be: a6 19        	ldx	$19                     ; 0x19 <__rc9>
    14c0: e4 1b        	cpx	$1b                     ; 0x1b <__rc11>
    14c2: d0 0e        	bne	$14d2 <main+0xf79>
    14c4: a6 18        	ldx	$18                     ; 0x18 <__rc8>
    14c6: e4 1a        	cpx	$1a                     ; 0x1a <__rc10>
    14c8: d0 08        	bne	$14d2 <main+0xf79>
    14ca: a2 01        	ldx	#$1
    14cc: 8e 3f 2d     	stx	$2d3f                   ; 0x2d3f <_ZN12_GLOBAL__N_19last_freeE>
    14cf: 4c 08 16     	jmp	$1608 <main+0x10af>
    14d2: a0 01        	ldy	#$1
    14d4: b1 18        	lda	($18),y                 ; 0x18 <__rc8>
    14d6: a8           	tay
    14d7: a9 fe        	lda	#$fe
    14d9: 32 18        	and	($18)                   ; 0x18 <__rc8>
    14db: 18           	clc
    14dc: 85 1f        	sta	$1f                     ; 0x1f <__rc15>
    14de: 65 18        	adc	$18                     ; 0x18 <__rc8>
    14e0: aa           	tax
    14e1: 98           	tya
    14e2: 84 1e        	sty	$1e                     ; 0x1e <__rc14>
    14e4: 65 19        	adc	$19                     ; 0x19 <__rc9>
    14e6: c5 22        	cmp	$22                     ; 0x22 <__rc18>
    14e8: d0 19        	bne	$1503 <main+0xfaa>
    14ea: 48           	pha
    14eb: a0 08        	ldy	#$8
    14ed: b1 10        	lda	($10),y                 ; 0x10 <__rc0>
    14ef: 85 1a        	sta	$1a                     ; 0x1a <__rc10>
    14f1: 68           	pla
    14f2: e4 1a        	cpx	$1a                     ; 0x1a <__rc10>
    14f4: d0 0d        	bne	$1503 <main+0xfaa>
    14f6: a9 01        	lda	#$1
    14f8: 64 1a        	stz	$1a                     ; 0x1a <__rc10>
    14fa: 2d 3f 2d     	and	$2d3f                   ; 0x2d3f <_ZN12_GLOBAL__N_19last_freeE>
    14fd: a6 1a        	ldx	$1a                     ; 0x1a <__rc10>
    14ff: d0 16        	bne	$1517 <main+0xfbe>
    1501: 80 0e        	bra	$1511 <main+0xfb8>
    1503: 86 1a        	stx	$1a                     ; 0x1a <__rc10>
    1505: 85 1b        	sta	$1b                     ; 0x1b <__rc11>
    1507: a9 01        	lda	#$1
    1509: 32 1a        	and	($1a)                   ; 0x1a <__rc10>
    150b: 64 1a        	stz	$1a                     ; 0x1a <__rc10>
    150d: a6 1a        	ldx	$1a                     ; 0x1a <__rc10>
    150f: d0 06        	bne	$1517 <main+0xfbe>
    1511: aa           	tax
    1512: d0 03        	bne	$1517 <main+0xfbe>
    1514: 4c fc 15     	jmp	$15fc <main+0x10a3>
    1517: ad 40 2d     	lda	$2d40                   ; 0x2d40 <_ZN12_GLOBAL__N_19free_sizeE>
    151a: ae 41 2d     	ldx	$2d41                   ; 0x2d41 <_ZN12_GLOBAL__N_19free_sizeE+0x1>
    151d: 86 1b        	stx	$1b                     ; 0x1b <__rc11>
    151f: 38           	sec
    1520: e5 1f        	sbc	$1f                     ; 0x1f <__rc15>
    1522: aa           	tax
    1523: a5 1b        	lda	$1b                     ; 0x1b <__rc11>
    1525: e5 1e        	sbc	$1e                     ; 0x1e <__rc14>
    1527: 85 1a        	sta	$1a                     ; 0x1a <__rc10>
    1529: 18           	clc
    152a: 8a           	txa
    152b: 69 02        	adc	#$2
    152d: 85 1b        	sta	$1b                     ; 0x1b <__rc11>
    152f: a5 1a        	lda	$1a                     ; 0x1a <__rc10>
    1531: 69 00        	adc	#$0
    1533: a6 1b        	ldx	$1b                     ; 0x1b <__rc11>
    1535: 8e 40 2d     	stx	$2d40                   ; 0x2d40 <_ZN12_GLOBAL__N_19free_sizeE>
    1538: 8d 41 2d     	sta	$2d41                   ; 0x2d41 <_ZN12_GLOBAL__N_19free_sizeE+0x1>
    153b: a5 18        	lda	$18                     ; 0x18 <__rc8>
    153d: 18           	clc
    153e: 69 02        	adc	#$2
    1540: 85 1a        	sta	$1a                     ; 0x1a <__rc10>
    1542: a5 19        	lda	$19                     ; 0x19 <__rc9>
    1544: 69 00        	adc	#$0
    1546: a0 02        	ldy	#$2
    1548: 85 1b        	sta	$1b                     ; 0x1b <__rc11>
    154a: b1 18        	lda	($18),y                 ; 0x18 <__rc8>
    154c: aa           	tax
    154d: 88           	dey
    154e: b1 1a        	lda	($1a),y                 ; 0x1a <__rc10>
    1550: 85 23        	sta	$23                     ; 0x23 <__rc19>
    1552: c5 19        	cmp	$19                     ; 0x19 <__rc9>
    1554: d0 0f        	bne	$1565 <main+0x100c>
    1556: e4 18        	cpx	$18                     ; 0x18 <__rc8>
    1558: d0 0b        	bne	$1565 <main+0x100c>
    155a: a2 00        	ldx	#$0
    155c: 86 1a        	stx	$1a                     ; 0x1a <__rc10>
    155e: a2 00        	ldx	#$0
    1560: 86 1b        	stx	$1b                     ; 0x1b <__rc11>
    1562: 4c e4 15     	jmp	$15e4 <main+0x108b>
    1565: 86 22        	stx	$22                     ; 0x22 <__rc18>
    1567: a6 18        	ldx	$18                     ; 0x18 <__rc8>
    1569: a5 18        	lda	$18                     ; 0x18 <__rc8>
    156b: 86 25        	stx	$25                     ; 0x25 <__rc21>
    156d: 18           	clc
    156e: 69 04        	adc	#$4
    1570: 85 1a        	sta	$1a                     ; 0x1a <__rc10>
    1572: a5 19        	lda	$19                     ; 0x19 <__rc9>
    1574: 69 00        	adc	#$0
    1576: a0 04        	ldy	#$4
    1578: 85 1b        	sta	$1b                     ; 0x1b <__rc11>
    157a: b1 18        	lda	($18),y                 ; 0x18 <__rc8>
    157c: 85 26        	sta	$26                     ; 0x26 <__rc22>
    157e: 18           	clc
    157f: 69 02        	adc	#$2
    1581: 85 1c        	sta	$1c                     ; 0x1c <__rc12>
    1583: a0 01        	ldy	#$1
    1585: b1 1a        	lda	($1a),y                 ; 0x1a <__rc10>
    1587: aa           	tax
    1588: 69 00        	adc	#$0
    158a: a4 1c        	ldy	$1c                     ; 0x1c <__rc12>
    158c: 84 1a        	sty	$1a                     ; 0x1a <__rc10>
    158e: 85 1b        	sta	$1b                     ; 0x1b <__rc11>
    1590: a4 26        	ldy	$26                     ; 0x26 <__rc22>
    1592: 84 1c        	sty	$1c                     ; 0x1c <__rc12>
    1594: 86 1d        	stx	$1d                     ; 0x1d <__rc13>
    1596: a0 02        	ldy	#$2
    1598: a5 22        	lda	$22                     ; 0x22 <__rc18>
    159a: 91 1c        	sta	($1c),y                 ; 0x1c <__rc12>
    159c: a5 23        	lda	$23                     ; 0x23 <__rc19>
    159e: 88           	dey
    159f: 91 1a        	sta	($1a),y                 ; 0x1a <__rc10>
    15a1: 18           	clc
    15a2: a5 25        	lda	$25                     ; 0x25 <__rc21>
    15a4: 69 02        	adc	#$2
    15a6: 85 1a        	sta	$1a                     ; 0x1a <__rc10>
    15a8: a5 19        	lda	$19                     ; 0x19 <__rc9>
    15aa: 69 00        	adc	#$0
    15ac: 85 1b        	sta	$1b                     ; 0x1b <__rc11>
    15ae: c8           	iny
    15af: b1 18        	lda	($18),y                 ; 0x18 <__rc8>
    15b1: 85 1c        	sta	$1c                     ; 0x1c <__rc12>
    15b3: 88           	dey
    15b4: b1 1a        	lda	($1a),y                 ; 0x1a <__rc10>
    15b6: a4 1c        	ldy	$1c                     ; 0x1c <__rc12>
    15b8: 84 1a        	sty	$1a                     ; 0x1a <__rc10>
    15ba: 85 1b        	sta	$1b                     ; 0x1b <__rc11>
    15bc: 85 1d        	sta	$1d                     ; 0x1d <__rc13>
    15be: a0 04        	ldy	#$4
    15c0: a5 26        	lda	$26                     ; 0x26 <__rc22>
    15c2: 91 1a        	sta	($1a),y                 ; 0x1a <__rc10>
    15c4: 18           	clc
    15c5: a5 1c        	lda	$1c                     ; 0x1c <__rc12>
    15c7: 69 04        	adc	#$4
    15c9: 85 1c        	sta	$1c                     ; 0x1c <__rc12>
    15cb: a5 1d        	lda	$1d                     ; 0x1d <__rc13>
    15cd: 69 00        	adc	#$0
    15cf: 85 1d        	sta	$1d                     ; 0x1d <__rc13>
    15d1: 8a           	txa
    15d2: a0 01        	ldy	#$1
    15d4: 91 1c        	sta	($1c),y                 ; 0x1c <__rc12>
    15d6: ae 43 2d     	ldx	$2d43                   ; 0x2d43 <_ZN12_GLOBAL__N_19free_listE+0x1>
    15d9: e4 19        	cpx	$19                     ; 0x19 <__rc9>
    15db: d0 11        	bne	$15ee <main+0x1095>
    15dd: ae 42 2d     	ldx	$2d42                   ; 0x2d42 <_ZN12_GLOBAL__N_19free_listE>
    15e0: e4 18        	cpx	$18                     ; 0x18 <__rc8>
    15e2: d0 0a        	bne	$15ee <main+0x1095>
    15e4: a6 1a        	ldx	$1a                     ; 0x1a <__rc10>
    15e6: a4 1b        	ldy	$1b                     ; 0x1b <__rc11>
    15e8: 8e 42 2d     	stx	$2d42                   ; 0x2d42 <_ZN12_GLOBAL__N_19free_listE>
    15eb: 8c 43 2d     	sty	$2d43                   ; 0x2d43 <_ZN12_GLOBAL__N_19free_listE+0x1>
    15ee: 18           	clc
    15ef: a5 1f        	lda	$1f                     ; 0x1f <__rc15>
    15f1: 65 17        	adc	$17                     ; 0x17 <__rc7>
    15f3: 85 17        	sta	$17                     ; 0x17 <__rc7>
    15f5: a5 1e        	lda	$1e                     ; 0x1e <__rc14>
    15f7: 65 16        	adc	$16                     ; 0x16 <__rc6>
    15f9: aa           	tax
    15fa: 80 0e        	bra	$160a <main+0x10b1>
    15fc: b2 18        	lda	($18)                   ; 0x18 <__rc8>
    15fe: 09 01        	ora	#$1
    1600: 92 18        	sta	($18)                   ; 0x18 <__rc8>
    1602: a0 01        	ldy	#$1
    1604: a5 1e        	lda	$1e                     ; 0x1e <__rc14>
    1606: 91 18        	sta	($18),y                 ; 0x18 <__rc8>
    1608: a6 16        	ldx	$16                     ; 0x16 <__rc6>
    160a: a9 01        	lda	#$1
    160c: 32 14        	and	($14)                   ; 0x14 <__rc4>
    160e: a4 17        	ldy	$17                     ; 0x17 <__rc7>
    1610: 84 18        	sty	$18                     ; 0x18 <__rc8>
    1612: 05 17        	ora	$17                     ; 0x17 <__rc7>
    1614: 92 14        	sta	($14)                   ; 0x14 <__rc4>
    1616: a5 14        	lda	$14                     ; 0x14 <__rc4>
    1618: 18           	clc
    1619: 65 17        	adc	$17                     ; 0x17 <__rc7>
    161b: a8           	tay
    161c: 8a           	txa
    161d: 65 15        	adc	$15                     ; 0x15 <__rc5>
    161f: 85 17        	sta	$17                     ; 0x17 <__rc7>
    1621: 18           	clc
    1622: 98           	tya
    1623: 69 fe        	adc	#$fe
    1625: 85 16        	sta	$16                     ; 0x16 <__rc6>
    1627: a5 17        	lda	$17                     ; 0x17 <__rc7>
    1629: 69 ff        	adc	#$ff
    162b: 85 17        	sta	$17                     ; 0x17 <__rc7>
    162d: a0 01        	ldy	#$1
    162f: 8a           	txa
    1630: 91 14        	sta	($14),y                 ; 0x14 <__rc4>
    1632: a5 18        	lda	$18                     ; 0x18 <__rc8>
    1634: 92 16        	sta	($16)                   ; 0x16 <__rc6>
    1636: 8a           	txa
    1637: 91 16        	sta	($16),y                 ; 0x16 <__rc6>
    1639: b1 14        	lda	($14),y                 ; 0x14 <__rc4>
    163b: 85 16        	sta	$16                     ; 0x16 <__rc6>
    163d: a9 fe        	lda	#$fe
    163f: 32 14        	and	($14)                   ; 0x14 <__rc4>
    1641: 18           	clc
    1642: 6d 40 2d     	adc	$2d40                   ; 0x2d40 <_ZN12_GLOBAL__N_19free_sizeE>
    1645: aa           	tax
    1646: a5 16        	lda	$16                     ; 0x16 <__rc6>
    1648: 6d 41 2d     	adc	$2d41                   ; 0x2d41 <_ZN12_GLOBAL__N_19free_sizeE+0x1>
    164b: 85 16        	sta	$16                     ; 0x16 <__rc6>
    164d: 18           	clc
    164e: 8a           	txa
    164f: 69 fe        	adc	#$fe
    1651: 85 17        	sta	$17                     ; 0x17 <__rc7>
    1653: a5 16        	lda	$16                     ; 0x16 <__rc6>
    1655: 69 ff        	adc	#$ff
    1657: a6 17        	ldx	$17                     ; 0x17 <__rc7>
    1659: 8e 40 2d     	stx	$2d40                   ; 0x2d40 <_ZN12_GLOBAL__N_19free_sizeE>
    165c: 8d 41 2d     	sta	$2d41                   ; 0x2d41 <_ZN12_GLOBAL__N_19free_sizeE+0x1>
    165f: ae 42 2d     	ldx	$2d42                   ; 0x2d42 <_ZN12_GLOBAL__N_19free_listE>
    1662: 86 18        	stx	$18                     ; 0x18 <__rc8>
    1664: ac 43 2d     	ldy	$2d43                   ; 0x2d43 <_ZN12_GLOBAL__N_19free_listE+0x1>
    1667: a2 00        	ldx	#$0
    1669: 86 16        	stx	$16                     ; 0x16 <__rc6>
    166b: a2 00        	ldx	#$0
    166d: 86 17        	stx	$17                     ; 0x17 <__rc7>
    166f: c4 17        	cpy	$17                     ; 0x17 <__rc7>
    1671: d0 40        	bne	$16b3 <main+0x115a>
    1673: a6 18        	ldx	$18                     ; 0x18 <__rc8>
    1675: e4 16        	cpx	$16                     ; 0x16 <__rc6>
    1677: d0 3a        	bne	$16b3 <main+0x115a>
    1679: a0 04        	ldy	#$4
    167b: a5 14        	lda	$14                     ; 0x14 <__rc4>
    167d: 18           	clc
    167e: 69 04        	adc	#$4
    1680: 85 16        	sta	$16                     ; 0x16 <__rc6>
    1682: a5 15        	lda	$15                     ; 0x15 <__rc5>
    1684: 69 00        	adc	#$0
    1686: 18           	clc
    1687: 85 17        	sta	$17                     ; 0x17 <__rc7>
    1689: a5 14        	lda	$14                     ; 0x14 <__rc4>
    168b: 91 14        	sta	($14),y                 ; 0x14 <__rc4>
    168d: a0 02        	ldy	#$2
    168f: 85 19        	sta	$19                     ; 0x19 <__rc9>
    1691: 69 02        	adc	#$2
    1693: 85 18        	sta	$18                     ; 0x18 <__rc8>
    1695: a5 19        	lda	$19                     ; 0x19 <__rc9>
    1697: 91 14        	sta	($14),y                 ; 0x14 <__rc4>
    1699: a5 15        	lda	$15                     ; 0x15 <__rc5>
    169b: 69 00        	adc	#$0
    169d: 85 19        	sta	$19                     ; 0x19 <__rc9>
    169f: 88           	dey
    16a0: a5 15        	lda	$15                     ; 0x15 <__rc5>
    16a2: 91 16        	sta	($16),y                 ; 0x16 <__rc6>
    16a4: 91 18        	sta	($18),y                 ; 0x18 <__rc8>
    16a6: a6 14        	ldx	$14                     ; 0x14 <__rc4>
    16a8: 8e 42 2d     	stx	$2d42                   ; 0x2d42 <_ZN12_GLOBAL__N_19free_listE>
    16ab: a6 15        	ldx	$15                     ; 0x15 <__rc5>
    16ad: 8e 43 2d     	stx	$2d43                   ; 0x2d43 <_ZN12_GLOBAL__N_19free_listE+0x1>
    16b0: 4c 4b 17     	jmp	$174b <main+0x11f2>
    16b3: a6 14        	ldx	$14                     ; 0x14 <__rc4>
    16b5: a5 14        	lda	$14                     ; 0x14 <__rc4>
    16b7: 86 1e        	stx	$1e                     ; 0x1e <__rc14>
    16b9: 18           	clc
    16ba: 69 02        	adc	#$2
    16bc: 85 16        	sta	$16                     ; 0x16 <__rc6>
    16be: a6 15        	ldx	$15                     ; 0x15 <__rc5>
    16c0: 84 1a        	sty	$1a                     ; 0x1a <__rc10>
    16c2: a5 15        	lda	$15                     ; 0x15 <__rc5>
    16c4: 69 00        	adc	#$0
    16c6: 85 17        	sta	$17                     ; 0x17 <__rc7>
    16c8: a5 18        	lda	$18                     ; 0x18 <__rc8>
    16ca: 84 19        	sty	$19                     ; 0x19 <__rc9>
    16cc: a0 02        	ldy	#$2
    16ce: 91 14        	sta	($14),y                 ; 0x14 <__rc4>
    16d0: 85 1b        	sta	$1b                     ; 0x1b <__rc11>
    16d2: 88           	dey
    16d3: a5 1a        	lda	$1a                     ; 0x1a <__rc10>
    16d5: 91 16        	sta	($16),y                 ; 0x16 <__rc6>
    16d7: 18           	clc
    16d8: a5 1b        	lda	$1b                     ; 0x1b <__rc11>
    16da: 69 04        	adc	#$4
    16dc: a8           	tay
    16dd: a5 1a        	lda	$1a                     ; 0x1a <__rc10>
    16df: 69 00        	adc	#$0
    16e1: 84 1a        	sty	$1a                     ; 0x1a <__rc10>
    16e3: 85 1b        	sta	$1b                     ; 0x1b <__rc11>
    16e5: a5 1e        	lda	$1e                     ; 0x1e <__rc14>
    16e7: 18           	clc
    16e8: 69 04        	adc	#$4
    16ea: 85 1c        	sta	$1c                     ; 0x1c <__rc12>
    16ec: a5 15        	lda	$15                     ; 0x15 <__rc5>
    16ee: 69 00        	adc	#$0
    16f0: 85 1d        	sta	$1d                     ; 0x1d <__rc13>
    16f2: a0 04        	ldy	#$4
    16f4: b1 18        	lda	($18),y                 ; 0x18 <__rc8>
    16f6: 85 18        	sta	$18                     ; 0x18 <__rc8>
    16f8: 85 1f        	sta	$1f                     ; 0x1f <__rc15>
    16fa: a0 01        	ldy	#$1
    16fc: b1 1a        	lda	($1a),y                 ; 0x1a <__rc10>
    16fe: 85 19        	sta	$19                     ; 0x19 <__rc9>
    1700: 85 1b        	sta	$1b                     ; 0x1b <__rc11>
    1702: a0 04        	ldy	#$4
    1704: a5 1f        	lda	$1f                     ; 0x1f <__rc15>
    1706: 91 14        	sta	($14),y                 ; 0x14 <__rc4>
    1708: a5 1b        	lda	$1b                     ; 0x1b <__rc11>
    170a: a0 01        	ldy	#$1
    170c: 91 1c        	sta	($1c),y                 ; 0x1c <__rc12>
    170e: 18           	clc
    170f: a5 1f        	lda	$1f                     ; 0x1f <__rc15>
    1711: 69 02        	adc	#$2
    1713: 85 1a        	sta	$1a                     ; 0x1a <__rc10>
    1715: a5 1b        	lda	$1b                     ; 0x1b <__rc11>
    1717: 69 00        	adc	#$0
    1719: 85 1b        	sta	$1b                     ; 0x1b <__rc11>
    171b: a5 1e        	lda	$1e                     ; 0x1e <__rc14>
    171d: c8           	iny
    171e: 91 18        	sta	($18),y                 ; 0x18 <__rc8>
    1720: a5 15        	lda	$15                     ; 0x15 <__rc5>
    1722: 88           	dey
    1723: 91 1a        	sta	($1a),y                 ; 0x1a <__rc10>
    1725: c8           	iny
    1726: b1 14        	lda	($14),y                 ; 0x14 <__rc4>
    1728: 85 14        	sta	$14                     ; 0x14 <__rc4>
    172a: 85 18        	sta	$18                     ; 0x18 <__rc8>
    172c: 88           	dey
    172d: b1 16        	lda	($16),y                 ; 0x16 <__rc6>
    172f: 85 15        	sta	$15                     ; 0x15 <__rc5>
    1731: 85 16        	sta	$16                     ; 0x16 <__rc6>
    1733: a5 1e        	lda	$1e                     ; 0x1e <__rc14>
    1735: a0 04        	ldy	#$4
    1737: 91 14        	sta	($14),y                 ; 0x14 <__rc4>
    1739: 18           	clc
    173a: a5 18        	lda	$18                     ; 0x18 <__rc8>
    173c: 69 04        	adc	#$4
    173e: 85 14        	sta	$14                     ; 0x14 <__rc4>
    1740: a5 16        	lda	$16                     ; 0x16 <__rc6>
    1742: 69 00        	adc	#$0
    1744: 85 15        	sta	$15                     ; 0x15 <__rc5>
    1746: 8a           	txa
    1747: a0 01        	ldy	#$1
    1749: 91 14        	sta	($14),y                 ; 0x14 <__rc4>
    174b: a2 34        	ldx	#$34
    174d: 86 14        	stx	$14                     ; 0x14 <__rc4>
    174f: a2 00        	ldx	#$0
    1751: 86 15        	stx	$15                     ; 0x15 <__rc5>
    1753: 64 35        	stz	$35                     ; 0x35 <kernelEventData>
    1755: 20 00 ff     	jsr	$ff00 <end_block9+0xd1bc>
    1758: 92 12        	sta	($12)                   ; 0x12 <__rc2>
    175a: a9 00        	lda	#$0
    175c: 6a           	ror
    175d: 85 14        	sta	$14                     ; 0x14 <__rc4>
    175f: a6 35        	ldx	$35                     ; 0x35 <kernelEventData>
    1761: e0 32        	cpx	#$32
    1763: f0 04        	beq	$1769 <main+0x1210>
    1765: e0 38        	cpx	#$38
    1767: d0 ea        	bne	$1753 <main+0x11fa>
    1769: 78           	sei
    176a: a2 07        	ldx	#$7
    176c: 86 0f        	stx	$f                      ; 0xf <__zp_bss_size+0x3>
    176e: a2 de        	ldx	#$de
    1770: 8e a2 d6     	stx	$d6a2                   ; 0xd6a2 <end_block9+0xa95e>
    1773: a2 ad        	ldx	#$ad
    1775: 8e a3 d6     	stx	$d6a3                   ; 0xd6a3 <end_block9+0xa95f>
    1778: a2 f0        	ldx	#$f0
    177a: 8e a0 d6     	stx	$d6a0                   ; 0xd6a0 <end_block9+0xa95c>
    177d: 9c a0 d6     	stz	$d6a0                   ; 0xd6a0 <end_block9+0xa95c>
    1780: 6c fc ff     	jmp	($fffc)                 ; 0xfffc <end_block9+0xd2b8>
    1783: a2 00        	ldx	#$0
    1785: 8a           	txa
    1786: 85 20        	sta	$20                     ; 0x20 <__rc16>
    1788: a8           	tay
    1789: b1 10        	lda	($10),y                 ; 0x10 <__rc0>
    178b: 85 2f        	sta	$2f                     ; 0x2f <__rc31>
    178d: c8           	iny
    178e: b1 10        	lda	($10),y                 ; 0x10 <__rc0>
    1790: 85 2e        	sta	$2e                     ; 0x2e <__rc30>
    1792: c8           	iny
    1793: b1 10        	lda	($10),y                 ; 0x10 <__rc0>
    1795: 85 2d        	sta	$2d                     ; 0x2d <__rc29>
    1797: c8           	iny
    1798: b1 10        	lda	($10),y                 ; 0x10 <__rc0>
    179a: 85 2c        	sta	$2c                     ; 0x2c <__rc28>
    179c: c8           	iny
    179d: b1 10        	lda	($10),y                 ; 0x10 <__rc0>
    179f: 85 2b        	sta	$2b                     ; 0x2b <__rc27>
    17a1: c8           	iny
    17a2: b1 10        	lda	($10),y                 ; 0x10 <__rc0>
    17a4: 85 2a        	sta	$2a                     ; 0x2a <__rc26>
    17a6: c8           	iny
    17a7: b1 10        	lda	($10),y                 ; 0x10 <__rc0>
    17a9: 85 29        	sta	$29                     ; 0x29 <__rc25>
    17ab: c8           	iny
    17ac: b1 10        	lda	($10),y                 ; 0x10 <__rc0>
    17ae: 85 28        	sta	$28                     ; 0x28 <__rc24>
    17b0: 7a           	ply
    17b1: 84 27        	sty	$27                     ; 0x27 <__rc23>
    17b3: 7a           	ply
    17b4: 84 26        	sty	$26                     ; 0x26 <__rc22>
    17b6: 7a           	ply
    17b7: 84 25        	sty	$25                     ; 0x25 <__rc21>
    17b9: 7a           	ply
    17ba: 84 24        	sty	$24                     ; 0x24 <__rc20>
    17bc: 18           	clc
    17bd: a5 10        	lda	$10                     ; 0x10 <__rc0>
    17bf: 69 97        	adc	#$97
    17c1: 85 10        	sta	$10                     ; 0x10 <__rc0>
    17c3: a5 11        	lda	$11                     ; 0x11 <__rc1>
    17c5: 69 33        	adc	#$33
    17c7: 85 11        	sta	$11                     ; 0x11 <__rc1>
    17c9: a5 20        	lda	$20                     ; 0x20 <__rc16>
    17cb: 60           	rts

000017cc <fileOpen>:
    17cc: a2 00        	ldx	#$0
    17ce: a0 10        	ldy	#$10
    17d0: a9 44        	lda	#$44
    17d2: 86 14        	stx	$14                     ; 0x14 <__rc4>
    17d4: 84 15        	sty	$15                     ; 0x15 <__rc5>
    17d6: 18           	clc
    17d7: 65 14        	adc	$14                     ; 0x14 <__rc4>
    17d9: 85 17        	sta	$17                     ; 0x17 <__rc7>
    17db: a9 2d        	lda	#$2d
    17dd: 65 15        	adc	$15                     ; 0x15 <__rc5>
    17df: 85 16        	sta	$16                     ; 0x16 <__rc6>
    17e1: b2 12        	lda	($12)                   ; 0x12 <__rc2>
    17e3: d0 03        	bne	$17e8 <fileOpen+0x1c>
    17e5: 4c 49 18     	jmp	$1849 <fileOpen+0x7d>
    17e8: 85 18        	sta	$18                     ; 0x18 <__rc8>
    17ea: a0 00        	ldy	#$0
    17ec: a2 00        	ldx	#$0
    17ee: 86 14        	stx	$14                     ; 0x14 <__rc4>
    17f0: 98           	tya
    17f1: c8           	iny
    17f2: d0 01        	bne	$17f5 <fileOpen+0x29>
    17f4: e8           	inx
    17f5: 18           	clc
    17f6: 65 12        	adc	$12                     ; 0x12 <__rc2>
    17f8: 85 1a        	sta	$1a                     ; 0x1a <__rc10>
    17fa: a5 14        	lda	$14                     ; 0x14 <__rc4>
    17fc: 65 13        	adc	$13                     ; 0x13 <__rc3>
    17fe: 84 19        	sty	$19                     ; 0x19 <__rc9>
    1800: a4 1a        	ldy	$1a                     ; 0x1a <__rc10>
    1802: 84 14        	sty	$14                     ; 0x14 <__rc4>
    1804: 85 15        	sta	$15                     ; 0x15 <__rc5>
    1806: a0 01        	ldy	#$1
    1808: b1 14        	lda	($14),y                 ; 0x14 <__rc4>
    180a: a4 19        	ldy	$19                     ; 0x19 <__rc9>
    180c: c9 00        	cmp	#$0
    180e: d0 de        	bne	$17ee <fileOpen+0x22>
    1810: 8a           	txa
    1811: d0 0a        	bne	$181d <fileOpen+0x51>
    1813: c0 02        	cpy	#$2
    1815: b0 0a        	bcs	$1821 <fileOpen+0x55>
    1817: a6 16        	ldx	$16                     ; 0x16 <__rc6>
    1819: 64 1b        	stz	$1b                     ; 0x1b <__rc11>
    181b: 80 30        	bra	$184d <fileOpen+0x81>
    181d: e0 00        	cpx	#$0
    181f: 90 f6        	bcc	$1817 <fileOpen+0x4b>
    1821: a0 01        	ldy	#$1
    1823: b1 12        	lda	($12),y                 ; 0x12 <__rc2>
    1825: c9 3a        	cmp	#$3a
    1827: d0 20        	bne	$1849 <fileOpen+0x7d>
    1829: a5 18        	lda	$18                     ; 0x18 <__rc8>
    182b: c9 30        	cmp	#$30
    182d: 64 1b        	stz	$1b                     ; 0x1b <__rc11>
    182f: 90 09        	bcc	$183a <fileOpen+0x6e>
    1831: c9 38        	cmp	#$38
    1833: b0 05        	bcs	$183a <fileOpen+0x6e>
    1835: 18           	clc
    1836: 69 d0        	adc	#$d0
    1838: 85 1b        	sta	$1b                     ; 0x1b <__rc11>
    183a: a5 12        	lda	$12                     ; 0x12 <__rc2>
    183c: 18           	clc
    183d: 69 02        	adc	#$2
    183f: 85 12        	sta	$12                     ; 0x12 <__rc2>
    1841: a5 13        	lda	$13                     ; 0x13 <__rc3>
    1843: 69 00        	adc	#$0
    1845: 85 13        	sta	$13                     ; 0x13 <__rc3>
    1847: 80 02        	bra	$184b <fileOpen+0x7f>
    1849: 64 1b        	stz	$1b                     ; 0x1b <__rc11>
    184b: a6 16        	ldx	$16                     ; 0x16 <__rc6>
    184d: a4 17        	ldy	$17                     ; 0x17 <__rc7>
    184f: 84 14        	sty	$14                     ; 0x14 <__rc4>
    1851: 86 15        	stx	$15                     ; 0x15 <__rc5>
    1853: a2 01        	ldx	#$1
    1855: 86 16        	stx	$16                     ; 0x16 <__rc6>
    1857: a2 2d        	ldx	#$2d
    1859: 86 17        	stx	$17                     ; 0x17 <__rc7>
    185b: 64 18        	stz	$18                     ; 0x18 <__rc8>
    185d: 80 0a        	bra	$1869 <fileOpen+0x9d>
    185f: a0 02        	ldy	#$2
    1861: e6 16        	inc	$16                     ; 0x16 <__rc6>
    1863: d0 02        	bne	$1867 <fileOpen+0x9b>
    1865: e6 17        	inc	$17                     ; 0x17 <__rc7>
    1867: 84 18        	sty	$18                     ; 0x18 <__rc8>
    1869: b2 16        	lda	($16)                   ; 0x16 <__rc6>
    186b: c9 61        	cmp	#$61
    186d: f0 f0        	beq	$185f <fileOpen+0x93>
    186f: a0 01        	ldy	#$1
    1871: c9 77        	cmp	#$77
    1873: f0 05        	beq	$187a <fileOpen+0xae>
    1875: aa           	tax
    1876: f0 08        	beq	$1880 <fileOpen+0xb4>
    1878: a4 18        	ldy	$18                     ; 0x18 <__rc8>
    187a: e6 16        	inc	$16                     ; 0x16 <__rc6>
    187c: f0 e7        	beq	$1865 <fileOpen+0x99>
    187e: 80 e7        	bra	$1867 <fileOpen+0x9b>
    1880: a6 18        	ldx	$18                     ; 0x18 <__rc8>
    1882: 86 1a        	stx	$1a                     ; 0x1a <__rc10>
    1884: a6 12        	ldx	$12                     ; 0x12 <__rc2>
    1886: a4 13        	ldy	$13                     ; 0x13 <__rc3>
    1888: 86 fb        	stx	$fb                     ; 0xfb <__rc31+0xcc>
    188a: 84 fc        	sty	$fc                     ; 0xfc <__rc31+0xcd>
    188c: b2 12        	lda	($12)                   ; 0x12 <__rc2>
    188e: f0 2b        	beq	$18bb <fileOpen+0xef>
    1890: 64 17        	stz	$17                     ; 0x17 <__rc7>
    1892: a0 01        	ldy	#$1
    1894: a9 00        	lda	#$0
    1896: 64 16        	stz	$16                     ; 0x16 <__rc6>
    1898: a6 17        	ldx	$17                     ; 0x17 <__rc7>
    189a: e6 17        	inc	$17                     ; 0x17 <__rc7>
    189c: d0 02        	bne	$18a0 <fileOpen+0xd4>
    189e: e6 16        	inc	$16                     ; 0x16 <__rc6>
    18a0: 18           	clc
    18a1: 85 19        	sta	$19                     ; 0x19 <__rc9>
    18a3: 8a           	txa
    18a4: 65 12        	adc	$12                     ; 0x12 <__rc2>
    18a6: 85 18        	sta	$18                     ; 0x18 <__rc8>
    18a8: a5 19        	lda	$19                     ; 0x19 <__rc9>
    18aa: 65 13        	adc	$13                     ; 0x13 <__rc3>
    18ac: 85 19        	sta	$19                     ; 0x19 <__rc9>
    18ae: b1 18        	lda	($18),y                 ; 0x18 <__rc8>
    18b0: aa           	tax
    18b1: a5 16        	lda	$16                     ; 0x16 <__rc6>
    18b3: e0 00        	cpx	#$0
    18b5: d0 e1        	bne	$1898 <fileOpen+0xcc>
    18b7: a4 17        	ldy	$17                     ; 0x17 <__rc7>
    18b9: 80 02        	bra	$18bd <fileOpen+0xf1>
    18bb: a0 00        	ldy	#$0
    18bd: a6 1a        	ldx	$1a                     ; 0x1a <__rc10>
    18bf: 84 fd        	sty	$fd                     ; 0xfd <__rc31+0xce>
    18c1: a4 1b        	ldy	$1b                     ; 0x1b <__rc11>
    18c3: 84 f3        	sty	$f3                     ; 0xf3 <__rc31+0xc4>
    18c5: 86 f5        	stx	$f5                     ; 0xf5 <__rc31+0xc6>
    18c7: a2 3c        	ldx	#$3c
    18c9: a0 00        	ldy	#$0
    18cb: 86 12        	stx	$12                     ; 0x12 <__rc2>
    18cd: 84 13        	sty	$13                     ; 0x13 <__rc3>
    18cf: a2 34        	ldx	#$34
    18d1: 86 16        	stx	$16                     ; 0x16 <__rc6>
    18d3: a2 00        	ldx	#$0
    18d5: 86 17        	stx	$17                     ; 0x17 <__rc7>
    18d7: 20 5c ff     	jsr	$ff5c <end_block9+0xd218>
    18da: 92 12        	sta	($12)                   ; 0x12 <__rc2>
    18dc: a9 00        	lda	#$0
    18de: 6a           	ror
    18df: 85 16        	sta	$16                     ; 0x16 <__rc6>
    18e1: a6 34        	ldx	$34                     ; 0x34 <kernelError>
    18e3: a0 00        	ldy	#$0
    18e5: 84 12        	sty	$12                     ; 0x12 <__rc2>
    18e7: a0 00        	ldy	#$0
    18e9: 84 13        	sty	$13                     ; 0x13 <__rc3>
    18eb: 8a           	txa
    18ec: f0 01        	beq	$18ef <fileOpen+0x123>
    18ee: 60           	rts
    18ef: a6 3c        	ldx	$3c                     ; 0x3c <__rc31+0xd>
    18f1: 86 42        	stx	$42                     ; 0x42 <__rc31+0x13>
    18f3: a2 3d        	ldx	#$3d
    18f5: a0 00        	ldy	#$0
    18f7: 86 18        	stx	$18                     ; 0x18 <__rc8>
    18f9: 84 19        	sty	$19                     ; 0x19 <__rc9>
    18fb: 64 35        	stz	$35                     ; 0x35 <kernelEventData>
    18fd: 20 00 ff     	jsr	$ff00 <end_block9+0xd1bc>
    1900: 92 18        	sta	($18)                   ; 0x18 <__rc8>
    1902: a9 00        	lda	#$0
    1904: 6a           	ror
    1905: 85 16        	sta	$16                     ; 0x16 <__rc6>
    1907: a6 35        	ldx	$35                     ; 0x35 <kernelEventData>
    1909: e0 28        	cpx	#$28
    190b: f0 e1        	beq	$18ee <fileOpen+0x122>
    190d: e0 38        	cpx	#$38
    190f: f0 dd        	beq	$18ee <fileOpen+0x122>
    1911: e0 2a        	cpx	#$2a
    1913: d0 e6        	bne	$18fb <fileOpen+0x12f>
    1915: ad 3e 2d     	lda	$2d3e                   ; 0x2d3e <_ZN12_GLOBAL__N_111initializedE>
    1918: 29 01        	and	#$1
    191a: ae 42 2d     	ldx	$2d42                   ; 0x2d42 <_ZN12_GLOBAL__N_19free_listE>
    191d: ac 43 2d     	ldy	$2d43                   ; 0x2d43 <_ZN12_GLOBAL__N_19free_listE+0x1>
    1920: 86 12        	stx	$12                     ; 0x12 <__rc2>
    1922: 84 13        	sty	$13                     ; 0x13 <__rc3>
    1924: c9 00        	cmp	#$0
    1926: f0 03        	beq	$192b <fileOpen+0x15f>
    1928: 4c 47 1a     	jmp	$1a47 <fileOpen+0x27b>
    192b: 86 18        	stx	$18                     ; 0x18 <__rc8>
    192d: a2 10        	ldx	#$10
    192f: 86 16        	stx	$16                     ; 0x16 <__rc6>
    1931: a9 00        	lda	#$0
    1933: 29 fe        	and	#$fe
    1935: 85 17        	sta	$17                     ; 0x17 <__rc7>
    1937: a9 01        	lda	#$1
    1939: 2d 44 2d     	and	$2d44                   ; 0x2d44 <end_block9>
    193c: 05 17        	ora	$17                     ; 0x17 <__rc7>
    193e: 8d 44 2d     	sta	$2d44                   ; 0x2d44 <end_block9>
    1941: 8e 45 2d     	stx	$2d45                   ; 0x2d45 <end_block9+0x1>
    1944: a9 44        	lda	#$44
    1946: 18           	clc
    1947: 65 17        	adc	$17                     ; 0x17 <__rc7>
    1949: aa           	tax
    194a: a9 2d        	lda	#$2d
    194c: 65 16        	adc	$16                     ; 0x16 <__rc6>
    194e: 85 16        	sta	$16                     ; 0x16 <__rc6>
    1950: 18           	clc
    1951: 8a           	txa
    1952: 69 fe        	adc	#$fe
    1954: aa           	tax
    1955: a5 16        	lda	$16                     ; 0x16 <__rc6>
    1957: 69 ff        	adc	#$ff
    1959: 85 17        	sta	$17                     ; 0x17 <__rc7>
    195b: 86 16        	stx	$16                     ; 0x16 <__rc6>
    195d: a9 00        	lda	#$0
    195f: 92 16        	sta	($16)                   ; 0x16 <__rc6>
    1961: 5a           	phy
    1962: fa           	plx
    1963: a0 01        	ldy	#$1
    1965: a9 10        	lda	#$10
    1967: 91 16        	sta	($16),y                 ; 0x16 <__rc6>
    1969: ac 45 2d     	ldy	$2d45                   ; 0x2d45 <end_block9+0x1>
    196c: 84 1b        	sty	$1b                     ; 0x1b <__rc11>
    196e: a9 fe        	lda	#$fe
    1970: 2d 44 2d     	and	$2d44                   ; 0x2d44 <end_block9>
    1973: ac 41 2d     	ldy	$2d41                   ; 0x2d41 <_ZN12_GLOBAL__N_19free_sizeE+0x1>
    1976: 84 16        	sty	$16                     ; 0x16 <__rc6>
    1978: 18           	clc
    1979: 85 1a        	sta	$1a                     ; 0x1a <__rc10>
    197b: 6d 40 2d     	adc	$2d40                   ; 0x2d40 <_ZN12_GLOBAL__N_19free_sizeE>
    197e: a8           	tay
    197f: a5 16        	lda	$16                     ; 0x16 <__rc6>
    1981: 6d 45 2d     	adc	$2d45                   ; 0x2d45 <end_block9+0x1>
    1984: 85 16        	sta	$16                     ; 0x16 <__rc6>
    1986: 18           	clc
    1987: 98           	tya
    1988: 69 fe        	adc	#$fe
    198a: 85 17        	sta	$17                     ; 0x17 <__rc7>
    198c: a5 16        	lda	$16                     ; 0x16 <__rc6>
    198e: 69 ff        	adc	#$ff
    1990: a4 17        	ldy	$17                     ; 0x17 <__rc7>
    1992: 8c 40 2d     	sty	$2d40                   ; 0x2d40 <_ZN12_GLOBAL__N_19free_sizeE>
    1995: 8d 41 2d     	sta	$2d41                   ; 0x2d41 <_ZN12_GLOBAL__N_19free_sizeE+0x1>
    1998: a0 00        	ldy	#$0
    199a: 84 16        	sty	$16                     ; 0x16 <__rc6>
    199c: a0 00        	ldy	#$0
    199e: 84 17        	sty	$17                     ; 0x17 <__rc7>
    19a0: 8a           	txa
    19a1: e4 17        	cpx	$17                     ; 0x17 <__rc7>
    19a3: d0 27        	bne	$19cc <fileOpen+0x200>
    19a5: a6 18        	ldx	$18                     ; 0x18 <__rc8>
    19a7: e4 16        	cpx	$16                     ; 0x16 <__rc6>
    19a9: d0 21        	bne	$19cc <fileOpen+0x200>
    19ab: a2 44        	ldx	#$44
    19ad: a9 2d        	lda	#$2d
    19af: a0 44        	ldy	#$44
    19b1: 84 12        	sty	$12                     ; 0x12 <__rc2>
    19b3: a0 2d        	ldy	#$2d
    19b5: 84 13        	sty	$13                     ; 0x13 <__rc3>
    19b7: 8e 48 2d     	stx	$2d48                   ; 0x2d48 <end_block9+0x4>
    19ba: 8d 49 2d     	sta	$2d49                   ; 0x2d49 <end_block9+0x5>
    19bd: 8e 46 2d     	stx	$2d46                   ; 0x2d46 <end_block9+0x2>
    19c0: 8d 47 2d     	sta	$2d47                   ; 0x2d47 <end_block9+0x3>
    19c3: 8e 42 2d     	stx	$2d42                   ; 0x2d42 <_ZN12_GLOBAL__N_19free_listE>
    19c6: 8d 43 2d     	sta	$2d43                   ; 0x2d43 <_ZN12_GLOBAL__N_19free_listE+0x1>
    19c9: 4c 35 1a     	jmp	$1a35 <fileOpen+0x269>
    19cc: a6 18        	ldx	$18                     ; 0x18 <__rc8>
    19ce: 8e 46 2d     	stx	$2d46                   ; 0x2d46 <end_block9+0x2>
    19d1: 8d 47 2d     	sta	$2d47                   ; 0x2d47 <end_block9+0x3>
    19d4: 85 17        	sta	$17                     ; 0x17 <__rc7>
    19d6: a0 04        	ldy	#$4
    19d8: 18           	clc
    19d9: a5 18        	lda	$18                     ; 0x18 <__rc8>
    19db: 69 04        	adc	#$4
    19dd: 85 16        	sta	$16                     ; 0x16 <__rc6>
    19df: a5 17        	lda	$17                     ; 0x17 <__rc7>
    19e1: 69 00        	adc	#$0
    19e3: 85 17        	sta	$17                     ; 0x17 <__rc7>
    19e5: b1 12        	lda	($12),y                 ; 0x12 <__rc2>
    19e7: 85 18        	sta	$18                     ; 0x18 <__rc8>
    19e9: a0 01        	ldy	#$1
    19eb: b1 16        	lda	($16),y                 ; 0x16 <__rc6>
    19ed: aa           	tax
    19ee: a4 18        	ldy	$18                     ; 0x18 <__rc8>
    19f0: 84 16        	sty	$16                     ; 0x16 <__rc6>
    19f2: 85 17        	sta	$17                     ; 0x17 <__rc7>
    19f4: 8c 48 2d     	sty	$2d48                   ; 0x2d48 <end_block9+0x4>
    19f7: 8d 49 2d     	sta	$2d49                   ; 0x2d49 <end_block9+0x5>
    19fa: 18           	clc
    19fb: a5 18        	lda	$18                     ; 0x18 <__rc8>
    19fd: 69 02        	adc	#$2
    19ff: 85 18        	sta	$18                     ; 0x18 <__rc8>
    1a01: 8a           	txa
    1a02: 69 00        	adc	#$0
    1a04: a0 02        	ldy	#$2
    1a06: 85 19        	sta	$19                     ; 0x19 <__rc9>
    1a08: a9 44        	lda	#$44
    1a0a: 91 16        	sta	($16),y                 ; 0x16 <__rc6>
    1a0c: a9 2d        	lda	#$2d
    1a0e: 88           	dey
    1a0f: 91 18        	sta	($18),y                 ; 0x18 <__rc8>
    1a11: ae 46 2d     	ldx	$2d46                   ; 0x2d46 <end_block9+0x2>
    1a14: ac 47 2d     	ldy	$2d47                   ; 0x2d47 <end_block9+0x3>
    1a17: 86 16        	stx	$16                     ; 0x16 <__rc6>
    1a19: 84 17        	sty	$17                     ; 0x17 <__rc7>
    1a1b: 84 18        	sty	$18                     ; 0x18 <__rc8>
    1a1d: a0 04        	ldy	#$4
    1a1f: a9 44        	lda	#$44
    1a21: 91 16        	sta	($16),y                 ; 0x16 <__rc6>
    1a23: 18           	clc
    1a24: 8a           	txa
    1a25: 69 04        	adc	#$4
    1a27: 85 16        	sta	$16                     ; 0x16 <__rc6>
    1a29: a5 18        	lda	$18                     ; 0x18 <__rc8>
    1a2b: 69 00        	adc	#$0
    1a2d: 85 17        	sta	$17                     ; 0x17 <__rc7>
    1a2f: a9 2d        	lda	#$2d
    1a31: a0 01        	ldy	#$1
    1a33: 91 16        	sta	($16),y                 ; 0x16 <__rc6>
    1a35: a6 1b        	ldx	$1b                     ; 0x1b <__rc11>
    1a37: a4 1a        	ldy	$1a                     ; 0x1a <__rc10>
    1a39: 8c 44 2d     	sty	$2d44                   ; 0x2d44 <end_block9>
    1a3c: 8e 45 2d     	stx	$2d45                   ; 0x2d45 <end_block9+0x1>
    1a3f: a2 01        	ldx	#$1
    1a41: 8e 3f 2d     	stx	$2d3f                   ; 0x2d3f <_ZN12_GLOBAL__N_19last_freeE>
    1a44: 8e 3e 2d     	stx	$2d3e                   ; 0x2d3e <_ZN12_GLOBAL__N_111initializedE>
    1a47: a0 01        	ldy	#$1
    1a49: 80 24        	bra	$1a6f <fileOpen+0x2a3>
    1a4b: c9 00        	cmp	#$0
    1a4d: b0 32        	bcs	$1a81 <fileOpen+0x2b5>
    1a4f: a5 12        	lda	$12                     ; 0x12 <__rc2>
    1a51: 18           	clc
    1a52: 69 02        	adc	#$2
    1a54: 85 14        	sta	$14                     ; 0x14 <__rc4>
    1a56: a5 13        	lda	$13                     ; 0x13 <__rc3>
    1a58: 69 00        	adc	#$0
    1a5a: 85 15        	sta	$15                     ; 0x15 <__rc5>
    1a5c: a0 02        	ldy	#$2
    1a5e: b1 12        	lda	($12),y                 ; 0x12 <__rc2>
    1a60: 85 12        	sta	$12                     ; 0x12 <__rc2>
    1a62: 88           	dey
    1a63: b1 14        	lda	($14),y                 ; 0x14 <__rc4>
    1a65: 85 13        	sta	$13                     ; 0x13 <__rc3>
    1a67: a6 41        	ldx	$41                     ; 0x41 <__rc31+0x12>
    1a69: 86 14        	stx	$14                     ; 0x14 <__rc4>
    1a6b: a6 40        	ldx	$40                     ; 0x40 <__rc31+0x11>
    1a6d: 86 15        	stx	$15                     ; 0x15 <__rc5>
    1a6f: a6 14        	ldx	$14                     ; 0x14 <__rc4>
    1a71: 86 41        	stx	$41                     ; 0x41 <__rc31+0x12>
    1a73: a6 15        	ldx	$15                     ; 0x15 <__rc5>
    1a75: 86 40        	stx	$40                     ; 0x40 <__rc31+0x11>
    1a77: b1 12        	lda	($12),y                 ; 0x12 <__rc2>
    1a79: d0 d0        	bne	$1a4b <fileOpen+0x27f>
    1a7b: b2 12        	lda	($12)                   ; 0x12 <__rc2>
    1a7d: c9 08        	cmp	#$8
    1a7f: 90 ce        	bcc	$1a4f <fileOpen+0x283>
    1a81: a6 12        	ldx	$12                     ; 0x12 <__rc2>
    1a83: 86 3e        	stx	$3e                     ; 0x3e <__rc31+0xf>
    1a85: a6 13        	ldx	$13                     ; 0x13 <__rc3>
    1a87: 86 3f        	stx	$3f                     ; 0x3f <__rc31+0x10>
    1a89: a6 3e        	ldx	$3e                     ; 0x3e <__rc31+0xf>
    1a8b: 86 12        	stx	$12                     ; 0x12 <__rc2>
    1a8d: a6 3f        	ldx	$3f                     ; 0x3f <__rc31+0x10>
    1a8f: 86 13        	stx	$13                     ; 0x13 <__rc3>
    1a91: 20 54 04     	jsr	$454 <_ZN12_GLOBAL__N_19FreeChunk6removeEv>
    1a94: a6 3e        	ldx	$3e                     ; 0x3e <__rc31+0xf>
    1a96: 86 12        	stx	$12                     ; 0x12 <__rc2>
    1a98: a6 3f        	ldx	$3f                     ; 0x3f <__rc31+0x10>
    1a9a: 86 13        	stx	$13                     ; 0x13 <__rc3>
    1a9c: a4 12        	ldy	$12                     ; 0x12 <__rc2>
    1a9e: 84 14        	sty	$14                     ; 0x14 <__rc4>
    1aa0: 86 15        	stx	$15                     ; 0x15 <__rc5>
    1aa2: a0 01        	ldy	#$1
    1aa4: b1 12        	lda	($12),y                 ; 0x12 <__rc2>
    1aa6: aa           	tax
    1aa7: a9 fe        	lda	#$fe
    1aa9: 32 12        	and	($12)                   ; 0x12 <__rc2>
    1aab: 18           	clc
    1aac: 85 17        	sta	$17                     ; 0x17 <__rc7>
    1aae: 69 f8        	adc	#$f8
    1ab0: a8           	tay
    1ab1: 8a           	txa
    1ab2: 86 16        	stx	$16                     ; 0x16 <__rc6>
    1ab4: 69 ff        	adc	#$ff
    1ab6: d0 06        	bne	$1abe <fileOpen+0x2f2>
    1ab8: 85 18        	sta	$18                     ; 0x18 <__rc8>
    1aba: c0 08        	cpy	#$8
    1abc: 80 04        	bra	$1ac2 <fileOpen+0x2f6>
    1abe: 85 18        	sta	$18                     ; 0x18 <__rc8>
    1ac0: c9 00        	cmp	#$0
    1ac2: a6 41        	ldx	$41                     ; 0x41 <__rc31+0x12>
    1ac4: 86 12        	stx	$12                     ; 0x12 <__rc2>
    1ac6: a6 40        	ldx	$40                     ; 0x40 <__rc31+0x11>
    1ac8: 86 13        	stx	$13                     ; 0x13 <__rc3>
    1aca: a6 17        	ldx	$17                     ; 0x17 <__rc7>
    1acc: 86 43        	stx	$43                     ; 0x43 <__rc31+0x14>
    1ace: 90 3d        	bcc	$1b0d <fileOpen+0x341>
    1ad0: a5 14        	lda	$14                     ; 0x14 <__rc4>
    1ad2: 18           	clc
    1ad3: 69 08        	adc	#$8
    1ad5: 85 12        	sta	$12                     ; 0x12 <__rc2>
    1ad7: a5 15        	lda	$15                     ; 0x15 <__rc5>
    1ad9: 69 00        	adc	#$0
    1adb: 85 13        	sta	$13                     ; 0x13 <__rc3>
    1add: a6 18        	ldx	$18                     ; 0x18 <__rc8>
    1adf: 98           	tya
    1ae0: 20 16 03     	jsr	$316 <_ZN12_GLOBAL__N_19FreeChunk6insertEPvj>
    1ae3: a6 3e        	ldx	$3e                     ; 0x3e <__rc31+0xf>
    1ae5: 86 12        	stx	$12                     ; 0x12 <__rc2>
    1ae7: a6 3f        	ldx	$3f                     ; 0x3f <__rc31+0x10>
    1ae9: 86 13        	stx	$13                     ; 0x13 <__rc3>
    1aeb: a4 12        	ldy	$12                     ; 0x12 <__rc2>
    1aed: 84 14        	sty	$14                     ; 0x14 <__rc4>
    1aef: 86 15        	stx	$15                     ; 0x15 <__rc5>
    1af1: a9 01        	lda	#$1
    1af3: 32 12        	and	($12)                   ; 0x12 <__rc2>
    1af5: 09 08        	ora	#$8
    1af7: 92 12        	sta	($12)                   ; 0x12 <__rc2>
    1af9: a2 08        	ldx	#$8
    1afb: 86 43        	stx	$43                     ; 0x43 <__rc31+0x14>
    1afd: 64 16        	stz	$16                     ; 0x16 <__rc6>
    1aff: a9 00        	lda	#$0
    1b01: a0 01        	ldy	#$1
    1b03: 91 12        	sta	($12),y                 ; 0x12 <__rc2>
    1b05: a6 41        	ldx	$41                     ; 0x41 <__rc31+0x12>
    1b07: 86 12        	stx	$12                     ; 0x12 <__rc2>
    1b09: a6 40        	ldx	$40                     ; 0x40 <__rc31+0x11>
    1b0b: 86 13        	stx	$13                     ; 0x13 <__rc3>
    1b0d: 18           	clc
    1b0e: a5 43        	lda	$43                     ; 0x43 <__rc31+0x14>
    1b10: 65 14        	adc	$14                     ; 0x14 <__rc4>
    1b12: a8           	tay
    1b13: a5 16        	lda	$16                     ; 0x16 <__rc6>
    1b15: 65 15        	adc	$15                     ; 0x15 <__rc5>
    1b17: c5 13        	cmp	$13                     ; 0x13 <__rc3>
    1b19: d0 09        	bne	$1b24 <fileOpen+0x358>
    1b1b: c4 12        	cpy	$12                     ; 0x12 <__rc2>
    1b1d: d0 05        	bne	$1b24 <fileOpen+0x358>
    1b1f: 9c 3f 2d     	stz	$2d3f                   ; 0x2d3f <_ZN12_GLOBAL__N_19last_freeE>
    1b22: 80 14        	bra	$1b38 <fileOpen+0x36c>
    1b24: 84 12        	sty	$12                     ; 0x12 <__rc2>
    1b26: 85 13        	sta	$13                     ; 0x13 <__rc3>
    1b28: a0 01        	ldy	#$1
    1b2a: b1 12        	lda	($12),y                 ; 0x12 <__rc2>
    1b2c: 85 16        	sta	$16                     ; 0x16 <__rc6>
    1b2e: a9 fe        	lda	#$fe
    1b30: 32 12        	and	($12)                   ; 0x12 <__rc2>
    1b32: 92 12        	sta	($12)                   ; 0x12 <__rc2>
    1b34: a5 16        	lda	$16                     ; 0x16 <__rc6>
    1b36: 91 12        	sta	($12),y                 ; 0x12 <__rc2>
    1b38: a0 02        	ldy	#$2
    1b3a: a5 14        	lda	$14                     ; 0x14 <__rc4>
    1b3c: 18           	clc
    1b3d: 69 02        	adc	#$2
    1b3f: 85 12        	sta	$12                     ; 0x12 <__rc2>
    1b41: a5 15        	lda	$15                     ; 0x15 <__rc5>
    1b43: 69 00        	adc	#$0
    1b45: 85 13        	sta	$13                     ; 0x13 <__rc3>
    1b47: a5 42        	lda	$42                     ; 0x42 <__rc31+0x13>
    1b49: 91 14        	sta	($14),y                 ; 0x14 <__rc4>
    1b4b: 60           	rts

00001b4c <fileRead>:
    1b4c: 64 16        	stz	$16                     ; 0x16 <__rc6>
    1b4e: a6 12        	ldx	$12                     ; 0x12 <__rc2>
    1b50: 86 18        	stx	$18                     ; 0x18 <__rc8>
    1b52: a6 13        	ldx	$13                     ; 0x13 <__rc3>
    1b54: 86 19        	stx	$19                     ; 0x19 <__rc9>
    1b56: a2 3c        	ldx	#$3c
    1b58: a0 00        	ldy	#$0
    1b5a: a9 34        	lda	#$34
    1b5c: 85 12        	sta	$12                     ; 0x12 <__rc2>
    1b5e: a9 00        	lda	#$0
    1b60: 85 13        	sta	$13                     ; 0x13 <__rc3>
    1b62: 64 17        	stz	$17                     ; 0x17 <__rc7>
    1b64: b2 14        	lda	($14)                   ; 0x14 <__rc4>
    1b66: 85 1b        	sta	$1b                     ; 0x1b <__rc11>
    1b68: a5 18        	lda	$18                     ; 0x18 <__rc8>
    1b6a: 85 1c        	sta	$1c                     ; 0x1c <__rc12>
    1b6c: a5 18        	lda	$18                     ; 0x18 <__rc8>
    1b6e: 18           	clc
    1b6f: 65 16        	adc	$16                     ; 0x16 <__rc6>
    1b71: 85 1a        	sta	$1a                     ; 0x1a <__rc10>
    1b73: a5 19        	lda	$19                     ; 0x19 <__rc9>
    1b75: 85 1d        	sta	$1d                     ; 0x1d <__rc13>
    1b77: a5 19        	lda	$19                     ; 0x19 <__rc9>
    1b79: 65 17        	adc	$17                     ; 0x17 <__rc7>
    1b7b: e6 1b        	inc	$1b                     ; 0x1b <__rc11>
    1b7d: c6 1b        	dec	$1b                     ; 0x1b <__rc11>
    1b7f: d0 03        	bne	$1b84 <fileRead+0x38>
    1b81: 4c 01 1c     	jmp	$1c01 <fileRead+0xb5>
    1b84: 5a           	phy
    1b85: a4 1b        	ldy	$1b                     ; 0x1b <__rc11>
    1b87: 84 18        	sty	$18                     ; 0x18 <__rc8>
    1b89: 7a           	ply
    1b8a: 85 1b        	sta	$1b                     ; 0x1b <__rc11>
    1b8c: 38           	sec
    1b8d: a9 80        	lda	#$80
    1b8f: e5 16        	sbc	$16                     ; 0x16 <__rc6>
    1b91: 85 19        	sta	$19                     ; 0x19 <__rc9>
    1b93: a5 18        	lda	$18                     ; 0x18 <__rc8>
    1b95: 85 f3        	sta	$f3                     ; 0xf3 <__rc31+0xc4>
    1b97: a5 19        	lda	$19                     ; 0x19 <__rc9>
    1b99: 85 f4        	sta	$f4                     ; 0xf4 <__rc31+0xc5>
    1b9b: a9 3e        	lda	#$3e
    1b9d: 85 18        	sta	$18                     ; 0x18 <__rc8>
    1b9f: a9 00        	lda	#$0
    1ba1: 85 19        	sta	$19                     ; 0x19 <__rc9>
    1ba3: 20 60 ff     	jsr	$ff60 <end_block9+0xd21c>
    1ba6: 92 18        	sta	($18)                   ; 0x18 <__rc8>
    1ba8: a9 00        	lda	#$0
    1baa: 6a           	ror
    1bab: 85 12        	sta	$12                     ; 0x12 <__rc2>
    1bad: a5 34        	lda	$34                     ; 0x34 <kernelError>
    1baf: f0 03        	beq	$1bb4 <fileRead+0x68>
    1bb1: 4c 6d 1c     	jmp	$1c6d <fileRead+0x121>
    1bb4: 64 35        	stz	$35                     ; 0x35 <kernelEventData>
    1bb6: a9 3f        	lda	#$3f
    1bb8: 85 18        	sta	$18                     ; 0x18 <__rc8>
    1bba: a9 00        	lda	#$0
    1bbc: 85 19        	sta	$19                     ; 0x19 <__rc9>
    1bbe: 20 00 ff     	jsr	$ff00 <end_block9+0xd1bc>
    1bc1: 92 18        	sta	($18)                   ; 0x18 <__rc8>
    1bc3: a9 00        	lda	#$0
    1bc5: 6a           	ror
    1bc6: 85 12        	sta	$12                     ; 0x12 <__rc2>
    1bc8: a5 35        	lda	$35                     ; 0x35 <kernelEventData>
    1bca: c9 38        	cmp	#$38
    1bcc: d0 03        	bne	$1bd1 <fileRead+0x85>
    1bce: 4c 6d 1c     	jmp	$1c6d <fileRead+0x121>
    1bd1: c9 30        	cmp	#$30
    1bd3: d0 03        	bne	$1bd8 <fileRead+0x8c>
    1bd5: 4c 6d 1c     	jmp	$1c6d <fileRead+0x121>
    1bd8: c9 2c        	cmp	#$2c
    1bda: d0 d8        	bne	$1bb4 <fileRead+0x68>
    1bdc: a5 1a        	lda	$1a                     ; 0x1a <__rc10>
    1bde: 85 fb        	sta	$fb                     ; 0xfb <__rc31+0xcc>
    1be0: a5 1b        	lda	$1b                     ; 0x1b <__rc11>
    1be2: 85 fc        	sta	$fc                     ; 0xfc <__rc31+0xcd>
    1be4: a5 3b        	lda	$3b                     ; 0x3b <kernelEventData+0x6>
    1be6: 85 fd        	sta	$fd                     ; 0xfd <__rc31+0xce>
    1be8: a9 40        	lda	#$40
    1bea: 85 18        	sta	$18                     ; 0x18 <__rc8>
    1bec: a9 00        	lda	#$0
    1bee: 85 19        	sta	$19                     ; 0x19 <__rc9>
    1bf0: 20 04 ff     	jsr	$ff04 <end_block9+0xd1c0>
    1bf3: 92 18        	sta	($18)                   ; 0x18 <__rc8>
    1bf5: a9 00        	lda	#$0
    1bf7: 6a           	ror
    1bf8: 85 12        	sta	$12                     ; 0x12 <__rc2>
    1bfa: a5 3b        	lda	$3b                     ; 0x3b <kernelEventData+0x6>
    1bfc: d0 43        	bne	$1c41 <fileRead+0xf5>
    1bfe: 4c 6e 1c     	jmp	$1c6e <fileRead+0x122>
    1c01: 5a           	phy
    1c02: a4 1a        	ldy	$1a                     ; 0x1a <__rc10>
    1c04: 84 18        	sty	$18                     ; 0x18 <__rc8>
    1c06: 7a           	ply
    1c07: 85 19        	sta	$19                     ; 0x19 <__rc9>
    1c09: 80 12        	bra	$1c1d <fileRead+0xd1>
    1c0b: a9 3d        	lda	#$3d
    1c0d: 85 1a        	sta	$1a                     ; 0x1a <__rc10>
    1c0f: a9 00        	lda	#$0
    1c11: 85 1b        	sta	$1b                     ; 0x1b <__rc11>
    1c13: 20 0c ff     	jsr	$ff0c <end_block9+0xd1c8>
    1c16: 92 1a        	sta	($1a)                   ; 0x1a <__rc10>
    1c18: a9 00        	lda	#$0
    1c1a: 6a           	ror
    1c1b: 85 12        	sta	$12                     ; 0x12 <__rc2>
    1c1d: 64 35        	stz	$35                     ; 0x35 <kernelEventData>
    1c1f: 86 1a        	stx	$1a                     ; 0x1a <__rc10>
    1c21: 84 1b        	sty	$1b                     ; 0x1b <__rc11>
    1c23: 20 00 ff     	jsr	$ff00 <end_block9+0xd1bc>
    1c26: 92 1a        	sta	($1a)                   ; 0x1a <__rc10>
    1c28: a9 00        	lda	#$0
    1c2a: 6a           	ror
    1c2b: 85 12        	sta	$12                     ; 0x12 <__rc2>
    1c2d: a5 34        	lda	$34                     ; 0x34 <kernelError>
    1c2f: d0 da        	bne	$1c0b <fileRead+0xbf>
    1c31: a5 35        	lda	$35                     ; 0x35 <kernelEventData>
    1c33: c9 08        	cmp	#$8
    1c35: d0 e6        	bne	$1c1d <fileRead+0xd1>
    1c37: a5 3b        	lda	$3b                     ; 0x3b <kernelEventData+0x6>
    1c39: d0 e2        	bne	$1c1d <fileRead+0xd1>
    1c3b: a5 3a        	lda	$3a                     ; 0x3a <kernelEventData+0x5>
    1c3d: 92 18        	sta	($18)                   ; 0x18 <__rc8>
    1c3f: a9 01        	lda	#$1
    1c41: 85 41        	sta	$41                     ; 0x41 <__rc31+0x12>
    1c43: a9 00        	lda	#$0
    1c45: 85 42        	sta	$42                     ; 0x42 <__rc31+0x13>
    1c47: 18           	clc
    1c48: a5 41        	lda	$41                     ; 0x41 <__rc31+0x12>
    1c4a: 65 16        	adc	$16                     ; 0x16 <__rc6>
    1c4c: 85 16        	sta	$16                     ; 0x16 <__rc6>
    1c4e: a5 42        	lda	$42                     ; 0x42 <__rc31+0x13>
    1c50: 65 17        	adc	$17                     ; 0x17 <__rc7>
    1c52: d0 08        	bne	$1c5c <fileRead+0x110>
    1c54: 85 17        	sta	$17                     ; 0x17 <__rc7>
    1c56: a5 16        	lda	$16                     ; 0x16 <__rc6>
    1c58: c9 80        	cmp	#$80
    1c5a: 80 04        	bra	$1c60 <fileRead+0x114>
    1c5c: c9 00        	cmp	#$0
    1c5e: 85 17        	sta	$17                     ; 0x17 <__rc7>
    1c60: a5 1c        	lda	$1c                     ; 0x1c <__rc12>
    1c62: 85 18        	sta	$18                     ; 0x18 <__rc8>
    1c64: a5 1d        	lda	$1d                     ; 0x1d <__rc13>
    1c66: 85 19        	sta	$19                     ; 0x19 <__rc9>
    1c68: b0 03        	bcs	$1c6d <fileRead+0x121>
    1c6a: 4c 64 1b     	jmp	$1b64 <fileRead+0x18>
    1c6d: 60           	rts
    1c6e: a9 00        	lda	#$0
    1c70: 85 41        	sta	$41                     ; 0x41 <__rc31+0x12>
    1c72: 1a           	inc
    1c73: 80 d0        	bra	$1c45 <fileRead+0xf9>

00001c75 <exit>:
    1c75: 20 14 03     	jsr	$314 <_fini>
    1c78: 80 fe        	bra	$1c78 <exit+0x3>

00001c7a <_ZN12_GLOBAL__N_13putEcP6Status>:
    1c7a: 85 18        	sta	$18                     ; 0x18 <__rc8>
    1c7c: a6 13        	ldx	$13                     ; 0x13 <__rc3>
    1c7e: 18           	clc
    1c7f: a5 12        	lda	$12                     ; 0x12 <__rc2>
    1c81: 69 05        	adc	#$5
    1c83: a8           	tay
    1c84: a5 13        	lda	$13                     ; 0x13 <__rc3>
    1c86: 86 15        	stx	$15                     ; 0x15 <__rc5>
    1c88: 69 00        	adc	#$0
    1c8a: 18           	clc
    1c8b: 84 16        	sty	$16                     ; 0x16 <__rc6>
    1c8d: a0 05        	ldy	#$5
    1c8f: 85 17        	sta	$17                     ; 0x17 <__rc7>
    1c91: b1 12        	lda	($12),y                 ; 0x12 <__rc2>
    1c93: aa           	tax
    1c94: a5 12        	lda	$12                     ; 0x12 <__rc2>
    1c96: 69 03        	adc	#$3
    1c98: 85 14        	sta	$14                     ; 0x14 <__rc4>
    1c9a: a5 15        	lda	$15                     ; 0x15 <__rc5>
    1c9c: 69 00        	adc	#$0
    1c9e: 85 15        	sta	$15                     ; 0x15 <__rc5>
    1ca0: a0 01        	ldy	#$1
    1ca2: b1 16        	lda	($16),y                 ; 0x16 <__rc6>
    1ca4: d1 14        	cmp	($14),y                 ; 0x14 <__rc4>
    1ca6: d0 11        	bne	$1cb9 <_ZN12_GLOBAL__N_13putEcP6Status+0x3f>
    1ca8: a0 03        	ldy	#$3
    1caa: 85 17        	sta	$17                     ; 0x17 <__rc7>
    1cac: b1 12        	lda	($12),y                 ; 0x12 <__rc2>
    1cae: 85 14        	sta	$14                     ; 0x14 <__rc4>
    1cb0: 86 16        	stx	$16                     ; 0x16 <__rc6>
    1cb2: e4 14        	cpx	$14                     ; 0x14 <__rc4>
    1cb4: 90 0e        	bcc	$1cc4 <_ZN12_GLOBAL__N_13putEcP6Status+0x4a>
    1cb6: 4c 25 1d     	jmp	$1d25 <_ZN12_GLOBAL__N_13putEcP6Status+0xab>
    1cb9: 86 16        	stx	$16                     ; 0x16 <__rc6>
    1cbb: d1 14        	cmp	($14),y                 ; 0x14 <__rc4>
    1cbd: 85 17        	sta	$17                     ; 0x17 <__rc7>
    1cbf: 90 03        	bcc	$1cc4 <_ZN12_GLOBAL__N_13putEcP6Status+0x4a>
    1cc1: 4c 25 1d     	jmp	$1d25 <_ZN12_GLOBAL__N_13putEcP6Status+0xab>
    1cc4: a5 12        	lda	$12                     ; 0x12 <__rc2>
    1cc6: 18           	clc
    1cc7: 69 0f        	adc	#$f
    1cc9: 85 14        	sta	$14                     ; 0x14 <__rc4>
    1ccb: a5 13        	lda	$13                     ; 0x13 <__rc3>
    1ccd: 69 00        	adc	#$0
    1ccf: 85 15        	sta	$15                     ; 0x15 <__rc5>
    1cd1: a0 01        	ldy	#$1
    1cd3: b1 14        	lda	($14),y                 ; 0x14 <__rc4>
    1cd5: a2 00        	ldx	#$0
    1cd7: 86 14        	stx	$14                     ; 0x14 <__rc4>
    1cd9: a2 00        	ldx	#$0
    1cdb: 86 15        	stx	$15                     ; 0x15 <__rc5>
    1cdd: c5 15        	cmp	$15                     ; 0x15 <__rc5>
    1cdf: d0 2d        	bne	$1d0e <_ZN12_GLOBAL__N_13putEcP6Status+0x94>
    1ce1: a0 0f        	ldy	#$f
    1ce3: b1 12        	lda	($12),y                 ; 0x12 <__rc2>
    1ce5: c5 14        	cmp	$14                     ; 0x14 <__rc4>
    1ce7: d0 25        	bne	$1d0e <_ZN12_GLOBAL__N_13putEcP6Status+0x94>
    1ce9: a5 12        	lda	$12                     ; 0x12 <__rc2>
    1ceb: 18           	clc
    1cec: 69 09        	adc	#$9
    1cee: 85 14        	sta	$14                     ; 0x14 <__rc4>
    1cf0: a5 13        	lda	$13                     ; 0x13 <__rc3>
    1cf2: 69 00        	adc	#$0
    1cf4: a0 09        	ldy	#$9
    1cf6: 85 15        	sta	$15                     ; 0x15 <__rc5>
    1cf8: 18           	clc
    1cf9: a5 16        	lda	$16                     ; 0x16 <__rc6>
    1cfb: 71 12        	adc	($12),y                 ; 0x12 <__rc2>
    1cfd: aa           	tax
    1cfe: a0 01        	ldy	#$1
    1d00: a5 17        	lda	$17                     ; 0x17 <__rc7>
    1d02: 71 14        	adc	($14),y                 ; 0x14 <__rc4>
    1d04: 86 14        	stx	$14                     ; 0x14 <__rc4>
    1d06: 85 15        	sta	$15                     ; 0x15 <__rc5>
    1d08: a5 18        	lda	$18                     ; 0x18 <__rc8>
    1d0a: 92 14        	sta	($14)                   ; 0x14 <__rc4>
    1d0c: 80 17        	bra	$1d25 <_ZN12_GLOBAL__N_13putEcP6Status+0xab>
    1d0e: a6 12        	ldx	$12                     ; 0x12 <__rc2>
    1d10: 86 91        	stx	$91                     ; 0x91 <__rc31+0x62>
    1d12: a6 13        	ldx	$13                     ; 0x13 <__rc3>
    1d14: 86 92        	stx	$92                     ; 0x92 <__rc31+0x63>
    1d16: a2 00        	ldx	#$0
    1d18: a5 18        	lda	$18                     ; 0x18 <__rc8>
    1d1a: 20 32 2a     	jsr	$2a32 <putchar>
    1d1d: a6 91        	ldx	$91                     ; 0x91 <__rc31+0x62>
    1d1f: 86 12        	stx	$12                     ; 0x12 <__rc2>
    1d21: a6 92        	ldx	$92                     ; 0x92 <__rc31+0x63>
    1d23: 86 13        	stx	$13                     ; 0x13 <__rc3>
    1d25: a0 05        	ldy	#$5
    1d27: a5 12        	lda	$12                     ; 0x12 <__rc2>
    1d29: 18           	clc
    1d2a: 69 05        	adc	#$5
    1d2c: 85 14        	sta	$14                     ; 0x14 <__rc4>
    1d2e: a5 13        	lda	$13                     ; 0x13 <__rc3>
    1d30: 69 00        	adc	#$0
    1d32: 85 15        	sta	$15                     ; 0x15 <__rc5>
    1d34: b1 12        	lda	($12),y                 ; 0x12 <__rc2>
    1d36: aa           	tax
    1d37: a0 01        	ldy	#$1
    1d39: b1 14        	lda	($14),y                 ; 0x14 <__rc4>
    1d3b: e8           	inx
    1d3c: d0 01        	bne	$1d3f <_ZN12_GLOBAL__N_13putEcP6Status+0xc5>
    1d3e: 1a           	inc
    1d3f: 85 16        	sta	$16                     ; 0x16 <__rc6>
    1d41: 8a           	txa
    1d42: a0 05        	ldy	#$5
    1d44: 91 12        	sta	($12),y                 ; 0x12 <__rc2>
    1d46: a0 01        	ldy	#$1
    1d48: a5 16        	lda	$16                     ; 0x16 <__rc6>
    1d4a: 91 14        	sta	($14),y                 ; 0x14 <__rc4>
    1d4c: 60           	rts

00001d4d <_ZN12_GLOBAL__N_112print_stringEPKcP6Status>:
    1d4d: a6 12        	ldx	$12                     ; 0x12 <__rc2>
    1d4f: 86 89        	stx	$89                     ; 0x89 <__rc31+0x5a>
    1d51: a6 13        	ldx	$13                     ; 0x13 <__rc3>
    1d53: 86 8a        	stx	$8a                     ; 0x8a <__rc31+0x5b>
    1d55: a6 14        	ldx	$14                     ; 0x14 <__rc4>
    1d57: 86 8b        	stx	$8b                     ; 0x8b <__rc31+0x5c>
    1d59: a6 15        	ldx	$15                     ; 0x15 <__rc5>
    1d5b: 86 8c        	stx	$8c                     ; 0x8c <__rc31+0x5d>
    1d5d: a5 8b        	lda	$8b                     ; 0x8b <__rc31+0x5c>
    1d5f: 18           	clc
    1d60: 69 0d        	adc	#$d
    1d62: 85 12        	sta	$12                     ; 0x12 <__rc2>
    1d64: a5 8c        	lda	$8c                     ; 0x8c <__rc31+0x5d>
    1d66: 69 00        	adc	#$0
    1d68: 85 13        	sta	$13                     ; 0x13 <__rc3>
    1d6a: a0 01        	ldy	#$1
    1d6c: b1 12        	lda	($12),y                 ; 0x12 <__rc2>
    1d6e: 30 16        	bmi	$1d86 <_ZN12_GLOBAL__N_112print_stringEPKcP6Status+0x39>
    1d70: a0 0d        	ldy	#$d
    1d72: 85 12        	sta	$12                     ; 0x12 <__rc2>
    1d74: b1 8b        	lda	($8b),y                 ; 0x8b <__rc31+0x5c>
    1d76: a6 12        	ldx	$12                     ; 0x12 <__rc2>
    1d78: 86 90        	stx	$90                     ; 0x90 <__rc31+0x61>
    1d7a: d0 0f        	bne	$1d8b <_ZN12_GLOBAL__N_112print_stringEPKcP6Status+0x3e>
    1d7c: aa           	tax
    1d7d: d0 0c        	bne	$1d8b <_ZN12_GLOBAL__N_112print_stringEPKcP6Status+0x3e>
    1d7f: 64 8d        	stz	$8d                     ; 0x8d <__rc31+0x5e>
    1d81: a2 00        	ldx	#$0
    1d83: 4c 54 1e     	jmp	$1e54 <_ZN12_GLOBAL__N_112print_stringEPKcP6Status+0x107>
    1d86: a9 ff        	lda	#$ff
    1d88: aa           	tax
    1d89: 86 90        	stx	$90                     ; 0x90 <__rc31+0x61>
    1d8b: 85 8d        	sta	$8d                     ; 0x8d <__rc31+0x5e>
    1d8d: 64 12        	stz	$12                     ; 0x12 <__rc2>
    1d8f: a4 89        	ldy	$89                     ; 0x89 <__rc31+0x5a>
    1d91: a6 8a        	ldx	$8a                     ; 0x8a <__rc31+0x5b>
    1d93: 86 16        	stx	$16                     ; 0x16 <__rc6>
    1d95: 64 13        	stz	$13                     ; 0x13 <__rc3>
    1d97: 98           	tya
    1d98: 18           	clc
    1d99: 65 12        	adc	$12                     ; 0x12 <__rc2>
    1d9b: 85 14        	sta	$14                     ; 0x14 <__rc4>
    1d9d: a5 8a        	lda	$8a                     ; 0x8a <__rc31+0x5b>
    1d9f: 65 13        	adc	$13                     ; 0x13 <__rc3>
    1da1: 85 15        	sta	$15                     ; 0x15 <__rc5>
    1da3: b2 14        	lda	($14)                   ; 0x14 <__rc4>
    1da5: d0 03        	bne	$1daa <_ZN12_GLOBAL__N_112print_stringEPKcP6Status+0x5d>
    1da7: 4c 4e 1e     	jmp	$1e4e <_ZN12_GLOBAL__N_112print_stringEPKcP6Status+0x101>
    1daa: e6 12        	inc	$12                     ; 0x12 <__rc2>
    1dac: d0 02        	bne	$1db0 <_ZN12_GLOBAL__N_112print_stringEPKcP6Status+0x63>
    1dae: e6 13        	inc	$13                     ; 0x13 <__rc3>
    1db0: a6 90        	ldx	$90                     ; 0x90 <__rc31+0x61>
    1db2: e4 13        	cpx	$13                     ; 0x13 <__rc3>
    1db4: d0 e1        	bne	$1d97 <_ZN12_GLOBAL__N_112print_stringEPKcP6Status+0x4a>
    1db6: a6 8d        	ldx	$8d                     ; 0x8d <__rc31+0x5e>
    1db8: e4 12        	cpx	$12                     ; 0x12 <__rc2>
    1dba: d0 db        	bne	$1d97 <_ZN12_GLOBAL__N_112print_stringEPKcP6Status+0x4a>
    1dbc: a0 01        	ldy	#$1
    1dbe: b1 8b        	lda	($8b),y                 ; 0x8b <__rc31+0x5c>
    1dc0: 29 01        	and	#$1
    1dc2: f0 03        	beq	$1dc7 <_ZN12_GLOBAL__N_112print_stringEPKcP6Status+0x7a>
    1dc4: 4c 1f 1e     	jmp	$1e1f <_ZN12_GLOBAL__N_112print_stringEPKcP6Status+0xd2>
    1dc7: a5 8b        	lda	$8b                     ; 0x8b <__rc31+0x5c>
    1dc9: 18           	clc
    1dca: 69 0b        	adc	#$b
    1dcc: 85 14        	sta	$14                     ; 0x14 <__rc4>
    1dce: a5 8c        	lda	$8c                     ; 0x8c <__rc31+0x5d>
    1dd0: 69 00        	adc	#$0
    1dd2: 85 15        	sta	$15                     ; 0x15 <__rc5>
    1dd4: a0 0b        	ldy	#$b
    1dd6: b1 8b        	lda	($8b),y                 ; 0x8b <__rc31+0x5c>
    1dd8: 85 13        	sta	$13                     ; 0x13 <__rc3>
    1dda: a0 01        	ldy	#$1
    1ddc: b1 14        	lda	($14),y                 ; 0x14 <__rc4>
    1dde: 85 12        	sta	$12                     ; 0x12 <__rc2>
    1de0: a6 90        	ldx	$90                     ; 0x90 <__rc31+0x61>
    1de2: e4 12        	cpx	$12                     ; 0x12 <__rc2>
    1de4: d0 08        	bne	$1dee <_ZN12_GLOBAL__N_112print_stringEPKcP6Status+0xa1>
    1de6: a6 8d        	ldx	$8d                     ; 0x8d <__rc31+0x5e>
    1de8: e4 13        	cpx	$13                     ; 0x13 <__rc3>
    1dea: 90 06        	bcc	$1df2 <_ZN12_GLOBAL__N_112print_stringEPKcP6Status+0xa5>
    1dec: 80 31        	bra	$1e1f <_ZN12_GLOBAL__N_112print_stringEPKcP6Status+0xd2>
    1dee: e4 12        	cpx	$12                     ; 0x12 <__rc2>
    1df0: b0 2d        	bcs	$1e1f <_ZN12_GLOBAL__N_112print_stringEPKcP6Status+0xd2>
    1df2: 38           	sec
    1df3: a5 8d        	lda	$8d                     ; 0x8d <__rc31+0x5e>
    1df5: e5 13        	sbc	$13                     ; 0x13 <__rc3>
    1df7: a8           	tay
    1df8: a5 90        	lda	$90                     ; 0x90 <__rc31+0x61>
    1dfa: e5 12        	sbc	$12                     ; 0x12 <__rc2>
    1dfc: 85 8f        	sta	$8f                     ; 0x8f <__rc31+0x60>
    1dfe: a6 8b        	ldx	$8b                     ; 0x8b <__rc31+0x5c>
    1e00: 86 12        	stx	$12                     ; 0x12 <__rc2>
    1e02: a6 8c        	ldx	$8c                     ; 0x8c <__rc31+0x5d>
    1e04: 86 13        	stx	$13                     ; 0x13 <__rc3>
    1e06: 84 8e        	sty	$8e                     ; 0x8e <__rc31+0x5f>
    1e08: a9 20        	lda	#$20
    1e0a: 20 7a 1c     	jsr	$1c7a <_ZN12_GLOBAL__N_13putEcP6Status>
    1e0d: a6 8f        	ldx	$8f                     ; 0x8f <__rc31+0x60>
    1e0f: e6 8e        	inc	$8e                     ; 0x8e <__rc31+0x5f>
    1e11: d0 01        	bne	$1e14 <_ZN12_GLOBAL__N_112print_stringEPKcP6Status+0xc7>
    1e13: e8           	inx
    1e14: 86 8f        	stx	$8f                     ; 0x8f <__rc31+0x60>
    1e16: a4 8e        	ldy	$8e                     ; 0x8e <__rc31+0x5f>
    1e18: 8a           	txa
    1e19: d0 e3        	bne	$1dfe <_ZN12_GLOBAL__N_112print_stringEPKcP6Status+0xb1>
    1e1b: a5 8e        	lda	$8e                     ; 0x8e <__rc31+0x5f>
    1e1d: d0 df        	bne	$1dfe <_ZN12_GLOBAL__N_112print_stringEPKcP6Status+0xb1>
    1e1f: a4 90        	ldy	$90                     ; 0x90 <__rc31+0x61>
    1e21: d0 04        	bne	$1e27 <_ZN12_GLOBAL__N_112print_stringEPKcP6Status+0xda>
    1e23: a5 8d        	lda	$8d                     ; 0x8d <__rc31+0x5e>
    1e25: f0 26        	beq	$1e4d <_ZN12_GLOBAL__N_112print_stringEPKcP6Status+0x100>
    1e27: a2 ff        	ldx	#$ff
    1e29: c6 8d        	dec	$8d                     ; 0x8d <__rc31+0x5e>
    1e2b: e4 8d        	cpx	$8d                     ; 0x8d <__rc31+0x5e>
    1e2d: d0 01        	bne	$1e30 <_ZN12_GLOBAL__N_112print_stringEPKcP6Status+0xe3>
    1e2f: 88           	dey
    1e30: 84 8e        	sty	$8e                     ; 0x8e <__rc31+0x5f>
    1e32: b2 89        	lda	($89)                   ; 0x89 <__rc31+0x5a>
    1e34: e6 89        	inc	$89                     ; 0x89 <__rc31+0x5a>
    1e36: d0 02        	bne	$1e3a <_ZN12_GLOBAL__N_112print_stringEPKcP6Status+0xed>
    1e38: e6 8a        	inc	$8a                     ; 0x8a <__rc31+0x5b>
    1e3a: a6 8b        	ldx	$8b                     ; 0x8b <__rc31+0x5c>
    1e3c: 86 12        	stx	$12                     ; 0x12 <__rc2>
    1e3e: a6 8c        	ldx	$8c                     ; 0x8c <__rc31+0x5d>
    1e40: 86 13        	stx	$13                     ; 0x13 <__rc3>
    1e42: 20 7a 1c     	jsr	$1c7a <_ZN12_GLOBAL__N_13putEcP6Status>
    1e45: a4 8e        	ldy	$8e                     ; 0x8e <__rc31+0x5f>
    1e47: d0 de        	bne	$1e27 <_ZN12_GLOBAL__N_112print_stringEPKcP6Status+0xda>
    1e49: a5 8d        	lda	$8d                     ; 0x8d <__rc31+0x5e>
    1e4b: d0 da        	bne	$1e27 <_ZN12_GLOBAL__N_112print_stringEPKcP6Status+0xda>
    1e4d: 60           	rts
    1e4e: a6 12        	ldx	$12                     ; 0x12 <__rc2>
    1e50: 86 8d        	stx	$8d                     ; 0x8d <__rc31+0x5e>
    1e52: a6 13        	ldx	$13                     ; 0x13 <__rc3>
    1e54: 86 90        	stx	$90                     ; 0x90 <__rc31+0x61>
    1e56: 4c bc 1d     	jmp	$1dbc <_ZN12_GLOBAL__N_112print_stringEPKcP6Status+0x6f>

00001e59 <printf>:
    1e59: a6 12        	ldx	$12                     ; 0x12 <__rc2>
    1e5b: 86 3e        	stx	$3e                     ; 0x3e <__rc31+0xf>
    1e5d: a6 13        	ldx	$13                     ; 0x13 <__rc3>
    1e5f: 86 3f        	stx	$3f                     ; 0x3f <__rc31+0x10>
    1e61: 18           	clc
    1e62: a6 10        	ldx	$10                     ; 0x10 <__rc0>
    1e64: a4 11        	ldy	$11                     ; 0x11 <__rc1>
    1e66: 86 7f        	stx	$7f                     ; 0x7f <__rc31+0x50>
    1e68: 84 80        	sty	$80                     ; 0x80 <__rc31+0x51>
    1e6a: a6 7f        	ldx	$7f                     ; 0x7f <__rc31+0x50>
    1e6c: a4 80        	ldy	$80                     ; 0x80 <__rc31+0x51>
    1e6e: 86 6a        	stx	$6a                     ; 0x6a <__rc31+0x3b>
    1e70: 84 6b        	sty	$6b                     ; 0x6b <__rc31+0x3c>
    1e72: a2 ff        	ldx	#$ff
    1e74: 86 6f        	stx	$6f                     ; 0x6f <__rc31+0x40>
    1e76: 86 70        	stx	$70                     ; 0x70 <__rc31+0x41>
    1e78: 64 71        	stz	$71                     ; 0x71 <__rc31+0x42>
    1e7a: 64 72        	stz	$72                     ; 0x72 <__rc31+0x43>
    1e7c: e8           	inx
    1e7d: 86 40        	stx	$40                     ; 0x40 <__rc31+0x11>
    1e7f: a2 00        	ldx	#$0
    1e81: 86 41        	stx	$41                     ; 0x41 <__rc31+0x12>
    1e83: a6 40        	ldx	$40                     ; 0x40 <__rc31+0x11>
    1e85: a4 41        	ldy	$41                     ; 0x41 <__rc31+0x12>
    1e87: 86 75        	stx	$75                     ; 0x75 <__rc31+0x46>
    1e89: 84 76        	sty	$76                     ; 0x76 <__rc31+0x47>
    1e8b: a2 02        	ldx	#$2
    1e8d: 86 7b        	stx	$7b                     ; 0x7b <__rc31+0x4c>
    1e8f: 64 7c        	stz	$7c                     ; 0x7c <__rc31+0x4d>
    1e91: a6 6a        	ldx	$6a                     ; 0x6a <__rc31+0x3b>
    1e93: a4 6b        	ldy	$6b                     ; 0x6b <__rc31+0x3c>
    1e95: 86 7d        	stx	$7d                     ; 0x7d <__rc31+0x4e>
    1e97: 84 7e        	sty	$7e                     ; 0x7e <__rc31+0x4f>
    1e99: a2 61        	ldx	#$61
    1e9b: a0 00        	ldy	#$0
    1e9d: 86 12        	stx	$12                     ; 0x12 <__rc2>
    1e9f: 84 13        	sty	$13                     ; 0x13 <__rc3>
    1ea1: a0 01        	ldy	#$1
    1ea3: a9 48        	lda	#$48
    1ea5: 18           	clc
    1ea6: 69 02        	adc	#$2
    1ea8: 85 87        	sta	$87                     ; 0x87 <__rc31+0x58>
    1eaa: a9 00        	lda	#$0
    1eac: 69 00        	adc	#$0
    1eae: 85 88        	sta	$88                     ; 0x88 <__rc31+0x59>
    1eb0: e6 12        	inc	$12                     ; 0x12 <__rc2>
    1eb2: d0 02        	bne	$1eb6 <printf+0x5d>
    1eb4: e6 13        	inc	$13                     ; 0x13 <__rc3>
    1eb6: a6 12        	ldx	$12                     ; 0x12 <__rc2>
    1eb8: 86 83        	stx	$83                     ; 0x83 <__rc31+0x54>
    1eba: a6 13        	ldx	$13                     ; 0x13 <__rc3>
    1ebc: 86 84        	stx	$84                     ; 0x84 <__rc31+0x55>
    1ebe: a6 3e        	ldx	$3e                     ; 0x3e <__rc31+0xf>
    1ec0: 86 42        	stx	$42                     ; 0x42 <__rc31+0x13>
    1ec2: a6 3f        	ldx	$3f                     ; 0x3f <__rc31+0x10>
    1ec4: 86 43        	stx	$43                     ; 0x43 <__rc31+0x14>
    1ec6: b2 3e        	lda	($3e)                   ; 0x3e <__rc31+0xf>
    1ec8: c9 25        	cmp	#$25
    1eca: f0 23        	beq	$1eef <printf+0x96>
    1ecc: a2 00        	ldx	#$0
    1ece: a8           	tay
    1ecf: d0 03        	bne	$1ed4 <printf+0x7b>
    1ed1: 4c 31 2a     	jmp	$2a31 <printf+0xbd8>
    1ed4: 20 32 2a     	jsr	$2a32 <putchar>
    1ed7: a0 01        	ldy	#$1
    1ed9: e6 42        	inc	$42                     ; 0x42 <__rc31+0x13>
    1edb: d0 02        	bne	$1edf <printf+0x86>
    1edd: e6 43        	inc	$43                     ; 0x43 <__rc31+0x14>
    1edf: e6 71        	inc	$71                     ; 0x71 <__rc31+0x42>
    1ee1: d0 02        	bne	$1ee5 <printf+0x8c>
    1ee3: e6 72        	inc	$72                     ; 0x72 <__rc31+0x43>
    1ee5: a6 42        	ldx	$42                     ; 0x42 <__rc31+0x13>
    1ee7: 86 3e        	stx	$3e                     ; 0x3e <__rc31+0xf>
    1ee9: a6 43        	ldx	$43                     ; 0x43 <__rc31+0x14>
    1eeb: 86 3f        	stx	$3f                     ; 0x3f <__rc31+0x10>
    1eed: 80 cf        	bra	$1ebe <printf+0x65>
    1eef: a6 3e        	ldx	$3e                     ; 0x3e <__rc31+0xf>
    1ef1: 86 12        	stx	$12                     ; 0x12 <__rc2>
    1ef3: a6 3f        	ldx	$3f                     ; 0x3f <__rc31+0x10>
    1ef5: 86 13        	stx	$13                     ; 0x13 <__rc3>
    1ef7: e6 12        	inc	$12                     ; 0x12 <__rc2>
    1ef9: d0 02        	bne	$1efd <printf+0xa4>
    1efb: e6 13        	inc	$13                     ; 0x13 <__rc3>
    1efd: b1 42        	lda	($42),y                 ; 0x42 <__rc31+0x13>
    1eff: c9 25        	cmp	#$25
    1f01: d0 16        	bne	$1f19 <printf+0xc0>
    1f03: a4 71        	ldy	$71                     ; 0x71 <__rc31+0x42>
    1f05: a5 72        	lda	$72                     ; 0x72 <__rc31+0x43>
    1f07: c5 70        	cmp	$70                     ; 0x70 <__rc31+0x41>
    1f09: f0 03        	beq	$1f0e <printf+0xb5>
    1f0b: 4c 1f 20     	jmp	$201f <printf+0x1c6>
    1f0e: a6 6f        	ldx	$6f                     ; 0x6f <__rc31+0x40>
    1f10: 86 12        	stx	$12                     ; 0x12 <__rc2>
    1f12: 84 13        	sty	$13                     ; 0x13 <__rc3>
    1f14: c4 12        	cpy	$12                     ; 0x12 <__rc2>
    1f16: 4c 23 20     	jmp	$2023 <printf+0x1ca>
    1f19: 64 6d        	stz	$6d                     ; 0x6d <__rc31+0x3e>
    1f1b: 64 6e        	stz	$6e                     ; 0x6e <__rc31+0x3f>
    1f1d: 64 6c        	stz	$6c                     ; 0x6c <__rc31+0x3d>
    1f1f: 64 77        	stz	$77                     ; 0x77 <__rc31+0x48>
    1f21: 64 78        	stz	$78                     ; 0x78 <__rc31+0x49>
    1f23: a2 ff        	ldx	#$ff
    1f25: 86 79        	stx	$79                     ; 0x79 <__rc31+0x4a>
    1f27: 86 7a        	stx	$7a                     ; 0x7a <__rc31+0x4b>
    1f29: 64 3d        	stz	$3d                     ; 0x3d <__rc31+0xe>
    1f2b: 80 33        	bra	$1f60 <printf+0x107>
    1f2d: a2 02        	ldx	#$2
    1f2f: 80 15        	bra	$1f46 <printf+0xed>
    1f31: e0 20        	cpx	#$20
    1f33: f0 15        	beq	$1f4a <printf+0xf1>
    1f35: 86 15        	stx	$15                     ; 0x15 <__rc5>
    1f37: e0 23        	cpx	#$23
    1f39: f0 03        	beq	$1f3e <printf+0xe5>
    1f3b: 4c bd 1f     	jmp	$1fbd <printf+0x164>
    1f3e: a5 3d        	lda	$3d                     ; 0x3d <__rc31+0xe>
    1f40: a2 04        	ldx	#$4
    1f42: 80 02        	bra	$1f46 <printf+0xed>
    1f44: a2 10        	ldx	#$10
    1f46: 86 14        	stx	$14                     ; 0x14 <__rc4>
    1f48: 80 06        	bra	$1f50 <printf+0xf7>
    1f4a: a2 08        	ldx	#$8
    1f4c: 86 14        	stx	$14                     ; 0x14 <__rc4>
    1f4e: a5 3d        	lda	$3d                     ; 0x3d <__rc31+0xe>
    1f50: 05 14        	ora	$14                     ; 0x14 <__rc4>
    1f52: 85 3d        	sta	$3d                     ; 0x3d <__rc31+0xe>
    1f54: 85 6d        	sta	$6d                     ; 0x6d <__rc31+0x3e>
    1f56: a2 00        	ldx	#$0
    1f58: 86 6e        	stx	$6e                     ; 0x6e <__rc31+0x3f>
    1f5a: e6 12        	inc	$12                     ; 0x12 <__rc2>
    1f5c: d0 02        	bne	$1f60 <printf+0x107>
    1f5e: e6 13        	inc	$13                     ; 0x13 <__rc3>
    1f60: b2 12        	lda	($12)                   ; 0x12 <__rc2>
    1f62: aa           	tax
    1f63: 18           	clc
    1f64: 69 d6        	adc	#$d6
    1f66: c9 07        	cmp	#$7
    1f68: b0 c7        	bcs	$1f31 <printf+0xd8>
    1f6a: 86 15        	stx	$15                     ; 0x15 <__rc5>
    1f6c: 0a           	asl
    1f6d: aa           	tax
    1f6e: a0 01        	ldy	#$1
    1f70: 84 14        	sty	$14                     ; 0x14 <__rc4>
    1f72: a5 3d        	lda	$3d                     ; 0x3d <__rc31+0xe>
    1f74: 7c 66 2c     	jmp	($2c66,x)               ; 0x2c66 <__set_v+0x1>
    1f77: a5 7d        	lda	$7d                     ; 0x7d <__rc31+0x4e>
    1f79: a6 7e        	ldx	$7e                     ; 0x7e <__rc31+0x4f>
    1f7b: 85 16        	sta	$16                     ; 0x16 <__rc6>
    1f7d: 86 17        	stx	$17                     ; 0x17 <__rc7>
    1f7f: 18           	clc
    1f80: 69 02        	adc	#$2
    1f82: a8           	tay
    1f83: 8a           	txa
    1f84: 69 00        	adc	#$0
    1f86: 84 7d        	sty	$7d                     ; 0x7d <__rc31+0x4e>
    1f88: 85 7e        	sta	$7e                     ; 0x7e <__rc31+0x4f>
    1f8a: b2 16        	lda	($16)                   ; 0x16 <__rc6>
    1f8c: 85 15        	sta	$15                     ; 0x15 <__rc5>
    1f8e: a0 01        	ldy	#$1
    1f90: b1 16        	lda	($16),y                 ; 0x16 <__rc6>
    1f92: 85 14        	sta	$14                     ; 0x14 <__rc4>
    1f94: 10 15        	bpl	$1fab <printf+0x152>
    1f96: a5 3d        	lda	$3d                     ; 0x3d <__rc31+0xe>
    1f98: 09 01        	ora	#$1
    1f9a: 85 3d        	sta	$3d                     ; 0x3d <__rc31+0xe>
    1f9c: 85 6d        	sta	$6d                     ; 0x6d <__rc31+0x3e>
    1f9e: a2 00        	ldx	#$0
    1fa0: 86 6e        	stx	$6e                     ; 0x6e <__rc31+0x3f>
    1fa2: 8a           	txa
    1fa3: 38           	sec
    1fa4: e5 15        	sbc	$15                     ; 0x15 <__rc5>
    1fa6: 85 15        	sta	$15                     ; 0x15 <__rc5>
    1fa8: 8a           	txa
    1fa9: e5 14        	sbc	$14                     ; 0x14 <__rc4>
    1fab: a6 15        	ldx	$15                     ; 0x15 <__rc5>
    1fad: 86 77        	stx	$77                     ; 0x77 <__rc31+0x48>
    1faf: 85 78        	sta	$78                     ; 0x78 <__rc31+0x49>
    1fb1: e6 12        	inc	$12                     ; 0x12 <__rc2>
    1fb3: f0 03        	beq	$1fb8 <printf+0x15f>
    1fb5: 4c 73 20     	jmp	$2073 <printf+0x21a>
    1fb8: e6 13        	inc	$13                     ; 0x13 <__rc3>
    1fba: 4c 73 20     	jmp	$2073 <printf+0x21a>
    1fbd: a5 15        	lda	$15                     ; 0x15 <__rc5>
    1fbf: 18           	clc
    1fc0: 69 d0        	adc	#$d0
    1fc2: c9 0a        	cmp	#$a
    1fc4: 90 03        	bcc	$1fc9 <printf+0x170>
    1fc6: 4c 65 20     	jmp	$2065 <printf+0x20c>
    1fc9: a6 15        	ldx	$15                     ; 0x15 <__rc5>
    1fcb: 86 14        	stx	$14                     ; 0x14 <__rc4>
    1fcd: 64 16        	stz	$16                     ; 0x16 <__rc6>
    1fcf: 64 15        	stz	$15                     ; 0x15 <__rc5>
    1fd1: 64 17        	stz	$17                     ; 0x17 <__rc7>
    1fd3: a0 01        	ldy	#$1
    1fd5: 06 16        	asl	$16                     ; 0x16 <__rc6>
    1fd7: 26 17        	rol	$17                     ; 0x17 <__rc7>
    1fd9: a5 16        	lda	$16                     ; 0x16 <__rc6>
    1fdb: 0a           	asl
    1fdc: aa           	tax
    1fdd: a5 17        	lda	$17                     ; 0x17 <__rc7>
    1fdf: 2a           	rol
    1fe0: 86 18        	stx	$18                     ; 0x18 <__rc8>
    1fe2: 06 18        	asl	$18                     ; 0x18 <__rc8>
    1fe4: 2a           	rol
    1fe5: aa           	tax
    1fe6: a5 18        	lda	$18                     ; 0x18 <__rc8>
    1fe8: 18           	clc
    1fe9: 65 16        	adc	$16                     ; 0x16 <__rc6>
    1feb: 85 16        	sta	$16                     ; 0x16 <__rc6>
    1fed: 8a           	txa
    1fee: 65 17        	adc	$17                     ; 0x17 <__rc7>
    1ff0: 85 17        	sta	$17                     ; 0x17 <__rc7>
    1ff2: a5 16        	lda	$16                     ; 0x16 <__rc6>
    1ff4: 18           	clc
    1ff5: 65 14        	adc	$14                     ; 0x14 <__rc4>
    1ff7: 85 14        	sta	$14                     ; 0x14 <__rc4>
    1ff9: a5 17        	lda	$17                     ; 0x17 <__rc7>
    1ffb: 65 15        	adc	$15                     ; 0x15 <__rc5>
    1ffd: aa           	tax
    1ffe: 18           	clc
    1fff: a5 14        	lda	$14                     ; 0x14 <__rc4>
    2001: 69 d0        	adc	#$d0
    2003: 85 16        	sta	$16                     ; 0x16 <__rc6>
    2005: 8a           	txa
    2006: 69 ff        	adc	#$ff
    2008: 85 17        	sta	$17                     ; 0x17 <__rc7>
    200a: b1 12        	lda	($12),y                 ; 0x12 <__rc2>
    200c: 85 14        	sta	$14                     ; 0x14 <__rc4>
    200e: 18           	clc
    200f: 69 d0        	adc	#$d0
    2011: e6 12        	inc	$12                     ; 0x12 <__rc2>
    2013: d0 02        	bne	$2017 <printf+0x1be>
    2015: e6 13        	inc	$13                     ; 0x13 <__rc3>
    2017: c9 0a        	cmp	#$a
    2019: 64 15        	stz	$15                     ; 0x15 <__rc5>
    201b: 90 b8        	bcc	$1fd5 <printf+0x17c>
    201d: 80 4c        	bra	$206b <printf+0x212>
    201f: 84 13        	sty	$13                     ; 0x13 <__rc3>
    2021: c5 70        	cmp	$70                     ; 0x70 <__rc31+0x41>
    2023: a0 01        	ldy	#$1
    2025: b0 28        	bcs	$204f <printf+0x1f6>
    2027: a6 7c        	ldx	$7c                     ; 0x7c <__rc31+0x4d>
    2029: e4 41        	cpx	$41                     ; 0x41 <__rc31+0x12>
    202b: d0 19        	bne	$2046 <printf+0x1ed>
    202d: a6 7b        	ldx	$7b                     ; 0x7b <__rc31+0x4c>
    202f: e4 40        	cpx	$40                     ; 0x40 <__rc31+0x11>
    2031: d0 13        	bne	$2046 <printf+0x1ed>
    2033: 18           	clc
    2034: aa           	tax
    2035: a5 13        	lda	$13                     ; 0x13 <__rc3>
    2037: 65 75        	adc	$75                     ; 0x75 <__rc31+0x46>
    2039: 85 12        	sta	$12                     ; 0x12 <__rc2>
    203b: 8a           	txa
    203c: 65 76        	adc	$76                     ; 0x76 <__rc31+0x47>
    203e: 85 13        	sta	$13                     ; 0x13 <__rc3>
    2040: a9 25        	lda	#$25
    2042: 92 12        	sta	($12)                   ; 0x12 <__rc2>
    2044: 80 09        	bra	$204f <printf+0x1f6>
    2046: a2 00        	ldx	#$0
    2048: a9 25        	lda	#$25
    204a: 20 32 2a     	jsr	$2a32 <putchar>
    204d: a0 01        	ldy	#$1
    204f: e6 71        	inc	$71                     ; 0x71 <__rc31+0x42>
    2051: d0 02        	bne	$2055 <printf+0x1fc>
    2053: e6 72        	inc	$72                     ; 0x72 <__rc31+0x43>
    2055: a5 42        	lda	$42                     ; 0x42 <__rc31+0x13>
    2057: 18           	clc
    2058: 69 02        	adc	#$2
    205a: 85 3e        	sta	$3e                     ; 0x3e <__rc31+0xf>
    205c: a5 43        	lda	$43                     ; 0x43 <__rc31+0x14>
    205e: 69 00        	adc	#$0
    2060: 85 3f        	sta	$3f                     ; 0x3f <__rc31+0x10>
    2062: 4c be 1e     	jmp	$1ebe <printf+0x65>
    2065: 64 16        	stz	$16                     ; 0x16 <__rc6>
    2067: 64 17        	stz	$17                     ; 0x17 <__rc7>
    2069: a0 01        	ldy	#$1
    206b: a6 16        	ldx	$16                     ; 0x16 <__rc6>
    206d: 86 77        	stx	$77                     ; 0x77 <__rc31+0x48>
    206f: a5 17        	lda	$17                     ; 0x17 <__rc7>
    2071: 85 78        	sta	$78                     ; 0x78 <__rc31+0x49>
    2073: 86 46        	stx	$46                     ; 0x46 <__rc31+0x17>
    2075: 85 44        	sta	$44                     ; 0x44 <__rc31+0x15>
    2077: b2 12        	lda	($12)                   ; 0x12 <__rc2>
    2079: a2 ff        	ldx	#$ff
    207b: c9 2e        	cmp	#$2e
    207d: d0 39        	bne	$20b8 <printf+0x25f>
    207f: b1 12        	lda	($12),y                 ; 0x12 <__rc2>
    2081: c9 2a        	cmp	#$2a
    2083: d0 38        	bne	$20bd <printf+0x264>
    2085: a5 7d        	lda	$7d                     ; 0x7d <__rc31+0x4e>
    2087: a6 7e        	ldx	$7e                     ; 0x7e <__rc31+0x4f>
    2089: 85 14        	sta	$14                     ; 0x14 <__rc4>
    208b: 86 15        	stx	$15                     ; 0x15 <__rc5>
    208d: 18           	clc
    208e: 69 02        	adc	#$2
    2090: 85 16        	sta	$16                     ; 0x16 <__rc6>
    2092: 8a           	txa
    2093: 69 00        	adc	#$0
    2095: a6 16        	ldx	$16                     ; 0x16 <__rc6>
    2097: 86 7d        	stx	$7d                     ; 0x7d <__rc31+0x4e>
    2099: 85 7e        	sta	$7e                     ; 0x7e <__rc31+0x4f>
    209b: a5 12        	lda	$12                     ; 0x12 <__rc2>
    209d: 18           	clc
    209e: 69 02        	adc	#$2
    20a0: 85 12        	sta	$12                     ; 0x12 <__rc2>
    20a2: a5 13        	lda	$13                     ; 0x13 <__rc3>
    20a4: 69 00        	adc	#$0
    20a6: 85 13        	sta	$13                     ; 0x13 <__rc3>
    20a8: b2 14        	lda	($14)                   ; 0x14 <__rc4>
    20aa: aa           	tax
    20ab: b1 14        	lda	($14),y                 ; 0x14 <__rc4>
    20ad: 86 18        	stx	$18                     ; 0x18 <__rc8>
    20af: 86 79        	stx	$79                     ; 0x79 <__rc31+0x4a>
    20b1: 85 19        	sta	$19                     ; 0x19 <__rc9>
    20b3: 85 7a        	sta	$7a                     ; 0x7a <__rc31+0x4b>
    20b5: 4c 68 21     	jmp	$2168 <printf+0x30f>
    20b8: 86 18        	stx	$18                     ; 0x18 <__rc8>
    20ba: 4c 78 21     	jmp	$2178 <printf+0x31f>
    20bd: 85 17        	sta	$17                     ; 0x17 <__rc7>
    20bf: 18           	clc
    20c0: 69 d0        	adc	#$d0
    20c2: c9 0a        	cmp	#$a
    20c4: 90 03        	bcc	$20c9 <printf+0x270>
    20c6: 4c 5a 21     	jmp	$215a <printf+0x301>
    20c9: 64 16        	stz	$16                     ; 0x16 <__rc6>
    20cb: a2 01        	ldx	#$1
    20cd: 64 18        	stz	$18                     ; 0x18 <__rc8>
    20cf: 64 19        	stz	$19                     ; 0x19 <__rc9>
    20d1: a0 01        	ldy	#$1
    20d3: 64 1a        	stz	$1a                     ; 0x1a <__rc10>
    20d5: 5a           	phy
    20d6: a4 1a        	ldy	$1a                     ; 0x1a <__rc10>
    20d8: 84 14        	sty	$14                     ; 0x14 <__rc4>
    20da: 86 15        	stx	$15                     ; 0x15 <__rc5>
    20dc: 06 18        	asl	$18                     ; 0x18 <__rc8>
    20de: 26 19        	rol	$19                     ; 0x19 <__rc9>
    20e0: a5 18        	lda	$18                     ; 0x18 <__rc8>
    20e2: 0a           	asl
    20e3: 85 1d        	sta	$1d                     ; 0x1d <__rc13>
    20e5: a5 19        	lda	$19                     ; 0x19 <__rc9>
    20e7: 2a           	rol
    20e8: 06 1d        	asl	$1d                     ; 0x1d <__rc13>
    20ea: 2a           	rol
    20eb: 85 1e        	sta	$1e                     ; 0x1e <__rc14>
    20ed: a5 1d        	lda	$1d                     ; 0x1d <__rc13>
    20ef: 18           	clc
    20f0: 65 18        	adc	$18                     ; 0x18 <__rc8>
    20f2: 85 18        	sta	$18                     ; 0x18 <__rc8>
    20f4: a5 1e        	lda	$1e                     ; 0x1e <__rc14>
    20f6: 65 19        	adc	$19                     ; 0x19 <__rc9>
    20f8: 85 19        	sta	$19                     ; 0x19 <__rc9>
    20fa: a5 18        	lda	$18                     ; 0x18 <__rc8>
    20fc: 18           	clc
    20fd: 65 17        	adc	$17                     ; 0x17 <__rc7>
    20ff: 85 17        	sta	$17                     ; 0x17 <__rc7>
    2101: a5 19        	lda	$19                     ; 0x19 <__rc9>
    2103: 65 16        	adc	$16                     ; 0x16 <__rc6>
    2105: 85 16        	sta	$16                     ; 0x16 <__rc6>
    2107: 18           	clc
    2108: a5 17        	lda	$17                     ; 0x17 <__rc7>
    210a: 69 d0        	adc	#$d0
    210c: 85 18        	sta	$18                     ; 0x18 <__rc8>
    210e: a5 16        	lda	$16                     ; 0x16 <__rc6>
    2110: 69 ff        	adc	#$ff
    2112: 85 19        	sta	$19                     ; 0x19 <__rc9>
    2114: e8           	inx
    2115: d0 02        	bne	$2119 <printf+0x2c0>
    2117: e6 1a        	inc	$1a                     ; 0x1a <__rc10>
    2119: a5 12        	lda	$12                     ; 0x12 <__rc2>
    211b: 18           	clc
    211c: 65 15        	adc	$15                     ; 0x15 <__rc5>
    211e: 85 1d        	sta	$1d                     ; 0x1d <__rc13>
    2120: a5 13        	lda	$13                     ; 0x13 <__rc3>
    2122: 65 14        	adc	$14                     ; 0x14 <__rc4>
    2124: a4 1d        	ldy	$1d                     ; 0x1d <__rc13>
    2126: 84 16        	sty	$16                     ; 0x16 <__rc6>
    2128: 7a           	ply
    2129: 85 17        	sta	$17                     ; 0x17 <__rc7>
    212b: b1 16        	lda	($16),y                 ; 0x16 <__rc6>
    212d: 85 17        	sta	$17                     ; 0x17 <__rc7>
    212f: 18           	clc
    2130: 69 d0        	adc	#$d0
    2132: c9 0a        	cmp	#$a
    2134: 64 16        	stz	$16                     ; 0x16 <__rc6>
    2136: b0 03        	bcs	$213b <printf+0x2e2>
    2138: 4c d5 20     	jmp	$20d5 <printf+0x27c>
    213b: a5 12        	lda	$12                     ; 0x12 <__rc2>
    213d: 18           	clc
    213e: 65 15        	adc	$15                     ; 0x15 <__rc5>
    2140: 85 12        	sta	$12                     ; 0x12 <__rc2>
    2142: a5 13        	lda	$13                     ; 0x13 <__rc3>
    2144: 65 14        	adc	$14                     ; 0x14 <__rc4>
    2146: 85 13        	sta	$13                     ; 0x13 <__rc3>
    2148: e6 12        	inc	$12                     ; 0x12 <__rc2>
    214a: d0 02        	bne	$214e <printf+0x2f5>
    214c: e6 13        	inc	$13                     ; 0x13 <__rc3>
    214e: a6 18        	ldx	$18                     ; 0x18 <__rc8>
    2150: 86 79        	stx	$79                     ; 0x79 <__rc31+0x4a>
    2152: a6 19        	ldx	$19                     ; 0x19 <__rc9>
    2154: 86 7a        	stx	$7a                     ; 0x7a <__rc31+0x4b>
    2156: a0 01        	ldy	#$1
    2158: 80 0e        	bra	$2168 <printf+0x30f>
    215a: e6 12        	inc	$12                     ; 0x12 <__rc2>
    215c: d0 02        	bne	$2160 <printf+0x307>
    215e: e6 13        	inc	$13                     ; 0x13 <__rc3>
    2160: 64 18        	stz	$18                     ; 0x18 <__rc8>
    2162: 64 79        	stz	$79                     ; 0x79 <__rc31+0x4a>
    2164: 64 7a        	stz	$7a                     ; 0x7a <__rc31+0x4b>
    2166: 64 19        	stz	$19                     ; 0x19 <__rc9>
    2168: a5 3d        	lda	$3d                     ; 0x3d <__rc31+0xe>
    216a: 29 ef        	and	#$ef
    216c: 85 3d        	sta	$3d                     ; 0x3d <__rc31+0xe>
    216e: 85 6d        	sta	$6d                     ; 0x6d <__rc31+0x3e>
    2170: a2 00        	ldx	#$0
    2172: 86 6e        	stx	$6e                     ; 0x6e <__rc31+0x3f>
    2174: b2 12        	lda	($12)                   ; 0x12 <__rc2>
    2176: a6 19        	ldx	$19                     ; 0x19 <__rc9>
    2178: 86 15        	stx	$15                     ; 0x15 <__rc5>
    217a: a6 12        	ldx	$12                     ; 0x12 <__rc2>
    217c: 86 3e        	stx	$3e                     ; 0x3e <__rc31+0xf>
    217e: a6 13        	ldx	$13                     ; 0x13 <__rc3>
    2180: 86 3f        	stx	$3f                     ; 0x3f <__rc31+0x10>
    2182: e6 3e        	inc	$3e                     ; 0x3e <__rc31+0xf>
    2184: d0 02        	bne	$2188 <printf+0x32f>
    2186: e6 3f        	inc	$3f                     ; 0x3f <__rc31+0x10>
    2188: 85 14        	sta	$14                     ; 0x14 <__rc4>
    218a: 38           	sec
    218b: e9 6c        	sbc	#$6c
    218d: 50 02        	bvc	$2191 <printf+0x338>
    218f: 49 80        	eor	#$80
    2191: aa           	tax
    2192: 10 1d        	bpl	$21b1 <printf+0x358>
    2194: a5 14        	lda	$14                     ; 0x14 <__rc4>
    2196: c9 4c        	cmp	#$4c
    2198: f0 27        	beq	$21c1 <printf+0x368>
    219a: c9 68        	cmp	#$68
    219c: d0 03        	bne	$21a1 <printf+0x348>
    219e: 4c 28 22     	jmp	$2228 <printf+0x3cf>
    21a1: a2 08        	ldx	#$8
    21a3: c9 6a        	cmp	#$6a
    21a5: d0 2e        	bne	$21d5 <printf+0x37c>
    21a7: a5 3e        	lda	$3e                     ; 0x3e <__rc31+0xf>
    21a9: 85 12        	sta	$12                     ; 0x12 <__rc2>
    21ab: a5 3f        	lda	$3f                     ; 0x3f <__rc31+0x10>
    21ad: 85 13        	sta	$13                     ; 0x13 <__rc3>
    21af: 80 43        	bra	$21f4 <printf+0x39b>
    21b1: a6 14        	ldx	$14                     ; 0x14 <__rc4>
    21b3: e0 6c        	cpx	#$6c
    21b5: f0 23        	beq	$21da <printf+0x381>
    21b7: e0 74        	cpx	#$74
    21b9: f0 12        	beq	$21cd <printf+0x374>
    21bb: e0 7a        	cpx	#$7a
    21bd: f0 0e        	beq	$21cd <printf+0x374>
    21bf: 80 14        	bra	$21d5 <printf+0x37c>
    21c1: a5 3d        	lda	$3d                     ; 0x3d <__rc31+0xe>
    21c3: 09 40        	ora	#$40
    21c5: 85 3d        	sta	$3d                     ; 0x3d <__rc31+0xe>
    21c7: 85 6d        	sta	$6d                     ; 0x6d <__rc31+0x3e>
    21c9: a2 00        	ldx	#$0
    21cb: 86 6e        	stx	$6e                     ; 0x6e <__rc31+0x3f>
    21cd: a6 3e        	ldx	$3e                     ; 0x3e <__rc31+0xf>
    21cf: 86 12        	stx	$12                     ; 0x12 <__rc2>
    21d1: a6 3f        	ldx	$3f                     ; 0x3f <__rc31+0x10>
    21d3: 86 13        	stx	$13                     ; 0x13 <__rc3>
    21d5: a2 02        	ldx	#$2
    21d7: 8a           	txa
    21d8: 80 1c        	bra	$21f6 <printf+0x39d>
    21da: b1 12        	lda	($12),y                 ; 0x12 <__rc2>
    21dc: a2 04        	ldx	#$4
    21de: c9 6c        	cmp	#$6c
    21e0: f0 03        	beq	$21e5 <printf+0x38c>
    21e2: 4c 37 25     	jmp	$2537 <printf+0x6de>
    21e5: a5 12        	lda	$12                     ; 0x12 <__rc2>
    21e7: 18           	clc
    21e8: 69 02        	adc	#$2
    21ea: 85 12        	sta	$12                     ; 0x12 <__rc2>
    21ec: a5 13        	lda	$13                     ; 0x13 <__rc3>
    21ee: 69 00        	adc	#$0
    21f0: 85 13        	sta	$13                     ; 0x13 <__rc3>
    21f2: a2 08        	ldx	#$8
    21f4: a9 08        	lda	#$8
    21f6: 85 82        	sta	$82                     ; 0x82 <__rc31+0x53>
    21f8: b2 12        	lda	($12)                   ; 0x12 <__rc2>
    21fa: 5a           	phy
    21fb: a4 12        	ldy	$12                     ; 0x12 <__rc2>
    21fd: 84 3e        	sty	$3e                     ; 0x3e <__rc31+0xf>
    21ff: a4 13        	ldy	$13                     ; 0x13 <__rc3>
    2201: 84 3f        	sty	$3f                     ; 0x3f <__rc31+0x10>
    2203: 7a           	ply
    2204: 86 40        	stx	$40                     ; 0x40 <__rc31+0x11>
    2206: aa           	tax
    2207: 18           	clc
    2208: 69 9d        	adc	#$9d
    220a: c9 16        	cmp	#$16
    220c: b0 39        	bcs	$2247 <printf+0x3ee>
    220e: 0a           	asl
    220f: aa           	tax
    2210: 7c 74 2c     	jmp	($2c74,x)               ; 0x2c74 <__set_v+0xf>
    2213: a6 15        	ldx	$15                     ; 0x15 <__rc5>
    2215: 86 85        	stx	$85                     ; 0x85 <__rc31+0x56>
    2217: a6 18        	ldx	$18                     ; 0x18 <__rc8>
    2219: 86 86        	stx	$86                     ; 0x86 <__rc31+0x57>
    221b: a0 0a        	ldy	#$a
    221d: a2 0a        	ldx	#$a
    221f: 86 81        	stx	$81                     ; 0x81 <__rc31+0x52>
    2221: 84 6c        	sty	$6c                     ; 0x6c <__rc31+0x3d>
    2223: 64 47        	stz	$47                     ; 0x47 <__rc31+0x18>
    2225: 4c 47 23     	jmp	$2347 <printf+0x4ee>
    2228: b1 12        	lda	($12),y                 ; 0x12 <__rc2>
    222a: a2 02        	ldx	#$2
    222c: c9 68        	cmp	#$68
    222e: f0 03        	beq	$2233 <printf+0x3da>
    2230: 4c 3d 25     	jmp	$253d <printf+0x6e4>
    2233: a5 12        	lda	$12                     ; 0x12 <__rc2>
    2235: 18           	clc
    2236: 69 02        	adc	#$2
    2238: 85 12        	sta	$12                     ; 0x12 <__rc2>
    223a: a5 13        	lda	$13                     ; 0x13 <__rc3>
    223c: 69 00        	adc	#$0
    223e: 85 13        	sta	$13                     ; 0x13 <__rc3>
    2240: a2 01        	ldx	#$1
    2242: 86 82        	stx	$82                     ; 0x82 <__rc31+0x53>
    2244: e8           	inx
    2245: 80 b1        	bra	$21f8 <printf+0x39f>
    2247: e0 58        	cpx	#$58
    2249: f0 03        	beq	$224e <printf+0x3f5>
    224b: 4c eb 29     	jmp	$29eb <printf+0xb92>
    224e: a6 15        	ldx	$15                     ; 0x15 <__rc5>
    2250: 86 85        	stx	$85                     ; 0x85 <__rc31+0x56>
    2252: a6 18        	ldx	$18                     ; 0x18 <__rc8>
    2254: 86 86        	stx	$86                     ; 0x86 <__rc31+0x57>
    2256: a2 10        	ldx	#$10
    2258: 86 6c        	stx	$6c                     ; 0x6c <__rc31+0x3d>
    225a: a9 00        	lda	#$0
    225c: 09 01        	ora	#$1
    225e: a6 3d        	ldx	$3d                     ; 0x3d <__rc31+0xe>
    2260: 80 29        	bra	$228b <printf+0x432>
    2262: a6 15        	ldx	$15                     ; 0x15 <__rc5>
    2264: 86 85        	stx	$85                     ; 0x85 <__rc31+0x56>
    2266: a6 18        	ldx	$18                     ; 0x18 <__rc8>
    2268: 86 86        	stx	$86                     ; 0x86 <__rc31+0x57>
    226a: a2 10        	ldx	#$10
    226c: 86 6c        	stx	$6c                     ; 0x6c <__rc31+0x3d>
    226e: a5 3d        	lda	$3d                     ; 0x3d <__rc31+0xe>
    2270: 09 84        	ora	#$84
    2272: 80 10        	bra	$2284 <printf+0x42b>
    2274: a6 15        	ldx	$15                     ; 0x15 <__rc5>
    2276: 86 85        	stx	$85                     ; 0x85 <__rc31+0x56>
    2278: a6 18        	ldx	$18                     ; 0x18 <__rc8>
    227a: 86 86        	stx	$86                     ; 0x86 <__rc31+0x57>
    227c: a2 10        	ldx	#$10
    227e: 86 6c        	stx	$6c                     ; 0x6c <__rc31+0x3d>
    2280: a5 3d        	lda	$3d                     ; 0x3d <__rc31+0xe>
    2282: 09 80        	ora	#$80
    2284: aa           	tax
    2285: a9 00        	lda	#$0
    2287: 09 01        	ora	#$1
    2289: 86 3d        	stx	$3d                     ; 0x3d <__rc31+0xe>
    228b: 86 6d        	stx	$6d                     ; 0x6d <__rc31+0x3e>
    228d: 85 47        	sta	$47                     ; 0x47 <__rc31+0x18>
    228f: 85 6e        	sta	$6e                     ; 0x6e <__rc31+0x3f>
    2291: a2 10        	ldx	#$10
    2293: 86 81        	stx	$81                     ; 0x81 <__rc31+0x52>
    2295: 4c 47 23     	jmp	$2347 <printf+0x4ee>
    2298: a5 7d        	lda	$7d                     ; 0x7d <__rc31+0x4e>
    229a: a6 7e        	ldx	$7e                     ; 0x7e <__rc31+0x4f>
    229c: 85 12        	sta	$12                     ; 0x12 <__rc2>
    229e: 86 13        	stx	$13                     ; 0x13 <__rc3>
    22a0: 18           	clc
    22a1: 69 02        	adc	#$2
    22a3: 85 14        	sta	$14                     ; 0x14 <__rc4>
    22a5: 8a           	txa
    22a6: 69 00        	adc	#$0
    22a8: a6 14        	ldx	$14                     ; 0x14 <__rc4>
    22aa: 86 7d        	stx	$7d                     ; 0x7d <__rc31+0x4e>
    22ac: 85 7e        	sta	$7e                     ; 0x7e <__rc31+0x4f>
    22ae: b2 12        	lda	($12)                   ; 0x12 <__rc2>
    22b0: aa           	tax
    22b1: b1 12        	lda	($12),y                 ; 0x12 <__rc2>
    22b3: 86 12        	stx	$12                     ; 0x12 <__rc2>
    22b5: 85 13        	sta	$13                     ; 0x13 <__rc3>
    22b7: a5 71        	lda	$71                     ; 0x71 <__rc31+0x42>
    22b9: a6 72        	ldx	$72                     ; 0x72 <__rc31+0x43>
    22bb: 92 12        	sta	($12)                   ; 0x12 <__rc2>
    22bd: 8a           	txa
    22be: 91 12        	sta	($12),y                 ; 0x12 <__rc2>
    22c0: 4c 20 23     	jmp	$2320 <printf+0x4c7>
    22c3: a5 7d        	lda	$7d                     ; 0x7d <__rc31+0x4e>
    22c5: a6 7e        	ldx	$7e                     ; 0x7e <__rc31+0x4f>
    22c7: 85 12        	sta	$12                     ; 0x12 <__rc2>
    22c9: 86 13        	stx	$13                     ; 0x13 <__rc3>
    22cb: 18           	clc
    22cc: 69 02        	adc	#$2
    22ce: 85 14        	sta	$14                     ; 0x14 <__rc4>
    22d0: 8a           	txa
    22d1: 69 00        	adc	#$0
    22d3: a6 14        	ldx	$14                     ; 0x14 <__rc4>
    22d5: 86 7d        	stx	$7d                     ; 0x7d <__rc31+0x4e>
    22d7: 85 7e        	sta	$7e                     ; 0x7e <__rc31+0x4f>
    22d9: b2 12        	lda	($12)                   ; 0x12 <__rc2>
    22db: aa           	tax
    22dc: b1 12        	lda	($12),y                 ; 0x12 <__rc2>
    22de: 86 12        	stx	$12                     ; 0x12 <__rc2>
    22e0: 85 13        	sta	$13                     ; 0x13 <__rc3>
    22e2: 80 2f        	bra	$2313 <printf+0x4ba>
    22e4: a6 15        	ldx	$15                     ; 0x15 <__rc5>
    22e6: 86 85        	stx	$85                     ; 0x85 <__rc31+0x56>
    22e8: a6 18        	ldx	$18                     ; 0x18 <__rc8>
    22ea: 86 86        	stx	$86                     ; 0x86 <__rc31+0x57>
    22ec: a0 08        	ldy	#$8
    22ee: a2 08        	ldx	#$8
    22f0: 80 45        	bra	$2337 <printf+0x4de>
    22f2: a5 7d        	lda	$7d                     ; 0x7d <__rc31+0x4e>
    22f4: a6 7e        	ldx	$7e                     ; 0x7e <__rc31+0x4f>
    22f6: 85 12        	sta	$12                     ; 0x12 <__rc2>
    22f8: 86 13        	stx	$13                     ; 0x13 <__rc3>
    22fa: 18           	clc
    22fb: 69 02        	adc	#$2
    22fd: a8           	tay
    22fe: 8a           	txa
    22ff: 69 00        	adc	#$0
    2301: 84 7d        	sty	$7d                     ; 0x7d <__rc31+0x4e>
    2303: 85 7e        	sta	$7e                     ; 0x7e <__rc31+0x4f>
    2305: b2 12        	lda	($12)                   ; 0x12 <__rc2>
    2307: 85 5f        	sta	$5f                     ; 0x5f <__rc31+0x30>
    2309: 64 60        	stz	$60                     ; 0x60 <__rc31+0x31>
    230b: a2 5f        	ldx	#$5f
    230d: 86 12        	stx	$12                     ; 0x12 <__rc2>
    230f: a2 00        	ldx	#$0
    2311: 86 13        	stx	$13                     ; 0x13 <__rc3>
    2313: a2 6c        	ldx	#$6c
    2315: 86 14        	stx	$14                     ; 0x14 <__rc4>
    2317: a2 00        	ldx	#$0
    2319: 86 15        	stx	$15                     ; 0x15 <__rc5>
    231b: 20 4d 1d     	jsr	$1d4d <_ZN12_GLOBAL__N_112print_stringEPKcP6Status>
    231e: a0 01        	ldy	#$1
    2320: a2 00        	ldx	#$0
    2322: 86 40        	stx	$40                     ; 0x40 <__rc31+0x11>
    2324: a2 00        	ldx	#$0
    2326: 86 41        	stx	$41                     ; 0x41 <__rc31+0x12>
    2328: 4c d3 29     	jmp	$29d3 <printf+0xb7a>
    232b: a6 15        	ldx	$15                     ; 0x15 <__rc5>
    232d: 86 85        	stx	$85                     ; 0x85 <__rc31+0x56>
    232f: a6 18        	ldx	$18                     ; 0x18 <__rc8>
    2331: 86 86        	stx	$86                     ; 0x86 <__rc31+0x57>
    2333: a0 0a        	ldy	#$a
    2335: a2 0a        	ldx	#$a
    2337: 86 81        	stx	$81                     ; 0x81 <__rc31+0x52>
    2339: 84 6c        	sty	$6c                     ; 0x6c <__rc31+0x3d>
    233b: a9 00        	lda	#$0
    233d: 09 01        	ora	#$1
    233f: a6 3d        	ldx	$3d                     ; 0x3d <__rc31+0xe>
    2341: 86 6d        	stx	$6d                     ; 0x6d <__rc31+0x3e>
    2343: 85 47        	sta	$47                     ; 0x47 <__rc31+0x18>
    2345: 85 6e        	sta	$6e                     ; 0x6e <__rc31+0x3f>
    2347: a5 82        	lda	$82                     ; 0x82 <__rc31+0x53>
    2349: 85 61        	sta	$61                     ; 0x61 <__rc31+0x32>
    234b: a4 7d        	ldy	$7d                     ; 0x7d <__rc31+0x4e>
    234d: a6 7e        	ldx	$7e                     ; 0x7e <__rc31+0x4f>
    234f: 86 45        	stx	$45                     ; 0x45 <__rc31+0x16>
    2351: 84 14        	sty	$14                     ; 0x14 <__rc4>
    2353: 84 3c        	sty	$3c                     ; 0x3c <__rc31+0xd>
    2355: 86 15        	stx	$15                     ; 0x15 <__rc5>
    2357: a6 83        	ldx	$83                     ; 0x83 <__rc31+0x54>
    2359: 86 12        	stx	$12                     ; 0x12 <__rc2>
    235b: a6 84        	ldx	$84                     ; 0x84 <__rc31+0x55>
    235d: 86 13        	stx	$13                     ; 0x13 <__rc3>
    235f: a2 00        	ldx	#$0
    2361: 85 41        	sta	$41                     ; 0x41 <__rc31+0x12>
    2363: 20 19 2c     	jsr	$2c19 <memcpy>
    2366: 18           	clc
    2367: a5 3c        	lda	$3c                     ; 0x3c <__rc31+0xd>
    2369: 65 40        	adc	$40                     ; 0x40 <__rc31+0x11>
    236b: aa           	tax
    236c: a5 45        	lda	$45                     ; 0x45 <__rc31+0x16>
    236e: 69 00        	adc	#$0
    2370: 86 7d        	stx	$7d                     ; 0x7d <__rc31+0x4e>
    2372: 85 7e        	sta	$7e                     ; 0x7e <__rc31+0x4f>
    2374: a5 47        	lda	$47                     ; 0x47 <__rc31+0x18>
    2376: 29 01        	and	#$1
    2378: b8           	clv
    2379: f0 03        	beq	$237e <printf+0x525>
    237b: 4c d2 23     	jmp	$23d2 <printf+0x579>
    237e: a6 41        	ldx	$41                     ; 0x41 <__rc31+0x12>
    2380: b5 61        	lda	$61,x                   ; 0x61 <__rc31+0x32>
    2382: aa           	tax
    2383: a0 01        	ldy	#$1
    2385: a5 44        	lda	$44                     ; 0x44 <__rc31+0x15>
    2387: 85 1a        	sta	$1a                     ; 0x1a <__rc10>
    2389: a5 86        	lda	$86                     ; 0x86 <__rc31+0x57>
    238b: 85 44        	sta	$44                     ; 0x44 <__rc31+0x15>
    238d: a9 00        	lda	#$0
    238f: 85 40        	sta	$40                     ; 0x40 <__rc31+0x11>
    2391: a9 00        	lda	#$0
    2393: 85 41        	sta	$41                     ; 0x41 <__rc31+0x12>
    2395: a5 85        	lda	$85                     ; 0x85 <__rc31+0x56>
    2397: 85 45        	sta	$45                     ; 0x45 <__rc31+0x16>
    2399: 8a           	txa
    239a: 10 4c        	bpl	$23e8 <printf+0x58f>
    239c: a2 00        	ldx	#$0
    239e: 64 12        	stz	$12                     ; 0x12 <__rc2>
    23a0: a9 00        	lda	#$0
    23a2: 38           	sec
    23a3: f5 62        	sbc	$62,x                   ; 0x62 <__rc31+0x33>
    23a5: a0 00        	ldy	#$0
    23a7: b0 02        	bcs	$23ab <printf+0x552>
    23a9: a0 01        	ldy	#$1
    23ab: 38           	sec
    23ac: e5 12        	sbc	$12                     ; 0x12 <__rc2>
    23ae: 85 13        	sta	$13                     ; 0x13 <__rc3>
    23b0: 64 12        	stz	$12                     ; 0x12 <__rc2>
    23b2: b0 04        	bcs	$23b8 <printf+0x55f>
    23b4: a9 01        	lda	#$1
    23b6: 85 12        	sta	$12                     ; 0x12 <__rc2>
    23b8: 98           	tya
    23b9: 05 12        	ora	$12                     ; 0x12 <__rc2>
    23bb: 85 12        	sta	$12                     ; 0x12 <__rc2>
    23bd: a5 13        	lda	$13                     ; 0x13 <__rc3>
    23bf: 9d 62 00     	sta	$62,x                   ; 0x62 <__rc31+0x33>
    23c2: e8           	inx
    23c3: 86 13        	stx	$13                     ; 0x13 <__rc3>
    23c5: a4 82        	ldy	$82                     ; 0x82 <__rc31+0x53>
    23c7: c4 13        	cpy	$13                     ; 0x13 <__rc3>
    23c9: d0 d5        	bne	$23a0 <printf+0x547>
    23cb: 2c 65 2c     	bit	$2c65                   ; 0x2c65 <__set_v>
    23ce: a0 01        	ldy	#$1
    23d0: 80 16        	bra	$23e8 <printf+0x58f>
    23d2: a0 01        	ldy	#$1
    23d4: a6 44        	ldx	$44                     ; 0x44 <__rc31+0x15>
    23d6: 86 1a        	stx	$1a                     ; 0x1a <__rc10>
    23d8: a6 86        	ldx	$86                     ; 0x86 <__rc31+0x57>
    23da: 86 44        	stx	$44                     ; 0x44 <__rc31+0x15>
    23dc: a2 00        	ldx	#$0
    23de: 86 40        	stx	$40                     ; 0x40 <__rc31+0x11>
    23e0: a2 00        	ldx	#$0
    23e2: 86 41        	stx	$41                     ; 0x41 <__rc31+0x12>
    23e4: a6 85        	ldx	$85                     ; 0x85 <__rc31+0x56>
    23e6: 86 45        	stx	$45                     ; 0x45 <__rc31+0x16>
    23e8: a2 01        	ldx	#$1
    23ea: 70 02        	bvs	$23ee <printf+0x595>
    23ec: a2 00        	ldx	#$0
    23ee: 86 16        	stx	$16                     ; 0x16 <__rc6>
    23f0: a5 82        	lda	$82                     ; 0x82 <__rc31+0x53>
    23f2: 0a           	asl
    23f3: 0a           	asl
    23f4: 0a           	asl
    23f5: 85 12        	sta	$12                     ; 0x12 <__rc2>
    23f7: a2 00        	ldx	#$0
    23f9: 8a           	txa
    23fa: e0 00        	cpx	#$0
    23fc: d0 03        	bne	$2401 <printf+0x5a8>
    23fe: 4c 86 24     	jmp	$2486 <printf+0x62d>
    2401: 85 17        	sta	$17                     ; 0x17 <__rc7>
    2403: 86 3c        	stx	$3c                     ; 0x3c <__rc31+0xd>
    2405: ca           	dex
    2406: 86 15        	stx	$15                     ; 0x15 <__rc5>
    2408: a2 00        	ldx	#$0
    240a: 64 13        	stz	$13                     ; 0x13 <__rc3>
    240c: 80 0d        	bra	$241b <printf+0x5c2>
    240e: a4 13        	ldy	$13                     ; 0x13 <__rc3>
    2410: 99 4a 00     	sta	$4a,y                   ; 0x4a <__rc31+0x1b>
    2413: a4 15        	ldy	$15                     ; 0x15 <__rc5>
    2415: c4 13        	cpy	$13                     ; 0x13 <__rc3>
    2417: f0 38        	beq	$2451 <printf+0x5f8>
    2419: e6 13        	inc	$13                     ; 0x13 <__rc3>
    241b: a4 13        	ldy	$13                     ; 0x13 <__rc3>
    241d: b9 4a 00     	lda	$4a,y                   ; 0x4a <__rc31+0x1b>
    2420: 0a           	asl
    2421: e0 00        	cpx	#$0
    2423: f0 02        	beq	$2427 <printf+0x5ce>
    2425: 09 01        	ora	#$1
    2427: a4 81        	ldy	$81                     ; 0x81 <__rc31+0x52>
    2429: 84 14        	sty	$14                     ; 0x14 <__rc4>
    242b: c5 14        	cmp	$14                     ; 0x14 <__rc4>
    242d: a2 01        	ldx	#$1
    242f: b0 02        	bcs	$2433 <printf+0x5da>
    2431: a2 00        	ldx	#$0
    2433: 90 d9        	bcc	$240e <printf+0x5b5>
    2435: 84 14        	sty	$14                     ; 0x14 <__rc4>
    2437: 38           	sec
    2438: e5 14        	sbc	$14                     ; 0x14 <__rc4>
    243a: a4 13        	ldy	$13                     ; 0x13 <__rc3>
    243c: 99 4a 00     	sta	$4a,y                   ; 0x4a <__rc31+0x1b>
    243f: a4 15        	ldy	$15                     ; 0x15 <__rc5>
    2441: c4 13        	cpy	$13                     ; 0x13 <__rc3>
    2443: d0 d4        	bne	$2419 <printf+0x5c0>
    2445: a4 3c        	ldy	$3c                     ; 0x3c <__rc31+0xd>
    2447: a6 3c        	ldx	$3c                     ; 0x3c <__rc31+0xd>
    2449: e8           	inx
    244a: a9 01        	lda	#$1
    244c: 99 4a 00     	sta	$4a,y                   ; 0x4a <__rc31+0x1b>
    244f: 86 3c        	stx	$3c                     ; 0x3c <__rc31+0xd>
    2451: a6 82        	ldx	$82                     ; 0x82 <__rc31+0x53>
    2453: b5 61        	lda	$61,x                   ; 0x61 <__rc31+0x32>
    2455: aa           	tax
    2456: a0 01        	ldy	#$1
    2458: 8a           	txa
    2459: 10 47        	bpl	$24a2 <printf+0x649>
    245b: a5 3c        	lda	$3c                     ; 0x3c <__rc31+0xd>
    245d: f0 34        	beq	$2493 <printf+0x63a>
    245f: a2 00        	ldx	#$0
    2461: a4 81        	ldy	$81                     ; 0x81 <__rc31+0x52>
    2463: 84 14        	sty	$14                     ; 0x14 <__rc4>
    2465: b5 4a        	lda	$4a,x                   ; 0x4a <__rc31+0x1b>
    2467: 1a           	inc
    2468: f6 4a        	inc	$4a,x                   ; 0x4a <__rc31+0x1b>
    246a: c5 14        	cmp	$14                     ; 0x14 <__rc4>
    246c: b0 03        	bcs	$2471 <printf+0x618>
    246e: 4c cd 24     	jmp	$24cd <printf+0x674>
    2471: a4 14        	ldy	$14                     ; 0x14 <__rc4>
    2473: 84 13        	sty	$13                     ; 0x13 <__rc3>
    2475: 38           	sec
    2476: e5 13        	sbc	$13                     ; 0x13 <__rc3>
    2478: 9d 4a 00     	sta	$4a,x                   ; 0x4a <__rc31+0x1b>
    247b: e8           	inx
    247c: 86 13        	stx	$13                     ; 0x13 <__rc3>
    247e: a4 3c        	ldy	$3c                     ; 0x3c <__rc31+0xd>
    2480: c4 13        	cpy	$13                     ; 0x13 <__rc3>
    2482: d0 e1        	bne	$2465 <printf+0x60c>
    2484: 80 0f        	bra	$2495 <printf+0x63c>
    2486: 85 17        	sta	$17                     ; 0x17 <__rc7>
    2488: a6 82        	ldx	$82                     ; 0x82 <__rc31+0x53>
    248a: b5 61        	lda	$61,x                   ; 0x61 <__rc31+0x32>
    248c: aa           	tax
    248d: 64 3c        	stz	$3c                     ; 0x3c <__rc31+0xd>
    248f: 30 04        	bmi	$2495 <printf+0x63c>
    2491: 80 0f        	bra	$24a2 <printf+0x649>
    2493: 64 3c        	stz	$3c                     ; 0x3c <__rc31+0xd>
    2495: a4 3c        	ldy	$3c                     ; 0x3c <__rc31+0xd>
    2497: a6 3c        	ldx	$3c                     ; 0x3c <__rc31+0xd>
    2499: e8           	inx
    249a: a9 01        	lda	#$1
    249c: 99 4a 00     	sta	$4a,y                   ; 0x4a <__rc31+0x1b>
    249f: a8           	tay
    24a0: 86 3c        	stx	$3c                     ; 0x3c <__rc31+0xd>
    24a2: a2 01        	ldx	#$1
    24a4: 64 13        	stz	$13                     ; 0x13 <__rc3>
    24a6: a5 82        	lda	$82                     ; 0x82 <__rc31+0x53>
    24a8: 85 14        	sta	$14                     ; 0x14 <__rc4>
    24aa: b5 61        	lda	$61,x                   ; 0x61 <__rc31+0x32>
    24ac: 0a           	asl
    24ad: 64 15        	stz	$15                     ; 0x15 <__rc5>
    24af: 26 15        	rol	$15                     ; 0x15 <__rc5>
    24b1: 05 13        	ora	$13                     ; 0x13 <__rc3>
    24b3: 9d 61 00     	sta	$61,x                   ; 0x61 <__rc31+0x32>
    24b6: e8           	inx
    24b7: c6 14        	dec	$14                     ; 0x14 <__rc4>
    24b9: a5 15        	lda	$15                     ; 0x15 <__rc5>
    24bb: 85 13        	sta	$13                     ; 0x13 <__rc3>
    24bd: a5 14        	lda	$14                     ; 0x14 <__rc4>
    24bf: d0 e9        	bne	$24aa <printf+0x651>
    24c1: a5 17        	lda	$17                     ; 0x17 <__rc7>
    24c3: 1a           	inc
    24c4: c5 12        	cmp	$12                     ; 0x12 <__rc2>
    24c6: a6 3c        	ldx	$3c                     ; 0x3c <__rc31+0xd>
    24c8: b0 07        	bcs	$24d1 <printf+0x678>
    24ca: 4c fa 23     	jmp	$23fa <printf+0x5a1>
    24cd: a0 01        	ldy	#$1
    24cf: 80 d1        	bra	$24a2 <printf+0x649>
    24d1: a5 3d        	lda	$3d                     ; 0x3d <__rc31+0xe>
    24d3: e6 45        	inc	$45                     ; 0x45 <__rc31+0x16>
    24d5: c6 45        	dec	$45                     ; 0x45 <__rc31+0x16>
    24d7: 10 08        	bpl	$24e1 <printf+0x688>
    24d9: a2 01        	ldx	#$1
    24db: 64 45        	stz	$45                     ; 0x45 <__rc31+0x16>
    24dd: 86 44        	stx	$44                     ; 0x44 <__rc31+0x15>
    24df: a6 3c        	ldx	$3c                     ; 0x3c <__rc31+0xd>
    24e1: 29 04        	and	#$4
    24e3: f0 2b        	beq	$2510 <printf+0x6b7>
    24e5: a5 81        	lda	$81                     ; 0x81 <__rc31+0x52>
    24e7: c9 10        	cmp	#$10
    24e9: f0 14        	beq	$24ff <printf+0x6a6>
    24eb: c9 08        	cmp	#$8
    24ed: d0 21        	bne	$2510 <printf+0x6b7>
    24ef: a2 00        	ldx	#$0
    24f1: e4 45        	cpx	$45                     ; 0x45 <__rc31+0x16>
    24f3: f0 03        	beq	$24f8 <printf+0x69f>
    24f5: 4c fa 29     	jmp	$29fa <printf+0xba1>
    24f8: a6 3c        	ldx	$3c                     ; 0x3c <__rc31+0xd>
    24fa: e4 44        	cpx	$44                     ; 0x44 <__rc31+0x15>
    24fc: 4c fc 29     	jmp	$29fc <printf+0xba3>
    24ff: 8a           	txa
    2500: f0 0e        	beq	$2510 <printf+0x6b7>
    2502: a5 3d        	lda	$3d                     ; 0x3d <__rc31+0xe>
    2504: 29 80        	and	#$80
    2506: d0 03        	bne	$250b <printf+0x6b2>
    2508: 4c 15 2a     	jmp	$2a15 <printf+0xbbc>
    250b: a2 78        	ldx	#$78
    250d: 4c 17 2a     	jmp	$2a17 <printf+0xbbe>
    2510: a6 3d        	ldx	$3d                     ; 0x3d <__rc31+0xe>
    2512: a9 2d        	lda	#$2d
    2514: 85 85        	sta	$85                     ; 0x85 <__rc31+0x56>
    2516: a5 16        	lda	$16                     ; 0x16 <__rc6>
    2518: d0 32        	bne	$254c <printf+0x6f3>
    251a: 86 12        	stx	$12                     ; 0x12 <__rc2>
    251c: 8a           	txa
    251d: 29 02        	and	#$2
    251f: a2 2b        	ldx	#$2b
    2521: 86 85        	stx	$85                     ; 0x85 <__rc31+0x56>
    2523: aa           	tax
    2524: d0 26        	bne	$254c <printf+0x6f3>
    2526: a5 12        	lda	$12                     ; 0x12 <__rc2>
    2528: 29 08        	and	#$8
    252a: d0 1c        	bne	$2548 <printf+0x6ef>
    252c: a2 01        	ldx	#$1
    252e: 86 82        	stx	$82                     ; 0x82 <__rc31+0x53>
    2530: a9 00        	lda	#$0
    2532: aa           	tax
    2533: 86 81        	stx	$81                     ; 0x81 <__rc31+0x52>
    2535: 80 1c        	bra	$2553 <printf+0x6fa>
    2537: 85 12        	sta	$12                     ; 0x12 <__rc2>
    2539: a9 04        	lda	#$4
    253b: 80 04        	bra	$2541 <printf+0x6e8>
    253d: 85 12        	sta	$12                     ; 0x12 <__rc2>
    253f: a9 02        	lda	#$2
    2541: 85 82        	sta	$82                     ; 0x82 <__rc31+0x53>
    2543: a5 12        	lda	$12                     ; 0x12 <__rc2>
    2545: 4c 04 22     	jmp	$2204 <printf+0x3ab>
    2548: a2 20        	ldx	#$20
    254a: 86 85        	stx	$85                     ; 0x85 <__rc31+0x56>
    254c: a2 00        	ldx	#$0
    254e: 86 82        	stx	$82                     ; 0x82 <__rc31+0x53>
    2550: 86 81        	stx	$81                     ; 0x81 <__rc31+0x52>
    2552: 98           	tya
    2553: a6 45        	ldx	$45                     ; 0x45 <__rc31+0x16>
    2555: d0 35        	bne	$258c <printf+0x733>
    2557: a6 44        	ldx	$44                     ; 0x44 <__rc31+0x15>
    2559: a4 3c        	ldy	$3c                     ; 0x3c <__rc31+0xd>
    255b: 84 12        	sty	$12                     ; 0x12 <__rc2>
    255d: e4 12        	cpx	$12                     ; 0x12 <__rc2>
    255f: a6 44        	ldx	$44                     ; 0x44 <__rc31+0x15>
    2561: 86 12        	stx	$12                     ; 0x12 <__rc2>
    2563: a6 45        	ldx	$45                     ; 0x45 <__rc31+0x16>
    2565: 86 13        	stx	$13                     ; 0x13 <__rc3>
    2567: b0 04        	bcs	$256d <printf+0x714>
    2569: 84 12        	sty	$12                     ; 0x12 <__rc2>
    256b: 64 13        	stz	$13                     ; 0x13 <__rc3>
    256d: 85 18        	sta	$18                     ; 0x18 <__rc8>
    256f: 18           	clc
    2570: 65 12        	adc	$12                     ; 0x12 <__rc2>
    2572: 85 16        	sta	$16                     ; 0x16 <__rc6>
    2574: 85 14        	sta	$14                     ; 0x14 <__rc4>
    2576: a5 13        	lda	$13                     ; 0x13 <__rc3>
    2578: 69 00        	adc	#$0
    257a: 85 15        	sta	$15                     ; 0x15 <__rc5>
    257c: c5 1a        	cmp	$1a                     ; 0x1a <__rc10>
    257e: d0 1e        	bne	$259e <printf+0x745>
    2580: a6 1a        	ldx	$1a                     ; 0x1a <__rc10>
    2582: 86 17        	stx	$17                     ; 0x17 <__rc7>
    2584: a6 46        	ldx	$46                     ; 0x46 <__rc31+0x17>
    2586: a5 16        	lda	$16                     ; 0x16 <__rc6>
    2588: c5 46        	cmp	$46                     ; 0x46 <__rc31+0x17>
    258a: 80 1c        	bra	$25a8 <printf+0x74f>
    258c: a6 45        	ldx	$45                     ; 0x45 <__rc31+0x16>
    258e: e0 00        	cpx	#$0
    2590: a6 44        	ldx	$44                     ; 0x44 <__rc31+0x15>
    2592: 86 12        	stx	$12                     ; 0x12 <__rc2>
    2594: a6 45        	ldx	$45                     ; 0x45 <__rc31+0x16>
    2596: 86 13        	stx	$13                     ; 0x13 <__rc3>
    2598: a4 3c        	ldy	$3c                     ; 0x3c <__rc31+0xd>
    259a: 90 cd        	bcc	$2569 <printf+0x710>
    259c: 80 cf        	bra	$256d <printf+0x714>
    259e: a6 46        	ldx	$46                     ; 0x46 <__rc31+0x17>
    25a0: 5a           	phy
    25a1: a4 1a        	ldy	$1a                     ; 0x1a <__rc10>
    25a3: 84 17        	sty	$17                     ; 0x17 <__rc7>
    25a5: 7a           	ply
    25a6: c5 1a        	cmp	$1a                     ; 0x1a <__rc10>
    25a8: 64 47        	stz	$47                     ; 0x47 <__rc31+0x18>
    25aa: 64 46        	stz	$46                     ; 0x46 <__rc31+0x17>
    25ac: 90 03        	bcc	$25b1 <printf+0x758>
    25ae: 4c 4c 26     	jmp	$264c <printf+0x7f3>
    25b1: a5 3d        	lda	$3d                     ; 0x3d <__rc31+0xe>
    25b3: 29 11        	and	#$11
    25b5: 86 16        	stx	$16                     ; 0x16 <__rc6>
    25b7: f0 0f        	beq	$25c8 <printf+0x76f>
    25b9: 8a           	txa
    25ba: 38           	sec
    25bb: e5 14        	sbc	$14                     ; 0x14 <__rc4>
    25bd: 85 47        	sta	$47                     ; 0x47 <__rc31+0x18>
    25bf: a5 1a        	lda	$1a                     ; 0x1a <__rc10>
    25c1: e5 15        	sbc	$15                     ; 0x15 <__rc5>
    25c3: 85 46        	sta	$46                     ; 0x46 <__rc31+0x17>
    25c5: 4c 4c 26     	jmp	$264c <printf+0x7f3>
    25c8: a6 71        	ldx	$71                     ; 0x71 <__rc31+0x42>
    25ca: 86 14        	stx	$14                     ; 0x14 <__rc4>
    25cc: 38           	sec
    25cd: a5 18        	lda	$18                     ; 0x18 <__rc8>
    25cf: e5 16        	sbc	$16                     ; 0x16 <__rc6>
    25d1: a8           	tay
    25d2: a9 00        	lda	#$0
    25d4: e5 17        	sbc	$17                     ; 0x17 <__rc7>
    25d6: aa           	tax
    25d7: 18           	clc
    25d8: 98           	tya
    25d9: 65 12        	adc	$12                     ; 0x12 <__rc2>
    25db: 85 3d        	sta	$3d                     ; 0x3d <__rc31+0xe>
    25dd: 8a           	txa
    25de: 65 13        	adc	$13                     ; 0x13 <__rc3>
    25e0: 85 46        	sta	$46                     ; 0x46 <__rc31+0x17>
    25e2: a5 72        	lda	$72                     ; 0x72 <__rc31+0x43>
    25e4: 80 4e        	bra	$2634 <printf+0x7db>
    25e6: c5 70        	cmp	$70                     ; 0x70 <__rc31+0x41>
    25e8: a4 46        	ldy	$46                     ; 0x46 <__rc31+0x17>
    25ea: b0 28        	bcs	$2614 <printf+0x7bb>
    25ec: a6 7c        	ldx	$7c                     ; 0x7c <__rc31+0x4d>
    25ee: e4 41        	cpx	$41                     ; 0x41 <__rc31+0x12>
    25f0: d0 19        	bne	$260b <printf+0x7b2>
    25f2: a6 7b        	ldx	$7b                     ; 0x7b <__rc31+0x4c>
    25f4: e4 40        	cpx	$40                     ; 0x40 <__rc31+0x11>
    25f6: d0 13        	bne	$260b <printf+0x7b2>
    25f8: 18           	clc
    25f9: aa           	tax
    25fa: a5 14        	lda	$14                     ; 0x14 <__rc4>
    25fc: 65 75        	adc	$75                     ; 0x75 <__rc31+0x46>
    25fe: 85 12        	sta	$12                     ; 0x12 <__rc2>
    2600: 8a           	txa
    2601: 65 76        	adc	$76                     ; 0x76 <__rc31+0x47>
    2603: 85 13        	sta	$13                     ; 0x13 <__rc3>
    2605: a9 20        	lda	#$20
    2607: 92 12        	sta	($12)                   ; 0x12 <__rc2>
    2609: 80 07        	bra	$2612 <printf+0x7b9>
    260b: a2 00        	ldx	#$0
    260d: a9 20        	lda	#$20
    260f: 20 32 2a     	jsr	$2a32 <putchar>
    2612: a4 46        	ldy	$46                     ; 0x46 <__rc31+0x17>
    2614: a6 71        	ldx	$71                     ; 0x71 <__rc31+0x42>
    2616: a5 72        	lda	$72                     ; 0x72 <__rc31+0x43>
    2618: e8           	inx
    2619: d0 01        	bne	$261c <printf+0x7c3>
    261b: 1a           	inc
    261c: 86 14        	stx	$14                     ; 0x14 <__rc4>
    261e: 86 71        	stx	$71                     ; 0x71 <__rc31+0x42>
    2620: 85 72        	sta	$72                     ; 0x72 <__rc31+0x43>
    2622: a6 3d        	ldx	$3d                     ; 0x3d <__rc31+0xe>
    2624: e8           	inx
    2625: d0 01        	bne	$2628 <printf+0x7cf>
    2627: c8           	iny
    2628: 86 3d        	stx	$3d                     ; 0x3d <__rc31+0xe>
    262a: 84 46        	sty	$46                     ; 0x46 <__rc31+0x17>
    262c: c0 00        	cpy	#$0
    262e: d0 04        	bne	$2634 <printf+0x7db>
    2630: e0 00        	cpx	#$0
    2632: f0 12        	beq	$2646 <printf+0x7ed>
    2634: c5 70        	cmp	$70                     ; 0x70 <__rc31+0x41>
    2636: f0 03        	beq	$263b <printf+0x7e2>
    2638: 4c e6 25     	jmp	$25e6 <printf+0x78d>
    263b: a6 6f        	ldx	$6f                     ; 0x6f <__rc31+0x40>
    263d: 86 12        	stx	$12                     ; 0x12 <__rc2>
    263f: a6 14        	ldx	$14                     ; 0x14 <__rc4>
    2641: e4 12        	cpx	$12                     ; 0x12 <__rc2>
    2643: 4c e8 25     	jmp	$25e8 <printf+0x78f>
    2646: 64 47        	stz	$47                     ; 0x47 <__rc31+0x18>
    2648: 64 46        	stz	$46                     ; 0x46 <__rc31+0x17>
    264a: a4 3c        	ldy	$3c                     ; 0x3c <__rc31+0xd>
    264c: a6 82        	ldx	$82                     ; 0x82 <__rc31+0x53>
    264e: d0 4f        	bne	$269f <printf+0x846>
    2650: a6 71        	ldx	$71                     ; 0x71 <__rc31+0x42>
    2652: a5 72        	lda	$72                     ; 0x72 <__rc31+0x43>
    2654: c5 70        	cmp	$70                     ; 0x70 <__rc31+0x41>
    2656: d0 10        	bne	$2668 <printf+0x80f>
    2658: 86 13        	stx	$13                     ; 0x13 <__rc3>
    265a: a6 6f        	ldx	$6f                     ; 0x6f <__rc31+0x40>
    265c: 86 12        	stx	$12                     ; 0x12 <__rc2>
    265e: a4 3c        	ldy	$3c                     ; 0x3c <__rc31+0xd>
    2660: a6 13        	ldx	$13                     ; 0x13 <__rc3>
    2662: e4 12        	cpx	$12                     ; 0x12 <__rc2>
    2664: 90 08        	bcc	$266e <printf+0x815>
    2666: 80 31        	bra	$2699 <printf+0x840>
    2668: 86 13        	stx	$13                     ; 0x13 <__rc3>
    266a: c5 70        	cmp	$70                     ; 0x70 <__rc31+0x41>
    266c: b0 2b        	bcs	$2699 <printf+0x840>
    266e: a6 7c        	ldx	$7c                     ; 0x7c <__rc31+0x4d>
    2670: e4 41        	cpx	$41                     ; 0x41 <__rc31+0x12>
    2672: d0 1c        	bne	$2690 <printf+0x837>
    2674: a6 7b        	ldx	$7b                     ; 0x7b <__rc31+0x4c>
    2676: e4 40        	cpx	$40                     ; 0x40 <__rc31+0x11>
    2678: d0 16        	bne	$2690 <printf+0x837>
    267a: 18           	clc
    267b: 85 12        	sta	$12                     ; 0x12 <__rc2>
    267d: a5 13        	lda	$13                     ; 0x13 <__rc3>
    267f: 65 75        	adc	$75                     ; 0x75 <__rc31+0x46>
    2681: aa           	tax
    2682: a5 12        	lda	$12                     ; 0x12 <__rc2>
    2684: 65 76        	adc	$76                     ; 0x76 <__rc31+0x47>
    2686: 86 12        	stx	$12                     ; 0x12 <__rc2>
    2688: 85 13        	sta	$13                     ; 0x13 <__rc3>
    268a: a5 85        	lda	$85                     ; 0x85 <__rc31+0x56>
    268c: 92 12        	sta	($12)                   ; 0x12 <__rc2>
    268e: 80 07        	bra	$2697 <printf+0x83e>
    2690: a2 00        	ldx	#$0
    2692: a5 85        	lda	$85                     ; 0x85 <__rc31+0x56>
    2694: 20 32 2a     	jsr	$2a32 <putchar>
    2697: a4 3c        	ldy	$3c                     ; 0x3c <__rc31+0xd>
    2699: e6 71        	inc	$71                     ; 0x71 <__rc31+0x42>
    269b: d0 02        	bne	$269f <printf+0x846>
    269d: e6 72        	inc	$72                     ; 0x72 <__rc31+0x43>
    269f: a6 81        	ldx	$81                     ; 0x81 <__rc31+0x52>
    26a1: f0 4f        	beq	$26f2 <printf+0x899>
    26a3: a6 71        	ldx	$71                     ; 0x71 <__rc31+0x42>
    26a5: a5 72        	lda	$72                     ; 0x72 <__rc31+0x43>
    26a7: c5 70        	cmp	$70                     ; 0x70 <__rc31+0x41>
    26a9: d0 10        	bne	$26bb <printf+0x862>
    26ab: 86 13        	stx	$13                     ; 0x13 <__rc3>
    26ad: a6 6f        	ldx	$6f                     ; 0x6f <__rc31+0x40>
    26af: 86 12        	stx	$12                     ; 0x12 <__rc2>
    26b1: a4 3c        	ldy	$3c                     ; 0x3c <__rc31+0xd>
    26b3: a6 13        	ldx	$13                     ; 0x13 <__rc3>
    26b5: e4 12        	cpx	$12                     ; 0x12 <__rc2>
    26b7: 90 08        	bcc	$26c1 <printf+0x868>
    26b9: 80 31        	bra	$26ec <printf+0x893>
    26bb: 86 13        	stx	$13                     ; 0x13 <__rc3>
    26bd: c5 70        	cmp	$70                     ; 0x70 <__rc31+0x41>
    26bf: b0 2b        	bcs	$26ec <printf+0x893>
    26c1: a6 7c        	ldx	$7c                     ; 0x7c <__rc31+0x4d>
    26c3: e4 41        	cpx	$41                     ; 0x41 <__rc31+0x12>
    26c5: d0 1c        	bne	$26e3 <printf+0x88a>
    26c7: a6 7b        	ldx	$7b                     ; 0x7b <__rc31+0x4c>
    26c9: e4 40        	cpx	$40                     ; 0x40 <__rc31+0x11>
    26cb: d0 16        	bne	$26e3 <printf+0x88a>
    26cd: 18           	clc
    26ce: 85 12        	sta	$12                     ; 0x12 <__rc2>
    26d0: a5 13        	lda	$13                     ; 0x13 <__rc3>
    26d2: 65 75        	adc	$75                     ; 0x75 <__rc31+0x46>
    26d4: aa           	tax
    26d5: a5 12        	lda	$12                     ; 0x12 <__rc2>
    26d7: 65 76        	adc	$76                     ; 0x76 <__rc31+0x47>
    26d9: 86 12        	stx	$12                     ; 0x12 <__rc2>
    26db: 85 13        	sta	$13                     ; 0x13 <__rc3>
    26dd: a5 86        	lda	$86                     ; 0x86 <__rc31+0x57>
    26df: 92 12        	sta	($12)                   ; 0x12 <__rc2>
    26e1: 80 07        	bra	$26ea <printf+0x891>
    26e3: a2 00        	ldx	#$0
    26e5: a5 86        	lda	$86                     ; 0x86 <__rc31+0x57>
    26e7: 20 32 2a     	jsr	$2a32 <putchar>
    26ea: a4 3c        	ldy	$3c                     ; 0x3c <__rc31+0xd>
    26ec: e6 71        	inc	$71                     ; 0x71 <__rc31+0x42>
    26ee: d0 02        	bne	$26f2 <printf+0x899>
    26f0: e6 72        	inc	$72                     ; 0x72 <__rc31+0x43>
    26f2: a9 10        	lda	#$10
    26f4: 25 6d        	and	$6d                     ; 0x6d <__rc31+0x3e>
    26f6: d0 03        	bne	$26fb <printf+0x8a2>
    26f8: 4c 84 27     	jmp	$2784 <printf+0x92b>
    26fb: a5 6d        	lda	$6d                     ; 0x6d <__rc31+0x3e>
    26fd: 29 01        	and	#$1
    26ff: f0 03        	beq	$2704 <printf+0x8ab>
    2701: 4c 84 27     	jmp	$2784 <printf+0x92b>
    2704: a6 47        	ldx	$47                     ; 0x47 <__rc31+0x18>
    2706: a5 46        	lda	$46                     ; 0x46 <__rc31+0x17>
    2708: d0 06        	bne	$2710 <printf+0x8b7>
    270a: 8a           	txa
    270b: d0 03        	bne	$2710 <printf+0x8b7>
    270d: 4c 2a 2a     	jmp	$2a2a <printf+0xbd1>
    2710: a6 71        	ldx	$71                     ; 0x71 <__rc31+0x42>
    2712: 86 13        	stx	$13                     ; 0x13 <__rc3>
    2714: a5 72        	lda	$72                     ; 0x72 <__rc31+0x43>
    2716: 4c 6a 27     	jmp	$276a <printf+0x911>
    2719: c5 70        	cmp	$70                     ; 0x70 <__rc31+0x41>
    271b: b0 26        	bcs	$2743 <printf+0x8ea>
    271d: a6 7c        	ldx	$7c                     ; 0x7c <__rc31+0x4d>
    271f: e4 41        	cpx	$41                     ; 0x41 <__rc31+0x12>
    2721: d0 19        	bne	$273c <printf+0x8e3>
    2723: a6 7b        	ldx	$7b                     ; 0x7b <__rc31+0x4c>
    2725: e4 40        	cpx	$40                     ; 0x40 <__rc31+0x11>
    2727: d0 13        	bne	$273c <printf+0x8e3>
    2729: 18           	clc
    272a: aa           	tax
    272b: a5 13        	lda	$13                     ; 0x13 <__rc3>
    272d: 65 75        	adc	$75                     ; 0x75 <__rc31+0x46>
    272f: 85 12        	sta	$12                     ; 0x12 <__rc2>
    2731: 8a           	txa
    2732: 65 76        	adc	$76                     ; 0x76 <__rc31+0x47>
    2734: 85 13        	sta	$13                     ; 0x13 <__rc3>
    2736: a9 30        	lda	#$30
    2738: 92 12        	sta	($12)                   ; 0x12 <__rc2>
    273a: 80 07        	bra	$2743 <printf+0x8ea>
    273c: a2 00        	ldx	#$0
    273e: a9 30        	lda	#$30
    2740: 20 32 2a     	jsr	$2a32 <putchar>
    2743: a6 71        	ldx	$71                     ; 0x71 <__rc31+0x42>
    2745: a5 72        	lda	$72                     ; 0x72 <__rc31+0x43>
    2747: e8           	inx
    2748: d0 01        	bne	$274b <printf+0x8f2>
    274a: 1a           	inc
    274b: 86 13        	stx	$13                     ; 0x13 <__rc3>
    274d: 86 71        	stx	$71                     ; 0x71 <__rc31+0x42>
    274f: 85 72        	sta	$72                     ; 0x72 <__rc31+0x43>
    2751: a4 47        	ldy	$47                     ; 0x47 <__rc31+0x18>
    2753: a6 46        	ldx	$46                     ; 0x46 <__rc31+0x17>
    2755: 86 12        	stx	$12                     ; 0x12 <__rc2>
    2757: 88           	dey
    2758: c0 ff        	cpy	#$ff
    275a: d0 02        	bne	$275e <printf+0x905>
    275c: c6 12        	dec	$12                     ; 0x12 <__rc2>
    275e: 84 47        	sty	$47                     ; 0x47 <__rc31+0x18>
    2760: a6 12        	ldx	$12                     ; 0x12 <__rc2>
    2762: 86 46        	stx	$46                     ; 0x46 <__rc31+0x17>
    2764: d0 04        	bne	$276a <printf+0x911>
    2766: c0 00        	cpy	#$0
    2768: f0 14        	beq	$277e <printf+0x925>
    276a: c5 70        	cmp	$70                     ; 0x70 <__rc31+0x41>
    276c: f0 03        	beq	$2771 <printf+0x918>
    276e: 4c 19 27     	jmp	$2719 <printf+0x8c0>
    2771: a6 6f        	ldx	$6f                     ; 0x6f <__rc31+0x40>
    2773: 86 12        	stx	$12                     ; 0x12 <__rc2>
    2775: a6 13        	ldx	$13                     ; 0x13 <__rc3>
    2777: e4 12        	cpx	$12                     ; 0x12 <__rc2>
    2779: b0 c8        	bcs	$2743 <printf+0x8ea>
    277b: 4c 1d 27     	jmp	$271d <printf+0x8c4>
    277e: 64 47        	stz	$47                     ; 0x47 <__rc31+0x18>
    2780: 64 46        	stz	$46                     ; 0x46 <__rc31+0x17>
    2782: a4 3c        	ldy	$3c                     ; 0x3c <__rc31+0xd>
    2784: a2 00        	ldx	#$0
    2786: e4 45        	cpx	$45                     ; 0x45 <__rc31+0x16>
    2788: d0 07        	bne	$2791 <printf+0x938>
    278a: c4 44        	cpy	$44                     ; 0x44 <__rc31+0x15>
    278c: 90 0a        	bcc	$2798 <printf+0x93f>
    278e: 4c 08 28     	jmp	$2808 <printf+0x9af>
    2791: e4 45        	cpx	$45                     ; 0x45 <__rc31+0x16>
    2793: 90 03        	bcc	$2798 <printf+0x93f>
    2795: 4c 08 28     	jmp	$2808 <printf+0x9af>
    2798: a6 71        	ldx	$71                     ; 0x71 <__rc31+0x42>
    279a: 86 13        	stx	$13                     ; 0x13 <__rc3>
    279c: a5 72        	lda	$72                     ; 0x72 <__rc31+0x43>
    279e: a2 ff        	ldx	#$ff
    27a0: c6 44        	dec	$44                     ; 0x44 <__rc31+0x15>
    27a2: e4 44        	cpx	$44                     ; 0x44 <__rc31+0x15>
    27a4: d0 02        	bne	$27a8 <printf+0x94f>
    27a6: c6 45        	dec	$45                     ; 0x45 <__rc31+0x16>
    27a8: c5 70        	cmp	$70                     ; 0x70 <__rc31+0x41>
    27aa: d0 0c        	bne	$27b8 <printf+0x95f>
    27ac: a6 6f        	ldx	$6f                     ; 0x6f <__rc31+0x40>
    27ae: 86 12        	stx	$12                     ; 0x12 <__rc2>
    27b0: a6 13        	ldx	$13                     ; 0x13 <__rc3>
    27b2: e4 12        	cpx	$12                     ; 0x12 <__rc2>
    27b4: 90 06        	bcc	$27bc <printf+0x963>
    27b6: 80 2a        	bra	$27e2 <printf+0x989>
    27b8: c5 70        	cmp	$70                     ; 0x70 <__rc31+0x41>
    27ba: b0 26        	bcs	$27e2 <printf+0x989>
    27bc: a6 7c        	ldx	$7c                     ; 0x7c <__rc31+0x4d>
    27be: e4 41        	cpx	$41                     ; 0x41 <__rc31+0x12>
    27c0: d0 19        	bne	$27db <printf+0x982>
    27c2: a6 7b        	ldx	$7b                     ; 0x7b <__rc31+0x4c>
    27c4: e4 40        	cpx	$40                     ; 0x40 <__rc31+0x11>
    27c6: d0 13        	bne	$27db <printf+0x982>
    27c8: 18           	clc
    27c9: aa           	tax
    27ca: a5 13        	lda	$13                     ; 0x13 <__rc3>
    27cc: 65 75        	adc	$75                     ; 0x75 <__rc31+0x46>
    27ce: 85 12        	sta	$12                     ; 0x12 <__rc2>
    27d0: 8a           	txa
    27d1: 65 76        	adc	$76                     ; 0x76 <__rc31+0x47>
    27d3: 85 13        	sta	$13                     ; 0x13 <__rc3>
    27d5: a9 30        	lda	#$30
    27d7: 92 12        	sta	($12)                   ; 0x12 <__rc2>
    27d9: 80 07        	bra	$27e2 <printf+0x989>
    27db: a2 00        	ldx	#$0
    27dd: a9 30        	lda	#$30
    27df: 20 32 2a     	jsr	$2a32 <putchar>
    27e2: a6 71        	ldx	$71                     ; 0x71 <__rc31+0x42>
    27e4: a5 72        	lda	$72                     ; 0x72 <__rc31+0x43>
    27e6: e8           	inx
    27e7: d0 01        	bne	$27ea <printf+0x991>
    27e9: 1a           	inc
    27ea: 86 13        	stx	$13                     ; 0x13 <__rc3>
    27ec: 86 71        	stx	$71                     ; 0x71 <__rc31+0x42>
    27ee: 85 72        	sta	$72                     ; 0x72 <__rc31+0x43>
    27f0: a2 00        	ldx	#$0
    27f2: e4 45        	cpx	$45                     ; 0x45 <__rc31+0x16>
    27f4: d0 09        	bne	$27ff <printf+0x9a6>
    27f6: a4 3c        	ldy	$3c                     ; 0x3c <__rc31+0xd>
    27f8: c4 44        	cpy	$44                     ; 0x44 <__rc31+0x15>
    27fa: b0 0c        	bcs	$2808 <printf+0x9af>
    27fc: 4c 9e 27     	jmp	$279e <printf+0x945>
    27ff: e4 45        	cpx	$45                     ; 0x45 <__rc31+0x16>
    2801: a4 3c        	ldy	$3c                     ; 0x3c <__rc31+0xd>
    2803: b0 03        	bcs	$2808 <printf+0x9af>
    2805: 4c 9e 27     	jmp	$279e <printf+0x945>
    2808: 98           	tya
    2809: d0 03        	bne	$280e <printf+0x9b5>
    280b: 4c 01 29     	jmp	$2901 <printf+0xaa8>
    280e: 88           	dey
    280f: d0 03        	bne	$2814 <printf+0x9bb>
    2811: 4c 9e 28     	jmp	$289e <printf+0xa45>
    2814: 84 44        	sty	$44                     ; 0x44 <__rc31+0x15>
    2816: a6 87        	ldx	$87                     ; 0x87 <__rc31+0x58>
    2818: 8a           	txa
    2819: 18           	clc
    281a: 65 44        	adc	$44                     ; 0x44 <__rc31+0x15>
    281c: 85 3c        	sta	$3c                     ; 0x3c <__rc31+0xd>
    281e: a5 88        	lda	$88                     ; 0x88 <__rc31+0x59>
    2820: 69 00        	adc	#$0
    2822: 85 3d        	sta	$3d                     ; 0x3d <__rc31+0xe>
    2824: 4c 90 28     	jmp	$2890 <printf+0xa37>
    2827: a8           	tay
    2828: a9 80        	lda	#$80
    282a: 25 6d        	and	$6d                     ; 0x6d <__rc31+0x3e>
    282c: f0 04        	beq	$2832 <printf+0x9d9>
    282e: a2 61        	ldx	#$61
    2830: 80 02        	bra	$2834 <printf+0x9db>
    2832: a2 41        	ldx	#$41
    2834: 86 12        	stx	$12                     ; 0x12 <__rc2>
    2836: 18           	clc
    2837: 98           	tya
    2838: 65 12        	adc	$12                     ; 0x12 <__rc2>
    283a: 18           	clc
    283b: 69 f6        	adc	#$f6
    283d: a4 71        	ldy	$71                     ; 0x71 <__rc31+0x42>
    283f: a6 72        	ldx	$72                     ; 0x72 <__rc31+0x43>
    2841: e4 70        	cpx	$70                     ; 0x70 <__rc31+0x41>
    2843: d0 0c        	bne	$2851 <printf+0x9f8>
    2845: 86 14        	stx	$14                     ; 0x14 <__rc4>
    2847: a6 6f        	ldx	$6f                     ; 0x6f <__rc31+0x40>
    2849: 86 12        	stx	$12                     ; 0x12 <__rc2>
    284b: c4 12        	cpy	$12                     ; 0x12 <__rc2>
    284d: 90 08        	bcc	$2857 <printf+0x9fe>
    284f: 80 29        	bra	$287a <printf+0xa21>
    2851: 86 14        	stx	$14                     ; 0x14 <__rc4>
    2853: e4 70        	cpx	$70                     ; 0x70 <__rc31+0x41>
    2855: b0 23        	bcs	$287a <printf+0xa21>
    2857: a6 7c        	ldx	$7c                     ; 0x7c <__rc31+0x4d>
    2859: e4 41        	cpx	$41                     ; 0x41 <__rc31+0x12>
    285b: d0 18        	bne	$2875 <printf+0xa1c>
    285d: a6 7b        	ldx	$7b                     ; 0x7b <__rc31+0x4c>
    285f: e4 40        	cpx	$40                     ; 0x40 <__rc31+0x11>
    2861: d0 12        	bne	$2875 <printf+0xa1c>
    2863: 18           	clc
    2864: aa           	tax
    2865: 98           	tya
    2866: 65 75        	adc	$75                     ; 0x75 <__rc31+0x46>
    2868: 85 12        	sta	$12                     ; 0x12 <__rc2>
    286a: a5 14        	lda	$14                     ; 0x14 <__rc4>
    286c: 65 76        	adc	$76                     ; 0x76 <__rc31+0x47>
    286e: 85 13        	sta	$13                     ; 0x13 <__rc3>
    2870: 8a           	txa
    2871: 92 12        	sta	($12)                   ; 0x12 <__rc2>
    2873: 80 05        	bra	$287a <printf+0xa21>
    2875: a2 00        	ldx	#$0
    2877: 20 32 2a     	jsr	$2a32 <putchar>
    287a: e6 71        	inc	$71                     ; 0x71 <__rc31+0x42>
    287c: d0 02        	bne	$2880 <printf+0xa27>
    287e: e6 72        	inc	$72                     ; 0x72 <__rc31+0x43>
    2880: c6 44        	dec	$44                     ; 0x44 <__rc31+0x15>
    2882: a2 ff        	ldx	#$ff
    2884: c6 3c        	dec	$3c                     ; 0x3c <__rc31+0xd>
    2886: e4 3c        	cpx	$3c                     ; 0x3c <__rc31+0xd>
    2888: d0 02        	bne	$288c <printf+0xa33>
    288a: c6 3d        	dec	$3d                     ; 0x3d <__rc31+0xe>
    288c: a5 44        	lda	$44                     ; 0x44 <__rc31+0x15>
    288e: f0 0e        	beq	$289e <printf+0xa45>
    2890: b2 3c        	lda	($3c)                   ; 0x3c <__rc31+0xd>
    2892: c9 0a        	cmp	#$a
    2894: 90 03        	bcc	$2899 <printf+0xa40>
    2896: 4c 27 28     	jmp	$2827 <printf+0x9ce>
    2899: 09 30        	ora	#$30
    289b: 4c 3d 28     	jmp	$283d <printf+0x9e4>
    289e: a5 4a        	lda	$4a                     ; 0x4a <__rc31+0x1b>
    28a0: c9 0a        	cmp	#$a
    28a2: b0 04        	bcs	$28a8 <printf+0xa4f>
    28a4: 09 30        	ora	#$30
    28a6: 80 16        	bra	$28be <printf+0xa65>
    28a8: a8           	tay
    28a9: a9 80        	lda	#$80
    28ab: 25 6d        	and	$6d                     ; 0x6d <__rc31+0x3e>
    28ad: f0 04        	beq	$28b3 <printf+0xa5a>
    28af: a2 61        	ldx	#$61
    28b1: 80 02        	bra	$28b5 <printf+0xa5c>
    28b3: a2 41        	ldx	#$41
    28b5: 86 12        	stx	$12                     ; 0x12 <__rc2>
    28b7: 18           	clc
    28b8: 98           	tya
    28b9: 65 12        	adc	$12                     ; 0x12 <__rc2>
    28bb: 18           	clc
    28bc: 69 f6        	adc	#$f6
    28be: a4 71        	ldy	$71                     ; 0x71 <__rc31+0x42>
    28c0: a6 72        	ldx	$72                     ; 0x72 <__rc31+0x43>
    28c2: e4 70        	cpx	$70                     ; 0x70 <__rc31+0x41>
    28c4: d0 0c        	bne	$28d2 <printf+0xa79>
    28c6: 86 14        	stx	$14                     ; 0x14 <__rc4>
    28c8: a6 6f        	ldx	$6f                     ; 0x6f <__rc31+0x40>
    28ca: 86 12        	stx	$12                     ; 0x12 <__rc2>
    28cc: c4 12        	cpy	$12                     ; 0x12 <__rc2>
    28ce: 90 08        	bcc	$28d8 <printf+0xa7f>
    28d0: 80 29        	bra	$28fb <printf+0xaa2>
    28d2: 86 14        	stx	$14                     ; 0x14 <__rc4>
    28d4: e4 70        	cpx	$70                     ; 0x70 <__rc31+0x41>
    28d6: b0 23        	bcs	$28fb <printf+0xaa2>
    28d8: a6 7c        	ldx	$7c                     ; 0x7c <__rc31+0x4d>
    28da: e4 41        	cpx	$41                     ; 0x41 <__rc31+0x12>
    28dc: d0 18        	bne	$28f6 <printf+0xa9d>
    28de: a6 7b        	ldx	$7b                     ; 0x7b <__rc31+0x4c>
    28e0: e4 40        	cpx	$40                     ; 0x40 <__rc31+0x11>
    28e2: d0 12        	bne	$28f6 <printf+0xa9d>
    28e4: 18           	clc
    28e5: aa           	tax
    28e6: 98           	tya
    28e7: 65 75        	adc	$75                     ; 0x75 <__rc31+0x46>
    28e9: 85 12        	sta	$12                     ; 0x12 <__rc2>
    28eb: a5 14        	lda	$14                     ; 0x14 <__rc4>
    28ed: 65 76        	adc	$76                     ; 0x76 <__rc31+0x47>
    28ef: 85 13        	sta	$13                     ; 0x13 <__rc3>
    28f1: 8a           	txa
    28f2: 92 12        	sta	($12)                   ; 0x12 <__rc2>
    28f4: 80 05        	bra	$28fb <printf+0xaa2>
    28f6: a2 00        	ldx	#$0
    28f8: 20 32 2a     	jsr	$2a32 <putchar>
    28fb: e6 71        	inc	$71                     ; 0x71 <__rc31+0x42>
    28fd: d0 02        	bne	$2901 <printf+0xaa8>
    28ff: e6 72        	inc	$72                     ; 0x72 <__rc31+0x43>
    2901: a5 6d        	lda	$6d                     ; 0x6d <__rc31+0x3e>
    2903: 29 01        	and	#$1
    2905: d0 1e        	bne	$2925 <printf+0xacc>
    2907: a6 71        	ldx	$71                     ; 0x71 <__rc31+0x42>
    2909: 86 14        	stx	$14                     ; 0x14 <__rc4>
    290b: a5 72        	lda	$72                     ; 0x72 <__rc31+0x43>
    290d: a4 6f        	ldy	$6f                     ; 0x6f <__rc31+0x40>
    290f: a6 70        	ldx	$70                     ; 0x70 <__rc31+0x41>
    2911: 86 12        	stx	$12                     ; 0x12 <__rc2>
    2913: 86 13        	stx	$13                     ; 0x13 <__rc3>
    2915: c5 12        	cmp	$12                     ; 0x12 <__rc2>
    2917: f0 03        	beq	$291c <printf+0xac3>
    2919: 4c aa 29     	jmp	$29aa <printf+0xb51>
    291c: 84 12        	sty	$12                     ; 0x12 <__rc2>
    291e: a6 14        	ldx	$14                     ; 0x14 <__rc4>
    2920: e4 12        	cpx	$12                     ; 0x12 <__rc2>
    2922: 4c ae 29     	jmp	$29ae <printf+0xb55>
    2925: a6 71        	ldx	$71                     ; 0x71 <__rc31+0x42>
    2927: 86 14        	stx	$14                     ; 0x14 <__rc4>
    2929: a5 72        	lda	$72                     ; 0x72 <__rc31+0x43>
    292b: a6 47        	ldx	$47                     ; 0x47 <__rc31+0x18>
    292d: a4 46        	ldy	$46                     ; 0x46 <__rc31+0x17>
    292f: f0 03        	beq	$2934 <printf+0xadb>
    2931: 4c 96 29     	jmp	$2996 <printf+0xb3d>
    2934: e0 00        	cpx	#$0
    2936: f0 d5        	beq	$290d <printf+0xab4>
    2938: 4c 96 29     	jmp	$2996 <printf+0xb3d>
    293b: c5 70        	cmp	$70                     ; 0x70 <__rc31+0x41>
    293d: b0 26        	bcs	$2965 <printf+0xb0c>
    293f: a6 7c        	ldx	$7c                     ; 0x7c <__rc31+0x4d>
    2941: e4 41        	cpx	$41                     ; 0x41 <__rc31+0x12>
    2943: d0 19        	bne	$295e <printf+0xb05>
    2945: a6 7b        	ldx	$7b                     ; 0x7b <__rc31+0x4c>
    2947: e4 40        	cpx	$40                     ; 0x40 <__rc31+0x11>
    2949: d0 13        	bne	$295e <printf+0xb05>
    294b: 18           	clc
    294c: aa           	tax
    294d: a5 14        	lda	$14                     ; 0x14 <__rc4>
    294f: 65 75        	adc	$75                     ; 0x75 <__rc31+0x46>
    2951: 85 12        	sta	$12                     ; 0x12 <__rc2>
    2953: 8a           	txa
    2954: 65 76        	adc	$76                     ; 0x76 <__rc31+0x47>
    2956: 85 13        	sta	$13                     ; 0x13 <__rc3>
    2958: a9 20        	lda	#$20
    295a: 92 12        	sta	($12)                   ; 0x12 <__rc2>
    295c: 80 07        	bra	$2965 <printf+0xb0c>
    295e: a2 00        	ldx	#$0
    2960: a9 20        	lda	#$20
    2962: 20 32 2a     	jsr	$2a32 <putchar>
    2965: a6 71        	ldx	$71                     ; 0x71 <__rc31+0x42>
    2967: a5 72        	lda	$72                     ; 0x72 <__rc31+0x43>
    2969: e8           	inx
    296a: d0 01        	bne	$296d <printf+0xb14>
    296c: 1a           	inc
    296d: 86 14        	stx	$14                     ; 0x14 <__rc4>
    296f: 86 71        	stx	$71                     ; 0x71 <__rc31+0x42>
    2971: 85 72        	sta	$72                     ; 0x72 <__rc31+0x43>
    2973: a6 47        	ldx	$47                     ; 0x47 <__rc31+0x18>
    2975: 86 12        	stx	$12                     ; 0x12 <__rc2>
    2977: a6 46        	ldx	$46                     ; 0x46 <__rc31+0x17>
    2979: 86 13        	stx	$13                     ; 0x13 <__rc3>
    297b: a2 ff        	ldx	#$ff
    297d: c6 12        	dec	$12                     ; 0x12 <__rc2>
    297f: e4 12        	cpx	$12                     ; 0x12 <__rc2>
    2981: d0 02        	bne	$2985 <printf+0xb2c>
    2983: c6 13        	dec	$13                     ; 0x13 <__rc3>
    2985: a6 12        	ldx	$12                     ; 0x12 <__rc2>
    2987: 86 47        	stx	$47                     ; 0x47 <__rc31+0x18>
    2989: a6 13        	ldx	$13                     ; 0x13 <__rc3>
    298b: 86 46        	stx	$46                     ; 0x46 <__rc31+0x17>
    298d: d0 07        	bne	$2996 <printf+0xb3d>
    298f: a6 12        	ldx	$12                     ; 0x12 <__rc2>
    2991: d0 03        	bne	$2996 <printf+0xb3d>
    2993: 4c 0d 29     	jmp	$290d <printf+0xab4>
    2996: c5 70        	cmp	$70                     ; 0x70 <__rc31+0x41>
    2998: f0 03        	beq	$299d <printf+0xb44>
    299a: 4c 3b 29     	jmp	$293b <printf+0xae2>
    299d: a6 6f        	ldx	$6f                     ; 0x6f <__rc31+0x40>
    299f: 86 12        	stx	$12                     ; 0x12 <__rc2>
    29a1: a6 14        	ldx	$14                     ; 0x14 <__rc4>
    29a3: e4 12        	cpx	$12                     ; 0x12 <__rc2>
    29a5: b0 be        	bcs	$2965 <printf+0xb0c>
    29a7: 4c 3f 29     	jmp	$293f <printf+0xae6>
    29aa: 86 12        	stx	$12                     ; 0x12 <__rc2>
    29ac: c5 12        	cmp	$12                     ; 0x12 <__rc2>
    29ae: 98           	tya
    29af: a0 01        	ldy	#$1
    29b1: 90 20        	bcc	$29d3 <printf+0xb7a>
    29b3: a6 13        	ldx	$13                     ; 0x13 <__rc3>
    29b5: d0 03        	bne	$29ba <printf+0xb61>
    29b7: aa           	tax
    29b8: f0 19        	beq	$29d3 <printf+0xb7a>
    29ba: 18           	clc
    29bb: 65 75        	adc	$75                     ; 0x75 <__rc31+0x46>
    29bd: 85 12        	sta	$12                     ; 0x12 <__rc2>
    29bf: a5 13        	lda	$13                     ; 0x13 <__rc3>
    29c1: 65 76        	adc	$76                     ; 0x76 <__rc31+0x47>
    29c3: 85 13        	sta	$13                     ; 0x13 <__rc3>
    29c5: a2 ff        	ldx	#$ff
    29c7: c6 12        	dec	$12                     ; 0x12 <__rc2>
    29c9: e4 12        	cpx	$12                     ; 0x12 <__rc2>
    29cb: d0 02        	bne	$29cf <printf+0xb76>
    29cd: c6 13        	dec	$13                     ; 0x13 <__rc3>
    29cf: a9 00        	lda	#$0
    29d1: 92 12        	sta	($12)                   ; 0x12 <__rc2>
    29d3: e6 3e        	inc	$3e                     ; 0x3e <__rc31+0xf>
    29d5: d0 02        	bne	$29d9 <printf+0xb80>
    29d7: e6 3f        	inc	$3f                     ; 0x3f <__rc31+0x10>
    29d9: a6 3f        	ldx	$3f                     ; 0x3f <__rc31+0x10>
    29db: e4 43        	cpx	$43                     ; 0x43 <__rc31+0x14>
    29dd: f0 03        	beq	$29e2 <printf+0xb89>
    29df: 4c be 1e     	jmp	$1ebe <printf+0x65>
    29e2: a6 3e        	ldx	$3e                     ; 0x3e <__rc31+0xf>
    29e4: e4 42        	cpx	$42                     ; 0x42 <__rc31+0x13>
    29e6: f0 03        	beq	$29eb <printf+0xb92>
    29e8: 4c be 1e     	jmp	$1ebe <printf+0x65>
    29eb: b2 42        	lda	($42)                   ; 0x42 <__rc31+0x13>
    29ed: a2 00        	ldx	#$0
    29ef: a0 00        	ldy	#$0
    29f1: 84 40        	sty	$40                     ; 0x40 <__rc31+0x11>
    29f3: a0 00        	ldy	#$0
    29f5: 84 41        	sty	$41                     ; 0x41 <__rc31+0x12>
    29f7: 4c d4 1e     	jmp	$1ed4 <printf+0x7b>
    29fa: e4 45        	cpx	$45                     ; 0x45 <__rc31+0x16>
    29fc: a6 3d        	ldx	$3d                     ; 0x3d <__rc31+0xe>
    29fe: b0 03        	bcs	$2a03 <printf+0xbaa>
    2a00: 4c 12 25     	jmp	$2512 <printf+0x6b9>
    2a03: a5 3c        	lda	$3c                     ; 0x3c <__rc31+0xd>
    2a05: 85 44        	sta	$44                     ; 0x44 <__rc31+0x15>
    2a07: 64 45        	stz	$45                     ; 0x45 <__rc31+0x16>
    2a09: e6 44        	inc	$44                     ; 0x44 <__rc31+0x15>
    2a0b: f0 03        	beq	$2a10 <printf+0xbb7>
    2a0d: 4c 12 25     	jmp	$2512 <printf+0x6b9>
    2a10: e6 45        	inc	$45                     ; 0x45 <__rc31+0x16>
    2a12: 4c 12 25     	jmp	$2512 <printf+0x6b9>
    2a15: a2 58        	ldx	#$58
    2a17: 86 86        	stx	$86                     ; 0x86 <__rc31+0x57>
    2a19: a2 01        	ldx	#$1
    2a1b: 86 81        	stx	$81                     ; 0x81 <__rc31+0x52>
    2a1d: a2 30        	ldx	#$30
    2a1f: 86 85        	stx	$85                     ; 0x85 <__rc31+0x56>
    2a21: a9 02        	lda	#$2
    2a23: a2 00        	ldx	#$0
    2a25: 86 82        	stx	$82                     ; 0x82 <__rc31+0x53>
    2a27: 4c 53 25     	jmp	$2553 <printf+0x6fa>
    2a2a: 64 47        	stz	$47                     ; 0x47 <__rc31+0x18>
    2a2c: 64 46        	stz	$46                     ; 0x46 <__rc31+0x17>
    2a2e: 4c 84 27     	jmp	$2784 <printf+0x92b>
    2a31: 60           	rts

00002a32 <putchar>:
    2a32: 86 12        	stx	$12                     ; 0x12 <__rc2>
    2a34: 85 93        	sta	$93                     ; 0x93 <__rc31+0x64>
    2a36: 85 32        	sta	$32                     ; 0x32 <__putchar.s>
    2a38: a6 01        	ldx	$1                      ; 0x1 <__zp_data_size+0x1>
    2a3a: 86 94        	stx	$94                     ; 0x94 <__rc31+0x65>
    2a3c: a6 31        	ldx	$31                     ; 0x31 <_row>
    2a3e: a0 50        	ldy	#$50
    2a40: 8c 00 de     	sty	$de00                   ; 0xde00 <end_block9+0xb0bc>
    2a43: 9c 01 de     	stz	$de01                   ; 0xde01 <end_block9+0xb0bd>
    2a46: 8e 02 de     	stx	$de02                   ; 0xde02 <end_block9+0xb0be>
    2a49: 9c 03 de     	stz	$de03                   ; 0xde03 <end_block9+0xb0bf>
    2a4c: ae 10 de     	ldx	$de10                   ; 0xde10 <end_block9+0xb0cc>
    2a4f: ad 11 de     	lda	$de11                   ; 0xde11 <end_block9+0xb0cd>
    2a52: ac 12 de     	ldy	$de12                   ; 0xde12 <end_block9+0xb0ce>
    2a55: 84 1a        	sty	$1a                     ; 0x1a <__rc10>
    2a57: ac 13 de     	ldy	$de13                   ; 0xde13 <end_block9+0xb0cf>
    2a5a: 84 1b        	sty	$1b                     ; 0x1b <__rc11>
    2a5c: 9c 08 de     	stz	$de08                   ; 0xde08 <end_block9+0xb0c4>
    2a5f: a0 c0        	ldy	#$c0
    2a61: 8c 09 de     	sty	$de09                   ; 0xde09 <end_block9+0xb0c5>
    2a64: 9c 0a de     	stz	$de0a                   ; 0xde0a <end_block9+0xb0c6>
    2a67: 9c 0b de     	stz	$de0b                   ; 0xde0b <end_block9+0xb0c7>
    2a6a: 8e 0c de     	stx	$de0c                   ; 0xde0c <end_block9+0xb0c8>
    2a6d: 8d 0d de     	sta	$de0d                   ; 0xde0d <end_block9+0xb0c9>
    2a70: 64 13        	stz	$13                     ; 0x13 <__rc3>
    2a72: a2 00        	ldx	#$0
    2a74: 86 14        	stx	$14                     ; 0x14 <__rc4>
    2a76: a2 c0        	ldx	#$c0
    2a78: 86 15        	stx	$15                     ; 0x15 <__rc5>
    2a7a: a2 11        	ldx	#$11
    2a7c: 86 16        	stx	$16                     ; 0x16 <__rc6>
    2a7e: a2 c9        	ldx	#$c9
    2a80: 86 17        	stx	$17                     ; 0x17 <__rc7>
    2a82: a2 10        	ldx	#$10
    2a84: 86 18        	stx	$18                     ; 0x18 <__rc8>
    2a86: a2 c9        	ldx	#$c9
    2a88: 86 19        	stx	$19                     ; 0x19 <__rc9>
    2a8a: a6 1a        	ldx	$1a                     ; 0x1a <__rc10>
    2a8c: 8e 0e de     	stx	$de0e                   ; 0xde0e <end_block9+0xb0ca>
    2a8f: a6 1b        	ldx	$1b                     ; 0x1b <__rc11>
    2a91: 8e 0f de     	stx	$de0f                   ; 0xde0f <end_block9+0xb0cb>
    2a94: ac 18 de     	ldy	$de18                   ; 0xde18 <end_block9+0xb0d4>
    2a97: ad 19 de     	lda	$de19                   ; 0xde19 <end_block9+0xb0d5>
    2a9a: ae 1a de     	ldx	$de1a                   ; 0xde1a <end_block9+0xb0d6>
    2a9d: ae 1b de     	ldx	$de1b                   ; 0xde1b <end_block9+0xb0d7>
    2aa0: 84 1c        	sty	$1c                     ; 0x1c <__rc12>
    2aa2: 85 1d        	sta	$1d                     ; 0x1d <__rc13>
    2aa4: 64 1a        	stz	$1a                     ; 0x1a <__rc10>
    2aa6: 80 13        	bra	$2abb <putchar+0x89>
    2aa8: a5 1c        	lda	$1c                     ; 0x1c <__rc12>
    2aaa: 18           	clc
    2aab: 69 50        	adc	#$50
    2aad: 85 1c        	sta	$1c                     ; 0x1c <__rc12>
    2aaf: a5 1d        	lda	$1d                     ; 0x1d <__rc13>
    2ab1: 69 00        	adc	#$0
    2ab3: 85 1d        	sta	$1d                     ; 0x1d <__rc13>
    2ab5: e6 13        	inc	$13                     ; 0x13 <__rc3>
    2ab7: d0 02        	bne	$2abb <putchar+0x89>
    2ab9: e6 1a        	inc	$1a                     ; 0x1a <__rc10>
    2abb: a9 32        	lda	#$32
    2abd: 18           	clc
    2abe: 65 13        	adc	$13                     ; 0x13 <__rc3>
    2ac0: 85 1e        	sta	$1e                     ; 0x1e <__rc14>
    2ac2: a9 00        	lda	#$0
    2ac4: 65 1a        	adc	$1a                     ; 0x1a <__rc10>
    2ac6: 85 1f        	sta	$1f                     ; 0x1f <__rc15>
    2ac8: b2 1e        	lda	($1e)                   ; 0x1e <__rc14>
    2aca: c9 0a        	cmp	#$a
    2acc: f0 26        	beq	$2af4 <putchar+0xc2>
    2ace: c9 0d        	cmp	#$d
    2ad0: f0 22        	beq	$2af4 <putchar+0xc2>
    2ad2: aa           	tax
    2ad3: d0 03        	bne	$2ad8 <putchar+0xa6>
    2ad5: 4c fe 2b     	jmp	$2bfe <putchar+0x1cc>
    2ad8: a2 03        	ldx	#$3
    2ada: 86 01        	stx	$1                      ; 0x1 <__zp_data_size+0x1>
    2adc: a4 30        	ldy	$30                     ; 0x30 <_col>
    2ade: a9 f0        	lda	#$f0
    2ae0: 91 1c        	sta	($1c),y                 ; 0x1c <__rc12>
    2ae2: ca           	dex
    2ae3: 86 01        	stx	$1                      ; 0x1 <__zp_data_size+0x1>
    2ae5: b2 1e        	lda	($1e)                   ; 0x1e <__rc14>
    2ae7: a4 30        	ldy	$30                     ; 0x30 <_col>
    2ae9: 91 1c        	sta	($1c),y                 ; 0x1c <__rc12>
    2aeb: a6 30        	ldx	$30                     ; 0x30 <_col>
    2aed: e8           	inx
    2aee: e6 30        	inc	$30                     ; 0x30 <_col>
    2af0: e0 50        	cpx	#$50
    2af2: d0 c1        	bne	$2ab5 <putchar+0x83>
    2af4: 64 30        	stz	$30                     ; 0x30 <_col>
    2af6: a6 31        	ldx	$31                     ; 0x31 <_row>
    2af8: e8           	inx
    2af9: e6 31        	inc	$31                     ; 0x31 <_row>
    2afb: e0 1e        	cpx	#$1e
    2afd: f0 03        	beq	$2b02 <putchar+0xd0>
    2aff: 4c a8 2a     	jmp	$2aa8 <putchar+0x76>
    2b02: a2 03        	ldx	#$3
    2b04: 86 01        	stx	$1                      ; 0x1 <__zp_data_size+0x1>
    2b06: a2 09        	ldx	#$9
    2b08: a0 50        	ldy	#$50
    2b0a: a9 10        	lda	#$10
    2b0c: 5a           	phy
    2b0d: a0 00        	ldy	#$0
    2b0f: 84 1c        	sty	$1c                     ; 0x1c <__rc12>
    2b11: a0 c0        	ldy	#$c0
    2b13: 84 1d        	sty	$1d                     ; 0x1d <__rc13>
    2b15: 7a           	ply
    2b16: 85 1b        	sta	$1b                     ; 0x1b <__rc11>
    2b18: b1 1c        	lda	($1c),y                 ; 0x1c <__rc12>
    2b1a: 92 1c        	sta	($1c)                   ; 0x1c <__rc12>
    2b1c: a9 ff        	lda	#$ff
    2b1e: c6 1b        	dec	$1b                     ; 0x1b <__rc11>
    2b20: c5 1b        	cmp	$1b                     ; 0x1b <__rc11>
    2b22: d0 01        	bne	$2b25 <putchar+0xf3>
    2b24: ca           	dex
    2b25: e6 1c        	inc	$1c                     ; 0x1c <__rc12>
    2b27: d0 02        	bne	$2b2b <putchar+0xf9>
    2b29: e6 1d        	inc	$1d                     ; 0x1d <__rc13>
    2b2b: 8a           	txa
    2b2c: d0 ea        	bne	$2b18 <putchar+0xe6>
    2b2e: a5 1b        	lda	$1b                     ; 0x1b <__rc11>
    2b30: d0 e6        	bne	$2b18 <putchar+0xe6>
    2b32: a2 02        	ldx	#$2
    2b34: 86 01        	stx	$1                      ; 0x1 <__zp_data_size+0x1>
    2b36: a2 09        	ldx	#$9
    2b38: a9 10        	lda	#$10
    2b3a: 5a           	phy
    2b3b: a0 00        	ldy	#$0
    2b3d: 84 1c        	sty	$1c                     ; 0x1c <__rc12>
    2b3f: a0 c0        	ldy	#$c0
    2b41: 84 1d        	sty	$1d                     ; 0x1d <__rc13>
    2b43: 7a           	ply
    2b44: 85 1b        	sta	$1b                     ; 0x1b <__rc11>
    2b46: b1 1c        	lda	($1c),y                 ; 0x1c <__rc12>
    2b48: 92 1c        	sta	($1c)                   ; 0x1c <__rc12>
    2b4a: a9 ff        	lda	#$ff
    2b4c: c6 1b        	dec	$1b                     ; 0x1b <__rc11>
    2b4e: c5 1b        	cmp	$1b                     ; 0x1b <__rc11>
    2b50: d0 01        	bne	$2b53 <putchar+0x121>
    2b52: ca           	dex
    2b53: e6 1c        	inc	$1c                     ; 0x1c <__rc12>
    2b55: d0 02        	bne	$2b59 <putchar+0x127>
    2b57: e6 1d        	inc	$1d                     ; 0x1d <__rc13>
    2b59: 8a           	txa
    2b5a: d0 ea        	bne	$2b46 <putchar+0x114>
    2b5c: a5 1b        	lda	$1b                     ; 0x1b <__rc11>
    2b5e: d0 e6        	bne	$2b46 <putchar+0x114>
    2b60: a2 02        	ldx	#$2
    2b62: 86 01        	stx	$1                      ; 0x1 <__zp_data_size+0x1>
    2b64: e8           	inx
    2b65: 86 01        	stx	$1                      ; 0x1 <__zp_data_size+0x1>
    2b67: a2 50        	ldx	#$50
    2b69: a0 11        	ldy	#$11
    2b6b: 84 1c        	sty	$1c                     ; 0x1c <__rc12>
    2b6d: a0 c9        	ldy	#$c9
    2b6f: 84 1d        	sty	$1d                     ; 0x1d <__rc13>
    2b71: a0 10        	ldy	#$10
    2b73: 84 1e        	sty	$1e                     ; 0x1e <__rc14>
    2b75: a0 c9        	ldy	#$c9
    2b77: 84 1f        	sty	$1f                     ; 0x1f <__rc15>
    2b79: a9 f0        	lda	#$f0
    2b7b: a4 1c        	ldy	$1c                     ; 0x1c <__rc12>
    2b7d: 84 22        	sty	$22                     ; 0x22 <__rc18>
    2b7f: a4 1d        	ldy	$1d                     ; 0x1d <__rc13>
    2b81: 84 23        	sty	$23                     ; 0x23 <__rc19>
    2b83: 92 1e        	sta	($1e)                   ; 0x1e <__rc14>
    2b85: e6 1c        	inc	$1c                     ; 0x1c <__rc12>
    2b87: d0 02        	bne	$2b8b <putchar+0x159>
    2b89: e6 1d        	inc	$1d                     ; 0x1d <__rc13>
    2b8b: ca           	dex
    2b8c: a4 22        	ldy	$22                     ; 0x22 <__rc18>
    2b8e: 84 1e        	sty	$1e                     ; 0x1e <__rc14>
    2b90: a4 23        	ldy	$23                     ; 0x23 <__rc19>
    2b92: 84 1f        	sty	$1f                     ; 0x1f <__rc15>
    2b94: e0 00        	cpx	#$0
    2b96: d0 e3        	bne	$2b7b <putchar+0x149>
    2b98: a2 02        	ldx	#$2
    2b9a: 86 01        	stx	$1                      ; 0x1 <__zp_data_size+0x1>
    2b9c: a2 50        	ldx	#$50
    2b9e: a0 11        	ldy	#$11
    2ba0: 84 1c        	sty	$1c                     ; 0x1c <__rc12>
    2ba2: a0 c9        	ldy	#$c9
    2ba4: 84 1d        	sty	$1d                     ; 0x1d <__rc13>
    2ba6: a0 10        	ldy	#$10
    2ba8: 84 1e        	sty	$1e                     ; 0x1e <__rc14>
    2baa: a0 c9        	ldy	#$c9
    2bac: 84 1f        	sty	$1f                     ; 0x1f <__rc15>
    2bae: a9 20        	lda	#$20
    2bb0: a4 1c        	ldy	$1c                     ; 0x1c <__rc12>
    2bb2: 84 22        	sty	$22                     ; 0x22 <__rc18>
    2bb4: a4 1d        	ldy	$1d                     ; 0x1d <__rc13>
    2bb6: 84 23        	sty	$23                     ; 0x23 <__rc19>
    2bb8: 92 1e        	sta	($1e)                   ; 0x1e <__rc14>
    2bba: e6 1c        	inc	$1c                     ; 0x1c <__rc12>
    2bbc: d0 02        	bne	$2bc0 <putchar+0x18e>
    2bbe: e6 1d        	inc	$1d                     ; 0x1d <__rc13>
    2bc0: ca           	dex
    2bc1: a4 22        	ldy	$22                     ; 0x22 <__rc18>
    2bc3: 84 1e        	sty	$1e                     ; 0x1e <__rc14>
    2bc5: a4 23        	ldy	$23                     ; 0x23 <__rc19>
    2bc7: 84 1f        	sty	$1f                     ; 0x1f <__rc15>
    2bc9: e0 00        	cpx	#$0
    2bcb: d0 e3        	bne	$2bb0 <putchar+0x17e>
    2bcd: c6 31        	dec	$31                     ; 0x31 <_row>
    2bcf: 9c 08 de     	stz	$de08                   ; 0xde08 <end_block9+0xb0c4>
    2bd2: a2 c0        	ldx	#$c0
    2bd4: 8e 09 de     	stx	$de09                   ; 0xde09 <end_block9+0xb0c5>
    2bd7: 9c 0a de     	stz	$de0a                   ; 0xde0a <end_block9+0xb0c6>
    2bda: 9c 0b de     	stz	$de0b                   ; 0xde0b <end_block9+0xb0c7>
    2bdd: a2 1d        	ldx	#$1d
    2bdf: 8e 0c de     	stx	$de0c                   ; 0xde0c <end_block9+0xb0c8>
    2be2: 9c 0d de     	stz	$de0d                   ; 0xde0d <end_block9+0xb0c9>
    2be5: 9c 0e de     	stz	$de0e                   ; 0xde0e <end_block9+0xb0ca>
    2be8: 9c 0f de     	stz	$de0f                   ; 0xde0f <end_block9+0xb0cb>
    2beb: ae 18 de     	ldx	$de18                   ; 0xde18 <end_block9+0xb0d4>
    2bee: ac 19 de     	ldy	$de19                   ; 0xde19 <end_block9+0xb0d5>
    2bf1: ad 1a de     	lda	$de1a                   ; 0xde1a <end_block9+0xb0d6>
    2bf4: ad 1b de     	lda	$de1b                   ; 0xde1b <end_block9+0xb0d7>
    2bf7: 86 1c        	stx	$1c                     ; 0x1c <__rc12>
    2bf9: 84 1d        	sty	$1d                     ; 0x1d <__rc13>
    2bfb: 4c b5 2a     	jmp	$2ab5 <putchar+0x83>
    2bfe: a6 94        	ldx	$94                     ; 0x94 <__rc31+0x65>
    2c00: 86 01        	stx	$1                      ; 0x1 <__zp_data_size+0x1>
    2c02: a6 30        	ldx	$30                     ; 0x30 <_col>
    2c04: a4 31        	ldy	$31                     ; 0x31 <_row>
    2c06: 8e 14 d0     	stx	$d014                   ; 0xd014 <end_block9+0xa2d0>
    2c09: 9c 15 d0     	stz	$d015                   ; 0xd015 <end_block9+0xa2d1>
    2c0c: 84 31        	sty	$31                     ; 0x31 <_row>
    2c0e: 8c 16 d0     	sty	$d016                   ; 0xd016 <end_block9+0xa2d2>
    2c11: 9c 17 d0     	stz	$d017                   ; 0xd017 <end_block9+0xa2d3>
    2c14: a6 12        	ldx	$12                     ; 0x12 <__rc2>
    2c16: a5 93        	lda	$93                     ; 0x93 <__rc31+0x64>
    2c18: 60           	rts

00002c19 <memcpy>:
    2c19: a8           	tay
    2c1a: 8a           	txa
    2c1b: d0 03        	bne	$2c20 <memcpy+0x7>
    2c1d: 98           	tya
    2c1e: f0 24        	beq	$2c44 <memcpy+0x2b>
    2c20: a5 12        	lda	$12                     ; 0x12 <__rc2>
    2c22: 85 16        	sta	$16                     ; 0x16 <__rc6>
    2c24: a5 13        	lda	$13                     ; 0x13 <__rc3>
    2c26: 85 17        	sta	$17                     ; 0x17 <__rc7>
    2c28: b2 14        	lda	($14)                   ; 0x14 <__rc4>
    2c2a: 92 16        	sta	($16)                   ; 0x16 <__rc6>
    2c2c: e6 16        	inc	$16                     ; 0x16 <__rc6>
    2c2e: d0 02        	bne	$2c32 <memcpy+0x19>
    2c30: e6 17        	inc	$17                     ; 0x17 <__rc7>
    2c32: e6 14        	inc	$14                     ; 0x14 <__rc4>
    2c34: d0 02        	bne	$2c38 <memcpy+0x1f>
    2c36: e6 15        	inc	$15                     ; 0x15 <__rc5>
    2c38: 88           	dey
    2c39: c0 ff        	cpy	#$ff
    2c3b: d0 01        	bne	$2c3e <memcpy+0x25>
    2c3d: ca           	dex
    2c3e: 8a           	txa
    2c3f: d0 e7        	bne	$2c28 <memcpy+0xf>
    2c41: 98           	tya
    2c42: d0 e4        	bne	$2c28 <memcpy+0xf>
    2c44: 60           	rts

00002c45 <__memset>:
    2c45: a4 14        	ldy	$14                     ; 0x14 <__rc4>
    2c47: d0 04        	bne	$2c4d <__memset+0x8>
    2c49: e0 00        	cpx	#$0
    2c4b: f0 17        	beq	$2c64 <__memset+0x1f>
    2c4d: 92 12        	sta	($12)                   ; 0x12 <__rc2>
    2c4f: e6 12        	inc	$12                     ; 0x12 <__rc2>
    2c51: d0 02        	bne	$2c55 <__memset+0x10>
    2c53: e6 13        	inc	$13                     ; 0x13 <__rc3>
    2c55: ca           	dex
    2c56: e0 ff        	cpx	#$ff
    2c58: d0 02        	bne	$2c5c <__memset+0x17>
    2c5a: c6 14        	dec	$14                     ; 0x14 <__rc4>
    2c5c: a4 14        	ldy	$14                     ; 0x14 <__rc4>
    2c5e: d0 ed        	bne	$2c4d <__memset+0x8>
    2c60: e0 00        	cpx	#$0
    2c62: d0 e9        	bne	$2c4d <__memset+0x8>
    2c64: 60           	rts
