
sfx4.elf:	file format elf32-mos

SYMBOL TABLE:
00000000 l    df *ABS*	00000000 zero-bss.c
00000000 l    df *ABS*	00000000 zero-zp-bss.c
00000000 l    df *ABS*	00000000 ld-temp.o
00000487 l     F .text	000000a5 midiShutAllChannels
0000052c l     F .text	00000006 midiShutUp
00000532 l     F .text	000004c1 readDelta
00000082 l     O .zp.bss	00000002 theOne.8
00004d58 l     F .text	00000032 __mulhi3
000009f3 l     F .text	000005c5 readMIDICmd
00000fb8 l     F .text	00000216 skipWhenFFCmd
000011ce l     F .text	0000032e exhaustZeroes
00000030 l     O .zp.bss	00000001 doneWithFudge
00000073 l     O .zp.bss	00000002 theOne.1
00004bf9 l     F .text	0000015f __udivsi3
00000075 l     O .zp.bss	00000004 theOne.2
00000031 l     O .zp.bss	00000001 fudge
00000080 l     O .zp.bss	00000002 theOne.7
000014fc l     F .text	00000492 playMidi
0000007a l     O .zp.bss	00000004 theOne.5
0000007e l     O .zp.bss	00000002 theOne.6
00000071 l     O .zp.bss	00000002 theOne.0
00000079 l     O .zp.bss	00000001 theOne.4
0000198e l     F .text	0000052c initTrack
000048e1 l     F .text	000002cc malloc
00000039 l     O .zp.bss	00000001 _col
0000003a l     O .zp.bss	00000001 _row
00001eba l     F .text	0000013d sniffNextMIDI
00004d8a l     F .text	00000070 __mulsi3
00001ff7 l     F .text	00000021 shutPSG
00002018 l     F .text	0000000e psgNoteOn
00002026 l     F .text	00000007 setStereoPSG
0000202d l     F .text	00000031 shutAllSIDVoices
0000205e l     F .text	00000006 sidNoteOnOrOff
00002064 l     F .text	0000000e resetTimer0
00002072 l     F .text	0000001c setTimer0
0000208e l     F .text	00000017 openAllCODEC
000020a5 l     F .text	0000001e boostVSClock
000020c3 l     F .text	0000001e lowVol
000020e1 l     F .text	0000001c highVol
000020fd l     F .text	00000021 FAR_PEEK
00000032 l     O .zp.bss	00000007 kernelEventData
00004f98 l     O .rodata	00000030 textColors
0000003b l     O .zp.bss	00000004 _BITMAP_BASE.0
0000003f l     O .zp.bss	00000004 _BITMAP_BASE.1
00000043 l     O .zp.bss	00000004 _BITMAP_BASE.2
00005116 l     O .bss	00000001 kernelError
000025b3 l     F .text	00000476 f256main
00002a29 l     F .text	00000094 setupSound
00002abd l     F .text	000000b3 headerPump
00002b70 l     F .text	000000ee silencePad
000039a4 l     F .text	00000d3a printf
00002c5e l     F .text	000002c3 playChunk
00002f21 l     F .text	0000038e playPSGChunk
000032af l     F .text	000003c3 playSIDChunk
00003672 l     F .text	00000046 startSound
00000049 l     O .zp.bss	00000024 sfxChannels
000036b8 l     F .text	00000026 howManySounds
0000006d l     O .zp.bss	00000001 data0
0000006e l     O .zp.bss	00000001 data1
0000006f l     O .zp.bss	00000001 data2
00000070 l     O .zp.bss	00000001 data3
000036de l     F .text	000000db mix_n
000037be l     F .text	000000d7 _ZN12_GLOBAL__N_13putEcP6Status
000046de l     F .text	00000203 putchar
00003895 l     F .text	0000010f _ZN12_GLOBAL__N_112print_stringEPKcP6Status
00000047 l     O .zp.bss	00000002 __putchar.s
00000084 l     O .zp.bss	00000001 _ZN12_GLOBAL__N_111initializedE
00000316 l     F .text	0000014b _ZN12_GLOBAL__N_19FreeChunk6insertEPvj
00000087 l     O .zp.bss	00000002 _ZN12_GLOBAL__N_19free_listE
00000085 l     O .zp.bss	00000002 _ZN12_GLOBAL__N_19free_sizeE
0000211e g     F .text	00000495 main
00030000 g       .coin	00000000 coin_start
00020000 g       .bong	00000000 bong_start
00010000 g       .camera	00000000 camera_start
00022d4e g       .bong	00000000 bong_end
00031c06 g       .coin	00000000 coin_end
00045a5c g       .tie	00000000 tie_end
00040000 g       .tie	00000000 tie_start
00013a0e g       .camera	00000000 camera_end
00058454 g       .canyon	00000000 canyon_end
00050000 g       .canyon	00000000 canyon_start
00000311 g       .text	00000000 __after_main
00000300 g       .text	00000000 __do_init_stack
00000308 g       .text	00000000 __do_zero_bss
00000461 g     F .text	00000013 __zero_bss
0000030b g       .text	00000000 __do_zero_zp_bss
00000474 g     F .text	00000013 __zero_zp_bss
000037b9 g     F .text	00000005 exit
00000314 g       .text	00000000 _fini
00004bd9  w    F .text	00000020 __memset
00001000  w      *ABS*	00000000 __heap_default_limit
00005118 g       .noinit	00000000 __heap_start
00004bad  w    F .text	0000002c memcpy
00000010 g       *ABS*	00000000 __rc0
00000012 g       *ABS*	00000000 __rc2
00000014 g       *ABS*	00000000 __rc4
00000016 g       *ABS*	00000000 __rc6
00000018 g       *ABS*	00000000 __rc8
0000001a g       *ABS*	00000000 __rc10
0000001c g       *ABS*	00000000 __rc12
0000001e g       *ABS*	00000000 __rc14
00000020 g       *ABS*	00000000 __rc16
00000022 g       *ABS*	00000000 __rc18
00000024 g       *ABS*	00000000 __rc20
00000026 g       *ABS*	00000000 __rc22
00000028 g       *ABS*	00000000 __rc24
0000002a g       *ABS*	00000000 __rc26
0000002c g       *ABS*	00000000 __rc28
0000002e g       *ABS*	00000000 __rc30
0000002f g       *ABS*	00000000 __rc31
00000300 g       *ABS*	00000000 __f256_start
0000a000 g       *ABS*	00000000 __stack
0000a000 g       *ABS*	00000000 __SLOT_ADDR
0800a000 g       *ABS*	00000000 __block8_lma
00002000 g       *ABS*	00000000 __BLOCK_SIZE
0900a000 g       *ABS*	00000000 __block9_lma
0a00a000 g       *ABS*	00000000 __block10_lma
0b00a000 g       *ABS*	00000000 __block11_lma
0c00a000 g       *ABS*	00000000 __block12_lma
0d00a000 g       *ABS*	00000000 __block13_lma
0e00a000 g       *ABS*	00000000 __block14_lma
0f00a000 g       *ABS*	00000000 __block15_lma
1000a000 g       *ABS*	00000000 __block16_lma
1100a000 g       *ABS*	00000000 __block17_lma
1200a000 g       *ABS*	00000000 __block18_lma
1300a000 g       *ABS*	00000000 __block19_lma
1400a000 g       *ABS*	00000000 __block20_lma
1500a000 g       *ABS*	00000000 __block21_lma
1600a000 g       *ABS*	00000000 __block22_lma
1700a000 g       *ABS*	00000000 __block23_lma
00010000 g       *ABS*	00000000 __camera_lma
00003a0e g       *ABS*	00000000 __camera_size
00020000 g       *ABS*	00000000 __bong_lma
00002d4e g       *ABS*	00000000 __bong_size
00030000 g       *ABS*	00000000 __coin_lma
00001c06 g       *ABS*	00000000 __coin_size
00040000 g       *ABS*	00000000 __tie_lma
00005a5c g       *ABS*	00000000 __tie_size
00050000 g       *ABS*	00000000 __canyon_lma
00008454 g       *ABS*	00000000 __canyon_size
00005116 g       .bss	00000000 __bss_start
00013a0e g       .camera	00000000 end_camera
00022d4e g       .bong	00000000 end_bong
00031c06 g       .coin	00000000 end_coin
00045a5c g       .tie	00000000 end_tie
00058454 g       .canyon	00000000 end_canyon
00000300 g       .text	00000000 _start
0000002d g       *ABS*	00000000 __rc29
0000002b g       *ABS*	00000000 __rc27
00000029 g       *ABS*	00000000 __rc25
00000027 g       *ABS*	00000000 __rc23
00000025 g       *ABS*	00000000 __rc21
00000023 g       *ABS*	00000000 __rc19
00000021 g       *ABS*	00000000 __rc17
0000001f g       *ABS*	00000000 __rc15
0000001d g       *ABS*	00000000 __rc13
0000001b g       *ABS*	00000000 __rc11
00000019 g       *ABS*	00000000 __rc9
00000017 g       *ABS*	00000000 __rc7
00000015 g       *ABS*	00000000 __rc5
00000013 g       *ABS*	00000000 __rc3
00000011 g       *ABS*	00000000 __rc1
00000030 g       .zp.data	00000000 __zp_data_start
00000300 g       *ABS*	00000000 __zp_data_load_start
00000000 g       *ABS*	00000000 __zp_data_size
00000030 g       .zp.bss	00000000 __zp_bss_start
00000059 g       *ABS*	00000000 __zp_bss_size
00000300 g       .text	00000000 _init
00004dfa g       .text	00000000 __init_array_start
00004dfa g       .text	00000000 __init_array_end
00004dfa g       .text	00000000 __fini_array_start
00004dfa g       .text	00000000 __fini_array_end
00005116 g       .data	00000000 __data_start
00005116 g       .data	00000000 __data_end
00005116 g       *ABS*	00000000 __data_load_start
00000000 g       *ABS*	00000000 __data_size
00005117 g       .bss	00000000 __bss_end
00000001 g       *ABS*	00000000 __bss_size
00005117 g       .noinit	00000000 end_block8
00005117 g       .noinit	00000000 end_block9
00005117 g       .noinit	00000000 end_block10
00005117 g       .noinit	00000000 end_block11
00005117 g       .noinit	00000000 end_block12
00005117 g       .noinit	00000000 end_block13
00005117 g       .noinit	00000000 end_block14
00005117 g       .noinit	00000000 end_block15
00005117 g       .noinit	00000000 end_block16
00005117 g       .noinit	00000000 end_block17
00005117 g       .noinit	00000000 end_block18
00005117 g       .noinit	00000000 end_block19
00005117 g       .noinit	00000000 end_block20
00005117 g       .noinit	00000000 end_block21
00005117 g       .noinit	00000000 end_block22
00005117 g       .noinit	00000000 end_block23

Disassembly of section .text:

00000300 <_start>:
     300: a9 00        	lda	#$0
     302: 85 10        	sta	$10                     ; 0x10 <__rc0>
     304: a9 a0        	lda	#$a0
     306: 85 11        	sta	$11                     ; 0x11 <__rc1>

00000308 <__do_zero_bss>:
     308: 20 61 04     	jsr	$461 <__zero_bss>

0000030b <__do_zero_zp_bss>:
     30b: 20 74 04     	jsr	$474 <__zero_zp_bss>
     30e: 20 1e 21     	jsr	$211e <main>

00000311 <__after_main>:
     311: 4c b9 37     	jmp	$37b9 <exit>

00000314 <_fini>:
     314: 60           	rts
     315: 00           	brk

00000316 <_ZN12_GLOBAL__N_19FreeChunk6insertEPvj>:
     316: 85 16        	sta	$16                     ; 0x16 <__rc6>
     318: 29 fe        	and	#$fe
     31a: 85 14        	sta	$14                     ; 0x14 <__rc4>
     31c: a0 01        	ldy	#$1
     31e: 98           	tya
     31f: 32 12        	and	($12)                   ; 0x12 <__rc2>
     321: 05 14        	ora	$14                     ; 0x14 <__rc4>
     323: 92 12        	sta	($12)                   ; 0x12 <__rc2>
     325: a5 12        	lda	$12                     ; 0x12 <__rc2>
     327: 18           	clc
     328: 65 14        	adc	$14                     ; 0x14 <__rc4>
     32a: 85 15        	sta	$15                     ; 0x15 <__rc5>
     32c: 8a           	txa
     32d: 65 13        	adc	$13                     ; 0x13 <__rc3>
     32f: 85 14        	sta	$14                     ; 0x14 <__rc4>
     331: 18           	clc
     332: a5 15        	lda	$15                     ; 0x15 <__rc5>
     334: 69 fe        	adc	#$fe
     336: 85 17        	sta	$17                     ; 0x17 <__rc7>
     338: a5 14        	lda	$14                     ; 0x14 <__rc4>
     33a: 69 ff        	adc	#$ff
     33c: 85 15        	sta	$15                     ; 0x15 <__rc5>
     33e: a5 17        	lda	$17                     ; 0x17 <__rc7>
     340: 85 14        	sta	$14                     ; 0x14 <__rc4>
     342: 8a           	txa
     343: 91 12        	sta	($12),y                 ; 0x12 <__rc2>
     345: a5 16        	lda	$16                     ; 0x16 <__rc6>
     347: 92 14        	sta	($14)                   ; 0x14 <__rc4>
     349: 8a           	txa
     34a: 91 14        	sta	($14),y                 ; 0x14 <__rc4>
     34c: a2 01        	ldx	#$1
     34e: 86 18        	stx	$18                     ; 0x18 <__rc8>
     350: b1 12        	lda	($12),y                 ; 0x12 <__rc2>
     352: 85 14        	sta	$14                     ; 0x14 <__rc4>
     354: a9 fe        	lda	#$fe
     356: 32 12        	and	($12)                   ; 0x12 <__rc2>
     358: 18           	clc
     359: 65 85        	adc	$85                     ; 0x85 <_ZN12_GLOBAL__N_19free_sizeE>
     35b: aa           	tax
     35c: a5 14        	lda	$14                     ; 0x14 <__rc4>
     35e: 65 86        	adc	$86                     ; 0x86 <_ZN12_GLOBAL__N_19free_sizeE+0x1>
     360: a8           	tay
     361: 18           	clc
     362: 8a           	txa
     363: 69 fe        	adc	#$fe
     365: aa           	tax
     366: 98           	tya
     367: 69 ff        	adc	#$ff
     369: 86 85        	stx	$85                     ; 0x85 <_ZN12_GLOBAL__N_19free_sizeE>
     36b: 85 86        	sta	$86                     ; 0x86 <_ZN12_GLOBAL__N_19free_sizeE+0x1>
     36d: a6 87        	ldx	$87                     ; 0x87 <_ZN12_GLOBAL__N_19free_listE>
     36f: 86 16        	stx	$16                     ; 0x16 <__rc6>
     371: a4 88        	ldy	$88                     ; 0x88 <_ZN12_GLOBAL__N_19free_listE+0x1>
     373: a2 00        	ldx	#$0
     375: 86 14        	stx	$14                     ; 0x14 <__rc4>
     377: a2 00        	ldx	#$0
     379: 86 15        	stx	$15                     ; 0x15 <__rc5>
     37b: 84 17        	sty	$17                     ; 0x17 <__rc7>
     37d: c4 15        	cpy	$15                     ; 0x15 <__rc5>
     37f: d0 3c        	bne	$3bd <_ZN12_GLOBAL__N_19FreeChunk6insertEPvj+0xa7>
     381: a6 16        	ldx	$16                     ; 0x16 <__rc6>
     383: e4 14        	cpx	$14                     ; 0x14 <__rc4>
     385: d0 36        	bne	$3bd <_ZN12_GLOBAL__N_19FreeChunk6insertEPvj+0xa7>
     387: a0 04        	ldy	#$4
     389: a5 12        	lda	$12                     ; 0x12 <__rc2>
     38b: 18           	clc
     38c: 69 04        	adc	#$4
     38e: 85 14        	sta	$14                     ; 0x14 <__rc4>
     390: a5 13        	lda	$13                     ; 0x13 <__rc3>
     392: 69 00        	adc	#$0
     394: 18           	clc
     395: 85 15        	sta	$15                     ; 0x15 <__rc5>
     397: a5 12        	lda	$12                     ; 0x12 <__rc2>
     399: 91 12        	sta	($12),y                 ; 0x12 <__rc2>
     39b: a0 02        	ldy	#$2
     39d: 85 17        	sta	$17                     ; 0x17 <__rc7>
     39f: 69 02        	adc	#$2
     3a1: 85 16        	sta	$16                     ; 0x16 <__rc6>
     3a3: a5 17        	lda	$17                     ; 0x17 <__rc7>
     3a5: 91 12        	sta	($12),y                 ; 0x12 <__rc2>
     3a7: a5 13        	lda	$13                     ; 0x13 <__rc3>
     3a9: 69 00        	adc	#$0
     3ab: 85 17        	sta	$17                     ; 0x17 <__rc7>
     3ad: 88           	dey
     3ae: a5 13        	lda	$13                     ; 0x13 <__rc3>
     3b0: 91 14        	sta	($14),y                 ; 0x14 <__rc4>
     3b2: 91 16        	sta	($16),y                 ; 0x16 <__rc6>
     3b4: a6 12        	ldx	$12                     ; 0x12 <__rc2>
     3b6: 86 87        	stx	$87                     ; 0x87 <_ZN12_GLOBAL__N_19free_listE>
     3b8: a6 13        	ldx	$13                     ; 0x13 <__rc3>
     3ba: 86 88        	stx	$88                     ; 0x88 <_ZN12_GLOBAL__N_19free_listE+0x1>
     3bc: 60           	rts
     3bd: a6 12        	ldx	$12                     ; 0x12 <__rc2>
     3bf: a5 12        	lda	$12                     ; 0x12 <__rc2>
     3c1: 18           	clc
     3c2: 69 02        	adc	#$2
     3c4: 85 14        	sta	$14                     ; 0x14 <__rc4>
     3c6: a4 16        	ldy	$16                     ; 0x16 <__rc6>
     3c8: a5 13        	lda	$13                     ; 0x13 <__rc3>
     3ca: 69 00        	adc	#$0
     3cc: 85 15        	sta	$15                     ; 0x15 <__rc5>
     3ce: 84 19        	sty	$19                     ; 0x19 <__rc9>
     3d0: a4 17        	ldy	$17                     ; 0x17 <__rc7>
     3d2: 84 1a        	sty	$1a                     ; 0x1a <__rc10>
     3d4: a0 02        	ldy	#$2
     3d6: a5 19        	lda	$19                     ; 0x19 <__rc9>
     3d8: 91 12        	sta	($12),y                 ; 0x12 <__rc2>
     3da: 84 1d        	sty	$1d                     ; 0x1d <__rc13>
     3dc: a4 18        	ldy	$18                     ; 0x18 <__rc8>
     3de: a5 1a        	lda	$1a                     ; 0x1a <__rc10>
     3e0: 91 14        	sta	($14),y                 ; 0x14 <__rc4>
     3e2: 84 1e        	sty	$1e                     ; 0x1e <__rc14>
     3e4: 18           	clc
     3e5: a5 19        	lda	$19                     ; 0x19 <__rc9>
     3e7: 69 04        	adc	#$4
     3e9: 85 18        	sta	$18                     ; 0x18 <__rc8>
     3eb: a5 1a        	lda	$1a                     ; 0x1a <__rc10>
     3ed: 69 00        	adc	#$0
     3ef: 85 19        	sta	$19                     ; 0x19 <__rc9>
     3f1: 8a           	txa
     3f2: 18           	clc
     3f3: 69 04        	adc	#$4
     3f5: 85 1a        	sta	$1a                     ; 0x1a <__rc10>
     3f7: a5 13        	lda	$13                     ; 0x13 <__rc3>
     3f9: 69 00        	adc	#$0
     3fb: 85 1b        	sta	$1b                     ; 0x1b <__rc11>
     3fd: a0 04        	ldy	#$4
     3ff: b1 16        	lda	($16),y                 ; 0x16 <__rc6>
     401: 85 16        	sta	$16                     ; 0x16 <__rc6>
     403: 85 22        	sta	$22                     ; 0x22 <__rc18>
     405: a4 1e        	ldy	$1e                     ; 0x1e <__rc14>
     407: b1 18        	lda	($18),y                 ; 0x18 <__rc8>
     409: 85 17        	sta	$17                     ; 0x17 <__rc7>
     40b: 85 19        	sta	$19                     ; 0x19 <__rc9>
     40d: a0 04        	ldy	#$4
     40f: a5 22        	lda	$22                     ; 0x22 <__rc18>
     411: 91 12        	sta	($12),y                 ; 0x12 <__rc2>
     413: 84 1f        	sty	$1f                     ; 0x1f <__rc15>
     415: a4 1e        	ldy	$1e                     ; 0x1e <__rc14>
     417: a5 19        	lda	$19                     ; 0x19 <__rc9>
     419: 91 1a        	sta	($1a),y                 ; 0x1a <__rc10>
     41b: 84 1a        	sty	$1a                     ; 0x1a <__rc10>
     41d: 18           	clc
     41e: a5 22        	lda	$22                     ; 0x22 <__rc18>
     420: 69 02        	adc	#$2
     422: 85 18        	sta	$18                     ; 0x18 <__rc8>
     424: a5 19        	lda	$19                     ; 0x19 <__rc9>
     426: 69 00        	adc	#$0
     428: 85 19        	sta	$19                     ; 0x19 <__rc9>
     42a: 8a           	txa
     42b: a4 1d        	ldy	$1d                     ; 0x1d <__rc13>
     42d: 91 16        	sta	($16),y                 ; 0x16 <__rc6>
     42f: a5 13        	lda	$13                     ; 0x13 <__rc3>
     431: a4 1a        	ldy	$1a                     ; 0x1a <__rc10>
     433: 91 18        	sta	($18),y                 ; 0x18 <__rc8>
     435: a4 1d        	ldy	$1d                     ; 0x1d <__rc13>
     437: b1 12        	lda	($12),y                 ; 0x12 <__rc2>
     439: 85 16        	sta	$16                     ; 0x16 <__rc6>
     43b: 85 19        	sta	$19                     ; 0x19 <__rc9>
     43d: a4 1a        	ldy	$1a                     ; 0x1a <__rc10>
     43f: b1 14        	lda	($14),y                 ; 0x14 <__rc4>
     441: 84 18        	sty	$18                     ; 0x18 <__rc8>
     443: 85 17        	sta	$17                     ; 0x17 <__rc7>
     445: 85 14        	sta	$14                     ; 0x14 <__rc4>
     447: 8a           	txa
     448: a4 1f        	ldy	$1f                     ; 0x1f <__rc15>
     44a: 91 16        	sta	($16),y                 ; 0x16 <__rc6>
     44c: 18           	clc
     44d: a5 19        	lda	$19                     ; 0x19 <__rc9>
     44f: 69 04        	adc	#$4
     451: a8           	tay
     452: a5 14        	lda	$14                     ; 0x14 <__rc4>
     454: 69 00        	adc	#$0
     456: 84 14        	sty	$14                     ; 0x14 <__rc4>
     458: 85 15        	sta	$15                     ; 0x15 <__rc5>
     45a: a5 13        	lda	$13                     ; 0x13 <__rc3>
     45c: a4 18        	ldy	$18                     ; 0x18 <__rc8>
     45e: 91 14        	sta	($14),y                 ; 0x14 <__rc4>
     460: 60           	rts

00000461 <__zero_bss>:
     461: a2 01        	ldx	#$1
     463: a0 00        	ldy	#$0
     465: a9 16        	lda	#$16
     467: 85 12        	sta	$12                     ; 0x12 <__rc2>
     469: a9 51        	lda	#$51
     46b: 85 13        	sta	$13                     ; 0x13 <__rc3>
     46d: a9 00        	lda	#$0
     46f: 84 14        	sty	$14                     ; 0x14 <__rc4>
     471: 4c d9 4b     	jmp	$4bd9 <__memset>

00000474 <__zero_zp_bss>:
     474: a2 59        	ldx	#$59
     476: a0 00        	ldy	#$0
     478: a9 30        	lda	#$30
     47a: 85 12        	sta	$12                     ; 0x12 <__rc2>
     47c: a9 00        	lda	#$0
     47e: 85 13        	sta	$13                     ; 0x13 <__rc3>
     480: a9 00        	lda	#$0
     482: 84 14        	sty	$14                     ; 0x14 <__rc4>
     484: 4c d9 4b     	jmp	$4bd9 <__memset>

00000487 <midiShutAllChannels>:
     487: a2 b0        	ldx	#$b0
     489: 8e a1 dd     	stx	$dda1                   ; 0xdda1 <__heap_start+0x8c89>
     48c: a2 7b        	ldx	#$7b
     48e: 8e a1 dd     	stx	$dda1                   ; 0xdda1 <__heap_start+0x8c89>
     491: 9c a1 dd     	stz	$dda1                   ; 0xdda1 <__heap_start+0x8c89>
     494: a0 b1        	ldy	#$b1
     496: 8c a1 dd     	sty	$dda1                   ; 0xdda1 <__heap_start+0x8c89>
     499: 8e a1 dd     	stx	$dda1                   ; 0xdda1 <__heap_start+0x8c89>
     49c: 9c a1 dd     	stz	$dda1                   ; 0xdda1 <__heap_start+0x8c89>
     49f: c8           	iny
     4a0: 8c a1 dd     	sty	$dda1                   ; 0xdda1 <__heap_start+0x8c89>
     4a3: 8e a1 dd     	stx	$dda1                   ; 0xdda1 <__heap_start+0x8c89>
     4a6: 9c a1 dd     	stz	$dda1                   ; 0xdda1 <__heap_start+0x8c89>
     4a9: c8           	iny
     4aa: 8c a1 dd     	sty	$dda1                   ; 0xdda1 <__heap_start+0x8c89>
     4ad: 8e a1 dd     	stx	$dda1                   ; 0xdda1 <__heap_start+0x8c89>
     4b0: 9c a1 dd     	stz	$dda1                   ; 0xdda1 <__heap_start+0x8c89>
     4b3: c8           	iny
     4b4: 8c a1 dd     	sty	$dda1                   ; 0xdda1 <__heap_start+0x8c89>
     4b7: 8e a1 dd     	stx	$dda1                   ; 0xdda1 <__heap_start+0x8c89>
     4ba: 9c a1 dd     	stz	$dda1                   ; 0xdda1 <__heap_start+0x8c89>
     4bd: c8           	iny
     4be: 8c a1 dd     	sty	$dda1                   ; 0xdda1 <__heap_start+0x8c89>
     4c1: 8e a1 dd     	stx	$dda1                   ; 0xdda1 <__heap_start+0x8c89>
     4c4: 9c a1 dd     	stz	$dda1                   ; 0xdda1 <__heap_start+0x8c89>
     4c7: c8           	iny
     4c8: 8c a1 dd     	sty	$dda1                   ; 0xdda1 <__heap_start+0x8c89>
     4cb: 8e a1 dd     	stx	$dda1                   ; 0xdda1 <__heap_start+0x8c89>
     4ce: 9c a1 dd     	stz	$dda1                   ; 0xdda1 <__heap_start+0x8c89>
     4d1: c8           	iny
     4d2: 8c a1 dd     	sty	$dda1                   ; 0xdda1 <__heap_start+0x8c89>
     4d5: 8e a1 dd     	stx	$dda1                   ; 0xdda1 <__heap_start+0x8c89>
     4d8: 9c a1 dd     	stz	$dda1                   ; 0xdda1 <__heap_start+0x8c89>
     4db: c8           	iny
     4dc: 8c a1 dd     	sty	$dda1                   ; 0xdda1 <__heap_start+0x8c89>
     4df: 8e a1 dd     	stx	$dda1                   ; 0xdda1 <__heap_start+0x8c89>
     4e2: 9c a1 dd     	stz	$dda1                   ; 0xdda1 <__heap_start+0x8c89>
     4e5: c8           	iny
     4e6: 8c a1 dd     	sty	$dda1                   ; 0xdda1 <__heap_start+0x8c89>
     4e9: 8e a1 dd     	stx	$dda1                   ; 0xdda1 <__heap_start+0x8c89>
     4ec: 9c a1 dd     	stz	$dda1                   ; 0xdda1 <__heap_start+0x8c89>
     4ef: c8           	iny
     4f0: 8c a1 dd     	sty	$dda1                   ; 0xdda1 <__heap_start+0x8c89>
     4f3: 8e a1 dd     	stx	$dda1                   ; 0xdda1 <__heap_start+0x8c89>
     4f6: 9c a1 dd     	stz	$dda1                   ; 0xdda1 <__heap_start+0x8c89>
     4f9: c8           	iny
     4fa: 8c a1 dd     	sty	$dda1                   ; 0xdda1 <__heap_start+0x8c89>
     4fd: 8e a1 dd     	stx	$dda1                   ; 0xdda1 <__heap_start+0x8c89>
     500: 9c a1 dd     	stz	$dda1                   ; 0xdda1 <__heap_start+0x8c89>
     503: c8           	iny
     504: 8c a1 dd     	sty	$dda1                   ; 0xdda1 <__heap_start+0x8c89>
     507: 8e a1 dd     	stx	$dda1                   ; 0xdda1 <__heap_start+0x8c89>
     50a: 9c a1 dd     	stz	$dda1                   ; 0xdda1 <__heap_start+0x8c89>
     50d: c8           	iny
     50e: 8c a1 dd     	sty	$dda1                   ; 0xdda1 <__heap_start+0x8c89>
     511: 8e a1 dd     	stx	$dda1                   ; 0xdda1 <__heap_start+0x8c89>
     514: 9c a1 dd     	stz	$dda1                   ; 0xdda1 <__heap_start+0x8c89>
     517: c8           	iny
     518: 8c a1 dd     	sty	$dda1                   ; 0xdda1 <__heap_start+0x8c89>
     51b: 8e a1 dd     	stx	$dda1                   ; 0xdda1 <__heap_start+0x8c89>
     51e: 9c a1 dd     	stz	$dda1                   ; 0xdda1 <__heap_start+0x8c89>
     521: c8           	iny
     522: 8c a1 dd     	sty	$dda1                   ; 0xdda1 <__heap_start+0x8c89>
     525: 8e a1 dd     	stx	$dda1                   ; 0xdda1 <__heap_start+0x8c89>
     528: 9c a1 dd     	stz	$dda1                   ; 0xdda1 <__heap_start+0x8c89>
     52b: 60           	rts

0000052c <midiShutUp>:
     52c: a2 ff        	ldx	#$ff
     52e: 8e a1 dd     	stx	$dda1                   ; 0xdda1 <__heap_start+0x8c89>
     531: 60           	rts

00000532 <readDelta>:
     532: 48           	pha
     533: 18           	clc
     534: a5 10        	lda	$10                     ; 0x10 <__rc0>
     536: 69 f7        	adc	#$f7
     538: 85 10        	sta	$10                     ; 0x10 <__rc0>
     53a: a5 11        	lda	$11                     ; 0x11 <__rc1>
     53c: 69 ff        	adc	#$ff
     53e: 85 11        	sta	$11                     ; 0x11 <__rc1>
     540: 68           	pla
     541: a6 24        	ldx	$24                     ; 0x24 <__rc20>
     543: da           	phx
     544: a6 25        	ldx	$25                     ; 0x25 <__rc21>
     546: da           	phx
     547: a6 26        	ldx	$26                     ; 0x26 <__rc22>
     549: da           	phx
     54a: a6 27        	ldx	$27                     ; 0x27 <__rc23>
     54c: da           	phx
     54d: 48           	pha
     54e: a5 28        	lda	$28                     ; 0x28 <__rc24>
     550: a0 02        	ldy	#$2
     552: 91 10        	sta	($10),y                 ; 0x10 <__rc0>
     554: a5 29        	lda	$29                     ; 0x29 <__rc25>
     556: 88           	dey
     557: 91 10        	sta	($10),y                 ; 0x10 <__rc0>
     559: a5 2a        	lda	$2a                     ; 0x2a <__rc26>
     55b: 88           	dey
     55c: 91 10        	sta	($10),y                 ; 0x10 <__rc0>
     55e: 68           	pla
     55f: 85 25        	sta	$25                     ; 0x25 <__rc21>
     561: a6 82        	ldx	$82                     ; 0x82 <theOne.8>
     563: 86 27        	stx	$27                     ; 0x27 <__rc23>
     565: a6 83        	ldx	$83                     ; 0x83 <theOne.8+0x1>
     567: 86 26        	stx	$26                     ; 0x26 <__rc22>
     569: 64 24        	stz	$24                     ; 0x24 <__rc20>
     56b: a2 19        	ldx	#$19
     56d: 86 12        	stx	$12                     ; 0x12 <__rc2>
     56f: 64 13        	stz	$13                     ; 0x13 <__rc3>
     571: a2 00        	ldx	#$0
     573: 20 58 4d     	jsr	$4d58 <__mulhi3>
     576: 85 12        	sta	$12                     ; 0x12 <__rc2>
     578: 86 13        	stx	$13                     ; 0x13 <__rc3>
     57a: 18           	clc
     57b: a5 27        	lda	$27                     ; 0x27 <__rc23>
     57d: 65 12        	adc	$12                     ; 0x12 <__rc2>
     57f: a8           	tay
     580: a5 26        	lda	$26                     ; 0x26 <__rc22>
     582: 65 13        	adc	$13                     ; 0x13 <__rc3>
     584: aa           	tax
     585: 84 12        	sty	$12                     ; 0x12 <__rc2>
     587: 85 13        	sta	$13                     ; 0x13 <__rc3>
     589: 98           	tya
     58a: 18           	clc
     58b: 69 08        	adc	#$8
     58d: 85 14        	sta	$14                     ; 0x14 <__rc4>
     58f: 8a           	txa
     590: 69 00        	adc	#$0
     592: 85 15        	sta	$15                     ; 0x15 <__rc5>
     594: 18           	clc
     595: 98           	tya
     596: 69 04        	adc	#$4
     598: 85 16        	sta	$16                     ; 0x16 <__rc6>
     59a: 8a           	txa
     59b: 69 00        	adc	#$0
     59d: a0 04        	ldy	#$4
     59f: 85 17        	sta	$17                     ; 0x17 <__rc7>
     5a1: b1 12        	lda	($12),y                 ; 0x12 <__rc2>
     5a3: a2 04        	ldx	#$4
     5a5: 86 1d        	stx	$1d                     ; 0x1d <__rc13>
     5a7: 85 18        	sta	$18                     ; 0x18 <__rc8>
     5a9: a0 01        	ldy	#$1
     5ab: b1 16        	lda	($16),y                 ; 0x16 <__rc6>
     5ad: 85 1a        	sta	$1a                     ; 0x1a <__rc10>
     5af: a2 01        	ldx	#$1
     5b1: 86 1b        	stx	$1b                     ; 0x1b <__rc11>
     5b3: c8           	iny
     5b4: b1 16        	lda	($16),y                 ; 0x16 <__rc6>
     5b6: 85 19        	sta	$19                     ; 0x19 <__rc9>
     5b8: e8           	inx
     5b9: 86 1c        	stx	$1c                     ; 0x1c <__rc12>
     5bb: c8           	iny
     5bc: b1 16        	lda	($16),y                 ; 0x16 <__rc6>
     5be: e8           	inx
     5bf: 86 1e        	stx	$1e                     ; 0x1e <__rc14>
     5c1: a6 18        	ldx	$18                     ; 0x18 <__rc8>
     5c3: a4 1a        	ldy	$1a                     ; 0x1a <__rc10>
     5c5: 84 1f        	sty	$1f                     ; 0x1f <__rc15>
     5c7: a4 19        	ldy	$19                     ; 0x19 <__rc9>
     5c9: 84 22        	sty	$22                     ; 0x22 <__rc18>
     5cb: e8           	inx
     5cc: d0 09        	bne	$5d7 <readDelta+0xa5>
     5ce: e6 1f        	inc	$1f                     ; 0x1f <__rc15>
     5d0: d0 05        	bne	$5d7 <readDelta+0xa5>
     5d2: e6 22        	inc	$22                     ; 0x22 <__rc18>
     5d4: d0 01        	bne	$5d7 <readDelta+0xa5>
     5d6: 1a           	inc
     5d7: 85 23        	sta	$23                     ; 0x23 <__rc19>
     5d9: a4 1d        	ldy	$1d                     ; 0x1d <__rc13>
     5db: 8a           	txa
     5dc: 91 12        	sta	($12),y                 ; 0x12 <__rc2>
     5de: a4 1b        	ldy	$1b                     ; 0x1b <__rc11>
     5e0: a5 1f        	lda	$1f                     ; 0x1f <__rc15>
     5e2: 91 16        	sta	($16),y                 ; 0x16 <__rc6>
     5e4: a4 1c        	ldy	$1c                     ; 0x1c <__rc12>
     5e6: a5 22        	lda	$22                     ; 0x22 <__rc18>
     5e8: 91 16        	sta	($16),y                 ; 0x16 <__rc6>
     5ea: a4 1e        	ldy	$1e                     ; 0x1e <__rc14>
     5ec: a5 23        	lda	$23                     ; 0x23 <__rc19>
     5ee: 91 16        	sta	($16),y                 ; 0x16 <__rc6>
     5f0: 18           	clc
     5f1: a0 08        	ldy	#$8
     5f3: a5 18        	lda	$18                     ; 0x18 <__rc8>
     5f5: 71 12        	adc	($12),y                 ; 0x12 <__rc2>
     5f7: 85 13        	sta	$13                     ; 0x13 <__rc3>
     5f9: a5 1a        	lda	$1a                     ; 0x1a <__rc10>
     5fb: a4 1b        	ldy	$1b                     ; 0x1b <__rc11>
     5fd: 71 14        	adc	($14),y                 ; 0x14 <__rc4>
     5ff: 85 12        	sta	$12                     ; 0x12 <__rc2>
     601: a2 02        	ldx	#$2
     603: 86 27        	stx	$27                     ; 0x27 <__rc23>
     605: a5 19        	lda	$19                     ; 0x19 <__rc9>
     607: a4 1c        	ldy	$1c                     ; 0x1c <__rc12>
     609: 71 14        	adc	($14),y                 ; 0x14 <__rc4>
     60b: 85 14        	sta	$14                     ; 0x14 <__rc4>
     60d: a5 12        	lda	$12                     ; 0x12 <__rc2>
     60f: 06 12        	asl	$12                     ; 0x12 <__rc2>
     611: 26 14        	rol	$14                     ; 0x14 <__rc4>
     613: 06 12        	asl	$12                     ; 0x12 <__rc2>
     615: 26 14        	rol	$14                     ; 0x14 <__rc4>
     617: 06 12        	asl	$12                     ; 0x12 <__rc2>
     619: 26 14        	rol	$14                     ; 0x14 <__rc4>
     61b: a4 14        	ldy	$14                     ; 0x14 <__rc4>
     61d: a6 0f        	ldx	$f                      ; 0xf <__bss_size+0xe>
     61f: 78           	sei
     620: 84 0f        	sty	$f                      ; 0xf <__bss_size+0xe>
     622: a4 13        	ldy	$13                     ; 0x13 <__rc3>
     624: 84 12        	sty	$12                     ; 0x12 <__rc2>
     626: 09 e0        	ora	#$e0
     628: 85 13        	sta	$13                     ; 0x13 <__rc3>
     62a: b2 12        	lda	($12)                   ; 0x12 <__rc2>
     62c: 86 0f        	stx	$f                      ; 0xf <__bss_size+0xe>
     62e: 58           	cli
     62f: aa           	tax
     630: 30 15        	bmi	$647 <readDelta+0x115>
     632: 64 26        	stz	$26                     ; 0x26 <__rc22>
     634: 64 27        	stz	$27                     ; 0x27 <__rc23>
     636: 64 13        	stz	$13                     ; 0x13 <__rc3>
     638: 85 29        	sta	$29                     ; 0x29 <__rc25>
     63a: a9 00        	lda	#$0
     63c: 64 28        	stz	$28                     ; 0x28 <__rc24>
     63e: 64 15        	stz	$15                     ; 0x15 <__rc5>
     640: 64 12        	stz	$12                     ; 0x12 <__rc2>
     642: 64 14        	stz	$14                     ; 0x14 <__rc4>
     644: 4c a3 09     	jmp	$9a3 <readDelta+0x471>
     647: 4a           	lsr
     648: aa           	tax
     649: a9 00        	lda	#$0
     64b: 6a           	ror
     64c: 29 80        	and	#$80
     64e: 85 2a        	sta	$2a                     ; 0x2a <__rc26>
     650: 8a           	txa
     651: 29 3f        	and	#$3f
     653: 85 26        	sta	$26                     ; 0x26 <__rc22>
     655: a6 82        	ldx	$82                     ; 0x82 <theOne.8>
     657: 86 29        	stx	$29                     ; 0x29 <__rc25>
     659: a6 83        	ldx	$83                     ; 0x83 <theOne.8+0x1>
     65b: 86 28        	stx	$28                     ; 0x28 <__rc24>
     65d: a2 19        	ldx	#$19
     65f: 86 12        	stx	$12                     ; 0x12 <__rc2>
     661: 64 13        	stz	$13                     ; 0x13 <__rc3>
     663: a2 00        	ldx	#$0
     665: a5 25        	lda	$25                     ; 0x25 <__rc21>
     667: 20 58 4d     	jsr	$4d58 <__mulhi3>
     66a: 85 12        	sta	$12                     ; 0x12 <__rc2>
     66c: 86 13        	stx	$13                     ; 0x13 <__rc3>
     66e: a2 00        	ldx	#$0
     670: 86 17        	stx	$17                     ; 0x17 <__rc7>
     672: 18           	clc
     673: a5 29        	lda	$29                     ; 0x29 <__rc25>
     675: 65 12        	adc	$12                     ; 0x12 <__rc2>
     677: a8           	tay
     678: a5 28        	lda	$28                     ; 0x28 <__rc24>
     67a: 65 13        	adc	$13                     ; 0x13 <__rc3>
     67c: aa           	tax
     67d: 98           	tya
     67e: 84 12        	sty	$12                     ; 0x12 <__rc2>
     680: 86 13        	stx	$13                     ; 0x13 <__rc3>
     682: 84 18        	sty	$18                     ; 0x18 <__rc8>
     684: 18           	clc
     685: 69 04        	adc	#$4
     687: 85 14        	sta	$14                     ; 0x14 <__rc4>
     689: 8a           	txa
     68a: 86 19        	stx	$19                     ; 0x19 <__rc9>
     68c: 69 00        	adc	#$0
     68e: 85 15        	sta	$15                     ; 0x15 <__rc5>
     690: a0 04        	ldy	#$4
     692: b1 12        	lda	($12),y                 ; 0x12 <__rc2>
     694: 84 1e        	sty	$1e                     ; 0x1e <__rc14>
     696: 85 16        	sta	$16                     ; 0x16 <__rc6>
     698: a0 01        	ldy	#$1
     69a: b1 14        	lda	($14),y                 ; 0x14 <__rc4>
     69c: 85 1c        	sta	$1c                     ; 0x1c <__rc12>
     69e: 84 1b        	sty	$1b                     ; 0x1b <__rc11>
     6a0: a4 27        	ldy	$27                     ; 0x27 <__rc23>
     6a2: b1 14        	lda	($14),y                 ; 0x14 <__rc4>
     6a4: 85 1a        	sta	$1a                     ; 0x1a <__rc10>
     6a6: 84 1d        	sty	$1d                     ; 0x1d <__rc13>
     6a8: a0 03        	ldy	#$3
     6aa: b1 14        	lda	($14),y                 ; 0x14 <__rc4>
     6ac: 84 1f        	sty	$1f                     ; 0x1f <__rc15>
     6ae: a6 16        	ldx	$16                     ; 0x16 <__rc6>
     6b0: 86 23        	stx	$23                     ; 0x23 <__rc19>
     6b2: a6 1c        	ldx	$1c                     ; 0x1c <__rc12>
     6b4: a4 1a        	ldy	$1a                     ; 0x1a <__rc10>
     6b6: 84 22        	sty	$22                     ; 0x22 <__rc18>
     6b8: e6 23        	inc	$23                     ; 0x23 <__rc19>
     6ba: d0 08        	bne	$6c4 <readDelta+0x192>
     6bc: e8           	inx
     6bd: d0 05        	bne	$6c4 <readDelta+0x192>
     6bf: e6 22        	inc	$22                     ; 0x22 <__rc18>
     6c1: d0 01        	bne	$6c4 <readDelta+0x192>
     6c3: 1a           	inc
     6c4: 85 27        	sta	$27                     ; 0x27 <__rc23>
     6c6: a4 1e        	ldy	$1e                     ; 0x1e <__rc14>
     6c8: a5 23        	lda	$23                     ; 0x23 <__rc19>
     6ca: 91 12        	sta	($12),y                 ; 0x12 <__rc2>
     6cc: a4 1f        	ldy	$1f                     ; 0x1f <__rc15>
     6ce: a5 27        	lda	$27                     ; 0x27 <__rc23>
     6d0: 91 14        	sta	($14),y                 ; 0x14 <__rc4>
     6d2: a4 1b        	ldy	$1b                     ; 0x1b <__rc11>
     6d4: 8a           	txa
     6d5: 91 14        	sta	($14),y                 ; 0x14 <__rc4>
     6d7: a4 1d        	ldy	$1d                     ; 0x1d <__rc13>
     6d9: a5 22        	lda	$22                     ; 0x22 <__rc18>
     6db: 91 14        	sta	($14),y                 ; 0x14 <__rc4>
     6dd: 84 15        	sty	$15                     ; 0x15 <__rc5>
     6df: a0 08        	ldy	#$8
     6e1: a5 16        	lda	$16                     ; 0x16 <__rc6>
     6e3: a6 17        	ldx	$17                     ; 0x17 <__rc7>
     6e5: e0 01        	cpx	#$1
     6e7: 71 12        	adc	($12),y                 ; 0x12 <__rc2>
     6e9: a2 01        	ldx	#$1
     6eb: b0 02        	bcs	$6ef <readDelta+0x1bd>
     6ed: a2 00        	ldx	#$0
     6ef: 85 14        	sta	$14                     ; 0x14 <__rc4>
     6f1: 18           	clc
     6f2: a5 18        	lda	$18                     ; 0x18 <__rc8>
     6f4: 69 08        	adc	#$8
     6f6: 85 12        	sta	$12                     ; 0x12 <__rc2>
     6f8: a5 19        	lda	$19                     ; 0x19 <__rc9>
     6fa: 69 00        	adc	#$0
     6fc: 85 13        	sta	$13                     ; 0x13 <__rc3>
     6fe: a5 1c        	lda	$1c                     ; 0x1c <__rc12>
     700: e0 01        	cpx	#$1
     702: a4 1b        	ldy	$1b                     ; 0x1b <__rc11>
     704: 71 12        	adc	($12),y                 ; 0x12 <__rc2>
     706: aa           	tax
     707: a5 1a        	lda	$1a                     ; 0x1a <__rc10>
     709: a4 15        	ldy	$15                     ; 0x15 <__rc5>
     70b: 71 12        	adc	($12),y                 ; 0x12 <__rc2>
     70d: 85 13        	sta	$13                     ; 0x13 <__rc3>
     70f: 8a           	txa
     710: 86 12        	stx	$12                     ; 0x12 <__rc2>
     712: 06 12        	asl	$12                     ; 0x12 <__rc2>
     714: 26 13        	rol	$13                     ; 0x13 <__rc3>
     716: 06 12        	asl	$12                     ; 0x12 <__rc2>
     718: 26 13        	rol	$13                     ; 0x13 <__rc3>
     71a: 06 12        	asl	$12                     ; 0x12 <__rc2>
     71c: 26 13        	rol	$13                     ; 0x13 <__rc3>
     71e: a4 13        	ldy	$13                     ; 0x13 <__rc3>
     720: a6 0f        	ldx	$f                      ; 0xf <__bss_size+0xe>
     722: 78           	sei
     723: 84 0f        	sty	$f                      ; 0xf <__bss_size+0xe>
     725: a4 14        	ldy	$14                     ; 0x14 <__rc4>
     727: 84 12        	sty	$12                     ; 0x12 <__rc2>
     729: 09 e0        	ora	#$e0
     72b: 85 13        	sta	$13                     ; 0x13 <__rc3>
     72d: b2 12        	lda	($12)                   ; 0x12 <__rc2>
     72f: 86 0f        	stx	$f                      ; 0xf <__bss_size+0xe>
     731: 58           	cli
     732: aa           	tax
     733: 30 13        	bmi	$748 <readDelta+0x216>
     735: 64 13        	stz	$13                     ; 0x13 <__rc3>
     737: 64 28        	stz	$28                     ; 0x28 <__rc24>
     739: 64 15        	stz	$15                     ; 0x15 <__rc5>
     73b: 64 12        	stz	$12                     ; 0x12 <__rc2>
     73d: 64 27        	stz	$27                     ; 0x27 <__rc23>
     73f: 64 14        	stz	$14                     ; 0x14 <__rc4>
     741: a6 2a        	ldx	$2a                     ; 0x2a <__rc26>
     743: 86 29        	stx	$29                     ; 0x29 <__rc25>
     745: 4c a3 09     	jmp	$9a3 <readDelta+0x471>
     748: 4a           	lsr
     749: aa           	tax
     74a: a9 00        	lda	#$0
     74c: 6a           	ror
     74d: 46 26        	lsr	$26                     ; 0x26 <__rc22>
     74f: a4 26        	ldy	$26                     ; 0x26 <__rc22>
     751: 84 27        	sty	$27                     ; 0x27 <__rc23>
     753: a4 2a        	ldy	$2a                     ; 0x2a <__rc26>
     755: 84 26        	sty	$26                     ; 0x26 <__rc22>
     757: 66 26        	ror	$26                     ; 0x26 <__rc22>
     759: 64 14        	stz	$14                     ; 0x14 <__rc4>
     75b: 66 14        	ror	$14                     ; 0x14 <__rc4>
     75d: 48           	pha
     75e: a5 14        	lda	$14                     ; 0x14 <__rc4>
     760: a0 07        	ldy	#$7
     762: 91 10        	sta	($10),y                 ; 0x10 <__rc0>
     764: 68           	pla
     765: 64 13        	stz	$13                     ; 0x13 <__rc3>
     767: 29 80        	and	#$80
     769: c8           	iny
     76a: 91 10        	sta	($10),y                 ; 0x10 <__rc0>
     76c: 8a           	txa
     76d: 29 3f        	and	#$3f
     76f: 85 28        	sta	$28                     ; 0x28 <__rc24>
     771: a6 82        	ldx	$82                     ; 0x82 <theOne.8>
     773: 86 2a        	stx	$2a                     ; 0x2a <__rc26>
     775: a6 83        	ldx	$83                     ; 0x83 <theOne.8+0x1>
     777: 86 29        	stx	$29                     ; 0x29 <__rc25>
     779: a0 19        	ldy	#$19
     77b: a2 00        	ldx	#$0
     77d: 84 12        	sty	$12                     ; 0x12 <__rc2>
     77f: a5 25        	lda	$25                     ; 0x25 <__rc21>
     781: 20 58 4d     	jsr	$4d58 <__mulhi3>
     784: 85 12        	sta	$12                     ; 0x12 <__rc2>
     786: 86 13        	stx	$13                     ; 0x13 <__rc3>
     788: a5 2a        	lda	$2a                     ; 0x2a <__rc26>
     78a: 18           	clc
     78b: 65 12        	adc	$12                     ; 0x12 <__rc2>
     78d: a8           	tay
     78e: a5 29        	lda	$29                     ; 0x29 <__rc25>
     790: 65 13        	adc	$13                     ; 0x13 <__rc3>
     792: aa           	tax
     793: 84 12        	sty	$12                     ; 0x12 <__rc2>
     795: 85 13        	sta	$13                     ; 0x13 <__rc3>
     797: 18           	clc
     798: 98           	tya
     799: 84 16        	sty	$16                     ; 0x16 <__rc6>
     79b: 69 08        	adc	#$8
     79d: 85 14        	sta	$14                     ; 0x14 <__rc4>
     79f: 8a           	txa
     7a0: 69 00        	adc	#$0
     7a2: 85 15        	sta	$15                     ; 0x15 <__rc5>
     7a4: a0 04        	ldy	#$4
     7a6: 18           	clc
     7a7: a5 16        	lda	$16                     ; 0x16 <__rc6>
     7a9: 69 04        	adc	#$4
     7ab: 85 16        	sta	$16                     ; 0x16 <__rc6>
     7ad: 8a           	txa
     7ae: 69 00        	adc	#$0
     7b0: 85 17        	sta	$17                     ; 0x17 <__rc7>
     7b2: b1 12        	lda	($12),y                 ; 0x12 <__rc2>
     7b4: a2 04        	ldx	#$4
     7b6: 86 1d        	stx	$1d                     ; 0x1d <__rc13>
     7b8: 85 18        	sta	$18                     ; 0x18 <__rc8>
     7ba: a2 01        	ldx	#$1
     7bc: 86 19        	stx	$19                     ; 0x19 <__rc9>
     7be: a4 19        	ldy	$19                     ; 0x19 <__rc9>
     7c0: b1 16        	lda	($16),y                 ; 0x16 <__rc6>
     7c2: 85 1b        	sta	$1b                     ; 0x1b <__rc11>
     7c4: a0 02        	ldy	#$2
     7c6: b1 16        	lda	($16),y                 ; 0x16 <__rc6>
     7c8: 85 1f        	sta	$1f                     ; 0x1f <__rc15>
     7ca: e8           	inx
     7cb: 86 1a        	stx	$1a                     ; 0x1a <__rc10>
     7cd: c8           	iny
     7ce: b1 16        	lda	($16),y                 ; 0x16 <__rc6>
     7d0: 85 22        	sta	$22                     ; 0x22 <__rc18>
     7d2: e8           	inx
     7d3: 86 1c        	stx	$1c                     ; 0x1c <__rc12>
     7d5: a6 18        	ldx	$18                     ; 0x18 <__rc8>
     7d7: 86 1e        	stx	$1e                     ; 0x1e <__rc14>
     7d9: a4 1b        	ldy	$1b                     ; 0x1b <__rc11>
     7db: a5 1f        	lda	$1f                     ; 0x1f <__rc15>
     7dd: a6 1f        	ldx	$1f                     ; 0x1f <__rc15>
     7df: 5a           	phy
     7e0: a4 22        	ldy	$22                     ; 0x22 <__rc18>
     7e2: 84 1f        	sty	$1f                     ; 0x1f <__rc15>
     7e4: 7a           	ply
     7e5: e6 1e        	inc	$1e                     ; 0x1e <__rc14>
     7e7: d0 08        	bne	$7f1 <readDelta+0x2bf>
     7e9: c8           	iny
     7ea: d0 05        	bne	$7f1 <readDelta+0x2bf>
     7ec: 1a           	inc
     7ed: d0 02        	bne	$7f1 <readDelta+0x2bf>
     7ef: e6 1f        	inc	$1f                     ; 0x1f <__rc15>
     7f1: 85 22        	sta	$22                     ; 0x22 <__rc18>
     7f3: 84 23        	sty	$23                     ; 0x23 <__rc19>
     7f5: a4 1d        	ldy	$1d                     ; 0x1d <__rc13>
     7f7: a5 1e        	lda	$1e                     ; 0x1e <__rc14>
     7f9: 91 12        	sta	($12),y                 ; 0x12 <__rc2>
     7fb: a4 19        	ldy	$19                     ; 0x19 <__rc9>
     7fd: a5 23        	lda	$23                     ; 0x23 <__rc19>
     7ff: 91 16        	sta	($16),y                 ; 0x16 <__rc6>
     801: a0 01        	ldy	#$1
     803: 84 19        	sty	$19                     ; 0x19 <__rc9>
     805: a4 1a        	ldy	$1a                     ; 0x1a <__rc10>
     807: a5 22        	lda	$22                     ; 0x22 <__rc18>
     809: 91 16        	sta	($16),y                 ; 0x16 <__rc6>
     80b: a4 1c        	ldy	$1c                     ; 0x1c <__rc12>
     80d: a5 1f        	lda	$1f                     ; 0x1f <__rc15>
     80f: 91 16        	sta	($16),y                 ; 0x16 <__rc6>
     811: 18           	clc
     812: a0 08        	ldy	#$8
     814: a5 18        	lda	$18                     ; 0x18 <__rc8>
     816: 71 12        	adc	($12),y                 ; 0x12 <__rc2>
     818: 85 17        	sta	$17                     ; 0x17 <__rc7>
     81a: a5 1b        	lda	$1b                     ; 0x1b <__rc11>
     81c: a4 19        	ldy	$19                     ; 0x19 <__rc9>
     81e: 71 14        	adc	($14),y                 ; 0x14 <__rc4>
     820: 85 12        	sta	$12                     ; 0x12 <__rc2>
     822: a4 1a        	ldy	$1a                     ; 0x1a <__rc10>
     824: 8a           	txa
     825: 71 14        	adc	($14),y                 ; 0x14 <__rc4>
     827: 85 13        	sta	$13                     ; 0x13 <__rc3>
     829: a5 12        	lda	$12                     ; 0x12 <__rc2>
     82b: 06 12        	asl	$12                     ; 0x12 <__rc2>
     82d: 26 13        	rol	$13                     ; 0x13 <__rc3>
     82f: 06 12        	asl	$12                     ; 0x12 <__rc2>
     831: 26 13        	rol	$13                     ; 0x13 <__rc3>
     833: 06 12        	asl	$12                     ; 0x12 <__rc2>
     835: 26 13        	rol	$13                     ; 0x13 <__rc3>
     837: a4 13        	ldy	$13                     ; 0x13 <__rc3>
     839: a6 0f        	ldx	$f                      ; 0xf <__bss_size+0xe>
     83b: 78           	sei
     83c: 84 0f        	sty	$f                      ; 0xf <__bss_size+0xe>
     83e: a4 17        	ldy	$17                     ; 0x17 <__rc7>
     840: 84 12        	sty	$12                     ; 0x12 <__rc2>
     842: 09 e0        	ora	#$e0
     844: 85 13        	sta	$13                     ; 0x13 <__rc3>
     846: b2 12        	lda	($12)                   ; 0x12 <__rc2>
     848: 86 0f        	stx	$f                      ; 0xf <__bss_size+0xe>
     84a: 58           	cli
     84b: aa           	tax
     84c: 30 14        	bmi	$862 <readDelta+0x330>
     84e: 64 15        	stz	$15                     ; 0x15 <__rc5>
     850: 85 12        	sta	$12                     ; 0x12 <__rc2>
     852: 64 14        	stz	$14                     ; 0x14 <__rc4>
     854: 64 13        	stz	$13                     ; 0x13 <__rc3>
     856: a0 07        	ldy	#$7
     858: b1 10        	lda	($10),y                 ; 0x10 <__rc0>
     85a: 85 29        	sta	$29                     ; 0x29 <__rc25>
     85c: c8           	iny
     85d: b1 10        	lda	($10),y                 ; 0x10 <__rc0>
     85f: 4c a3 09     	jmp	$9a3 <readDelta+0x471>
     862: 4a           	lsr
     863: 64 14        	stz	$14                     ; 0x14 <__rc4>
     865: 66 14        	ror	$14                     ; 0x14 <__rc4>
     867: 46 28        	lsr	$28                     ; 0x28 <__rc24>
     869: 48           	pha
     86a: a5 28        	lda	$28                     ; 0x28 <__rc24>
     86c: a0 06        	ldy	#$6
     86e: 91 10        	sta	($10),y                 ; 0x10 <__rc0>
     870: a0 08        	ldy	#$8
     872: b1 10        	lda	($10),y                 ; 0x10 <__rc0>
     874: 85 28        	sta	$28                     ; 0x28 <__rc24>
     876: 68           	pla
     877: 66 28        	ror	$28                     ; 0x28 <__rc24>
     879: aa           	tax
     87a: a9 00        	lda	#$0
     87c: 6a           	ror
     87d: 91 10        	sta	($10),y                 ; 0x10 <__rc0>
     87f: a4 27        	ldy	$27                     ; 0x27 <__rc23>
     881: 84 24        	sty	$24                     ; 0x24 <__rc20>
     883: 46 24        	lsr	$24                     ; 0x24 <__rc20>
     885: 66 26        	ror	$26                     ; 0x26 <__rc22>
     887: a4 26        	ldy	$26                     ; 0x26 <__rc22>
     889: 84 27        	sty	$27                     ; 0x27 <__rc23>
     88b: a0 07        	ldy	#$7
     88d: b1 10        	lda	($10),y                 ; 0x10 <__rc0>
     88f: 85 26        	sta	$26                     ; 0x26 <__rc22>
     891: 66 26        	ror	$26                     ; 0x26 <__rc22>
     893: a9 00        	lda	#$0
     895: 6a           	ror
     896: 91 10        	sta	($10),y                 ; 0x10 <__rc0>
     898: a5 14        	lda	$14                     ; 0x14 <__rc4>
     89a: 29 80        	and	#$80
     89c: 85 29        	sta	$29                     ; 0x29 <__rc25>
     89e: 8a           	txa
     89f: 29 3f        	and	#$3f
     8a1: a0 04        	ldy	#$4
     8a3: 91 10        	sta	($10),y                 ; 0x10 <__rc0>
     8a5: a6 82        	ldx	$82                     ; 0x82 <theOne.8>
     8a7: 8a           	txa
     8a8: 88           	dey
     8a9: 91 10        	sta	($10),y                 ; 0x10 <__rc0>
     8ab: a6 83        	ldx	$83                     ; 0x83 <theOne.8+0x1>
     8ad: 8a           	txa
     8ae: a0 05        	ldy	#$5
     8b0: 91 10        	sta	($10),y                 ; 0x10 <__rc0>
     8b2: a0 19        	ldy	#$19
     8b4: a2 00        	ldx	#$0
     8b6: 84 12        	sty	$12                     ; 0x12 <__rc2>
     8b8: 64 13        	stz	$13                     ; 0x13 <__rc3>
     8ba: a5 25        	lda	$25                     ; 0x25 <__rc21>
     8bc: 20 58 4d     	jsr	$4d58 <__mulhi3>
     8bf: a4 24        	ldy	$24                     ; 0x24 <__rc20>
     8c1: 84 13        	sty	$13                     ; 0x13 <__rc3>
     8c3: 85 15        	sta	$15                     ; 0x15 <__rc5>
     8c5: 86 16        	stx	$16                     ; 0x16 <__rc6>
     8c7: a6 29        	ldx	$29                     ; 0x29 <__rc25>
     8c9: 86 12        	stx	$12                     ; 0x12 <__rc2>
     8cb: a0 04        	ldy	#$4
     8cd: b1 10        	lda	($10),y                 ; 0x10 <__rc0>
     8cf: 85 14        	sta	$14                     ; 0x14 <__rc4>
     8d1: a2 00        	ldx	#$0
     8d3: 86 1a        	stx	$1a                     ; 0x1a <__rc10>
     8d5: 18           	clc
     8d6: 88           	dey
     8d7: b1 10        	lda	($10),y                 ; 0x10 <__rc0>
     8d9: 65 15        	adc	$15                     ; 0x15 <__rc5>
     8db: a8           	tay
     8dc: 5a           	phy
     8dd: a0 05        	ldy	#$5
     8df: b1 10        	lda	($10),y                 ; 0x10 <__rc0>
     8e1: 7a           	ply
     8e2: 65 16        	adc	$16                     ; 0x16 <__rc6>
     8e4: aa           	tax
     8e5: 98           	tya
     8e6: 84 16        	sty	$16                     ; 0x16 <__rc6>
     8e8: 86 17        	stx	$17                     ; 0x17 <__rc7>
     8ea: 84 1c        	sty	$1c                     ; 0x1c <__rc12>
     8ec: 18           	clc
     8ed: 69 04        	adc	#$4
     8ef: 85 18        	sta	$18                     ; 0x18 <__rc8>
     8f1: 8a           	txa
     8f2: 86 1d        	stx	$1d                     ; 0x1d <__rc13>
     8f4: 69 00        	adc	#$0
     8f6: 85 19        	sta	$19                     ; 0x19 <__rc9>
     8f8: a0 04        	ldy	#$4
     8fa: b1 16        	lda	($16),y                 ; 0x16 <__rc6>
     8fc: 84 23        	sty	$23                     ; 0x23 <__rc19>
     8fe: aa           	tax
     8ff: a0 01        	ldy	#$1
     901: b1 18        	lda	($18),y                 ; 0x18 <__rc8>
     903: 85 1b        	sta	$1b                     ; 0x1b <__rc11>
     905: 84 1e        	sty	$1e                     ; 0x1e <__rc14>
     907: c8           	iny
     908: b1 18        	lda	($18),y                 ; 0x18 <__rc8>
     90a: 84 1f        	sty	$1f                     ; 0x1f <__rc15>
     90c: 85 15        	sta	$15                     ; 0x15 <__rc5>
     90e: c8           	iny
     90f: b1 18        	lda	($18),y                 ; 0x18 <__rc8>
     911: 84 24        	sty	$24                     ; 0x24 <__rc20>
     913: 85 22        	sta	$22                     ; 0x22 <__rc18>
     915: a4 1b        	ldy	$1b                     ; 0x1b <__rc11>
     917: 84 25        	sty	$25                     ; 0x25 <__rc21>
     919: a4 15        	ldy	$15                     ; 0x15 <__rc5>
     91b: 84 29        	sty	$29                     ; 0x29 <__rc25>
     91d: 8a           	txa
     91e: 1a           	inc
     91f: d0 0a        	bne	$92b <readDelta+0x3f9>
     921: e6 25        	inc	$25                     ; 0x25 <__rc21>
     923: d0 06        	bne	$92b <readDelta+0x3f9>
     925: e6 29        	inc	$29                     ; 0x29 <__rc25>
     927: d0 02        	bne	$92b <readDelta+0x3f9>
     929: e6 22        	inc	$22                     ; 0x22 <__rc18>
     92b: a4 23        	ldy	$23                     ; 0x23 <__rc19>
     92d: 91 16        	sta	($16),y                 ; 0x16 <__rc6>
     92f: a5 22        	lda	$22                     ; 0x22 <__rc18>
     931: a4 24        	ldy	$24                     ; 0x24 <__rc20>
     933: 91 18        	sta	($18),y                 ; 0x18 <__rc8>
     935: a4 1e        	ldy	$1e                     ; 0x1e <__rc14>
     937: a5 25        	lda	$25                     ; 0x25 <__rc21>
     939: 91 18        	sta	($18),y                 ; 0x18 <__rc8>
     93b: a4 1f        	ldy	$1f                     ; 0x1f <__rc15>
     93d: a5 29        	lda	$29                     ; 0x29 <__rc25>
     93f: 91 18        	sta	($18),y                 ; 0x18 <__rc8>
     941: a0 08        	ldy	#$8
     943: 8a           	txa
     944: a6 1a        	ldx	$1a                     ; 0x1a <__rc10>
     946: e0 01        	cpx	#$1
     948: 71 16        	adc	($16),y                 ; 0x16 <__rc6>
     94a: a2 01        	ldx	#$1
     94c: b0 02        	bcs	$950 <readDelta+0x41e>
     94e: a2 00        	ldx	#$0
     950: 85 19        	sta	$19                     ; 0x19 <__rc9>
     952: 18           	clc
     953: a5 1c        	lda	$1c                     ; 0x1c <__rc12>
     955: 69 08        	adc	#$8
     957: 85 16        	sta	$16                     ; 0x16 <__rc6>
     959: a5 1d        	lda	$1d                     ; 0x1d <__rc13>
     95b: 69 00        	adc	#$0
     95d: 85 17        	sta	$17                     ; 0x17 <__rc7>
     95f: e0 01        	cpx	#$1
     961: a5 1b        	lda	$1b                     ; 0x1b <__rc11>
     963: a4 1e        	ldy	$1e                     ; 0x1e <__rc14>
     965: 71 16        	adc	($16),y                 ; 0x16 <__rc6>
     967: 85 18        	sta	$18                     ; 0x18 <__rc8>
     969: a5 15        	lda	$15                     ; 0x15 <__rc5>
     96b: a4 1f        	ldy	$1f                     ; 0x1f <__rc15>
     96d: 71 16        	adc	($16),y                 ; 0x16 <__rc6>
     96f: 85 15        	sta	$15                     ; 0x15 <__rc5>
     971: a6 0f        	ldx	$f                      ; 0xf <__bss_size+0xe>
     973: 78           	sei
     974: a5 18        	lda	$18                     ; 0x18 <__rc8>
     976: 0a           	asl
     977: 26 15        	rol	$15                     ; 0x15 <__rc5>
     979: 0a           	asl
     97a: 26 15        	rol	$15                     ; 0x15 <__rc5>
     97c: 0a           	asl
     97d: a5 15        	lda	$15                     ; 0x15 <__rc5>
     97f: 2a           	rol
     980: 85 0f        	sta	$f                      ; 0xf <__bss_size+0xe>
     982: a5 18        	lda	$18                     ; 0x18 <__rc8>
     984: 09 e0        	ora	#$e0
     986: a4 19        	ldy	$19                     ; 0x19 <__rc9>
     988: 84 16        	sty	$16                     ; 0x16 <__rc6>
     98a: 85 17        	sta	$17                     ; 0x17 <__rc7>
     98c: b2 16        	lda	($16)                   ; 0x16 <__rc6>
     98e: 86 0f        	stx	$f                      ; 0xf <__bss_size+0xe>
     990: 58           	cli
     991: 85 24        	sta	$24                     ; 0x24 <__rc20>
     993: a0 08        	ldy	#$8
     995: b1 10        	lda	($10),y                 ; 0x10 <__rc0>
     997: 48           	pha
     998: 88           	dey
     999: b1 10        	lda	($10),y                 ; 0x10 <__rc0>
     99b: 85 29        	sta	$29                     ; 0x29 <__rc25>
     99d: 88           	dey
     99e: b1 10        	lda	($10),y                 ; 0x10 <__rc0>
     9a0: 85 15        	sta	$15                     ; 0x15 <__rc5>
     9a2: 68           	pla
     9a3: 85 17        	sta	$17                     ; 0x17 <__rc7>
     9a5: a5 29        	lda	$29                     ; 0x29 <__rc25>
     9a7: 05 17        	ora	$17                     ; 0x17 <__rc7>
     9a9: aa           	tax
     9aa: a5 26        	lda	$26                     ; 0x26 <__rc22>
     9ac: 05 28        	ora	$28                     ; 0x28 <__rc24>
     9ae: 85 16        	sta	$16                     ; 0x16 <__rc6>
     9b0: a5 27        	lda	$27                     ; 0x27 <__rc23>
     9b2: 05 15        	ora	$15                     ; 0x15 <__rc5>
     9b4: a8           	tay
     9b5: 8a           	txa
     9b6: 05 12        	ora	$12                     ; 0x12 <__rc2>
     9b8: 85 12        	sta	$12                     ; 0x12 <__rc2>
     9ba: a5 16        	lda	$16                     ; 0x16 <__rc6>
     9bc: 05 14        	ora	$14                     ; 0x14 <__rc4>
     9be: aa           	tax
     9bf: a5 12        	lda	$12                     ; 0x12 <__rc2>
     9c1: 05 24        	ora	$24                     ; 0x24 <__rc20>
     9c3: 84 12        	sty	$12                     ; 0x12 <__rc2>
     9c5: 85 20        	sta	$20                     ; 0x20 <__rc16>
     9c7: a0 00        	ldy	#$0
     9c9: b1 10        	lda	($10),y                 ; 0x10 <__rc0>
     9cb: 85 2a        	sta	$2a                     ; 0x2a <__rc26>
     9cd: c8           	iny
     9ce: b1 10        	lda	($10),y                 ; 0x10 <__rc0>
     9d0: 85 29        	sta	$29                     ; 0x29 <__rc25>
     9d2: c8           	iny
     9d3: b1 10        	lda	($10),y                 ; 0x10 <__rc0>
     9d5: 85 28        	sta	$28                     ; 0x28 <__rc24>
     9d7: 7a           	ply
     9d8: 84 27        	sty	$27                     ; 0x27 <__rc23>
     9da: 7a           	ply
     9db: 84 26        	sty	$26                     ; 0x26 <__rc22>
     9dd: 7a           	ply
     9de: 84 25        	sty	$25                     ; 0x25 <__rc21>
     9e0: 7a           	ply
     9e1: 84 24        	sty	$24                     ; 0x24 <__rc20>
     9e3: 18           	clc
     9e4: a5 10        	lda	$10                     ; 0x10 <__rc0>
     9e6: 69 09        	adc	#$9
     9e8: 85 10        	sta	$10                     ; 0x10 <__rc0>
     9ea: a5 11        	lda	$11                     ; 0x11 <__rc1>
     9ec: 69 00        	adc	#$0
     9ee: 85 11        	sta	$11                     ; 0x11 <__rc1>
     9f0: a5 20        	lda	$20                     ; 0x20 <__rc16>
     9f2: 60           	rts

000009f3 <readMIDICmd>:
     9f3: 48           	pha
     9f4: 18           	clc
     9f5: a5 10        	lda	$10                     ; 0x10 <__rc0>
     9f7: 69 fd        	adc	#$fd
     9f9: 85 10        	sta	$10                     ; 0x10 <__rc0>
     9fb: a5 11        	lda	$11                     ; 0x11 <__rc1>
     9fd: 69 ff        	adc	#$ff
     9ff: 85 11        	sta	$11                     ; 0x11 <__rc1>
     a01: 68           	pla
     a02: a6 24        	ldx	$24                     ; 0x24 <__rc20>
     a04: da           	phx
     a05: a6 25        	ldx	$25                     ; 0x25 <__rc21>
     a07: da           	phx
     a08: a6 26        	ldx	$26                     ; 0x26 <__rc22>
     a0a: da           	phx
     a0b: a6 27        	ldx	$27                     ; 0x27 <__rc23>
     a0d: da           	phx
     a0e: 48           	pha
     a0f: a5 28        	lda	$28                     ; 0x28 <__rc24>
     a11: a0 02        	ldy	#$2
     a13: 91 10        	sta	($10),y                 ; 0x10 <__rc0>
     a15: a5 29        	lda	$29                     ; 0x29 <__rc25>
     a17: 88           	dey
     a18: 91 10        	sta	($10),y                 ; 0x10 <__rc0>
     a1a: a5 2a        	lda	$2a                     ; 0x2a <__rc26>
     a1c: 88           	dey
     a1d: 91 10        	sta	($10),y                 ; 0x10 <__rc0>
     a1f: 68           	pla
     a20: 85 24        	sta	$24                     ; 0x24 <__rc20>
     a22: a6 82        	ldx	$82                     ; 0x82 <theOne.8>
     a24: 86 25        	stx	$25                     ; 0x25 <__rc21>
     a26: a6 83        	ldx	$83                     ; 0x83 <theOne.8+0x1>
     a28: 86 26        	stx	$26                     ; 0x26 <__rc22>
     a2a: a2 19        	ldx	#$19
     a2c: 86 12        	stx	$12                     ; 0x12 <__rc2>
     a2e: 64 13        	stz	$13                     ; 0x13 <__rc3>
     a30: a2 00        	ldx	#$0
     a32: 20 58 4d     	jsr	$4d58 <__mulhi3>
     a35: 85 19        	sta	$19                     ; 0x19 <__rc9>
     a37: 18           	clc
     a38: 85 12        	sta	$12                     ; 0x12 <__rc2>
     a3a: a5 25        	lda	$25                     ; 0x25 <__rc21>
     a3c: 65 12        	adc	$12                     ; 0x12 <__rc2>
     a3e: 85 16        	sta	$16                     ; 0x16 <__rc6>
     a40: 86 12        	stx	$12                     ; 0x12 <__rc2>
     a42: 86 18        	stx	$18                     ; 0x18 <__rc8>
     a44: a5 26        	lda	$26                     ; 0x26 <__rc22>
     a46: 65 12        	adc	$12                     ; 0x12 <__rc2>
     a48: a6 16        	ldx	$16                     ; 0x16 <__rc6>
     a4a: 86 12        	stx	$12                     ; 0x12 <__rc2>
     a4c: 85 13        	sta	$13                     ; 0x13 <__rc3>
     a4e: 85 17        	sta	$17                     ; 0x17 <__rc7>
     a50: 18           	clc
     a51: a5 16        	lda	$16                     ; 0x16 <__rc6>
     a53: 69 08        	adc	#$8
     a55: 85 14        	sta	$14                     ; 0x14 <__rc4>
     a57: a5 17        	lda	$17                     ; 0x17 <__rc7>
     a59: 69 00        	adc	#$0
     a5b: a0 08        	ldy	#$8
     a5d: 85 15        	sta	$15                     ; 0x15 <__rc5>
     a5f: b1 12        	lda	($12),y                 ; 0x12 <__rc2>
     a61: 85 1a        	sta	$1a                     ; 0x1a <__rc10>
     a63: a2 08        	ldx	#$8
     a65: 86 22        	stx	$22                     ; 0x22 <__rc18>
     a67: 18           	clc
     a68: a5 16        	lda	$16                     ; 0x16 <__rc6>
     a6a: 69 04        	adc	#$4
     a6c: 85 16        	sta	$16                     ; 0x16 <__rc6>
     a6e: a5 17        	lda	$17                     ; 0x17 <__rc7>
     a70: 69 00        	adc	#$0
     a72: 85 17        	sta	$17                     ; 0x17 <__rc7>
     a74: a0 01        	ldy	#$1
     a76: b1 14        	lda	($14),y                 ; 0x14 <__rc4>
     a78: 85 1c        	sta	$1c                     ; 0x1c <__rc12>
     a7a: a2 01        	ldx	#$1
     a7c: 86 1d        	stx	$1d                     ; 0x1d <__rc13>
     a7e: c8           	iny
     a7f: b1 14        	lda	($14),y                 ; 0x14 <__rc4>
     a81: 85 14        	sta	$14                     ; 0x14 <__rc4>
     a83: e8           	inx
     a84: 86 15        	stx	$15                     ; 0x15 <__rc5>
     a86: 18           	clc
     a87: a0 04        	ldy	#$4
     a89: a5 1a        	lda	$1a                     ; 0x1a <__rc10>
     a8b: 71 12        	adc	($12),y                 ; 0x12 <__rc2>
     a8d: 85 13        	sta	$13                     ; 0x13 <__rc3>
     a8f: a2 04        	ldx	#$4
     a91: 86 1b        	stx	$1b                     ; 0x1b <__rc11>
     a93: a5 1c        	lda	$1c                     ; 0x1c <__rc12>
     a95: a4 1d        	ldy	$1d                     ; 0x1d <__rc13>
     a97: 71 16        	adc	($16),y                 ; 0x16 <__rc6>
     a99: aa           	tax
     a9a: 84 1c        	sty	$1c                     ; 0x1c <__rc12>
     a9c: a5 14        	lda	$14                     ; 0x14 <__rc4>
     a9e: a4 15        	ldy	$15                     ; 0x15 <__rc5>
     aa0: 71 16        	adc	($16),y                 ; 0x16 <__rc6>
     aa2: 85 14        	sta	$14                     ; 0x14 <__rc4>
     aa4: 84 1d        	sty	$1d                     ; 0x1d <__rc13>
     aa6: 8a           	txa
     aa7: 86 12        	stx	$12                     ; 0x12 <__rc2>
     aa9: 06 12        	asl	$12                     ; 0x12 <__rc2>
     aab: 26 14        	rol	$14                     ; 0x14 <__rc4>
     aad: 06 12        	asl	$12                     ; 0x12 <__rc2>
     aaf: 26 14        	rol	$14                     ; 0x14 <__rc4>
     ab1: 06 12        	asl	$12                     ; 0x12 <__rc2>
     ab3: 26 14        	rol	$14                     ; 0x14 <__rc4>
     ab5: a6 14        	ldx	$14                     ; 0x14 <__rc4>
     ab7: a4 0f        	ldy	$f                      ; 0xf <__bss_size+0xe>
     ab9: 78           	sei
     aba: 86 0f        	stx	$f                      ; 0xf <__bss_size+0xe>
     abc: a6 13        	ldx	$13                     ; 0x13 <__rc3>
     abe: 86 12        	stx	$12                     ; 0x12 <__rc2>
     ac0: 09 e0        	ora	#$e0
     ac2: 85 13        	sta	$13                     ; 0x13 <__rc3>
     ac4: b2 12        	lda	($12)                   ; 0x12 <__rc2>
     ac6: 85 1a        	sta	$1a                     ; 0x1a <__rc10>
     ac8: 84 0f        	sty	$f                      ; 0xf <__bss_size+0xe>
     aca: 58           	cli
     acb: 18           	clc
     acc: a5 19        	lda	$19                     ; 0x19 <__rc9>
     ace: 65 82        	adc	$82                     ; 0x82 <theOne.8>
     ad0: aa           	tax
     ad1: a5 18        	lda	$18                     ; 0x18 <__rc8>
     ad3: 65 83        	adc	$83                     ; 0x83 <theOne.8+0x1>
     ad5: a8           	tay
     ad6: 18           	clc
     ad7: 8a           	txa
     ad8: 69 08        	adc	#$8
     ada: 85 12        	sta	$12                     ; 0x12 <__rc2>
     adc: 98           	tya
     add: 69 00        	adc	#$0
     adf: 85 13        	sta	$13                     ; 0x13 <__rc3>
     ae1: 86 14        	stx	$14                     ; 0x14 <__rc4>
     ae3: 84 15        	sty	$15                     ; 0x15 <__rc5>
     ae5: 18           	clc
     ae6: 8a           	txa
     ae7: 69 04        	adc	#$4
     ae9: 85 16        	sta	$16                     ; 0x16 <__rc6>
     aeb: 98           	tya
     aec: 69 00        	adc	#$0
     aee: 85 17        	sta	$17                     ; 0x17 <__rc7>
     af0: a4 1b        	ldy	$1b                     ; 0x1b <__rc11>
     af2: b1 14        	lda	($14),y                 ; 0x14 <__rc4>
     af4: 85 1e        	sta	$1e                     ; 0x1e <__rc14>
     af6: a4 1c        	ldy	$1c                     ; 0x1c <__rc12>
     af8: b1 16        	lda	($16),y                 ; 0x16 <__rc6>
     afa: 85 23        	sta	$23                     ; 0x23 <__rc19>
     afc: a4 1d        	ldy	$1d                     ; 0x1d <__rc13>
     afe: b1 16        	lda	($16),y                 ; 0x16 <__rc6>
     b00: 85 1f        	sta	$1f                     ; 0x1f <__rc15>
     b02: a0 03        	ldy	#$3
     b04: b1 16        	lda	($16),y                 ; 0x16 <__rc6>
     b06: 85 16        	sta	$16                     ; 0x16 <__rc6>
     b08: a2 03        	ldx	#$3
     b0a: 86 17        	stx	$17                     ; 0x17 <__rc7>
     b0c: 18           	clc
     b0d: a4 22        	ldy	$22                     ; 0x22 <__rc18>
     b0f: a5 1e        	lda	$1e                     ; 0x1e <__rc14>
     b11: 71 14        	adc	($14),y                 ; 0x14 <__rc4>
     b13: 85 14        	sta	$14                     ; 0x14 <__rc4>
     b15: a4 1c        	ldy	$1c                     ; 0x1c <__rc12>
     b17: a5 23        	lda	$23                     ; 0x23 <__rc19>
     b19: 71 12        	adc	($12),y                 ; 0x12 <__rc2>
     b1b: 85 15        	sta	$15                     ; 0x15 <__rc5>
     b1d: a4 1d        	ldy	$1d                     ; 0x1d <__rc13>
     b1f: a5 1f        	lda	$1f                     ; 0x1f <__rc15>
     b21: 71 12        	adc	($12),y                 ; 0x12 <__rc2>
     b23: aa           	tax
     b24: a5 16        	lda	$16                     ; 0x16 <__rc6>
     b26: a4 17        	ldy	$17                     ; 0x17 <__rc7>
     b28: 84 1e        	sty	$1e                     ; 0x1e <__rc14>
     b2a: a4 17        	ldy	$17                     ; 0x17 <__rc7>
     b2c: 71 12        	adc	($12),y                 ; 0x12 <__rc2>
     b2e: a8           	tay
     b2f: a5 15        	lda	$15                     ; 0x15 <__rc5>
     b31: e6 14        	inc	$14                     ; 0x14 <__rc4>
     b33: d0 07        	bne	$b3c <readMIDICmd+0x149>
     b35: 1a           	inc
     b36: d0 04        	bne	$b3c <readMIDICmd+0x149>
     b38: e8           	inx
     b39: d0 01        	bne	$b3c <readMIDICmd+0x149>
     b3b: c8           	iny
     b3c: 85 12        	sta	$12                     ; 0x12 <__rc2>
     b3e: 06 12        	asl	$12                     ; 0x12 <__rc2>
     b40: 86 13        	stx	$13                     ; 0x13 <__rc3>
     b42: 26 13        	rol	$13                     ; 0x13 <__rc3>
     b44: 06 12        	asl	$12                     ; 0x12 <__rc2>
     b46: 26 13        	rol	$13                     ; 0x13 <__rc3>
     b48: 06 12        	asl	$12                     ; 0x12 <__rc2>
     b4a: 26 13        	rol	$13                     ; 0x13 <__rc3>
     b4c: a4 13        	ldy	$13                     ; 0x13 <__rc3>
     b4e: a6 0f        	ldx	$f                      ; 0xf <__bss_size+0xe>
     b50: 78           	sei
     b51: 84 0f        	sty	$f                      ; 0xf <__bss_size+0xe>
     b53: a4 14        	ldy	$14                     ; 0x14 <__rc4>
     b55: 84 12        	sty	$12                     ; 0x12 <__rc2>
     b57: 09 e0        	ora	#$e0
     b59: 85 13        	sta	$13                     ; 0x13 <__rc3>
     b5b: b2 12        	lda	($12)                   ; 0x12 <__rc2>
     b5d: 85 1f        	sta	$1f                     ; 0x1f <__rc15>
     b5f: 86 0f        	stx	$f                      ; 0xf <__bss_size+0xe>
     b61: 58           	cli
     b62: 18           	clc
     b63: a5 19        	lda	$19                     ; 0x19 <__rc9>
     b65: 65 82        	adc	$82                     ; 0x82 <theOne.8>
     b67: aa           	tax
     b68: a5 18        	lda	$18                     ; 0x18 <__rc8>
     b6a: 65 83        	adc	$83                     ; 0x83 <theOne.8+0x1>
     b6c: a8           	tay
     b6d: 18           	clc
     b6e: 8a           	txa
     b6f: 69 08        	adc	#$8
     b71: 85 12        	sta	$12                     ; 0x12 <__rc2>
     b73: 98           	tya
     b74: 69 00        	adc	#$0
     b76: 85 13        	sta	$13                     ; 0x13 <__rc3>
     b78: 86 14        	stx	$14                     ; 0x14 <__rc4>
     b7a: 84 15        	sty	$15                     ; 0x15 <__rc5>
     b7c: 18           	clc
     b7d: 8a           	txa
     b7e: 69 04        	adc	#$4
     b80: 85 16        	sta	$16                     ; 0x16 <__rc6>
     b82: 98           	tya
     b83: 69 00        	adc	#$0
     b85: 85 17        	sta	$17                     ; 0x17 <__rc7>
     b87: a4 1b        	ldy	$1b                     ; 0x1b <__rc11>
     b89: b1 14        	lda	($14),y                 ; 0x14 <__rc4>
     b8b: 85 1b        	sta	$1b                     ; 0x1b <__rc11>
     b8d: 84 23        	sty	$23                     ; 0x23 <__rc19>
     b8f: a4 1c        	ldy	$1c                     ; 0x1c <__rc12>
     b91: b1 16        	lda	($16),y                 ; 0x16 <__rc6>
     b93: 84 25        	sty	$25                     ; 0x25 <__rc21>
     b95: 85 1c        	sta	$1c                     ; 0x1c <__rc12>
     b97: a4 1d        	ldy	$1d                     ; 0x1d <__rc13>
     b99: b1 16        	lda	($16),y                 ; 0x16 <__rc6>
     b9b: 84 17        	sty	$17                     ; 0x17 <__rc7>
     b9d: 85 16        	sta	$16                     ; 0x16 <__rc6>
     b9f: 18           	clc
     ba0: a4 22        	ldy	$22                     ; 0x22 <__rc18>
     ba2: a5 1b        	lda	$1b                     ; 0x1b <__rc11>
     ba4: 71 14        	adc	($14),y                 ; 0x14 <__rc4>
     ba6: 85 14        	sta	$14                     ; 0x14 <__rc4>
     ba8: a5 1c        	lda	$1c                     ; 0x1c <__rc12>
     baa: a4 25        	ldy	$25                     ; 0x25 <__rc21>
     bac: 71 12        	adc	($12),y                 ; 0x12 <__rc2>
     bae: 85 15        	sta	$15                     ; 0x15 <__rc5>
     bb0: a5 16        	lda	$16                     ; 0x16 <__rc6>
     bb2: a4 17        	ldy	$17                     ; 0x17 <__rc7>
     bb4: 71 12        	adc	($12),y                 ; 0x12 <__rc2>
     bb6: 85 12        	sta	$12                     ; 0x12 <__rc2>
     bb8: 84 1c        	sty	$1c                     ; 0x1c <__rc12>
     bba: 18           	clc
     bbb: a5 14        	lda	$14                     ; 0x14 <__rc4>
     bbd: 69 02        	adc	#$2
     bbf: 85 14        	sta	$14                     ; 0x14 <__rc4>
     bc1: a5 15        	lda	$15                     ; 0x15 <__rc5>
     bc3: 69 00        	adc	#$0
     bc5: aa           	tax
     bc6: a5 12        	lda	$12                     ; 0x12 <__rc2>
     bc8: 69 00        	adc	#$0
     bca: 85 13        	sta	$13                     ; 0x13 <__rc3>
     bcc: 8a           	txa
     bcd: 86 12        	stx	$12                     ; 0x12 <__rc2>
     bcf: 06 12        	asl	$12                     ; 0x12 <__rc2>
     bd1: 26 13        	rol	$13                     ; 0x13 <__rc3>
     bd3: 06 12        	asl	$12                     ; 0x12 <__rc2>
     bd5: 26 13        	rol	$13                     ; 0x13 <__rc3>
     bd7: 06 12        	asl	$12                     ; 0x12 <__rc2>
     bd9: 26 13        	rol	$13                     ; 0x13 <__rc3>
     bdb: a4 13        	ldy	$13                     ; 0x13 <__rc3>
     bdd: a6 0f        	ldx	$f                      ; 0xf <__bss_size+0xe>
     bdf: 78           	sei
     be0: 84 0f        	sty	$f                      ; 0xf <__bss_size+0xe>
     be2: a4 14        	ldy	$14                     ; 0x14 <__rc4>
     be4: 84 12        	sty	$12                     ; 0x12 <__rc2>
     be6: 09 e0        	ora	#$e0
     be8: 85 13        	sta	$13                     ; 0x13 <__rc3>
     bea: b2 12        	lda	($12)                   ; 0x12 <__rc2>
     bec: 85 1b        	sta	$1b                     ; 0x1b <__rc11>
     bee: 86 0f        	stx	$f                      ; 0xf <__bss_size+0xe>
     bf0: 58           	cli
     bf1: 18           	clc
     bf2: a5 19        	lda	$19                     ; 0x19 <__rc9>
     bf4: 65 82        	adc	$82                     ; 0x82 <theOne.8>
     bf6: aa           	tax
     bf7: a5 18        	lda	$18                     ; 0x18 <__rc8>
     bf9: 65 83        	adc	$83                     ; 0x83 <theOne.8+0x1>
     bfb: a8           	tay
     bfc: 18           	clc
     bfd: 8a           	txa
     bfe: 69 08        	adc	#$8
     c00: 85 12        	sta	$12                     ; 0x12 <__rc2>
     c02: 98           	tya
     c03: 69 00        	adc	#$0
     c05: 85 13        	sta	$13                     ; 0x13 <__rc3>
     c07: 86 14        	stx	$14                     ; 0x14 <__rc4>
     c09: 84 15        	sty	$15                     ; 0x15 <__rc5>
     c0b: 18           	clc
     c0c: 8a           	txa
     c0d: 69 04        	adc	#$4
     c0f: 85 16        	sta	$16                     ; 0x16 <__rc6>
     c11: 98           	tya
     c12: 69 00        	adc	#$0
     c14: 85 17        	sta	$17                     ; 0x17 <__rc7>
     c16: a4 23        	ldy	$23                     ; 0x23 <__rc19>
     c18: b1 14        	lda	($14),y                 ; 0x14 <__rc4>
     c1a: 85 23        	sta	$23                     ; 0x23 <__rc19>
     c1c: 84 1d        	sty	$1d                     ; 0x1d <__rc13>
     c1e: a4 25        	ldy	$25                     ; 0x25 <__rc21>
     c20: b1 16        	lda	($16),y                 ; 0x16 <__rc6>
     c22: aa           	tax
     c23: a4 1c        	ldy	$1c                     ; 0x1c <__rc12>
     c25: b1 16        	lda	($16),y                 ; 0x16 <__rc6>
     c27: 84 17        	sty	$17                     ; 0x17 <__rc7>
     c29: 85 16        	sta	$16                     ; 0x16 <__rc6>
     c2b: 18           	clc
     c2c: a4 22        	ldy	$22                     ; 0x22 <__rc18>
     c2e: a5 23        	lda	$23                     ; 0x23 <__rc19>
     c30: 71 14        	adc	($14),y                 ; 0x14 <__rc4>
     c32: 85 14        	sta	$14                     ; 0x14 <__rc4>
     c34: 8a           	txa
     c35: a4 25        	ldy	$25                     ; 0x25 <__rc21>
     c37: 71 12        	adc	($12),y                 ; 0x12 <__rc2>
     c39: 85 15        	sta	$15                     ; 0x15 <__rc5>
     c3b: a4 17        	ldy	$17                     ; 0x17 <__rc7>
     c3d: a5 16        	lda	$16                     ; 0x16 <__rc6>
     c3f: 71 12        	adc	($12),y                 ; 0x12 <__rc2>
     c41: 85 12        	sta	$12                     ; 0x12 <__rc2>
     c43: 84 23        	sty	$23                     ; 0x23 <__rc19>
     c45: 18           	clc
     c46: a5 14        	lda	$14                     ; 0x14 <__rc4>
     c48: 69 03        	adc	#$3
     c4a: 85 14        	sta	$14                     ; 0x14 <__rc4>
     c4c: a5 15        	lda	$15                     ; 0x15 <__rc5>
     c4e: 69 00        	adc	#$0
     c50: aa           	tax
     c51: a5 12        	lda	$12                     ; 0x12 <__rc2>
     c53: 69 00        	adc	#$0
     c55: 85 13        	sta	$13                     ; 0x13 <__rc3>
     c57: 8a           	txa
     c58: 86 12        	stx	$12                     ; 0x12 <__rc2>
     c5a: 06 12        	asl	$12                     ; 0x12 <__rc2>
     c5c: 26 13        	rol	$13                     ; 0x13 <__rc3>
     c5e: 06 12        	asl	$12                     ; 0x12 <__rc2>
     c60: 26 13        	rol	$13                     ; 0x13 <__rc3>
     c62: 06 12        	asl	$12                     ; 0x12 <__rc2>
     c64: 26 13        	rol	$13                     ; 0x13 <__rc3>
     c66: a4 13        	ldy	$13                     ; 0x13 <__rc3>
     c68: a6 0f        	ldx	$f                      ; 0xf <__bss_size+0xe>
     c6a: 78           	sei
     c6b: 84 0f        	sty	$f                      ; 0xf <__bss_size+0xe>
     c6d: a4 14        	ldy	$14                     ; 0x14 <__rc4>
     c6f: 84 12        	sty	$12                     ; 0x12 <__rc2>
     c71: 09 e0        	ora	#$e0
     c73: 85 13        	sta	$13                     ; 0x13 <__rc3>
     c75: b2 12        	lda	($12)                   ; 0x12 <__rc2>
     c77: 85 1c        	sta	$1c                     ; 0x1c <__rc12>
     c79: 86 0f        	stx	$f                      ; 0xf <__bss_size+0xe>
     c7b: 58           	cli
     c7c: 18           	clc
     c7d: a5 19        	lda	$19                     ; 0x19 <__rc9>
     c7f: 65 82        	adc	$82                     ; 0x82 <theOne.8>
     c81: aa           	tax
     c82: a5 18        	lda	$18                     ; 0x18 <__rc8>
     c84: 65 83        	adc	$83                     ; 0x83 <theOne.8+0x1>
     c86: a8           	tay
     c87: 8a           	txa
     c88: 18           	clc
     c89: 69 08        	adc	#$8
     c8b: 85 12        	sta	$12                     ; 0x12 <__rc2>
     c8d: 98           	tya
     c8e: 69 00        	adc	#$0
     c90: 85 13        	sta	$13                     ; 0x13 <__rc3>
     c92: 86 14        	stx	$14                     ; 0x14 <__rc4>
     c94: 84 15        	sty	$15                     ; 0x15 <__rc5>
     c96: 18           	clc
     c97: 8a           	txa
     c98: 69 04        	adc	#$4
     c9a: 85 16        	sta	$16                     ; 0x16 <__rc6>
     c9c: 98           	tya
     c9d: 69 00        	adc	#$0
     c9f: 85 17        	sta	$17                     ; 0x17 <__rc7>
     ca1: a4 1d        	ldy	$1d                     ; 0x1d <__rc13>
     ca3: b1 14        	lda	($14),y                 ; 0x14 <__rc4>
     ca5: 85 26        	sta	$26                     ; 0x26 <__rc22>
     ca7: a4 25        	ldy	$25                     ; 0x25 <__rc21>
     ca9: b1 16        	lda	($16),y                 ; 0x16 <__rc6>
     cab: 85 25        	sta	$25                     ; 0x25 <__rc21>
     cad: 5a           	phy
     cae: fa           	plx
     caf: a4 23        	ldy	$23                     ; 0x23 <__rc19>
     cb1: b1 16        	lda	($16),y                 ; 0x16 <__rc6>
     cb3: 84 27        	sty	$27                     ; 0x27 <__rc23>
     cb5: 85 16        	sta	$16                     ; 0x16 <__rc6>
     cb7: 18           	clc
     cb8: a4 22        	ldy	$22                     ; 0x22 <__rc18>
     cba: a5 26        	lda	$26                     ; 0x26 <__rc22>
     cbc: 71 14        	adc	($14),y                 ; 0x14 <__rc4>
     cbe: 85 14        	sta	$14                     ; 0x14 <__rc4>
     cc0: 84 17        	sty	$17                     ; 0x17 <__rc7>
     cc2: da           	phx
     cc3: 7a           	ply
     cc4: a5 25        	lda	$25                     ; 0x25 <__rc21>
     cc6: 71 12        	adc	($12),y                 ; 0x12 <__rc2>
     cc8: 85 15        	sta	$15                     ; 0x15 <__rc5>
     cca: 86 23        	stx	$23                     ; 0x23 <__rc19>
     ccc: a4 27        	ldy	$27                     ; 0x27 <__rc23>
     cce: a5 16        	lda	$16                     ; 0x16 <__rc6>
     cd0: 71 12        	adc	($12),y                 ; 0x12 <__rc2>
     cd2: 85 12        	sta	$12                     ; 0x12 <__rc2>
     cd4: 84 16        	sty	$16                     ; 0x16 <__rc6>
     cd6: 18           	clc
     cd7: a5 14        	lda	$14                     ; 0x14 <__rc4>
     cd9: 69 04        	adc	#$4
     cdb: 85 14        	sta	$14                     ; 0x14 <__rc4>
     cdd: a5 15        	lda	$15                     ; 0x15 <__rc5>
     cdf: 69 00        	adc	#$0
     ce1: aa           	tax
     ce2: a5 12        	lda	$12                     ; 0x12 <__rc2>
     ce4: 69 00        	adc	#$0
     ce6: 85 13        	sta	$13                     ; 0x13 <__rc3>
     ce8: 8a           	txa
     ce9: 86 12        	stx	$12                     ; 0x12 <__rc2>
     ceb: 06 12        	asl	$12                     ; 0x12 <__rc2>
     ced: 26 13        	rol	$13                     ; 0x13 <__rc3>
     cef: 06 12        	asl	$12                     ; 0x12 <__rc2>
     cf1: 26 13        	rol	$13                     ; 0x13 <__rc3>
     cf3: 06 12        	asl	$12                     ; 0x12 <__rc2>
     cf5: 26 13        	rol	$13                     ; 0x13 <__rc3>
     cf7: a4 13        	ldy	$13                     ; 0x13 <__rc3>
     cf9: a6 0f        	ldx	$f                      ; 0xf <__bss_size+0xe>
     cfb: 78           	sei
     cfc: 84 0f        	sty	$f                      ; 0xf <__bss_size+0xe>
     cfe: a4 14        	ldy	$14                     ; 0x14 <__rc4>
     d00: 84 12        	sty	$12                     ; 0x12 <__rc2>
     d02: 09 e0        	ora	#$e0
     d04: 85 13        	sta	$13                     ; 0x13 <__rc3>
     d06: b2 12        	lda	($12)                   ; 0x12 <__rc2>
     d08: 85 22        	sta	$22                     ; 0x22 <__rc18>
     d0a: 86 0f        	stx	$f                      ; 0xf <__bss_size+0xe>
     d0c: 58           	cli
     d0d: 18           	clc
     d0e: a5 19        	lda	$19                     ; 0x19 <__rc9>
     d10: 65 82        	adc	$82                     ; 0x82 <theOne.8>
     d12: aa           	tax
     d13: a5 18        	lda	$18                     ; 0x18 <__rc8>
     d15: 65 83        	adc	$83                     ; 0x83 <theOne.8+0x1>
     d17: 86 12        	stx	$12                     ; 0x12 <__rc2>
     d19: 85 13        	sta	$13                     ; 0x13 <__rc3>
     d1b: a8           	tay
     d1c: 86 25        	stx	$25                     ; 0x25 <__rc21>
     d1e: 18           	clc
     d1f: 8a           	txa
     d20: 69 04        	adc	#$4
     d22: 85 14        	sta	$14                     ; 0x14 <__rc4>
     d24: 98           	tya
     d25: 84 26        	sty	$26                     ; 0x26 <__rc22>
     d27: 69 00        	adc	#$0
     d29: 85 15        	sta	$15                     ; 0x15 <__rc5>
     d2b: a4 1d        	ldy	$1d                     ; 0x1d <__rc13>
     d2d: b1 12        	lda	($12),y                 ; 0x12 <__rc2>
     d2f: aa           	tax
     d30: a4 23        	ldy	$23                     ; 0x23 <__rc19>
     d32: b1 14        	lda	($14),y                 ; 0x14 <__rc4>
     d34: 84 28        	sty	$28                     ; 0x28 <__rc24>
     d36: 85 23        	sta	$23                     ; 0x23 <__rc19>
     d38: a4 16        	ldy	$16                     ; 0x16 <__rc6>
     d3a: b1 14        	lda	($14),y                 ; 0x14 <__rc4>
     d3c: 84 27        	sty	$27                     ; 0x27 <__rc23>
     d3e: 85 15        	sta	$15                     ; 0x15 <__rc5>
     d40: 18           	clc
     d41: a4 17        	ldy	$17                     ; 0x17 <__rc7>
     d43: 8a           	txa
     d44: 71 12        	adc	($12),y                 ; 0x12 <__rc2>
     d46: a2 01        	ldx	#$1
     d48: b0 02        	bcs	$d4c <readMIDICmd+0x359>
     d4a: a2 00        	ldx	#$0
     d4c: 85 14        	sta	$14                     ; 0x14 <__rc4>
     d4e: 18           	clc
     d4f: a5 25        	lda	$25                     ; 0x25 <__rc21>
     d51: 69 08        	adc	#$8
     d53: 85 12        	sta	$12                     ; 0x12 <__rc2>
     d55: a5 26        	lda	$26                     ; 0x26 <__rc22>
     d57: 69 00        	adc	#$0
     d59: 85 13        	sta	$13                     ; 0x13 <__rc3>
     d5b: a5 23        	lda	$23                     ; 0x23 <__rc19>
     d5d: a4 28        	ldy	$28                     ; 0x28 <__rc24>
     d5f: e0 01        	cpx	#$1
     d61: 71 12        	adc	($12),y                 ; 0x12 <__rc2>
     d63: 85 16        	sta	$16                     ; 0x16 <__rc6>
     d65: 84 25        	sty	$25                     ; 0x25 <__rc21>
     d67: a5 15        	lda	$15                     ; 0x15 <__rc5>
     d69: a4 27        	ldy	$27                     ; 0x27 <__rc23>
     d6b: 71 12        	adc	($12),y                 ; 0x12 <__rc2>
     d6d: 85 12        	sta	$12                     ; 0x12 <__rc2>
     d6f: 84 26        	sty	$26                     ; 0x26 <__rc22>
     d71: 18           	clc
     d72: a5 14        	lda	$14                     ; 0x14 <__rc4>
     d74: 69 05        	adc	#$5
     d76: 85 14        	sta	$14                     ; 0x14 <__rc4>
     d78: a5 16        	lda	$16                     ; 0x16 <__rc6>
     d7a: 69 00        	adc	#$0
     d7c: aa           	tax
     d7d: a5 12        	lda	$12                     ; 0x12 <__rc2>
     d7f: 69 00        	adc	#$0
     d81: 85 13        	sta	$13                     ; 0x13 <__rc3>
     d83: 8a           	txa
     d84: 86 12        	stx	$12                     ; 0x12 <__rc2>
     d86: 06 12        	asl	$12                     ; 0x12 <__rc2>
     d88: 26 13        	rol	$13                     ; 0x13 <__rc3>
     d8a: 06 12        	asl	$12                     ; 0x12 <__rc2>
     d8c: 26 13        	rol	$13                     ; 0x13 <__rc3>
     d8e: 06 12        	asl	$12                     ; 0x12 <__rc2>
     d90: 26 13        	rol	$13                     ; 0x13 <__rc3>
     d92: a4 13        	ldy	$13                     ; 0x13 <__rc3>
     d94: a6 0f        	ldx	$f                      ; 0xf <__bss_size+0xe>
     d96: 78           	sei
     d97: 84 0f        	sty	$f                      ; 0xf <__bss_size+0xe>
     d99: a4 14        	ldy	$14                     ; 0x14 <__rc4>
     d9b: 84 12        	sty	$12                     ; 0x12 <__rc2>
     d9d: 09 e0        	ora	#$e0
     d9f: 85 13        	sta	$13                     ; 0x13 <__rc3>
     da1: b2 12        	lda	($12)                   ; 0x12 <__rc2>
     da3: 85 23        	sta	$23                     ; 0x23 <__rc19>
     da5: 86 0f        	stx	$f                      ; 0xf <__bss_size+0xe>
     da7: 58           	cli
     da8: 18           	clc
     da9: a5 19        	lda	$19                     ; 0x19 <__rc9>
     dab: 65 82        	adc	$82                     ; 0x82 <theOne.8>
     dad: aa           	tax
     dae: a5 18        	lda	$18                     ; 0x18 <__rc8>
     db0: 65 83        	adc	$83                     ; 0x83 <theOne.8+0x1>
     db2: 85 13        	sta	$13                     ; 0x13 <__rc3>
     db4: 8a           	txa
     db5: 18           	clc
     db6: 69 04        	adc	#$4
     db8: 85 14        	sta	$14                     ; 0x14 <__rc4>
     dba: a5 13        	lda	$13                     ; 0x13 <__rc3>
     dbc: 69 00        	adc	#$0
     dbe: 85 15        	sta	$15                     ; 0x15 <__rc5>
     dc0: 86 17        	stx	$17                     ; 0x17 <__rc7>
     dc2: 86 12        	stx	$12                     ; 0x12 <__rc2>
     dc4: a6 13        	ldx	$13                     ; 0x13 <__rc3>
     dc6: 86 16        	stx	$16                     ; 0x16 <__rc6>
     dc8: a0 10        	ldy	#$10
     dca: a5 1a        	lda	$1a                     ; 0x1a <__rc10>
     dcc: 91 12        	sta	($12),y                 ; 0x12 <__rc2>
     dce: c8           	iny
     dcf: a5 1f        	lda	$1f                     ; 0x1f <__rc15>
     dd1: 85 18        	sta	$18                     ; 0x18 <__rc8>
     dd3: 91 12        	sta	($12),y                 ; 0x12 <__rc2>
     dd5: c8           	iny
     dd6: a5 1b        	lda	$1b                     ; 0x1b <__rc11>
     dd8: 85 19        	sta	$19                     ; 0x19 <__rc9>
     dda: 91 12        	sta	($12),y                 ; 0x12 <__rc2>
     ddc: a4 1d        	ldy	$1d                     ; 0x1d <__rc13>
     dde: b1 12        	lda	($12),y                 ; 0x12 <__rc2>
     de0: 85 1b        	sta	$1b                     ; 0x1b <__rc11>
     de2: 84 27        	sty	$27                     ; 0x27 <__rc23>
     de4: a4 25        	ldy	$25                     ; 0x25 <__rc21>
     de6: b1 14        	lda	($14),y                 ; 0x14 <__rc4>
     de8: 85 2a        	sta	$2a                     ; 0x2a <__rc26>
     dea: a4 26        	ldy	$26                     ; 0x26 <__rc22>
     dec: b1 14        	lda	($14),y                 ; 0x14 <__rc4>
     dee: 85 28        	sta	$28                     ; 0x28 <__rc24>
     df0: a6 1e        	ldx	$1e                     ; 0x1e <__rc14>
     df2: a4 1e        	ldy	$1e                     ; 0x1e <__rc14>
     df4: b1 14        	lda	($14),y                 ; 0x14 <__rc4>
     df6: a8           	tay
     df7: a5 1b        	lda	$1b                     ; 0x1b <__rc11>
     df9: 5a           	phy
     dfa: a4 2a        	ldy	$2a                     ; 0x2a <__rc26>
     dfc: 84 1f        	sty	$1f                     ; 0x1f <__rc15>
     dfe: a4 28        	ldy	$28                     ; 0x28 <__rc24>
     e00: 84 1e        	sty	$1e                     ; 0x1e <__rc14>
     e02: 7a           	ply
     e03: 84 1d        	sty	$1d                     ; 0x1d <__rc13>
     e05: 84 29        	sty	$29                     ; 0x29 <__rc25>
     e07: 1a           	inc
     e08: d0 0a        	bne	$e14 <readMIDICmd+0x421>
     e0a: e6 2a        	inc	$2a                     ; 0x2a <__rc26>
     e0c: d0 06        	bne	$e14 <readMIDICmd+0x421>
     e0e: e6 28        	inc	$28                     ; 0x28 <__rc24>
     e10: d0 02        	bne	$e14 <readMIDICmd+0x421>
     e12: e6 29        	inc	$29                     ; 0x29 <__rc25>
     e14: a4 27        	ldy	$27                     ; 0x27 <__rc23>
     e16: 85 27        	sta	$27                     ; 0x27 <__rc23>
     e18: 91 12        	sta	($12),y                 ; 0x12 <__rc2>
     e1a: a4 25        	ldy	$25                     ; 0x25 <__rc21>
     e1c: a5 2a        	lda	$2a                     ; 0x2a <__rc26>
     e1e: 85 25        	sta	$25                     ; 0x25 <__rc21>
     e20: 91 14        	sta	($14),y                 ; 0x14 <__rc4>
     e22: a4 26        	ldy	$26                     ; 0x26 <__rc22>
     e24: a5 28        	lda	$28                     ; 0x28 <__rc24>
     e26: 91 14        	sta	($14),y                 ; 0x14 <__rc4>
     e28: da           	phx
     e29: 7a           	ply
     e2a: a5 29        	lda	$29                     ; 0x29 <__rc25>
     e2c: 91 14        	sta	($14),y                 ; 0x14 <__rc4>
     e2e: a6 1a        	ldx	$1a                     ; 0x1a <__rc10>
     e30: 10 03        	bpl	$e35 <readMIDICmd+0x442>
     e32: 4c c2 0e     	jmp	$ec2 <readMIDICmd+0x4cf>
     e35: 8a           	txa
     e36: a0 11        	ldy	#$11
     e38: 91 12        	sta	($12),y                 ; 0x12 <__rc2>
     e3a: a5 18        	lda	$18                     ; 0x18 <__rc8>
     e3c: c8           	iny
     e3d: 91 12        	sta	($12),y                 ; 0x12 <__rc2>
     e3f: 85 25        	sta	$25                     ; 0x25 <__rc21>
     e41: a0 04        	ldy	#$4
     e43: a5 1b        	lda	$1b                     ; 0x1b <__rc11>
     e45: 91 12        	sta	($12),y                 ; 0x12 <__rc2>
     e47: a0 01        	ldy	#$1
     e49: a5 1f        	lda	$1f                     ; 0x1f <__rc15>
     e4b: 85 1a        	sta	$1a                     ; 0x1a <__rc10>
     e4d: 91 14        	sta	($14),y                 ; 0x14 <__rc4>
     e4f: a0 16        	ldy	#$16
     e51: b1 12        	lda	($12),y                 ; 0x12 <__rc2>
     e53: a0 10        	ldy	#$10
     e55: 91 12        	sta	($12),y                 ; 0x12 <__rc2>
     e57: 85 1f        	sta	$1f                     ; 0x1f <__rc15>
     e59: a0 02        	ldy	#$2
     e5b: a5 1e        	lda	$1e                     ; 0x1e <__rc14>
     e5d: 85 19        	sta	$19                     ; 0x19 <__rc9>
     e5f: 91 14        	sta	($14),y                 ; 0x14 <__rc4>
     e61: c8           	iny
     e62: a5 1d        	lda	$1d                     ; 0x1d <__rc13>
     e64: 85 18        	sta	$18                     ; 0x18 <__rc8>
     e66: 91 14        	sta	($14),y                 ; 0x14 <__rc4>
     e68: a4 25        	ldy	$25                     ; 0x25 <__rc21>
     e6a: 84 15        	sty	$15                     ; 0x15 <__rc5>
     e6c: 86 14        	stx	$14                     ; 0x14 <__rc4>
     e6e: a5 1f        	lda	$1f                     ; 0x1f <__rc15>
     e70: c9 ff        	cmp	#$ff
     e72: d0 03        	bne	$e77 <readMIDICmd+0x484>
     e74: 4c e0 0e     	jmp	$ee0 <readMIDICmd+0x4ed>
     e77: c9 c0        	cmp	#$c0
     e79: b0 03        	bcs	$e7e <readMIDICmd+0x48b>
     e7b: 4c 3b 0f     	jmp	$f3b <readMIDICmd+0x548>
     e7e: c9 e0        	cmp	#$e0
     e80: 90 03        	bcc	$e85 <readMIDICmd+0x492>
     e82: 4c 4c 0f     	jmp	$f4c <readMIDICmd+0x559>
     e85: e6 1b        	inc	$1b                     ; 0x1b <__rc11>
     e87: d0 0a        	bne	$e93 <readMIDICmd+0x4a0>
     e89: e6 1a        	inc	$1a                     ; 0x1a <__rc10>
     e8b: d0 06        	bne	$e93 <readMIDICmd+0x4a0>
     e8d: e6 19        	inc	$19                     ; 0x19 <__rc9>
     e8f: d0 02        	bne	$e93 <readMIDICmd+0x4a0>
     e91: e6 18        	inc	$18                     ; 0x18 <__rc8>
     e93: a0 04        	ldy	#$4
     e95: aa           	tax
     e96: a5 1b        	lda	$1b                     ; 0x1b <__rc11>
     e98: 91 12        	sta	($12),y                 ; 0x12 <__rc2>
     e9a: 18           	clc
     e9b: a5 17        	lda	$17                     ; 0x17 <__rc7>
     e9d: 69 04        	adc	#$4
     e9f: 85 14        	sta	$14                     ; 0x14 <__rc4>
     ea1: a5 16        	lda	$16                     ; 0x16 <__rc6>
     ea3: 69 00        	adc	#$0
     ea5: 85 15        	sta	$15                     ; 0x15 <__rc5>
     ea7: a0 01        	ldy	#$1
     ea9: a5 1a        	lda	$1a                     ; 0x1a <__rc10>
     eab: 91 14        	sta	($14),y                 ; 0x14 <__rc4>
     ead: c8           	iny
     eae: a5 19        	lda	$19                     ; 0x19 <__rc9>
     eb0: 91 14        	sta	($14),y                 ; 0x14 <__rc4>
     eb2: c8           	iny
     eb3: a5 18        	lda	$18                     ; 0x18 <__rc8>
     eb5: 91 14        	sta	($14),y                 ; 0x14 <__rc4>
     eb7: a0 17        	ldy	#$17
     eb9: a9 01        	lda	#$1
     ebb: 91 12        	sta	($12),y                 ; 0x12 <__rc2>
     ebd: 88           	dey
     ebe: 8a           	txa
     ebf: 4c 8c 0f     	jmp	$f8c <readMIDICmd+0x599>
     ec2: a4 19        	ldy	$19                     ; 0x19 <__rc9>
     ec4: 84 15        	sty	$15                     ; 0x15 <__rc5>
     ec6: a4 18        	ldy	$18                     ; 0x18 <__rc8>
     ec8: 84 14        	sty	$14                     ; 0x14 <__rc4>
     eca: a4 27        	ldy	$27                     ; 0x27 <__rc23>
     ecc: 84 1b        	sty	$1b                     ; 0x1b <__rc11>
     ece: a4 25        	ldy	$25                     ; 0x25 <__rc21>
     ed0: 84 1a        	sty	$1a                     ; 0x1a <__rc10>
     ed2: a4 28        	ldy	$28                     ; 0x28 <__rc24>
     ed4: 84 19        	sty	$19                     ; 0x19 <__rc9>
     ed6: 85 18        	sta	$18                     ; 0x18 <__rc8>
     ed8: 8a           	txa
     ed9: c9 ff        	cmp	#$ff
     edb: f0 03        	beq	$ee0 <readMIDICmd+0x4ed>
     edd: 4c 77 0e     	jmp	$e77 <readMIDICmd+0x484>
     ee0: a0 10        	ldy	#$10
     ee2: a9 ff        	lda	#$ff
     ee4: 91 12        	sta	($12),y                 ; 0x12 <__rc2>
     ee6: c8           	iny
     ee7: a5 14        	lda	$14                     ; 0x14 <__rc4>
     ee9: 91 12        	sta	($12),y                 ; 0x12 <__rc2>
     eeb: c8           	iny
     eec: a5 15        	lda	$15                     ; 0x15 <__rc5>
     eee: 91 12        	sta	($12),y                 ; 0x12 <__rc2>
     ef0: a5 14        	lda	$14                     ; 0x14 <__rc4>
     ef2: c9 51        	cmp	#$51
     ef4: d0 4a        	bne	$f40 <readMIDICmd+0x54d>
     ef6: a0 13        	ldy	#$13
     ef8: a5 1c        	lda	$1c                     ; 0x1c <__rc12>
     efa: 91 12        	sta	($12),y                 ; 0x12 <__rc2>
     efc: c8           	iny
     efd: a5 22        	lda	$22                     ; 0x22 <__rc18>
     eff: 91 12        	sta	($12),y                 ; 0x12 <__rc2>
     f01: c8           	iny
     f02: a5 23        	lda	$23                     ; 0x23 <__rc19>
     f04: 91 12        	sta	($12),y                 ; 0x12 <__rc2>
     f06: 18           	clc
     f07: a5 1b        	lda	$1b                     ; 0x1b <__rc11>
     f09: 69 05        	adc	#$5
     f0b: a2 01        	ldx	#$1
     f0d: b0 02        	bcs	$f11 <readMIDICmd+0x51e>
     f0f: a2 00        	ldx	#$0
     f11: a0 04        	ldy	#$4
     f13: 91 12        	sta	($12),y                 ; 0x12 <__rc2>
     f15: 18           	clc
     f16: a5 17        	lda	$17                     ; 0x17 <__rc7>
     f18: 69 04        	adc	#$4
     f1a: 85 12        	sta	$12                     ; 0x12 <__rc2>
     f1c: a5 16        	lda	$16                     ; 0x16 <__rc6>
     f1e: 69 00        	adc	#$0
     f20: 85 13        	sta	$13                     ; 0x13 <__rc3>
     f22: a5 1a        	lda	$1a                     ; 0x1a <__rc10>
     f24: e0 01        	cpx	#$1
     f26: 69 00        	adc	#$0
     f28: a0 01        	ldy	#$1
     f2a: 91 12        	sta	($12),y                 ; 0x12 <__rc2>
     f2c: a5 19        	lda	$19                     ; 0x19 <__rc9>
     f2e: 69 00        	adc	#$0
     f30: c8           	iny
     f31: 91 12        	sta	($12),y                 ; 0x12 <__rc2>
     f33: a5 18        	lda	$18                     ; 0x18 <__rc8>
     f35: 69 00        	adc	#$0
     f37: c8           	iny
     f38: 4c 8c 0f     	jmp	$f8c <readMIDICmd+0x599>
     f3b: aa           	tax
     f3c: 10 50        	bpl	$f8e <readMIDICmd+0x59b>
     f3e: 80 10        	bra	$f50 <readMIDICmd+0x55d>
     f40: a6 15        	ldx	$15                     ; 0x15 <__rc5>
     f42: 86 12        	stx	$12                     ; 0x12 <__rc2>
     f44: aa           	tax
     f45: a5 24        	lda	$24                     ; 0x24 <__rc20>
     f47: 20 b8 0f     	jsr	$fb8 <skipWhenFFCmd>
     f4a: 80 42        	bra	$f8e <readMIDICmd+0x59b>
     f4c: c9 f0        	cmp	#$f0
     f4e: b0 3e        	bcs	$f8e <readMIDICmd+0x59b>
     f50: a0 16        	ldy	#$16
     f52: 91 12        	sta	($12),y                 ; 0x12 <__rc2>
     f54: 18           	clc
     f55: a5 1b        	lda	$1b                     ; 0x1b <__rc11>
     f57: 69 02        	adc	#$2
     f59: a2 01        	ldx	#$1
     f5b: b0 02        	bcs	$f5f <readMIDICmd+0x56c>
     f5d: a2 00        	ldx	#$0
     f5f: a0 04        	ldy	#$4
     f61: 91 12        	sta	($12),y                 ; 0x12 <__rc2>
     f63: 18           	clc
     f64: a5 17        	lda	$17                     ; 0x17 <__rc7>
     f66: 69 04        	adc	#$4
     f68: 85 14        	sta	$14                     ; 0x14 <__rc4>
     f6a: a5 16        	lda	$16                     ; 0x16 <__rc6>
     f6c: 69 00        	adc	#$0
     f6e: 85 15        	sta	$15                     ; 0x15 <__rc5>
     f70: a5 1a        	lda	$1a                     ; 0x1a <__rc10>
     f72: e0 01        	cpx	#$1
     f74: 69 00        	adc	#$0
     f76: a0 01        	ldy	#$1
     f78: 91 14        	sta	($14),y                 ; 0x14 <__rc4>
     f7a: a5 19        	lda	$19                     ; 0x19 <__rc9>
     f7c: 69 00        	adc	#$0
     f7e: c8           	iny
     f7f: 91 14        	sta	($14),y                 ; 0x14 <__rc4>
     f81: a5 18        	lda	$18                     ; 0x18 <__rc8>
     f83: 69 00        	adc	#$0
     f85: c8           	iny
     f86: 91 14        	sta	($14),y                 ; 0x14 <__rc4>
     f88: a9 00        	lda	#$0
     f8a: a0 17        	ldy	#$17
     f8c: 91 12        	sta	($12),y                 ; 0x12 <__rc2>
     f8e: a0 00        	ldy	#$0
     f90: b1 10        	lda	($10),y                 ; 0x10 <__rc0>
     f92: 85 2a        	sta	$2a                     ; 0x2a <__rc26>
     f94: c8           	iny
     f95: b1 10        	lda	($10),y                 ; 0x10 <__rc0>
     f97: 85 29        	sta	$29                     ; 0x29 <__rc25>
     f99: c8           	iny
     f9a: b1 10        	lda	($10),y                 ; 0x10 <__rc0>
     f9c: 85 28        	sta	$28                     ; 0x28 <__rc24>
     f9e: fa           	plx
     f9f: 86 27        	stx	$27                     ; 0x27 <__rc23>
     fa1: fa           	plx
     fa2: 86 26        	stx	$26                     ; 0x26 <__rc22>
     fa4: fa           	plx
     fa5: 86 25        	stx	$25                     ; 0x25 <__rc21>
     fa7: fa           	plx
     fa8: 86 24        	stx	$24                     ; 0x24 <__rc20>
     faa: 18           	clc
     fab: a5 10        	lda	$10                     ; 0x10 <__rc0>
     fad: 69 03        	adc	#$3
     faf: 85 10        	sta	$10                     ; 0x10 <__rc0>
     fb1: a5 11        	lda	$11                     ; 0x11 <__rc1>
     fb3: 69 00        	adc	#$0
     fb5: 85 11        	sta	$11                     ; 0x11 <__rc1>
     fb7: 60           	rts

00000fb8 <skipWhenFFCmd>:
     fb8: a8           	tay
     fb9: 8a           	txa
     fba: a6 12        	ldx	$12                     ; 0x12 <__rc2>
     fbc: 86 89        	stx	$89                     ; 0x89 <__zp_bss_size+0x30>
     fbe: c9 5a        	cmp	#$5a
     fc0: 90 03        	bcc	$fc5 <skipWhenFFCmd+0xd>
     fc2: 4c cd 11     	jmp	$11cd <skipWhenFFCmd+0x215>
     fc5: 0a           	asl
     fc6: aa           	tax
     fc7: 7c fa 4d     	jmp	($4dfa,x)               ; 0x4dfa <__camera_size+0x13ec>
     fca: a6 82        	ldx	$82                     ; 0x82 <theOne.8>
     fcc: 86 8b        	stx	$8b                     ; 0x8b <__zp_bss_size+0x32>
     fce: a6 83        	ldx	$83                     ; 0x83 <theOne.8+0x1>
     fd0: 86 8a        	stx	$8a                     ; 0x8a <__zp_bss_size+0x31>
     fd2: a2 19        	ldx	#$19
     fd4: 86 12        	stx	$12                     ; 0x12 <__rc2>
     fd6: 64 13        	stz	$13                     ; 0x13 <__rc3>
     fd8: a2 00        	ldx	#$0
     fda: 98           	tya
     fdb: 20 58 4d     	jsr	$4d58 <__mulhi3>
     fde: 85 12        	sta	$12                     ; 0x12 <__rc2>
     fe0: 86 13        	stx	$13                     ; 0x13 <__rc3>
     fe2: 18           	clc
     fe3: a6 8b        	ldx	$8b                     ; 0x8b <__zp_bss_size+0x32>
     fe5: 8a           	txa
     fe6: 65 12        	adc	$12                     ; 0x12 <__rc2>
     fe8: a8           	tay
     fe9: a5 8a        	lda	$8a                     ; 0x8a <__zp_bss_size+0x31>
     feb: 65 13        	adc	$13                     ; 0x13 <__rc3>
     fed: aa           	tax
     fee: 98           	tya
     fef: 84 12        	sty	$12                     ; 0x12 <__rc2>
     ff1: 86 13        	stx	$13                     ; 0x13 <__rc3>
     ff3: 18           	clc
     ff4: 69 04        	adc	#$4
     ff6: 85 14        	sta	$14                     ; 0x14 <__rc4>
     ff8: 8a           	txa
     ff9: 69 00        	adc	#$0
     ffb: 85 15        	sta	$15                     ; 0x15 <__rc5>
     ffd: 18           	clc
     ffe: a6 89        	ldx	$89                     ; 0x89 <__zp_bss_size+0x30>
    1000: 8a           	txa
    1001: a0 04        	ldy	#$4
    1003: 71 12        	adc	($12),y                 ; 0x12 <__rc2>
    1005: 85 16        	sta	$16                     ; 0x16 <__rc6>
    1007: a2 04        	ldx	#$4
    1009: 86 17        	stx	$17                     ; 0x17 <__rc7>
    100b: a9 00        	lda	#$0
    100d: a0 01        	ldy	#$1
    100f: 71 14        	adc	($14),y                 ; 0x14 <__rc4>
    1011: 85 19        	sta	$19                     ; 0x19 <__rc9>
    1013: a2 01        	ldx	#$1
    1015: 86 18        	stx	$18                     ; 0x18 <__rc8>
    1017: c8           	iny
    1018: a9 00        	lda	#$0
    101a: 71 14        	adc	($14),y                 ; 0x14 <__rc4>
    101c: 85 1b        	sta	$1b                     ; 0x1b <__rc11>
    101e: e8           	inx
    101f: 86 1a        	stx	$1a                     ; 0x1a <__rc10>
    1021: c8           	iny
    1022: a9 00        	lda	#$0
    1024: 71 14        	adc	($14),y                 ; 0x14 <__rc4>
    1026: e8           	inx
    1027: 86 1c        	stx	$1c                     ; 0x1c <__rc12>
    1029: aa           	tax
    102a: 18           	clc
    102b: a5 16        	lda	$16                     ; 0x16 <__rc6>
    102d: 69 02        	adc	#$2
    102f: a4 17        	ldy	$17                     ; 0x17 <__rc7>
    1031: 91 12        	sta	($12),y                 ; 0x12 <__rc2>
    1033: a5 19        	lda	$19                     ; 0x19 <__rc9>
    1035: 69 00        	adc	#$0
    1037: a4 18        	ldy	$18                     ; 0x18 <__rc8>
    1039: 91 14        	sta	($14),y                 ; 0x14 <__rc4>
    103b: a5 1b        	lda	$1b                     ; 0x1b <__rc11>
    103d: 69 00        	adc	#$0
    103f: a4 1a        	ldy	$1a                     ; 0x1a <__rc10>
    1041: 91 14        	sta	($14),y                 ; 0x14 <__rc4>
    1043: 8a           	txa
    1044: 69 00        	adc	#$0
    1046: a4 1c        	ldy	$1c                     ; 0x1c <__rc12>
    1048: 91 14        	sta	($14),y                 ; 0x14 <__rc4>
    104a: 60           	rts
    104b: a6 82        	ldx	$82                     ; 0x82 <theOne.8>
    104d: 86 8a        	stx	$8a                     ; 0x8a <__zp_bss_size+0x31>
    104f: a6 83        	ldx	$83                     ; 0x83 <theOne.8+0x1>
    1051: 86 89        	stx	$89                     ; 0x89 <__zp_bss_size+0x30>
    1053: a2 19        	ldx	#$19
    1055: 86 12        	stx	$12                     ; 0x12 <__rc2>
    1057: 64 13        	stz	$13                     ; 0x13 <__rc3>
    1059: a2 00        	ldx	#$0
    105b: 98           	tya
    105c: 20 58 4d     	jsr	$4d58 <__mulhi3>
    105f: 85 12        	sta	$12                     ; 0x12 <__rc2>
    1061: 86 13        	stx	$13                     ; 0x13 <__rc3>
    1063: 18           	clc
    1064: a6 8a        	ldx	$8a                     ; 0x8a <__zp_bss_size+0x31>
    1066: 8a           	txa
    1067: 65 12        	adc	$12                     ; 0x12 <__rc2>
    1069: a8           	tay
    106a: a5 89        	lda	$89                     ; 0x89 <__zp_bss_size+0x30>
    106c: 65 13        	adc	$13                     ; 0x13 <__rc3>
    106e: aa           	tax
    106f: 98           	tya
    1070: 84 14        	sty	$14                     ; 0x14 <__rc4>
    1072: 86 15        	stx	$15                     ; 0x15 <__rc5>
    1074: 18           	clc
    1075: 69 04        	adc	#$4
    1077: 85 12        	sta	$12                     ; 0x12 <__rc2>
    1079: 8a           	txa
    107a: 69 00        	adc	#$0
    107c: a0 04        	ldy	#$4
    107e: 85 13        	sta	$13                     ; 0x13 <__rc3>
    1080: b1 14        	lda	($14),y                 ; 0x14 <__rc4>
    1082: 18           	clc
    1083: 69 03        	adc	#$3
    1085: 4c b5 11     	jmp	$11b5 <skipWhenFFCmd+0x1fd>
    1088: a6 82        	ldx	$82                     ; 0x82 <theOne.8>
    108a: 86 8a        	stx	$8a                     ; 0x8a <__zp_bss_size+0x31>
    108c: a6 83        	ldx	$83                     ; 0x83 <theOne.8+0x1>
    108e: 86 89        	stx	$89                     ; 0x89 <__zp_bss_size+0x30>
    1090: a2 19        	ldx	#$19
    1092: 86 12        	stx	$12                     ; 0x12 <__rc2>
    1094: 64 13        	stz	$13                     ; 0x13 <__rc3>
    1096: a2 00        	ldx	#$0
    1098: 98           	tya
    1099: 20 58 4d     	jsr	$4d58 <__mulhi3>
    109c: 85 12        	sta	$12                     ; 0x12 <__rc2>
    109e: 86 13        	stx	$13                     ; 0x13 <__rc3>
    10a0: 18           	clc
    10a1: a6 8a        	ldx	$8a                     ; 0x8a <__zp_bss_size+0x31>
    10a3: 8a           	txa
    10a4: 65 12        	adc	$12                     ; 0x12 <__rc2>
    10a6: a8           	tay
    10a7: a5 89        	lda	$89                     ; 0x89 <__zp_bss_size+0x30>
    10a9: 65 13        	adc	$13                     ; 0x13 <__rc3>
    10ab: aa           	tax
    10ac: 98           	tya
    10ad: 84 14        	sty	$14                     ; 0x14 <__rc4>
    10af: 86 15        	stx	$15                     ; 0x15 <__rc5>
    10b1: 18           	clc
    10b2: 69 04        	adc	#$4
    10b4: 85 12        	sta	$12                     ; 0x12 <__rc2>
    10b6: 8a           	txa
    10b7: 69 00        	adc	#$0
    10b9: a0 04        	ldy	#$4
    10bb: 85 13        	sta	$13                     ; 0x13 <__rc3>
    10bd: b1 14        	lda	($14),y                 ; 0x14 <__rc4>
    10bf: 18           	clc
    10c0: 69 07        	adc	#$7
    10c2: 4c b5 11     	jmp	$11b5 <skipWhenFFCmd+0x1fd>
    10c5: a6 82        	ldx	$82                     ; 0x82 <theOne.8>
    10c7: 86 8a        	stx	$8a                     ; 0x8a <__zp_bss_size+0x31>
    10c9: a6 83        	ldx	$83                     ; 0x83 <theOne.8+0x1>
    10cb: 86 89        	stx	$89                     ; 0x89 <__zp_bss_size+0x30>
    10cd: a2 19        	ldx	#$19
    10cf: 86 12        	stx	$12                     ; 0x12 <__rc2>
    10d1: 64 13        	stz	$13                     ; 0x13 <__rc3>
    10d3: a2 00        	ldx	#$0
    10d5: 98           	tya
    10d6: 20 58 4d     	jsr	$4d58 <__mulhi3>
    10d9: 85 12        	sta	$12                     ; 0x12 <__rc2>
    10db: 86 13        	stx	$13                     ; 0x13 <__rc3>
    10dd: 18           	clc
    10de: a6 8a        	ldx	$8a                     ; 0x8a <__zp_bss_size+0x31>
    10e0: 8a           	txa
    10e1: 65 12        	adc	$12                     ; 0x12 <__rc2>
    10e3: a8           	tay
    10e4: a5 89        	lda	$89                     ; 0x89 <__zp_bss_size+0x30>
    10e6: 65 13        	adc	$13                     ; 0x13 <__rc3>
    10e8: aa           	tax
    10e9: 98           	tya
    10ea: 84 14        	sty	$14                     ; 0x14 <__rc4>
    10ec: 86 15        	stx	$15                     ; 0x15 <__rc5>
    10ee: 18           	clc
    10ef: 69 04        	adc	#$4
    10f1: 85 12        	sta	$12                     ; 0x12 <__rc2>
    10f3: 8a           	txa
    10f4: 69 00        	adc	#$0
    10f6: a0 04        	ldy	#$4
    10f8: 85 13        	sta	$13                     ; 0x13 <__rc3>
    10fa: b1 14        	lda	($14),y                 ; 0x14 <__rc4>
    10fc: 18           	clc
    10fd: 69 05        	adc	#$5
    10ff: 4c b5 11     	jmp	$11b5 <skipWhenFFCmd+0x1fd>
    1102: a6 82        	ldx	$82                     ; 0x82 <theOne.8>
    1104: 86 8a        	stx	$8a                     ; 0x8a <__zp_bss_size+0x31>
    1106: a6 83        	ldx	$83                     ; 0x83 <theOne.8+0x1>
    1108: 86 89        	stx	$89                     ; 0x89 <__zp_bss_size+0x30>
    110a: a2 19        	ldx	#$19
    110c: 86 12        	stx	$12                     ; 0x12 <__rc2>
    110e: 64 13        	stz	$13                     ; 0x13 <__rc3>
    1110: a2 00        	ldx	#$0
    1112: 98           	tya
    1113: 20 58 4d     	jsr	$4d58 <__mulhi3>
    1116: 85 12        	sta	$12                     ; 0x12 <__rc2>
    1118: 86 13        	stx	$13                     ; 0x13 <__rc3>
    111a: 18           	clc
    111b: a6 8a        	ldx	$8a                     ; 0x8a <__zp_bss_size+0x31>
    111d: 8a           	txa
    111e: 65 12        	adc	$12                     ; 0x12 <__rc2>
    1120: a8           	tay
    1121: a5 89        	lda	$89                     ; 0x89 <__zp_bss_size+0x30>
    1123: 65 13        	adc	$13                     ; 0x13 <__rc3>
    1125: aa           	tax
    1126: 98           	tya
    1127: 84 14        	sty	$14                     ; 0x14 <__rc4>
    1129: 86 15        	stx	$15                     ; 0x15 <__rc5>
    112b: 18           	clc
    112c: 69 04        	adc	#$4
    112e: 85 12        	sta	$12                     ; 0x12 <__rc2>
    1130: 8a           	txa
    1131: 69 00        	adc	#$0
    1133: a0 04        	ldy	#$4
    1135: 85 13        	sta	$13                     ; 0x13 <__rc3>
    1137: b1 14        	lda	($14),y                 ; 0x14 <__rc4>
    1139: 18           	clc
    113a: 69 04        	adc	#$4
    113c: 4c b5 11     	jmp	$11b5 <skipWhenFFCmd+0x1fd>
    113f: a6 82        	ldx	$82                     ; 0x82 <theOne.8>
    1141: 86 8a        	stx	$8a                     ; 0x8a <__zp_bss_size+0x31>
    1143: a6 83        	ldx	$83                     ; 0x83 <theOne.8+0x1>
    1145: 86 89        	stx	$89                     ; 0x89 <__zp_bss_size+0x30>
    1147: a2 19        	ldx	#$19
    1149: 86 12        	stx	$12                     ; 0x12 <__rc2>
    114b: 64 13        	stz	$13                     ; 0x13 <__rc3>
    114d: a2 00        	ldx	#$0
    114f: 98           	tya
    1150: 20 58 4d     	jsr	$4d58 <__mulhi3>
    1153: 85 12        	sta	$12                     ; 0x12 <__rc2>
    1155: 86 13        	stx	$13                     ; 0x13 <__rc3>
    1157: 18           	clc
    1158: a6 8a        	ldx	$8a                     ; 0x8a <__zp_bss_size+0x31>
    115a: 8a           	txa
    115b: 65 12        	adc	$12                     ; 0x12 <__rc2>
    115d: a8           	tay
    115e: a5 89        	lda	$89                     ; 0x89 <__zp_bss_size+0x30>
    1160: 65 13        	adc	$13                     ; 0x13 <__rc3>
    1162: aa           	tax
    1163: 98           	tya
    1164: 84 14        	sty	$14                     ; 0x14 <__rc4>
    1166: 86 15        	stx	$15                     ; 0x15 <__rc5>
    1168: 18           	clc
    1169: 69 04        	adc	#$4
    116b: 85 12        	sta	$12                     ; 0x12 <__rc2>
    116d: 8a           	txa
    116e: 69 00        	adc	#$0
    1170: a0 04        	ldy	#$4
    1172: 85 13        	sta	$13                     ; 0x13 <__rc3>
    1174: b1 14        	lda	($14),y                 ; 0x14 <__rc4>
    1176: 18           	clc
    1177: 69 02        	adc	#$2
    1179: 80 3a        	bra	$11b5 <skipWhenFFCmd+0x1fd>
    117b: a6 82        	ldx	$82                     ; 0x82 <theOne.8>
    117d: 86 8a        	stx	$8a                     ; 0x8a <__zp_bss_size+0x31>
    117f: a6 83        	ldx	$83                     ; 0x83 <theOne.8+0x1>
    1181: 86 89        	stx	$89                     ; 0x89 <__zp_bss_size+0x30>
    1183: a2 19        	ldx	#$19
    1185: 86 12        	stx	$12                     ; 0x12 <__rc2>
    1187: 64 13        	stz	$13                     ; 0x13 <__rc3>
    1189: a2 00        	ldx	#$0
    118b: 98           	tya
    118c: 20 58 4d     	jsr	$4d58 <__mulhi3>
    118f: 85 12        	sta	$12                     ; 0x12 <__rc2>
    1191: 86 13        	stx	$13                     ; 0x13 <__rc3>
    1193: 18           	clc
    1194: a6 8a        	ldx	$8a                     ; 0x8a <__zp_bss_size+0x31>
    1196: 8a           	txa
    1197: 65 12        	adc	$12                     ; 0x12 <__rc2>
    1199: a8           	tay
    119a: a5 89        	lda	$89                     ; 0x89 <__zp_bss_size+0x30>
    119c: 65 13        	adc	$13                     ; 0x13 <__rc3>
    119e: aa           	tax
    119f: 98           	tya
    11a0: 84 14        	sty	$14                     ; 0x14 <__rc4>
    11a2: 86 15        	stx	$15                     ; 0x15 <__rc5>
    11a4: 18           	clc
    11a5: 69 04        	adc	#$4
    11a7: 85 12        	sta	$12                     ; 0x12 <__rc2>
    11a9: 8a           	txa
    11aa: 69 00        	adc	#$0
    11ac: a0 04        	ldy	#$4
    11ae: 85 13        	sta	$13                     ; 0x13 <__rc3>
    11b0: b1 14        	lda	($14),y                 ; 0x14 <__rc4>
    11b2: 18           	clc
    11b3: 69 06        	adc	#$6
    11b5: 91 14        	sta	($14),y                 ; 0x14 <__rc4>
    11b7: a0 01        	ldy	#$1
    11b9: b1 12        	lda	($12),y                 ; 0x12 <__rc2>
    11bb: 69 00        	adc	#$0
    11bd: 91 12        	sta	($12),y                 ; 0x12 <__rc2>
    11bf: c8           	iny
    11c0: b1 12        	lda	($12),y                 ; 0x12 <__rc2>
    11c2: 69 00        	adc	#$0
    11c4: 91 12        	sta	($12),y                 ; 0x12 <__rc2>
    11c6: c8           	iny
    11c7: b1 12        	lda	($12),y                 ; 0x12 <__rc2>
    11c9: 69 00        	adc	#$0
    11cb: 91 12        	sta	($12),y                 ; 0x12 <__rc2>
    11cd: 60           	rts

000011ce <exhaustZeroes>:
    11ce: 48           	pha
    11cf: 18           	clc
    11d0: a5 10        	lda	$10                     ; 0x10 <__rc0>
    11d2: 69 f9        	adc	#$f9
    11d4: 85 10        	sta	$10                     ; 0x10 <__rc0>
    11d6: a5 11        	lda	$11                     ; 0x11 <__rc1>
    11d8: 69 ff        	adc	#$ff
    11da: 85 11        	sta	$11                     ; 0x11 <__rc1>
    11dc: 68           	pla
    11dd: a6 24        	ldx	$24                     ; 0x24 <__rc20>
    11df: da           	phx
    11e0: a6 25        	ldx	$25                     ; 0x25 <__rc21>
    11e2: da           	phx
    11e3: a6 26        	ldx	$26                     ; 0x26 <__rc22>
    11e5: da           	phx
    11e6: a6 27        	ldx	$27                     ; 0x27 <__rc23>
    11e8: da           	phx
    11e9: 48           	pha
    11ea: a5 28        	lda	$28                     ; 0x28 <__rc24>
    11ec: a0 01        	ldy	#$1
    11ee: 91 10        	sta	($10),y                 ; 0x10 <__rc0>
    11f0: a5 29        	lda	$29                     ; 0x29 <__rc25>
    11f2: 88           	dey
    11f3: 91 10        	sta	($10),y                 ; 0x10 <__rc0>
    11f5: 68           	pla
    11f6: 85 24        	sta	$24                     ; 0x24 <__rc20>
    11f8: a6 82        	ldx	$82                     ; 0x82 <theOne.8>
    11fa: 86 26        	stx	$26                     ; 0x26 <__rc22>
    11fc: a6 83        	ldx	$83                     ; 0x83 <theOne.8+0x1>
    11fe: 86 25        	stx	$25                     ; 0x25 <__rc21>
    1200: a2 19        	ldx	#$19
    1202: 86 12        	stx	$12                     ; 0x12 <__rc2>
    1204: 64 13        	stz	$13                     ; 0x13 <__rc3>
    1206: a2 00        	ldx	#$0
    1208: 20 58 4d     	jsr	$4d58 <__mulhi3>
    120b: 85 12        	sta	$12                     ; 0x12 <__rc2>
    120d: 86 13        	stx	$13                     ; 0x13 <__rc3>
    120f: 18           	clc
    1210: a5 26        	lda	$26                     ; 0x26 <__rc22>
    1212: 65 12        	adc	$12                     ; 0x12 <__rc2>
    1214: aa           	tax
    1215: a5 25        	lda	$25                     ; 0x25 <__rc21>
    1217: 65 13        	adc	$13                     ; 0x13 <__rc3>
    1219: 86 12        	stx	$12                     ; 0x12 <__rc2>
    121b: 85 15        	sta	$15                     ; 0x15 <__rc5>
    121d: 85 13        	sta	$13                     ; 0x13 <__rc3>
    121f: a0 18        	ldy	#$18
    1221: b1 12        	lda	($12),y                 ; 0x12 <__rc2>
    1223: f0 03        	beq	$1228 <exhaustZeroes+0x5a>
    1225: 4c d0 14     	jmp	$14d0 <exhaustZeroes+0x302>
    1228: a0 0c        	ldy	#$c
    122a: 18           	clc
    122b: 8a           	txa
    122c: 69 0c        	adc	#$c
    122e: 85 14        	sta	$14                     ; 0x14 <__rc4>
    1230: a5 15        	lda	$15                     ; 0x15 <__rc5>
    1232: 69 00        	adc	#$0
    1234: 85 15        	sta	$15                     ; 0x15 <__rc5>
    1236: b1 12        	lda	($12),y                 ; 0x12 <__rc2>
    1238: 85 12        	sta	$12                     ; 0x12 <__rc2>
    123a: a0 01        	ldy	#$1
    123c: b1 14        	lda	($14),y                 ; 0x14 <__rc4>
    123e: 85 13        	sta	$13                     ; 0x13 <__rc3>
    1240: c8           	iny
    1241: b1 14        	lda	($14),y                 ; 0x14 <__rc4>
    1243: 85 16        	sta	$16                     ; 0x16 <__rc6>
    1245: c8           	iny
    1246: b1 14        	lda	($14),y                 ; 0x14 <__rc4>
    1248: f0 03        	beq	$124d <exhaustZeroes+0x7f>
    124a: 4c d0 14     	jmp	$14d0 <exhaustZeroes+0x302>
    124d: a5 16        	lda	$16                     ; 0x16 <__rc6>
    124f: f0 03        	beq	$1254 <exhaustZeroes+0x86>
    1251: 4c d0 14     	jmp	$14d0 <exhaustZeroes+0x302>
    1254: a5 13        	lda	$13                     ; 0x13 <__rc3>
    1256: f0 03        	beq	$125b <exhaustZeroes+0x8d>
    1258: 4c d0 14     	jmp	$14d0 <exhaustZeroes+0x302>
    125b: a5 12        	lda	$12                     ; 0x12 <__rc2>
    125d: f0 03        	beq	$1262 <exhaustZeroes+0x94>
    125f: 4c d0 14     	jmp	$14d0 <exhaustZeroes+0x302>
    1262: a2 19        	ldx	#$19
    1264: 64 16        	stz	$16                     ; 0x16 <__rc6>
    1266: a0 00        	ldy	#$0
    1268: 84 28        	sty	$28                     ; 0x28 <__rc24>
    126a: 86 29        	stx	$29                     ; 0x29 <__rc25>
    126c: 86 12        	stx	$12                     ; 0x12 <__rc2>
    126e: 64 13        	stz	$13                     ; 0x13 <__rc3>
    1270: a2 00        	ldx	#$0
    1272: a5 24        	lda	$24                     ; 0x24 <__rc20>
    1274: 20 58 4d     	jsr	$4d58 <__mulhi3>
    1277: 86 12        	stx	$12                     ; 0x12 <__rc2>
    1279: a6 28        	ldx	$28                     ; 0x28 <__rc24>
    127b: e0 01        	cpx	#$1
    127d: 65 26        	adc	$26                     ; 0x26 <__rc22>
    127f: 85 14        	sta	$14                     ; 0x14 <__rc4>
    1281: a5 25        	lda	$25                     ; 0x25 <__rc21>
    1283: 65 12        	adc	$12                     ; 0x12 <__rc2>
    1285: 85 15        	sta	$15                     ; 0x15 <__rc5>
    1287: a0 10        	ldy	#$10
    1289: b1 14        	lda	($14),y                 ; 0x14 <__rc4>
    128b: aa           	tax
    128c: c8           	iny
    128d: b1 14        	lda	($14),y                 ; 0x14 <__rc4>
    128f: 85 13        	sta	$13                     ; 0x13 <__rc3>
    1291: e0 ff        	cpx	#$ff
    1293: f0 26        	beq	$12bb <exhaustZeroes+0xed>
    1295: a0 12        	ldy	#$12
    1297: b1 14        	lda	($14),y                 ; 0x14 <__rc4>
    1299: 85 16        	sta	$16                     ; 0x16 <__rc6>
    129b: a0 17        	ldy	#$17
    129d: b1 14        	lda	($14),y                 ; 0x14 <__rc4>
    129f: 85 14        	sta	$14                     ; 0x14 <__rc4>
    12a1: 8a           	txa
    12a2: a8           	tay
    12a3: 29 f0        	and	#$f0
    12a5: c9 90        	cmp	#$90
    12a7: f0 2b        	beq	$12d4 <exhaustZeroes+0x106>
    12a9: a6 29        	ldx	$29                     ; 0x29 <__rc25>
    12ab: 86 12        	stx	$12                     ; 0x12 <__rc2>
    12ad: c9 c0        	cmp	#$c0
    12af: d0 31        	bne	$12e2 <exhaustZeroes+0x114>
    12b1: 8c b1 dd     	sty	$ddb1                   ; 0xddb1 <__heap_start+0x8c99>
    12b4: a6 13        	ldx	$13                     ; 0x13 <__rc3>
    12b6: 8e b1 dd     	stx	$ddb1                   ; 0xddb1 <__heap_start+0x8c99>
    12b9: 80 27        	bra	$12e2 <exhaustZeroes+0x114>
    12bb: aa           	tax
    12bc: e0 51        	cpx	#$51
    12be: f0 39        	beq	$12f9 <exhaustZeroes+0x12b>
    12c0: a4 29        	ldy	$29                     ; 0x29 <__rc25>
    12c2: 84 12        	sty	$12                     ; 0x12 <__rc2>
    12c4: e0 2f        	cpx	#$2f
    12c6: f0 03        	beq	$12cb <exhaustZeroes+0xfd>
    12c8: 4c 6f 13     	jmp	$136f <exhaustZeroes+0x1a1>
    12cb: a9 01        	lda	#$1
    12cd: a0 18        	ldy	#$18
    12cf: 91 14        	sta	($14),y                 ; 0x14 <__rc4>
    12d1: 4c 6f 13     	jmp	$136f <exhaustZeroes+0x1a1>
    12d4: a5 30        	lda	$30                     ; 0x30 <doneWithFudge>
    12d6: 29 01        	and	#$1
    12d8: a6 29        	ldx	$29                     ; 0x29 <__rc25>
    12da: 86 12        	stx	$12                     ; 0x12 <__rc2>
    12dc: aa           	tax
    12dd: d0 03        	bne	$12e2 <exhaustZeroes+0x114>
    12df: 4c 65 13     	jmp	$1365 <exhaustZeroes+0x197>
    12e2: 8c a1 dd     	sty	$dda1                   ; 0xdda1 <__heap_start+0x8c89>
    12e5: a6 13        	ldx	$13                     ; 0x13 <__rc3>
    12e7: 8e a1 dd     	stx	$dda1                   ; 0xdda1 <__heap_start+0x8c89>
    12ea: a5 14        	lda	$14                     ; 0x14 <__rc4>
    12ec: f0 03        	beq	$12f1 <exhaustZeroes+0x123>
    12ee: 4c 6f 13     	jmp	$136f <exhaustZeroes+0x1a1>
    12f1: a6 16        	ldx	$16                     ; 0x16 <__rc6>
    12f3: 8e a1 dd     	stx	$dda1                   ; 0xdda1 <__heap_start+0x8c89>
    12f6: 4c 6f 13     	jmp	$136f <exhaustZeroes+0x1a1>
    12f9: a0 13        	ldy	#$13
    12fb: b1 14        	lda	($14),y                 ; 0x14 <__rc4>
    12fd: 85 12        	sta	$12                     ; 0x12 <__rc2>
    12ff: c8           	iny
    1300: b1 14        	lda	($14),y                 ; 0x14 <__rc4>
    1302: 85 19        	sta	$19                     ; 0x19 <__rc9>
    1304: c8           	iny
    1305: b1 14        	lda	($14),y                 ; 0x14 <__rc4>
    1307: a6 73        	ldx	$73                     ; 0x73 <theOne.1>
    1309: a4 74        	ldy	$74                     ; 0x74 <theOne.1+0x1>
    130b: 64 13        	stz	$13                     ; 0x13 <__rc3>
    130d: 86 14        	stx	$14                     ; 0x14 <__rc4>
    130f: 84 15        	sty	$15                     ; 0x15 <__rc5>
    1311: 64 16        	stz	$16                     ; 0x16 <__rc6>
    1313: 64 17        	stz	$17                     ; 0x17 <__rc7>
    1315: a6 19        	ldx	$19                     ; 0x19 <__rc9>
    1317: 20 f9 4b     	jsr	$4bf9 <__udivsi3>
    131a: 86 14        	stx	$14                     ; 0x14 <__rc4>
    131c: 0a           	asl
    131d: 26 14        	rol	$14                     ; 0x14 <__rc4>
    131f: 26 12        	rol	$12                     ; 0x12 <__rc2>
    1321: 26 13        	rol	$13                     ; 0x13 <__rc3>
    1323: 0a           	asl
    1324: 85 15        	sta	$15                     ; 0x15 <__rc5>
    1326: 26 14        	rol	$14                     ; 0x14 <__rc4>
    1328: 26 12        	rol	$12                     ; 0x12 <__rc2>
    132a: 26 13        	rol	$13                     ; 0x13 <__rc3>
    132c: 0a           	asl
    132d: aa           	tax
    132e: a5 14        	lda	$14                     ; 0x14 <__rc4>
    1330: 2a           	rol
    1331: a8           	tay
    1332: a5 12        	lda	$12                     ; 0x12 <__rc2>
    1334: 2a           	rol
    1335: 85 16        	sta	$16                     ; 0x16 <__rc6>
    1337: a5 13        	lda	$13                     ; 0x13 <__rc3>
    1339: 2a           	rol
    133a: 85 17        	sta	$17                     ; 0x17 <__rc7>
    133c: 18           	clc
    133d: 8a           	txa
    133e: 65 15        	adc	$15                     ; 0x15 <__rc5>
    1340: 85 15        	sta	$15                     ; 0x15 <__rc5>
    1342: 98           	tya
    1343: 65 14        	adc	$14                     ; 0x14 <__rc4>
    1345: 85 14        	sta	$14                     ; 0x14 <__rc4>
    1347: a5 16        	lda	$16                     ; 0x16 <__rc6>
    1349: 65 12        	adc	$12                     ; 0x12 <__rc2>
    134b: 85 12        	sta	$12                     ; 0x12 <__rc2>
    134d: a5 17        	lda	$17                     ; 0x17 <__rc7>
    134f: 65 13        	adc	$13                     ; 0x13 <__rc3>
    1351: a6 15        	ldx	$15                     ; 0x15 <__rc5>
    1353: 86 75        	stx	$75                     ; 0x75 <theOne.2>
    1355: a6 14        	ldx	$14                     ; 0x14 <__rc4>
    1357: 86 76        	stx	$76                     ; 0x76 <theOne.2+0x1>
    1359: a6 12        	ldx	$12                     ; 0x12 <__rc2>
    135b: 86 77        	stx	$77                     ; 0x77 <theOne.2+0x2>
    135d: 85 78        	sta	$78                     ; 0x78 <theOne.2+0x3>
    135f: a6 29        	ldx	$29                     ; 0x29 <__rc25>
    1361: 86 12        	stx	$12                     ; 0x12 <__rc2>
    1363: 80 0a        	bra	$136f <exhaustZeroes+0x1a1>
    1365: a6 31        	ldx	$31                     ; 0x31 <fudge>
    1367: e6 31        	inc	$31                     ; 0x31 <fudge>
    1369: 8a           	txa
    136a: f0 03        	beq	$136f <exhaustZeroes+0x1a1>
    136c: 4c f5 14     	jmp	$14f5 <exhaustZeroes+0x327>
    136f: a6 82        	ldx	$82                     ; 0x82 <theOne.8>
    1371: 86 26        	stx	$26                     ; 0x26 <__rc22>
    1373: a6 83        	ldx	$83                     ; 0x83 <theOne.8+0x1>
    1375: 86 25        	stx	$25                     ; 0x25 <__rc21>
    1377: 64 13        	stz	$13                     ; 0x13 <__rc3>
    1379: a2 00        	ldx	#$0
    137b: a5 24        	lda	$24                     ; 0x24 <__rc20>
    137d: 20 58 4d     	jsr	$4d58 <__mulhi3>
    1380: 85 12        	sta	$12                     ; 0x12 <__rc2>
    1382: 86 13        	stx	$13                     ; 0x13 <__rc3>
    1384: 18           	clc
    1385: a5 26        	lda	$26                     ; 0x26 <__rc22>
    1387: 65 12        	adc	$12                     ; 0x12 <__rc2>
    1389: a8           	tay
    138a: a5 25        	lda	$25                     ; 0x25 <__rc21>
    138c: 65 13        	adc	$13                     ; 0x13 <__rc3>
    138e: aa           	tax
    138f: 98           	tya
    1390: 84 12        	sty	$12                     ; 0x12 <__rc2>
    1392: 86 13        	stx	$13                     ; 0x13 <__rc3>
    1394: 18           	clc
    1395: 69 04        	adc	#$4
    1397: 85 14        	sta	$14                     ; 0x14 <__rc4>
    1399: 8a           	txa
    139a: 69 00        	adc	#$0
    139c: 85 15        	sta	$15                     ; 0x15 <__rc5>
    139e: a0 03        	ldy	#$3
    13a0: b1 14        	lda	($14),y                 ; 0x14 <__rc4>
    13a2: d1 12        	cmp	($12),y                 ; 0x12 <__rc2>
    13a4: d0 2d        	bne	$13d3 <exhaustZeroes+0x205>
    13a6: a0 02        	ldy	#$2
    13a8: b1 14        	lda	($14),y                 ; 0x14 <__rc4>
    13aa: aa           	tax
    13ab: b1 12        	lda	($12),y                 ; 0x12 <__rc2>
    13ad: 85 16        	sta	$16                     ; 0x16 <__rc6>
    13af: e4 16        	cpx	$16                     ; 0x16 <__rc6>
    13b1: d0 27        	bne	$13da <exhaustZeroes+0x20c>
    13b3: a0 01        	ldy	#$1
    13b5: b1 14        	lda	($14),y                 ; 0x14 <__rc4>
    13b7: aa           	tax
    13b8: b1 12        	lda	($12),y                 ; 0x12 <__rc2>
    13ba: 85 14        	sta	$14                     ; 0x14 <__rc4>
    13bc: e4 14        	cpx	$14                     ; 0x14 <__rc4>
    13be: d0 0c        	bne	$13cc <exhaustZeroes+0x1fe>
    13c0: a0 04        	ldy	#$4
    13c2: b1 12        	lda	($12),y                 ; 0x12 <__rc2>
    13c4: 85 15        	sta	$15                     ; 0x15 <__rc5>
    13c6: b2 12        	lda	($12)                   ; 0x12 <__rc2>
    13c8: 85 14        	sta	$14                     ; 0x14 <__rc4>
    13ca: a6 15        	ldx	$15                     ; 0x15 <__rc5>
    13cc: e4 14        	cpx	$14                     ; 0x14 <__rc4>
    13ce: 90 11        	bcc	$13e1 <exhaustZeroes+0x213>
    13d0: 4c c4 14     	jmp	$14c4 <exhaustZeroes+0x2f6>
    13d3: d1 12        	cmp	($12),y                 ; 0x12 <__rc2>
    13d5: 90 0a        	bcc	$13e1 <exhaustZeroes+0x213>
    13d7: 4c c4 14     	jmp	$14c4 <exhaustZeroes+0x2f6>
    13da: e4 16        	cpx	$16                     ; 0x16 <__rc6>
    13dc: 90 03        	bcc	$13e1 <exhaustZeroes+0x213>
    13de: 4c c4 14     	jmp	$14c4 <exhaustZeroes+0x2f6>
    13e1: a5 24        	lda	$24                     ; 0x24 <__rc20>
    13e3: 20 32 05     	jsr	$532 <readDelta>
    13e6: a0 03        	ldy	#$3
    13e8: 91 10        	sta	($10),y                 ; 0x10 <__rc0>
    13ea: 8a           	txa
    13eb: a0 06        	ldy	#$6
    13ed: 91 10        	sta	($10),y                 ; 0x10 <__rc0>
    13ef: a5 12        	lda	$12                     ; 0x12 <__rc2>
    13f1: 88           	dey
    13f2: 91 10        	sta	($10),y                 ; 0x10 <__rc0>
    13f4: a5 13        	lda	$13                     ; 0x13 <__rc3>
    13f6: 88           	dey
    13f7: 91 10        	sta	($10),y                 ; 0x10 <__rc0>
    13f9: a6 82        	ldx	$82                     ; 0x82 <theOne.8>
    13fb: 86 27        	stx	$27                     ; 0x27 <__rc23>
    13fd: a6 83        	ldx	$83                     ; 0x83 <theOne.8+0x1>
    13ff: 86 26        	stx	$26                     ; 0x26 <__rc22>
    1401: a6 29        	ldx	$29                     ; 0x29 <__rc25>
    1403: 86 12        	stx	$12                     ; 0x12 <__rc2>
    1405: 64 13        	stz	$13                     ; 0x13 <__rc3>
    1407: a2 00        	ldx	#$0
    1409: a5 24        	lda	$24                     ; 0x24 <__rc20>
    140b: 20 58 4d     	jsr	$4d58 <__mulhi3>
    140e: 85 25        	sta	$25                     ; 0x25 <__rc21>
    1410: 86 13        	stx	$13                     ; 0x13 <__rc3>
    1412: 48           	pha
    1413: 8a           	txa
    1414: a0 02        	ldy	#$2
    1416: 91 10        	sta	($10),y                 ; 0x10 <__rc0>
    1418: 68           	pla
    1419: 85 12        	sta	$12                     ; 0x12 <__rc2>
    141b: 18           	clc
    141c: a2 00        	ldx	#$0
    141e: 86 28        	stx	$28                     ; 0x28 <__rc24>
    1420: a5 27        	lda	$27                     ; 0x27 <__rc23>
    1422: 65 12        	adc	$12                     ; 0x12 <__rc2>
    1424: a8           	tay
    1425: a5 26        	lda	$26                     ; 0x26 <__rc22>
    1427: 65 13        	adc	$13                     ; 0x13 <__rc3>
    1429: aa           	tax
    142a: 98           	tya
    142b: 84 12        	sty	$12                     ; 0x12 <__rc2>
    142d: 86 13        	stx	$13                     ; 0x13 <__rc3>
    142f: 18           	clc
    1430: 69 0c        	adc	#$c
    1432: 85 14        	sta	$14                     ; 0x14 <__rc4>
    1434: 8a           	txa
    1435: 69 00        	adc	#$0
    1437: 85 15        	sta	$15                     ; 0x15 <__rc5>
    1439: a0 0c        	ldy	#$c
    143b: 5a           	phy
    143c: a0 03        	ldy	#$3
    143e: b1 10        	lda	($10),y                 ; 0x10 <__rc0>
    1440: 7a           	ply
    1441: 91 12        	sta	($12),y                 ; 0x12 <__rc2>
    1443: a0 01        	ldy	#$1
    1445: 5a           	phy
    1446: a0 06        	ldy	#$6
    1448: b1 10        	lda	($10),y                 ; 0x10 <__rc0>
    144a: 7a           	ply
    144b: 91 14        	sta	($14),y                 ; 0x14 <__rc4>
    144d: a0 02        	ldy	#$2
    144f: 5a           	phy
    1450: a0 05        	ldy	#$5
    1452: b1 10        	lda	($10),y                 ; 0x10 <__rc0>
    1454: 7a           	ply
    1455: 91 14        	sta	($14),y                 ; 0x14 <__rc4>
    1457: a0 03        	ldy	#$3
    1459: 5a           	phy
    145a: c8           	iny
    145b: b1 10        	lda	($10),y                 ; 0x10 <__rc0>
    145d: 7a           	ply
    145e: 91 14        	sta	($14),y                 ; 0x14 <__rc4>
    1460: a5 24        	lda	$24                     ; 0x24 <__rc20>
    1462: 20 f3 09     	jsr	$9f3 <readMIDICmd>
    1465: 64 16        	stz	$16                     ; 0x16 <__rc6>
    1467: a6 82        	ldx	$82                     ; 0x82 <theOne.8>
    1469: a4 83        	ldy	$83                     ; 0x83 <theOne.8+0x1>
    146b: 84 17        	sty	$17                     ; 0x17 <__rc7>
    146d: 18           	clc
    146e: a5 25        	lda	$25                     ; 0x25 <__rc21>
    1470: 65 82        	adc	$82                     ; 0x82 <theOne.8>
    1472: 85 14        	sta	$14                     ; 0x14 <__rc4>
    1474: a0 02        	ldy	#$2
    1476: b1 10        	lda	($10),y                 ; 0x10 <__rc0>
    1478: 65 83        	adc	$83                     ; 0x83 <theOne.8+0x1>
    147a: a8           	tay
    147b: a5 14        	lda	$14                     ; 0x14 <__rc4>
    147d: 85 12        	sta	$12                     ; 0x12 <__rc2>
    147f: 84 15        	sty	$15                     ; 0x15 <__rc5>
    1481: 84 13        	sty	$13                     ; 0x13 <__rc3>
    1483: a0 18        	ldy	#$18
    1485: b1 12        	lda	($12),y                 ; 0x12 <__rc2>
    1487: d0 47        	bne	$14d0 <exhaustZeroes+0x302>
    1489: 86 26        	stx	$26                     ; 0x26 <__rc22>
    148b: a6 17        	ldx	$17                     ; 0x17 <__rc7>
    148d: 86 25        	stx	$25                     ; 0x25 <__rc21>
    148f: 18           	clc
    1490: a5 14        	lda	$14                     ; 0x14 <__rc4>
    1492: 69 0c        	adc	#$c
    1494: 85 14        	sta	$14                     ; 0x14 <__rc4>
    1496: a5 15        	lda	$15                     ; 0x15 <__rc5>
    1498: 69 00        	adc	#$0
    149a: 85 15        	sta	$15                     ; 0x15 <__rc5>
    149c: a0 0c        	ldy	#$c
    149e: b1 12        	lda	($12),y                 ; 0x12 <__rc2>
    14a0: 85 12        	sta	$12                     ; 0x12 <__rc2>
    14a2: a0 01        	ldy	#$1
    14a4: b1 14        	lda	($14),y                 ; 0x14 <__rc4>
    14a6: 85 13        	sta	$13                     ; 0x13 <__rc3>
    14a8: c8           	iny
    14a9: b1 14        	lda	($14),y                 ; 0x14 <__rc4>
    14ab: 85 17        	sta	$17                     ; 0x17 <__rc7>
    14ad: c8           	iny
    14ae: b1 14        	lda	($14),y                 ; 0x14 <__rc4>
    14b0: a6 29        	ldx	$29                     ; 0x29 <__rc25>
    14b2: a8           	tay
    14b3: d0 1b        	bne	$14d0 <exhaustZeroes+0x302>
    14b5: a5 17        	lda	$17                     ; 0x17 <__rc7>
    14b7: d0 17        	bne	$14d0 <exhaustZeroes+0x302>
    14b9: a5 13        	lda	$13                     ; 0x13 <__rc3>
    14bb: d0 13        	bne	$14d0 <exhaustZeroes+0x302>
    14bd: a5 12        	lda	$12                     ; 0x12 <__rc2>
    14bf: d0 0f        	bne	$14d0 <exhaustZeroes+0x302>
    14c1: 4c 6a 12     	jmp	$126a <exhaustZeroes+0x9c>
    14c4: a0 18        	ldy	#$18
    14c6: a9 01        	lda	#$1
    14c8: 91 12        	sta	($12),y                 ; 0x12 <__rc2>
    14ca: e6 80        	inc	$80                     ; 0x80 <theOne.7>
    14cc: d0 02        	bne	$14d0 <exhaustZeroes+0x302>
    14ce: e6 81        	inc	$81                     ; 0x81 <theOne.7+0x1>
    14d0: a0 00        	ldy	#$0
    14d2: b1 10        	lda	($10),y                 ; 0x10 <__rc0>
    14d4: 85 29        	sta	$29                     ; 0x29 <__rc25>
    14d6: c8           	iny
    14d7: b1 10        	lda	($10),y                 ; 0x10 <__rc0>
    14d9: 85 28        	sta	$28                     ; 0x28 <__rc24>
    14db: fa           	plx
    14dc: 86 27        	stx	$27                     ; 0x27 <__rc23>
    14de: fa           	plx
    14df: 86 26        	stx	$26                     ; 0x26 <__rc22>
    14e1: fa           	plx
    14e2: 86 25        	stx	$25                     ; 0x25 <__rc21>
    14e4: fa           	plx
    14e5: 86 24        	stx	$24                     ; 0x24 <__rc20>
    14e7: 18           	clc
    14e8: a5 10        	lda	$10                     ; 0x10 <__rc0>
    14ea: 69 07        	adc	#$7
    14ec: 85 10        	sta	$10                     ; 0x10 <__rc0>
    14ee: a5 11        	lda	$11                     ; 0x11 <__rc1>
    14f0: 69 00        	adc	#$0
    14f2: 85 11        	sta	$11                     ; 0x11 <__rc1>
    14f4: 60           	rts
    14f5: a2 01        	ldx	#$1
    14f7: 86 30        	stx	$30                     ; 0x30 <doneWithFudge>
    14f9: 4c e2 12     	jmp	$12e2 <exhaustZeroes+0x114>

000014fc <playMidi>:
    14fc: a5 7a        	lda	$7a                     ; 0x7a <theOne.5>
    14fe: a6 7b        	ldx	$7b                     ; 0x7b <theOne.5+0x1>
    1500: 86 15        	stx	$15                     ; 0x15 <__rc5>
    1502: a6 7c        	ldx	$7c                     ; 0x7c <theOne.5+0x2>
    1504: a4 7d        	ldy	$7d                     ; 0x7d <theOne.5+0x3>
    1506: c0 01        	cpy	#$1
    1508: d0 12        	bne	$151c <playMidi+0x20>
    150a: 84 14        	sty	$14                     ; 0x14 <__rc4>
    150c: e0 00        	cpx	#$0
    150e: d0 51        	bne	$1561 <playMidi+0x65>
    1510: 86 12        	stx	$12                     ; 0x12 <__rc2>
    1512: a6 15        	ldx	$15                     ; 0x15 <__rc5>
    1514: d0 53        	bne	$1569 <playMidi+0x6d>
    1516: c9 00        	cmp	#$0
    1518: 90 0a        	bcc	$1524 <playMidi+0x28>
    151a: 80 53        	bra	$156f <playMidi+0x73>
    151c: 86 12        	stx	$12                     ; 0x12 <__rc2>
    151e: 84 14        	sty	$14                     ; 0x14 <__rc4>
    1520: c0 01        	cpy	#$1
    1522: b0 4b        	bcs	$156f <playMidi+0x73>
    1524: a4 12        	ldy	$12                     ; 0x12 <__rc2>
    1526: aa           	tax
    1527: a5 15        	lda	$15                     ; 0x15 <__rc5>
    1529: e6 14        	inc	$14                     ; 0x14 <__rc4>
    152b: c6 14        	dec	$14                     ; 0x14 <__rc4>
    152d: d0 0e        	bne	$153d <playMidi+0x41>
    152f: c0 00        	cpy	#$0
    1531: d0 0a        	bne	$153d <playMidi+0x41>
    1533: c9 00        	cmp	#$0
    1535: d0 06        	bne	$153d <playMidi+0x41>
    1537: 8a           	txa
    1538: d0 03        	bne	$153d <playMidi+0x41>
    153a: 4c aa 15     	jmp	$15aa <playMidi+0xae>
    153d: a9 02        	lda	#$2
    153f: 8d 50 d6     	sta	$d650                   ; 0xd650 <__heap_start+0x8538>
    1542: 8e 55 d6     	stx	$d655                   ; 0xd655 <__heap_start+0x853d>
    1545: a6 15        	ldx	$15                     ; 0x15 <__rc5>
    1547: 8e 56 d6     	stx	$d656                   ; 0xd656 <__heap_start+0x853e>
    154a: 8c 57 d6     	sty	$d657                   ; 0xd657 <__heap_start+0x853f>
    154d: 9c 54 d6     	stz	$d654                   ; 0xd654 <__heap_start+0x853c>
    1550: 8d 50 d6     	sta	$d650                   ; 0xd650 <__heap_start+0x8538>
    1553: a2 89        	ldx	#$89
    1555: 8e 50 d6     	stx	$d650                   ; 0xd650 <__heap_start+0x8538>
    1558: 64 7a        	stz	$7a                     ; 0x7a <theOne.5>
    155a: 64 7b        	stz	$7b                     ; 0x7b <theOne.5+0x1>
    155c: 64 7c        	stz	$7c                     ; 0x7c <theOne.5+0x2>
    155e: 64 7d        	stz	$7d                     ; 0x7d <theOne.5+0x3>
    1560: 60           	rts
    1561: 86 12        	stx	$12                     ; 0x12 <__rc2>
    1563: e0 00        	cpx	#$0
    1565: 90 bd        	bcc	$1524 <playMidi+0x28>
    1567: 80 06        	bra	$156f <playMidi+0x73>
    1569: a6 15        	ldx	$15                     ; 0x15 <__rc5>
    156b: e0 00        	cpx	#$0
    156d: 90 b5        	bcc	$1524 <playMidi+0x28>
    156f: 18           	clc
    1570: 69 01        	adc	#$1
    1572: a8           	tay
    1573: a5 15        	lda	$15                     ; 0x15 <__rc5>
    1575: 69 00        	adc	#$0
    1577: aa           	tax
    1578: a5 12        	lda	$12                     ; 0x12 <__rc2>
    157a: 69 00        	adc	#$0
    157c: 85 12        	sta	$12                     ; 0x12 <__rc2>
    157e: a5 14        	lda	$14                     ; 0x14 <__rc4>
    1580: 69 ff        	adc	#$ff
    1582: 84 7a        	sty	$7a                     ; 0x7a <theOne.5>
    1584: 86 7b        	stx	$7b                     ; 0x7b <theOne.5+0x1>
    1586: 86 13        	stx	$13                     ; 0x13 <__rc3>
    1588: a6 12        	ldx	$12                     ; 0x12 <__rc2>
    158a: 86 7c        	stx	$7c                     ; 0x7c <theOne.5+0x2>
    158c: 85 7d        	sta	$7d                     ; 0x7d <theOne.5+0x3>
    158e: a9 02        	lda	#$2
    1590: 8d 50 d6     	sta	$d650                   ; 0xd650 <__heap_start+0x8538>
    1593: 8c 55 d6     	sty	$d655                   ; 0xd655 <__heap_start+0x853d>
    1596: a4 13        	ldy	$13                     ; 0x13 <__rc3>
    1598: 8c 56 d6     	sty	$d656                   ; 0xd656 <__heap_start+0x853e>
    159b: 8e 57 d6     	stx	$d657                   ; 0xd657 <__heap_start+0x853f>
    159e: 9c 54 d6     	stz	$d654                   ; 0xd654 <__heap_start+0x853c>
    15a1: 8d 50 d6     	sta	$d650                   ; 0xd650 <__heap_start+0x8538>
    15a4: a2 89        	ldx	#$89
    15a6: 8e 50 d6     	stx	$d650                   ; 0xd650 <__heap_start+0x8538>
    15a9: 60           	rts
    15aa: 18           	clc
    15ab: a5 10        	lda	$10                     ; 0x10 <__rc0>
    15ad: 69 fc        	adc	#$fc
    15af: 85 10        	sta	$10                     ; 0x10 <__rc0>
    15b1: a5 11        	lda	$11                     ; 0x11 <__rc1>
    15b3: 69 ff        	adc	#$ff
    15b5: 85 11        	sta	$11                     ; 0x11 <__rc1>
    15b7: a6 24        	ldx	$24                     ; 0x24 <__rc20>
    15b9: da           	phx
    15ba: a6 25        	ldx	$25                     ; 0x25 <__rc21>
    15bc: da           	phx
    15bd: a6 26        	ldx	$26                     ; 0x26 <__rc22>
    15bf: da           	phx
    15c0: a6 27        	ldx	$27                     ; 0x27 <__rc23>
    15c2: da           	phx
    15c3: a5 28        	lda	$28                     ; 0x28 <__rc24>
    15c5: a0 00        	ldy	#$0
    15c7: 91 10        	sta	($10),y                 ; 0x10 <__rc0>
    15c9: a5 7e        	lda	$7e                     ; 0x7e <theOne.6>
    15cb: a6 82        	ldx	$82                     ; 0x82 <theOne.8>
    15cd: 86 25        	stx	$25                     ; 0x25 <__rc21>
    15cf: a6 83        	ldx	$83                     ; 0x83 <theOne.8+0x1>
    15d1: 86 24        	stx	$24                     ; 0x24 <__rc20>
    15d3: a2 19        	ldx	#$19
    15d5: 86 12        	stx	$12                     ; 0x12 <__rc2>
    15d7: 64 13        	stz	$13                     ; 0x13 <__rc3>
    15d9: a2 00        	ldx	#$0
    15db: 20 58 4d     	jsr	$4d58 <__mulhi3>
    15de: 85 12        	sta	$12                     ; 0x12 <__rc2>
    15e0: 86 13        	stx	$13                     ; 0x13 <__rc3>
    15e2: 18           	clc
    15e3: a5 25        	lda	$25                     ; 0x25 <__rc21>
    15e5: 65 12        	adc	$12                     ; 0x12 <__rc2>
    15e7: 85 12        	sta	$12                     ; 0x12 <__rc2>
    15e9: a5 24        	lda	$24                     ; 0x24 <__rc20>
    15eb: 65 13        	adc	$13                     ; 0x13 <__rc3>
    15ed: a6 12        	ldx	$12                     ; 0x12 <__rc2>
    15ef: 86 16        	stx	$16                     ; 0x16 <__rc6>
    15f1: 85 17        	sta	$17                     ; 0x17 <__rc7>
    15f3: a0 10        	ldy	#$10
    15f5: b1 16        	lda	($16),y                 ; 0x16 <__rc6>
    15f7: aa           	tax
    15f8: c8           	iny
    15f9: b1 16        	lda	($16),y                 ; 0x16 <__rc6>
    15fb: e0 ff        	cpx	#$ff
    15fd: f0 27        	beq	$1626 <playMidi+0x12a>
    15ff: 86 13        	stx	$13                     ; 0x13 <__rc3>
    1601: 85 14        	sta	$14                     ; 0x14 <__rc4>
    1603: a0 12        	ldy	#$12
    1605: b1 16        	lda	($16),y                 ; 0x16 <__rc6>
    1607: 85 15        	sta	$15                     ; 0x15 <__rc5>
    1609: a0 17        	ldy	#$17
    160b: b1 16        	lda	($16),y                 ; 0x16 <__rc6>
    160d: 85 12        	sta	$12                     ; 0x12 <__rc2>
    160f: a4 13        	ldy	$13                     ; 0x13 <__rc3>
    1611: 8a           	txa
    1612: 29 f0        	and	#$f0
    1614: c9 90        	cmp	#$90
    1616: f0 22        	beq	$163a <playMidi+0x13e>
    1618: c9 c0        	cmp	#$c0
    161a: d0 32        	bne	$164e <playMidi+0x152>
    161c: 8c b1 dd     	sty	$ddb1                   ; 0xddb1 <__heap_start+0x8c99>
    161f: a6 14        	ldx	$14                     ; 0x14 <__rc4>
    1621: 8e b1 dd     	stx	$ddb1                   ; 0xddb1 <__heap_start+0x8c99>
    1624: 80 28        	bra	$164e <playMidi+0x152>
    1626: c9 51        	cmp	#$51
    1628: f0 3b        	beq	$1665 <playMidi+0x169>
    162a: c9 2f        	cmp	#$2f
    162c: f0 03        	beq	$1631 <playMidi+0x135>
    162e: 4c cb 16     	jmp	$16cb <playMidi+0x1cf>
    1631: a0 18        	ldy	#$18
    1633: a9 01        	lda	#$1
    1635: 91 16        	sta	($16),y                 ; 0x16 <__rc6>
    1637: 4c cb 16     	jmp	$16cb <playMidi+0x1cf>
    163a: a5 30        	lda	$30                     ; 0x30 <doneWithFudge>
    163c: 29 01        	and	#$1
    163e: d0 0e        	bne	$164e <playMidi+0x152>
    1640: a6 31        	ldx	$31                     ; 0x31 <fudge>
    1642: e6 31        	inc	$31                     ; 0x31 <fudge>
    1644: 8a           	txa
    1645: d0 03        	bne	$164a <playMidi+0x14e>
    1647: 4c cb 16     	jmp	$16cb <playMidi+0x1cf>
    164a: a2 01        	ldx	#$1
    164c: 86 30        	stx	$30                     ; 0x30 <doneWithFudge>
    164e: 8c a1 dd     	sty	$dda1                   ; 0xdda1 <__heap_start+0x8c89>
    1651: a6 14        	ldx	$14                     ; 0x14 <__rc4>
    1653: 8e a1 dd     	stx	$dda1                   ; 0xdda1 <__heap_start+0x8c89>
    1656: a5 12        	lda	$12                     ; 0x12 <__rc2>
    1658: f0 03        	beq	$165d <playMidi+0x161>
    165a: 4c cb 16     	jmp	$16cb <playMidi+0x1cf>
    165d: a6 15        	ldx	$15                     ; 0x15 <__rc5>
    165f: 8e a1 dd     	stx	$dda1                   ; 0xdda1 <__heap_start+0x8c89>
    1662: 4c cb 16     	jmp	$16cb <playMidi+0x1cf>
    1665: a0 13        	ldy	#$13
    1667: b1 16        	lda	($16),y                 ; 0x16 <__rc6>
    1669: 85 12        	sta	$12                     ; 0x12 <__rc2>
    166b: c8           	iny
    166c: b1 16        	lda	($16),y                 ; 0x16 <__rc6>
    166e: 85 18        	sta	$18                     ; 0x18 <__rc8>
    1670: c8           	iny
    1671: b1 16        	lda	($16),y                 ; 0x16 <__rc6>
    1673: a6 73        	ldx	$73                     ; 0x73 <theOne.1>
    1675: a4 74        	ldy	$74                     ; 0x74 <theOne.1+0x1>
    1677: 64 13        	stz	$13                     ; 0x13 <__rc3>
    1679: 86 14        	stx	$14                     ; 0x14 <__rc4>
    167b: 84 15        	sty	$15                     ; 0x15 <__rc5>
    167d: 64 16        	stz	$16                     ; 0x16 <__rc6>
    167f: 64 17        	stz	$17                     ; 0x17 <__rc7>
    1681: a6 18        	ldx	$18                     ; 0x18 <__rc8>
    1683: 20 f9 4b     	jsr	$4bf9 <__udivsi3>
    1686: 86 14        	stx	$14                     ; 0x14 <__rc4>
    1688: 0a           	asl
    1689: 26 14        	rol	$14                     ; 0x14 <__rc4>
    168b: 26 12        	rol	$12                     ; 0x12 <__rc2>
    168d: 26 13        	rol	$13                     ; 0x13 <__rc3>
    168f: 0a           	asl
    1690: 85 15        	sta	$15                     ; 0x15 <__rc5>
    1692: 26 14        	rol	$14                     ; 0x14 <__rc4>
    1694: 26 12        	rol	$12                     ; 0x12 <__rc2>
    1696: 26 13        	rol	$13                     ; 0x13 <__rc3>
    1698: 0a           	asl
    1699: aa           	tax
    169a: a5 14        	lda	$14                     ; 0x14 <__rc4>
    169c: 2a           	rol
    169d: a8           	tay
    169e: a5 12        	lda	$12                     ; 0x12 <__rc2>
    16a0: 2a           	rol
    16a1: 85 16        	sta	$16                     ; 0x16 <__rc6>
    16a3: a5 13        	lda	$13                     ; 0x13 <__rc3>
    16a5: 2a           	rol
    16a6: 85 17        	sta	$17                     ; 0x17 <__rc7>
    16a8: 18           	clc
    16a9: 8a           	txa
    16aa: 65 15        	adc	$15                     ; 0x15 <__rc5>
    16ac: 85 15        	sta	$15                     ; 0x15 <__rc5>
    16ae: 98           	tya
    16af: 65 14        	adc	$14                     ; 0x14 <__rc4>
    16b1: 85 14        	sta	$14                     ; 0x14 <__rc4>
    16b3: a5 16        	lda	$16                     ; 0x16 <__rc6>
    16b5: 65 12        	adc	$12                     ; 0x12 <__rc2>
    16b7: 85 12        	sta	$12                     ; 0x12 <__rc2>
    16b9: a5 17        	lda	$17                     ; 0x17 <__rc7>
    16bb: 65 13        	adc	$13                     ; 0x13 <__rc3>
    16bd: a6 15        	ldx	$15                     ; 0x15 <__rc5>
    16bf: 86 75        	stx	$75                     ; 0x75 <theOne.2>
    16c1: a6 14        	ldx	$14                     ; 0x14 <__rc4>
    16c3: 86 76        	stx	$76                     ; 0x76 <theOne.2+0x1>
    16c5: a6 12        	ldx	$12                     ; 0x12 <__rc2>
    16c7: 86 77        	stx	$77                     ; 0x77 <theOne.2+0x2>
    16c9: 85 78        	sta	$78                     ; 0x78 <theOne.2+0x3>
    16cb: a6 71        	ldx	$71                     ; 0x71 <theOne.0>
    16cd: 86 12        	stx	$12                     ; 0x12 <__rc2>
    16cf: a4 72        	ldy	$72                     ; 0x72 <theOne.0+0x1>
    16d1: a5 82        	lda	$82                     ; 0x82 <theOne.8>
    16d3: a6 83        	ldx	$83                     ; 0x83 <theOne.8+0x1>
    16d5: 85 24        	sta	$24                     ; 0x24 <__rc20>
    16d7: 86 25        	stx	$25                     ; 0x25 <__rc21>
    16d9: 98           	tya
    16da: d0 07        	bne	$16e3 <playMidi+0x1e7>
    16dc: a5 12        	lda	$12                     ; 0x12 <__rc2>
    16de: d0 03        	bne	$16e3 <playMidi+0x1e7>
    16e0: 4c 3e 18     	jmp	$183e <playMidi+0x342>
    16e3: a9 0c        	lda	#$c
    16e5: 84 13        	sty	$13                     ; 0x13 <__rc3>
    16e7: 64 27        	stz	$27                     ; 0x27 <__rc23>
    16e9: a0 00        	ldy	#$0
    16eb: a2 00        	ldx	#$0
    16ed: 84 28        	sty	$28                     ; 0x28 <__rc24>
    16ef: 85 26        	sta	$26                     ; 0x26 <__rc22>
    16f1: 18           	clc
    16f2: 65 24        	adc	$24                     ; 0x24 <__rc20>
    16f4: 85 14        	sta	$14                     ; 0x14 <__rc4>
    16f6: a5 27        	lda	$27                     ; 0x27 <__rc23>
    16f8: 65 25        	adc	$25                     ; 0x25 <__rc21>
    16fa: 85 15        	sta	$15                     ; 0x15 <__rc5>
    16fc: a0 0c        	ldy	#$c
    16fe: b1 14        	lda	($14),y                 ; 0x14 <__rc4>
    1700: f0 09        	beq	$170b <playMidi+0x20f>
    1702: a5 26        	lda	$26                     ; 0x26 <__rc22>
    1704: a4 28        	ldy	$28                     ; 0x28 <__rc24>
    1706: 84 16        	sty	$16                     ; 0x16 <__rc6>
    1708: 4c 1c 18     	jmp	$181c <playMidi+0x320>
    170b: 8a           	txa
    170c: a6 7e        	ldx	$7e                     ; 0x7e <theOne.6>
    170e: 86 14        	stx	$14                     ; 0x14 <__rc4>
    1710: a6 7f        	ldx	$7f                     ; 0x7f <theOne.6+0x1>
    1712: a0 03        	ldy	#$3
    1714: 91 10        	sta	($10),y                 ; 0x10 <__rc0>
    1716: c5 7f        	cmp	$7f                     ; 0x7f <theOne.6+0x1>
    1718: d0 16        	bne	$1730 <playMidi+0x234>
    171a: a4 28        	ldy	$28                     ; 0x28 <__rc24>
    171c: c4 14        	cpy	$14                     ; 0x14 <__rc4>
    171e: d0 10        	bne	$1730 <playMidi+0x234>
    1720: a5 26        	lda	$26                     ; 0x26 <__rc22>
    1722: 48           	pha
    1723: 5a           	phy
    1724: a0 03        	ldy	#$3
    1726: b1 10        	lda	($10),y                 ; 0x10 <__rc0>
    1728: 7a           	ply
    1729: aa           	tax
    172a: 68           	pla
    172b: 84 16        	sty	$16                     ; 0x16 <__rc6>
    172d: 4c 1c 18     	jmp	$181c <playMidi+0x320>
    1730: a5 13        	lda	$13                     ; 0x13 <__rc3>
    1732: a0 02        	ldy	#$2
    1734: 91 10        	sta	($10),y                 ; 0x10 <__rc0>
    1736: a5 12        	lda	$12                     ; 0x12 <__rc2>
    1738: 88           	dey
    1739: 91 10        	sta	($10),y                 ; 0x10 <__rc0>
    173b: a0 19        	ldy	#$19
    173d: 84 12        	sty	$12                     ; 0x12 <__rc2>
    173f: 64 13        	stz	$13                     ; 0x13 <__rc3>
    1741: a5 14        	lda	$14                     ; 0x14 <__rc4>
    1743: 20 58 4d     	jsr	$4d58 <__mulhi3>
    1746: 85 12        	sta	$12                     ; 0x12 <__rc2>
    1748: 86 13        	stx	$13                     ; 0x13 <__rc3>
    174a: a5 24        	lda	$24                     ; 0x24 <__rc20>
    174c: a2 00        	ldx	#$0
    174e: 86 14        	stx	$14                     ; 0x14 <__rc4>
    1750: 18           	clc
    1751: 65 12        	adc	$12                     ; 0x12 <__rc2>
    1753: aa           	tax
    1754: a4 14        	ldy	$14                     ; 0x14 <__rc4>
    1756: 84 1b        	sty	$1b                     ; 0x1b <__rc11>
    1758: a5 25        	lda	$25                     ; 0x25 <__rc21>
    175a: 65 13        	adc	$13                     ; 0x13 <__rc3>
    175c: 86 12        	stx	$12                     ; 0x12 <__rc2>
    175e: 85 13        	sta	$13                     ; 0x13 <__rc3>
    1760: a8           	tay
    1761: 18           	clc
    1762: 8a           	txa
    1763: 69 0c        	adc	#$c
    1765: 85 18        	sta	$18                     ; 0x18 <__rc8>
    1767: 98           	tya
    1768: 69 00        	adc	#$0
    176a: 85 19        	sta	$19                     ; 0x19 <__rc9>
    176c: a0 0c        	ldy	#$c
    176e: b1 12        	lda	($12),y                 ; 0x12 <__rc2>
    1770: 85 14        	sta	$14                     ; 0x14 <__rc4>
    1772: a0 01        	ldy	#$1
    1774: b1 18        	lda	($18),y                 ; 0x18 <__rc8>
    1776: 84 13        	sty	$13                     ; 0x13 <__rc3>
    1778: 85 15        	sta	$15                     ; 0x15 <__rc5>
    177a: c8           	iny
    177b: b1 18        	lda	($18),y                 ; 0x18 <__rc8>
    177d: 84 17        	sty	$17                     ; 0x17 <__rc7>
    177f: 85 16        	sta	$16                     ; 0x16 <__rc6>
    1781: c8           	iny
    1782: b1 18        	lda	($18),y                 ; 0x18 <__rc8>
    1784: 84 1a        	sty	$1a                     ; 0x1a <__rc10>
    1786: 85 12        	sta	$12                     ; 0x12 <__rc2>
    1788: a5 26        	lda	$26                     ; 0x26 <__rc22>
    178a: a6 1b        	ldx	$1b                     ; 0x1b <__rc11>
    178c: e0 01        	cpx	#$1
    178e: 65 24        	adc	$24                     ; 0x24 <__rc20>
    1790: 85 18        	sta	$18                     ; 0x18 <__rc8>
    1792: a5 27        	lda	$27                     ; 0x27 <__rc23>
    1794: 65 25        	adc	$25                     ; 0x25 <__rc21>
    1796: 85 19        	sta	$19                     ; 0x19 <__rc9>
    1798: b2 18        	lda	($18)                   ; 0x18 <__rc8>
    179a: 85 1c        	sta	$1c                     ; 0x1c <__rc12>
    179c: a4 13        	ldy	$13                     ; 0x13 <__rc3>
    179e: b1 18        	lda	($18),y                 ; 0x18 <__rc8>
    17a0: 85 1b        	sta	$1b                     ; 0x1b <__rc11>
    17a2: a6 17        	ldx	$17                     ; 0x17 <__rc7>
    17a4: 86 1f        	stx	$1f                     ; 0x1f <__rc15>
    17a6: a4 17        	ldy	$17                     ; 0x17 <__rc7>
    17a8: b1 18        	lda	($18),y                 ; 0x18 <__rc8>
    17aa: aa           	tax
    17ab: a5 1c        	lda	$1c                     ; 0x1c <__rc12>
    17ad: 85 17        	sta	$17                     ; 0x17 <__rc7>
    17af: 38           	sec
    17b0: e5 14        	sbc	$14                     ; 0x14 <__rc4>
    17b2: 85 1d        	sta	$1d                     ; 0x1d <__rc13>
    17b4: a5 1b        	lda	$1b                     ; 0x1b <__rc11>
    17b6: e5 15        	sbc	$15                     ; 0x15 <__rc5>
    17b8: 85 1e        	sta	$1e                     ; 0x1e <__rc14>
    17ba: 8a           	txa
    17bb: 86 1c        	stx	$1c                     ; 0x1c <__rc12>
    17bd: e5 16        	sbc	$16                     ; 0x16 <__rc6>
    17bf: 85 22        	sta	$22                     ; 0x22 <__rc18>
    17c1: a4 1a        	ldy	$1a                     ; 0x1a <__rc10>
    17c3: b1 18        	lda	($18),y                 ; 0x18 <__rc8>
    17c5: aa           	tax
    17c6: e5 12        	sbc	$12                     ; 0x12 <__rc2>
    17c8: 85 23        	sta	$23                     ; 0x23 <__rc19>
    17ca: a5 1d        	lda	$1d                     ; 0x1d <__rc13>
    17cc: 92 18        	sta	($18)                   ; 0x18 <__rc8>
    17ce: a4 13        	ldy	$13                     ; 0x13 <__rc3>
    17d0: a5 1e        	lda	$1e                     ; 0x1e <__rc14>
    17d2: 91 18        	sta	($18),y                 ; 0x18 <__rc8>
    17d4: a4 1f        	ldy	$1f                     ; 0x1f <__rc15>
    17d6: a5 22        	lda	$22                     ; 0x22 <__rc18>
    17d8: 91 18        	sta	($18),y                 ; 0x18 <__rc8>
    17da: a4 1a        	ldy	$1a                     ; 0x1a <__rc10>
    17dc: a5 23        	lda	$23                     ; 0x23 <__rc19>
    17de: 91 18        	sta	($18),y                 ; 0x18 <__rc8>
    17e0: e4 12        	cpx	$12                     ; 0x12 <__rc2>
    17e2: d0 20        	bne	$1804 <playMidi+0x308>
    17e4: a0 01        	ldy	#$1
    17e6: b1 10        	lda	($10),y                 ; 0x10 <__rc0>
    17e8: 85 12        	sta	$12                     ; 0x12 <__rc2>
    17ea: c8           	iny
    17eb: b1 10        	lda	($10),y                 ; 0x10 <__rc0>
    17ed: 85 13        	sta	$13                     ; 0x13 <__rc3>
    17ef: a4 28        	ldy	$28                     ; 0x28 <__rc24>
    17f1: 5a           	phy
    17f2: a0 03        	ldy	#$3
    17f4: b1 10        	lda	($10),y                 ; 0x10 <__rc0>
    17f6: 7a           	ply
    17f7: aa           	tax
    17f8: a5 1c        	lda	$1c                     ; 0x1c <__rc12>
    17fa: c5 16        	cmp	$16                     ; 0x16 <__rc6>
    17fc: d0 03        	bne	$1801 <playMidi+0x305>
    17fe: 4c 49 19     	jmp	$1949 <playMidi+0x44d>
    1801: 4c 80 19     	jmp	$1980 <playMidi+0x484>
    1804: a0 01        	ldy	#$1
    1806: b1 10        	lda	($10),y                 ; 0x10 <__rc0>
    1808: 85 12        	sta	$12                     ; 0x12 <__rc2>
    180a: c8           	iny
    180b: b1 10        	lda	($10),y                 ; 0x10 <__rc0>
    180d: 85 13        	sta	$13                     ; 0x13 <__rc3>
    180f: a5 26        	lda	$26                     ; 0x26 <__rc22>
    1811: a6 28        	ldx	$28                     ; 0x28 <__rc24>
    1813: 86 16        	stx	$16                     ; 0x16 <__rc6>
    1815: 48           	pha
    1816: a0 03        	ldy	#$3
    1818: b1 10        	lda	($10),y                 ; 0x10 <__rc0>
    181a: aa           	tax
    181b: 68           	pla
    181c: a4 16        	ldy	$16                     ; 0x16 <__rc6>
    181e: c8           	iny
    181f: d0 01        	bne	$1822 <playMidi+0x326>
    1821: e8           	inx
    1822: 18           	clc
    1823: 69 19        	adc	#$19
    1825: 85 14        	sta	$14                     ; 0x14 <__rc4>
    1827: a5 27        	lda	$27                     ; 0x27 <__rc23>
    1829: 69 00        	adc	#$0
    182b: 85 27        	sta	$27                     ; 0x27 <__rc23>
    182d: e4 13        	cpx	$13                     ; 0x13 <__rc3>
    182f: d0 04        	bne	$1835 <playMidi+0x339>
    1831: c4 12        	cpy	$12                     ; 0x12 <__rc2>
    1833: 80 02        	bra	$1837 <playMidi+0x33b>
    1835: e4 13        	cpx	$13                     ; 0x13 <__rc3>
    1837: a5 14        	lda	$14                     ; 0x14 <__rc4>
    1839: b0 03        	bcs	$183e <playMidi+0x342>
    183b: 4c ed 16     	jmp	$16ed <playMidi+0x1f1>
    183e: a5 7e        	lda	$7e                     ; 0x7e <theOne.6>
    1840: a2 19        	ldx	#$19
    1842: 86 12        	stx	$12                     ; 0x12 <__rc2>
    1844: 64 13        	stz	$13                     ; 0x13 <__rc3>
    1846: a2 00        	ldx	#$0
    1848: 85 26        	sta	$26                     ; 0x26 <__rc22>
    184a: 20 58 4d     	jsr	$4d58 <__mulhi3>
    184d: 86 12        	stx	$12                     ; 0x12 <__rc2>
    184f: 18           	clc
    1850: 65 24        	adc	$24                     ; 0x24 <__rc20>
    1852: aa           	tax
    1853: a5 25        	lda	$25                     ; 0x25 <__rc21>
    1855: 65 12        	adc	$12                     ; 0x12 <__rc2>
    1857: 86 12        	stx	$12                     ; 0x12 <__rc2>
    1859: 85 13        	sta	$13                     ; 0x13 <__rc3>
    185b: a8           	tay
    185c: 8a           	txa
    185d: 18           	clc
    185e: 69 04        	adc	#$4
    1860: 85 14        	sta	$14                     ; 0x14 <__rc4>
    1862: 98           	tya
    1863: 69 00        	adc	#$0
    1865: 85 15        	sta	$15                     ; 0x15 <__rc5>
    1867: a0 03        	ldy	#$3
    1869: b1 14        	lda	($14),y                 ; 0x14 <__rc4>
    186b: d1 12        	cmp	($12),y                 ; 0x12 <__rc2>
    186d: d0 2c        	bne	$189b <playMidi+0x39f>
    186f: a0 02        	ldy	#$2
    1871: b1 14        	lda	($14),y                 ; 0x14 <__rc4>
    1873: aa           	tax
    1874: b1 12        	lda	($12),y                 ; 0x12 <__rc2>
    1876: 85 16        	sta	$16                     ; 0x16 <__rc6>
    1878: e4 16        	cpx	$16                     ; 0x16 <__rc6>
    187a: d0 34        	bne	$18b0 <playMidi+0x3b4>
    187c: a0 01        	ldy	#$1
    187e: b1 14        	lda	($14),y                 ; 0x14 <__rc4>
    1880: aa           	tax
    1881: b1 12        	lda	($12),y                 ; 0x12 <__rc2>
    1883: 85 14        	sta	$14                     ; 0x14 <__rc4>
    1885: e4 14        	cpx	$14                     ; 0x14 <__rc4>
    1887: d0 0c        	bne	$1895 <playMidi+0x399>
    1889: a0 04        	ldy	#$4
    188b: b1 12        	lda	($12),y                 ; 0x12 <__rc2>
    188d: 85 15        	sta	$15                     ; 0x15 <__rc5>
    188f: b2 12        	lda	($12)                   ; 0x12 <__rc2>
    1891: 85 14        	sta	$14                     ; 0x14 <__rc4>
    1893: a6 15        	ldx	$15                     ; 0x15 <__rc5>
    1895: e4 14        	cpx	$14                     ; 0x14 <__rc4>
    1897: b0 06        	bcs	$189f <playMidi+0x3a3>
    1899: 80 19        	bra	$18b4 <playMidi+0x3b8>
    189b: d1 12        	cmp	($12),y                 ; 0x12 <__rc2>
    189d: 90 15        	bcc	$18b4 <playMidi+0x3b8>
    189f: a0 18        	ldy	#$18
    18a1: a9 01        	lda	#$1
    18a3: 91 12        	sta	($12),y                 ; 0x12 <__rc2>
    18a5: e6 80        	inc	$80                     ; 0x80 <theOne.7>
    18a7: d0 02        	bne	$18ab <playMidi+0x3af>
    18a9: e6 81        	inc	$81                     ; 0x81 <theOne.7+0x1>
    18ab: a5 26        	lda	$26                     ; 0x26 <__rc22>
    18ad: 4c 24 19     	jmp	$1924 <playMidi+0x428>
    18b0: e4 16        	cpx	$16                     ; 0x16 <__rc6>
    18b2: b0 eb        	bcs	$189f <playMidi+0x3a3>
    18b4: a6 26        	ldx	$26                     ; 0x26 <__rc22>
    18b6: 86 24        	stx	$24                     ; 0x24 <__rc20>
    18b8: a5 26        	lda	$26                     ; 0x26 <__rc22>
    18ba: 20 32 05     	jsr	$532 <readDelta>
    18bd: 85 28        	sta	$28                     ; 0x28 <__rc24>
    18bf: 86 27        	stx	$27                     ; 0x27 <__rc23>
    18c1: a5 12        	lda	$12                     ; 0x12 <__rc2>
    18c3: a0 02        	ldy	#$2
    18c5: 91 10        	sta	($10),y                 ; 0x10 <__rc0>
    18c7: a5 13        	lda	$13                     ; 0x13 <__rc3>
    18c9: c8           	iny
    18ca: 91 10        	sta	($10),y                 ; 0x10 <__rc0>
    18cc: a6 82        	ldx	$82                     ; 0x82 <theOne.8>
    18ce: 86 26        	stx	$26                     ; 0x26 <__rc22>
    18d0: a6 83        	ldx	$83                     ; 0x83 <theOne.8+0x1>
    18d2: 86 25        	stx	$25                     ; 0x25 <__rc21>
    18d4: a2 19        	ldx	#$19
    18d6: 64 13        	stz	$13                     ; 0x13 <__rc3>
    18d8: 86 12        	stx	$12                     ; 0x12 <__rc2>
    18da: a2 00        	ldx	#$0
    18dc: a5 24        	lda	$24                     ; 0x24 <__rc20>
    18de: 20 58 4d     	jsr	$4d58 <__mulhi3>
    18e1: 85 12        	sta	$12                     ; 0x12 <__rc2>
    18e3: 86 13        	stx	$13                     ; 0x13 <__rc3>
    18e5: 18           	clc
    18e6: a5 26        	lda	$26                     ; 0x26 <__rc22>
    18e8: 65 12        	adc	$12                     ; 0x12 <__rc2>
    18ea: a8           	tay
    18eb: a5 25        	lda	$25                     ; 0x25 <__rc21>
    18ed: 65 13        	adc	$13                     ; 0x13 <__rc3>
    18ef: aa           	tax
    18f0: 84 12        	sty	$12                     ; 0x12 <__rc2>
    18f2: 84 14        	sty	$14                     ; 0x14 <__rc4>
    18f4: 85 13        	sta	$13                     ; 0x13 <__rc3>
    18f6: a0 0c        	ldy	#$c
    18f8: a5 28        	lda	$28                     ; 0x28 <__rc24>
    18fa: 91 12        	sta	($12),y                 ; 0x12 <__rc2>
    18fc: 18           	clc
    18fd: a5 14        	lda	$14                     ; 0x14 <__rc4>
    18ff: 69 0c        	adc	#$c
    1901: 85 12        	sta	$12                     ; 0x12 <__rc2>
    1903: 8a           	txa
    1904: 69 00        	adc	#$0
    1906: 85 13        	sta	$13                     ; 0x13 <__rc3>
    1908: a0 01        	ldy	#$1
    190a: a5 27        	lda	$27                     ; 0x27 <__rc23>
    190c: 91 12        	sta	($12),y                 ; 0x12 <__rc2>
    190e: c8           	iny
    190f: 5a           	phy
    1910: b1 10        	lda	($10),y                 ; 0x10 <__rc0>
    1912: 7a           	ply
    1913: 91 12        	sta	($12),y                 ; 0x12 <__rc2>
    1915: a0 03        	ldy	#$3
    1917: 5a           	phy
    1918: b1 10        	lda	($10),y                 ; 0x10 <__rc0>
    191a: 7a           	ply
    191b: 91 12        	sta	($12),y                 ; 0x12 <__rc2>
    191d: a5 24        	lda	$24                     ; 0x24 <__rc20>
    191f: 20 f3 09     	jsr	$9f3 <readMIDICmd>
    1922: a5 7e        	lda	$7e                     ; 0x7e <theOne.6>
    1924: 20 ce 11     	jsr	$11ce <exhaustZeroes>
    1927: 64 79        	stz	$79                     ; 0x79 <theOne.4>
    1929: a0 00        	ldy	#$0
    192b: b1 10        	lda	($10),y                 ; 0x10 <__rc0>
    192d: 85 28        	sta	$28                     ; 0x28 <__rc24>
    192f: fa           	plx
    1930: 86 27        	stx	$27                     ; 0x27 <__rc23>
    1932: fa           	plx
    1933: 86 26        	stx	$26                     ; 0x26 <__rc22>
    1935: fa           	plx
    1936: 86 25        	stx	$25                     ; 0x25 <__rc21>
    1938: fa           	plx
    1939: 86 24        	stx	$24                     ; 0x24 <__rc20>
    193b: 18           	clc
    193c: a5 10        	lda	$10                     ; 0x10 <__rc0>
    193e: 69 04        	adc	#$4
    1940: 85 10        	sta	$10                     ; 0x10 <__rc0>
    1942: a5 11        	lda	$11                     ; 0x11 <__rc1>
    1944: 69 00        	adc	#$0
    1946: 85 11        	sta	$11                     ; 0x11 <__rc1>
    1948: 60           	rts
    1949: 84 18        	sty	$18                     ; 0x18 <__rc8>
    194b: a5 26        	lda	$26                     ; 0x26 <__rc22>
    194d: a4 1b        	ldy	$1b                     ; 0x1b <__rc11>
    194f: c4 15        	cpy	$15                     ; 0x15 <__rc5>
    1951: d0 34        	bne	$1987 <playMidi+0x48b>
    1953: a4 17        	ldy	$17                     ; 0x17 <__rc7>
    1955: 48           	pha
    1956: a5 18        	lda	$18                     ; 0x18 <__rc8>
    1958: 85 16        	sta	$16                     ; 0x16 <__rc6>
    195a: 68           	pla
    195b: c4 14        	cpy	$14                     ; 0x14 <__rc4>
    195d: f0 03        	beq	$1962 <playMidi+0x466>
    195f: 4c 1c 18     	jmp	$181c <playMidi+0x320>
    1962: a5 18        	lda	$18                     ; 0x18 <__rc8>
    1964: 20 ce 11     	jsr	$11ce <exhaustZeroes>
    1967: a6 82        	ldx	$82                     ; 0x82 <theOne.8>
    1969: a4 83        	ldy	$83                     ; 0x83 <theOne.8+0x1>
    196b: 86 24        	stx	$24                     ; 0x24 <__rc20>
    196d: 84 25        	sty	$25                     ; 0x25 <__rc21>
    196f: a6 71        	ldx	$71                     ; 0x71 <theOne.0>
    1971: a4 72        	ldy	$72                     ; 0x72 <theOne.0+0x1>
    1973: 86 12        	stx	$12                     ; 0x12 <__rc2>
    1975: 84 13        	sty	$13                     ; 0x13 <__rc3>
    1977: a6 28        	ldx	$28                     ; 0x28 <__rc24>
    1979: 86 16        	stx	$16                     ; 0x16 <__rc6>
    197b: a5 26        	lda	$26                     ; 0x26 <__rc22>
    197d: 4c 15 18     	jmp	$1815 <playMidi+0x319>
    1980: a5 26        	lda	$26                     ; 0x26 <__rc22>
    1982: 84 16        	sty	$16                     ; 0x16 <__rc6>
    1984: 4c 1c 18     	jmp	$181c <playMidi+0x320>
    1987: a4 18        	ldy	$18                     ; 0x18 <__rc8>
    1989: 84 16        	sty	$16                     ; 0x16 <__rc6>
    198b: 4c 1c 18     	jmp	$181c <playMidi+0x320>

0000198e <initTrack>:
    198e: 18           	clc
    198f: a5 10        	lda	$10                     ; 0x10 <__rc0>
    1991: 69 f9        	adc	#$f9
    1993: 85 10        	sta	$10                     ; 0x10 <__rc0>
    1995: a5 11        	lda	$11                     ; 0x11 <__rc1>
    1997: 69 ff        	adc	#$ff
    1999: 85 11        	sta	$11                     ; 0x11 <__rc1>
    199b: a6 24        	ldx	$24                     ; 0x24 <__rc20>
    199d: da           	phx
    199e: a6 25        	ldx	$25                     ; 0x25 <__rc21>
    19a0: da           	phx
    19a1: a6 26        	ldx	$26                     ; 0x26 <__rc22>
    19a3: da           	phx
    19a4: a6 27        	ldx	$27                     ; 0x27 <__rc23>
    19a6: da           	phx
    19a7: a5 28        	lda	$28                     ; 0x28 <__rc24>
    19a9: a0 02        	ldy	#$2
    19ab: 91 10        	sta	($10),y                 ; 0x10 <__rc0>
    19ad: a5 29        	lda	$29                     ; 0x29 <__rc25>
    19af: 88           	dey
    19b0: 91 10        	sta	($10),y                 ; 0x10 <__rc0>
    19b2: a5 2a        	lda	$2a                     ; 0x2a <__rc26>
    19b4: 88           	dey
    19b5: 91 10        	sta	($10),y                 ; 0x10 <__rc0>
    19b7: a4 0f        	ldy	$f                      ; 0xf <__bss_size+0xe>
    19b9: 78           	sei
    19ba: a9 28        	lda	#$28
    19bc: 85 0f        	sta	$f                      ; 0xf <__bss_size+0xe>
    19be: ae 0a e0     	ldx	$e00a                   ; 0xe00a <__heap_start+0x8ef2>
    19c1: 84 0f        	sty	$f                      ; 0xf <__bss_size+0xe>
    19c3: 58           	cli
    19c4: a4 0f        	ldy	$f                      ; 0xf <__bss_size+0xe>
    19c6: 78           	sei
    19c7: 85 0f        	sta	$f                      ; 0xf <__bss_size+0xe>
    19c9: 85 24        	sta	$24                     ; 0x24 <__rc20>
    19cb: ad 0b e0     	lda	$e00b                   ; 0xe00b <__heap_start+0x8ef3>
    19ce: 84 0f        	sty	$f                      ; 0xf <__bss_size+0xe>
    19d0: 58           	cli
    19d1: 85 71        	sta	$71                     ; 0x71 <theOne.0>
    19d3: 86 72        	stx	$72                     ; 0x72 <theOne.0+0x1>
    19d5: a0 19        	ldy	#$19
    19d7: 64 13        	stz	$13                     ; 0x13 <__rc3>
    19d9: 84 12        	sty	$12                     ; 0x12 <__rc2>
    19db: 20 58 4d     	jsr	$4d58 <__mulhi3>
    19de: 20 e1 48     	jsr	$48e1 <malloc>
    19e1: a6 12        	ldx	$12                     ; 0x12 <__rc2>
    19e3: a4 13        	ldy	$13                     ; 0x13 <__rc3>
    19e5: 86 82        	stx	$82                     ; 0x82 <theOne.8>
    19e7: 84 83        	sty	$83                     ; 0x83 <theOne.8+0x1>
    19e9: 64 79        	stz	$79                     ; 0x79 <theOne.4>
    19eb: a2 20        	ldx	#$20
    19ed: 86 75        	stx	$75                     ; 0x75 <theOne.2>
    19ef: a2 a1        	ldx	#$a1
    19f1: 86 76        	stx	$76                     ; 0x76 <theOne.2+0x1>
    19f3: a2 07        	ldx	#$7
    19f5: 86 77        	stx	$77                     ; 0x77 <theOne.2+0x2>
    19f7: 64 78        	stz	$78                     ; 0x78 <theOne.2+0x3>
    19f9: a2 ff        	ldx	#$ff
    19fb: 86 7a        	stx	$7a                     ; 0x7a <theOne.5>
    19fd: 86 7b        	stx	$7b                     ; 0x7b <theOne.5+0x1>
    19ff: 86 7c        	stx	$7c                     ; 0x7c <theOne.5+0x2>
    1a01: 86 7d        	stx	$7d                     ; 0x7d <theOne.5+0x3>
    1a03: 64 7e        	stz	$7e                     ; 0x7e <theOne.6>
    1a05: 64 7f        	stz	$7f                     ; 0x7f <theOne.6+0x1>
    1a07: a2 30        	ldx	#$30
    1a09: 86 73        	stx	$73                     ; 0x73 <theOne.1>
    1a0b: 64 74        	stz	$74                     ; 0x74 <theOne.1+0x1>
    1a0d: 64 80        	stz	$80                     ; 0x80 <theOne.7>
    1a0f: 64 81        	stz	$81                     ; 0x81 <theOne.7+0x1>
    1a11: a4 0f        	ldy	$f                      ; 0xf <__bss_size+0xe>
    1a13: 78           	sei
    1a14: a5 24        	lda	$24                     ; 0x24 <__rc20>
    1a16: 85 0f        	sta	$f                      ; 0xf <__bss_size+0xe>
    1a18: ae 0c e0     	ldx	$e00c                   ; 0xe00c <__heap_start+0x8ef4>
    1a1b: 84 0f        	sty	$f                      ; 0xf <__bss_size+0xe>
    1a1d: 58           	cli
    1a1e: a4 0f        	ldy	$f                      ; 0xf <__bss_size+0xe>
    1a20: 78           	sei
    1a21: 85 0f        	sta	$f                      ; 0xf <__bss_size+0xe>
    1a23: ad 0d e0     	lda	$e00d                   ; 0xe00d <__heap_start+0x8ef5>
    1a26: 84 0f        	sty	$f                      ; 0xf <__bss_size+0xe>
    1a28: 58           	cli
    1a29: 85 73        	sta	$73                     ; 0x73 <theOne.1>
    1a2b: 86 74        	stx	$74                     ; 0x74 <theOne.1+0x1>
    1a2d: a6 71        	ldx	$71                     ; 0x71 <theOne.0>
    1a2f: a5 72        	lda	$72                     ; 0x72 <theOne.0+0x1>
    1a31: d0 07        	bne	$1a3a <initTrack+0xac>
    1a33: e0 00        	cpx	#$0
    1a35: d0 03        	bne	$1a3a <initTrack+0xac>
    1a37: 4c 3e 1e     	jmp	$1e3e <initTrack+0x4b0>
    1a3a: a4 82        	ldy	$82                     ; 0x82 <theOne.8>
    1a3c: 84 24        	sty	$24                     ; 0x24 <__rc20>
    1a3e: a4 83        	ldy	$83                     ; 0x83 <theOne.8+0x1>
    1a40: 84 25        	sty	$25                     ; 0x25 <__rc21>
    1a42: a0 17        	ldy	#$17
    1a44: 84 15        	sty	$15                     ; 0x15 <__rc5>
    1a46: 86 26        	stx	$26                     ; 0x26 <__rc22>
    1a48: 85 27        	sta	$27                     ; 0x27 <__rc23>
    1a4a: 80 06        	bra	$1a52 <initTrack+0xc4>
    1a4c: 85 25        	sta	$25                     ; 0x25 <__rc21>
    1a4e: a5 27        	lda	$27                     ; 0x27 <__rc23>
    1a50: f0 3b        	beq	$1a8d <initTrack+0xff>
    1a52: a6 24        	ldx	$24                     ; 0x24 <__rc20>
    1a54: 86 12        	stx	$12                     ; 0x12 <__rc2>
    1a56: a6 25        	ldx	$25                     ; 0x25 <__rc21>
    1a58: 86 13        	stx	$13                     ; 0x13 <__rc3>
    1a5a: 64 14        	stz	$14                     ; 0x14 <__rc4>
    1a5c: a9 00        	lda	#$0
    1a5e: a6 15        	ldx	$15                     ; 0x15 <__rc5>
    1a60: a4 15        	ldy	$15                     ; 0x15 <__rc5>
    1a62: 84 28        	sty	$28                     ; 0x28 <__rc24>
    1a64: 20 d9 4b     	jsr	$4bd9 <__memset>
    1a67: a2 17        	ldx	#$17
    1a69: 86 15        	stx	$15                     ; 0x15 <__rc5>
    1a6b: a9 01        	lda	#$1
    1a6d: a4 28        	ldy	$28                     ; 0x28 <__rc24>
    1a6f: 91 24        	sta	($24),y                 ; 0x24 <__rc20>
    1a71: a0 18        	ldy	#$18
    1a73: 3a           	dec
    1a74: 91 24        	sta	($24),y                 ; 0x24 <__rc20>
    1a76: a5 24        	lda	$24                     ; 0x24 <__rc20>
    1a78: 18           	clc
    1a79: 69 19        	adc	#$19
    1a7b: 85 24        	sta	$24                     ; 0x24 <__rc20>
    1a7d: a5 25        	lda	$25                     ; 0x25 <__rc21>
    1a7f: 69 00        	adc	#$0
    1a81: a2 ff        	ldx	#$ff
    1a83: c6 26        	dec	$26                     ; 0x26 <__rc22>
    1a85: e4 26        	cpx	$26                     ; 0x26 <__rc22>
    1a87: d0 c3        	bne	$1a4c <initTrack+0xbe>
    1a89: c6 27        	dec	$27                     ; 0x27 <__rc23>
    1a8b: 80 bf        	bra	$1a4c <initTrack+0xbe>
    1a8d: a5 26        	lda	$26                     ; 0x26 <__rc22>
    1a8f: d0 c1        	bne	$1a52 <initTrack+0xc4>
    1a91: a2 0e        	ldx	#$e
    1a93: 86 16        	stx	$16                     ; 0x16 <__rc6>
    1a95: 64 18        	stz	$18                     ; 0x18 <__rc8>
    1a97: a2 08        	ldx	#$8
    1a99: 86 19        	stx	$19                     ; 0x19 <__rc9>
    1a9b: 64 15        	stz	$15                     ; 0x15 <__rc5>
    1a9d: 64 14        	stz	$14                     ; 0x14 <__rc4>
    1a9f: a9 00        	lda	#$0
    1aa1: aa           	tax
    1aa2: 64 27        	stz	$27                     ; 0x27 <__rc23>
    1aa4: 85 12        	sta	$12                     ; 0x12 <__rc2>
    1aa6: a4 14        	ldy	$14                     ; 0x14 <__rc4>
    1aa8: 84 13        	sty	$13                     ; 0x13 <__rc3>
    1aaa: a4 15        	ldy	$15                     ; 0x15 <__rc5>
    1aac: 84 14        	sty	$14                     ; 0x14 <__rc4>
    1aae: a4 16        	ldy	$16                     ; 0x16 <__rc6>
    1ab0: 84 15        	sty	$15                     ; 0x15 <__rc5>
    1ab2: a5 16        	lda	$16                     ; 0x16 <__rc6>
    1ab4: 18           	clc
    1ab5: 69 04        	adc	#$4
    1ab7: 85 17        	sta	$17                     ; 0x17 <__rc7>
    1ab9: a5 14        	lda	$14                     ; 0x14 <__rc4>
    1abb: 69 00        	adc	#$0
    1abd: 85 1b        	sta	$1b                     ; 0x1b <__rc11>
    1abf: a5 13        	lda	$13                     ; 0x13 <__rc3>
    1ac1: 69 05        	adc	#$5
    1ac3: a4 1b        	ldy	$1b                     ; 0x1b <__rc11>
    1ac5: 84 16        	sty	$16                     ; 0x16 <__rc6>
    1ac7: 06 16        	asl	$16                     ; 0x16 <__rc6>
    1ac9: 2a           	rol
    1aca: 06 16        	asl	$16                     ; 0x16 <__rc6>
    1acc: 2a           	rol
    1acd: 06 16        	asl	$16                     ; 0x16 <__rc6>
    1acf: 2a           	rol
    1ad0: 86 1a        	stx	$1a                     ; 0x1a <__rc10>
    1ad2: a6 0f        	ldx	$f                      ; 0xf <__bss_size+0xe>
    1ad4: 78           	sei
    1ad5: 85 0f        	sta	$f                      ; 0xf <__bss_size+0xe>
    1ad7: a5 1b        	lda	$1b                     ; 0x1b <__rc11>
    1ad9: 09 e0        	ora	#$e0
    1adb: a4 17        	ldy	$17                     ; 0x17 <__rc7>
    1add: 84 16        	sty	$16                     ; 0x16 <__rc6>
    1adf: 85 17        	sta	$17                     ; 0x17 <__rc7>
    1ae1: b2 16        	lda	($16)                   ; 0x16 <__rc6>
    1ae3: 85 1c        	sta	$1c                     ; 0x1c <__rc12>
    1ae5: 86 0f        	stx	$f                      ; 0xf <__bss_size+0xe>
    1ae7: a5 15        	lda	$15                     ; 0x15 <__rc5>
    1ae9: 18           	clc
    1aea: 69 05        	adc	#$5
    1aec: 85 17        	sta	$17                     ; 0x17 <__rc7>
    1aee: a5 14        	lda	$14                     ; 0x14 <__rc4>
    1af0: 69 00        	adc	#$0
    1af2: 85 1b        	sta	$1b                     ; 0x1b <__rc11>
    1af4: a5 13        	lda	$13                     ; 0x13 <__rc3>
    1af6: 69 05        	adc	#$5
    1af8: a6 1b        	ldx	$1b                     ; 0x1b <__rc11>
    1afa: 86 16        	stx	$16                     ; 0x16 <__rc6>
    1afc: 06 16        	asl	$16                     ; 0x16 <__rc6>
    1afe: 2a           	rol
    1aff: 06 16        	asl	$16                     ; 0x16 <__rc6>
    1b01: 2a           	rol
    1b02: 06 16        	asl	$16                     ; 0x16 <__rc6>
    1b04: 2a           	rol
    1b05: 58           	cli
    1b06: a6 0f        	ldx	$f                      ; 0xf <__bss_size+0xe>
    1b08: 78           	sei
    1b09: 85 0f        	sta	$f                      ; 0xf <__bss_size+0xe>
    1b0b: a5 1b        	lda	$1b                     ; 0x1b <__rc11>
    1b0d: 09 e0        	ora	#$e0
    1b0f: a4 17        	ldy	$17                     ; 0x17 <__rc7>
    1b11: 84 16        	sty	$16                     ; 0x16 <__rc6>
    1b13: 85 17        	sta	$17                     ; 0x17 <__rc7>
    1b15: b2 16        	lda	($16)                   ; 0x16 <__rc6>
    1b17: 85 1d        	sta	$1d                     ; 0x1d <__rc13>
    1b19: 86 0f        	stx	$f                      ; 0xf <__bss_size+0xe>
    1b1b: a5 15        	lda	$15                     ; 0x15 <__rc5>
    1b1d: 18           	clc
    1b1e: 69 06        	adc	#$6
    1b20: 85 17        	sta	$17                     ; 0x17 <__rc7>
    1b22: a5 14        	lda	$14                     ; 0x14 <__rc4>
    1b24: 69 00        	adc	#$0
    1b26: 85 1b        	sta	$1b                     ; 0x1b <__rc11>
    1b28: a5 13        	lda	$13                     ; 0x13 <__rc3>
    1b2a: 69 05        	adc	#$5
    1b2c: a6 1b        	ldx	$1b                     ; 0x1b <__rc11>
    1b2e: 86 16        	stx	$16                     ; 0x16 <__rc6>
    1b30: 06 16        	asl	$16                     ; 0x16 <__rc6>
    1b32: 2a           	rol
    1b33: 06 16        	asl	$16                     ; 0x16 <__rc6>
    1b35: 2a           	rol
    1b36: 06 16        	asl	$16                     ; 0x16 <__rc6>
    1b38: 2a           	rol
    1b39: 58           	cli
    1b3a: a6 0f        	ldx	$f                      ; 0xf <__bss_size+0xe>
    1b3c: 78           	sei
    1b3d: 85 0f        	sta	$f                      ; 0xf <__bss_size+0xe>
    1b3f: a4 17        	ldy	$17                     ; 0x17 <__rc7>
    1b41: 84 16        	sty	$16                     ; 0x16 <__rc6>
    1b43: a5 1b        	lda	$1b                     ; 0x1b <__rc11>
    1b45: 09 e0        	ora	#$e0
    1b47: 85 17        	sta	$17                     ; 0x17 <__rc7>
    1b49: b2 16        	lda	($16)                   ; 0x16 <__rc6>
    1b4b: 85 22        	sta	$22                     ; 0x22 <__rc18>
    1b4d: 86 0f        	stx	$f                      ; 0xf <__bss_size+0xe>
    1b4f: a5 15        	lda	$15                     ; 0x15 <__rc5>
    1b51: 18           	clc
    1b52: 69 07        	adc	#$7
    1b54: 85 17        	sta	$17                     ; 0x17 <__rc7>
    1b56: a5 14        	lda	$14                     ; 0x14 <__rc4>
    1b58: 69 00        	adc	#$0
    1b5a: 85 1b        	sta	$1b                     ; 0x1b <__rc11>
    1b5c: a5 13        	lda	$13                     ; 0x13 <__rc3>
    1b5e: 69 05        	adc	#$5
    1b60: a6 1b        	ldx	$1b                     ; 0x1b <__rc11>
    1b62: 86 16        	stx	$16                     ; 0x16 <__rc6>
    1b64: 06 16        	asl	$16                     ; 0x16 <__rc6>
    1b66: 2a           	rol
    1b67: 06 16        	asl	$16                     ; 0x16 <__rc6>
    1b69: 2a           	rol
    1b6a: 06 16        	asl	$16                     ; 0x16 <__rc6>
    1b6c: 2a           	rol
    1b6d: 58           	cli
    1b6e: a6 0f        	ldx	$f                      ; 0xf <__bss_size+0xe>
    1b70: 78           	sei
    1b71: 85 0f        	sta	$f                      ; 0xf <__bss_size+0xe>
    1b73: a4 17        	ldy	$17                     ; 0x17 <__rc7>
    1b75: 84 16        	sty	$16                     ; 0x16 <__rc6>
    1b77: a5 1b        	lda	$1b                     ; 0x1b <__rc11>
    1b79: 09 e0        	ora	#$e0
    1b7b: 85 17        	sta	$17                     ; 0x17 <__rc7>
    1b7d: b2 16        	lda	($16)                   ; 0x16 <__rc6>
    1b7f: 85 25        	sta	$25                     ; 0x25 <__rc21>
    1b81: 86 0f        	stx	$f                      ; 0xf <__bss_size+0xe>
    1b83: 58           	cli
    1b84: a6 82        	ldx	$82                     ; 0x82 <theOne.8>
    1b86: 86 1e        	stx	$1e                     ; 0x1e <__rc14>
    1b88: a6 83        	ldx	$83                     ; 0x83 <theOne.8+0x1>
    1b8a: 86 1f        	stx	$1f                     ; 0x1f <__rc15>
    1b8c: a6 19        	ldx	$19                     ; 0x19 <__rc9>
    1b8e: 86 24        	stx	$24                     ; 0x24 <__rc20>
    1b90: a5 19        	lda	$19                     ; 0x19 <__rc9>
    1b92: 18           	clc
    1b93: 65 82        	adc	$82                     ; 0x82 <theOne.8>
    1b95: aa           	tax
    1b96: a4 18        	ldy	$18                     ; 0x18 <__rc8>
    1b98: 84 23        	sty	$23                     ; 0x23 <__rc19>
    1b9a: a5 18        	lda	$18                     ; 0x18 <__rc8>
    1b9c: 65 83        	adc	$83                     ; 0x83 <theOne.8+0x1>
    1b9e: 86 16        	stx	$16                     ; 0x16 <__rc6>
    1ba0: 85 17        	sta	$17                     ; 0x17 <__rc7>
    1ba2: 85 19        	sta	$19                     ; 0x19 <__rc9>
    1ba4: 18           	clc
    1ba5: 8a           	txa
    1ba6: 69 f8        	adc	#$f8
    1ba8: 85 18        	sta	$18                     ; 0x18 <__rc8>
    1baa: a5 19        	lda	$19                     ; 0x19 <__rc9>
    1bac: 69 ff        	adc	#$ff
    1bae: 85 19        	sta	$19                     ; 0x19 <__rc9>
    1bb0: a5 15        	lda	$15                     ; 0x15 <__rc5>
    1bb2: 18           	clc
    1bb3: 69 08        	adc	#$8
    1bb5: aa           	tax
    1bb6: a5 14        	lda	$14                     ; 0x14 <__rc4>
    1bb8: 69 00        	adc	#$0
    1bba: 85 1b        	sta	$1b                     ; 0x1b <__rc11>
    1bbc: a5 13        	lda	$13                     ; 0x13 <__rc3>
    1bbe: 69 05        	adc	#$5
    1bc0: 85 26        	sta	$26                     ; 0x26 <__rc22>
    1bc2: a5 12        	lda	$12                     ; 0x12 <__rc2>
    1bc4: 69 00        	adc	#$0
    1bc6: 85 29        	sta	$29                     ; 0x29 <__rc25>
    1bc8: 8a           	txa
    1bc9: 92 16        	sta	($16)                   ; 0x16 <__rc6>
    1bcb: a0 01        	ldy	#$1
    1bcd: a5 1b        	lda	$1b                     ; 0x1b <__rc11>
    1bcf: 91 16        	sta	($16),y                 ; 0x16 <__rc6>
    1bd1: 84 28        	sty	$28                     ; 0x28 <__rc24>
    1bd3: c8           	iny
    1bd4: a5 26        	lda	$26                     ; 0x26 <__rc22>
    1bd6: 91 16        	sta	($16),y                 ; 0x16 <__rc6>
    1bd8: 84 26        	sty	$26                     ; 0x26 <__rc22>
    1bda: c8           	iny
    1bdb: a5 29        	lda	$29                     ; 0x29 <__rc25>
    1bdd: 91 16        	sta	($16),y                 ; 0x16 <__rc6>
    1bdf: 84 16        	sty	$16                     ; 0x16 <__rc6>
    1be1: a5 25        	lda	$25                     ; 0x25 <__rc21>
    1be3: 92 18        	sta	($18)                   ; 0x18 <__rc8>
    1be5: a5 22        	lda	$22                     ; 0x22 <__rc18>
    1be7: a4 28        	ldy	$28                     ; 0x28 <__rc24>
    1be9: 91 18        	sta	($18),y                 ; 0x18 <__rc8>
    1beb: a5 1d        	lda	$1d                     ; 0x1d <__rc13>
    1bed: a4 26        	ldy	$26                     ; 0x26 <__rc22>
    1bef: 91 18        	sta	($18),y                 ; 0x18 <__rc8>
    1bf1: a5 1c        	lda	$1c                     ; 0x1c <__rc12>
    1bf3: a4 16        	ldy	$16                     ; 0x16 <__rc6>
    1bf5: 91 18        	sta	($18),y                 ; 0x18 <__rc8>
    1bf7: 85 16        	sta	$16                     ; 0x16 <__rc6>
    1bf9: 18           	clc
    1bfa: a5 25        	lda	$25                     ; 0x25 <__rc21>
    1bfc: 65 15        	adc	$15                     ; 0x15 <__rc5>
    1bfe: 85 15        	sta	$15                     ; 0x15 <__rc5>
    1c00: a5 22        	lda	$22                     ; 0x22 <__rc18>
    1c02: 65 14        	adc	$14                     ; 0x14 <__rc4>
    1c04: a8           	tay
    1c05: a5 1d        	lda	$1d                     ; 0x1d <__rc13>
    1c07: 65 13        	adc	$13                     ; 0x13 <__rc3>
    1c09: aa           	tax
    1c0a: a5 16        	lda	$16                     ; 0x16 <__rc6>
    1c0c: 65 12        	adc	$12                     ; 0x12 <__rc2>
    1c0e: 85 12        	sta	$12                     ; 0x12 <__rc2>
    1c10: 18           	clc
    1c11: a5 15        	lda	$15                     ; 0x15 <__rc5>
    1c13: 69 08        	adc	#$8
    1c15: 85 16        	sta	$16                     ; 0x16 <__rc6>
    1c17: 98           	tya
    1c18: 69 00        	adc	#$0
    1c1a: 85 15        	sta	$15                     ; 0x15 <__rc5>
    1c1c: 8a           	txa
    1c1d: 69 00        	adc	#$0
    1c1f: 85 14        	sta	$14                     ; 0x14 <__rc4>
    1c21: a5 12        	lda	$12                     ; 0x12 <__rc2>
    1c23: 69 00        	adc	#$0
    1c25: 85 13        	sta	$13                     ; 0x13 <__rc3>
    1c27: a6 1a        	ldx	$1a                     ; 0x1a <__rc10>
    1c29: a4 27        	ldy	$27                     ; 0x27 <__rc23>
    1c2b: e8           	inx
    1c2c: d0 01        	bne	$1c2f <initTrack+0x2a1>
    1c2e: c8           	iny
    1c2f: a5 71        	lda	$71                     ; 0x71 <theOne.0>
    1c31: 85 12        	sta	$12                     ; 0x12 <__rc2>
    1c33: 18           	clc
    1c34: a5 24        	lda	$24                     ; 0x24 <__rc20>
    1c36: 69 19        	adc	#$19
    1c38: 85 19        	sta	$19                     ; 0x19 <__rc9>
    1c3a: a5 23        	lda	$23                     ; 0x23 <__rc19>
    1c3c: 69 00        	adc	#$0
    1c3e: 85 18        	sta	$18                     ; 0x18 <__rc8>
    1c40: 84 27        	sty	$27                     ; 0x27 <__rc23>
    1c42: c4 72        	cpy	$72                     ; 0x72 <theOne.0+0x1>
    1c44: d0 09        	bne	$1c4f <initTrack+0x2c1>
    1c46: e4 12        	cpx	$12                     ; 0x12 <__rc2>
    1c48: a5 13        	lda	$13                     ; 0x13 <__rc3>
    1c4a: b0 0c        	bcs	$1c58 <initTrack+0x2ca>
    1c4c: 4c a4 1a     	jmp	$1aa4 <initTrack+0x116>
    1c4f: c4 72        	cpy	$72                     ; 0x72 <theOne.0+0x1>
    1c51: a5 13        	lda	$13                     ; 0x13 <__rc3>
    1c53: b0 03        	bcs	$1c58 <initTrack+0x2ca>
    1c55: 4c a4 1a     	jmp	$1aa4 <initTrack+0x116>
    1c58: a6 72        	ldx	$72                     ; 0x72 <theOne.0+0x1>
    1c5a: d0 07        	bne	$1c63 <initTrack+0x2d5>
    1c5c: a5 12        	lda	$12                     ; 0x12 <__rc2>
    1c5e: d0 03        	bne	$1c63 <initTrack+0x2d5>
    1c60: 4c 3e 1e     	jmp	$1e3e <initTrack+0x4b0>
    1c63: a6 1e        	ldx	$1e                     ; 0x1e <__rc14>
    1c65: 86 12        	stx	$12                     ; 0x12 <__rc2>
    1c67: a6 1f        	ldx	$1f                     ; 0x1f <__rc15>
    1c69: 86 13        	stx	$13                     ; 0x13 <__rc3>
    1c6b: a2 19        	ldx	#$19
    1c6d: 86 2a        	stx	$2a                     ; 0x2a <__rc26>
    1c6f: 64 15        	stz	$15                     ; 0x15 <__rc5>
    1c71: 64 27        	stz	$27                     ; 0x27 <__rc23>
    1c73: a0 00        	ldy	#$0
    1c75: 98           	tya
    1c76: 85 29        	sta	$29                     ; 0x29 <__rc25>
    1c78: 84 28        	sty	$28                     ; 0x28 <__rc24>
    1c7a: a5 15        	lda	$15                     ; 0x15 <__rc5>
    1c7c: 18           	clc
    1c7d: a2 01        	ldx	#$1
    1c7f: b0 02        	bcs	$1c83 <initTrack+0x2f5>
    1c81: a2 00        	ldx	#$0
    1c83: 86 17        	stx	$17                     ; 0x17 <__rc7>
    1c85: 65 12        	adc	$12                     ; 0x12 <__rc2>
    1c87: 85 14        	sta	$14                     ; 0x14 <__rc4>
    1c89: a6 15        	ldx	$15                     ; 0x15 <__rc5>
    1c8b: a5 27        	lda	$27                     ; 0x27 <__rc23>
    1c8d: 65 13        	adc	$13                     ; 0x13 <__rc3>
    1c8f: 85 15        	sta	$15                     ; 0x15 <__rc5>
    1c91: a0 18        	ldy	#$18
    1c93: b1 14        	lda	($14),y                 ; 0x14 <__rc4>
    1c95: f0 07        	beq	$1c9e <initTrack+0x310>
    1c97: 86 26        	stx	$26                     ; 0x26 <__rc22>
    1c99: a4 28        	ldy	$28                     ; 0x28 <__rc24>
    1c9b: 4c 6e 1d     	jmp	$1d6e <initTrack+0x3e0>
    1c9e: 86 26        	stx	$26                     ; 0x26 <__rc22>
    1ca0: 8a           	txa
    1ca1: a6 17        	ldx	$17                     ; 0x17 <__rc7>
    1ca3: e0 01        	cpx	#$1
    1ca5: 65 12        	adc	$12                     ; 0x12 <__rc2>
    1ca7: aa           	tax
    1ca8: a5 27        	lda	$27                     ; 0x27 <__rc23>
    1caa: 65 13        	adc	$13                     ; 0x13 <__rc3>
    1cac: a8           	tay
    1cad: 18           	clc
    1cae: 8a           	txa
    1caf: 69 04        	adc	#$4
    1cb1: 85 16        	sta	$16                     ; 0x16 <__rc6>
    1cb3: 98           	tya
    1cb4: 84 19        	sty	$19                     ; 0x19 <__rc9>
    1cb6: 69 00        	adc	#$0
    1cb8: 85 17        	sta	$17                     ; 0x17 <__rc7>
    1cba: a0 03        	ldy	#$3
    1cbc: b1 16        	lda	($16),y                 ; 0x16 <__rc6>
    1cbe: d1 14        	cmp	($14),y                 ; 0x14 <__rc4>
    1cc0: d0 29        	bne	$1ceb <initTrack+0x35d>
    1cc2: a0 02        	ldy	#$2
    1cc4: b1 16        	lda	($16),y                 ; 0x16 <__rc6>
    1cc6: 85 1a        	sta	$1a                     ; 0x1a <__rc10>
    1cc8: b1 14        	lda	($14),y                 ; 0x14 <__rc4>
    1cca: 85 18        	sta	$18                     ; 0x18 <__rc8>
    1ccc: a4 1a        	ldy	$1a                     ; 0x1a <__rc10>
    1cce: c4 18        	cpy	$18                     ; 0x18 <__rc8>
    1cd0: f0 03        	beq	$1cd5 <initTrack+0x347>
    1cd2: 4c 5b 1d     	jmp	$1d5b <initTrack+0x3cd>
    1cd5: a0 01        	ldy	#$1
    1cd7: b1 16        	lda	($16),y                 ; 0x16 <__rc6>
    1cd9: 85 17        	sta	$17                     ; 0x17 <__rc7>
    1cdb: b1 14        	lda	($14),y                 ; 0x14 <__rc4>
    1cdd: 85 16        	sta	$16                     ; 0x16 <__rc6>
    1cdf: a4 17        	ldy	$17                     ; 0x17 <__rc7>
    1ce1: c4 16        	cpy	$16                     ; 0x16 <__rc6>
    1ce3: f0 03        	beq	$1ce8 <initTrack+0x35a>
    1ce5: 4c 86 1e     	jmp	$1e86 <initTrack+0x4f8>
    1ce8: 4c 68 1e     	jmp	$1e68 <initTrack+0x4da>
    1ceb: d1 14        	cmp	($14),y                 ; 0x14 <__rc4>
    1ced: a4 28        	ldy	$28                     ; 0x28 <__rc24>
    1cef: 90 03        	bcc	$1cf4 <initTrack+0x366>
    1cf1: 4c 64 1d     	jmp	$1d64 <initTrack+0x3d6>
    1cf4: 64 39        	stz	$39                     ; 0x39 <_col>
    1cf6: 9c 14 d0     	stz	$d014                   ; 0xd014 <__heap_start+0x7efc>
    1cf9: 9c 15 d0     	stz	$d015                   ; 0xd015 <__heap_start+0x7efd>
    1cfc: 98           	tya
    1cfd: 18           	clc
    1cfe: 69 0f        	adc	#$f
    1d00: 85 3a        	sta	$3a                     ; 0x3a <_row>
    1d02: 8d 16 d0     	sta	$d016                   ; 0xd016 <__heap_start+0x7efe>
    1d05: 9c 17 d0     	stz	$d017                   ; 0xd017 <__heap_start+0x7eff>
    1d08: a6 82        	ldx	$82                     ; 0x82 <theOne.8>
    1d0a: 86 25        	stx	$25                     ; 0x25 <__rc21>
    1d0c: a6 83        	ldx	$83                     ; 0x83 <theOne.8+0x1>
    1d0e: 86 24        	stx	$24                     ; 0x24 <__rc20>
    1d10: a6 2a        	ldx	$2a                     ; 0x2a <__rc26>
    1d12: 86 12        	stx	$12                     ; 0x12 <__rc2>
    1d14: 64 13        	stz	$13                     ; 0x13 <__rc3>
    1d16: a2 00        	ldx	#$0
    1d18: 98           	tya
    1d19: 20 58 4d     	jsr	$4d58 <__mulhi3>
    1d1c: 85 12        	sta	$12                     ; 0x12 <__rc2>
    1d1e: 86 13        	stx	$13                     ; 0x13 <__rc3>
    1d20: a6 25        	ldx	$25                     ; 0x25 <__rc21>
    1d22: 86 17        	stx	$17                     ; 0x17 <__rc7>
    1d24: a5 25        	lda	$25                     ; 0x25 <__rc21>
    1d26: 18           	clc
    1d27: 65 12        	adc	$12                     ; 0x12 <__rc2>
    1d29: aa           	tax
    1d2a: a5 24        	lda	$24                     ; 0x24 <__rc20>
    1d2c: 85 18        	sta	$18                     ; 0x18 <__rc8>
    1d2e: 65 13        	adc	$13                     ; 0x13 <__rc3>
    1d30: 86 14        	stx	$14                     ; 0x14 <__rc4>
    1d32: 85 15        	sta	$15                     ; 0x15 <__rc5>
    1d34: a8           	tay
    1d35: 18           	clc
    1d36: 8a           	txa
    1d37: 69 04        	adc	#$4
    1d39: 85 12        	sta	$12                     ; 0x12 <__rc2>
    1d3b: 98           	tya
    1d3c: 69 00        	adc	#$0
    1d3e: 85 13        	sta	$13                     ; 0x13 <__rc3>
    1d40: a0 03        	ldy	#$3
    1d42: b1 12        	lda	($12),y                 ; 0x12 <__rc2>
    1d44: d1 14        	cmp	($14),y                 ; 0x14 <__rc4>
    1d46: d0 56        	bne	$1d9e <initTrack+0x410>
    1d48: a0 02        	ldy	#$2
    1d4a: b1 12        	lda	($12),y                 ; 0x12 <__rc2>
    1d4c: aa           	tax
    1d4d: b1 14        	lda	($14),y                 ; 0x14 <__rc4>
    1d4f: 85 16        	sta	$16                     ; 0x16 <__rc6>
    1d51: e4 16        	cpx	$16                     ; 0x16 <__rc6>
    1d53: f0 03        	beq	$1d58 <initTrack+0x3ca>
    1d55: 4c b0 1e     	jmp	$1eb0 <initTrack+0x522>
    1d58: 4c 92 1e     	jmp	$1e92 <initTrack+0x504>
    1d5b: c4 18        	cpy	$18                     ; 0x18 <__rc8>
    1d5d: a4 28        	ldy	$28                     ; 0x28 <__rc24>
    1d5f: b0 03        	bcs	$1d64 <initTrack+0x3d6>
    1d61: 4c f4 1c     	jmp	$1cf4 <initTrack+0x366>
    1d64: 84 16        	sty	$16                     ; 0x16 <__rc6>
    1d66: a9 01        	lda	#$1
    1d68: a0 18        	ldy	#$18
    1d6a: 91 14        	sta	($14),y                 ; 0x14 <__rc4>
    1d6c: a4 16        	ldy	$16                     ; 0x16 <__rc6>
    1d6e: a6 29        	ldx	$29                     ; 0x29 <__rc25>
    1d70: c8           	iny
    1d71: d0 01        	bne	$1d74 <initTrack+0x3e6>
    1d73: e8           	inx
    1d74: 18           	clc
    1d75: a5 26        	lda	$26                     ; 0x26 <__rc22>
    1d77: 69 19        	adc	#$19
    1d79: 85 15        	sta	$15                     ; 0x15 <__rc5>
    1d7b: a5 27        	lda	$27                     ; 0x27 <__rc23>
    1d7d: 69 00        	adc	#$0
    1d7f: 85 27        	sta	$27                     ; 0x27 <__rc23>
    1d81: 8a           	txa
    1d82: e4 72        	cpx	$72                     ; 0x72 <theOne.0+0x1>
    1d84: d0 0e        	bne	$1d94 <initTrack+0x406>
    1d86: a6 71        	ldx	$71                     ; 0x71 <theOne.0>
    1d88: 86 14        	stx	$14                     ; 0x14 <__rc4>
    1d8a: c4 14        	cpy	$14                     ; 0x14 <__rc4>
    1d8c: b0 03        	bcs	$1d91 <initTrack+0x403>
    1d8e: 4c 76 1c     	jmp	$1c76 <initTrack+0x2e8>
    1d91: 4c 3e 1e     	jmp	$1e3e <initTrack+0x4b0>
    1d94: c5 72        	cmp	$72                     ; 0x72 <theOne.0+0x1>
    1d96: b0 03        	bcs	$1d9b <initTrack+0x40d>
    1d98: 4c 76 1c     	jmp	$1c76 <initTrack+0x2e8>
    1d9b: 4c 3e 1e     	jmp	$1e3e <initTrack+0x4b0>
    1d9e: d1 14        	cmp	($14),y                 ; 0x14 <__rc4>
    1da0: a6 28        	ldx	$28                     ; 0x28 <__rc24>
    1da2: 90 19        	bcc	$1dbd <initTrack+0x42f>
    1da4: a4 17        	ldy	$17                     ; 0x17 <__rc7>
    1da6: 84 12        	sty	$12                     ; 0x12 <__rc2>
    1da8: a4 18        	ldy	$18                     ; 0x18 <__rc8>
    1daa: 84 13        	sty	$13                     ; 0x13 <__rc3>
    1dac: a9 01        	lda	#$1
    1dae: 86 16        	stx	$16                     ; 0x16 <__rc6>
    1db0: a0 18        	ldy	#$18
    1db2: 91 14        	sta	($14),y                 ; 0x14 <__rc4>
    1db4: a4 16        	ldy	$16                     ; 0x16 <__rc6>
    1db6: e6 80        	inc	$80                     ; 0x80 <theOne.7>
    1db8: d0 b4        	bne	$1d6e <initTrack+0x3e0>
    1dba: 4c b5 1e     	jmp	$1eb5 <initTrack+0x527>
    1dbd: 8a           	txa
    1dbe: 20 32 05     	jsr	$532 <readDelta>
    1dc1: a0 03        	ldy	#$3
    1dc3: 91 10        	sta	($10),y                 ; 0x10 <__rc0>
    1dc5: 8a           	txa
    1dc6: a0 06        	ldy	#$6
    1dc8: 91 10        	sta	($10),y                 ; 0x10 <__rc0>
    1dca: a5 12        	lda	$12                     ; 0x12 <__rc2>
    1dcc: 88           	dey
    1dcd: 91 10        	sta	($10),y                 ; 0x10 <__rc0>
    1dcf: a5 13        	lda	$13                     ; 0x13 <__rc3>
    1dd1: 88           	dey
    1dd2: 91 10        	sta	($10),y                 ; 0x10 <__rc0>
    1dd4: a6 82        	ldx	$82                     ; 0x82 <theOne.8>
    1dd6: 86 25        	stx	$25                     ; 0x25 <__rc21>
    1dd8: a6 83        	ldx	$83                     ; 0x83 <theOne.8+0x1>
    1dda: 86 24        	stx	$24                     ; 0x24 <__rc20>
    1ddc: a6 2a        	ldx	$2a                     ; 0x2a <__rc26>
    1dde: 86 12        	stx	$12                     ; 0x12 <__rc2>
    1de0: 64 13        	stz	$13                     ; 0x13 <__rc3>
    1de2: a2 00        	ldx	#$0
    1de4: a5 28        	lda	$28                     ; 0x28 <__rc24>
    1de6: 20 58 4d     	jsr	$4d58 <__mulhi3>
    1de9: 85 12        	sta	$12                     ; 0x12 <__rc2>
    1deb: 86 13        	stx	$13                     ; 0x13 <__rc3>
    1ded: 18           	clc
    1dee: a5 25        	lda	$25                     ; 0x25 <__rc21>
    1df0: 65 12        	adc	$12                     ; 0x12 <__rc2>
    1df2: a8           	tay
    1df3: a5 24        	lda	$24                     ; 0x24 <__rc20>
    1df5: 65 13        	adc	$13                     ; 0x13 <__rc3>
    1df7: aa           	tax
    1df8: 98           	tya
    1df9: 84 12        	sty	$12                     ; 0x12 <__rc2>
    1dfb: 86 13        	stx	$13                     ; 0x13 <__rc3>
    1dfd: 18           	clc
    1dfe: 69 0c        	adc	#$c
    1e00: 85 14        	sta	$14                     ; 0x14 <__rc4>
    1e02: 8a           	txa
    1e03: 69 00        	adc	#$0
    1e05: 85 15        	sta	$15                     ; 0x15 <__rc5>
    1e07: a0 0c        	ldy	#$c
    1e09: 5a           	phy
    1e0a: a0 03        	ldy	#$3
    1e0c: b1 10        	lda	($10),y                 ; 0x10 <__rc0>
    1e0e: 7a           	ply
    1e0f: 91 12        	sta	($12),y                 ; 0x12 <__rc2>
    1e11: a0 01        	ldy	#$1
    1e13: 5a           	phy
    1e14: a0 06        	ldy	#$6
    1e16: b1 10        	lda	($10),y                 ; 0x10 <__rc0>
    1e18: 7a           	ply
    1e19: 91 14        	sta	($14),y                 ; 0x14 <__rc4>
    1e1b: a0 02        	ldy	#$2
    1e1d: 5a           	phy
    1e1e: a0 05        	ldy	#$5
    1e20: b1 10        	lda	($10),y                 ; 0x10 <__rc0>
    1e22: 7a           	ply
    1e23: 91 14        	sta	($14),y                 ; 0x14 <__rc4>
    1e25: a0 03        	ldy	#$3
    1e27: 5a           	phy
    1e28: c8           	iny
    1e29: b1 10        	lda	($10),y                 ; 0x10 <__rc0>
    1e2b: 7a           	ply
    1e2c: 91 14        	sta	($14),y                 ; 0x14 <__rc4>
    1e2e: a5 28        	lda	$28                     ; 0x28 <__rc24>
    1e30: 20 f3 09     	jsr	$9f3 <readMIDICmd>
    1e33: a6 82        	ldx	$82                     ; 0x82 <theOne.8>
    1e35: a4 83        	ldy	$83                     ; 0x83 <theOne.8+0x1>
    1e37: 86 12        	stx	$12                     ; 0x12 <__rc2>
    1e39: 84 13        	sty	$13                     ; 0x13 <__rc3>
    1e3b: 4c 99 1c     	jmp	$1c99 <initTrack+0x30b>
    1e3e: a0 00        	ldy	#$0
    1e40: b1 10        	lda	($10),y                 ; 0x10 <__rc0>
    1e42: 85 2a        	sta	$2a                     ; 0x2a <__rc26>
    1e44: c8           	iny
    1e45: b1 10        	lda	($10),y                 ; 0x10 <__rc0>
    1e47: 85 29        	sta	$29                     ; 0x29 <__rc25>
    1e49: c8           	iny
    1e4a: b1 10        	lda	($10),y                 ; 0x10 <__rc0>
    1e4c: 85 28        	sta	$28                     ; 0x28 <__rc24>
    1e4e: fa           	plx
    1e4f: 86 27        	stx	$27                     ; 0x27 <__rc23>
    1e51: fa           	plx
    1e52: 86 26        	stx	$26                     ; 0x26 <__rc22>
    1e54: fa           	plx
    1e55: 86 25        	stx	$25                     ; 0x25 <__rc21>
    1e57: fa           	plx
    1e58: 86 24        	stx	$24                     ; 0x24 <__rc20>
    1e5a: 18           	clc
    1e5b: a5 10        	lda	$10                     ; 0x10 <__rc0>
    1e5d: 69 07        	adc	#$7
    1e5f: 85 10        	sta	$10                     ; 0x10 <__rc0>
    1e61: a5 11        	lda	$11                     ; 0x11 <__rc1>
    1e63: 69 00        	adc	#$0
    1e65: 85 11        	sta	$11                     ; 0x11 <__rc1>
    1e67: 60           	rts
    1e68: 86 16        	stx	$16                     ; 0x16 <__rc6>
    1e6a: a6 19        	ldx	$19                     ; 0x19 <__rc9>
    1e6c: 86 17        	stx	$17                     ; 0x17 <__rc7>
    1e6e: a0 04        	ldy	#$4
    1e70: b1 16        	lda	($16),y                 ; 0x16 <__rc6>
    1e72: 85 17        	sta	$17                     ; 0x17 <__rc7>
    1e74: b2 14        	lda	($14)                   ; 0x14 <__rc4>
    1e76: 85 16        	sta	$16                     ; 0x16 <__rc6>
    1e78: a6 17        	ldx	$17                     ; 0x17 <__rc7>
    1e7a: e4 16        	cpx	$16                     ; 0x16 <__rc6>
    1e7c: a4 28        	ldy	$28                     ; 0x28 <__rc24>
    1e7e: b0 03        	bcs	$1e83 <initTrack+0x4f5>
    1e80: 4c f4 1c     	jmp	$1cf4 <initTrack+0x366>
    1e83: 4c 64 1d     	jmp	$1d64 <initTrack+0x3d6>
    1e86: c4 16        	cpy	$16                     ; 0x16 <__rc6>
    1e88: a4 28        	ldy	$28                     ; 0x28 <__rc24>
    1e8a: b0 03        	bcs	$1e8f <initTrack+0x501>
    1e8c: 4c f4 1c     	jmp	$1cf4 <initTrack+0x366>
    1e8f: 4c 64 1d     	jmp	$1d64 <initTrack+0x3d6>
    1e92: a0 01        	ldy	#$1
    1e94: b1 12        	lda	($12),y                 ; 0x12 <__rc2>
    1e96: aa           	tax
    1e97: b1 14        	lda	($14),y                 ; 0x14 <__rc4>
    1e99: 85 12        	sta	$12                     ; 0x12 <__rc2>
    1e9b: e4 12        	cpx	$12                     ; 0x12 <__rc2>
    1e9d: d0 0c        	bne	$1eab <initTrack+0x51d>
    1e9f: a0 04        	ldy	#$4
    1ea1: b1 14        	lda	($14),y                 ; 0x14 <__rc4>
    1ea3: 85 13        	sta	$13                     ; 0x13 <__rc3>
    1ea5: b2 14        	lda	($14)                   ; 0x14 <__rc4>
    1ea7: 85 12        	sta	$12                     ; 0x12 <__rc2>
    1ea9: a6 13        	ldx	$13                     ; 0x13 <__rc3>
    1eab: e4 12        	cpx	$12                     ; 0x12 <__rc2>
    1ead: 4c a0 1d     	jmp	$1da0 <initTrack+0x412>
    1eb0: e4 16        	cpx	$16                     ; 0x16 <__rc6>
    1eb2: 4c a0 1d     	jmp	$1da0 <initTrack+0x412>
    1eb5: e6 81        	inc	$81                     ; 0x81 <theOne.7+0x1>
    1eb7: 4c 6e 1d     	jmp	$1d6e <initTrack+0x3e0>

00001eba <sniffNextMIDI>:
    1eba: a6 71        	ldx	$71                     ; 0x71 <theOne.0>
    1ebc: a4 72        	ldy	$72                     ; 0x72 <theOne.0+0x1>
    1ebe: d0 06        	bne	$1ec6 <sniffNextMIDI+0xc>
    1ec0: 8a           	txa
    1ec1: d0 03        	bne	$1ec6 <sniffNextMIDI+0xc>
    1ec3: 4c 8a 1f     	jmp	$1f8a <sniffNextMIDI+0xd0>
    1ec6: 86 1a        	stx	$1a                     ; 0x1a <__rc10>
    1ec8: 84 1b        	sty	$1b                     ; 0x1b <__rc11>
    1eca: a5 82        	lda	$82                     ; 0x82 <theOne.8>
    1ecc: a6 83        	ldx	$83                     ; 0x83 <theOne.8+0x1>
    1ece: 86 12        	stx	$12                     ; 0x12 <__rc2>
    1ed0: 18           	clc
    1ed1: 69 0c        	adc	#$c
    1ed3: aa           	tax
    1ed4: a5 12        	lda	$12                     ; 0x12 <__rc2>
    1ed6: 69 00        	adc	#$0
    1ed8: 86 12        	stx	$12                     ; 0x12 <__rc2>
    1eda: 85 13        	sta	$13                     ; 0x13 <__rc3>
    1edc: a9 ff        	lda	#$ff
    1ede: a0 00        	ldy	#$0
    1ee0: a2 00        	ldx	#$0
    1ee2: 85 14        	sta	$14                     ; 0x14 <__rc4>
    1ee4: 85 15        	sta	$15                     ; 0x15 <__rc5>
    1ee6: 85 16        	sta	$16                     ; 0x16 <__rc6>
    1ee8: 85 17        	sta	$17                     ; 0x17 <__rc7>
    1eea: 84 18        	sty	$18                     ; 0x18 <__rc8>
    1eec: a0 0c        	ldy	#$c
    1eee: b1 12        	lda	($12),y                 ; 0x12 <__rc2>
    1ef0: f0 05        	beq	$1ef7 <sniffNextMIDI+0x3d>
    1ef2: a4 18        	ldy	$18                     ; 0x18 <__rc8>
    1ef4: 4c 53 1f     	jmp	$1f53 <sniffNextMIDI+0x99>
    1ef7: b2 12        	lda	($12)                   ; 0x12 <__rc2>
    1ef9: 85 1e        	sta	$1e                     ; 0x1e <__rc14>
    1efb: a0 01        	ldy	#$1
    1efd: b1 12        	lda	($12),y                 ; 0x12 <__rc2>
    1eff: 85 1d        	sta	$1d                     ; 0x1d <__rc13>
    1f01: c8           	iny
    1f02: b1 12        	lda	($12),y                 ; 0x12 <__rc2>
    1f04: 85 19        	sta	$19                     ; 0x19 <__rc9>
    1f06: c8           	iny
    1f07: b1 12        	lda	($12),y                 ; 0x12 <__rc2>
    1f09: c5 17        	cmp	$17                     ; 0x17 <__rc7>
    1f0b: d0 20        	bne	$1f2d <sniffNextMIDI+0x73>
    1f0d: 85 1c        	sta	$1c                     ; 0x1c <__rc12>
    1f0f: a4 18        	ldy	$18                     ; 0x18 <__rc8>
    1f11: a5 19        	lda	$19                     ; 0x19 <__rc9>
    1f13: c5 16        	cmp	$16                     ; 0x16 <__rc6>
    1f15: f0 03        	beq	$1f1a <sniffNextMIDI+0x60>
    1f17: 4c 7a 1f     	jmp	$1f7a <sniffNextMIDI+0xc0>
    1f1a: a5 1d        	lda	$1d                     ; 0x1d <__rc13>
    1f1c: c5 15        	cmp	$15                     ; 0x15 <__rc5>
    1f1e: f0 03        	beq	$1f23 <sniffNextMIDI+0x69>
    1f20: 4c 82 1f     	jmp	$1f82 <sniffNextMIDI+0xc8>
    1f23: a5 1e        	lda	$1e                     ; 0x1e <__rc14>
    1f25: c5 14        	cmp	$14                     ; 0x14 <__rc4>
    1f27: a5 1c        	lda	$1c                     ; 0x1c <__rc12>
    1f29: 90 08        	bcc	$1f33 <sniffNextMIDI+0x79>
    1f2b: 80 26        	bra	$1f53 <sniffNextMIDI+0x99>
    1f2d: c5 17        	cmp	$17                     ; 0x17 <__rc7>
    1f2f: a4 18        	ldy	$18                     ; 0x18 <__rc8>
    1f31: b0 20        	bcs	$1f53 <sniffNextMIDI+0x99>
    1f33: a4 1e        	ldy	$1e                     ; 0x1e <__rc14>
    1f35: 84 7a        	sty	$7a                     ; 0x7a <theOne.5>
    1f37: 84 14        	sty	$14                     ; 0x14 <__rc4>
    1f39: a4 1d        	ldy	$1d                     ; 0x1d <__rc13>
    1f3b: 84 7b        	sty	$7b                     ; 0x7b <theOne.5+0x1>
    1f3d: 84 15        	sty	$15                     ; 0x15 <__rc5>
    1f3f: a4 19        	ldy	$19                     ; 0x19 <__rc9>
    1f41: 84 7c        	sty	$7c                     ; 0x7c <theOne.5+0x2>
    1f43: 84 16        	sty	$16                     ; 0x16 <__rc6>
    1f45: 85 7d        	sta	$7d                     ; 0x7d <theOne.5+0x3>
    1f47: 85 17        	sta	$17                     ; 0x17 <__rc7>
    1f49: a0 01        	ldy	#$1
    1f4b: 84 79        	sty	$79                     ; 0x79 <theOne.4>
    1f4d: a4 18        	ldy	$18                     ; 0x18 <__rc8>
    1f4f: 84 7e        	sty	$7e                     ; 0x7e <theOne.6>
    1f51: 86 7f        	stx	$7f                     ; 0x7f <theOne.6+0x1>
    1f53: c8           	iny
    1f54: d0 01        	bne	$1f57 <sniffNextMIDI+0x9d>
    1f56: e8           	inx
    1f57: 86 19        	stx	$19                     ; 0x19 <__rc9>
    1f59: a5 12        	lda	$12                     ; 0x12 <__rc2>
    1f5b: 18           	clc
    1f5c: 69 19        	adc	#$19
    1f5e: 85 12        	sta	$12                     ; 0x12 <__rc2>
    1f60: a5 13        	lda	$13                     ; 0x13 <__rc3>
    1f62: 69 00        	adc	#$0
    1f64: 85 13        	sta	$13                     ; 0x13 <__rc3>
    1f66: a5 1b        	lda	$1b                     ; 0x1b <__rc11>
    1f68: c5 19        	cmp	$19                     ; 0x19 <__rc9>
    1f6a: f0 03        	beq	$1f6f <sniffNextMIDI+0xb5>
    1f6c: 4c ea 1e     	jmp	$1eea <sniffNextMIDI+0x30>
    1f6f: 84 18        	sty	$18                     ; 0x18 <__rc8>
    1f71: a5 1a        	lda	$1a                     ; 0x1a <__rc10>
    1f73: c5 18        	cmp	$18                     ; 0x18 <__rc8>
    1f75: f0 13        	beq	$1f8a <sniffNextMIDI+0xd0>
    1f77: 4c ea 1e     	jmp	$1eea <sniffNextMIDI+0x30>
    1f7a: c5 16        	cmp	$16                     ; 0x16 <__rc6>
    1f7c: a5 1c        	lda	$1c                     ; 0x1c <__rc12>
    1f7e: 90 b3        	bcc	$1f33 <sniffNextMIDI+0x79>
    1f80: 80 d1        	bra	$1f53 <sniffNextMIDI+0x99>
    1f82: c5 15        	cmp	$15                     ; 0x15 <__rc5>
    1f84: a5 1c        	lda	$1c                     ; 0x1c <__rc12>
    1f86: 90 ab        	bcc	$1f33 <sniffNextMIDI+0x79>
    1f88: 80 c9        	bra	$1f53 <sniffNextMIDI+0x99>
    1f8a: a6 7a        	ldx	$7a                     ; 0x7a <theOne.5>
    1f8c: 86 12        	stx	$12                     ; 0x12 <__rc2>
    1f8e: a5 7b        	lda	$7b                     ; 0x7b <theOne.5+0x1>
    1f90: a4 7c        	ldy	$7c                     ; 0x7c <theOne.5+0x2>
    1f92: a6 7d        	ldx	$7d                     ; 0x7d <theOne.5+0x3>
    1f94: d0 0e        	bne	$1fa4 <sniffNextMIDI+0xea>
    1f96: c0 00        	cpy	#$0
    1f98: d0 0a        	bne	$1fa4 <sniffNextMIDI+0xea>
    1f9a: c9 00        	cmp	#$0
    1f9c: d0 06        	bne	$1fa4 <sniffNextMIDI+0xea>
    1f9e: e6 12        	inc	$12                     ; 0x12 <__rc2>
    1fa0: c6 12        	dec	$12                     ; 0x12 <__rc2>
    1fa2: f0 4b        	beq	$1fef <sniffNextMIDI+0x135>
    1fa4: 86 17        	stx	$17                     ; 0x17 <__rc7>
    1fa6: 84 16        	sty	$16                     ; 0x16 <__rc6>
    1fa8: a6 12        	ldx	$12                     ; 0x12 <__rc2>
    1faa: 86 14        	stx	$14                     ; 0x14 <__rc4>
    1fac: 85 15        	sta	$15                     ; 0x15 <__rc5>
    1fae: a5 75        	lda	$75                     ; 0x75 <theOne.2>
    1fb0: a6 76        	ldx	$76                     ; 0x76 <theOne.2+0x1>
    1fb2: a4 77        	ldy	$77                     ; 0x77 <theOne.2+0x2>
    1fb4: 84 12        	sty	$12                     ; 0x12 <__rc2>
    1fb6: a4 78        	ldy	$78                     ; 0x78 <theOne.2+0x3>
    1fb8: 84 13        	sty	$13                     ; 0x13 <__rc3>
    1fba: 20 8a 4d     	jsr	$4d8a <__mulsi3>
    1fbd: a4 12        	ldy	$12                     ; 0x12 <__rc2>
    1fbf: 85 12        	sta	$12                     ; 0x12 <__rc2>
    1fc1: 85 7a        	sta	$7a                     ; 0x7a <theOne.5>
    1fc3: 86 15        	stx	$15                     ; 0x15 <__rc5>
    1fc5: 86 7b        	stx	$7b                     ; 0x7b <theOne.5+0x1>
    1fc7: 84 14        	sty	$14                     ; 0x14 <__rc4>
    1fc9: 84 7c        	sty	$7c                     ; 0x7c <theOne.5+0x2>
    1fcb: a6 13        	ldx	$13                     ; 0x13 <__rc3>
    1fcd: 86 7d        	stx	$7d                     ; 0x7d <theOne.5+0x3>
    1fcf: a0 02        	ldy	#$2
    1fd1: 8c 50 d6     	sty	$d650                   ; 0xd650 <__heap_start+0x8538>
    1fd4: a5 12        	lda	$12                     ; 0x12 <__rc2>
    1fd6: 8d 55 d6     	sta	$d655                   ; 0xd655 <__heap_start+0x853d>
    1fd9: a6 15        	ldx	$15                     ; 0x15 <__rc5>
    1fdb: 8e 56 d6     	stx	$d656                   ; 0xd656 <__heap_start+0x853e>
    1fde: a6 14        	ldx	$14                     ; 0x14 <__rc4>
    1fe0: 8e 57 d6     	stx	$d657                   ; 0xd657 <__heap_start+0x853f>
    1fe3: 9c 54 d6     	stz	$d654                   ; 0xd654 <__heap_start+0x853c>
    1fe6: 8c 50 d6     	sty	$d650                   ; 0xd650 <__heap_start+0x8538>
    1fe9: a2 89        	ldx	#$89
    1feb: 8e 50 d6     	stx	$d650                   ; 0xd650 <__heap_start+0x8538>
    1fee: 60           	rts
    1fef: 64 12        	stz	$12                     ; 0x12 <__rc2>
    1ff1: 64 15        	stz	$15                     ; 0x15 <__rc5>
    1ff3: 64 14        	stz	$14                     ; 0x14 <__rc4>
    1ff5: 80 d8        	bra	$1fcf <sniffNextMIDI+0x115>

00001ff7 <shutPSG>:
    1ff7: a2 9f        	ldx	#$9f
    1ff9: 8e 00 d6     	stx	$d600                   ; 0xd600 <__heap_start+0x84e8>
    1ffc: 8e 10 d6     	stx	$d610                   ; 0xd610 <__heap_start+0x84f8>
    1fff: a2 bf        	ldx	#$bf
    2001: 8e 00 d6     	stx	$d600                   ; 0xd600 <__heap_start+0x84e8>
    2004: 8e 10 d6     	stx	$d610                   ; 0xd610 <__heap_start+0x84f8>
    2007: a2 df        	ldx	#$df
    2009: 8e 00 d6     	stx	$d600                   ; 0xd600 <__heap_start+0x84e8>
    200c: 8e 10 d6     	stx	$d610                   ; 0xd610 <__heap_start+0x84f8>
    200f: a2 ff        	ldx	#$ff
    2011: 8e 00 d6     	stx	$d600                   ; 0xd600 <__heap_start+0x84e8>
    2014: 8e 10 d6     	stx	$d610                   ; 0xd610 <__heap_start+0x84f8>
    2017: 60           	rts

00002018 <psgNoteOn>:
    2018: a2 9f        	ldx	#$9f
    201a: 8e 00 d6     	stx	$d600                   ; 0xd600 <__heap_start+0x84e8>
    201d: a2 80        	ldx	#$80
    201f: 8e 00 d6     	stx	$d600                   ; 0xd600 <__heap_start+0x84e8>
    2022: 9c 00 d6     	stz	$d600                   ; 0xd600 <__heap_start+0x84e8>
    2025: 60           	rts

00002026 <setStereoPSG>:
    2026: ae a1 d6     	ldx	$d6a1                   ; 0xd6a1 <__heap_start+0x8589>
    2029: 8e a1 d6     	stx	$d6a1                   ; 0xd6a1 <__heap_start+0x8589>
    202c: 60           	rts

0000202d <shutAllSIDVoices>:
    202d: ad 04 d4     	lda	$d404                   ; 0xd404 <__heap_start+0x82ec>
    2030: 29 fe        	and	#$fe
    2032: 8d 04 d4     	sta	$d404                   ; 0xd404 <__heap_start+0x82ec>
    2035: ad 0b d4     	lda	$d40b                   ; 0xd40b <__heap_start+0x82f3>
    2038: 29 fe        	and	#$fe
    203a: 8d 0b d4     	sta	$d40b                   ; 0xd40b <__heap_start+0x82f3>
    203d: ad 12 d4     	lda	$d412                   ; 0xd412 <__heap_start+0x82fa>
    2040: 29 fe        	and	#$fe
    2042: 8d 12 d4     	sta	$d412                   ; 0xd412 <__heap_start+0x82fa>
    2045: ad 04 d5     	lda	$d504                   ; 0xd504 <__heap_start+0x83ec>
    2048: 29 fe        	and	#$fe
    204a: 8d 04 d5     	sta	$d504                   ; 0xd504 <__heap_start+0x83ec>
    204d: ad 0b d5     	lda	$d50b                   ; 0xd50b <__heap_start+0x83f3>
    2050: 29 fe        	and	#$fe
    2052: 8d 0b d5     	sta	$d50b                   ; 0xd50b <__heap_start+0x83f3>
    2055: ad 12 d5     	lda	$d512                   ; 0xd512 <__heap_start+0x83fa>
    2058: 29 fe        	and	#$fe
    205a: 8d 12 d5     	sta	$d512                   ; 0xd512 <__heap_start+0x83fa>
    205d: 60           	rts

0000205e <sidNoteOnOrOff>:
    205e: a2 41        	ldx	#$41
    2060: 8e 04 d4     	stx	$d404                   ; 0xd404 <__heap_start+0x82ec>
    2063: 60           	rts

00002064 <resetTimer0>:
    2064: 9c 54 d6     	stz	$d654                   ; 0xd654 <__heap_start+0x853c>
    2067: a2 02        	ldx	#$2
    2069: 8e 50 d6     	stx	$d650                   ; 0xd650 <__heap_start+0x8538>
    206c: a2 89        	ldx	#$89
    206e: 8e 50 d6     	stx	$d650                   ; 0xd650 <__heap_start+0x8538>
    2071: 60           	rts

00002072 <setTimer0>:
    2072: a0 02        	ldy	#$2
    2074: 8c 50 d6     	sty	$d650                   ; 0xd650 <__heap_start+0x8538>
    2077: 8d 55 d6     	sta	$d655                   ; 0xd655 <__heap_start+0x853d>
    207a: 8e 56 d6     	stx	$d656                   ; 0xd656 <__heap_start+0x853e>
    207d: a6 12        	ldx	$12                     ; 0x12 <__rc2>
    207f: 8e 57 d6     	stx	$d657                   ; 0xd657 <__heap_start+0x853f>
    2082: 9c 54 d6     	stz	$d654                   ; 0xd654 <__heap_start+0x853c>
    2085: 8c 50 d6     	sty	$d650                   ; 0xd650 <__heap_start+0x8538>
    2088: a2 89        	ldx	#$89
    208a: 8e 50 d6     	stx	$d650                   ; 0xd650 <__heap_start+0x8538>
    208d: 60           	rts

0000208e <openAllCODEC>:
    208e: a2 1f        	ldx	#$1f
    2090: 8e 20 d6     	stx	$d620                   ; 0xd620 <__heap_start+0x8508>
    2093: a2 2a        	ldx	#$2a
    2095: 8e 21 d6     	stx	$d621                   ; 0xd621 <__heap_start+0x8509>
    2098: a2 01        	ldx	#$1
    209a: 8e 22 d6     	stx	$d622                   ; 0xd622 <__heap_start+0x850a>
    209d: ad 22 d6     	lda	$d622                   ; 0xd622 <__heap_start+0x850a>
    20a0: 29 01        	and	#$1
    20a2: d0 f9        	bne	$209d <openAllCODEC+0xf>
    20a4: 60           	rts

000020a5 <boostVSClock>:
    20a5: a2 03        	ldx	#$3
    20a7: 8e 01 d7     	stx	$d701                   ; 0xd701 <__heap_start+0x85e9>
    20aa: 9c 02 d7     	stz	$d702                   ; 0xd702 <__heap_start+0x85ea>
    20ad: 9c 02 d7     	stz	$d702                   ; 0xd702 <__heap_start+0x85ea>
    20b0: a2 e0        	ldx	#$e0
    20b2: 8e 03 d7     	stx	$d703                   ; 0xd703 <__heap_start+0x85eb>
    20b5: a2 01        	ldx	#$1
    20b7: 8e 00 d7     	stx	$d700                   ; 0xd700 <__heap_start+0x85e8>
    20ba: 9c 00 d7     	stz	$d700                   ; 0xd700 <__heap_start+0x85e8>
    20bd: ae 00 d7     	ldx	$d700                   ; 0xd700 <__heap_start+0x85e8>
    20c0: 30 fb        	bmi	$20bd <boostVSClock+0x18>
    20c2: 60           	rts

000020c3 <lowVol>:
    20c3: a2 0b        	ldx	#$b
    20c5: 8e 01 d7     	stx	$d701                   ; 0xd701 <__heap_start+0x85e9>
    20c8: 9c 02 d7     	stz	$d702                   ; 0xd702 <__heap_start+0x85ea>
    20cb: a2 fe        	ldx	#$fe
    20cd: 8e 02 d7     	stx	$d702                   ; 0xd702 <__heap_start+0x85ea>
    20d0: 8e 03 d7     	stx	$d703                   ; 0xd703 <__heap_start+0x85eb>
    20d3: a2 03        	ldx	#$3
    20d5: 8e 00 d7     	stx	$d700                   ; 0xd700 <__heap_start+0x85e8>
    20d8: 9c 00 d7     	stz	$d700                   ; 0xd700 <__heap_start+0x85e8>
    20db: ae 00 d7     	ldx	$d700                   ; 0xd700 <__heap_start+0x85e8>
    20de: 30 fb        	bmi	$20db <lowVol+0x18>
    20e0: 60           	rts

000020e1 <highVol>:
    20e1: a2 0b        	ldx	#$b
    20e3: 8e 01 d7     	stx	$d701                   ; 0xd701 <__heap_start+0x85e9>
    20e6: 9c 02 d7     	stz	$d702                   ; 0xd702 <__heap_start+0x85ea>
    20e9: 9c 02 d7     	stz	$d702                   ; 0xd702 <__heap_start+0x85ea>
    20ec: 9c 03 d7     	stz	$d703                   ; 0xd703 <__heap_start+0x85eb>
    20ef: a2 03        	ldx	#$3
    20f1: 8e 00 d7     	stx	$d700                   ; 0xd700 <__heap_start+0x85e8>
    20f4: 9c 00 d7     	stz	$d700                   ; 0xd700 <__heap_start+0x85e8>
    20f7: ae 00 d7     	ldx	$d700                   ; 0xd700 <__heap_start+0x85e8>
    20fa: 30 fb        	bmi	$20f7 <highVol+0x16>
    20fc: 60           	rts

000020fd <FAR_PEEK>:
    20fd: 85 14        	sta	$14                     ; 0x14 <__rc4>
    20ff: da           	phx
    2100: 7a           	ply
    2101: a5 12        	lda	$12                     ; 0x12 <__rc2>
    2103: a6 0f        	ldx	$f                      ; 0xf <__bss_size+0xe>
    2105: 78           	sei
    2106: 84 12        	sty	$12                     ; 0x12 <__rc2>
    2108: 06 12        	asl	$12                     ; 0x12 <__rc2>
    210a: 2a           	rol
    210b: 06 12        	asl	$12                     ; 0x12 <__rc2>
    210d: 2a           	rol
    210e: 06 12        	asl	$12                     ; 0x12 <__rc2>
    2110: 2a           	rol
    2111: 85 0f        	sta	$f                      ; 0xf <__bss_size+0xe>
    2113: 98           	tya
    2114: 09 e0        	ora	#$e0
    2116: 85 15        	sta	$15                     ; 0x15 <__rc5>
    2118: b2 14        	lda	($14)                   ; 0x14 <__rc4>
    211a: 86 0f        	stx	$f                      ; 0xf <__bss_size+0xe>
    211c: 58           	cli
    211d: 60           	rts

0000211e <main>:
    211e: 18           	clc
    211f: a5 10        	lda	$10                     ; 0x10 <__rc0>
    2121: 69 f7        	adc	#$f7
    2123: 85 10        	sta	$10                     ; 0x10 <__rc0>
    2125: a5 11        	lda	$11                     ; 0x11 <__rc1>
    2127: 69 ff        	adc	#$ff
    2129: 85 11        	sta	$11                     ; 0x11 <__rc1>
    212b: a6 24        	ldx	$24                     ; 0x24 <__rc20>
    212d: da           	phx
    212e: 64 1c        	stz	$1c                     ; 0x1c <__rc12>
    2130: a2 00        	ldx	#$0
    2132: 86 1a        	stx	$1a                     ; 0x1a <__rc10>
    2134: a2 d0        	ldx	#$d0
    2136: 86 1b        	stx	$1b                     ; 0x1b <__rc11>
    2138: a2 00        	ldx	#$0
    213a: 86 16        	stx	$16                     ; 0x16 <__rc6>
    213c: a2 d8        	ldx	#$d8
    213e: 86 17        	stx	$17                     ; 0x17 <__rc7>
    2140: a2 00        	ldx	#$0
    2142: 86 18        	stx	$18                     ; 0x18 <__rc8>
    2144: a2 d4        	ldx	#$d4
    2146: 86 19        	stx	$19                     ; 0x19 <__rc9>
    2148: a2 00        	ldx	#$0
    214a: 86 14        	stx	$14                     ; 0x14 <__rc4>
    214c: a2 dc        	ldx	#$dc
    214e: 86 15        	stx	$15                     ; 0x15 <__rc5>
    2150: a2 00        	ldx	#$0
    2152: 86 12        	stx	$12                     ; 0x12 <__rc2>
    2154: a2 c0        	ldx	#$c0
    2156: 86 13        	stx	$13                     ; 0x13 <__rc3>
    2158: 64 01        	stz	$1                      ; 0x1 <__bss_size>
    215a: a2 3f        	ldx	#$3f
    215c: 8e 00 d0     	stx	$d000                   ; 0xd000 <__heap_start+0x7ee8>
    215f: a2 b3        	ldx	#$b3
    2161: 86 00        	stx	$0                      ; 0x0 <__zp_data_size>
    2163: 64 08        	stz	$8                      ; 0x8 <__bss_size+0x7>
    2165: a2 01        	ldx	#$1
    2167: 86 09        	stx	$9                      ; 0x9 <__bss_size+0x8>
    2169: e8           	inx
    216a: 86 0a        	stx	$a                      ; 0xa <__bss_size+0x9>
    216c: e8           	inx
    216d: 86 0b        	stx	$b                      ; 0xb <__bss_size+0xa>
    216f: e8           	inx
    2170: 86 0c        	stx	$c                      ; 0xc <__bss_size+0xb>
    2172: e8           	inx
    2173: 86 0d        	stx	$d                      ; 0xd <__bss_size+0xc>
    2175: a2 32        	ldx	#$32
    2177: a9 00        	lda	#$0
    2179: 86 f0        	stx	$f0                     ; 0xf0 <__zp_bss_size+0x97>
    217b: 85 f1        	sta	$f1                     ; 0xf1 <__zp_bss_size+0x98>
    217d: a6 01        	ldx	$1                      ; 0x1 <__bss_size>
    217f: a0 01        	ldy	#$1
    2181: 84 01        	sty	$1                      ; 0x1 <__bss_size>
    2183: a5 1c        	lda	$1c                     ; 0x1c <__rc12>
    2185: 92 1a        	sta	($1a)                   ; 0x1a <__rc10>
    2187: 91 1a        	sta	($1a),y                 ; 0x1a <__rc10>
    2189: c8           	iny
    218a: 91 1a        	sta	($1a),y                 ; 0x1a <__rc10>
    218c: c8           	iny
    218d: a9 ff        	lda	#$ff
    218f: 91 1a        	sta	($1a),y                 ; 0x1a <__rc10>
    2191: 86 01        	stx	$1                      ; 0x1 <__bss_size>
    2193: a5 1a        	lda	$1a                     ; 0x1a <__rc10>
    2195: 18           	clc
    2196: 69 04        	adc	#$4
    2198: 85 1a        	sta	$1a                     ; 0x1a <__rc10>
    219a: a5 1b        	lda	$1b                     ; 0x1b <__rc11>
    219c: 69 00        	adc	#$0
    219e: e6 1c        	inc	$1c                     ; 0x1c <__rc12>
    21a0: 85 1b        	sta	$1b                     ; 0x1b <__rc11>
    21a2: d0 d9        	bne	$217d <main+0x5f>
    21a4: a9 00        	lda	#$0
    21a6: a6 01        	ldx	$1                      ; 0x1 <__bss_size>
    21a8: a0 01        	ldy	#$1
    21aa: 84 01        	sty	$1                      ; 0x1 <__bss_size>
    21ac: 92 18        	sta	($18)                   ; 0x18 <__rc8>
    21ae: 91 18        	sta	($18),y                 ; 0x18 <__rc8>
    21b0: c8           	iny
    21b1: 91 18        	sta	($18),y                 ; 0x18 <__rc8>
    21b3: c8           	iny
    21b4: 85 1a        	sta	$1a                     ; 0x1a <__rc10>
    21b6: a9 ff        	lda	#$ff
    21b8: 91 18        	sta	($18),y                 ; 0x18 <__rc8>
    21ba: 86 01        	stx	$1                      ; 0x1 <__bss_size>
    21bc: a5 18        	lda	$18                     ; 0x18 <__rc8>
    21be: 18           	clc
    21bf: 69 04        	adc	#$4
    21c1: 85 18        	sta	$18                     ; 0x18 <__rc8>
    21c3: a5 19        	lda	$19                     ; 0x19 <__rc9>
    21c5: 69 00        	adc	#$0
    21c7: e6 1a        	inc	$1a                     ; 0x1a <__rc10>
    21c9: 85 19        	sta	$19                     ; 0x19 <__rc9>
    21cb: a5 1a        	lda	$1a                     ; 0x1a <__rc10>
    21cd: d0 d7        	bne	$21a6 <main+0x88>
    21cf: a9 00        	lda	#$0
    21d1: a6 01        	ldx	$1                      ; 0x1 <__bss_size>
    21d3: a0 01        	ldy	#$1
    21d5: 84 01        	sty	$1                      ; 0x1 <__bss_size>
    21d7: 92 16        	sta	($16)                   ; 0x16 <__rc6>
    21d9: 91 16        	sta	($16),y                 ; 0x16 <__rc6>
    21db: c8           	iny
    21dc: 91 16        	sta	($16),y                 ; 0x16 <__rc6>
    21de: c8           	iny
    21df: 85 18        	sta	$18                     ; 0x18 <__rc8>
    21e1: a9 ff        	lda	#$ff
    21e3: 91 16        	sta	($16),y                 ; 0x16 <__rc6>
    21e5: 86 01        	stx	$1                      ; 0x1 <__bss_size>
    21e7: a5 16        	lda	$16                     ; 0x16 <__rc6>
    21e9: 18           	clc
    21ea: 69 04        	adc	#$4
    21ec: 85 16        	sta	$16                     ; 0x16 <__rc6>
    21ee: a5 17        	lda	$17                     ; 0x17 <__rc7>
    21f0: 69 00        	adc	#$0
    21f2: e6 18        	inc	$18                     ; 0x18 <__rc8>
    21f4: 85 17        	sta	$17                     ; 0x17 <__rc7>
    21f6: a5 18        	lda	$18                     ; 0x18 <__rc8>
    21f8: d0 d7        	bne	$21d1 <main+0xb3>
    21fa: a9 00        	lda	#$0
    21fc: a6 01        	ldx	$1                      ; 0x1 <__bss_size>
    21fe: a0 01        	ldy	#$1
    2200: 84 01        	sty	$1                      ; 0x1 <__bss_size>
    2202: 92 14        	sta	($14)                   ; 0x14 <__rc4>
    2204: 91 14        	sta	($14),y                 ; 0x14 <__rc4>
    2206: c8           	iny
    2207: 91 14        	sta	($14),y                 ; 0x14 <__rc4>
    2209: c8           	iny
    220a: 85 16        	sta	$16                     ; 0x16 <__rc6>
    220c: a9 ff        	lda	#$ff
    220e: 91 14        	sta	($14),y                 ; 0x14 <__rc4>
    2210: 86 01        	stx	$1                      ; 0x1 <__bss_size>
    2212: a5 14        	lda	$14                     ; 0x14 <__rc4>
    2214: 18           	clc
    2215: 69 04        	adc	#$4
    2217: 85 14        	sta	$14                     ; 0x14 <__rc4>
    2219: a5 15        	lda	$15                     ; 0x15 <__rc5>
    221b: 69 00        	adc	#$0
    221d: e6 16        	inc	$16                     ; 0x16 <__rc6>
    221f: 85 15        	sta	$15                     ; 0x15 <__rc5>
    2221: a5 16        	lda	$16                     ; 0x16 <__rc6>
    2223: d0 d7        	bne	$21fc <main+0xde>
    2225: ad 02 d0     	lda	$d002                   ; 0xd002 <__heap_start+0x7eea>
    2228: 29 f0        	and	#$f0
    222a: 8d 02 d0     	sta	$d002                   ; 0xd002 <__heap_start+0x7eea>
    222d: ad 02 d0     	lda	$d002                   ; 0xd002 <__heap_start+0x7eea>
    2230: 29 0f        	and	#$f
    2232: 09 10        	ora	#$10
    2234: 8d 02 d0     	sta	$d002                   ; 0xd002 <__heap_start+0x7eea>
    2237: a2 02        	ldx	#$2
    2239: 8e 03 d0     	stx	$d003                   ; 0xd003 <__heap_start+0x7eeb>
    223c: ad 01 d0     	lda	$d001                   ; 0xd001 <__heap_start+0x7ee9>
    223f: 29 f9        	and	#$f9
    2241: 09 04        	ora	#$4
    2243: 8d 01 d0     	sta	$d001                   ; 0xd001 <__heap_start+0x7ee9>
    2246: 64 14        	stz	$14                     ; 0x14 <__rc4>
    2248: 9c 10 d0     	stz	$d010                   ; 0xd010 <__heap_start+0x7ef8>
    224b: a2 00        	ldx	#$0
    224d: 64 15        	stz	$15                     ; 0x15 <__rc5>
    224f: 86 18        	stx	$18                     ; 0x18 <__rc8>
    2251: a4 18        	ldy	$18                     ; 0x18 <__rc8>
    2253: be 98 4f     	ldx	$4f98,y                 ; 0x4f98 <textColors>
    2256: 86 19        	stx	$19                     ; 0x19 <__rc9>
    2258: be 99 4f     	ldx	$4f99,y                 ; 0x4f99 <textColors+0x1>
    225b: 86 1a        	stx	$1a                     ; 0x1a <__rc10>
    225d: be 9a 4f     	ldx	$4f9a,y                 ; 0x4f9a <textColors+0x2>
    2260: 86 1b        	stx	$1b                     ; 0x1b <__rc11>
    2262: a6 15        	ldx	$15                     ; 0x15 <__rc5>
    2264: 8e 00 de     	stx	$de00                   ; 0xde00 <__heap_start+0x8ce8>
    2267: 86 17        	stx	$17                     ; 0x17 <__rc7>
    2269: 9c 01 de     	stz	$de01                   ; 0xde01 <__heap_start+0x8ce9>
    226c: a2 04        	ldx	#$4
    226e: 8e 02 de     	stx	$de02                   ; 0xde02 <__heap_start+0x8cea>
    2271: 86 1d        	stx	$1d                     ; 0x1d <__rc13>
    2273: 9c 03 de     	stz	$de03                   ; 0xde03 <__heap_start+0x8ceb>
    2276: ad 10 de     	lda	$de10                   ; 0xde10 <__heap_start+0x8cf8>
    2279: ac 11 de     	ldy	$de11                   ; 0xde11 <__heap_start+0x8cf9>
    227c: 84 15        	sty	$15                     ; 0x15 <__rc5>
    227e: ac 12 de     	ldy	$de12                   ; 0xde12 <__heap_start+0x8cfa>
    2281: ac 13 de     	ldy	$de13                   ; 0xde13 <__heap_start+0x8cfb>
    2284: a2 00        	ldx	#$0
    2286: 18           	clc
    2287: 65 14        	adc	$14                     ; 0x14 <__rc4>
    2289: a8           	tay
    228a: 86 1f        	stx	$1f                     ; 0x1f <__rc15>
    228c: a6 17        	ldx	$17                     ; 0x17 <__rc7>
    228e: a9 d8        	lda	#$d8
    2290: 65 15        	adc	$15                     ; 0x15 <__rc5>
    2292: 84 16        	sty	$16                     ; 0x16 <__rc6>
    2294: 85 17        	sta	$17                     ; 0x17 <__rc7>
    2296: a5 1b        	lda	$1b                     ; 0x1b <__rc11>
    2298: 92 16        	sta	($16)                   ; 0x16 <__rc6>
    229a: a0 01        	ldy	#$1
    229c: a5 1a        	lda	$1a                     ; 0x1a <__rc10>
    229e: 91 16        	sta	($16),y                 ; 0x16 <__rc6>
    22a0: 84 1c        	sty	$1c                     ; 0x1c <__rc12>
    22a2: c8           	iny
    22a3: a5 19        	lda	$19                     ; 0x19 <__rc9>
    22a5: 91 16        	sta	($16),y                 ; 0x16 <__rc6>
    22a7: 84 1e        	sty	$1e                     ; 0x1e <__rc14>
    22a9: c8           	iny
    22aa: a9 ff        	lda	#$ff
    22ac: 91 16        	sta	($16),y                 ; 0x16 <__rc6>
    22ae: 85 23        	sta	$23                     ; 0x23 <__rc19>
    22b0: 84 22        	sty	$22                     ; 0x22 <__rc18>
    22b2: 8e 00 de     	stx	$de00                   ; 0xde00 <__heap_start+0x8ce8>
    22b5: 9c 01 de     	stz	$de01                   ; 0xde01 <__heap_start+0x8ce9>
    22b8: a4 1d        	ldy	$1d                     ; 0x1d <__rc13>
    22ba: 8c 02 de     	sty	$de02                   ; 0xde02 <__heap_start+0x8cea>
    22bd: 9c 03 de     	stz	$de03                   ; 0xde03 <__heap_start+0x8ceb>
    22c0: ad 10 de     	lda	$de10                   ; 0xde10 <__heap_start+0x8cf8>
    22c3: 85 15        	sta	$15                     ; 0x15 <__rc5>
    22c5: ad 11 de     	lda	$de11                   ; 0xde11 <__heap_start+0x8cf9>
    22c8: 85 16        	sta	$16                     ; 0x16 <__rc6>
    22ca: a9 40        	lda	#$40
    22cc: a4 1f        	ldy	$1f                     ; 0x1f <__rc15>
    22ce: c0 01        	cpy	#$1
    22d0: 65 15        	adc	$15                     ; 0x15 <__rc5>
    22d2: a8           	tay
    22d3: a9 d8        	lda	#$d8
    22d5: 65 16        	adc	$16                     ; 0x16 <__rc6>
    22d7: 85 17        	sta	$17                     ; 0x17 <__rc7>
    22d9: 84 16        	sty	$16                     ; 0x16 <__rc6>
    22db: ad 12 de     	lda	$de12                   ; 0xde12 <__heap_start+0x8cfa>
    22de: ad 13 de     	lda	$de13                   ; 0xde13 <__heap_start+0x8cfb>
    22e1: a5 1b        	lda	$1b                     ; 0x1b <__rc11>
    22e3: 92 16        	sta	($16)                   ; 0x16 <__rc6>
    22e5: a5 1a        	lda	$1a                     ; 0x1a <__rc10>
    22e7: a4 1c        	ldy	$1c                     ; 0x1c <__rc12>
    22e9: 91 16        	sta	($16),y                 ; 0x16 <__rc6>
    22eb: a5 19        	lda	$19                     ; 0x19 <__rc9>
    22ed: a4 1e        	ldy	$1e                     ; 0x1e <__rc14>
    22ef: 91 16        	sta	($16),y                 ; 0x16 <__rc6>
    22f1: a4 22        	ldy	$22                     ; 0x22 <__rc18>
    22f3: a5 23        	lda	$23                     ; 0x23 <__rc19>
    22f5: 91 16        	sta	($16),y                 ; 0x16 <__rc6>
    22f7: e8           	inx
    22f8: 86 15        	stx	$15                     ; 0x15 <__rc5>
    22fa: 18           	clc
    22fb: a5 18        	lda	$18                     ; 0x18 <__rc8>
    22fd: 69 03        	adc	#$3
    22ff: aa           	tax
    2300: c9 30        	cmp	#$30
    2302: f0 03        	beq	$2307 <main+0x1e9>
    2304: 4c 4f 22     	jmp	$224f <main+0x131>
    2307: a6 01        	ldx	$1                      ; 0x1 <__bss_size>
    2309: 86 18        	stx	$18                     ; 0x18 <__rc8>
    230b: a2 50        	ldx	#$50
    230d: 8e 00 de     	stx	$de00                   ; 0xde00 <__heap_start+0x8ce8>
    2310: 9c 01 de     	stz	$de01                   ; 0xde01 <__heap_start+0x8ce9>
    2313: a2 1e        	ldx	#$1e
    2315: 8e 02 de     	stx	$de02                   ; 0xde02 <__heap_start+0x8cea>
    2318: 9c 03 de     	stz	$de03                   ; 0xde03 <__heap_start+0x8ceb>
    231b: ae 10 de     	ldx	$de10                   ; 0xde10 <__heap_start+0x8cf8>
    231e: ac 11 de     	ldy	$de11                   ; 0xde11 <__heap_start+0x8cf9>
    2321: ad 12 de     	lda	$de12                   ; 0xde12 <__heap_start+0x8cfa>
    2324: ad 13 de     	lda	$de13                   ; 0xde13 <__heap_start+0x8cfb>
    2327: a9 02        	lda	#$2
    2329: 85 01        	sta	$1                      ; 0x1 <__bss_size>
    232b: e0 01        	cpx	#$1
    232d: 98           	tya
    232e: e9 00        	sbc	#$0
    2330: 50 02        	bvc	$2334 <main+0x216>
    2332: 49 80        	eor	#$80
    2334: c9 00        	cmp	#$0
    2336: 10 03        	bpl	$233b <main+0x21d>
    2338: 4c 92 23     	jmp	$2392 <main+0x274>
    233b: a9 20        	lda	#$20
    233d: 86 19        	stx	$19                     ; 0x19 <__rc9>
    233f: 86 14        	stx	$14                     ; 0x14 <__rc4>
    2341: 84 15        	sty	$15                     ; 0x15 <__rc5>
    2343: a2 00        	ldx	#$0
    2345: 86 16        	stx	$16                     ; 0x16 <__rc6>
    2347: a2 c0        	ldx	#$c0
    2349: 86 17        	stx	$17                     ; 0x17 <__rc7>
    234b: 80 04        	bra	$2351 <main+0x233>
    234d: a6 15        	ldx	$15                     ; 0x15 <__rc5>
    234f: f0 14        	beq	$2365 <main+0x247>
    2351: 92 16        	sta	($16)                   ; 0x16 <__rc6>
    2353: e6 16        	inc	$16                     ; 0x16 <__rc6>
    2355: d0 02        	bne	$2359 <main+0x23b>
    2357: e6 17        	inc	$17                     ; 0x17 <__rc7>
    2359: a2 ff        	ldx	#$ff
    235b: c6 14        	dec	$14                     ; 0x14 <__rc4>
    235d: e4 14        	cpx	$14                     ; 0x14 <__rc4>
    235f: d0 ec        	bne	$234d <main+0x22f>
    2361: c6 15        	dec	$15                     ; 0x15 <__rc5>
    2363: 80 e8        	bra	$234d <main+0x22f>
    2365: a6 14        	ldx	$14                     ; 0x14 <__rc4>
    2367: d0 e8        	bne	$2351 <main+0x233>
    2369: a2 03        	ldx	#$3
    236b: 86 01        	stx	$1                      ; 0x1 <__bss_size>
    236d: a6 19        	ldx	$19                     ; 0x19 <__rc9>
    236f: 80 03        	bra	$2374 <main+0x256>
    2371: 98           	tya
    2372: f0 19        	beq	$238d <main+0x26f>
    2374: a9 f0        	lda	#$f0
    2376: 92 12        	sta	($12)                   ; 0x12 <__rc2>
    2378: e6 12        	inc	$12                     ; 0x12 <__rc2>
    237a: f0 07        	beq	$2383 <main+0x265>
    237c: ca           	dex
    237d: e0 ff        	cpx	#$ff
    237f: d0 f0        	bne	$2371 <main+0x253>
    2381: 80 07        	bra	$238a <main+0x26c>
    2383: e6 13        	inc	$13                     ; 0x13 <__rc3>
    2385: ca           	dex
    2386: e0 ff        	cpx	#$ff
    2388: d0 e7        	bne	$2371 <main+0x253>
    238a: 88           	dey
    238b: 80 e4        	bra	$2371 <main+0x253>
    238d: 8a           	txa
    238e: d0 e4        	bne	$2374 <main+0x256>
    2390: 80 04        	bra	$2396 <main+0x278>
    2392: a2 03        	ldx	#$3
    2394: 86 01        	stx	$1                      ; 0x1 <__bss_size>
    2396: a6 18        	ldx	$18                     ; 0x18 <__rc8>
    2398: 86 01        	stx	$1                      ; 0x1 <__bss_size>
    239a: 64 39        	stz	$39                     ; 0x39 <_col>
    239c: 9c 14 d0     	stz	$d014                   ; 0xd014 <__heap_start+0x7efc>
    239f: 9c 15 d0     	stz	$d015                   ; 0xd015 <__heap_start+0x7efd>
    23a2: 64 3a        	stz	$3a                     ; 0x3a <_row>
    23a4: 9c 16 d0     	stz	$d016                   ; 0xd016 <__heap_start+0x7efe>
    23a7: 9c 17 d0     	stz	$d017                   ; 0xd017 <__heap_start+0x7eff>
    23aa: a2 40        	ldx	#$40
    23ac: 8e 00 de     	stx	$de00                   ; 0xde00 <__heap_start+0x8ce8>
    23af: a2 01        	ldx	#$1
    23b1: 8e 01 de     	stx	$de01                   ; 0xde01 <__heap_start+0x8ce9>
    23b4: a2 f0        	ldx	#$f0
    23b6: 8e 02 de     	stx	$de02                   ; 0xde02 <__heap_start+0x8cea>
    23b9: 9c 03 de     	stz	$de03                   ; 0xde03 <__heap_start+0x8ceb>
    23bc: ae 10 de     	ldx	$de10                   ; 0xde10 <__heap_start+0x8cf8>
    23bf: 86 17        	stx	$17                     ; 0x17 <__rc7>
    23c1: ae 11 de     	ldx	$de11                   ; 0xde11 <__heap_start+0x8cf9>
    23c4: 86 12        	stx	$12                     ; 0x12 <__rc2>
    23c6: ae 12 de     	ldx	$de12                   ; 0xde12 <__heap_start+0x8cfa>
    23c9: 86 13        	stx	$13                     ; 0x13 <__rc3>
    23cb: ae 13 de     	ldx	$de13                   ; 0xde13 <__heap_start+0x8cfb>
    23ce: 86 14        	stx	$14                     ; 0x14 <__rc4>
    23d0: a4 12        	ldy	$12                     ; 0x12 <__rc2>
    23d2: 84 15        	sty	$15                     ; 0x15 <__rc5>
    23d4: 06 15        	asl	$15                     ; 0x15 <__rc5>
    23d6: a5 13        	lda	$13                     ; 0x13 <__rc3>
    23d8: 2a           	rol
    23d9: 86 16        	stx	$16                     ; 0x16 <__rc6>
    23db: 26 16        	rol	$16                     ; 0x16 <__rc6>
    23dd: 06 15        	asl	$15                     ; 0x15 <__rc5>
    23df: 2a           	rol
    23e0: 26 16        	rol	$16                     ; 0x16 <__rc6>
    23e2: 06 15        	asl	$15                     ; 0x15 <__rc5>
    23e4: 2a           	rol
    23e5: 26 16        	rol	$16                     ; 0x16 <__rc6>
    23e7: 85 15        	sta	$15                     ; 0x15 <__rc5>
    23e9: 8d 00 de     	sta	$de00                   ; 0xde00 <__heap_start+0x8ce8>
    23ec: a5 16        	lda	$16                     ; 0x16 <__rc6>
    23ee: 8d 01 de     	sta	$de01                   ; 0xde01 <__heap_start+0x8ce9>
    23f1: 9c 02 de     	stz	$de02                   ; 0xde02 <__heap_start+0x8cea>
    23f4: a2 20        	ldx	#$20
    23f6: 8e 03 de     	stx	$de03                   ; 0xde03 <__heap_start+0x8ceb>
    23f9: ae 10 de     	ldx	$de10                   ; 0xde10 <__heap_start+0x8cf8>
    23fc: 86 16        	stx	$16                     ; 0x16 <__rc6>
    23fe: ae 11 de     	ldx	$de11                   ; 0xde11 <__heap_start+0x8cf9>
    2401: 86 18        	stx	$18                     ; 0x18 <__rc8>
    2403: ac 12 de     	ldy	$de12                   ; 0xde12 <__heap_start+0x8cfa>
    2406: ae 13 de     	ldx	$de13                   ; 0xde13 <__heap_start+0x8cfb>
    2409: e4 14        	cpx	$14                     ; 0x14 <__rc4>
    240b: d0 14        	bne	$2421 <main+0x303>
    240d: c4 13        	cpy	$13                     ; 0x13 <__rc3>
    240f: d0 10        	bne	$2421 <main+0x303>
    2411: a6 18        	ldx	$18                     ; 0x18 <__rc8>
    2413: e4 12        	cpx	$12                     ; 0x12 <__rc2>
    2415: d0 0a        	bne	$2421 <main+0x303>
    2417: a6 16        	ldx	$16                     ; 0x16 <__rc6>
    2419: e4 17        	cpx	$17                     ; 0x17 <__rc7>
    241b: d0 04        	bne	$2421 <main+0x303>
    241d: a6 15        	ldx	$15                     ; 0x15 <__rc5>
    241f: 80 06        	bra	$2427 <main+0x309>
    2421: a6 15        	ldx	$15                     ; 0x15 <__rc5>
    2423: e8           	inx
    2424: d0 01        	bne	$2427 <main+0x309>
    2426: 1a           	inc
    2427: 8e 00 de     	stx	$de00                   ; 0xde00 <__heap_start+0x8ce8>
    242a: 8d 01 de     	sta	$de01                   ; 0xde01 <__heap_start+0x8ce9>
    242d: 9c 02 de     	stz	$de02                   ; 0xde02 <__heap_start+0x8cea>
    2430: a2 20        	ldx	#$20
    2432: 8e 03 de     	stx	$de03                   ; 0xde03 <__heap_start+0x8ceb>
    2435: ae 10 de     	ldx	$de10                   ; 0xde10 <__heap_start+0x8cf8>
    2438: 86 12        	stx	$12                     ; 0x12 <__rc2>
    243a: ae 11 de     	ldx	$de11                   ; 0xde11 <__heap_start+0x8cf9>
    243d: 86 13        	stx	$13                     ; 0x13 <__rc3>
    243f: ae 12 de     	ldx	$de12                   ; 0xde12 <__heap_start+0x8cfa>
    2442: 86 14        	stx	$14                     ; 0x14 <__rc4>
    2444: ae 13 de     	ldx	$de13                   ; 0xde13 <__heap_start+0x8cfb>
    2447: 86 15        	stx	$15                     ; 0x15 <__rc5>
    2449: 38           	sec
    244a: a9 00        	lda	#$0
    244c: e5 12        	sbc	$12                     ; 0x12 <__rc2>
    244e: 85 19        	sta	$19                     ; 0x19 <__rc9>
    2450: a9 00        	lda	#$0
    2452: e5 13        	sbc	$13                     ; 0x13 <__rc3>
    2454: aa           	tax
    2455: a9 08        	lda	#$8
    2457: e5 14        	sbc	$14                     ; 0x14 <__rc4>
    2459: 85 16        	sta	$16                     ; 0x16 <__rc6>
    245b: a9 00        	lda	#$0
    245d: e5 15        	sbc	$15                     ; 0x15 <__rc5>
    245f: 86 3c        	stx	$3c                     ; 0x3c <_BITMAP_BASE.0+0x1>
    2461: a4 16        	ldy	$16                     ; 0x16 <__rc6>
    2463: 84 3d        	sty	$3d                     ; 0x3d <_BITMAP_BASE.0+0x2>
    2465: 85 3e        	sta	$3e                     ; 0x3e <_BITMAP_BASE.0+0x3>
    2467: a8           	tay
    2468: a5 19        	lda	$19                     ; 0x19 <__rc9>
    246a: 38           	sec
    246b: e5 12        	sbc	$12                     ; 0x12 <__rc2>
    246d: 85 18        	sta	$18                     ; 0x18 <__rc8>
    246f: 8a           	txa
    2470: e5 13        	sbc	$13                     ; 0x13 <__rc3>
    2472: 85 1a        	sta	$1a                     ; 0x1a <__rc10>
    2474: a5 16        	lda	$16                     ; 0x16 <__rc6>
    2476: e5 14        	sbc	$14                     ; 0x14 <__rc4>
    2478: 85 16        	sta	$16                     ; 0x16 <__rc6>
    247a: 98           	tya
    247b: e5 15        	sbc	$15                     ; 0x15 <__rc5>
    247d: 85 17        	sta	$17                     ; 0x17 <__rc7>
    247f: 38           	sec
    2480: a4 18        	ldy	$18                     ; 0x18 <__rc8>
    2482: 84 3f        	sty	$3f                     ; 0x3f <_BITMAP_BASE.1>
    2484: a6 1a        	ldx	$1a                     ; 0x1a <__rc10>
    2486: 86 40        	stx	$40                     ; 0x40 <_BITMAP_BASE.1+0x1>
    2488: a4 16        	ldy	$16                     ; 0x16 <__rc6>
    248a: 84 41        	sty	$41                     ; 0x41 <_BITMAP_BASE.1+0x2>
    248c: 85 42        	sta	$42                     ; 0x42 <_BITMAP_BASE.1+0x3>
    248e: a5 18        	lda	$18                     ; 0x18 <__rc8>
    2490: e5 12        	sbc	$12                     ; 0x12 <__rc2>
    2492: 85 18        	sta	$18                     ; 0x18 <__rc8>
    2494: a5 1a        	lda	$1a                     ; 0x1a <__rc10>
    2496: e5 13        	sbc	$13                     ; 0x13 <__rc3>
    2498: a8           	tay
    2499: a5 16        	lda	$16                     ; 0x16 <__rc6>
    249b: e5 14        	sbc	$14                     ; 0x14 <__rc4>
    249d: 85 12        	sta	$12                     ; 0x12 <__rc2>
    249f: a5 17        	lda	$17                     ; 0x17 <__rc7>
    24a1: e5 15        	sbc	$15                     ; 0x15 <__rc5>
    24a3: a6 18        	ldx	$18                     ; 0x18 <__rc8>
    24a5: 86 43        	stx	$43                     ; 0x43 <_BITMAP_BASE.2>
    24a7: 84 44        	sty	$44                     ; 0x44 <_BITMAP_BASE.2+0x1>
    24a9: a6 19        	ldx	$19                     ; 0x19 <__rc9>
    24ab: 86 3b        	stx	$3b                     ; 0x3b <_BITMAP_BASE.0>
    24ad: a4 12        	ldy	$12                     ; 0x12 <__rc2>
    24af: 84 45        	sty	$45                     ; 0x45 <_BITMAP_BASE.2+0x2>
    24b1: 85 46        	sta	$46                     ; 0x46 <_BITMAP_BASE.2+0x3>
    24b3: 8e 01 d1     	stx	$d101                   ; 0xd101 <__heap_start+0x7fe9>
    24b6: a6 3c        	ldx	$3c                     ; 0x3c <_BITMAP_BASE.0+0x1>
    24b8: 8e 02 d1     	stx	$d102                   ; 0xd102 <__heap_start+0x7fea>
    24bb: a6 3d        	ldx	$3d                     ; 0x3d <_BITMAP_BASE.0+0x2>
    24bd: 8e 03 d1     	stx	$d103                   ; 0xd103 <__heap_start+0x7feb>
    24c0: a6 3f        	ldx	$3f                     ; 0x3f <_BITMAP_BASE.1>
    24c2: 8e 09 d1     	stx	$d109                   ; 0xd109 <__heap_start+0x7ff1>
    24c5: a6 40        	ldx	$40                     ; 0x40 <_BITMAP_BASE.1+0x1>
    24c7: 8e 0a d1     	stx	$d10a                   ; 0xd10a <__heap_start+0x7ff2>
    24ca: a6 41        	ldx	$41                     ; 0x41 <_BITMAP_BASE.1+0x2>
    24cc: 8e 0b d1     	stx	$d10b                   ; 0xd10b <__heap_start+0x7ff3>
    24cf: a6 43        	ldx	$43                     ; 0x43 <_BITMAP_BASE.2>
    24d1: 8e 11 d1     	stx	$d111                   ; 0xd111 <__heap_start+0x7ff9>
    24d4: a6 44        	ldx	$44                     ; 0x44 <_BITMAP_BASE.2+0x1>
    24d6: 8e 12 d1     	stx	$d112                   ; 0xd112 <__heap_start+0x7ffa>
    24d9: a6 45        	ldx	$45                     ; 0x45 <_BITMAP_BASE.2+0x2>
    24db: 8e 13 d1     	stx	$d113                   ; 0xd113 <__heap_start+0x7ffb>
    24de: 9c 00 d1     	stz	$d100                   ; 0xd100 <__heap_start+0x7fe8>
    24e1: 9c 08 d1     	stz	$d108                   ; 0xd108 <__heap_start+0x7ff0>
    24e4: 9c 10 d1     	stz	$d110                   ; 0xd110 <__heap_start+0x7ff8>
    24e7: a2 10        	ldx	#$10
    24e9: 8e 00 d2     	stx	$d200                   ; 0xd200 <__heap_start+0x80e8>
    24ec: 8e 0c d2     	stx	$d20c                   ; 0xd20c <__heap_start+0x80f4>
    24ef: 8e 18 d2     	stx	$d218                   ; 0xd218 <__heap_start+0x8100>
    24f2: a0 d9        	ldy	#$d9
    24f4: a2 40        	ldx	#$40
    24f6: 64 12        	stz	$12                     ; 0x12 <__rc2>
    24f8: 84 13        	sty	$13                     ; 0x13 <__rc3>
    24fa: a9 00        	lda	#$0
    24fc: 92 12        	sta	($12)                   ; 0x12 <__rc2>
    24fe: ca           	dex
    24ff: 18           	clc
    2500: a5 12        	lda	$12                     ; 0x12 <__rc2>
    2502: 69 08        	adc	#$8
    2504: 85 12        	sta	$12                     ; 0x12 <__rc2>
    2506: 98           	tya
    2507: 69 00        	adc	#$0
    2509: a8           	tay
    250a: 8a           	txa
    250b: d0 eb        	bne	$24f8 <main+0x3da>
    250d: 18           	clc
    250e: a5 10        	lda	$10                     ; 0x10 <__rc0>
    2510: 69 01        	adc	#$1
    2512: 85 12        	sta	$12                     ; 0x12 <__rc2>
    2514: a5 11        	lda	$11                     ; 0x11 <__rc1>
    2516: 69 00        	adc	#$0
    2518: 85 13        	sta	$13                     ; 0x13 <__rc3>
    251a: a6 12        	ldx	$12                     ; 0x12 <__rc2>
    251c: 86 fb        	stx	$fb                     ; 0xfb <__zp_bss_size+0xa2>
    251e: 85 fc        	sta	$fc                     ; 0xfc <__zp_bss_size+0xa3>
    2520: a2 08        	ldx	#$8
    2522: 86 fd        	stx	$fd                     ; 0xfd <__zp_bss_size+0xa4>
    2524: 18           	clc
    2525: a6 10        	ldx	$10                     ; 0x10 <__rc0>
    2527: 86 14        	stx	$14                     ; 0x14 <__rc4>
    2529: a6 11        	ldx	$11                     ; 0x11 <__rc1>
    252b: 86 15        	stx	$15                     ; 0x15 <__rc5>
    252d: a2 16        	ldx	#$16
    252f: 86 16        	stx	$16                     ; 0x16 <__rc6>
    2531: a2 51        	ldx	#$51
    2533: 86 17        	stx	$17                     ; 0x17 <__rc7>
    2535: a0 06        	ldy	#$6
    2537: 20 dc ff     	jsr	$ffdc <__heap_start+0xaec4>
    253a: 92 14        	sta	($14)                   ; 0x14 <__rc4>
    253c: a9 00        	lda	#$0
    253e: 6a           	ror
    253f: 85 16        	sta	$16                     ; 0x16 <__rc6>
    2541: b1 12        	lda	($12),y                 ; 0x12 <__rc2>
    2543: 85 14        	sta	$14                     ; 0x14 <__rc4>
    2545: c8           	iny
    2546: b1 12        	lda	($12),y                 ; 0x12 <__rc2>
    2548: a2 07        	ldx	#$7
    254a: 86 24        	stx	$24                     ; 0x24 <__rc20>
    254c: a6 14        	ldx	$14                     ; 0x14 <__rc4>
    254e: 8e 00 de     	stx	$de00                   ; 0xde00 <__heap_start+0x8ce8>
    2551: 9c 01 de     	stz	$de01                   ; 0xde01 <__heap_start+0x8ce9>
    2554: 8d 02 de     	sta	$de02                   ; 0xde02 <__heap_start+0x8cea>
    2557: 9c 03 de     	stz	$de03                   ; 0xde03 <__heap_start+0x8ceb>
    255a: ae 10 de     	ldx	$de10                   ; 0xde10 <__heap_start+0x8cf8>
    255d: ac 11 de     	ldy	$de11                   ; 0xde11 <__heap_start+0x8cf9>
    2560: ad 12 de     	lda	$de12                   ; 0xde12 <__heap_start+0x8cfa>
    2563: ad 13 de     	lda	$de13                   ; 0xde13 <__heap_start+0x8cfb>
    2566: 8e a4 d6     	stx	$d6a4                   ; 0xd6a4 <__heap_start+0x858c>
    2569: 8c a5 d6     	sty	$d6a5                   ; 0xd6a5 <__heap_start+0x858d>
    256c: a2 03        	ldx	#$3
    256e: 8e a6 d6     	stx	$d6a6                   ; 0xd6a6 <__heap_start+0x858e>
    2571: a5 fa        	lda	$fa                     ; 0xfa <__zp_bss_size+0xa1>
    2573: 4a           	lsr
    2574: a6 f8        	ldx	$f8                     ; 0xf8 <__zp_bss_size+0x9f>
    2576: a4 f9        	ldy	$f9                     ; 0xf9 <__zp_bss_size+0xa0>
    2578: 86 12        	stx	$12                     ; 0x12 <__rc2>
    257a: 84 13        	sty	$13                     ; 0x13 <__rc3>
    257c: a2 00        	ldx	#$0
    257e: 20 b3 25     	jsr	$25b3 <f256main>
    2581: 78           	sei
    2582: a6 24        	ldx	$24                     ; 0x24 <__rc20>
    2584: 86 0f        	stx	$f                      ; 0xf <__bss_size+0xe>
    2586: a2 de        	ldx	#$de
    2588: 8e a2 d6     	stx	$d6a2                   ; 0xd6a2 <__heap_start+0x858a>
    258b: a2 ad        	ldx	#$ad
    258d: 8e a3 d6     	stx	$d6a3                   ; 0xd6a3 <__heap_start+0x858b>
    2590: a2 f0        	ldx	#$f0
    2592: 8e a0 d6     	stx	$d6a0                   ; 0xd6a0 <__heap_start+0x8588>
    2595: 9c a0 d6     	stz	$d6a0                   ; 0xd6a0 <__heap_start+0x8588>
    2598: 6c fc ff     	jmp	($fffc)                 ; 0xfffc <__heap_start+0xaee4>
    259b: a2 00        	ldx	#$0
    259d: 8a           	txa
    259e: 85 20        	sta	$20                     ; 0x20 <__rc16>
    25a0: 7a           	ply
    25a1: 84 24        	sty	$24                     ; 0x24 <__rc20>
    25a3: 18           	clc
    25a4: a5 10        	lda	$10                     ; 0x10 <__rc0>
    25a6: 69 09        	adc	#$9
    25a8: 85 10        	sta	$10                     ; 0x10 <__rc0>
    25aa: a5 11        	lda	$11                     ; 0x11 <__rc1>
    25ac: 69 00        	adc	#$0
    25ae: 85 11        	sta	$11                     ; 0x11 <__rc1>
    25b0: a5 20        	lda	$20                     ; 0x20 <__rc16>
    25b2: 60           	rts

000025b3 <f256main>:
    25b3: 48           	pha
    25b4: 18           	clc
    25b5: a5 10        	lda	$10                     ; 0x10 <__rc0>
    25b7: 69 f7        	adc	#$f7
    25b9: 85 10        	sta	$10                     ; 0x10 <__rc0>
    25bb: a5 11        	lda	$11                     ; 0x11 <__rc1>
    25bd: 69 ff        	adc	#$ff
    25bf: 85 11        	sta	$11                     ; 0x11 <__rc1>
    25c1: 68           	pla
    25c2: a4 24        	ldy	$24                     ; 0x24 <__rc20>
    25c4: 5a           	phy
    25c5: a4 25        	ldy	$25                     ; 0x25 <__rc21>
    25c7: 5a           	phy
    25c8: a4 26        	ldy	$26                     ; 0x26 <__rc22>
    25ca: 5a           	phy
    25cb: a4 27        	ldy	$27                     ; 0x27 <__rc23>
    25cd: 5a           	phy
    25ce: 86 16        	stx	$16                     ; 0x16 <__rc6>
    25d0: a2 08        	ldx	#$8
    25d2: 86 24        	stx	$24                     ; 0x24 <__rc20>
    25d4: a2 00        	ldx	#$0
    25d6: 86 25        	stx	$25                     ; 0x25 <__rc21>
    25d8: 18           	clc
    25d9: 48           	pha
    25da: a5 10        	lda	$10                     ; 0x10 <__rc0>
    25dc: 69 07        	adc	#$7
    25de: 85 14        	sta	$14                     ; 0x14 <__rc4>
    25e0: a5 11        	lda	$11                     ; 0x11 <__rc1>
    25e2: 69 00        	adc	#$0
    25e4: 85 15        	sta	$15                     ; 0x15 <__rc5>
    25e6: 68           	pla
    25e7: 92 14        	sta	($14)                   ; 0x14 <__rc4>
    25e9: a0 01        	ldy	#$1
    25eb: a5 16        	lda	$16                     ; 0x16 <__rc6>
    25ed: 91 14        	sta	($14),y                 ; 0x14 <__rc4>
    25ef: a5 12        	lda	$12                     ; 0x12 <__rc2>
    25f1: a6 13        	ldx	$13                     ; 0x13 <__rc3>
    25f3: 18           	clc
    25f4: 48           	pha
    25f5: a5 10        	lda	$10                     ; 0x10 <__rc0>
    25f7: 69 05        	adc	#$5
    25f9: 85 12        	sta	$12                     ; 0x12 <__rc2>
    25fb: a5 11        	lda	$11                     ; 0x11 <__rc1>
    25fd: 69 00        	adc	#$0
    25ff: 85 13        	sta	$13                     ; 0x13 <__rc3>
    2601: 68           	pla
    2602: 92 12        	sta	($12)                   ; 0x12 <__rc2>
    2604: 8a           	txa
    2605: 91 12        	sta	($12),y                 ; 0x12 <__rc2>
    2607: a2 01        	ldx	#$1
    2609: 18           	clc
    260a: a5 10        	lda	$10                     ; 0x10 <__rc0>
    260c: 69 04        	adc	#$4
    260e: 85 12        	sta	$12                     ; 0x12 <__rc2>
    2610: a5 11        	lda	$11                     ; 0x11 <__rc1>
    2612: 69 00        	adc	#$0
    2614: 85 13        	sta	$13                     ; 0x13 <__rc3>
    2616: a9 00        	lda	#$0
    2618: 92 12        	sta	($12)                   ; 0x12 <__rc2>
    261a: 18           	clc
    261b: 48           	pha
    261c: a5 10        	lda	$10                     ; 0x10 <__rc0>
    261e: 69 03        	adc	#$3
    2620: 85 12        	sta	$12                     ; 0x12 <__rc2>
    2622: a5 11        	lda	$11                     ; 0x11 <__rc1>
    2624: 69 00        	adc	#$0
    2626: 85 13        	sta	$13                     ; 0x13 <__rc3>
    2628: 68           	pla
    2629: 92 12        	sta	($12)                   ; 0x12 <__rc2>
    262b: 64 01        	stz	$1                      ; 0x1 <__bss_size>
    262d: 8e 00 d0     	stx	$d000                   ; 0xd000 <__heap_start+0x7ee8>
    2630: 86 26        	stx	$26                     ; 0x26 <__rc22>
    2632: 9c 01 d0     	stz	$d001                   ; 0xd001 <__heap_start+0x7ee9>
    2635: 64 01        	stz	$1                      ; 0x1 <__bss_size>
    2637: 9c 0d d0     	stz	$d00d                   ; 0xd00d <__heap_start+0x7ef5>
    263a: 20 8e 20     	jsr	$208e <openAllCODEC>
    263d: 20 a5 20     	jsr	$20a5 <boostVSClock>
    2640: a2 0e        	ldx	#$e
    2642: a0 3a        	ldy	#$3a
    2644: 64 12        	stz	$12                     ; 0x12 <__rc2>
    2646: a5 26        	lda	$26                     ; 0x26 <__rc22>
    2648: 85 13        	sta	$13                     ; 0x13 <__rc3>
    264a: 64 14        	stz	$14                     ; 0x14 <__rc4>
    264c: 86 15        	stx	$15                     ; 0x15 <__rc5>
    264e: 84 16        	sty	$16                     ; 0x16 <__rc6>
    2650: a2 00        	ldx	#$0
    2652: 8a           	txa
    2653: 20 29 2a     	jsr	$2a29 <setupSound>
    2656: a9 02        	lda	#$2
    2658: a2 4e        	ldx	#$4e
    265a: a0 2d        	ldy	#$2d
    265c: 64 12        	stz	$12                     ; 0x12 <__rc2>
    265e: 85 13        	sta	$13                     ; 0x13 <__rc3>
    2660: 85 27        	sta	$27                     ; 0x27 <__rc23>
    2662: 64 14        	stz	$14                     ; 0x14 <__rc4>
    2664: 86 15        	stx	$15                     ; 0x15 <__rc5>
    2666: 84 16        	sty	$16                     ; 0x16 <__rc6>
    2668: a2 00        	ldx	#$0
    266a: a5 26        	lda	$26                     ; 0x26 <__rc22>
    266c: 20 29 2a     	jsr	$2a29 <setupSound>
    266f: a9 03        	lda	#$3
    2671: a2 06        	ldx	#$6
    2673: a0 1c        	ldy	#$1c
    2675: 64 12        	stz	$12                     ; 0x12 <__rc2>
    2677: 85 13        	sta	$13                     ; 0x13 <__rc3>
    2679: 85 26        	sta	$26                     ; 0x26 <__rc22>
    267b: 64 14        	stz	$14                     ; 0x14 <__rc4>
    267d: 86 15        	stx	$15                     ; 0x15 <__rc5>
    267f: 84 16        	sty	$16                     ; 0x16 <__rc6>
    2681: a2 00        	ldx	#$0
    2683: a5 27        	lda	$27                     ; 0x27 <__rc23>
    2685: 20 29 2a     	jsr	$2a29 <setupSound>
    2688: a9 04        	lda	#$4
    268a: a2 5c        	ldx	#$5c
    268c: a0 5a        	ldy	#$5a
    268e: 86 15        	stx	$15                     ; 0x15 <__rc5>
    2690: 64 12        	stz	$12                     ; 0x12 <__rc2>
    2692: 85 13        	sta	$13                     ; 0x13 <__rc3>
    2694: 64 14        	stz	$14                     ; 0x14 <__rc4>
    2696: 84 16        	sty	$16                     ; 0x16 <__rc6>
    2698: a2 00        	ldx	#$0
    269a: a5 26        	lda	$26                     ; 0x26 <__rc22>
    269c: 20 29 2a     	jsr	$2a29 <setupSound>
    269f: 20 bd 2a     	jsr	$2abd <headerPump>
    26a2: 20 c3 20     	jsr	$20c3 <lowVol>
    26a5: 20 70 2b     	jsr	$2b70 <silencePad>
    26a8: 20 e1 20     	jsr	$20e1 <highVol>
    26ab: 20 2c 05     	jsr	$52c <midiShutUp>
    26ae: 20 26 20     	jsr	$2026 <setStereoPSG>
    26b1: 20 f7 1f     	jsr	$1ff7 <shutPSG>
    26b4: 20 2d 20     	jsr	$202d <shutAllSIDVoices>
    26b7: a2 ff        	ldx	#$ff
    26b9: 8e 00 d4     	stx	$d400                   ; 0xd400 <__heap_start+0x82e8>
    26bc: 8e 01 d4     	stx	$d401                   ; 0xd401 <__heap_start+0x82e9>
    26bf: 9c 02 d4     	stz	$d402                   ; 0xd402 <__heap_start+0x82ea>
    26c2: a9 04        	lda	#$4
    26c4: 8d 03 d4     	sta	$d403                   ; 0xd403 <__heap_start+0x82eb>
    26c7: a0 0f        	ldy	#$f
    26c9: 8c 05 d4     	sty	$d405                   ; 0xd405 <__heap_start+0x82ed>
    26cc: 8e 06 d4     	stx	$d406                   ; 0xd406 <__heap_start+0x82ee>
    26cf: a2 40        	ldx	#$40
    26d1: 8e 04 d4     	stx	$d404                   ; 0xd404 <__heap_start+0x82ec>
    26d4: 8d 18 d4     	sta	$d418                   ; 0xd418 <__heap_start+0x8300>
    26d7: 20 8e 19     	jsr	$198e <initTrack>
    26da: 20 64 20     	jsr	$2064 <resetTimer0>
    26dd: a2 9f        	ldx	#$9f
    26df: 86 12        	stx	$12                     ; 0x12 <__rc2>
    26e1: a2 50        	ldx	#$50
    26e3: 86 13        	stx	$13                     ; 0x13 <__rc3>
    26e5: 20 a4 39     	jsr	$39a4 <printf>
    26e8: a2 c8        	ldx	#$c8
    26ea: 86 12        	stx	$12                     ; 0x12 <__rc2>
    26ec: a2 4f        	ldx	#$4f
    26ee: 86 13        	stx	$13                     ; 0x13 <__rc3>
    26f0: 20 a4 39     	jsr	$39a4 <printf>
    26f3: a2 0f        	ldx	#$f
    26f5: 86 12        	stx	$12                     ; 0x12 <__rc2>
    26f7: a2 50        	ldx	#$50
    26f9: 86 13        	stx	$13                     ; 0x13 <__rc3>
    26fb: 20 a4 39     	jsr	$39a4 <printf>
    26fe: a2 54        	ldx	#$54
    2700: 86 12        	stx	$12                     ; 0x12 <__rc2>
    2702: a2 50        	ldx	#$50
    2704: 86 13        	stx	$13                     ; 0x13 <__rc3>
    2706: 20 a4 39     	jsr	$39a4 <printf>
    2709: a2 cb        	ldx	#$cb
    270b: 86 12        	stx	$12                     ; 0x12 <__rc2>
    270d: a2 50        	ldx	#$50
    270f: 86 13        	stx	$13                     ; 0x13 <__rc3>
    2711: 20 a4 39     	jsr	$39a4 <printf>
    2714: 18           	clc
    2715: a5 10        	lda	$10                     ; 0x10 <__rc0>
    2717: 69 03        	adc	#$3
    2719: 85 12        	sta	$12                     ; 0x12 <__rc2>
    271b: a5 11        	lda	$11                     ; 0x11 <__rc1>
    271d: 69 00        	adc	#$0
    271f: 85 13        	sta	$13                     ; 0x13 <__rc3>
    2721: b2 12        	lda	($12)                   ; 0x12 <__rc2>
    2723: d0 07        	bne	$272c <f256main+0x179>
    2725: 80 00        	bra	$2727 <f256main+0x174>
    2727: 20 5e 2c     	jsr	$2c5e <playChunk>
    272a: 80 3e        	bra	$276a <f256main+0x1b7>
    272c: 18           	clc
    272d: a5 10        	lda	$10                     ; 0x10 <__rc0>
    272f: 69 03        	adc	#$3
    2731: 85 12        	sta	$12                     ; 0x12 <__rc2>
    2733: a5 11        	lda	$11                     ; 0x11 <__rc1>
    2735: 69 00        	adc	#$0
    2737: 85 13        	sta	$13                     ; 0x13 <__rc3>
    2739: b2 12        	lda	($12)                   ; 0x12 <__rc2>
    273b: c9 01        	cmp	#$1
    273d: f0 02        	beq	$2741 <f256main+0x18e>
    273f: 80 02        	bra	$2743 <f256main+0x190>
    2741: 80 02        	bra	$2745 <f256main+0x192>
    2743: 80 07        	bra	$274c <f256main+0x199>
    2745: 80 00        	bra	$2747 <f256main+0x194>
    2747: 20 21 2f     	jsr	$2f21 <playPSGChunk>
    274a: 80 1e        	bra	$276a <f256main+0x1b7>
    274c: 18           	clc
    274d: a5 10        	lda	$10                     ; 0x10 <__rc0>
    274f: 69 03        	adc	#$3
    2751: 85 12        	sta	$12                     ; 0x12 <__rc2>
    2753: a5 11        	lda	$11                     ; 0x11 <__rc1>
    2755: 69 00        	adc	#$0
    2757: 85 13        	sta	$13                     ; 0x13 <__rc3>
    2759: b2 12        	lda	($12)                   ; 0x12 <__rc2>
    275b: c9 02        	cmp	#$2
    275d: f0 02        	beq	$2761 <f256main+0x1ae>
    275f: 80 02        	bra	$2763 <f256main+0x1b0>
    2761: 80 02        	bra	$2765 <f256main+0x1b2>
    2763: 80 05        	bra	$276a <f256main+0x1b7>
    2765: 80 00        	bra	$2767 <f256main+0x1b4>
    2767: 20 af 32     	jsr	$32af <playSIDChunk>
    276a: 18           	clc
    276b: a5 10        	lda	$10                     ; 0x10 <__rc0>
    276d: 69 04        	adc	#$4
    276f: 85 12        	sta	$12                     ; 0x12 <__rc2>
    2771: a5 11        	lda	$11                     ; 0x11 <__rc1>
    2773: 69 00        	adc	#$0
    2775: 85 13        	sta	$13                     ; 0x13 <__rc3>
    2777: b2 12        	lda	($12)                   ; 0x12 <__rc2>
    2779: f0 1e        	beq	$2799 <f256main+0x1e6>
    277b: 80 00        	bra	$277d <f256main+0x1ca>
    277d: ad 60 d6     	lda	$d660                   ; 0xd660 <__heap_start+0x8548>
    2780: 29 10        	and	#$10
    2782: f0 0a        	beq	$278e <f256main+0x1db>
    2784: 80 00        	bra	$2786 <f256main+0x1d3>
    2786: a2 10        	ldx	#$10
    2788: 8e 60 d6     	stx	$d660                   ; 0xd660 <__heap_start+0x8548>
    278b: 20 fc 14     	jsr	$14fc <playMidi>
    278e: a5 79        	lda	$79                     ; 0x79 <theOne.4>
    2790: 29 01        	and	#$1
    2792: d0 05        	bne	$2799 <f256main+0x1e6>
    2794: 80 00        	bra	$2796 <f256main+0x1e3>
    2796: 20 ba 1e     	jsr	$1eba <sniffNextMIDI>
    2799: 64 32        	stz	$32                     ; 0x32 <kernelEventData>
    279b: 18           	clc
    279c: a5 10        	lda	$10                     ; 0x10 <__rc0>
    279e: 69 01        	adc	#$1
    27a0: 85 12        	sta	$12                     ; 0x12 <__rc2>
    27a2: a5 11        	lda	$11                     ; 0x11 <__rc1>
    27a4: 69 00        	adc	#$0
    27a6: 85 13        	sta	$13                     ; 0x13 <__rc3>
    27a8: a2 16        	ldx	#$16
    27aa: 86 14        	stx	$14                     ; 0x14 <__rc4>
    27ac: a2 51        	ldx	#$51
    27ae: 86 15        	stx	$15                     ; 0x15 <__rc5>
    27b0: 20 00 ff     	jsr	$ff00 <__heap_start+0xade8>
    27b3: 92 12        	sta	($12)                   ; 0x12 <__rc2>
    27b5: a9 00        	lda	#$0
    27b7: 6a           	ror
    27b8: 85 14        	sta	$14                     ; 0x14 <__rc4>
    27ba: b2 12        	lda	($12)                   ; 0x12 <__rc2>
    27bc: 18           	clc
    27bd: a6 10        	ldx	$10                     ; 0x10 <__rc0>
    27bf: 86 12        	stx	$12                     ; 0x12 <__rc2>
    27c1: a6 11        	ldx	$11                     ; 0x11 <__rc1>
    27c3: 86 13        	stx	$13                     ; 0x13 <__rc3>
    27c5: 92 12        	sta	($12)                   ; 0x12 <__rc2>
    27c7: b2 12        	lda	($12)                   ; 0x12 <__rc2>
    27c9: 18           	clc
    27ca: 48           	pha
    27cb: a5 10        	lda	$10                     ; 0x10 <__rc0>
    27cd: 69 02        	adc	#$2
    27cf: 85 12        	sta	$12                     ; 0x12 <__rc2>
    27d1: a5 11        	lda	$11                     ; 0x11 <__rc1>
    27d3: 69 00        	adc	#$0
    27d5: 85 13        	sta	$13                     ; 0x13 <__rc3>
    27d7: 68           	pla
    27d8: 92 12        	sta	($12)                   ; 0x12 <__rc2>
    27da: a6 32        	ldx	$32                     ; 0x32 <kernelEventData>
    27dc: a0 00        	ldy	#$0
    27de: c4 25        	cpy	$25                     ; 0x25 <__rc21>
    27e0: f0 02        	beq	$27e4 <f256main+0x231>
    27e2: 80 0d        	bra	$27f1 <f256main+0x23e>
    27e4: e4 24        	cpx	$24                     ; 0x24 <__rc20>
    27e6: f0 02        	beq	$27ea <f256main+0x237>
    27e8: 80 02        	bra	$27ec <f256main+0x239>
    27ea: 80 03        	bra	$27ef <f256main+0x23c>
    27ec: 4c 26 2a     	jmp	$2a26 <f256main+0x473>
    27ef: 80 03        	bra	$27f4 <f256main+0x241>
    27f1: 4c 26 2a     	jmp	$2a26 <f256main+0x473>
    27f4: 80 00        	bra	$27f6 <f256main+0x243>
    27f6: a5 36        	lda	$36                     ; 0x36 <kernelEventData+0x4>
    27f8: 18           	clc
    27f9: 69 e0        	adc	#$e0
    27fb: aa           	tax
    27fc: a9 00        	lda	#$0
    27fe: 69 ff        	adc	#$ff
    2800: c9 00        	cmp	#$0
    2802: a0 01        	ldy	#$1
    2804: b0 02        	bcs	$2808 <f256main+0x255>
    2806: a0 00        	ldy	#$0
    2808: 84 12        	sty	$12                     ; 0x12 <__rc2>
    280a: a8           	tay
    280b: f0 02        	beq	$280f <f256main+0x25c>
    280d: 80 08        	bra	$2817 <f256main+0x264>
    280f: 8a           	txa
    2810: c9 58        	cmp	#$58
    2812: 90 0b        	bcc	$281f <f256main+0x26c>
    2814: 4c 26 2a     	jmp	$2a26 <f256main+0x473>
    2817: 8a           	txa
    2818: a6 12        	ldx	$12                     ; 0x12 <__rc2>
    281a: f0 03        	beq	$281f <f256main+0x26c>
    281c: 4c 26 2a     	jmp	$2a26 <f256main+0x473>
    281f: 0a           	asl
    2820: aa           	tax
    2821: 7c ae 4e     	jmp	($4eae,x)               ; 0x4eae <__camera_size+0x14a0>
    2824: a2 c5        	ldx	#$c5
    2826: 86 12        	stx	$12                     ; 0x12 <__rc2>
    2828: a2 50        	ldx	#$50
    282a: 86 13        	stx	$13                     ; 0x13 <__rc3>
    282c: 20 a4 39     	jsr	$39a4 <printf>
    282f: a9 00        	lda	#$0
    2831: 20 72 36     	jsr	$3672 <startSound>
    2834: 18           	clc
    2835: a5 10        	lda	$10                     ; 0x10 <__rc0>
    2837: 69 03        	adc	#$3
    2839: 85 12        	sta	$12                     ; 0x12 <__rc2>
    283b: a5 11        	lda	$11                     ; 0x11 <__rc1>
    283d: 69 00        	adc	#$0
    283f: 85 13        	sta	$13                     ; 0x13 <__rc3>
    2841: a9 00        	lda	#$0
    2843: 92 12        	sta	($12)                   ; 0x12 <__rc2>
    2845: 4c 26 2a     	jmp	$2a26 <f256main+0x473>
    2848: a2 0d        	ldx	#$d
    284a: 86 12        	stx	$12                     ; 0x12 <__rc2>
    284c: a2 50        	ldx	#$50
    284e: 86 13        	stx	$13                     ; 0x13 <__rc3>
    2850: 20 a4 39     	jsr	$39a4 <printf>
    2853: a9 01        	lda	#$1
    2855: 20 72 36     	jsr	$3672 <startSound>
    2858: 18           	clc
    2859: a5 10        	lda	$10                     ; 0x10 <__rc0>
    285b: 69 03        	adc	#$3
    285d: 85 12        	sta	$12                     ; 0x12 <__rc2>
    285f: a5 11        	lda	$11                     ; 0x11 <__rc1>
    2861: 69 00        	adc	#$0
    2863: 85 13        	sta	$13                     ; 0x13 <__rc3>
    2865: a9 00        	lda	#$0
    2867: 92 12        	sta	($12)                   ; 0x12 <__rc2>
    2869: 4c 26 2a     	jmp	$2a26 <f256main+0x473>
    286c: a2 bf        	ldx	#$bf
    286e: 86 12        	stx	$12                     ; 0x12 <__rc2>
    2870: a2 50        	ldx	#$50
    2872: 86 13        	stx	$13                     ; 0x13 <__rc3>
    2874: 20 a4 39     	jsr	$39a4 <printf>
    2877: a9 02        	lda	#$2
    2879: 20 72 36     	jsr	$3672 <startSound>
    287c: 18           	clc
    287d: a5 10        	lda	$10                     ; 0x10 <__rc0>
    287f: 69 03        	adc	#$3
    2881: 85 12        	sta	$12                     ; 0x12 <__rc2>
    2883: a5 11        	lda	$11                     ; 0x11 <__rc1>
    2885: 69 00        	adc	#$0
    2887: 85 13        	sta	$13                     ; 0x13 <__rc3>
    2889: a9 00        	lda	#$0
    288b: 92 12        	sta	($12)                   ; 0x12 <__rc2>
    288d: 4c 26 2a     	jmp	$2a26 <f256main+0x473>
    2890: a2 c1        	ldx	#$c1
    2892: 86 12        	stx	$12                     ; 0x12 <__rc2>
    2894: a2 50        	ldx	#$50
    2896: 86 13        	stx	$13                     ; 0x13 <__rc3>
    2898: 20 a4 39     	jsr	$39a4 <printf>
    289b: a9 03        	lda	#$3
    289d: 20 72 36     	jsr	$3672 <startSound>
    28a0: 18           	clc
    28a1: a5 10        	lda	$10                     ; 0x10 <__rc0>
    28a3: 69 03        	adc	#$3
    28a5: 85 12        	sta	$12                     ; 0x12 <__rc2>
    28a7: a5 11        	lda	$11                     ; 0x11 <__rc1>
    28a9: 69 00        	adc	#$0
    28ab: 85 13        	sta	$13                     ; 0x13 <__rc3>
    28ad: a9 00        	lda	#$0
    28af: 92 12        	sta	($12)                   ; 0x12 <__rc2>
    28b1: 4c 26 2a     	jmp	$2a26 <f256main+0x473>
    28b4: a2 14        	ldx	#$14
    28b6: 86 12        	stx	$12                     ; 0x12 <__rc2>
    28b8: a2 51        	ldx	#$51
    28ba: 86 13        	stx	$13                     ; 0x13 <__rc3>
    28bc: 20 a4 39     	jsr	$39a4 <printf>
    28bf: 20 18 20     	jsr	$2018 <psgNoteOn>
    28c2: a9 00        	lda	#$0
    28c4: 20 72 36     	jsr	$3672 <startSound>
    28c7: 18           	clc
    28c8: a5 10        	lda	$10                     ; 0x10 <__rc0>
    28ca: 69 03        	adc	#$3
    28cc: 85 12        	sta	$12                     ; 0x12 <__rc2>
    28ce: a5 11        	lda	$11                     ; 0x11 <__rc1>
    28d0: 69 00        	adc	#$0
    28d2: 85 13        	sta	$13                     ; 0x13 <__rc3>
    28d4: a9 01        	lda	#$1
    28d6: 92 12        	sta	($12)                   ; 0x12 <__rc2>
    28d8: 4c 26 2a     	jmp	$2a26 <f256main+0x473>
    28db: a2 c9        	ldx	#$c9
    28dd: 86 12        	stx	$12                     ; 0x12 <__rc2>
    28df: a2 50        	ldx	#$50
    28e1: 86 13        	stx	$13                     ; 0x13 <__rc3>
    28e3: 20 a4 39     	jsr	$39a4 <printf>
    28e6: 20 18 20     	jsr	$2018 <psgNoteOn>
    28e9: a9 01        	lda	#$1
    28eb: 20 72 36     	jsr	$3672 <startSound>
    28ee: 18           	clc
    28ef: a5 10        	lda	$10                     ; 0x10 <__rc0>
    28f1: 69 03        	adc	#$3
    28f3: 85 12        	sta	$12                     ; 0x12 <__rc2>
    28f5: a5 11        	lda	$11                     ; 0x11 <__rc1>
    28f7: 69 00        	adc	#$0
    28f9: 85 13        	sta	$13                     ; 0x13 <__rc3>
    28fb: a9 01        	lda	#$1
    28fd: 92 12        	sta	($12)                   ; 0x12 <__rc2>
    28ff: 4c 26 2a     	jmp	$2a26 <f256main+0x473>
    2902: a2 c3        	ldx	#$c3
    2904: 86 12        	stx	$12                     ; 0x12 <__rc2>
    2906: a2 50        	ldx	#$50
    2908: 86 13        	stx	$13                     ; 0x13 <__rc3>
    290a: 20 a4 39     	jsr	$39a4 <printf>
    290d: 20 18 20     	jsr	$2018 <psgNoteOn>
    2910: a9 02        	lda	#$2
    2912: 20 72 36     	jsr	$3672 <startSound>
    2915: 18           	clc
    2916: a5 10        	lda	$10                     ; 0x10 <__rc0>
    2918: 69 03        	adc	#$3
    291a: 85 12        	sta	$12                     ; 0x12 <__rc2>
    291c: a5 11        	lda	$11                     ; 0x11 <__rc1>
    291e: 69 00        	adc	#$0
    2920: 85 13        	sta	$13                     ; 0x13 <__rc3>
    2922: a9 01        	lda	#$1
    2924: 92 12        	sta	($12)                   ; 0x12 <__rc2>
    2926: 4c 26 2a     	jmp	$2a26 <f256main+0x473>
    2929: a2 9b        	ldx	#$9b
    292b: 86 12        	stx	$12                     ; 0x12 <__rc2>
    292d: a2 50        	ldx	#$50
    292f: 86 13        	stx	$13                     ; 0x13 <__rc3>
    2931: 20 a4 39     	jsr	$39a4 <printf>
    2934: 20 18 20     	jsr	$2018 <psgNoteOn>
    2937: a9 03        	lda	#$3
    2939: 20 72 36     	jsr	$3672 <startSound>
    293c: 18           	clc
    293d: a5 10        	lda	$10                     ; 0x10 <__rc0>
    293f: 69 03        	adc	#$3
    2941: 85 12        	sta	$12                     ; 0x12 <__rc2>
    2943: a5 11        	lda	$11                     ; 0x11 <__rc1>
    2945: 69 00        	adc	#$0
    2947: 85 13        	sta	$13                     ; 0x13 <__rc3>
    2949: a9 01        	lda	#$1
    294b: 92 12        	sta	($12)                   ; 0x12 <__rc2>
    294d: 4c 26 2a     	jmp	$2a26 <f256main+0x473>
    2950: a2 9d        	ldx	#$9d
    2952: 86 12        	stx	$12                     ; 0x12 <__rc2>
    2954: a2 50        	ldx	#$50
    2956: 86 13        	stx	$13                     ; 0x13 <__rc3>
    2958: 20 a4 39     	jsr	$39a4 <printf>
    295b: a9 00        	lda	#$0
    295d: 20 72 36     	jsr	$3672 <startSound>
    2960: 20 5e 20     	jsr	$205e <sidNoteOnOrOff>
    2963: 18           	clc
    2964: a5 10        	lda	$10                     ; 0x10 <__rc0>
    2966: 69 03        	adc	#$3
    2968: 85 12        	sta	$12                     ; 0x12 <__rc2>
    296a: a5 11        	lda	$11                     ; 0x11 <__rc1>
    296c: 69 00        	adc	#$0
    296e: 85 13        	sta	$13                     ; 0x13 <__rc3>
    2970: a9 02        	lda	#$2
    2972: 92 12        	sta	($12)                   ; 0x12 <__rc2>
    2974: 4c 26 2a     	jmp	$2a26 <f256main+0x473>
    2977: a2 99        	ldx	#$99
    2979: 86 12        	stx	$12                     ; 0x12 <__rc2>
    297b: a2 50        	ldx	#$50
    297d: 86 13        	stx	$13                     ; 0x13 <__rc3>
    297f: 20 a4 39     	jsr	$39a4 <printf>
    2982: a9 01        	lda	#$1
    2984: 20 72 36     	jsr	$3672 <startSound>
    2987: 20 5e 20     	jsr	$205e <sidNoteOnOrOff>
    298a: 18           	clc
    298b: a5 10        	lda	$10                     ; 0x10 <__rc0>
    298d: 69 03        	adc	#$3
    298f: 85 12        	sta	$12                     ; 0x12 <__rc2>
    2991: a5 11        	lda	$11                     ; 0x11 <__rc1>
    2993: 69 00        	adc	#$0
    2995: 85 13        	sta	$13                     ; 0x13 <__rc3>
    2997: a9 02        	lda	#$2
    2999: 92 12        	sta	($12)                   ; 0x12 <__rc2>
    299b: 4c 26 2a     	jmp	$2a26 <f256main+0x473>
    299e: a2 c7        	ldx	#$c7
    29a0: 86 12        	stx	$12                     ; 0x12 <__rc2>
    29a2: a2 50        	ldx	#$50
    29a4: 86 13        	stx	$13                     ; 0x13 <__rc3>
    29a6: 20 a4 39     	jsr	$39a4 <printf>
    29a9: a9 02        	lda	#$2
    29ab: 20 72 36     	jsr	$3672 <startSound>
    29ae: 20 5e 20     	jsr	$205e <sidNoteOnOrOff>
    29b1: 18           	clc
    29b2: a5 10        	lda	$10                     ; 0x10 <__rc0>
    29b4: 69 03        	adc	#$3
    29b6: 85 12        	sta	$12                     ; 0x12 <__rc2>
    29b8: a5 11        	lda	$11                     ; 0x11 <__rc1>
    29ba: 69 00        	adc	#$0
    29bc: 85 13        	sta	$13                     ; 0x13 <__rc3>
    29be: a9 02        	lda	#$2
    29c0: 92 12        	sta	($12)                   ; 0x12 <__rc2>
    29c2: 4c 26 2a     	jmp	$2a26 <f256main+0x473>
    29c5: a2 12        	ldx	#$12
    29c7: 86 12        	stx	$12                     ; 0x12 <__rc2>
    29c9: a2 51        	ldx	#$51
    29cb: 86 13        	stx	$13                     ; 0x13 <__rc3>
    29cd: 20 a4 39     	jsr	$39a4 <printf>
    29d0: a9 03        	lda	#$3
    29d2: 20 72 36     	jsr	$3672 <startSound>
    29d5: 20 5e 20     	jsr	$205e <sidNoteOnOrOff>
    29d8: 18           	clc
    29d9: a5 10        	lda	$10                     ; 0x10 <__rc0>
    29db: 69 03        	adc	#$3
    29dd: 85 12        	sta	$12                     ; 0x12 <__rc2>
    29df: a5 11        	lda	$11                     ; 0x11 <__rc1>
    29e1: 69 00        	adc	#$0
    29e3: 85 13        	sta	$13                     ; 0x13 <__rc3>
    29e5: a9 02        	lda	#$2
    29e7: 92 12        	sta	($12)                   ; 0x12 <__rc2>
    29e9: 80 3b        	bra	$2a26 <f256main+0x473>
    29eb: 18           	clc
    29ec: a5 10        	lda	$10                     ; 0x10 <__rc0>
    29ee: 69 04        	adc	#$4
    29f0: 85 12        	sta	$12                     ; 0x12 <__rc2>
    29f2: a5 11        	lda	$11                     ; 0x11 <__rc1>
    29f4: 69 00        	adc	#$0
    29f6: 85 13        	sta	$13                     ; 0x13 <__rc3>
    29f8: b2 12        	lda	($12)                   ; 0x12 <__rc2>
    29fa: f0 02        	beq	$29fe <f256main+0x44b>
    29fc: 80 02        	bra	$2a00 <f256main+0x44d>
    29fe: 80 04        	bra	$2a04 <f256main+0x451>
    2a00: 80 00        	bra	$2a02 <f256main+0x44f>
    2a02: 80 04        	bra	$2a08 <f256main+0x455>
    2a04: a9 01        	lda	#$1
    2a06: 80 04        	bra	$2a0c <f256main+0x459>
    2a08: a9 00        	lda	#$0
    2a0a: 80 00        	bra	$2a0c <f256main+0x459>
    2a0c: 18           	clc
    2a0d: 48           	pha
    2a0e: a5 10        	lda	$10                     ; 0x10 <__rc0>
    2a10: 69 04        	adc	#$4
    2a12: 85 12        	sta	$12                     ; 0x12 <__rc2>
    2a14: a5 11        	lda	$11                     ; 0x11 <__rc1>
    2a16: 69 00        	adc	#$0
    2a18: 85 13        	sta	$13                     ; 0x13 <__rc3>
    2a1a: 68           	pla
    2a1b: 92 12        	sta	($12)                   ; 0x12 <__rc2>
    2a1d: b2 12        	lda	($12)                   ; 0x12 <__rc2>
    2a1f: d0 05        	bne	$2a26 <f256main+0x473>
    2a21: 80 00        	bra	$2a23 <f256main+0x470>
    2a23: 20 87 04     	jsr	$487 <midiShutAllChannels>
    2a26: 4c 14 27     	jmp	$2714 <f256main+0x161>

00002a29 <setupSound>:
    2a29: 85 17        	sta	$17                     ; 0x17 <__rc7>
    2a2b: a4 12        	ldy	$12                     ; 0x12 <__rc2>
    2a2d: 48           	pha
    2a2e: a5 16        	lda	$16                     ; 0x16 <__rc6>
    2a30: 85 18        	sta	$18                     ; 0x18 <__rc8>
    2a32: 68           	pla
    2a33: 0a           	asl
    2a34: 64 16        	stz	$16                     ; 0x16 <__rc6>
    2a36: 26 16        	rol	$16                     ; 0x16 <__rc6>
    2a38: 0a           	asl
    2a39: 26 16        	rol	$16                     ; 0x16 <__rc6>
    2a3b: 0a           	asl
    2a3c: 26 16        	rol	$16                     ; 0x16 <__rc6>
    2a3e: 18           	clc
    2a3f: 65 17        	adc	$17                     ; 0x17 <__rc7>
    2a41: 85 12        	sta	$12                     ; 0x12 <__rc2>
    2a43: a5 16        	lda	$16                     ; 0x16 <__rc6>
    2a45: 69 00        	adc	#$0
    2a47: 85 16        	sta	$16                     ; 0x16 <__rc6>
    2a49: a9 49        	lda	#$49
    2a4b: 18           	clc
    2a4c: 65 12        	adc	$12                     ; 0x12 <__rc2>
    2a4e: 85 19        	sta	$19                     ; 0x19 <__rc9>
    2a50: a9 00        	lda	#$0
    2a52: 65 16        	adc	$16                     ; 0x16 <__rc6>
    2a54: 85 1a        	sta	$1a                     ; 0x1a <__rc10>
    2a56: 18           	clc
    2a57: 8a           	txa
    2a58: 69 2c        	adc	#$2c
    2a5a: 85 16        	sta	$16                     ; 0x16 <__rc6>
    2a5c: 98           	tya
    2a5d: 69 00        	adc	#$0
    2a5f: 85 17        	sta	$17                     ; 0x17 <__rc7>
    2a61: a5 13        	lda	$13                     ; 0x13 <__rc3>
    2a63: 69 00        	adc	#$0
    2a65: a6 19        	ldx	$19                     ; 0x19 <__rc9>
    2a67: 86 12        	stx	$12                     ; 0x12 <__rc2>
    2a69: a6 1a        	ldx	$1a                     ; 0x1a <__rc10>
    2a6b: 86 13        	stx	$13                     ; 0x13 <__rc3>
    2a6d: a0 02        	ldy	#$2
    2a6f: 91 12        	sta	($12),y                 ; 0x12 <__rc2>
    2a71: a5 14        	lda	$14                     ; 0x14 <__rc4>
    2a73: 69 00        	adc	#$0
    2a75: c8           	iny
    2a76: 91 12        	sta	($12),y                 ; 0x12 <__rc2>
    2a78: 18           	clc
    2a79: a5 15        	lda	$15                     ; 0x15 <__rc5>
    2a7b: 69 d4        	adc	#$d4
    2a7d: c8           	iny
    2a7e: 91 12        	sta	($12),y                 ; 0x12 <__rc2>
    2a80: a0 01        	ldy	#$1
    2a82: a5 17        	lda	$17                     ; 0x17 <__rc7>
    2a84: 91 12        	sta	($12),y                 ; 0x12 <__rc2>
    2a86: a5 18        	lda	$18                     ; 0x18 <__rc8>
    2a88: 69 ff        	adc	#$ff
    2a8a: 85 17        	sta	$17                     ; 0x17 <__rc7>
    2a8c: a5 19        	lda	$19                     ; 0x19 <__rc9>
    2a8e: 18           	clc
    2a8f: 69 04        	adc	#$4
    2a91: 85 14        	sta	$14                     ; 0x14 <__rc4>
    2a93: a5 1a        	lda	$1a                     ; 0x1a <__rc10>
    2a95: 69 00        	adc	#$0
    2a97: 85 15        	sta	$15                     ; 0x15 <__rc5>
    2a99: a5 17        	lda	$17                     ; 0x17 <__rc7>
    2a9b: 91 14        	sta	($14),y                 ; 0x14 <__rc4>
    2a9d: a2 01        	ldx	#$1
    2a9f: 86 17        	stx	$17                     ; 0x17 <__rc7>
    2aa1: 18           	clc
    2aa2: a5 19        	lda	$19                     ; 0x19 <__rc9>
    2aa4: 69 06        	adc	#$6
    2aa6: 85 14        	sta	$14                     ; 0x14 <__rc4>
    2aa8: a5 1a        	lda	$1a                     ; 0x1a <__rc10>
    2aaa: 69 00        	adc	#$0
    2aac: 85 15        	sta	$15                     ; 0x15 <__rc5>
    2aae: a9 00        	lda	#$0
    2ab0: a0 06        	ldy	#$6
    2ab2: 91 12        	sta	($12),y                 ; 0x12 <__rc2>
    2ab4: a4 17        	ldy	$17                     ; 0x17 <__rc7>
    2ab6: 91 14        	sta	($14),y                 ; 0x14 <__rc4>
    2ab8: a5 16        	lda	$16                     ; 0x16 <__rc6>
    2aba: 92 12        	sta	($12)                   ; 0x12 <__rc2>
    2abc: 60           	rts

00002abd <headerPump>:
    2abd: a2 52        	ldx	#$52
    2abf: 8e 07 d7     	stx	$d707                   ; 0xd707 <__heap_start+0x85ef>
    2ac2: a2 49        	ldx	#$49
    2ac4: 8e 07 d7     	stx	$d707                   ; 0xd707 <__heap_start+0x85ef>
    2ac7: a2 46        	ldx	#$46
    2ac9: 8e 07 d7     	stx	$d707                   ; 0xd707 <__heap_start+0x85ef>
    2acc: 8e 07 d7     	stx	$d707                   ; 0xd707 <__heap_start+0x85ef>
    2acf: a2 06        	ldx	#$6
    2ad1: 8e 07 d7     	stx	$d707                   ; 0xd707 <__heap_start+0x85ef>
    2ad4: a2 3a        	ldx	#$3a
    2ad6: 8e 07 d7     	stx	$d707                   ; 0xd707 <__heap_start+0x85ef>
    2ad9: 9c 07 d7     	stz	$d707                   ; 0xd707 <__heap_start+0x85ef>
    2adc: 9c 07 d7     	stz	$d707                   ; 0xd707 <__heap_start+0x85ef>
    2adf: a2 57        	ldx	#$57
    2ae1: 8e 07 d7     	stx	$d707                   ; 0xd707 <__heap_start+0x85ef>
    2ae4: a2 41        	ldx	#$41
    2ae6: 8e 07 d7     	stx	$d707                   ; 0xd707 <__heap_start+0x85ef>
    2ae9: a0 56        	ldy	#$56
    2aeb: 8c 07 d7     	sty	$d707                   ; 0xd707 <__heap_start+0x85ef>
    2aee: a2 45        	ldx	#$45
    2af0: 8e 07 d7     	stx	$d707                   ; 0xd707 <__heap_start+0x85ef>
    2af3: a2 66        	ldx	#$66
    2af5: 8e 07 d7     	stx	$d707                   ; 0xd707 <__heap_start+0x85ef>
    2af8: a2 6d        	ldx	#$6d
    2afa: 8e 07 d7     	stx	$d707                   ; 0xd707 <__heap_start+0x85ef>
    2afd: a2 74        	ldx	#$74
    2aff: 8e 07 d7     	stx	$d707                   ; 0xd707 <__heap_start+0x85ef>
    2b02: 86 12        	stx	$12                     ; 0x12 <__rc2>
    2b04: a9 20        	lda	#$20
    2b06: 8d 07 d7     	sta	$d707                   ; 0xd707 <__heap_start+0x85ef>
    2b09: a9 10        	lda	#$10
    2b0b: 8d 07 d7     	sta	$d707                   ; 0xd707 <__heap_start+0x85ef>
    2b0e: 9c 07 d7     	stz	$d707                   ; 0xd707 <__heap_start+0x85ef>
    2b11: 9c 07 d7     	stz	$d707                   ; 0xd707 <__heap_start+0x85ef>
    2b14: 9c 07 d7     	stz	$d707                   ; 0xd707 <__heap_start+0x85ef>
    2b17: a9 01        	lda	#$1
    2b19: 8d 07 d7     	sta	$d707                   ; 0xd707 <__heap_start+0x85ef>
    2b1c: 9c 07 d7     	stz	$d707                   ; 0xd707 <__heap_start+0x85ef>
    2b1f: 8d 07 d7     	sta	$d707                   ; 0xd707 <__heap_start+0x85ef>
    2b22: 9c 07 d7     	stz	$d707                   ; 0xd707 <__heap_start+0x85ef>
    2b25: a2 22        	ldx	#$22
    2b27: 8e 07 d7     	stx	$d707                   ; 0xd707 <__heap_start+0x85ef>
    2b2a: 8c 07 d7     	sty	$d707                   ; 0xd707 <__heap_start+0x85ef>
    2b2d: 9c 07 d7     	stz	$d707                   ; 0xd707 <__heap_start+0x85ef>
    2b30: 9c 07 d7     	stz	$d707                   ; 0xd707 <__heap_start+0x85ef>
    2b33: 8e 07 d7     	stx	$d707                   ; 0xd707 <__heap_start+0x85ef>
    2b36: 8c 07 d7     	sty	$d707                   ; 0xd707 <__heap_start+0x85ef>
    2b39: 9c 07 d7     	stz	$d707                   ; 0xd707 <__heap_start+0x85ef>
    2b3c: 9c 07 d7     	stz	$d707                   ; 0xd707 <__heap_start+0x85ef>
    2b3f: 8d 07 d7     	sta	$d707                   ; 0xd707 <__heap_start+0x85ef>
    2b42: 9c 07 d7     	stz	$d707                   ; 0xd707 <__heap_start+0x85ef>
    2b45: a2 08        	ldx	#$8
    2b47: 8e 07 d7     	stx	$d707                   ; 0xd707 <__heap_start+0x85ef>
    2b4a: 9c 07 d7     	stz	$d707                   ; 0xd707 <__heap_start+0x85ef>
    2b4d: a2 64        	ldx	#$64
    2b4f: 8e 07 d7     	stx	$d707                   ; 0xd707 <__heap_start+0x85ef>
    2b52: a2 61        	ldx	#$61
    2b54: 8e 07 d7     	stx	$d707                   ; 0xd707 <__heap_start+0x85ef>
    2b57: a4 12        	ldy	$12                     ; 0x12 <__rc2>
    2b59: 8c 07 d7     	sty	$d707                   ; 0xd707 <__heap_start+0x85ef>
    2b5c: 8e 07 d7     	stx	$d707                   ; 0xd707 <__heap_start+0x85ef>
    2b5f: a2 e2        	ldx	#$e2
    2b61: 8e 07 d7     	stx	$d707                   ; 0xd707 <__heap_start+0x85ef>
    2b64: a2 39        	ldx	#$39
    2b66: 8e 07 d7     	stx	$d707                   ; 0xd707 <__heap_start+0x85ef>
    2b69: 9c 07 d7     	stz	$d707                   ; 0xd707 <__heap_start+0x85ef>
    2b6c: 9c 07 d7     	stz	$d707                   ; 0xd707 <__heap_start+0x85ef>
    2b6f: 60           	rts

00002b70 <silencePad>:
    2b70: a2 00        	ldx	#$0
    2b72: a0 80        	ldy	#$80
    2b74: 4c 45 2c     	jmp	$2c45 <silencePad+0xd5>
    2b77: c9 07        	cmp	#$7
    2b79: 90 03        	bcc	$2b7e <silencePad+0xe>
    2b7b: 4c 47 2c     	jmp	$2c47 <silencePad+0xd7>
    2b7e: a6 12        	ldx	$12                     ; 0x12 <__rc2>
    2b80: 8c 07 d7     	sty	$d707                   ; 0xd707 <__heap_start+0x85ef>
    2b83: 8c 07 d7     	sty	$d707                   ; 0xd707 <__heap_start+0x85ef>
    2b86: 8c 07 d7     	sty	$d707                   ; 0xd707 <__heap_start+0x85ef>
    2b89: 8c 07 d7     	sty	$d707                   ; 0xd707 <__heap_start+0x85ef>
    2b8c: 8c 07 d7     	sty	$d707                   ; 0xd707 <__heap_start+0x85ef>
    2b8f: 8c 07 d7     	sty	$d707                   ; 0xd707 <__heap_start+0x85ef>
    2b92: 8c 07 d7     	sty	$d707                   ; 0xd707 <__heap_start+0x85ef>
    2b95: 8c 07 d7     	sty	$d707                   ; 0xd707 <__heap_start+0x85ef>
    2b98: 8c 07 d7     	sty	$d707                   ; 0xd707 <__heap_start+0x85ef>
    2b9b: 8c 07 d7     	sty	$d707                   ; 0xd707 <__heap_start+0x85ef>
    2b9e: 8c 07 d7     	sty	$d707                   ; 0xd707 <__heap_start+0x85ef>
    2ba1: 8c 07 d7     	sty	$d707                   ; 0xd707 <__heap_start+0x85ef>
    2ba4: 8c 07 d7     	sty	$d707                   ; 0xd707 <__heap_start+0x85ef>
    2ba7: 8c 07 d7     	sty	$d707                   ; 0xd707 <__heap_start+0x85ef>
    2baa: 8c 07 d7     	sty	$d707                   ; 0xd707 <__heap_start+0x85ef>
    2bad: 8c 07 d7     	sty	$d707                   ; 0xd707 <__heap_start+0x85ef>
    2bb0: 8c 07 d7     	sty	$d707                   ; 0xd707 <__heap_start+0x85ef>
    2bb3: 8c 07 d7     	sty	$d707                   ; 0xd707 <__heap_start+0x85ef>
    2bb6: 8c 07 d7     	sty	$d707                   ; 0xd707 <__heap_start+0x85ef>
    2bb9: 8c 07 d7     	sty	$d707                   ; 0xd707 <__heap_start+0x85ef>
    2bbc: 8c 07 d7     	sty	$d707                   ; 0xd707 <__heap_start+0x85ef>
    2bbf: 8c 07 d7     	sty	$d707                   ; 0xd707 <__heap_start+0x85ef>
    2bc2: 8c 07 d7     	sty	$d707                   ; 0xd707 <__heap_start+0x85ef>
    2bc5: 8c 07 d7     	sty	$d707                   ; 0xd707 <__heap_start+0x85ef>
    2bc8: 8c 07 d7     	sty	$d707                   ; 0xd707 <__heap_start+0x85ef>
    2bcb: 8c 07 d7     	sty	$d707                   ; 0xd707 <__heap_start+0x85ef>
    2bce: 8c 07 d7     	sty	$d707                   ; 0xd707 <__heap_start+0x85ef>
    2bd1: 8c 07 d7     	sty	$d707                   ; 0xd707 <__heap_start+0x85ef>
    2bd4: 8c 07 d7     	sty	$d707                   ; 0xd707 <__heap_start+0x85ef>
    2bd7: 8c 07 d7     	sty	$d707                   ; 0xd707 <__heap_start+0x85ef>
    2bda: 8c 07 d7     	sty	$d707                   ; 0xd707 <__heap_start+0x85ef>
    2bdd: 8c 07 d7     	sty	$d707                   ; 0xd707 <__heap_start+0x85ef>
    2be0: 8c 07 d7     	sty	$d707                   ; 0xd707 <__heap_start+0x85ef>
    2be3: 8c 07 d7     	sty	$d707                   ; 0xd707 <__heap_start+0x85ef>
    2be6: 8c 07 d7     	sty	$d707                   ; 0xd707 <__heap_start+0x85ef>
    2be9: 8c 07 d7     	sty	$d707                   ; 0xd707 <__heap_start+0x85ef>
    2bec: 8c 07 d7     	sty	$d707                   ; 0xd707 <__heap_start+0x85ef>
    2bef: 8c 07 d7     	sty	$d707                   ; 0xd707 <__heap_start+0x85ef>
    2bf2: 8c 07 d7     	sty	$d707                   ; 0xd707 <__heap_start+0x85ef>
    2bf5: 8c 07 d7     	sty	$d707                   ; 0xd707 <__heap_start+0x85ef>
    2bf8: 8c 07 d7     	sty	$d707                   ; 0xd707 <__heap_start+0x85ef>
    2bfb: 8c 07 d7     	sty	$d707                   ; 0xd707 <__heap_start+0x85ef>
    2bfe: 8c 07 d7     	sty	$d707                   ; 0xd707 <__heap_start+0x85ef>
    2c01: 8c 07 d7     	sty	$d707                   ; 0xd707 <__heap_start+0x85ef>
    2c04: 8c 07 d7     	sty	$d707                   ; 0xd707 <__heap_start+0x85ef>
    2c07: 8c 07 d7     	sty	$d707                   ; 0xd707 <__heap_start+0x85ef>
    2c0a: 8c 07 d7     	sty	$d707                   ; 0xd707 <__heap_start+0x85ef>
    2c0d: 8c 07 d7     	sty	$d707                   ; 0xd707 <__heap_start+0x85ef>
    2c10: 8c 07 d7     	sty	$d707                   ; 0xd707 <__heap_start+0x85ef>
    2c13: 8c 07 d7     	sty	$d707                   ; 0xd707 <__heap_start+0x85ef>
    2c16: 8c 07 d7     	sty	$d707                   ; 0xd707 <__heap_start+0x85ef>
    2c19: 8c 07 d7     	sty	$d707                   ; 0xd707 <__heap_start+0x85ef>
    2c1c: 8c 07 d7     	sty	$d707                   ; 0xd707 <__heap_start+0x85ef>
    2c1f: 8c 07 d7     	sty	$d707                   ; 0xd707 <__heap_start+0x85ef>
    2c22: 8c 07 d7     	sty	$d707                   ; 0xd707 <__heap_start+0x85ef>
    2c25: 8c 07 d7     	sty	$d707                   ; 0xd707 <__heap_start+0x85ef>
    2c28: 8c 07 d7     	sty	$d707                   ; 0xd707 <__heap_start+0x85ef>
    2c2b: 8c 07 d7     	sty	$d707                   ; 0xd707 <__heap_start+0x85ef>
    2c2e: 8c 07 d7     	sty	$d707                   ; 0xd707 <__heap_start+0x85ef>
    2c31: 8c 07 d7     	sty	$d707                   ; 0xd707 <__heap_start+0x85ef>
    2c34: 8c 07 d7     	sty	$d707                   ; 0xd707 <__heap_start+0x85ef>
    2c37: 8c 07 d7     	sty	$d707                   ; 0xd707 <__heap_start+0x85ef>
    2c3a: 8c 07 d7     	sty	$d707                   ; 0xd707 <__heap_start+0x85ef>
    2c3d: 8c 07 d7     	sty	$d707                   ; 0xd707 <__heap_start+0x85ef>
    2c40: e8           	inx
    2c41: e0 20        	cpx	#$20
    2c43: f0 18        	beq	$2c5d <silencePad+0xed>
    2c45: 86 12        	stx	$12                     ; 0x12 <__rc2>
    2c47: ae 04 d7     	ldx	$d704                   ; 0xd704 <__heap_start+0x85ec>
    2c4a: ad 05 d7     	lda	$d705                   ; 0xd705 <__heap_start+0x85ed>
    2c4d: 29 07        	and	#$7
    2c4f: c9 07        	cmp	#$7
    2c51: f0 03        	beq	$2c56 <silencePad+0xe6>
    2c53: 4c 77 2b     	jmp	$2b77 <silencePad+0x7>
    2c56: e0 c1        	cpx	#$c1
    2c58: b0 ed        	bcs	$2c47 <silencePad+0xd7>
    2c5a: 4c 7e 2b     	jmp	$2b7e <silencePad+0xe>
    2c5d: 60           	rts

00002c5e <playChunk>:
    2c5e: 18           	clc
    2c5f: a5 10        	lda	$10                     ; 0x10 <__rc0>
    2c61: 69 f9        	adc	#$f9
    2c63: 85 10        	sta	$10                     ; 0x10 <__rc0>
    2c65: a5 11        	lda	$11                     ; 0x11 <__rc1>
    2c67: 69 ff        	adc	#$ff
    2c69: 85 11        	sta	$11                     ; 0x11 <__rc1>
    2c6b: 20 b8 36     	jsr	$36b8 <howManySounds>
    2c6e: 18           	clc
    2c6f: 48           	pha
    2c70: a5 10        	lda	$10                     ; 0x10 <__rc0>
    2c72: 69 05        	adc	#$5
    2c74: 85 12        	sta	$12                     ; 0x12 <__rc2>
    2c76: a5 11        	lda	$11                     ; 0x11 <__rc1>
    2c78: 69 00        	adc	#$0
    2c7a: 85 13        	sta	$13                     ; 0x13 <__rc3>
    2c7c: 68           	pla
    2c7d: 92 12        	sta	($12)                   ; 0x12 <__rc2>
    2c7f: a0 01        	ldy	#$1
    2c81: 8a           	txa
    2c82: 91 12        	sta	($12),y                 ; 0x12 <__rc2>
    2c84: b2 12        	lda	($12)                   ; 0x12 <__rc2>
    2c86: 85 14        	sta	$14                     ; 0x14 <__rc4>
    2c88: b1 12        	lda	($12),y                 ; 0x12 <__rc2>
    2c8a: d0 26        	bne	$2cb2 <playChunk+0x54>
    2c8c: 80 00        	bra	$2c8e <playChunk+0x30>
    2c8e: a5 14        	lda	$14                     ; 0x14 <__rc4>
    2c90: d0 20        	bne	$2cb2 <playChunk+0x54>
    2c92: 80 00        	bra	$2c94 <playChunk+0x36>
    2c94: 18           	clc
    2c95: a5 10        	lda	$10                     ; 0x10 <__rc0>
    2c97: 69 01        	adc	#$1
    2c99: 85 12        	sta	$12                     ; 0x12 <__rc2>
    2c9b: a5 11        	lda	$11                     ; 0x11 <__rc1>
    2c9d: 69 00        	adc	#$0
    2c9f: 85 13        	sta	$13                     ; 0x13 <__rc3>
    2ca1: a9 01        	lda	#$1
    2ca3: 92 12        	sta	($12)                   ; 0x12 <__rc2>
    2ca5: a8           	tay
    2ca6: 3a           	dec
    2ca7: 91 12        	sta	($12),y                 ; 0x12 <__rc2>
    2ca9: c8           	iny
    2caa: 91 12        	sta	($12),y                 ; 0x12 <__rc2>
    2cac: c8           	iny
    2cad: 91 12        	sta	($12),y                 ; 0x12 <__rc2>
    2caf: 4c 13 2f     	jmp	$2f13 <playChunk+0x2b5>
    2cb2: ae 04 d7     	ldx	$d704                   ; 0xd704 <__heap_start+0x85ec>
    2cb5: 86 12        	stx	$12                     ; 0x12 <__rc2>
    2cb7: ad 05 d7     	lda	$d705                   ; 0xd705 <__heap_start+0x85ed>
    2cba: 29 07        	and	#$7
    2cbc: 85 13        	sta	$13                     ; 0x13 <__rc3>
    2cbe: 38           	sec
    2cbf: a9 00        	lda	#$0
    2cc1: e5 12        	sbc	$12                     ; 0x12 <__rc2>
    2cc3: 85 12        	sta	$12                     ; 0x12 <__rc2>
    2cc5: a9 08        	lda	#$8
    2cc7: e5 13        	sbc	$13                     ; 0x13 <__rc3>
    2cc9: c9 00        	cmp	#$0
    2ccb: a2 01        	ldx	#$1
    2ccd: b0 02        	bcs	$2cd1 <playChunk+0x73>
    2ccf: a2 00        	ldx	#$0
    2cd1: 86 13        	stx	$13                     ; 0x13 <__rc3>
    2cd3: aa           	tax
    2cd4: f0 02        	beq	$2cd8 <playChunk+0x7a>
    2cd6: 80 08        	bra	$2ce0 <playChunk+0x82>
    2cd8: a6 12        	ldx	$12                     ; 0x12 <__rc2>
    2cda: e0 40        	cpx	#$40
    2cdc: b0 0c        	bcs	$2cea <playChunk+0x8c>
    2cde: 80 06        	bra	$2ce6 <playChunk+0x88>
    2ce0: a5 13        	lda	$13                     ; 0x13 <__rc3>
    2ce2: d0 06        	bne	$2cea <playChunk+0x8c>
    2ce4: 80 00        	bra	$2ce6 <playChunk+0x88>
    2ce6: 80 00        	bra	$2ce8 <playChunk+0x8a>
    2ce8: 80 c8        	bra	$2cb2 <playChunk+0x54>
    2cea: 18           	clc
    2ceb: a6 10        	ldx	$10                     ; 0x10 <__rc0>
    2ced: 86 12        	stx	$12                     ; 0x12 <__rc2>
    2cef: a6 11        	ldx	$11                     ; 0x11 <__rc1>
    2cf1: 86 13        	stx	$13                     ; 0x13 <__rc3>
    2cf3: a9 00        	lda	#$0
    2cf5: 92 12        	sta	($12)                   ; 0x12 <__rc2>
    2cf7: 18           	clc
    2cf8: a6 10        	ldx	$10                     ; 0x10 <__rc0>
    2cfa: 86 12        	stx	$12                     ; 0x12 <__rc2>
    2cfc: a6 11        	ldx	$11                     ; 0x11 <__rc1>
    2cfe: 86 13        	stx	$13                     ; 0x13 <__rc3>
    2d00: b2 12        	lda	($12)                   ; 0x12 <__rc2>
    2d02: 85 12        	sta	$12                     ; 0x12 <__rc2>
    2d04: a9 00        	lda	#$0
    2d06: a6 12        	ldx	$12                     ; 0x12 <__rc2>
    2d08: e0 40        	cpx	#$40
    2d0a: e9 00        	sbc	#$0
    2d0c: 70 02        	bvs	$2d10 <playChunk+0xb2>
    2d0e: 80 04        	bra	$2d14 <playChunk+0xb6>
    2d10: 49 80        	eor	#$80
    2d12: 80 02        	bra	$2d16 <playChunk+0xb8>
    2d14: 80 00        	bra	$2d16 <playChunk+0xb8>
    2d16: aa           	tax
    2d17: 30 22        	bmi	$2d3b <playChunk+0xdd>
    2d19: 80 00        	bra	$2d1b <playChunk+0xbd>
    2d1b: 18           	clc
    2d1c: a5 10        	lda	$10                     ; 0x10 <__rc0>
    2d1e: 69 01        	adc	#$1
    2d20: 85 12        	sta	$12                     ; 0x12 <__rc2>
    2d22: a5 11        	lda	$11                     ; 0x11 <__rc1>
    2d24: 69 00        	adc	#$0
    2d26: 85 13        	sta	$13                     ; 0x13 <__rc3>
    2d28: a9 04        	lda	#$4
    2d2a: 92 12        	sta	($12)                   ; 0x12 <__rc2>
    2d2c: a0 01        	ldy	#$1
    2d2e: a9 00        	lda	#$0
    2d30: 91 12        	sta	($12),y                 ; 0x12 <__rc2>
    2d32: c8           	iny
    2d33: 91 12        	sta	($12),y                 ; 0x12 <__rc2>
    2d35: c8           	iny
    2d36: 91 12        	sta	($12),y                 ; 0x12 <__rc2>
    2d38: 4c f6 2e     	jmp	$2ef6 <playChunk+0x298>
    2d3b: a6 51        	ldx	$51                     ; 0x51 <sfxChannels+0x8>
    2d3d: d0 03        	bne	$2d42 <playChunk+0xe4>
    2d3f: 4c a0 2d     	jmp	$2da0 <playChunk+0x142>
    2d42: a5 49        	lda	$49                     ; 0x49 <sfxChannels>
    2d44: a4 4a        	ldy	$4a                     ; 0x4a <sfxChannels+0x1>
    2d46: a6 4b        	ldx	$4b                     ; 0x4b <sfxChannels+0x2>
    2d48: 86 15        	stx	$15                     ; 0x15 <__rc5>
    2d4a: a6 4c        	ldx	$4c                     ; 0x4c <sfxChannels+0x3>
    2d4c: 86 16        	stx	$16                     ; 0x16 <__rc6>
    2d4e: a6 4f        	ldx	$4f                     ; 0x4f <sfxChannels+0x6>
    2d50: 86 12        	stx	$12                     ; 0x12 <__rc2>
    2d52: a6 50        	ldx	$50                     ; 0x50 <sfxChannels+0x7>
    2d54: 86 13        	stx	$13                     ; 0x13 <__rc3>
    2d56: e6 4f        	inc	$4f                     ; 0x4f <sfxChannels+0x6>
    2d58: f0 03        	beq	$2d5d <playChunk+0xff>
    2d5a: 4c 62 2d     	jmp	$2d62 <playChunk+0x104>
    2d5d: e6 50        	inc	$50                     ; 0x50 <sfxChannels+0x7>
    2d5f: 4c 62 2d     	jmp	$2d62 <playChunk+0x104>
    2d62: 18           	clc
    2d63: 65 12        	adc	$12                     ; 0x12 <__rc2>
    2d65: 85 14        	sta	$14                     ; 0x14 <__rc4>
    2d67: 98           	tya
    2d68: 65 13        	adc	$13                     ; 0x13 <__rc3>
    2d6a: aa           	tax
    2d6b: a5 15        	lda	$15                     ; 0x15 <__rc5>
    2d6d: 69 00        	adc	#$0
    2d6f: 85 12        	sta	$12                     ; 0x12 <__rc2>
    2d71: a5 16        	lda	$16                     ; 0x16 <__rc6>
    2d73: 69 00        	adc	#$0
    2d75: 85 13        	sta	$13                     ; 0x13 <__rc3>
    2d77: a5 14        	lda	$14                     ; 0x14 <__rc4>
    2d79: 20 fd 20     	jsr	$20fd <FAR_PEEK>
    2d7c: 85 6d        	sta	$6d                     ; 0x6d <data0>
    2d7e: a6 4f        	ldx	$4f                     ; 0x4f <sfxChannels+0x6>
    2d80: a4 50        	ldy	$50                     ; 0x50 <sfxChannels+0x7>
    2d82: a5 4d        	lda	$4d                     ; 0x4d <sfxChannels+0x4>
    2d84: 85 12        	sta	$12                     ; 0x12 <__rc2>
    2d86: c4 4e        	cpy	$4e                     ; 0x4e <sfxChannels+0x5>
    2d88: f0 02        	beq	$2d8c <playChunk+0x12e>
    2d8a: 80 0c        	bra	$2d98 <playChunk+0x13a>
    2d8c: e4 12        	cpx	$12                     ; 0x12 <__rc2>
    2d8e: f0 02        	beq	$2d92 <playChunk+0x134>
    2d90: 80 02        	bra	$2d94 <playChunk+0x136>
    2d92: 80 02        	bra	$2d96 <playChunk+0x138>
    2d94: 80 08        	bra	$2d9e <playChunk+0x140>
    2d96: 80 02        	bra	$2d9a <playChunk+0x13c>
    2d98: 80 04        	bra	$2d9e <playChunk+0x140>
    2d9a: 80 00        	bra	$2d9c <playChunk+0x13e>
    2d9c: 64 51        	stz	$51                     ; 0x51 <sfxChannels+0x8>
    2d9e: 80 04        	bra	$2da4 <playChunk+0x146>
    2da0: a2 80        	ldx	#$80
    2da2: 86 6d        	stx	$6d                     ; 0x6d <data0>
    2da4: a6 5a        	ldx	$5a                     ; 0x5a <sfxChannels+0x11>
    2da6: d0 03        	bne	$2dab <playChunk+0x14d>
    2da8: 4c 09 2e     	jmp	$2e09 <playChunk+0x1ab>
    2dab: a5 52        	lda	$52                     ; 0x52 <sfxChannels+0x9>
    2dad: a4 53        	ldy	$53                     ; 0x53 <sfxChannels+0xa>
    2daf: a6 54        	ldx	$54                     ; 0x54 <sfxChannels+0xb>
    2db1: 86 15        	stx	$15                     ; 0x15 <__rc5>
    2db3: a6 55        	ldx	$55                     ; 0x55 <sfxChannels+0xc>
    2db5: 86 16        	stx	$16                     ; 0x16 <__rc6>
    2db7: a6 58        	ldx	$58                     ; 0x58 <sfxChannels+0xf>
    2db9: 86 12        	stx	$12                     ; 0x12 <__rc2>
    2dbb: a6 59        	ldx	$59                     ; 0x59 <sfxChannels+0x10>
    2dbd: 86 13        	stx	$13                     ; 0x13 <__rc3>
    2dbf: e6 58        	inc	$58                     ; 0x58 <sfxChannels+0xf>
    2dc1: f0 03        	beq	$2dc6 <playChunk+0x168>
    2dc3: 4c cb 2d     	jmp	$2dcb <playChunk+0x16d>
    2dc6: e6 59        	inc	$59                     ; 0x59 <sfxChannels+0x10>
    2dc8: 4c cb 2d     	jmp	$2dcb <playChunk+0x16d>
    2dcb: 18           	clc
    2dcc: 65 12        	adc	$12                     ; 0x12 <__rc2>
    2dce: 85 14        	sta	$14                     ; 0x14 <__rc4>
    2dd0: 98           	tya
    2dd1: 65 13        	adc	$13                     ; 0x13 <__rc3>
    2dd3: aa           	tax
    2dd4: a5 15        	lda	$15                     ; 0x15 <__rc5>
    2dd6: 69 00        	adc	#$0
    2dd8: 85 12        	sta	$12                     ; 0x12 <__rc2>
    2dda: a5 16        	lda	$16                     ; 0x16 <__rc6>
    2ddc: 69 00        	adc	#$0
    2dde: 85 13        	sta	$13                     ; 0x13 <__rc3>
    2de0: a5 14        	lda	$14                     ; 0x14 <__rc4>
    2de2: 20 fd 20     	jsr	$20fd <FAR_PEEK>
    2de5: 85 6e        	sta	$6e                     ; 0x6e <data1>
    2de7: a6 58        	ldx	$58                     ; 0x58 <sfxChannels+0xf>
    2de9: a4 59        	ldy	$59                     ; 0x59 <sfxChannels+0x10>
    2deb: a5 56        	lda	$56                     ; 0x56 <sfxChannels+0xd>
    2ded: 85 12        	sta	$12                     ; 0x12 <__rc2>
    2def: c4 57        	cpy	$57                     ; 0x57 <sfxChannels+0xe>
    2df1: f0 02        	beq	$2df5 <playChunk+0x197>
    2df3: 80 0c        	bra	$2e01 <playChunk+0x1a3>
    2df5: e4 12        	cpx	$12                     ; 0x12 <__rc2>
    2df7: f0 02        	beq	$2dfb <playChunk+0x19d>
    2df9: 80 02        	bra	$2dfd <playChunk+0x19f>
    2dfb: 80 02        	bra	$2dff <playChunk+0x1a1>
    2dfd: 80 08        	bra	$2e07 <playChunk+0x1a9>
    2dff: 80 02        	bra	$2e03 <playChunk+0x1a5>
    2e01: 80 04        	bra	$2e07 <playChunk+0x1a9>
    2e03: 80 00        	bra	$2e05 <playChunk+0x1a7>
    2e05: 64 5a        	stz	$5a                     ; 0x5a <sfxChannels+0x11>
    2e07: 80 04        	bra	$2e0d <playChunk+0x1af>
    2e09: a2 80        	ldx	#$80
    2e0b: 86 6e        	stx	$6e                     ; 0x6e <data1>
    2e0d: a6 63        	ldx	$63                     ; 0x63 <sfxChannels+0x1a>
    2e0f: d0 03        	bne	$2e14 <playChunk+0x1b6>
    2e11: 4c 72 2e     	jmp	$2e72 <playChunk+0x214>
    2e14: a5 5b        	lda	$5b                     ; 0x5b <sfxChannels+0x12>
    2e16: a4 5c        	ldy	$5c                     ; 0x5c <sfxChannels+0x13>
    2e18: a6 5d        	ldx	$5d                     ; 0x5d <sfxChannels+0x14>
    2e1a: 86 15        	stx	$15                     ; 0x15 <__rc5>
    2e1c: a6 5e        	ldx	$5e                     ; 0x5e <sfxChannels+0x15>
    2e1e: 86 16        	stx	$16                     ; 0x16 <__rc6>
    2e20: a6 61        	ldx	$61                     ; 0x61 <sfxChannels+0x18>
    2e22: 86 12        	stx	$12                     ; 0x12 <__rc2>
    2e24: a6 62        	ldx	$62                     ; 0x62 <sfxChannels+0x19>
    2e26: 86 13        	stx	$13                     ; 0x13 <__rc3>
    2e28: e6 61        	inc	$61                     ; 0x61 <sfxChannels+0x18>
    2e2a: f0 03        	beq	$2e2f <playChunk+0x1d1>
    2e2c: 4c 34 2e     	jmp	$2e34 <playChunk+0x1d6>
    2e2f: e6 62        	inc	$62                     ; 0x62 <sfxChannels+0x19>
    2e31: 4c 34 2e     	jmp	$2e34 <playChunk+0x1d6>
    2e34: 18           	clc
    2e35: 65 12        	adc	$12                     ; 0x12 <__rc2>
    2e37: 85 14        	sta	$14                     ; 0x14 <__rc4>
    2e39: 98           	tya
    2e3a: 65 13        	adc	$13                     ; 0x13 <__rc3>
    2e3c: aa           	tax
    2e3d: a5 15        	lda	$15                     ; 0x15 <__rc5>
    2e3f: 69 00        	adc	#$0
    2e41: 85 12        	sta	$12                     ; 0x12 <__rc2>
    2e43: a5 16        	lda	$16                     ; 0x16 <__rc6>
    2e45: 69 00        	adc	#$0
    2e47: 85 13        	sta	$13                     ; 0x13 <__rc3>
    2e49: a5 14        	lda	$14                     ; 0x14 <__rc4>
    2e4b: 20 fd 20     	jsr	$20fd <FAR_PEEK>
    2e4e: 85 6f        	sta	$6f                     ; 0x6f <data2>
    2e50: a6 61        	ldx	$61                     ; 0x61 <sfxChannels+0x18>
    2e52: a4 62        	ldy	$62                     ; 0x62 <sfxChannels+0x19>
    2e54: a5 5f        	lda	$5f                     ; 0x5f <sfxChannels+0x16>
    2e56: 85 12        	sta	$12                     ; 0x12 <__rc2>
    2e58: c4 60        	cpy	$60                     ; 0x60 <sfxChannels+0x17>
    2e5a: f0 02        	beq	$2e5e <playChunk+0x200>
    2e5c: 80 0c        	bra	$2e6a <playChunk+0x20c>
    2e5e: e4 12        	cpx	$12                     ; 0x12 <__rc2>
    2e60: f0 02        	beq	$2e64 <playChunk+0x206>
    2e62: 80 02        	bra	$2e66 <playChunk+0x208>
    2e64: 80 02        	bra	$2e68 <playChunk+0x20a>
    2e66: 80 08        	bra	$2e70 <playChunk+0x212>
    2e68: 80 02        	bra	$2e6c <playChunk+0x20e>
    2e6a: 80 04        	bra	$2e70 <playChunk+0x212>
    2e6c: 80 00        	bra	$2e6e <playChunk+0x210>
    2e6e: 64 63        	stz	$63                     ; 0x63 <sfxChannels+0x1a>
    2e70: 80 04        	bra	$2e76 <playChunk+0x218>
    2e72: a2 80        	ldx	#$80
    2e74: 86 6f        	stx	$6f                     ; 0x6f <data2>
    2e76: a6 6c        	ldx	$6c                     ; 0x6c <sfxChannels+0x23>
    2e78: d0 03        	bne	$2e7d <playChunk+0x21f>
    2e7a: 4c db 2e     	jmp	$2edb <playChunk+0x27d>
    2e7d: a5 64        	lda	$64                     ; 0x64 <sfxChannels+0x1b>
    2e7f: a4 65        	ldy	$65                     ; 0x65 <sfxChannels+0x1c>
    2e81: a6 66        	ldx	$66                     ; 0x66 <sfxChannels+0x1d>
    2e83: 86 15        	stx	$15                     ; 0x15 <__rc5>
    2e85: a6 67        	ldx	$67                     ; 0x67 <sfxChannels+0x1e>
    2e87: 86 16        	stx	$16                     ; 0x16 <__rc6>
    2e89: a6 6a        	ldx	$6a                     ; 0x6a <sfxChannels+0x21>
    2e8b: 86 12        	stx	$12                     ; 0x12 <__rc2>
    2e8d: a6 6b        	ldx	$6b                     ; 0x6b <sfxChannels+0x22>
    2e8f: 86 13        	stx	$13                     ; 0x13 <__rc3>
    2e91: e6 6a        	inc	$6a                     ; 0x6a <sfxChannels+0x21>
    2e93: f0 03        	beq	$2e98 <playChunk+0x23a>
    2e95: 4c 9d 2e     	jmp	$2e9d <playChunk+0x23f>
    2e98: e6 6b        	inc	$6b                     ; 0x6b <sfxChannels+0x22>
    2e9a: 4c 9d 2e     	jmp	$2e9d <playChunk+0x23f>
    2e9d: 18           	clc
    2e9e: 65 12        	adc	$12                     ; 0x12 <__rc2>
    2ea0: 85 14        	sta	$14                     ; 0x14 <__rc4>
    2ea2: 98           	tya
    2ea3: 65 13        	adc	$13                     ; 0x13 <__rc3>
    2ea5: aa           	tax
    2ea6: a5 15        	lda	$15                     ; 0x15 <__rc5>
    2ea8: 69 00        	adc	#$0
    2eaa: 85 12        	sta	$12                     ; 0x12 <__rc2>
    2eac: a5 16        	lda	$16                     ; 0x16 <__rc6>
    2eae: 69 00        	adc	#$0
    2eb0: 85 13        	sta	$13                     ; 0x13 <__rc3>
    2eb2: a5 14        	lda	$14                     ; 0x14 <__rc4>
    2eb4: 20 fd 20     	jsr	$20fd <FAR_PEEK>
    2eb7: 85 70        	sta	$70                     ; 0x70 <data3>
    2eb9: a6 6a        	ldx	$6a                     ; 0x6a <sfxChannels+0x21>
    2ebb: a4 6b        	ldy	$6b                     ; 0x6b <sfxChannels+0x22>
    2ebd: a5 68        	lda	$68                     ; 0x68 <sfxChannels+0x1f>
    2ebf: 85 12        	sta	$12                     ; 0x12 <__rc2>
    2ec1: c4 69        	cpy	$69                     ; 0x69 <sfxChannels+0x20>
    2ec3: f0 02        	beq	$2ec7 <playChunk+0x269>
    2ec5: 80 0c        	bra	$2ed3 <playChunk+0x275>
    2ec7: e4 12        	cpx	$12                     ; 0x12 <__rc2>
    2ec9: f0 02        	beq	$2ecd <playChunk+0x26f>
    2ecb: 80 02        	bra	$2ecf <playChunk+0x271>
    2ecd: 80 02        	bra	$2ed1 <playChunk+0x273>
    2ecf: 80 08        	bra	$2ed9 <playChunk+0x27b>
    2ed1: 80 02        	bra	$2ed5 <playChunk+0x277>
    2ed3: 80 04        	bra	$2ed9 <playChunk+0x27b>
    2ed5: 80 00        	bra	$2ed7 <playChunk+0x279>
    2ed7: 64 6c        	stz	$6c                     ; 0x6c <sfxChannels+0x23>
    2ed9: 80 04        	bra	$2edf <playChunk+0x281>
    2edb: a2 80        	ldx	#$80
    2edd: 86 70        	stx	$70                     ; 0x70 <data3>
    2edf: 20 de 36     	jsr	$36de <mix_n>
    2ee2: 8d 07 d7     	sta	$d707                   ; 0xd707 <__heap_start+0x85ef>
    2ee5: 18           	clc
    2ee6: a6 10        	ldx	$10                     ; 0x10 <__rc0>
    2ee8: 86 12        	stx	$12                     ; 0x12 <__rc2>
    2eea: a6 11        	ldx	$11                     ; 0x11 <__rc1>
    2eec: 86 13        	stx	$13                     ; 0x13 <__rc3>
    2eee: b2 12        	lda	($12)                   ; 0x12 <__rc2>
    2ef0: 1a           	inc
    2ef1: 92 12        	sta	($12)                   ; 0x12 <__rc2>
    2ef3: 4c f7 2c     	jmp	$2cf7 <playChunk+0x99>
    2ef6: a9 00        	lda	#$0
    2ef8: 18           	clc
    2ef9: 48           	pha
    2efa: a5 10        	lda	$10                     ; 0x10 <__rc0>
    2efc: 69 01        	adc	#$1
    2efe: 85 12        	sta	$12                     ; 0x12 <__rc2>
    2f00: a5 11        	lda	$11                     ; 0x11 <__rc1>
    2f02: 69 00        	adc	#$0
    2f04: 85 13        	sta	$13                     ; 0x13 <__rc3>
    2f06: 68           	pla
    2f07: 92 12        	sta	($12)                   ; 0x12 <__rc2>
    2f09: a0 01        	ldy	#$1
    2f0b: 91 12        	sta	($12),y                 ; 0x12 <__rc2>
    2f0d: c8           	iny
    2f0e: 91 12        	sta	($12),y                 ; 0x12 <__rc2>
    2f10: c8           	iny
    2f11: 91 12        	sta	($12),y                 ; 0x12 <__rc2>
    2f13: 18           	clc
    2f14: a5 10        	lda	$10                     ; 0x10 <__rc0>
    2f16: 69 07        	adc	#$7
    2f18: 85 10        	sta	$10                     ; 0x10 <__rc0>
    2f1a: a5 11        	lda	$11                     ; 0x11 <__rc1>
    2f1c: 69 00        	adc	#$0
    2f1e: 85 11        	sta	$11                     ; 0x11 <__rc1>
    2f20: 60           	rts

00002f21 <playPSGChunk>:
    2f21: 18           	clc
    2f22: a5 10        	lda	$10                     ; 0x10 <__rc0>
    2f24: 69 f9        	adc	#$f9
    2f26: 85 10        	sta	$10                     ; 0x10 <__rc0>
    2f28: a5 11        	lda	$11                     ; 0x11 <__rc1>
    2f2a: 69 ff        	adc	#$ff
    2f2c: 85 11        	sta	$11                     ; 0x11 <__rc1>
    2f2e: 20 b8 36     	jsr	$36b8 <howManySounds>
    2f31: 18           	clc
    2f32: 48           	pha
    2f33: a5 10        	lda	$10                     ; 0x10 <__rc0>
    2f35: 69 05        	adc	#$5
    2f37: 85 12        	sta	$12                     ; 0x12 <__rc2>
    2f39: a5 11        	lda	$11                     ; 0x11 <__rc1>
    2f3b: 69 00        	adc	#$0
    2f3d: 85 13        	sta	$13                     ; 0x13 <__rc3>
    2f3f: 68           	pla
    2f40: 92 12        	sta	($12)                   ; 0x12 <__rc2>
    2f42: a0 01        	ldy	#$1
    2f44: 8a           	txa
    2f45: 91 12        	sta	($12),y                 ; 0x12 <__rc2>
    2f47: b2 12        	lda	($12)                   ; 0x12 <__rc2>
    2f49: 85 14        	sta	$14                     ; 0x14 <__rc4>
    2f4b: b1 12        	lda	($12),y                 ; 0x12 <__rc2>
    2f4d: d0 26        	bne	$2f75 <playPSGChunk+0x54>
    2f4f: 80 00        	bra	$2f51 <playPSGChunk+0x30>
    2f51: a5 14        	lda	$14                     ; 0x14 <__rc4>
    2f53: d0 20        	bne	$2f75 <playPSGChunk+0x54>
    2f55: 80 00        	bra	$2f57 <playPSGChunk+0x36>
    2f57: 18           	clc
    2f58: a5 10        	lda	$10                     ; 0x10 <__rc0>
    2f5a: 69 01        	adc	#$1
    2f5c: 85 12        	sta	$12                     ; 0x12 <__rc2>
    2f5e: a5 11        	lda	$11                     ; 0x11 <__rc1>
    2f60: 69 00        	adc	#$0
    2f62: 85 13        	sta	$13                     ; 0x13 <__rc3>
    2f64: a9 01        	lda	#$1
    2f66: 92 12        	sta	($12)                   ; 0x12 <__rc2>
    2f68: a8           	tay
    2f69: 3a           	dec
    2f6a: 91 12        	sta	($12),y                 ; 0x12 <__rc2>
    2f6c: c8           	iny
    2f6d: 91 12        	sta	($12),y                 ; 0x12 <__rc2>
    2f6f: c8           	iny
    2f70: 91 12        	sta	($12),y                 ; 0x12 <__rc2>
    2f72: 4c a1 32     	jmp	$32a1 <playPSGChunk+0x380>
    2f75: 18           	clc
    2f76: a6 10        	ldx	$10                     ; 0x10 <__rc0>
    2f78: 86 12        	stx	$12                     ; 0x12 <__rc2>
    2f7a: a6 11        	ldx	$11                     ; 0x11 <__rc1>
    2f7c: 86 13        	stx	$13                     ; 0x13 <__rc3>
    2f7e: a9 00        	lda	#$0
    2f80: 92 12        	sta	($12)                   ; 0x12 <__rc2>
    2f82: 18           	clc
    2f83: a6 10        	ldx	$10                     ; 0x10 <__rc0>
    2f85: 86 12        	stx	$12                     ; 0x12 <__rc2>
    2f87: a6 11        	ldx	$11                     ; 0x11 <__rc1>
    2f89: 86 13        	stx	$13                     ; 0x13 <__rc3>
    2f8b: b2 12        	lda	($12)                   ; 0x12 <__rc2>
    2f8d: 85 12        	sta	$12                     ; 0x12 <__rc2>
    2f8f: a9 00        	lda	#$0
    2f91: a6 12        	ldx	$12                     ; 0x12 <__rc2>
    2f93: e0 40        	cpx	#$40
    2f95: e9 00        	sbc	#$0
    2f97: 70 02        	bvs	$2f9b <playPSGChunk+0x7a>
    2f99: 80 04        	bra	$2f9f <playPSGChunk+0x7e>
    2f9b: 49 80        	eor	#$80
    2f9d: 80 02        	bra	$2fa1 <playPSGChunk+0x80>
    2f9f: 80 00        	bra	$2fa1 <playPSGChunk+0x80>
    2fa1: aa           	tax
    2fa2: 30 22        	bmi	$2fc6 <playPSGChunk+0xa5>
    2fa4: 80 00        	bra	$2fa6 <playPSGChunk+0x85>
    2fa6: 18           	clc
    2fa7: a5 10        	lda	$10                     ; 0x10 <__rc0>
    2fa9: 69 01        	adc	#$1
    2fab: 85 12        	sta	$12                     ; 0x12 <__rc2>
    2fad: a5 11        	lda	$11                     ; 0x11 <__rc1>
    2faf: 69 00        	adc	#$0
    2fb1: 85 13        	sta	$13                     ; 0x13 <__rc3>
    2fb3: a9 02        	lda	#$2
    2fb5: 92 12        	sta	($12)                   ; 0x12 <__rc2>
    2fb7: a0 01        	ldy	#$1
    2fb9: a9 00        	lda	#$0
    2fbb: 91 12        	sta	($12),y                 ; 0x12 <__rc2>
    2fbd: c8           	iny
    2fbe: 91 12        	sta	($12),y                 ; 0x12 <__rc2>
    2fc0: c8           	iny
    2fc1: 91 12        	sta	($12),y                 ; 0x12 <__rc2>
    2fc3: 4c 3b 32     	jmp	$323b <playPSGChunk+0x31a>
    2fc6: a6 51        	ldx	$51                     ; 0x51 <sfxChannels+0x8>
    2fc8: d0 03        	bne	$2fcd <playPSGChunk+0xac>
    2fca: 4c 4f 30     	jmp	$304f <playPSGChunk+0x12e>
    2fcd: a5 49        	lda	$49                     ; 0x49 <sfxChannels>
    2fcf: a4 4a        	ldy	$4a                     ; 0x4a <sfxChannels+0x1>
    2fd1: a6 4b        	ldx	$4b                     ; 0x4b <sfxChannels+0x2>
    2fd3: 86 15        	stx	$15                     ; 0x15 <__rc5>
    2fd5: a6 4c        	ldx	$4c                     ; 0x4c <sfxChannels+0x3>
    2fd7: 86 16        	stx	$16                     ; 0x16 <__rc6>
    2fd9: a6 4f        	ldx	$4f                     ; 0x4f <sfxChannels+0x6>
    2fdb: 86 12        	stx	$12                     ; 0x12 <__rc2>
    2fdd: a6 50        	ldx	$50                     ; 0x50 <sfxChannels+0x7>
    2fdf: 86 13        	stx	$13                     ; 0x13 <__rc3>
    2fe1: e6 4f        	inc	$4f                     ; 0x4f <sfxChannels+0x6>
    2fe3: f0 03        	beq	$2fe8 <playPSGChunk+0xc7>
    2fe5: 4c ed 2f     	jmp	$2fed <playPSGChunk+0xcc>
    2fe8: e6 50        	inc	$50                     ; 0x50 <sfxChannels+0x7>
    2fea: 4c ed 2f     	jmp	$2fed <playPSGChunk+0xcc>
    2fed: 18           	clc
    2fee: 65 12        	adc	$12                     ; 0x12 <__rc2>
    2ff0: 85 14        	sta	$14                     ; 0x14 <__rc4>
    2ff2: 98           	tya
    2ff3: 65 13        	adc	$13                     ; 0x13 <__rc3>
    2ff5: aa           	tax
    2ff6: a5 15        	lda	$15                     ; 0x15 <__rc5>
    2ff8: 69 00        	adc	#$0
    2ffa: 85 12        	sta	$12                     ; 0x12 <__rc2>
    2ffc: a5 16        	lda	$16                     ; 0x16 <__rc6>
    2ffe: 69 00        	adc	#$0
    3000: 85 13        	sta	$13                     ; 0x13 <__rc3>
    3002: a5 14        	lda	$14                     ; 0x14 <__rc4>
    3004: 20 fd 20     	jsr	$20fd <FAR_PEEK>
    3007: 85 6d        	sta	$6d                     ; 0x6d <data0>
    3009: a6 4f        	ldx	$4f                     ; 0x4f <sfxChannels+0x6>
    300b: a4 50        	ldy	$50                     ; 0x50 <sfxChannels+0x7>
    300d: a5 4d        	lda	$4d                     ; 0x4d <sfxChannels+0x4>
    300f: 85 12        	sta	$12                     ; 0x12 <__rc2>
    3011: c4 4e        	cpy	$4e                     ; 0x4e <sfxChannels+0x5>
    3013: f0 02        	beq	$3017 <playPSGChunk+0xf6>
    3015: 80 0c        	bra	$3023 <playPSGChunk+0x102>
    3017: e4 12        	cpx	$12                     ; 0x12 <__rc2>
    3019: f0 02        	beq	$301d <playPSGChunk+0xfc>
    301b: 80 02        	bra	$301f <playPSGChunk+0xfe>
    301d: 80 02        	bra	$3021 <playPSGChunk+0x100>
    301f: 80 2b        	bra	$304c <playPSGChunk+0x12b>
    3021: 80 02        	bra	$3025 <playPSGChunk+0x104>
    3023: 80 27        	bra	$304c <playPSGChunk+0x12b>
    3025: 80 00        	bra	$3027 <playPSGChunk+0x106>
    3027: 64 51        	stz	$51                     ; 0x51 <sfxChannels+0x8>
    3029: 20 f7 1f     	jsr	$1ff7 <shutPSG>
    302c: 18           	clc
    302d: a5 10        	lda	$10                     ; 0x10 <__rc0>
    302f: 69 01        	adc	#$1
    3031: 85 12        	sta	$12                     ; 0x12 <__rc2>
    3033: a5 11        	lda	$11                     ; 0x11 <__rc1>
    3035: 69 00        	adc	#$0
    3037: 85 13        	sta	$13                     ; 0x13 <__rc3>
    3039: a9 01        	lda	#$1
    303b: 92 12        	sta	($12)                   ; 0x12 <__rc2>
    303d: a8           	tay
    303e: 3a           	dec
    303f: 91 12        	sta	($12),y                 ; 0x12 <__rc2>
    3041: c8           	iny
    3042: 91 12        	sta	($12),y                 ; 0x12 <__rc2>
    3044: a9 00        	lda	#$0
    3046: c8           	iny
    3047: 91 12        	sta	($12),y                 ; 0x12 <__rc2>
    3049: 4c 3b 32     	jmp	$323b <playPSGChunk+0x31a>
    304c: 4c eb 31     	jmp	$31eb <playPSGChunk+0x2ca>
    304f: a6 5a        	ldx	$5a                     ; 0x5a <sfxChannels+0x11>
    3051: d0 03        	bne	$3056 <playPSGChunk+0x135>
    3053: 4c d8 30     	jmp	$30d8 <playPSGChunk+0x1b7>
    3056: a5 52        	lda	$52                     ; 0x52 <sfxChannels+0x9>
    3058: a4 53        	ldy	$53                     ; 0x53 <sfxChannels+0xa>
    305a: a6 54        	ldx	$54                     ; 0x54 <sfxChannels+0xb>
    305c: 86 15        	stx	$15                     ; 0x15 <__rc5>
    305e: a6 55        	ldx	$55                     ; 0x55 <sfxChannels+0xc>
    3060: 86 16        	stx	$16                     ; 0x16 <__rc6>
    3062: a6 58        	ldx	$58                     ; 0x58 <sfxChannels+0xf>
    3064: 86 12        	stx	$12                     ; 0x12 <__rc2>
    3066: a6 59        	ldx	$59                     ; 0x59 <sfxChannels+0x10>
    3068: 86 13        	stx	$13                     ; 0x13 <__rc3>
    306a: e6 58        	inc	$58                     ; 0x58 <sfxChannels+0xf>
    306c: f0 03        	beq	$3071 <playPSGChunk+0x150>
    306e: 4c 76 30     	jmp	$3076 <playPSGChunk+0x155>
    3071: e6 59        	inc	$59                     ; 0x59 <sfxChannels+0x10>
    3073: 4c 76 30     	jmp	$3076 <playPSGChunk+0x155>
    3076: 18           	clc
    3077: 65 12        	adc	$12                     ; 0x12 <__rc2>
    3079: 85 14        	sta	$14                     ; 0x14 <__rc4>
    307b: 98           	tya
    307c: 65 13        	adc	$13                     ; 0x13 <__rc3>
    307e: aa           	tax
    307f: a5 15        	lda	$15                     ; 0x15 <__rc5>
    3081: 69 00        	adc	#$0
    3083: 85 12        	sta	$12                     ; 0x12 <__rc2>
    3085: a5 16        	lda	$16                     ; 0x16 <__rc6>
    3087: 69 00        	adc	#$0
    3089: 85 13        	sta	$13                     ; 0x13 <__rc3>
    308b: a5 14        	lda	$14                     ; 0x14 <__rc4>
    308d: 20 fd 20     	jsr	$20fd <FAR_PEEK>
    3090: 85 6d        	sta	$6d                     ; 0x6d <data0>
    3092: a6 58        	ldx	$58                     ; 0x58 <sfxChannels+0xf>
    3094: a4 59        	ldy	$59                     ; 0x59 <sfxChannels+0x10>
    3096: a5 56        	lda	$56                     ; 0x56 <sfxChannels+0xd>
    3098: 85 12        	sta	$12                     ; 0x12 <__rc2>
    309a: c4 57        	cpy	$57                     ; 0x57 <sfxChannels+0xe>
    309c: f0 02        	beq	$30a0 <playPSGChunk+0x17f>
    309e: 80 0c        	bra	$30ac <playPSGChunk+0x18b>
    30a0: e4 12        	cpx	$12                     ; 0x12 <__rc2>
    30a2: f0 02        	beq	$30a6 <playPSGChunk+0x185>
    30a4: 80 02        	bra	$30a8 <playPSGChunk+0x187>
    30a6: 80 02        	bra	$30aa <playPSGChunk+0x189>
    30a8: 80 2b        	bra	$30d5 <playPSGChunk+0x1b4>
    30aa: 80 02        	bra	$30ae <playPSGChunk+0x18d>
    30ac: 80 27        	bra	$30d5 <playPSGChunk+0x1b4>
    30ae: 80 00        	bra	$30b0 <playPSGChunk+0x18f>
    30b0: 64 5a        	stz	$5a                     ; 0x5a <sfxChannels+0x11>
    30b2: 20 f7 1f     	jsr	$1ff7 <shutPSG>
    30b5: 18           	clc
    30b6: a5 10        	lda	$10                     ; 0x10 <__rc0>
    30b8: 69 01        	adc	#$1
    30ba: 85 12        	sta	$12                     ; 0x12 <__rc2>
    30bc: a5 11        	lda	$11                     ; 0x11 <__rc1>
    30be: 69 00        	adc	#$0
    30c0: 85 13        	sta	$13                     ; 0x13 <__rc3>
    30c2: a9 01        	lda	#$1
    30c4: 92 12        	sta	($12)                   ; 0x12 <__rc2>
    30c6: a8           	tay
    30c7: 3a           	dec
    30c8: 91 12        	sta	($12),y                 ; 0x12 <__rc2>
    30ca: c8           	iny
    30cb: 91 12        	sta	($12),y                 ; 0x12 <__rc2>
    30cd: a9 00        	lda	#$0
    30cf: c8           	iny
    30d0: 91 12        	sta	($12),y                 ; 0x12 <__rc2>
    30d2: 4c 3b 32     	jmp	$323b <playPSGChunk+0x31a>
    30d5: 4c eb 31     	jmp	$31eb <playPSGChunk+0x2ca>
    30d8: a6 63        	ldx	$63                     ; 0x63 <sfxChannels+0x1a>
    30da: d0 03        	bne	$30df <playPSGChunk+0x1be>
    30dc: 4c 61 31     	jmp	$3161 <playPSGChunk+0x240>
    30df: a5 5b        	lda	$5b                     ; 0x5b <sfxChannels+0x12>
    30e1: a4 5c        	ldy	$5c                     ; 0x5c <sfxChannels+0x13>
    30e3: a6 5d        	ldx	$5d                     ; 0x5d <sfxChannels+0x14>
    30e5: 86 15        	stx	$15                     ; 0x15 <__rc5>
    30e7: a6 5e        	ldx	$5e                     ; 0x5e <sfxChannels+0x15>
    30e9: 86 16        	stx	$16                     ; 0x16 <__rc6>
    30eb: a6 61        	ldx	$61                     ; 0x61 <sfxChannels+0x18>
    30ed: 86 12        	stx	$12                     ; 0x12 <__rc2>
    30ef: a6 62        	ldx	$62                     ; 0x62 <sfxChannels+0x19>
    30f1: 86 13        	stx	$13                     ; 0x13 <__rc3>
    30f3: e6 61        	inc	$61                     ; 0x61 <sfxChannels+0x18>
    30f5: f0 03        	beq	$30fa <playPSGChunk+0x1d9>
    30f7: 4c ff 30     	jmp	$30ff <playPSGChunk+0x1de>
    30fa: e6 62        	inc	$62                     ; 0x62 <sfxChannels+0x19>
    30fc: 4c ff 30     	jmp	$30ff <playPSGChunk+0x1de>
    30ff: 18           	clc
    3100: 65 12        	adc	$12                     ; 0x12 <__rc2>
    3102: 85 14        	sta	$14                     ; 0x14 <__rc4>
    3104: 98           	tya
    3105: 65 13        	adc	$13                     ; 0x13 <__rc3>
    3107: aa           	tax
    3108: a5 15        	lda	$15                     ; 0x15 <__rc5>
    310a: 69 00        	adc	#$0
    310c: 85 12        	sta	$12                     ; 0x12 <__rc2>
    310e: a5 16        	lda	$16                     ; 0x16 <__rc6>
    3110: 69 00        	adc	#$0
    3112: 85 13        	sta	$13                     ; 0x13 <__rc3>
    3114: a5 14        	lda	$14                     ; 0x14 <__rc4>
    3116: 20 fd 20     	jsr	$20fd <FAR_PEEK>
    3119: 85 6d        	sta	$6d                     ; 0x6d <data0>
    311b: a6 61        	ldx	$61                     ; 0x61 <sfxChannels+0x18>
    311d: a4 62        	ldy	$62                     ; 0x62 <sfxChannels+0x19>
    311f: a5 5f        	lda	$5f                     ; 0x5f <sfxChannels+0x16>
    3121: 85 12        	sta	$12                     ; 0x12 <__rc2>
    3123: c4 60        	cpy	$60                     ; 0x60 <sfxChannels+0x17>
    3125: f0 02        	beq	$3129 <playPSGChunk+0x208>
    3127: 80 0c        	bra	$3135 <playPSGChunk+0x214>
    3129: e4 12        	cpx	$12                     ; 0x12 <__rc2>
    312b: f0 02        	beq	$312f <playPSGChunk+0x20e>
    312d: 80 02        	bra	$3131 <playPSGChunk+0x210>
    312f: 80 02        	bra	$3133 <playPSGChunk+0x212>
    3131: 80 2b        	bra	$315e <playPSGChunk+0x23d>
    3133: 80 02        	bra	$3137 <playPSGChunk+0x216>
    3135: 80 27        	bra	$315e <playPSGChunk+0x23d>
    3137: 80 00        	bra	$3139 <playPSGChunk+0x218>
    3139: 64 63        	stz	$63                     ; 0x63 <sfxChannels+0x1a>
    313b: 20 f7 1f     	jsr	$1ff7 <shutPSG>
    313e: 18           	clc
    313f: a5 10        	lda	$10                     ; 0x10 <__rc0>
    3141: 69 01        	adc	#$1
    3143: 85 12        	sta	$12                     ; 0x12 <__rc2>
    3145: a5 11        	lda	$11                     ; 0x11 <__rc1>
    3147: 69 00        	adc	#$0
    3149: 85 13        	sta	$13                     ; 0x13 <__rc3>
    314b: a9 01        	lda	#$1
    314d: 92 12        	sta	($12)                   ; 0x12 <__rc2>
    314f: a8           	tay
    3150: 3a           	dec
    3151: 91 12        	sta	($12),y                 ; 0x12 <__rc2>
    3153: c8           	iny
    3154: 91 12        	sta	($12),y                 ; 0x12 <__rc2>
    3156: a9 00        	lda	#$0
    3158: c8           	iny
    3159: 91 12        	sta	($12),y                 ; 0x12 <__rc2>
    315b: 4c 3b 32     	jmp	$323b <playPSGChunk+0x31a>
    315e: 4c eb 31     	jmp	$31eb <playPSGChunk+0x2ca>
    3161: a6 6c        	ldx	$6c                     ; 0x6c <sfxChannels+0x23>
    3163: d0 03        	bne	$3168 <playPSGChunk+0x247>
    3165: 4c e9 31     	jmp	$31e9 <playPSGChunk+0x2c8>
    3168: a5 64        	lda	$64                     ; 0x64 <sfxChannels+0x1b>
    316a: a4 65        	ldy	$65                     ; 0x65 <sfxChannels+0x1c>
    316c: a6 66        	ldx	$66                     ; 0x66 <sfxChannels+0x1d>
    316e: 86 15        	stx	$15                     ; 0x15 <__rc5>
    3170: a6 67        	ldx	$67                     ; 0x67 <sfxChannels+0x1e>
    3172: 86 16        	stx	$16                     ; 0x16 <__rc6>
    3174: a6 6a        	ldx	$6a                     ; 0x6a <sfxChannels+0x21>
    3176: 86 12        	stx	$12                     ; 0x12 <__rc2>
    3178: a6 6b        	ldx	$6b                     ; 0x6b <sfxChannels+0x22>
    317a: 86 13        	stx	$13                     ; 0x13 <__rc3>
    317c: e6 6a        	inc	$6a                     ; 0x6a <sfxChannels+0x21>
    317e: f0 03        	beq	$3183 <playPSGChunk+0x262>
    3180: 4c 88 31     	jmp	$3188 <playPSGChunk+0x267>
    3183: e6 6b        	inc	$6b                     ; 0x6b <sfxChannels+0x22>
    3185: 4c 88 31     	jmp	$3188 <playPSGChunk+0x267>
    3188: 18           	clc
    3189: 65 12        	adc	$12                     ; 0x12 <__rc2>
    318b: 85 14        	sta	$14                     ; 0x14 <__rc4>
    318d: 98           	tya
    318e: 65 13        	adc	$13                     ; 0x13 <__rc3>
    3190: aa           	tax
    3191: a5 15        	lda	$15                     ; 0x15 <__rc5>
    3193: 69 00        	adc	#$0
    3195: 85 12        	sta	$12                     ; 0x12 <__rc2>
    3197: a5 16        	lda	$16                     ; 0x16 <__rc6>
    3199: 69 00        	adc	#$0
    319b: 85 13        	sta	$13                     ; 0x13 <__rc3>
    319d: a5 14        	lda	$14                     ; 0x14 <__rc4>
    319f: 20 fd 20     	jsr	$20fd <FAR_PEEK>
    31a2: 85 6d        	sta	$6d                     ; 0x6d <data0>
    31a4: a6 6a        	ldx	$6a                     ; 0x6a <sfxChannels+0x21>
    31a6: a4 6b        	ldy	$6b                     ; 0x6b <sfxChannels+0x22>
    31a8: a5 68        	lda	$68                     ; 0x68 <sfxChannels+0x1f>
    31aa: 85 12        	sta	$12                     ; 0x12 <__rc2>
    31ac: c4 69        	cpy	$69                     ; 0x69 <sfxChannels+0x20>
    31ae: f0 02        	beq	$31b2 <playPSGChunk+0x291>
    31b0: 80 0c        	bra	$31be <playPSGChunk+0x29d>
    31b2: e4 12        	cpx	$12                     ; 0x12 <__rc2>
    31b4: f0 02        	beq	$31b8 <playPSGChunk+0x297>
    31b6: 80 02        	bra	$31ba <playPSGChunk+0x299>
    31b8: 80 02        	bra	$31bc <playPSGChunk+0x29b>
    31ba: 80 2b        	bra	$31e7 <playPSGChunk+0x2c6>
    31bc: 80 02        	bra	$31c0 <playPSGChunk+0x29f>
    31be: 80 27        	bra	$31e7 <playPSGChunk+0x2c6>
    31c0: 80 00        	bra	$31c2 <playPSGChunk+0x2a1>
    31c2: 64 6c        	stz	$6c                     ; 0x6c <sfxChannels+0x23>
    31c4: 20 f7 1f     	jsr	$1ff7 <shutPSG>
    31c7: 18           	clc
    31c8: a5 10        	lda	$10                     ; 0x10 <__rc0>
    31ca: 69 01        	adc	#$1
    31cc: 85 12        	sta	$12                     ; 0x12 <__rc2>
    31ce: a5 11        	lda	$11                     ; 0x11 <__rc1>
    31d0: 69 00        	adc	#$0
    31d2: 85 13        	sta	$13                     ; 0x13 <__rc3>
    31d4: a9 01        	lda	#$1
    31d6: 92 12        	sta	($12)                   ; 0x12 <__rc2>
    31d8: a8           	tay
    31d9: 3a           	dec
    31da: 91 12        	sta	($12),y                 ; 0x12 <__rc2>
    31dc: c8           	iny
    31dd: 91 12        	sta	($12),y                 ; 0x12 <__rc2>
    31df: a9 00        	lda	#$0
    31e1: c8           	iny
    31e2: 91 12        	sta	($12),y                 ; 0x12 <__rc2>
    31e4: 4c 3b 32     	jmp	$323b <playPSGChunk+0x31a>
    31e7: 80 02        	bra	$31eb <playPSGChunk+0x2ca>
    31e9: 64 6d        	stz	$6d                     ; 0x6d <data0>
    31eb: a5 6d        	lda	$6d                     ; 0x6d <data0>
    31ed: 18           	clc
    31ee: 69 80        	adc	#$80
    31f0: 85 12        	sta	$12                     ; 0x12 <__rc2>
    31f2: a9 00        	lda	#$0
    31f4: 69 ff        	adc	#$ff
    31f6: 4a           	lsr
    31f7: 66 12        	ror	$12                     ; 0x12 <__rc2>
    31f9: 4a           	lsr
    31fa: 66 12        	ror	$12                     ; 0x12 <__rc2>
    31fc: a2 01        	ldx	#$1
    31fe: 4a           	lsr
    31ff: 66 12        	ror	$12                     ; 0x12 <__rc2>
    3201: a9 0f        	lda	#$f
    3203: 38           	sec
    3204: e5 12        	sbc	$12                     ; 0x12 <__rc2>
    3206: 85 6d        	sta	$6d                     ; 0x6d <data0>
    3208: a9 db        	lda	#$db
    320a: 64 12        	stz	$12                     ; 0x12 <__rc2>
    320c: 64 13        	stz	$13                     ; 0x13 <__rc3>
    320e: 20 72 20     	jsr	$2072 <setTimer0>
    3211: ad 60 d6     	lda	$d660                   ; 0xd660 <__heap_start+0x8548>
    3214: 29 10        	and	#$10
    3216: f0 10        	beq	$3228 <playPSGChunk+0x307>
    3218: 80 00        	bra	$321a <playPSGChunk+0x2f9>
    321a: a9 90        	lda	#$90
    321c: 05 6d        	ora	$6d                     ; 0x6d <data0>
    321e: 8d 00 d6     	sta	$d600                   ; 0xd600 <__heap_start+0x84e8>
    3221: a2 10        	ldx	#$10
    3223: 8e 60 d6     	stx	$d660                   ; 0xd660 <__heap_start+0x8548>
    3226: 80 02        	bra	$322a <playPSGChunk+0x309>
    3228: 80 e7        	bra	$3211 <playPSGChunk+0x2f0>
    322a: 18           	clc
    322b: a6 10        	ldx	$10                     ; 0x10 <__rc0>
    322d: 86 12        	stx	$12                     ; 0x12 <__rc2>
    322f: a6 11        	ldx	$11                     ; 0x11 <__rc1>
    3231: 86 13        	stx	$13                     ; 0x13 <__rc3>
    3233: b2 12        	lda	($12)                   ; 0x12 <__rc2>
    3235: 1a           	inc
    3236: 92 12        	sta	($12)                   ; 0x12 <__rc2>
    3238: 4c 82 2f     	jmp	$2f82 <playPSGChunk+0x61>
    323b: 18           	clc
    323c: a5 10        	lda	$10                     ; 0x10 <__rc0>
    323e: 69 01        	adc	#$1
    3240: 85 12        	sta	$12                     ; 0x12 <__rc2>
    3242: a5 11        	lda	$11                     ; 0x11 <__rc1>
    3244: 69 00        	adc	#$0
    3246: 85 13        	sta	$13                     ; 0x13 <__rc3>
    3248: b2 12        	lda	($12)                   ; 0x12 <__rc2>
    324a: 85 14        	sta	$14                     ; 0x14 <__rc4>
    324c: a0 01        	ldy	#$1
    324e: b1 12        	lda	($12),y                 ; 0x12 <__rc2>
    3250: 85 15        	sta	$15                     ; 0x15 <__rc5>
    3252: c8           	iny
    3253: b1 12        	lda	($12),y                 ; 0x12 <__rc2>
    3255: 85 16        	sta	$16                     ; 0x16 <__rc6>
    3257: c8           	iny
    3258: b1 12        	lda	($12),y                 ; 0x12 <__rc2>
    325a: f0 02        	beq	$325e <playPSGChunk+0x33d>
    325c: 80 22        	bra	$3280 <playPSGChunk+0x35f>
    325e: a5 16        	lda	$16                     ; 0x16 <__rc6>
    3260: f0 02        	beq	$3264 <playPSGChunk+0x343>
    3262: 80 18        	bra	$327c <playPSGChunk+0x35b>
    3264: a5 15        	lda	$15                     ; 0x15 <__rc5>
    3266: f0 02        	beq	$326a <playPSGChunk+0x349>
    3268: 80 0e        	bra	$3278 <playPSGChunk+0x357>
    326a: a6 14        	ldx	$14                     ; 0x14 <__rc4>
    326c: e0 02        	cpx	#$2
    326e: f0 02        	beq	$3272 <playPSGChunk+0x351>
    3270: 80 02        	bra	$3274 <playPSGChunk+0x353>
    3272: 80 02        	bra	$3276 <playPSGChunk+0x355>
    3274: 80 2b        	bra	$32a1 <playPSGChunk+0x380>
    3276: 80 02        	bra	$327a <playPSGChunk+0x359>
    3278: 80 27        	bra	$32a1 <playPSGChunk+0x380>
    327a: 80 02        	bra	$327e <playPSGChunk+0x35d>
    327c: 80 23        	bra	$32a1 <playPSGChunk+0x380>
    327e: 80 02        	bra	$3282 <playPSGChunk+0x361>
    3280: 80 1f        	bra	$32a1 <playPSGChunk+0x380>
    3282: 80 00        	bra	$3284 <playPSGChunk+0x363>
    3284: a9 00        	lda	#$0
    3286: 18           	clc
    3287: 48           	pha
    3288: a5 10        	lda	$10                     ; 0x10 <__rc0>
    328a: 69 01        	adc	#$1
    328c: 85 12        	sta	$12                     ; 0x12 <__rc2>
    328e: a5 11        	lda	$11                     ; 0x11 <__rc1>
    3290: 69 00        	adc	#$0
    3292: 85 13        	sta	$13                     ; 0x13 <__rc3>
    3294: 68           	pla
    3295: 92 12        	sta	($12)                   ; 0x12 <__rc2>
    3297: a0 01        	ldy	#$1
    3299: 91 12        	sta	($12),y                 ; 0x12 <__rc2>
    329b: c8           	iny
    329c: 91 12        	sta	($12),y                 ; 0x12 <__rc2>
    329e: c8           	iny
    329f: 91 12        	sta	($12),y                 ; 0x12 <__rc2>
    32a1: 18           	clc
    32a2: a5 10        	lda	$10                     ; 0x10 <__rc0>
    32a4: 69 07        	adc	#$7
    32a6: 85 10        	sta	$10                     ; 0x10 <__rc0>
    32a8: a5 11        	lda	$11                     ; 0x11 <__rc1>
    32aa: 69 00        	adc	#$0
    32ac: 85 11        	sta	$11                     ; 0x11 <__rc1>
    32ae: 60           	rts

000032af <playSIDChunk>:
    32af: 18           	clc
    32b0: a5 10        	lda	$10                     ; 0x10 <__rc0>
    32b2: 69 f7        	adc	#$f7
    32b4: 85 10        	sta	$10                     ; 0x10 <__rc0>
    32b6: a5 11        	lda	$11                     ; 0x11 <__rc1>
    32b8: 69 ff        	adc	#$ff
    32ba: 85 11        	sta	$11                     ; 0x11 <__rc1>
    32bc: 20 b8 36     	jsr	$36b8 <howManySounds>
    32bf: 18           	clc
    32c0: 48           	pha
    32c1: a5 10        	lda	$10                     ; 0x10 <__rc0>
    32c3: 69 07        	adc	#$7
    32c5: 85 12        	sta	$12                     ; 0x12 <__rc2>
    32c7: a5 11        	lda	$11                     ; 0x11 <__rc1>
    32c9: 69 00        	adc	#$0
    32cb: 85 13        	sta	$13                     ; 0x13 <__rc3>
    32cd: 68           	pla
    32ce: 92 12        	sta	($12)                   ; 0x12 <__rc2>
    32d0: a0 01        	ldy	#$1
    32d2: 8a           	txa
    32d3: 91 12        	sta	($12),y                 ; 0x12 <__rc2>
    32d5: b2 12        	lda	($12)                   ; 0x12 <__rc2>
    32d7: 85 14        	sta	$14                     ; 0x14 <__rc4>
    32d9: b1 12        	lda	($12),y                 ; 0x12 <__rc2>
    32db: d0 26        	bne	$3303 <playSIDChunk+0x54>
    32dd: 80 00        	bra	$32df <playSIDChunk+0x30>
    32df: a5 14        	lda	$14                     ; 0x14 <__rc4>
    32e1: d0 20        	bne	$3303 <playSIDChunk+0x54>
    32e3: 80 00        	bra	$32e5 <playSIDChunk+0x36>
    32e5: 18           	clc
    32e6: a5 10        	lda	$10                     ; 0x10 <__rc0>
    32e8: 69 03        	adc	#$3
    32ea: 85 12        	sta	$12                     ; 0x12 <__rc2>
    32ec: a5 11        	lda	$11                     ; 0x11 <__rc1>
    32ee: 69 00        	adc	#$0
    32f0: 85 13        	sta	$13                     ; 0x13 <__rc3>
    32f2: a9 01        	lda	#$1
    32f4: 92 12        	sta	($12)                   ; 0x12 <__rc2>
    32f6: a8           	tay
    32f7: 3a           	dec
    32f8: 91 12        	sta	($12),y                 ; 0x12 <__rc2>
    32fa: c8           	iny
    32fb: 91 12        	sta	($12),y                 ; 0x12 <__rc2>
    32fd: c8           	iny
    32fe: 91 12        	sta	($12),y                 ; 0x12 <__rc2>
    3300: 4c 64 36     	jmp	$3664 <playSIDChunk+0x3b5>
    3303: 18           	clc
    3304: a5 10        	lda	$10                     ; 0x10 <__rc0>
    3306: 69 02        	adc	#$2
    3308: 85 12        	sta	$12                     ; 0x12 <__rc2>
    330a: a5 11        	lda	$11                     ; 0x11 <__rc1>
    330c: 69 00        	adc	#$0
    330e: 85 13        	sta	$13                     ; 0x13 <__rc3>
    3310: a9 00        	lda	#$0
    3312: 92 12        	sta	($12)                   ; 0x12 <__rc2>
    3314: 18           	clc
    3315: a5 10        	lda	$10                     ; 0x10 <__rc0>
    3317: 69 02        	adc	#$2
    3319: 85 12        	sta	$12                     ; 0x12 <__rc2>
    331b: a5 11        	lda	$11                     ; 0x11 <__rc1>
    331d: 69 00        	adc	#$0
    331f: 85 13        	sta	$13                     ; 0x13 <__rc3>
    3321: b2 12        	lda	($12)                   ; 0x12 <__rc2>
    3323: 85 12        	sta	$12                     ; 0x12 <__rc2>
    3325: a9 00        	lda	#$0
    3327: a6 12        	ldx	$12                     ; 0x12 <__rc2>
    3329: e0 40        	cpx	#$40
    332b: e9 00        	sbc	#$0
    332d: 70 02        	bvs	$3331 <playSIDChunk+0x82>
    332f: 80 04        	bra	$3335 <playSIDChunk+0x86>
    3331: 49 80        	eor	#$80
    3333: 80 02        	bra	$3337 <playSIDChunk+0x88>
    3335: 80 00        	bra	$3337 <playSIDChunk+0x88>
    3337: aa           	tax
    3338: 30 22        	bmi	$335c <playSIDChunk+0xad>
    333a: 80 00        	bra	$333c <playSIDChunk+0x8d>
    333c: 18           	clc
    333d: a5 10        	lda	$10                     ; 0x10 <__rc0>
    333f: 69 03        	adc	#$3
    3341: 85 12        	sta	$12                     ; 0x12 <__rc2>
    3343: a5 11        	lda	$11                     ; 0x11 <__rc1>
    3345: 69 00        	adc	#$0
    3347: 85 13        	sta	$13                     ; 0x13 <__rc3>
    3349: a9 02        	lda	#$2
    334b: 92 12        	sta	($12)                   ; 0x12 <__rc2>
    334d: a0 01        	ldy	#$1
    334f: a9 00        	lda	#$0
    3351: 91 12        	sta	($12),y                 ; 0x12 <__rc2>
    3353: c8           	iny
    3354: 91 12        	sta	($12),y                 ; 0x12 <__rc2>
    3356: c8           	iny
    3357: 91 12        	sta	($12),y                 ; 0x12 <__rc2>
    3359: 4c fe 35     	jmp	$35fe <playSIDChunk+0x34f>
    335c: a6 51        	ldx	$51                     ; 0x51 <sfxChannels+0x8>
    335e: d0 03        	bne	$3363 <playSIDChunk+0xb4>
    3360: 4c e5 33     	jmp	$33e5 <playSIDChunk+0x136>
    3363: a5 49        	lda	$49                     ; 0x49 <sfxChannels>
    3365: a4 4a        	ldy	$4a                     ; 0x4a <sfxChannels+0x1>
    3367: a6 4b        	ldx	$4b                     ; 0x4b <sfxChannels+0x2>
    3369: 86 15        	stx	$15                     ; 0x15 <__rc5>
    336b: a6 4c        	ldx	$4c                     ; 0x4c <sfxChannels+0x3>
    336d: 86 16        	stx	$16                     ; 0x16 <__rc6>
    336f: a6 4f        	ldx	$4f                     ; 0x4f <sfxChannels+0x6>
    3371: 86 12        	stx	$12                     ; 0x12 <__rc2>
    3373: a6 50        	ldx	$50                     ; 0x50 <sfxChannels+0x7>
    3375: 86 13        	stx	$13                     ; 0x13 <__rc3>
    3377: e6 4f        	inc	$4f                     ; 0x4f <sfxChannels+0x6>
    3379: f0 03        	beq	$337e <playSIDChunk+0xcf>
    337b: 4c 83 33     	jmp	$3383 <playSIDChunk+0xd4>
    337e: e6 50        	inc	$50                     ; 0x50 <sfxChannels+0x7>
    3380: 4c 83 33     	jmp	$3383 <playSIDChunk+0xd4>
    3383: 18           	clc
    3384: 65 12        	adc	$12                     ; 0x12 <__rc2>
    3386: 85 14        	sta	$14                     ; 0x14 <__rc4>
    3388: 98           	tya
    3389: 65 13        	adc	$13                     ; 0x13 <__rc3>
    338b: aa           	tax
    338c: a5 15        	lda	$15                     ; 0x15 <__rc5>
    338e: 69 00        	adc	#$0
    3390: 85 12        	sta	$12                     ; 0x12 <__rc2>
    3392: a5 16        	lda	$16                     ; 0x16 <__rc6>
    3394: 69 00        	adc	#$0
    3396: 85 13        	sta	$13                     ; 0x13 <__rc3>
    3398: a5 14        	lda	$14                     ; 0x14 <__rc4>
    339a: 20 fd 20     	jsr	$20fd <FAR_PEEK>
    339d: 85 6d        	sta	$6d                     ; 0x6d <data0>
    339f: a6 4f        	ldx	$4f                     ; 0x4f <sfxChannels+0x6>
    33a1: a4 50        	ldy	$50                     ; 0x50 <sfxChannels+0x7>
    33a3: a5 4d        	lda	$4d                     ; 0x4d <sfxChannels+0x4>
    33a5: 85 12        	sta	$12                     ; 0x12 <__rc2>
    33a7: c4 4e        	cpy	$4e                     ; 0x4e <sfxChannels+0x5>
    33a9: f0 02        	beq	$33ad <playSIDChunk+0xfe>
    33ab: 80 0c        	bra	$33b9 <playSIDChunk+0x10a>
    33ad: e4 12        	cpx	$12                     ; 0x12 <__rc2>
    33af: f0 02        	beq	$33b3 <playSIDChunk+0x104>
    33b1: 80 02        	bra	$33b5 <playSIDChunk+0x106>
    33b3: 80 02        	bra	$33b7 <playSIDChunk+0x108>
    33b5: 80 2b        	bra	$33e2 <playSIDChunk+0x133>
    33b7: 80 02        	bra	$33bb <playSIDChunk+0x10c>
    33b9: 80 27        	bra	$33e2 <playSIDChunk+0x133>
    33bb: 80 00        	bra	$33bd <playSIDChunk+0x10e>
    33bd: 64 51        	stz	$51                     ; 0x51 <sfxChannels+0x8>
    33bf: 20 2d 20     	jsr	$202d <shutAllSIDVoices>
    33c2: 18           	clc
    33c3: a5 10        	lda	$10                     ; 0x10 <__rc0>
    33c5: 69 03        	adc	#$3
    33c7: 85 12        	sta	$12                     ; 0x12 <__rc2>
    33c9: a5 11        	lda	$11                     ; 0x11 <__rc1>
    33cb: 69 00        	adc	#$0
    33cd: 85 13        	sta	$13                     ; 0x13 <__rc3>
    33cf: a9 01        	lda	#$1
    33d1: 92 12        	sta	($12)                   ; 0x12 <__rc2>
    33d3: a8           	tay
    33d4: 3a           	dec
    33d5: 91 12        	sta	($12),y                 ; 0x12 <__rc2>
    33d7: c8           	iny
    33d8: 91 12        	sta	($12),y                 ; 0x12 <__rc2>
    33da: a9 00        	lda	#$0
    33dc: c8           	iny
    33dd: 91 12        	sta	($12),y                 ; 0x12 <__rc2>
    33df: 4c fe 35     	jmp	$35fe <playSIDChunk+0x34f>
    33e2: 4c 81 35     	jmp	$3581 <playSIDChunk+0x2d2>
    33e5: a6 5a        	ldx	$5a                     ; 0x5a <sfxChannels+0x11>
    33e7: d0 03        	bne	$33ec <playSIDChunk+0x13d>
    33e9: 4c 6e 34     	jmp	$346e <playSIDChunk+0x1bf>
    33ec: a5 52        	lda	$52                     ; 0x52 <sfxChannels+0x9>
    33ee: a4 53        	ldy	$53                     ; 0x53 <sfxChannels+0xa>
    33f0: a6 54        	ldx	$54                     ; 0x54 <sfxChannels+0xb>
    33f2: 86 15        	stx	$15                     ; 0x15 <__rc5>
    33f4: a6 55        	ldx	$55                     ; 0x55 <sfxChannels+0xc>
    33f6: 86 16        	stx	$16                     ; 0x16 <__rc6>
    33f8: a6 58        	ldx	$58                     ; 0x58 <sfxChannels+0xf>
    33fa: 86 12        	stx	$12                     ; 0x12 <__rc2>
    33fc: a6 59        	ldx	$59                     ; 0x59 <sfxChannels+0x10>
    33fe: 86 13        	stx	$13                     ; 0x13 <__rc3>
    3400: e6 58        	inc	$58                     ; 0x58 <sfxChannels+0xf>
    3402: f0 03        	beq	$3407 <playSIDChunk+0x158>
    3404: 4c 0c 34     	jmp	$340c <playSIDChunk+0x15d>
    3407: e6 59        	inc	$59                     ; 0x59 <sfxChannels+0x10>
    3409: 4c 0c 34     	jmp	$340c <playSIDChunk+0x15d>
    340c: 18           	clc
    340d: 65 12        	adc	$12                     ; 0x12 <__rc2>
    340f: 85 14        	sta	$14                     ; 0x14 <__rc4>
    3411: 98           	tya
    3412: 65 13        	adc	$13                     ; 0x13 <__rc3>
    3414: aa           	tax
    3415: a5 15        	lda	$15                     ; 0x15 <__rc5>
    3417: 69 00        	adc	#$0
    3419: 85 12        	sta	$12                     ; 0x12 <__rc2>
    341b: a5 16        	lda	$16                     ; 0x16 <__rc6>
    341d: 69 00        	adc	#$0
    341f: 85 13        	sta	$13                     ; 0x13 <__rc3>
    3421: a5 14        	lda	$14                     ; 0x14 <__rc4>
    3423: 20 fd 20     	jsr	$20fd <FAR_PEEK>
    3426: 85 6d        	sta	$6d                     ; 0x6d <data0>
    3428: a6 58        	ldx	$58                     ; 0x58 <sfxChannels+0xf>
    342a: a4 59        	ldy	$59                     ; 0x59 <sfxChannels+0x10>
    342c: a5 56        	lda	$56                     ; 0x56 <sfxChannels+0xd>
    342e: 85 12        	sta	$12                     ; 0x12 <__rc2>
    3430: c4 57        	cpy	$57                     ; 0x57 <sfxChannels+0xe>
    3432: f0 02        	beq	$3436 <playSIDChunk+0x187>
    3434: 80 0c        	bra	$3442 <playSIDChunk+0x193>
    3436: e4 12        	cpx	$12                     ; 0x12 <__rc2>
    3438: f0 02        	beq	$343c <playSIDChunk+0x18d>
    343a: 80 02        	bra	$343e <playSIDChunk+0x18f>
    343c: 80 02        	bra	$3440 <playSIDChunk+0x191>
    343e: 80 2b        	bra	$346b <playSIDChunk+0x1bc>
    3440: 80 02        	bra	$3444 <playSIDChunk+0x195>
    3442: 80 27        	bra	$346b <playSIDChunk+0x1bc>
    3444: 80 00        	bra	$3446 <playSIDChunk+0x197>
    3446: 64 5a        	stz	$5a                     ; 0x5a <sfxChannels+0x11>
    3448: 20 2d 20     	jsr	$202d <shutAllSIDVoices>
    344b: 18           	clc
    344c: a5 10        	lda	$10                     ; 0x10 <__rc0>
    344e: 69 03        	adc	#$3
    3450: 85 12        	sta	$12                     ; 0x12 <__rc2>
    3452: a5 11        	lda	$11                     ; 0x11 <__rc1>
    3454: 69 00        	adc	#$0
    3456: 85 13        	sta	$13                     ; 0x13 <__rc3>
    3458: a9 01        	lda	#$1
    345a: 92 12        	sta	($12)                   ; 0x12 <__rc2>
    345c: a8           	tay
    345d: 3a           	dec
    345e: 91 12        	sta	($12),y                 ; 0x12 <__rc2>
    3460: c8           	iny
    3461: 91 12        	sta	($12),y                 ; 0x12 <__rc2>
    3463: a9 00        	lda	#$0
    3465: c8           	iny
    3466: 91 12        	sta	($12),y                 ; 0x12 <__rc2>
    3468: 4c fe 35     	jmp	$35fe <playSIDChunk+0x34f>
    346b: 4c 81 35     	jmp	$3581 <playSIDChunk+0x2d2>
    346e: a6 63        	ldx	$63                     ; 0x63 <sfxChannels+0x1a>
    3470: d0 03        	bne	$3475 <playSIDChunk+0x1c6>
    3472: 4c f7 34     	jmp	$34f7 <playSIDChunk+0x248>
    3475: a5 5b        	lda	$5b                     ; 0x5b <sfxChannels+0x12>
    3477: a4 5c        	ldy	$5c                     ; 0x5c <sfxChannels+0x13>
    3479: a6 5d        	ldx	$5d                     ; 0x5d <sfxChannels+0x14>
    347b: 86 15        	stx	$15                     ; 0x15 <__rc5>
    347d: a6 5e        	ldx	$5e                     ; 0x5e <sfxChannels+0x15>
    347f: 86 16        	stx	$16                     ; 0x16 <__rc6>
    3481: a6 61        	ldx	$61                     ; 0x61 <sfxChannels+0x18>
    3483: 86 12        	stx	$12                     ; 0x12 <__rc2>
    3485: a6 62        	ldx	$62                     ; 0x62 <sfxChannels+0x19>
    3487: 86 13        	stx	$13                     ; 0x13 <__rc3>
    3489: e6 61        	inc	$61                     ; 0x61 <sfxChannels+0x18>
    348b: f0 03        	beq	$3490 <playSIDChunk+0x1e1>
    348d: 4c 95 34     	jmp	$3495 <playSIDChunk+0x1e6>
    3490: e6 62        	inc	$62                     ; 0x62 <sfxChannels+0x19>
    3492: 4c 95 34     	jmp	$3495 <playSIDChunk+0x1e6>
    3495: 18           	clc
    3496: 65 12        	adc	$12                     ; 0x12 <__rc2>
    3498: 85 14        	sta	$14                     ; 0x14 <__rc4>
    349a: 98           	tya
    349b: 65 13        	adc	$13                     ; 0x13 <__rc3>
    349d: aa           	tax
    349e: a5 15        	lda	$15                     ; 0x15 <__rc5>
    34a0: 69 00        	adc	#$0
    34a2: 85 12        	sta	$12                     ; 0x12 <__rc2>
    34a4: a5 16        	lda	$16                     ; 0x16 <__rc6>
    34a6: 69 00        	adc	#$0
    34a8: 85 13        	sta	$13                     ; 0x13 <__rc3>
    34aa: a5 14        	lda	$14                     ; 0x14 <__rc4>
    34ac: 20 fd 20     	jsr	$20fd <FAR_PEEK>
    34af: 85 6d        	sta	$6d                     ; 0x6d <data0>
    34b1: a6 61        	ldx	$61                     ; 0x61 <sfxChannels+0x18>
    34b3: a4 62        	ldy	$62                     ; 0x62 <sfxChannels+0x19>
    34b5: a5 5f        	lda	$5f                     ; 0x5f <sfxChannels+0x16>
    34b7: 85 12        	sta	$12                     ; 0x12 <__rc2>
    34b9: c4 60        	cpy	$60                     ; 0x60 <sfxChannels+0x17>
    34bb: f0 02        	beq	$34bf <playSIDChunk+0x210>
    34bd: 80 0c        	bra	$34cb <playSIDChunk+0x21c>
    34bf: e4 12        	cpx	$12                     ; 0x12 <__rc2>
    34c1: f0 02        	beq	$34c5 <playSIDChunk+0x216>
    34c3: 80 02        	bra	$34c7 <playSIDChunk+0x218>
    34c5: 80 02        	bra	$34c9 <playSIDChunk+0x21a>
    34c7: 80 2b        	bra	$34f4 <playSIDChunk+0x245>
    34c9: 80 02        	bra	$34cd <playSIDChunk+0x21e>
    34cb: 80 27        	bra	$34f4 <playSIDChunk+0x245>
    34cd: 80 00        	bra	$34cf <playSIDChunk+0x220>
    34cf: 64 63        	stz	$63                     ; 0x63 <sfxChannels+0x1a>
    34d1: 20 2d 20     	jsr	$202d <shutAllSIDVoices>
    34d4: 18           	clc
    34d5: a5 10        	lda	$10                     ; 0x10 <__rc0>
    34d7: 69 03        	adc	#$3
    34d9: 85 12        	sta	$12                     ; 0x12 <__rc2>
    34db: a5 11        	lda	$11                     ; 0x11 <__rc1>
    34dd: 69 00        	adc	#$0
    34df: 85 13        	sta	$13                     ; 0x13 <__rc3>
    34e1: a9 01        	lda	#$1
    34e3: 92 12        	sta	($12)                   ; 0x12 <__rc2>
    34e5: a8           	tay
    34e6: 3a           	dec
    34e7: 91 12        	sta	($12),y                 ; 0x12 <__rc2>
    34e9: c8           	iny
    34ea: 91 12        	sta	($12),y                 ; 0x12 <__rc2>
    34ec: a9 00        	lda	#$0
    34ee: c8           	iny
    34ef: 91 12        	sta	($12),y                 ; 0x12 <__rc2>
    34f1: 4c fe 35     	jmp	$35fe <playSIDChunk+0x34f>
    34f4: 4c 81 35     	jmp	$3581 <playSIDChunk+0x2d2>
    34f7: a6 6c        	ldx	$6c                     ; 0x6c <sfxChannels+0x23>
    34f9: d0 03        	bne	$34fe <playSIDChunk+0x24f>
    34fb: 4c 7f 35     	jmp	$357f <playSIDChunk+0x2d0>
    34fe: a5 64        	lda	$64                     ; 0x64 <sfxChannels+0x1b>
    3500: a4 65        	ldy	$65                     ; 0x65 <sfxChannels+0x1c>
    3502: a6 66        	ldx	$66                     ; 0x66 <sfxChannels+0x1d>
    3504: 86 15        	stx	$15                     ; 0x15 <__rc5>
    3506: a6 67        	ldx	$67                     ; 0x67 <sfxChannels+0x1e>
    3508: 86 16        	stx	$16                     ; 0x16 <__rc6>
    350a: a6 6a        	ldx	$6a                     ; 0x6a <sfxChannels+0x21>
    350c: 86 12        	stx	$12                     ; 0x12 <__rc2>
    350e: a6 6b        	ldx	$6b                     ; 0x6b <sfxChannels+0x22>
    3510: 86 13        	stx	$13                     ; 0x13 <__rc3>
    3512: e6 6a        	inc	$6a                     ; 0x6a <sfxChannels+0x21>
    3514: f0 03        	beq	$3519 <playSIDChunk+0x26a>
    3516: 4c 1e 35     	jmp	$351e <playSIDChunk+0x26f>
    3519: e6 6b        	inc	$6b                     ; 0x6b <sfxChannels+0x22>
    351b: 4c 1e 35     	jmp	$351e <playSIDChunk+0x26f>
    351e: 18           	clc
    351f: 65 12        	adc	$12                     ; 0x12 <__rc2>
    3521: 85 14        	sta	$14                     ; 0x14 <__rc4>
    3523: 98           	tya
    3524: 65 13        	adc	$13                     ; 0x13 <__rc3>
    3526: aa           	tax
    3527: a5 15        	lda	$15                     ; 0x15 <__rc5>
    3529: 69 00        	adc	#$0
    352b: 85 12        	sta	$12                     ; 0x12 <__rc2>
    352d: a5 16        	lda	$16                     ; 0x16 <__rc6>
    352f: 69 00        	adc	#$0
    3531: 85 13        	sta	$13                     ; 0x13 <__rc3>
    3533: a5 14        	lda	$14                     ; 0x14 <__rc4>
    3535: 20 fd 20     	jsr	$20fd <FAR_PEEK>
    3538: 85 6d        	sta	$6d                     ; 0x6d <data0>
    353a: a6 6a        	ldx	$6a                     ; 0x6a <sfxChannels+0x21>
    353c: a4 6b        	ldy	$6b                     ; 0x6b <sfxChannels+0x22>
    353e: a5 68        	lda	$68                     ; 0x68 <sfxChannels+0x1f>
    3540: 85 12        	sta	$12                     ; 0x12 <__rc2>
    3542: c4 69        	cpy	$69                     ; 0x69 <sfxChannels+0x20>
    3544: f0 02        	beq	$3548 <playSIDChunk+0x299>
    3546: 80 0c        	bra	$3554 <playSIDChunk+0x2a5>
    3548: e4 12        	cpx	$12                     ; 0x12 <__rc2>
    354a: f0 02        	beq	$354e <playSIDChunk+0x29f>
    354c: 80 02        	bra	$3550 <playSIDChunk+0x2a1>
    354e: 80 02        	bra	$3552 <playSIDChunk+0x2a3>
    3550: 80 2b        	bra	$357d <playSIDChunk+0x2ce>
    3552: 80 02        	bra	$3556 <playSIDChunk+0x2a7>
    3554: 80 27        	bra	$357d <playSIDChunk+0x2ce>
    3556: 80 00        	bra	$3558 <playSIDChunk+0x2a9>
    3558: 64 6c        	stz	$6c                     ; 0x6c <sfxChannels+0x23>
    355a: 20 2d 20     	jsr	$202d <shutAllSIDVoices>
    355d: 18           	clc
    355e: a5 10        	lda	$10                     ; 0x10 <__rc0>
    3560: 69 03        	adc	#$3
    3562: 85 12        	sta	$12                     ; 0x12 <__rc2>
    3564: a5 11        	lda	$11                     ; 0x11 <__rc1>
    3566: 69 00        	adc	#$0
    3568: 85 13        	sta	$13                     ; 0x13 <__rc3>
    356a: a9 01        	lda	#$1
    356c: 92 12        	sta	($12)                   ; 0x12 <__rc2>
    356e: a8           	tay
    356f: 3a           	dec
    3570: 91 12        	sta	($12),y                 ; 0x12 <__rc2>
    3572: c8           	iny
    3573: 91 12        	sta	($12),y                 ; 0x12 <__rc2>
    3575: a9 00        	lda	#$0
    3577: c8           	iny
    3578: 91 12        	sta	($12),y                 ; 0x12 <__rc2>
    357a: 4c fe 35     	jmp	$35fe <playSIDChunk+0x34f>
    357d: 80 02        	bra	$3581 <playSIDChunk+0x2d2>
    357f: 64 6d        	stz	$6d                     ; 0x6d <data0>
    3581: a5 6d        	lda	$6d                     ; 0x6d <data0>
    3583: 0a           	asl
    3584: aa           	tax
    3585: a9 00        	lda	#$0
    3587: 2a           	rol
    3588: 86 12        	stx	$12                     ; 0x12 <__rc2>
    358a: 06 12        	asl	$12                     ; 0x12 <__rc2>
    358c: 2a           	rol
    358d: 06 12        	asl	$12                     ; 0x12 <__rc2>
    358f: 2a           	rol
    3590: a0 01        	ldy	#$1
    3592: 06 12        	asl	$12                     ; 0x12 <__rc2>
    3594: 2a           	rol
    3595: aa           	tax
    3596: a5 12        	lda	$12                     ; 0x12 <__rc2>
    3598: 18           	clc
    3599: 69 00        	adc	#$0
    359b: 85 14        	sta	$14                     ; 0x14 <__rc4>
    359d: 8a           	txa
    359e: 69 f8        	adc	#$f8
    35a0: 85 15        	sta	$15                     ; 0x15 <__rc5>
    35a2: 18           	clc
    35a3: a6 10        	ldx	$10                     ; 0x10 <__rc0>
    35a5: 86 12        	stx	$12                     ; 0x12 <__rc2>
    35a7: a6 11        	ldx	$11                     ; 0x11 <__rc1>
    35a9: 86 13        	stx	$13                     ; 0x13 <__rc3>
    35ab: a5 14        	lda	$14                     ; 0x14 <__rc4>
    35ad: 92 12        	sta	($12)                   ; 0x12 <__rc2>
    35af: a5 15        	lda	$15                     ; 0x15 <__rc5>
    35b1: 91 12        	sta	($12),y                 ; 0x12 <__rc2>
    35b3: a9 db        	lda	#$db
    35b5: 64 12        	stz	$12                     ; 0x12 <__rc2>
    35b7: 64 13        	stz	$13                     ; 0x13 <__rc3>
    35b9: a2 01        	ldx	#$1
    35bb: 20 72 20     	jsr	$2072 <setTimer0>
    35be: ad 60 d6     	lda	$d660                   ; 0xd660 <__heap_start+0x8548>
    35c1: 29 10        	and	#$10
    35c3: f0 22        	beq	$35e7 <playSIDChunk+0x338>
    35c5: 80 00        	bra	$35c7 <playSIDChunk+0x318>
    35c7: 18           	clc
    35c8: a6 10        	ldx	$10                     ; 0x10 <__rc0>
    35ca: 86 12        	stx	$12                     ; 0x12 <__rc2>
    35cc: a6 11        	ldx	$11                     ; 0x11 <__rc1>
    35ce: 86 13        	stx	$13                     ; 0x13 <__rc3>
    35d0: b2 12        	lda	($12)                   ; 0x12 <__rc2>
    35d2: 85 14        	sta	$14                     ; 0x14 <__rc4>
    35d4: a0 01        	ldy	#$1
    35d6: b1 12        	lda	($12),y                 ; 0x12 <__rc2>
    35d8: a6 14        	ldx	$14                     ; 0x14 <__rc4>
    35da: 8e 02 d4     	stx	$d402                   ; 0xd402 <__heap_start+0x82ea>
    35dd: 8d 03 d4     	sta	$d403                   ; 0xd403 <__heap_start+0x82eb>
    35e0: a2 10        	ldx	#$10
    35e2: 8e 60 d6     	stx	$d660                   ; 0xd660 <__heap_start+0x8548>
    35e5: 80 02        	bra	$35e9 <playSIDChunk+0x33a>
    35e7: 80 d5        	bra	$35be <playSIDChunk+0x30f>
    35e9: 18           	clc
    35ea: a5 10        	lda	$10                     ; 0x10 <__rc0>
    35ec: 69 02        	adc	#$2
    35ee: 85 12        	sta	$12                     ; 0x12 <__rc2>
    35f0: a5 11        	lda	$11                     ; 0x11 <__rc1>
    35f2: 69 00        	adc	#$0
    35f4: 85 13        	sta	$13                     ; 0x13 <__rc3>
    35f6: b2 12        	lda	($12)                   ; 0x12 <__rc2>
    35f8: 1a           	inc
    35f9: 92 12        	sta	($12)                   ; 0x12 <__rc2>
    35fb: 4c 14 33     	jmp	$3314 <playSIDChunk+0x65>
    35fe: 18           	clc
    35ff: a5 10        	lda	$10                     ; 0x10 <__rc0>
    3601: 69 03        	adc	#$3
    3603: 85 12        	sta	$12                     ; 0x12 <__rc2>
    3605: a5 11        	lda	$11                     ; 0x11 <__rc1>
    3607: 69 00        	adc	#$0
    3609: 85 13        	sta	$13                     ; 0x13 <__rc3>
    360b: b2 12        	lda	($12)                   ; 0x12 <__rc2>
    360d: 85 14        	sta	$14                     ; 0x14 <__rc4>
    360f: a0 01        	ldy	#$1
    3611: b1 12        	lda	($12),y                 ; 0x12 <__rc2>
    3613: 85 15        	sta	$15                     ; 0x15 <__rc5>
    3615: c8           	iny
    3616: b1 12        	lda	($12),y                 ; 0x12 <__rc2>
    3618: 85 16        	sta	$16                     ; 0x16 <__rc6>
    361a: c8           	iny
    361b: b1 12        	lda	($12),y                 ; 0x12 <__rc2>
    361d: f0 02        	beq	$3621 <playSIDChunk+0x372>
    361f: 80 22        	bra	$3643 <playSIDChunk+0x394>
    3621: a5 16        	lda	$16                     ; 0x16 <__rc6>
    3623: f0 02        	beq	$3627 <playSIDChunk+0x378>
    3625: 80 18        	bra	$363f <playSIDChunk+0x390>
    3627: a5 15        	lda	$15                     ; 0x15 <__rc5>
    3629: f0 02        	beq	$362d <playSIDChunk+0x37e>
    362b: 80 0e        	bra	$363b <playSIDChunk+0x38c>
    362d: a6 14        	ldx	$14                     ; 0x14 <__rc4>
    362f: e0 02        	cpx	#$2
    3631: f0 02        	beq	$3635 <playSIDChunk+0x386>
    3633: 80 02        	bra	$3637 <playSIDChunk+0x388>
    3635: 80 02        	bra	$3639 <playSIDChunk+0x38a>
    3637: 80 2b        	bra	$3664 <playSIDChunk+0x3b5>
    3639: 80 02        	bra	$363d <playSIDChunk+0x38e>
    363b: 80 27        	bra	$3664 <playSIDChunk+0x3b5>
    363d: 80 02        	bra	$3641 <playSIDChunk+0x392>
    363f: 80 23        	bra	$3664 <playSIDChunk+0x3b5>
    3641: 80 02        	bra	$3645 <playSIDChunk+0x396>
    3643: 80 1f        	bra	$3664 <playSIDChunk+0x3b5>
    3645: 80 00        	bra	$3647 <playSIDChunk+0x398>
    3647: a9 00        	lda	#$0
    3649: 18           	clc
    364a: 48           	pha
    364b: a5 10        	lda	$10                     ; 0x10 <__rc0>
    364d: 69 03        	adc	#$3
    364f: 85 12        	sta	$12                     ; 0x12 <__rc2>
    3651: a5 11        	lda	$11                     ; 0x11 <__rc1>
    3653: 69 00        	adc	#$0
    3655: 85 13        	sta	$13                     ; 0x13 <__rc3>
    3657: 68           	pla
    3658: 92 12        	sta	($12)                   ; 0x12 <__rc2>
    365a: a0 01        	ldy	#$1
    365c: 91 12        	sta	($12),y                 ; 0x12 <__rc2>
    365e: c8           	iny
    365f: 91 12        	sta	($12),y                 ; 0x12 <__rc2>
    3661: c8           	iny
    3662: 91 12        	sta	($12),y                 ; 0x12 <__rc2>
    3664: 18           	clc
    3665: a5 10        	lda	$10                     ; 0x10 <__rc0>
    3667: 69 09        	adc	#$9
    3669: 85 10        	sta	$10                     ; 0x10 <__rc0>
    366b: a5 11        	lda	$11                     ; 0x11 <__rc1>
    366d: 69 00        	adc	#$0
    366f: 85 11        	sta	$11                     ; 0x11 <__rc1>
    3671: 60           	rts

00003672 <startSound>:
    3672: 85 12        	sta	$12                     ; 0x12 <__rc2>
    3674: 0a           	asl
    3675: 64 13        	stz	$13                     ; 0x13 <__rc3>
    3677: 26 13        	rol	$13                     ; 0x13 <__rc3>
    3679: 0a           	asl
    367a: 26 13        	rol	$13                     ; 0x13 <__rc3>
    367c: 0a           	asl
    367d: 26 13        	rol	$13                     ; 0x13 <__rc3>
    367f: a2 00        	ldx	#$0
    3681: 18           	clc
    3682: 65 12        	adc	$12                     ; 0x12 <__rc2>
    3684: 85 12        	sta	$12                     ; 0x12 <__rc2>
    3686: a5 13        	lda	$13                     ; 0x13 <__rc3>
    3688: 69 00        	adc	#$0
    368a: 85 13        	sta	$13                     ; 0x13 <__rc3>
    368c: a9 49        	lda	#$49
    368e: 18           	clc
    368f: 65 12        	adc	$12                     ; 0x12 <__rc2>
    3691: a8           	tay
    3692: a9 00        	lda	#$0
    3694: 65 13        	adc	$13                     ; 0x13 <__rc3>
    3696: aa           	tax
    3697: 98           	tya
    3698: 84 12        	sty	$12                     ; 0x12 <__rc2>
    369a: 86 13        	stx	$13                     ; 0x13 <__rc3>
    369c: a0 06        	ldy	#$6
    369e: 18           	clc
    369f: 69 06        	adc	#$6
    36a1: 85 14        	sta	$14                     ; 0x14 <__rc4>
    36a3: 8a           	txa
    36a4: 69 00        	adc	#$0
    36a6: 85 15        	sta	$15                     ; 0x15 <__rc5>
    36a8: a9 00        	lda	#$0
    36aa: 91 12        	sta	($12),y                 ; 0x12 <__rc2>
    36ac: a2 01        	ldx	#$1
    36ae: a0 01        	ldy	#$1
    36b0: 91 14        	sta	($14),y                 ; 0x14 <__rc4>
    36b2: a0 08        	ldy	#$8
    36b4: 8a           	txa
    36b5: 91 12        	sta	($12),y                 ; 0x12 <__rc2>
    36b7: 60           	rts

000036b8 <howManySounds>:
    36b8: a4 51        	ldy	$51                     ; 0x51 <sfxChannels+0x8>
    36ba: a2 00        	ldx	#$0
    36bc: a9 01        	lda	#$1
    36be: c0 00        	cpy	#$0
    36c0: f0 01        	beq	$36c3 <howManySounds+0xb>
    36c2: 60           	rts
    36c3: a4 5a        	ldy	$5a                     ; 0x5a <sfxChannels+0x11>
    36c5: d0 fb        	bne	$36c2 <howManySounds+0xa>
    36c7: a4 63        	ldy	$63                     ; 0x63 <sfxChannels+0x1a>
    36c9: d0 f7        	bne	$36c2 <howManySounds+0xa>
    36cb: a6 6c        	ldx	$6c                     ; 0x6c <sfxChannels+0x23>
    36cd: a0 01        	ldy	#$1
    36cf: 8a           	txa
    36d0: f0 02        	beq	$36d4 <howManySounds+0x1c>
    36d2: a0 00        	ldy	#$0
    36d4: a2 00        	ldx	#$0
    36d6: 8a           	txa
    36d7: c0 00        	cpy	#$0
    36d9: d0 e7        	bne	$36c2 <howManySounds+0xa>
    36db: a9 01        	lda	#$1
    36dd: 60           	rts

000036de <mix_n>:
    36de: a6 51        	ldx	$51                     ; 0x51 <sfxChannels+0x8>
    36e0: f0 16        	beq	$36f8 <mix_n+0x1a>
    36e2: a5 6d        	lda	$6d                     ; 0x6d <data0>
    36e4: 18           	clc
    36e5: 69 80        	adc	#$80
    36e7: 85 14        	sta	$14                     ; 0x14 <__rc4>
    36e9: a9 00        	lda	#$0
    36eb: 69 ff        	adc	#$ff
    36ed: a8           	tay
    36ee: a6 5a        	ldx	$5a                     ; 0x5a <sfxChannels+0x11>
    36f0: d0 12        	bne	$3704 <mix_n+0x26>
    36f2: a6 63        	ldx	$63                     ; 0x63 <sfxChannels+0x1a>
    36f4: d0 28        	bne	$371e <mix_n+0x40>
    36f6: 80 3c        	bra	$3734 <mix_n+0x56>
    36f8: a6 5a        	ldx	$5a                     ; 0x5a <sfxChannels+0x11>
    36fa: 64 14        	stz	$14                     ; 0x14 <__rc4>
    36fc: a0 00        	ldy	#$0
    36fe: 8a           	txa
    36ff: d0 03        	bne	$3704 <mix_n+0x26>
    3701: 4c a8 37     	jmp	$37a8 <mix_n+0xca>
    3704: 18           	clc
    3705: a5 14        	lda	$14                     ; 0x14 <__rc4>
    3707: 65 6e        	adc	$6e                     ; 0x6e <data1>
    3709: 85 12        	sta	$12                     ; 0x12 <__rc2>
    370b: 98           	tya
    370c: 69 00        	adc	#$0
    370e: aa           	tax
    370f: 18           	clc
    3710: a5 12        	lda	$12                     ; 0x12 <__rc2>
    3712: 69 80        	adc	#$80
    3714: 85 14        	sta	$14                     ; 0x14 <__rc4>
    3716: 8a           	txa
    3717: 69 ff        	adc	#$ff
    3719: a8           	tay
    371a: a6 63        	ldx	$63                     ; 0x63 <sfxChannels+0x1a>
    371c: f0 16        	beq	$3734 <mix_n+0x56>
    371e: 18           	clc
    371f: a5 14        	lda	$14                     ; 0x14 <__rc4>
    3721: 65 6f        	adc	$6f                     ; 0x6f <data2>
    3723: 85 12        	sta	$12                     ; 0x12 <__rc2>
    3725: 98           	tya
    3726: 69 00        	adc	#$0
    3728: aa           	tax
    3729: 18           	clc
    372a: a5 12        	lda	$12                     ; 0x12 <__rc2>
    372c: 69 80        	adc	#$80
    372e: 85 14        	sta	$14                     ; 0x14 <__rc4>
    3730: 8a           	txa
    3731: 69 ff        	adc	#$ff
    3733: a8           	tay
    3734: a6 6c        	ldx	$6c                     ; 0x6c <sfxChannels+0x23>
    3736: 5a           	phy
    3737: a4 14        	ldy	$14                     ; 0x14 <__rc4>
    3739: 84 13        	sty	$13                     ; 0x13 <__rc3>
    373b: 7a           	ply
    373c: 85 12        	sta	$12                     ; 0x12 <__rc2>
    373e: e0 00        	cpx	#$0
    3740: f0 15        	beq	$3757 <mix_n+0x79>
    3742: 18           	clc
    3743: a5 14        	lda	$14                     ; 0x14 <__rc4>
    3745: 65 70        	adc	$70                     ; 0x70 <data3>
    3747: aa           	tax
    3748: 98           	tya
    3749: 69 00        	adc	#$0
    374b: a8           	tay
    374c: 18           	clc
    374d: 8a           	txa
    374e: 69 80        	adc	#$80
    3750: 85 13        	sta	$13                     ; 0x13 <__rc3>
    3752: 98           	tya
    3753: 69 ff        	adc	#$ff
    3755: 85 12        	sta	$12                     ; 0x12 <__rc2>
    3757: a6 12        	ldx	$12                     ; 0x12 <__rc2>
    3759: 30 1e        	bmi	$3779 <mix_n+0x9b>
    375b: a6 13        	ldx	$13                     ; 0x13 <__rc3>
    375d: 8e 06 de     	stx	$de06                   ; 0xde06 <__heap_start+0x8cee>
    3760: aa           	tax
    3761: 8e 07 de     	stx	$de07                   ; 0xde07 <__heap_start+0x8cef>
    3764: a2 01        	ldx	#$1
    3766: 8e 04 de     	stx	$de04                   ; 0xde04 <__heap_start+0x8cec>
    3769: 9c 05 de     	stz	$de05                   ; 0xde05 <__heap_start+0x8ced>
    376c: ae 14 de     	ldx	$de14                   ; 0xde14 <__heap_start+0x8cfc>
    376f: 86 12        	stx	$12                     ; 0x12 <__rc2>
    3771: ae 15 de     	ldx	$de15                   ; 0xde15 <__heap_start+0x8cfd>
    3774: a5 12        	lda	$12                     ; 0x12 <__rc2>
    3776: 49 80        	eor	#$80
    3778: 60           	rts
    3779: 38           	sec
    377a: a9 00        	lda	#$0
    377c: e5 13        	sbc	$13                     ; 0x13 <__rc3>
    377e: 85 13        	sta	$13                     ; 0x13 <__rc3>
    3780: a9 00        	lda	#$0
    3782: e5 12        	sbc	$12                     ; 0x12 <__rc2>
    3784: a6 13        	ldx	$13                     ; 0x13 <__rc3>
    3786: 8e 06 de     	stx	$de06                   ; 0xde06 <__heap_start+0x8cee>
    3789: 8d 07 de     	sta	$de07                   ; 0xde07 <__heap_start+0x8cef>
    378c: a2 01        	ldx	#$1
    378e: 8e 04 de     	stx	$de04                   ; 0xde04 <__heap_start+0x8cec>
    3791: 9c 05 de     	stz	$de05                   ; 0xde05 <__heap_start+0x8ced>
    3794: ae 14 de     	ldx	$de14                   ; 0xde14 <__heap_start+0x8cfc>
    3797: 86 12        	stx	$12                     ; 0x12 <__rc2>
    3799: ae 15 de     	ldx	$de15                   ; 0xde15 <__heap_start+0x8cfd>
    379c: 38           	sec
    379d: a9 00        	lda	#$0
    379f: e5 12        	sbc	$12                     ; 0x12 <__rc2>
    37a1: 85 12        	sta	$12                     ; 0x12 <__rc2>
    37a3: a5 12        	lda	$12                     ; 0x12 <__rc2>
    37a5: 49 80        	eor	#$80
    37a7: 60           	rts
    37a8: a6 63        	ldx	$63                     ; 0x63 <sfxChannels+0x1a>
    37aa: f0 03        	beq	$37af <mix_n+0xd1>
    37ac: 4c 1e 37     	jmp	$371e <mix_n+0x40>
    37af: a6 6c        	ldx	$6c                     ; 0x6c <sfxChannels+0x23>
    37b1: f0 03        	beq	$37b6 <mix_n+0xd8>
    37b3: 4c 42 37     	jmp	$3742 <mix_n+0x64>
    37b6: a9 80        	lda	#$80
    37b8: 60           	rts

000037b9 <exit>:
    37b9: 20 14 03     	jsr	$314 <_fini>
    37bc: 80 fe        	bra	$37bc <exit+0x3>

000037be <_ZN12_GLOBAL__N_13putEcP6Status>:
    37be: 85 18        	sta	$18                     ; 0x18 <__rc8>
    37c0: a6 13        	ldx	$13                     ; 0x13 <__rc3>
    37c2: 18           	clc
    37c3: a5 12        	lda	$12                     ; 0x12 <__rc2>
    37c5: 69 05        	adc	#$5
    37c7: a8           	tay
    37c8: a5 13        	lda	$13                     ; 0x13 <__rc3>
    37ca: 86 15        	stx	$15                     ; 0x15 <__rc5>
    37cc: 69 00        	adc	#$0
    37ce: 18           	clc
    37cf: 84 16        	sty	$16                     ; 0x16 <__rc6>
    37d1: a0 05        	ldy	#$5
    37d3: 85 17        	sta	$17                     ; 0x17 <__rc7>
    37d5: b1 12        	lda	($12),y                 ; 0x12 <__rc2>
    37d7: aa           	tax
    37d8: a5 12        	lda	$12                     ; 0x12 <__rc2>
    37da: 69 03        	adc	#$3
    37dc: 85 14        	sta	$14                     ; 0x14 <__rc4>
    37de: a5 15        	lda	$15                     ; 0x15 <__rc5>
    37e0: 69 00        	adc	#$0
    37e2: 85 15        	sta	$15                     ; 0x15 <__rc5>
    37e4: a0 01        	ldy	#$1
    37e6: b1 16        	lda	($16),y                 ; 0x16 <__rc6>
    37e8: d1 14        	cmp	($14),y                 ; 0x14 <__rc4>
    37ea: d0 11        	bne	$37fd <_ZN12_GLOBAL__N_13putEcP6Status+0x3f>
    37ec: a0 03        	ldy	#$3
    37ee: 85 17        	sta	$17                     ; 0x17 <__rc7>
    37f0: b1 12        	lda	($12),y                 ; 0x12 <__rc2>
    37f2: 85 14        	sta	$14                     ; 0x14 <__rc4>
    37f4: 86 16        	stx	$16                     ; 0x16 <__rc6>
    37f6: e4 14        	cpx	$14                     ; 0x14 <__rc4>
    37f8: 90 0e        	bcc	$3808 <_ZN12_GLOBAL__N_13putEcP6Status+0x4a>
    37fa: 4c 69 38     	jmp	$3869 <_ZN12_GLOBAL__N_13putEcP6Status+0xab>
    37fd: 86 16        	stx	$16                     ; 0x16 <__rc6>
    37ff: d1 14        	cmp	($14),y                 ; 0x14 <__rc4>
    3801: 85 17        	sta	$17                     ; 0x17 <__rc7>
    3803: 90 03        	bcc	$3808 <_ZN12_GLOBAL__N_13putEcP6Status+0x4a>
    3805: 4c 69 38     	jmp	$3869 <_ZN12_GLOBAL__N_13putEcP6Status+0xab>
    3808: a5 12        	lda	$12                     ; 0x12 <__rc2>
    380a: 18           	clc
    380b: 69 0f        	adc	#$f
    380d: 85 14        	sta	$14                     ; 0x14 <__rc4>
    380f: a5 13        	lda	$13                     ; 0x13 <__rc3>
    3811: 69 00        	adc	#$0
    3813: 85 15        	sta	$15                     ; 0x15 <__rc5>
    3815: a0 01        	ldy	#$1
    3817: b1 14        	lda	($14),y                 ; 0x14 <__rc4>
    3819: a2 00        	ldx	#$0
    381b: 86 14        	stx	$14                     ; 0x14 <__rc4>
    381d: a2 00        	ldx	#$0
    381f: 86 15        	stx	$15                     ; 0x15 <__rc5>
    3821: c5 15        	cmp	$15                     ; 0x15 <__rc5>
    3823: d0 2d        	bne	$3852 <_ZN12_GLOBAL__N_13putEcP6Status+0x94>
    3825: a0 0f        	ldy	#$f
    3827: b1 12        	lda	($12),y                 ; 0x12 <__rc2>
    3829: c5 14        	cmp	$14                     ; 0x14 <__rc4>
    382b: d0 25        	bne	$3852 <_ZN12_GLOBAL__N_13putEcP6Status+0x94>
    382d: a5 12        	lda	$12                     ; 0x12 <__rc2>
    382f: 18           	clc
    3830: 69 09        	adc	#$9
    3832: 85 14        	sta	$14                     ; 0x14 <__rc4>
    3834: a5 13        	lda	$13                     ; 0x13 <__rc3>
    3836: 69 00        	adc	#$0
    3838: a0 09        	ldy	#$9
    383a: 85 15        	sta	$15                     ; 0x15 <__rc5>
    383c: 18           	clc
    383d: a5 16        	lda	$16                     ; 0x16 <__rc6>
    383f: 71 12        	adc	($12),y                 ; 0x12 <__rc2>
    3841: aa           	tax
    3842: a0 01        	ldy	#$1
    3844: a5 17        	lda	$17                     ; 0x17 <__rc7>
    3846: 71 14        	adc	($14),y                 ; 0x14 <__rc4>
    3848: 86 14        	stx	$14                     ; 0x14 <__rc4>
    384a: 85 15        	sta	$15                     ; 0x15 <__rc5>
    384c: a5 18        	lda	$18                     ; 0x18 <__rc8>
    384e: 92 14        	sta	($14)                   ; 0x14 <__rc4>
    3850: 80 17        	bra	$3869 <_ZN12_GLOBAL__N_13putEcP6Status+0xab>
    3852: a6 12        	ldx	$12                     ; 0x12 <__rc2>
    3854: 86 e0        	stx	$e0                     ; 0xe0 <__zp_bss_size+0x87>
    3856: a6 13        	ldx	$13                     ; 0x13 <__rc3>
    3858: 86 e1        	stx	$e1                     ; 0xe1 <__zp_bss_size+0x88>
    385a: a2 00        	ldx	#$0
    385c: a5 18        	lda	$18                     ; 0x18 <__rc8>
    385e: 20 de 46     	jsr	$46de <putchar>
    3861: a6 e0        	ldx	$e0                     ; 0xe0 <__zp_bss_size+0x87>
    3863: 86 12        	stx	$12                     ; 0x12 <__rc2>
    3865: a6 e1        	ldx	$e1                     ; 0xe1 <__zp_bss_size+0x88>
    3867: 86 13        	stx	$13                     ; 0x13 <__rc3>
    3869: a0 05        	ldy	#$5
    386b: a5 12        	lda	$12                     ; 0x12 <__rc2>
    386d: 18           	clc
    386e: 69 05        	adc	#$5
    3870: 85 14        	sta	$14                     ; 0x14 <__rc4>
    3872: a5 13        	lda	$13                     ; 0x13 <__rc3>
    3874: 69 00        	adc	#$0
    3876: 85 15        	sta	$15                     ; 0x15 <__rc5>
    3878: b1 12        	lda	($12),y                 ; 0x12 <__rc2>
    387a: aa           	tax
    387b: 84 16        	sty	$16                     ; 0x16 <__rc6>
    387d: a0 01        	ldy	#$1
    387f: b1 14        	lda	($14),y                 ; 0x14 <__rc4>
    3881: 84 17        	sty	$17                     ; 0x17 <__rc7>
    3883: e8           	inx
    3884: d0 01        	bne	$3887 <_ZN12_GLOBAL__N_13putEcP6Status+0xc9>
    3886: 1a           	inc
    3887: 85 18        	sta	$18                     ; 0x18 <__rc8>
    3889: 8a           	txa
    388a: a4 16        	ldy	$16                     ; 0x16 <__rc6>
    388c: 91 12        	sta	($12),y                 ; 0x12 <__rc2>
    388e: a4 17        	ldy	$17                     ; 0x17 <__rc7>
    3890: a5 18        	lda	$18                     ; 0x18 <__rc8>
    3892: 91 14        	sta	($14),y                 ; 0x14 <__rc4>
    3894: 60           	rts

00003895 <_ZN12_GLOBAL__N_112print_stringEPKcP6Status>:
    3895: a6 12        	ldx	$12                     ; 0x12 <__rc2>
    3897: 86 d7        	stx	$d7                     ; 0xd7 <__zp_bss_size+0x7e>
    3899: a6 13        	ldx	$13                     ; 0x13 <__rc3>
    389b: 86 d8        	stx	$d8                     ; 0xd8 <__zp_bss_size+0x7f>
    389d: a6 14        	ldx	$14                     ; 0x14 <__rc4>
    389f: 86 d9        	stx	$d9                     ; 0xd9 <__zp_bss_size+0x80>
    38a1: a6 15        	ldx	$15                     ; 0x15 <__rc5>
    38a3: 86 da        	stx	$da                     ; 0xda <__zp_bss_size+0x81>
    38a5: a5 d9        	lda	$d9                     ; 0xd9 <__zp_bss_size+0x80>
    38a7: 18           	clc
    38a8: 69 0d        	adc	#$d
    38aa: 85 12        	sta	$12                     ; 0x12 <__rc2>
    38ac: a5 da        	lda	$da                     ; 0xda <__zp_bss_size+0x81>
    38ae: 69 00        	adc	#$0
    38b0: 85 13        	sta	$13                     ; 0x13 <__rc3>
    38b2: a0 01        	ldy	#$1
    38b4: b1 12        	lda	($12),y                 ; 0x12 <__rc2>
    38b6: 30 14        	bmi	$38cc <_ZN12_GLOBAL__N_112print_stringEPKcP6Status+0x37>
    38b8: a0 0d        	ldy	#$d
    38ba: aa           	tax
    38bb: b1 d9        	lda	($d9),y                 ; 0xd9 <__zp_bss_size+0x80>
    38bd: 86 dc        	stx	$dc                     ; 0xdc <__zp_bss_size+0x83>
    38bf: e0 00        	cpx	#$0
    38c1: d0 0e        	bne	$38d1 <_ZN12_GLOBAL__N_112print_stringEPKcP6Status+0x3c>
    38c3: aa           	tax
    38c4: d0 0b        	bne	$38d1 <_ZN12_GLOBAL__N_112print_stringEPKcP6Status+0x3c>
    38c6: 64 db        	stz	$db                     ; 0xdb <__zp_bss_size+0x82>
    38c8: 64 dc        	stz	$dc                     ; 0xdc <__zp_bss_size+0x83>
    38ca: 80 36        	bra	$3902 <_ZN12_GLOBAL__N_112print_stringEPKcP6Status+0x6d>
    38cc: a9 ff        	lda	#$ff
    38ce: aa           	tax
    38cf: 86 dc        	stx	$dc                     ; 0xdc <__zp_bss_size+0x83>
    38d1: 85 db        	sta	$db                     ; 0xdb <__zp_bss_size+0x82>
    38d3: 64 12        	stz	$12                     ; 0x12 <__rc2>
    38d5: a4 d7        	ldy	$d7                     ; 0xd7 <__zp_bss_size+0x7e>
    38d7: a6 d8        	ldx	$d8                     ; 0xd8 <__zp_bss_size+0x7f>
    38d9: 86 16        	stx	$16                     ; 0x16 <__rc6>
    38db: 64 13        	stz	$13                     ; 0x13 <__rc3>
    38dd: 98           	tya
    38de: 18           	clc
    38df: 65 12        	adc	$12                     ; 0x12 <__rc2>
    38e1: 85 14        	sta	$14                     ; 0x14 <__rc4>
    38e3: a5 d8        	lda	$d8                     ; 0xd8 <__zp_bss_size+0x7f>
    38e5: 65 13        	adc	$13                     ; 0x13 <__rc3>
    38e7: 85 15        	sta	$15                     ; 0x15 <__rc5>
    38e9: b2 14        	lda	($14)                   ; 0x14 <__rc4>
    38eb: d0 03        	bne	$38f0 <_ZN12_GLOBAL__N_112print_stringEPKcP6Status+0x5b>
    38ed: 4c 99 39     	jmp	$3999 <_ZN12_GLOBAL__N_112print_stringEPKcP6Status+0x104>
    38f0: e6 12        	inc	$12                     ; 0x12 <__rc2>
    38f2: d0 02        	bne	$38f6 <_ZN12_GLOBAL__N_112print_stringEPKcP6Status+0x61>
    38f4: e6 13        	inc	$13                     ; 0x13 <__rc3>
    38f6: a6 dc        	ldx	$dc                     ; 0xdc <__zp_bss_size+0x83>
    38f8: e4 13        	cpx	$13                     ; 0x13 <__rc3>
    38fa: d0 e1        	bne	$38dd <_ZN12_GLOBAL__N_112print_stringEPKcP6Status+0x48>
    38fc: a6 db        	ldx	$db                     ; 0xdb <__zp_bss_size+0x82>
    38fe: e4 12        	cpx	$12                     ; 0x12 <__rc2>
    3900: d0 db        	bne	$38dd <_ZN12_GLOBAL__N_112print_stringEPKcP6Status+0x48>
    3902: a0 01        	ldy	#$1
    3904: b1 d9        	lda	($d9),y                 ; 0xd9 <__zp_bss_size+0x80>
    3906: 29 01        	and	#$1
    3908: f0 03        	beq	$390d <_ZN12_GLOBAL__N_112print_stringEPKcP6Status+0x78>
    390a: 4c 6b 39     	jmp	$396b <_ZN12_GLOBAL__N_112print_stringEPKcP6Status+0xd6>
    390d: a5 d9        	lda	$d9                     ; 0xd9 <__zp_bss_size+0x80>
    390f: 18           	clc
    3910: 69 0b        	adc	#$b
    3912: 85 14        	sta	$14                     ; 0x14 <__rc4>
    3914: a5 da        	lda	$da                     ; 0xda <__zp_bss_size+0x81>
    3916: 69 00        	adc	#$0
    3918: 85 15        	sta	$15                     ; 0x15 <__rc5>
    391a: 84 12        	sty	$12                     ; 0x12 <__rc2>
    391c: a0 0b        	ldy	#$b
    391e: b1 d9        	lda	($d9),y                 ; 0xd9 <__zp_bss_size+0x80>
    3920: 85 13        	sta	$13                     ; 0x13 <__rc3>
    3922: a4 12        	ldy	$12                     ; 0x12 <__rc2>
    3924: b1 14        	lda	($14),y                 ; 0x14 <__rc4>
    3926: 85 12        	sta	$12                     ; 0x12 <__rc2>
    3928: a6 dc        	ldx	$dc                     ; 0xdc <__zp_bss_size+0x83>
    392a: e4 12        	cpx	$12                     ; 0x12 <__rc2>
    392c: d0 08        	bne	$3936 <_ZN12_GLOBAL__N_112print_stringEPKcP6Status+0xa1>
    392e: a6 db        	ldx	$db                     ; 0xdb <__zp_bss_size+0x82>
    3930: e4 13        	cpx	$13                     ; 0x13 <__rc3>
    3932: 90 06        	bcc	$393a <_ZN12_GLOBAL__N_112print_stringEPKcP6Status+0xa5>
    3934: 80 35        	bra	$396b <_ZN12_GLOBAL__N_112print_stringEPKcP6Status+0xd6>
    3936: e4 12        	cpx	$12                     ; 0x12 <__rc2>
    3938: b0 31        	bcs	$396b <_ZN12_GLOBAL__N_112print_stringEPKcP6Status+0xd6>
    393a: 38           	sec
    393b: a5 db        	lda	$db                     ; 0xdb <__zp_bss_size+0x82>
    393d: e5 13        	sbc	$13                     ; 0x13 <__rc3>
    393f: a8           	tay
    3940: a5 dc        	lda	$dc                     ; 0xdc <__zp_bss_size+0x83>
    3942: e5 12        	sbc	$12                     ; 0x12 <__rc2>
    3944: 85 de        	sta	$de                     ; 0xde <__zp_bss_size+0x85>
    3946: a2 20        	ldx	#$20
    3948: 86 df        	stx	$df                     ; 0xdf <__zp_bss_size+0x86>
    394a: a6 d9        	ldx	$d9                     ; 0xd9 <__zp_bss_size+0x80>
    394c: 86 12        	stx	$12                     ; 0x12 <__rc2>
    394e: a6 da        	ldx	$da                     ; 0xda <__zp_bss_size+0x81>
    3950: 86 13        	stx	$13                     ; 0x13 <__rc3>
    3952: 84 dd        	sty	$dd                     ; 0xdd <__zp_bss_size+0x84>
    3954: a5 df        	lda	$df                     ; 0xdf <__zp_bss_size+0x86>
    3956: 20 be 37     	jsr	$37be <_ZN12_GLOBAL__N_13putEcP6Status>
    3959: a6 de        	ldx	$de                     ; 0xde <__zp_bss_size+0x85>
    395b: e6 dd        	inc	$dd                     ; 0xdd <__zp_bss_size+0x84>
    395d: d0 01        	bne	$3960 <_ZN12_GLOBAL__N_112print_stringEPKcP6Status+0xcb>
    395f: e8           	inx
    3960: 86 de        	stx	$de                     ; 0xde <__zp_bss_size+0x85>
    3962: a4 dd        	ldy	$dd                     ; 0xdd <__zp_bss_size+0x84>
    3964: 8a           	txa
    3965: d0 e3        	bne	$394a <_ZN12_GLOBAL__N_112print_stringEPKcP6Status+0xb5>
    3967: a5 dd        	lda	$dd                     ; 0xdd <__zp_bss_size+0x84>
    3969: d0 df        	bne	$394a <_ZN12_GLOBAL__N_112print_stringEPKcP6Status+0xb5>
    396b: a5 dc        	lda	$dc                     ; 0xdc <__zp_bss_size+0x83>
    396d: d0 04        	bne	$3973 <_ZN12_GLOBAL__N_112print_stringEPKcP6Status+0xde>
    396f: a5 db        	lda	$db                     ; 0xdb <__zp_bss_size+0x82>
    3971: f0 25        	beq	$3998 <_ZN12_GLOBAL__N_112print_stringEPKcP6Status+0x103>
    3973: a2 ff        	ldx	#$ff
    3975: c6 db        	dec	$db                     ; 0xdb <__zp_bss_size+0x82>
    3977: e4 db        	cpx	$db                     ; 0xdb <__zp_bss_size+0x82>
    3979: d0 02        	bne	$397d <_ZN12_GLOBAL__N_112print_stringEPKcP6Status+0xe8>
    397b: c6 dc        	dec	$dc                     ; 0xdc <__zp_bss_size+0x83>
    397d: b2 d7        	lda	($d7)                   ; 0xd7 <__zp_bss_size+0x7e>
    397f: e6 d7        	inc	$d7                     ; 0xd7 <__zp_bss_size+0x7e>
    3981: d0 02        	bne	$3985 <_ZN12_GLOBAL__N_112print_stringEPKcP6Status+0xf0>
    3983: e6 d8        	inc	$d8                     ; 0xd8 <__zp_bss_size+0x7f>
    3985: a6 d9        	ldx	$d9                     ; 0xd9 <__zp_bss_size+0x80>
    3987: 86 12        	stx	$12                     ; 0x12 <__rc2>
    3989: a6 da        	ldx	$da                     ; 0xda <__zp_bss_size+0x81>
    398b: 86 13        	stx	$13                     ; 0x13 <__rc3>
    398d: 20 be 37     	jsr	$37be <_ZN12_GLOBAL__N_13putEcP6Status>
    3990: a5 dc        	lda	$dc                     ; 0xdc <__zp_bss_size+0x83>
    3992: d0 df        	bne	$3973 <_ZN12_GLOBAL__N_112print_stringEPKcP6Status+0xde>
    3994: a5 db        	lda	$db                     ; 0xdb <__zp_bss_size+0x82>
    3996: d0 db        	bne	$3973 <_ZN12_GLOBAL__N_112print_stringEPKcP6Status+0xde>
    3998: 60           	rts
    3999: a6 12        	ldx	$12                     ; 0x12 <__rc2>
    399b: 86 db        	stx	$db                     ; 0xdb <__zp_bss_size+0x82>
    399d: a6 13        	ldx	$13                     ; 0x13 <__rc3>
    399f: 86 dc        	stx	$dc                     ; 0xdc <__zp_bss_size+0x83>
    39a1: 4c 02 39     	jmp	$3902 <_ZN12_GLOBAL__N_112print_stringEPKcP6Status+0x6d>

000039a4 <printf>:
    39a4: a6 12        	ldx	$12                     ; 0x12 <__rc2>
    39a6: 86 8b        	stx	$8b                     ; 0x8b <__zp_bss_size+0x32>
    39a8: a6 13        	ldx	$13                     ; 0x13 <__rc3>
    39aa: 86 8c        	stx	$8c                     ; 0x8c <__zp_bss_size+0x33>
    39ac: 18           	clc
    39ad: a6 10        	ldx	$10                     ; 0x10 <__rc0>
    39af: a4 11        	ldy	$11                     ; 0x11 <__rc1>
    39b1: 86 cc        	stx	$cc                     ; 0xcc <__zp_bss_size+0x73>
    39b3: 84 cd        	sty	$cd                     ; 0xcd <__zp_bss_size+0x74>
    39b5: a6 cc        	ldx	$cc                     ; 0xcc <__zp_bss_size+0x73>
    39b7: a4 cd        	ldy	$cd                     ; 0xcd <__zp_bss_size+0x74>
    39b9: 86 b7        	stx	$b7                     ; 0xb7 <__zp_bss_size+0x5e>
    39bb: 84 b8        	sty	$b8                     ; 0xb8 <__zp_bss_size+0x5f>
    39bd: a2 ff        	ldx	#$ff
    39bf: 86 bc        	stx	$bc                     ; 0xbc <__zp_bss_size+0x63>
    39c1: 86 bd        	stx	$bd                     ; 0xbd <__zp_bss_size+0x64>
    39c3: 64 be        	stz	$be                     ; 0xbe <__zp_bss_size+0x65>
    39c5: 64 bf        	stz	$bf                     ; 0xbf <__zp_bss_size+0x66>
    39c7: e8           	inx
    39c8: 86 12        	stx	$12                     ; 0x12 <__rc2>
    39ca: a2 00        	ldx	#$0
    39cc: 86 13        	stx	$13                     ; 0x13 <__rc3>
    39ce: a6 12        	ldx	$12                     ; 0x12 <__rc2>
    39d0: a4 13        	ldy	$13                     ; 0x13 <__rc3>
    39d2: 86 c2        	stx	$c2                     ; 0xc2 <__zp_bss_size+0x69>
    39d4: 84 c3        	sty	$c3                     ; 0xc3 <__zp_bss_size+0x6a>
    39d6: a2 02        	ldx	#$2
    39d8: 86 c8        	stx	$c8                     ; 0xc8 <__zp_bss_size+0x6f>
    39da: 64 c9        	stz	$c9                     ; 0xc9 <__zp_bss_size+0x70>
    39dc: a6 b7        	ldx	$b7                     ; 0xb7 <__zp_bss_size+0x5e>
    39de: a4 b8        	ldy	$b8                     ; 0xb8 <__zp_bss_size+0x5f>
    39e0: 86 ca        	stx	$ca                     ; 0xca <__zp_bss_size+0x71>
    39e2: 84 cb        	sty	$cb                     ; 0xcb <__zp_bss_size+0x72>
    39e4: a2 ae        	ldx	#$ae
    39e6: a0 00        	ldy	#$0
    39e8: 86 12        	stx	$12                     ; 0x12 <__rc2>
    39ea: 84 13        	sty	$13                     ; 0x13 <__rc3>
    39ec: a0 01        	ldy	#$1
    39ee: a9 95        	lda	#$95
    39f0: 18           	clc
    39f1: 69 02        	adc	#$2
    39f3: 85 d5        	sta	$d5                     ; 0xd5 <__zp_bss_size+0x7c>
    39f5: a9 00        	lda	#$0
    39f7: 69 00        	adc	#$0
    39f9: 85 d6        	sta	$d6                     ; 0xd6 <__zp_bss_size+0x7d>
    39fb: e6 12        	inc	$12                     ; 0x12 <__rc2>
    39fd: d0 02        	bne	$3a01 <printf+0x5d>
    39ff: e6 13        	inc	$13                     ; 0x13 <__rc3>
    3a01: a6 12        	ldx	$12                     ; 0x12 <__rc2>
    3a03: 86 d1        	stx	$d1                     ; 0xd1 <__zp_bss_size+0x78>
    3a05: a6 13        	ldx	$13                     ; 0x13 <__rc3>
    3a07: 86 d2        	stx	$d2                     ; 0xd2 <__zp_bss_size+0x79>
    3a09: a6 8b        	ldx	$8b                     ; 0x8b <__zp_bss_size+0x32>
    3a0b: 86 8d        	stx	$8d                     ; 0x8d <__zp_bss_size+0x34>
    3a0d: a6 8c        	ldx	$8c                     ; 0x8c <__zp_bss_size+0x33>
    3a0f: 86 8e        	stx	$8e                     ; 0x8e <__zp_bss_size+0x35>
    3a11: b2 8b        	lda	($8b)                   ; 0x8b <__zp_bss_size+0x32>
    3a13: c9 25        	cmp	#$25
    3a15: f0 26        	beq	$3a3d <printf+0x99>
    3a17: a2 00        	ldx	#$0
    3a19: c9 00        	cmp	#$0
    3a1b: d0 03        	bne	$3a20 <printf+0x7c>
    3a1d: 4c dd 46     	jmp	$46dd <printf+0xd39>
    3a20: 84 8b        	sty	$8b                     ; 0x8b <__zp_bss_size+0x32>
    3a22: 20 de 46     	jsr	$46de <putchar>
    3a25: a4 8b        	ldy	$8b                     ; 0x8b <__zp_bss_size+0x32>
    3a27: e6 8d        	inc	$8d                     ; 0x8d <__zp_bss_size+0x34>
    3a29: d0 02        	bne	$3a2d <printf+0x89>
    3a2b: e6 8e        	inc	$8e                     ; 0x8e <__zp_bss_size+0x35>
    3a2d: e6 be        	inc	$be                     ; 0xbe <__zp_bss_size+0x65>
    3a2f: d0 02        	bne	$3a33 <printf+0x8f>
    3a31: e6 bf        	inc	$bf                     ; 0xbf <__zp_bss_size+0x66>
    3a33: a6 8d        	ldx	$8d                     ; 0x8d <__zp_bss_size+0x34>
    3a35: 86 8b        	stx	$8b                     ; 0x8b <__zp_bss_size+0x32>
    3a37: a6 8e        	ldx	$8e                     ; 0x8e <__zp_bss_size+0x35>
    3a39: 86 8c        	stx	$8c                     ; 0x8c <__zp_bss_size+0x33>
    3a3b: 80 cc        	bra	$3a09 <printf+0x65>
    3a3d: a6 8b        	ldx	$8b                     ; 0x8b <__zp_bss_size+0x32>
    3a3f: 86 12        	stx	$12                     ; 0x12 <__rc2>
    3a41: a6 8c        	ldx	$8c                     ; 0x8c <__zp_bss_size+0x33>
    3a43: 86 13        	stx	$13                     ; 0x13 <__rc3>
    3a45: e6 12        	inc	$12                     ; 0x12 <__rc2>
    3a47: d0 02        	bne	$3a4b <printf+0xa7>
    3a49: e6 13        	inc	$13                     ; 0x13 <__rc3>
    3a4b: b1 8d        	lda	($8d),y                 ; 0x8d <__zp_bss_size+0x34>
    3a4d: c9 25        	cmp	#$25
    3a4f: d0 18        	bne	$3a69 <printf+0xc5>
    3a51: a2 01        	ldx	#$1
    3a53: 86 13        	stx	$13                     ; 0x13 <__rc3>
    3a55: a5 be        	lda	$be                     ; 0xbe <__zp_bss_size+0x65>
    3a57: a4 bf        	ldy	$bf                     ; 0xbf <__zp_bss_size+0x66>
    3a59: c4 bd        	cpy	$bd                     ; 0xbd <__zp_bss_size+0x64>
    3a5b: f0 03        	beq	$3a60 <printf+0xbc>
    3a5d: 4c 79 3b     	jmp	$3b79 <printf+0x1d5>
    3a60: a6 bc        	ldx	$bc                     ; 0xbc <__zp_bss_size+0x63>
    3a62: 86 12        	stx	$12                     ; 0x12 <__rc2>
    3a64: c5 12        	cmp	$12                     ; 0x12 <__rc2>
    3a66: 4c 7b 3b     	jmp	$3b7b <printf+0x1d7>
    3a69: a2 01        	ldx	#$1
    3a6b: 86 15        	stx	$15                     ; 0x15 <__rc5>
    3a6d: 64 ba        	stz	$ba                     ; 0xba <__zp_bss_size+0x61>
    3a6f: 64 bb        	stz	$bb                     ; 0xbb <__zp_bss_size+0x62>
    3a71: 64 b9        	stz	$b9                     ; 0xb9 <__zp_bss_size+0x60>
    3a73: 64 c4        	stz	$c4                     ; 0xc4 <__zp_bss_size+0x6b>
    3a75: 64 c5        	stz	$c5                     ; 0xc5 <__zp_bss_size+0x6c>
    3a77: a2 ff        	ldx	#$ff
    3a79: 86 c6        	stx	$c6                     ; 0xc6 <__zp_bss_size+0x6d>
    3a7b: 86 c7        	stx	$c7                     ; 0xc7 <__zp_bss_size+0x6e>
    3a7d: 64 89        	stz	$89                     ; 0x89 <__zp_bss_size+0x30>
    3a7f: 80 33        	bra	$3ab4 <printf+0x110>
    3a81: a2 02        	ldx	#$2
    3a83: 80 15        	bra	$3a9a <printf+0xf6>
    3a85: e0 20        	cpx	#$20
    3a87: f0 15        	beq	$3a9e <printf+0xfa>
    3a89: 86 16        	stx	$16                     ; 0x16 <__rc6>
    3a8b: e0 23        	cpx	#$23
    3a8d: f0 03        	beq	$3a92 <printf+0xee>
    3a8f: 4c 11 3b     	jmp	$3b11 <printf+0x16d>
    3a92: a5 89        	lda	$89                     ; 0x89 <__zp_bss_size+0x30>
    3a94: a2 04        	ldx	#$4
    3a96: 80 02        	bra	$3a9a <printf+0xf6>
    3a98: a2 10        	ldx	#$10
    3a9a: 86 14        	stx	$14                     ; 0x14 <__rc4>
    3a9c: 80 06        	bra	$3aa4 <printf+0x100>
    3a9e: a2 08        	ldx	#$8
    3aa0: 86 14        	stx	$14                     ; 0x14 <__rc4>
    3aa2: a5 89        	lda	$89                     ; 0x89 <__zp_bss_size+0x30>
    3aa4: 05 14        	ora	$14                     ; 0x14 <__rc4>
    3aa6: 85 89        	sta	$89                     ; 0x89 <__zp_bss_size+0x30>
    3aa8: 85 ba        	sta	$ba                     ; 0xba <__zp_bss_size+0x61>
    3aaa: a2 00        	ldx	#$0
    3aac: 86 bb        	stx	$bb                     ; 0xbb <__zp_bss_size+0x62>
    3aae: e6 12        	inc	$12                     ; 0x12 <__rc2>
    3ab0: d0 02        	bne	$3ab4 <printf+0x110>
    3ab2: e6 13        	inc	$13                     ; 0x13 <__rc3>
    3ab4: b2 12        	lda	($12)                   ; 0x12 <__rc2>
    3ab6: 18           	clc
    3ab7: aa           	tax
    3ab8: 69 d6        	adc	#$d6
    3aba: c9 07        	cmp	#$7
    3abc: b0 c7        	bcs	$3a85 <printf+0xe1>
    3abe: 86 16        	stx	$16                     ; 0x16 <__rc6>
    3ac0: 0a           	asl
    3ac1: aa           	tax
    3ac2: a0 01        	ldy	#$1
    3ac4: 84 14        	sty	$14                     ; 0x14 <__rc4>
    3ac6: a5 89        	lda	$89                     ; 0x89 <__zp_bss_size+0x30>
    3ac8: 7c 5e 4f     	jmp	($4f5e,x)               ; 0x4f5e <__camera_size+0x1550>
    3acb: a5 ca        	lda	$ca                     ; 0xca <__zp_bss_size+0x71>
    3acd: a6 cb        	ldx	$cb                     ; 0xcb <__zp_bss_size+0x72>
    3acf: 85 16        	sta	$16                     ; 0x16 <__rc6>
    3ad1: 86 17        	stx	$17                     ; 0x17 <__rc7>
    3ad3: 18           	clc
    3ad4: 69 02        	adc	#$2
    3ad6: a8           	tay
    3ad7: 8a           	txa
    3ad8: 69 00        	adc	#$0
    3ada: 84 ca        	sty	$ca                     ; 0xca <__zp_bss_size+0x71>
    3adc: 85 cb        	sta	$cb                     ; 0xcb <__zp_bss_size+0x72>
    3ade: b2 16        	lda	($16)                   ; 0x16 <__rc6>
    3ae0: 85 15        	sta	$15                     ; 0x15 <__rc5>
    3ae2: a0 01        	ldy	#$1
    3ae4: b1 16        	lda	($16),y                 ; 0x16 <__rc6>
    3ae6: 85 14        	sta	$14                     ; 0x14 <__rc4>
    3ae8: 10 15        	bpl	$3aff <printf+0x15b>
    3aea: a5 89        	lda	$89                     ; 0x89 <__zp_bss_size+0x30>
    3aec: 09 01        	ora	#$1
    3aee: 85 89        	sta	$89                     ; 0x89 <__zp_bss_size+0x30>
    3af0: 85 ba        	sta	$ba                     ; 0xba <__zp_bss_size+0x61>
    3af2: a2 00        	ldx	#$0
    3af4: 86 bb        	stx	$bb                     ; 0xbb <__zp_bss_size+0x62>
    3af6: 8a           	txa
    3af7: 38           	sec
    3af8: e5 15        	sbc	$15                     ; 0x15 <__rc5>
    3afa: 85 15        	sta	$15                     ; 0x15 <__rc5>
    3afc: 8a           	txa
    3afd: e5 14        	sbc	$14                     ; 0x14 <__rc4>
    3aff: a6 15        	ldx	$15                     ; 0x15 <__rc5>
    3b01: 86 c4        	stx	$c4                     ; 0xc4 <__zp_bss_size+0x6b>
    3b03: 85 c5        	sta	$c5                     ; 0xc5 <__zp_bss_size+0x6c>
    3b05: e6 12        	inc	$12                     ; 0x12 <__rc2>
    3b07: f0 03        	beq	$3b0c <printf+0x168>
    3b09: 4c dc 3b     	jmp	$3bdc <printf+0x238>
    3b0c: e6 13        	inc	$13                     ; 0x13 <__rc3>
    3b0e: 4c dc 3b     	jmp	$3bdc <printf+0x238>
    3b11: 18           	clc
    3b12: a5 16        	lda	$16                     ; 0x16 <__rc6>
    3b14: 69 d0        	adc	#$d0
    3b16: c9 0a        	cmp	#$a
    3b18: 90 03        	bcc	$3b1d <printf+0x179>
    3b1a: 4c ce 3b     	jmp	$3bce <printf+0x22a>
    3b1d: a6 16        	ldx	$16                     ; 0x16 <__rc6>
    3b1f: 86 14        	stx	$14                     ; 0x14 <__rc4>
    3b21: 64 16        	stz	$16                     ; 0x16 <__rc6>
    3b23: 64 15        	stz	$15                     ; 0x15 <__rc5>
    3b25: 64 17        	stz	$17                     ; 0x17 <__rc7>
    3b27: a0 01        	ldy	#$1
    3b29: a2 00        	ldx	#$0
    3b2b: 06 16        	asl	$16                     ; 0x16 <__rc6>
    3b2d: 26 17        	rol	$17                     ; 0x17 <__rc7>
    3b2f: a5 16        	lda	$16                     ; 0x16 <__rc6>
    3b31: 0a           	asl
    3b32: 85 18        	sta	$18                     ; 0x18 <__rc8>
    3b34: a5 17        	lda	$17                     ; 0x17 <__rc7>
    3b36: 2a           	rol
    3b37: 06 18        	asl	$18                     ; 0x18 <__rc8>
    3b39: 2a           	rol
    3b3a: 85 19        	sta	$19                     ; 0x19 <__rc9>
    3b3c: a5 18        	lda	$18                     ; 0x18 <__rc8>
    3b3e: 18           	clc
    3b3f: 65 16        	adc	$16                     ; 0x16 <__rc6>
    3b41: 85 16        	sta	$16                     ; 0x16 <__rc6>
    3b43: a5 19        	lda	$19                     ; 0x19 <__rc9>
    3b45: 65 17        	adc	$17                     ; 0x17 <__rc7>
    3b47: 85 17        	sta	$17                     ; 0x17 <__rc7>
    3b49: a5 16        	lda	$16                     ; 0x16 <__rc6>
    3b4b: 18           	clc
    3b4c: 65 14        	adc	$14                     ; 0x14 <__rc4>
    3b4e: 85 14        	sta	$14                     ; 0x14 <__rc4>
    3b50: a5 17        	lda	$17                     ; 0x17 <__rc7>
    3b52: 65 15        	adc	$15                     ; 0x15 <__rc5>
    3b54: 85 15        	sta	$15                     ; 0x15 <__rc5>
    3b56: 18           	clc
    3b57: a5 14        	lda	$14                     ; 0x14 <__rc4>
    3b59: 69 d0        	adc	#$d0
    3b5b: 85 16        	sta	$16                     ; 0x16 <__rc6>
    3b5d: a5 15        	lda	$15                     ; 0x15 <__rc5>
    3b5f: 69 ff        	adc	#$ff
    3b61: 85 17        	sta	$17                     ; 0x17 <__rc7>
    3b63: b1 12        	lda	($12),y                 ; 0x12 <__rc2>
    3b65: 85 14        	sta	$14                     ; 0x14 <__rc4>
    3b67: 18           	clc
    3b68: 69 d0        	adc	#$d0
    3b6a: e6 12        	inc	$12                     ; 0x12 <__rc2>
    3b6c: d0 02        	bne	$3b70 <printf+0x1cc>
    3b6e: e6 13        	inc	$13                     ; 0x13 <__rc3>
    3b70: c9 0a        	cmp	#$a
    3b72: 64 15        	stz	$15                     ; 0x15 <__rc5>
    3b74: 90 b5        	bcc	$3b2b <printf+0x187>
    3b76: 4c d4 3b     	jmp	$3bd4 <printf+0x230>
    3b79: c4 bd        	cpy	$bd                     ; 0xbd <__zp_bss_size+0x64>
    3b7b: 84 16        	sty	$16                     ; 0x16 <__rc6>
    3b7d: a4 13        	ldy	$13                     ; 0x13 <__rc3>
    3b7f: b0 37        	bcs	$3bb8 <printf+0x214>
    3b81: a2 01        	ldx	#$1
    3b83: 86 14        	stx	$14                     ; 0x14 <__rc4>
    3b85: a6 c9        	ldx	$c9                     ; 0xc9 <__zp_bss_size+0x70>
    3b87: a0 00        	ldy	#$0
    3b89: 84 12        	sty	$12                     ; 0x12 <__rc2>
    3b8b: a0 00        	ldy	#$0
    3b8d: 84 13        	sty	$13                     ; 0x13 <__rc3>
    3b8f: e4 13        	cpx	$13                     ; 0x13 <__rc3>
    3b91: d0 19        	bne	$3bac <printf+0x208>
    3b93: a6 c8        	ldx	$c8                     ; 0xc8 <__zp_bss_size+0x6f>
    3b95: e4 12        	cpx	$12                     ; 0x12 <__rc2>
    3b97: d0 13        	bne	$3bac <printf+0x208>
    3b99: a4 14        	ldy	$14                     ; 0x14 <__rc4>
    3b9b: 18           	clc
    3b9c: 65 c2        	adc	$c2                     ; 0xc2 <__zp_bss_size+0x69>
    3b9e: 85 12        	sta	$12                     ; 0x12 <__rc2>
    3ba0: a5 16        	lda	$16                     ; 0x16 <__rc6>
    3ba2: 65 c3        	adc	$c3                     ; 0xc3 <__zp_bss_size+0x6a>
    3ba4: 85 13        	sta	$13                     ; 0x13 <__rc3>
    3ba6: a9 25        	lda	#$25
    3ba8: 92 12        	sta	($12)                   ; 0x12 <__rc2>
    3baa: 80 0c        	bra	$3bb8 <printf+0x214>
    3bac: a2 01        	ldx	#$1
    3bae: 86 8b        	stx	$8b                     ; 0x8b <__zp_bss_size+0x32>
    3bb0: ca           	dex
    3bb1: a9 25        	lda	#$25
    3bb3: 20 de 46     	jsr	$46de <putchar>
    3bb6: a4 8b        	ldy	$8b                     ; 0x8b <__zp_bss_size+0x32>
    3bb8: e6 be        	inc	$be                     ; 0xbe <__zp_bss_size+0x65>
    3bba: d0 02        	bne	$3bbe <printf+0x21a>
    3bbc: e6 bf        	inc	$bf                     ; 0xbf <__zp_bss_size+0x66>
    3bbe: a5 8d        	lda	$8d                     ; 0x8d <__zp_bss_size+0x34>
    3bc0: 18           	clc
    3bc1: 69 02        	adc	#$2
    3bc3: 85 8b        	sta	$8b                     ; 0x8b <__zp_bss_size+0x32>
    3bc5: a5 8e        	lda	$8e                     ; 0x8e <__zp_bss_size+0x35>
    3bc7: 69 00        	adc	#$0
    3bc9: 85 8c        	sta	$8c                     ; 0x8c <__zp_bss_size+0x33>
    3bcb: 4c 09 3a     	jmp	$3a09 <printf+0x65>
    3bce: 64 16        	stz	$16                     ; 0x16 <__rc6>
    3bd0: 64 17        	stz	$17                     ; 0x17 <__rc7>
    3bd2: a4 15        	ldy	$15                     ; 0x15 <__rc5>
    3bd4: a6 16        	ldx	$16                     ; 0x16 <__rc6>
    3bd6: 86 c4        	stx	$c4                     ; 0xc4 <__zp_bss_size+0x6b>
    3bd8: a5 17        	lda	$17                     ; 0x17 <__rc7>
    3bda: 85 c5        	sta	$c5                     ; 0xc5 <__zp_bss_size+0x6c>
    3bdc: 86 1a        	stx	$1a                     ; 0x1a <__rc10>
    3bde: 85 1e        	sta	$1e                     ; 0x1e <__rc14>
    3be0: b2 12        	lda	($12)                   ; 0x12 <__rc2>
    3be2: a2 ff        	ldx	#$ff
    3be4: c9 2e        	cmp	#$2e
    3be6: d0 39        	bne	$3c21 <printf+0x27d>
    3be8: b1 12        	lda	($12),y                 ; 0x12 <__rc2>
    3bea: c9 2a        	cmp	#$2a
    3bec: d0 38        	bne	$3c26 <printf+0x282>
    3bee: a5 ca        	lda	$ca                     ; 0xca <__zp_bss_size+0x71>
    3bf0: a6 cb        	ldx	$cb                     ; 0xcb <__zp_bss_size+0x72>
    3bf2: 85 14        	sta	$14                     ; 0x14 <__rc4>
    3bf4: 86 15        	stx	$15                     ; 0x15 <__rc5>
    3bf6: 18           	clc
    3bf7: 69 02        	adc	#$2
    3bf9: 85 16        	sta	$16                     ; 0x16 <__rc6>
    3bfb: 8a           	txa
    3bfc: 69 00        	adc	#$0
    3bfe: a6 16        	ldx	$16                     ; 0x16 <__rc6>
    3c00: 86 ca        	stx	$ca                     ; 0xca <__zp_bss_size+0x71>
    3c02: 85 cb        	sta	$cb                     ; 0xcb <__zp_bss_size+0x72>
    3c04: a5 12        	lda	$12                     ; 0x12 <__rc2>
    3c06: 18           	clc
    3c07: 69 02        	adc	#$2
    3c09: 85 12        	sta	$12                     ; 0x12 <__rc2>
    3c0b: a5 13        	lda	$13                     ; 0x13 <__rc3>
    3c0d: 69 00        	adc	#$0
    3c0f: 85 13        	sta	$13                     ; 0x13 <__rc3>
    3c11: b2 14        	lda	($14)                   ; 0x14 <__rc4>
    3c13: aa           	tax
    3c14: b1 14        	lda	($14),y                 ; 0x14 <__rc4>
    3c16: 86 18        	stx	$18                     ; 0x18 <__rc8>
    3c18: 86 c6        	stx	$c6                     ; 0xc6 <__zp_bss_size+0x6d>
    3c1a: 85 19        	sta	$19                     ; 0x19 <__rc9>
    3c1c: 85 c7        	sta	$c7                     ; 0xc7 <__zp_bss_size+0x6e>
    3c1e: 4c e4 3c     	jmp	$3ce4 <printf+0x340>
    3c21: 86 18        	stx	$18                     ; 0x18 <__rc8>
    3c23: 4c f4 3c     	jmp	$3cf4 <printf+0x350>
    3c26: 85 17        	sta	$17                     ; 0x17 <__rc7>
    3c28: 18           	clc
    3c29: 69 d0        	adc	#$d0
    3c2b: c9 0a        	cmp	#$a
    3c2d: 90 03        	bcc	$3c32 <printf+0x28e>
    3c2f: 4c d6 3c     	jmp	$3cd6 <printf+0x332>
    3c32: 64 16        	stz	$16                     ; 0x16 <__rc6>
    3c34: a2 01        	ldx	#$1
    3c36: 64 18        	stz	$18                     ; 0x18 <__rc8>
    3c38: 64 19        	stz	$19                     ; 0x19 <__rc9>
    3c3a: 84 1b        	sty	$1b                     ; 0x1b <__rc11>
    3c3c: 64 1c        	stz	$1c                     ; 0x1c <__rc12>
    3c3e: 18           	clc
    3c3f: a0 01        	ldy	#$1
    3c41: b0 02        	bcs	$3c45 <printf+0x2a1>
    3c43: a0 00        	ldy	#$0
    3c45: 84 1d        	sty	$1d                     ; 0x1d <__rc13>
    3c47: a4 1c        	ldy	$1c                     ; 0x1c <__rc12>
    3c49: 84 14        	sty	$14                     ; 0x14 <__rc4>
    3c4b: 86 15        	stx	$15                     ; 0x15 <__rc5>
    3c4d: 06 18        	asl	$18                     ; 0x18 <__rc8>
    3c4f: 26 19        	rol	$19                     ; 0x19 <__rc9>
    3c51: a5 18        	lda	$18                     ; 0x18 <__rc8>
    3c53: 0a           	asl
    3c54: a8           	tay
    3c55: a5 19        	lda	$19                     ; 0x19 <__rc9>
    3c57: 2a           	rol
    3c58: 84 1f        	sty	$1f                     ; 0x1f <__rc15>
    3c5a: 06 1f        	asl	$1f                     ; 0x1f <__rc15>
    3c5c: 2a           	rol
    3c5d: 85 22        	sta	$22                     ; 0x22 <__rc18>
    3c5f: a5 1f        	lda	$1f                     ; 0x1f <__rc15>
    3c61: a4 1d        	ldy	$1d                     ; 0x1d <__rc13>
    3c63: c0 01        	cpy	#$1
    3c65: 65 18        	adc	$18                     ; 0x18 <__rc8>
    3c67: 85 18        	sta	$18                     ; 0x18 <__rc8>
    3c69: a5 22        	lda	$22                     ; 0x22 <__rc18>
    3c6b: 65 19        	adc	$19                     ; 0x19 <__rc9>
    3c6d: 85 19        	sta	$19                     ; 0x19 <__rc9>
    3c6f: a5 18        	lda	$18                     ; 0x18 <__rc8>
    3c71: a4 1d        	ldy	$1d                     ; 0x1d <__rc13>
    3c73: c0 01        	cpy	#$1
    3c75: 65 17        	adc	$17                     ; 0x17 <__rc7>
    3c77: 85 17        	sta	$17                     ; 0x17 <__rc7>
    3c79: a5 19        	lda	$19                     ; 0x19 <__rc9>
    3c7b: 65 16        	adc	$16                     ; 0x16 <__rc6>
    3c7d: 85 16        	sta	$16                     ; 0x16 <__rc6>
    3c7f: 18           	clc
    3c80: a5 17        	lda	$17                     ; 0x17 <__rc7>
    3c82: 69 d0        	adc	#$d0
    3c84: 85 18        	sta	$18                     ; 0x18 <__rc8>
    3c86: a5 16        	lda	$16                     ; 0x16 <__rc6>
    3c88: 69 ff        	adc	#$ff
    3c8a: 85 19        	sta	$19                     ; 0x19 <__rc9>
    3c8c: e8           	inx
    3c8d: d0 02        	bne	$3c91 <printf+0x2ed>
    3c8f: e6 1c        	inc	$1c                     ; 0x1c <__rc12>
    3c91: a5 12        	lda	$12                     ; 0x12 <__rc2>
    3c93: a4 1d        	ldy	$1d                     ; 0x1d <__rc13>
    3c95: c0 01        	cpy	#$1
    3c97: 65 15        	adc	$15                     ; 0x15 <__rc5>
    3c99: a8           	tay
    3c9a: a5 13        	lda	$13                     ; 0x13 <__rc3>
    3c9c: 65 14        	adc	$14                     ; 0x14 <__rc4>
    3c9e: 84 16        	sty	$16                     ; 0x16 <__rc6>
    3ca0: 85 17        	sta	$17                     ; 0x17 <__rc7>
    3ca2: a4 1b        	ldy	$1b                     ; 0x1b <__rc11>
    3ca4: b1 16        	lda	($16),y                 ; 0x16 <__rc6>
    3ca6: 85 17        	sta	$17                     ; 0x17 <__rc7>
    3ca8: 18           	clc
    3ca9: 69 d0        	adc	#$d0
    3cab: c9 0a        	cmp	#$a
    3cad: 64 16        	stz	$16                     ; 0x16 <__rc6>
    3caf: b0 03        	bcs	$3cb4 <printf+0x310>
    3cb1: 4c 47 3c     	jmp	$3c47 <printf+0x2a3>
    3cb4: a5 12        	lda	$12                     ; 0x12 <__rc2>
    3cb6: a6 1d        	ldx	$1d                     ; 0x1d <__rc13>
    3cb8: e0 01        	cpx	#$1
    3cba: 65 15        	adc	$15                     ; 0x15 <__rc5>
    3cbc: 85 12        	sta	$12                     ; 0x12 <__rc2>
    3cbe: a5 13        	lda	$13                     ; 0x13 <__rc3>
    3cc0: 65 14        	adc	$14                     ; 0x14 <__rc4>
    3cc2: 85 13        	sta	$13                     ; 0x13 <__rc3>
    3cc4: e6 12        	inc	$12                     ; 0x12 <__rc2>
    3cc6: d0 02        	bne	$3cca <printf+0x326>
    3cc8: e6 13        	inc	$13                     ; 0x13 <__rc3>
    3cca: a6 18        	ldx	$18                     ; 0x18 <__rc8>
    3ccc: 86 c6        	stx	$c6                     ; 0xc6 <__zp_bss_size+0x6d>
    3cce: a6 19        	ldx	$19                     ; 0x19 <__rc9>
    3cd0: 86 c7        	stx	$c7                     ; 0xc7 <__zp_bss_size+0x6e>
    3cd2: a4 1b        	ldy	$1b                     ; 0x1b <__rc11>
    3cd4: 80 0e        	bra	$3ce4 <printf+0x340>
    3cd6: e6 12        	inc	$12                     ; 0x12 <__rc2>
    3cd8: d0 02        	bne	$3cdc <printf+0x338>
    3cda: e6 13        	inc	$13                     ; 0x13 <__rc3>
    3cdc: 64 18        	stz	$18                     ; 0x18 <__rc8>
    3cde: 64 c6        	stz	$c6                     ; 0xc6 <__zp_bss_size+0x6d>
    3ce0: 64 c7        	stz	$c7                     ; 0xc7 <__zp_bss_size+0x6e>
    3ce2: 64 19        	stz	$19                     ; 0x19 <__rc9>
    3ce4: a5 89        	lda	$89                     ; 0x89 <__zp_bss_size+0x30>
    3ce6: 29 ef        	and	#$ef
    3ce8: 85 89        	sta	$89                     ; 0x89 <__zp_bss_size+0x30>
    3cea: 85 ba        	sta	$ba                     ; 0xba <__zp_bss_size+0x61>
    3cec: a2 00        	ldx	#$0
    3cee: 86 bb        	stx	$bb                     ; 0xbb <__zp_bss_size+0x62>
    3cf0: b2 12        	lda	($12)                   ; 0x12 <__rc2>
    3cf2: a6 19        	ldx	$19                     ; 0x19 <__rc9>
    3cf4: 86 15        	stx	$15                     ; 0x15 <__rc5>
    3cf6: a6 12        	ldx	$12                     ; 0x12 <__rc2>
    3cf8: 86 8b        	stx	$8b                     ; 0x8b <__zp_bss_size+0x32>
    3cfa: a6 13        	ldx	$13                     ; 0x13 <__rc3>
    3cfc: 86 8c        	stx	$8c                     ; 0x8c <__zp_bss_size+0x33>
    3cfe: e6 8b        	inc	$8b                     ; 0x8b <__zp_bss_size+0x32>
    3d00: d0 02        	bne	$3d04 <printf+0x360>
    3d02: e6 8c        	inc	$8c                     ; 0x8c <__zp_bss_size+0x33>
    3d04: 85 14        	sta	$14                     ; 0x14 <__rc4>
    3d06: 38           	sec
    3d07: e9 6c        	sbc	#$6c
    3d09: 50 02        	bvc	$3d0d <printf+0x369>
    3d0b: 49 80        	eor	#$80
    3d0d: aa           	tax
    3d0e: 10 21        	bpl	$3d31 <printf+0x38d>
    3d10: a6 14        	ldx	$14                     ; 0x14 <__rc4>
    3d12: e0 4c        	cpx	#$4c
    3d14: f0 37        	beq	$3d4d <printf+0x3a9>
    3d16: e0 68        	cpx	#$68
    3d18: d0 03        	bne	$3d1d <printf+0x379>
    3d1a: 4c c8 3d     	jmp	$3dc8 <printf+0x424>
    3d1d: a4 14        	ldy	$14                     ; 0x14 <__rc4>
    3d1f: a9 01        	lda	#$1
    3d21: a2 08        	ldx	#$8
    3d23: c0 6a        	cpy	#$6a
    3d25: d0 22        	bne	$3d49 <printf+0x3a5>
    3d27: a4 8b        	ldy	$8b                     ; 0x8b <__zp_bss_size+0x32>
    3d29: 84 12        	sty	$12                     ; 0x12 <__rc2>
    3d2b: a4 8c        	ldy	$8c                     ; 0x8c <__zp_bss_size+0x33>
    3d2d: 84 13        	sty	$13                     ; 0x13 <__rc3>
    3d2f: 80 52        	bra	$3d83 <printf+0x3df>
    3d31: a6 14        	ldx	$14                     ; 0x14 <__rc4>
    3d33: e0 6c        	cpx	#$6c
    3d35: f0 31        	beq	$3d68 <printf+0x3c4>
    3d37: e0 74        	cpx	#$74
    3d39: f0 1e        	beq	$3d59 <printf+0x3b5>
    3d3b: a9 01        	lda	#$1
    3d3d: e0 7a        	cpx	#$7a
    3d3f: d0 08        	bne	$3d49 <printf+0x3a5>
    3d41: a6 8b        	ldx	$8b                     ; 0x8b <__zp_bss_size+0x32>
    3d43: 86 12        	stx	$12                     ; 0x12 <__rc2>
    3d45: a6 8c        	ldx	$8c                     ; 0x8c <__zp_bss_size+0x33>
    3d47: 86 13        	stx	$13                     ; 0x13 <__rc3>
    3d49: a2 02        	ldx	#$2
    3d4b: 80 17        	bra	$3d64 <printf+0x3c0>
    3d4d: a5 89        	lda	$89                     ; 0x89 <__zp_bss_size+0x30>
    3d4f: 09 40        	ora	#$40
    3d51: 85 89        	sta	$89                     ; 0x89 <__zp_bss_size+0x30>
    3d53: 85 ba        	sta	$ba                     ; 0xba <__zp_bss_size+0x61>
    3d55: a2 00        	ldx	#$0
    3d57: 86 bb        	stx	$bb                     ; 0xbb <__zp_bss_size+0x62>
    3d59: a6 8b        	ldx	$8b                     ; 0x8b <__zp_bss_size+0x32>
    3d5b: 86 12        	stx	$12                     ; 0x12 <__rc2>
    3d5d: a6 8c        	ldx	$8c                     ; 0x8c <__zp_bss_size+0x33>
    3d5f: 86 13        	stx	$13                     ; 0x13 <__rc3>
    3d61: a2 02        	ldx	#$2
    3d63: 98           	tya
    3d64: a0 02        	ldy	#$2
    3d66: 80 1d        	bra	$3d85 <printf+0x3e1>
    3d68: b1 12        	lda	($12),y                 ; 0x12 <__rc2>
    3d6a: a2 04        	ldx	#$4
    3d6c: c9 6c        	cmp	#$6c
    3d6e: f0 03        	beq	$3d73 <printf+0x3cf>
    3d70: 4c e5 3d     	jmp	$3de5 <printf+0x441>
    3d73: a5 12        	lda	$12                     ; 0x12 <__rc2>
    3d75: 18           	clc
    3d76: 69 02        	adc	#$2
    3d78: 85 12        	sta	$12                     ; 0x12 <__rc2>
    3d7a: a5 13        	lda	$13                     ; 0x13 <__rc3>
    3d7c: 69 00        	adc	#$0
    3d7e: 85 13        	sta	$13                     ; 0x13 <__rc3>
    3d80: a2 08        	ldx	#$8
    3d82: 98           	tya
    3d83: a0 08        	ldy	#$8
    3d85: 84 8a        	sty	$8a                     ; 0x8a <__zp_bss_size+0x31>
    3d87: a8           	tay
    3d88: b2 12        	lda	($12)                   ; 0x12 <__rc2>
    3d8a: 5a           	phy
    3d8b: a4 12        	ldy	$12                     ; 0x12 <__rc2>
    3d8d: 84 8b        	sty	$8b                     ; 0x8b <__zp_bss_size+0x32>
    3d8f: a4 13        	ldy	$13                     ; 0x13 <__rc3>
    3d91: 84 8c        	sty	$8c                     ; 0x8c <__zp_bss_size+0x33>
    3d93: 7a           	ply
    3d94: 86 93        	stx	$93                     ; 0x93 <__zp_bss_size+0x3a>
    3d96: aa           	tax
    3d97: 18           	clc
    3d98: 69 9d        	adc	#$9d
    3d9a: c9 16        	cmp	#$16
    3d9c: b0 4c        	bcs	$3dea <printf+0x446>
    3d9e: 0a           	asl
    3d9f: aa           	tax
    3da0: 7c 6c 4f     	jmp	($4f6c,x)               ; 0x4f6c <__camera_size+0x155e>
    3da3: a6 8b        	ldx	$8b                     ; 0x8b <__zp_bss_size+0x32>
    3da5: 86 cf        	stx	$cf                     ; 0xcf <__zp_bss_size+0x76>
    3da7: a6 8c        	ldx	$8c                     ; 0x8c <__zp_bss_size+0x33>
    3da9: 86 d0        	stx	$d0                     ; 0xd0 <__zp_bss_size+0x77>
    3dab: a6 15        	ldx	$15                     ; 0x15 <__rc5>
    3dad: 86 d3        	stx	$d3                     ; 0xd3 <__zp_bss_size+0x7a>
    3daf: a6 18        	ldx	$18                     ; 0x18 <__rc8>
    3db1: 86 ce        	stx	$ce                     ; 0xce <__zp_bss_size+0x75>
    3db3: a6 1e        	ldx	$1e                     ; 0x1e <__rc14>
    3db5: 86 d4        	stx	$d4                     ; 0xd4 <__zp_bss_size+0x7b>
    3db7: a6 1a        	ldx	$1a                     ; 0x1a <__rc10>
    3db9: 86 92        	stx	$92                     ; 0x92 <__zp_bss_size+0x39>
    3dbb: a0 0a        	ldy	#$a
    3dbd: a2 0a        	ldx	#$a
    3dbf: 86 94        	stx	$94                     ; 0x94 <__zp_bss_size+0x3b>
    3dc1: 84 b9        	sty	$b9                     ; 0xb9 <__zp_bss_size+0x60>
    3dc3: 64 91        	stz	$91                     ; 0x91 <__zp_bss_size+0x38>
    3dc5: 4c 37 3f     	jmp	$3f37 <printf+0x593>
    3dc8: b1 12        	lda	($12),y                 ; 0x12 <__rc2>
    3dca: a2 02        	ldx	#$2
    3dcc: c9 68        	cmp	#$68
    3dce: d0 15        	bne	$3de5 <printf+0x441>
    3dd0: a5 12        	lda	$12                     ; 0x12 <__rc2>
    3dd2: 18           	clc
    3dd3: 69 02        	adc	#$2
    3dd5: 85 12        	sta	$12                     ; 0x12 <__rc2>
    3dd7: a5 13        	lda	$13                     ; 0x13 <__rc3>
    3dd9: 69 00        	adc	#$0
    3ddb: 85 13        	sta	$13                     ; 0x13 <__rc3>
    3ddd: a2 01        	ldx	#$1
    3ddf: 86 8a        	stx	$8a                     ; 0x8a <__zp_bss_size+0x31>
    3de1: e8           	inx
    3de2: 4c 88 3d     	jmp	$3d88 <printf+0x3e4>
    3de5: 86 8a        	stx	$8a                     ; 0x8a <__zp_bss_size+0x31>
    3de7: 4c 94 3d     	jmp	$3d94 <printf+0x3f0>
    3dea: e0 58        	cpx	#$58
    3dec: f0 03        	beq	$3df1 <printf+0x44d>
    3dee: 4c 92 46     	jmp	$4692 <printf+0xcee>
    3df1: a6 8b        	ldx	$8b                     ; 0x8b <__zp_bss_size+0x32>
    3df3: 86 cf        	stx	$cf                     ; 0xcf <__zp_bss_size+0x76>
    3df5: a6 8c        	ldx	$8c                     ; 0x8c <__zp_bss_size+0x33>
    3df7: 86 d0        	stx	$d0                     ; 0xd0 <__zp_bss_size+0x77>
    3df9: a6 15        	ldx	$15                     ; 0x15 <__rc5>
    3dfb: 86 d3        	stx	$d3                     ; 0xd3 <__zp_bss_size+0x7a>
    3dfd: a6 18        	ldx	$18                     ; 0x18 <__rc8>
    3dff: 86 ce        	stx	$ce                     ; 0xce <__zp_bss_size+0x75>
    3e01: a6 1e        	ldx	$1e                     ; 0x1e <__rc14>
    3e03: 86 d4        	stx	$d4                     ; 0xd4 <__zp_bss_size+0x7b>
    3e05: a6 1a        	ldx	$1a                     ; 0x1a <__rc10>
    3e07: 86 92        	stx	$92                     ; 0x92 <__zp_bss_size+0x39>
    3e09: a2 10        	ldx	#$10
    3e0b: 86 b9        	stx	$b9                     ; 0xb9 <__zp_bss_size+0x60>
    3e0d: a9 00        	lda	#$0
    3e0f: 09 01        	ora	#$1
    3e11: a6 89        	ldx	$89                     ; 0x89 <__zp_bss_size+0x30>
    3e13: 80 49        	bra	$3e5e <printf+0x4ba>
    3e15: a6 8b        	ldx	$8b                     ; 0x8b <__zp_bss_size+0x32>
    3e17: 86 cf        	stx	$cf                     ; 0xcf <__zp_bss_size+0x76>
    3e19: a6 8c        	ldx	$8c                     ; 0x8c <__zp_bss_size+0x33>
    3e1b: 86 d0        	stx	$d0                     ; 0xd0 <__zp_bss_size+0x77>
    3e1d: a6 15        	ldx	$15                     ; 0x15 <__rc5>
    3e1f: 86 d3        	stx	$d3                     ; 0xd3 <__zp_bss_size+0x7a>
    3e21: a6 18        	ldx	$18                     ; 0x18 <__rc8>
    3e23: 86 ce        	stx	$ce                     ; 0xce <__zp_bss_size+0x75>
    3e25: a6 1e        	ldx	$1e                     ; 0x1e <__rc14>
    3e27: 86 d4        	stx	$d4                     ; 0xd4 <__zp_bss_size+0x7b>
    3e29: a6 1a        	ldx	$1a                     ; 0x1a <__rc10>
    3e2b: 86 92        	stx	$92                     ; 0x92 <__zp_bss_size+0x39>
    3e2d: a2 10        	ldx	#$10
    3e2f: 86 b9        	stx	$b9                     ; 0xb9 <__zp_bss_size+0x60>
    3e31: a5 89        	lda	$89                     ; 0x89 <__zp_bss_size+0x30>
    3e33: 09 84        	ora	#$84
    3e35: 80 20        	bra	$3e57 <printf+0x4b3>
    3e37: a6 8b        	ldx	$8b                     ; 0x8b <__zp_bss_size+0x32>
    3e39: 86 cf        	stx	$cf                     ; 0xcf <__zp_bss_size+0x76>
    3e3b: a6 8c        	ldx	$8c                     ; 0x8c <__zp_bss_size+0x33>
    3e3d: 86 d0        	stx	$d0                     ; 0xd0 <__zp_bss_size+0x77>
    3e3f: a6 15        	ldx	$15                     ; 0x15 <__rc5>
    3e41: 86 d3        	stx	$d3                     ; 0xd3 <__zp_bss_size+0x7a>
    3e43: a6 18        	ldx	$18                     ; 0x18 <__rc8>
    3e45: 86 ce        	stx	$ce                     ; 0xce <__zp_bss_size+0x75>
    3e47: a6 1e        	ldx	$1e                     ; 0x1e <__rc14>
    3e49: 86 d4        	stx	$d4                     ; 0xd4 <__zp_bss_size+0x7b>
    3e4b: a6 1a        	ldx	$1a                     ; 0x1a <__rc10>
    3e4d: 86 92        	stx	$92                     ; 0x92 <__zp_bss_size+0x39>
    3e4f: a2 10        	ldx	#$10
    3e51: 86 b9        	stx	$b9                     ; 0xb9 <__zp_bss_size+0x60>
    3e53: a5 89        	lda	$89                     ; 0x89 <__zp_bss_size+0x30>
    3e55: 09 80        	ora	#$80
    3e57: aa           	tax
    3e58: a9 00        	lda	#$0
    3e5a: 09 01        	ora	#$1
    3e5c: 86 89        	stx	$89                     ; 0x89 <__zp_bss_size+0x30>
    3e5e: 86 ba        	stx	$ba                     ; 0xba <__zp_bss_size+0x61>
    3e60: 85 91        	sta	$91                     ; 0x91 <__zp_bss_size+0x38>
    3e62: 85 bb        	sta	$bb                     ; 0xbb <__zp_bss_size+0x62>
    3e64: a2 10        	ldx	#$10
    3e66: 86 94        	stx	$94                     ; 0x94 <__zp_bss_size+0x3b>
    3e68: 4c 37 3f     	jmp	$3f37 <printf+0x593>
    3e6b: a5 ca        	lda	$ca                     ; 0xca <__zp_bss_size+0x71>
    3e6d: a6 cb        	ldx	$cb                     ; 0xcb <__zp_bss_size+0x72>
    3e6f: 85 12        	sta	$12                     ; 0x12 <__rc2>
    3e71: 86 13        	stx	$13                     ; 0x13 <__rc3>
    3e73: 18           	clc
    3e74: 69 02        	adc	#$2
    3e76: 85 14        	sta	$14                     ; 0x14 <__rc4>
    3e78: 8a           	txa
    3e79: 69 00        	adc	#$0
    3e7b: a6 14        	ldx	$14                     ; 0x14 <__rc4>
    3e7d: 86 ca        	stx	$ca                     ; 0xca <__zp_bss_size+0x71>
    3e7f: 85 cb        	sta	$cb                     ; 0xcb <__zp_bss_size+0x72>
    3e81: b2 12        	lda	($12)                   ; 0x12 <__rc2>
    3e83: aa           	tax
    3e84: b1 12        	lda	($12),y                 ; 0x12 <__rc2>
    3e86: 86 12        	stx	$12                     ; 0x12 <__rc2>
    3e88: 85 13        	sta	$13                     ; 0x13 <__rc3>
    3e8a: a5 be        	lda	$be                     ; 0xbe <__zp_bss_size+0x65>
    3e8c: a6 bf        	ldx	$bf                     ; 0xbf <__zp_bss_size+0x66>
    3e8e: 92 12        	sta	($12)                   ; 0x12 <__rc2>
    3e90: 8a           	txa
    3e91: 91 12        	sta	($12),y                 ; 0x12 <__rc2>
    3e93: 4c 7a 46     	jmp	$467a <printf+0xcd6>
    3e96: a5 ca        	lda	$ca                     ; 0xca <__zp_bss_size+0x71>
    3e98: a6 cb        	ldx	$cb                     ; 0xcb <__zp_bss_size+0x72>
    3e9a: 85 12        	sta	$12                     ; 0x12 <__rc2>
    3e9c: 86 13        	stx	$13                     ; 0x13 <__rc3>
    3e9e: 18           	clc
    3e9f: 69 02        	adc	#$2
    3ea1: 85 14        	sta	$14                     ; 0x14 <__rc4>
    3ea3: 8a           	txa
    3ea4: 69 00        	adc	#$0
    3ea6: a6 14        	ldx	$14                     ; 0x14 <__rc4>
    3ea8: 86 ca        	stx	$ca                     ; 0xca <__zp_bss_size+0x71>
    3eaa: 85 cb        	sta	$cb                     ; 0xcb <__zp_bss_size+0x72>
    3eac: b2 12        	lda	($12)                   ; 0x12 <__rc2>
    3eae: aa           	tax
    3eaf: b1 12        	lda	($12),y                 ; 0x12 <__rc2>
    3eb1: 86 12        	stx	$12                     ; 0x12 <__rc2>
    3eb3: 85 13        	sta	$13                     ; 0x13 <__rc3>
    3eb5: 80 42        	bra	$3ef9 <printf+0x555>
    3eb7: a6 8b        	ldx	$8b                     ; 0x8b <__zp_bss_size+0x32>
    3eb9: 86 cf        	stx	$cf                     ; 0xcf <__zp_bss_size+0x76>
    3ebb: a6 8c        	ldx	$8c                     ; 0x8c <__zp_bss_size+0x33>
    3ebd: 86 d0        	stx	$d0                     ; 0xd0 <__zp_bss_size+0x77>
    3ebf: a6 15        	ldx	$15                     ; 0x15 <__rc5>
    3ec1: 86 d3        	stx	$d3                     ; 0xd3 <__zp_bss_size+0x7a>
    3ec3: a6 18        	ldx	$18                     ; 0x18 <__rc8>
    3ec5: 86 ce        	stx	$ce                     ; 0xce <__zp_bss_size+0x75>
    3ec7: a6 1e        	ldx	$1e                     ; 0x1e <__rc14>
    3ec9: 86 d4        	stx	$d4                     ; 0xd4 <__zp_bss_size+0x7b>
    3ecb: a6 1a        	ldx	$1a                     ; 0x1a <__rc10>
    3ecd: 86 92        	stx	$92                     ; 0x92 <__zp_bss_size+0x39>
    3ecf: a0 08        	ldy	#$8
    3ed1: a2 08        	ldx	#$8
    3ed3: 80 52        	bra	$3f27 <printf+0x583>
    3ed5: a5 ca        	lda	$ca                     ; 0xca <__zp_bss_size+0x71>
    3ed7: a6 cb        	ldx	$cb                     ; 0xcb <__zp_bss_size+0x72>
    3ed9: 85 12        	sta	$12                     ; 0x12 <__rc2>
    3edb: 86 13        	stx	$13                     ; 0x13 <__rc3>
    3edd: 18           	clc
    3ede: 69 02        	adc	#$2
    3ee0: 85 14        	sta	$14                     ; 0x14 <__rc4>
    3ee2: 8a           	txa
    3ee3: 69 00        	adc	#$0
    3ee5: a6 14        	ldx	$14                     ; 0x14 <__rc4>
    3ee7: 86 ca        	stx	$ca                     ; 0xca <__zp_bss_size+0x71>
    3ee9: 85 cb        	sta	$cb                     ; 0xcb <__zp_bss_size+0x72>
    3eeb: b2 12        	lda	($12)                   ; 0x12 <__rc2>
    3eed: 85 ac        	sta	$ac                     ; 0xac <__zp_bss_size+0x53>
    3eef: 64 ad        	stz	$ad                     ; 0xad <__zp_bss_size+0x54>
    3ef1: a2 ac        	ldx	#$ac
    3ef3: 86 12        	stx	$12                     ; 0x12 <__rc2>
    3ef5: a2 00        	ldx	#$0
    3ef7: 86 13        	stx	$13                     ; 0x13 <__rc3>
    3ef9: a2 b9        	ldx	#$b9
    3efb: 86 14        	stx	$14                     ; 0x14 <__rc4>
    3efd: a2 00        	ldx	#$0
    3eff: 86 15        	stx	$15                     ; 0x15 <__rc5>
    3f01: 84 8f        	sty	$8f                     ; 0x8f <__zp_bss_size+0x36>
    3f03: 20 95 38     	jsr	$3895 <_ZN12_GLOBAL__N_112print_stringEPKcP6Status>
    3f06: a4 8f        	ldy	$8f                     ; 0x8f <__zp_bss_size+0x36>
    3f08: 4c 7a 46     	jmp	$467a <printf+0xcd6>
    3f0b: a6 8b        	ldx	$8b                     ; 0x8b <__zp_bss_size+0x32>
    3f0d: 86 cf        	stx	$cf                     ; 0xcf <__zp_bss_size+0x76>
    3f0f: a6 8c        	ldx	$8c                     ; 0x8c <__zp_bss_size+0x33>
    3f11: 86 d0        	stx	$d0                     ; 0xd0 <__zp_bss_size+0x77>
    3f13: a6 15        	ldx	$15                     ; 0x15 <__rc5>
    3f15: 86 d3        	stx	$d3                     ; 0xd3 <__zp_bss_size+0x7a>
    3f17: a6 18        	ldx	$18                     ; 0x18 <__rc8>
    3f19: 86 ce        	stx	$ce                     ; 0xce <__zp_bss_size+0x75>
    3f1b: a6 1e        	ldx	$1e                     ; 0x1e <__rc14>
    3f1d: 86 d4        	stx	$d4                     ; 0xd4 <__zp_bss_size+0x7b>
    3f1f: a6 1a        	ldx	$1a                     ; 0x1a <__rc10>
    3f21: 86 92        	stx	$92                     ; 0x92 <__zp_bss_size+0x39>
    3f23: a0 0a        	ldy	#$a
    3f25: a2 0a        	ldx	#$a
    3f27: 86 94        	stx	$94                     ; 0x94 <__zp_bss_size+0x3b>
    3f29: 84 b9        	sty	$b9                     ; 0xb9 <__zp_bss_size+0x60>
    3f2b: a9 00        	lda	#$0
    3f2d: 09 01        	ora	#$1
    3f2f: a6 89        	ldx	$89                     ; 0x89 <__zp_bss_size+0x30>
    3f31: 86 ba        	stx	$ba                     ; 0xba <__zp_bss_size+0x61>
    3f33: 85 91        	sta	$91                     ; 0x91 <__zp_bss_size+0x38>
    3f35: 85 bb        	sta	$bb                     ; 0xbb <__zp_bss_size+0x62>
    3f37: a5 8a        	lda	$8a                     ; 0x8a <__zp_bss_size+0x31>
    3f39: 85 ae        	sta	$ae                     ; 0xae <__zp_bss_size+0x55>
    3f3b: a4 ca        	ldy	$ca                     ; 0xca <__zp_bss_size+0x71>
    3f3d: a6 cb        	ldx	$cb                     ; 0xcb <__zp_bss_size+0x72>
    3f3f: 86 8f        	stx	$8f                     ; 0x8f <__zp_bss_size+0x36>
    3f41: 84 14        	sty	$14                     ; 0x14 <__rc4>
    3f43: 84 8b        	sty	$8b                     ; 0x8b <__zp_bss_size+0x32>
    3f45: 86 15        	stx	$15                     ; 0x15 <__rc5>
    3f47: a6 d1        	ldx	$d1                     ; 0xd1 <__zp_bss_size+0x78>
    3f49: 86 12        	stx	$12                     ; 0x12 <__rc2>
    3f4b: a6 d2        	ldx	$d2                     ; 0xd2 <__zp_bss_size+0x79>
    3f4d: 86 13        	stx	$13                     ; 0x13 <__rc3>
    3f4f: a2 00        	ldx	#$0
    3f51: 85 90        	sta	$90                     ; 0x90 <__zp_bss_size+0x37>
    3f53: 20 ad 4b     	jsr	$4bad <memcpy>
    3f56: 18           	clc
    3f57: a5 8b        	lda	$8b                     ; 0x8b <__zp_bss_size+0x32>
    3f59: 65 93        	adc	$93                     ; 0x93 <__zp_bss_size+0x3a>
    3f5b: aa           	tax
    3f5c: a5 8f        	lda	$8f                     ; 0x8f <__zp_bss_size+0x36>
    3f5e: 69 00        	adc	#$0
    3f60: 86 ca        	stx	$ca                     ; 0xca <__zp_bss_size+0x71>
    3f62: 85 cb        	sta	$cb                     ; 0xcb <__zp_bss_size+0x72>
    3f64: a5 91        	lda	$91                     ; 0x91 <__zp_bss_size+0x38>
    3f66: 29 01        	and	#$1
    3f68: a0 00        	ldy	#$0
    3f6a: aa           	tax
    3f6b: f0 03        	beq	$3f70 <printf+0x5cc>
    3f6d: 4c c2 3f     	jmp	$3fc2 <printf+0x61e>
    3f70: a6 90        	ldx	$90                     ; 0x90 <__zp_bss_size+0x37>
    3f72: b5 ae        	lda	$ae,x                   ; 0xae <__zp_bss_size+0x55>
    3f74: aa           	tax
    3f75: a5 92        	lda	$92                     ; 0x92 <__zp_bss_size+0x39>
    3f77: 85 17        	sta	$17                     ; 0x17 <__rc7>
    3f79: a5 d4        	lda	$d4                     ; 0xd4 <__zp_bss_size+0x7b>
    3f7b: 85 1a        	sta	$1a                     ; 0x1a <__rc10>
    3f7d: a5 d3        	lda	$d3                     ; 0xd3 <__zp_bss_size+0x7a>
    3f7f: 85 90        	sta	$90                     ; 0x90 <__zp_bss_size+0x37>
    3f81: a5 cf        	lda	$cf                     ; 0xcf <__zp_bss_size+0x76>
    3f83: 85 8b        	sta	$8b                     ; 0x8b <__zp_bss_size+0x32>
    3f85: a5 d0        	lda	$d0                     ; 0xd0 <__zp_bss_size+0x77>
    3f87: 85 8c        	sta	$8c                     ; 0x8c <__zp_bss_size+0x33>
    3f89: 8a           	txa
    3f8a: 10 4a        	bpl	$3fd6 <printf+0x632>
    3f8c: a2 00        	ldx	#$0
    3f8e: 64 12        	stz	$12                     ; 0x12 <__rc2>
    3f90: a9 00        	lda	#$0
    3f92: 38           	sec
    3f93: f5 af        	sbc	$af,x                   ; 0xaf <__zp_bss_size+0x56>
    3f95: a0 01        	ldy	#$1
    3f97: 84 14        	sty	$14                     ; 0x14 <__rc4>
    3f99: 88           	dey
    3f9a: b0 02        	bcs	$3f9e <printf+0x5fa>
    3f9c: a0 01        	ldy	#$1
    3f9e: 38           	sec
    3f9f: e5 12        	sbc	$12                     ; 0x12 <__rc2>
    3fa1: 85 13        	sta	$13                     ; 0x13 <__rc3>
    3fa3: 64 12        	stz	$12                     ; 0x12 <__rc2>
    3fa5: b0 04        	bcs	$3fab <printf+0x607>
    3fa7: a5 14        	lda	$14                     ; 0x14 <__rc4>
    3fa9: 85 12        	sta	$12                     ; 0x12 <__rc2>
    3fab: 98           	tya
    3fac: 05 12        	ora	$12                     ; 0x12 <__rc2>
    3fae: 85 12        	sta	$12                     ; 0x12 <__rc2>
    3fb0: a5 13        	lda	$13                     ; 0x13 <__rc3>
    3fb2: 9d af 00     	sta	$af,x                   ; 0xaf <__zp_bss_size+0x56>
    3fb5: e8           	inx
    3fb6: 86 13        	stx	$13                     ; 0x13 <__rc3>
    3fb8: a4 8a        	ldy	$8a                     ; 0x8a <__zp_bss_size+0x31>
    3fba: c4 13        	cpy	$13                     ; 0x13 <__rc3>
    3fbc: d0 d2        	bne	$3f90 <printf+0x5ec>
    3fbe: a0 01        	ldy	#$1
    3fc0: 80 14        	bra	$3fd6 <printf+0x632>
    3fc2: a6 92        	ldx	$92                     ; 0x92 <__zp_bss_size+0x39>
    3fc4: 86 17        	stx	$17                     ; 0x17 <__rc7>
    3fc6: a6 d4        	ldx	$d4                     ; 0xd4 <__zp_bss_size+0x7b>
    3fc8: 86 1a        	stx	$1a                     ; 0x1a <__rc10>
    3fca: a6 d3        	ldx	$d3                     ; 0xd3 <__zp_bss_size+0x7a>
    3fcc: 86 90        	stx	$90                     ; 0x90 <__zp_bss_size+0x37>
    3fce: a6 cf        	ldx	$cf                     ; 0xcf <__zp_bss_size+0x76>
    3fd0: 86 8b        	stx	$8b                     ; 0x8b <__zp_bss_size+0x32>
    3fd2: a6 d0        	ldx	$d0                     ; 0xd0 <__zp_bss_size+0x77>
    3fd4: 86 8c        	stx	$8c                     ; 0x8c <__zp_bss_size+0x33>
    3fd6: 84 18        	sty	$18                     ; 0x18 <__rc8>
    3fd8: a5 8a        	lda	$8a                     ; 0x8a <__zp_bss_size+0x31>
    3fda: 0a           	asl
    3fdb: 0a           	asl
    3fdc: 0a           	asl
    3fdd: 85 12        	sta	$12                     ; 0x12 <__rc2>
    3fdf: a2 00        	ldx	#$0
    3fe1: 8a           	txa
    3fe2: 4c 99 40     	jmp	$4099 <printf+0x6f5>
    3fe5: a4 13        	ldy	$13                     ; 0x13 <__rc3>
    3fe7: 99 97 00     	sta	$97,y                   ; 0x97 <__zp_bss_size+0x3e>
    3fea: a4 15        	ldy	$15                     ; 0x15 <__rc5>
    3fec: c4 13        	cpy	$13                     ; 0x13 <__rc3>
    3fee: f0 38        	beq	$4028 <printf+0x684>
    3ff0: e6 13        	inc	$13                     ; 0x13 <__rc3>
    3ff2: a4 13        	ldy	$13                     ; 0x13 <__rc3>
    3ff4: b9 97 00     	lda	$97,y                   ; 0x97 <__zp_bss_size+0x3e>
    3ff7: 0a           	asl
    3ff8: e0 00        	cpx	#$0
    3ffa: f0 02        	beq	$3ffe <printf+0x65a>
    3ffc: 09 01        	ora	#$1
    3ffe: a4 94        	ldy	$94                     ; 0x94 <__zp_bss_size+0x3b>
    4000: 84 14        	sty	$14                     ; 0x14 <__rc4>
    4002: c5 14        	cmp	$14                     ; 0x14 <__rc4>
    4004: a2 01        	ldx	#$1
    4006: b0 02        	bcs	$400a <printf+0x666>
    4008: a2 00        	ldx	#$0
    400a: 90 d9        	bcc	$3fe5 <printf+0x641>
    400c: 84 14        	sty	$14                     ; 0x14 <__rc4>
    400e: 38           	sec
    400f: e5 14        	sbc	$14                     ; 0x14 <__rc4>
    4011: a4 13        	ldy	$13                     ; 0x13 <__rc3>
    4013: 99 97 00     	sta	$97,y                   ; 0x97 <__zp_bss_size+0x3e>
    4016: a4 15        	ldy	$15                     ; 0x15 <__rc5>
    4018: c4 13        	cpy	$13                     ; 0x13 <__rc3>
    401a: d0 d4        	bne	$3ff0 <printf+0x64c>
    401c: a4 93        	ldy	$93                     ; 0x93 <__zp_bss_size+0x3a>
    401e: a6 93        	ldx	$93                     ; 0x93 <__zp_bss_size+0x3a>
    4020: e8           	inx
    4021: a9 01        	lda	#$1
    4023: 99 97 00     	sta	$97,y                   ; 0x97 <__zp_bss_size+0x3e>
    4026: 86 93        	stx	$93                     ; 0x93 <__zp_bss_size+0x3a>
    4028: a6 8a        	ldx	$8a                     ; 0x8a <__zp_bss_size+0x31>
    402a: b5 ae        	lda	$ae,x                   ; 0xae <__zp_bss_size+0x55>
    402c: aa           	tax
    402d: 10 41        	bpl	$4070 <printf+0x6cc>
    402f: a5 93        	lda	$93                     ; 0x93 <__zp_bss_size+0x3a>
    4031: f0 2f        	beq	$4062 <printf+0x6be>
    4033: a2 00        	ldx	#$0
    4035: a4 94        	ldy	$94                     ; 0x94 <__zp_bss_size+0x3b>
    4037: 84 14        	sty	$14                     ; 0x14 <__rc4>
    4039: b5 97        	lda	$97,x                   ; 0x97 <__zp_bss_size+0x3e>
    403b: 1a           	inc
    403c: f6 97        	inc	$97,x                   ; 0x97 <__zp_bss_size+0x3e>
    403e: c5 14        	cmp	$14                     ; 0x14 <__rc4>
    4040: 90 2e        	bcc	$4070 <printf+0x6cc>
    4042: a4 94        	ldy	$94                     ; 0x94 <__zp_bss_size+0x3b>
    4044: 84 13        	sty	$13                     ; 0x13 <__rc3>
    4046: 38           	sec
    4047: e5 13        	sbc	$13                     ; 0x13 <__rc3>
    4049: 9d 97 00     	sta	$97,x                   ; 0x97 <__zp_bss_size+0x3e>
    404c: e8           	inx
    404d: 86 13        	stx	$13                     ; 0x13 <__rc3>
    404f: a4 93        	ldy	$93                     ; 0x93 <__zp_bss_size+0x3a>
    4051: c4 13        	cpy	$13                     ; 0x13 <__rc3>
    4053: d0 e4        	bne	$4039 <printf+0x695>
    4055: 80 0d        	bra	$4064 <printf+0x6c0>
    4057: a6 8a        	ldx	$8a                     ; 0x8a <__zp_bss_size+0x31>
    4059: b5 ae        	lda	$ae,x                   ; 0xae <__zp_bss_size+0x55>
    405b: aa           	tax
    405c: 64 93        	stz	$93                     ; 0x93 <__zp_bss_size+0x3a>
    405e: 30 04        	bmi	$4064 <printf+0x6c0>
    4060: 80 0e        	bra	$4070 <printf+0x6cc>
    4062: 64 93        	stz	$93                     ; 0x93 <__zp_bss_size+0x3a>
    4064: a4 93        	ldy	$93                     ; 0x93 <__zp_bss_size+0x3a>
    4066: a6 93        	ldx	$93                     ; 0x93 <__zp_bss_size+0x3a>
    4068: e8           	inx
    4069: a9 01        	lda	#$1
    406b: 99 97 00     	sta	$97,y                   ; 0x97 <__zp_bss_size+0x3e>
    406e: 86 93        	stx	$93                     ; 0x93 <__zp_bss_size+0x3a>
    4070: a2 01        	ldx	#$1
    4072: 86 16        	stx	$16                     ; 0x16 <__rc6>
    4074: 64 13        	stz	$13                     ; 0x13 <__rc3>
    4076: ca           	dex
    4077: a4 8a        	ldy	$8a                     ; 0x8a <__zp_bss_size+0x31>
    4079: b5 af        	lda	$af,x                   ; 0xaf <__zp_bss_size+0x56>
    407b: 0a           	asl
    407c: 64 14        	stz	$14                     ; 0x14 <__rc4>
    407e: 26 14        	rol	$14                     ; 0x14 <__rc4>
    4080: 05 13        	ora	$13                     ; 0x13 <__rc3>
    4082: 9d af 00     	sta	$af,x                   ; 0xaf <__zp_bss_size+0x56>
    4085: e8           	inx
    4086: 86 15        	stx	$15                     ; 0x15 <__rc5>
    4088: a5 14        	lda	$14                     ; 0x14 <__rc4>
    408a: 85 13        	sta	$13                     ; 0x13 <__rc3>
    408c: c4 15        	cpy	$15                     ; 0x15 <__rc5>
    408e: d0 e9        	bne	$4079 <printf+0x6d5>
    4090: a5 19        	lda	$19                     ; 0x19 <__rc9>
    4092: 1a           	inc
    4093: c5 12        	cmp	$12                     ; 0x12 <__rc2>
    4095: a6 93        	ldx	$93                     ; 0x93 <__zp_bss_size+0x3a>
    4097: b0 12        	bcs	$40ab <printf+0x707>
    4099: 85 19        	sta	$19                     ; 0x19 <__rc9>
    409b: 8a           	txa
    409c: f0 b9        	beq	$4057 <printf+0x6b3>
    409e: 8a           	txa
    409f: 86 93        	stx	$93                     ; 0x93 <__zp_bss_size+0x3a>
    40a1: 3a           	dec
    40a2: 85 15        	sta	$15                     ; 0x15 <__rc5>
    40a4: a2 00        	ldx	#$0
    40a6: 64 13        	stz	$13                     ; 0x13 <__rc3>
    40a8: 4c f2 3f     	jmp	$3ff2 <printf+0x64e>
    40ab: a4 16        	ldy	$16                     ; 0x16 <__rc6>
    40ad: a5 90        	lda	$90                     ; 0x90 <__zp_bss_size+0x37>
    40af: 30 06        	bmi	$40b7 <printf+0x713>
    40b1: a5 ce        	lda	$ce                     ; 0xce <__zp_bss_size+0x75>
    40b3: 85 8f        	sta	$8f                     ; 0x8f <__zp_bss_size+0x36>
    40b5: 80 08        	bra	$40bf <printf+0x71b>
    40b7: a2 01        	ldx	#$1
    40b9: 64 90        	stz	$90                     ; 0x90 <__zp_bss_size+0x37>
    40bb: 86 8f        	stx	$8f                     ; 0x8f <__zp_bss_size+0x36>
    40bd: a6 93        	ldx	$93                     ; 0x93 <__zp_bss_size+0x3a>
    40bf: a5 89        	lda	$89                     ; 0x89 <__zp_bss_size+0x30>
    40c1: 29 04        	and	#$4
    40c3: f0 2f        	beq	$40f4 <printf+0x750>
    40c5: a5 94        	lda	$94                     ; 0x94 <__zp_bss_size+0x3b>
    40c7: c9 10        	cmp	#$10
    40c9: f0 14        	beq	$40df <printf+0x73b>
    40cb: c9 08        	cmp	#$8
    40cd: d0 25        	bne	$40f4 <printf+0x750>
    40cf: a2 00        	ldx	#$0
    40d1: e4 90        	cpx	$90                     ; 0x90 <__zp_bss_size+0x37>
    40d3: f0 03        	beq	$40d8 <printf+0x734>
    40d5: 4c a0 46     	jmp	$46a0 <printf+0xcfc>
    40d8: a6 93        	ldx	$93                     ; 0x93 <__zp_bss_size+0x3a>
    40da: e4 8f        	cpx	$8f                     ; 0x8f <__zp_bss_size+0x36>
    40dc: 4c a2 46     	jmp	$46a2 <printf+0xcfe>
    40df: 8a           	txa
    40e0: f0 12        	beq	$40f4 <printf+0x750>
    40e2: a5 89        	lda	$89                     ; 0x89 <__zp_bss_size+0x30>
    40e4: a6 8f        	ldx	$8f                     ; 0x8f <__zp_bss_size+0x36>
    40e6: 29 80        	and	#$80
    40e8: d0 03        	bne	$40ed <printf+0x749>
    40ea: 4c bb 46     	jmp	$46bb <printf+0xd17>
    40ed: 86 ce        	stx	$ce                     ; 0xce <__zp_bss_size+0x75>
    40ef: a2 78        	ldx	#$78
    40f1: 4c bf 46     	jmp	$46bf <printf+0xd1b>
    40f4: a6 89        	ldx	$89                     ; 0x89 <__zp_bss_size+0x30>
    40f6: a9 2d        	lda	#$2d
    40f8: 85 cf        	sta	$cf                     ; 0xcf <__zp_bss_size+0x76>
    40fa: a5 18        	lda	$18                     ; 0x18 <__rc8>
    40fc: d0 22        	bne	$4120 <printf+0x77c>
    40fe: 86 12        	stx	$12                     ; 0x12 <__rc2>
    4100: 8a           	txa
    4101: 29 02        	and	#$2
    4103: a2 2b        	ldx	#$2b
    4105: 86 cf        	stx	$cf                     ; 0xcf <__zp_bss_size+0x76>
    4107: aa           	tax
    4108: d0 16        	bne	$4120 <printf+0x77c>
    410a: a6 8f        	ldx	$8f                     ; 0x8f <__zp_bss_size+0x36>
    410c: 86 ce        	stx	$ce                     ; 0xce <__zp_bss_size+0x75>
    410e: a5 12        	lda	$12                     ; 0x12 <__rc2>
    4110: 29 08        	and	#$8
    4112: f0 03        	beq	$4117 <printf+0x773>
    4114: 4c 99 46     	jmp	$4699 <printf+0xcf5>
    4117: a2 01        	ldx	#$1
    4119: 86 92        	stx	$92                     ; 0x92 <__zp_bss_size+0x39>
    411b: 64 16        	stz	$16                     ; 0x16 <__rc6>
    411d: ca           	dex
    411e: 80 08        	bra	$4128 <printf+0x784>
    4120: a6 8f        	ldx	$8f                     ; 0x8f <__zp_bss_size+0x36>
    4122: 86 ce        	stx	$ce                     ; 0xce <__zp_bss_size+0x75>
    4124: a2 00        	ldx	#$0
    4126: 86 92        	stx	$92                     ; 0x92 <__zp_bss_size+0x39>
    4128: 86 8f        	stx	$8f                     ; 0x8f <__zp_bss_size+0x36>
    412a: a5 90        	lda	$90                     ; 0x90 <__zp_bss_size+0x37>
    412c: d0 08        	bne	$4136 <printf+0x792>
    412e: a5 ce        	lda	$ce                     ; 0xce <__zp_bss_size+0x75>
    4130: c5 93        	cmp	$93                     ; 0x93 <__zp_bss_size+0x3a>
    4132: 85 12        	sta	$12                     ; 0x12 <__rc2>
    4134: 80 08        	bra	$413e <printf+0x79a>
    4136: a6 90        	ldx	$90                     ; 0x90 <__zp_bss_size+0x37>
    4138: e0 00        	cpx	#$0
    413a: a6 ce        	ldx	$ce                     ; 0xce <__zp_bss_size+0x75>
    413c: 86 12        	stx	$12                     ; 0x12 <__rc2>
    413e: a6 90        	ldx	$90                     ; 0x90 <__zp_bss_size+0x37>
    4140: 86 13        	stx	$13                     ; 0x13 <__rc3>
    4142: b0 06        	bcs	$414a <printf+0x7a6>
    4144: a6 93        	ldx	$93                     ; 0x93 <__zp_bss_size+0x3a>
    4146: 86 12        	stx	$12                     ; 0x12 <__rc2>
    4148: 64 13        	stz	$13                     ; 0x13 <__rc3>
    414a: a5 16        	lda	$16                     ; 0x16 <__rc6>
    414c: 18           	clc
    414d: 65 12        	adc	$12                     ; 0x12 <__rc2>
    414f: aa           	tax
    4150: 85 14        	sta	$14                     ; 0x14 <__rc4>
    4152: a5 13        	lda	$13                     ; 0x13 <__rc3>
    4154: 69 00        	adc	#$0
    4156: 85 15        	sta	$15                     ; 0x15 <__rc5>
    4158: c5 1a        	cmp	$1a                     ; 0x1a <__rc10>
    415a: d0 04        	bne	$4160 <printf+0x7bc>
    415c: e4 17        	cpx	$17                     ; 0x17 <__rc7>
    415e: 80 02        	bra	$4162 <printf+0x7be>
    4160: c5 1a        	cmp	$1a                     ; 0x1a <__rc10>
    4162: 64 94        	stz	$94                     ; 0x94 <__zp_bss_size+0x3b>
    4164: 64 8a        	stz	$8a                     ; 0x8a <__zp_bss_size+0x31>
    4166: a6 93        	ldx	$93                     ; 0x93 <__zp_bss_size+0x3a>
    4168: 90 03        	bcc	$416d <printf+0x7c9>
    416a: 4c 28 42     	jmp	$4228 <printf+0x884>
    416d: a5 89        	lda	$89                     ; 0x89 <__zp_bss_size+0x30>
    416f: 29 11        	and	#$11
    4171: f0 10        	beq	$4183 <printf+0x7df>
    4173: a5 17        	lda	$17                     ; 0x17 <__rc7>
    4175: 38           	sec
    4176: e5 14        	sbc	$14                     ; 0x14 <__rc4>
    4178: 85 94        	sta	$94                     ; 0x94 <__zp_bss_size+0x3b>
    417a: a5 1a        	lda	$1a                     ; 0x1a <__rc10>
    417c: e5 15        	sbc	$15                     ; 0x15 <__rc5>
    417e: 85 8a        	sta	$8a                     ; 0x8a <__zp_bss_size+0x31>
    4180: 4c 28 42     	jmp	$4228 <printf+0x884>
    4183: a6 be        	ldx	$be                     ; 0xbe <__zp_bss_size+0x65>
    4185: 86 15        	stx	$15                     ; 0x15 <__rc5>
    4187: 38           	sec
    4188: a5 16        	lda	$16                     ; 0x16 <__rc6>
    418a: e5 17        	sbc	$17                     ; 0x17 <__rc7>
    418c: aa           	tax
    418d: a9 00        	lda	#$0
    418f: e5 1a        	sbc	$1a                     ; 0x1a <__rc10>
    4191: 85 14        	sta	$14                     ; 0x14 <__rc4>
    4193: 18           	clc
    4194: 8a           	txa
    4195: 65 12        	adc	$12                     ; 0x12 <__rc2>
    4197: 85 89        	sta	$89                     ; 0x89 <__zp_bss_size+0x30>
    4199: a5 14        	lda	$14                     ; 0x14 <__rc4>
    419b: 65 13        	adc	$13                     ; 0x13 <__rc3>
    419d: 85 8a        	sta	$8a                     ; 0x8a <__zp_bss_size+0x31>
    419f: a5 bf        	lda	$bf                     ; 0xbf <__zp_bss_size+0x66>
    41a1: 4c 10 42     	jmp	$4210 <printf+0x86c>
    41a4: c5 bd        	cmp	$bd                     ; 0xbd <__zp_bss_size+0x64>
    41a6: a6 8a        	ldx	$8a                     ; 0x8a <__zp_bss_size+0x31>
    41a8: 86 12        	stx	$12                     ; 0x12 <__rc2>
    41aa: b0 3d        	bcs	$41e9 <printf+0x845>
    41ac: a2 01        	ldx	#$1
    41ae: 86 14        	stx	$14                     ; 0x14 <__rc4>
    41b0: a6 c9        	ldx	$c9                     ; 0xc9 <__zp_bss_size+0x70>
    41b2: a0 00        	ldy	#$0
    41b4: 84 12        	sty	$12                     ; 0x12 <__rc2>
    41b6: a0 00        	ldy	#$0
    41b8: 84 13        	sty	$13                     ; 0x13 <__rc3>
    41ba: e4 13        	cpx	$13                     ; 0x13 <__rc3>
    41bc: d0 1b        	bne	$41d9 <printf+0x835>
    41be: a6 c8        	ldx	$c8                     ; 0xc8 <__zp_bss_size+0x6f>
    41c0: e4 12        	cpx	$12                     ; 0x12 <__rc2>
    41c2: d0 15        	bne	$41d9 <printf+0x835>
    41c4: a4 14        	ldy	$14                     ; 0x14 <__rc4>
    41c6: 18           	clc
    41c7: aa           	tax
    41c8: a5 15        	lda	$15                     ; 0x15 <__rc5>
    41ca: 65 c2        	adc	$c2                     ; 0xc2 <__zp_bss_size+0x69>
    41cc: 85 12        	sta	$12                     ; 0x12 <__rc2>
    41ce: 8a           	txa
    41cf: 65 c3        	adc	$c3                     ; 0xc3 <__zp_bss_size+0x6a>
    41d1: 85 13        	sta	$13                     ; 0x13 <__rc3>
    41d3: a9 20        	lda	#$20
    41d5: 92 12        	sta	($12)                   ; 0x12 <__rc2>
    41d7: 80 0c        	bra	$41e5 <printf+0x841>
    41d9: a2 01        	ldx	#$1
    41db: 86 91        	stx	$91                     ; 0x91 <__zp_bss_size+0x38>
    41dd: ca           	dex
    41de: a9 20        	lda	#$20
    41e0: 20 de 46     	jsr	$46de <putchar>
    41e3: a4 91        	ldy	$91                     ; 0x91 <__zp_bss_size+0x38>
    41e5: a6 8a        	ldx	$8a                     ; 0x8a <__zp_bss_size+0x31>
    41e7: 86 12        	stx	$12                     ; 0x12 <__rc2>
    41e9: a6 be        	ldx	$be                     ; 0xbe <__zp_bss_size+0x65>
    41eb: a5 bf        	lda	$bf                     ; 0xbf <__zp_bss_size+0x66>
    41ed: e8           	inx
    41ee: d0 01        	bne	$41f1 <printf+0x84d>
    41f0: 1a           	inc
    41f1: 86 15        	stx	$15                     ; 0x15 <__rc5>
    41f3: 86 be        	stx	$be                     ; 0xbe <__zp_bss_size+0x65>
    41f5: 85 bf        	sta	$bf                     ; 0xbf <__zp_bss_size+0x66>
    41f7: a6 89        	ldx	$89                     ; 0x89 <__zp_bss_size+0x30>
    41f9: e8           	inx
    41fa: d0 02        	bne	$41fe <printf+0x85a>
    41fc: e6 12        	inc	$12                     ; 0x12 <__rc2>
    41fe: 86 89        	stx	$89                     ; 0x89 <__zp_bss_size+0x30>
    4200: 5a           	phy
    4201: a4 12        	ldy	$12                     ; 0x12 <__rc2>
    4203: 84 8a        	sty	$8a                     ; 0x8a <__zp_bss_size+0x31>
    4205: 7a           	ply
    4206: e6 12        	inc	$12                     ; 0x12 <__rc2>
    4208: c6 12        	dec	$12                     ; 0x12 <__rc2>
    420a: d0 04        	bne	$4210 <printf+0x86c>
    420c: e0 00        	cpx	#$0
    420e: f0 12        	beq	$4222 <printf+0x87e>
    4210: c5 bd        	cmp	$bd                     ; 0xbd <__zp_bss_size+0x64>
    4212: f0 03        	beq	$4217 <printf+0x873>
    4214: 4c a4 41     	jmp	$41a4 <printf+0x800>
    4217: a6 bc        	ldx	$bc                     ; 0xbc <__zp_bss_size+0x63>
    4219: 86 12        	stx	$12                     ; 0x12 <__rc2>
    421b: a6 15        	ldx	$15                     ; 0x15 <__rc5>
    421d: e4 12        	cpx	$12                     ; 0x12 <__rc2>
    421f: 4c a6 41     	jmp	$41a6 <printf+0x802>
    4222: 64 94        	stz	$94                     ; 0x94 <__zp_bss_size+0x3b>
    4224: 64 8a        	stz	$8a                     ; 0x8a <__zp_bss_size+0x31>
    4226: a6 93        	ldx	$93                     ; 0x93 <__zp_bss_size+0x3a>
    4228: a5 92        	lda	$92                     ; 0x92 <__zp_bss_size+0x39>
    422a: f0 03        	beq	$422f <printf+0x88b>
    422c: 4c 90 42     	jmp	$4290 <printf+0x8ec>
    422f: a6 be        	ldx	$be                     ; 0xbe <__zp_bss_size+0x65>
    4231: a5 bf        	lda	$bf                     ; 0xbf <__zp_bss_size+0x66>
    4233: c5 bd        	cmp	$bd                     ; 0xbd <__zp_bss_size+0x64>
    4235: d0 10        	bne	$4247 <printf+0x8a3>
    4237: 86 13        	stx	$13                     ; 0x13 <__rc3>
    4239: a6 bc        	ldx	$bc                     ; 0xbc <__zp_bss_size+0x63>
    423b: 86 12        	stx	$12                     ; 0x12 <__rc2>
    423d: a6 13        	ldx	$13                     ; 0x13 <__rc3>
    423f: 86 15        	stx	$15                     ; 0x15 <__rc5>
    4241: e4 12        	cpx	$12                     ; 0x12 <__rc2>
    4243: 90 08        	bcc	$424d <printf+0x8a9>
    4245: 80 41        	bra	$4288 <printf+0x8e4>
    4247: 86 15        	stx	$15                     ; 0x15 <__rc5>
    4249: c5 bd        	cmp	$bd                     ; 0xbd <__zp_bss_size+0x64>
    424b: b0 3b        	bcs	$4288 <printf+0x8e4>
    424d: a2 01        	ldx	#$1
    424f: 86 14        	stx	$14                     ; 0x14 <__rc4>
    4251: a6 c9        	ldx	$c9                     ; 0xc9 <__zp_bss_size+0x70>
    4253: a0 00        	ldy	#$0
    4255: 84 12        	sty	$12                     ; 0x12 <__rc2>
    4257: a0 00        	ldy	#$0
    4259: 84 13        	sty	$13                     ; 0x13 <__rc3>
    425b: e4 13        	cpx	$13                     ; 0x13 <__rc3>
    425d: d0 1d        	bne	$427c <printf+0x8d8>
    425f: a6 c8        	ldx	$c8                     ; 0xc8 <__zp_bss_size+0x6f>
    4261: e4 12        	cpx	$12                     ; 0x12 <__rc2>
    4263: d0 17        	bne	$427c <printf+0x8d8>
    4265: a4 14        	ldy	$14                     ; 0x14 <__rc4>
    4267: 18           	clc
    4268: 85 16        	sta	$16                     ; 0x16 <__rc6>
    426a: a5 15        	lda	$15                     ; 0x15 <__rc5>
    426c: 65 c2        	adc	$c2                     ; 0xc2 <__zp_bss_size+0x69>
    426e: 85 12        	sta	$12                     ; 0x12 <__rc2>
    4270: a5 16        	lda	$16                     ; 0x16 <__rc6>
    4272: 65 c3        	adc	$c3                     ; 0xc3 <__zp_bss_size+0x6a>
    4274: 85 13        	sta	$13                     ; 0x13 <__rc3>
    4276: a5 cf        	lda	$cf                     ; 0xcf <__zp_bss_size+0x76>
    4278: 92 12        	sta	($12)                   ; 0x12 <__rc2>
    427a: 80 0c        	bra	$4288 <printf+0x8e4>
    427c: a2 01        	ldx	#$1
    427e: 86 91        	stx	$91                     ; 0x91 <__zp_bss_size+0x38>
    4280: ca           	dex
    4281: a5 cf        	lda	$cf                     ; 0xcf <__zp_bss_size+0x76>
    4283: 20 de 46     	jsr	$46de <putchar>
    4286: a4 91        	ldy	$91                     ; 0x91 <__zp_bss_size+0x38>
    4288: e6 be        	inc	$be                     ; 0xbe <__zp_bss_size+0x65>
    428a: d0 02        	bne	$428e <printf+0x8ea>
    428c: e6 bf        	inc	$bf                     ; 0xbf <__zp_bss_size+0x66>
    428e: a6 93        	ldx	$93                     ; 0x93 <__zp_bss_size+0x3a>
    4290: a5 8f        	lda	$8f                     ; 0x8f <__zp_bss_size+0x36>
    4292: d0 03        	bne	$4297 <printf+0x8f3>
    4294: 4c f8 42     	jmp	$42f8 <printf+0x954>
    4297: a6 be        	ldx	$be                     ; 0xbe <__zp_bss_size+0x65>
    4299: a5 bf        	lda	$bf                     ; 0xbf <__zp_bss_size+0x66>
    429b: c5 bd        	cmp	$bd                     ; 0xbd <__zp_bss_size+0x64>
    429d: d0 10        	bne	$42af <printf+0x90b>
    429f: 86 13        	stx	$13                     ; 0x13 <__rc3>
    42a1: a6 bc        	ldx	$bc                     ; 0xbc <__zp_bss_size+0x63>
    42a3: 86 12        	stx	$12                     ; 0x12 <__rc2>
    42a5: a6 13        	ldx	$13                     ; 0x13 <__rc3>
    42a7: 86 15        	stx	$15                     ; 0x15 <__rc5>
    42a9: e4 12        	cpx	$12                     ; 0x12 <__rc2>
    42ab: 90 08        	bcc	$42b5 <printf+0x911>
    42ad: 80 41        	bra	$42f0 <printf+0x94c>
    42af: 86 15        	stx	$15                     ; 0x15 <__rc5>
    42b1: c5 bd        	cmp	$bd                     ; 0xbd <__zp_bss_size+0x64>
    42b3: b0 3b        	bcs	$42f0 <printf+0x94c>
    42b5: a2 01        	ldx	#$1
    42b7: 86 14        	stx	$14                     ; 0x14 <__rc4>
    42b9: a6 c9        	ldx	$c9                     ; 0xc9 <__zp_bss_size+0x70>
    42bb: a0 00        	ldy	#$0
    42bd: 84 12        	sty	$12                     ; 0x12 <__rc2>
    42bf: a0 00        	ldy	#$0
    42c1: 84 13        	sty	$13                     ; 0x13 <__rc3>
    42c3: e4 13        	cpx	$13                     ; 0x13 <__rc3>
    42c5: d0 1d        	bne	$42e4 <printf+0x940>
    42c7: a6 c8        	ldx	$c8                     ; 0xc8 <__zp_bss_size+0x6f>
    42c9: e4 12        	cpx	$12                     ; 0x12 <__rc2>
    42cb: d0 17        	bne	$42e4 <printf+0x940>
    42cd: a4 14        	ldy	$14                     ; 0x14 <__rc4>
    42cf: 18           	clc
    42d0: 85 16        	sta	$16                     ; 0x16 <__rc6>
    42d2: a5 15        	lda	$15                     ; 0x15 <__rc5>
    42d4: 65 c2        	adc	$c2                     ; 0xc2 <__zp_bss_size+0x69>
    42d6: 85 12        	sta	$12                     ; 0x12 <__rc2>
    42d8: a5 16        	lda	$16                     ; 0x16 <__rc6>
    42da: 65 c3        	adc	$c3                     ; 0xc3 <__zp_bss_size+0x6a>
    42dc: 85 13        	sta	$13                     ; 0x13 <__rc3>
    42de: a5 d3        	lda	$d3                     ; 0xd3 <__zp_bss_size+0x7a>
    42e0: 92 12        	sta	($12)                   ; 0x12 <__rc2>
    42e2: 80 0c        	bra	$42f0 <printf+0x94c>
    42e4: a2 01        	ldx	#$1
    42e6: 86 91        	stx	$91                     ; 0x91 <__zp_bss_size+0x38>
    42e8: ca           	dex
    42e9: a5 d3        	lda	$d3                     ; 0xd3 <__zp_bss_size+0x7a>
    42eb: 20 de 46     	jsr	$46de <putchar>
    42ee: a4 91        	ldy	$91                     ; 0x91 <__zp_bss_size+0x38>
    42f0: e6 be        	inc	$be                     ; 0xbe <__zp_bss_size+0x65>
    42f2: d0 02        	bne	$42f6 <printf+0x952>
    42f4: e6 bf        	inc	$bf                     ; 0xbf <__zp_bss_size+0x66>
    42f6: a6 93        	ldx	$93                     ; 0x93 <__zp_bss_size+0x3a>
    42f8: a9 10        	lda	#$10
    42fa: 25 ba        	and	$ba                     ; 0xba <__zp_bss_size+0x61>
    42fc: d0 07        	bne	$4305 <printf+0x961>
    42fe: a5 ce        	lda	$ce                     ; 0xce <__zp_bss_size+0x75>
    4300: 85 92        	sta	$92                     ; 0x92 <__zp_bss_size+0x39>
    4302: 4c b7 43     	jmp	$43b7 <printf+0xa13>
    4305: 86 13        	stx	$13                     ; 0x13 <__rc3>
    4307: a5 ba        	lda	$ba                     ; 0xba <__zp_bss_size+0x61>
    4309: 29 01        	and	#$1
    430b: a6 ce        	ldx	$ce                     ; 0xce <__zp_bss_size+0x75>
    430d: 86 92        	stx	$92                     ; 0x92 <__zp_bss_size+0x39>
    430f: aa           	tax
    4310: f0 03        	beq	$4315 <printf+0x971>
    4312: 4c ad 43     	jmp	$43ad <printf+0xa09>
    4315: a5 94        	lda	$94                     ; 0x94 <__zp_bss_size+0x3b>
    4317: a6 8a        	ldx	$8a                     ; 0x8a <__zp_bss_size+0x31>
    4319: 86 12        	stx	$12                     ; 0x12 <__rc2>
    431b: a6 12        	ldx	$12                     ; 0x12 <__rc2>
    431d: d0 06        	bne	$4325 <printf+0x981>
    431f: aa           	tax
    4320: d0 03        	bne	$4325 <printf+0x981>
    4322: 4c d4 46     	jmp	$46d4 <printf+0xd30>
    4325: a6 be        	ldx	$be                     ; 0xbe <__zp_bss_size+0x65>
    4327: 86 15        	stx	$15                     ; 0x15 <__rc5>
    4329: a5 bf        	lda	$bf                     ; 0xbf <__zp_bss_size+0x66>
    432b: 4c 99 43     	jmp	$4399 <printf+0x9f5>
    432e: c5 bd        	cmp	$bd                     ; 0xbd <__zp_bss_size+0x64>
    4330: b0 39        	bcs	$436b <printf+0x9c7>
    4332: a2 01        	ldx	#$1
    4334: 86 14        	stx	$14                     ; 0x14 <__rc4>
    4336: a6 c9        	ldx	$c9                     ; 0xc9 <__zp_bss_size+0x70>
    4338: a0 00        	ldy	#$0
    433a: 84 12        	sty	$12                     ; 0x12 <__rc2>
    433c: a0 00        	ldy	#$0
    433e: 84 13        	sty	$13                     ; 0x13 <__rc3>
    4340: e4 13        	cpx	$13                     ; 0x13 <__rc3>
    4342: d0 1b        	bne	$435f <printf+0x9bb>
    4344: a6 c8        	ldx	$c8                     ; 0xc8 <__zp_bss_size+0x6f>
    4346: e4 12        	cpx	$12                     ; 0x12 <__rc2>
    4348: d0 15        	bne	$435f <printf+0x9bb>
    434a: a4 14        	ldy	$14                     ; 0x14 <__rc4>
    434c: 18           	clc
    434d: aa           	tax
    434e: a5 15        	lda	$15                     ; 0x15 <__rc5>
    4350: 65 c2        	adc	$c2                     ; 0xc2 <__zp_bss_size+0x69>
    4352: 85 12        	sta	$12                     ; 0x12 <__rc2>
    4354: 8a           	txa
    4355: 65 c3        	adc	$c3                     ; 0xc3 <__zp_bss_size+0x6a>
    4357: 85 13        	sta	$13                     ; 0x13 <__rc3>
    4359: a9 30        	lda	#$30
    435b: 92 12        	sta	($12)                   ; 0x12 <__rc2>
    435d: 80 0c        	bra	$436b <printf+0x9c7>
    435f: a2 01        	ldx	#$1
    4361: 86 91        	stx	$91                     ; 0x91 <__zp_bss_size+0x38>
    4363: ca           	dex
    4364: a9 30        	lda	#$30
    4366: 20 de 46     	jsr	$46de <putchar>
    4369: a4 91        	ldy	$91                     ; 0x91 <__zp_bss_size+0x38>
    436b: a6 be        	ldx	$be                     ; 0xbe <__zp_bss_size+0x65>
    436d: a5 bf        	lda	$bf                     ; 0xbf <__zp_bss_size+0x66>
    436f: e8           	inx
    4370: d0 01        	bne	$4373 <printf+0x9cf>
    4372: 1a           	inc
    4373: 86 15        	stx	$15                     ; 0x15 <__rc5>
    4375: 86 be        	stx	$be                     ; 0xbe <__zp_bss_size+0x65>
    4377: 85 bf        	sta	$bf                     ; 0xbf <__zp_bss_size+0x66>
    4379: a6 94        	ldx	$94                     ; 0x94 <__zp_bss_size+0x3b>
    437b: 86 12        	stx	$12                     ; 0x12 <__rc2>
    437d: a6 8a        	ldx	$8a                     ; 0x8a <__zp_bss_size+0x31>
    437f: 86 13        	stx	$13                     ; 0x13 <__rc3>
    4381: a2 ff        	ldx	#$ff
    4383: c6 12        	dec	$12                     ; 0x12 <__rc2>
    4385: e4 12        	cpx	$12                     ; 0x12 <__rc2>
    4387: d0 02        	bne	$438b <printf+0x9e7>
    4389: c6 13        	dec	$13                     ; 0x13 <__rc3>
    438b: a6 12        	ldx	$12                     ; 0x12 <__rc2>
    438d: 86 94        	stx	$94                     ; 0x94 <__zp_bss_size+0x3b>
    438f: a6 13        	ldx	$13                     ; 0x13 <__rc3>
    4391: 86 8a        	stx	$8a                     ; 0x8a <__zp_bss_size+0x31>
    4393: d0 04        	bne	$4399 <printf+0x9f5>
    4395: a6 12        	ldx	$12                     ; 0x12 <__rc2>
    4397: f0 18        	beq	$43b1 <printf+0xa0d>
    4399: c5 bd        	cmp	$bd                     ; 0xbd <__zp_bss_size+0x64>
    439b: f0 03        	beq	$43a0 <printf+0x9fc>
    439d: 4c 2e 43     	jmp	$432e <printf+0x98a>
    43a0: a6 bc        	ldx	$bc                     ; 0xbc <__zp_bss_size+0x63>
    43a2: 86 12        	stx	$12                     ; 0x12 <__rc2>
    43a4: a6 15        	ldx	$15                     ; 0x15 <__rc5>
    43a6: e4 12        	cpx	$12                     ; 0x12 <__rc2>
    43a8: b0 c1        	bcs	$436b <printf+0x9c7>
    43aa: 4c 32 43     	jmp	$4332 <printf+0x98e>
    43ad: a6 13        	ldx	$13                     ; 0x13 <__rc3>
    43af: 80 06        	bra	$43b7 <printf+0xa13>
    43b1: 64 94        	stz	$94                     ; 0x94 <__zp_bss_size+0x3b>
    43b3: 64 8a        	stz	$8a                     ; 0x8a <__zp_bss_size+0x31>
    43b5: a6 93        	ldx	$93                     ; 0x93 <__zp_bss_size+0x3a>
    43b7: a9 00        	lda	#$0
    43b9: c5 90        	cmp	$90                     ; 0x90 <__zp_bss_size+0x37>
    43bb: d0 07        	bne	$43c4 <printf+0xa20>
    43bd: e4 92        	cpx	$92                     ; 0x92 <__zp_bss_size+0x39>
    43bf: 90 0a        	bcc	$43cb <printf+0xa27>
    43c1: 4c 4e 44     	jmp	$444e <printf+0xaaa>
    43c4: c5 90        	cmp	$90                     ; 0x90 <__zp_bss_size+0x37>
    43c6: 90 03        	bcc	$43cb <printf+0xa27>
    43c8: 4c 4e 44     	jmp	$444e <printf+0xaaa>
    43cb: a6 be        	ldx	$be                     ; 0xbe <__zp_bss_size+0x65>
    43cd: 86 15        	stx	$15                     ; 0x15 <__rc5>
    43cf: a5 bf        	lda	$bf                     ; 0xbf <__zp_bss_size+0x66>
    43d1: a2 ff        	ldx	#$ff
    43d3: c6 92        	dec	$92                     ; 0x92 <__zp_bss_size+0x39>
    43d5: e4 92        	cpx	$92                     ; 0x92 <__zp_bss_size+0x39>
    43d7: d0 02        	bne	$43db <printf+0xa37>
    43d9: c6 90        	dec	$90                     ; 0x90 <__zp_bss_size+0x37>
    43db: c5 bd        	cmp	$bd                     ; 0xbd <__zp_bss_size+0x64>
    43dd: d0 0c        	bne	$43eb <printf+0xa47>
    43df: a6 bc        	ldx	$bc                     ; 0xbc <__zp_bss_size+0x63>
    43e1: 86 12        	stx	$12                     ; 0x12 <__rc2>
    43e3: a6 15        	ldx	$15                     ; 0x15 <__rc5>
    43e5: e4 12        	cpx	$12                     ; 0x12 <__rc2>
    43e7: 90 06        	bcc	$43ef <printf+0xa4b>
    43e9: 80 3d        	bra	$4428 <printf+0xa84>
    43eb: c5 bd        	cmp	$bd                     ; 0xbd <__zp_bss_size+0x64>
    43ed: b0 39        	bcs	$4428 <printf+0xa84>
    43ef: a2 01        	ldx	#$1
    43f1: 86 14        	stx	$14                     ; 0x14 <__rc4>
    43f3: a6 c9        	ldx	$c9                     ; 0xc9 <__zp_bss_size+0x70>
    43f5: a0 00        	ldy	#$0
    43f7: 84 12        	sty	$12                     ; 0x12 <__rc2>
    43f9: a0 00        	ldy	#$0
    43fb: 84 13        	sty	$13                     ; 0x13 <__rc3>
    43fd: e4 13        	cpx	$13                     ; 0x13 <__rc3>
    43ff: d0 1b        	bne	$441c <printf+0xa78>
    4401: a6 c8        	ldx	$c8                     ; 0xc8 <__zp_bss_size+0x6f>
    4403: e4 12        	cpx	$12                     ; 0x12 <__rc2>
    4405: d0 15        	bne	$441c <printf+0xa78>
    4407: a4 14        	ldy	$14                     ; 0x14 <__rc4>
    4409: 18           	clc
    440a: aa           	tax
    440b: a5 15        	lda	$15                     ; 0x15 <__rc5>
    440d: 65 c2        	adc	$c2                     ; 0xc2 <__zp_bss_size+0x69>
    440f: 85 12        	sta	$12                     ; 0x12 <__rc2>
    4411: 8a           	txa
    4412: 65 c3        	adc	$c3                     ; 0xc3 <__zp_bss_size+0x6a>
    4414: 85 13        	sta	$13                     ; 0x13 <__rc3>
    4416: a9 30        	lda	#$30
    4418: 92 12        	sta	($12)                   ; 0x12 <__rc2>
    441a: 80 0c        	bra	$4428 <printf+0xa84>
    441c: a2 01        	ldx	#$1
    441e: 86 91        	stx	$91                     ; 0x91 <__zp_bss_size+0x38>
    4420: ca           	dex
    4421: a9 30        	lda	#$30
    4423: 20 de 46     	jsr	$46de <putchar>
    4426: a4 91        	ldy	$91                     ; 0x91 <__zp_bss_size+0x38>
    4428: a6 be        	ldx	$be                     ; 0xbe <__zp_bss_size+0x65>
    442a: a5 bf        	lda	$bf                     ; 0xbf <__zp_bss_size+0x66>
    442c: e8           	inx
    442d: d0 01        	bne	$4430 <printf+0xa8c>
    442f: 1a           	inc
    4430: 86 15        	stx	$15                     ; 0x15 <__rc5>
    4432: 86 be        	stx	$be                     ; 0xbe <__zp_bss_size+0x65>
    4434: 85 bf        	sta	$bf                     ; 0xbf <__zp_bss_size+0x66>
    4436: a2 00        	ldx	#$0
    4438: e4 90        	cpx	$90                     ; 0x90 <__zp_bss_size+0x37>
    443a: d0 09        	bne	$4445 <printf+0xaa1>
    443c: a6 93        	ldx	$93                     ; 0x93 <__zp_bss_size+0x3a>
    443e: e4 92        	cpx	$92                     ; 0x92 <__zp_bss_size+0x39>
    4440: b0 0c        	bcs	$444e <printf+0xaaa>
    4442: 4c d1 43     	jmp	$43d1 <printf+0xa2d>
    4445: e4 90        	cpx	$90                     ; 0x90 <__zp_bss_size+0x37>
    4447: a6 93        	ldx	$93                     ; 0x93 <__zp_bss_size+0x3a>
    4449: b0 03        	bcs	$444e <printf+0xaaa>
    444b: 4c d1 43     	jmp	$43d1 <printf+0xa2d>
    444e: 8a           	txa
    444f: d0 03        	bne	$4454 <printf+0xab0>
    4451: 4c 85 45     	jmp	$4585 <printf+0xbe1>
    4454: ca           	dex
    4455: d0 03        	bne	$445a <printf+0xab6>
    4457: 4c 07 45     	jmp	$4507 <printf+0xb63>
    445a: 86 91        	stx	$91                     ; 0x91 <__zp_bss_size+0x38>
    445c: a6 d5        	ldx	$d5                     ; 0xd5 <__zp_bss_size+0x7c>
    445e: 8a           	txa
    445f: 18           	clc
    4460: 65 91        	adc	$91                     ; 0x91 <__zp_bss_size+0x38>
    4462: 85 8f        	sta	$8f                     ; 0x8f <__zp_bss_size+0x36>
    4464: a5 d6        	lda	$d6                     ; 0xd6 <__zp_bss_size+0x7d>
    4466: 69 00        	adc	#$0
    4468: 85 90        	sta	$90                     ; 0x90 <__zp_bss_size+0x37>
    446a: 4c f5 44     	jmp	$44f5 <printf+0xb51>
    446d: 85 13        	sta	$13                     ; 0x13 <__rc3>
    446f: a9 80        	lda	#$80
    4471: 25 ba        	and	$ba                     ; 0xba <__zp_bss_size+0x61>
    4473: f0 04        	beq	$4479 <printf+0xad5>
    4475: a2 61        	ldx	#$61
    4477: 80 02        	bra	$447b <printf+0xad7>
    4479: a2 41        	ldx	#$41
    447b: 86 12        	stx	$12                     ; 0x12 <__rc2>
    447d: a2 01        	ldx	#$1
    447f: 86 14        	stx	$14                     ; 0x14 <__rc4>
    4481: 18           	clc
    4482: a5 13        	lda	$13                     ; 0x13 <__rc3>
    4484: 65 12        	adc	$12                     ; 0x12 <__rc2>
    4486: 18           	clc
    4487: 69 f6        	adc	#$f6
    4489: a4 be        	ldy	$be                     ; 0xbe <__zp_bss_size+0x65>
    448b: a6 bf        	ldx	$bf                     ; 0xbf <__zp_bss_size+0x66>
    448d: e4 bd        	cpx	$bd                     ; 0xbd <__zp_bss_size+0x64>
    448f: d0 0c        	bne	$449d <printf+0xaf9>
    4491: 86 16        	stx	$16                     ; 0x16 <__rc6>
    4493: a6 bc        	ldx	$bc                     ; 0xbc <__zp_bss_size+0x63>
    4495: 86 12        	stx	$12                     ; 0x12 <__rc2>
    4497: 84 15        	sty	$15                     ; 0x15 <__rc5>
    4499: c4 12        	cpy	$12                     ; 0x12 <__rc2>
    449b: 80 06        	bra	$44a3 <printf+0xaff>
    449d: 84 15        	sty	$15                     ; 0x15 <__rc5>
    449f: 86 16        	stx	$16                     ; 0x16 <__rc6>
    44a1: e4 bd        	cpx	$bd                     ; 0xbd <__zp_bss_size+0x64>
    44a3: a4 14        	ldy	$14                     ; 0x14 <__rc4>
    44a5: b0 38        	bcs	$44df <printf+0xb3b>
    44a7: 85 14        	sta	$14                     ; 0x14 <__rc4>
    44a9: a9 01        	lda	#$1
    44ab: a6 c9        	ldx	$c9                     ; 0xc9 <__zp_bss_size+0x70>
    44ad: a0 00        	ldy	#$0
    44af: 84 12        	sty	$12                     ; 0x12 <__rc2>
    44b1: a0 00        	ldy	#$0
    44b3: 84 13        	sty	$13                     ; 0x13 <__rc3>
    44b5: e4 13        	cpx	$13                     ; 0x13 <__rc3>
    44b7: d0 1a        	bne	$44d3 <printf+0xb2f>
    44b9: a6 c8        	ldx	$c8                     ; 0xc8 <__zp_bss_size+0x6f>
    44bb: e4 12        	cpx	$12                     ; 0x12 <__rc2>
    44bd: d0 14        	bne	$44d3 <printf+0xb2f>
    44bf: a8           	tay
    44c0: 18           	clc
    44c1: a5 15        	lda	$15                     ; 0x15 <__rc5>
    44c3: 65 c2        	adc	$c2                     ; 0xc2 <__zp_bss_size+0x69>
    44c5: 85 12        	sta	$12                     ; 0x12 <__rc2>
    44c7: a5 16        	lda	$16                     ; 0x16 <__rc6>
    44c9: 65 c3        	adc	$c3                     ; 0xc3 <__zp_bss_size+0x6a>
    44cb: 85 13        	sta	$13                     ; 0x13 <__rc3>
    44cd: a5 14        	lda	$14                     ; 0x14 <__rc4>
    44cf: 92 12        	sta	($12)                   ; 0x12 <__rc2>
    44d1: 80 0c        	bra	$44df <printf+0xb3b>
    44d3: a2 01        	ldx	#$1
    44d5: 86 92        	stx	$92                     ; 0x92 <__zp_bss_size+0x39>
    44d7: ca           	dex
    44d8: a5 14        	lda	$14                     ; 0x14 <__rc4>
    44da: 20 de 46     	jsr	$46de <putchar>
    44dd: a4 92        	ldy	$92                     ; 0x92 <__zp_bss_size+0x39>
    44df: e6 be        	inc	$be                     ; 0xbe <__zp_bss_size+0x65>
    44e1: d0 02        	bne	$44e5 <printf+0xb41>
    44e3: e6 bf        	inc	$bf                     ; 0xbf <__zp_bss_size+0x66>
    44e5: c6 91        	dec	$91                     ; 0x91 <__zp_bss_size+0x38>
    44e7: a2 ff        	ldx	#$ff
    44e9: c6 8f        	dec	$8f                     ; 0x8f <__zp_bss_size+0x36>
    44eb: e4 8f        	cpx	$8f                     ; 0x8f <__zp_bss_size+0x36>
    44ed: d0 02        	bne	$44f1 <printf+0xb4d>
    44ef: c6 90        	dec	$90                     ; 0x90 <__zp_bss_size+0x37>
    44f1: a5 91        	lda	$91                     ; 0x91 <__zp_bss_size+0x38>
    44f3: f0 12        	beq	$4507 <printf+0xb63>
    44f5: b2 8f        	lda	($8f)                   ; 0x8f <__zp_bss_size+0x36>
    44f7: c9 0a        	cmp	#$a
    44f9: 90 03        	bcc	$44fe <printf+0xb5a>
    44fb: 4c 6d 44     	jmp	$446d <printf+0xac9>
    44fe: a2 01        	ldx	#$1
    4500: 86 14        	stx	$14                     ; 0x14 <__rc4>
    4502: 09 30        	ora	#$30
    4504: 4c 89 44     	jmp	$4489 <printf+0xae5>
    4507: a5 97        	lda	$97                     ; 0x97 <__zp_bss_size+0x3e>
    4509: c9 0a        	cmp	#$a
    450b: b0 04        	bcs	$4511 <printf+0xb6d>
    450d: 09 30        	ora	#$30
    450f: 80 18        	bra	$4529 <printf+0xb85>
    4511: 85 13        	sta	$13                     ; 0x13 <__rc3>
    4513: a9 80        	lda	#$80
    4515: 25 ba        	and	$ba                     ; 0xba <__zp_bss_size+0x61>
    4517: f0 04        	beq	$451d <printf+0xb79>
    4519: a2 61        	ldx	#$61
    451b: 80 02        	bra	$451f <printf+0xb7b>
    451d: a2 41        	ldx	#$41
    451f: 86 12        	stx	$12                     ; 0x12 <__rc2>
    4521: 18           	clc
    4522: a5 13        	lda	$13                     ; 0x13 <__rc3>
    4524: 65 12        	adc	$12                     ; 0x12 <__rc2>
    4526: 18           	clc
    4527: 69 f6        	adc	#$f6
    4529: a6 be        	ldx	$be                     ; 0xbe <__zp_bss_size+0x65>
    452b: 86 15        	stx	$15                     ; 0x15 <__rc5>
    452d: a6 bf        	ldx	$bf                     ; 0xbf <__zp_bss_size+0x66>
    452f: e4 bd        	cpx	$bd                     ; 0xbd <__zp_bss_size+0x64>
    4531: d0 0e        	bne	$4541 <printf+0xb9d>
    4533: 86 16        	stx	$16                     ; 0x16 <__rc6>
    4535: a6 bc        	ldx	$bc                     ; 0xbc <__zp_bss_size+0x63>
    4537: 86 12        	stx	$12                     ; 0x12 <__rc2>
    4539: a6 15        	ldx	$15                     ; 0x15 <__rc5>
    453b: e4 12        	cpx	$12                     ; 0x12 <__rc2>
    453d: 90 08        	bcc	$4547 <printf+0xba3>
    453f: 80 3e        	bra	$457f <printf+0xbdb>
    4541: 86 16        	stx	$16                     ; 0x16 <__rc6>
    4543: e4 bd        	cpx	$bd                     ; 0xbd <__zp_bss_size+0x64>
    4545: b0 38        	bcs	$457f <printf+0xbdb>
    4547: 85 14        	sta	$14                     ; 0x14 <__rc4>
    4549: a9 01        	lda	#$1
    454b: a6 c9        	ldx	$c9                     ; 0xc9 <__zp_bss_size+0x70>
    454d: a0 00        	ldy	#$0
    454f: 84 12        	sty	$12                     ; 0x12 <__rc2>
    4551: a0 00        	ldy	#$0
    4553: 84 13        	sty	$13                     ; 0x13 <__rc3>
    4555: e4 13        	cpx	$13                     ; 0x13 <__rc3>
    4557: d0 1a        	bne	$4573 <printf+0xbcf>
    4559: a6 c8        	ldx	$c8                     ; 0xc8 <__zp_bss_size+0x6f>
    455b: e4 12        	cpx	$12                     ; 0x12 <__rc2>
    455d: d0 14        	bne	$4573 <printf+0xbcf>
    455f: a8           	tay
    4560: 18           	clc
    4561: a5 15        	lda	$15                     ; 0x15 <__rc5>
    4563: 65 c2        	adc	$c2                     ; 0xc2 <__zp_bss_size+0x69>
    4565: 85 12        	sta	$12                     ; 0x12 <__rc2>
    4567: a5 16        	lda	$16                     ; 0x16 <__rc6>
    4569: 65 c3        	adc	$c3                     ; 0xc3 <__zp_bss_size+0x6a>
    456b: 85 13        	sta	$13                     ; 0x13 <__rc3>
    456d: a5 14        	lda	$14                     ; 0x14 <__rc4>
    456f: 92 12        	sta	($12)                   ; 0x12 <__rc2>
    4571: 80 0c        	bra	$457f <printf+0xbdb>
    4573: a2 01        	ldx	#$1
    4575: 86 8f        	stx	$8f                     ; 0x8f <__zp_bss_size+0x36>
    4577: ca           	dex
    4578: a5 14        	lda	$14                     ; 0x14 <__rc4>
    457a: 20 de 46     	jsr	$46de <putchar>
    457d: a4 8f        	ldy	$8f                     ; 0x8f <__zp_bss_size+0x36>
    457f: e6 be        	inc	$be                     ; 0xbe <__zp_bss_size+0x65>
    4581: d0 02        	bne	$4585 <printf+0xbe1>
    4583: e6 bf        	inc	$bf                     ; 0xbf <__zp_bss_size+0x66>
    4585: a5 ba        	lda	$ba                     ; 0xba <__zp_bss_size+0x61>
    4587: 29 01        	and	#$1
    4589: d0 27        	bne	$45b2 <printf+0xc0e>
    458b: a6 be        	ldx	$be                     ; 0xbe <__zp_bss_size+0x65>
    458d: 86 15        	stx	$15                     ; 0x15 <__rc5>
    458f: a5 bf        	lda	$bf                     ; 0xbf <__zp_bss_size+0x66>
    4591: a6 bc        	ldx	$bc                     ; 0xbc <__zp_bss_size+0x63>
    4593: 86 14        	stx	$14                     ; 0x14 <__rc4>
    4595: a6 bd        	ldx	$bd                     ; 0xbd <__zp_bss_size+0x64>
    4597: 86 12        	stx	$12                     ; 0x12 <__rc2>
    4599: 86 13        	stx	$13                     ; 0x13 <__rc3>
    459b: c5 12        	cmp	$12                     ; 0x12 <__rc2>
    459d: f0 03        	beq	$45a2 <printf+0xbfe>
    459f: 4c 52 46     	jmp	$4652 <printf+0xcae>
    45a2: a5 14        	lda	$14                     ; 0x14 <__rc4>
    45a4: 85 12        	sta	$12                     ; 0x12 <__rc2>
    45a6: a6 15        	ldx	$15                     ; 0x15 <__rc5>
    45a8: e4 12        	cpx	$12                     ; 0x12 <__rc2>
    45aa: 90 03        	bcc	$45af <printf+0xc0b>
    45ac: 4c 5a 46     	jmp	$465a <printf+0xcb6>
    45af: 4c 7a 46     	jmp	$467a <printf+0xcd6>
    45b2: a6 be        	ldx	$be                     ; 0xbe <__zp_bss_size+0x65>
    45b4: 86 15        	stx	$15                     ; 0x15 <__rc5>
    45b6: a5 bf        	lda	$bf                     ; 0xbf <__zp_bss_size+0x66>
    45b8: a6 94        	ldx	$94                     ; 0x94 <__zp_bss_size+0x3b>
    45ba: 5a           	phy
    45bb: a4 8a        	ldy	$8a                     ; 0x8a <__zp_bss_size+0x31>
    45bd: 84 12        	sty	$12                     ; 0x12 <__rc2>
    45bf: 7a           	ply
    45c0: e6 12        	inc	$12                     ; 0x12 <__rc2>
    45c2: c6 12        	dec	$12                     ; 0x12 <__rc2>
    45c4: f0 03        	beq	$45c9 <printf+0xc25>
    45c6: 4c 3e 46     	jmp	$463e <printf+0xc9a>
    45c9: e0 00        	cpx	#$0
    45cb: f0 c4        	beq	$4591 <printf+0xbed>
    45cd: 4c 3e 46     	jmp	$463e <printf+0xc9a>
    45d0: c5 bd        	cmp	$bd                     ; 0xbd <__zp_bss_size+0x64>
    45d2: b0 39        	bcs	$460d <printf+0xc69>
    45d4: a2 01        	ldx	#$1
    45d6: 86 14        	stx	$14                     ; 0x14 <__rc4>
    45d8: a6 c9        	ldx	$c9                     ; 0xc9 <__zp_bss_size+0x70>
    45da: a0 00        	ldy	#$0
    45dc: 84 12        	sty	$12                     ; 0x12 <__rc2>
    45de: a0 00        	ldy	#$0
    45e0: 84 13        	sty	$13                     ; 0x13 <__rc3>
    45e2: e4 13        	cpx	$13                     ; 0x13 <__rc3>
    45e4: d0 1b        	bne	$4601 <printf+0xc5d>
    45e6: a6 c8        	ldx	$c8                     ; 0xc8 <__zp_bss_size+0x6f>
    45e8: e4 12        	cpx	$12                     ; 0x12 <__rc2>
    45ea: d0 15        	bne	$4601 <printf+0xc5d>
    45ec: a4 14        	ldy	$14                     ; 0x14 <__rc4>
    45ee: 18           	clc
    45ef: aa           	tax
    45f0: a5 15        	lda	$15                     ; 0x15 <__rc5>
    45f2: 65 c2        	adc	$c2                     ; 0xc2 <__zp_bss_size+0x69>
    45f4: 85 12        	sta	$12                     ; 0x12 <__rc2>
    45f6: 8a           	txa
    45f7: 65 c3        	adc	$c3                     ; 0xc3 <__zp_bss_size+0x6a>
    45f9: 85 13        	sta	$13                     ; 0x13 <__rc3>
    45fb: a9 20        	lda	#$20
    45fd: 92 12        	sta	($12)                   ; 0x12 <__rc2>
    45ff: 80 0c        	bra	$460d <printf+0xc69>
    4601: a2 01        	ldx	#$1
    4603: 86 8f        	stx	$8f                     ; 0x8f <__zp_bss_size+0x36>
    4605: ca           	dex
    4606: a9 20        	lda	#$20
    4608: 20 de 46     	jsr	$46de <putchar>
    460b: a4 8f        	ldy	$8f                     ; 0x8f <__zp_bss_size+0x36>
    460d: a6 be        	ldx	$be                     ; 0xbe <__zp_bss_size+0x65>
    460f: a5 bf        	lda	$bf                     ; 0xbf <__zp_bss_size+0x66>
    4611: e8           	inx
    4612: d0 01        	bne	$4615 <printf+0xc71>
    4614: 1a           	inc
    4615: 86 15        	stx	$15                     ; 0x15 <__rc5>
    4617: 86 be        	stx	$be                     ; 0xbe <__zp_bss_size+0x65>
    4619: 85 bf        	sta	$bf                     ; 0xbf <__zp_bss_size+0x66>
    461b: a6 94        	ldx	$94                     ; 0x94 <__zp_bss_size+0x3b>
    461d: 86 12        	stx	$12                     ; 0x12 <__rc2>
    461f: a6 8a        	ldx	$8a                     ; 0x8a <__zp_bss_size+0x31>
    4621: 86 13        	stx	$13                     ; 0x13 <__rc3>
    4623: a2 ff        	ldx	#$ff
    4625: c6 12        	dec	$12                     ; 0x12 <__rc2>
    4627: e4 12        	cpx	$12                     ; 0x12 <__rc2>
    4629: d0 02        	bne	$462d <printf+0xc89>
    462b: c6 13        	dec	$13                     ; 0x13 <__rc3>
    462d: a6 12        	ldx	$12                     ; 0x12 <__rc2>
    462f: 86 94        	stx	$94                     ; 0x94 <__zp_bss_size+0x3b>
    4631: a6 13        	ldx	$13                     ; 0x13 <__rc3>
    4633: 86 8a        	stx	$8a                     ; 0x8a <__zp_bss_size+0x31>
    4635: d0 07        	bne	$463e <printf+0xc9a>
    4637: a6 12        	ldx	$12                     ; 0x12 <__rc2>
    4639: d0 03        	bne	$463e <printf+0xc9a>
    463b: 4c 91 45     	jmp	$4591 <printf+0xbed>
    463e: c5 bd        	cmp	$bd                     ; 0xbd <__zp_bss_size+0x64>
    4640: f0 03        	beq	$4645 <printf+0xca1>
    4642: 4c d0 45     	jmp	$45d0 <printf+0xc2c>
    4645: a6 bc        	ldx	$bc                     ; 0xbc <__zp_bss_size+0x63>
    4647: 86 12        	stx	$12                     ; 0x12 <__rc2>
    4649: a6 15        	ldx	$15                     ; 0x15 <__rc5>
    464b: e4 12        	cpx	$12                     ; 0x12 <__rc2>
    464d: b0 be        	bcs	$460d <printf+0xc69>
    464f: 4c d4 45     	jmp	$45d4 <printf+0xc30>
    4652: 86 12        	stx	$12                     ; 0x12 <__rc2>
    4654: c5 12        	cmp	$12                     ; 0x12 <__rc2>
    4656: a5 14        	lda	$14                     ; 0x14 <__rc4>
    4658: 90 20        	bcc	$467a <printf+0xcd6>
    465a: a6 13        	ldx	$13                     ; 0x13 <__rc3>
    465c: d0 03        	bne	$4661 <printf+0xcbd>
    465e: aa           	tax
    465f: f0 19        	beq	$467a <printf+0xcd6>
    4661: 18           	clc
    4662: 65 c2        	adc	$c2                     ; 0xc2 <__zp_bss_size+0x69>
    4664: 85 12        	sta	$12                     ; 0x12 <__rc2>
    4666: a5 13        	lda	$13                     ; 0x13 <__rc3>
    4668: 65 c3        	adc	$c3                     ; 0xc3 <__zp_bss_size+0x6a>
    466a: 85 13        	sta	$13                     ; 0x13 <__rc3>
    466c: a2 ff        	ldx	#$ff
    466e: c6 12        	dec	$12                     ; 0x12 <__rc2>
    4670: e4 12        	cpx	$12                     ; 0x12 <__rc2>
    4672: d0 02        	bne	$4676 <printf+0xcd2>
    4674: c6 13        	dec	$13                     ; 0x13 <__rc3>
    4676: a9 00        	lda	#$0
    4678: 92 12        	sta	($12)                   ; 0x12 <__rc2>
    467a: e6 8b        	inc	$8b                     ; 0x8b <__zp_bss_size+0x32>
    467c: d0 02        	bne	$4680 <printf+0xcdc>
    467e: e6 8c        	inc	$8c                     ; 0x8c <__zp_bss_size+0x33>
    4680: a6 8c        	ldx	$8c                     ; 0x8c <__zp_bss_size+0x33>
    4682: e4 8e        	cpx	$8e                     ; 0x8e <__zp_bss_size+0x35>
    4684: f0 03        	beq	$4689 <printf+0xce5>
    4686: 4c 09 3a     	jmp	$3a09 <printf+0x65>
    4689: a6 8b        	ldx	$8b                     ; 0x8b <__zp_bss_size+0x32>
    468b: e4 8d        	cpx	$8d                     ; 0x8d <__zp_bss_size+0x34>
    468d: f0 03        	beq	$4692 <printf+0xcee>
    468f: 4c 09 3a     	jmp	$3a09 <printf+0x65>
    4692: b2 8d        	lda	($8d)                   ; 0x8d <__zp_bss_size+0x34>
    4694: a2 00        	ldx	#$0
    4696: 4c 20 3a     	jmp	$3a20 <printf+0x7c>
    4699: a2 20        	ldx	#$20
    469b: 86 cf        	stx	$cf                     ; 0xcf <__zp_bss_size+0x76>
    469d: 4c 24 41     	jmp	$4124 <printf+0x780>
    46a0: e4 90        	cpx	$90                     ; 0x90 <__zp_bss_size+0x37>
    46a2: a6 89        	ldx	$89                     ; 0x89 <__zp_bss_size+0x30>
    46a4: b0 03        	bcs	$46a9 <printf+0xd05>
    46a6: 4c f6 40     	jmp	$40f6 <printf+0x752>
    46a9: a5 93        	lda	$93                     ; 0x93 <__zp_bss_size+0x3a>
    46ab: 85 8f        	sta	$8f                     ; 0x8f <__zp_bss_size+0x36>
    46ad: 64 90        	stz	$90                     ; 0x90 <__zp_bss_size+0x37>
    46af: e6 8f        	inc	$8f                     ; 0x8f <__zp_bss_size+0x36>
    46b1: f0 03        	beq	$46b6 <printf+0xd12>
    46b3: 4c f6 40     	jmp	$40f6 <printf+0x752>
    46b6: e6 90        	inc	$90                     ; 0x90 <__zp_bss_size+0x37>
    46b8: 4c f6 40     	jmp	$40f6 <printf+0x752>
    46bb: 86 ce        	stx	$ce                     ; 0xce <__zp_bss_size+0x75>
    46bd: a2 58        	ldx	#$58
    46bf: 86 d3        	stx	$d3                     ; 0xd3 <__zp_bss_size+0x7a>
    46c1: a2 01        	ldx	#$1
    46c3: 86 8f        	stx	$8f                     ; 0x8f <__zp_bss_size+0x36>
    46c5: a2 30        	ldx	#$30
    46c7: 86 cf        	stx	$cf                     ; 0xcf <__zp_bss_size+0x76>
    46c9: a2 02        	ldx	#$2
    46cb: 86 16        	stx	$16                     ; 0x16 <__rc6>
    46cd: a2 00        	ldx	#$0
    46cf: 86 92        	stx	$92                     ; 0x92 <__zp_bss_size+0x39>
    46d1: 4c 2a 41     	jmp	$412a <printf+0x786>
    46d4: a6 13        	ldx	$13                     ; 0x13 <__rc3>
    46d6: 64 94        	stz	$94                     ; 0x94 <__zp_bss_size+0x3b>
    46d8: 64 8a        	stz	$8a                     ; 0x8a <__zp_bss_size+0x31>
    46da: 4c b7 43     	jmp	$43b7 <printf+0xa13>
    46dd: 60           	rts

000046de <putchar>:
    46de: 86 12        	stx	$12                     ; 0x12 <__rc2>
    46e0: 85 e2        	sta	$e2                     ; 0xe2 <__zp_bss_size+0x89>
    46e2: 85 47        	sta	$47                     ; 0x47 <__putchar.s>
    46e4: a6 01        	ldx	$1                      ; 0x1 <__bss_size>
    46e6: 86 e3        	stx	$e3                     ; 0xe3 <__zp_bss_size+0x8a>
    46e8: a6 3a        	ldx	$3a                     ; 0x3a <_row>
    46ea: a0 50        	ldy	#$50
    46ec: 8c 00 de     	sty	$de00                   ; 0xde00 <__heap_start+0x8ce8>
    46ef: 9c 01 de     	stz	$de01                   ; 0xde01 <__heap_start+0x8ce9>
    46f2: 8e 02 de     	stx	$de02                   ; 0xde02 <__heap_start+0x8cea>
    46f5: 9c 03 de     	stz	$de03                   ; 0xde03 <__heap_start+0x8ceb>
    46f8: ae 10 de     	ldx	$de10                   ; 0xde10 <__heap_start+0x8cf8>
    46fb: 86 13        	stx	$13                     ; 0x13 <__rc3>
    46fd: ad 11 de     	lda	$de11                   ; 0xde11 <__heap_start+0x8cf9>
    4700: ae 12 de     	ldx	$de12                   ; 0xde12 <__heap_start+0x8cfa>
    4703: 86 1a        	stx	$1a                     ; 0x1a <__rc10>
    4705: ae 13 de     	ldx	$de13                   ; 0xde13 <__heap_start+0x8cfb>
    4708: 86 1b        	stx	$1b                     ; 0x1b <__rc11>
    470a: 9c 08 de     	stz	$de08                   ; 0xde08 <__heap_start+0x8cf0>
    470d: a2 c0        	ldx	#$c0
    470f: 8e 09 de     	stx	$de09                   ; 0xde09 <__heap_start+0x8cf1>
    4712: 9c 0a de     	stz	$de0a                   ; 0xde0a <__heap_start+0x8cf2>
    4715: 9c 0b de     	stz	$de0b                   ; 0xde0b <__heap_start+0x8cf3>
    4718: a6 13        	ldx	$13                     ; 0x13 <__rc3>
    471a: 8e 0c de     	stx	$de0c                   ; 0xde0c <__heap_start+0x8cf4>
    471d: 8d 0d de     	sta	$de0d                   ; 0xde0d <__heap_start+0x8cf5>
    4720: 64 13        	stz	$13                     ; 0x13 <__rc3>
    4722: a2 00        	ldx	#$0
    4724: 86 14        	stx	$14                     ; 0x14 <__rc4>
    4726: a2 c0        	ldx	#$c0
    4728: 86 15        	stx	$15                     ; 0x15 <__rc5>
    472a: a2 11        	ldx	#$11
    472c: 86 16        	stx	$16                     ; 0x16 <__rc6>
    472e: a2 c9        	ldx	#$c9
    4730: 86 17        	stx	$17                     ; 0x17 <__rc7>
    4732: a2 10        	ldx	#$10
    4734: 86 18        	stx	$18                     ; 0x18 <__rc8>
    4736: a2 c9        	ldx	#$c9
    4738: 86 19        	stx	$19                     ; 0x19 <__rc9>
    473a: a6 1a        	ldx	$1a                     ; 0x1a <__rc10>
    473c: 8e 0e de     	stx	$de0e                   ; 0xde0e <__heap_start+0x8cf6>
    473f: a6 1b        	ldx	$1b                     ; 0x1b <__rc11>
    4741: 8e 0f de     	stx	$de0f                   ; 0xde0f <__heap_start+0x8cf7>
    4744: ae 18 de     	ldx	$de18                   ; 0xde18 <__heap_start+0x8d00>
    4747: 86 1c        	stx	$1c                     ; 0x1c <__rc12>
    4749: ad 19 de     	lda	$de19                   ; 0xde19 <__heap_start+0x8d01>
    474c: ae 1a de     	ldx	$de1a                   ; 0xde1a <__heap_start+0x8d02>
    474f: ae 1b de     	ldx	$de1b                   ; 0xde1b <__heap_start+0x8d03>
    4752: 85 1d        	sta	$1d                     ; 0x1d <__rc13>
    4754: 64 1a        	stz	$1a                     ; 0x1a <__rc10>
    4756: a2 f0        	ldx	#$f0
    4758: 86 e4        	stx	$e4                     ; 0xe4 <__zp_bss_size+0x8b>
    475a: a2 20        	ldx	#$20
    475c: 86 e5        	stx	$e5                     ; 0xe5 <__zp_bss_size+0x8c>
    475e: 80 13        	bra	$4773 <putchar+0x95>
    4760: a5 1c        	lda	$1c                     ; 0x1c <__rc12>
    4762: 18           	clc
    4763: 69 50        	adc	#$50
    4765: 85 1c        	sta	$1c                     ; 0x1c <__rc12>
    4767: a5 1d        	lda	$1d                     ; 0x1d <__rc13>
    4769: 69 00        	adc	#$0
    476b: 85 1d        	sta	$1d                     ; 0x1d <__rc13>
    476d: e6 13        	inc	$13                     ; 0x13 <__rc3>
    476f: d0 02        	bne	$4773 <putchar+0x95>
    4771: e6 1a        	inc	$1a                     ; 0x1a <__rc10>
    4773: a9 47        	lda	#$47
    4775: 18           	clc
    4776: 65 13        	adc	$13                     ; 0x13 <__rc3>
    4778: 85 1e        	sta	$1e                     ; 0x1e <__rc14>
    477a: a9 00        	lda	#$0
    477c: 65 1a        	adc	$1a                     ; 0x1a <__rc10>
    477e: 85 1f        	sta	$1f                     ; 0x1f <__rc15>
    4780: b2 1e        	lda	($1e)                   ; 0x1e <__rc14>
    4782: c9 0a        	cmp	#$a
    4784: f0 2e        	beq	$47b4 <putchar+0xd6>
    4786: c9 0d        	cmp	#$d
    4788: f0 2a        	beq	$47b4 <putchar+0xd6>
    478a: aa           	tax
    478b: d0 03        	bne	$4790 <putchar+0xb2>
    478d: 4c c6 48     	jmp	$48c6 <putchar+0x1e8>
    4790: a2 03        	ldx	#$3
    4792: 86 01        	stx	$1                      ; 0x1 <__bss_size>
    4794: 84 1b        	sty	$1b                     ; 0x1b <__rc11>
    4796: a4 39        	ldy	$39                     ; 0x39 <_col>
    4798: a9 f0        	lda	#$f0
    479a: aa           	tax
    479b: 86 e4        	stx	$e4                     ; 0xe4 <__zp_bss_size+0x8b>
    479d: 91 1c        	sta	($1c),y                 ; 0x1c <__rc12>
    479f: a2 02        	ldx	#$2
    47a1: 86 01        	stx	$1                      ; 0x1 <__bss_size>
    47a3: b2 1e        	lda	($1e)                   ; 0x1e <__rc14>
    47a5: a4 39        	ldy	$39                     ; 0x39 <_col>
    47a7: 91 1c        	sta	($1c),y                 ; 0x1c <__rc12>
    47a9: a4 1b        	ldy	$1b                     ; 0x1b <__rc11>
    47ab: a6 39        	ldx	$39                     ; 0x39 <_col>
    47ad: e8           	inx
    47ae: e6 39        	inc	$39                     ; 0x39 <_col>
    47b0: e0 50        	cpx	#$50
    47b2: d0 b9        	bne	$476d <putchar+0x8f>
    47b4: 64 39        	stz	$39                     ; 0x39 <_col>
    47b6: a6 3a        	ldx	$3a                     ; 0x3a <_row>
    47b8: e8           	inx
    47b9: e6 3a        	inc	$3a                     ; 0x3a <_row>
    47bb: e0 1e        	cpx	#$1e
    47bd: f0 03        	beq	$47c2 <putchar+0xe4>
    47bf: 4c 60 47     	jmp	$4760 <putchar+0x82>
    47c2: a2 03        	ldx	#$3
    47c4: 86 01        	stx	$1                      ; 0x1 <__bss_size>
    47c6: a2 09        	ldx	#$9
    47c8: a9 10        	lda	#$10
    47ca: 5a           	phy
    47cb: a0 00        	ldy	#$0
    47cd: 84 1c        	sty	$1c                     ; 0x1c <__rc12>
    47cf: a0 c0        	ldy	#$c0
    47d1: 84 1d        	sty	$1d                     ; 0x1d <__rc13>
    47d3: 7a           	ply
    47d4: 85 1b        	sta	$1b                     ; 0x1b <__rc11>
    47d6: b1 1c        	lda	($1c),y                 ; 0x1c <__rc12>
    47d8: 92 1c        	sta	($1c)                   ; 0x1c <__rc12>
    47da: a9 ff        	lda	#$ff
    47dc: c6 1b        	dec	$1b                     ; 0x1b <__rc11>
    47de: c5 1b        	cmp	$1b                     ; 0x1b <__rc11>
    47e0: d0 01        	bne	$47e3 <putchar+0x105>
    47e2: ca           	dex
    47e3: e6 1c        	inc	$1c                     ; 0x1c <__rc12>
    47e5: d0 02        	bne	$47e9 <putchar+0x10b>
    47e7: e6 1d        	inc	$1d                     ; 0x1d <__rc13>
    47e9: 8a           	txa
    47ea: d0 ea        	bne	$47d6 <putchar+0xf8>
    47ec: a5 1b        	lda	$1b                     ; 0x1b <__rc11>
    47ee: d0 e6        	bne	$47d6 <putchar+0xf8>
    47f0: a2 02        	ldx	#$2
    47f2: 86 01        	stx	$1                      ; 0x1 <__bss_size>
    47f4: a2 09        	ldx	#$9
    47f6: a9 10        	lda	#$10
    47f8: 5a           	phy
    47f9: a0 00        	ldy	#$0
    47fb: 84 1c        	sty	$1c                     ; 0x1c <__rc12>
    47fd: a0 c0        	ldy	#$c0
    47ff: 84 1d        	sty	$1d                     ; 0x1d <__rc13>
    4801: 7a           	ply
    4802: 85 1b        	sta	$1b                     ; 0x1b <__rc11>
    4804: b1 1c        	lda	($1c),y                 ; 0x1c <__rc12>
    4806: 92 1c        	sta	($1c)                   ; 0x1c <__rc12>
    4808: a9 ff        	lda	#$ff
    480a: c6 1b        	dec	$1b                     ; 0x1b <__rc11>
    480c: c5 1b        	cmp	$1b                     ; 0x1b <__rc11>
    480e: d0 01        	bne	$4811 <putchar+0x133>
    4810: ca           	dex
    4811: e6 1c        	inc	$1c                     ; 0x1c <__rc12>
    4813: d0 02        	bne	$4817 <putchar+0x139>
    4815: e6 1d        	inc	$1d                     ; 0x1d <__rc13>
    4817: 8a           	txa
    4818: d0 ea        	bne	$4804 <putchar+0x126>
    481a: a5 1b        	lda	$1b                     ; 0x1b <__rc11>
    481c: d0 e6        	bne	$4804 <putchar+0x126>
    481e: a2 50        	ldx	#$50
    4820: 86 1b        	stx	$1b                     ; 0x1b <__rc11>
    4822: a2 02        	ldx	#$2
    4824: 86 01        	stx	$1                      ; 0x1 <__bss_size>
    4826: e8           	inx
    4827: 86 01        	stx	$1                      ; 0x1 <__bss_size>
    4829: a2 50        	ldx	#$50
    482b: a0 11        	ldy	#$11
    482d: 84 1c        	sty	$1c                     ; 0x1c <__rc12>
    482f: a0 c9        	ldy	#$c9
    4831: 84 1d        	sty	$1d                     ; 0x1d <__rc13>
    4833: a0 10        	ldy	#$10
    4835: 84 1e        	sty	$1e                     ; 0x1e <__rc14>
    4837: a0 c9        	ldy	#$c9
    4839: 84 1f        	sty	$1f                     ; 0x1f <__rc15>
    483b: a5 e4        	lda	$e4                     ; 0xe4 <__zp_bss_size+0x8b>
    483d: a4 1e        	ldy	$1e                     ; 0x1e <__rc14>
    483f: 84 22        	sty	$22                     ; 0x22 <__rc18>
    4841: a4 1f        	ldy	$1f                     ; 0x1f <__rc15>
    4843: 84 23        	sty	$23                     ; 0x23 <__rc19>
    4845: a4 1c        	ldy	$1c                     ; 0x1c <__rc12>
    4847: 84 1e        	sty	$1e                     ; 0x1e <__rc14>
    4849: a4 1d        	ldy	$1d                     ; 0x1d <__rc13>
    484b: 84 1f        	sty	$1f                     ; 0x1f <__rc15>
    484d: 92 22        	sta	($22)                   ; 0x22 <__rc18>
    484f: e6 1c        	inc	$1c                     ; 0x1c <__rc12>
    4851: d0 02        	bne	$4855 <putchar+0x177>
    4853: e6 1d        	inc	$1d                     ; 0x1d <__rc13>
    4855: ca           	dex
    4856: d0 e5        	bne	$483d <putchar+0x15f>
    4858: a2 f0        	ldx	#$f0
    485a: 86 e4        	stx	$e4                     ; 0xe4 <__zp_bss_size+0x8b>
    485c: a2 02        	ldx	#$2
    485e: 86 01        	stx	$1                      ; 0x1 <__bss_size>
    4860: a2 50        	ldx	#$50
    4862: a0 11        	ldy	#$11
    4864: 84 1c        	sty	$1c                     ; 0x1c <__rc12>
    4866: a0 c9        	ldy	#$c9
    4868: 84 1d        	sty	$1d                     ; 0x1d <__rc13>
    486a: a0 10        	ldy	#$10
    486c: 84 1e        	sty	$1e                     ; 0x1e <__rc14>
    486e: a0 c9        	ldy	#$c9
    4870: 84 1f        	sty	$1f                     ; 0x1f <__rc15>
    4872: a5 e5        	lda	$e5                     ; 0xe5 <__zp_bss_size+0x8c>
    4874: a4 1e        	ldy	$1e                     ; 0x1e <__rc14>
    4876: 84 22        	sty	$22                     ; 0x22 <__rc18>
    4878: a4 1f        	ldy	$1f                     ; 0x1f <__rc15>
    487a: 84 23        	sty	$23                     ; 0x23 <__rc19>
    487c: a4 1c        	ldy	$1c                     ; 0x1c <__rc12>
    487e: 84 1e        	sty	$1e                     ; 0x1e <__rc14>
    4880: a4 1d        	ldy	$1d                     ; 0x1d <__rc13>
    4882: 84 1f        	sty	$1f                     ; 0x1f <__rc15>
    4884: 92 22        	sta	($22)                   ; 0x22 <__rc18>
    4886: e6 1c        	inc	$1c                     ; 0x1c <__rc12>
    4888: d0 02        	bne	$488c <putchar+0x1ae>
    488a: e6 1d        	inc	$1d                     ; 0x1d <__rc13>
    488c: ca           	dex
    488d: d0 e5        	bne	$4874 <putchar+0x196>
    488f: a2 20        	ldx	#$20
    4891: 86 e5        	stx	$e5                     ; 0xe5 <__zp_bss_size+0x8c>
    4893: c6 3a        	dec	$3a                     ; 0x3a <_row>
    4895: 9c 08 de     	stz	$de08                   ; 0xde08 <__heap_start+0x8cf0>
    4898: a2 c0        	ldx	#$c0
    489a: 8e 09 de     	stx	$de09                   ; 0xde09 <__heap_start+0x8cf1>
    489d: 9c 0a de     	stz	$de0a                   ; 0xde0a <__heap_start+0x8cf2>
    48a0: 9c 0b de     	stz	$de0b                   ; 0xde0b <__heap_start+0x8cf3>
    48a3: a2 1d        	ldx	#$1d
    48a5: 8e 0c de     	stx	$de0c                   ; 0xde0c <__heap_start+0x8cf4>
    48a8: 9c 0d de     	stz	$de0d                   ; 0xde0d <__heap_start+0x8cf5>
    48ab: 9c 0e de     	stz	$de0e                   ; 0xde0e <__heap_start+0x8cf6>
    48ae: 9c 0f de     	stz	$de0f                   ; 0xde0f <__heap_start+0x8cf7>
    48b1: ae 18 de     	ldx	$de18                   ; 0xde18 <__heap_start+0x8d00>
    48b4: ac 19 de     	ldy	$de19                   ; 0xde19 <__heap_start+0x8d01>
    48b7: ad 1a de     	lda	$de1a                   ; 0xde1a <__heap_start+0x8d02>
    48ba: ad 1b de     	lda	$de1b                   ; 0xde1b <__heap_start+0x8d03>
    48bd: 86 1c        	stx	$1c                     ; 0x1c <__rc12>
    48bf: 84 1d        	sty	$1d                     ; 0x1d <__rc13>
    48c1: a4 1b        	ldy	$1b                     ; 0x1b <__rc11>
    48c3: 4c 6d 47     	jmp	$476d <putchar+0x8f>
    48c6: a6 e3        	ldx	$e3                     ; 0xe3 <__zp_bss_size+0x8a>
    48c8: 86 01        	stx	$1                      ; 0x1 <__bss_size>
    48ca: a6 39        	ldx	$39                     ; 0x39 <_col>
    48cc: a4 3a        	ldy	$3a                     ; 0x3a <_row>
    48ce: 8e 14 d0     	stx	$d014                   ; 0xd014 <__heap_start+0x7efc>
    48d1: 9c 15 d0     	stz	$d015                   ; 0xd015 <__heap_start+0x7efd>
    48d4: 84 3a        	sty	$3a                     ; 0x3a <_row>
    48d6: 8c 16 d0     	sty	$d016                   ; 0xd016 <__heap_start+0x7efe>
    48d9: 9c 17 d0     	stz	$d017                   ; 0xd017 <__heap_start+0x7eff>
    48dc: a6 12        	ldx	$12                     ; 0x12 <__rc2>
    48de: a5 e2        	lda	$e2                     ; 0xe2 <__zp_bss_size+0x89>
    48e0: 60           	rts

000048e1 <malloc>:
    48e1: a8           	tay
    48e2: 8a           	txa
    48e3: a2 00        	ldx	#$0
    48e5: 86 12        	stx	$12                     ; 0x12 <__rc2>
    48e7: a2 00        	ldx	#$0
    48e9: 86 13        	stx	$13                     ; 0x13 <__rc3>
    48eb: aa           	tax
    48ec: d0 07        	bne	$48f5 <malloc+0x14>
    48ee: c0 00        	cpy	#$0
    48f0: d0 03        	bne	$48f5 <malloc+0x14>
    48f2: 4c 03 4a     	jmp	$4a03 <malloc+0x122>
    48f5: 84 16        	sty	$16                     ; 0x16 <__rc6>
    48f7: aa           	tax
    48f8: d0 0e        	bne	$4908 <malloc+0x27>
    48fa: a6 16        	ldx	$16                     ; 0x16 <__rc6>
    48fc: e0 07        	cpx	#$7
    48fe: b0 0c        	bcs	$490c <malloc+0x2b>
    4900: a2 08        	ldx	#$8
    4902: 86 89        	stx	$89                     ; 0x89 <__zp_bss_size+0x30>
    4904: a9 00        	lda	#$0
    4906: 80 31        	bra	$4939 <malloc+0x58>
    4908: c9 00        	cmp	#$0
    490a: 90 f4        	bcc	$4900 <malloc+0x1f>
    490c: a8           	tay
    490d: a5 16        	lda	$16                     ; 0x16 <__rc6>
    490f: 29 01        	and	#$1
    4911: a2 02        	ldx	#$2
    4913: 64 14        	stz	$14                     ; 0x14 <__rc4>
    4915: c9 00        	cmp	#$0
    4917: f0 02        	beq	$491b <malloc+0x3a>
    4919: a2 03        	ldx	#$3
    491b: 86 15        	stx	$15                     ; 0x15 <__rc5>
    491d: 18           	clc
    491e: a5 16        	lda	$16                     ; 0x16 <__rc6>
    4920: 65 15        	adc	$15                     ; 0x15 <__rc5>
    4922: aa           	tax
    4923: 98           	tya
    4924: 65 14        	adc	$14                     ; 0x14 <__rc4>
    4926: 90 03        	bcc	$492b <malloc+0x4a>
    4928: 4c 03 4a     	jmp	$4a03 <malloc+0x122>
    492b: 86 14        	stx	$14                     ; 0x14 <__rc4>
    492d: 86 89        	stx	$89                     ; 0x89 <__zp_bss_size+0x30>
    492f: aa           	tax
    4930: d0 07        	bne	$4939 <malloc+0x58>
    4932: a6 14        	ldx	$14                     ; 0x14 <__rc4>
    4934: d0 03        	bne	$4939 <malloc+0x58>
    4936: 4c 03 4a     	jmp	$4a03 <malloc+0x122>
    4939: 85 8c        	sta	$8c                     ; 0x8c <__zp_bss_size+0x33>
    493b: a5 84        	lda	$84                     ; 0x84 <_ZN12_GLOBAL__N_111initializedE>
    493d: 29 01        	and	#$1
    493f: d0 39        	bne	$497a <malloc+0x99>
    4941: a9 00        	lda	#$0
    4943: a2 10        	ldx	#$10
    4945: a0 18        	ldy	#$18
    4947: 84 14        	sty	$14                     ; 0x14 <__rc4>
    4949: a0 51        	ldy	#$51
    494b: 84 15        	sty	$15                     ; 0x15 <__rc5>
    494d: a4 12        	ldy	$12                     ; 0x12 <__rc2>
    494f: 84 8a        	sty	$8a                     ; 0x8a <__zp_bss_size+0x31>
    4951: a4 13        	ldy	$13                     ; 0x13 <__rc3>
    4953: 84 8b        	sty	$8b                     ; 0x8b <__zp_bss_size+0x32>
    4955: a0 18        	ldy	#$18
    4957: 84 12        	sty	$12                     ; 0x12 <__rc2>
    4959: a0 51        	ldy	#$51
    495b: 84 13        	sty	$13                     ; 0x13 <__rc3>
    495d: 20 16 03     	jsr	$316 <_ZN12_GLOBAL__N_19FreeChunk6insertEPvj>
    4960: a6 8a        	ldx	$8a                     ; 0x8a <__zp_bss_size+0x31>
    4962: 86 12        	stx	$12                     ; 0x12 <__rc2>
    4964: a6 8b        	ldx	$8b                     ; 0x8b <__zp_bss_size+0x32>
    4966: 86 13        	stx	$13                     ; 0x13 <__rc3>
    4968: ae 19 51     	ldx	$5119                   ; 0x5119 <__heap_start+0x1>
    496b: a9 fe        	lda	#$fe
    496d: 2d 18 51     	and	$5118                   ; 0x5118 <__heap_start>
    4970: 8d 18 51     	sta	$5118                   ; 0x5118 <__heap_start>
    4973: 8e 19 51     	stx	$5119                   ; 0x5119 <__heap_start+0x1>
    4976: a2 01        	ldx	#$1
    4978: 86 84        	stx	$84                     ; 0x84 <_ZN12_GLOBAL__N_111initializedE>
    497a: a5 87        	lda	$87                     ; 0x87 <_ZN12_GLOBAL__N_19free_listE>
    497c: a6 88        	ldx	$88                     ; 0x88 <_ZN12_GLOBAL__N_19free_listE+0x1>
    497e: a0 00        	ldy	#$0
    4980: 84 14        	sty	$14                     ; 0x14 <__rc4>
    4982: a0 00        	ldy	#$0
    4984: 84 15        	sty	$15                     ; 0x15 <__rc5>
    4986: 86 1d        	stx	$1d                     ; 0x1d <__rc13>
    4988: e4 15        	cpx	$15                     ; 0x15 <__rc5>
    498a: d0 07        	bne	$4993 <malloc+0xb2>
    498c: c5 14        	cmp	$14                     ; 0x14 <__rc4>
    498e: d0 03        	bne	$4993 <malloc+0xb2>
    4990: 4c 03 4a     	jmp	$4a03 <malloc+0x122>
    4993: a0 00        	ldy	#$0
    4995: a2 10        	ldx	#$10
    4997: 85 18        	sta	$18                     ; 0x18 <__rc8>
    4999: 84 14        	sty	$14                     ; 0x14 <__rc4>
    499b: 86 15        	stx	$15                     ; 0x15 <__rc5>
    499d: 18           	clc
    499e: a9 18        	lda	#$18
    49a0: 65 14        	adc	$14                     ; 0x14 <__rc4>
    49a2: 85 14        	sta	$14                     ; 0x14 <__rc4>
    49a4: a9 51        	lda	#$51
    49a6: 65 15        	adc	$15                     ; 0x15 <__rc5>
    49a8: a6 14        	ldx	$14                     ; 0x14 <__rc4>
    49aa: 86 8d        	stx	$8d                     ; 0x8d <__zp_bss_size+0x34>
    49ac: a6 18        	ldx	$18                     ; 0x18 <__rc8>
    49ae: 86 8a        	stx	$8a                     ; 0x8a <__zp_bss_size+0x31>
    49b0: 85 17        	sta	$17                     ; 0x17 <__rc7>
    49b2: a6 18        	ldx	$18                     ; 0x18 <__rc8>
    49b4: 86 14        	stx	$14                     ; 0x14 <__rc4>
    49b6: a6 1d        	ldx	$1d                     ; 0x1d <__rc13>
    49b8: 86 15        	stx	$15                     ; 0x15 <__rc5>
    49ba: a0 01        	ldy	#$1
    49bc: a6 8c        	ldx	$8c                     ; 0x8c <__zp_bss_size+0x33>
    49be: 86 18        	stx	$18                     ; 0x18 <__rc8>
    49c0: b1 14        	lda	($14),y                 ; 0x14 <__rc4>
    49c2: 85 19        	sta	$19                     ; 0x19 <__rc9>
    49c4: aa           	tax
    49c5: a9 fe        	lda	#$fe
    49c7: 32 14        	and	($14)                   ; 0x14 <__rc4>
    49c9: 85 1a        	sta	$1a                     ; 0x1a <__rc10>
    49cb: e4 18        	cpx	$18                     ; 0x18 <__rc8>
    49cd: d0 0a        	bne	$49d9 <malloc+0xf8>
    49cf: a6 89        	ldx	$89                     ; 0x89 <__zp_bss_size+0x30>
    49d1: 86 1b        	stx	$1b                     ; 0x1b <__rc11>
    49d3: c5 1b        	cmp	$1b                     ; 0x1b <__rc11>
    49d5: b0 2d        	bcs	$4a04 <malloc+0x123>
    49d7: 80 04        	bra	$49dd <malloc+0xfc>
    49d9: e4 18        	cpx	$18                     ; 0x18 <__rc8>
    49db: b0 27        	bcs	$4a04 <malloc+0x123>
    49dd: a5 14        	lda	$14                     ; 0x14 <__rc4>
    49df: 18           	clc
    49e0: 69 02        	adc	#$2
    49e2: 85 1a        	sta	$1a                     ; 0x1a <__rc10>
    49e4: a5 15        	lda	$15                     ; 0x15 <__rc5>
    49e6: 69 00        	adc	#$0
    49e8: 85 1b        	sta	$1b                     ; 0x1b <__rc11>
    49ea: a0 02        	ldy	#$2
    49ec: b1 14        	lda	($14),y                 ; 0x14 <__rc4>
    49ee: 85 14        	sta	$14                     ; 0x14 <__rc4>
    49f0: 88           	dey
    49f1: b1 1a        	lda	($1a),y                 ; 0x1a <__rc10>
    49f3: 85 15        	sta	$15                     ; 0x15 <__rc5>
    49f5: c5 1d        	cmp	$1d                     ; 0x1d <__rc13>
    49f7: d0 c7        	bne	$49c0 <malloc+0xdf>
    49f9: a5 14        	lda	$14                     ; 0x14 <__rc4>
    49fb: a6 8a        	ldx	$8a                     ; 0x8a <__zp_bss_size+0x31>
    49fd: 86 19        	stx	$19                     ; 0x19 <__rc9>
    49ff: c5 19        	cmp	$19                     ; 0x19 <__rc9>
    4a01: d0 bd        	bne	$49c0 <malloc+0xdf>
    4a03: 60           	rts
    4a04: a5 85        	lda	$85                     ; 0x85 <_ZN12_GLOBAL__N_19free_sizeE>
    4a06: a6 86        	ldx	$86                     ; 0x86 <_ZN12_GLOBAL__N_19free_sizeE+0x1>
    4a08: 86 12        	stx	$12                     ; 0x12 <__rc2>
    4a0a: 38           	sec
    4a0b: e5 1a        	sbc	$1a                     ; 0x1a <__rc10>
    4a0d: aa           	tax
    4a0e: a5 12        	lda	$12                     ; 0x12 <__rc2>
    4a10: e5 19        	sbc	$19                     ; 0x19 <__rc9>
    4a12: 85 12        	sta	$12                     ; 0x12 <__rc2>
    4a14: 18           	clc
    4a15: 8a           	txa
    4a16: 69 02        	adc	#$2
    4a18: 85 13        	sta	$13                     ; 0x13 <__rc3>
    4a1a: a5 12        	lda	$12                     ; 0x12 <__rc2>
    4a1c: 69 00        	adc	#$0
    4a1e: a6 13        	ldx	$13                     ; 0x13 <__rc3>
    4a20: 86 85        	stx	$85                     ; 0x85 <_ZN12_GLOBAL__N_19free_sizeE>
    4a22: 85 86        	sta	$86                     ; 0x86 <_ZN12_GLOBAL__N_19free_sizeE+0x1>
    4a24: a0 02        	ldy	#$2
    4a26: a5 14        	lda	$14                     ; 0x14 <__rc4>
    4a28: 18           	clc
    4a29: 69 02        	adc	#$2
    4a2b: 85 12        	sta	$12                     ; 0x12 <__rc2>
    4a2d: a5 15        	lda	$15                     ; 0x15 <__rc5>
    4a2f: 69 00        	adc	#$0
    4a31: 85 13        	sta	$13                     ; 0x13 <__rc3>
    4a33: b1 14        	lda	($14),y                 ; 0x14 <__rc4>
    4a35: 85 1e        	sta	$1e                     ; 0x1e <__rc14>
    4a37: 88           	dey
    4a38: b1 12        	lda	($12),y                 ; 0x12 <__rc2>
    4a3a: 85 1f        	sta	$1f                     ; 0x1f <__rc15>
    4a3c: c5 15        	cmp	$15                     ; 0x15 <__rc5>
    4a3e: d0 15        	bne	$4a55 <malloc+0x174>
    4a40: a5 8c        	lda	$8c                     ; 0x8c <__zp_bss_size+0x33>
    4a42: a6 1e        	ldx	$1e                     ; 0x1e <__rc14>
    4a44: e4 14        	cpx	$14                     ; 0x14 <__rc4>
    4a46: d0 0d        	bne	$4a55 <malloc+0x174>
    4a48: 85 1a        	sta	$1a                     ; 0x1a <__rc10>
    4a4a: a2 00        	ldx	#$0
    4a4c: 86 18        	stx	$18                     ; 0x18 <__rc8>
    4a4e: a2 00        	ldx	#$0
    4a50: 86 19        	stx	$19                     ; 0x19 <__rc9>
    4a52: 4c d8 4a     	jmp	$4ad8 <malloc+0x1f7>
    4a55: 18           	clc
    4a56: a5 14        	lda	$14                     ; 0x14 <__rc4>
    4a58: 69 04        	adc	#$4
    4a5a: 85 18        	sta	$18                     ; 0x18 <__rc8>
    4a5c: a5 15        	lda	$15                     ; 0x15 <__rc5>
    4a5e: 69 00        	adc	#$0
    4a60: 85 19        	sta	$19                     ; 0x19 <__rc9>
    4a62: a0 04        	ldy	#$4
    4a64: b1 14        	lda	($14),y                 ; 0x14 <__rc4>
    4a66: 85 16        	sta	$16                     ; 0x16 <__rc6>
    4a68: 18           	clc
    4a69: 69 02        	adc	#$2
    4a6b: 85 1a        	sta	$1a                     ; 0x1a <__rc10>
    4a6d: a0 01        	ldy	#$1
    4a6f: b1 18        	lda	($18),y                 ; 0x18 <__rc8>
    4a71: aa           	tax
    4a72: 84 22        	sty	$22                     ; 0x22 <__rc18>
    4a74: 69 00        	adc	#$0
    4a76: a4 1a        	ldy	$1a                     ; 0x1a <__rc10>
    4a78: 84 18        	sty	$18                     ; 0x18 <__rc8>
    4a7a: 85 19        	sta	$19                     ; 0x19 <__rc9>
    4a7c: a4 16        	ldy	$16                     ; 0x16 <__rc6>
    4a7e: 84 1a        	sty	$1a                     ; 0x1a <__rc10>
    4a80: 86 1b        	stx	$1b                     ; 0x1b <__rc11>
    4a82: a5 1e        	lda	$1e                     ; 0x1e <__rc14>
    4a84: a0 02        	ldy	#$2
    4a86: 91 1a        	sta	($1a),y                 ; 0x1a <__rc10>
    4a88: 84 1e        	sty	$1e                     ; 0x1e <__rc14>
    4a8a: a5 1f        	lda	$1f                     ; 0x1f <__rc15>
    4a8c: a4 22        	ldy	$22                     ; 0x22 <__rc18>
    4a8e: 91 18        	sta	($18),y                 ; 0x18 <__rc8>
    4a90: 18           	clc
    4a91: a5 14        	lda	$14                     ; 0x14 <__rc4>
    4a93: 69 02        	adc	#$2
    4a95: 85 1a        	sta	$1a                     ; 0x1a <__rc10>
    4a97: a5 15        	lda	$15                     ; 0x15 <__rc5>
    4a99: 69 00        	adc	#$0
    4a9b: 85 1b        	sta	$1b                     ; 0x1b <__rc11>
    4a9d: a4 1e        	ldy	$1e                     ; 0x1e <__rc14>
    4a9f: b1 14        	lda	($14),y                 ; 0x14 <__rc4>
    4aa1: 85 18        	sta	$18                     ; 0x18 <__rc8>
    4aa3: 85 1e        	sta	$1e                     ; 0x1e <__rc14>
    4aa5: a4 22        	ldy	$22                     ; 0x22 <__rc18>
    4aa7: b1 1a        	lda	($1a),y                 ; 0x1a <__rc10>
    4aa9: 84 1c        	sty	$1c                     ; 0x1c <__rc12>
    4aab: 85 19        	sta	$19                     ; 0x19 <__rc9>
    4aad: 85 1a        	sta	$1a                     ; 0x1a <__rc10>
    4aaf: a5 16        	lda	$16                     ; 0x16 <__rc6>
    4ab1: a0 04        	ldy	#$4
    4ab3: 91 18        	sta	($18),y                 ; 0x18 <__rc8>
    4ab5: 18           	clc
    4ab6: a5 1e        	lda	$1e                     ; 0x1e <__rc14>
    4ab8: 69 04        	adc	#$4
    4aba: a8           	tay
    4abb: a5 1a        	lda	$1a                     ; 0x1a <__rc10>
    4abd: 69 00        	adc	#$0
    4abf: 84 1a        	sty	$1a                     ; 0x1a <__rc10>
    4ac1: 85 1b        	sta	$1b                     ; 0x1b <__rc11>
    4ac3: 8a           	txa
    4ac4: a4 1c        	ldy	$1c                     ; 0x1c <__rc12>
    4ac6: 91 1a        	sta	($1a),y                 ; 0x1a <__rc10>
    4ac8: a5 8c        	lda	$8c                     ; 0x8c <__zp_bss_size+0x33>
    4aca: 85 1a        	sta	$1a                     ; 0x1a <__rc10>
    4acc: a6 1d        	ldx	$1d                     ; 0x1d <__rc13>
    4ace: e4 15        	cpx	$15                     ; 0x15 <__rc5>
    4ad0: d0 0e        	bne	$4ae0 <malloc+0x1ff>
    4ad2: a6 8a        	ldx	$8a                     ; 0x8a <__zp_bss_size+0x31>
    4ad4: e4 14        	cpx	$14                     ; 0x14 <__rc4>
    4ad6: d0 08        	bne	$4ae0 <malloc+0x1ff>
    4ad8: a6 18        	ldx	$18                     ; 0x18 <__rc8>
    4ada: a4 19        	ldy	$19                     ; 0x19 <__rc9>
    4adc: 86 87        	stx	$87                     ; 0x87 <_ZN12_GLOBAL__N_19free_listE>
    4ade: 84 88        	sty	$88                     ; 0x88 <_ZN12_GLOBAL__N_19free_listE+0x1>
    4ae0: a0 01        	ldy	#$1
    4ae2: b1 14        	lda	($14),y                 ; 0x14 <__rc4>
    4ae4: 85 16        	sta	$16                     ; 0x16 <__rc6>
    4ae6: a9 fe        	lda	#$fe
    4ae8: 32 14        	and	($14)                   ; 0x14 <__rc4>
    4aea: 38           	sec
    4aeb: a6 89        	ldx	$89                     ; 0x89 <__zp_bss_size+0x30>
    4aed: 86 18        	stx	$18                     ; 0x18 <__rc8>
    4aef: a8           	tay
    4af0: e5 18        	sbc	$18                     ; 0x18 <__rc8>
    4af2: 85 19        	sta	$19                     ; 0x19 <__rc9>
    4af4: a5 16        	lda	$16                     ; 0x16 <__rc6>
    4af6: a6 16        	ldx	$16                     ; 0x16 <__rc6>
    4af8: e5 1a        	sbc	$1a                     ; 0x1a <__rc10>
    4afa: f0 03        	beq	$4aff <malloc+0x21e>
    4afc: 4c 8b 4b     	jmp	$4b8b <malloc+0x2aa>
    4aff: 85 16        	sta	$16                     ; 0x16 <__rc6>
    4b01: a5 19        	lda	$19                     ; 0x19 <__rc9>
    4b03: c9 08        	cmp	#$8
    4b05: 86 18        	stx	$18                     ; 0x18 <__rc8>
    4b07: b0 03        	bcs	$4b0c <malloc+0x22b>
    4b09: 4c 6e 4b     	jmp	$4b6e <malloc+0x28d>
    4b0c: a6 17        	ldx	$17                     ; 0x17 <__rc7>
    4b0e: 86 90        	stx	$90                     ; 0x90 <__zp_bss_size+0x37>
    4b10: a6 8d        	ldx	$8d                     ; 0x8d <__zp_bss_size+0x34>
    4b12: 86 8d        	stx	$8d                     ; 0x8d <__zp_bss_size+0x34>
    4b14: a6 12        	ldx	$12                     ; 0x12 <__rc2>
    4b16: 86 8a        	stx	$8a                     ; 0x8a <__zp_bss_size+0x31>
    4b18: a6 13        	ldx	$13                     ; 0x13 <__rc3>
    4b1a: 86 8b        	stx	$8b                     ; 0x8b <__zp_bss_size+0x32>
    4b1c: a8           	tay
    4b1d: 18           	clc
    4b1e: a6 89        	ldx	$89                     ; 0x89 <__zp_bss_size+0x30>
    4b20: 86 89        	stx	$89                     ; 0x89 <__zp_bss_size+0x30>
    4b22: 8a           	txa
    4b23: 65 14        	adc	$14                     ; 0x14 <__rc4>
    4b25: 85 12        	sta	$12                     ; 0x12 <__rc2>
    4b27: a5 1a        	lda	$1a                     ; 0x1a <__rc10>
    4b29: a6 1a        	ldx	$1a                     ; 0x1a <__rc10>
    4b2b: 86 8c        	stx	$8c                     ; 0x8c <__zp_bss_size+0x33>
    4b2d: 65 15        	adc	$15                     ; 0x15 <__rc5>
    4b2f: 85 13        	sta	$13                     ; 0x13 <__rc3>
    4b31: a6 16        	ldx	$16                     ; 0x16 <__rc6>
    4b33: 98           	tya
    4b34: a4 14        	ldy	$14                     ; 0x14 <__rc4>
    4b36: 84 8e        	sty	$8e                     ; 0x8e <__zp_bss_size+0x35>
    4b38: a4 15        	ldy	$15                     ; 0x15 <__rc5>
    4b3a: 84 8f        	sty	$8f                     ; 0x8f <__zp_bss_size+0x36>
    4b3c: 20 16 03     	jsr	$316 <_ZN12_GLOBAL__N_19FreeChunk6insertEPvj>
    4b3f: a6 8e        	ldx	$8e                     ; 0x8e <__zp_bss_size+0x35>
    4b41: 86 14        	stx	$14                     ; 0x14 <__rc4>
    4b43: a6 8f        	ldx	$8f                     ; 0x8f <__zp_bss_size+0x36>
    4b45: 86 15        	stx	$15                     ; 0x15 <__rc5>
    4b47: a5 89        	lda	$89                     ; 0x89 <__zp_bss_size+0x30>
    4b49: 29 fe        	and	#$fe
    4b4b: 85 12        	sta	$12                     ; 0x12 <__rc2>
    4b4d: a0 01        	ldy	#$1
    4b4f: 98           	tya
    4b50: 32 14        	and	($14)                   ; 0x14 <__rc4>
    4b52: 05 12        	ora	$12                     ; 0x12 <__rc2>
    4b54: 92 14        	sta	($14)                   ; 0x14 <__rc4>
    4b56: a5 8c        	lda	$8c                     ; 0x8c <__zp_bss_size+0x33>
    4b58: 91 14        	sta	($14),y                 ; 0x14 <__rc4>
    4b5a: a4 12        	ldy	$12                     ; 0x12 <__rc2>
    4b5c: 85 18        	sta	$18                     ; 0x18 <__rc8>
    4b5e: a6 8a        	ldx	$8a                     ; 0x8a <__zp_bss_size+0x31>
    4b60: 86 12        	stx	$12                     ; 0x12 <__rc2>
    4b62: a6 8b        	ldx	$8b                     ; 0x8b <__zp_bss_size+0x32>
    4b64: 86 13        	stx	$13                     ; 0x13 <__rc3>
    4b66: a6 8d        	ldx	$8d                     ; 0x8d <__zp_bss_size+0x34>
    4b68: 86 8d        	stx	$8d                     ; 0x8d <__zp_bss_size+0x34>
    4b6a: a6 90        	ldx	$90                     ; 0x90 <__zp_bss_size+0x37>
    4b6c: 86 17        	stx	$17                     ; 0x17 <__rc7>
    4b6e: 18           	clc
    4b6f: 98           	tya
    4b70: 65 14        	adc	$14                     ; 0x14 <__rc4>
    4b72: 85 16        	sta	$16                     ; 0x16 <__rc6>
    4b74: a5 15        	lda	$15                     ; 0x15 <__rc5>
    4b76: 65 18        	adc	$18                     ; 0x18 <__rc8>
    4b78: 85 15        	sta	$15                     ; 0x15 <__rc5>
    4b7a: c5 17        	cmp	$17                     ; 0x17 <__rc7>
    4b7c: d0 1a        	bne	$4b98 <malloc+0x2b7>
    4b7e: a6 8d        	ldx	$8d                     ; 0x8d <__zp_bss_size+0x34>
    4b80: 86 14        	stx	$14                     ; 0x14 <__rc4>
    4b82: a6 16        	ldx	$16                     ; 0x16 <__rc6>
    4b84: e4 14        	cpx	$14                     ; 0x14 <__rc4>
    4b86: d0 12        	bne	$4b9a <malloc+0x2b9>
    4b88: 4c 03 4a     	jmp	$4a03 <malloc+0x122>
    4b8b: 85 16        	sta	$16                     ; 0x16 <__rc6>
    4b8d: c9 00        	cmp	#$0
    4b8f: 86 18        	stx	$18                     ; 0x18 <__rc8>
    4b91: a5 19        	lda	$19                     ; 0x19 <__rc9>
    4b93: 90 d9        	bcc	$4b6e <malloc+0x28d>
    4b95: 4c 0c 4b     	jmp	$4b0c <malloc+0x22b>
    4b98: a6 16        	ldx	$16                     ; 0x16 <__rc6>
    4b9a: 86 14        	stx	$14                     ; 0x14 <__rc4>
    4b9c: a0 01        	ldy	#$1
    4b9e: b1 14        	lda	($14),y                 ; 0x14 <__rc4>
    4ba0: 85 16        	sta	$16                     ; 0x16 <__rc6>
    4ba2: a9 fe        	lda	#$fe
    4ba4: 32 14        	and	($14)                   ; 0x14 <__rc4>
    4ba6: 92 14        	sta	($14)                   ; 0x14 <__rc4>
    4ba8: a5 16        	lda	$16                     ; 0x16 <__rc6>
    4baa: 91 14        	sta	($14),y                 ; 0x14 <__rc4>
    4bac: 60           	rts

00004bad <memcpy>:
    4bad: a8           	tay
    4bae: 8a           	txa
    4baf: d0 03        	bne	$4bb4 <memcpy+0x7>
    4bb1: 98           	tya
    4bb2: f0 24        	beq	$4bd8 <memcpy+0x2b>
    4bb4: a5 12        	lda	$12                     ; 0x12 <__rc2>
    4bb6: 85 16        	sta	$16                     ; 0x16 <__rc6>
    4bb8: a5 13        	lda	$13                     ; 0x13 <__rc3>
    4bba: 85 17        	sta	$17                     ; 0x17 <__rc7>
    4bbc: b2 14        	lda	($14)                   ; 0x14 <__rc4>
    4bbe: 92 16        	sta	($16)                   ; 0x16 <__rc6>
    4bc0: e6 16        	inc	$16                     ; 0x16 <__rc6>
    4bc2: d0 02        	bne	$4bc6 <memcpy+0x19>
    4bc4: e6 17        	inc	$17                     ; 0x17 <__rc7>
    4bc6: e6 14        	inc	$14                     ; 0x14 <__rc4>
    4bc8: d0 02        	bne	$4bcc <memcpy+0x1f>
    4bca: e6 15        	inc	$15                     ; 0x15 <__rc5>
    4bcc: 88           	dey
    4bcd: c0 ff        	cpy	#$ff
    4bcf: d0 01        	bne	$4bd2 <memcpy+0x25>
    4bd1: ca           	dex
    4bd2: 8a           	txa
    4bd3: d0 e7        	bne	$4bbc <memcpy+0xf>
    4bd5: 98           	tya
    4bd6: d0 e4        	bne	$4bbc <memcpy+0xf>
    4bd8: 60           	rts

00004bd9 <__memset>:
    4bd9: a4 14        	ldy	$14                     ; 0x14 <__rc4>
    4bdb: d0 04        	bne	$4be1 <__memset+0x8>
    4bdd: e0 00        	cpx	#$0
    4bdf: f0 17        	beq	$4bf8 <__memset+0x1f>
    4be1: 92 12        	sta	($12)                   ; 0x12 <__rc2>
    4be3: e6 12        	inc	$12                     ; 0x12 <__rc2>
    4be5: d0 02        	bne	$4be9 <__memset+0x10>
    4be7: e6 13        	inc	$13                     ; 0x13 <__rc3>
    4be9: ca           	dex
    4bea: e0 ff        	cpx	#$ff
    4bec: d0 02        	bne	$4bf0 <__memset+0x17>
    4bee: c6 14        	dec	$14                     ; 0x14 <__rc4>
    4bf0: a4 14        	ldy	$14                     ; 0x14 <__rc4>
    4bf2: d0 ed        	bne	$4be1 <__memset+0x8>
    4bf4: e0 00        	cpx	#$0
    4bf6: d0 e9        	bne	$4be1 <__memset+0x8>
    4bf8: 60           	rts

00004bf9 <__udivsi3>:
    4bf9: 64 18        	stz	$18                     ; 0x18 <__rc8>
    4bfb: a4 17        	ldy	$17                     ; 0x17 <__rc7>
    4bfd: d0 0c        	bne	$4c0b <__udivsi3+0x12>
    4bff: a4 16        	ldy	$16                     ; 0x16 <__rc6>
    4c01: d0 08        	bne	$4c0b <__udivsi3+0x12>
    4c03: a4 15        	ldy	$15                     ; 0x15 <__rc5>
    4c05: d0 04        	bne	$4c0b <__udivsi3+0x12>
    4c07: a4 14        	ldy	$14                     ; 0x14 <__rc4>
    4c09: f0 27        	beq	$4c32 <__udivsi3+0x39>
    4c0b: 86 1e        	stx	$1e                     ; 0x1e <__rc14>
    4c0d: a6 12        	ldx	$12                     ; 0x12 <__rc2>
    4c0f: 86 1f        	stx	$1f                     ; 0x1f <__rc15>
    4c11: a6 13        	ldx	$13                     ; 0x13 <__rc3>
    4c13: 86 22        	stx	$22                     ; 0x22 <__rc18>
    4c15: e4 17        	cpx	$17                     ; 0x17 <__rc7>
    4c17: d0 15        	bne	$4c2e <__udivsi3+0x35>
    4c19: a6 12        	ldx	$12                     ; 0x12 <__rc2>
    4c1b: e4 16        	cpx	$16                     ; 0x16 <__rc6>
    4c1d: d0 18        	bne	$4c37 <__udivsi3+0x3e>
    4c1f: a6 1e        	ldx	$1e                     ; 0x1e <__rc14>
    4c21: e4 15        	cpx	$15                     ; 0x15 <__rc5>
    4c23: f0 03        	beq	$4c28 <__udivsi3+0x2f>
    4c25: 4c 4e 4d     	jmp	$4d4e <__udivsi3+0x155>
    4c28: c5 14        	cmp	$14                     ; 0x14 <__rc4>
    4c2a: 90 06        	bcc	$4c32 <__udivsi3+0x39>
    4c2c: 80 0d        	bra	$4c3b <__udivsi3+0x42>
    4c2e: e4 17        	cpx	$17                     ; 0x17 <__rc7>
    4c30: b0 09        	bcs	$4c3b <__udivsi3+0x42>
    4c32: 64 23        	stz	$23                     ; 0x23 <__rc19>
    4c34: 4c a1 4c     	jmp	$4ca1 <__udivsi3+0xa8>
    4c37: e4 16        	cpx	$16                     ; 0x16 <__rc6>
    4c39: 90 f7        	bcc	$4c32 <__udivsi3+0x39>
    4c3b: 85 1d        	sta	$1d                     ; 0x1d <__rc13>
    4c3d: a9 01        	lda	#$1
    4c3f: 85 23        	sta	$23                     ; 0x23 <__rc19>
    4c41: a5 17        	lda	$17                     ; 0x17 <__rc7>
    4c43: 10 03        	bpl	$4c48 <__udivsi3+0x4f>
    4c45: 4c a1 4c     	jmp	$4ca1 <__udivsi3+0xa8>
    4c48: a5 1e        	lda	$1e                     ; 0x1e <__rc14>
    4c4a: a2 00        	ldx	#$0
    4c4c: a4 14        	ldy	$14                     ; 0x14 <__rc4>
    4c4e: 84 19        	sty	$19                     ; 0x19 <__rc9>
    4c50: a4 15        	ldy	$15                     ; 0x15 <__rc5>
    4c52: 84 1a        	sty	$1a                     ; 0x1a <__rc10>
    4c54: a4 16        	ldy	$16                     ; 0x16 <__rc6>
    4c56: 84 1b        	sty	$1b                     ; 0x1b <__rc11>
    4c58: a4 17        	ldy	$17                     ; 0x17 <__rc7>
    4c5a: 84 1c        	sty	$1c                     ; 0x1c <__rc12>
    4c5c: 06 19        	asl	$19                     ; 0x19 <__rc9>
    4c5e: 26 1a        	rol	$1a                     ; 0x1a <__rc10>
    4c60: 26 1b        	rol	$1b                     ; 0x1b <__rc11>
    4c62: 26 1c        	rol	$1c                     ; 0x1c <__rc12>
    4c64: a4 22        	ldy	$22                     ; 0x22 <__rc18>
    4c66: c4 1c        	cpy	$1c                     ; 0x1c <__rc12>
    4c68: d0 12        	bne	$4c7c <__udivsi3+0x83>
    4c6a: a4 12        	ldy	$12                     ; 0x12 <__rc2>
    4c6c: c4 1b        	cpy	$1b                     ; 0x1b <__rc11>
    4c6e: d0 12        	bne	$4c82 <__udivsi3+0x89>
    4c70: c5 1a        	cmp	$1a                     ; 0x1a <__rc10>
    4c72: d0 14        	bne	$4c88 <__udivsi3+0x8f>
    4c74: a4 1d        	ldy	$1d                     ; 0x1d <__rc13>
    4c76: c4 19        	cpy	$19                     ; 0x19 <__rc9>
    4c78: 90 30        	bcc	$4caa <__udivsi3+0xb1>
    4c7a: 80 10        	bra	$4c8c <__udivsi3+0x93>
    4c7c: c4 1c        	cpy	$1c                     ; 0x1c <__rc12>
    4c7e: 90 2a        	bcc	$4caa <__udivsi3+0xb1>
    4c80: 80 0a        	bra	$4c8c <__udivsi3+0x93>
    4c82: c4 1b        	cpy	$1b                     ; 0x1b <__rc11>
    4c84: 90 24        	bcc	$4caa <__udivsi3+0xb1>
    4c86: 80 04        	bra	$4c8c <__udivsi3+0x93>
    4c88: c5 1a        	cmp	$1a                     ; 0x1a <__rc10>
    4c8a: 90 1e        	bcc	$4caa <__udivsi3+0xb1>
    4c8c: e8           	inx
    4c8d: a4 19        	ldy	$19                     ; 0x19 <__rc9>
    4c8f: 84 14        	sty	$14                     ; 0x14 <__rc4>
    4c91: a4 1a        	ldy	$1a                     ; 0x1a <__rc10>
    4c93: 84 15        	sty	$15                     ; 0x15 <__rc5>
    4c95: a4 1b        	ldy	$1b                     ; 0x1b <__rc11>
    4c97: 84 16        	sty	$16                     ; 0x16 <__rc6>
    4c99: a4 1c        	ldy	$1c                     ; 0x1c <__rc12>
    4c9b: 84 17        	sty	$17                     ; 0x17 <__rc7>
    4c9d: 10 bd        	bpl	$4c5c <__udivsi3+0x63>
    4c9f: 80 19        	bra	$4cba <__udivsi3+0xc1>
    4ca1: 64 12        	stz	$12                     ; 0x12 <__rc2>
    4ca3: 64 13        	stz	$13                     ; 0x13 <__rc3>
    4ca5: a6 18        	ldx	$18                     ; 0x18 <__rc8>
    4ca7: a5 23        	lda	$23                     ; 0x23 <__rc19>
    4ca9: 60           	rts
    4caa: a4 14        	ldy	$14                     ; 0x14 <__rc4>
    4cac: 84 19        	sty	$19                     ; 0x19 <__rc9>
    4cae: a4 15        	ldy	$15                     ; 0x15 <__rc5>
    4cb0: 84 1a        	sty	$1a                     ; 0x1a <__rc10>
    4cb2: a4 16        	ldy	$16                     ; 0x16 <__rc6>
    4cb4: 84 1b        	sty	$1b                     ; 0x1b <__rc11>
    4cb6: a4 17        	ldy	$17                     ; 0x17 <__rc7>
    4cb8: 84 1c        	sty	$1c                     ; 0x1c <__rc12>
    4cba: 64 12        	stz	$12                     ; 0x12 <__rc2>
    4cbc: 64 13        	stz	$13                     ; 0x13 <__rc3>
    4cbe: 8a           	txa
    4cbf: f0 e4        	beq	$4ca5 <__udivsi3+0xac>
    4cc1: 38           	sec
    4cc2: a5 1d        	lda	$1d                     ; 0x1d <__rc13>
    4cc4: e5 19        	sbc	$19                     ; 0x19 <__rc9>
    4cc6: 85 14        	sta	$14                     ; 0x14 <__rc4>
    4cc8: a5 1e        	lda	$1e                     ; 0x1e <__rc14>
    4cca: e5 1a        	sbc	$1a                     ; 0x1a <__rc10>
    4ccc: 85 17        	sta	$17                     ; 0x17 <__rc7>
    4cce: a5 1f        	lda	$1f                     ; 0x1f <__rc15>
    4cd0: e5 1b        	sbc	$1b                     ; 0x1b <__rc11>
    4cd2: 85 15        	sta	$15                     ; 0x15 <__rc5>
    4cd4: a5 22        	lda	$22                     ; 0x22 <__rc18>
    4cd6: e5 1c        	sbc	$1c                     ; 0x1c <__rc12>
    4cd8: 85 16        	sta	$16                     ; 0x16 <__rc6>
    4cda: a9 01        	lda	#$1
    4cdc: 85 23        	sta	$23                     ; 0x23 <__rc19>
    4cde: 64 18        	stz	$18                     ; 0x18 <__rc8>
    4ce0: 46 1c        	lsr	$1c                     ; 0x1c <__rc12>
    4ce2: 66 1b        	ror	$1b                     ; 0x1b <__rc11>
    4ce4: 66 1a        	ror	$1a                     ; 0x1a <__rc10>
    4ce6: 66 19        	ror	$19                     ; 0x19 <__rc9>
    4ce8: 06 23        	asl	$23                     ; 0x23 <__rc19>
    4cea: a0 01        	ldy	#$1
    4cec: b0 02        	bcs	$4cf0 <__udivsi3+0xf7>
    4cee: a0 00        	ldy	#$0
    4cf0: 84 1d        	sty	$1d                     ; 0x1d <__rc13>
    4cf2: a5 16        	lda	$16                     ; 0x16 <__rc6>
    4cf4: c5 1c        	cmp	$1c                     ; 0x1c <__rc12>
    4cf6: d0 14        	bne	$4d0c <__udivsi3+0x113>
    4cf8: a4 15        	ldy	$15                     ; 0x15 <__rc5>
    4cfa: c4 1b        	cpy	$1b                     ; 0x1b <__rc11>
    4cfc: d0 44        	bne	$4d42 <__udivsi3+0x149>
    4cfe: a4 17        	ldy	$17                     ; 0x17 <__rc7>
    4d00: c4 1a        	cpy	$1a                     ; 0x1a <__rc10>
    4d02: d0 44        	bne	$4d48 <__udivsi3+0x14f>
    4d04: a4 14        	ldy	$14                     ; 0x14 <__rc4>
    4d06: c4 19        	cpy	$19                     ; 0x19 <__rc9>
    4d08: b0 06        	bcs	$4d10 <__udivsi3+0x117>
    4d0a: 80 23        	bra	$4d2f <__udivsi3+0x136>
    4d0c: c5 1c        	cmp	$1c                     ; 0x1c <__rc12>
    4d0e: 90 1f        	bcc	$4d2f <__udivsi3+0x136>
    4d10: 38           	sec
    4d11: a5 14        	lda	$14                     ; 0x14 <__rc4>
    4d13: e5 19        	sbc	$19                     ; 0x19 <__rc9>
    4d15: 85 14        	sta	$14                     ; 0x14 <__rc4>
    4d17: a5 17        	lda	$17                     ; 0x17 <__rc7>
    4d19: e5 1a        	sbc	$1a                     ; 0x1a <__rc10>
    4d1b: 85 17        	sta	$17                     ; 0x17 <__rc7>
    4d1d: a5 15        	lda	$15                     ; 0x15 <__rc5>
    4d1f: e5 1b        	sbc	$1b                     ; 0x1b <__rc11>
    4d21: 85 15        	sta	$15                     ; 0x15 <__rc5>
    4d23: a5 16        	lda	$16                     ; 0x16 <__rc6>
    4d25: e5 1c        	sbc	$1c                     ; 0x1c <__rc12>
    4d27: 85 16        	sta	$16                     ; 0x16 <__rc6>
    4d29: a5 23        	lda	$23                     ; 0x23 <__rc19>
    4d2b: 09 01        	ora	#$1
    4d2d: 85 23        	sta	$23                     ; 0x23 <__rc19>
    4d2f: a4 1d        	ldy	$1d                     ; 0x1d <__rc13>
    4d31: c0 01        	cpy	#$1
    4d33: 26 18        	rol	$18                     ; 0x18 <__rc8>
    4d35: 26 12        	rol	$12                     ; 0x12 <__rc2>
    4d37: 26 13        	rol	$13                     ; 0x13 <__rc3>
    4d39: ca           	dex
    4d3a: f0 03        	beq	$4d3f <__udivsi3+0x146>
    4d3c: 4c e0 4c     	jmp	$4ce0 <__udivsi3+0xe7>
    4d3f: 4c a5 4c     	jmp	$4ca5 <__udivsi3+0xac>
    4d42: c4 1b        	cpy	$1b                     ; 0x1b <__rc11>
    4d44: b0 ca        	bcs	$4d10 <__udivsi3+0x117>
    4d46: 80 e7        	bra	$4d2f <__udivsi3+0x136>
    4d48: c4 1a        	cpy	$1a                     ; 0x1a <__rc10>
    4d4a: b0 c4        	bcs	$4d10 <__udivsi3+0x117>
    4d4c: 80 e1        	bra	$4d2f <__udivsi3+0x136>
    4d4e: e4 15        	cpx	$15                     ; 0x15 <__rc5>
    4d50: b0 03        	bcs	$4d55 <__udivsi3+0x15c>
    4d52: 4c 32 4c     	jmp	$4c32 <__udivsi3+0x39>
    4d55: 4c 3b 4c     	jmp	$4c3b <__udivsi3+0x42>

00004d58 <__mulhi3>:
    4d58: a4 13        	ldy	$13                     ; 0x13 <__rc3>
    4d5a: d0 04        	bne	$4d60 <__mulhi3+0x8>
    4d5c: a4 12        	ldy	$12                     ; 0x12 <__rc2>
    4d5e: f0 25        	beq	$4d85 <__mulhi3+0x2d>
    4d60: 85 14        	sta	$14                     ; 0x14 <__rc4>
    4d62: 86 15        	stx	$15                     ; 0x15 <__rc5>
    4d64: a0 00        	ldy	#$0
    4d66: 98           	tya
    4d67: 46 13        	lsr	$13                     ; 0x13 <__rc3>
    4d69: 66 12        	ror	$12                     ; 0x12 <__rc2>
    4d6b: 90 09        	bcc	$4d76 <__mulhi3+0x1e>
    4d6d: aa           	tax
    4d6e: 98           	tya
    4d6f: 18           	clc
    4d70: 65 14        	adc	$14                     ; 0x14 <__rc4>
    4d72: a8           	tay
    4d73: 8a           	txa
    4d74: 65 15        	adc	$15                     ; 0x15 <__rc5>
    4d76: 06 14        	asl	$14                     ; 0x14 <__rc4>
    4d78: 26 15        	rol	$15                     ; 0x15 <__rc5>
    4d7a: a6 13        	ldx	$13                     ; 0x13 <__rc3>
    4d7c: d0 e9        	bne	$4d67 <__mulhi3+0xf>
    4d7e: a6 12        	ldx	$12                     ; 0x12 <__rc2>
    4d80: d0 e5        	bne	$4d67 <__mulhi3+0xf>
    4d82: aa           	tax
    4d83: 98           	tya
    4d84: 60           	rts
    4d85: a0 00        	ldy	#$0
    4d87: 98           	tya
    4d88: 80 f8        	bra	$4d82 <__mulhi3+0x2a>

00004d8a <__mulsi3>:
    4d8a: a4 17        	ldy	$17                     ; 0x17 <__rc7>
    4d8c: d0 0f        	bne	$4d9d <__mulsi3+0x13>
    4d8e: a4 16        	ldy	$16                     ; 0x16 <__rc6>
    4d90: d0 0b        	bne	$4d9d <__mulsi3+0x13>
    4d92: a4 15        	ldy	$15                     ; 0x15 <__rc5>
    4d94: d0 07        	bne	$4d9d <__mulsi3+0x13>
    4d96: a4 14        	ldy	$14                     ; 0x14 <__rc4>
    4d98: d0 03        	bne	$4d9d <__mulsi3+0x13>
    4d9a: 4c f1 4d     	jmp	$4df1 <__mulsi3+0x67>
    4d9d: 85 18        	sta	$18                     ; 0x18 <__rc8>
    4d9f: 86 19        	stx	$19                     ; 0x19 <__rc9>
    4da1: a0 00        	ldy	#$0
    4da3: a2 00        	ldx	#$0
    4da5: 64 1a        	stz	$1a                     ; 0x1a <__rc10>
    4da7: 98           	tya
    4da8: 46 17        	lsr	$17                     ; 0x17 <__rc7>
    4daa: 66 16        	ror	$16                     ; 0x16 <__rc6>
    4dac: 66 15        	ror	$15                     ; 0x15 <__rc5>
    4dae: 66 14        	ror	$14                     ; 0x14 <__rc4>
    4db0: 90 15        	bcc	$4dc7 <__mulsi3+0x3d>
    4db2: 85 1b        	sta	$1b                     ; 0x1b <__rc11>
    4db4: 98           	tya
    4db5: 18           	clc
    4db6: 65 18        	adc	$18                     ; 0x18 <__rc8>
    4db8: a8           	tay
    4db9: 8a           	txa
    4dba: 65 19        	adc	$19                     ; 0x19 <__rc9>
    4dbc: aa           	tax
    4dbd: a5 1a        	lda	$1a                     ; 0x1a <__rc10>
    4dbf: 65 12        	adc	$12                     ; 0x12 <__rc2>
    4dc1: 85 1a        	sta	$1a                     ; 0x1a <__rc10>
    4dc3: a5 1b        	lda	$1b                     ; 0x1b <__rc11>
    4dc5: 65 13        	adc	$13                     ; 0x13 <__rc3>
    4dc7: 06 18        	asl	$18                     ; 0x18 <__rc8>
    4dc9: 26 19        	rol	$19                     ; 0x19 <__rc9>
    4dcb: 26 12        	rol	$12                     ; 0x12 <__rc2>
    4dcd: 26 13        	rol	$13                     ; 0x13 <__rc3>
    4dcf: e6 17        	inc	$17                     ; 0x17 <__rc7>
    4dd1: c6 17        	dec	$17                     ; 0x17 <__rc7>
    4dd3: d0 d3        	bne	$4da8 <__mulsi3+0x1e>
    4dd5: e6 16        	inc	$16                     ; 0x16 <__rc6>
    4dd7: c6 16        	dec	$16                     ; 0x16 <__rc6>
    4dd9: d0 cd        	bne	$4da8 <__mulsi3+0x1e>
    4ddb: e6 15        	inc	$15                     ; 0x15 <__rc5>
    4ddd: c6 15        	dec	$15                     ; 0x15 <__rc5>
    4ddf: d0 c7        	bne	$4da8 <__mulsi3+0x1e>
    4de1: e6 14        	inc	$14                     ; 0x14 <__rc4>
    4de3: c6 14        	dec	$14                     ; 0x14 <__rc4>
    4de5: d0 c1        	bne	$4da8 <__mulsi3+0x1e>
    4de7: 5a           	phy
    4de8: a4 1a        	ldy	$1a                     ; 0x1a <__rc10>
    4dea: 84 12        	sty	$12                     ; 0x12 <__rc2>
    4dec: 7a           	ply
    4ded: 85 13        	sta	$13                     ; 0x13 <__rc3>
    4def: 98           	tya
    4df0: 60           	rts
    4df1: a0 00        	ldy	#$0
    4df3: a2 00        	ldx	#$0
    4df5: 64 1a        	stz	$1a                     ; 0x1a <__rc10>
    4df7: 98           	tya
    4df8: 80 ed        	bra	$4de7 <__mulsi3+0x5d>
