
ParseNPlayMidi.elf:	file format elf32-mos

SYMBOL TABLE:
00000000 l    df *ABS*	00000000 zero-bss.c
00000000 l    df *ABS*	00000000 zero-zp-bss.c
00000000 l    df *ABS*	00000000 copy-zp-data.c
00000000 l    df *ABS*	00000000 ld-temp.o
00000061 l     O .zp.bss	00000007 kernelEventData
00000060 l     O .zp.data	00000001 _ccolor
00000030 l     O .zp.data	00000030 textColors
00000069 l     O .zp.bss	00000001 _col
0000006a l     O .zp.bss	00000001 _row
0000006b l     O .zp.bss	00000004 _BITMAP_BASE.0
00006856 l     O .bss	00000040 _spriteCtl
00000068 l     O .zp.bss	00000001 kernelError
00006515 l     O .rodata	00000038 plugin
00000079 l     O .zp.bss	00000001 theBigList.0
0000007a l     O .zp.bss	00000002 theBigList.1
0000007c l     O .zp.bss	00000002 theBigList.2
00003aa6 l     F .text	00000bb0 printf
00004a3f l     F .text	00000005 strlen
00000080 l     O .zp.bss	00000002 theMIDIfile
00004662 l     F .text	00000031 puts
00004a44 l     F .text	00000074 strstr
00000071 l     O .zp.bss	00000002 gFormat
00000073 l     O .zp.bss	00000002 trackcount
00004693 l     F .text	000001d0 malloc
0000007e l     O .zp.bss	00000002 parsers
0000231e l     F .text	000013eb parse
00000082 l     O .zp.bss	00000001 midiNoteTimer.1
00004863 l     F .text	00000190 free
00004656 l     F .text	0000000c putchar
00000075 l     O .zp.bss	00000004 tick
00004af6 l     F .text	00000070 __mulsi3
00004c5e l     F .text	0000016f __udivsi3
00006234 l     F .text	00000284 __floatunsidf
00004dcd l     F .text	000013e4 __muldf3
000061b1 l     F .text	00000083 __fixunsdfsi
00003709 l     F .text	000001ba __putchar
0000006f l     O .zp.bss	00000002 __putchar.s
000038c8 l     F .text	000000d1 _ZN12_GLOBAL__N_13putEcP6Status
00003999 l     F .text	0000010d _ZN12_GLOBAL__N_112print_stringEPKcP6Status
00000083 l     O .zp.bss	00000001 _ZN12_GLOBAL__N_111initializedE
0000034a l     F .text	00000133 _ZN12_GLOBAL__N_19FreeChunk6insertEPvj
00000084 l     O .zp.bss	00000001 _ZN12_GLOBAL__N_19last_freeE
00000087 l     O .zp.bss	00000002 _ZN12_GLOBAL__N_19free_listE
0000047e l     F .text	000000d7 _ZN12_GLOBAL__N_19FreeChunk6removeEv
00000085 l     O .zp.bss	00000002 _ZN12_GLOBAL__N_19free_sizeE
00004ab8 l     F .text	0000001f __ashldi3
00004ad7 l     F .text	0000001f __lshrdi3
00004b66 l     F .text	000000f8 __muldi3
00000592 g     F .text	00001d8c main
00010400 g       .palhuman2	00000000 palhuman2_end
0002ac00 g       .gfxhuman2gfx	00000000 gfxhuman2gfx_end
00016640 g       .peon5	00000000 peon5_end
00015b00 g       .peon4	00000000 peon4_start
00018000 g       .gfxhuman2gfx	00000000 gfxhuman2gfx_start
00014000 g       .peon1	00000000 peon1_start
00014240 g       .peon1	00000000 peon1_end
00015d40 g       .peon4	00000000 peon4_end
00015440 g       .peon3	00000000 peon3_end
00015200 g       .peon3	00000000 peon3_start
00016400 g       .peon5	00000000 peon5_start
00010000 g       .palhuman2	00000000 palhuman2_start
00014b40 g       .peon2	00000000 peon2_end
00014900 g       .peon2	00000000 peon2_start
00000346 g       .text	00000000 __after_main
00000332 g       .text	00000000 __do_init_stack
00000340 g       .text	00000000 __do_copy_zp_data
0000057b g     F .text	00000017 __copy_zp_data
0000033a g       .text	00000000 __do_zero_bss
00000555 g     F .text	00000013 __zero_bss
0000033d g       .text	00000000 __do_zero_zp_bss
00000568 g     F .text	00000013 __zero_zp_bss
000038c3 g     F .text	00000005 exit
00000349 g       .text	00000000 _fini
000064b8 g       .rodata	00000000 __set_v
00004a1f  w    F .text	00000020 __memset
00001000  w      *ABS*	00000000 __heap_default_limit
00006896 g       .noinit	00000000 __heap_start
000049f3  w    F .text	0000002c memcpy
00000010 g       *ABS*	00000000 __rc0
00000012 g       *ABS*	00000000 __rc2
00000014 g       *ABS*	00000000 __rc4
00000016 g       *ABS*	00000000 __rc6
00000018 g       *ABS*	00000000 __rc8
0000001a g       *ABS*	00000000 __rc10
0000001c g       *ABS*	00000000 __rc12
0000001e g       *ABS*	00000000 __rc14
00000020 g       *ABS*	00000000 __rc16
00000022 g       *ABS*	00000000 __rc18
00000024 g       *ABS*	00000000 __rc20
00000026 g       *ABS*	00000000 __rc22
00000028 g       *ABS*	00000000 __rc24
0000002a g       *ABS*	00000000 __rc26
0000002c g       *ABS*	00000000 __rc28
0000002e g       *ABS*	00000000 __rc30
0000002f g       *ABS*	00000000 __rc31
00000300 g       *ABS*	00000000 __f256_start
0000a000 g       *ABS*	00000000 __stack
0000a000 g       *ABS*	00000000 __SLOT_ADDR
0800a000 g       *ABS*	00000000 __block8_lma
00002000 g       *ABS*	00000000 __BLOCK_SIZE
0900a000 g       *ABS*	00000000 __block9_lma
0a00a000 g       *ABS*	00000000 __block10_lma
0b00a000 g       *ABS*	00000000 __block11_lma
0c00a000 g       *ABS*	00000000 __block12_lma
0d00a000 g       *ABS*	00000000 __block13_lma
0e00a000 g       *ABS*	00000000 __block14_lma
0f00a000 g       *ABS*	00000000 __block15_lma
1000a000 g       *ABS*	00000000 __block16_lma
1100a000 g       *ABS*	00000000 __block17_lma
1200a000 g       *ABS*	00000000 __block18_lma
1300a000 g       *ABS*	00000000 __block19_lma
1400a000 g       *ABS*	00000000 __block20_lma
1500a000 g       *ABS*	00000000 __block21_lma
1600a000 g       *ABS*	00000000 __block22_lma
1700a000 g       *ABS*	00000000 __block23_lma
00010000 g       *ABS*	00000000 __palhuman2_lma
00000400 g       *ABS*	00000000 __palhuman2_size
00014000 g       *ABS*	00000000 __peon1_lma
00000240 g       *ABS*	00000000 __peon1_size
00014900 g       *ABS*	00000000 __peon2_lma
00000240 g       *ABS*	00000000 __peon2_size
00015200 g       *ABS*	00000000 __peon3_lma
00000240 g       *ABS*	00000000 __peon3_size
00015b00 g       *ABS*	00000000 __peon4_lma
00000240 g       *ABS*	00000000 __peon4_size
00016400 g       *ABS*	00000000 __peon5_lma
00000240 g       *ABS*	00000000 __peon5_size
00018000 g       *ABS*	00000000 __gfxhuman2gfx_lma
00012c00 g       *ABS*	00000000 __gfxhuman2gfx_size
00006856 g       .bss	00000000 __bss_start
00010400 g       .palhuman2	00000000 end_palhuman2
00014240 g       .peon1	00000000 end_peon1
00014b40 g       .peon2	00000000 end_peon2
00015440 g       .peon3	00000000 end_peon3
00015d40 g       .peon4	00000000 end_peon4
00016640 g       .peon5	00000000 end_peon5
0002ac00 g       .gfxhuman2gfx	00000000 end_gfxhuman2gfx
00000332 g       .text	00000000 _start
0000002d g       *ABS*	00000000 __rc29
0000002b g       *ABS*	00000000 __rc27
00000029 g       *ABS*	00000000 __rc25
00000027 g       *ABS*	00000000 __rc23
00000025 g       *ABS*	00000000 __rc21
00000023 g       *ABS*	00000000 __rc19
00000021 g       *ABS*	00000000 __rc17
0000001f g       *ABS*	00000000 __rc15
0000001d g       *ABS*	00000000 __rc13
0000001b g       *ABS*	00000000 __rc11
00000019 g       *ABS*	00000000 __rc9
00000017 g       *ABS*	00000000 __rc7
00000015 g       *ABS*	00000000 __rc5
00000013 g       *ABS*	00000000 __rc3
00000011 g       *ABS*	00000000 __rc1
00000030 g       .zp.data	00000000 __zp_data_start
00000300 g       *ABS*	00000000 __zp_data_load_start
00000031 g       *ABS*	00000000 __zp_data_size
00000061 g       .zp.bss	00000000 __zp_bss_start
00000028 g       *ABS*	00000000 __zp_bss_size
00000332 g       .text	00000000 _init
000064b8 g       .text	00000000 __init_array_start
000064b8 g       .text	00000000 __init_array_end
000064b8 g       .text	00000000 __fini_array_start
000064b8 g       .text	00000000 __fini_array_end
00006856 g       .data	00000000 __data_start
00006856 g       .data	00000000 __data_end
00006856 g       *ABS*	00000000 __data_load_start
00000000 g       *ABS*	00000000 __data_size
00006896 g       .bss	00000000 __bss_end
00000040 g       *ABS*	00000000 __bss_size
00006896 g       .noinit	00000000 end_block8
00006896 g       .noinit	00000000 end_block9
00006896 g       .noinit	00000000 end_block10
00006896 g       .noinit	00000000 end_block11
00006896 g       .noinit	00000000 end_block12
00006896 g       .noinit	00000000 end_block13
00006896 g       .noinit	00000000 end_block14
00006896 g       .noinit	00000000 end_block15
00006896 g       .noinit	00000000 end_block16
00006896 g       .noinit	00000000 end_block17
00006896 g       .noinit	00000000 end_block18
00006896 g       .noinit	00000000 end_block19
00006896 g       .noinit	00000000 end_block20
00006896 g       .noinit	00000000 end_block21
00006896 g       .noinit	00000000 end_block22
00006896 g       .noinit	00000000 end_block23

Disassembly of section .text:

00000332 <_start>:
     332: a9 00        	lda	#$0
     334: 85 10        	sta	$10                     ; 0x2010 <main+0x1a7e>
     336: a9 a0        	lda	#$a0
     338: 85 11        	sta	$11                     ; 0x2011 <main+0x1a7f>

0000033a <__do_zero_bss>:
     33a: 20 55 05     	jsr	$555 <__zero_bss>

0000033d <__do_zero_zp_bss>:
     33d: 20 68 05     	jsr	$568 <__zero_zp_bss>

00000340 <__do_copy_zp_data>:
     340: 20 7b 05     	jsr	$57b <__copy_zp_data>
     343: 20 92 05     	jsr	$592 <main>

00000346 <__after_main>:
     346: 4c c3 38     	jmp	$38c3 <exit>

00000349 <_fini>:
     349: 60           	rts

0000034a <_ZN12_GLOBAL__N_19FreeChunk6insertEPvj>:
     34a: 85 16        	sta	$16                     ; 0x2016 <main+0x1a84>
     34c: 29 fe        	and	#$fe
     34e: 85 14        	sta	$14                     ; 0x2014 <main+0x1a82>
     350: a0 01        	ldy	#$1
     352: 98           	tya
     353: 32 12        	and	($12)                   ; 0x2012 <main+0x1a80>
     355: 05 14        	ora	$14                     ; 0x2014 <main+0x1a82>
     357: 92 12        	sta	($12)                   ; 0x2012 <main+0x1a80>
     359: a5 12        	lda	$12                     ; 0x2012 <main+0x1a80>
     35b: 18           	clc
     35c: 65 14        	adc	$14                     ; 0x2014 <main+0x1a82>
     35e: 85 15        	sta	$15                     ; 0x2015 <main+0x1a83>
     360: 8a           	txa
     361: 65 13        	adc	$13                     ; 0x2013 <main+0x1a81>
     363: 85 14        	sta	$14                     ; 0x2014 <main+0x1a82>
     365: 18           	clc
     366: a5 15        	lda	$15                     ; 0x2015 <main+0x1a83>
     368: 69 fe        	adc	#$fe
     36a: 85 17        	sta	$17                     ; 0x2017 <main+0x1a85>
     36c: a5 14        	lda	$14                     ; 0x2014 <main+0x1a82>
     36e: 69 ff        	adc	#$ff
     370: 85 15        	sta	$15                     ; 0x2015 <main+0x1a83>
     372: a5 17        	lda	$17                     ; 0x2017 <main+0x1a85>
     374: 85 14        	sta	$14                     ; 0x2014 <main+0x1a82>
     376: 8a           	txa
     377: 91 12        	sta	($12),y                 ; 0x2012 <main+0x1a80>
     379: a5 16        	lda	$16                     ; 0x2016 <main+0x1a84>
     37b: 92 14        	sta	($14)                   ; 0x2014 <main+0x1a82>
     37d: 8a           	txa
     37e: 91 14        	sta	($14),y                 ; 0x2014 <main+0x1a82>
     380: b1 12        	lda	($12),y                 ; 0x2012 <main+0x1a80>
     382: 85 14        	sta	$14                     ; 0x2014 <main+0x1a82>
     384: a9 fe        	lda	#$fe
     386: 32 12        	and	($12)                   ; 0x2012 <main+0x1a80>
     388: 18           	clc
     389: 65 85        	adc	$85                     ; 0x2085 <main+0x1af3>
     38b: aa           	tax
     38c: a5 14        	lda	$14                     ; 0x2014 <main+0x1a82>
     38e: 65 86        	adc	$86                     ; 0x2086 <main+0x1af4>
     390: a8           	tay
     391: 18           	clc
     392: 8a           	txa
     393: 69 fe        	adc	#$fe
     395: aa           	tax
     396: 98           	tya
     397: 69 ff        	adc	#$ff
     399: 86 85        	stx	$85                     ; 0x2085 <main+0x1af3>
     39b: 85 86        	sta	$86                     ; 0x2086 <main+0x1af4>
     39d: a6 87        	ldx	$87                     ; 0x2087 <main+0x1af5>
     39f: 86 16        	stx	$16                     ; 0x2016 <main+0x1a84>
     3a1: a4 88        	ldy	$88                     ; 0x2088 <main+0x1af6>
     3a3: a2 00        	ldx	#$0
     3a5: 86 14        	stx	$14                     ; 0x2014 <main+0x1a82>
     3a7: a2 00        	ldx	#$0
     3a9: 86 15        	stx	$15                     ; 0x2015 <main+0x1a83>
     3ab: 84 18        	sty	$18                     ; 0x2018 <main+0x1a86>
     3ad: c4 15        	cpy	$15                     ; 0x2015 <main+0x1a83>
     3af: d0 31        	bne	$3e2 <_ZN12_GLOBAL__N_19FreeChunk6insertEPvj+0x98>
     3b1: a6 16        	ldx	$16                     ; 0x2016 <main+0x1a84>
     3b3: e4 14        	cpx	$14                     ; 0x2014 <main+0x1a82>
     3b5: d0 2b        	bne	$3e2 <_ZN12_GLOBAL__N_19FreeChunk6insertEPvj+0x98>
     3b7: a0 02        	ldy	#$2
     3b9: 18           	clc
     3ba: a5 12        	lda	$12                     ; 0x2012 <main+0x1a80>
     3bc: 69 02        	adc	#$2
     3be: 85 14        	sta	$14                     ; 0x2014 <main+0x1a82>
     3c0: a5 12        	lda	$12                     ; 0x2012 <main+0x1a80>
     3c2: 91 12        	sta	($12),y                 ; 0x2012 <main+0x1a80>
     3c4: a5 13        	lda	$13                     ; 0x2013 <main+0x1a81>
     3c6: 69 00        	adc	#$0
     3c8: 85 15        	sta	$15                     ; 0x2015 <main+0x1a83>
     3ca: 88           	dey
     3cb: a5 13        	lda	$13                     ; 0x2013 <main+0x1a81>
     3cd: 91 14        	sta	($14),y                 ; 0x2014 <main+0x1a82>
     3cf: a2 87        	ldx	#$87
     3d1: 86 16        	stx	$16                     ; 0x2016 <main+0x1a84>
     3d3: a2 00        	ldx	#$0
     3d5: 86 17        	stx	$17                     ; 0x2017 <main+0x1a85>
     3d7: a6 12        	ldx	$12                     ; 0x2012 <main+0x1a80>
     3d9: 86 14        	stx	$14                     ; 0x2014 <main+0x1a82>
     3db: a6 13        	ldx	$13                     ; 0x2013 <main+0x1a81>
     3dd: 86 15        	stx	$15                     ; 0x2015 <main+0x1a83>
     3df: 4c 5b 04     	jmp	$45b <_ZN12_GLOBAL__N_19FreeChunk6insertEPvj+0x111>
     3e2: a5 12        	lda	$12                     ; 0x2012 <main+0x1a80>
     3e4: 18           	clc
     3e5: 69 02        	adc	#$2
     3e7: 85 14        	sta	$14                     ; 0x2014 <main+0x1a82>
     3e9: a4 13        	ldy	$13                     ; 0x2013 <main+0x1a81>
     3eb: a6 16        	ldx	$16                     ; 0x2016 <main+0x1a84>
     3ed: 86 19        	stx	$19                     ; 0x2019 <main+0x1a87>
     3ef: a5 13        	lda	$13                     ; 0x2013 <main+0x1a81>
     3f1: 84 1a        	sty	$1a                     ; 0x201a <main+0x1a88>
     3f3: 69 00        	adc	#$0
     3f5: a6 14        	ldx	$14                     ; 0x2014 <main+0x1a82>
     3f7: 86 16        	stx	$16                     ; 0x2016 <main+0x1a84>
     3f9: 85 17        	sta	$17                     ; 0x2017 <main+0x1a85>
     3fb: a6 19        	ldx	$19                     ; 0x2019 <main+0x1a87>
     3fd: 86 14        	stx	$14                     ; 0x2014 <main+0x1a82>
     3ff: a4 18        	ldy	$18                     ; 0x2018 <main+0x1a86>
     401: 84 15        	sty	$15                     ; 0x2015 <main+0x1a83>
     403: 84 1b        	sty	$1b                     ; 0x201b <main+0x1a89>
     405: a0 02        	ldy	#$2
     407: a5 19        	lda	$19                     ; 0x2019 <main+0x1a87>
     409: 91 12        	sta	($12),y                 ; 0x2012 <main+0x1a80>
     40b: 88           	dey
     40c: a5 1b        	lda	$1b                     ; 0x201b <main+0x1a89>
     40e: 91 16        	sta	($16),y                 ; 0x2016 <main+0x1a84>
     410: 18           	clc
     411: a5 19        	lda	$19                     ; 0x2019 <main+0x1a87>
     413: 69 04        	adc	#$4
     415: 85 18        	sta	$18                     ; 0x2018 <main+0x1a86>
     417: a5 1b        	lda	$1b                     ; 0x201b <main+0x1a89>
     419: 69 00        	adc	#$0
     41b: 85 19        	sta	$19                     ; 0x2019 <main+0x1a87>
     41d: a0 04        	ldy	#$4
     41f: b1 14        	lda	($14),y                 ; 0x2014 <main+0x1a82>
     421: 85 14        	sta	$14                     ; 0x2014 <main+0x1a82>
     423: 85 1b        	sta	$1b                     ; 0x201b <main+0x1a89>
     425: a0 01        	ldy	#$1
     427: b1 18        	lda	($18),y                 ; 0x2018 <main+0x1a86>
     429: 85 15        	sta	$15                     ; 0x2015 <main+0x1a83>
     42b: a8           	tay
     42c: 18           	clc
     42d: a5 1b        	lda	$1b                     ; 0x201b <main+0x1a89>
     42f: 69 02        	adc	#$2
     431: 85 18        	sta	$18                     ; 0x2018 <main+0x1a86>
     433: 98           	tya
     434: 69 00        	adc	#$0
     436: 85 19        	sta	$19                     ; 0x2019 <main+0x1a87>
     438: a5 12        	lda	$12                     ; 0x2012 <main+0x1a80>
     43a: a0 02        	ldy	#$2
     43c: 91 14        	sta	($14),y                 ; 0x2014 <main+0x1a82>
     43e: a5 1a        	lda	$1a                     ; 0x201a <main+0x1a88>
     440: 88           	dey
     441: 91 18        	sta	($18),y                 ; 0x2018 <main+0x1a86>
     443: c8           	iny
     444: b1 12        	lda	($12),y                 ; 0x2012 <main+0x1a80>
     446: 85 18        	sta	$18                     ; 0x2018 <main+0x1a86>
     448: 88           	dey
     449: b1 16        	lda	($16),y                 ; 0x2016 <main+0x1a84>
     44b: 85 16        	sta	$16                     ; 0x2016 <main+0x1a84>
     44d: 18           	clc
     44e: a5 18        	lda	$18                     ; 0x2018 <main+0x1a86>
     450: 69 04        	adc	#$4
     452: aa           	tax
     453: a5 16        	lda	$16                     ; 0x2016 <main+0x1a84>
     455: 69 00        	adc	#$0
     457: 86 16        	stx	$16                     ; 0x2016 <main+0x1a84>
     459: 85 17        	sta	$17                     ; 0x2017 <main+0x1a85>
     45b: 18           	clc
     45c: a5 12        	lda	$12                     ; 0x2012 <main+0x1a80>
     45e: 69 04        	adc	#$4
     460: 85 18        	sta	$18                     ; 0x2018 <main+0x1a86>
     462: a5 13        	lda	$13                     ; 0x2013 <main+0x1a81>
     464: 69 00        	adc	#$0
     466: a0 04        	ldy	#$4
     468: 85 19        	sta	$19                     ; 0x2019 <main+0x1a87>
     46a: a5 14        	lda	$14                     ; 0x2014 <main+0x1a82>
     46c: 91 12        	sta	($12),y                 ; 0x2012 <main+0x1a80>
     46e: a5 15        	lda	$15                     ; 0x2015 <main+0x1a83>
     470: a0 01        	ldy	#$1
     472: 91 18        	sta	($18),y                 ; 0x2018 <main+0x1a86>
     474: a5 13        	lda	$13                     ; 0x2013 <main+0x1a81>
     476: 91 16        	sta	($16),y                 ; 0x2016 <main+0x1a84>
     478: a5 12        	lda	$12                     ; 0x2012 <main+0x1a80>
     47a: 92 16        	sta	($16)                   ; 0x2016 <main+0x1a84>
     47c: 60           	rts
     47d: 00           	brk

0000047e <_ZN12_GLOBAL__N_19FreeChunk6removeEv>:
     47e: a0 01        	ldy	#$1
     480: a9 fe        	lda	#$fe
     482: 32 12        	and	($12)                   ; 0x2012 <main+0x1a80>
     484: 85 14        	sta	$14                     ; 0x2014 <main+0x1a82>
     486: a5 85        	lda	$85                     ; 0x2085 <main+0x1af3>
     488: a6 86        	ldx	$86                     ; 0x2086 <main+0x1af4>
     48a: 86 15        	stx	$15                     ; 0x2015 <main+0x1a83>
     48c: 38           	sec
     48d: e5 14        	sbc	$14                     ; 0x2014 <main+0x1a82>
     48f: aa           	tax
     490: a5 15        	lda	$15                     ; 0x2015 <main+0x1a83>
     492: f1 12        	sbc	($12),y                 ; 0x2012 <main+0x1a80>
     494: 85 14        	sta	$14                     ; 0x2014 <main+0x1a82>
     496: 18           	clc
     497: 8a           	txa
     498: 69 02        	adc	#$2
     49a: 85 15        	sta	$15                     ; 0x2015 <main+0x1a83>
     49c: a5 14        	lda	$14                     ; 0x2014 <main+0x1a82>
     49e: 69 00        	adc	#$0
     4a0: a6 15        	ldx	$15                     ; 0x2015 <main+0x1a83>
     4a2: 86 85        	stx	$85                     ; 0x2085 <main+0x1af3>
     4a4: 85 86        	sta	$86                     ; 0x2086 <main+0x1af4>
     4a6: a5 12        	lda	$12                     ; 0x2012 <main+0x1a80>
     4a8: 18           	clc
     4a9: 69 02        	adc	#$2
     4ab: 85 14        	sta	$14                     ; 0x2014 <main+0x1a82>
     4ad: a5 13        	lda	$13                     ; 0x2013 <main+0x1a81>
     4af: 69 00        	adc	#$0
     4b1: c8           	iny
     4b2: 85 15        	sta	$15                     ; 0x2015 <main+0x1a83>
     4b4: b1 12        	lda	($12),y                 ; 0x2012 <main+0x1a80>
     4b6: aa           	tax
     4b7: 88           	dey
     4b8: b1 14        	lda	($14),y                 ; 0x2014 <main+0x1a82>
     4ba: 85 19        	sta	$19                     ; 0x2019 <main+0x1a87>
     4bc: c5 13        	cmp	$13                     ; 0x2013 <main+0x1a81>
     4be: d0 0f        	bne	$4cf <_ZN12_GLOBAL__N_19FreeChunk6removeEv+0x51>
     4c0: e4 12        	cpx	$12                     ; 0x2012 <main+0x1a80>
     4c2: d0 0b        	bne	$4cf <_ZN12_GLOBAL__N_19FreeChunk6removeEv+0x51>
     4c4: a2 00        	ldx	#$0
     4c6: 86 14        	stx	$14                     ; 0x2014 <main+0x1a82>
     4c8: a2 00        	ldx	#$0
     4ca: 86 15        	stx	$15                     ; 0x2015 <main+0x1a83>
     4cc: 4c 4c 05     	jmp	$54c <_ZN12_GLOBAL__N_19FreeChunk6removeEv+0xce>
     4cf: 86 18        	stx	$18                     ; 0x2018 <main+0x1a86>
     4d1: a6 12        	ldx	$12                     ; 0x2012 <main+0x1a80>
     4d3: a5 12        	lda	$12                     ; 0x2012 <main+0x1a80>
     4d5: 86 1b        	stx	$1b                     ; 0x201b <main+0x1a89>
     4d7: 18           	clc
     4d8: 69 04        	adc	#$4
     4da: 85 14        	sta	$14                     ; 0x2014 <main+0x1a82>
     4dc: a5 13        	lda	$13                     ; 0x2013 <main+0x1a81>
     4de: 69 00        	adc	#$0
     4e0: a0 04        	ldy	#$4
     4e2: 85 15        	sta	$15                     ; 0x2015 <main+0x1a83>
     4e4: b1 12        	lda	($12),y                 ; 0x2012 <main+0x1a80>
     4e6: 85 1c        	sta	$1c                     ; 0x201c <main+0x1a8a>
     4e8: 18           	clc
     4e9: 69 02        	adc	#$2
     4eb: 85 16        	sta	$16                     ; 0x2016 <main+0x1a84>
     4ed: a0 01        	ldy	#$1
     4ef: b1 14        	lda	($14),y                 ; 0x2014 <main+0x1a82>
     4f1: aa           	tax
     4f2: 69 00        	adc	#$0
     4f4: a4 16        	ldy	$16                     ; 0x2016 <main+0x1a84>
     4f6: 84 14        	sty	$14                     ; 0x2014 <main+0x1a82>
     4f8: 85 15        	sta	$15                     ; 0x2015 <main+0x1a83>
     4fa: a4 1c        	ldy	$1c                     ; 0x201c <main+0x1a8a>
     4fc: 84 16        	sty	$16                     ; 0x2016 <main+0x1a84>
     4fe: 86 17        	stx	$17                     ; 0x2017 <main+0x1a85>
     500: a0 02        	ldy	#$2
     502: a5 18        	lda	$18                     ; 0x2018 <main+0x1a86>
     504: 91 16        	sta	($16),y                 ; 0x2016 <main+0x1a84>
     506: a5 19        	lda	$19                     ; 0x2019 <main+0x1a87>
     508: 88           	dey
     509: 91 14        	sta	($14),y                 ; 0x2014 <main+0x1a82>
     50b: 18           	clc
     50c: a5 1b        	lda	$1b                     ; 0x201b <main+0x1a89>
     50e: 69 02        	adc	#$2
     510: 85 14        	sta	$14                     ; 0x2014 <main+0x1a82>
     512: a5 13        	lda	$13                     ; 0x2013 <main+0x1a81>
     514: 69 00        	adc	#$0
     516: 85 15        	sta	$15                     ; 0x2015 <main+0x1a83>
     518: c8           	iny
     519: b1 12        	lda	($12),y                 ; 0x2012 <main+0x1a80>
     51b: 85 16        	sta	$16                     ; 0x2016 <main+0x1a84>
     51d: 88           	dey
     51e: b1 14        	lda	($14),y                 ; 0x2014 <main+0x1a82>
     520: a4 16        	ldy	$16                     ; 0x2016 <main+0x1a84>
     522: 84 14        	sty	$14                     ; 0x2014 <main+0x1a82>
     524: 85 15        	sta	$15                     ; 0x2015 <main+0x1a83>
     526: 85 17        	sta	$17                     ; 0x2017 <main+0x1a85>
     528: a0 04        	ldy	#$4
     52a: a5 1c        	lda	$1c                     ; 0x201c <main+0x1a8a>
     52c: 91 14        	sta	($14),y                 ; 0x2014 <main+0x1a82>
     52e: 18           	clc
     52f: a5 16        	lda	$16                     ; 0x2016 <main+0x1a84>
     531: 69 04        	adc	#$4
     533: 85 16        	sta	$16                     ; 0x2016 <main+0x1a84>
     535: a5 17        	lda	$17                     ; 0x2017 <main+0x1a85>
     537: 69 00        	adc	#$0
     539: 85 17        	sta	$17                     ; 0x2017 <main+0x1a85>
     53b: 8a           	txa
     53c: a0 01        	ldy	#$1
     53e: 91 16        	sta	($16),y                 ; 0x2016 <main+0x1a84>
     540: a6 88        	ldx	$88                     ; 0x2088 <main+0x1af6>
     542: e4 13        	cpx	$13                     ; 0x2013 <main+0x1a81>
     544: d0 0e        	bne	$554 <_ZN12_GLOBAL__N_19FreeChunk6removeEv+0xd6>
     546: a6 87        	ldx	$87                     ; 0x2087 <main+0x1af5>
     548: e4 12        	cpx	$12                     ; 0x2012 <main+0x1a80>
     54a: d0 08        	bne	$554 <_ZN12_GLOBAL__N_19FreeChunk6removeEv+0xd6>
     54c: a6 14        	ldx	$14                     ; 0x2014 <main+0x1a82>
     54e: a4 15        	ldy	$15                     ; 0x2015 <main+0x1a83>
     550: 86 87        	stx	$87                     ; 0x2087 <main+0x1af5>
     552: 84 88        	sty	$88                     ; 0x2088 <main+0x1af6>
     554: 60           	rts

00000555 <__zero_bss>:
     555: a2 40        	ldx	#$40
     557: a0 00        	ldy	#$0
     559: a9 56        	lda	#$56
     55b: 85 12        	sta	$12                     ; 0x2012 <main+0x1a80>
     55d: a9 68        	lda	#$68
     55f: 85 13        	sta	$13                     ; 0x2013 <main+0x1a81>
     561: a9 00        	lda	#$0
     563: 84 14        	sty	$14                     ; 0x2014 <main+0x1a82>
     565: 4c 1f 4a     	jmp	$4a1f <__memset>

00000568 <__zero_zp_bss>:
     568: a2 28        	ldx	#$28
     56a: a0 00        	ldy	#$0
     56c: a9 61        	lda	#$61
     56e: 85 12        	sta	$12                     ; 0x2012 <main+0x1a80>
     570: a9 00        	lda	#$0
     572: 85 13        	sta	$13                     ; 0x2013 <main+0x1a81>
     574: a9 00        	lda	#$0
     576: 84 14        	sty	$14                     ; 0x2014 <main+0x1a82>
     578: 4c 1f 4a     	jmp	$4a1f <__memset>

0000057b <__copy_zp_data>:
     57b: a9 31        	lda	#$31
     57d: a2 00        	ldx	#$0
     57f: a0 30        	ldy	#$30
     581: 84 12        	sty	$12                     ; 0x2012 <main+0x1a80>
     583: a0 00        	ldy	#$0
     585: 84 13        	sty	$13                     ; 0x2013 <main+0x1a81>
     587: a0 00        	ldy	#$0
     589: 84 14        	sty	$14                     ; 0x2014 <main+0x1a82>
     58b: a0 03        	ldy	#$3
     58d: 84 15        	sty	$15                     ; 0x2015 <main+0x1a83>
     58f: 4c f3 49     	jmp	$49f3 <memcpy>

00000592 <main>:
     592: 18           	clc
     593: a5 10        	lda	$10                     ; 0x2010 <main+0x1a7e>
     595: 69 59        	adc	#$59
     597: 85 10        	sta	$10                     ; 0x2010 <main+0x1a7e>
     599: a5 11        	lda	$11                     ; 0x2011 <main+0x1a7f>
     59b: 69 fe        	adc	#$fe
     59d: 85 11        	sta	$11                     ; 0x2011 <main+0x1a7f>
     59f: a6 24        	ldx	$24                     ; 0x2024 <main+0x1a92>
     5a1: da           	phx
     5a2: a6 25        	ldx	$25                     ; 0x2025 <main+0x1a93>
     5a4: da           	phx
     5a5: a6 26        	ldx	$26                     ; 0x2026 <main+0x1a94>
     5a7: da           	phx
     5a8: a6 27        	ldx	$27                     ; 0x2027 <main+0x1a95>
     5aa: da           	phx
     5ab: a5 28        	lda	$28                     ; 0x2028 <main+0x1a96>
     5ad: a0 0f        	ldy	#$f
     5af: 91 10        	sta	($10),y                 ; 0x2010 <main+0x1a7e>
     5b1: a5 29        	lda	$29                     ; 0x2029 <main+0x1a97>
     5b3: 88           	dey
     5b4: 91 10        	sta	($10),y                 ; 0x2010 <main+0x1a7e>
     5b6: a5 2a        	lda	$2a                     ; 0x202a <main+0x1a98>
     5b8: 88           	dey
     5b9: 91 10        	sta	($10),y                 ; 0x2010 <main+0x1a7e>
     5bb: a5 2b        	lda	$2b                     ; 0x202b <main+0x1a99>
     5bd: 88           	dey
     5be: 91 10        	sta	($10),y                 ; 0x2010 <main+0x1a7e>
     5c0: a5 2c        	lda	$2c                     ; 0x202c <main+0x1a9a>
     5c2: 88           	dey
     5c3: 91 10        	sta	($10),y                 ; 0x2010 <main+0x1a7e>
     5c5: a5 2d        	lda	$2d                     ; 0x202d <main+0x1a9b>
     5c7: 88           	dey
     5c8: 91 10        	sta	($10),y                 ; 0x2010 <main+0x1a7e>
     5ca: a5 2e        	lda	$2e                     ; 0x202e <main+0x1a9c>
     5cc: 88           	dey
     5cd: 91 10        	sta	($10),y                 ; 0x2010 <main+0x1a7e>
     5cf: a5 2f        	lda	$2f                     ; 0x202f <main+0x1a9d>
     5d1: 88           	dey
     5d2: 91 10        	sta	($10),y                 ; 0x2010 <main+0x1a7e>
     5d4: 64 14        	stz	$14                     ; 0x2014 <main+0x1a82>
     5d6: a2 00        	ldx	#$0
     5d8: 86 12        	stx	$12                     ; 0x2012 <main+0x1a80>
     5da: a2 c0        	ldx	#$c0
     5dc: 86 13        	stx	$13                     ; 0x2013 <main+0x1a81>
     5de: 64 01        	stz	$1                      ; 0x2001 <main+0x1a6f>
     5e0: a2 3f        	ldx	#$3f
     5e2: 8e 00 d0     	stx	$d000                   ; 0xd000 <end_block9+0x676a>
     5e5: a2 b3        	ldx	#$b3
     5e7: 86 00        	stx	$0                      ; 0x2000 <main+0x1a6e>
     5e9: 64 08        	stz	$8                      ; 0x2008 <main+0x1a76>
     5eb: a2 01        	ldx	#$1
     5ed: 86 09        	stx	$9                      ; 0x2009 <main+0x1a77>
     5ef: e8           	inx
     5f0: 86 0a        	stx	$a                      ; 0x200a <main+0x1a78>
     5f2: e8           	inx
     5f3: 86 0b        	stx	$b                      ; 0x200b <main+0x1a79>
     5f5: e8           	inx
     5f6: 86 0c        	stx	$c                      ; 0x200c <main+0x1a7a>
     5f8: e8           	inx
     5f9: 86 0d        	stx	$d                      ; 0x200d <main+0x1a7b>
     5fb: a2 61        	ldx	#$61
     5fd: a0 00        	ldy	#$0
     5ff: 86 f0        	stx	$f0                     ; 0x20f0 <main+0x1b5e>
     601: 84 f1        	sty	$f1                     ; 0x20f1 <main+0x1b5f>
     603: a2 00        	ldx	#$0
     605: 86 18        	stx	$18                     ; 0x2018 <main+0x1a86>
     607: ca           	dex
     608: 86 19        	stx	$19                     ; 0x2019 <main+0x1a87>
     60a: 8a           	txa
     60b: 0a           	asl
     60c: 0a           	asl
     60d: 18           	clc
     60e: 69 d4        	adc	#$d4
     610: 85 1a        	sta	$1a                     ; 0x201a <main+0x1a88>
     612: a0 00        	ldy	#$0
     614: 64 17        	stz	$17                     ; 0x2017 <main+0x1a85>
     616: 64 16        	stz	$16                     ; 0x2016 <main+0x1a84>
     618: a6 19        	ldx	$19                     ; 0x2019 <main+0x1a87>
     61a: e0 03        	cpx	#$3
     61c: a6 01        	ldx	$1                      ; 0x2001 <main+0x1a6f>
     61e: 86 1c        	stx	$1c                     ; 0x201c <main+0x1a8a>
     620: a2 d0        	ldx	#$d0
     622: 84 1b        	sty	$1b                     ; 0x201b <main+0x1a89>
     624: b0 02        	bcs	$628 <main+0x96>
     626: a6 1a        	ldx	$1a                     ; 0x201a <main+0x1a88>
     628: 86 15        	stx	$15                     ; 0x2015 <main+0x1a83>
     62a: a5 17        	lda	$17                     ; 0x2017 <main+0x1a85>
     62c: 18           	clc
     62d: 65 14        	adc	$14                     ; 0x2014 <main+0x1a82>
     62f: a8           	tay
     630: a6 17        	ldx	$17                     ; 0x2017 <main+0x1a85>
     632: a5 16        	lda	$16                     ; 0x2016 <main+0x1a84>
     634: 85 1d        	sta	$1d                     ; 0x201d <main+0x1a8b>
     636: a5 16        	lda	$16                     ; 0x2016 <main+0x1a84>
     638: 65 15        	adc	$15                     ; 0x2015 <main+0x1a83>
     63a: 84 16        	sty	$16                     ; 0x2016 <main+0x1a84>
     63c: a0 01        	ldy	#$1
     63e: 84 01        	sty	$1                      ; 0x2001 <main+0x1a6f>
     640: 85 17        	sta	$17                     ; 0x2017 <main+0x1a85>
     642: a5 1b        	lda	$1b                     ; 0x201b <main+0x1a89>
     644: 92 16        	sta	($16)                   ; 0x2016 <main+0x1a84>
     646: 91 16        	sta	($16),y                 ; 0x2016 <main+0x1a84>
     648: c8           	iny
     649: 91 16        	sta	($16),y                 ; 0x2016 <main+0x1a84>
     64b: 85 15        	sta	$15                     ; 0x2015 <main+0x1a83>
     64d: c8           	iny
     64e: a9 ff        	lda	#$ff
     650: 91 16        	sta	($16),y                 ; 0x2016 <main+0x1a84>
     652: 8a           	txa
     653: a6 1c        	ldx	$1c                     ; 0x201c <main+0x1a8a>
     655: 86 01        	stx	$1                      ; 0x2001 <main+0x1a6f>
     657: 18           	clc
     658: 69 04        	adc	#$4
     65a: 85 17        	sta	$17                     ; 0x2017 <main+0x1a85>
     65c: a5 1d        	lda	$1d                     ; 0x201d <main+0x1a8b>
     65e: 69 00        	adc	#$0
     660: e6 15        	inc	$15                     ; 0x2015 <main+0x1a83>
     662: a4 15        	ldy	$15                     ; 0x2015 <main+0x1a83>
     664: 85 16        	sta	$16                     ; 0x2016 <main+0x1a84>
     666: c9 04        	cmp	#$4
     668: f0 03        	beq	$66d <main+0xdb>
     66a: 4c 18 06     	jmp	$618 <main+0x86>
     66d: a5 17        	lda	$17                     ; 0x2017 <main+0x1a85>
     66f: f0 03        	beq	$674 <main+0xe2>
     671: 4c 18 06     	jmp	$618 <main+0x86>
     674: a6 18        	ldx	$18                     ; 0x2018 <main+0x1a86>
     676: e8           	inx
     677: e0 04        	cpx	#$4
     679: f0 03        	beq	$67e <main+0xec>
     67b: 4c 05 06     	jmp	$605 <main+0x73>
     67e: ad 02 d0     	lda	$d002                   ; 0xd002 <end_block9+0x676c>
     681: a2 f0        	ldx	#$f0
     683: 29 f0        	and	#$f0
     685: 8d 02 d0     	sta	$d002                   ; 0xd002 <end_block9+0x676c>
     688: ad 02 d0     	lda	$d002                   ; 0xd002 <end_block9+0x676c>
     68b: 29 0f        	and	#$f
     68d: 09 10        	ora	#$10
     68f: 8d 02 d0     	sta	$d002                   ; 0xd002 <end_block9+0x676c>
     692: a0 02        	ldy	#$2
     694: 8c 03 d0     	sty	$d003                   ; 0xd003 <end_block9+0x676d>
     697: 86 60        	stx	$60                     ; 0x2060 <main+0x1ace>
     699: ad 01 d0     	lda	$d001                   ; 0xd001 <end_block9+0x676b>
     69c: 29 f9        	and	#$f9
     69e: 09 04        	ora	#$4
     6a0: 8d 01 d0     	sta	$d001                   ; 0xd001 <end_block9+0x676b>
     6a3: 64 14        	stz	$14                     ; 0x2014 <main+0x1a82>
     6a5: 9c 10 d0     	stz	$d010                   ; 0xd010 <end_block9+0x677a>
     6a8: a2 00        	ldx	#$0
     6aa: 64 15        	stz	$15                     ; 0x2015 <main+0x1a83>
     6ac: 86 18        	stx	$18                     ; 0x2018 <main+0x1a86>
     6ae: a4 18        	ldy	$18                     ; 0x2018 <main+0x1a86>
     6b0: b6 30        	ldx	$30,y                   ; 0x2030 <main+0x1a9e>
     6b2: 86 19        	stx	$19                     ; 0x2019 <main+0x1a87>
     6b4: b6 31        	ldx	$31,y                   ; 0x2031 <main+0x1a9f>
     6b6: 86 1a        	stx	$1a                     ; 0x201a <main+0x1a88>
     6b8: b6 32        	ldx	$32,y                   ; 0x2032 <main+0x1aa0>
     6ba: 86 1b        	stx	$1b                     ; 0x201b <main+0x1a89>
     6bc: a6 15        	ldx	$15                     ; 0x2015 <main+0x1a83>
     6be: 8e 00 de     	stx	$de00                   ; 0xde00 <end_block9+0x756a>
     6c1: 86 17        	stx	$17                     ; 0x2017 <main+0x1a85>
     6c3: 9c 01 de     	stz	$de01                   ; 0xde01 <end_block9+0x756b>
     6c6: a2 04        	ldx	#$4
     6c8: 8e 02 de     	stx	$de02                   ; 0xde02 <end_block9+0x756c>
     6cb: 9c 03 de     	stz	$de03                   ; 0xde03 <end_block9+0x756d>
     6ce: ad 10 de     	lda	$de10                   ; 0xde10 <end_block9+0x757a>
     6d1: ac 11 de     	ldy	$de11                   ; 0xde11 <end_block9+0x757b>
     6d4: 84 15        	sty	$15                     ; 0x2015 <main+0x1a83>
     6d6: ac 12 de     	ldy	$de12                   ; 0xde12 <end_block9+0x757c>
     6d9: ac 13 de     	ldy	$de13                   ; 0xde13 <end_block9+0x757d>
     6dc: 18           	clc
     6dd: 65 14        	adc	$14                     ; 0x2014 <main+0x1a82>
     6df: 85 16        	sta	$16                     ; 0x2016 <main+0x1a84>
     6e1: a6 17        	ldx	$17                     ; 0x2017 <main+0x1a85>
     6e3: a9 d8        	lda	#$d8
     6e5: 65 15        	adc	$15                     ; 0x2015 <main+0x1a83>
     6e7: 85 17        	sta	$17                     ; 0x2017 <main+0x1a85>
     6e9: a5 1b        	lda	$1b                     ; 0x201b <main+0x1a89>
     6eb: 92 16        	sta	($16)                   ; 0x2016 <main+0x1a84>
     6ed: a0 01        	ldy	#$1
     6ef: a5 1a        	lda	$1a                     ; 0x201a <main+0x1a88>
     6f1: 91 16        	sta	($16),y                 ; 0x2016 <main+0x1a84>
     6f3: c8           	iny
     6f4: a5 19        	lda	$19                     ; 0x2019 <main+0x1a87>
     6f6: 91 16        	sta	($16),y                 ; 0x2016 <main+0x1a84>
     6f8: c8           	iny
     6f9: a9 ff        	lda	#$ff
     6fb: 91 16        	sta	($16),y                 ; 0x2016 <main+0x1a84>
     6fd: 8e 00 de     	stx	$de00                   ; 0xde00 <end_block9+0x756a>
     700: 9c 01 de     	stz	$de01                   ; 0xde01 <end_block9+0x756b>
     703: c8           	iny
     704: 8c 02 de     	sty	$de02                   ; 0xde02 <end_block9+0x756c>
     707: 9c 03 de     	stz	$de03                   ; 0xde03 <end_block9+0x756d>
     70a: ad 10 de     	lda	$de10                   ; 0xde10 <end_block9+0x757a>
     70d: 85 15        	sta	$15                     ; 0x2015 <main+0x1a83>
     70f: ad 11 de     	lda	$de11                   ; 0xde11 <end_block9+0x757b>
     712: 85 16        	sta	$16                     ; 0x2016 <main+0x1a84>
     714: a9 40        	lda	#$40
     716: 18           	clc
     717: 65 15        	adc	$15                     ; 0x2015 <main+0x1a83>
     719: a8           	tay
     71a: a9 d8        	lda	#$d8
     71c: 65 16        	adc	$16                     ; 0x2016 <main+0x1a84>
     71e: 85 17        	sta	$17                     ; 0x2017 <main+0x1a85>
     720: 84 16        	sty	$16                     ; 0x2016 <main+0x1a84>
     722: ad 12 de     	lda	$de12                   ; 0xde12 <end_block9+0x757c>
     725: ad 13 de     	lda	$de13                   ; 0xde13 <end_block9+0x757d>
     728: a5 1b        	lda	$1b                     ; 0x201b <main+0x1a89>
     72a: 92 16        	sta	($16)                   ; 0x2016 <main+0x1a84>
     72c: a5 1a        	lda	$1a                     ; 0x201a <main+0x1a88>
     72e: a0 01        	ldy	#$1
     730: 91 16        	sta	($16),y                 ; 0x2016 <main+0x1a84>
     732: a5 19        	lda	$19                     ; 0x2019 <main+0x1a87>
     734: c8           	iny
     735: 91 16        	sta	($16),y                 ; 0x2016 <main+0x1a84>
     737: c8           	iny
     738: a9 ff        	lda	#$ff
     73a: 91 16        	sta	($16),y                 ; 0x2016 <main+0x1a84>
     73c: e8           	inx
     73d: 86 15        	stx	$15                     ; 0x2015 <main+0x1a83>
     73f: 18           	clc
     740: a5 18        	lda	$18                     ; 0x2018 <main+0x1a86>
     742: 69 03        	adc	#$3
     744: aa           	tax
     745: c9 30        	cmp	#$30
     747: f0 03        	beq	$74c <main+0x1ba>
     749: 4c ac 06     	jmp	$6ac <main+0x11a>
     74c: a6 01        	ldx	$1                      ; 0x2001 <main+0x1a6f>
     74e: 86 18        	stx	$18                     ; 0x2018 <main+0x1a86>
     750: a2 50        	ldx	#$50
     752: 8e 00 de     	stx	$de00                   ; 0xde00 <end_block9+0x756a>
     755: 9c 01 de     	stz	$de01                   ; 0xde01 <end_block9+0x756b>
     758: a2 1e        	ldx	#$1e
     75a: 8e 02 de     	stx	$de02                   ; 0xde02 <end_block9+0x756c>
     75d: 9c 03 de     	stz	$de03                   ; 0xde03 <end_block9+0x756d>
     760: ae 10 de     	ldx	$de10                   ; 0xde10 <end_block9+0x757a>
     763: ac 11 de     	ldy	$de11                   ; 0xde11 <end_block9+0x757b>
     766: ad 12 de     	lda	$de12                   ; 0xde12 <end_block9+0x757c>
     769: ad 13 de     	lda	$de13                   ; 0xde13 <end_block9+0x757d>
     76c: a9 02        	lda	#$2
     76e: 85 01        	sta	$1                      ; 0x2001 <main+0x1a6f>
     770: e0 01        	cpx	#$1
     772: 98           	tya
     773: e9 00        	sbc	#$0
     775: 50 02        	bvc	$779 <main+0x1e7>
     777: 49 80        	eor	#$80
     779: c9 00        	cmp	#$0
     77b: 30 4c        	bmi	$7c9 <main+0x237>
     77d: a9 20        	lda	#$20
     77f: 86 19        	stx	$19                     ; 0x2019 <main+0x1a87>
     781: 86 14        	stx	$14                     ; 0x2014 <main+0x1a82>
     783: 84 15        	sty	$15                     ; 0x2015 <main+0x1a83>
     785: a2 00        	ldx	#$0
     787: 86 16        	stx	$16                     ; 0x2016 <main+0x1a84>
     789: a2 c0        	ldx	#$c0
     78b: 86 17        	stx	$17                     ; 0x2017 <main+0x1a85>
     78d: 92 16        	sta	($16)                   ; 0x2016 <main+0x1a84>
     78f: e6 16        	inc	$16                     ; 0x2016 <main+0x1a84>
     791: d0 02        	bne	$795 <main+0x203>
     793: e6 17        	inc	$17                     ; 0x2017 <main+0x1a85>
     795: a2 ff        	ldx	#$ff
     797: c6 14        	dec	$14                     ; 0x2014 <main+0x1a82>
     799: e4 14        	cpx	$14                     ; 0x2014 <main+0x1a82>
     79b: d0 02        	bne	$79f <main+0x20d>
     79d: c6 15        	dec	$15                     ; 0x2015 <main+0x1a83>
     79f: a6 15        	ldx	$15                     ; 0x2015 <main+0x1a83>
     7a1: d0 ea        	bne	$78d <main+0x1fb>
     7a3: a6 14        	ldx	$14                     ; 0x2014 <main+0x1a82>
     7a5: d0 e6        	bne	$78d <main+0x1fb>
     7a7: a2 03        	ldx	#$3
     7a9: 86 01        	stx	$1                      ; 0x2001 <main+0x1a6f>
     7ab: a6 60        	ldx	$60                     ; 0x2060 <main+0x1ace>
     7ad: 86 14        	stx	$14                     ; 0x2014 <main+0x1a82>
     7af: a6 19        	ldx	$19                     ; 0x2019 <main+0x1a87>
     7b1: a5 14        	lda	$14                     ; 0x2014 <main+0x1a82>
     7b3: 92 12        	sta	($12)                   ; 0x2012 <main+0x1a80>
     7b5: e6 12        	inc	$12                     ; 0x2012 <main+0x1a80>
     7b7: d0 02        	bne	$7bb <main+0x229>
     7b9: e6 13        	inc	$13                     ; 0x2013 <main+0x1a81>
     7bb: ca           	dex
     7bc: e0 ff        	cpx	#$ff
     7be: d0 01        	bne	$7c1 <main+0x22f>
     7c0: 88           	dey
     7c1: 98           	tya
     7c2: d0 ed        	bne	$7b1 <main+0x21f>
     7c4: 8a           	txa
     7c5: d0 ea        	bne	$7b1 <main+0x21f>
     7c7: 80 04        	bra	$7cd <main+0x23b>
     7c9: a2 03        	ldx	#$3
     7cb: 86 01        	stx	$1                      ; 0x2001 <main+0x1a6f>
     7cd: a6 18        	ldx	$18                     ; 0x2018 <main+0x1a86>
     7cf: 86 01        	stx	$1                      ; 0x2001 <main+0x1a6f>
     7d1: 64 69        	stz	$69                     ; 0x2069 <main+0x1ad7>
     7d3: 9c 14 d0     	stz	$d014                   ; 0xd014 <end_block9+0x677e>
     7d6: 9c 15 d0     	stz	$d015                   ; 0xd015 <end_block9+0x677f>
     7d9: 64 6a        	stz	$6a                     ; 0x206a <main+0x1ad8>
     7db: 9c 16 d0     	stz	$d016                   ; 0xd016 <end_block9+0x6780>
     7de: 9c 17 d0     	stz	$d017                   ; 0xd017 <end_block9+0x6781>
     7e1: a2 40        	ldx	#$40
     7e3: 8e 00 de     	stx	$de00                   ; 0xde00 <end_block9+0x756a>
     7e6: a2 01        	ldx	#$1
     7e8: 8e 01 de     	stx	$de01                   ; 0xde01 <end_block9+0x756b>
     7eb: a2 f0        	ldx	#$f0
     7ed: 8e 02 de     	stx	$de02                   ; 0xde02 <end_block9+0x756c>
     7f0: 9c 03 de     	stz	$de03                   ; 0xde03 <end_block9+0x756d>
     7f3: ae 10 de     	ldx	$de10                   ; 0xde10 <end_block9+0x757a>
     7f6: 86 17        	stx	$17                     ; 0x2017 <main+0x1a85>
     7f8: ae 11 de     	ldx	$de11                   ; 0xde11 <end_block9+0x757b>
     7fb: 86 12        	stx	$12                     ; 0x2012 <main+0x1a80>
     7fd: ae 12 de     	ldx	$de12                   ; 0xde12 <end_block9+0x757c>
     800: 86 13        	stx	$13                     ; 0x2013 <main+0x1a81>
     802: ae 13 de     	ldx	$de13                   ; 0xde13 <end_block9+0x757d>
     805: 86 14        	stx	$14                     ; 0x2014 <main+0x1a82>
     807: a4 12        	ldy	$12                     ; 0x2012 <main+0x1a80>
     809: 84 15        	sty	$15                     ; 0x2015 <main+0x1a83>
     80b: 06 15        	asl	$15                     ; 0x2015 <main+0x1a83>
     80d: a5 13        	lda	$13                     ; 0x2013 <main+0x1a81>
     80f: 2a           	rol
     810: 86 16        	stx	$16                     ; 0x2016 <main+0x1a84>
     812: 26 16        	rol	$16                     ; 0x2016 <main+0x1a84>
     814: 06 15        	asl	$15                     ; 0x2015 <main+0x1a83>
     816: 2a           	rol
     817: 26 16        	rol	$16                     ; 0x2016 <main+0x1a84>
     819: 06 15        	asl	$15                     ; 0x2015 <main+0x1a83>
     81b: 2a           	rol
     81c: 26 16        	rol	$16                     ; 0x2016 <main+0x1a84>
     81e: 85 15        	sta	$15                     ; 0x2015 <main+0x1a83>
     820: 8d 00 de     	sta	$de00                   ; 0xde00 <end_block9+0x756a>
     823: a5 16        	lda	$16                     ; 0x2016 <main+0x1a84>
     825: 8d 01 de     	sta	$de01                   ; 0xde01 <end_block9+0x756b>
     828: 9c 02 de     	stz	$de02                   ; 0xde02 <end_block9+0x756c>
     82b: a2 20        	ldx	#$20
     82d: 8e 03 de     	stx	$de03                   ; 0xde03 <end_block9+0x756d>
     830: ae 10 de     	ldx	$de10                   ; 0xde10 <end_block9+0x757a>
     833: 86 16        	stx	$16                     ; 0x2016 <main+0x1a84>
     835: ae 11 de     	ldx	$de11                   ; 0xde11 <end_block9+0x757b>
     838: 86 18        	stx	$18                     ; 0x2018 <main+0x1a86>
     83a: ac 12 de     	ldy	$de12                   ; 0xde12 <end_block9+0x757c>
     83d: ae 13 de     	ldx	$de13                   ; 0xde13 <end_block9+0x757d>
     840: e4 14        	cpx	$14                     ; 0x2014 <main+0x1a82>
     842: d0 14        	bne	$858 <main+0x2c6>
     844: c4 13        	cpy	$13                     ; 0x2013 <main+0x1a81>
     846: d0 10        	bne	$858 <main+0x2c6>
     848: a6 18        	ldx	$18                     ; 0x2018 <main+0x1a86>
     84a: e4 12        	cpx	$12                     ; 0x2012 <main+0x1a80>
     84c: d0 0a        	bne	$858 <main+0x2c6>
     84e: a6 16        	ldx	$16                     ; 0x2016 <main+0x1a84>
     850: e4 17        	cpx	$17                     ; 0x2017 <main+0x1a85>
     852: d0 04        	bne	$858 <main+0x2c6>
     854: a6 15        	ldx	$15                     ; 0x2015 <main+0x1a83>
     856: 80 06        	bra	$85e <main+0x2cc>
     858: a6 15        	ldx	$15                     ; 0x2015 <main+0x1a83>
     85a: e8           	inx
     85b: d0 01        	bne	$85e <main+0x2cc>
     85d: 1a           	inc
     85e: 8e 00 de     	stx	$de00                   ; 0xde00 <end_block9+0x756a>
     861: 8d 01 de     	sta	$de01                   ; 0xde01 <end_block9+0x756b>
     864: 9c 02 de     	stz	$de02                   ; 0xde02 <end_block9+0x756c>
     867: a2 20        	ldx	#$20
     869: 8e 03 de     	stx	$de03                   ; 0xde03 <end_block9+0x756d>
     86c: ae 10 de     	ldx	$de10                   ; 0xde10 <end_block9+0x757a>
     86f: 86 12        	stx	$12                     ; 0x2012 <main+0x1a80>
     871: ae 11 de     	ldx	$de11                   ; 0xde11 <end_block9+0x757b>
     874: 86 13        	stx	$13                     ; 0x2013 <main+0x1a81>
     876: ae 12 de     	ldx	$de12                   ; 0xde12 <end_block9+0x757c>
     879: 86 14        	stx	$14                     ; 0x2014 <main+0x1a82>
     87b: ae 13 de     	ldx	$de13                   ; 0xde13 <end_block9+0x757d>
     87e: 86 15        	stx	$15                     ; 0x2015 <main+0x1a83>
     880: 38           	sec
     881: a9 00        	lda	#$0
     883: e5 12        	sbc	$12                     ; 0x2012 <main+0x1a80>
     885: 85 17        	sta	$17                     ; 0x2017 <main+0x1a85>
     887: a9 00        	lda	#$0
     889: e5 13        	sbc	$13                     ; 0x2013 <main+0x1a81>
     88b: aa           	tax
     88c: a9 08        	lda	#$8
     88e: e5 14        	sbc	$14                     ; 0x2014 <main+0x1a82>
     890: 85 16        	sta	$16                     ; 0x2016 <main+0x1a84>
     892: a9 00        	lda	#$0
     894: e5 15        	sbc	$15                     ; 0x2015 <main+0x1a83>
     896: 86 6c        	stx	$6c                     ; 0x206c <main+0x1ada>
     898: a4 16        	ldy	$16                     ; 0x2016 <main+0x1a84>
     89a: 84 6d        	sty	$6d                     ; 0x206d <main+0x1adb>
     89c: 85 6e        	sta	$6e                     ; 0x206e <main+0x1adc>
     89e: 38           	sec
     89f: a5 17        	lda	$17                     ; 0x2017 <main+0x1a85>
     8a1: e5 12        	sbc	$12                     ; 0x2012 <main+0x1a80>
     8a3: a8           	tay
     8a4: 8a           	txa
     8a5: e5 13        	sbc	$13                     ; 0x2013 <main+0x1a81>
     8a7: 85 18        	sta	$18                     ; 0x2018 <main+0x1a86>
     8a9: a5 16        	lda	$16                     ; 0x2016 <main+0x1a84>
     8ab: e5 14        	sbc	$14                     ; 0x2014 <main+0x1a82>
     8ad: 85 15        	sta	$15                     ; 0x2015 <main+0x1a83>
     8af: 98           	tya
     8b0: 84 16        	sty	$16                     ; 0x2016 <main+0x1a84>
     8b2: 38           	sec
     8b3: e5 12        	sbc	$12                     ; 0x2012 <main+0x1a80>
     8b5: 85 12        	sta	$12                     ; 0x2012 <main+0x1a80>
     8b7: a5 18        	lda	$18                     ; 0x2018 <main+0x1a86>
     8b9: e5 13        	sbc	$13                     ; 0x2013 <main+0x1a81>
     8bb: 85 13        	sta	$13                     ; 0x2013 <main+0x1a81>
     8bd: a4 15        	ldy	$15                     ; 0x2015 <main+0x1a83>
     8bf: a5 15        	lda	$15                     ; 0x2015 <main+0x1a83>
     8c1: e5 14        	sbc	$14                     ; 0x2014 <main+0x1a82>
     8c3: a6 17        	ldx	$17                     ; 0x2017 <main+0x1a85>
     8c5: 86 6b        	stx	$6b                     ; 0x206b <main+0x1ad9>
     8c7: 8e 01 d1     	stx	$d101                   ; 0xd101 <end_block9+0x686b>
     8ca: a6 6c        	ldx	$6c                     ; 0x206c <main+0x1ada>
     8cc: 8e 02 d1     	stx	$d102                   ; 0xd102 <end_block9+0x686c>
     8cf: a6 6d        	ldx	$6d                     ; 0x206d <main+0x1adb>
     8d1: 8e 03 d1     	stx	$d103                   ; 0xd103 <end_block9+0x686d>
     8d4: a6 16        	ldx	$16                     ; 0x2016 <main+0x1a84>
     8d6: 8e 09 d1     	stx	$d109                   ; 0xd109 <end_block9+0x6873>
     8d9: a6 18        	ldx	$18                     ; 0x2018 <main+0x1a86>
     8db: 8e 0a d1     	stx	$d10a                   ; 0xd10a <end_block9+0x6874>
     8de: 8c 0b d1     	sty	$d10b                   ; 0xd10b <end_block9+0x6875>
     8e1: a6 12        	ldx	$12                     ; 0x2012 <main+0x1a80>
     8e3: 8e 11 d1     	stx	$d111                   ; 0xd111 <end_block9+0x687b>
     8e6: a6 13        	ldx	$13                     ; 0x2013 <main+0x1a81>
     8e8: 8e 12 d1     	stx	$d112                   ; 0xd112 <end_block9+0x687c>
     8eb: 8d 13 d1     	sta	$d113                   ; 0xd113 <end_block9+0x687d>
     8ee: 9c 00 d1     	stz	$d100                   ; 0xd100 <end_block9+0x686a>
     8f1: 9c 08 d1     	stz	$d108                   ; 0xd108 <end_block9+0x6872>
     8f4: 9c 10 d1     	stz	$d110                   ; 0xd110 <end_block9+0x687a>
     8f7: a2 10        	ldx	#$10
     8f9: 8e 00 d2     	stx	$d200                   ; 0xd200 <end_block9+0x696a>
     8fc: 8e 0c d2     	stx	$d20c                   ; 0xd20c <end_block9+0x6976>
     8ff: 8e 18 d2     	stx	$d218                   ; 0xd218 <end_block9+0x6982>
     902: a0 d9        	ldy	#$d9
     904: 64 12        	stz	$12                     ; 0x2012 <main+0x1a80>
     906: a2 00        	ldx	#$0
     908: 84 13        	sty	$13                     ; 0x2013 <main+0x1a81>
     90a: bd 56 68     	lda	$6856,x                 ; 0x6856 <_spriteCtl>
     90d: 92 12        	sta	($12)                   ; 0x2012 <main+0x1a80>
     90f: a5 12        	lda	$12                     ; 0x2012 <main+0x1a80>
     911: e8           	inx
     912: 18           	clc
     913: 69 08        	adc	#$8
     915: 85 12        	sta	$12                     ; 0x2012 <main+0x1a80>
     917: 98           	tya
     918: 69 00        	adc	#$0
     91a: a8           	tay
     91b: e0 40        	cpx	#$40
     91d: d0 e9        	bne	$908 <main+0x376>
     91f: 18           	clc
     920: a5 10        	lda	$10                     ; 0x2010 <main+0x1a7e>
     922: 69 16        	adc	#$16
     924: 85 24        	sta	$24                     ; 0x2024 <main+0x1a92>
     926: a5 11        	lda	$11                     ; 0x2011 <main+0x1a7f>
     928: 69 00        	adc	#$0
     92a: 85 25        	sta	$25                     ; 0x2025 <main+0x1a93>
     92c: a6 24        	ldx	$24                     ; 0x2024 <main+0x1a92>
     92e: 86 fb        	stx	$fb                     ; 0x20fb <main+0x1b69>
     930: 85 fc        	sta	$fc                     ; 0x20fc <main+0x1b6a>
     932: a2 08        	ldx	#$8
     934: 86 fd        	stx	$fd                     ; 0x20fd <main+0x1b6b>
     936: 18           	clc
     937: a5 10        	lda	$10                     ; 0x2010 <main+0x1a7e>
     939: 69 a6        	adc	#$a6
     93b: 85 26        	sta	$26                     ; 0x2026 <main+0x1a94>
     93d: a5 11        	lda	$11                     ; 0x2011 <main+0x1a7f>
     93f: 69 01        	adc	#$1
     941: 85 27        	sta	$27                     ; 0x2027 <main+0x1a95>
     943: a2 68        	ldx	#$68
     945: 86 12        	stx	$12                     ; 0x2012 <main+0x1a80>
     947: a2 00        	ldx	#$0
     949: 86 13        	stx	$13                     ; 0x2013 <main+0x1a81>
     94b: a0 06        	ldy	#$6
     94d: 20 dc ff     	jsr	$ffdc <end_block9+0x9746>
     950: 92 26        	sta	($26)                   ; 0x2026 <main+0x1a94>
     952: a9 00        	lda	#$0
     954: 6a           	ror
     955: 85 12        	sta	$12                     ; 0x2012 <main+0x1a80>
     957: b1 24        	lda	($24),y                 ; 0x2024 <main+0x1a92>
     959: 85 12        	sta	$12                     ; 0x2012 <main+0x1a80>
     95b: c8           	iny
     95c: b1 24        	lda	($24),y                 ; 0x2024 <main+0x1a92>
     95e: a6 12        	ldx	$12                     ; 0x2012 <main+0x1a80>
     960: 8e 00 de     	stx	$de00                   ; 0xde00 <end_block9+0x756a>
     963: 9c 01 de     	stz	$de01                   ; 0xde01 <end_block9+0x756b>
     966: 8d 02 de     	sta	$de02                   ; 0xde02 <end_block9+0x756c>
     969: 9c 03 de     	stz	$de03                   ; 0xde03 <end_block9+0x756d>
     96c: ae 10 de     	ldx	$de10                   ; 0xde10 <end_block9+0x757a>
     96f: ac 11 de     	ldy	$de11                   ; 0xde11 <end_block9+0x757b>
     972: ad 12 de     	lda	$de12                   ; 0xde12 <end_block9+0x757c>
     975: ad 13 de     	lda	$de13                   ; 0xde13 <end_block9+0x757d>
     978: 8e a4 d6     	stx	$d6a4                   ; 0xd6a4 <end_block9+0x6e0e>
     97b: 8c a5 d6     	sty	$d6a5                   ; 0xd6a5 <end_block9+0x6e0f>
     97e: a2 03        	ldx	#$3
     980: 8e a6 d6     	stx	$d6a6                   ; 0xd6a6 <end_block9+0x6e10>
     983: a2 1f        	ldx	#$1f
     985: 8e 20 d6     	stx	$d620                   ; 0xd620 <end_block9+0x6d8a>
     988: a2 2a        	ldx	#$2a
     98a: 8e 21 d6     	stx	$d621                   ; 0xd621 <end_block9+0x6d8b>
     98d: a2 01        	ldx	#$1
     98f: 8e 22 d6     	stx	$d622                   ; 0xd622 <end_block9+0x6d8c>
     992: ad 22 d6     	lda	$d622                   ; 0xd622 <end_block9+0x6d8c>
     995: 29 01        	and	#$1
     997: 29 01        	and	#$1
     999: d0 f7        	bne	$992 <main+0x400>
     99b: a9 00        	lda	#$0
     99d: 64 12        	stz	$12                     ; 0x2012 <main+0x1a80>
     99f: a4 12        	ldy	$12                     ; 0x2012 <main+0x1a80>
     9a1: 84 13        	sty	$13                     ; 0x2013 <main+0x1a81>
     9a3: 85 12        	sta	$12                     ; 0x2012 <main+0x1a80>
     9a5: 18           	clc
     9a6: 69 02        	adc	#$2
     9a8: aa           	tax
     9a9: 98           	tya
     9aa: 69 00        	adc	#$0
     9ac: 85 14        	sta	$14                     ; 0x2014 <main+0x1a82>
     9ae: 06 12        	asl	$12                     ; 0x2012 <main+0x1a80>
     9b0: 26 13        	rol	$13                     ; 0x2013 <main+0x1a81>
     9b2: a9 15        	lda	#$15
     9b4: 18           	clc
     9b5: 65 12        	adc	$12                     ; 0x2012 <main+0x1a80>
     9b7: 85 12        	sta	$12                     ; 0x2012 <main+0x1a80>
     9b9: a9 65        	lda	#$65
     9bb: 65 13        	adc	$13                     ; 0x2013 <main+0x1a81>
     9bd: 85 13        	sta	$13                     ; 0x2013 <main+0x1a81>
     9bf: a0 02        	ldy	#$2
     9c1: b1 12        	lda	($12),y                 ; 0x2012 <main+0x1a80>
     9c3: f0 53        	beq	$a18 <main+0x486>
     9c5: 85 16        	sta	$16                     ; 0x2016 <main+0x1a84>
     9c7: b2 12        	lda	($12)                   ; 0x2012 <main+0x1a80>
     9c9: 85 17        	sta	$17                     ; 0x2017 <main+0x1a85>
     9cb: 8a           	txa
     9cc: a6 14        	ldx	$14                     ; 0x2014 <main+0x1a82>
     9ce: a0 01        	ldy	#$1
     9d0: 85 14        	sta	$14                     ; 0x2014 <main+0x1a82>
     9d2: 0a           	asl
     9d3: 85 12        	sta	$12                     ; 0x2012 <main+0x1a80>
     9d5: 86 15        	stx	$15                     ; 0x2015 <main+0x1a83>
     9d7: 8a           	txa
     9d8: 2a           	rol
     9d9: 85 13        	sta	$13                     ; 0x2013 <main+0x1a81>
     9db: a9 15        	lda	#$15
     9dd: 18           	clc
     9de: 65 12        	adc	$12                     ; 0x2012 <main+0x1a80>
     9e0: 85 12        	sta	$12                     ; 0x2012 <main+0x1a80>
     9e2: a9 65        	lda	#$65
     9e4: 65 13        	adc	$13                     ; 0x2013 <main+0x1a81>
     9e6: 85 13        	sta	$13                     ; 0x2013 <main+0x1a81>
     9e8: b2 12        	lda	($12)                   ; 0x2012 <main+0x1a80>
     9ea: 85 18        	sta	$18                     ; 0x2018 <main+0x1a86>
     9ec: b1 12        	lda	($12),y                 ; 0x2012 <main+0x1a80>
     9ee: a6 17        	ldx	$17                     ; 0x2017 <main+0x1a85>
     9f0: 8e 01 d7     	stx	$d701                   ; 0xd701 <end_block9+0x6e6b>
     9f3: a6 18        	ldx	$18                     ; 0x2018 <main+0x1a86>
     9f5: 8e 02 d7     	stx	$d702                   ; 0xd702 <end_block9+0x6e6c>
     9f8: 8d 03 d7     	sta	$d703                   ; 0xd703 <end_block9+0x6e6d>
     9fb: 8c 00 d7     	sty	$d700                   ; 0xd700 <end_block9+0x6e6a>
     9fe: 9c 00 d7     	stz	$d700                   ; 0xd700 <end_block9+0x6e6a>
     a01: ae 00 d7     	ldx	$d700                   ; 0xd700 <end_block9+0x6e6a>
     a04: 30 fb        	bmi	$a01 <main+0x46f>
     a06: c6 16        	dec	$16                     ; 0x2016 <main+0x1a84>
     a08: a5 14        	lda	$14                     ; 0x2014 <main+0x1a82>
     a0a: a6 15        	ldx	$15                     ; 0x2015 <main+0x1a83>
     a0c: 1a           	inc
     a0d: d0 01        	bne	$a10 <main+0x47e>
     a0f: e8           	inx
     a10: e6 16        	inc	$16                     ; 0x2016 <main+0x1a84>
     a12: c6 16        	dec	$16                     ; 0x2016 <main+0x1a84>
     a14: d0 ba        	bne	$9d0 <main+0x43e>
     a16: 80 03        	bra	$a1b <main+0x489>
     a18: 8a           	txa
     a19: a6 14        	ldx	$14                     ; 0x2014 <main+0x1a82>
     a1b: e0 00        	cpx	#$0
     a1d: d0 09        	bne	$a28 <main+0x496>
     a1f: 86 12        	stx	$12                     ; 0x2012 <main+0x1a80>
     a21: c9 1c        	cmp	#$1c
     a23: b0 0c        	bcs	$a31 <main+0x49f>
     a25: 4c 9f 09     	jmp	$99f <main+0x40d>
     a28: 86 12        	stx	$12                     ; 0x2012 <main+0x1a80>
     a2a: e0 00        	cpx	#$0
     a2c: b0 03        	bcs	$a31 <main+0x49f>
     a2e: 4c 9f 09     	jmp	$99f <main+0x40d>
     a31: a2 c0        	ldx	#$c0
     a33: 8e a1 dd     	stx	$dda1                   ; 0xdda1 <end_block9+0x750b>
     a36: 9c a1 dd     	stz	$dda1                   ; 0xdda1 <end_block9+0x750b>
     a39: 8e a1 dd     	stx	$dda1                   ; 0xdda1 <end_block9+0x750b>
     a3c: 9c a1 dd     	stz	$dda1                   ; 0xdda1 <end_block9+0x750b>
     a3f: e8           	inx
     a40: e0 d0        	cpx	#$d0
     a42: d0 f5        	bne	$a39 <main+0x4a7>
     a44: a2 ff        	ldx	#$ff
     a46: 8e a1 dd     	stx	$dda1                   ; 0xdda1 <end_block9+0x750b>
     a49: 64 79        	stz	$79                     ; 0x2079 <main+0x1ae7>
     a4b: 64 7a        	stz	$7a                     ; 0x207a <main+0x1ae8>
     a4d: 64 7b        	stz	$7b                     ; 0x207b <main+0x1ae9>
     a4f: e8           	inx
     a50: 86 12        	stx	$12                     ; 0x2012 <main+0x1a80>
     a52: a2 00        	ldx	#$0
     a54: 86 13        	stx	$13                     ; 0x2013 <main+0x1a81>
     a56: a6 12        	ldx	$12                     ; 0x2012 <main+0x1a80>
     a58: a4 13        	ldy	$13                     ; 0x2013 <main+0x1a81>
     a5a: 86 7c        	stx	$7c                     ; 0x207c <main+0x1aea>
     a5c: 84 7d        	sty	$7d                     ; 0x207d <main+0x1aeb>
     a5e: a9 3e        	lda	#$3e
     a60: 92 10        	sta	($10)                   ; 0x2010 <main+0x1a7e>
     a62: a0 01        	ldy	#$1
     a64: a9 66        	lda	#$66
     a66: 91 10        	sta	($10),y                 ; 0x2010 <main+0x1a7e>
     a68: a2 bc        	ldx	#$bc
     a6a: 86 12        	stx	$12                     ; 0x2012 <main+0x1a80>
     a6c: a2 65        	ldx	#$65
     a6e: 86 13        	stx	$13                     ; 0x2013 <main+0x1a81>
     a70: 20 a6 3a     	jsr	$3aa6 <printf>
     a73: 20 3f 4a     	jsr	$4a3f <strlen>
     a76: a8           	tay
     a77: a2 96        	ldx	#$96
     a79: 86 12        	stx	$12                     ; 0x2012 <main+0x1a80>
     a7b: a2 66        	ldx	#$66
     a7d: 86 13        	stx	$13                     ; 0x2013 <main+0x1a81>
     a7f: a2 00        	ldx	#$0
     a81: 80 08        	bra	$a8b <main+0x4f9>
     a83: a2 02        	ldx	#$2
     a85: e6 12        	inc	$12                     ; 0x2012 <main+0x1a80>
     a87: d0 02        	bne	$a8b <main+0x4f9>
     a89: e6 13        	inc	$13                     ; 0x2013 <main+0x1a81>
     a8b: b2 12        	lda	($12)                   ; 0x2012 <main+0x1a80>
     a8d: c9 61        	cmp	#$61
     a8f: f0 f2        	beq	$a83 <main+0x4f1>
     a91: 86 14        	stx	$14                     ; 0x2014 <main+0x1a82>
     a93: a2 01        	ldx	#$1
     a95: c9 77        	cmp	#$77
     a97: f0 ec        	beq	$a85 <main+0x4f3>
     a99: aa           	tax
     a9a: f0 04        	beq	$aa0 <main+0x50e>
     a9c: a6 14        	ldx	$14                     ; 0x2014 <main+0x1a82>
     a9e: 80 e5        	bra	$a85 <main+0x4f3>
     aa0: a2 3e        	ldx	#$3e
     aa2: a9 66        	lda	#$66
     aa4: 86 fb        	stx	$fb                     ; 0x20fb <main+0x1b69>
     aa6: 85 fc        	sta	$fc                     ; 0x20fc <main+0x1b6a>
     aa8: 84 fd        	sty	$fd                     ; 0x20fd <main+0x1b6b>
     aaa: 64 f3        	stz	$f3                     ; 0x20f3 <main+0x1b61>
     aac: a6 14        	ldx	$14                     ; 0x2014 <main+0x1a82>
     aae: 86 f5        	stx	$f5                     ; 0x20f5 <main+0x1b63>
     ab0: a2 68        	ldx	#$68
     ab2: 86 12        	stx	$12                     ; 0x2012 <main+0x1a80>
     ab4: a2 00        	ldx	#$0
     ab6: 86 13        	stx	$13                     ; 0x2013 <main+0x1a81>
     ab8: 20 5c ff     	jsr	$ff5c <end_block9+0x96c6>
     abb: 92 24        	sta	($24)                   ; 0x2024 <main+0x1a92>
     abd: a9 00        	lda	#$0
     abf: 6a           	ror
     ac0: 85 12        	sta	$12                     ; 0x2012 <main+0x1a80>
     ac2: a6 68        	ldx	$68                     ; 0x2068 <main+0x1ad6>
     ac4: d0 03        	bne	$ac9 <main+0x537>
     ac6: 4c 80 20     	jmp	$2080 <main+0x1aee>
     ac9: a2 00        	ldx	#$0
     acb: 86 12        	stx	$12                     ; 0x2012 <main+0x1a80>
     acd: a2 00        	ldx	#$0
     acf: 86 13        	stx	$13                     ; 0x2013 <main+0x1a81>
     ad1: a6 12        	ldx	$12                     ; 0x2012 <main+0x1a80>
     ad3: a4 13        	ldy	$13                     ; 0x2013 <main+0x1a81>
     ad5: 86 80        	stx	$80                     ; 0x2080 <main+0x1aee>
     ad7: 84 81        	sty	$81                     ; 0x2081 <main+0x1aef>
     ad9: a9 3e        	lda	#$3e
     adb: 92 10        	sta	($10)                   ; 0x2010 <main+0x1a7e>
     add: a0 01        	ldy	#$1
     adf: a9 66        	lda	#$66
     ae1: 91 10        	sta	($10),y                 ; 0x2010 <main+0x1a7e>
     ae3: a2 26        	ldx	#$26
     ae5: 86 12        	stx	$12                     ; 0x2012 <main+0x1a80>
     ae7: a2 68        	ldx	#$68
     ae9: 86 13        	stx	$13                     ; 0x2013 <main+0x1a81>
     aeb: 20 a6 3a     	jsr	$3aa6 <printf>
     aee: a2 e3        	ldx	#$e3
     af0: 86 12        	stx	$12                     ; 0x2012 <main+0x1a80>
     af2: a2 67        	ldx	#$67
     af4: 86 13        	stx	$13                     ; 0x2013 <main+0x1a81>
     af6: 20 62 46     	jsr	$4662 <puts>
     af9: a2 68        	ldx	#$68
     afb: 86 12        	stx	$12                     ; 0x2012 <main+0x1a80>
     afd: a2 00        	ldx	#$0
     aff: 86 13        	stx	$13                     ; 0x2013 <main+0x1a81>
     b01: 64 61        	stz	$61                     ; 0x2061 <main+0x1acf>
     b03: 20 00 ff     	jsr	$ff00 <end_block9+0x966a>
     b06: 92 24        	sta	($24)                   ; 0x2024 <main+0x1a92>
     b08: a9 00        	lda	#$0
     b0a: 6a           	ror
     b0b: 85 12        	sta	$12                     ; 0x2012 <main+0x1a80>
     b0d: a6 61        	ldx	$61                     ; 0x2061 <main+0x1acf>
     b0f: e0 08        	cpx	#$8
     b11: d0 ee        	bne	$b01 <main+0x56f>
     b13: a6 65        	ldx	$65                     ; 0x2065 <main+0x1ad3>
     b15: e0 20        	cpx	#$20
     b17: f0 04        	beq	$b1d <main+0x58b>
     b19: e0 94        	cpx	#$94
     b1b: d0 e4        	bne	$b01 <main+0x56f>
     b1d: a0 e0        	ldy	#$e0
     b1f: a9 01        	lda	#$1
     b21: 64 12        	stz	$12                     ; 0x2012 <main+0x1a80>
     b23: 84 13        	sty	$13                     ; 0x2013 <main+0x1a81>
     b25: a6 24        	ldx	$24                     ; 0x2024 <main+0x1a92>
     b27: 86 14        	stx	$14                     ; 0x2014 <main+0x1a82>
     b29: a6 25        	ldx	$25                     ; 0x2025 <main+0x1a93>
     b2b: 86 15        	stx	$15                     ; 0x2015 <main+0x1a83>
     b2d: a0 90        	ldy	#$90
     b2f: 85 16        	sta	$16                     ; 0x2016 <main+0x1a84>
     b31: a6 0f        	ldx	$f                      ; 0x200f <main+0x1a7d>
     b33: 78           	sei
     b34: a9 20        	lda	#$20
     b36: 85 0f        	sta	$f                      ; 0x200f <main+0x1a7d>
     b38: b2 12        	lda	($12)                   ; 0x2012 <main+0x1a80>
     b3a: 86 0f        	stx	$f                      ; 0x200f <main+0x1a7d>
     b3c: 58           	cli
     b3d: 92 14        	sta	($14)                   ; 0x2014 <main+0x1a82>
     b3f: 88           	dey
     b40: c0 ff        	cpy	#$ff
     b42: d0 02        	bne	$b46 <main+0x5b4>
     b44: c6 16        	dec	$16                     ; 0x2016 <main+0x1a84>
     b46: e6 14        	inc	$14                     ; 0x2014 <main+0x1a82>
     b48: d0 02        	bne	$b4c <main+0x5ba>
     b4a: e6 15        	inc	$15                     ; 0x2015 <main+0x1a83>
     b4c: e6 12        	inc	$12                     ; 0x2012 <main+0x1a80>
     b4e: d0 02        	bne	$b52 <main+0x5c0>
     b50: e6 13        	inc	$13                     ; 0x2013 <main+0x1a81>
     b52: a5 16        	lda	$16                     ; 0x2016 <main+0x1a84>
     b54: d0 db        	bne	$b31 <main+0x59f>
     b56: 98           	tya
     b57: d0 d8        	bne	$b31 <main+0x59f>
     b59: a6 24        	ldx	$24                     ; 0x2024 <main+0x1a92>
     b5b: 86 12        	stx	$12                     ; 0x2012 <main+0x1a80>
     b5d: a6 25        	ldx	$25                     ; 0x2025 <main+0x1a93>
     b5f: 86 13        	stx	$13                     ; 0x2013 <main+0x1a81>
     b61: a2 91        	ldx	#$91
     b63: 86 14        	stx	$14                     ; 0x2014 <main+0x1a82>
     b65: a2 66        	ldx	#$66
     b67: 86 15        	stx	$15                     ; 0x2015 <main+0x1a83>
     b69: 20 44 4a     	jsr	$4a44 <strstr>
     b6c: a6 12        	ldx	$12                     ; 0x2012 <main+0x1a80>
     b6e: 86 24        	stx	$24                     ; 0x2024 <main+0x1a92>
     b70: a6 13        	ldx	$13                     ; 0x2013 <main+0x1a81>
     b72: 86 25        	stx	$25                     ; 0x2025 <main+0x1a93>
     b74: b2 12        	lda	($12)                   ; 0x2012 <main+0x1a80>
     b76: 92 10        	sta	($10)                   ; 0x2010 <main+0x1a7e>
     b78: a0 01        	ldy	#$1
     b7a: a9 00        	lda	#$0
     b7c: 91 10        	sta	($10),y                 ; 0x2010 <main+0x1a7e>
     b7e: a2 59        	ldx	#$59
     b80: 86 12        	stx	$12                     ; 0x2012 <main+0x1a80>
     b82: a2 67        	ldx	#$67
     b84: 86 13        	stx	$13                     ; 0x2013 <main+0x1a81>
     b86: 20 a6 3a     	jsr	$3aa6 <printf>
     b89: a2 68        	ldx	#$68
     b8b: 86 12        	stx	$12                     ; 0x2012 <main+0x1a80>
     b8d: a2 00        	ldx	#$0
     b8f: 86 13        	stx	$13                     ; 0x2013 <main+0x1a81>
     b91: 64 61        	stz	$61                     ; 0x2061 <main+0x1acf>
     b93: 20 00 ff     	jsr	$ff00 <end_block9+0x966a>
     b96: 92 26        	sta	($26)                   ; 0x2026 <main+0x1a94>
     b98: a9 00        	lda	#$0
     b9a: 6a           	ror
     b9b: 85 12        	sta	$12                     ; 0x2012 <main+0x1a80>
     b9d: a6 61        	ldx	$61                     ; 0x2061 <main+0x1acf>
     b9f: e0 08        	cpx	#$8
     ba1: d0 ee        	bne	$b91 <main+0x5ff>
     ba3: a6 65        	ldx	$65                     ; 0x2065 <main+0x1ad3>
     ba5: e0 20        	cpx	#$20
     ba7: f0 04        	beq	$bad <main+0x61b>
     ba9: e0 94        	cpx	#$94
     bab: d0 e4        	bne	$b91 <main+0x5ff>
     bad: 18           	clc
     bae: a5 10        	lda	$10                     ; 0x2010 <main+0x1a7e>
     bb0: 69 16        	adc	#$16
     bb2: 85 12        	sta	$12                     ; 0x2012 <main+0x1a80>
     bb4: a5 11        	lda	$11                     ; 0x2011 <main+0x1a7f>
     bb6: 69 00        	adc	#$0
     bb8: 85 13        	sta	$13                     ; 0x2013 <main+0x1a81>
     bba: a5 24        	lda	$24                     ; 0x2024 <main+0x1a92>
     bbc: 38           	sec
     bbd: e5 12        	sbc	$12                     ; 0x2012 <main+0x1a80>
     bbf: aa           	tax
     bc0: a5 25        	lda	$25                     ; 0x2025 <main+0x1a93>
     bc2: e5 13        	sbc	$13                     ; 0x2013 <main+0x1a81>
     bc4: 85 25        	sta	$25                     ; 0x2025 <main+0x1a93>
     bc6: 8a           	txa
     bc7: 92 10        	sta	($10)                   ; 0x2010 <main+0x1a7e>
     bc9: 86 24        	stx	$24                     ; 0x2024 <main+0x1a92>
     bcb: a0 01        	ldy	#$1
     bcd: a5 25        	lda	$25                     ; 0x2025 <main+0x1a93>
     bcf: 91 10        	sta	($10),y                 ; 0x2010 <main+0x1a7e>
     bd1: a2 99        	ldx	#$99
     bd3: 86 12        	stx	$12                     ; 0x2012 <main+0x1a80>
     bd5: a2 66        	ldx	#$66
     bd7: 86 13        	stx	$13                     ; 0x2013 <main+0x1a81>
     bd9: 20 a6 3a     	jsr	$3aa6 <printf>
     bdc: a6 25        	ldx	$25                     ; 0x2025 <main+0x1a93>
     bde: e0 ff        	cpx	#$ff
     be0: d0 14        	bne	$bf6 <main+0x664>
     be2: a6 24        	ldx	$24                     ; 0x2024 <main+0x1a92>
     be4: e0 ff        	cpx	#$ff
     be6: d0 0e        	bne	$bf6 <main+0x664>
     be8: a2 e7        	ldx	#$e7
     bea: 86 12        	stx	$12                     ; 0x2012 <main+0x1a80>
     bec: a2 66        	ldx	#$66
     bee: 86 13        	stx	$13                     ; 0x2013 <main+0x1a81>
     bf0: 20 62 46     	jsr	$4662 <puts>
     bf3: 4c 50 11     	jmp	$1150 <main+0xbbe>
     bf6: a2 83        	ldx	#$83
     bf8: 86 12        	stx	$12                     ; 0x2012 <main+0x1a80>
     bfa: a2 67        	ldx	#$67
     bfc: 86 13        	stx	$13                     ; 0x2013 <main+0x1a81>
     bfe: 20 62 46     	jsr	$4662 <puts>
     c01: a2 94        	ldx	#$94
     c03: 86 12        	stx	$12                     ; 0x2012 <main+0x1a80>
     c05: a2 67        	ldx	#$67
     c07: 86 13        	stx	$13                     ; 0x2013 <main+0x1a81>
     c09: 20 62 46     	jsr	$4662 <puts>
     c0c: a2 1f        	ldx	#$1f
     c0e: 86 12        	stx	$12                     ; 0x2012 <main+0x1a80>
     c10: a2 66        	ldx	#$66
     c12: 86 13        	stx	$13                     ; 0x2013 <main+0x1a81>
     c14: 20 a6 3a     	jsr	$3aa6 <printf>
     c17: a5 24        	lda	$24                     ; 0x2024 <main+0x1a92>
     c19: 18           	clc
     c1a: 69 04        	adc	#$4
     c1c: a8           	tay
     c1d: a5 25        	lda	$25                     ; 0x2025 <main+0x1a93>
     c1f: 69 00        	adc	#$0
     c21: 85 14        	sta	$14                     ; 0x2014 <main+0x1a82>
     c23: a9 00        	lda	#$0
     c25: 69 04        	adc	#$4
     c27: 85 15        	sta	$15                     ; 0x2015 <main+0x1a83>
     c29: a5 24        	lda	$24                     ; 0x2024 <main+0x1a92>
     c2b: 18           	clc
     c2c: 69 07        	adc	#$7
     c2e: 85 13        	sta	$13                     ; 0x2013 <main+0x1a81>
     c30: a5 25        	lda	$25                     ; 0x2025 <main+0x1a93>
     c32: 69 00        	adc	#$0
     c34: 85 16        	sta	$16                     ; 0x2016 <main+0x1a84>
     c36: a9 00        	lda	#$0
     c38: 69 04        	adc	#$4
     c3a: 5a           	phy
     c3b: a6 16        	ldx	$16                     ; 0x2016 <main+0x1a84>
     c3d: 86 12        	stx	$12                     ; 0x2012 <main+0x1a80>
     c3f: 06 12        	asl	$12                     ; 0x2012 <main+0x1a80>
     c41: 2a           	rol
     c42: 06 12        	asl	$12                     ; 0x2012 <main+0x1a80>
     c44: 2a           	rol
     c45: 06 12        	asl	$12                     ; 0x2012 <main+0x1a80>
     c47: 2a           	rol
     c48: a6 0f        	ldx	$f                      ; 0x200f <main+0x1a7d>
     c4a: 78           	sei
     c4b: 85 0f        	sta	$f                      ; 0x200f <main+0x1a7d>
     c4d: a5 16        	lda	$16                     ; 0x2016 <main+0x1a84>
     c4f: 09 e0        	ora	#$e0
     c51: a4 13        	ldy	$13                     ; 0x2013 <main+0x1a81>
     c53: 84 12        	sty	$12                     ; 0x2012 <main+0x1a80>
     c55: 7a           	ply
     c56: 85 13        	sta	$13                     ; 0x2013 <main+0x1a81>
     c58: b2 12        	lda	($12)                   ; 0x2012 <main+0x1a80>
     c5a: 85 16        	sta	$16                     ; 0x2016 <main+0x1a84>
     c5c: 86 0f        	stx	$f                      ; 0x200f <main+0x1a7d>
     c5e: a5 24        	lda	$24                     ; 0x2024 <main+0x1a92>
     c60: 18           	clc
     c61: 69 06        	adc	#$6
     c63: 85 13        	sta	$13                     ; 0x2013 <main+0x1a81>
     c65: a5 25        	lda	$25                     ; 0x2025 <main+0x1a93>
     c67: 69 00        	adc	#$0
     c69: 85 17        	sta	$17                     ; 0x2017 <main+0x1a85>
     c6b: a9 00        	lda	#$0
     c6d: 69 04        	adc	#$4
     c6f: a6 17        	ldx	$17                     ; 0x2017 <main+0x1a85>
     c71: 86 12        	stx	$12                     ; 0x2012 <main+0x1a80>
     c73: 06 12        	asl	$12                     ; 0x2012 <main+0x1a80>
     c75: 2a           	rol
     c76: 06 12        	asl	$12                     ; 0x2012 <main+0x1a80>
     c78: 2a           	rol
     c79: 06 12        	asl	$12                     ; 0x2012 <main+0x1a80>
     c7b: 2a           	rol
     c7c: 58           	cli
     c7d: a6 0f        	ldx	$f                      ; 0x200f <main+0x1a7d>
     c7f: 78           	sei
     c80: 85 0f        	sta	$f                      ; 0x200f <main+0x1a7d>
     c82: a5 13        	lda	$13                     ; 0x2013 <main+0x1a81>
     c84: 85 12        	sta	$12                     ; 0x2012 <main+0x1a80>
     c86: a5 17        	lda	$17                     ; 0x2017 <main+0x1a85>
     c88: 09 e0        	ora	#$e0
     c8a: 85 13        	sta	$13                     ; 0x2013 <main+0x1a81>
     c8c: b2 12        	lda	($12)                   ; 0x2012 <main+0x1a80>
     c8e: 85 17        	sta	$17                     ; 0x2017 <main+0x1a85>
     c90: 86 0f        	stx	$f                      ; 0x200f <main+0x1a7d>
     c92: a5 24        	lda	$24                     ; 0x2024 <main+0x1a92>
     c94: 18           	clc
     c95: 69 05        	adc	#$5
     c97: 85 13        	sta	$13                     ; 0x2013 <main+0x1a81>
     c99: a5 25        	lda	$25                     ; 0x2025 <main+0x1a93>
     c9b: 69 00        	adc	#$0
     c9d: 85 18        	sta	$18                     ; 0x2018 <main+0x1a86>
     c9f: a9 00        	lda	#$0
     ca1: 69 04        	adc	#$4
     ca3: a6 18        	ldx	$18                     ; 0x2018 <main+0x1a86>
     ca5: 86 12        	stx	$12                     ; 0x2012 <main+0x1a80>
     ca7: 06 12        	asl	$12                     ; 0x2012 <main+0x1a80>
     ca9: 2a           	rol
     caa: 06 12        	asl	$12                     ; 0x2012 <main+0x1a80>
     cac: 2a           	rol
     cad: 06 12        	asl	$12                     ; 0x2012 <main+0x1a80>
     caf: 2a           	rol
     cb0: 58           	cli
     cb1: a6 0f        	ldx	$f                      ; 0x200f <main+0x1a7d>
     cb3: 78           	sei
     cb4: 85 0f        	sta	$f                      ; 0x200f <main+0x1a7d>
     cb6: a5 13        	lda	$13                     ; 0x2013 <main+0x1a81>
     cb8: 85 12        	sta	$12                     ; 0x2012 <main+0x1a80>
     cba: a5 18        	lda	$18                     ; 0x2018 <main+0x1a86>
     cbc: 09 e0        	ora	#$e0
     cbe: 85 13        	sta	$13                     ; 0x2013 <main+0x1a81>
     cc0: b2 12        	lda	($12)                   ; 0x2012 <main+0x1a80>
     cc2: 85 18        	sta	$18                     ; 0x2018 <main+0x1a86>
     cc4: 86 0f        	stx	$f                      ; 0x200f <main+0x1a7d>
     cc6: a5 14        	lda	$14                     ; 0x2014 <main+0x1a82>
     cc8: 0a           	asl
     cc9: 26 15        	rol	$15                     ; 0x2015 <main+0x1a83>
     ccb: 0a           	asl
     ccc: 26 15        	rol	$15                     ; 0x2015 <main+0x1a83>
     cce: 0a           	asl
     ccf: a5 15        	lda	$15                     ; 0x2015 <main+0x1a83>
     cd1: 2a           	rol
     cd2: 58           	cli
     cd3: a6 0f        	ldx	$f                      ; 0x200f <main+0x1a7d>
     cd5: 78           	sei
     cd6: 85 0f        	sta	$f                      ; 0x200f <main+0x1a7d>
     cd8: 84 12        	sty	$12                     ; 0x2012 <main+0x1a80>
     cda: a5 14        	lda	$14                     ; 0x2014 <main+0x1a82>
     cdc: 09 e0        	ora	#$e0
     cde: 85 13        	sta	$13                     ; 0x2013 <main+0x1a81>
     ce0: b2 12        	lda	($12)                   ; 0x2012 <main+0x1a80>
     ce2: 85 12        	sta	$12                     ; 0x2012 <main+0x1a80>
     ce4: 86 0f        	stx	$f                      ; 0x200f <main+0x1a7d>
     ce6: 58           	cli
     ce7: a5 16        	lda	$16                     ; 0x2016 <main+0x1a84>
     ce9: 92 10        	sta	($10)                   ; 0x2010 <main+0x1a7e>
     ceb: a0 01        	ldy	#$1
     ced: a5 17        	lda	$17                     ; 0x2017 <main+0x1a85>
     cef: 91 10        	sta	($10),y                 ; 0x2010 <main+0x1a7e>
     cf1: a5 18        	lda	$18                     ; 0x2018 <main+0x1a86>
     cf3: c8           	iny
     cf4: 91 10        	sta	($10),y                 ; 0x2010 <main+0x1a7e>
     cf6: a5 12        	lda	$12                     ; 0x2012 <main+0x1a80>
     cf8: c8           	iny
     cf9: 91 10        	sta	($10),y                 ; 0x2010 <main+0x1a7e>
     cfb: a2 e2        	ldx	#$e2
     cfd: 86 12        	stx	$12                     ; 0x2012 <main+0x1a80>
     cff: a2 66        	ldx	#$66
     d01: 86 13        	stx	$13                     ; 0x2013 <main+0x1a81>
     d03: 20 a6 3a     	jsr	$3aa6 <printf>
     d06: a2 2c        	ldx	#$2c
     d08: 86 12        	stx	$12                     ; 0x2012 <main+0x1a80>
     d0a: a2 67        	ldx	#$67
     d0c: 86 13        	stx	$13                     ; 0x2013 <main+0x1a81>
     d0e: 20 a6 3a     	jsr	$3aa6 <printf>
     d11: a5 24        	lda	$24                     ; 0x2024 <main+0x1a92>
     d13: 18           	clc
     d14: 69 08        	adc	#$8
     d16: a8           	tay
     d17: a5 25        	lda	$25                     ; 0x2025 <main+0x1a93>
     d19: 69 00        	adc	#$0
     d1b: 85 14        	sta	$14                     ; 0x2014 <main+0x1a82>
     d1d: a9 00        	lda	#$0
     d1f: 69 04        	adc	#$4
     d21: 85 15        	sta	$15                     ; 0x2015 <main+0x1a83>
     d23: a5 24        	lda	$24                     ; 0x2024 <main+0x1a92>
     d25: 18           	clc
     d26: 69 09        	adc	#$9
     d28: 85 13        	sta	$13                     ; 0x2013 <main+0x1a81>
     d2a: a5 25        	lda	$25                     ; 0x2025 <main+0x1a93>
     d2c: 69 00        	adc	#$0
     d2e: 85 16        	sta	$16                     ; 0x2016 <main+0x1a84>
     d30: a9 00        	lda	#$0
     d32: 69 04        	adc	#$4
     d34: a6 16        	ldx	$16                     ; 0x2016 <main+0x1a84>
     d36: 86 12        	stx	$12                     ; 0x2012 <main+0x1a80>
     d38: 06 12        	asl	$12                     ; 0x2012 <main+0x1a80>
     d3a: 2a           	rol
     d3b: 06 12        	asl	$12                     ; 0x2012 <main+0x1a80>
     d3d: 2a           	rol
     d3e: 06 12        	asl	$12                     ; 0x2012 <main+0x1a80>
     d40: 2a           	rol
     d41: a6 0f        	ldx	$f                      ; 0x200f <main+0x1a7d>
     d43: 78           	sei
     d44: 85 0f        	sta	$f                      ; 0x200f <main+0x1a7d>
     d46: a5 13        	lda	$13                     ; 0x2013 <main+0x1a81>
     d48: 85 12        	sta	$12                     ; 0x2012 <main+0x1a80>
     d4a: a5 16        	lda	$16                     ; 0x2016 <main+0x1a84>
     d4c: 09 e0        	ora	#$e0
     d4e: 85 13        	sta	$13                     ; 0x2013 <main+0x1a81>
     d50: b2 12        	lda	($12)                   ; 0x2012 <main+0x1a80>
     d52: 85 16        	sta	$16                     ; 0x2016 <main+0x1a84>
     d54: 86 0f        	stx	$f                      ; 0x200f <main+0x1a7d>
     d56: 58           	cli
     d57: a5 14        	lda	$14                     ; 0x2014 <main+0x1a82>
     d59: 0a           	asl
     d5a: 26 15        	rol	$15                     ; 0x2015 <main+0x1a83>
     d5c: 0a           	asl
     d5d: 26 15        	rol	$15                     ; 0x2015 <main+0x1a83>
     d5f: 0a           	asl
     d60: a5 15        	lda	$15                     ; 0x2015 <main+0x1a83>
     d62: 2a           	rol
     d63: a6 0f        	ldx	$f                      ; 0x200f <main+0x1a7d>
     d65: 78           	sei
     d66: 85 0f        	sta	$f                      ; 0x200f <main+0x1a7d>
     d68: 84 12        	sty	$12                     ; 0x2012 <main+0x1a80>
     d6a: a5 14        	lda	$14                     ; 0x2014 <main+0x1a82>
     d6c: 09 e0        	ora	#$e0
     d6e: 85 13        	sta	$13                     ; 0x2013 <main+0x1a81>
     d70: b2 12        	lda	($12)                   ; 0x2012 <main+0x1a80>
     d72: 85 12        	sta	$12                     ; 0x2012 <main+0x1a80>
     d74: 86 0f        	stx	$f                      ; 0x200f <main+0x1a7d>
     d76: 58           	cli
     d77: a5 16        	lda	$16                     ; 0x2016 <main+0x1a84>
     d79: 85 71        	sta	$71                     ; 0x2071 <main+0x1adf>
     d7b: a6 12        	ldx	$12                     ; 0x2012 <main+0x1a80>
     d7d: 86 72        	stx	$72                     ; 0x2072 <main+0x1ae0>
     d7f: 92 10        	sta	($10)                   ; 0x2010 <main+0x1a7e>
     d81: a0 01        	ldy	#$1
     d83: a5 12        	lda	$12                     ; 0x2012 <main+0x1a80>
     d85: 91 10        	sta	($10),y                 ; 0x2010 <main+0x1a7e>
     d87: a2 26        	ldx	#$26
     d89: 86 12        	stx	$12                     ; 0x2012 <main+0x1a80>
     d8b: a2 66        	ldx	#$66
     d8d: 86 13        	stx	$13                     ; 0x2013 <main+0x1a81>
     d8f: 20 a6 3a     	jsr	$3aa6 <printf>
     d92: a2 4d        	ldx	#$4d
     d94: 86 12        	stx	$12                     ; 0x2012 <main+0x1a80>
     d96: a2 65        	ldx	#$65
     d98: 86 13        	stx	$13                     ; 0x2013 <main+0x1a81>
     d9a: 20 a6 3a     	jsr	$3aa6 <printf>
     d9d: a5 24        	lda	$24                     ; 0x2024 <main+0x1a92>
     d9f: 18           	clc
     da0: 69 0a        	adc	#$a
     da2: a8           	tay
     da3: a5 25        	lda	$25                     ; 0x2025 <main+0x1a93>
     da5: 69 00        	adc	#$0
     da7: 85 14        	sta	$14                     ; 0x2014 <main+0x1a82>
     da9: a9 00        	lda	#$0
     dab: 69 04        	adc	#$4
     dad: 85 15        	sta	$15                     ; 0x2015 <main+0x1a83>
     daf: a5 24        	lda	$24                     ; 0x2024 <main+0x1a92>
     db1: 18           	clc
     db2: 69 0b        	adc	#$b
     db4: 85 13        	sta	$13                     ; 0x2013 <main+0x1a81>
     db6: a5 25        	lda	$25                     ; 0x2025 <main+0x1a93>
     db8: 69 00        	adc	#$0
     dba: 85 16        	sta	$16                     ; 0x2016 <main+0x1a84>
     dbc: a9 00        	lda	#$0
     dbe: 69 04        	adc	#$4
     dc0: a6 16        	ldx	$16                     ; 0x2016 <main+0x1a84>
     dc2: 86 12        	stx	$12                     ; 0x2012 <main+0x1a80>
     dc4: 06 12        	asl	$12                     ; 0x2012 <main+0x1a80>
     dc6: 2a           	rol
     dc7: 06 12        	asl	$12                     ; 0x2012 <main+0x1a80>
     dc9: 2a           	rol
     dca: 06 12        	asl	$12                     ; 0x2012 <main+0x1a80>
     dcc: 2a           	rol
     dcd: a6 0f        	ldx	$f                      ; 0x200f <main+0x1a7d>
     dcf: 78           	sei
     dd0: 85 0f        	sta	$f                      ; 0x200f <main+0x1a7d>
     dd2: a5 13        	lda	$13                     ; 0x2013 <main+0x1a81>
     dd4: 85 12        	sta	$12                     ; 0x2012 <main+0x1a80>
     dd6: a5 16        	lda	$16                     ; 0x2016 <main+0x1a84>
     dd8: 09 e0        	ora	#$e0
     dda: 85 13        	sta	$13                     ; 0x2013 <main+0x1a81>
     ddc: b2 12        	lda	($12)                   ; 0x2012 <main+0x1a80>
     dde: 85 16        	sta	$16                     ; 0x2016 <main+0x1a84>
     de0: 86 0f        	stx	$f                      ; 0x200f <main+0x1a7d>
     de2: 58           	cli
     de3: a5 14        	lda	$14                     ; 0x2014 <main+0x1a82>
     de5: 0a           	asl
     de6: 26 15        	rol	$15                     ; 0x2015 <main+0x1a83>
     de8: 0a           	asl
     de9: 26 15        	rol	$15                     ; 0x2015 <main+0x1a83>
     deb: 0a           	asl
     dec: a5 15        	lda	$15                     ; 0x2015 <main+0x1a83>
     dee: 2a           	rol
     def: a6 0f        	ldx	$f                      ; 0x200f <main+0x1a7d>
     df1: 78           	sei
     df2: 85 0f        	sta	$f                      ; 0x200f <main+0x1a7d>
     df4: 84 12        	sty	$12                     ; 0x2012 <main+0x1a80>
     df6: a5 14        	lda	$14                     ; 0x2014 <main+0x1a82>
     df8: 09 e0        	ora	#$e0
     dfa: 85 13        	sta	$13                     ; 0x2013 <main+0x1a81>
     dfc: b2 12        	lda	($12)                   ; 0x2012 <main+0x1a80>
     dfe: 85 12        	sta	$12                     ; 0x2012 <main+0x1a80>
     e00: 86 0f        	stx	$f                      ; 0x200f <main+0x1a7d>
     e02: 58           	cli
     e03: a5 16        	lda	$16                     ; 0x2016 <main+0x1a84>
     e05: 85 73        	sta	$73                     ; 0x2073 <main+0x1ae1>
     e07: a6 12        	ldx	$12                     ; 0x2012 <main+0x1a80>
     e09: 86 74        	stx	$74                     ; 0x2074 <main+0x1ae2>
     e0b: 92 10        	sta	($10)                   ; 0x2010 <main+0x1a7e>
     e0d: a0 01        	ldy	#$1
     e0f: a5 12        	lda	$12                     ; 0x2012 <main+0x1a80>
     e11: 91 10        	sta	($10),y                 ; 0x2010 <main+0x1a7e>
     e13: a2 26        	ldx	#$26
     e15: 86 12        	stx	$12                     ; 0x2012 <main+0x1a80>
     e17: a2 66        	ldx	#$66
     e19: 86 13        	stx	$13                     ; 0x2013 <main+0x1a81>
     e1b: 20 a6 3a     	jsr	$3aa6 <printf>
     e1e: a2 c6        	ldx	#$c6
     e20: 86 12        	stx	$12                     ; 0x2012 <main+0x1a80>
     e22: a2 67        	ldx	#$67
     e24: 86 13        	stx	$13                     ; 0x2013 <main+0x1a81>
     e26: 20 a6 3a     	jsr	$3aa6 <printf>
     e29: a5 24        	lda	$24                     ; 0x2024 <main+0x1a92>
     e2b: 18           	clc
     e2c: 69 0c        	adc	#$c
     e2e: a8           	tay
     e2f: a5 25        	lda	$25                     ; 0x2025 <main+0x1a93>
     e31: 69 00        	adc	#$0
     e33: 85 14        	sta	$14                     ; 0x2014 <main+0x1a82>
     e35: a9 00        	lda	#$0
     e37: 69 04        	adc	#$4
     e39: 85 15        	sta	$15                     ; 0x2015 <main+0x1a83>
     e3b: a5 24        	lda	$24                     ; 0x2024 <main+0x1a92>
     e3d: 18           	clc
     e3e: 69 0d        	adc	#$d
     e40: 85 13        	sta	$13                     ; 0x2013 <main+0x1a81>
     e42: a5 25        	lda	$25                     ; 0x2025 <main+0x1a93>
     e44: 69 00        	adc	#$0
     e46: 85 16        	sta	$16                     ; 0x2016 <main+0x1a84>
     e48: a9 00        	lda	#$0
     e4a: 69 04        	adc	#$4
     e4c: a6 16        	ldx	$16                     ; 0x2016 <main+0x1a84>
     e4e: 86 12        	stx	$12                     ; 0x2012 <main+0x1a80>
     e50: 06 12        	asl	$12                     ; 0x2012 <main+0x1a80>
     e52: 2a           	rol
     e53: 06 12        	asl	$12                     ; 0x2012 <main+0x1a80>
     e55: 2a           	rol
     e56: 06 12        	asl	$12                     ; 0x2012 <main+0x1a80>
     e58: 2a           	rol
     e59: a6 0f        	ldx	$f                      ; 0x200f <main+0x1a7d>
     e5b: 78           	sei
     e5c: 85 0f        	sta	$f                      ; 0x200f <main+0x1a7d>
     e5e: a5 13        	lda	$13                     ; 0x2013 <main+0x1a81>
     e60: 85 12        	sta	$12                     ; 0x2012 <main+0x1a80>
     e62: a5 16        	lda	$16                     ; 0x2016 <main+0x1a84>
     e64: 09 e0        	ora	#$e0
     e66: 85 13        	sta	$13                     ; 0x2013 <main+0x1a81>
     e68: b2 12        	lda	($12)                   ; 0x2012 <main+0x1a80>
     e6a: 85 16        	sta	$16                     ; 0x2016 <main+0x1a84>
     e6c: 86 0f        	stx	$f                      ; 0x200f <main+0x1a7d>
     e6e: 58           	cli
     e6f: a5 14        	lda	$14                     ; 0x2014 <main+0x1a82>
     e71: 0a           	asl
     e72: 26 15        	rol	$15                     ; 0x2015 <main+0x1a83>
     e74: 0a           	asl
     e75: 26 15        	rol	$15                     ; 0x2015 <main+0x1a83>
     e77: 0a           	asl
     e78: a5 15        	lda	$15                     ; 0x2015 <main+0x1a83>
     e7a: 2a           	rol
     e7b: a6 0f        	ldx	$f                      ; 0x200f <main+0x1a7d>
     e7d: 78           	sei
     e7e: 85 0f        	sta	$f                      ; 0x200f <main+0x1a7d>
     e80: 84 12        	sty	$12                     ; 0x2012 <main+0x1a80>
     e82: a5 14        	lda	$14                     ; 0x2014 <main+0x1a82>
     e84: 09 e0        	ora	#$e0
     e86: 85 13        	sta	$13                     ; 0x2013 <main+0x1a81>
     e88: b2 12        	lda	($12)                   ; 0x2012 <main+0x1a80>
     e8a: 85 12        	sta	$12                     ; 0x2012 <main+0x1a80>
     e8c: 86 0f        	stx	$f                      ; 0x200f <main+0x1a7d>
     e8e: 58           	cli
     e8f: a5 16        	lda	$16                     ; 0x2016 <main+0x1a84>
     e91: 92 10        	sta	($10)                   ; 0x2010 <main+0x1a7e>
     e93: a0 01        	ldy	#$1
     e95: a5 12        	lda	$12                     ; 0x2012 <main+0x1a80>
     e97: 91 10        	sta	($10),y                 ; 0x2010 <main+0x1a7e>
     e99: a2 26        	ldx	#$26
     e9b: 86 12        	stx	$12                     ; 0x2012 <main+0x1a80>
     e9d: a2 66        	ldx	#$66
     e9f: 86 13        	stx	$13                     ; 0x2013 <main+0x1a81>
     ea1: 20 a6 3a     	jsr	$3aa6 <printf>
     ea4: a2 01        	ldx	#$1
     ea6: 86 79        	stx	$79                     ; 0x2079 <main+0x1ae7>
     ea8: a6 73        	ldx	$73                     ; 0x2073 <main+0x1ae1>
     eaa: 86 12        	stx	$12                     ; 0x2012 <main+0x1a80>
     eac: a5 74        	lda	$74                     ; 0x2074 <main+0x1ae2>
     eae: a6 73        	ldx	$73                     ; 0x2073 <main+0x1ae1>
     eb0: 86 7a        	stx	$7a                     ; 0x207a <main+0x1ae8>
     eb2: a6 74        	ldx	$74                     ; 0x2074 <main+0x1ae2>
     eb4: 86 7b        	stx	$7b                     ; 0x207b <main+0x1ae9>
     eb6: 06 12        	asl	$12                     ; 0x2012 <main+0x1a80>
     eb8: 2a           	rol
     eb9: 06 12        	asl	$12                     ; 0x2012 <main+0x1a80>
     ebb: 2a           	rol
     ebc: 06 12        	asl	$12                     ; 0x2012 <main+0x1a80>
     ebe: 2a           	rol
     ebf: aa           	tax
     ec0: 38           	sec
     ec1: a5 12        	lda	$12                     ; 0x2012 <main+0x1a80>
     ec3: e5 73        	sbc	$73                     ; 0x2073 <main+0x1ae1>
     ec5: a8           	tay
     ec6: 8a           	txa
     ec7: e5 74        	sbc	$74                     ; 0x2074 <main+0x1ae2>
     ec9: aa           	tax
     eca: 98           	tya
     ecb: 20 93 46     	jsr	$4693 <malloc>
     ece: a6 12        	ldx	$12                     ; 0x2012 <main+0x1a80>
     ed0: a4 13        	ldy	$13                     ; 0x2013 <main+0x1a81>
     ed2: 86 7c        	stx	$7c                     ; 0x207c <main+0x1aea>
     ed4: 84 7d        	sty	$7d                     ; 0x207d <main+0x1aeb>
     ed6: a6 73        	ldx	$73                     ; 0x2073 <main+0x1ae1>
     ed8: 86 12        	stx	$12                     ; 0x2012 <main+0x1a80>
     eda: a5 74        	lda	$74                     ; 0x2074 <main+0x1ae2>
     edc: 06 12        	asl	$12                     ; 0x2012 <main+0x1a80>
     ede: 2a           	rol
     edf: aa           	tax
     ee0: a5 12        	lda	$12                     ; 0x2012 <main+0x1a80>
     ee2: 20 93 46     	jsr	$4693 <malloc>
     ee5: a6 12        	ldx	$12                     ; 0x2012 <main+0x1a80>
     ee7: a4 13        	ldy	$13                     ; 0x2013 <main+0x1a81>
     ee9: 86 7e        	stx	$7e                     ; 0x207e <main+0x1aec>
     eeb: 84 7f        	sty	$7f                     ; 0x207f <main+0x1aed>
     eed: a6 73        	ldx	$73                     ; 0x2073 <main+0x1ae1>
     eef: a4 74        	ldy	$74                     ; 0x2074 <main+0x1ae2>
     ef1: d0 06        	bne	$ef9 <main+0x967>
     ef3: 8a           	txa
     ef4: d0 03        	bne	$ef9 <main+0x967>
     ef6: 4c 75 10     	jmp	$1075 <main+0xae3>
     ef9: a5 24        	lda	$24                     ; 0x2024 <main+0x1a92>
     efb: 18           	clc
     efc: 69 0e        	adc	#$e
     efe: 85 17        	sta	$17                     ; 0x2017 <main+0x1a85>
     f00: a5 25        	lda	$25                     ; 0x2025 <main+0x1a93>
     f02: 69 00        	adc	#$0
     f04: 85 14        	sta	$14                     ; 0x2014 <main+0x1a82>
     f06: a9 00        	lda	#$0
     f08: 69 00        	adc	#$0
     f0a: 85 13        	sta	$13                     ; 0x2013 <main+0x1a81>
     f0c: a9 00        	lda	#$0
     f0e: 69 00        	adc	#$0
     f10: 85 18        	sta	$18                     ; 0x2018 <main+0x1a86>
     f12: 64 16        	stz	$16                     ; 0x2016 <main+0x1a84>
     f14: 64 15        	stz	$15                     ; 0x2015 <main+0x1a83>
     f16: 64 1c        	stz	$1c                     ; 0x201c <main+0x1a8a>
     f18: a2 00        	ldx	#$0
     f1a: a4 13        	ldy	$13                     ; 0x2013 <main+0x1a81>
     f1c: 84 12        	sty	$12                     ; 0x2012 <main+0x1a80>
     f1e: a4 14        	ldy	$14                     ; 0x2014 <main+0x1a82>
     f20: 84 13        	sty	$13                     ; 0x2013 <main+0x1a81>
     f22: a4 17        	ldy	$17                     ; 0x2017 <main+0x1a85>
     f24: 84 14        	sty	$14                     ; 0x2014 <main+0x1a82>
     f26: 18           	clc
     f27: a4 16        	ldy	$16                     ; 0x2016 <main+0x1a84>
     f29: a5 16        	lda	$16                     ; 0x2016 <main+0x1a84>
     f2b: 65 7e        	adc	$7e                     ; 0x207e <main+0x1aec>
     f2d: 85 16        	sta	$16                     ; 0x2016 <main+0x1a84>
     f2f: 84 19        	sty	$19                     ; 0x2019 <main+0x1a87>
     f31: a4 15        	ldy	$15                     ; 0x2015 <main+0x1a83>
     f33: 84 1a        	sty	$1a                     ; 0x201a <main+0x1a88>
     f35: a5 15        	lda	$15                     ; 0x2015 <main+0x1a83>
     f37: 65 7f        	adc	$7f                     ; 0x207f <main+0x1aed>
     f39: 85 17        	sta	$17                     ; 0x2017 <main+0x1a85>
     f3b: a9 00        	lda	#$0
     f3d: 92 16        	sta	($16)                   ; 0x2016 <main+0x1a84>
     f3f: a0 01        	ldy	#$1
     f41: 91 16        	sta	($16),y                 ; 0x2016 <main+0x1a84>
     f43: a4 1c        	ldy	$1c                     ; 0x201c <main+0x1a8a>
     f45: 84 15        	sty	$15                     ; 0x2015 <main+0x1a83>
     f47: e6 15        	inc	$15                     ; 0x2015 <main+0x1a83>
     f49: d0 01        	bne	$f4c <main+0x9ba>
     f4b: e8           	inx
     f4c: 18           	clc
     f4d: a5 14        	lda	$14                     ; 0x2014 <main+0x1a82>
     f4f: 69 04        	adc	#$4
     f51: 85 17        	sta	$17                     ; 0x2017 <main+0x1a85>
     f53: a5 13        	lda	$13                     ; 0x2013 <main+0x1a81>
     f55: 69 00        	adc	#$0
     f57: 85 1b        	sta	$1b                     ; 0x201b <main+0x1a89>
     f59: a5 12        	lda	$12                     ; 0x2012 <main+0x1a80>
     f5b: 69 04        	adc	#$4
     f5d: a4 0f        	ldy	$f                      ; 0x200f <main+0x1a7d>
     f5f: 78           	sei
     f60: 5a           	phy
     f61: a4 1b        	ldy	$1b                     ; 0x201b <main+0x1a89>
     f63: 84 16        	sty	$16                     ; 0x2016 <main+0x1a84>
     f65: 06 16        	asl	$16                     ; 0x2016 <main+0x1a84>
     f67: 2a           	rol
     f68: 06 16        	asl	$16                     ; 0x2016 <main+0x1a84>
     f6a: 2a           	rol
     f6b: 06 16        	asl	$16                     ; 0x2016 <main+0x1a84>
     f6d: 2a           	rol
     f6e: 85 0f        	sta	$f                      ; 0x200f <main+0x1a7d>
     f70: a5 1b        	lda	$1b                     ; 0x201b <main+0x1a89>
     f72: 09 e0        	ora	#$e0
     f74: a4 17        	ldy	$17                     ; 0x2017 <main+0x1a85>
     f76: 84 16        	sty	$16                     ; 0x2016 <main+0x1a84>
     f78: 7a           	ply
     f79: 85 17        	sta	$17                     ; 0x2017 <main+0x1a85>
     f7b: b2 16        	lda	($16)                   ; 0x2016 <main+0x1a84>
     f7d: 84 0f        	sty	$f                      ; 0x200f <main+0x1a7d>
     f7f: 58           	cli
     f80: 18           	clc
     f81: a5 14        	lda	$14                     ; 0x2014 <main+0x1a82>
     f83: 69 05        	adc	#$5
     f85: 85 17        	sta	$17                     ; 0x2017 <main+0x1a85>
     f87: a5 13        	lda	$13                     ; 0x2013 <main+0x1a81>
     f89: 69 00        	adc	#$0
     f8b: 85 1b        	sta	$1b                     ; 0x201b <main+0x1a89>
     f8d: a5 12        	lda	$12                     ; 0x2012 <main+0x1a80>
     f8f: 69 04        	adc	#$4
     f91: a4 0f        	ldy	$f                      ; 0x200f <main+0x1a7d>
     f93: 78           	sei
     f94: 5a           	phy
     f95: a4 1b        	ldy	$1b                     ; 0x201b <main+0x1a89>
     f97: 84 16        	sty	$16                     ; 0x2016 <main+0x1a84>
     f99: 06 16        	asl	$16                     ; 0x2016 <main+0x1a84>
     f9b: 2a           	rol
     f9c: 06 16        	asl	$16                     ; 0x2016 <main+0x1a84>
     f9e: 2a           	rol
     f9f: 06 16        	asl	$16                     ; 0x2016 <main+0x1a84>
     fa1: 2a           	rol
     fa2: 85 0f        	sta	$f                      ; 0x200f <main+0x1a7d>
     fa4: a5 1b        	lda	$1b                     ; 0x201b <main+0x1a89>
     fa6: 09 e0        	ora	#$e0
     fa8: a4 17        	ldy	$17                     ; 0x2017 <main+0x1a85>
     faa: 84 16        	sty	$16                     ; 0x2016 <main+0x1a84>
     fac: 7a           	ply
     fad: 85 17        	sta	$17                     ; 0x2017 <main+0x1a85>
     faf: b2 16        	lda	($16)                   ; 0x2016 <main+0x1a84>
     fb1: 85 1b        	sta	$1b                     ; 0x201b <main+0x1a89>
     fb3: 84 0f        	sty	$f                      ; 0x200f <main+0x1a7d>
     fb5: 58           	cli
     fb6: 18           	clc
     fb7: a5 14        	lda	$14                     ; 0x2014 <main+0x1a82>
     fb9: 69 06        	adc	#$6
     fbb: 85 17        	sta	$17                     ; 0x2017 <main+0x1a85>
     fbd: a5 13        	lda	$13                     ; 0x2013 <main+0x1a81>
     fbf: 69 00        	adc	#$0
     fc1: 85 1c        	sta	$1c                     ; 0x201c <main+0x1a8a>
     fc3: a5 12        	lda	$12                     ; 0x2012 <main+0x1a80>
     fc5: 69 04        	adc	#$4
     fc7: a4 0f        	ldy	$f                      ; 0x200f <main+0x1a7d>
     fc9: 78           	sei
     fca: 5a           	phy
     fcb: a4 1c        	ldy	$1c                     ; 0x201c <main+0x1a8a>
     fcd: 84 16        	sty	$16                     ; 0x2016 <main+0x1a84>
     fcf: 06 16        	asl	$16                     ; 0x2016 <main+0x1a84>
     fd1: 2a           	rol
     fd2: 06 16        	asl	$16                     ; 0x2016 <main+0x1a84>
     fd4: 2a           	rol
     fd5: 06 16        	asl	$16                     ; 0x2016 <main+0x1a84>
     fd7: 2a           	rol
     fd8: 85 0f        	sta	$f                      ; 0x200f <main+0x1a7d>
     fda: a5 1c        	lda	$1c                     ; 0x201c <main+0x1a8a>
     fdc: 09 e0        	ora	#$e0
     fde: a4 17        	ldy	$17                     ; 0x2017 <main+0x1a85>
     fe0: 84 16        	sty	$16                     ; 0x2016 <main+0x1a84>
     fe2: 7a           	ply
     fe3: 85 17        	sta	$17                     ; 0x2017 <main+0x1a85>
     fe5: b2 16        	lda	($16)                   ; 0x2016 <main+0x1a84>
     fe7: 85 1d        	sta	$1d                     ; 0x201d <main+0x1a8b>
     fe9: 84 0f        	sty	$f                      ; 0x200f <main+0x1a7d>
     feb: 58           	cli
     fec: 18           	clc
     fed: a5 14        	lda	$14                     ; 0x2014 <main+0x1a82>
     fef: 69 07        	adc	#$7
     ff1: 85 17        	sta	$17                     ; 0x2017 <main+0x1a85>
     ff3: a5 13        	lda	$13                     ; 0x2013 <main+0x1a81>
     ff5: 69 00        	adc	#$0
     ff7: 85 1e        	sta	$1e                     ; 0x201e <main+0x1a8c>
     ff9: a5 12        	lda	$12                     ; 0x2012 <main+0x1a80>
     ffb: 69 04        	adc	#$4
     ffd: a4 1e        	ldy	$1e                     ; 0x201e <main+0x1a8c>
     fff: 84 16        	sty	$16                     ; 0x2016 <main+0x1a84>
    1001: 06 16        	asl	$16                     ; 0x2016 <main+0x1a84>
    1003: 2a           	rol
    1004: 06 16        	asl	$16                     ; 0x2016 <main+0x1a84>
    1006: 2a           	rol
    1007: 06 16        	asl	$16                     ; 0x2016 <main+0x1a84>
    1009: 2a           	rol
    100a: a4 0f        	ldy	$f                      ; 0x200f <main+0x1a7d>
    100c: 78           	sei
    100d: 85 0f        	sta	$f                      ; 0x200f <main+0x1a7d>
    100f: a5 15        	lda	$15                     ; 0x2015 <main+0x1a83>
    1011: 85 1c        	sta	$1c                     ; 0x201c <main+0x1a8a>
    1013: a5 17        	lda	$17                     ; 0x2017 <main+0x1a85>
    1015: 85 16        	sta	$16                     ; 0x2016 <main+0x1a84>
    1017: a5 1e        	lda	$1e                     ; 0x201e <main+0x1a8c>
    1019: 09 e0        	ora	#$e0
    101b: 85 17        	sta	$17                     ; 0x2017 <main+0x1a85>
    101d: b2 16        	lda	($16)                   ; 0x2016 <main+0x1a84>
    101f: 84 0f        	sty	$f                      ; 0x200f <main+0x1a7d>
    1021: 58           	cli
    1022: 18           	clc
    1023: 65 14        	adc	$14                     ; 0x2014 <main+0x1a82>
    1025: 85 14        	sta	$14                     ; 0x2014 <main+0x1a82>
    1027: a5 1d        	lda	$1d                     ; 0x201d <main+0x1a8b>
    1029: 65 13        	adc	$13                     ; 0x2013 <main+0x1a81>
    102b: a8           	tay
    102c: a5 1b        	lda	$1b                     ; 0x201b <main+0x1a89>
    102e: 65 12        	adc	$12                     ; 0x2012 <main+0x1a80>
    1030: 85 12        	sta	$12                     ; 0x2012 <main+0x1a80>
    1032: a5 18        	lda	$18                     ; 0x2018 <main+0x1a86>
    1034: 69 00        	adc	#$0
    1036: 85 15        	sta	$15                     ; 0x2015 <main+0x1a83>
    1038: 18           	clc
    1039: a5 14        	lda	$14                     ; 0x2014 <main+0x1a82>
    103b: 69 08        	adc	#$8
    103d: 85 17        	sta	$17                     ; 0x2017 <main+0x1a85>
    103f: 98           	tya
    1040: 69 00        	adc	#$0
    1042: 85 14        	sta	$14                     ; 0x2014 <main+0x1a82>
    1044: a5 12        	lda	$12                     ; 0x2012 <main+0x1a80>
    1046: 69 00        	adc	#$0
    1048: 85 13        	sta	$13                     ; 0x2013 <main+0x1a81>
    104a: a5 15        	lda	$15                     ; 0x2015 <main+0x1a83>
    104c: 69 00        	adc	#$0
    104e: 85 18        	sta	$18                     ; 0x2018 <main+0x1a86>
    1050: a5 19        	lda	$19                     ; 0x2019 <main+0x1a87>
    1052: 18           	clc
    1053: 69 02        	adc	#$2
    1055: 85 16        	sta	$16                     ; 0x2016 <main+0x1a84>
    1057: a5 1a        	lda	$1a                     ; 0x201a <main+0x1a88>
    1059: 69 00        	adc	#$0
    105b: 85 15        	sta	$15                     ; 0x2015 <main+0x1a83>
    105d: e4 74        	cpx	$74                     ; 0x2074 <main+0x1ae2>
    105f: d0 0d        	bne	$106e <main+0xadc>
    1061: a4 73        	ldy	$73                     ; 0x2073 <main+0x1ae1>
    1063: 84 12        	sty	$12                     ; 0x2012 <main+0x1a80>
    1065: a4 1c        	ldy	$1c                     ; 0x201c <main+0x1a8a>
    1067: c4 12        	cpy	$12                     ; 0x2012 <main+0x1a80>
    1069: b0 0a        	bcs	$1075 <main+0xae3>
    106b: 4c 1a 0f     	jmp	$f1a <main+0x988>
    106e: e4 74        	cpx	$74                     ; 0x2074 <main+0x1ae2>
    1070: b0 03        	bcs	$1075 <main+0xae3>
    1072: 4c 1a 0f     	jmp	$f1a <main+0x988>
    1075: a2 69        	ldx	#$69
    1077: 86 12        	stx	$12                     ; 0x2012 <main+0x1a80>
    1079: a2 66        	ldx	#$66
    107b: 86 13        	stx	$13                     ; 0x2013 <main+0x1a81>
    107d: 20 62 46     	jsr	$4662 <puts>
    1080: a5 7a        	lda	$7a                     ; 0x207a <main+0x1ae8>
    1082: a6 7b        	ldx	$7b                     ; 0x207b <main+0x1ae9>
    1084: 86 14        	stx	$14                     ; 0x2014 <main+0x1a82>
    1086: a6 7c        	ldx	$7c                     ; 0x207c <main+0x1aea>
    1088: 86 13        	stx	$13                     ; 0x2013 <main+0x1a81>
    108a: a6 7d        	ldx	$7d                     ; 0x207d <main+0x1aeb>
    108c: a0 02        	ldy	#$2
    108e: 91 10        	sta	($10),y                 ; 0x2010 <main+0x1a7e>
    1090: c8           	iny
    1091: a5 14        	lda	$14                     ; 0x2014 <main+0x1a82>
    1093: 91 10        	sta	($10),y                 ; 0x2010 <main+0x1a7e>
    1095: c8           	iny
    1096: a5 13        	lda	$13                     ; 0x2013 <main+0x1a81>
    1098: 91 10        	sta	($10),y                 ; 0x2010 <main+0x1a7e>
    109a: c8           	iny
    109b: 8a           	txa
    109c: 91 10        	sta	($10),y                 ; 0x2010 <main+0x1a7e>
    109e: a0 01        	ldy	#$1
    10a0: 98           	tya
    10a1: 25 79        	and	$79                     ; 0x2079 <main+0x1ae7>
    10a3: 92 10        	sta	($10)                   ; 0x2010 <main+0x1a7e>
    10a5: a9 00        	lda	#$0
    10a7: 91 10        	sta	($10),y                 ; 0x2010 <main+0x1a7e>
    10a9: a2 82        	ldx	#$82
    10ab: 86 12        	stx	$12                     ; 0x2012 <main+0x1a80>
    10ad: a2 65        	ldx	#$65
    10af: 86 13        	stx	$13                     ; 0x2013 <main+0x1a81>
    10b1: 20 a6 3a     	jsr	$3aa6 <printf>
    10b4: a6 7a        	ldx	$7a                     ; 0x207a <main+0x1ae8>
    10b6: 86 12        	stx	$12                     ; 0x2012 <main+0x1a80>
    10b8: a6 7b        	ldx	$7b                     ; 0x207b <main+0x1ae9>
    10ba: 86 13        	stx	$13                     ; 0x2013 <main+0x1a81>
    10bc: a5 13        	lda	$13                     ; 0x2013 <main+0x1a81>
    10be: d0 07        	bne	$10c7 <main+0xb35>
    10c0: a5 12        	lda	$12                     ; 0x2012 <main+0x1a80>
    10c2: d0 03        	bne	$10c7 <main+0xb35>
    10c4: 4c 50 11     	jmp	$1150 <main+0xbbe>
    10c7: a6 7c        	ldx	$7c                     ; 0x207c <main+0x1aea>
    10c9: a4 7d        	ldy	$7d                     ; 0x207d <main+0x1aeb>
    10cb: 86 16        	stx	$16                     ; 0x2016 <main+0x1a84>
    10cd: 84 17        	sty	$17                     ; 0x2017 <main+0x1a85>
    10cf: 64 1b        	stz	$1b                     ; 0x201b <main+0x1a89>
    10d1: a2 00        	ldx	#$0
    10d3: 64 15        	stz	$15                     ; 0x2015 <main+0x1a83>
    10d5: 64 14        	stz	$14                     ; 0x2014 <main+0x1a82>
    10d7: a4 16        	ldy	$16                     ; 0x2016 <main+0x1a84>
    10d9: 84 18        	sty	$18                     ; 0x2018 <main+0x1a86>
    10db: a4 17        	ldy	$17                     ; 0x2017 <main+0x1a85>
    10dd: 84 19        	sty	$19                     ; 0x2019 <main+0x1a87>
    10df: 18           	clc
    10e0: a5 16        	lda	$16                     ; 0x2016 <main+0x1a84>
    10e2: 69 03        	adc	#$3
    10e4: 85 1a        	sta	$1a                     ; 0x201a <main+0x1a88>
    10e6: a5 17        	lda	$17                     ; 0x2017 <main+0x1a85>
    10e8: 69 00        	adc	#$0
    10ea: 85 1e        	sta	$1e                     ; 0x201e <main+0x1a8c>
    10ec: e6 18        	inc	$18                     ; 0x2018 <main+0x1a86>
    10ee: d0 02        	bne	$10f2 <main+0xb60>
    10f0: e6 19        	inc	$19                     ; 0x2019 <main+0x1a87>
    10f2: a0 01        	ldy	#$1
    10f4: a9 00        	lda	#$0
    10f6: 91 18        	sta	($18),y                 ; 0x2018 <main+0x1a86>
    10f8: a5 1b        	lda	$1b                     ; 0x201b <main+0x1a89>
    10fa: 92 16        	sta	($16)                   ; 0x2016 <main+0x1a84>
    10fc: 85 18        	sta	$18                     ; 0x2018 <main+0x1a86>
    10fe: a9 00        	lda	#$0
    1100: 91 16        	sta	($16),y                 ; 0x2016 <main+0x1a84>
    1102: a4 1e        	ldy	$1e                     ; 0x201e <main+0x1a8c>
    1104: 84 1b        	sty	$1b                     ; 0x201b <main+0x1a89>
    1106: a0 03        	ldy	#$3
    1108: 91 16        	sta	($16),y                 ; 0x2016 <main+0x1a84>
    110a: a0 01        	ldy	#$1
    110c: 91 1a        	sta	($1a),y                 ; 0x201a <main+0x1a88>
    110e: c8           	iny
    110f: 91 1a        	sta	($1a),y                 ; 0x201a <main+0x1a88>
    1111: c8           	iny
    1112: 91 1a        	sta	($1a),y                 ; 0x201a <main+0x1a88>
    1114: 18           	clc
    1115: a5 16        	lda	$16                     ; 0x2016 <main+0x1a84>
    1117: 69 07        	adc	#$7
    1119: 85 16        	sta	$16                     ; 0x2016 <main+0x1a84>
    111b: a5 17        	lda	$17                     ; 0x2017 <main+0x1a85>
    111d: 69 00        	adc	#$0
    111f: e6 18        	inc	$18                     ; 0x2018 <main+0x1a86>
    1121: d0 09        	bne	$112c <main+0xb9a>
    1123: e8           	inx
    1124: d0 06        	bne	$112c <main+0xb9a>
    1126: e6 15        	inc	$15                     ; 0x2015 <main+0x1a83>
    1128: d0 02        	bne	$112c <main+0xb9a>
    112a: e6 14        	inc	$14                     ; 0x2014 <main+0x1a82>
    112c: a4 18        	ldy	$18                     ; 0x2018 <main+0x1a86>
    112e: 84 1b        	sty	$1b                     ; 0x201b <main+0x1a89>
    1130: 85 17        	sta	$17                     ; 0x2017 <main+0x1a85>
    1132: a5 14        	lda	$14                     ; 0x2014 <main+0x1a82>
    1134: f0 03        	beq	$1139 <main+0xba7>
    1136: 4c d7 10     	jmp	$10d7 <main+0xb45>
    1139: a5 15        	lda	$15                     ; 0x2015 <main+0x1a83>
    113b: f0 03        	beq	$1140 <main+0xbae>
    113d: 4c d7 10     	jmp	$10d7 <main+0xb45>
    1140: e4 13        	cpx	$13                     ; 0x2013 <main+0x1a81>
    1142: f0 03        	beq	$1147 <main+0xbb5>
    1144: 4c d7 10     	jmp	$10d7 <main+0xb45>
    1147: a4 18        	ldy	$18                     ; 0x2018 <main+0x1a86>
    1149: c4 12        	cpy	$12                     ; 0x2012 <main+0x1a80>
    114b: f0 03        	beq	$1150 <main+0xbbe>
    114d: 4c d7 10     	jmp	$10d7 <main+0xb45>
    1150: a2 00        	ldx	#$0
    1152: 64 01        	stz	$1                      ; 0x2001 <main+0x1a6f>
    1154: a0 2f        	ldy	#$2f
    1156: 8c 00 d0     	sty	$d000                   ; 0xd000 <end_block9+0x676a>
    1159: a0 04        	ldy	#$4
    115b: 8c 01 d0     	sty	$d001                   ; 0xd001 <end_block9+0x676b>
    115e: a0 01        	ldy	#$1
    1160: 8c 02 d0     	sty	$d002                   ; 0xd002 <end_block9+0x676c>
    1163: a9 02        	lda	#$2
    1165: 8d 03 d0     	sta	$d003                   ; 0xd003 <end_block9+0x676d>
    1168: 9c 0d d0     	stz	$d00d                   ; 0xd00d <end_block9+0x6777>
    116b: 9c 0e d0     	stz	$d00e                   ; 0xd00e <end_block9+0x6778>
    116e: 9c 0f d0     	stz	$d00f                   ; 0xd00f <end_block9+0x6779>
    1171: 84 01        	sty	$1                      ; 0x2001 <main+0x1a6f>
    1173: a0 d0        	ldy	#$d0
    1175: 8a           	txa
    1176: 18           	clc
    1177: 69 00        	adc	#$0
    1179: 85 14        	sta	$14                     ; 0x2014 <main+0x1a82>
    117b: 98           	tya
    117c: 69 10        	adc	#$10
    117e: 85 15        	sta	$15                     ; 0x2015 <main+0x1a83>
    1180: 86 12        	stx	$12                     ; 0x2012 <main+0x1a80>
    1182: 84 13        	sty	$13                     ; 0x2013 <main+0x1a81>
    1184: 86 16        	stx	$16                     ; 0x2016 <main+0x1a84>
    1186: a6 0f        	ldx	$f                      ; 0x200f <main+0x1a7d>
    1188: 78           	sei
    1189: a9 08        	lda	#$8
    118b: 85 0f        	sta	$f                      ; 0x200f <main+0x1a7d>
    118d: b2 14        	lda	($14)                   ; 0x2014 <main+0x1a82>
    118f: 86 0f        	stx	$f                      ; 0x200f <main+0x1a7d>
    1191: a6 16        	ldx	$16                     ; 0x2016 <main+0x1a84>
    1193: 58           	cli
    1194: 92 12        	sta	($12)                   ; 0x2012 <main+0x1a80>
    1196: e8           	inx
    1197: d0 01        	bne	$119a <main+0xc08>
    1199: c8           	iny
    119a: c0 d3        	cpy	#$d3
    119c: d0 d7        	bne	$1175 <main+0xbe3>
    119e: e0 ff        	cpx	#$ff
    11a0: d0 d3        	bne	$1175 <main+0xbe3>
    11a2: 64 01        	stz	$1                      ; 0x2001 <main+0x1a6f>
    11a4: 64 6b        	stz	$6b                     ; 0x206b <main+0x1ad9>
    11a6: a0 80        	ldy	#$80
    11a8: 84 6c        	sty	$6c                     ; 0x206c <main+0x1ada>
    11aa: a2 01        	ldx	#$1
    11ac: 86 6d        	stx	$6d                     ; 0x206d <main+0x1adb>
    11ae: 64 6e        	stz	$6e                     ; 0x206e <main+0x1adc>
    11b0: 9c 01 d1     	stz	$d101                   ; 0xd101 <end_block9+0x686b>
    11b3: 8c 02 d1     	sty	$d102                   ; 0xd102 <end_block9+0x686c>
    11b6: 8e 03 d1     	stx	$d103                   ; 0xd103 <end_block9+0x686d>
    11b9: ad 00 d1     	lda	$d100                   ; 0xd100 <end_block9+0x686a>
    11bc: 29 f9        	and	#$f9
    11be: 8d 00 d1     	sta	$d100                   ; 0xd100 <end_block9+0x686a>
    11c1: 8e 00 d1     	stx	$d100                   ; 0xd100 <end_block9+0x686a>
    11c4: 9c 08 d1     	stz	$d108                   ; 0xd108 <end_block9+0x6872>
    11c7: 9c 10 d1     	stz	$d110                   ; 0xd110 <end_block9+0x687a>
    11ca: a0 20        	ldy	#$20
    11cc: 8c 56 68     	sty	$6856                   ; 0x6856 <_spriteCtl>
    11cf: 8c 00 d9     	sty	$d900                   ; 0xd900 <end_block9+0x706a>
    11d2: 9c 01 d9     	stz	$d901                   ; 0xd901 <end_block9+0x706b>
    11d5: a0 40        	ldy	#$40
    11d7: 8c 02 d9     	sty	$d902                   ; 0xd902 <end_block9+0x706c>
    11da: 8e 03 d9     	stx	$d903                   ; 0xd903 <end_block9+0x706d>
    11dd: a0 c8        	ldy	#$c8
    11df: 8c 04 d9     	sty	$d904                   ; 0xd904 <end_block9+0x706e>
    11e2: 9c 05 d9     	stz	$d905                   ; 0xd905 <end_block9+0x706f>
    11e5: a0 74        	ldy	#$74
    11e7: 8c 06 d9     	sty	$d906                   ; 0xd906 <end_block9+0x7070>
    11ea: 9c 07 d9     	stz	$d907                   ; 0xd907 <end_block9+0x7071>
    11ed: a0 21        	ldy	#$21
    11ef: 8c 00 d9     	sty	$d900                   ; 0xd900 <end_block9+0x706a>
    11f2: 64 01        	stz	$1                      ; 0x2001 <main+0x1a6f>
    11f4: a0 02        	ldy	#$2
    11f6: 8c 50 d6     	sty	$d650                   ; 0xd650 <end_block9+0x6dba>
    11f9: a0 09        	ldy	#$9
    11fb: 8c 50 d6     	sty	$d650                   ; 0xd650 <end_block9+0x6dba>
    11fe: a0 10        	ldy	#$10
    1200: 8c 60 d6     	sty	$d660                   ; 0xd660 <end_block9+0x6dca>
    1203: 8e 54 d6     	stx	$d654                   ; 0xd654 <end_block9+0x6dbe>
    1206: 9c 55 d6     	stz	$d655                   ; 0xd655 <end_block9+0x6dbf>
    1209: 9c 56 d6     	stz	$d656                   ; 0xd656 <end_block9+0x6dc0>
    120c: 9c 57 d6     	stz	$d657                   ; 0xd657 <end_block9+0x6dc1>
    120f: a6 25        	ldx	$25                     ; 0x2025 <main+0x1a93>
    1211: e0 ff        	cpx	#$ff
    1213: f0 03        	beq	$1218 <main+0xc86>
    1215: 4c 85 12     	jmp	$1285 <main+0xcf3>
    1218: a5 24        	lda	$24                     ; 0x2024 <main+0x1a92>
    121a: c9 ff        	cmp	#$ff
    121c: f0 03        	beq	$1221 <main+0xc8f>
    121e: 4c 87 12     	jmp	$1287 <main+0xcf5>
    1221: 78           	sei
    1222: a2 07        	ldx	#$7
    1224: 86 0f        	stx	$f                      ; 0x200f <main+0x1a7d>
    1226: a2 de        	ldx	#$de
    1228: 8e a2 d6     	stx	$d6a2                   ; 0xd6a2 <end_block9+0x6e0c>
    122b: a2 ad        	ldx	#$ad
    122d: 8e a3 d6     	stx	$d6a3                   ; 0xd6a3 <end_block9+0x6e0d>
    1230: a2 f0        	ldx	#$f0
    1232: 8e a0 d6     	stx	$d6a0                   ; 0xd6a0 <end_block9+0x6e0a>
    1235: 9c a0 d6     	stz	$d6a0                   ; 0xd6a0 <end_block9+0x6e0a>
    1238: 6c fc ff     	jmp	($fffc)                 ; 0xfffc <end_block9+0x9766>
    123b: a2 00        	ldx	#$0
    123d: 8a           	txa
    123e: 85 20        	sta	$20                     ; 0x2020 <main+0x1a8e>
    1240: a0 08        	ldy	#$8
    1242: b1 10        	lda	($10),y                 ; 0x2010 <main+0x1a7e>
    1244: 85 2f        	sta	$2f                     ; 0x202f <main+0x1a9d>
    1246: c8           	iny
    1247: b1 10        	lda	($10),y                 ; 0x2010 <main+0x1a7e>
    1249: 85 2e        	sta	$2e                     ; 0x202e <main+0x1a9c>
    124b: c8           	iny
    124c: b1 10        	lda	($10),y                 ; 0x2010 <main+0x1a7e>
    124e: 85 2d        	sta	$2d                     ; 0x202d <main+0x1a9b>
    1250: c8           	iny
    1251: b1 10        	lda	($10),y                 ; 0x2010 <main+0x1a7e>
    1253: 85 2c        	sta	$2c                     ; 0x202c <main+0x1a9a>
    1255: c8           	iny
    1256: b1 10        	lda	($10),y                 ; 0x2010 <main+0x1a7e>
    1258: 85 2b        	sta	$2b                     ; 0x202b <main+0x1a99>
    125a: c8           	iny
    125b: b1 10        	lda	($10),y                 ; 0x2010 <main+0x1a7e>
    125d: 85 2a        	sta	$2a                     ; 0x202a <main+0x1a98>
    125f: c8           	iny
    1260: b1 10        	lda	($10),y                 ; 0x2010 <main+0x1a7e>
    1262: 85 29        	sta	$29                     ; 0x2029 <main+0x1a97>
    1264: c8           	iny
    1265: b1 10        	lda	($10),y                 ; 0x2010 <main+0x1a7e>
    1267: 85 28        	sta	$28                     ; 0x2028 <main+0x1a96>
    1269: 7a           	ply
    126a: 84 27        	sty	$27                     ; 0x2027 <main+0x1a95>
    126c: 7a           	ply
    126d: 84 26        	sty	$26                     ; 0x2026 <main+0x1a94>
    126f: 7a           	ply
    1270: 84 25        	sty	$25                     ; 0x2025 <main+0x1a93>
    1272: 7a           	ply
    1273: 84 24        	sty	$24                     ; 0x2024 <main+0x1a92>
    1275: 18           	clc
    1276: a5 10        	lda	$10                     ; 0x2010 <main+0x1a7e>
    1278: 69 a7        	adc	#$a7
    127a: 85 10        	sta	$10                     ; 0x2010 <main+0x1a7e>
    127c: a5 11        	lda	$11                     ; 0x2011 <main+0x1a7f>
    127e: 69 01        	adc	#$1
    1280: 85 11        	sta	$11                     ; 0x2011 <main+0x1a7f>
    1282: a5 20        	lda	$20                     ; 0x2020 <main+0x1a8e>
    1284: 60           	rts
    1285: a5 24        	lda	$24                     ; 0x2024 <main+0x1a92>
    1287: 64 12        	stz	$12                     ; 0x2012 <main+0x1a80>
    1289: a6 25        	ldx	$25                     ; 0x2025 <main+0x1a93>
    128b: 20 1e 23     	jsr	$231e <parse>
    128e: a6 7a        	ldx	$7a                     ; 0x207a <main+0x1ae8>
    1290: 86 12        	stx	$12                     ; 0x2012 <main+0x1a80>
    1292: a6 7b        	ldx	$7b                     ; 0x207b <main+0x1ae9>
    1294: 86 13        	stx	$13                     ; 0x2013 <main+0x1a81>
    1296: a5 13        	lda	$13                     ; 0x2013 <main+0x1a81>
    1298: d0 07        	bne	$12a1 <main+0xd0f>
    129a: a5 12        	lda	$12                     ; 0x2012 <main+0x1a80>
    129c: d0 03        	bne	$12a1 <main+0xd0f>
    129e: 4c a6 13     	jmp	$13a6 <main+0xe14>
    12a1: a6 7c        	ldx	$7c                     ; 0x207c <main+0x1aea>
    12a3: a4 7d        	ldy	$7d                     ; 0x207d <main+0x1aeb>
    12a5: 86 23        	stx	$23                     ; 0x2023 <main+0x1a91>
    12a7: 86 14        	stx	$14                     ; 0x2014 <main+0x1a82>
    12a9: 84 28        	sty	$28                     ; 0x2028 <main+0x1a96>
    12ab: 84 15        	sty	$15                     ; 0x2015 <main+0x1a83>
    12ad: e6 14        	inc	$14                     ; 0x2014 <main+0x1a82>
    12af: d0 02        	bne	$12b3 <main+0xd21>
    12b1: e6 15        	inc	$15                     ; 0x2015 <main+0x1a83>
    12b3: 64 16        	stz	$16                     ; 0x2016 <main+0x1a84>
    12b5: 64 17        	stz	$17                     ; 0x2017 <main+0x1a85>
    12b7: a5 16        	lda	$16                     ; 0x2016 <main+0x1a84>
    12b9: 0a           	asl
    12ba: a6 17        	ldx	$17                     ; 0x2017 <main+0x1a85>
    12bc: 86 19        	stx	$19                     ; 0x2019 <main+0x1a87>
    12be: 26 19        	rol	$19                     ; 0x2019 <main+0x1a87>
    12c0: 0a           	asl
    12c1: 26 19        	rol	$19                     ; 0x2019 <main+0x1a87>
    12c3: 0a           	asl
    12c4: 26 19        	rol	$19                     ; 0x2019 <main+0x1a87>
    12c6: 38           	sec
    12c7: e5 16        	sbc	$16                     ; 0x2016 <main+0x1a84>
    12c9: 85 18        	sta	$18                     ; 0x2018 <main+0x1a86>
    12cb: a5 19        	lda	$19                     ; 0x2019 <main+0x1a87>
    12cd: e5 17        	sbc	$17                     ; 0x2017 <main+0x1a85>
    12cf: 85 19        	sta	$19                     ; 0x2019 <main+0x1a87>
    12d1: a5 23        	lda	$23                     ; 0x2023 <main+0x1a91>
    12d3: 18           	clc
    12d4: 65 18        	adc	$18                     ; 0x2018 <main+0x1a86>
    12d6: aa           	tax
    12d7: a5 28        	lda	$28                     ; 0x2028 <main+0x1a96>
    12d9: 65 19        	adc	$19                     ; 0x2019 <main+0x1a87>
    12db: 86 18        	stx	$18                     ; 0x2018 <main+0x1a86>
    12dd: 85 19        	sta	$19                     ; 0x2019 <main+0x1a87>
    12df: 85 1b        	sta	$1b                     ; 0x201b <main+0x1a89>
    12e1: 18           	clc
    12e2: 8a           	txa
    12e3: 69 03        	adc	#$3
    12e5: 85 1a        	sta	$1a                     ; 0x201a <main+0x1a88>
    12e7: a5 1b        	lda	$1b                     ; 0x201b <main+0x1a89>
    12e9: 69 00        	adc	#$0
    12eb: 85 1b        	sta	$1b                     ; 0x201b <main+0x1a89>
    12ed: a9 00        	lda	#$0
    12ef: a0 03        	ldy	#$3
    12f1: 91 18        	sta	($18),y                 ; 0x2018 <main+0x1a86>
    12f3: a0 01        	ldy	#$1
    12f5: 91 1a        	sta	($1a),y                 ; 0x201a <main+0x1a88>
    12f7: c8           	iny
    12f8: 91 1a        	sta	($1a),y                 ; 0x201a <main+0x1a88>
    12fa: c8           	iny
    12fb: 91 1a        	sta	($1a),y                 ; 0x201a <main+0x1a88>
    12fd: a5 17        	lda	$17                     ; 0x2017 <main+0x1a85>
    12ff: d0 07        	bne	$1308 <main+0xd76>
    1301: a5 16        	lda	$16                     ; 0x2016 <main+0x1a84>
    1303: d0 03        	bne	$1308 <main+0xd76>
    1305: 4c 88 13     	jmp	$1388 <main+0xdf6>
    1308: 64 29        	stz	$29                     ; 0x2029 <main+0x1a97>
    130a: a6 14        	ldx	$14                     ; 0x2014 <main+0x1a82>
    130c: 86 1e        	stx	$1e                     ; 0x201e <main+0x1a8c>
    130e: a6 15        	ldx	$15                     ; 0x2015 <main+0x1a83>
    1310: 86 1f        	stx	$1f                     ; 0x201f <main+0x1a8d>
    1312: a6 16        	ldx	$16                     ; 0x2016 <main+0x1a84>
    1314: a4 17        	ldy	$17                     ; 0x2017 <main+0x1a85>
    1316: 84 1c        	sty	$1c                     ; 0x201c <main+0x1a8a>
    1318: 64 2a        	stz	$2a                     ; 0x202a <main+0x1a98>
    131a: 64 2b        	stz	$2b                     ; 0x202b <main+0x1a99>
    131c: 64 2c        	stz	$2c                     ; 0x202c <main+0x1a9a>
    131e: a0 01        	ldy	#$1
    1320: b2 1e        	lda	($1e)                   ; 0x201e <main+0x1a8c>
    1322: 85 22        	sta	$22                     ; 0x2022 <main+0x1a90>
    1324: b1 1e        	lda	($1e),y                 ; 0x201e <main+0x1a8c>
    1326: 85 1d        	sta	$1d                     ; 0x201d <main+0x1a8b>
    1328: a5 22        	lda	$22                     ; 0x2022 <main+0x1a90>
    132a: 0a           	asl
    132b: 26 1d        	rol	$1d                     ; 0x201d <main+0x1a8b>
    132d: 0a           	asl
    132e: 26 1d        	rol	$1d                     ; 0x201d <main+0x1a8b>
    1330: 5a           	phy
    1331: a4 1d        	ldy	$1d                     ; 0x201d <main+0x1a8b>
    1333: 84 22        	sty	$22                     ; 0x2022 <main+0x1a90>
    1335: 7a           	ply
    1336: 0a           	asl
    1337: 85 1d        	sta	$1d                     ; 0x201d <main+0x1a8b>
    1339: 26 22        	rol	$22                     ; 0x2022 <main+0x1a90>
    133b: a5 29        	lda	$29                     ; 0x2029 <main+0x1a97>
    133d: 18           	clc
    133e: 65 1d        	adc	$1d                     ; 0x201d <main+0x1a8b>
    1340: 85 29        	sta	$29                     ; 0x2029 <main+0x1a97>
    1342: a5 2a        	lda	$2a                     ; 0x202a <main+0x1a98>
    1344: 65 22        	adc	$22                     ; 0x2022 <main+0x1a90>
    1346: 85 2a        	sta	$2a                     ; 0x202a <main+0x1a98>
    1348: a5 2b        	lda	$2b                     ; 0x202b <main+0x1a99>
    134a: 69 00        	adc	#$0
    134c: 85 2b        	sta	$2b                     ; 0x202b <main+0x1a99>
    134e: a5 2c        	lda	$2c                     ; 0x202c <main+0x1a9a>
    1350: 69 00        	adc	#$0
    1352: 85 2c        	sta	$2c                     ; 0x202c <main+0x1a9a>
    1354: a5 1e        	lda	$1e                     ; 0x201e <main+0x1a8c>
    1356: 18           	clc
    1357: 69 07        	adc	#$7
    1359: 85 1e        	sta	$1e                     ; 0x201e <main+0x1a8c>
    135b: a5 1f        	lda	$1f                     ; 0x201f <main+0x1a8d>
    135d: 69 00        	adc	#$0
    135f: 85 1f        	sta	$1f                     ; 0x201f <main+0x1a8d>
    1361: ca           	dex
    1362: e0 ff        	cpx	#$ff
    1364: d0 02        	bne	$1368 <main+0xdd6>
    1366: c6 1c        	dec	$1c                     ; 0x201c <main+0x1a8a>
    1368: a5 1c        	lda	$1c                     ; 0x201c <main+0x1a8a>
    136a: d0 b4        	bne	$1320 <main+0xd8e>
    136c: 8a           	txa
    136d: f0 03        	beq	$1372 <main+0xde0>
    136f: 4c 20 13     	jmp	$1320 <main+0xd8e>
    1372: a5 29        	lda	$29                     ; 0x2029 <main+0x1a97>
    1374: a0 03        	ldy	#$3
    1376: 91 18        	sta	($18),y                 ; 0x2018 <main+0x1a86>
    1378: a5 2a        	lda	$2a                     ; 0x202a <main+0x1a98>
    137a: a0 01        	ldy	#$1
    137c: 91 1a        	sta	($1a),y                 ; 0x201a <main+0x1a88>
    137e: c8           	iny
    137f: a5 2b        	lda	$2b                     ; 0x202b <main+0x1a99>
    1381: 91 1a        	sta	($1a),y                 ; 0x201a <main+0x1a88>
    1383: a5 2c        	lda	$2c                     ; 0x202c <main+0x1a9a>
    1385: c8           	iny
    1386: 91 1a        	sta	($1a),y                 ; 0x201a <main+0x1a88>
    1388: a6 16        	ldx	$16                     ; 0x2016 <main+0x1a84>
    138a: a5 17        	lda	$17                     ; 0x2017 <main+0x1a85>
    138c: e8           	inx
    138d: d0 01        	bne	$1390 <main+0xdfe>
    138f: 1a           	inc
    1390: 86 16        	stx	$16                     ; 0x2016 <main+0x1a84>
    1392: 85 17        	sta	$17                     ; 0x2017 <main+0x1a85>
    1394: c5 13        	cmp	$13                     ; 0x2013 <main+0x1a81>
    1396: f0 03        	beq	$139b <main+0xe09>
    1398: 4c b7 12     	jmp	$12b7 <main+0xd25>
    139b: 86 16        	stx	$16                     ; 0x2016 <main+0x1a84>
    139d: 85 17        	sta	$17                     ; 0x2017 <main+0x1a85>
    139f: e4 12        	cpx	$12                     ; 0x2012 <main+0x1a80>
    13a1: f0 03        	beq	$13a6 <main+0xe14>
    13a3: 4c b7 12     	jmp	$12b7 <main+0xd25>
    13a6: a2 01        	ldx	#$1
    13a8: 86 12        	stx	$12                     ; 0x2012 <main+0x1a80>
    13aa: a6 25        	ldx	$25                     ; 0x2025 <main+0x1a93>
    13ac: a5 24        	lda	$24                     ; 0x2024 <main+0x1a92>
    13ae: 20 1e 23     	jsr	$231e <parse>
    13b1: a6 71        	ldx	$71                     ; 0x2071 <main+0x1adf>
    13b3: a4 72        	ldy	$72                     ; 0x2072 <main+0x1ae0>
    13b5: d0 06        	bne	$13bd <main+0xe2b>
    13b7: 8a           	txa
    13b8: d0 03        	bne	$13bd <main+0xe2b>
    13ba: 4c c6 1b     	jmp	$1bc6 <main+0x1634>
    13bd: a6 7a        	ldx	$7a                     ; 0x207a <main+0x1ae8>
    13bf: 86 25        	stx	$25                     ; 0x2025 <main+0x1a93>
    13c1: a6 7b        	ldx	$7b                     ; 0x207b <main+0x1ae9>
    13c3: 86 24        	stx	$24                     ; 0x2024 <main+0x1a92>
    13c5: a2 90        	ldx	#$90
    13c7: 86 60        	stx	$60                     ; 0x2060 <main+0x1ace>
    13c9: 64 69        	stz	$69                     ; 0x2069 <main+0x1ad7>
    13cb: 9c 14 d0     	stz	$d014                   ; 0xd014 <end_block9+0x677e>
    13ce: 9c 15 d0     	stz	$d015                   ; 0xd015 <end_block9+0x677f>
    13d1: a2 03        	ldx	#$3
    13d3: 86 6a        	stx	$6a                     ; 0x206a <main+0x1ad8>
    13d5: 8e 16 d0     	stx	$d016                   ; 0xd016 <end_block9+0x6780>
    13d8: 9c 17 d0     	stz	$d017                   ; 0xd017 <end_block9+0x6781>
    13db: a2 f9        	ldx	#$f9
    13dd: 86 12        	stx	$12                     ; 0x2012 <main+0x1a80>
    13df: a2 67        	ldx	#$67
    13e1: 86 13        	stx	$13                     ; 0x2013 <main+0x1a81>
    13e3: 20 62 46     	jsr	$4662 <puts>
    13e6: a5 25        	lda	$25                     ; 0x2025 <main+0x1a93>
    13e8: a0 15        	ldy	#$15
    13ea: 91 10        	sta	($10),y                 ; 0x2010 <main+0x1a7e>
    13ec: 0a           	asl
    13ed: a6 24        	ldx	$24                     ; 0x2024 <main+0x1a92>
    13ef: 86 2b        	stx	$2b                     ; 0x202b <main+0x1a99>
    13f1: 86 12        	stx	$12                     ; 0x2012 <main+0x1a80>
    13f3: 26 12        	rol	$12                     ; 0x2012 <main+0x1a80>
    13f5: 0a           	asl
    13f6: 26 12        	rol	$12                     ; 0x2012 <main+0x1a80>
    13f8: a6 12        	ldx	$12                     ; 0x2012 <main+0x1a80>
    13fa: 20 93 46     	jsr	$4693 <malloc>
    13fd: a5 12        	lda	$12                     ; 0x2012 <main+0x1a80>
    13ff: a0 13        	ldy	#$13
    1401: 91 10        	sta	($10),y                 ; 0x2010 <main+0x1a7e>
    1403: a5 13        	lda	$13                     ; 0x2013 <main+0x1a81>
    1405: c8           	iny
    1406: 91 10        	sta	($10),y                 ; 0x2010 <main+0x1a7e>
    1408: a6 7a        	ldx	$7a                     ; 0x207a <main+0x1ae8>
    140a: a4 7b        	ldy	$7b                     ; 0x207b <main+0x1ae9>
    140c: d0 06        	bne	$1414 <main+0xe82>
    140e: 8a           	txa
    140f: d0 03        	bne	$1414 <main+0xe82>
    1411: 4c b1 13     	jmp	$13b1 <main+0xe1f>
    1414: a5 7c        	lda	$7c                     ; 0x207c <main+0x1aea>
    1416: 85 14        	sta	$14                     ; 0x2014 <main+0x1a82>
    1418: a5 7d        	lda	$7d                     ; 0x207d <main+0x1aeb>
    141a: 85 15        	sta	$15                     ; 0x2015 <main+0x1a83>
    141c: 5a           	phy
    141d: a4 14        	ldy	$14                     ; 0x2014 <main+0x1a82>
    141f: 84 12        	sty	$12                     ; 0x2012 <main+0x1a80>
    1421: 7a           	ply
    1422: 85 13        	sta	$13                     ; 0x2013 <main+0x1a81>
    1424: e6 12        	inc	$12                     ; 0x2012 <main+0x1a80>
    1426: d0 02        	bne	$142a <main+0xe98>
    1428: e6 13        	inc	$13                     ; 0x2013 <main+0x1a81>
    142a: a9 00        	lda	#$0
    142c: 84 16        	sty	$16                     ; 0x2016 <main+0x1a84>
    142e: 64 17        	stz	$17                     ; 0x2017 <main+0x1a85>
    1430: a0 01        	ldy	#$1
    1432: 18           	clc
    1433: 72 12        	adc	($12)                   ; 0x2012 <main+0x1a80>
    1435: 85 1a        	sta	$1a                     ; 0x201a <main+0x1a88>
    1437: a5 17        	lda	$17                     ; 0x2017 <main+0x1a85>
    1439: 71 12        	adc	($12),y                 ; 0x2012 <main+0x1a80>
    143b: 85 17        	sta	$17                     ; 0x2017 <main+0x1a85>
    143d: a5 12        	lda	$12                     ; 0x2012 <main+0x1a80>
    143f: 18           	clc
    1440: 69 07        	adc	#$7
    1442: 85 12        	sta	$12                     ; 0x2012 <main+0x1a80>
    1444: a5 13        	lda	$13                     ; 0x2013 <main+0x1a81>
    1446: 69 00        	adc	#$0
    1448: 85 13        	sta	$13                     ; 0x2013 <main+0x1a81>
    144a: ca           	dex
    144b: e0 ff        	cpx	#$ff
    144d: d0 02        	bne	$1451 <main+0xebf>
    144f: c6 16        	dec	$16                     ; 0x2016 <main+0x1a84>
    1451: a5 1a        	lda	$1a                     ; 0x201a <main+0x1a88>
    1453: e6 16        	inc	$16                     ; 0x2016 <main+0x1a84>
    1455: c6 16        	dec	$16                     ; 0x2016 <main+0x1a84>
    1457: d0 d9        	bne	$1432 <main+0xea0>
    1459: e0 00        	cpx	#$0
    145b: d0 d5        	bne	$1432 <main+0xea0>
    145d: 48           	pha
    145e: a5 17        	lda	$17                     ; 0x2017 <main+0x1a85>
    1460: a0 12        	ldy	#$12
    1462: 91 10        	sta	($10),y                 ; 0x2010 <main+0x1a7e>
    1464: 68           	pla
    1465: a6 17        	ldx	$17                     ; 0x2017 <main+0x1a85>
    1467: d0 06        	bne	$146f <main+0xedd>
    1469: aa           	tax
    146a: d0 03        	bne	$146f <main+0xedd>
    146c: 4c e6 1f     	jmp	$1fe6 <main+0x1a54>
    146f: a4 2b        	ldy	$2b                     ; 0x202b <main+0x1a99>
    1471: 5a           	phy
    1472: a0 15        	ldy	#$15
    1474: b1 10        	lda	($10),y                 ; 0x2010 <main+0x1a7e>
    1476: 7a           	ply
    1477: 85 12        	sta	$12                     ; 0x2012 <main+0x1a80>
    1479: d0 07        	bne	$1482 <main+0xef0>
    147b: a5 12        	lda	$12                     ; 0x2012 <main+0x1a80>
    147d: d0 03        	bne	$1482 <main+0xef0>
    147f: 4c 9f 15     	jmp	$159f <main+0x100d>
    1482: a2 03        	ldx	#$3
    1484: 64 18        	stz	$18                     ; 0x2018 <main+0x1a86>
    1486: a0 13        	ldy	#$13
    1488: b1 10        	lda	($10),y                 ; 0x2010 <main+0x1a7e>
    148a: 85 12        	sta	$12                     ; 0x2012 <main+0x1a80>
    148c: c8           	iny
    148d: b1 10        	lda	($10),y                 ; 0x2010 <main+0x1a7e>
    148f: 85 13        	sta	$13                     ; 0x2013 <main+0x1a81>
    1491: c8           	iny
    1492: b1 10        	lda	($10),y                 ; 0x2010 <main+0x1a7e>
    1494: 85 16        	sta	$16                     ; 0x2016 <main+0x1a84>
    1496: a4 2b        	ldy	$2b                     ; 0x202b <main+0x1a99>
    1498: 84 17        	sty	$17                     ; 0x2017 <main+0x1a85>
    149a: 8a           	txa
    149b: 18           	clc
    149c: 65 14        	adc	$14                     ; 0x2014 <main+0x1a82>
    149e: a8           	tay
    149f: 86 1b        	stx	$1b                     ; 0x201b <main+0x1a89>
    14a1: a6 18        	ldx	$18                     ; 0x2018 <main+0x1a86>
    14a3: 86 1c        	stx	$1c                     ; 0x201c <main+0x1a8a>
    14a5: a5 18        	lda	$18                     ; 0x2018 <main+0x1a86>
    14a7: 65 15        	adc	$15                     ; 0x2015 <main+0x1a83>
    14a9: aa           	tax
    14aa: 18           	clc
    14ab: 98           	tya
    14ac: 69 fe        	adc	#$fe
    14ae: 85 18        	sta	$18                     ; 0x2018 <main+0x1a86>
    14b0: 8a           	txa
    14b1: 69 ff        	adc	#$ff
    14b3: 85 19        	sta	$19                     ; 0x2019 <main+0x1a87>
    14b5: b2 18        	lda	($18)                   ; 0x2018 <main+0x1a86>
    14b7: 85 1d        	sta	$1d                     ; 0x201d <main+0x1a8b>
    14b9: a0 01        	ldy	#$1
    14bb: b1 18        	lda	($18),y                 ; 0x2018 <main+0x1a86>
    14bd: d0 07        	bne	$14c6 <main+0xf34>
    14bf: a5 1d        	lda	$1d                     ; 0x201d <main+0x1a8b>
    14c1: d0 03        	bne	$14c6 <main+0xf34>
    14c3: 4c 95 15     	jmp	$1595 <main+0x1003>
    14c6: a5 1b        	lda	$1b                     ; 0x201b <main+0x1a89>
    14c8: 18           	clc
    14c9: 65 14        	adc	$14                     ; 0x2014 <main+0x1a82>
    14cb: 85 14        	sta	$14                     ; 0x2014 <main+0x1a82>
    14cd: a5 1c        	lda	$1c                     ; 0x201c <main+0x1a8a>
    14cf: 65 15        	adc	$15                     ; 0x2015 <main+0x1a83>
    14d1: 85 15        	sta	$15                     ; 0x2015 <main+0x1a83>
    14d3: b2 14        	lda	($14)                   ; 0x2014 <main+0x1a82>
    14d5: aa           	tax
    14d6: b1 14        	lda	($14),y                 ; 0x2014 <main+0x1a82>
    14d8: 85 18        	sta	$18                     ; 0x2018 <main+0x1a86>
    14da: a0 02        	ldy	#$2
    14dc: b1 14        	lda	($14),y                 ; 0x2014 <main+0x1a82>
    14de: 85 19        	sta	$19                     ; 0x2019 <main+0x1a87>
    14e0: 8a           	txa
    14e1: 18           	clc
    14e2: 69 00        	adc	#$0
    14e4: a5 18        	lda	$18                     ; 0x2018 <main+0x1a86>
    14e6: 69 00        	adc	#$0
    14e8: 85 14        	sta	$14                     ; 0x2014 <main+0x1a82>
    14ea: a5 19        	lda	$19                     ; 0x2019 <main+0x1a87>
    14ec: 69 06        	adc	#$6
    14ee: 06 14        	asl	$14                     ; 0x2014 <main+0x1a82>
    14f0: 2a           	rol
    14f1: 06 14        	asl	$14                     ; 0x2014 <main+0x1a82>
    14f3: 2a           	rol
    14f4: a4 0f        	ldy	$f                      ; 0x200f <main+0x1a7d>
    14f6: 84 1f        	sty	$1f                     ; 0x201f <main+0x1a8d>
    14f8: 78           	sei
    14f9: 06 14        	asl	$14                     ; 0x2014 <main+0x1a82>
    14fb: 2a           	rol
    14fc: 85 0f        	sta	$f                      ; 0x200f <main+0x1a7d>
    14fe: a5 18        	lda	$18                     ; 0x2018 <main+0x1a86>
    1500: 09 e0        	ora	#$e0
    1502: 86 14        	stx	$14                     ; 0x2014 <main+0x1a82>
    1504: 85 15        	sta	$15                     ; 0x2015 <main+0x1a83>
    1506: b2 14        	lda	($14)                   ; 0x2014 <main+0x1a82>
    1508: 85 1d        	sta	$1d                     ; 0x201d <main+0x1a8b>
    150a: a0 01        	ldy	#$1
    150c: b1 14        	lda	($14),y                 ; 0x2014 <main+0x1a82>
    150e: 85 1e        	sta	$1e                     ; 0x201e <main+0x1a8c>
    1510: a5 1f        	lda	$1f                     ; 0x201f <main+0x1a8d>
    1512: 85 0f        	sta	$f                      ; 0x200f <main+0x1a7d>
    1514: 58           	cli
    1515: 18           	clc
    1516: 8a           	txa
    1517: 69 02        	adc	#$2
    1519: 85 14        	sta	$14                     ; 0x2014 <main+0x1a82>
    151b: a5 18        	lda	$18                     ; 0x2018 <main+0x1a86>
    151d: 69 00        	adc	#$0
    151f: 85 15        	sta	$15                     ; 0x2015 <main+0x1a83>
    1521: a5 19        	lda	$19                     ; 0x2019 <main+0x1a87>
    1523: 69 06        	adc	#$6
    1525: 85 18        	sta	$18                     ; 0x2018 <main+0x1a86>
    1527: a5 15        	lda	$15                     ; 0x2015 <main+0x1a83>
    1529: 0a           	asl
    152a: 26 18        	rol	$18                     ; 0x2018 <main+0x1a86>
    152c: 0a           	asl
    152d: 26 18        	rol	$18                     ; 0x2018 <main+0x1a86>
    152f: 0a           	asl
    1530: a5 18        	lda	$18                     ; 0x2018 <main+0x1a86>
    1532: 2a           	rol
    1533: a6 0f        	ldx	$f                      ; 0x200f <main+0x1a7d>
    1535: 78           	sei
    1536: 85 0f        	sta	$f                      ; 0x200f <main+0x1a7d>
    1538: a5 15        	lda	$15                     ; 0x2015 <main+0x1a83>
    153a: 09 e0        	ora	#$e0
    153c: 85 15        	sta	$15                     ; 0x2015 <main+0x1a83>
    153e: b2 14        	lda	($14)                   ; 0x2014 <main+0x1a82>
    1540: 85 18        	sta	$18                     ; 0x2018 <main+0x1a86>
    1542: b1 14        	lda	($14),y                 ; 0x2014 <main+0x1a82>
    1544: 85 19        	sta	$19                     ; 0x2019 <main+0x1a87>
    1546: 86 0f        	stx	$f                      ; 0x200f <main+0x1a7d>
    1548: 58           	cli
    1549: a6 7c        	ldx	$7c                     ; 0x207c <main+0x1aea>
    154b: 86 14        	stx	$14                     ; 0x2014 <main+0x1a82>
    154d: a6 7d        	ldx	$7d                     ; 0x207d <main+0x1aeb>
    154f: 86 15        	stx	$15                     ; 0x2015 <main+0x1a83>
    1551: a5 18        	lda	$18                     ; 0x2018 <main+0x1a86>
    1553: 92 12        	sta	($12)                   ; 0x2012 <main+0x1a80>
    1555: a5 19        	lda	$19                     ; 0x2019 <main+0x1a87>
    1557: 91 12        	sta	($12),y                 ; 0x2012 <main+0x1a80>
    1559: a0 02        	ldy	#$2
    155b: a5 1d        	lda	$1d                     ; 0x201d <main+0x1a8b>
    155d: 91 12        	sta	($12),y                 ; 0x2012 <main+0x1a80>
    155f: c8           	iny
    1560: a5 1e        	lda	$1e                     ; 0x201e <main+0x1a8c>
    1562: 91 12        	sta	($12),y                 ; 0x2012 <main+0x1a80>
    1564: a5 12        	lda	$12                     ; 0x2012 <main+0x1a80>
    1566: 18           	clc
    1567: 69 04        	adc	#$4
    1569: 85 12        	sta	$12                     ; 0x2012 <main+0x1a80>
    156b: a5 13        	lda	$13                     ; 0x2013 <main+0x1a81>
    156d: 69 00        	adc	#$0
    156f: a2 ff        	ldx	#$ff
    1571: c6 16        	dec	$16                     ; 0x2016 <main+0x1a84>
    1573: e4 16        	cpx	$16                     ; 0x2016 <main+0x1a84>
    1575: d0 02        	bne	$1579 <main+0xfe7>
    1577: c6 17        	dec	$17                     ; 0x2017 <main+0x1a85>
    1579: 85 13        	sta	$13                     ; 0x2013 <main+0x1a81>
    157b: 18           	clc
    157c: a5 1b        	lda	$1b                     ; 0x201b <main+0x1a89>
    157e: 69 07        	adc	#$7
    1580: aa           	tax
    1581: a5 1c        	lda	$1c                     ; 0x201c <main+0x1a8a>
    1583: 69 00        	adc	#$0
    1585: 85 18        	sta	$18                     ; 0x2018 <main+0x1a86>
    1587: a5 17        	lda	$17                     ; 0x2017 <main+0x1a85>
    1589: f0 03        	beq	$158e <main+0xffc>
    158b: 4c 9a 14     	jmp	$149a <main+0xf08>
    158e: a5 16        	lda	$16                     ; 0x2016 <main+0x1a84>
    1590: f0 0d        	beq	$159f <main+0x100d>
    1592: 4c 9a 14     	jmp	$149a <main+0xf08>
    1595: 64 18        	stz	$18                     ; 0x2018 <main+0x1a86>
    1597: 64 19        	stz	$19                     ; 0x2019 <main+0x1a87>
    1599: 64 1d        	stz	$1d                     ; 0x201d <main+0x1a8b>
    159b: 64 1e        	stz	$1e                     ; 0x201e <main+0x1a8c>
    159d: 80 b2        	bra	$1551 <main+0xfbf>
    159f: a2 f0        	ldx	#$f0
    15a1: 86 60        	stx	$60                     ; 0x2060 <main+0x1ace>
    15a3: a5 1a        	lda	$1a                     ; 0x201a <main+0x1a88>
    15a5: 92 10        	sta	($10)                   ; 0x2010 <main+0x1a7e>
    15a7: 85 2c        	sta	$2c                     ; 0x202c <main+0x1a9a>
    15a9: a0 01        	ldy	#$1
    15ab: 5a           	phy
    15ac: a0 12        	ldy	#$12
    15ae: b1 10        	lda	($10),y                 ; 0x2010 <main+0x1a7e>
    15b0: 7a           	ply
    15b1: 91 10        	sta	($10),y                 ; 0x2010 <main+0x1a7e>
    15b3: a2 6b        	ldx	#$6b
    15b5: 86 12        	stx	$12                     ; 0x2012 <main+0x1a80>
    15b7: a2 67        	ldx	#$67
    15b9: 86 13        	stx	$13                     ; 0x2013 <main+0x1a81>
    15bb: 20 a6 3a     	jsr	$3aa6 <printf>
    15be: 64 25        	stz	$25                     ; 0x2025 <main+0x1a93>
    15c0: 64 2a        	stz	$2a                     ; 0x202a <main+0x1a98>
    15c2: a5 26        	lda	$26                     ; 0x2026 <main+0x1a94>
    15c4: a0 10        	ldy	#$10
    15c6: 91 10        	sta	($10),y                 ; 0x2010 <main+0x1a7e>
    15c8: a5 27        	lda	$27                     ; 0x2027 <main+0x1a95>
    15ca: c8           	iny
    15cb: 91 10        	sta	($10),y                 ; 0x2010 <main+0x1a7e>
    15cd: 64 69        	stz	$69                     ; 0x2069 <main+0x1ad7>
    15cf: 9c 14 d0     	stz	$d014                   ; 0xd014 <end_block9+0x677e>
    15d2: 9c 15 d0     	stz	$d015                   ; 0xd015 <end_block9+0x677f>
    15d5: a2 28        	ldx	#$28
    15d7: 86 6a        	stx	$6a                     ; 0x206a <main+0x1ad8>
    15d9: 8e 16 d0     	stx	$d016                   ; 0xd016 <end_block9+0x6780>
    15dc: 9c 17 d0     	stz	$d017                   ; 0xd017 <end_block9+0x6781>
    15df: a4 2b        	ldy	$2b                     ; 0x202b <main+0x1a99>
    15e1: 5a           	phy
    15e2: a0 15        	ldy	#$15
    15e4: b1 10        	lda	($10),y                 ; 0x2010 <main+0x1a7e>
    15e6: 7a           	ply
    15e7: 85 12        	sta	$12                     ; 0x2012 <main+0x1a80>
    15e9: d0 07        	bne	$15f2 <main+0x1060>
    15eb: a5 12        	lda	$12                     ; 0x2012 <main+0x1a80>
    15ed: d0 03        	bne	$15f2 <main+0x1060>
    15ef: 4c 6c 18     	jmp	$186c <main+0x12da>
    15f2: a6 7e        	ldx	$7e                     ; 0x207e <main+0x1aec>
    15f4: a4 7f        	ldy	$7f                     ; 0x207f <main+0x1aed>
    15f6: 86 1c        	stx	$1c                     ; 0x201c <main+0x1a8a>
    15f8: 84 1d        	sty	$1d                     ; 0x201d <main+0x1a8b>
    15fa: a6 7c        	ldx	$7c                     ; 0x207c <main+0x1aea>
    15fc: a4 7d        	ldy	$7d                     ; 0x207d <main+0x1aeb>
    15fe: 86 1a        	stx	$1a                     ; 0x201a <main+0x1a88>
    1600: 84 1b        	sty	$1b                     ; 0x201b <main+0x1a89>
    1602: a2 ff        	ldx	#$ff
    1604: 64 18        	stz	$18                     ; 0x2018 <main+0x1a86>
    1606: a0 13        	ldy	#$13
    1608: b1 10        	lda	($10),y                 ; 0x2010 <main+0x1a7e>
    160a: 85 1e        	sta	$1e                     ; 0x201e <main+0x1a8c>
    160c: c8           	iny
    160d: b1 10        	lda	($10),y                 ; 0x2010 <main+0x1a7e>
    160f: 85 1f        	sta	$1f                     ; 0x201f <main+0x1a8d>
    1611: 64 19        	stz	$19                     ; 0x2019 <main+0x1a87>
    1613: 86 14        	stx	$14                     ; 0x2014 <main+0x1a82>
    1615: 86 26        	stx	$26                     ; 0x2026 <main+0x1a94>
    1617: 86 16        	stx	$16                     ; 0x2016 <main+0x1a84>
    1619: 86 24        	stx	$24                     ; 0x2024 <main+0x1a92>
    161b: a0 01        	ldy	#$1
    161d: b2 1c        	lda	($1c)                   ; 0x201c <main+0x1a8a>
    161f: 85 12        	sta	$12                     ; 0x2012 <main+0x1a80>
    1621: b1 1c        	lda	($1c),y                 ; 0x201c <main+0x1a8a>
    1623: a6 1a        	ldx	$1a                     ; 0x201a <main+0x1a88>
    1625: 86 22        	stx	$22                     ; 0x2022 <main+0x1a90>
    1627: a6 1b        	ldx	$1b                     ; 0x201b <main+0x1a89>
    1629: 86 23        	stx	$23                     ; 0x2023 <main+0x1a91>
    162b: e6 22        	inc	$22                     ; 0x2022 <main+0x1a90>
    162d: d0 02        	bne	$1631 <main+0x109f>
    162f: e6 23        	inc	$23                     ; 0x2023 <main+0x1a91>
    1631: d1 22        	cmp	($22),y                 ; 0x2022 <main+0x1a90>
    1633: d0 0f        	bne	$1644 <main+0x10b2>
    1635: aa           	tax
    1636: b1 1a        	lda	($1a),y                 ; 0x201a <main+0x1a88>
    1638: 85 22        	sta	$22                     ; 0x2022 <main+0x1a90>
    163a: 8a           	txa
    163b: a6 12        	ldx	$12                     ; 0x2012 <main+0x1a80>
    163d: e4 22        	cpx	$22                     ; 0x2022 <main+0x1a90>
    163f: 90 0a        	bcc	$164b <main+0x10b9>
    1641: 4c 19 17     	jmp	$1719 <main+0x1187>
    1644: d1 22        	cmp	($22),y                 ; 0x2022 <main+0x1a90>
    1646: 90 03        	bcc	$164b <main+0x10b9>
    1648: 4c 19 17     	jmp	$1719 <main+0x1187>
    164b: 85 22        	sta	$22                     ; 0x2022 <main+0x1a90>
    164d: b2 1e        	lda	($1e)                   ; 0x201e <main+0x1a8c>
    164f: 85 17        	sta	$17                     ; 0x2017 <main+0x1a85>
    1651: b1 1e        	lda	($1e),y                 ; 0x201e <main+0x1a8c>
    1653: 85 15        	sta	$15                     ; 0x2015 <main+0x1a83>
    1655: a6 12        	ldx	$12                     ; 0x2012 <main+0x1a80>
    1657: 86 23        	stx	$23                     ; 0x2023 <main+0x1a91>
    1659: 06 23        	asl	$23                     ; 0x2023 <main+0x1a91>
    165b: 26 22        	rol	$22                     ; 0x2022 <main+0x1a90>
    165d: 64 2d        	stz	$2d                     ; 0x202d <main+0x1a9b>
    165f: 26 2d        	rol	$2d                     ; 0x202d <main+0x1a9b>
    1661: a2 01        	ldx	#$1
    1663: b0 02        	bcs	$1667 <main+0x10d5>
    1665: a2 00        	ldx	#$0
    1667: 86 12        	stx	$12                     ; 0x2012 <main+0x1a80>
    1669: 06 23        	asl	$23                     ; 0x2023 <main+0x1a91>
    166b: 26 22        	rol	$22                     ; 0x2022 <main+0x1a90>
    166d: 26 2d        	rol	$2d                     ; 0x202d <main+0x1a9b>
    166f: a2 01        	ldx	#$1
    1671: b0 02        	bcs	$1675 <main+0x10e3>
    1673: a2 00        	ldx	#$0
    1675: 86 13        	stx	$13                     ; 0x2013 <main+0x1a81>
    1677: 06 23        	asl	$23                     ; 0x2023 <main+0x1a91>
    1679: 26 22        	rol	$22                     ; 0x2022 <main+0x1a90>
    167b: 26 2d        	rol	$2d                     ; 0x202d <main+0x1a9b>
    167d: 2c b8 64     	bit	$64b8                   ; 0x64b8 <__set_v>
    1680: b0 01        	bcs	$1683 <main+0x10f1>
    1682: b8           	clv
    1683: a0 02        	ldy	#$2
    1685: b1 1e        	lda	($1e),y                 ; 0x201e <main+0x1a8c>
    1687: aa           	tax
    1688: c8           	iny
    1689: b1 1e        	lda	($1e),y                 ; 0x201e <main+0x1a8c>
    168b: d0 03        	bne	$1690 <main+0x10fe>
    168d: 4c a4 1b     	jmp	$1ba4 <main+0x1612>
    1690: a4 17        	ldy	$17                     ; 0x2017 <main+0x1a85>
    1692: 84 29        	sty	$29                     ; 0x2029 <main+0x1a97>
    1694: a4 15        	ldy	$15                     ; 0x2015 <main+0x1a83>
    1696: 86 27        	stx	$27                     ; 0x2027 <main+0x1a95>
    1698: c5 24        	cmp	$24                     ; 0x2024 <main+0x1a92>
    169a: d0 13        	bne	$16af <main+0x111d>
    169c: 85 17        	sta	$17                     ; 0x2017 <main+0x1a85>
    169e: e4 16        	cpx	$16                     ; 0x2016 <main+0x1a84>
    16a0: d0 16        	bne	$16b8 <main+0x1126>
    16a2: c4 26        	cpy	$26                     ; 0x2026 <main+0x1a94>
    16a4: d0 19        	bne	$16bf <main+0x112d>
    16a6: a6 29        	ldx	$29                     ; 0x2029 <main+0x1a97>
    16a8: e4 14        	cpx	$14                     ; 0x2014 <main+0x1a82>
    16aa: 90 1a        	bcc	$16c6 <main+0x1134>
    16ac: 4c 19 17     	jmp	$1719 <main+0x1187>
    16af: 85 17        	sta	$17                     ; 0x2017 <main+0x1a85>
    16b1: c5 24        	cmp	$24                     ; 0x2024 <main+0x1a92>
    16b3: 90 11        	bcc	$16c6 <main+0x1134>
    16b5: 4c 19 17     	jmp	$1719 <main+0x1187>
    16b8: e4 16        	cpx	$16                     ; 0x2016 <main+0x1a84>
    16ba: 90 0a        	bcc	$16c6 <main+0x1134>
    16bc: 4c 19 17     	jmp	$1719 <main+0x1187>
    16bf: c4 26        	cpy	$26                     ; 0x2026 <main+0x1a94>
    16c1: 90 03        	bcc	$16c6 <main+0x1134>
    16c3: 4c 19 17     	jmp	$1719 <main+0x1187>
    16c6: a9 00        	lda	#$0
    16c8: a6 12        	ldx	$12                     ; 0x2012 <main+0x1a80>
    16ca: e0 01        	cpx	#$1
    16cc: 2a           	rol
    16cd: a6 13        	ldx	$13                     ; 0x2013 <main+0x1a81>
    16cf: e0 01        	cpx	#$1
    16d1: 2a           	rol
    16d2: 38           	sec
    16d3: 70 01        	bvs	$16d6 <main+0x1144>
    16d5: 18           	clc
    16d6: 2a           	rol
    16d7: 85 16        	sta	$16                     ; 0x2016 <main+0x1a84>
    16d9: a6 29        	ldx	$29                     ; 0x2029 <main+0x1a97>
    16db: 86 14        	stx	$14                     ; 0x2014 <main+0x1a82>
    16dd: 84 26        	sty	$26                     ; 0x2026 <main+0x1a94>
    16df: a5 1a        	lda	$1a                     ; 0x201a <main+0x1a88>
    16e1: 18           	clc
    16e2: 69 03        	adc	#$3
    16e4: 85 12        	sta	$12                     ; 0x2012 <main+0x1a80>
    16e6: a5 1b        	lda	$1b                     ; 0x201b <main+0x1a89>
    16e8: 69 00        	adc	#$0
    16ea: 85 13        	sta	$13                     ; 0x2013 <main+0x1a81>
    16ec: 18           	clc
    16ed: a0 03        	ldy	#$3
    16ef: a5 23        	lda	$23                     ; 0x2023 <main+0x1a91>
    16f1: 71 1a        	adc	($1a),y                 ; 0x201a <main+0x1a88>
    16f3: 85 2e        	sta	$2e                     ; 0x202e <main+0x1a9c>
    16f5: a5 22        	lda	$22                     ; 0x2022 <main+0x1a90>
    16f7: a0 01        	ldy	#$1
    16f9: 71 12        	adc	($12),y                 ; 0x2012 <main+0x1a80>
    16fb: 85 2f        	sta	$2f                     ; 0x202f <main+0x1a9d>
    16fd: c8           	iny
    16fe: a5 2d        	lda	$2d                     ; 0x202d <main+0x1a9b>
    1700: 71 12        	adc	($12),y                 ; 0x2012 <main+0x1a80>
    1702: 85 28        	sta	$28                     ; 0x2028 <main+0x1a96>
    1704: a5 16        	lda	$16                     ; 0x2016 <main+0x1a84>
    1706: c8           	iny
    1707: 71 12        	adc	($12),y                 ; 0x2012 <main+0x1a80>
    1709: a6 27        	ldx	$27                     ; 0x2027 <main+0x1a95>
    170b: 86 16        	stx	$16                     ; 0x2016 <main+0x1a84>
    170d: a6 17        	ldx	$17                     ; 0x2017 <main+0x1a85>
    170f: 86 24        	stx	$24                     ; 0x2024 <main+0x1a92>
    1711: a6 18        	ldx	$18                     ; 0x2018 <main+0x1a86>
    1713: 86 25        	stx	$25                     ; 0x2025 <main+0x1a93>
    1715: a6 19        	ldx	$19                     ; 0x2019 <main+0x1a87>
    1717: 86 2a        	stx	$2a                     ; 0x202a <main+0x1a98>
    1719: e6 18        	inc	$18                     ; 0x2018 <main+0x1a86>
    171b: d0 02        	bne	$171f <main+0x118d>
    171d: e6 19        	inc	$19                     ; 0x2019 <main+0x1a87>
    171f: a5 1e        	lda	$1e                     ; 0x201e <main+0x1a8c>
    1721: 18           	clc
    1722: 69 04        	adc	#$4
    1724: 85 1e        	sta	$1e                     ; 0x201e <main+0x1a8c>
    1726: a5 1f        	lda	$1f                     ; 0x201f <main+0x1a8d>
    1728: 69 00        	adc	#$0
    172a: 85 1f        	sta	$1f                     ; 0x201f <main+0x1a8d>
    172c: a5 1a        	lda	$1a                     ; 0x201a <main+0x1a88>
    172e: 18           	clc
    172f: 69 07        	adc	#$7
    1731: 85 1a        	sta	$1a                     ; 0x201a <main+0x1a88>
    1733: a5 1b        	lda	$1b                     ; 0x201b <main+0x1a89>
    1735: 69 00        	adc	#$0
    1737: 85 1b        	sta	$1b                     ; 0x201b <main+0x1a89>
    1739: a5 1c        	lda	$1c                     ; 0x201c <main+0x1a8a>
    173b: 18           	clc
    173c: 69 02        	adc	#$2
    173e: 85 1c        	sta	$1c                     ; 0x201c <main+0x1a8a>
    1740: a5 1d        	lda	$1d                     ; 0x201d <main+0x1a8b>
    1742: 69 00        	adc	#$0
    1744: 85 1d        	sta	$1d                     ; 0x201d <main+0x1a8b>
    1746: a6 2b        	ldx	$2b                     ; 0x202b <main+0x1a99>
    1748: a0 01        	ldy	#$1
    174a: e4 19        	cpx	$19                     ; 0x2019 <main+0x1a87>
    174c: f0 03        	beq	$1751 <main+0x11bf>
    174e: 4c 1d 16     	jmp	$161d <main+0x108b>
    1751: 5a           	phy
    1752: a0 15        	ldy	#$15
    1754: b1 10        	lda	($10),y                 ; 0x2010 <main+0x1a7e>
    1756: 7a           	ply
    1757: c5 18        	cmp	$18                     ; 0x2018 <main+0x1a86>
    1759: f0 03        	beq	$175e <main+0x11cc>
    175b: 4c 1d 16     	jmp	$161d <main+0x108b>
    175e: a5 2e        	lda	$2e                     ; 0x202e <main+0x1a9c>
    1760: 18           	clc
    1761: 69 04        	adc	#$4
    1763: 85 12        	sta	$12                     ; 0x2012 <main+0x1a80>
    1765: a5 2f        	lda	$2f                     ; 0x202f <main+0x1a9d>
    1767: 69 00        	adc	#$0
    1769: 85 13        	sta	$13                     ; 0x2013 <main+0x1a81>
    176b: a5 28        	lda	$28                     ; 0x2028 <main+0x1a96>
    176d: 69 06        	adc	#$6
    176f: 5a           	phy
    1770: a6 13        	ldx	$13                     ; 0x2013 <main+0x1a81>
    1772: 86 18        	stx	$18                     ; 0x2018 <main+0x1a86>
    1774: 06 18        	asl	$18                     ; 0x2018 <main+0x1a86>
    1776: 2a           	rol
    1777: 06 18        	asl	$18                     ; 0x2018 <main+0x1a86>
    1779: 2a           	rol
    177a: 06 18        	asl	$18                     ; 0x2018 <main+0x1a86>
    177c: 2a           	rol
    177d: a6 0f        	ldx	$f                      ; 0x200f <main+0x1a7d>
    177f: 78           	sei
    1780: 85 0f        	sta	$f                      ; 0x200f <main+0x1a7d>
    1782: a5 13        	lda	$13                     ; 0x2013 <main+0x1a81>
    1784: 09 e0        	ora	#$e0
    1786: a4 12        	ldy	$12                     ; 0x2012 <main+0x1a80>
    1788: 84 18        	sty	$18                     ; 0x2018 <main+0x1a86>
    178a: 7a           	ply
    178b: 85 19        	sta	$19                     ; 0x2019 <main+0x1a87>
    178d: b2 18        	lda	($18)                   ; 0x2018 <main+0x1a86>
    178f: 85 1b        	sta	$1b                     ; 0x201b <main+0x1a89>
    1791: 86 0f        	stx	$f                      ; 0x200f <main+0x1a7d>
    1793: a5 2e        	lda	$2e                     ; 0x202e <main+0x1a9c>
    1795: 18           	clc
    1796: 69 05        	adc	#$5
    1798: 85 12        	sta	$12                     ; 0x2012 <main+0x1a80>
    179a: a5 2f        	lda	$2f                     ; 0x202f <main+0x1a9d>
    179c: 69 00        	adc	#$0
    179e: 85 13        	sta	$13                     ; 0x2013 <main+0x1a81>
    17a0: a5 28        	lda	$28                     ; 0x2028 <main+0x1a96>
    17a2: 69 06        	adc	#$6
    17a4: a6 13        	ldx	$13                     ; 0x2013 <main+0x1a81>
    17a6: 86 18        	stx	$18                     ; 0x2018 <main+0x1a86>
    17a8: 06 18        	asl	$18                     ; 0x2018 <main+0x1a86>
    17aa: 2a           	rol
    17ab: 06 18        	asl	$18                     ; 0x2018 <main+0x1a86>
    17ad: 2a           	rol
    17ae: 06 18        	asl	$18                     ; 0x2018 <main+0x1a86>
    17b0: 2a           	rol
    17b1: 58           	cli
    17b2: a6 0f        	ldx	$f                      ; 0x200f <main+0x1a7d>
    17b4: 78           	sei
    17b5: 85 0f        	sta	$f                      ; 0x200f <main+0x1a7d>
    17b7: a5 12        	lda	$12                     ; 0x2012 <main+0x1a80>
    17b9: 85 18        	sta	$18                     ; 0x2018 <main+0x1a86>
    17bb: a5 13        	lda	$13                     ; 0x2013 <main+0x1a81>
    17bd: 09 e0        	ora	#$e0
    17bf: 85 19        	sta	$19                     ; 0x2019 <main+0x1a87>
    17c1: b2 18        	lda	($18)                   ; 0x2018 <main+0x1a86>
    17c3: 85 12        	sta	$12                     ; 0x2012 <main+0x1a80>
    17c5: 86 0f        	stx	$f                      ; 0x200f <main+0x1a7d>
    17c7: a5 2e        	lda	$2e                     ; 0x202e <main+0x1a9c>
    17c9: 18           	clc
    17ca: 69 06        	adc	#$6
    17cc: 85 13        	sta	$13                     ; 0x2013 <main+0x1a81>
    17ce: a5 2f        	lda	$2f                     ; 0x202f <main+0x1a9d>
    17d0: 69 00        	adc	#$0
    17d2: 85 15        	sta	$15                     ; 0x2015 <main+0x1a83>
    17d4: a5 28        	lda	$28                     ; 0x2028 <main+0x1a96>
    17d6: 69 06        	adc	#$6
    17d8: a6 15        	ldx	$15                     ; 0x2015 <main+0x1a83>
    17da: 86 18        	stx	$18                     ; 0x2018 <main+0x1a86>
    17dc: 06 18        	asl	$18                     ; 0x2018 <main+0x1a86>
    17de: 2a           	rol
    17df: 06 18        	asl	$18                     ; 0x2018 <main+0x1a86>
    17e1: 2a           	rol
    17e2: 06 18        	asl	$18                     ; 0x2018 <main+0x1a86>
    17e4: 2a           	rol
    17e5: 58           	cli
    17e6: a6 0f        	ldx	$f                      ; 0x200f <main+0x1a7d>
    17e8: 78           	sei
    17e9: 85 0f        	sta	$f                      ; 0x200f <main+0x1a7d>
    17eb: a5 13        	lda	$13                     ; 0x2013 <main+0x1a81>
    17ed: 85 18        	sta	$18                     ; 0x2018 <main+0x1a86>
    17ef: a5 15        	lda	$15                     ; 0x2015 <main+0x1a83>
    17f1: 09 e0        	ora	#$e0
    17f3: 85 19        	sta	$19                     ; 0x2019 <main+0x1a87>
    17f5: b2 18        	lda	($18)                   ; 0x2018 <main+0x1a86>
    17f7: 85 13        	sta	$13                     ; 0x2013 <main+0x1a81>
    17f9: 86 0f        	stx	$f                      ; 0x200f <main+0x1a7d>
    17fb: 18           	clc
    17fc: a5 2e        	lda	$2e                     ; 0x202e <main+0x1a9c>
    17fe: 69 07        	adc	#$7
    1800: 85 18        	sta	$18                     ; 0x2018 <main+0x1a86>
    1802: a5 2f        	lda	$2f                     ; 0x202f <main+0x1a9d>
    1804: 69 00        	adc	#$0
    1806: 85 19        	sta	$19                     ; 0x2019 <main+0x1a87>
    1808: a5 28        	lda	$28                     ; 0x2028 <main+0x1a96>
    180a: 69 06        	adc	#$6
    180c: 85 1a        	sta	$1a                     ; 0x201a <main+0x1a88>
    180e: a5 19        	lda	$19                     ; 0x2019 <main+0x1a87>
    1810: 0a           	asl
    1811: 26 1a        	rol	$1a                     ; 0x201a <main+0x1a88>
    1813: 0a           	asl
    1814: 26 1a        	rol	$1a                     ; 0x201a <main+0x1a88>
    1816: 0a           	asl
    1817: a5 1a        	lda	$1a                     ; 0x201a <main+0x1a88>
    1819: 2a           	rol
    181a: 58           	cli
    181b: a6 0f        	ldx	$f                      ; 0x200f <main+0x1a7d>
    181d: 78           	sei
    181e: 85 0f        	sta	$f                      ; 0x200f <main+0x1a7d>
    1820: a5 19        	lda	$19                     ; 0x2019 <main+0x1a87>
    1822: 09 e0        	ora	#$e0
    1824: 85 19        	sta	$19                     ; 0x2019 <main+0x1a87>
    1826: b2 18        	lda	($18)                   ; 0x2018 <main+0x1a86>
    1828: 86 0f        	stx	$f                      ; 0x200f <main+0x1a7d>
    182a: 58           	cli
    182b: a6 24        	ldx	$24                     ; 0x2024 <main+0x1a92>
    182d: d0 0f        	bne	$183e <main+0x12ac>
    182f: a6 16        	ldx	$16                     ; 0x2016 <main+0x1a84>
    1831: d0 0b        	bne	$183e <main+0x12ac>
    1833: a6 26        	ldx	$26                     ; 0x2026 <main+0x1a94>
    1835: d0 07        	bne	$183e <main+0x12ac>
    1837: a6 14        	ldx	$14                     ; 0x2014 <main+0x1a82>
    1839: d0 03        	bne	$183e <main+0x12ac>
    183b: 4c b7 1b     	jmp	$1bb7 <main+0x1625>
    183e: a6 13        	ldx	$13                     ; 0x2013 <main+0x1a81>
    1840: 86 1a        	stx	$1a                     ; 0x201a <main+0x1a88>
    1842: a6 12        	ldx	$12                     ; 0x2012 <main+0x1a80>
    1844: 86 19        	stx	$19                     ; 0x2019 <main+0x1a87>
    1846: a6 1b        	ldx	$1b                     ; 0x201b <main+0x1a89>
    1848: 86 18        	stx	$18                     ; 0x2018 <main+0x1a86>
    184a: a6 24        	ldx	$24                     ; 0x2024 <main+0x1a92>
    184c: e0 01        	cpx	#$1
    184e: d0 0e        	bne	$185e <main+0x12cc>
    1850: a6 16        	ldx	$16                     ; 0x2016 <main+0x1a84>
    1852: d0 12        	bne	$1866 <main+0x12d4>
    1854: 85 1b        	sta	$1b                     ; 0x201b <main+0x1a89>
    1856: a5 26        	lda	$26                     ; 0x2026 <main+0x1a94>
    1858: d0 21        	bne	$187b <main+0x12e9>
    185a: a6 14        	ldx	$14                     ; 0x2014 <main+0x1a82>
    185c: 80 1f        	bra	$187d <main+0x12eb>
    185e: 85 1b        	sta	$1b                     ; 0x201b <main+0x1a89>
    1860: a6 24        	ldx	$24                     ; 0x2024 <main+0x1a92>
    1862: e0 01        	cpx	#$1
    1864: 80 19        	bra	$187f <main+0x12ed>
    1866: 85 1b        	sta	$1b                     ; 0x201b <main+0x1a89>
    1868: a6 16        	ldx	$16                     ; 0x2016 <main+0x1a84>
    186a: 80 11        	bra	$187d <main+0x12eb>
    186c: a2 ff        	ldx	#$ff
    186e: 86 14        	stx	$14                     ; 0x2014 <main+0x1a82>
    1870: 86 26        	stx	$26                     ; 0x2026 <main+0x1a94>
    1872: 86 16        	stx	$16                     ; 0x2016 <main+0x1a84>
    1874: 86 24        	stx	$24                     ; 0x2024 <main+0x1a92>
    1876: a0 01        	ldy	#$1
    1878: 4c 5e 17     	jmp	$175e <main+0x11cc>
    187b: a6 26        	ldx	$26                     ; 0x2026 <main+0x1a94>
    187d: e0 00        	cpx	#$0
    187f: a6 14        	ldx	$14                     ; 0x2014 <main+0x1a82>
    1881: 86 1c        	stx	$1c                     ; 0x201c <main+0x1a8a>
    1883: a6 26        	ldx	$26                     ; 0x2026 <main+0x1a94>
    1885: 86 1d        	stx	$1d                     ; 0x201d <main+0x1a8b>
    1887: a5 16        	lda	$16                     ; 0x2016 <main+0x1a84>
    1889: a6 24        	ldx	$24                     ; 0x2024 <main+0x1a92>
    188b: 86 12        	stx	$12                     ; 0x2012 <main+0x1a80>
    188d: b0 10        	bcs	$189f <main+0x130d>
    188f: 4c f8 18     	jmp	$18f8 <main+0x1366>
    1892: c9 00        	cmp	#$0
    1894: b0 09        	bcs	$189f <main+0x130d>
    1896: 4c f8 18     	jmp	$18f8 <main+0x1366>
    1899: a6 1d        	ldx	$1d                     ; 0x201d <main+0x1a8b>
    189b: e0 00        	cpx	#$0
    189d: 90 59        	bcc	$18f8 <main+0x1366>
    189f: 85 1e        	sta	$1e                     ; 0x201e <main+0x1a8c>
    18a1: a2 02        	ldx	#$2
    18a3: 8e 50 d6     	stx	$d650                   ; 0xd650 <end_block9+0x6dba>
    18a6: a2 09        	ldx	#$9
    18a8: 8e 50 d6     	stx	$d650                   ; 0xd650 <end_block9+0x6dba>
    18ab: a2 10        	ldx	#$10
    18ad: 8e 60 d6     	stx	$d660                   ; 0xd660 <end_block9+0x6dca>
    18b0: 8c 54 d6     	sty	$d654                   ; 0xd654 <end_block9+0x6dbe>
    18b3: a2 ff        	ldx	#$ff
    18b5: 8e 55 d6     	stx	$d655                   ; 0xd655 <end_block9+0x6dbf>
    18b8: 8e 56 d6     	stx	$d656                   ; 0xd656 <end_block9+0x6dc0>
    18bb: 8e 57 d6     	stx	$d657                   ; 0xd657 <end_block9+0x6dc1>
    18be: ad 60 d6     	lda	$d660                   ; 0xd660 <end_block9+0x6dca>
    18c1: 29 10        	and	#$10
    18c3: f0 f9        	beq	$18be <main+0x132c>
    18c5: a2 10        	ldx	#$10
    18c7: 8e 60 d6     	stx	$d660                   ; 0xd660 <end_block9+0x6dca>
    18ca: 18           	clc
    18cb: a5 1c        	lda	$1c                     ; 0x201c <main+0x1a8a>
    18cd: 69 01        	adc	#$1
    18cf: 85 1c        	sta	$1c                     ; 0x201c <main+0x1a8a>
    18d1: a5 1d        	lda	$1d                     ; 0x201d <main+0x1a8b>
    18d3: 69 00        	adc	#$0
    18d5: 85 1d        	sta	$1d                     ; 0x201d <main+0x1a8b>
    18d7: a5 1e        	lda	$1e                     ; 0x201e <main+0x1a8c>
    18d9: 69 00        	adc	#$0
    18db: aa           	tax
    18dc: a5 12        	lda	$12                     ; 0x2012 <main+0x1a80>
    18de: 69 ff        	adc	#$ff
    18e0: c9 01        	cmp	#$1
    18e2: d0 0d        	bne	$18f1 <main+0x135f>
    18e4: 85 12        	sta	$12                     ; 0x2012 <main+0x1a80>
    18e6: 8a           	txa
    18e7: d0 a9        	bne	$1892 <main+0x1300>
    18e9: a6 1d        	ldx	$1d                     ; 0x201d <main+0x1a8b>
    18eb: d0 ac        	bne	$1899 <main+0x1307>
    18ed: a6 1c        	ldx	$1c                     ; 0x201c <main+0x1a8a>
    18ef: 80 aa        	bra	$189b <main+0x1309>
    18f1: 85 12        	sta	$12                     ; 0x2012 <main+0x1a80>
    18f3: c9 01        	cmp	#$1
    18f5: 8a           	txa
    18f6: b0 a7        	bcs	$189f <main+0x130d>
    18f8: a2 02        	ldx	#$2
    18fa: 8e 50 d6     	stx	$d650                   ; 0xd650 <end_block9+0x6dba>
    18fd: a2 09        	ldx	#$9
    18ff: 8e 50 d6     	stx	$d650                   ; 0xd650 <end_block9+0x6dba>
    1902: a2 10        	ldx	#$10
    1904: 8e 60 d6     	stx	$d660                   ; 0xd660 <end_block9+0x6dca>
    1907: 8c 54 d6     	sty	$d654                   ; 0xd654 <end_block9+0x6dbe>
    190a: a6 1c        	ldx	$1c                     ; 0x201c <main+0x1a8a>
    190c: 8e 55 d6     	stx	$d655                   ; 0xd655 <end_block9+0x6dbf>
    190f: a6 1d        	ldx	$1d                     ; 0x201d <main+0x1a8b>
    1911: 8e 56 d6     	stx	$d656                   ; 0xd656 <end_block9+0x6dc0>
    1914: 8d 57 d6     	sta	$d657                   ; 0xd657 <end_block9+0x6dc1>
    1917: ad 60 d6     	lda	$d660                   ; 0xd660 <end_block9+0x6dca>
    191a: 29 10        	and	#$10
    191c: f0 f9        	beq	$1917 <main+0x1385>
    191e: a2 10        	ldx	#$10
    1920: 8e 60 d6     	stx	$d660                   ; 0xd660 <end_block9+0x6dca>
    1923: a6 19        	ldx	$19                     ; 0x2019 <main+0x1a87>
    1925: 8e b1 dd     	stx	$ddb1                   ; 0xddb1 <end_block9+0x751b>
    1928: a6 13        	ldx	$13                     ; 0x2013 <main+0x1a81>
    192a: 8e b1 dd     	stx	$ddb1                   ; 0xddb1 <end_block9+0x751b>
    192d: a6 18        	ldx	$18                     ; 0x2018 <main+0x1a86>
    192f: a5 1b        	lda	$1b                     ; 0x201b <main+0x1a89>
    1931: e0 03        	cpx	#$3
    1933: d0 03        	bne	$1938 <main+0x13a6>
    1935: 8d b1 dd     	sta	$ddb1                   ; 0xddb1 <end_block9+0x751b>
    1938: 5a           	phy
    1939: a6 25        	ldx	$25                     ; 0x2025 <main+0x1a93>
    193b: 86 1a        	stx	$1a                     ; 0x201a <main+0x1a88>
    193d: 06 1a        	asl	$1a                     ; 0x201a <main+0x1a88>
    193f: a5 2a        	lda	$2a                     ; 0x202a <main+0x1a98>
    1941: 2a           	rol
    1942: 85 1c        	sta	$1c                     ; 0x201c <main+0x1a8a>
    1944: 18           	clc
    1945: a5 1a        	lda	$1a                     ; 0x201a <main+0x1a88>
    1947: 65 7e        	adc	$7e                     ; 0x207e <main+0x1aec>
    1949: 85 18        	sta	$18                     ; 0x2018 <main+0x1a86>
    194b: a5 1c        	lda	$1c                     ; 0x201c <main+0x1a8a>
    194d: 65 7f        	adc	$7f                     ; 0x207f <main+0x1aed>
    194f: 85 19        	sta	$19                     ; 0x2019 <main+0x1a87>
    1951: b2 18        	lda	($18)                   ; 0x2018 <main+0x1a86>
    1953: aa           	tax
    1954: 06 1a        	asl	$1a                     ; 0x201a <main+0x1a88>
    1956: 26 1c        	rol	$1c                     ; 0x201c <main+0x1a8a>
    1958: a5 1a        	lda	$1a                     ; 0x201a <main+0x1a88>
    195a: a4 1a        	ldy	$1a                     ; 0x201a <main+0x1a88>
    195c: 84 1d        	sty	$1d                     ; 0x201d <main+0x1a8b>
    195e: 0a           	asl
    195f: a4 1c        	ldy	$1c                     ; 0x201c <main+0x1a8a>
    1961: 84 15        	sty	$15                     ; 0x2015 <main+0x1a83>
    1963: 7a           	ply
    1964: 26 15        	rol	$15                     ; 0x2015 <main+0x1a83>
    1966: 38           	sec
    1967: e5 25        	sbc	$25                     ; 0x2025 <main+0x1a93>
    1969: 85 13        	sta	$13                     ; 0x2013 <main+0x1a81>
    196b: a5 15        	lda	$15                     ; 0x2015 <main+0x1a83>
    196d: e5 2a        	sbc	$2a                     ; 0x202a <main+0x1a98>
    196f: 85 15        	sta	$15                     ; 0x2015 <main+0x1a83>
    1971: b1 18        	lda	($18),y                 ; 0x2018 <main+0x1a86>
    1973: e8           	inx
    1974: d0 01        	bne	$1977 <main+0x13e5>
    1976: 1a           	inc
    1977: 85 12        	sta	$12                     ; 0x2012 <main+0x1a80>
    1979: 8a           	txa
    197a: 92 18        	sta	($18)                   ; 0x2018 <main+0x1a86>
    197c: a5 12        	lda	$12                     ; 0x2012 <main+0x1a80>
    197e: 91 18        	sta	($18),y                 ; 0x2018 <main+0x1a86>
    1980: 18           	clc
    1981: a5 13        	lda	$13                     ; 0x2013 <main+0x1a81>
    1983: 65 7c        	adc	$7c                     ; 0x207c <main+0x1aea>
    1985: 85 13        	sta	$13                     ; 0x2013 <main+0x1a81>
    1987: a5 15        	lda	$15                     ; 0x2015 <main+0x1a83>
    1989: 65 7d        	adc	$7d                     ; 0x207d <main+0x1aeb>
    198b: a8           	tay
    198c: a5 13        	lda	$13                     ; 0x2013 <main+0x1a81>
    198e: 85 1a        	sta	$1a                     ; 0x201a <main+0x1a88>
    1990: 84 1b        	sty	$1b                     ; 0x201b <main+0x1a89>
    1992: 18           	clc
    1993: 69 03        	adc	#$3
    1995: 85 18        	sta	$18                     ; 0x2018 <main+0x1a86>
    1997: 98           	tya
    1998: 69 00        	adc	#$0
    199a: 85 19        	sta	$19                     ; 0x2019 <main+0x1a87>
    199c: 8a           	txa
    199d: 0a           	asl
    199e: 85 1e        	sta	$1e                     ; 0x201e <main+0x1a8c>
    19a0: a5 12        	lda	$12                     ; 0x2012 <main+0x1a80>
    19a2: 2a           	rol
    19a3: 64 12        	stz	$12                     ; 0x2012 <main+0x1a80>
    19a5: 26 12        	rol	$12                     ; 0x2012 <main+0x1a80>
    19a7: 64 13        	stz	$13                     ; 0x2013 <main+0x1a81>
    19a9: 26 13        	rol	$13                     ; 0x2013 <main+0x1a81>
    19ab: 06 1e        	asl	$1e                     ; 0x201e <main+0x1a8c>
    19ad: 2a           	rol
    19ae: aa           	tax
    19af: a5 12        	lda	$12                     ; 0x2012 <main+0x1a80>
    19b1: 2a           	rol
    19b2: 26 13        	rol	$13                     ; 0x2013 <main+0x1a81>
    19b4: 06 1e        	asl	$1e                     ; 0x201e <main+0x1a8c>
    19b6: 86 12        	stx	$12                     ; 0x2012 <main+0x1a80>
    19b8: 26 12        	rol	$12                     ; 0x2012 <main+0x1a80>
    19ba: 2a           	rol
    19bb: aa           	tax
    19bc: a5 13        	lda	$13                     ; 0x2013 <main+0x1a81>
    19be: 2a           	rol
    19bf: 85 15        	sta	$15                     ; 0x2015 <main+0x1a83>
    19c1: 18           	clc
    19c2: a5 1e        	lda	$1e                     ; 0x201e <main+0x1a8c>
    19c4: a0 03        	ldy	#$3
    19c6: 71 1a        	adc	($1a),y                 ; 0x201a <main+0x1a88>
    19c8: 85 1a        	sta	$1a                     ; 0x201a <main+0x1a88>
    19ca: a5 12        	lda	$12                     ; 0x2012 <main+0x1a80>
    19cc: a0 01        	ldy	#$1
    19ce: 71 18        	adc	($18),y                 ; 0x2018 <main+0x1a86>
    19d0: 85 12        	sta	$12                     ; 0x2012 <main+0x1a80>
    19d2: c8           	iny
    19d3: 8a           	txa
    19d4: 71 18        	adc	($18),y                 ; 0x2018 <main+0x1a86>
    19d6: 85 13        	sta	$13                     ; 0x2013 <main+0x1a81>
    19d8: c8           	iny
    19d9: a5 15        	lda	$15                     ; 0x2015 <main+0x1a83>
    19db: 71 18        	adc	($18),y                 ; 0x2018 <main+0x1a86>
    19dd: a5 1a        	lda	$1a                     ; 0x201a <main+0x1a88>
    19df: 18           	clc
    19e0: 69 00        	adc	#$0
    19e2: a5 12        	lda	$12                     ; 0x2012 <main+0x1a80>
    19e4: 69 00        	adc	#$0
    19e6: 85 15        	sta	$15                     ; 0x2015 <main+0x1a83>
    19e8: a5 13        	lda	$13                     ; 0x2013 <main+0x1a81>
    19ea: 69 06        	adc	#$6
    19ec: 06 15        	asl	$15                     ; 0x2015 <main+0x1a83>
    19ee: 2a           	rol
    19ef: 06 15        	asl	$15                     ; 0x2015 <main+0x1a83>
    19f1: 2a           	rol
    19f2: 06 15        	asl	$15                     ; 0x2015 <main+0x1a83>
    19f4: 2a           	rol
    19f5: a6 0f        	ldx	$f                      ; 0x200f <main+0x1a7d>
    19f7: 78           	sei
    19f8: 85 0f        	sta	$f                      ; 0x200f <main+0x1a7d>
    19fa: a5 12        	lda	$12                     ; 0x2012 <main+0x1a80>
    19fc: 09 e0        	ora	#$e0
    19fe: a4 1a        	ldy	$1a                     ; 0x201a <main+0x1a88>
    1a00: 84 18        	sty	$18                     ; 0x2018 <main+0x1a86>
    1a02: 85 19        	sta	$19                     ; 0x2019 <main+0x1a87>
    1a04: b2 18        	lda	($18)                   ; 0x2018 <main+0x1a86>
    1a06: 85 15        	sta	$15                     ; 0x2015 <main+0x1a83>
    1a08: a0 01        	ldy	#$1
    1a0a: b1 18        	lda	($18),y                 ; 0x2018 <main+0x1a86>
    1a0c: 85 17        	sta	$17                     ; 0x2017 <main+0x1a85>
    1a0e: 86 0f        	stx	$f                      ; 0x200f <main+0x1a7d>
    1a10: a6 1a        	ldx	$1a                     ; 0x201a <main+0x1a88>
    1a12: 86 2e        	stx	$2e                     ; 0x202e <main+0x1a9c>
    1a14: a5 1a        	lda	$1a                     ; 0x201a <main+0x1a88>
    1a16: 18           	clc
    1a17: 69 02        	adc	#$2
    1a19: 85 19        	sta	$19                     ; 0x2019 <main+0x1a87>
    1a1b: a6 12        	ldx	$12                     ; 0x2012 <main+0x1a80>
    1a1d: 86 2f        	stx	$2f                     ; 0x202f <main+0x1a9d>
    1a1f: a5 12        	lda	$12                     ; 0x2012 <main+0x1a80>
    1a21: 69 00        	adc	#$0
    1a23: 85 12        	sta	$12                     ; 0x2012 <main+0x1a80>
    1a25: a5 13        	lda	$13                     ; 0x2013 <main+0x1a81>
    1a27: 85 28        	sta	$28                     ; 0x2028 <main+0x1a96>
    1a29: 69 06        	adc	#$6
    1a2b: a6 12        	ldx	$12                     ; 0x2012 <main+0x1a80>
    1a2d: 86 18        	stx	$18                     ; 0x2018 <main+0x1a86>
    1a2f: 06 18        	asl	$18                     ; 0x2018 <main+0x1a86>
    1a31: 2a           	rol
    1a32: 06 18        	asl	$18                     ; 0x2018 <main+0x1a86>
    1a34: 2a           	rol
    1a35: 06 18        	asl	$18                     ; 0x2018 <main+0x1a86>
    1a37: 2a           	rol
    1a38: 58           	cli
    1a39: a6 0f        	ldx	$f                      ; 0x200f <main+0x1a7d>
    1a3b: 78           	sei
    1a3c: 85 0f        	sta	$f                      ; 0x200f <main+0x1a7d>
    1a3e: a5 19        	lda	$19                     ; 0x2019 <main+0x1a87>
    1a40: 85 18        	sta	$18                     ; 0x2018 <main+0x1a86>
    1a42: a5 12        	lda	$12                     ; 0x2012 <main+0x1a80>
    1a44: 09 e0        	ora	#$e0
    1a46: 85 19        	sta	$19                     ; 0x2019 <main+0x1a87>
    1a48: b2 18        	lda	($18)                   ; 0x2018 <main+0x1a86>
    1a4a: 85 1a        	sta	$1a                     ; 0x201a <main+0x1a88>
    1a4c: b1 18        	lda	($18),y                 ; 0x2018 <main+0x1a86>
    1a4e: 85 1b        	sta	$1b                     ; 0x201b <main+0x1a89>
    1a50: 86 0f        	stx	$f                      ; 0x200f <main+0x1a7d>
    1a52: 18           	clc
    1a53: a5 1d        	lda	$1d                     ; 0x201d <main+0x1a8b>
    1a55: 48           	pha
    1a56: 5a           	phy
    1a57: a0 13        	ldy	#$13
    1a59: b1 10        	lda	($10),y                 ; 0x2010 <main+0x1a7e>
    1a5b: 85 18        	sta	$18                     ; 0x2018 <main+0x1a86>
    1a5d: c8           	iny
    1a5e: b1 10        	lda	($10),y                 ; 0x2010 <main+0x1a7e>
    1a60: 7a           	ply
    1a61: 85 19        	sta	$19                     ; 0x2019 <main+0x1a87>
    1a63: 68           	pla
    1a64: 65 18        	adc	$18                     ; 0x2018 <main+0x1a86>
    1a66: 85 18        	sta	$18                     ; 0x2018 <main+0x1a86>
    1a68: a5 1c        	lda	$1c                     ; 0x201c <main+0x1a8a>
    1a6a: 65 19        	adc	$19                     ; 0x2019 <main+0x1a87>
    1a6c: 85 19        	sta	$19                     ; 0x2019 <main+0x1a87>
    1a6e: 58           	cli
    1a6f: a5 1a        	lda	$1a                     ; 0x201a <main+0x1a88>
    1a71: 92 18        	sta	($18)                   ; 0x2018 <main+0x1a86>
    1a73: a5 1b        	lda	$1b                     ; 0x201b <main+0x1a89>
    1a75: 91 18        	sta	($18),y                 ; 0x2018 <main+0x1a86>
    1a77: a0 02        	ldy	#$2
    1a79: a5 15        	lda	$15                     ; 0x2015 <main+0x1a83>
    1a7b: 91 18        	sta	($18),y                 ; 0x2018 <main+0x1a86>
    1a7d: c8           	iny
    1a7e: a5 17        	lda	$17                     ; 0x2017 <main+0x1a85>
    1a80: 91 18        	sta	($18),y                 ; 0x2018 <main+0x1a86>
    1a82: a4 2b        	ldy	$2b                     ; 0x202b <main+0x1a99>
    1a84: 5a           	phy
    1a85: a0 15        	ldy	#$15
    1a87: b1 10        	lda	($10),y                 ; 0x2010 <main+0x1a7e>
    1a89: 7a           	ply
    1a8a: 85 12        	sta	$12                     ; 0x2012 <main+0x1a80>
    1a8c: d0 07        	bne	$1a95 <main+0x1503>
    1a8e: a5 12        	lda	$12                     ; 0x2012 <main+0x1a80>
    1a90: d0 03        	bne	$1a95 <main+0x1503>
    1a92: 4c 75 1b     	jmp	$1b75 <main+0x15e3>
    1a95: a6 7e        	ldx	$7e                     ; 0x207e <main+0x1aec>
    1a97: a4 7f        	ldy	$7f                     ; 0x207f <main+0x1aed>
    1a99: 86 18        	stx	$18                     ; 0x2018 <main+0x1a86>
    1a9b: 84 19        	sty	$19                     ; 0x2019 <main+0x1a87>
    1a9d: a6 7c        	ldx	$7c                     ; 0x207c <main+0x1aea>
    1a9f: a4 7d        	ldy	$7d                     ; 0x207d <main+0x1aeb>
    1aa1: 86 1a        	stx	$1a                     ; 0x201a <main+0x1a88>
    1aa3: 84 1b        	sty	$1b                     ; 0x201b <main+0x1a89>
    1aa5: e6 1a        	inc	$1a                     ; 0x201a <main+0x1a88>
    1aa7: d0 02        	bne	$1aab <main+0x1519>
    1aa9: e6 1b        	inc	$1b                     ; 0x201b <main+0x1a89>
    1aab: a0 15        	ldy	#$15
    1aad: b1 10        	lda	($10),y                 ; 0x2010 <main+0x1a7e>
    1aaf: aa           	tax
    1ab0: a4 2b        	ldy	$2b                     ; 0x202b <main+0x1a99>
    1ab2: 84 23        	sty	$23                     ; 0x2023 <main+0x1a91>
    1ab4: a4 25        	ldy	$25                     ; 0x2025 <main+0x1a93>
    1ab6: 84 1d        	sty	$1d                     ; 0x201d <main+0x1a8b>
    1ab8: a4 2a        	ldy	$2a                     ; 0x202a <main+0x1a98>
    1aba: 84 1c        	sty	$1c                     ; 0x201c <main+0x1a8a>
    1abc: a0 13        	ldy	#$13
    1abe: b1 10        	lda	($10),y                 ; 0x2010 <main+0x1a7e>
    1ac0: 85 1e        	sta	$1e                     ; 0x201e <main+0x1a8c>
    1ac2: c8           	iny
    1ac3: b1 10        	lda	($10),y                 ; 0x2010 <main+0x1a7e>
    1ac5: 85 1f        	sta	$1f                     ; 0x201f <main+0x1a8d>
    1ac7: 4c 56 1b     	jmp	$1b56 <main+0x15c4>
    1aca: d1 1a        	cmp	($1a),y                 ; 0x201a <main+0x1a88>
    1acc: b0 49        	bcs	$1b17 <main+0x1585>
    1ace: a5 1c        	lda	$1c                     ; 0x201c <main+0x1a8a>
    1ad0: d0 04        	bne	$1ad6 <main+0x1544>
    1ad2: a5 1d        	lda	$1d                     ; 0x201d <main+0x1a8b>
    1ad4: f0 41        	beq	$1b17 <main+0x1585>
    1ad6: b2 1e        	lda	($1e)                   ; 0x201e <main+0x1a8c>
    1ad8: 85 15        	sta	$15                     ; 0x2015 <main+0x1a83>
    1ada: a0 01        	ldy	#$1
    1adc: b1 1e        	lda	($1e),y                 ; 0x201e <main+0x1a8c>
    1ade: 85 13        	sta	$13                     ; 0x2013 <main+0x1a81>
    1ae0: c8           	iny
    1ae1: b1 1e        	lda	($1e),y                 ; 0x201e <main+0x1a8c>
    1ae3: 85 12        	sta	$12                     ; 0x2012 <main+0x1a80>
    1ae5: c8           	iny
    1ae6: b1 1e        	lda	($1e),y                 ; 0x201e <main+0x1a8c>
    1ae8: 85 17        	sta	$17                     ; 0x2017 <main+0x1a85>
    1aea: 38           	sec
    1aeb: a5 15        	lda	$15                     ; 0x2015 <main+0x1a83>
    1aed: e5 14        	sbc	$14                     ; 0x2014 <main+0x1a82>
    1aef: 85 15        	sta	$15                     ; 0x2015 <main+0x1a83>
    1af1: a5 13        	lda	$13                     ; 0x2013 <main+0x1a81>
    1af3: e5 26        	sbc	$26                     ; 0x2026 <main+0x1a94>
    1af5: 85 13        	sta	$13                     ; 0x2013 <main+0x1a81>
    1af7: a5 12        	lda	$12                     ; 0x2012 <main+0x1a80>
    1af9: e5 16        	sbc	$16                     ; 0x2016 <main+0x1a84>
    1afb: 85 12        	sta	$12                     ; 0x2012 <main+0x1a80>
    1afd: a5 17        	lda	$17                     ; 0x2017 <main+0x1a85>
    1aff: e5 24        	sbc	$24                     ; 0x2024 <main+0x1a92>
    1b01: 85 17        	sta	$17                     ; 0x2017 <main+0x1a85>
    1b03: a5 15        	lda	$15                     ; 0x2015 <main+0x1a83>
    1b05: 92 1e        	sta	($1e)                   ; 0x201e <main+0x1a8c>
    1b07: a5 13        	lda	$13                     ; 0x2013 <main+0x1a81>
    1b09: a0 01        	ldy	#$1
    1b0b: 91 1e        	sta	($1e),y                 ; 0x201e <main+0x1a8c>
    1b0d: a5 12        	lda	$12                     ; 0x2012 <main+0x1a80>
    1b0f: c8           	iny
    1b10: 91 1e        	sta	($1e),y                 ; 0x201e <main+0x1a8c>
    1b12: c8           	iny
    1b13: a5 17        	lda	$17                     ; 0x2017 <main+0x1a85>
    1b15: 91 1e        	sta	($1e),y                 ; 0x201e <main+0x1a8c>
    1b17: a5 1e        	lda	$1e                     ; 0x201e <main+0x1a8c>
    1b19: 18           	clc
    1b1a: 69 04        	adc	#$4
    1b1c: 85 1e        	sta	$1e                     ; 0x201e <main+0x1a8c>
    1b1e: a5 1f        	lda	$1f                     ; 0x201f <main+0x1a8d>
    1b20: 69 00        	adc	#$0
    1b22: 85 1f        	sta	$1f                     ; 0x201f <main+0x1a8d>
    1b24: a9 ff        	lda	#$ff
    1b26: c6 1d        	dec	$1d                     ; 0x201d <main+0x1a8b>
    1b28: c5 1d        	cmp	$1d                     ; 0x201d <main+0x1a8b>
    1b2a: d0 02        	bne	$1b2e <main+0x159c>
    1b2c: c6 1c        	dec	$1c                     ; 0x201c <main+0x1a8a>
    1b2e: ca           	dex
    1b2f: e0 ff        	cpx	#$ff
    1b31: d0 02        	bne	$1b35 <main+0x15a3>
    1b33: c6 23        	dec	$23                     ; 0x2023 <main+0x1a91>
    1b35: a5 1a        	lda	$1a                     ; 0x201a <main+0x1a88>
    1b37: 18           	clc
    1b38: 69 07        	adc	#$7
    1b3a: 85 1a        	sta	$1a                     ; 0x201a <main+0x1a88>
    1b3c: a5 1b        	lda	$1b                     ; 0x201b <main+0x1a89>
    1b3e: 69 00        	adc	#$0
    1b40: 85 1b        	sta	$1b                     ; 0x201b <main+0x1a89>
    1b42: a5 18        	lda	$18                     ; 0x2018 <main+0x1a86>
    1b44: 18           	clc
    1b45: 69 02        	adc	#$2
    1b47: 85 18        	sta	$18                     ; 0x2018 <main+0x1a86>
    1b49: a5 19        	lda	$19                     ; 0x2019 <main+0x1a87>
    1b4b: 69 00        	adc	#$0
    1b4d: 85 19        	sta	$19                     ; 0x2019 <main+0x1a87>
    1b4f: a5 23        	lda	$23                     ; 0x2023 <main+0x1a91>
    1b51: d0 03        	bne	$1b56 <main+0x15c4>
    1b53: 8a           	txa
    1b54: f0 1f        	beq	$1b75 <main+0x15e3>
    1b56: a0 01        	ldy	#$1
    1b58: b1 18        	lda	($18),y                 ; 0x2018 <main+0x1a86>
    1b5a: d1 1a        	cmp	($1a),y                 ; 0x201a <main+0x1a88>
    1b5c: f0 03        	beq	$1b61 <main+0x15cf>
    1b5e: 4c ca 1a     	jmp	$1aca <main+0x1538>
    1b61: b2 18        	lda	($18)                   ; 0x2018 <main+0x1a86>
    1b63: 85 12        	sta	$12                     ; 0x2012 <main+0x1a80>
    1b65: b2 1a        	lda	($1a)                   ; 0x201a <main+0x1a88>
    1b67: 85 22        	sta	$22                     ; 0x2022 <main+0x1a90>
    1b69: a4 12        	ldy	$12                     ; 0x2012 <main+0x1a80>
    1b6b: c4 22        	cpy	$22                     ; 0x2022 <main+0x1a90>
    1b6d: b0 03        	bcs	$1b72 <main+0x15e0>
    1b6f: 4c ce 1a     	jmp	$1ace <main+0x153c>
    1b72: 4c 17 1b     	jmp	$1b17 <main+0x1585>
    1b75: a0 12        	ldy	#$12
    1b77: b1 10        	lda	($10),y                 ; 0x2010 <main+0x1a7e>
    1b79: a8           	tay
    1b7a: a2 ff        	ldx	#$ff
    1b7c: c6 2c        	dec	$2c                     ; 0x202c <main+0x1a9a>
    1b7e: e4 2c        	cpx	$2c                     ; 0x202c <main+0x1a9a>
    1b80: d0 01        	bne	$1b83 <main+0x15f1>
    1b82: 88           	dey
    1b83: 98           	tya
    1b84: 5a           	phy
    1b85: a0 12        	ldy	#$12
    1b87: 91 10        	sta	($10),y                 ; 0x2010 <main+0x1a7e>
    1b89: a0 10        	ldy	#$10
    1b8b: b1 10        	lda	($10),y                 ; 0x2010 <main+0x1a7e>
    1b8d: 85 26        	sta	$26                     ; 0x2026 <main+0x1a94>
    1b8f: c8           	iny
    1b90: b1 10        	lda	($10),y                 ; 0x2010 <main+0x1a7e>
    1b92: 7a           	ply
    1b93: 85 27        	sta	$27                     ; 0x2027 <main+0x1a95>
    1b95: f0 03        	beq	$1b9a <main+0x1608>
    1b97: 4c c2 15     	jmp	$15c2 <main+0x1030>
    1b9a: a5 2c        	lda	$2c                     ; 0x202c <main+0x1a9a>
    1b9c: f0 03        	beq	$1ba1 <main+0x160f>
    1b9e: 4c c2 15     	jmp	$15c2 <main+0x1030>
    1ba1: 4c e6 1f     	jmp	$1fe6 <main+0x1a54>
    1ba4: e0 00        	cpx	#$0
    1ba6: f0 03        	beq	$1bab <main+0x1619>
    1ba8: 4c 90 16     	jmp	$1690 <main+0x10fe>
    1bab: e6 15        	inc	$15                     ; 0x2015 <main+0x1a83>
    1bad: c6 15        	dec	$15                     ; 0x2015 <main+0x1a83>
    1baf: f0 03        	beq	$1bb4 <main+0x1622>
    1bb1: 4c 90 16     	jmp	$1690 <main+0x10fe>
    1bb4: 4c 37 20     	jmp	$2037 <main+0x1aa5>
    1bb7: a6 12        	ldx	$12                     ; 0x2012 <main+0x1a80>
    1bb9: 8e b1 dd     	stx	$ddb1                   ; 0xddb1 <end_block9+0x751b>
    1bbc: a6 13        	ldx	$13                     ; 0x2013 <main+0x1a81>
    1bbe: 8e b1 dd     	stx	$ddb1                   ; 0xddb1 <end_block9+0x751b>
    1bc1: a6 1b        	ldx	$1b                     ; 0x201b <main+0x1a89>
    1bc3: 4c 31 19     	jmp	$1931 <main+0x139f>
    1bc6: a2 60        	ldx	#$60
    1bc8: 86 60        	stx	$60                     ; 0x2060 <main+0x1ace>
    1bca: a2 f2        	ldx	#$f2
    1bcc: 86 12        	stx	$12                     ; 0x2012 <main+0x1a80>
    1bce: a2 65        	ldx	#$65
    1bd0: 86 13        	stx	$13                     ; 0x2013 <main+0x1a81>
    1bd2: 20 62 46     	jsr	$4662 <puts>
    1bd5: a6 7a        	ldx	$7a                     ; 0x207a <main+0x1ae8>
    1bd7: a4 7b        	ldy	$7b                     ; 0x207b <main+0x1ae9>
    1bd9: d0 06        	bne	$1be1 <main+0x164f>
    1bdb: 8a           	txa
    1bdc: d0 03        	bne	$1be1 <main+0x164f>
    1bde: 4c 77 20     	jmp	$2077 <main+0x1ae5>
    1be1: a5 7c        	lda	$7c                     ; 0x207c <main+0x1aea>
    1be3: 85 12        	sta	$12                     ; 0x2012 <main+0x1a80>
    1be5: a5 7d        	lda	$7d                     ; 0x207d <main+0x1aeb>
    1be7: 85 13        	sta	$13                     ; 0x2013 <main+0x1a81>
    1be9: e6 12        	inc	$12                     ; 0x2012 <main+0x1a80>
    1beb: d0 02        	bne	$1bef <main+0x165d>
    1bed: e6 13        	inc	$13                     ; 0x2013 <main+0x1a81>
    1bef: 64 15        	stz	$15                     ; 0x2015 <main+0x1a83>
    1bf1: 84 14        	sty	$14                     ; 0x2014 <main+0x1a82>
    1bf3: 64 16        	stz	$16                     ; 0x2016 <main+0x1a84>
    1bf5: a0 01        	ldy	#$1
    1bf7: 18           	clc
    1bf8: a5 15        	lda	$15                     ; 0x2015 <main+0x1a83>
    1bfa: 72 12        	adc	($12)                   ; 0x2012 <main+0x1a80>
    1bfc: 85 15        	sta	$15                     ; 0x2015 <main+0x1a83>
    1bfe: a5 16        	lda	$16                     ; 0x2016 <main+0x1a84>
    1c00: 71 12        	adc	($12),y                 ; 0x2012 <main+0x1a80>
    1c02: 85 16        	sta	$16                     ; 0x2016 <main+0x1a84>
    1c04: a5 12        	lda	$12                     ; 0x2012 <main+0x1a80>
    1c06: 18           	clc
    1c07: 69 07        	adc	#$7
    1c09: 85 12        	sta	$12                     ; 0x2012 <main+0x1a80>
    1c0b: a5 13        	lda	$13                     ; 0x2013 <main+0x1a81>
    1c0d: 69 00        	adc	#$0
    1c0f: 85 13        	sta	$13                     ; 0x2013 <main+0x1a81>
    1c11: ca           	dex
    1c12: e0 ff        	cpx	#$ff
    1c14: d0 02        	bne	$1c18 <main+0x1686>
    1c16: c6 14        	dec	$14                     ; 0x2014 <main+0x1a82>
    1c18: a5 14        	lda	$14                     ; 0x2014 <main+0x1a82>
    1c1a: d0 db        	bne	$1bf7 <main+0x1665>
    1c1c: 8a           	txa
    1c1d: d0 d8        	bne	$1bf7 <main+0x1665>
    1c1f: a5 15        	lda	$15                     ; 0x2015 <main+0x1a83>
    1c21: 92 10        	sta	($10)                   ; 0x2010 <main+0x1a7e>
    1c23: 85 24        	sta	$24                     ; 0x2024 <main+0x1a92>
    1c25: a6 16        	ldx	$16                     ; 0x2016 <main+0x1a84>
    1c27: 86 25        	stx	$25                     ; 0x2025 <main+0x1a93>
    1c29: a5 16        	lda	$16                     ; 0x2016 <main+0x1a84>
    1c2b: 91 10        	sta	($10),y                 ; 0x2010 <main+0x1a7e>
    1c2d: a2 d4        	ldx	#$d4
    1c2f: 86 12        	stx	$12                     ; 0x2012 <main+0x1a80>
    1c31: a2 65        	ldx	#$65
    1c33: 86 13        	stx	$13                     ; 0x2013 <main+0x1a81>
    1c35: 20 a6 3a     	jsr	$3aa6 <printf>
    1c38: a2 80        	ldx	#$80
    1c3a: 86 f3        	stx	$f3                     ; 0x20f3 <main+0x1b61>
    1c3c: a2 68        	ldx	#$68
    1c3e: 86 12        	stx	$12                     ; 0x2012 <main+0x1a80>
    1c40: a2 00        	ldx	#$0
    1c42: 86 13        	stx	$13                     ; 0x2013 <main+0x1a81>
    1c44: 20 f0 ff     	jsr	$fff0 <end_block9+0x975a>
    1c47: 92 26        	sta	($26)                   ; 0x2026 <main+0x1a94>
    1c49: a9 00        	lda	#$0
    1c4b: 6a           	ror
    1c4c: 85 12        	sta	$12                     ; 0x2012 <main+0x1a80>
    1c4e: a9 0a        	lda	#$a
    1c50: 18           	clc
    1c51: 72 26        	adc	($26)                   ; 0x2026 <main+0x1a94>
    1c53: 85 82        	sta	$82                     ; 0x2082 <main+0x1af0>
    1c55: 64 f3        	stz	$f3                     ; 0x20f3 <main+0x1b61>
    1c57: a6 82        	ldx	$82                     ; 0x2082 <main+0x1af0>
    1c59: 86 f4        	stx	$f4                     ; 0x20f4 <main+0x1b62>
    1c5b: 64 f5        	stz	$f5                     ; 0x20f5 <main+0x1b63>
    1c5d: a2 68        	ldx	#$68
    1c5f: 86 18        	stx	$18                     ; 0x2018 <main+0x1a86>
    1c61: a2 00        	ldx	#$0
    1c63: 86 19        	stx	$19                     ; 0x2019 <main+0x1a87>
    1c65: 20 f0 ff     	jsr	$fff0 <end_block9+0x975a>
    1c68: 92 26        	sta	($26)                   ; 0x2026 <main+0x1a94>
    1c6a: a9 00        	lda	#$0
    1c6c: 6a           	ror
    1c6d: 85 12        	sta	$12                     ; 0x2012 <main+0x1a80>
    1c6f: a5 24        	lda	$24                     ; 0x2024 <main+0x1a92>
    1c71: a6 25        	ldx	$25                     ; 0x2025 <main+0x1a93>
    1c73: d0 06        	bne	$1c7b <main+0x16e9>
    1c75: aa           	tax
    1c76: d0 03        	bne	$1c7b <main+0x16e9>
    1c78: 4c e6 1f     	jmp	$1fe6 <main+0x1a54>
    1c7b: a6 25        	ldx	$25                     ; 0x2025 <main+0x1a93>
    1c7d: 86 1b        	stx	$1b                     ; 0x201b <main+0x1a89>
    1c7f: 64 12        	stz	$12                     ; 0x2012 <main+0x1a80>
    1c81: 48           	pha
    1c82: a9 00        	lda	#$0
    1c84: a0 15        	ldy	#$15
    1c86: 91 10        	sta	($10),y                 ; 0x2010 <main+0x1a7e>
    1c88: 68           	pla
    1c89: 85 1a        	sta	$1a                     ; 0x201a <main+0x1a88>
    1c8b: 64 61        	stz	$61                     ; 0x2061 <main+0x1acf>
    1c8d: 20 00 ff     	jsr	$ff00 <end_block9+0x966a>
    1c90: 92 26        	sta	($26)                   ; 0x2026 <main+0x1a94>
    1c92: a9 00        	lda	#$0
    1c94: 6a           	ror
    1c95: 85 18        	sta	$18                     ; 0x2018 <main+0x1a86>
    1c97: a4 61        	ldy	$61                     ; 0x2061 <main+0x1acf>
    1c99: c0 52        	cpy	#$52
    1c9b: f0 03        	beq	$1ca0 <main+0x170e>
    1c9d: 4c 44 1d     	jmp	$1d44 <main+0x17b2>
    1ca0: a4 65        	ldy	$65                     ; 0x2065 <main+0x1ad3>
    1ca2: f0 03        	beq	$1ca7 <main+0x1715>
    1ca4: 4c 44 1d     	jmp	$1d44 <main+0x17b2>
    1ca7: a0 80        	ldy	#$80
    1ca9: 84 f3        	sty	$f3                     ; 0x20f3 <main+0x1b61>
    1cab: a2 68        	ldx	#$68
    1cad: 86 12        	stx	$12                     ; 0x2012 <main+0x1a80>
    1caf: a2 00        	ldx	#$0
    1cb1: 86 13        	stx	$13                     ; 0x2013 <main+0x1a81>
    1cb3: 20 f0 ff     	jsr	$fff0 <end_block9+0x975a>
    1cb6: 92 26        	sta	($26)                   ; 0x2026 <main+0x1a94>
    1cb8: a9 00        	lda	#$0
    1cba: 6a           	ror
    1cbb: 85 12        	sta	$12                     ; 0x2012 <main+0x1a80>
    1cbd: a9 0a        	lda	#$a
    1cbf: 18           	clc
    1cc0: 72 26        	adc	($26)                   ; 0x2026 <main+0x1a94>
    1cc2: 85 82        	sta	$82                     ; 0x2082 <main+0x1af0>
    1cc4: 64 f3        	stz	$f3                     ; 0x20f3 <main+0x1b61>
    1cc6: a4 82        	ldy	$82                     ; 0x2082 <main+0x1af0>
    1cc8: 84 f4        	sty	$f4                     ; 0x20f4 <main+0x1b62>
    1cca: 64 f5        	stz	$f5                     ; 0x20f5 <main+0x1b63>
    1ccc: a0 15        	ldy	#$15
    1cce: b1 10        	lda	($10),y                 ; 0x2010 <main+0x1a7e>
    1cd0: aa           	tax
    1cd1: e8           	inx
    1cd2: e0 05        	cpx	#$5
    1cd4: a0 01        	ldy	#$1
    1cd6: b0 02        	bcs	$1cda <main+0x1748>
    1cd8: a0 00        	ldy	#$0
    1cda: 84 14        	sty	$14                     ; 0x2014 <main+0x1a82>
    1cdc: a0 68        	ldy	#$68
    1cde: 84 18        	sty	$18                     ; 0x2018 <main+0x1a86>
    1ce0: a0 00        	ldy	#$0
    1ce2: 84 19        	sty	$19                     ; 0x2019 <main+0x1a87>
    1ce4: 20 f0 ff     	jsr	$fff0 <end_block9+0x975a>
    1ce7: 92 26        	sta	($26)                   ; 0x2026 <main+0x1a94>
    1ce9: a9 00        	lda	#$0
    1ceb: 6a           	ror
    1cec: 85 12        	sta	$12                     ; 0x2012 <main+0x1a80>
    1cee: a5 14        	lda	$14                     ; 0x2014 <main+0x1a82>
    1cf0: f0 02        	beq	$1cf4 <main+0x1762>
    1cf2: a2 00        	ldx	#$0
    1cf4: 8a           	txa
    1cf5: 0a           	asl
    1cf6: 64 12        	stz	$12                     ; 0x2012 <main+0x1a80>
    1cf8: 26 12        	rol	$12                     ; 0x2012 <main+0x1a80>
    1cfa: 0a           	asl
    1cfb: 85 13        	sta	$13                     ; 0x2013 <main+0x1a81>
    1cfd: 26 12        	rol	$12                     ; 0x2012 <main+0x1a80>
    1cff: a9 42        	lda	#$42
    1d01: 18           	clc
    1d02: 65 13        	adc	$13                     ; 0x2013 <main+0x1a81>
    1d04: a8           	tay
    1d05: a9 68        	lda	#$68
    1d07: 65 12        	adc	$12                     ; 0x2012 <main+0x1a80>
    1d09: 84 12        	sty	$12                     ; 0x2012 <main+0x1a80>
    1d0b: 85 13        	sta	$13                     ; 0x2013 <main+0x1a81>
    1d0d: b2 12        	lda	($12)                   ; 0x2012 <main+0x1a80>
    1d0f: 85 15        	sta	$15                     ; 0x2015 <main+0x1a83>
    1d11: a0 01        	ldy	#$1
    1d13: b1 12        	lda	($12),y                 ; 0x2012 <main+0x1a80>
    1d15: 85 14        	sta	$14                     ; 0x2014 <main+0x1a82>
    1d17: c8           	iny
    1d18: b1 12        	lda	($12),y                 ; 0x2012 <main+0x1a80>
    1d1a: a4 15        	ldy	$15                     ; 0x2015 <main+0x1a83>
    1d1c: 8c 01 d9     	sty	$d901                   ; 0xd901 <end_block9+0x706b>
    1d1f: a4 14        	ldy	$14                     ; 0x2014 <main+0x1a82>
    1d21: 8c 02 d9     	sty	$d902                   ; 0xd902 <end_block9+0x706c>
    1d24: 8d 03 d9     	sta	$d903                   ; 0xd903 <end_block9+0x706d>
    1d27: 8a           	txa
    1d28: a0 15        	ldy	#$15
    1d2a: 91 10        	sta	($10),y                 ; 0x2010 <main+0x1a7e>
    1d2c: e0 04        	cpx	#$4
    1d2e: d0 14        	bne	$1d44 <main+0x17b2>
    1d30: a2 99        	ldx	#$99
    1d32: 8e a1 dd     	stx	$dda1                   ; 0xdda1 <end_block9+0x750b>
    1d35: a2 3d        	ldx	#$3d
    1d37: 8e a1 dd     	stx	$dda1                   ; 0xdda1 <end_block9+0x750b>
    1d3a: a2 7f        	ldx	#$7f
    1d3c: 8e a1 dd     	stx	$dda1                   ; 0xdda1 <end_block9+0x750b>
    1d3f: a2 04        	ldx	#$4
    1d41: 8a           	txa
    1d42: 91 10        	sta	($10),y                 ; 0x2010 <main+0x1a7e>
    1d44: a5 7c        	lda	$7c                     ; 0x207c <main+0x1aea>
    1d46: a6 7d        	ldx	$7d                     ; 0x207d <main+0x1aeb>
    1d48: 85 12        	sta	$12                     ; 0x2012 <main+0x1a80>
    1d4a: 86 13        	stx	$13                     ; 0x2013 <main+0x1a81>
    1d4c: 18           	clc
    1d4d: 69 03        	adc	#$3
    1d4f: 85 14        	sta	$14                     ; 0x2014 <main+0x1a82>
    1d51: 8a           	txa
    1d52: 69 00        	adc	#$0
    1d54: 85 15        	sta	$15                     ; 0x2015 <main+0x1a83>
    1d56: a4 7e        	ldy	$7e                     ; 0x207e <main+0x1aec>
    1d58: a5 7f        	lda	$7f                     ; 0x207f <main+0x1aed>
    1d5a: 84 16        	sty	$16                     ; 0x2016 <main+0x1a84>
    1d5c: 85 17        	sta	$17                     ; 0x2017 <main+0x1a85>
    1d5e: b2 16        	lda	($16)                   ; 0x2016 <main+0x1a84>
    1d60: aa           	tax
    1d61: a0 01        	ldy	#$1
    1d63: b1 16        	lda	($16),y                 ; 0x2016 <main+0x1a84>
    1d65: 85 16        	sta	$16                     ; 0x2016 <main+0x1a84>
    1d67: 8a           	txa
    1d68: 0a           	asl
    1d69: 26 16        	rol	$16                     ; 0x2016 <main+0x1a84>
    1d6b: a6 16        	ldx	$16                     ; 0x2016 <main+0x1a84>
    1d6d: 86 17        	stx	$17                     ; 0x2017 <main+0x1a85>
    1d6f: 64 16        	stz	$16                     ; 0x2016 <main+0x1a84>
    1d71: 26 16        	rol	$16                     ; 0x2016 <main+0x1a84>
    1d73: 0a           	asl
    1d74: 26 17        	rol	$17                     ; 0x2017 <main+0x1a85>
    1d76: a6 17        	ldx	$17                     ; 0x2017 <main+0x1a85>
    1d78: 86 1c        	stx	$1c                     ; 0x201c <main+0x1a8a>
    1d7a: 26 16        	rol	$16                     ; 0x2016 <main+0x1a84>
    1d7c: 0a           	asl
    1d7d: 26 1c        	rol	$1c                     ; 0x201c <main+0x1a8a>
    1d7f: 26 16        	rol	$16                     ; 0x2016 <main+0x1a84>
    1d81: 18           	clc
    1d82: a0 03        	ldy	#$3
    1d84: 71 12        	adc	($12),y                 ; 0x2012 <main+0x1a80>
    1d86: 85 17        	sta	$17                     ; 0x2017 <main+0x1a85>
    1d88: a0 01        	ldy	#$1
    1d8a: a5 1c        	lda	$1c                     ; 0x201c <main+0x1a8a>
    1d8c: 71 14        	adc	($14),y                 ; 0x2014 <main+0x1a82>
    1d8e: 85 1c        	sta	$1c                     ; 0x201c <main+0x1a8a>
    1d90: c8           	iny
    1d91: a5 16        	lda	$16                     ; 0x2016 <main+0x1a84>
    1d93: 71 14        	adc	($14),y                 ; 0x2014 <main+0x1a82>
    1d95: 85 14        	sta	$14                     ; 0x2014 <main+0x1a82>
    1d97: 18           	clc
    1d98: a5 17        	lda	$17                     ; 0x2017 <main+0x1a85>
    1d9a: 69 00        	adc	#$0
    1d9c: a5 1c        	lda	$1c                     ; 0x201c <main+0x1a8a>
    1d9e: 69 00        	adc	#$0
    1da0: 85 12        	sta	$12                     ; 0x2012 <main+0x1a80>
    1da2: a5 14        	lda	$14                     ; 0x2014 <main+0x1a82>
    1da4: 69 06        	adc	#$6
    1da6: 06 12        	asl	$12                     ; 0x2012 <main+0x1a80>
    1da8: 2a           	rol
    1da9: 06 12        	asl	$12                     ; 0x2012 <main+0x1a80>
    1dab: 2a           	rol
    1dac: a6 0f        	ldx	$f                      ; 0x200f <main+0x1a7d>
    1dae: 78           	sei
    1daf: 06 12        	asl	$12                     ; 0x2012 <main+0x1a80>
    1db1: 2a           	rol
    1db2: 85 0f        	sta	$f                      ; 0x200f <main+0x1a7d>
    1db4: a5 1c        	lda	$1c                     ; 0x201c <main+0x1a8a>
    1db6: 09 e0        	ora	#$e0
    1db8: a4 17        	ldy	$17                     ; 0x2017 <main+0x1a85>
    1dba: 84 12        	sty	$12                     ; 0x2012 <main+0x1a80>
    1dbc: 85 13        	sta	$13                     ; 0x2013 <main+0x1a81>
    1dbe: b2 12        	lda	($12)                   ; 0x2012 <main+0x1a80>
    1dc0: 85 1f        	sta	$1f                     ; 0x201f <main+0x1a8d>
    1dc2: a0 01        	ldy	#$1
    1dc4: b1 12        	lda	($12),y                 ; 0x2012 <main+0x1a80>
    1dc6: 85 1e        	sta	$1e                     ; 0x201e <main+0x1a8c>
    1dc8: 86 0f        	stx	$f                      ; 0x200f <main+0x1a7d>
    1dca: 18           	clc
    1dcb: a5 17        	lda	$17                     ; 0x2017 <main+0x1a85>
    1dcd: 69 02        	adc	#$2
    1dcf: a8           	tay
    1dd0: a5 1c        	lda	$1c                     ; 0x201c <main+0x1a8a>
    1dd2: 69 00        	adc	#$0
    1dd4: 85 13        	sta	$13                     ; 0x2013 <main+0x1a81>
    1dd6: a5 14        	lda	$14                     ; 0x2014 <main+0x1a82>
    1dd8: 69 06        	adc	#$6
    1dda: a6 13        	ldx	$13                     ; 0x2013 <main+0x1a81>
    1ddc: 86 12        	stx	$12                     ; 0x2012 <main+0x1a80>
    1dde: 06 12        	asl	$12                     ; 0x2012 <main+0x1a80>
    1de0: 2a           	rol
    1de1: 06 12        	asl	$12                     ; 0x2012 <main+0x1a80>
    1de3: 2a           	rol
    1de4: 06 12        	asl	$12                     ; 0x2012 <main+0x1a80>
    1de6: 2a           	rol
    1de7: 58           	cli
    1de8: a6 0f        	ldx	$f                      ; 0x200f <main+0x1a7d>
    1dea: 78           	sei
    1deb: 85 0f        	sta	$f                      ; 0x200f <main+0x1a7d>
    1ded: 84 12        	sty	$12                     ; 0x2012 <main+0x1a80>
    1def: a5 13        	lda	$13                     ; 0x2013 <main+0x1a81>
    1df1: 09 e0        	ora	#$e0
    1df3: 85 13        	sta	$13                     ; 0x2013 <main+0x1a81>
    1df5: b2 12        	lda	($12)                   ; 0x2012 <main+0x1a80>
    1df7: 85 23        	sta	$23                     ; 0x2023 <main+0x1a91>
    1df9: a0 01        	ldy	#$1
    1dfb: b1 12        	lda	($12),y                 ; 0x2012 <main+0x1a80>
    1dfd: 85 24        	sta	$24                     ; 0x2024 <main+0x1a92>
    1dff: 86 0f        	stx	$f                      ; 0x200f <main+0x1a7d>
    1e01: 18           	clc
    1e02: a5 17        	lda	$17                     ; 0x2017 <main+0x1a85>
    1e04: 69 04        	adc	#$4
    1e06: aa           	tax
    1e07: a5 1c        	lda	$1c                     ; 0x201c <main+0x1a8a>
    1e09: 69 00        	adc	#$0
    1e0b: 85 13        	sta	$13                     ; 0x2013 <main+0x1a81>
    1e0d: a5 14        	lda	$14                     ; 0x2014 <main+0x1a82>
    1e0f: 69 06        	adc	#$6
    1e11: a4 13        	ldy	$13                     ; 0x2013 <main+0x1a81>
    1e13: 84 12        	sty	$12                     ; 0x2012 <main+0x1a80>
    1e15: 06 12        	asl	$12                     ; 0x2012 <main+0x1a80>
    1e17: 2a           	rol
    1e18: 06 12        	asl	$12                     ; 0x2012 <main+0x1a80>
    1e1a: 2a           	rol
    1e1b: 06 12        	asl	$12                     ; 0x2012 <main+0x1a80>
    1e1d: 2a           	rol
    1e1e: 58           	cli
    1e1f: a4 0f        	ldy	$f                      ; 0x200f <main+0x1a7d>
    1e21: 78           	sei
    1e22: 85 0f        	sta	$f                      ; 0x200f <main+0x1a7d>
    1e24: 86 12        	stx	$12                     ; 0x2012 <main+0x1a80>
    1e26: a5 13        	lda	$13                     ; 0x2013 <main+0x1a81>
    1e28: 09 e0        	ora	#$e0
    1e2a: 85 13        	sta	$13                     ; 0x2013 <main+0x1a81>
    1e2c: b2 12        	lda	($12)                   ; 0x2012 <main+0x1a80>
    1e2e: 85 16        	sta	$16                     ; 0x2016 <main+0x1a84>
    1e30: 84 0f        	sty	$f                      ; 0x200f <main+0x1a7d>
    1e32: 18           	clc
    1e33: a5 17        	lda	$17                     ; 0x2017 <main+0x1a85>
    1e35: 69 05        	adc	#$5
    1e37: aa           	tax
    1e38: a5 1c        	lda	$1c                     ; 0x201c <main+0x1a8a>
    1e3a: 69 00        	adc	#$0
    1e3c: 85 13        	sta	$13                     ; 0x2013 <main+0x1a81>
    1e3e: a5 14        	lda	$14                     ; 0x2014 <main+0x1a82>
    1e40: 69 06        	adc	#$6
    1e42: a4 13        	ldy	$13                     ; 0x2013 <main+0x1a81>
    1e44: 84 12        	sty	$12                     ; 0x2012 <main+0x1a80>
    1e46: 06 12        	asl	$12                     ; 0x2012 <main+0x1a80>
    1e48: 2a           	rol
    1e49: 06 12        	asl	$12                     ; 0x2012 <main+0x1a80>
    1e4b: 2a           	rol
    1e4c: 06 12        	asl	$12                     ; 0x2012 <main+0x1a80>
    1e4e: 2a           	rol
    1e4f: 58           	cli
    1e50: a4 0f        	ldy	$f                      ; 0x200f <main+0x1a7d>
    1e52: 78           	sei
    1e53: 85 0f        	sta	$f                      ; 0x200f <main+0x1a7d>
    1e55: 86 12        	stx	$12                     ; 0x2012 <main+0x1a80>
    1e57: a5 13        	lda	$13                     ; 0x2013 <main+0x1a81>
    1e59: 09 e0        	ora	#$e0
    1e5b: 85 13        	sta	$13                     ; 0x2013 <main+0x1a81>
    1e5d: b2 12        	lda	($12)                   ; 0x2012 <main+0x1a80>
    1e5f: 85 1d        	sta	$1d                     ; 0x201d <main+0x1a8b>
    1e61: 84 0f        	sty	$f                      ; 0x200f <main+0x1a7d>
    1e63: 18           	clc
    1e64: a5 17        	lda	$17                     ; 0x2017 <main+0x1a85>
    1e66: 69 06        	adc	#$6
    1e68: aa           	tax
    1e69: a5 1c        	lda	$1c                     ; 0x201c <main+0x1a8a>
    1e6b: 69 00        	adc	#$0
    1e6d: 85 13        	sta	$13                     ; 0x2013 <main+0x1a81>
    1e6f: a5 14        	lda	$14                     ; 0x2014 <main+0x1a82>
    1e71: 69 06        	adc	#$6
    1e73: a4 13        	ldy	$13                     ; 0x2013 <main+0x1a81>
    1e75: 84 12        	sty	$12                     ; 0x2012 <main+0x1a80>
    1e77: 06 12        	asl	$12                     ; 0x2012 <main+0x1a80>
    1e79: 2a           	rol
    1e7a: 06 12        	asl	$12                     ; 0x2012 <main+0x1a80>
    1e7c: 2a           	rol
    1e7d: 06 12        	asl	$12                     ; 0x2012 <main+0x1a80>
    1e7f: 2a           	rol
    1e80: 58           	cli
    1e81: a4 0f        	ldy	$f                      ; 0x200f <main+0x1a7d>
    1e83: 78           	sei
    1e84: 85 0f        	sta	$f                      ; 0x200f <main+0x1a7d>
    1e86: 86 12        	stx	$12                     ; 0x2012 <main+0x1a80>
    1e88: a5 13        	lda	$13                     ; 0x2013 <main+0x1a81>
    1e8a: 09 e0        	ora	#$e0
    1e8c: 85 13        	sta	$13                     ; 0x2013 <main+0x1a81>
    1e8e: b2 12        	lda	($12)                   ; 0x2012 <main+0x1a80>
    1e90: 85 22        	sta	$22                     ; 0x2022 <main+0x1a90>
    1e92: 84 0f        	sty	$f                      ; 0x200f <main+0x1a7d>
    1e94: 18           	clc
    1e95: a5 17        	lda	$17                     ; 0x2017 <main+0x1a85>
    1e97: 69 07        	adc	#$7
    1e99: 85 13        	sta	$13                     ; 0x2013 <main+0x1a81>
    1e9b: a5 1c        	lda	$1c                     ; 0x201c <main+0x1a8a>
    1e9d: 69 00        	adc	#$0
    1e9f: 85 15        	sta	$15                     ; 0x2015 <main+0x1a83>
    1ea1: a5 14        	lda	$14                     ; 0x2014 <main+0x1a82>
    1ea3: 69 06        	adc	#$6
    1ea5: 85 12        	sta	$12                     ; 0x2012 <main+0x1a80>
    1ea7: a5 15        	lda	$15                     ; 0x2015 <main+0x1a83>
    1ea9: 0a           	asl
    1eaa: 26 12        	rol	$12                     ; 0x2012 <main+0x1a80>
    1eac: 0a           	asl
    1ead: 26 12        	rol	$12                     ; 0x2012 <main+0x1a80>
    1eaf: 0a           	asl
    1eb0: a5 12        	lda	$12                     ; 0x2012 <main+0x1a80>
    1eb2: 2a           	rol
    1eb3: 58           	cli
    1eb4: a4 0f        	ldy	$f                      ; 0x200f <main+0x1a7d>
    1eb6: 78           	sei
    1eb7: 85 0f        	sta	$f                      ; 0x200f <main+0x1a7d>
    1eb9: a6 13        	ldx	$13                     ; 0x2013 <main+0x1a81>
    1ebb: 86 12        	stx	$12                     ; 0x2012 <main+0x1a80>
    1ebd: a5 15        	lda	$15                     ; 0x2015 <main+0x1a83>
    1ebf: 09 e0        	ora	#$e0
    1ec1: 85 13        	sta	$13                     ; 0x2013 <main+0x1a81>
    1ec3: a6 1e        	ldx	$1e                     ; 0x201e <main+0x1a8c>
    1ec5: a5 24        	lda	$24                     ; 0x2024 <main+0x1a92>
    1ec7: 85 15        	sta	$15                     ; 0x2015 <main+0x1a83>
    1ec9: b2 12        	lda	($12)                   ; 0x2012 <main+0x1a80>
    1ecb: 85 17        	sta	$17                     ; 0x2017 <main+0x1a85>
    1ecd: a5 1f        	lda	$1f                     ; 0x201f <main+0x1a8d>
    1ecf: 84 0f        	sty	$f                      ; 0x200f <main+0x1a7d>
    1ed1: 58           	cli
    1ed2: a4 23        	ldy	$23                     ; 0x2023 <main+0x1a91>
    1ed4: e0 00        	cpx	#$0
    1ed6: d0 0e        	bne	$1ee6 <main+0x1954>
    1ed8: c9 00        	cmp	#$0
    1eda: d0 0a        	bne	$1ee6 <main+0x1954>
    1edc: e6 15        	inc	$15                     ; 0x2015 <main+0x1a83>
    1ede: c6 15        	dec	$15                     ; 0x2015 <main+0x1a83>
    1ee0: d0 04        	bne	$1ee6 <main+0x1954>
    1ee2: c0 00        	cpy	#$0
    1ee4: f0 46        	beq	$1f2c <main+0x199a>
    1ee6: 84 14        	sty	$14                     ; 0x2014 <main+0x1a82>
    1ee8: e0 01        	cpx	#$1
    1eea: d0 06        	bne	$1ef2 <main+0x1960>
    1eec: 86 13        	stx	$13                     ; 0x2013 <main+0x1a81>
    1eee: c9 00        	cmp	#$0
    1ef0: 80 04        	bra	$1ef6 <main+0x1964>
    1ef2: 86 13        	stx	$13                     ; 0x2013 <main+0x1a81>
    1ef4: e0 01        	cpx	#$1
    1ef6: a0 01        	ldy	#$1
    1ef8: 90 03        	bcc	$1efd <main+0x196b>
    1efa: 4c 86 1f     	jmp	$1f86 <main+0x19f4>
    1efd: 85 12        	sta	$12                     ; 0x2012 <main+0x1a80>
    1eff: a9 02        	lda	#$2
    1f01: 8d 50 d6     	sta	$d650                   ; 0xd650 <end_block9+0x6dba>
    1f04: a9 09        	lda	#$9
    1f06: 8d 50 d6     	sta	$d650                   ; 0xd650 <end_block9+0x6dba>
    1f09: a9 10        	lda	#$10
    1f0b: 8d 60 d6     	sta	$d660                   ; 0xd660 <end_block9+0x6dca>
    1f0e: 8c 54 d6     	sty	$d654                   ; 0xd654 <end_block9+0x6dbe>
    1f11: a4 14        	ldy	$14                     ; 0x2014 <main+0x1a82>
    1f13: 8c 55 d6     	sty	$d655                   ; 0xd655 <end_block9+0x6dbf>
    1f16: a4 15        	ldy	$15                     ; 0x2015 <main+0x1a83>
    1f18: 8c 56 d6     	sty	$d656                   ; 0xd656 <end_block9+0x6dc0>
    1f1b: a4 12        	ldy	$12                     ; 0x2012 <main+0x1a80>
    1f1d: 8c 57 d6     	sty	$d657                   ; 0xd657 <end_block9+0x6dc1>
    1f20: ad 60 d6     	lda	$d660                   ; 0xd660 <end_block9+0x6dca>
    1f23: 29 10        	and	#$10
    1f25: f0 f9        	beq	$1f20 <main+0x198e>
    1f27: a0 10        	ldy	#$10
    1f29: 8c 60 d6     	sty	$d660                   ; 0xd660 <end_block9+0x6dca>
    1f2c: a4 1d        	ldy	$1d                     ; 0x201d <main+0x1a8b>
    1f2e: 8c b1 dd     	sty	$ddb1                   ; 0xddb1 <end_block9+0x751b>
    1f31: a4 22        	ldy	$22                     ; 0x2022 <main+0x1a90>
    1f33: 8c b1 dd     	sty	$ddb1                   ; 0xddb1 <end_block9+0x751b>
    1f36: a4 16        	ldy	$16                     ; 0x2016 <main+0x1a84>
    1f38: c0 03        	cpy	#$3
    1f3a: d0 05        	bne	$1f41 <main+0x19af>
    1f3c: a6 17        	ldx	$17                     ; 0x2017 <main+0x1a85>
    1f3e: 8e b1 dd     	stx	$ddb1                   ; 0xddb1 <end_block9+0x751b>
    1f41: a4 7e        	ldy	$7e                     ; 0x207e <main+0x1aec>
    1f43: a5 7f        	lda	$7f                     ; 0x207f <main+0x1aed>
    1f45: 84 12        	sty	$12                     ; 0x2012 <main+0x1a80>
    1f47: 85 13        	sta	$13                     ; 0x2013 <main+0x1a81>
    1f49: b2 12        	lda	($12)                   ; 0x2012 <main+0x1a80>
    1f4b: 85 14        	sta	$14                     ; 0x2014 <main+0x1a82>
    1f4d: a0 01        	ldy	#$1
    1f4f: b1 12        	lda	($12),y                 ; 0x2012 <main+0x1a80>
    1f51: aa           	tax
    1f52: a5 14        	lda	$14                     ; 0x2014 <main+0x1a82>
    1f54: 1a           	inc
    1f55: d0 01        	bne	$1f58 <main+0x19c6>
    1f57: e8           	inx
    1f58: 92 12        	sta	($12)                   ; 0x2012 <main+0x1a80>
    1f5a: 8a           	txa
    1f5b: 91 12        	sta	($12),y                 ; 0x2012 <main+0x1a80>
    1f5d: a5 1a        	lda	$1a                     ; 0x201a <main+0x1a88>
    1f5f: a6 1b        	ldx	$1b                     ; 0x201b <main+0x1a89>
    1f61: 86 12        	stx	$12                     ; 0x2012 <main+0x1a80>
    1f63: 3a           	dec
    1f64: c9 ff        	cmp	#$ff
    1f66: d0 02        	bne	$1f6a <main+0x19d8>
    1f68: c6 12        	dec	$12                     ; 0x2012 <main+0x1a80>
    1f6a: a6 12        	ldx	$12                     ; 0x2012 <main+0x1a80>
    1f6c: 86 1b        	stx	$1b                     ; 0x201b <main+0x1a89>
    1f6e: f0 03        	beq	$1f73 <main+0x19e1>
    1f70: 4c 89 1c     	jmp	$1c89 <main+0x16f7>
    1f73: aa           	tax
    1f74: f0 03        	beq	$1f79 <main+0x19e7>
    1f76: 4c 89 1c     	jmp	$1c89 <main+0x16f7>
    1f79: 4c e6 1f     	jmp	$1fe6 <main+0x1a54>
    1f7c: a5 15        	lda	$15                     ; 0x2015 <main+0x1a83>
    1f7e: c9 00        	cmp	#$0
    1f80: 8a           	txa
    1f81: b0 03        	bcs	$1f86 <main+0x19f4>
    1f83: 4c fd 1e     	jmp	$1efd <main+0x196b>
    1f86: 85 12        	sta	$12                     ; 0x2012 <main+0x1a80>
    1f88: a9 02        	lda	#$2
    1f8a: 8d 50 d6     	sta	$d650                   ; 0xd650 <end_block9+0x6dba>
    1f8d: a9 09        	lda	#$9
    1f8f: 8d 50 d6     	sta	$d650                   ; 0xd650 <end_block9+0x6dba>
    1f92: a9 10        	lda	#$10
    1f94: 8d 60 d6     	sta	$d660                   ; 0xd660 <end_block9+0x6dca>
    1f97: 8c 54 d6     	sty	$d654                   ; 0xd654 <end_block9+0x6dbe>
    1f9a: a9 ff        	lda	#$ff
    1f9c: 8d 55 d6     	sta	$d655                   ; 0xd655 <end_block9+0x6dbf>
    1f9f: 8d 56 d6     	sta	$d656                   ; 0xd656 <end_block9+0x6dc0>
    1fa2: 8d 57 d6     	sta	$d657                   ; 0xd657 <end_block9+0x6dc1>
    1fa5: ad 60 d6     	lda	$d660                   ; 0xd660 <end_block9+0x6dca>
    1fa8: 29 10        	and	#$10
    1faa: f0 f9        	beq	$1fa5 <main+0x1a13>
    1fac: a9 10        	lda	#$10
    1fae: 8d 60 d6     	sta	$d660                   ; 0xd660 <end_block9+0x6dca>
    1fb1: 18           	clc
    1fb2: a5 14        	lda	$14                     ; 0x2014 <main+0x1a82>
    1fb4: 69 01        	adc	#$1
    1fb6: 85 14        	sta	$14                     ; 0x2014 <main+0x1a82>
    1fb8: a5 15        	lda	$15                     ; 0x2015 <main+0x1a83>
    1fba: 69 00        	adc	#$0
    1fbc: 85 15        	sta	$15                     ; 0x2015 <main+0x1a83>
    1fbe: a5 12        	lda	$12                     ; 0x2012 <main+0x1a80>
    1fc0: 69 00        	adc	#$0
    1fc2: aa           	tax
    1fc3: a5 13        	lda	$13                     ; 0x2013 <main+0x1a81>
    1fc5: 69 ff        	adc	#$ff
    1fc7: c9 01        	cmp	#$1
    1fc9: d0 0d        	bne	$1fd8 <main+0x1a46>
    1fcb: 85 13        	sta	$13                     ; 0x2013 <main+0x1a81>
    1fcd: 8a           	txa
    1fce: d0 0f        	bne	$1fdf <main+0x1a4d>
    1fd0: a5 15        	lda	$15                     ; 0x2015 <main+0x1a83>
    1fd2: d0 a8        	bne	$1f7c <main+0x19ea>
    1fd4: a5 14        	lda	$14                     ; 0x2014 <main+0x1a82>
    1fd6: 80 a6        	bra	$1f7e <main+0x19ec>
    1fd8: 85 13        	sta	$13                     ; 0x2013 <main+0x1a81>
    1fda: c9 01        	cmp	#$1
    1fdc: 4c 80 1f     	jmp	$1f80 <main+0x19ee>
    1fdf: c9 00        	cmp	#$0
    1fe1: b0 a3        	bcs	$1f86 <main+0x19f4>
    1fe3: 4c fd 1e     	jmp	$1efd <main+0x196b>
    1fe6: a6 7a        	ldx	$7a                     ; 0x207a <main+0x1ae8>
    1fe8: 86 12        	stx	$12                     ; 0x2012 <main+0x1a80>
    1fea: a6 7b        	ldx	$7b                     ; 0x207b <main+0x1ae9>
    1fec: 86 13        	stx	$13                     ; 0x2013 <main+0x1a81>
    1fee: a5 13        	lda	$13                     ; 0x2013 <main+0x1a81>
    1ff0: d0 07        	bne	$1ff9 <main+0x1a67>
    1ff2: a5 12        	lda	$12                     ; 0x2012 <main+0x1a80>
    1ff4: d0 03        	bne	$1ff9 <main+0x1a67>
    1ff6: 4c b1 13     	jmp	$13b1 <main+0xe1f>
    1ff9: a6 7e        	ldx	$7e                     ; 0x207e <main+0x1aec>
    1ffb: 86 16        	stx	$16                     ; 0x2016 <main+0x1a84>
    1ffd: a6 7f        	ldx	$7f                     ; 0x207f <main+0x1aed>
    1fff: 86 17        	stx	$17                     ; 0x2017 <main+0x1a85>
    2001: a2 01        	ldx	#$1
    2003: 8a           	txa
    2004: 3a           	dec
    2005: 0a           	asl
    2006: 85 14        	sta	$14                     ; 0x2014 <main+0x1a82>
    2008: a9 00        	lda	#$0
    200a: 2a           	rol
    200b: 85 15        	sta	$15                     ; 0x2015 <main+0x1a83>
    200d: a5 16        	lda	$16                     ; 0x2016 <main+0x1a84>
    200f: 18           	clc
    2010: 65 14        	adc	$14                     ; 0x2014 <main+0x1a82>
    2012: 85 14        	sta	$14                     ; 0x2014 <main+0x1a82>
    2014: a5 17        	lda	$17                     ; 0x2017 <main+0x1a85>
    2016: 65 15        	adc	$15                     ; 0x2015 <main+0x1a83>
    2018: 85 15        	sta	$15                     ; 0x2015 <main+0x1a83>
    201a: a9 00        	lda	#$0
    201c: 92 14        	sta	($14)                   ; 0x2014 <main+0x1a82>
    201e: a0 01        	ldy	#$1
    2020: 91 14        	sta	($14),y                 ; 0x2014 <main+0x1a82>
    2022: 86 14        	stx	$14                     ; 0x2014 <main+0x1a82>
    2024: e6 14        	inc	$14                     ; 0x2014 <main+0x1a82>
    2026: c5 13        	cmp	$13                     ; 0x2013 <main+0x1a81>
    2028: d0 04        	bne	$202e <main+0x1a9c>
    202a: e4 12        	cpx	$12                     ; 0x2012 <main+0x1a80>
    202c: 80 02        	bra	$2030 <main+0x1a9e>
    202e: c5 13        	cmp	$13                     ; 0x2013 <main+0x1a81>
    2030: a6 14        	ldx	$14                     ; 0x2014 <main+0x1a82>
    2032: 90 cf        	bcc	$2003 <main+0x1a71>
    2034: 4c b1 13     	jmp	$13b1 <main+0xe1f>
    2037: e6 17        	inc	$17                     ; 0x2017 <main+0x1a85>
    2039: c6 17        	dec	$17                     ; 0x2017 <main+0x1a85>
    203b: f0 03        	beq	$2040 <main+0x1aae>
    203d: 4c 90 16     	jmp	$1690 <main+0x10fe>
    2040: a5 1a        	lda	$1a                     ; 0x201a <main+0x1a88>
    2042: 18           	clc
    2043: 69 03        	adc	#$3
    2045: 85 12        	sta	$12                     ; 0x2012 <main+0x1a80>
    2047: a5 1b        	lda	$1b                     ; 0x201b <main+0x1a89>
    2049: 69 00        	adc	#$0
    204b: 85 13        	sta	$13                     ; 0x2013 <main+0x1a81>
    204d: 18           	clc
    204e: a5 23        	lda	$23                     ; 0x2023 <main+0x1a91>
    2050: 71 1a        	adc	($1a),y                 ; 0x201a <main+0x1a88>
    2052: 85 2e        	sta	$2e                     ; 0x202e <main+0x1a9c>
    2054: a0 01        	ldy	#$1
    2056: a5 22        	lda	$22                     ; 0x2022 <main+0x1a90>
    2058: 71 12        	adc	($12),y                 ; 0x2012 <main+0x1a80>
    205a: 85 2f        	sta	$2f                     ; 0x202f <main+0x1a9d>
    205c: c8           	iny
    205d: a5 2d        	lda	$2d                     ; 0x202d <main+0x1a9b>
    205f: 71 12        	adc	($12),y                 ; 0x2012 <main+0x1a80>
    2061: 88           	dey
    2062: 64 14        	stz	$14                     ; 0x2014 <main+0x1a82>
    2064: 85 28        	sta	$28                     ; 0x2028 <main+0x1a96>
    2066: 64 26        	stz	$26                     ; 0x2026 <main+0x1a94>
    2068: 64 16        	stz	$16                     ; 0x2016 <main+0x1a84>
    206a: 64 24        	stz	$24                     ; 0x2024 <main+0x1a92>
    206c: a6 18        	ldx	$18                     ; 0x2018 <main+0x1a86>
    206e: 86 25        	stx	$25                     ; 0x2025 <main+0x1a93>
    2070: a6 19        	ldx	$19                     ; 0x2019 <main+0x1a87>
    2072: 86 2a        	stx	$2a                     ; 0x202a <main+0x1a98>
    2074: 4c 5e 17     	jmp	$175e <main+0x11cc>
    2077: 64 15        	stz	$15                     ; 0x2015 <main+0x1a83>
    2079: 64 16        	stz	$16                     ; 0x2016 <main+0x1a84>
    207b: a0 01        	ldy	#$1
    207d: 4c 1f 1c     	jmp	$1c1f <main+0x168d>
    2080: b2 24        	lda	($24)                   ; 0x2024 <main+0x1a92>
    2082: 85 28        	sta	$28                     ; 0x2028 <main+0x1a96>
    2084: 64 61        	stz	$61                     ; 0x2061 <main+0x1acf>
    2086: 20 00 ff     	jsr	$ff00 <end_block9+0x966a>
    2089: 92 24        	sta	($24)                   ; 0x2024 <main+0x1a92>
    208b: a9 00        	lda	#$0
    208d: 6a           	ror
    208e: 85 12        	sta	$12                     ; 0x2012 <main+0x1a80>
    2090: a6 61        	ldx	$61                     ; 0x2061 <main+0x1acf>
    2092: e0 38        	cpx	#$38
    2094: d0 03        	bne	$2099 <main+0x1b07>
    2096: 4c c9 0a     	jmp	$ac9 <main+0x537>
    2099: e0 2a        	cpx	#$2a
    209b: f0 07        	beq	$20a4 <main+0x1b12>
    209d: e0 28        	cpx	#$28
    209f: d0 e3        	bne	$2084 <main+0x1af2>
    20a1: 4c c9 0a     	jmp	$ac9 <main+0x537>
    20a4: a9 01        	lda	#$1
    20a6: a2 00        	ldx	#$0
    20a8: 64 2a        	stz	$2a                     ; 0x202a <main+0x1a98>
    20aa: 20 93 46     	jsr	$4693 <malloc>
    20ad: a5 28        	lda	$28                     ; 0x2028 <main+0x1a96>
    20af: 92 12        	sta	($12)                   ; 0x2012 <main+0x1a80>
    20b1: a6 12        	ldx	$12                     ; 0x2012 <main+0x1a80>
    20b3: a4 13        	ldy	$13                     ; 0x2013 <main+0x1a81>
    20b5: 86 80        	stx	$80                     ; 0x2080 <main+0x1aee>
    20b7: 84 81        	sty	$81                     ; 0x2081 <main+0x1aef>
    20b9: a2 7a        	ldx	#$7a
    20bb: 86 12        	stx	$12                     ; 0x2012 <main+0x1a80>
    20bd: a2 66        	ldx	#$66
    20bf: 86 13        	stx	$13                     ; 0x2013 <main+0x1a81>
    20c1: 20 62 46     	jsr	$4662 <puts>
    20c4: a2 68        	ldx	#$68
    20c6: 86 12        	stx	$12                     ; 0x2012 <main+0x1a80>
    20c8: a2 00        	ldx	#$0
    20ca: 86 13        	stx	$13                     ; 0x2013 <main+0x1a81>
    20cc: 64 2d        	stz	$2d                     ; 0x202d <main+0x1a9b>
    20ce: 64 2c        	stz	$2c                     ; 0x202c <main+0x1a9a>
    20d0: 64 14        	stz	$14                     ; 0x2014 <main+0x1a82>
    20d2: a9 00        	lda	#$0
    20d4: a0 13        	ldy	#$13
    20d6: 91 10        	sta	($10),y                 ; 0x2010 <main+0x1a7e>
    20d8: 88           	dey
    20d9: 91 10        	sta	($10),y                 ; 0x2010 <main+0x1a7e>
    20db: 64 2b        	stz	$2b                     ; 0x202b <main+0x1a99>
    20dd: 64 2f        	stz	$2f                     ; 0x202f <main+0x1a9d>
    20df: 64 2e        	stz	$2e                     ; 0x202e <main+0x1a9c>
    20e1: a6 80        	ldx	$80                     ; 0x2080 <main+0x1aee>
    20e3: a4 81        	ldy	$81                     ; 0x2081 <main+0x1aef>
    20e5: 86 14        	stx	$14                     ; 0x2014 <main+0x1a82>
    20e7: 84 15        	sty	$15                     ; 0x2015 <main+0x1a83>
    20e9: 64 16        	stz	$16                     ; 0x2016 <main+0x1a84>
    20eb: 64 17        	stz	$17                     ; 0x2017 <main+0x1a85>
    20ed: b2 14        	lda	($14)                   ; 0x2014 <main+0x1a82>
    20ef: aa           	tax
    20f0: 18           	clc
    20f1: a5 10        	lda	$10                     ; 0x2010 <main+0x1a7e>
    20f3: 69 16        	adc	#$16
    20f5: 48           	pha
    20f6: a5 11        	lda	$11                     ; 0x2011 <main+0x1a7f>
    20f8: 69 00        	adc	#$0
    20fa: a8           	tay
    20fb: 68           	pla
    20fc: 18           	clc
    20fd: 65 16        	adc	$16                     ; 0x2016 <main+0x1a84>
    20ff: 85 18        	sta	$18                     ; 0x2018 <main+0x1a86>
    2101: 98           	tya
    2102: 65 17        	adc	$17                     ; 0x2017 <main+0x1a85>
    2104: a8           	tay
    2105: e0 00        	cpx	#$0
    2107: d0 03        	bne	$210c <main+0x1b7a>
    2109: 4c 68 21     	jmp	$2168 <main+0x1bd6>
    210c: a5 16        	lda	$16                     ; 0x2016 <main+0x1a84>
    210e: 49 ff        	eor	#$ff
    2110: 86 f3        	stx	$f3                     ; 0x20f3 <main+0x1b61>
    2112: 85 f4        	sta	$f4                     ; 0x20f4 <main+0x1b62>
    2114: 20 60 ff     	jsr	$ff60 <end_block9+0x96ca>
    2117: 92 26        	sta	($26)                   ; 0x2026 <main+0x1a94>
    2119: a9 00        	lda	#$0
    211b: 6a           	ror
    211c: 85 12        	sta	$12                     ; 0x2012 <main+0x1a80>
    211e: a6 68        	ldx	$68                     ; 0x2068 <main+0x1ad6>
    2120: f0 03        	beq	$2125 <main+0x1b93>
    2122: 4c b6 21     	jmp	$21b6 <main+0x1c24>
    2125: a6 18        	ldx	$18                     ; 0x2018 <main+0x1a86>
    2127: 86 19        	stx	$19                     ; 0x2019 <main+0x1a87>
    2129: 84 18        	sty	$18                     ; 0x2018 <main+0x1a86>
    212b: 64 61        	stz	$61                     ; 0x2061 <main+0x1acf>
    212d: 20 00 ff     	jsr	$ff00 <end_block9+0x966a>
    2130: 92 26        	sta	($26)                   ; 0x2026 <main+0x1a94>
    2132: a9 00        	lda	#$0
    2134: 6a           	ror
    2135: 85 12        	sta	$12                     ; 0x2012 <main+0x1a80>
    2137: a6 61        	ldx	$61                     ; 0x2061 <main+0x1acf>
    2139: e0 38        	cpx	#$38
    213b: d0 03        	bne	$2140 <main+0x1bae>
    213d: 4c b6 21     	jmp	$21b6 <main+0x1c24>
    2140: e0 30        	cpx	#$30
    2142: d0 03        	bne	$2147 <main+0x1bb5>
    2144: 4c bf 21     	jmp	$21bf <main+0x1c2d>
    2147: e0 2c        	cpx	#$2c
    2149: d0 e0        	bne	$212b <main+0x1b99>
    214b: a6 19        	ldx	$19                     ; 0x2019 <main+0x1a87>
    214d: 86 fb        	stx	$fb                     ; 0x20fb <main+0x1b69>
    214f: a6 18        	ldx	$18                     ; 0x2018 <main+0x1a86>
    2151: 86 fc        	stx	$fc                     ; 0x20fc <main+0x1b6a>
    2153: a6 67        	ldx	$67                     ; 0x2067 <main+0x1ad5>
    2155: 86 fd        	stx	$fd                     ; 0x20fd <main+0x1b6b>
    2157: 20 04 ff     	jsr	$ff04 <end_block9+0x966e>
    215a: 92 26        	sta	($26)                   ; 0x2026 <main+0x1a94>
    215c: a9 00        	lda	#$0
    215e: 6a           	ror
    215f: 85 12        	sta	$12                     ; 0x2012 <main+0x1a80>
    2161: a5 67        	lda	$67                     ; 0x2067 <main+0x1ad5>
    2163: d0 33        	bne	$2198 <main+0x1c06>
    2165: 4c a2 22     	jmp	$22a2 <main+0x1d10>
    2168: 85 19        	sta	$19                     ; 0x2019 <main+0x1a87>
    216a: 80 0a        	bra	$2176 <main+0x1be4>
    216c: a6 61        	ldx	$61                     ; 0x2061 <main+0x1acf>
    216e: e0 08        	cpx	#$8
    2170: d0 04        	bne	$2176 <main+0x1be4>
    2172: a6 67        	ldx	$67                     ; 0x2067 <main+0x1ad5>
    2174: f0 1c        	beq	$2192 <main+0x1c00>
    2176: 64 61        	stz	$61                     ; 0x2061 <main+0x1acf>
    2178: 20 00 ff     	jsr	$ff00 <end_block9+0x966a>
    217b: 92 26        	sta	($26)                   ; 0x2026 <main+0x1a94>
    217d: a9 00        	lda	#$0
    217f: 6a           	ror
    2180: 85 12        	sta	$12                     ; 0x2012 <main+0x1a80>
    2182: a6 68        	ldx	$68                     ; 0x2068 <main+0x1ad6>
    2184: f0 e6        	beq	$216c <main+0x1bda>
    2186: 20 0c ff     	jsr	$ff0c <end_block9+0x9676>
    2189: 92 26        	sta	($26)                   ; 0x2026 <main+0x1a94>
    218b: a9 00        	lda	#$0
    218d: 6a           	ror
    218e: 85 12        	sta	$12                     ; 0x2012 <main+0x1a80>
    2190: 80 e4        	bra	$2176 <main+0x1be4>
    2192: a5 66        	lda	$66                     ; 0x2066 <main+0x1ad4>
    2194: 92 18        	sta	($18)                   ; 0x2018 <main+0x1a86>
    2196: a9 01        	lda	#$1
    2198: a0 00        	ldy	#$0
    219a: 18           	clc
    219b: 65 16        	adc	$16                     ; 0x2016 <main+0x1a84>
    219d: aa           	tax
    219e: 98           	tya
    219f: 65 17        	adc	$17                     ; 0x2017 <main+0x1a85>
    21a1: d0 04        	bne	$21a7 <main+0x1c15>
    21a3: e0 ff        	cpx	#$ff
    21a5: 80 02        	bra	$21a9 <main+0x1c17>
    21a7: c9 00        	cmp	#$0
    21a9: 86 16        	stx	$16                     ; 0x2016 <main+0x1a84>
    21ab: a0 15        	ldy	#$15
    21ad: 91 10        	sta	($10),y                 ; 0x2010 <main+0x1a7e>
    21af: 85 17        	sta	$17                     ; 0x2017 <main+0x1a85>
    21b1: b0 1c        	bcs	$21cf <main+0x1c3d>
    21b3: 4c ed 20     	jmp	$20ed <main+0x1b5b>
    21b6: a2 ff        	ldx	#$ff
    21b8: 8a           	txa
    21b9: a0 15        	ldy	#$15
    21bb: 91 10        	sta	($10),y                 ; 0x2010 <main+0x1a7e>
    21bd: 80 10        	bra	$21cf <main+0x1c3d>
    21bf: a6 16        	ldx	$16                     ; 0x2016 <main+0x1a84>
    21c1: a4 17        	ldy	$17                     ; 0x2017 <main+0x1a85>
    21c3: 98           	tya
    21c4: a0 15        	ldy	#$15
    21c6: 91 10        	sta	($10),y                 ; 0x2010 <main+0x1a7e>
    21c8: a5 17        	lda	$17                     ; 0x2017 <main+0x1a85>
    21ca: d0 03        	bne	$21cf <main+0x1c3d>
    21cc: 4c a9 22     	jmp	$22a9 <main+0x1d17>
    21cf: 86 18        	stx	$18                     ; 0x2018 <main+0x1a86>
    21d1: 64 14        	stz	$14                     ; 0x2014 <main+0x1a82>
    21d3: 64 15        	stz	$15                     ; 0x2015 <main+0x1a83>
    21d5: a5 2a        	lda	$2a                     ; 0x202a <main+0x1a98>
    21d7: 18           	clc
    21d8: 65 14        	adc	$14                     ; 0x2014 <main+0x1a82>
    21da: 85 16        	sta	$16                     ; 0x2016 <main+0x1a84>
    21dc: a5 2d        	lda	$2d                     ; 0x202d <main+0x1a9b>
    21de: 65 15        	adc	$15                     ; 0x2015 <main+0x1a83>
    21e0: aa           	tax
    21e1: a5 2c        	lda	$2c                     ; 0x202c <main+0x1a9a>
    21e3: 69 00        	adc	#$0
    21e5: a8           	tay
    21e6: 18           	clc
    21e7: a5 16        	lda	$16                     ; 0x2016 <main+0x1a84>
    21e9: 69 00        	adc	#$0
    21eb: 85 19        	sta	$19                     ; 0x2019 <main+0x1a87>
    21ed: 8a           	txa
    21ee: 69 00        	adc	#$0
    21f0: 85 1b        	sta	$1b                     ; 0x201b <main+0x1a89>
    21f2: 98           	tya
    21f3: 69 04        	adc	#$4
    21f5: aa           	tax
    21f6: 18           	clc
    21f7: a5 10        	lda	$10                     ; 0x2010 <main+0x1a7e>
    21f9: 69 16        	adc	#$16
    21fb: 48           	pha
    21fc: a5 11        	lda	$11                     ; 0x2011 <main+0x1a7f>
    21fe: 69 00        	adc	#$0
    2200: 85 16        	sta	$16                     ; 0x2016 <main+0x1a84>
    2202: 68           	pla
    2203: 18           	clc
    2204: 65 14        	adc	$14                     ; 0x2014 <main+0x1a82>
    2206: a8           	tay
    2207: a5 16        	lda	$16                     ; 0x2016 <main+0x1a84>
    2209: 65 15        	adc	$15                     ; 0x2015 <main+0x1a83>
    220b: 84 16        	sty	$16                     ; 0x2016 <main+0x1a84>
    220d: 85 17        	sta	$17                     ; 0x2017 <main+0x1a85>
    220f: b2 16        	lda	($16)                   ; 0x2016 <main+0x1a84>
    2211: 85 1a        	sta	$1a                     ; 0x201a <main+0x1a88>
    2213: a5 1b        	lda	$1b                     ; 0x201b <main+0x1a89>
    2215: 85 16        	sta	$16                     ; 0x2016 <main+0x1a84>
    2217: 06 16        	asl	$16                     ; 0x2016 <main+0x1a84>
    2219: 86 17        	stx	$17                     ; 0x2017 <main+0x1a85>
    221b: 26 17        	rol	$17                     ; 0x2017 <main+0x1a85>
    221d: 06 16        	asl	$16                     ; 0x2016 <main+0x1a84>
    221f: 26 17        	rol	$17                     ; 0x2017 <main+0x1a85>
    2221: 06 16        	asl	$16                     ; 0x2016 <main+0x1a84>
    2223: 26 17        	rol	$17                     ; 0x2017 <main+0x1a85>
    2225: a4 17        	ldy	$17                     ; 0x2017 <main+0x1a85>
    2227: a6 0f        	ldx	$f                      ; 0x200f <main+0x1a7d>
    2229: 78           	sei
    222a: 84 0f        	sty	$f                      ; 0x200f <main+0x1a7d>
    222c: a4 19        	ldy	$19                     ; 0x2019 <main+0x1a87>
    222e: 84 16        	sty	$16                     ; 0x2016 <main+0x1a84>
    2230: 09 e0        	ora	#$e0
    2232: 85 17        	sta	$17                     ; 0x2017 <main+0x1a85>
    2234: a5 1a        	lda	$1a                     ; 0x201a <main+0x1a88>
    2236: 92 16        	sta	($16)                   ; 0x2016 <main+0x1a84>
    2238: 86 0f        	stx	$f                      ; 0x200f <main+0x1a7d>
    223a: 58           	cli
    223b: e6 14        	inc	$14                     ; 0x2014 <main+0x1a82>
    223d: d0 02        	bne	$2241 <main+0x1caf>
    223f: e6 15        	inc	$15                     ; 0x2015 <main+0x1a83>
    2241: a0 15        	ldy	#$15
    2243: b1 10        	lda	($10),y                 ; 0x2010 <main+0x1a7e>
    2245: c5 15        	cmp	$15                     ; 0x2015 <main+0x1a83>
    2247: f0 03        	beq	$224c <main+0x1cba>
    2249: 4c d5 21     	jmp	$21d5 <main+0x1c43>
    224c: a6 18        	ldx	$18                     ; 0x2018 <main+0x1a86>
    224e: e4 14        	cpx	$14                     ; 0x2014 <main+0x1a82>
    2250: f0 03        	beq	$2255 <main+0x1cc3>
    2252: 4c d5 21     	jmp	$21d5 <main+0x1c43>
    2255: a0 12        	ldy	#$12
    2257: b1 10        	lda	($10),y                 ; 0x2010 <main+0x1a7e>
    2259: aa           	tax
    225a: e8           	inx
    225b: d0 0a        	bne	$2267 <main+0x1cd5>
    225d: e6 2b        	inc	$2b                     ; 0x202b <main+0x1a99>
    225f: d0 06        	bne	$2267 <main+0x1cd5>
    2261: e6 2f        	inc	$2f                     ; 0x202f <main+0x1a9d>
    2263: d0 02        	bne	$2267 <main+0x1cd5>
    2265: e6 2e        	inc	$2e                     ; 0x202e <main+0x1a9c>
    2267: 8a           	txa
    2268: 91 10        	sta	($10),y                 ; 0x2010 <main+0x1a7e>
    226a: a6 18        	ldx	$18                     ; 0x2018 <main+0x1a86>
    226c: 86 14        	stx	$14                     ; 0x2014 <main+0x1a82>
    226e: a5 2a        	lda	$2a                     ; 0x202a <main+0x1a98>
    2270: 18           	clc
    2271: 65 14        	adc	$14                     ; 0x2014 <main+0x1a82>
    2273: 85 2a        	sta	$2a                     ; 0x202a <main+0x1a98>
    2275: a0 15        	ldy	#$15
    2277: b1 10        	lda	($10),y                 ; 0x2010 <main+0x1a7e>
    2279: a8           	tay
    227a: 85 14        	sta	$14                     ; 0x2014 <main+0x1a82>
    227c: a5 2d        	lda	$2d                     ; 0x202d <main+0x1a9b>
    227e: 65 14        	adc	$14                     ; 0x2014 <main+0x1a82>
    2280: 85 2d        	sta	$2d                     ; 0x202d <main+0x1a9b>
    2282: a5 2c        	lda	$2c                     ; 0x202c <main+0x1a9a>
    2284: 69 00        	adc	#$0
    2286: 85 2c        	sta	$2c                     ; 0x202c <main+0x1a9a>
    2288: 5a           	phy
    2289: a0 13        	ldy	#$13
    228b: b1 10        	lda	($10),y                 ; 0x2010 <main+0x1a7e>
    228d: 69 00        	adc	#$0
    228f: 91 10        	sta	($10),y                 ; 0x2010 <main+0x1a7e>
    2291: 7a           	ply
    2292: d0 07        	bne	$229b <main+0x1d09>
    2294: e0 ff        	cpx	#$ff
    2296: 90 18        	bcc	$22b0 <main+0x1d1e>
    2298: 4c e1 20     	jmp	$20e1 <main+0x1b4f>
    229b: c0 00        	cpy	#$0
    229d: 90 11        	bcc	$22b0 <main+0x1d1e>
    229f: 4c e1 20     	jmp	$20e1 <main+0x1b4f>
    22a2: a9 00        	lda	#$0
    22a4: a0 01        	ldy	#$1
    22a6: 4c 9a 21     	jmp	$219a <main+0x1c08>
    22a9: a5 16        	lda	$16                     ; 0x2016 <main+0x1a84>
    22ab: f0 03        	beq	$22b0 <main+0x1d1e>
    22ad: 4c cf 21     	jmp	$21cf <main+0x1c3d>
    22b0: a6 80        	ldx	$80                     ; 0x2080 <main+0x1aee>
    22b2: a4 81        	ldy	$81                     ; 0x2081 <main+0x1aef>
    22b4: 86 12        	stx	$12                     ; 0x2012 <main+0x1a80>
    22b6: 84 13        	sty	$13                     ; 0x2013 <main+0x1a81>
    22b8: b2 12        	lda	($12)                   ; 0x2012 <main+0x1a80>
    22ba: 85 f3        	sta	$f3                     ; 0x20f3 <main+0x1b61>
    22bc: a2 68        	ldx	#$68
    22be: 86 28        	stx	$28                     ; 0x2028 <main+0x1a96>
    22c0: a2 00        	ldx	#$0
    22c2: 86 29        	stx	$29                     ; 0x2029 <main+0x1a97>
    22c4: 20 68 ff     	jsr	$ff68 <end_block9+0x96d2>
    22c7: 92 26        	sta	($26)                   ; 0x2026 <main+0x1a94>
    22c9: a9 00        	lda	#$0
    22cb: 6a           	ror
    22cc: 85 28        	sta	$28                     ; 0x2028 <main+0x1a96>
    22ce: 20 63 48     	jsr	$4863 <free>
    22d1: 64 61        	stz	$61                     ; 0x2061 <main+0x1acf>
    22d3: 20 00 ff     	jsr	$ff00 <end_block9+0x966a>
    22d6: 92 26        	sta	($26)                   ; 0x2026 <main+0x1a94>
    22d8: a9 00        	lda	#$0
    22da: 6a           	ror
    22db: 85 28        	sta	$28                     ; 0x2028 <main+0x1a96>
    22dd: a6 61        	ldx	$61                     ; 0x2061 <main+0x1acf>
    22df: e0 38        	cpx	#$38
    22e1: f0 04        	beq	$22e7 <main+0x1d55>
    22e3: e0 32        	cpx	#$32
    22e5: d0 ea        	bne	$22d1 <main+0x1d3f>
    22e7: a0 12        	ldy	#$12
    22e9: b1 10        	lda	($10),y                 ; 0x2010 <main+0x1a7e>
    22eb: 92 10        	sta	($10)                   ; 0x2010 <main+0x1a7e>
    22ed: a0 01        	ldy	#$1
    22ef: a5 2b        	lda	$2b                     ; 0x202b <main+0x1a99>
    22f1: 91 10        	sta	($10),y                 ; 0x2010 <main+0x1a7e>
    22f3: c8           	iny
    22f4: a5 2f        	lda	$2f                     ; 0x202f <main+0x1a9d>
    22f6: 91 10        	sta	($10),y                 ; 0x2010 <main+0x1a7e>
    22f8: c8           	iny
    22f9: a5 2e        	lda	$2e                     ; 0x202e <main+0x1a9c>
    22fb: 91 10        	sta	($10),y                 ; 0x2010 <main+0x1a7e>
    22fd: c8           	iny
    22fe: a5 2a        	lda	$2a                     ; 0x202a <main+0x1a98>
    2300: 91 10        	sta	($10),y                 ; 0x2010 <main+0x1a7e>
    2302: c8           	iny
    2303: a5 2d        	lda	$2d                     ; 0x202d <main+0x1a9b>
    2305: 91 10        	sta	($10),y                 ; 0x2010 <main+0x1a7e>
    2307: c8           	iny
    2308: a5 2c        	lda	$2c                     ; 0x202c <main+0x1a9a>
    230a: 91 10        	sta	($10),y                 ; 0x2010 <main+0x1a7e>
    230c: c8           	iny
    230d: 5a           	phy
    230e: a0 13        	ldy	#$13
    2310: b1 10        	lda	($10),y                 ; 0x2010 <main+0x1a7e>
    2312: 7a           	ply
    2313: 91 10        	sta	($10),y                 ; 0x2010 <main+0x1a7e>
    2315: a2 a2        	ldx	#$a2
    2317: 86 12        	stx	$12                     ; 0x2012 <main+0x1a80>
    2319: a2 67        	ldx	#$67
    231b: 4c e9 0a     	jmp	$ae9 <main+0x557>

0000231e <parse>:
    231e: 48           	pha
    231f: 18           	clc
    2320: a5 10        	lda	$10                     ; 0x2010 <main+0x1a7e>
    2322: 69 e1        	adc	#$e1
    2324: 85 10        	sta	$10                     ; 0x2010 <main+0x1a7e>
    2326: a5 11        	lda	$11                     ; 0x2011 <main+0x1a7f>
    2328: 69 ff        	adc	#$ff
    232a: 85 11        	sta	$11                     ; 0x2011 <main+0x1a7f>
    232c: 68           	pla
    232d: a4 24        	ldy	$24                     ; 0x2024 <main+0x1a92>
    232f: 5a           	phy
    2330: a4 25        	ldy	$25                     ; 0x2025 <main+0x1a93>
    2332: 5a           	phy
    2333: a4 26        	ldy	$26                     ; 0x2026 <main+0x1a94>
    2335: 5a           	phy
    2336: a4 27        	ldy	$27                     ; 0x2027 <main+0x1a95>
    2338: 5a           	phy
    2339: 48           	pha
    233a: a5 28        	lda	$28                     ; 0x2028 <main+0x1a96>
    233c: a0 0f        	ldy	#$f
    233e: 91 10        	sta	($10),y                 ; 0x2010 <main+0x1a7e>
    2340: a5 29        	lda	$29                     ; 0x2029 <main+0x1a97>
    2342: 88           	dey
    2343: 91 10        	sta	($10),y                 ; 0x2010 <main+0x1a7e>
    2345: a5 2a        	lda	$2a                     ; 0x202a <main+0x1a98>
    2347: 88           	dey
    2348: 91 10        	sta	($10),y                 ; 0x2010 <main+0x1a7e>
    234a: a5 2b        	lda	$2b                     ; 0x202b <main+0x1a99>
    234c: 88           	dey
    234d: 91 10        	sta	($10),y                 ; 0x2010 <main+0x1a7e>
    234f: a5 2c        	lda	$2c                     ; 0x202c <main+0x1a9a>
    2351: 88           	dey
    2352: 91 10        	sta	($10),y                 ; 0x2010 <main+0x1a7e>
    2354: a5 2d        	lda	$2d                     ; 0x202d <main+0x1a9b>
    2356: 88           	dey
    2357: 91 10        	sta	($10),y                 ; 0x2010 <main+0x1a7e>
    2359: a5 2e        	lda	$2e                     ; 0x202e <main+0x1a9c>
    235b: 88           	dey
    235c: 91 10        	sta	($10),y                 ; 0x2010 <main+0x1a7e>
    235e: a5 2f        	lda	$2f                     ; 0x202f <main+0x1a9d>
    2360: 88           	dey
    2361: 91 10        	sta	($10),y                 ; 0x2010 <main+0x1a7e>
    2363: 68           	pla
    2364: 85 25        	sta	$25                     ; 0x2025 <main+0x1a93>
    2366: 86 27        	stx	$27                     ; 0x2027 <main+0x1a95>
    2368: a4 12        	ldy	$12                     ; 0x2012 <main+0x1a80>
    236a: 84 24        	sty	$24                     ; 0x2024 <main+0x1a92>
    236c: 18           	clc
    236d: 69 04        	adc	#$4
    236f: a8           	tay
    2370: 8a           	txa
    2371: 69 00        	adc	#$0
    2373: 85 14        	sta	$14                     ; 0x2014 <main+0x1a82>
    2375: a9 00        	lda	#$0
    2377: 69 04        	adc	#$4
    2379: 85 15        	sta	$15                     ; 0x2015 <main+0x1a83>
    237b: 18           	clc
    237c: a5 25        	lda	$25                     ; 0x2025 <main+0x1a93>
    237e: 69 07        	adc	#$7
    2380: 85 13        	sta	$13                     ; 0x2013 <main+0x1a81>
    2382: 8a           	txa
    2383: 69 00        	adc	#$0
    2385: 85 16        	sta	$16                     ; 0x2016 <main+0x1a84>
    2387: a9 00        	lda	#$0
    2389: 69 04        	adc	#$4
    238b: a6 16        	ldx	$16                     ; 0x2016 <main+0x1a84>
    238d: 86 12        	stx	$12                     ; 0x2012 <main+0x1a80>
    238f: 06 12        	asl	$12                     ; 0x2012 <main+0x1a80>
    2391: 2a           	rol
    2392: 06 12        	asl	$12                     ; 0x2012 <main+0x1a80>
    2394: 2a           	rol
    2395: 06 12        	asl	$12                     ; 0x2012 <main+0x1a80>
    2397: 2a           	rol
    2398: a6 0f        	ldx	$f                      ; 0x200f <main+0x1a7d>
    239a: 78           	sei
    239b: 85 0f        	sta	$f                      ; 0x200f <main+0x1a7d>
    239d: a5 13        	lda	$13                     ; 0x2013 <main+0x1a81>
    239f: 85 12        	sta	$12                     ; 0x2012 <main+0x1a80>
    23a1: a5 16        	lda	$16                     ; 0x2016 <main+0x1a84>
    23a3: 09 e0        	ora	#$e0
    23a5: 85 13        	sta	$13                     ; 0x2013 <main+0x1a81>
    23a7: b2 12        	lda	($12)                   ; 0x2012 <main+0x1a80>
    23a9: 85 16        	sta	$16                     ; 0x2016 <main+0x1a84>
    23ab: 86 0f        	stx	$f                      ; 0x200f <main+0x1a7d>
    23ad: 18           	clc
    23ae: a5 25        	lda	$25                     ; 0x2025 <main+0x1a93>
    23b0: 69 06        	adc	#$6
    23b2: 85 13        	sta	$13                     ; 0x2013 <main+0x1a81>
    23b4: a5 27        	lda	$27                     ; 0x2027 <main+0x1a95>
    23b6: 69 00        	adc	#$0
    23b8: 85 17        	sta	$17                     ; 0x2017 <main+0x1a85>
    23ba: a9 00        	lda	#$0
    23bc: 69 04        	adc	#$4
    23be: a6 17        	ldx	$17                     ; 0x2017 <main+0x1a85>
    23c0: 86 12        	stx	$12                     ; 0x2012 <main+0x1a80>
    23c2: 06 12        	asl	$12                     ; 0x2012 <main+0x1a80>
    23c4: 2a           	rol
    23c5: 06 12        	asl	$12                     ; 0x2012 <main+0x1a80>
    23c7: 2a           	rol
    23c8: 06 12        	asl	$12                     ; 0x2012 <main+0x1a80>
    23ca: 2a           	rol
    23cb: 58           	cli
    23cc: a6 0f        	ldx	$f                      ; 0x200f <main+0x1a7d>
    23ce: 78           	sei
    23cf: 85 0f        	sta	$f                      ; 0x200f <main+0x1a7d>
    23d1: a5 13        	lda	$13                     ; 0x2013 <main+0x1a81>
    23d3: 85 12        	sta	$12                     ; 0x2012 <main+0x1a80>
    23d5: a5 17        	lda	$17                     ; 0x2017 <main+0x1a85>
    23d7: 09 e0        	ora	#$e0
    23d9: 85 13        	sta	$13                     ; 0x2013 <main+0x1a81>
    23db: b2 12        	lda	($12)                   ; 0x2012 <main+0x1a80>
    23dd: 85 17        	sta	$17                     ; 0x2017 <main+0x1a85>
    23df: 86 0f        	stx	$f                      ; 0x200f <main+0x1a7d>
    23e1: 18           	clc
    23e2: a5 25        	lda	$25                     ; 0x2025 <main+0x1a93>
    23e4: 69 05        	adc	#$5
    23e6: 85 13        	sta	$13                     ; 0x2013 <main+0x1a81>
    23e8: a5 27        	lda	$27                     ; 0x2027 <main+0x1a95>
    23ea: 69 00        	adc	#$0
    23ec: 85 18        	sta	$18                     ; 0x2018 <main+0x1a86>
    23ee: a9 00        	lda	#$0
    23f0: 69 04        	adc	#$4
    23f2: a6 18        	ldx	$18                     ; 0x2018 <main+0x1a86>
    23f4: 86 12        	stx	$12                     ; 0x2012 <main+0x1a80>
    23f6: 06 12        	asl	$12                     ; 0x2012 <main+0x1a80>
    23f8: 2a           	rol
    23f9: 06 12        	asl	$12                     ; 0x2012 <main+0x1a80>
    23fb: 2a           	rol
    23fc: 06 12        	asl	$12                     ; 0x2012 <main+0x1a80>
    23fe: 2a           	rol
    23ff: 58           	cli
    2400: a6 0f        	ldx	$f                      ; 0x200f <main+0x1a7d>
    2402: 78           	sei
    2403: 85 0f        	sta	$f                      ; 0x200f <main+0x1a7d>
    2405: a5 13        	lda	$13                     ; 0x2013 <main+0x1a81>
    2407: 85 12        	sta	$12                     ; 0x2012 <main+0x1a80>
    2409: a5 18        	lda	$18                     ; 0x2018 <main+0x1a86>
    240b: 09 e0        	ora	#$e0
    240d: 85 13        	sta	$13                     ; 0x2013 <main+0x1a81>
    240f: b2 12        	lda	($12)                   ; 0x2012 <main+0x1a80>
    2411: 85 18        	sta	$18                     ; 0x2018 <main+0x1a86>
    2413: 86 0f        	stx	$f                      ; 0x200f <main+0x1a7d>
    2415: a5 14        	lda	$14                     ; 0x2014 <main+0x1a82>
    2417: 0a           	asl
    2418: 26 15        	rol	$15                     ; 0x2015 <main+0x1a83>
    241a: 0a           	asl
    241b: 26 15        	rol	$15                     ; 0x2015 <main+0x1a83>
    241d: 0a           	asl
    241e: a5 15        	lda	$15                     ; 0x2015 <main+0x1a83>
    2420: 2a           	rol
    2421: 58           	cli
    2422: a6 0f        	ldx	$f                      ; 0x200f <main+0x1a7d>
    2424: 78           	sei
    2425: 85 0f        	sta	$f                      ; 0x200f <main+0x1a7d>
    2427: 84 12        	sty	$12                     ; 0x2012 <main+0x1a80>
    2429: a5 14        	lda	$14                     ; 0x2014 <main+0x1a82>
    242b: 09 e0        	ora	#$e0
    242d: 85 13        	sta	$13                     ; 0x2013 <main+0x1a81>
    242f: b2 12        	lda	($12)                   ; 0x2012 <main+0x1a80>
    2431: 85 12        	sta	$12                     ; 0x2012 <main+0x1a80>
    2433: 86 0f        	stx	$f                      ; 0x200f <main+0x1a7d>
    2435: 58           	cli
    2436: a5 16        	lda	$16                     ; 0x2016 <main+0x1a84>
    2438: 92 10        	sta	($10)                   ; 0x2010 <main+0x1a7e>
    243a: a0 01        	ldy	#$1
    243c: a5 17        	lda	$17                     ; 0x2017 <main+0x1a85>
    243e: 91 10        	sta	($10),y                 ; 0x2010 <main+0x1a7e>
    2440: c8           	iny
    2441: a5 18        	lda	$18                     ; 0x2018 <main+0x1a86>
    2443: 91 10        	sta	($10),y                 ; 0x2010 <main+0x1a7e>
    2445: c8           	iny
    2446: a5 12        	lda	$12                     ; 0x2012 <main+0x1a80>
    2448: 91 10        	sta	($10),y                 ; 0x2010 <main+0x1a7e>
    244a: a2 b0        	ldx	#$b0
    244c: 86 12        	stx	$12                     ; 0x2012 <main+0x1a80>
    244e: a2 65        	ldx	#$65
    2450: 86 13        	stx	$13                     ; 0x2013 <main+0x1a81>
    2452: 20 a6 3a     	jsr	$3aa6 <printf>
    2455: 18           	clc
    2456: a5 25        	lda	$25                     ; 0x2025 <main+0x1a93>
    2458: 69 08        	adc	#$8
    245a: a8           	tay
    245b: a5 27        	lda	$27                     ; 0x2027 <main+0x1a95>
    245d: 69 00        	adc	#$0
    245f: 85 14        	sta	$14                     ; 0x2014 <main+0x1a82>
    2461: a9 00        	lda	#$0
    2463: 69 04        	adc	#$4
    2465: 85 15        	sta	$15                     ; 0x2015 <main+0x1a83>
    2467: 18           	clc
    2468: a5 25        	lda	$25                     ; 0x2025 <main+0x1a93>
    246a: 69 09        	adc	#$9
    246c: 85 13        	sta	$13                     ; 0x2013 <main+0x1a81>
    246e: a5 27        	lda	$27                     ; 0x2027 <main+0x1a95>
    2470: 69 00        	adc	#$0
    2472: 85 16        	sta	$16                     ; 0x2016 <main+0x1a84>
    2474: a9 00        	lda	#$0
    2476: 69 04        	adc	#$4
    2478: a6 16        	ldx	$16                     ; 0x2016 <main+0x1a84>
    247a: 86 12        	stx	$12                     ; 0x2012 <main+0x1a80>
    247c: 06 12        	asl	$12                     ; 0x2012 <main+0x1a80>
    247e: 2a           	rol
    247f: 06 12        	asl	$12                     ; 0x2012 <main+0x1a80>
    2481: 2a           	rol
    2482: 06 12        	asl	$12                     ; 0x2012 <main+0x1a80>
    2484: 2a           	rol
    2485: a6 0f        	ldx	$f                      ; 0x200f <main+0x1a7d>
    2487: 78           	sei
    2488: 85 0f        	sta	$f                      ; 0x200f <main+0x1a7d>
    248a: a5 13        	lda	$13                     ; 0x2013 <main+0x1a81>
    248c: 85 12        	sta	$12                     ; 0x2012 <main+0x1a80>
    248e: a5 16        	lda	$16                     ; 0x2016 <main+0x1a84>
    2490: 09 e0        	ora	#$e0
    2492: 85 13        	sta	$13                     ; 0x2013 <main+0x1a81>
    2494: b2 12        	lda	($12)                   ; 0x2012 <main+0x1a80>
    2496: 85 16        	sta	$16                     ; 0x2016 <main+0x1a84>
    2498: 86 0f        	stx	$f                      ; 0x200f <main+0x1a7d>
    249a: 58           	cli
    249b: a5 14        	lda	$14                     ; 0x2014 <main+0x1a82>
    249d: 0a           	asl
    249e: 26 15        	rol	$15                     ; 0x2015 <main+0x1a83>
    24a0: 0a           	asl
    24a1: 26 15        	rol	$15                     ; 0x2015 <main+0x1a83>
    24a3: 0a           	asl
    24a4: a5 15        	lda	$15                     ; 0x2015 <main+0x1a83>
    24a6: 2a           	rol
    24a7: a6 0f        	ldx	$f                      ; 0x200f <main+0x1a7d>
    24a9: 78           	sei
    24aa: 85 0f        	sta	$f                      ; 0x200f <main+0x1a7d>
    24ac: 84 12        	sty	$12                     ; 0x2012 <main+0x1a80>
    24ae: a5 14        	lda	$14                     ; 0x2014 <main+0x1a82>
    24b0: 09 e0        	ora	#$e0
    24b2: 85 13        	sta	$13                     ; 0x2013 <main+0x1a81>
    24b4: b2 12        	lda	($12)                   ; 0x2012 <main+0x1a80>
    24b6: 85 12        	sta	$12                     ; 0x2012 <main+0x1a80>
    24b8: 86 0f        	stx	$f                      ; 0x200f <main+0x1a7d>
    24ba: 58           	cli
    24bb: a5 16        	lda	$16                     ; 0x2016 <main+0x1a84>
    24bd: 85 71        	sta	$71                     ; 0x2071 <main+0x1adf>
    24bf: a6 12        	ldx	$12                     ; 0x2012 <main+0x1a80>
    24c1: 86 72        	stx	$72                     ; 0x2072 <main+0x1ae0>
    24c3: 92 10        	sta	($10)                   ; 0x2010 <main+0x1a7e>
    24c5: a0 01        	ldy	#$1
    24c7: a5 12        	lda	$12                     ; 0x2012 <main+0x1a80>
    24c9: 91 10        	sta	($10),y                 ; 0x2010 <main+0x1a7e>
    24cb: a2 c7        	ldx	#$c7
    24cd: 86 12        	stx	$12                     ; 0x2012 <main+0x1a80>
    24cf: a2 66        	ldx	#$66
    24d1: 86 13        	stx	$13                     ; 0x2013 <main+0x1a81>
    24d3: 20 a6 3a     	jsr	$3aa6 <printf>
    24d6: 18           	clc
    24d7: a5 25        	lda	$25                     ; 0x2025 <main+0x1a93>
    24d9: 69 0a        	adc	#$a
    24db: a8           	tay
    24dc: a5 27        	lda	$27                     ; 0x2027 <main+0x1a95>
    24de: 69 00        	adc	#$0
    24e0: 85 14        	sta	$14                     ; 0x2014 <main+0x1a82>
    24e2: a9 00        	lda	#$0
    24e4: 69 04        	adc	#$4
    24e6: 85 15        	sta	$15                     ; 0x2015 <main+0x1a83>
    24e8: 18           	clc
    24e9: a5 25        	lda	$25                     ; 0x2025 <main+0x1a93>
    24eb: 69 0b        	adc	#$b
    24ed: 85 13        	sta	$13                     ; 0x2013 <main+0x1a81>
    24ef: a5 27        	lda	$27                     ; 0x2027 <main+0x1a95>
    24f1: 69 00        	adc	#$0
    24f3: 85 16        	sta	$16                     ; 0x2016 <main+0x1a84>
    24f5: a9 00        	lda	#$0
    24f7: 69 04        	adc	#$4
    24f9: a6 16        	ldx	$16                     ; 0x2016 <main+0x1a84>
    24fb: 86 12        	stx	$12                     ; 0x2012 <main+0x1a80>
    24fd: 06 12        	asl	$12                     ; 0x2012 <main+0x1a80>
    24ff: 2a           	rol
    2500: 06 12        	asl	$12                     ; 0x2012 <main+0x1a80>
    2502: 2a           	rol
    2503: 06 12        	asl	$12                     ; 0x2012 <main+0x1a80>
    2505: 2a           	rol
    2506: a6 0f        	ldx	$f                      ; 0x200f <main+0x1a7d>
    2508: 78           	sei
    2509: 85 0f        	sta	$f                      ; 0x200f <main+0x1a7d>
    250b: a5 13        	lda	$13                     ; 0x2013 <main+0x1a81>
    250d: 85 12        	sta	$12                     ; 0x2012 <main+0x1a80>
    250f: a5 16        	lda	$16                     ; 0x2016 <main+0x1a84>
    2511: 09 e0        	ora	#$e0
    2513: 85 13        	sta	$13                     ; 0x2013 <main+0x1a81>
    2515: b2 12        	lda	($12)                   ; 0x2012 <main+0x1a80>
    2517: 85 16        	sta	$16                     ; 0x2016 <main+0x1a84>
    2519: 86 0f        	stx	$f                      ; 0x200f <main+0x1a7d>
    251b: 58           	cli
    251c: a5 14        	lda	$14                     ; 0x2014 <main+0x1a82>
    251e: 0a           	asl
    251f: 26 15        	rol	$15                     ; 0x2015 <main+0x1a83>
    2521: 0a           	asl
    2522: 26 15        	rol	$15                     ; 0x2015 <main+0x1a83>
    2524: 0a           	asl
    2525: a5 15        	lda	$15                     ; 0x2015 <main+0x1a83>
    2527: 2a           	rol
    2528: a6 0f        	ldx	$f                      ; 0x200f <main+0x1a7d>
    252a: 78           	sei
    252b: 85 0f        	sta	$f                      ; 0x200f <main+0x1a7d>
    252d: 84 12        	sty	$12                     ; 0x2012 <main+0x1a80>
    252f: a5 14        	lda	$14                     ; 0x2014 <main+0x1a82>
    2531: 09 e0        	ora	#$e0
    2533: 85 13        	sta	$13                     ; 0x2013 <main+0x1a81>
    2535: b2 12        	lda	($12)                   ; 0x2012 <main+0x1a80>
    2537: 85 12        	sta	$12                     ; 0x2012 <main+0x1a80>
    2539: 86 0f        	stx	$f                      ; 0x200f <main+0x1a7d>
    253b: 58           	cli
    253c: a5 16        	lda	$16                     ; 0x2016 <main+0x1a84>
    253e: 85 73        	sta	$73                     ; 0x2073 <main+0x1ae1>
    2540: a6 12        	ldx	$12                     ; 0x2012 <main+0x1a80>
    2542: 86 74        	stx	$74                     ; 0x2074 <main+0x1ae2>
    2544: 92 10        	sta	($10)                   ; 0x2010 <main+0x1a7e>
    2546: a0 01        	ldy	#$1
    2548: a5 12        	lda	$12                     ; 0x2012 <main+0x1a80>
    254a: 91 10        	sta	($10),y                 ; 0x2010 <main+0x1a7e>
    254c: a2 49        	ldx	#$49
    254e: 86 12        	stx	$12                     ; 0x2012 <main+0x1a80>
    2550: a2 66        	ldx	#$66
    2552: 86 13        	stx	$13                     ; 0x2013 <main+0x1a81>
    2554: 20 a6 3a     	jsr	$3aa6 <printf>
    2557: 18           	clc
    2558: a5 25        	lda	$25                     ; 0x2025 <main+0x1a93>
    255a: 69 0c        	adc	#$c
    255c: a8           	tay
    255d: a5 27        	lda	$27                     ; 0x2027 <main+0x1a95>
    255f: 69 00        	adc	#$0
    2561: 85 14        	sta	$14                     ; 0x2014 <main+0x1a82>
    2563: a9 00        	lda	#$0
    2565: 69 04        	adc	#$4
    2567: 85 15        	sta	$15                     ; 0x2015 <main+0x1a83>
    2569: 18           	clc
    256a: a6 25        	ldx	$25                     ; 0x2025 <main+0x1a93>
    256c: 86 26        	stx	$26                     ; 0x2026 <main+0x1a94>
    256e: a5 25        	lda	$25                     ; 0x2025 <main+0x1a93>
    2570: 69 0d        	adc	#$d
    2572: 85 13        	sta	$13                     ; 0x2013 <main+0x1a81>
    2574: a5 27        	lda	$27                     ; 0x2027 <main+0x1a95>
    2576: 69 00        	adc	#$0
    2578: 85 16        	sta	$16                     ; 0x2016 <main+0x1a84>
    257a: a9 00        	lda	#$0
    257c: 69 04        	adc	#$4
    257e: a6 16        	ldx	$16                     ; 0x2016 <main+0x1a84>
    2580: 86 12        	stx	$12                     ; 0x2012 <main+0x1a80>
    2582: 06 12        	asl	$12                     ; 0x2012 <main+0x1a80>
    2584: 2a           	rol
    2585: 06 12        	asl	$12                     ; 0x2012 <main+0x1a80>
    2587: 2a           	rol
    2588: 06 12        	asl	$12                     ; 0x2012 <main+0x1a80>
    258a: 2a           	rol
    258b: a6 0f        	ldx	$f                      ; 0x200f <main+0x1a7d>
    258d: 78           	sei
    258e: 85 0f        	sta	$f                      ; 0x200f <main+0x1a7d>
    2590: a5 13        	lda	$13                     ; 0x2013 <main+0x1a81>
    2592: 85 12        	sta	$12                     ; 0x2012 <main+0x1a80>
    2594: a5 16        	lda	$16                     ; 0x2016 <main+0x1a84>
    2596: 09 e0        	ora	#$e0
    2598: 85 13        	sta	$13                     ; 0x2013 <main+0x1a81>
    259a: b2 12        	lda	($12)                   ; 0x2012 <main+0x1a80>
    259c: 85 16        	sta	$16                     ; 0x2016 <main+0x1a84>
    259e: 86 0f        	stx	$f                      ; 0x200f <main+0x1a7d>
    25a0: 58           	cli
    25a1: a5 14        	lda	$14                     ; 0x2014 <main+0x1a82>
    25a3: 0a           	asl
    25a4: 26 15        	rol	$15                     ; 0x2015 <main+0x1a83>
    25a6: 0a           	asl
    25a7: 26 15        	rol	$15                     ; 0x2015 <main+0x1a83>
    25a9: 0a           	asl
    25aa: a5 15        	lda	$15                     ; 0x2015 <main+0x1a83>
    25ac: 2a           	rol
    25ad: a6 0f        	ldx	$f                      ; 0x200f <main+0x1a7d>
    25af: 78           	sei
    25b0: 85 0f        	sta	$f                      ; 0x200f <main+0x1a7d>
    25b2: 84 12        	sty	$12                     ; 0x2012 <main+0x1a80>
    25b4: a5 14        	lda	$14                     ; 0x2014 <main+0x1a82>
    25b6: 09 e0        	ora	#$e0
    25b8: 85 13        	sta	$13                     ; 0x2013 <main+0x1a81>
    25ba: b2 12        	lda	($12)                   ; 0x2012 <main+0x1a80>
    25bc: a8           	tay
    25bd: 86 0f        	stx	$f                      ; 0x200f <main+0x1a7d>
    25bf: 58           	cli
    25c0: a5 16        	lda	$16                     ; 0x2016 <main+0x1a84>
    25c2: 5a           	phy
    25c3: a0 18        	ldy	#$18
    25c5: 91 10        	sta	($10),y                 ; 0x2010 <main+0x1a7e>
    25c7: 7a           	ply
    25c8: 92 10        	sta	($10)                   ; 0x2010 <main+0x1a7e>
    25ca: 98           	tya
    25cb: a0 17        	ldy	#$17
    25cd: 91 10        	sta	($10),y                 ; 0x2010 <main+0x1a7e>
    25cf: a0 01        	ldy	#$1
    25d1: 91 10        	sta	($10),y                 ; 0x2010 <main+0x1a7e>
    25d3: a2 d2        	ldx	#$d2
    25d5: 86 12        	stx	$12                     ; 0x2012 <main+0x1a80>
    25d7: a2 66        	ldx	#$66
    25d9: 86 13        	stx	$13                     ; 0x2013 <main+0x1a81>
    25db: 20 a6 3a     	jsr	$3aa6 <printf>
    25de: a9 00        	lda	#$0
    25e0: 92 10        	sta	($10)                   ; 0x2010 <main+0x1a7e>
    25e2: a0 01        	ldy	#$1
    25e4: 91 10        	sta	($10),y                 ; 0x2010 <main+0x1a7e>
    25e6: c8           	iny
    25e7: 91 10        	sta	($10),y                 ; 0x2010 <main+0x1a7e>
    25e9: c8           	iny
    25ea: 91 10        	sta	($10),y                 ; 0x2010 <main+0x1a7e>
    25ec: a2 58        	ldx	#$58
    25ee: 86 12        	stx	$12                     ; 0x2012 <main+0x1a80>
    25f0: a2 66        	ldx	#$66
    25f2: 86 13        	stx	$13                     ; 0x2013 <main+0x1a81>
    25f4: 20 a6 3a     	jsr	$3aa6 <printf>
    25f7: a6 73        	ldx	$73                     ; 0x2073 <main+0x1ae1>
    25f9: a4 74        	ldy	$74                     ; 0x2074 <main+0x1ae2>
    25fb: d0 06        	bne	$2603 <parse+0x2e5>
    25fd: 8a           	txa
    25fe: d0 03        	bne	$2603 <parse+0x2e5>
    2600: 4c 4d 2b     	jmp	$2b4d <parse+0x82f>
    2603: a5 24        	lda	$24                     ; 0x2024 <main+0x1a92>
    2605: a0 1a        	ldy	#$1a
    2607: 91 10        	sta	($10),y                 ; 0x2010 <main+0x1a7e>
    2609: a0 00        	ldy	#$0
    260b: 18           	clc
    260c: a5 26        	lda	$26                     ; 0x2026 <main+0x1a94>
    260e: 69 0e        	adc	#$e
    2610: aa           	tax
    2611: a5 27        	lda	$27                     ; 0x2027 <main+0x1a95>
    2613: 69 00        	adc	#$0
    2615: 85 1c        	sta	$1c                     ; 0x201c <main+0x1a8a>
    2617: 98           	tya
    2618: 69 00        	adc	#$0
    261a: 85 1d        	sta	$1d                     ; 0x201d <main+0x1a8b>
    261c: 98           	tya
    261d: 69 00        	adc	#$0
    261f: 85 23        	sta	$23                     ; 0x2023 <main+0x1a91>
    2621: 98           	tya
    2622: 5a           	phy
    2623: a0 1e        	ldy	#$1e
    2625: 91 10        	sta	($10),y                 ; 0x2010 <main+0x1a7e>
    2627: 7a           	ply
    2628: 84 12        	sty	$12                     ; 0x2012 <main+0x1a80>
    262a: 8a           	txa
    262b: 18           	clc
    262c: 85 14        	sta	$14                     ; 0x2014 <main+0x1a82>
    262e: 69 04        	adc	#$4
    2630: 85 16        	sta	$16                     ; 0x2016 <main+0x1a84>
    2632: a5 1c        	lda	$1c                     ; 0x201c <main+0x1a8a>
    2634: 69 00        	adc	#$0
    2636: 85 15        	sta	$15                     ; 0x2015 <main+0x1a83>
    2638: a5 1d        	lda	$1d                     ; 0x201d <main+0x1a8b>
    263a: 69 04        	adc	#$4
    263c: a6 0f        	ldx	$f                      ; 0x200f <main+0x1a7d>
    263e: 78           	sei
    263f: a4 15        	ldy	$15                     ; 0x2015 <main+0x1a83>
    2641: 84 13        	sty	$13                     ; 0x2013 <main+0x1a81>
    2643: 06 13        	asl	$13                     ; 0x2013 <main+0x1a81>
    2645: 2a           	rol
    2646: 06 13        	asl	$13                     ; 0x2013 <main+0x1a81>
    2648: 2a           	rol
    2649: 06 13        	asl	$13                     ; 0x2013 <main+0x1a81>
    264b: 2a           	rol
    264c: 85 0f        	sta	$f                      ; 0x200f <main+0x1a7d>
    264e: a5 15        	lda	$15                     ; 0x2015 <main+0x1a83>
    2650: 09 e0        	ora	#$e0
    2652: 85 17        	sta	$17                     ; 0x2017 <main+0x1a85>
    2654: b2 16        	lda	($16)                   ; 0x2016 <main+0x1a84>
    2656: 85 15        	sta	$15                     ; 0x2015 <main+0x1a83>
    2658: 86 0f        	stx	$f                      ; 0x200f <main+0x1a7d>
    265a: 58           	cli
    265b: 18           	clc
    265c: a5 14        	lda	$14                     ; 0x2014 <main+0x1a82>
    265e: 69 05        	adc	#$5
    2660: 85 16        	sta	$16                     ; 0x2016 <main+0x1a84>
    2662: a5 1c        	lda	$1c                     ; 0x201c <main+0x1a8a>
    2664: 69 00        	adc	#$0
    2666: 85 17        	sta	$17                     ; 0x2017 <main+0x1a85>
    2668: a5 1d        	lda	$1d                     ; 0x201d <main+0x1a8b>
    266a: 69 04        	adc	#$4
    266c: a6 0f        	ldx	$f                      ; 0x200f <main+0x1a7d>
    266e: 78           	sei
    266f: a4 17        	ldy	$17                     ; 0x2017 <main+0x1a85>
    2671: 84 13        	sty	$13                     ; 0x2013 <main+0x1a81>
    2673: 06 13        	asl	$13                     ; 0x2013 <main+0x1a81>
    2675: 2a           	rol
    2676: 06 13        	asl	$13                     ; 0x2013 <main+0x1a81>
    2678: 2a           	rol
    2679: 06 13        	asl	$13                     ; 0x2013 <main+0x1a81>
    267b: 2a           	rol
    267c: 85 0f        	sta	$f                      ; 0x200f <main+0x1a7d>
    267e: a5 17        	lda	$17                     ; 0x2017 <main+0x1a85>
    2680: 09 e0        	ora	#$e0
    2682: 85 17        	sta	$17                     ; 0x2017 <main+0x1a85>
    2684: b2 16        	lda	($16)                   ; 0x2016 <main+0x1a84>
    2686: 85 1a        	sta	$1a                     ; 0x201a <main+0x1a88>
    2688: 86 0f        	stx	$f                      ; 0x200f <main+0x1a7d>
    268a: 58           	cli
    268b: 18           	clc
    268c: a5 14        	lda	$14                     ; 0x2014 <main+0x1a82>
    268e: 69 06        	adc	#$6
    2690: 85 16        	sta	$16                     ; 0x2016 <main+0x1a84>
    2692: a5 1c        	lda	$1c                     ; 0x201c <main+0x1a8a>
    2694: 69 00        	adc	#$0
    2696: 85 17        	sta	$17                     ; 0x2017 <main+0x1a85>
    2698: a5 1d        	lda	$1d                     ; 0x201d <main+0x1a8b>
    269a: 69 04        	adc	#$4
    269c: a6 17        	ldx	$17                     ; 0x2017 <main+0x1a85>
    269e: 86 13        	stx	$13                     ; 0x2013 <main+0x1a81>
    26a0: 06 13        	asl	$13                     ; 0x2013 <main+0x1a81>
    26a2: 2a           	rol
    26a3: 06 13        	asl	$13                     ; 0x2013 <main+0x1a81>
    26a5: 2a           	rol
    26a6: 06 13        	asl	$13                     ; 0x2013 <main+0x1a81>
    26a8: 2a           	rol
    26a9: a6 0f        	ldx	$f                      ; 0x200f <main+0x1a7d>
    26ab: 78           	sei
    26ac: 85 0f        	sta	$f                      ; 0x200f <main+0x1a7d>
    26ae: a5 17        	lda	$17                     ; 0x2017 <main+0x1a85>
    26b0: 09 e0        	ora	#$e0
    26b2: 85 17        	sta	$17                     ; 0x2017 <main+0x1a85>
    26b4: b2 16        	lda	($16)                   ; 0x2016 <main+0x1a84>
    26b6: 85 1b        	sta	$1b                     ; 0x201b <main+0x1a89>
    26b8: 86 0f        	stx	$f                      ; 0x200f <main+0x1a7d>
    26ba: 18           	clc
    26bb: a5 14        	lda	$14                     ; 0x2014 <main+0x1a82>
    26bd: 69 07        	adc	#$7
    26bf: 85 16        	sta	$16                     ; 0x2016 <main+0x1a84>
    26c1: a5 1c        	lda	$1c                     ; 0x201c <main+0x1a8a>
    26c3: 69 00        	adc	#$0
    26c5: 85 17        	sta	$17                     ; 0x2017 <main+0x1a85>
    26c7: a5 1d        	lda	$1d                     ; 0x201d <main+0x1a8b>
    26c9: 69 04        	adc	#$4
    26cb: a6 17        	ldx	$17                     ; 0x2017 <main+0x1a85>
    26cd: 86 13        	stx	$13                     ; 0x2013 <main+0x1a81>
    26cf: 06 13        	asl	$13                     ; 0x2013 <main+0x1a81>
    26d1: 2a           	rol
    26d2: 06 13        	asl	$13                     ; 0x2013 <main+0x1a81>
    26d4: 2a           	rol
    26d5: 06 13        	asl	$13                     ; 0x2013 <main+0x1a81>
    26d7: 2a           	rol
    26d8: 58           	cli
    26d9: a6 0f        	ldx	$f                      ; 0x200f <main+0x1a7d>
    26db: 78           	sei
    26dc: 85 0f        	sta	$f                      ; 0x200f <main+0x1a7d>
    26de: a5 17        	lda	$17                     ; 0x2017 <main+0x1a85>
    26e0: 09 e0        	ora	#$e0
    26e2: 85 17        	sta	$17                     ; 0x2017 <main+0x1a85>
    26e4: b2 16        	lda	($16)                   ; 0x2016 <main+0x1a84>
    26e6: 85 16        	sta	$16                     ; 0x2016 <main+0x1a84>
    26e8: 86 0f        	stx	$f                      ; 0x200f <main+0x1a7d>
    26ea: 18           	clc
    26eb: a5 14        	lda	$14                     ; 0x2014 <main+0x1a82>
    26ed: 69 08        	adc	#$8
    26ef: aa           	tax
    26f0: a5 1c        	lda	$1c                     ; 0x201c <main+0x1a8a>
    26f2: 69 00        	adc	#$0
    26f4: 85 14        	sta	$14                     ; 0x2014 <main+0x1a82>
    26f6: a5 1d        	lda	$1d                     ; 0x201d <main+0x1a8b>
    26f8: 69 00        	adc	#$0
    26fa: 85 1d        	sta	$1d                     ; 0x201d <main+0x1a8b>
    26fc: a5 23        	lda	$23                     ; 0x2023 <main+0x1a91>
    26fe: 69 00        	adc	#$0
    2700: 85 1c        	sta	$1c                     ; 0x201c <main+0x1a8a>
    2702: 86 17        	stx	$17                     ; 0x2017 <main+0x1a85>
    2704: 86 13        	stx	$13                     ; 0x2013 <main+0x1a81>
    2706: 18           	clc
    2707: a5 16        	lda	$16                     ; 0x2016 <main+0x1a84>
    2709: 65 13        	adc	$13                     ; 0x2013 <main+0x1a81>
    270b: a0 1c        	ldy	#$1c
    270d: 91 10        	sta	($10),y                 ; 0x2010 <main+0x1a7e>
    270f: a6 1d        	ldx	$1d                     ; 0x201d <main+0x1a8b>
    2711: a4 14        	ldy	$14                     ; 0x2014 <main+0x1a82>
    2713: 84 13        	sty	$13                     ; 0x2013 <main+0x1a81>
    2715: a5 1b        	lda	$1b                     ; 0x201b <main+0x1a89>
    2717: 65 13        	adc	$13                     ; 0x2013 <main+0x1a81>
    2719: 85 14        	sta	$14                     ; 0x2014 <main+0x1a82>
    271b: 86 13        	stx	$13                     ; 0x2013 <main+0x1a81>
    271d: a5 1a        	lda	$1a                     ; 0x201a <main+0x1a88>
    271f: 65 13        	adc	$13                     ; 0x2013 <main+0x1a81>
    2721: 85 18        	sta	$18                     ; 0x2018 <main+0x1a86>
    2723: a5 15        	lda	$15                     ; 0x2015 <main+0x1a83>
    2725: 65 1c        	adc	$1c                     ; 0x201c <main+0x1a8a>
    2727: 85 2f        	sta	$2f                     ; 0x202f <main+0x1a9d>
    2729: a5 1c        	lda	$1c                     ; 0x201c <main+0x1a8a>
    272b: 58           	cli
    272c: 84 1c        	sty	$1c                     ; 0x201c <main+0x1a8a>
    272e: c5 2f        	cmp	$2f                     ; 0x202f <main+0x1a9d>
    2730: d0 1c        	bne	$274e <parse+0x430>
    2732: 85 23        	sta	$23                     ; 0x2023 <main+0x1a91>
    2734: e4 18        	cpx	$18                     ; 0x2018 <main+0x1a86>
    2736: d0 1c        	bne	$2754 <parse+0x436>
    2738: a5 17        	lda	$17                     ; 0x2017 <main+0x1a85>
    273a: a6 1c        	ldx	$1c                     ; 0x201c <main+0x1a8a>
    273c: e4 14        	cpx	$14                     ; 0x2014 <main+0x1a82>
    273e: d0 4a        	bne	$278a <parse+0x46c>
    2740: 48           	pha
    2741: a0 1c        	ldy	#$1c
    2743: b1 10        	lda	($10),y                 ; 0x2010 <main+0x1a7e>
    2745: 85 13        	sta	$13                     ; 0x2013 <main+0x1a81>
    2747: 68           	pla
    2748: c5 13        	cmp	$13                     ; 0x2013 <main+0x1a81>
    274a: b0 0e        	bcs	$275a <parse+0x43c>
    274c: 80 40        	bra	$278e <parse+0x470>
    274e: 85 23        	sta	$23                     ; 0x2023 <main+0x1a91>
    2750: c5 2f        	cmp	$2f                     ; 0x202f <main+0x1a9d>
    2752: 80 02        	bra	$2756 <parse+0x438>
    2754: e4 18        	cpx	$18                     ; 0x2018 <main+0x1a86>
    2756: a5 17        	lda	$17                     ; 0x2017 <main+0x1a85>
    2758: 90 34        	bcc	$278e <parse+0x470>
    275a: 48           	pha
    275b: a0 1e        	ldy	#$1e
    275d: b1 10        	lda	($10),y                 ; 0x2010 <main+0x1a7e>
    275f: a8           	tay
    2760: 68           	pla
    2761: a6 12        	ldx	$12                     ; 0x2012 <main+0x1a80>
    2763: c8           	iny
    2764: d0 01        	bne	$2767 <parse+0x449>
    2766: e8           	inx
    2767: e4 74        	cpx	$74                     ; 0x2074 <main+0x1ae2>
    2769: d0 0c        	bne	$2777 <parse+0x459>
    276b: 85 13        	sta	$13                     ; 0x2013 <main+0x1a81>
    276d: a5 73        	lda	$73                     ; 0x2073 <main+0x1ae1>
    276f: 85 12        	sta	$12                     ; 0x2012 <main+0x1a80>
    2771: a5 13        	lda	$13                     ; 0x2013 <main+0x1a81>
    2773: c4 12        	cpy	$12                     ; 0x2012 <main+0x1a80>
    2775: 80 02        	bra	$2779 <parse+0x45b>
    2777: e4 74        	cpx	$74                     ; 0x2074 <main+0x1ae2>
    2779: 48           	pha
    277a: 98           	tya
    277b: a0 1e        	ldy	#$1e
    277d: 91 10        	sta	($10),y                 ; 0x2010 <main+0x1a7e>
    277f: 68           	pla
    2780: 86 12        	stx	$12                     ; 0x2012 <main+0x1a80>
    2782: b0 03        	bcs	$2787 <parse+0x469>
    2784: 4c 2b 26     	jmp	$262b <parse+0x30d>
    2787: 4c 47 2b     	jmp	$2b47 <parse+0x829>
    278a: e4 14        	cpx	$14                     ; 0x2014 <main+0x1a82>
    278c: b0 cc        	bcs	$275a <parse+0x43c>
    278e: 48           	pha
    278f: a5 18        	lda	$18                     ; 0x2018 <main+0x1a86>
    2791: a0 19        	ldy	#$19
    2793: 91 10        	sta	($10),y                 ; 0x2010 <main+0x1a7e>
    2795: a5 14        	lda	$14                     ; 0x2014 <main+0x1a82>
    2797: a0 16        	ldy	#$16
    2799: 91 10        	sta	($10),y                 ; 0x2010 <main+0x1a7e>
    279b: 68           	pla
    279c: 64 13        	stz	$13                     ; 0x2013 <main+0x1a81>
    279e: 48           	pha
    279f: a9 00        	lda	#$0
    27a1: 88           	dey
    27a2: 91 10        	sta	($10),y                 ; 0x2010 <main+0x1a7e>
    27a4: 88           	dey
    27a5: 91 10        	sta	($10),y                 ; 0x2010 <main+0x1a7e>
    27a7: 68           	pla
    27a8: 64 16        	stz	$16                     ; 0x2016 <main+0x1a84>
    27aa: 18           	clc
    27ab: a8           	tay
    27ac: 69 00        	adc	#$0
    27ae: a6 1c        	ldx	$1c                     ; 0x201c <main+0x1a8a>
    27b0: 86 17        	stx	$17                     ; 0x2017 <main+0x1a85>
    27b2: a5 1c        	lda	$1c                     ; 0x201c <main+0x1a8a>
    27b4: 69 00        	adc	#$0
    27b6: 85 13        	sta	$13                     ; 0x2013 <main+0x1a81>
    27b8: a5 1d        	lda	$1d                     ; 0x201d <main+0x1a8b>
    27ba: 69 04        	adc	#$4
    27bc: a6 0f        	ldx	$f                      ; 0x200f <main+0x1a7d>
    27be: 78           	sei
    27bf: 06 13        	asl	$13                     ; 0x2013 <main+0x1a81>
    27c1: 2a           	rol
    27c2: 06 13        	asl	$13                     ; 0x2013 <main+0x1a81>
    27c4: 2a           	rol
    27c5: 06 13        	asl	$13                     ; 0x2013 <main+0x1a81>
    27c7: 2a           	rol
    27c8: 85 0f        	sta	$f                      ; 0x200f <main+0x1a7d>
    27ca: a5 1c        	lda	$1c                     ; 0x201c <main+0x1a8a>
    27cc: 09 e0        	ora	#$e0
    27ce: 84 1a        	sty	$1a                     ; 0x201a <main+0x1a88>
    27d0: 85 1b        	sta	$1b                     ; 0x201b <main+0x1a89>
    27d2: b2 1a        	lda	($1a)                   ; 0x201a <main+0x1a88>
    27d4: 86 0f        	stx	$f                      ; 0x200f <main+0x1a7d>
    27d6: 58           	cli
    27d7: a6 23        	ldx	$23                     ; 0x2023 <main+0x1a91>
    27d9: 86 1f        	stx	$1f                     ; 0x201f <main+0x1a8d>
    27db: 84 1c        	sty	$1c                     ; 0x201c <main+0x1a8a>
    27dd: a6 1d        	ldx	$1d                     ; 0x201d <main+0x1a8b>
    27df: 86 24        	stx	$24                     ; 0x2024 <main+0x1a92>
    27e1: a6 1d        	ldx	$1d                     ; 0x201d <main+0x1a8b>
    27e3: 86 1e        	stx	$1e                     ; 0x201e <main+0x1a8c>
    27e5: a6 17        	ldx	$17                     ; 0x2017 <main+0x1a85>
    27e7: 86 1d        	stx	$1d                     ; 0x201d <main+0x1a8b>
    27e9: e6 1c        	inc	$1c                     ; 0x201c <main+0x1a8a>
    27eb: d0 0a        	bne	$27f7 <parse+0x4d9>
    27ed: e6 1d        	inc	$1d                     ; 0x201d <main+0x1a8b>
    27ef: d0 06        	bne	$27f7 <parse+0x4d9>
    27f1: e6 1e        	inc	$1e                     ; 0x201e <main+0x1a8c>
    27f3: d0 02        	bne	$27f7 <parse+0x4d9>
    27f5: e6 1f        	inc	$1f                     ; 0x201f <main+0x1a8d>
    27f7: aa           	tax
    27f8: 30 13        	bmi	$280d <parse+0x4ef>
    27fa: 64 1b        	stz	$1b                     ; 0x201b <main+0x1a89>
    27fc: 85 22        	sta	$22                     ; 0x2022 <main+0x1a90>
    27fe: 64 1a        	stz	$1a                     ; 0x201a <main+0x1a88>
    2800: 64 17        	stz	$17                     ; 0x2017 <main+0x1a85>
    2802: 64 27        	stz	$27                     ; 0x2027 <main+0x1a95>
    2804: 64 15        	stz	$15                     ; 0x2015 <main+0x1a83>
    2806: 64 23        	stz	$23                     ; 0x2023 <main+0x1a91>
    2808: 64 14        	stz	$14                     ; 0x2014 <main+0x1a82>
    280a: 4c 23 29     	jmp	$2923 <parse+0x605>
    280d: 64 1a        	stz	$1a                     ; 0x201a <main+0x1a88>
    280f: 85 13        	sta	$13                     ; 0x2013 <main+0x1a81>
    2811: 46 13        	lsr	$13                     ; 0x2013 <main+0x1a81>
    2813: 64 14        	stz	$14                     ; 0x2014 <main+0x1a82>
    2815: 66 14        	ror	$14                     ; 0x2014 <main+0x1a82>
    2817: 98           	tya
    2818: 18           	clc
    2819: 69 01        	adc	#$1
    281b: 85 1c        	sta	$1c                     ; 0x201c <main+0x1a8a>
    281d: a5 17        	lda	$17                     ; 0x2017 <main+0x1a85>
    281f: 69 00        	adc	#$0
    2821: 85 15        	sta	$15                     ; 0x2015 <main+0x1a83>
    2823: 84 1f        	sty	$1f                     ; 0x201f <main+0x1a8d>
    2825: a6 17        	ldx	$17                     ; 0x2017 <main+0x1a85>
    2827: 86 1e        	stx	$1e                     ; 0x201e <main+0x1a8c>
    2829: a5 24        	lda	$24                     ; 0x2024 <main+0x1a92>
    282b: 69 04        	adc	#$4
    282d: a6 15        	ldx	$15                     ; 0x2015 <main+0x1a83>
    282f: 86 17        	stx	$17                     ; 0x2017 <main+0x1a85>
    2831: 06 17        	asl	$17                     ; 0x2017 <main+0x1a85>
    2833: 2a           	rol
    2834: 06 17        	asl	$17                     ; 0x2017 <main+0x1a85>
    2836: 2a           	rol
    2837: 06 17        	asl	$17                     ; 0x2017 <main+0x1a85>
    2839: 2a           	rol
    283a: a6 0f        	ldx	$f                      ; 0x200f <main+0x1a7d>
    283c: 78           	sei
    283d: 85 0f        	sta	$f                      ; 0x200f <main+0x1a7d>
    283f: a5 14        	lda	$14                     ; 0x2014 <main+0x1a82>
    2841: 29 80        	and	#$80
    2843: 85 22        	sta	$22                     ; 0x2022 <main+0x1a90>
    2845: a5 13        	lda	$13                     ; 0x2013 <main+0x1a81>
    2847: 29 3f        	and	#$3f
    2849: 85 1b        	sta	$1b                     ; 0x201b <main+0x1a89>
    284b: a5 15        	lda	$15                     ; 0x2015 <main+0x1a83>
    284d: 09 e0        	ora	#$e0
    284f: 85 1d        	sta	$1d                     ; 0x201d <main+0x1a8b>
    2851: b2 1c        	lda	($1c)                   ; 0x201c <main+0x1a8a>
    2853: 86 0f        	stx	$f                      ; 0x200f <main+0x1a7d>
    2855: 58           	cli
    2856: aa           	tax
    2857: 30 51        	bmi	$28aa <parse+0x58c>
    2859: 85 14        	sta	$14                     ; 0x2014 <main+0x1a82>
    285b: 18           	clc
    285c: 98           	tya
    285d: 69 02        	adc	#$2
    285f: 85 1c        	sta	$1c                     ; 0x201c <main+0x1a8a>
    2861: a5 1e        	lda	$1e                     ; 0x201e <main+0x1a8c>
    2863: 69 00        	adc	#$0
    2865: 85 1d        	sta	$1d                     ; 0x201d <main+0x1a8b>
    2867: a5 24        	lda	$24                     ; 0x2024 <main+0x1a92>
    2869: 69 00        	adc	#$0
    286b: 85 1e        	sta	$1e                     ; 0x201e <main+0x1a8c>
    286d: a5 23        	lda	$23                     ; 0x2023 <main+0x1a91>
    286f: 69 00        	adc	#$0
    2871: 85 1f        	sta	$1f                     ; 0x201f <main+0x1a8d>
    2873: 64 17        	stz	$17                     ; 0x2017 <main+0x1a85>
    2875: 64 27        	stz	$27                     ; 0x2027 <main+0x1a95>
    2877: 64 15        	stz	$15                     ; 0x2015 <main+0x1a83>
    2879: 64 23        	stz	$23                     ; 0x2023 <main+0x1a91>
    287b: 4c 23 29     	jmp	$2923 <parse+0x605>
    287e: a2 00        	ldx	#$0
    2880: 1a           	inc
    2881: d0 01        	bne	$2884 <parse+0x566>
    2883: e8           	inx
    2884: 85 13        	sta	$13                     ; 0x2013 <main+0x1a81>
    2886: 86 17        	stx	$17                     ; 0x2017 <main+0x1a85>
    2888: 18           	clc
    2889: 98           	tya
    288a: 65 13        	adc	$13                     ; 0x2013 <main+0x1a81>
    288c: a8           	tay
    288d: a5 1c        	lda	$1c                     ; 0x201c <main+0x1a8a>
    288f: 65 17        	adc	$17                     ; 0x2017 <main+0x1a85>
    2891: 85 1c        	sta	$1c                     ; 0x201c <main+0x1a8a>
    2893: a5 1d        	lda	$1d                     ; 0x201d <main+0x1a8b>
    2895: 69 00        	adc	#$0
    2897: 85 1d        	sta	$1d                     ; 0x201d <main+0x1a8b>
    2899: a5 1e        	lda	$1e                     ; 0x201e <main+0x1a8c>
    289b: 4c ec 2a     	jmp	$2aec <parse+0x7ce>
    289e: a6 13        	ldx	$13                     ; 0x2013 <main+0x1a81>
    28a0: 86 16        	stx	$16                     ; 0x2016 <main+0x1a84>
    28a2: b0 03        	bcs	$28a7 <parse+0x589>
    28a4: 4c aa 27     	jmp	$27aa <parse+0x48c>
    28a7: 4c 5a 27     	jmp	$275a <parse+0x43c>
    28aa: 4a           	lsr
    28ab: 85 13        	sta	$13                     ; 0x2013 <main+0x1a81>
    28ad: 64 14        	stz	$14                     ; 0x2014 <main+0x1a82>
    28af: 66 14        	ror	$14                     ; 0x2014 <main+0x1a82>
    28b1: a5 1b        	lda	$1b                     ; 0x201b <main+0x1a89>
    28b3: 4a           	lsr
    28b4: a8           	tay
    28b5: a5 22        	lda	$22                     ; 0x2022 <main+0x1a90>
    28b7: 6a           	ror
    28b8: 85 1c        	sta	$1c                     ; 0x201c <main+0x1a8a>
    28ba: 64 22        	stz	$22                     ; 0x2022 <main+0x1a90>
    28bc: 66 22        	ror	$22                     ; 0x2022 <main+0x1a90>
    28be: a5 1f        	lda	$1f                     ; 0x201f <main+0x1a8d>
    28c0: 18           	clc
    28c1: 69 02        	adc	#$2
    28c3: 85 1a        	sta	$1a                     ; 0x201a <main+0x1a88>
    28c5: a5 1e        	lda	$1e                     ; 0x201e <main+0x1a8c>
    28c7: 69 00        	adc	#$0
    28c9: 85 18        	sta	$18                     ; 0x2018 <main+0x1a86>
    28cb: a5 24        	lda	$24                     ; 0x2024 <main+0x1a92>
    28cd: 69 04        	adc	#$4
    28cf: a6 18        	ldx	$18                     ; 0x2018 <main+0x1a86>
    28d1: 86 17        	stx	$17                     ; 0x2017 <main+0x1a85>
    28d3: 06 17        	asl	$17                     ; 0x2017 <main+0x1a85>
    28d5: 2a           	rol
    28d6: 06 17        	asl	$17                     ; 0x2017 <main+0x1a85>
    28d8: 2a           	rol
    28d9: 06 17        	asl	$17                     ; 0x2017 <main+0x1a85>
    28db: 2a           	rol
    28dc: a6 0f        	ldx	$f                      ; 0x200f <main+0x1a7d>
    28de: 78           	sei
    28df: 85 0f        	sta	$f                      ; 0x200f <main+0x1a7d>
    28e1: a5 14        	lda	$14                     ; 0x2014 <main+0x1a82>
    28e3: 64 17        	stz	$17                     ; 0x2017 <main+0x1a85>
    28e5: 29 80        	and	#$80
    28e7: 85 14        	sta	$14                     ; 0x2014 <main+0x1a82>
    28e9: a5 13        	lda	$13                     ; 0x2013 <main+0x1a81>
    28eb: 29 3f        	and	#$3f
    28ed: 85 27        	sta	$27                     ; 0x2027 <main+0x1a95>
    28ef: a5 18        	lda	$18                     ; 0x2018 <main+0x1a86>
    28f1: 09 e0        	ora	#$e0
    28f3: 85 1b        	sta	$1b                     ; 0x201b <main+0x1a89>
    28f5: b2 1a        	lda	($1a)                   ; 0x201a <main+0x1a88>
    28f7: 86 0f        	stx	$f                      ; 0x200f <main+0x1a7d>
    28f9: 58           	cli
    28fa: aa           	tax
    28fb: 10 03        	bpl	$2900 <parse+0x5e2>
    28fd: 4c da 2c     	jmp	$2cda <parse+0x9bc>
    2900: a5 1c        	lda	$1c                     ; 0x201c <main+0x1a8a>
    2902: 85 1b        	sta	$1b                     ; 0x201b <main+0x1a89>
    2904: 18           	clc
    2905: a5 1f        	lda	$1f                     ; 0x201f <main+0x1a8d>
    2907: 69 03        	adc	#$3
    2909: 85 1c        	sta	$1c                     ; 0x201c <main+0x1a8a>
    290b: a5 1e        	lda	$1e                     ; 0x201e <main+0x1a8c>
    290d: 69 00        	adc	#$0
    290f: 85 1d        	sta	$1d                     ; 0x201d <main+0x1a8b>
    2911: a5 24        	lda	$24                     ; 0x2024 <main+0x1a92>
    2913: 69 00        	adc	#$0
    2915: 85 1e        	sta	$1e                     ; 0x201e <main+0x1a8c>
    2917: a5 23        	lda	$23                     ; 0x2023 <main+0x1a91>
    2919: 69 00        	adc	#$0
    291b: 85 1f        	sta	$1f                     ; 0x201f <main+0x1a8d>
    291d: 84 1a        	sty	$1a                     ; 0x201a <main+0x1a88>
    291f: 64 15        	stz	$15                     ; 0x2015 <main+0x1a83>
    2921: 86 23        	stx	$23                     ; 0x2023 <main+0x1a91>
    2923: 64 25        	stz	$25                     ; 0x2025 <main+0x1a93>
    2925: 64 26        	stz	$26                     ; 0x2026 <main+0x1a94>
    2927: a5 1c        	lda	$1c                     ; 0x201c <main+0x1a8a>
    2929: 18           	clc
    292a: 69 00        	adc	#$0
    292c: a5 1d        	lda	$1d                     ; 0x201d <main+0x1a8b>
    292e: 69 00        	adc	#$0
    2930: 85 13        	sta	$13                     ; 0x2013 <main+0x1a81>
    2932: a5 1e        	lda	$1e                     ; 0x201e <main+0x1a8c>
    2934: 69 04        	adc	#$4
    2936: a6 0f        	ldx	$f                      ; 0x200f <main+0x1a7d>
    2938: 78           	sei
    2939: 06 13        	asl	$13                     ; 0x2013 <main+0x1a81>
    293b: 2a           	rol
    293c: 06 13        	asl	$13                     ; 0x2013 <main+0x1a81>
    293e: 2a           	rol
    293f: 06 13        	asl	$13                     ; 0x2013 <main+0x1a81>
    2941: 2a           	rol
    2942: 85 18        	sta	$18                     ; 0x2018 <main+0x1a86>
    2944: 85 0f        	sta	$f                      ; 0x200f <main+0x1a7d>
    2946: a5 1d        	lda	$1d                     ; 0x201d <main+0x1a8b>
    2948: 09 e0        	ora	#$e0
    294a: a4 1c        	ldy	$1c                     ; 0x201c <main+0x1a8a>
    294c: 84 28        	sty	$28                     ; 0x2028 <main+0x1a96>
    294e: 85 29        	sta	$29                     ; 0x2029 <main+0x1a97>
    2950: b2 28        	lda	($28)                   ; 0x2028 <main+0x1a96>
    2952: 85 13        	sta	$13                     ; 0x2013 <main+0x1a81>
    2954: 86 0f        	stx	$f                      ; 0x200f <main+0x1a7d>
    2956: 58           	cli
    2957: a5 1c        	lda	$1c                     ; 0x201c <main+0x1a8a>
    2959: 18           	clc
    295a: 69 01        	adc	#$1
    295c: a8           	tay
    295d: a5 1d        	lda	$1d                     ; 0x201d <main+0x1a8b>
    295f: 69 00        	adc	#$0
    2961: 85 24        	sta	$24                     ; 0x2024 <main+0x1a92>
    2963: a5 1e        	lda	$1e                     ; 0x201e <main+0x1a8c>
    2965: 69 04        	adc	#$4
    2967: a6 24        	ldx	$24                     ; 0x2024 <main+0x1a92>
    2969: 86 2a        	stx	$2a                     ; 0x202a <main+0x1a98>
    296b: 06 2a        	asl	$2a                     ; 0x202a <main+0x1a98>
    296d: 2a           	rol
    296e: 06 2a        	asl	$2a                     ; 0x202a <main+0x1a98>
    2970: 2a           	rol
    2971: 06 2a        	asl	$2a                     ; 0x202a <main+0x1a98>
    2973: 2a           	rol
    2974: a6 0f        	ldx	$f                      ; 0x200f <main+0x1a7d>
    2976: 78           	sei
    2977: 85 19        	sta	$19                     ; 0x2019 <main+0x1a87>
    2979: 85 0f        	sta	$f                      ; 0x200f <main+0x1a7d>
    297b: a5 24        	lda	$24                     ; 0x2024 <main+0x1a92>
    297d: 09 e0        	ora	#$e0
    297f: 84 2a        	sty	$2a                     ; 0x202a <main+0x1a98>
    2981: 85 2b        	sta	$2b                     ; 0x202b <main+0x1a99>
    2983: b2 2a        	lda	($2a)                   ; 0x202a <main+0x1a98>
    2985: 85 24        	sta	$24                     ; 0x2024 <main+0x1a92>
    2987: 86 0f        	stx	$f                      ; 0x200f <main+0x1a7d>
    2989: a5 1c        	lda	$1c                     ; 0x201c <main+0x1a8a>
    298b: 18           	clc
    298c: 69 02        	adc	#$2
    298e: a8           	tay
    298f: a5 1d        	lda	$1d                     ; 0x201d <main+0x1a8b>
    2991: 69 00        	adc	#$0
    2993: 85 2d        	sta	$2d                     ; 0x202d <main+0x1a9b>
    2995: a5 1e        	lda	$1e                     ; 0x201e <main+0x1a8c>
    2997: 69 04        	adc	#$4
    2999: a6 2d        	ldx	$2d                     ; 0x202d <main+0x1a9b>
    299b: 86 2c        	stx	$2c                     ; 0x202c <main+0x1a9a>
    299d: 06 2c        	asl	$2c                     ; 0x202c <main+0x1a9a>
    299f: 2a           	rol
    29a0: 06 2c        	asl	$2c                     ; 0x202c <main+0x1a9a>
    29a2: 2a           	rol
    29a3: 06 2c        	asl	$2c                     ; 0x202c <main+0x1a9a>
    29a5: 2a           	rol
    29a6: 58           	cli
    29a7: a6 0f        	ldx	$f                      ; 0x200f <main+0x1a7d>
    29a9: 78           	sei
    29aa: 85 0f        	sta	$f                      ; 0x200f <main+0x1a7d>
    29ac: 84 2c        	sty	$2c                     ; 0x202c <main+0x1a9a>
    29ae: a5 2d        	lda	$2d                     ; 0x202d <main+0x1a9b>
    29b0: 09 e0        	ora	#$e0
    29b2: 85 2d        	sta	$2d                     ; 0x202d <main+0x1a9b>
    29b4: b2 2c        	lda	($2c)                   ; 0x202c <main+0x1a9a>
    29b6: a0 1d        	ldy	#$1d
    29b8: 91 10        	sta	($10),y                 ; 0x2010 <main+0x1a7e>
    29ba: 86 0f        	stx	$f                      ; 0x200f <main+0x1a7d>
    29bc: 58           	cli
    29bd: a5 1c        	lda	$1c                     ; 0x201c <main+0x1a8a>
    29bf: a4 1e        	ldy	$1e                     ; 0x201e <main+0x1a8c>
    29c1: a6 1d        	ldx	$1d                     ; 0x201d <main+0x1a8b>
    29c3: 48           	pha
    29c4: a5 1f        	lda	$1f                     ; 0x201f <main+0x1a8d>
    29c6: 85 2e        	sta	$2e                     ; 0x202e <main+0x1a9c>
    29c8: 68           	pla
    29c9: 1a           	inc
    29ca: d0 08        	bne	$29d4 <parse+0x6b6>
    29cc: e8           	inx
    29cd: d0 05        	bne	$29d4 <parse+0x6b6>
    29cf: c8           	iny
    29d0: d0 02        	bne	$29d4 <parse+0x6b6>
    29d2: e6 2e        	inc	$2e                     ; 0x202e <main+0x1a9c>
    29d4: e6 13        	inc	$13                     ; 0x2013 <main+0x1a81>
    29d6: c6 13        	dec	$13                     ; 0x2013 <main+0x1a81>
    29d8: 30 2e        	bmi	$2a08 <parse+0x6ea>
    29da: a6 0f        	ldx	$f                      ; 0x200f <main+0x1a7d>
    29dc: 78           	sei
    29dd: a4 18        	ldy	$18                     ; 0x2018 <main+0x1a86>
    29df: 84 0f        	sty	$f                      ; 0x200f <main+0x1a7d>
    29e1: b2 28        	lda	($28)                   ; 0x2028 <main+0x1a96>
    29e3: 85 24        	sta	$24                     ; 0x2024 <main+0x1a92>
    29e5: 86 0f        	stx	$f                      ; 0x200f <main+0x1a7d>
    29e7: 58           	cli
    29e8: a6 0f        	ldx	$f                      ; 0x200f <main+0x1a7d>
    29ea: 78           	sei
    29eb: a4 19        	ldy	$19                     ; 0x2019 <main+0x1a87>
    29ed: 84 0f        	sty	$f                      ; 0x200f <main+0x1a7d>
    29ef: b2 2a        	lda	($2a)                   ; 0x202a <main+0x1a98>
    29f1: a0 1d        	ldy	#$1d
    29f3: 91 10        	sta	($10),y                 ; 0x2010 <main+0x1a7e>
    29f5: 86 0f        	stx	$f                      ; 0x200f <main+0x1a7d>
    29f7: 58           	cli
    29f8: a5 1c        	lda	$1c                     ; 0x201c <main+0x1a8a>
    29fa: a6 1d        	ldx	$1d                     ; 0x201d <main+0x1a8b>
    29fc: a4 1e        	ldy	$1e                     ; 0x201e <main+0x1a8c>
    29fe: 48           	pha
    29ff: a5 1f        	lda	$1f                     ; 0x201f <main+0x1a8d>
    2a01: 85 2e        	sta	$2e                     ; 0x202e <main+0x1a9c>
    2a03: a5 16        	lda	$16                     ; 0x2016 <main+0x1a84>
    2a05: 85 13        	sta	$13                     ; 0x2013 <main+0x1a81>
    2a07: 68           	pla
    2a08: 84 2d        	sty	$2d                     ; 0x202d <main+0x1a9b>
    2a0a: 86 2c        	stx	$2c                     ; 0x202c <main+0x1a9a>
    2a0c: a6 13        	ldx	$13                     ; 0x2013 <main+0x1a81>
    2a0e: e0 ff        	cpx	#$ff
    2a10: f0 03        	beq	$2a15 <parse+0x6f7>
    2a12: 4c da 2e     	jmp	$2eda <parse+0xbbc>
    2a15: 85 17        	sta	$17                     ; 0x2017 <main+0x1a85>
    2a17: 18           	clc
    2a18: 69 00        	adc	#$0
    2a1a: a6 2c        	ldx	$2c                     ; 0x202c <main+0x1a9a>
    2a1c: 86 1c        	stx	$1c                     ; 0x201c <main+0x1a8a>
    2a1e: a5 2c        	lda	$2c                     ; 0x202c <main+0x1a9a>
    2a20: 69 00        	adc	#$0
    2a22: 85 13        	sta	$13                     ; 0x2013 <main+0x1a81>
    2a24: 98           	tya
    2a25: 69 04        	adc	#$4
    2a27: a6 0f        	ldx	$f                      ; 0x200f <main+0x1a7d>
    2a29: 78           	sei
    2a2a: 06 13        	asl	$13                     ; 0x2013 <main+0x1a81>
    2a2c: 2a           	rol
    2a2d: 06 13        	asl	$13                     ; 0x2013 <main+0x1a81>
    2a2f: 2a           	rol
    2a30: 06 13        	asl	$13                     ; 0x2013 <main+0x1a81>
    2a32: 2a           	rol
    2a33: 85 0f        	sta	$f                      ; 0x200f <main+0x1a7d>
    2a35: a5 2c        	lda	$2c                     ; 0x202c <main+0x1a9a>
    2a37: 09 e0        	ora	#$e0
    2a39: 5a           	phy
    2a3a: a4 17        	ldy	$17                     ; 0x2017 <main+0x1a85>
    2a3c: 84 1a        	sty	$1a                     ; 0x201a <main+0x1a88>
    2a3e: 7a           	ply
    2a3f: 85 1b        	sta	$1b                     ; 0x201b <main+0x1a89>
    2a41: b2 1a        	lda	($1a)                   ; 0x201a <main+0x1a88>
    2a43: 85 13        	sta	$13                     ; 0x2013 <main+0x1a81>
    2a45: 86 0f        	stx	$f                      ; 0x200f <main+0x1a7d>
    2a47: 58           	cli
    2a48: 98           	tya
    2a49: a6 2e        	ldx	$2e                     ; 0x202e <main+0x1a9c>
    2a4b: a4 17        	ldy	$17                     ; 0x2017 <main+0x1a85>
    2a4d: c8           	iny
    2a4e: d0 08        	bne	$2a58 <parse+0x73a>
    2a50: e6 1c        	inc	$1c                     ; 0x201c <main+0x1a8a>
    2a52: d0 04        	bne	$2a58 <parse+0x73a>
    2a54: 1a           	inc
    2a55: d0 01        	bne	$2a58 <parse+0x73a>
    2a57: e8           	inx
    2a58: 86 1e        	stx	$1e                     ; 0x201e <main+0x1a8c>
    2a5a: 85 1d        	sta	$1d                     ; 0x201d <main+0x1a8b>
    2a5c: a5 13        	lda	$13                     ; 0x2013 <main+0x1a81>
    2a5e: 38           	sec
    2a5f: e9 2f        	sbc	#$2f
    2a61: 50 02        	bvc	$2a65 <parse+0x747>
    2a63: 49 80        	eor	#$80
    2a65: c9 00        	cmp	#$0
    2a67: 10 0e        	bpl	$2a77 <parse+0x759>
    2a69: a5 13        	lda	$13                     ; 0x2013 <main+0x1a81>
    2a6b: c9 08        	cmp	#$8
    2a6d: 90 03        	bcc	$2a72 <parse+0x754>
    2a6f: 4c d1 2a     	jmp	$2ad1 <parse+0x7b3>
    2a72: 0a           	asl
    2a73: aa           	tax
    2a74: 7c b9 64     	jmp	($64b9,x)               ; 0x64b9 <__set_v+0x1>
    2a77: a5 13        	lda	$13                     ; 0x2013 <main+0x1a81>
    2a79: c9 2f        	cmp	#$2f
    2a7b: f0 0a        	beq	$2a87 <parse+0x769>
    2a7d: c9 7f        	cmp	#$7f
    2a7f: f0 03        	beq	$2a84 <parse+0x766>
    2a81: 4c 35 31     	jmp	$3135 <parse+0xe17>
    2a84: 8a           	txa
    2a85: 80 16        	bra	$2a9d <parse+0x77f>
    2a87: 18           	clc
    2a88: a5 17        	lda	$17                     ; 0x2017 <main+0x1a85>
    2a8a: 69 02        	adc	#$2
    2a8c: a8           	tay
    2a8d: a5 2c        	lda	$2c                     ; 0x202c <main+0x1a9a>
    2a8f: 69 00        	adc	#$0
    2a91: 85 1c        	sta	$1c                     ; 0x201c <main+0x1a8a>
    2a93: a5 2d        	lda	$2d                     ; 0x202d <main+0x1a9b>
    2a95: 69 00        	adc	#$0
    2a97: 85 1d        	sta	$1d                     ; 0x201d <main+0x1a8b>
    2a99: a5 2e        	lda	$2e                     ; 0x202e <main+0x1a9c>
    2a9b: 69 00        	adc	#$0
    2a9d: c5 2f        	cmp	$2f                     ; 0x202f <main+0x1a9d>
    2a9f: d0 29        	bne	$2aca <parse+0x7ac>
    2aa1: a6 1d        	ldx	$1d                     ; 0x201d <main+0x1a8b>
    2aa3: 48           	pha
    2aa4: 5a           	phy
    2aa5: a0 19        	ldy	#$19
    2aa7: b1 10        	lda	($10),y                 ; 0x2010 <main+0x1a7e>
    2aa9: 7a           	ply
    2aaa: 85 13        	sta	$13                     ; 0x2013 <main+0x1a81>
    2aac: 68           	pla
    2aad: e4 13        	cpx	$13                     ; 0x2013 <main+0x1a81>
    2aaf: f0 03        	beq	$2ab4 <parse+0x796>
    2ab1: 4c 41 2b     	jmp	$2b41 <parse+0x823>
    2ab4: 85 23        	sta	$23                     ; 0x2023 <main+0x1a91>
    2ab6: a6 1c        	ldx	$1c                     ; 0x201c <main+0x1a8a>
    2ab8: 5a           	phy
    2ab9: a0 16        	ldy	#$16
    2abb: b1 10        	lda	($10),y                 ; 0x2010 <main+0x1a7e>
    2abd: 7a           	ply
    2abe: 85 14        	sta	$14                     ; 0x2014 <main+0x1a82>
    2ac0: e4 14        	cpx	$14                     ; 0x2014 <main+0x1a82>
    2ac2: f0 03        	beq	$2ac7 <parse+0x7a9>
    2ac4: 4c 77 2d     	jmp	$2d77 <parse+0xa59>
    2ac7: 4c 62 2d     	jmp	$2d62 <parse+0xa44>
    2aca: 85 23        	sta	$23                     ; 0x2023 <main+0x1a91>
    2acc: c5 2f        	cmp	$2f                     ; 0x202f <main+0x1a9d>
    2ace: 4c 38 2b     	jmp	$2b38 <parse+0x81a>
    2ad1: c9 20        	cmp	#$20
    2ad3: f0 03        	beq	$2ad8 <parse+0x7ba>
    2ad5: 4c b3 2c     	jmp	$2cb3 <parse+0x995>
    2ad8: 18           	clc
    2ad9: a5 17        	lda	$17                     ; 0x2017 <main+0x1a85>
    2adb: 69 03        	adc	#$3
    2add: a8           	tay
    2ade: a5 2c        	lda	$2c                     ; 0x202c <main+0x1a9a>
    2ae0: 69 00        	adc	#$0
    2ae2: 85 1c        	sta	$1c                     ; 0x201c <main+0x1a8a>
    2ae4: a5 2d        	lda	$2d                     ; 0x202d <main+0x1a9b>
    2ae6: 69 00        	adc	#$0
    2ae8: 85 1d        	sta	$1d                     ; 0x201d <main+0x1a8b>
    2aea: a5 2e        	lda	$2e                     ; 0x202e <main+0x1a9c>
    2aec: 69 00        	adc	#$0
    2aee: a2 ff        	ldx	#$ff
    2af0: 48           	pha
    2af1: 8a           	txa
    2af2: 5a           	phy
    2af3: a0 1b        	ldy	#$1b
    2af5: 91 10        	sta	($10),y                 ; 0x2010 <main+0x1a7e>
    2af7: 7a           	ply
    2af8: 68           	pla
    2af9: c5 2f        	cmp	$2f                     ; 0x202f <main+0x1a9d>
    2afb: d0 2b        	bne	$2b28 <parse+0x80a>
    2afd: 85 23        	sta	$23                     ; 0x2023 <main+0x1a91>
    2aff: a6 1d        	ldx	$1d                     ; 0x201d <main+0x1a8b>
    2b01: 5a           	phy
    2b02: a0 19        	ldy	#$19
    2b04: b1 10        	lda	($10),y                 ; 0x2010 <main+0x1a7e>
    2b06: 7a           	ply
    2b07: 85 13        	sta	$13                     ; 0x2013 <main+0x1a81>
    2b09: e4 13        	cpx	$13                     ; 0x2013 <main+0x1a81>
    2b0b: d0 21        	bne	$2b2e <parse+0x810>
    2b0d: a6 1c        	ldx	$1c                     ; 0x201c <main+0x1a8a>
    2b0f: 5a           	phy
    2b10: a0 1b        	ldy	#$1b
    2b12: b1 10        	lda	($10),y                 ; 0x2010 <main+0x1a7e>
    2b14: 85 13        	sta	$13                     ; 0x2013 <main+0x1a81>
    2b16: a0 16        	ldy	#$16
    2b18: b1 10        	lda	($10),y                 ; 0x2010 <main+0x1a7e>
    2b1a: 7a           	ply
    2b1b: 85 14        	sta	$14                     ; 0x2014 <main+0x1a82>
    2b1d: 98           	tya
    2b1e: e4 14        	cpx	$14                     ; 0x2014 <main+0x1a82>
    2b20: f0 03        	beq	$2b25 <parse+0x807>
    2b22: 4c d5 2c     	jmp	$2cd5 <parse+0x9b7>
    2b25: 4c c8 2c     	jmp	$2cc8 <parse+0x9aa>
    2b28: 85 23        	sta	$23                     ; 0x2023 <main+0x1a91>
    2b2a: c5 2f        	cmp	$2f                     ; 0x202f <main+0x1a9d>
    2b2c: 80 02        	bra	$2b30 <parse+0x812>
    2b2e: e4 13        	cpx	$13                     ; 0x2013 <main+0x1a81>
    2b30: 5a           	phy
    2b31: a0 1b        	ldy	#$1b
    2b33: b1 10        	lda	($10),y                 ; 0x2010 <main+0x1a7e>
    2b35: 7a           	ply
    2b36: 85 16        	sta	$16                     ; 0x2016 <main+0x1a84>
    2b38: 98           	tya
    2b39: b0 03        	bcs	$2b3e <parse+0x820>
    2b3b: 4c aa 27     	jmp	$27aa <parse+0x48c>
    2b3e: 4c 5a 27     	jmp	$275a <parse+0x43c>
    2b41: 85 23        	sta	$23                     ; 0x2023 <main+0x1a91>
    2b43: e4 13        	cpx	$13                     ; 0x2013 <main+0x1a81>
    2b45: 80 f1        	bra	$2b38 <parse+0x81a>
    2b47: a0 1a        	ldy	#$1a
    2b49: b1 10        	lda	($10),y                 ; 0x2010 <main+0x1a7e>
    2b4b: 85 24        	sta	$24                     ; 0x2024 <main+0x1a92>
    2b4d: a5 24        	lda	$24                     ; 0x2024 <main+0x1a92>
    2b4f: d0 03        	bne	$2b54 <parse+0x836>
    2b51: 4c 70 2c     	jmp	$2c70 <parse+0x952>
    2b54: a2 60        	ldx	#$60
    2b56: 86 60        	stx	$60                     ; 0x2060 <main+0x1ace>
    2b58: a9 0a        	lda	#$a
    2b5a: a2 00        	ldx	#$0
    2b5c: 20 56 46     	jsr	$4656 <putchar>
    2b5f: a6 7a        	ldx	$7a                     ; 0x207a <main+0x1ae8>
    2b61: a4 7b        	ldy	$7b                     ; 0x207b <main+0x1ae9>
    2b63: d0 06        	bne	$2b6b <parse+0x84d>
    2b65: 8a           	txa
    2b66: d0 03        	bne	$2b6b <parse+0x84d>
    2b68: 4c 70 2c     	jmp	$2c70 <parse+0x952>
    2b6b: a0 03        	ldy	#$3
    2b6d: 84 15        	sty	$15                     ; 0x2015 <main+0x1a83>
    2b6f: 64 13        	stz	$13                     ; 0x2013 <main+0x1a81>
    2b71: 64 25        	stz	$25                     ; 0x2025 <main+0x1a93>
    2b73: 64 27        	stz	$27                     ; 0x2027 <main+0x1a95>
    2b75: 64 26        	stz	$26                     ; 0x2026 <main+0x1a94>
    2b77: a2 00        	ldx	#$0
    2b79: a4 15        	ldy	$15                     ; 0x2015 <main+0x1a83>
    2b7b: a5 15        	lda	$15                     ; 0x2015 <main+0x1a83>
    2b7d: 18           	clc
    2b7e: 65 7c        	adc	$7c                     ; 0x207c <main+0x1aea>
    2b80: 85 16        	sta	$16                     ; 0x2016 <main+0x1a84>
    2b82: 84 24        	sty	$24                     ; 0x2024 <main+0x1a92>
    2b84: a4 13        	ldy	$13                     ; 0x2013 <main+0x1a81>
    2b86: 84 29        	sty	$29                     ; 0x2029 <main+0x1a97>
    2b88: a5 13        	lda	$13                     ; 0x2013 <main+0x1a81>
    2b8a: 65 7d        	adc	$7d                     ; 0x207d <main+0x1aeb>
    2b8c: a4 16        	ldy	$16                     ; 0x2016 <main+0x1a84>
    2b8e: 84 12        	sty	$12                     ; 0x2012 <main+0x1a80>
    2b90: 85 13        	sta	$13                     ; 0x2013 <main+0x1a81>
    2b92: 85 15        	sta	$15                     ; 0x2015 <main+0x1a83>
    2b94: a5 16        	lda	$16                     ; 0x2016 <main+0x1a84>
    2b96: 18           	clc
    2b97: 69 fd        	adc	#$fd
    2b99: 85 14        	sta	$14                     ; 0x2014 <main+0x1a82>
    2b9b: a5 15        	lda	$15                     ; 0x2015 <main+0x1a83>
    2b9d: a4 15        	ldy	$15                     ; 0x2015 <main+0x1a83>
    2b9f: 69 ff        	adc	#$ff
    2ba1: 85 15        	sta	$15                     ; 0x2015 <main+0x1a83>
    2ba3: b2 14        	lda	($14)                   ; 0x2014 <main+0x1a82>
    2ba5: 85 17        	sta	$17                     ; 0x2017 <main+0x1a85>
    2ba7: 18           	clc
    2ba8: a5 16        	lda	$16                     ; 0x2016 <main+0x1a84>
    2baa: 69 fe        	adc	#$fe
    2bac: 85 14        	sta	$14                     ; 0x2014 <main+0x1a82>
    2bae: 98           	tya
    2baf: 69 ff        	adc	#$ff
    2bb1: 85 15        	sta	$15                     ; 0x2015 <main+0x1a83>
    2bb3: b2 14        	lda	($14)                   ; 0x2014 <main+0x1a82>
    2bb5: 85 18        	sta	$18                     ; 0x2018 <main+0x1a86>
    2bb7: a0 01        	ldy	#$1
    2bb9: b1 14        	lda	($14),y                 ; 0x2014 <main+0x1a82>
    2bbb: 85 19        	sta	$19                     ; 0x2019 <main+0x1a87>
    2bbd: b2 12        	lda	($12)                   ; 0x2012 <main+0x1a80>
    2bbf: 85 14        	sta	$14                     ; 0x2014 <main+0x1a82>
    2bc1: b1 12        	lda	($12),y                 ; 0x2012 <main+0x1a80>
    2bc3: 85 15        	sta	$15                     ; 0x2015 <main+0x1a83>
    2bc5: c8           	iny
    2bc6: b1 12        	lda	($12),y                 ; 0x2012 <main+0x1a80>
    2bc8: 85 16        	sta	$16                     ; 0x2016 <main+0x1a84>
    2bca: c8           	iny
    2bcb: b1 12        	lda	($12),y                 ; 0x2012 <main+0x1a80>
    2bcd: 85 12        	sta	$12                     ; 0x2012 <main+0x1a80>
    2bcf: a5 17        	lda	$17                     ; 0x2017 <main+0x1a85>
    2bd1: 92 10        	sta	($10)                   ; 0x2010 <main+0x1a7e>
    2bd3: a9 00        	lda	#$0
    2bd5: a0 01        	ldy	#$1
    2bd7: 91 10        	sta	($10),y                 ; 0x2010 <main+0x1a7e>
    2bd9: a5 18        	lda	$18                     ; 0x2018 <main+0x1a86>
    2bdb: c8           	iny
    2bdc: 91 10        	sta	($10),y                 ; 0x2010 <main+0x1a7e>
    2bde: a5 19        	lda	$19                     ; 0x2019 <main+0x1a87>
    2be0: c8           	iny
    2be1: 91 10        	sta	($10),y                 ; 0x2010 <main+0x1a7e>
    2be3: c8           	iny
    2be4: a5 14        	lda	$14                     ; 0x2014 <main+0x1a82>
    2be6: 91 10        	sta	($10),y                 ; 0x2010 <main+0x1a7e>
    2be8: c8           	iny
    2be9: a5 15        	lda	$15                     ; 0x2015 <main+0x1a83>
    2beb: 91 10        	sta	($10),y                 ; 0x2010 <main+0x1a7e>
    2bed: c8           	iny
    2bee: a5 16        	lda	$16                     ; 0x2016 <main+0x1a84>
    2bf0: 91 10        	sta	($10),y                 ; 0x2010 <main+0x1a7e>
    2bf2: c8           	iny
    2bf3: a5 12        	lda	$12                     ; 0x2012 <main+0x1a80>
    2bf5: 91 10        	sta	($10),y                 ; 0x2010 <main+0x1a7e>
    2bf7: a0 5b        	ldy	#$5b
    2bf9: 84 12        	sty	$12                     ; 0x2012 <main+0x1a80>
    2bfb: a0 65        	ldy	#$65
    2bfd: 84 13        	sty	$13                     ; 0x2013 <main+0x1a81>
    2bff: 86 28        	stx	$28                     ; 0x2028 <main+0x1a96>
    2c01: 20 a6 3a     	jsr	$3aa6 <printf>
    2c04: a6 7a        	ldx	$7a                     ; 0x207a <main+0x1ae8>
    2c06: a4 7b        	ldy	$7b                     ; 0x207b <main+0x1ae9>
    2c08: a5 27        	lda	$27                     ; 0x2027 <main+0x1a95>
    2c0a: 5a           	phy
    2c0b: a4 28        	ldy	$28                     ; 0x2028 <main+0x1a96>
    2c0d: 84 12        	sty	$12                     ; 0x2012 <main+0x1a80>
    2c0f: a4 25        	ldy	$25                     ; 0x2025 <main+0x1a93>
    2c11: 84 13        	sty	$13                     ; 0x2013 <main+0x1a81>
    2c13: a4 26        	ldy	$26                     ; 0x2026 <main+0x1a94>
    2c15: 84 14        	sty	$14                     ; 0x2014 <main+0x1a82>
    2c17: e6 13        	inc	$13                     ; 0x2013 <main+0x1a81>
    2c19: d0 09        	bne	$2c24 <parse+0x906>
    2c1b: 1a           	inc
    2c1c: d0 06        	bne	$2c24 <parse+0x906>
    2c1e: e6 14        	inc	$14                     ; 0x2014 <main+0x1a82>
    2c20: d0 02        	bne	$2c24 <parse+0x906>
    2c22: e6 12        	inc	$12                     ; 0x2012 <main+0x1a80>
    2c24: a4 13        	ldy	$13                     ; 0x2013 <main+0x1a81>
    2c26: 84 25        	sty	$25                     ; 0x2025 <main+0x1a93>
    2c28: 85 27        	sta	$27                     ; 0x2027 <main+0x1a95>
    2c2a: a5 24        	lda	$24                     ; 0x2024 <main+0x1a92>
    2c2c: a4 14        	ldy	$14                     ; 0x2014 <main+0x1a82>
    2c2e: 84 26        	sty	$26                     ; 0x2026 <main+0x1a94>
    2c30: 7a           	ply
    2c31: 18           	clc
    2c32: 69 07        	adc	#$7
    2c34: 85 15        	sta	$15                     ; 0x2015 <main+0x1a83>
    2c36: a5 29        	lda	$29                     ; 0x2029 <main+0x1a97>
    2c38: 69 00        	adc	#$0
    2c3a: 85 13        	sta	$13                     ; 0x2013 <main+0x1a81>
    2c3c: a5 12        	lda	$12                     ; 0x2012 <main+0x1a80>
    2c3e: d0 18        	bne	$2c58 <parse+0x93a>
    2c40: a5 12        	lda	$12                     ; 0x2012 <main+0x1a80>
    2c42: 85 14        	sta	$14                     ; 0x2014 <main+0x1a82>
    2c44: a5 26        	lda	$26                     ; 0x2026 <main+0x1a94>
    2c46: d0 19        	bne	$2c61 <parse+0x943>
    2c48: 84 12        	sty	$12                     ; 0x2012 <main+0x1a80>
    2c4a: a4 27        	ldy	$27                     ; 0x2027 <main+0x1a95>
    2c4c: c4 12        	cpy	$12                     ; 0x2012 <main+0x1a80>
    2c4e: d0 17        	bne	$2c67 <parse+0x949>
    2c50: 86 12        	stx	$12                     ; 0x2012 <main+0x1a80>
    2c52: a6 25        	ldx	$25                     ; 0x2025 <main+0x1a93>
    2c54: e4 12        	cpx	$12                     ; 0x2012 <main+0x1a80>
    2c56: 80 11        	bra	$2c69 <parse+0x94b>
    2c58: a6 12        	ldx	$12                     ; 0x2012 <main+0x1a80>
    2c5a: e0 00        	cpx	#$0
    2c5c: b0 12        	bcs	$2c70 <parse+0x952>
    2c5e: 4c 79 2b     	jmp	$2b79 <parse+0x85b>
    2c61: a6 26        	ldx	$26                     ; 0x2026 <main+0x1a94>
    2c63: e0 00        	cpx	#$0
    2c65: 80 02        	bra	$2c69 <parse+0x94b>
    2c67: c4 12        	cpy	$12                     ; 0x2012 <main+0x1a80>
    2c69: a6 14        	ldx	$14                     ; 0x2014 <main+0x1a82>
    2c6b: b0 03        	bcs	$2c70 <parse+0x952>
    2c6d: 4c 79 2b     	jmp	$2b79 <parse+0x85b>
    2c70: a0 08        	ldy	#$8
    2c72: b1 10        	lda	($10),y                 ; 0x2010 <main+0x1a7e>
    2c74: 85 2f        	sta	$2f                     ; 0x202f <main+0x1a9d>
    2c76: c8           	iny
    2c77: b1 10        	lda	($10),y                 ; 0x2010 <main+0x1a7e>
    2c79: 85 2e        	sta	$2e                     ; 0x202e <main+0x1a9c>
    2c7b: c8           	iny
    2c7c: b1 10        	lda	($10),y                 ; 0x2010 <main+0x1a7e>
    2c7e: 85 2d        	sta	$2d                     ; 0x202d <main+0x1a9b>
    2c80: c8           	iny
    2c81: b1 10        	lda	($10),y                 ; 0x2010 <main+0x1a7e>
    2c83: 85 2c        	sta	$2c                     ; 0x202c <main+0x1a9a>
    2c85: c8           	iny
    2c86: b1 10        	lda	($10),y                 ; 0x2010 <main+0x1a7e>
    2c88: 85 2b        	sta	$2b                     ; 0x202b <main+0x1a99>
    2c8a: c8           	iny
    2c8b: b1 10        	lda	($10),y                 ; 0x2010 <main+0x1a7e>
    2c8d: 85 2a        	sta	$2a                     ; 0x202a <main+0x1a98>
    2c8f: c8           	iny
    2c90: b1 10        	lda	($10),y                 ; 0x2010 <main+0x1a7e>
    2c92: 85 29        	sta	$29                     ; 0x2029 <main+0x1a97>
    2c94: c8           	iny
    2c95: b1 10        	lda	($10),y                 ; 0x2010 <main+0x1a7e>
    2c97: 85 28        	sta	$28                     ; 0x2028 <main+0x1a96>
    2c99: fa           	plx
    2c9a: 86 27        	stx	$27                     ; 0x2027 <main+0x1a95>
    2c9c: fa           	plx
    2c9d: 86 26        	stx	$26                     ; 0x2026 <main+0x1a94>
    2c9f: fa           	plx
    2ca0: 86 25        	stx	$25                     ; 0x2025 <main+0x1a93>
    2ca2: fa           	plx
    2ca3: 86 24        	stx	$24                     ; 0x2024 <main+0x1a92>
    2ca5: 18           	clc
    2ca6: a5 10        	lda	$10                     ; 0x2010 <main+0x1a7e>
    2ca8: 69 1f        	adc	#$1f
    2caa: 85 10        	sta	$10                     ; 0x2010 <main+0x1a7e>
    2cac: a5 11        	lda	$11                     ; 0x2011 <main+0x1a7f>
    2cae: 69 00        	adc	#$0
    2cb0: 85 11        	sta	$11                     ; 0x2011 <main+0x1a7f>
    2cb2: 60           	rts
    2cb3: c9 21        	cmp	#$21
    2cb5: d0 03        	bne	$2cba <parse+0x99c>
    2cb7: 4c d8 2a     	jmp	$2ad8 <parse+0x7ba>
    2cba: a2 ff        	ldx	#$ff
    2cbc: 8a           	txa
    2cbd: 5a           	phy
    2cbe: a0 1b        	ldy	#$1b
    2cc0: 91 10        	sta	($10),y                 ; 0x2010 <main+0x1a7e>
    2cc2: 7a           	ply
    2cc3: a5 1e        	lda	$1e                     ; 0x201e <main+0x1a8c>
    2cc5: 4c f9 2a     	jmp	$2af9 <parse+0x7db>
    2cc8: 48           	pha
    2cc9: a0 1c        	ldy	#$1c
    2ccb: b1 10        	lda	($10),y                 ; 0x2010 <main+0x1a7e>
    2ccd: 85 14        	sta	$14                     ; 0x2014 <main+0x1a82>
    2ccf: 68           	pla
    2cd0: c5 14        	cmp	$14                     ; 0x2014 <main+0x1a82>
    2cd2: 4c 9e 28     	jmp	$289e <parse+0x580>
    2cd5: e4 14        	cpx	$14                     ; 0x2014 <main+0x1a82>
    2cd7: 4c 9e 28     	jmp	$289e <parse+0x580>
    2cda: 85 13        	sta	$13                     ; 0x2013 <main+0x1a81>
    2cdc: 46 13        	lsr	$13                     ; 0x2013 <main+0x1a81>
    2cde: 64 18        	stz	$18                     ; 0x2018 <main+0x1a86>
    2ce0: 66 18        	ror	$18                     ; 0x2018 <main+0x1a86>
    2ce2: a6 27        	ldx	$27                     ; 0x2027 <main+0x1a95>
    2ce4: 86 15        	stx	$15                     ; 0x2015 <main+0x1a83>
    2ce6: a6 14        	ldx	$14                     ; 0x2014 <main+0x1a82>
    2ce8: 86 27        	stx	$27                     ; 0x2027 <main+0x1a95>
    2cea: 46 15        	lsr	$15                     ; 0x2015 <main+0x1a83>
    2cec: 66 27        	ror	$27                     ; 0x2027 <main+0x1a95>
    2cee: 64 14        	stz	$14                     ; 0x2014 <main+0x1a82>
    2cf0: 66 14        	ror	$14                     ; 0x2014 <main+0x1a82>
    2cf2: 84 25        	sty	$25                     ; 0x2025 <main+0x1a93>
    2cf4: 46 25        	lsr	$25                     ; 0x2025 <main+0x1a93>
    2cf6: a6 1c        	ldx	$1c                     ; 0x201c <main+0x1a8a>
    2cf8: 86 1a        	stx	$1a                     ; 0x201a <main+0x1a88>
    2cfa: 66 1a        	ror	$1a                     ; 0x201a <main+0x1a88>
    2cfc: 66 22        	ror	$22                     ; 0x2022 <main+0x1a90>
    2cfe: 64 1b        	stz	$1b                     ; 0x201b <main+0x1a89>
    2d00: 66 1b        	ror	$1b                     ; 0x201b <main+0x1a89>
    2d02: a5 1f        	lda	$1f                     ; 0x201f <main+0x1a8d>
    2d04: 18           	clc
    2d05: 69 03        	adc	#$3
    2d07: 85 1c        	sta	$1c                     ; 0x201c <main+0x1a8a>
    2d09: a5 1e        	lda	$1e                     ; 0x201e <main+0x1a8c>
    2d0b: 69 00        	adc	#$0
    2d0d: a8           	tay
    2d0e: a5 24        	lda	$24                     ; 0x2024 <main+0x1a92>
    2d10: 69 04        	adc	#$4
    2d12: 84 17        	sty	$17                     ; 0x2017 <main+0x1a85>
    2d14: 06 17        	asl	$17                     ; 0x2017 <main+0x1a85>
    2d16: 2a           	rol
    2d17: 06 17        	asl	$17                     ; 0x2017 <main+0x1a85>
    2d19: 2a           	rol
    2d1a: 06 17        	asl	$17                     ; 0x2017 <main+0x1a85>
    2d1c: 2a           	rol
    2d1d: a6 0f        	ldx	$f                      ; 0x200f <main+0x1a7d>
    2d1f: 78           	sei
    2d20: 85 0f        	sta	$f                      ; 0x200f <main+0x1a7d>
    2d22: 98           	tya
    2d23: 09 e0        	ora	#$e0
    2d25: 85 1d        	sta	$1d                     ; 0x201d <main+0x1a8b>
    2d27: b2 1c        	lda	($1c)                   ; 0x201c <main+0x1a8a>
    2d29: 85 26        	sta	$26                     ; 0x2026 <main+0x1a94>
    2d2b: 86 0f        	stx	$f                      ; 0x200f <main+0x1a7d>
    2d2d: 18           	clc
    2d2e: a5 1f        	lda	$1f                     ; 0x201f <main+0x1a8d>
    2d30: 69 04        	adc	#$4
    2d32: 85 1c        	sta	$1c                     ; 0x201c <main+0x1a8a>
    2d34: a5 1e        	lda	$1e                     ; 0x201e <main+0x1a8c>
    2d36: 69 00        	adc	#$0
    2d38: 85 1d        	sta	$1d                     ; 0x201d <main+0x1a8b>
    2d3a: a5 24        	lda	$24                     ; 0x2024 <main+0x1a92>
    2d3c: 69 00        	adc	#$0
    2d3e: 85 1e        	sta	$1e                     ; 0x201e <main+0x1a8c>
    2d40: a5 23        	lda	$23                     ; 0x2023 <main+0x1a91>
    2d42: 69 00        	adc	#$0
    2d44: 85 1f        	sta	$1f                     ; 0x201f <main+0x1a8d>
    2d46: a6 25        	ldx	$25                     ; 0x2025 <main+0x1a93>
    2d48: 86 17        	stx	$17                     ; 0x2017 <main+0x1a85>
    2d4a: a5 18        	lda	$18                     ; 0x2018 <main+0x1a86>
    2d4c: 29 80        	and	#$80
    2d4e: 85 23        	sta	$23                     ; 0x2023 <main+0x1a91>
    2d50: a5 13        	lda	$13                     ; 0x2013 <main+0x1a81>
    2d52: 29 3f        	and	#$3f
    2d54: 85 25        	sta	$25                     ; 0x2025 <main+0x1a93>
    2d56: 58           	cli
    2d57: a5 22        	lda	$22                     ; 0x2022 <main+0x1a90>
    2d59: a6 1b        	ldx	$1b                     ; 0x201b <main+0x1a89>
    2d5b: 86 22        	stx	$22                     ; 0x2022 <main+0x1a90>
    2d5d: 85 1b        	sta	$1b                     ; 0x201b <main+0x1a89>
    2d5f: 4c 27 29     	jmp	$2927 <parse+0x609>
    2d62: 98           	tya
    2d63: 48           	pha
    2d64: 5a           	phy
    2d65: a0 1c        	ldy	#$1c
    2d67: b1 10        	lda	($10),y                 ; 0x2010 <main+0x1a7e>
    2d69: 7a           	ply
    2d6a: 85 13        	sta	$13                     ; 0x2013 <main+0x1a81>
    2d6c: 68           	pla
    2d6d: c4 13        	cpy	$13                     ; 0x2013 <main+0x1a81>
    2d6f: b0 03        	bcs	$2d74 <parse+0xa56>
    2d71: 4c aa 27     	jmp	$27aa <parse+0x48c>
    2d74: 4c 5a 27     	jmp	$275a <parse+0x43c>
    2d77: e4 14        	cpx	$14                     ; 0x2014 <main+0x1a82>
    2d79: 4c 38 2b     	jmp	$2b38 <parse+0x81a>
    2d7c: 18           	clc
    2d7d: a5 17        	lda	$17                     ; 0x2017 <main+0x1a85>
    2d7f: 69 01        	adc	#$1
    2d81: 85 1a        	sta	$1a                     ; 0x201a <main+0x1a88>
    2d83: a5 2c        	lda	$2c                     ; 0x202c <main+0x1a9a>
    2d85: 69 00        	adc	#$0
    2d87: 85 13        	sta	$13                     ; 0x2013 <main+0x1a81>
    2d89: a5 2d        	lda	$2d                     ; 0x202d <main+0x1a9b>
    2d8b: 69 04        	adc	#$4
    2d8d: 85 14        	sta	$14                     ; 0x2014 <main+0x1a82>
    2d8f: a5 13        	lda	$13                     ; 0x2013 <main+0x1a81>
    2d91: 0a           	asl
    2d92: 26 14        	rol	$14                     ; 0x2014 <main+0x1a82>
    2d94: 0a           	asl
    2d95: 26 14        	rol	$14                     ; 0x2014 <main+0x1a82>
    2d97: 0a           	asl
    2d98: a5 14        	lda	$14                     ; 0x2014 <main+0x1a82>
    2d9a: 2a           	rol
    2d9b: a6 0f        	ldx	$f                      ; 0x200f <main+0x1a7d>
    2d9d: 78           	sei
    2d9e: 85 0f        	sta	$f                      ; 0x200f <main+0x1a7d>
    2da0: a5 13        	lda	$13                     ; 0x2013 <main+0x1a81>
    2da2: 09 e0        	ora	#$e0
    2da4: 85 1b        	sta	$1b                     ; 0x201b <main+0x1a89>
    2da6: b2 1a        	lda	($1a)                   ; 0x201a <main+0x1a88>
    2da8: 86 0f        	stx	$f                      ; 0x200f <main+0x1a7d>
    2daa: 58           	cli
    2dab: 4c 7e 28     	jmp	$287e <parse+0x560>
    2dae: 18           	clc
    2daf: a5 17        	lda	$17                     ; 0x2017 <main+0x1a85>
    2db1: 69 01        	adc	#$1
    2db3: 85 1a        	sta	$1a                     ; 0x201a <main+0x1a88>
    2db5: a5 2c        	lda	$2c                     ; 0x202c <main+0x1a9a>
    2db7: 69 00        	adc	#$0
    2db9: 85 13        	sta	$13                     ; 0x2013 <main+0x1a81>
    2dbb: a5 2d        	lda	$2d                     ; 0x202d <main+0x1a9b>
    2dbd: 69 04        	adc	#$4
    2dbf: 85 14        	sta	$14                     ; 0x2014 <main+0x1a82>
    2dc1: a5 13        	lda	$13                     ; 0x2013 <main+0x1a81>
    2dc3: 0a           	asl
    2dc4: 26 14        	rol	$14                     ; 0x2014 <main+0x1a82>
    2dc6: 0a           	asl
    2dc7: 26 14        	rol	$14                     ; 0x2014 <main+0x1a82>
    2dc9: 0a           	asl
    2dca: a5 14        	lda	$14                     ; 0x2014 <main+0x1a82>
    2dcc: 2a           	rol
    2dcd: a6 0f        	ldx	$f                      ; 0x200f <main+0x1a7d>
    2dcf: 78           	sei
    2dd0: 85 0f        	sta	$f                      ; 0x200f <main+0x1a7d>
    2dd2: a5 13        	lda	$13                     ; 0x2013 <main+0x1a81>
    2dd4: 09 e0        	ora	#$e0
    2dd6: 85 1b        	sta	$1b                     ; 0x201b <main+0x1a89>
    2dd8: b2 1a        	lda	($1a)                   ; 0x201a <main+0x1a88>
    2dda: 86 0f        	stx	$f                      ; 0x200f <main+0x1a7d>
    2ddc: 58           	cli
    2ddd: 4c 7e 28     	jmp	$287e <parse+0x560>
    2de0: 18           	clc
    2de1: a5 17        	lda	$17                     ; 0x2017 <main+0x1a85>
    2de3: 69 01        	adc	#$1
    2de5: 85 1a        	sta	$1a                     ; 0x201a <main+0x1a88>
    2de7: a5 2c        	lda	$2c                     ; 0x202c <main+0x1a9a>
    2de9: 69 00        	adc	#$0
    2deb: 85 13        	sta	$13                     ; 0x2013 <main+0x1a81>
    2ded: a5 2d        	lda	$2d                     ; 0x202d <main+0x1a9b>
    2def: 69 04        	adc	#$4
    2df1: 85 14        	sta	$14                     ; 0x2014 <main+0x1a82>
    2df3: a5 13        	lda	$13                     ; 0x2013 <main+0x1a81>
    2df5: 0a           	asl
    2df6: 26 14        	rol	$14                     ; 0x2014 <main+0x1a82>
    2df8: 0a           	asl
    2df9: 26 14        	rol	$14                     ; 0x2014 <main+0x1a82>
    2dfb: 0a           	asl
    2dfc: a5 14        	lda	$14                     ; 0x2014 <main+0x1a82>
    2dfe: 2a           	rol
    2dff: a6 0f        	ldx	$f                      ; 0x200f <main+0x1a7d>
    2e01: 78           	sei
    2e02: 85 0f        	sta	$f                      ; 0x200f <main+0x1a7d>
    2e04: a5 13        	lda	$13                     ; 0x2013 <main+0x1a81>
    2e06: 09 e0        	ora	#$e0
    2e08: 85 1b        	sta	$1b                     ; 0x201b <main+0x1a89>
    2e0a: b2 1a        	lda	($1a)                   ; 0x201a <main+0x1a88>
    2e0c: 86 0f        	stx	$f                      ; 0x200f <main+0x1a7d>
    2e0e: 58           	cli
    2e0f: 4c 7e 28     	jmp	$287e <parse+0x560>
    2e12: 18           	clc
    2e13: a5 17        	lda	$17                     ; 0x2017 <main+0x1a85>
    2e15: 69 01        	adc	#$1
    2e17: 85 1a        	sta	$1a                     ; 0x201a <main+0x1a88>
    2e19: a5 2c        	lda	$2c                     ; 0x202c <main+0x1a9a>
    2e1b: 69 00        	adc	#$0
    2e1d: 85 13        	sta	$13                     ; 0x2013 <main+0x1a81>
    2e1f: a5 2d        	lda	$2d                     ; 0x202d <main+0x1a9b>
    2e21: 69 04        	adc	#$4
    2e23: 85 14        	sta	$14                     ; 0x2014 <main+0x1a82>
    2e25: a5 13        	lda	$13                     ; 0x2013 <main+0x1a81>
    2e27: 0a           	asl
    2e28: 26 14        	rol	$14                     ; 0x2014 <main+0x1a82>
    2e2a: 0a           	asl
    2e2b: 26 14        	rol	$14                     ; 0x2014 <main+0x1a82>
    2e2d: 0a           	asl
    2e2e: a5 14        	lda	$14                     ; 0x2014 <main+0x1a82>
    2e30: 2a           	rol
    2e31: a6 0f        	ldx	$f                      ; 0x200f <main+0x1a7d>
    2e33: 78           	sei
    2e34: 85 0f        	sta	$f                      ; 0x200f <main+0x1a7d>
    2e36: a5 13        	lda	$13                     ; 0x2013 <main+0x1a81>
    2e38: 09 e0        	ora	#$e0
    2e3a: 85 1b        	sta	$1b                     ; 0x201b <main+0x1a89>
    2e3c: b2 1a        	lda	($1a)                   ; 0x201a <main+0x1a88>
    2e3e: 86 0f        	stx	$f                      ; 0x200f <main+0x1a7d>
    2e40: 58           	cli
    2e41: 4c 7e 28     	jmp	$287e <parse+0x560>
    2e44: 18           	clc
    2e45: a5 17        	lda	$17                     ; 0x2017 <main+0x1a85>
    2e47: 69 01        	adc	#$1
    2e49: 85 1a        	sta	$1a                     ; 0x201a <main+0x1a88>
    2e4b: a5 2c        	lda	$2c                     ; 0x202c <main+0x1a9a>
    2e4d: 69 00        	adc	#$0
    2e4f: 85 13        	sta	$13                     ; 0x2013 <main+0x1a81>
    2e51: a5 2d        	lda	$2d                     ; 0x202d <main+0x1a9b>
    2e53: 69 04        	adc	#$4
    2e55: 85 14        	sta	$14                     ; 0x2014 <main+0x1a82>
    2e57: a5 13        	lda	$13                     ; 0x2013 <main+0x1a81>
    2e59: 0a           	asl
    2e5a: 26 14        	rol	$14                     ; 0x2014 <main+0x1a82>
    2e5c: 0a           	asl
    2e5d: 26 14        	rol	$14                     ; 0x2014 <main+0x1a82>
    2e5f: 0a           	asl
    2e60: a5 14        	lda	$14                     ; 0x2014 <main+0x1a82>
    2e62: 2a           	rol
    2e63: a6 0f        	ldx	$f                      ; 0x200f <main+0x1a7d>
    2e65: 78           	sei
    2e66: 85 0f        	sta	$f                      ; 0x200f <main+0x1a7d>
    2e68: a5 13        	lda	$13                     ; 0x2013 <main+0x1a81>
    2e6a: 09 e0        	ora	#$e0
    2e6c: 85 1b        	sta	$1b                     ; 0x201b <main+0x1a89>
    2e6e: b2 1a        	lda	($1a)                   ; 0x201a <main+0x1a88>
    2e70: 86 0f        	stx	$f                      ; 0x200f <main+0x1a7d>
    2e72: 58           	cli
    2e73: 4c 7e 28     	jmp	$287e <parse+0x560>
    2e76: 18           	clc
    2e77: a5 17        	lda	$17                     ; 0x2017 <main+0x1a85>
    2e79: 69 01        	adc	#$1
    2e7b: 85 1a        	sta	$1a                     ; 0x201a <main+0x1a88>
    2e7d: a5 2c        	lda	$2c                     ; 0x202c <main+0x1a9a>
    2e7f: 69 00        	adc	#$0
    2e81: 85 13        	sta	$13                     ; 0x2013 <main+0x1a81>
    2e83: a5 2d        	lda	$2d                     ; 0x202d <main+0x1a9b>
    2e85: 69 04        	adc	#$4
    2e87: 85 14        	sta	$14                     ; 0x2014 <main+0x1a82>
    2e89: a5 13        	lda	$13                     ; 0x2013 <main+0x1a81>
    2e8b: 0a           	asl
    2e8c: 26 14        	rol	$14                     ; 0x2014 <main+0x1a82>
    2e8e: 0a           	asl
    2e8f: 26 14        	rol	$14                     ; 0x2014 <main+0x1a82>
    2e91: 0a           	asl
    2e92: a5 14        	lda	$14                     ; 0x2014 <main+0x1a82>
    2e94: 2a           	rol
    2e95: a6 0f        	ldx	$f                      ; 0x200f <main+0x1a7d>
    2e97: 78           	sei
    2e98: 85 0f        	sta	$f                      ; 0x200f <main+0x1a7d>
    2e9a: a5 13        	lda	$13                     ; 0x2013 <main+0x1a81>
    2e9c: 09 e0        	ora	#$e0
    2e9e: 85 1b        	sta	$1b                     ; 0x201b <main+0x1a89>
    2ea0: b2 1a        	lda	($1a)                   ; 0x201a <main+0x1a88>
    2ea2: 86 0f        	stx	$f                      ; 0x200f <main+0x1a7d>
    2ea4: 58           	cli
    2ea5: 4c 7e 28     	jmp	$287e <parse+0x560>
    2ea8: 18           	clc
    2ea9: a5 17        	lda	$17                     ; 0x2017 <main+0x1a85>
    2eab: 69 01        	adc	#$1
    2ead: 85 1a        	sta	$1a                     ; 0x201a <main+0x1a88>
    2eaf: a5 2c        	lda	$2c                     ; 0x202c <main+0x1a9a>
    2eb1: 69 00        	adc	#$0
    2eb3: 85 13        	sta	$13                     ; 0x2013 <main+0x1a81>
    2eb5: a5 2d        	lda	$2d                     ; 0x202d <main+0x1a9b>
    2eb7: 69 04        	adc	#$4
    2eb9: 85 14        	sta	$14                     ; 0x2014 <main+0x1a82>
    2ebb: a5 13        	lda	$13                     ; 0x2013 <main+0x1a81>
    2ebd: 0a           	asl
    2ebe: 26 14        	rol	$14                     ; 0x2014 <main+0x1a82>
    2ec0: 0a           	asl
    2ec1: 26 14        	rol	$14                     ; 0x2014 <main+0x1a82>
    2ec3: 0a           	asl
    2ec4: a5 14        	lda	$14                     ; 0x2014 <main+0x1a82>
    2ec6: 2a           	rol
    2ec7: a6 0f        	ldx	$f                      ; 0x200f <main+0x1a7d>
    2ec9: 78           	sei
    2eca: 85 0f        	sta	$f                      ; 0x200f <main+0x1a7d>
    2ecc: a5 13        	lda	$13                     ; 0x2013 <main+0x1a81>
    2ece: 09 e0        	ora	#$e0
    2ed0: 85 1b        	sta	$1b                     ; 0x201b <main+0x1a89>
    2ed2: b2 1a        	lda	($1a)                   ; 0x201a <main+0x1a88>
    2ed4: 86 0f        	stx	$f                      ; 0x200f <main+0x1a7d>
    2ed6: 58           	cli
    2ed7: 4c 7e 28     	jmp	$287e <parse+0x560>
    2eda: 48           	pha
    2edb: a0 1c        	ldy	#$1c
    2edd: b1 10        	lda	($10),y                 ; 0x2010 <main+0x1a7e>
    2edf: 85 29        	sta	$29                     ; 0x2029 <main+0x1a97>
    2ee1: 68           	pla
    2ee2: a0 13        	ldy	#$13
    2ee4: 91 10        	sta	($10),y                 ; 0x2010 <main+0x1a7e>
    2ee6: a5 14        	lda	$14                     ; 0x2014 <main+0x1a82>
    2ee8: 05 22        	ora	$22                     ; 0x2022 <main+0x1a90>
    2eea: aa           	tax
    2eeb: a5 27        	lda	$27                     ; 0x2027 <main+0x1a95>
    2eed: 05 1b        	ora	$1b                     ; 0x201b <main+0x1a89>
    2eef: a8           	tay
    2ef0: a5 15        	lda	$15                     ; 0x2015 <main+0x1a83>
    2ef2: 05 1a        	ora	$1a                     ; 0x201a <main+0x1a88>
    2ef4: 85 16        	sta	$16                     ; 0x2016 <main+0x1a84>
    2ef6: 8a           	txa
    2ef7: 05 23        	ora	$23                     ; 0x2023 <main+0x1a91>
    2ef9: aa           	tax
    2efa: 98           	tya
    2efb: 05 25        	ora	$25                     ; 0x2025 <main+0x1a93>
    2efd: 85 22        	sta	$22                     ; 0x2022 <main+0x1a90>
    2eff: 8a           	txa
    2f00: 05 26        	ora	$26                     ; 0x2026 <main+0x1a94>
    2f02: 85 18        	sta	$18                     ; 0x2018 <main+0x1a86>
    2f04: a0 1e        	ldy	#$1e
    2f06: b1 10        	lda	($10),y                 ; 0x2010 <main+0x1a7e>
    2f08: 0a           	asl
    2f09: a6 12        	ldx	$12                     ; 0x2012 <main+0x1a80>
    2f0b: 86 14        	stx	$14                     ; 0x2014 <main+0x1a82>
    2f0d: 26 14        	rol	$14                     ; 0x2014 <main+0x1a82>
    2f0f: 0a           	asl
    2f10: 26 14        	rol	$14                     ; 0x2014 <main+0x1a82>
    2f12: 0a           	asl
    2f13: 85 1d        	sta	$1d                     ; 0x201d <main+0x1a8b>
    2f15: 26 14        	rol	$14                     ; 0x2014 <main+0x1a82>
    2f17: a4 14        	ldy	$14                     ; 0x2014 <main+0x1a82>
    2f19: a6 13        	ldx	$13                     ; 0x2013 <main+0x1a81>
    2f1b: e0 c0        	cpx	#$c0
    2f1d: 8a           	txa
    2f1e: 5a           	phy
    2f1f: a0 1b        	ldy	#$1b
    2f21: 91 10        	sta	($10),y                 ; 0x2010 <main+0x1a7e>
    2f23: 7a           	ply
    2f24: b0 03        	bcs	$2f29 <parse+0xc0b>
    2f26: 4c b2 32     	jmp	$32b2 <parse+0xf94>
    2f29: a6 13        	ldx	$13                     ; 0x2013 <main+0x1a81>
    2f2b: e0 e0        	cpx	#$e0
    2f2d: 90 03        	bcc	$2f32 <parse+0xc14>
    2f2f: 4c c8 32     	jmp	$32c8 <parse+0xfaa>
    2f32: a6 7c        	ldx	$7c                     ; 0x207c <main+0x1aea>
    2f34: 86 1c        	stx	$1c                     ; 0x201c <main+0x1a8a>
    2f36: a6 7d        	ldx	$7d                     ; 0x207d <main+0x1aeb>
    2f38: 86 19        	stx	$19                     ; 0x2019 <main+0x1a87>
    2f3a: 5a           	phy
    2f3b: a0 1a        	ldy	#$1a
    2f3d: b1 10        	lda	($10),y                 ; 0x2010 <main+0x1a7e>
    2f3f: 7a           	ply
    2f40: c9 00        	cmp	#$0
    2f42: d0 03        	bne	$2f47 <parse+0xc29>
    2f44: 4c 8b 36     	jmp	$368b <parse+0x136d>
    2f47: 38           	sec
    2f48: 5a           	phy
    2f49: a0 1e        	ldy	#$1e
    2f4b: b1 10        	lda	($10),y                 ; 0x2010 <main+0x1a7e>
    2f4d: 7a           	ply
    2f4e: 85 13        	sta	$13                     ; 0x2013 <main+0x1a81>
    2f50: a5 1d        	lda	$1d                     ; 0x201d <main+0x1a8b>
    2f52: e5 13        	sbc	$13                     ; 0x2013 <main+0x1a81>
    2f54: 85 13        	sta	$13                     ; 0x2013 <main+0x1a81>
    2f56: 98           	tya
    2f57: e5 12        	sbc	$12                     ; 0x2012 <main+0x1a80>
    2f59: 85 1a        	sta	$1a                     ; 0x201a <main+0x1a88>
    2f5b: 18           	clc
    2f5c: a5 1c        	lda	$1c                     ; 0x201c <main+0x1a8a>
    2f5e: 65 13        	adc	$13                     ; 0x2013 <main+0x1a81>
    2f60: aa           	tax
    2f61: a5 19        	lda	$19                     ; 0x2019 <main+0x1a87>
    2f63: 65 1a        	adc	$1a                     ; 0x201a <main+0x1a88>
    2f65: 86 1a        	stx	$1a                     ; 0x201a <main+0x1a88>
    2f67: 85 1b        	sta	$1b                     ; 0x201b <main+0x1a89>
    2f69: a8           	tay
    2f6a: 18           	clc
    2f6b: 8a           	txa
    2f6c: 69 03        	adc	#$3
    2f6e: 85 1c        	sta	$1c                     ; 0x201c <main+0x1a8a>
    2f70: 98           	tya
    2f71: 69 00        	adc	#$0
    2f73: 85 1d        	sta	$1d                     ; 0x201d <main+0x1a8b>
    2f75: a0 15        	ldy	#$15
    2f77: b1 10        	lda	($10),y                 ; 0x2010 <main+0x1a7e>
    2f79: 0a           	asl
    2f7a: 48           	pha
    2f7b: 88           	dey
    2f7c: b1 10        	lda	($10),y                 ; 0x2010 <main+0x1a7e>
    2f7e: 85 13        	sta	$13                     ; 0x2013 <main+0x1a81>
    2f80: 68           	pla
    2f81: 26 13        	rol	$13                     ; 0x2013 <main+0x1a81>
    2f83: 64 14        	stz	$14                     ; 0x2014 <main+0x1a82>
    2f85: 26 14        	rol	$14                     ; 0x2014 <main+0x1a82>
    2f87: 0a           	asl
    2f88: 26 13        	rol	$13                     ; 0x2013 <main+0x1a81>
    2f8a: 26 14        	rol	$14                     ; 0x2014 <main+0x1a82>
    2f8c: 0a           	asl
    2f8d: a6 13        	ldx	$13                     ; 0x2013 <main+0x1a81>
    2f8f: 86 15        	stx	$15                     ; 0x2015 <main+0x1a83>
    2f91: 26 15        	rol	$15                     ; 0x2015 <main+0x1a83>
    2f93: a6 14        	ldx	$14                     ; 0x2014 <main+0x1a82>
    2f95: 86 13        	stx	$13                     ; 0x2013 <main+0x1a81>
    2f97: 26 13        	rol	$13                     ; 0x2013 <main+0x1a81>
    2f99: 18           	clc
    2f9a: a0 03        	ldy	#$3
    2f9c: 71 1a        	adc	($1a),y                 ; 0x201a <main+0x1a88>
    2f9e: 85 2a        	sta	$2a                     ; 0x202a <main+0x1a98>
    2fa0: a0 01        	ldy	#$1
    2fa2: a5 15        	lda	$15                     ; 0x2015 <main+0x1a83>
    2fa4: 71 1c        	adc	($1c),y                 ; 0x201c <main+0x1a8a>
    2fa6: 85 27        	sta	$27                     ; 0x2027 <main+0x1a95>
    2fa8: c8           	iny
    2fa9: a5 13        	lda	$13                     ; 0x2013 <main+0x1a81>
    2fab: 71 1c        	adc	($1c),y                 ; 0x201c <main+0x1a8a>
    2fad: a0 1d        	ldy	#$1d
    2faf: 91 10        	sta	($10),y                 ; 0x2010 <main+0x1a7e>
    2fb1: a6 75        	ldx	$75                     ; 0x2075 <main+0x1ae3>
    2fb3: 86 19        	stx	$19                     ; 0x2019 <main+0x1a87>
    2fb5: a6 18        	ldx	$18                     ; 0x2018 <main+0x1a86>
    2fb7: 86 14        	stx	$14                     ; 0x2014 <main+0x1a82>
    2fb9: a5 76        	lda	$76                     ; 0x2076 <main+0x1ae4>
    2fbb: a4 77        	ldy	$77                     ; 0x2077 <main+0x1ae5>
    2fbd: a6 78        	ldx	$78                     ; 0x2078 <main+0x1ae6>
    2fbf: 48           	pha
    2fc0: a5 12        	lda	$12                     ; 0x2012 <main+0x1a80>
    2fc2: 85 28        	sta	$28                     ; 0x2028 <main+0x1a96>
    2fc4: 68           	pla
    2fc5: 48           	pha
    2fc6: a5 29        	lda	$29                     ; 0x2029 <main+0x1a97>
    2fc8: 5a           	phy
    2fc9: a0 1c        	ldy	#$1c
    2fcb: 91 10        	sta	($10),y                 ; 0x2010 <main+0x1a7e>
    2fcd: 7a           	ply
    2fce: 68           	pla
    2fcf: 84 12        	sty	$12                     ; 0x2012 <main+0x1a80>
    2fd1: 86 13        	stx	$13                     ; 0x2013 <main+0x1a81>
    2fd3: a6 22        	ldx	$22                     ; 0x2022 <main+0x1a90>
    2fd5: 86 15        	stx	$15                     ; 0x2015 <main+0x1a83>
    2fd7: aa           	tax
    2fd8: a5 19        	lda	$19                     ; 0x2019 <main+0x1a87>
    2fda: 20 f6 4a     	jsr	$4af6 <__mulsi3>
    2fdd: 85 16        	sta	$16                     ; 0x2016 <main+0x1a84>
    2fdf: 86 17        	stx	$17                     ; 0x2017 <main+0x1a85>
    2fe1: a4 12        	ldy	$12                     ; 0x2012 <main+0x1a80>
    2fe3: a6 28        	ldx	$28                     ; 0x2028 <main+0x1a96>
    2fe5: 86 12        	stx	$12                     ; 0x2012 <main+0x1a80>
    2fe7: a5 2a        	lda	$2a                     ; 0x202a <main+0x1a98>
    2fe9: 18           	clc
    2fea: 69 00        	adc	#$0
    2fec: a5 27        	lda	$27                     ; 0x2027 <main+0x1a95>
    2fee: 69 00        	adc	#$0
    2ff0: 85 18        	sta	$18                     ; 0x2018 <main+0x1a86>
    2ff2: 5a           	phy
    2ff3: a0 1d        	ldy	#$1d
    2ff5: b1 10        	lda	($10),y                 ; 0x2010 <main+0x1a7e>
    2ff7: 7a           	ply
    2ff8: 69 06        	adc	#$6
    2ffa: 06 18        	asl	$18                     ; 0x2018 <main+0x1a86>
    2ffc: 2a           	rol
    2ffd: 06 18        	asl	$18                     ; 0x2018 <main+0x1a86>
    2fff: 2a           	rol
    3000: 06 18        	asl	$18                     ; 0x2018 <main+0x1a86>
    3002: 2a           	rol
    3003: a6 0f        	ldx	$f                      ; 0x200f <main+0x1a7d>
    3005: 78           	sei
    3006: 85 0f        	sta	$f                      ; 0x200f <main+0x1a7d>
    3008: a5 27        	lda	$27                     ; 0x2027 <main+0x1a95>
    300a: 09 e0        	ora	#$e0
    300c: 5a           	phy
    300d: a4 2a        	ldy	$2a                     ; 0x202a <main+0x1a98>
    300f: 84 1a        	sty	$1a                     ; 0x201a <main+0x1a88>
    3011: 7a           	ply
    3012: 85 1b        	sta	$1b                     ; 0x201b <main+0x1a89>
    3014: 98           	tya
    3015: 92 1a        	sta	($1a)                   ; 0x201a <main+0x1a88>
    3017: a0 01        	ldy	#$1
    3019: a5 13        	lda	$13                     ; 0x2013 <main+0x1a81>
    301b: 91 1a        	sta	($1a),y                 ; 0x201a <main+0x1a88>
    301d: 86 0f        	stx	$f                      ; 0x200f <main+0x1a7d>
    301f: a5 2a        	lda	$2a                     ; 0x202a <main+0x1a98>
    3021: 18           	clc
    3022: 69 02        	adc	#$2
    3024: 85 1a        	sta	$1a                     ; 0x201a <main+0x1a88>
    3026: a5 27        	lda	$27                     ; 0x2027 <main+0x1a95>
    3028: 69 00        	adc	#$0
    302a: 85 18        	sta	$18                     ; 0x2018 <main+0x1a86>
    302c: 5a           	phy
    302d: a0 1d        	ldy	#$1d
    302f: b1 10        	lda	($10),y                 ; 0x2010 <main+0x1a7e>
    3031: 7a           	ply
    3032: 69 06        	adc	#$6
    3034: a6 18        	ldx	$18                     ; 0x2018 <main+0x1a86>
    3036: 86 13        	stx	$13                     ; 0x2013 <main+0x1a81>
    3038: 06 13        	asl	$13                     ; 0x2013 <main+0x1a81>
    303a: 2a           	rol
    303b: 06 13        	asl	$13                     ; 0x2013 <main+0x1a81>
    303d: 2a           	rol
    303e: 06 13        	asl	$13                     ; 0x2013 <main+0x1a81>
    3040: 2a           	rol
    3041: 58           	cli
    3042: a6 0f        	ldx	$f                      ; 0x200f <main+0x1a7d>
    3044: 78           	sei
    3045: 85 0f        	sta	$f                      ; 0x200f <main+0x1a7d>
    3047: a5 18        	lda	$18                     ; 0x2018 <main+0x1a86>
    3049: 09 e0        	ora	#$e0
    304b: 85 1b        	sta	$1b                     ; 0x201b <main+0x1a89>
    304d: a5 16        	lda	$16                     ; 0x2016 <main+0x1a84>
    304f: 92 1a        	sta	($1a)                   ; 0x201a <main+0x1a88>
    3051: a5 17        	lda	$17                     ; 0x2017 <main+0x1a85>
    3053: 91 1a        	sta	($1a),y                 ; 0x201a <main+0x1a88>
    3055: 86 0f        	stx	$f                      ; 0x200f <main+0x1a7d>
    3057: a5 2a        	lda	$2a                     ; 0x202a <main+0x1a98>
    3059: 18           	clc
    305a: 69 04        	adc	#$4
    305c: 85 1a        	sta	$1a                     ; 0x201a <main+0x1a88>
    305e: a5 27        	lda	$27                     ; 0x2027 <main+0x1a95>
    3060: 69 00        	adc	#$0
    3062: a8           	tay
    3063: 5a           	phy
    3064: a0 1d        	ldy	#$1d
    3066: b1 10        	lda	($10),y                 ; 0x2010 <main+0x1a7e>
    3068: 7a           	ply
    3069: 69 06        	adc	#$6
    306b: 84 13        	sty	$13                     ; 0x2013 <main+0x1a81>
    306d: 06 13        	asl	$13                     ; 0x2013 <main+0x1a81>
    306f: 2a           	rol
    3070: 06 13        	asl	$13                     ; 0x2013 <main+0x1a81>
    3072: 2a           	rol
    3073: 06 13        	asl	$13                     ; 0x2013 <main+0x1a81>
    3075: 2a           	rol
    3076: 58           	cli
    3077: a6 0f        	ldx	$f                      ; 0x200f <main+0x1a7d>
    3079: 78           	sei
    307a: 85 0f        	sta	$f                      ; 0x200f <main+0x1a7d>
    307c: 98           	tya
    307d: 09 e0        	ora	#$e0
    307f: 85 1b        	sta	$1b                     ; 0x201b <main+0x1a89>
    3081: a9 02        	lda	#$2
    3083: 92 1a        	sta	($1a)                   ; 0x201a <main+0x1a88>
    3085: 86 0f        	stx	$f                      ; 0x200f <main+0x1a7d>
    3087: a5 2a        	lda	$2a                     ; 0x202a <main+0x1a98>
    3089: 18           	clc
    308a: 69 05        	adc	#$5
    308c: 85 1a        	sta	$1a                     ; 0x201a <main+0x1a88>
    308e: a5 27        	lda	$27                     ; 0x2027 <main+0x1a95>
    3090: 69 00        	adc	#$0
    3092: a8           	tay
    3093: 5a           	phy
    3094: a0 1d        	ldy	#$1d
    3096: b1 10        	lda	($10),y                 ; 0x2010 <main+0x1a7e>
    3098: 7a           	ply
    3099: 69 06        	adc	#$6
    309b: 84 13        	sty	$13                     ; 0x2013 <main+0x1a81>
    309d: 06 13        	asl	$13                     ; 0x2013 <main+0x1a81>
    309f: 2a           	rol
    30a0: 06 13        	asl	$13                     ; 0x2013 <main+0x1a81>
    30a2: 2a           	rol
    30a3: 06 13        	asl	$13                     ; 0x2013 <main+0x1a81>
    30a5: 2a           	rol
    30a6: 58           	cli
    30a7: a6 0f        	ldx	$f                      ; 0x200f <main+0x1a7d>
    30a9: 78           	sei
    30aa: 85 0f        	sta	$f                      ; 0x200f <main+0x1a7d>
    30ac: 98           	tya
    30ad: 09 e0        	ora	#$e0
    30af: 85 1b        	sta	$1b                     ; 0x201b <main+0x1a89>
    30b1: a0 1b        	ldy	#$1b
    30b3: b1 10        	lda	($10),y                 ; 0x2010 <main+0x1a7e>
    30b5: 92 1a        	sta	($1a)                   ; 0x201a <main+0x1a88>
    30b7: 86 0f        	stx	$f                      ; 0x200f <main+0x1a7d>
    30b9: a5 2a        	lda	$2a                     ; 0x202a <main+0x1a98>
    30bb: 18           	clc
    30bc: 69 06        	adc	#$6
    30be: 85 1a        	sta	$1a                     ; 0x201a <main+0x1a88>
    30c0: a5 27        	lda	$27                     ; 0x2027 <main+0x1a95>
    30c2: 69 00        	adc	#$0
    30c4: a8           	tay
    30c5: 5a           	phy
    30c6: a0 1d        	ldy	#$1d
    30c8: b1 10        	lda	($10),y                 ; 0x2010 <main+0x1a7e>
    30ca: 7a           	ply
    30cb: 69 06        	adc	#$6
    30cd: 84 13        	sty	$13                     ; 0x2013 <main+0x1a81>
    30cf: 06 13        	asl	$13                     ; 0x2013 <main+0x1a81>
    30d1: 2a           	rol
    30d2: 06 13        	asl	$13                     ; 0x2013 <main+0x1a81>
    30d4: 2a           	rol
    30d5: 06 13        	asl	$13                     ; 0x2013 <main+0x1a81>
    30d7: 2a           	rol
    30d8: 58           	cli
    30d9: a6 0f        	ldx	$f                      ; 0x200f <main+0x1a7d>
    30db: 78           	sei
    30dc: 85 0f        	sta	$f                      ; 0x200f <main+0x1a7d>
    30de: 98           	tya
    30df: 09 e0        	ora	#$e0
    30e1: 85 1b        	sta	$1b                     ; 0x201b <main+0x1a89>
    30e3: a5 24        	lda	$24                     ; 0x2024 <main+0x1a92>
    30e5: 92 1a        	sta	($1a)                   ; 0x201a <main+0x1a88>
    30e7: 86 0f        	stx	$f                      ; 0x200f <main+0x1a7d>
    30e9: 58           	cli
    30ea: 18           	clc
    30eb: a5 2a        	lda	$2a                     ; 0x202a <main+0x1a98>
    30ed: 69 07        	adc	#$7
    30ef: 85 1a        	sta	$1a                     ; 0x201a <main+0x1a88>
    30f1: a5 27        	lda	$27                     ; 0x2027 <main+0x1a95>
    30f3: 69 00        	adc	#$0
    30f5: a8           	tay
    30f6: 5a           	phy
    30f7: a0 1d        	ldy	#$1d
    30f9: b1 10        	lda	($10),y                 ; 0x2010 <main+0x1a7e>
    30fb: 7a           	ply
    30fc: 69 06        	adc	#$6
    30fe: 85 13        	sta	$13                     ; 0x2013 <main+0x1a81>
    3100: 98           	tya
    3101: 0a           	asl
    3102: 26 13        	rol	$13                     ; 0x2013 <main+0x1a81>
    3104: 0a           	asl
    3105: 26 13        	rol	$13                     ; 0x2013 <main+0x1a81>
    3107: 0a           	asl
    3108: a5 13        	lda	$13                     ; 0x2013 <main+0x1a81>
    310a: 2a           	rol
    310b: a6 0f        	ldx	$f                      ; 0x200f <main+0x1a7d>
    310d: 78           	sei
    310e: 85 0f        	sta	$f                      ; 0x200f <main+0x1a7d>
    3110: 98           	tya
    3111: 09 e0        	ora	#$e0
    3113: 85 1b        	sta	$1b                     ; 0x201b <main+0x1a89>
    3115: a9 00        	lda	#$0
    3117: 92 1a        	sta	($1a)                   ; 0x201a <main+0x1a88>
    3119: 86 0f        	stx	$f                      ; 0x200f <main+0x1a7d>
    311b: 58           	cli
    311c: a0 14        	ldy	#$14
    311e: b1 10        	lda	($10),y                 ; 0x2010 <main+0x1a7e>
    3120: aa           	tax
    3121: c8           	iny
    3122: b1 10        	lda	($10),y                 ; 0x2010 <main+0x1a7e>
    3124: a8           	tay
    3125: c8           	iny
    3126: d0 01        	bne	$3129 <parse+0xe0b>
    3128: e8           	inx
    3129: 98           	tya
    312a: a0 15        	ldy	#$15
    312c: 91 10        	sta	($10),y                 ; 0x2010 <main+0x1a7e>
    312e: 8a           	txa
    312f: 88           	dey
    3130: 91 10        	sta	($10),y                 ; 0x2010 <main+0x1a7e>
    3132: 4c cb 36     	jmp	$36cb <parse+0x13ad>
    3135: 38           	sec
    3136: e9 51        	sbc	#$51
    3138: c9 09        	cmp	#$9
    313a: 90 03        	bcc	$313f <parse+0xe21>
    313c: 4c ba 2c     	jmp	$2cba <parse+0x99c>
    313f: 0a           	asl
    3140: aa           	tax
    3141: 7c c9 64     	jmp	($64c9,x)               ; 0x64c9 <__set_v+0x11>
    3144: a4 17        	ldy	$17                     ; 0x2017 <main+0x1a85>
    3146: a5 17        	lda	$17                     ; 0x2017 <main+0x1a85>
    3148: 18           	clc
    3149: 69 01        	adc	#$1
    314b: 85 1a        	sta	$1a                     ; 0x201a <main+0x1a88>
    314d: a6 2c        	ldx	$2c                     ; 0x202c <main+0x1a9a>
    314f: a5 2c        	lda	$2c                     ; 0x202c <main+0x1a9a>
    3151: 69 00        	adc	#$0
    3153: 85 15        	sta	$15                     ; 0x2015 <main+0x1a83>
    3155: 86 14        	stx	$14                     ; 0x2014 <main+0x1a82>
    3157: a5 2d        	lda	$2d                     ; 0x202d <main+0x1a9b>
    3159: 69 04        	adc	#$4
    315b: a6 0f        	ldx	$f                      ; 0x200f <main+0x1a7d>
    315d: 78           	sei
    315e: 5a           	phy
    315f: a4 15        	ldy	$15                     ; 0x2015 <main+0x1a83>
    3161: 84 13        	sty	$13                     ; 0x2013 <main+0x1a81>
    3163: 7a           	ply
    3164: 06 13        	asl	$13                     ; 0x2013 <main+0x1a81>
    3166: 2a           	rol
    3167: 06 13        	asl	$13                     ; 0x2013 <main+0x1a81>
    3169: 2a           	rol
    316a: 06 13        	asl	$13                     ; 0x2013 <main+0x1a81>
    316c: 2a           	rol
    316d: 85 0f        	sta	$f                      ; 0x200f <main+0x1a7d>
    316f: a5 15        	lda	$15                     ; 0x2015 <main+0x1a83>
    3171: 09 e0        	ora	#$e0
    3173: 85 1b        	sta	$1b                     ; 0x201b <main+0x1a89>
    3175: b2 1a        	lda	($1a)                   ; 0x201a <main+0x1a88>
    3177: 86 0f        	stx	$f                      ; 0x200f <main+0x1a7d>
    3179: 58           	cli
    317a: 98           	tya
    317b: 18           	clc
    317c: 69 02        	adc	#$2
    317e: 85 1a        	sta	$1a                     ; 0x201a <main+0x1a88>
    3180: a5 14        	lda	$14                     ; 0x2014 <main+0x1a82>
    3182: 69 00        	adc	#$0
    3184: 85 15        	sta	$15                     ; 0x2015 <main+0x1a83>
    3186: a5 2d        	lda	$2d                     ; 0x202d <main+0x1a9b>
    3188: 69 04        	adc	#$4
    318a: a6 0f        	ldx	$f                      ; 0x200f <main+0x1a7d>
    318c: 78           	sei
    318d: 5a           	phy
    318e: a4 15        	ldy	$15                     ; 0x2015 <main+0x1a83>
    3190: 84 13        	sty	$13                     ; 0x2013 <main+0x1a81>
    3192: 7a           	ply
    3193: 06 13        	asl	$13                     ; 0x2013 <main+0x1a81>
    3195: 2a           	rol
    3196: 06 13        	asl	$13                     ; 0x2013 <main+0x1a81>
    3198: 2a           	rol
    3199: 06 13        	asl	$13                     ; 0x2013 <main+0x1a81>
    319b: 2a           	rol
    319c: 85 0f        	sta	$f                      ; 0x200f <main+0x1a7d>
    319e: a5 15        	lda	$15                     ; 0x2015 <main+0x1a83>
    31a0: 09 e0        	ora	#$e0
    31a2: 85 1b        	sta	$1b                     ; 0x201b <main+0x1a89>
    31a4: b2 1a        	lda	($1a)                   ; 0x201a <main+0x1a88>
    31a6: 85 25        	sta	$25                     ; 0x2025 <main+0x1a93>
    31a8: 86 0f        	stx	$f                      ; 0x200f <main+0x1a7d>
    31aa: 58           	cli
    31ab: 98           	tya
    31ac: 18           	clc
    31ad: 69 03        	adc	#$3
    31af: 85 1a        	sta	$1a                     ; 0x201a <main+0x1a88>
    31b1: a5 14        	lda	$14                     ; 0x2014 <main+0x1a82>
    31b3: 69 00        	adc	#$0
    31b5: 85 15        	sta	$15                     ; 0x2015 <main+0x1a83>
    31b7: a5 2d        	lda	$2d                     ; 0x202d <main+0x1a9b>
    31b9: 69 04        	adc	#$4
    31bb: a6 0f        	ldx	$f                      ; 0x200f <main+0x1a7d>
    31bd: 78           	sei
    31be: 5a           	phy
    31bf: a4 15        	ldy	$15                     ; 0x2015 <main+0x1a83>
    31c1: 84 13        	sty	$13                     ; 0x2013 <main+0x1a81>
    31c3: 7a           	ply
    31c4: 06 13        	asl	$13                     ; 0x2013 <main+0x1a81>
    31c6: 2a           	rol
    31c7: 06 13        	asl	$13                     ; 0x2013 <main+0x1a81>
    31c9: 2a           	rol
    31ca: 06 13        	asl	$13                     ; 0x2013 <main+0x1a81>
    31cc: 2a           	rol
    31cd: 85 0f        	sta	$f                      ; 0x200f <main+0x1a7d>
    31cf: a5 15        	lda	$15                     ; 0x2015 <main+0x1a83>
    31d1: 09 e0        	ora	#$e0
    31d3: 85 1b        	sta	$1b                     ; 0x201b <main+0x1a89>
    31d5: b2 1a        	lda	($1a)                   ; 0x201a <main+0x1a88>
    31d7: 85 2a        	sta	$2a                     ; 0x202a <main+0x1a98>
    31d9: 86 0f        	stx	$f                      ; 0x200f <main+0x1a7d>
    31db: 58           	cli
    31dc: 98           	tya
    31dd: 18           	clc
    31de: 69 04        	adc	#$4
    31e0: 85 1a        	sta	$1a                     ; 0x201a <main+0x1a88>
    31e2: a5 14        	lda	$14                     ; 0x2014 <main+0x1a82>
    31e4: 69 00        	adc	#$0
    31e6: 85 15        	sta	$15                     ; 0x2015 <main+0x1a83>
    31e8: a5 2d        	lda	$2d                     ; 0x202d <main+0x1a9b>
    31ea: 69 04        	adc	#$4
    31ec: a6 15        	ldx	$15                     ; 0x2015 <main+0x1a83>
    31ee: 86 13        	stx	$13                     ; 0x2013 <main+0x1a81>
    31f0: 06 13        	asl	$13                     ; 0x2013 <main+0x1a81>
    31f2: 2a           	rol
    31f3: 06 13        	asl	$13                     ; 0x2013 <main+0x1a81>
    31f5: 2a           	rol
    31f6: 06 13        	asl	$13                     ; 0x2013 <main+0x1a81>
    31f8: 2a           	rol
    31f9: a6 0f        	ldx	$f                      ; 0x200f <main+0x1a7d>
    31fb: 78           	sei
    31fc: 85 0f        	sta	$f                      ; 0x200f <main+0x1a7d>
    31fe: a5 15        	lda	$15                     ; 0x2015 <main+0x1a83>
    3200: 09 e0        	ora	#$e0
    3202: 85 1b        	sta	$1b                     ; 0x201b <main+0x1a89>
    3204: b2 1a        	lda	($1a)                   ; 0x201a <main+0x1a88>
    3206: 85 2b        	sta	$2b                     ; 0x202b <main+0x1a99>
    3208: 86 0f        	stx	$f                      ; 0x200f <main+0x1a7d>
    320a: 18           	clc
    320b: 98           	tya
    320c: 69 05        	adc	#$5
    320e: 85 24        	sta	$24                     ; 0x2024 <main+0x1a92>
    3210: a5 14        	lda	$14                     ; 0x2014 <main+0x1a82>
    3212: 69 00        	adc	#$0
    3214: 85 27        	sta	$27                     ; 0x2027 <main+0x1a95>
    3216: a5 2d        	lda	$2d                     ; 0x202d <main+0x1a9b>
    3218: 69 00        	adc	#$0
    321a: 85 26        	sta	$26                     ; 0x2026 <main+0x1a94>
    321c: a5 2e        	lda	$2e                     ; 0x202e <main+0x1a9c>
    321e: 69 00        	adc	#$0
    3220: 85 29        	sta	$29                     ; 0x2029 <main+0x1a97>
    3222: 58           	cli
    3223: a5 2b        	lda	$2b                     ; 0x202b <main+0x1a99>
    3225: 92 10        	sta	($10)                   ; 0x2010 <main+0x1a7e>
    3227: a0 01        	ldy	#$1
    3229: a5 2a        	lda	$2a                     ; 0x202a <main+0x1a98>
    322b: 91 10        	sta	($10),y                 ; 0x2010 <main+0x1a7e>
    322d: c8           	iny
    322e: a5 25        	lda	$25                     ; 0x2025 <main+0x1a93>
    3230: 91 10        	sta	($10),y                 ; 0x2010 <main+0x1a7e>
    3232: c8           	iny
    3233: a9 00        	lda	#$0
    3235: 91 10        	sta	($10),y                 ; 0x2010 <main+0x1a7e>
    3237: a5 12        	lda	$12                     ; 0x2012 <main+0x1a80>
    3239: a0 12        	ldy	#$12
    323b: 91 10        	sta	($10),y                 ; 0x2010 <main+0x1a7e>
    323d: a2 2a        	ldx	#$2a
    323f: 86 12        	stx	$12                     ; 0x2012 <main+0x1a80>
    3241: a2 66        	ldx	#$66
    3243: 86 13        	stx	$13                     ; 0x2013 <main+0x1a81>
    3245: 20 a6 3a     	jsr	$3aa6 <printf>
    3248: a6 25        	ldx	$25                     ; 0x2025 <main+0x1a93>
    324a: 86 12        	stx	$12                     ; 0x2012 <main+0x1a80>
    324c: 64 13        	stz	$13                     ; 0x2013 <main+0x1a81>
    324e: a0 18        	ldy	#$18
    3250: b1 10        	lda	($10),y                 ; 0x2010 <main+0x1a7e>
    3252: 85 14        	sta	$14                     ; 0x2014 <main+0x1a82>
    3254: 88           	dey
    3255: b1 10        	lda	($10),y                 ; 0x2010 <main+0x1a7e>
    3257: 85 15        	sta	$15                     ; 0x2015 <main+0x1a83>
    3259: 64 16        	stz	$16                     ; 0x2016 <main+0x1a84>
    325b: 64 17        	stz	$17                     ; 0x2017 <main+0x1a85>
    325d: a6 2a        	ldx	$2a                     ; 0x202a <main+0x1a98>
    325f: a5 2b        	lda	$2b                     ; 0x202b <main+0x1a99>
    3261: 20 5e 4c     	jsr	$4c5e <__udivsi3>
    3264: 20 34 62     	jsr	$6234 <__floatunsidf>
    3267: a0 43        	ldy	#$43
    3269: 84 18        	sty	$18                     ; 0x2018 <main+0x1a86>
    326b: a0 ad        	ldy	#$ad
    326d: 84 19        	sty	$19                     ; 0x2019 <main+0x1a87>
    326f: a0 69        	ldy	#$69
    3271: 84 1a        	sty	$1a                     ; 0x201a <main+0x1a88>
    3273: a0 de        	ldy	#$de
    3275: 84 1b        	sty	$1b                     ; 0x201b <main+0x1a89>
    3277: a0 71        	ldy	#$71
    3279: 84 1c        	sty	$1c                     ; 0x201c <main+0x1a8a>
    327b: a0 2a        	ldy	#$2a
    327d: 84 1d        	sty	$1d                     ; 0x201d <main+0x1a8b>
    327f: a0 39        	ldy	#$39
    3281: 84 1e        	sty	$1e                     ; 0x201e <main+0x1a8c>
    3283: a0 40        	ldy	#$40
    3285: 84 1f        	sty	$1f                     ; 0x201f <main+0x1a8d>
    3287: 20 cd 4d     	jsr	$4dcd <__muldf3>
    328a: 20 b1 61     	jsr	$61b1 <__fixunsdfsi>
    328d: a4 12        	ldy	$12                     ; 0x2012 <main+0x1a80>
    328f: 48           	pha
    3290: 5a           	phy
    3291: a0 12        	ldy	#$12
    3293: b1 10        	lda	($10),y                 ; 0x2010 <main+0x1a7e>
    3295: 7a           	ply
    3296: 85 12        	sta	$12                     ; 0x2012 <main+0x1a80>
    3298: 68           	pla
    3299: 85 75        	sta	$75                     ; 0x2075 <main+0x1ae3>
    329b: 86 76        	stx	$76                     ; 0x2076 <main+0x1ae4>
    329d: 84 77        	sty	$77                     ; 0x2077 <main+0x1ae5>
    329f: a6 13        	ldx	$13                     ; 0x2013 <main+0x1a81>
    32a1: 86 78        	stx	$78                     ; 0x2078 <main+0x1ae6>
    32a3: a4 24        	ldy	$24                     ; 0x2024 <main+0x1a92>
    32a5: a6 27        	ldx	$27                     ; 0x2027 <main+0x1a95>
    32a7: 86 1c        	stx	$1c                     ; 0x201c <main+0x1a8a>
    32a9: a6 26        	ldx	$26                     ; 0x2026 <main+0x1a94>
    32ab: 86 1d        	stx	$1d                     ; 0x201d <main+0x1a8b>
    32ad: a5 29        	lda	$29                     ; 0x2029 <main+0x1a97>
    32af: 4c ee 2a     	jmp	$2aee <parse+0x7d0>
    32b2: a5 13        	lda	$13                     ; 0x2013 <main+0x1a81>
    32b4: 30 18        	bmi	$32ce <parse+0xfb0>
    32b6: a0 13        	ldy	#$13
    32b8: b1 10        	lda	($10),y                 ; 0x2010 <main+0x1a7e>
    32ba: a8           	tay
    32bb: a6 2c        	ldx	$2c                     ; 0x202c <main+0x1a9a>
    32bd: 86 1c        	stx	$1c                     ; 0x201c <main+0x1a8a>
    32bf: a6 2d        	ldx	$2d                     ; 0x202d <main+0x1a9b>
    32c1: 86 1d        	stx	$1d                     ; 0x201d <main+0x1a8b>
    32c3: a5 2e        	lda	$2e                     ; 0x202e <main+0x1a9c>
    32c5: 4c f9 2a     	jmp	$2af9 <parse+0x7db>
    32c8: a6 13        	ldx	$13                     ; 0x2013 <main+0x1a81>
    32ca: e0 f0        	cpx	#$f0
    32cc: b0 e8        	bcs	$32b6 <parse+0xf98>
    32ce: 5a           	phy
    32cf: a0 1a        	ldy	#$1a
    32d1: b1 10        	lda	($10),y                 ; 0x2010 <main+0x1a7e>
    32d3: 7a           	ply
    32d4: aa           	tax
    32d5: d0 03        	bne	$32da <parse+0xfbc>
    32d7: 4c e8 33     	jmp	$33e8 <parse+0x10ca>
    32da: 5a           	phy
    32db: a0 1b        	ldy	#$1b
    32dd: b1 10        	lda	($10),y                 ; 0x2010 <main+0x1a7e>
    32df: 7a           	ply
    32e0: 29 f0        	and	#$f0
    32e2: c9 90        	cmp	#$90
    32e4: f0 03        	beq	$32e9 <parse+0xfcb>
    32e6: 4c 3f 34     	jmp	$343f <parse+0x1121>
    32e9: a6 18        	ldx	$18                     ; 0x2018 <main+0x1a86>
    32eb: 86 1c        	stx	$1c                     ; 0x201c <main+0x1a8a>
    32ed: 5a           	phy
    32ee: a0 1d        	ldy	#$1d
    32f0: b1 10        	lda	($10),y                 ; 0x2010 <main+0x1a7e>
    32f2: 7a           	ply
    32f3: aa           	tax
    32f4: d0 03        	bne	$32f9 <parse+0xfdb>
    32f6: 4c eb 36     	jmp	$36eb <parse+0x13cd>
    32f9: 38           	sec
    32fa: 5a           	phy
    32fb: a9 01        	lda	#$1
    32fd: a0 10        	ldy	#$10
    32ff: 91 10        	sta	($10),y                 ; 0x2010 <main+0x1a7e>
    3301: 4c 4b 34     	jmp	$344b <parse+0x112d>
    3304: 18           	clc
    3305: a5 17        	lda	$17                     ; 0x2017 <main+0x1a85>
    3307: 69 04        	adc	#$4
    3309: 4c dd 2a     	jmp	$2add <parse+0x7bf>
    330c: 18           	clc
    330d: a5 17        	lda	$17                     ; 0x2017 <main+0x1a85>
    330f: 69 07        	adc	#$7
    3311: 4c dd 2a     	jmp	$2add <parse+0x7bf>
    3314: a4 17        	ldy	$17                     ; 0x2017 <main+0x1a85>
    3316: a5 17        	lda	$17                     ; 0x2017 <main+0x1a85>
    3318: 18           	clc
    3319: 69 02        	adc	#$2
    331b: 85 1a        	sta	$1a                     ; 0x201a <main+0x1a88>
    331d: a6 2c        	ldx	$2c                     ; 0x202c <main+0x1a9a>
    331f: a5 2c        	lda	$2c                     ; 0x202c <main+0x1a9a>
    3321: 69 00        	adc	#$0
    3323: 85 15        	sta	$15                     ; 0x2015 <main+0x1a83>
    3325: 86 14        	stx	$14                     ; 0x2014 <main+0x1a82>
    3327: a5 2d        	lda	$2d                     ; 0x202d <main+0x1a9b>
    3329: 69 04        	adc	#$4
    332b: a6 15        	ldx	$15                     ; 0x2015 <main+0x1a83>
    332d: 86 13        	stx	$13                     ; 0x2013 <main+0x1a81>
    332f: 06 13        	asl	$13                     ; 0x2013 <main+0x1a81>
    3331: 2a           	rol
    3332: 06 13        	asl	$13                     ; 0x2013 <main+0x1a81>
    3334: 2a           	rol
    3335: 06 13        	asl	$13                     ; 0x2013 <main+0x1a81>
    3337: 2a           	rol
    3338: a6 0f        	ldx	$f                      ; 0x200f <main+0x1a7d>
    333a: 78           	sei
    333b: 85 0f        	sta	$f                      ; 0x200f <main+0x1a7d>
    333d: a5 15        	lda	$15                     ; 0x2015 <main+0x1a83>
    333f: 09 e0        	ora	#$e0
    3341: 85 1b        	sta	$1b                     ; 0x201b <main+0x1a89>
    3343: b2 1a        	lda	($1a)                   ; 0x201a <main+0x1a88>
    3345: 86 0f        	stx	$f                      ; 0x200f <main+0x1a7d>
    3347: 98           	tya
    3348: 18           	clc
    3349: 69 03        	adc	#$3
    334b: 85 1a        	sta	$1a                     ; 0x201a <main+0x1a88>
    334d: a5 14        	lda	$14                     ; 0x2014 <main+0x1a82>
    334f: 69 00        	adc	#$0
    3351: 85 15        	sta	$15                     ; 0x2015 <main+0x1a83>
    3353: a5 2d        	lda	$2d                     ; 0x202d <main+0x1a9b>
    3355: 69 04        	adc	#$4
    3357: a6 15        	ldx	$15                     ; 0x2015 <main+0x1a83>
    3359: 86 13        	stx	$13                     ; 0x2013 <main+0x1a81>
    335b: 06 13        	asl	$13                     ; 0x2013 <main+0x1a81>
    335d: 2a           	rol
    335e: 06 13        	asl	$13                     ; 0x2013 <main+0x1a81>
    3360: 2a           	rol
    3361: 06 13        	asl	$13                     ; 0x2013 <main+0x1a81>
    3363: 2a           	rol
    3364: 58           	cli
    3365: a6 0f        	ldx	$f                      ; 0x200f <main+0x1a7d>
    3367: 78           	sei
    3368: 85 0f        	sta	$f                      ; 0x200f <main+0x1a7d>
    336a: a5 15        	lda	$15                     ; 0x2015 <main+0x1a83>
    336c: 09 e0        	ora	#$e0
    336e: 85 1b        	sta	$1b                     ; 0x201b <main+0x1a89>
    3370: b2 1a        	lda	($1a)                   ; 0x201a <main+0x1a88>
    3372: 86 0f        	stx	$f                      ; 0x200f <main+0x1a7d>
    3374: 98           	tya
    3375: 18           	clc
    3376: 69 04        	adc	#$4
    3378: 85 1a        	sta	$1a                     ; 0x201a <main+0x1a88>
    337a: a5 14        	lda	$14                     ; 0x2014 <main+0x1a82>
    337c: 69 00        	adc	#$0
    337e: 85 15        	sta	$15                     ; 0x2015 <main+0x1a83>
    3380: a5 2d        	lda	$2d                     ; 0x202d <main+0x1a9b>
    3382: 69 04        	adc	#$4
    3384: a6 15        	ldx	$15                     ; 0x2015 <main+0x1a83>
    3386: 86 13        	stx	$13                     ; 0x2013 <main+0x1a81>
    3388: 06 13        	asl	$13                     ; 0x2013 <main+0x1a81>
    338a: 2a           	rol
    338b: 06 13        	asl	$13                     ; 0x2013 <main+0x1a81>
    338d: 2a           	rol
    338e: 06 13        	asl	$13                     ; 0x2013 <main+0x1a81>
    3390: 2a           	rol
    3391: 58           	cli
    3392: a6 0f        	ldx	$f                      ; 0x200f <main+0x1a7d>
    3394: 78           	sei
    3395: 85 0f        	sta	$f                      ; 0x200f <main+0x1a7d>
    3397: a5 15        	lda	$15                     ; 0x2015 <main+0x1a83>
    3399: 09 e0        	ora	#$e0
    339b: 85 1b        	sta	$1b                     ; 0x201b <main+0x1a89>
    339d: b2 1a        	lda	($1a)                   ; 0x201a <main+0x1a88>
    339f: 86 0f        	stx	$f                      ; 0x200f <main+0x1a7d>
    33a1: 98           	tya
    33a2: 18           	clc
    33a3: 69 05        	adc	#$5
    33a5: 85 1a        	sta	$1a                     ; 0x201a <main+0x1a88>
    33a7: a5 14        	lda	$14                     ; 0x2014 <main+0x1a82>
    33a9: 69 00        	adc	#$0
    33ab: 85 15        	sta	$15                     ; 0x2015 <main+0x1a83>
    33ad: a5 2d        	lda	$2d                     ; 0x202d <main+0x1a9b>
    33af: 69 04        	adc	#$4
    33b1: a6 15        	ldx	$15                     ; 0x2015 <main+0x1a83>
    33b3: 86 13        	stx	$13                     ; 0x2013 <main+0x1a81>
    33b5: 06 13        	asl	$13                     ; 0x2013 <main+0x1a81>
    33b7: 2a           	rol
    33b8: 06 13        	asl	$13                     ; 0x2013 <main+0x1a81>
    33ba: 2a           	rol
    33bb: 06 13        	asl	$13                     ; 0x2013 <main+0x1a81>
    33bd: 2a           	rol
    33be: 58           	cli
    33bf: a6 0f        	ldx	$f                      ; 0x200f <main+0x1a7d>
    33c1: 78           	sei
    33c2: 85 0f        	sta	$f                      ; 0x200f <main+0x1a7d>
    33c4: a5 15        	lda	$15                     ; 0x2015 <main+0x1a83>
    33c6: 09 e0        	ora	#$e0
    33c8: 85 1b        	sta	$1b                     ; 0x201b <main+0x1a89>
    33ca: b2 1a        	lda	($1a)                   ; 0x201a <main+0x1a88>
    33cc: 86 0f        	stx	$f                      ; 0x200f <main+0x1a7d>
    33ce: 58           	cli
    33cf: 18           	clc
    33d0: 98           	tya
    33d1: 69 06        	adc	#$6
    33d3: a8           	tay
    33d4: a5 14        	lda	$14                     ; 0x2014 <main+0x1a82>
    33d6: 69 00        	adc	#$0
    33d8: 85 1c        	sta	$1c                     ; 0x201c <main+0x1a8a>
    33da: a5 2d        	lda	$2d                     ; 0x202d <main+0x1a9b>
    33dc: 69 00        	adc	#$0
    33de: aa           	tax
    33df: a5 2e        	lda	$2e                     ; 0x202e <main+0x1a9c>
    33e1: 69 00        	adc	#$0
    33e3: 86 1d        	stx	$1d                     ; 0x201d <main+0x1a8b>
    33e5: 4c ee 2a     	jmp	$2aee <parse+0x7d0>
    33e8: 38           	sec
    33e9: 5a           	phy
    33ea: a0 1e        	ldy	#$1e
    33ec: b1 10        	lda	($10),y                 ; 0x2010 <main+0x1a7e>
    33ee: 7a           	ply
    33ef: 85 13        	sta	$13                     ; 0x2013 <main+0x1a81>
    33f1: a5 1d        	lda	$1d                     ; 0x201d <main+0x1a8b>
    33f3: e5 13        	sbc	$13                     ; 0x2013 <main+0x1a81>
    33f5: aa           	tax
    33f6: 98           	tya
    33f7: e5 12        	sbc	$12                     ; 0x2012 <main+0x1a80>
    33f9: a8           	tay
    33fa: 18           	clc
    33fb: 8a           	txa
    33fc: 65 7c        	adc	$7c                     ; 0x207c <main+0x1aea>
    33fe: 85 1a        	sta	$1a                     ; 0x201a <main+0x1a88>
    3400: 98           	tya
    3401: 65 7d        	adc	$7d                     ; 0x207d <main+0x1aeb>
    3403: 85 1b        	sta	$1b                     ; 0x201b <main+0x1a89>
    3405: a6 1a        	ldx	$1a                     ; 0x201a <main+0x1a88>
    3407: 86 1c        	stx	$1c                     ; 0x201c <main+0x1a8a>
    3409: 85 1d        	sta	$1d                     ; 0x201d <main+0x1a8b>
    340b: e6 1c        	inc	$1c                     ; 0x201c <main+0x1a8a>
    340d: d0 02        	bne	$3411 <parse+0x10f3>
    340f: e6 1d        	inc	$1d                     ; 0x201d <main+0x1a8b>
    3411: a0 01        	ldy	#$1
    3413: b1 1a        	lda	($1a),y                 ; 0x201a <main+0x1a88>
    3415: 85 13        	sta	$13                     ; 0x2013 <main+0x1a81>
    3417: b1 1c        	lda	($1c),y                 ; 0x201c <main+0x1a8a>
    3419: aa           	tax
    341a: a5 13        	lda	$13                     ; 0x2013 <main+0x1a81>
    341c: 1a           	inc
    341d: d0 01        	bne	$3420 <parse+0x1102>
    341f: e8           	inx
    3420: 91 1a        	sta	($1a),y                 ; 0x201a <main+0x1a88>
    3422: 8a           	txa
    3423: 91 1c        	sta	($1c),y                 ; 0x201c <main+0x1a8a>
    3425: 18           	clc
    3426: a0 13        	ldy	#$13
    3428: b1 10        	lda	($10),y                 ; 0x2010 <main+0x1a7e>
    342a: 69 02        	adc	#$2
    342c: a8           	tay
    342d: a5 2c        	lda	$2c                     ; 0x202c <main+0x1a9a>
    342f: 69 00        	adc	#$0
    3431: 85 1c        	sta	$1c                     ; 0x201c <main+0x1a8a>
    3433: a5 2d        	lda	$2d                     ; 0x202d <main+0x1a9b>
    3435: 69 00        	adc	#$0
    3437: aa           	tax
    3438: a5 2e        	lda	$2e                     ; 0x202e <main+0x1a9c>
    343a: 69 00        	adc	#$0
    343c: 4c e6 36     	jmp	$36e6 <parse+0x13c8>
    343f: 38           	sec
    3440: 5a           	phy
    3441: a9 01        	lda	#$1
    3443: a0 10        	ldy	#$10
    3445: 91 10        	sta	($10),y                 ; 0x2010 <main+0x1a7e>
    3447: a6 18        	ldx	$18                     ; 0x2018 <main+0x1a86>
    3449: 86 1c        	stx	$1c                     ; 0x201c <main+0x1a8a>
    344b: a5 2f        	lda	$2f                     ; 0x202f <main+0x1a9d>
    344d: a0 11        	ldy	#$11
    344f: 91 10        	sta	($10),y                 ; 0x2010 <main+0x1a7e>
    3451: 7a           	ply
    3452: 38           	sec
    3453: 84 21        	sty	$21                     ; 0x2021 <main+0x1a8f>
    3455: a0 1e        	ldy	#$1e
    3457: b1 10        	lda	($10),y                 ; 0x2010 <main+0x1a7e>
    3459: 85 13        	sta	$13                     ; 0x2013 <main+0x1a81>
    345b: a5 1d        	lda	$1d                     ; 0x201d <main+0x1a8b>
    345d: e5 13        	sbc	$13                     ; 0x2013 <main+0x1a81>
    345f: 48           	pha
    3460: a5 12        	lda	$12                     ; 0x2012 <main+0x1a80>
    3462: a0 12        	ldy	#$12
    3464: 91 10        	sta	($10),y                 ; 0x2010 <main+0x1a7e>
    3466: a4 21        	ldy	$21                     ; 0x2021 <main+0x1a8f>
    3468: 68           	pla
    3469: aa           	tax
    346a: 98           	tya
    346b: e5 12        	sbc	$12                     ; 0x2012 <main+0x1a80>
    346d: a8           	tay
    346e: 18           	clc
    346f: 8a           	txa
    3470: 65 7c        	adc	$7c                     ; 0x207c <main+0x1aea>
    3472: aa           	tax
    3473: 98           	tya
    3474: 65 7d        	adc	$7d                     ; 0x207d <main+0x1aeb>
    3476: 86 12        	stx	$12                     ; 0x2012 <main+0x1a80>
    3478: 85 13        	sta	$13                     ; 0x2013 <main+0x1a81>
    347a: a8           	tay
    347b: 18           	clc
    347c: 8a           	txa
    347d: 69 03        	adc	#$3
    347f: 85 14        	sta	$14                     ; 0x2014 <main+0x1a82>
    3481: 98           	tya
    3482: 69 00        	adc	#$0
    3484: 85 15        	sta	$15                     ; 0x2015 <main+0x1a83>
    3486: a0 15        	ldy	#$15
    3488: b1 10        	lda	($10),y                 ; 0x2010 <main+0x1a7e>
    348a: 85 26        	sta	$26                     ; 0x2026 <main+0x1a94>
    348c: 0a           	asl
    348d: 48           	pha
    348e: 88           	dey
    348f: b1 10        	lda	($10),y                 ; 0x2010 <main+0x1a7e>
    3491: aa           	tax
    3492: 68           	pla
    3493: 86 18        	stx	$18                     ; 0x2018 <main+0x1a86>
    3495: 26 18        	rol	$18                     ; 0x2018 <main+0x1a86>
    3497: 64 19        	stz	$19                     ; 0x2019 <main+0x1a87>
    3499: 26 19        	rol	$19                     ; 0x2019 <main+0x1a87>
    349b: 0a           	asl
    349c: 26 18        	rol	$18                     ; 0x2018 <main+0x1a86>
    349e: 26 19        	rol	$19                     ; 0x2019 <main+0x1a87>
    34a0: 0a           	asl
    34a1: a4 18        	ldy	$18                     ; 0x2018 <main+0x1a86>
    34a3: 84 1b        	sty	$1b                     ; 0x201b <main+0x1a89>
    34a5: 26 1b        	rol	$1b                     ; 0x201b <main+0x1a89>
    34a7: a4 19        	ldy	$19                     ; 0x2019 <main+0x1a87>
    34a9: 84 18        	sty	$18                     ; 0x2018 <main+0x1a86>
    34ab: 26 18        	rol	$18                     ; 0x2018 <main+0x1a86>
    34ad: 18           	clc
    34ae: a0 03        	ldy	#$3
    34b0: 71 12        	adc	($12),y                 ; 0x2012 <main+0x1a80>
    34b2: 85 28        	sta	$28                     ; 0x2028 <main+0x1a96>
    34b4: a0 01        	ldy	#$1
    34b6: a5 1b        	lda	$1b                     ; 0x201b <main+0x1a89>
    34b8: 71 14        	adc	($14),y                 ; 0x2014 <main+0x1a82>
    34ba: 85 29        	sta	$29                     ; 0x2029 <main+0x1a97>
    34bc: c8           	iny
    34bd: a5 18        	lda	$18                     ; 0x2018 <main+0x1a86>
    34bf: 71 14        	adc	($14),y                 ; 0x2014 <main+0x1a82>
    34c1: 85 27        	sta	$27                     ; 0x2027 <main+0x1a95>
    34c3: a4 75        	ldy	$75                     ; 0x2075 <main+0x1ae3>
    34c5: 84 18        	sty	$18                     ; 0x2018 <main+0x1a86>
    34c7: 86 25        	stx	$25                     ; 0x2025 <main+0x1a93>
    34c9: a5 76        	lda	$76                     ; 0x2076 <main+0x1ae4>
    34cb: a4 77        	ldy	$77                     ; 0x2077 <main+0x1ae5>
    34cd: a6 78        	ldx	$78                     ; 0x2078 <main+0x1ae6>
    34cf: 84 12        	sty	$12                     ; 0x2012 <main+0x1a80>
    34d1: 86 13        	stx	$13                     ; 0x2013 <main+0x1a81>
    34d3: a6 1c        	ldx	$1c                     ; 0x201c <main+0x1a8a>
    34d5: 86 14        	stx	$14                     ; 0x2014 <main+0x1a82>
    34d7: a6 22        	ldx	$22                     ; 0x2022 <main+0x1a90>
    34d9: 86 15        	stx	$15                     ; 0x2015 <main+0x1a83>
    34db: aa           	tax
    34dc: a5 18        	lda	$18                     ; 0x2018 <main+0x1a86>
    34de: 20 f6 4a     	jsr	$4af6 <__mulsi3>
    34e1: 85 14        	sta	$14                     ; 0x2014 <main+0x1a82>
    34e3: 86 15        	stx	$15                     ; 0x2015 <main+0x1a83>
    34e5: a4 12        	ldy	$12                     ; 0x2012 <main+0x1a80>
    34e7: a5 28        	lda	$28                     ; 0x2028 <main+0x1a96>
    34e9: 18           	clc
    34ea: 69 00        	adc	#$0
    34ec: a5 29        	lda	$29                     ; 0x2029 <main+0x1a97>
    34ee: 69 00        	adc	#$0
    34f0: 85 12        	sta	$12                     ; 0x2012 <main+0x1a80>
    34f2: a5 27        	lda	$27                     ; 0x2027 <main+0x1a95>
    34f4: 69 06        	adc	#$6
    34f6: 06 12        	asl	$12                     ; 0x2012 <main+0x1a80>
    34f8: 2a           	rol
    34f9: 06 12        	asl	$12                     ; 0x2012 <main+0x1a80>
    34fb: 2a           	rol
    34fc: 06 12        	asl	$12                     ; 0x2012 <main+0x1a80>
    34fe: 2a           	rol
    34ff: a6 0f        	ldx	$f                      ; 0x200f <main+0x1a7d>
    3501: 78           	sei
    3502: 85 0f        	sta	$f                      ; 0x200f <main+0x1a7d>
    3504: a5 29        	lda	$29                     ; 0x2029 <main+0x1a97>
    3506: 09 e0        	ora	#$e0
    3508: 5a           	phy
    3509: a4 28        	ldy	$28                     ; 0x2028 <main+0x1a96>
    350b: 84 16        	sty	$16                     ; 0x2016 <main+0x1a84>
    350d: 7a           	ply
    350e: 85 17        	sta	$17                     ; 0x2017 <main+0x1a85>
    3510: 98           	tya
    3511: 92 16        	sta	($16)                   ; 0x2016 <main+0x1a84>
    3513: a0 01        	ldy	#$1
    3515: a5 13        	lda	$13                     ; 0x2013 <main+0x1a81>
    3517: 91 16        	sta	($16),y                 ; 0x2016 <main+0x1a84>
    3519: 86 0f        	stx	$f                      ; 0x200f <main+0x1a7d>
    351b: a5 28        	lda	$28                     ; 0x2028 <main+0x1a96>
    351d: 18           	clc
    351e: 69 02        	adc	#$2
    3520: 85 13        	sta	$13                     ; 0x2013 <main+0x1a81>
    3522: a5 29        	lda	$29                     ; 0x2029 <main+0x1a97>
    3524: 69 00        	adc	#$0
    3526: 85 16        	sta	$16                     ; 0x2016 <main+0x1a84>
    3528: a5 27        	lda	$27                     ; 0x2027 <main+0x1a95>
    352a: 69 06        	adc	#$6
    352c: a6 16        	ldx	$16                     ; 0x2016 <main+0x1a84>
    352e: 86 12        	stx	$12                     ; 0x2012 <main+0x1a80>
    3530: 06 12        	asl	$12                     ; 0x2012 <main+0x1a80>
    3532: 2a           	rol
    3533: 06 12        	asl	$12                     ; 0x2012 <main+0x1a80>
    3535: 2a           	rol
    3536: 06 12        	asl	$12                     ; 0x2012 <main+0x1a80>
    3538: 2a           	rol
    3539: 58           	cli
    353a: a6 0f        	ldx	$f                      ; 0x200f <main+0x1a7d>
    353c: 78           	sei
    353d: 85 0f        	sta	$f                      ; 0x200f <main+0x1a7d>
    353f: a5 13        	lda	$13                     ; 0x2013 <main+0x1a81>
    3541: 85 12        	sta	$12                     ; 0x2012 <main+0x1a80>
    3543: a5 16        	lda	$16                     ; 0x2016 <main+0x1a84>
    3545: 09 e0        	ora	#$e0
    3547: 85 13        	sta	$13                     ; 0x2013 <main+0x1a81>
    3549: a5 14        	lda	$14                     ; 0x2014 <main+0x1a82>
    354b: 92 12        	sta	($12)                   ; 0x2012 <main+0x1a80>
    354d: a5 15        	lda	$15                     ; 0x2015 <main+0x1a83>
    354f: 91 12        	sta	($12),y                 ; 0x2012 <main+0x1a80>
    3551: 86 0f        	stx	$f                      ; 0x200f <main+0x1a7d>
    3553: a5 28        	lda	$28                     ; 0x2028 <main+0x1a96>
    3555: 18           	clc
    3556: 69 04        	adc	#$4
    3558: a8           	tay
    3559: a5 29        	lda	$29                     ; 0x2029 <main+0x1a97>
    355b: 69 00        	adc	#$0
    355d: 85 13        	sta	$13                     ; 0x2013 <main+0x1a81>
    355f: a5 27        	lda	$27                     ; 0x2027 <main+0x1a95>
    3561: 69 06        	adc	#$6
    3563: a6 13        	ldx	$13                     ; 0x2013 <main+0x1a81>
    3565: 86 12        	stx	$12                     ; 0x2012 <main+0x1a80>
    3567: 06 12        	asl	$12                     ; 0x2012 <main+0x1a80>
    3569: 2a           	rol
    356a: 06 12        	asl	$12                     ; 0x2012 <main+0x1a80>
    356c: 2a           	rol
    356d: 06 12        	asl	$12                     ; 0x2012 <main+0x1a80>
    356f: 2a           	rol
    3570: 58           	cli
    3571: a6 0f        	ldx	$f                      ; 0x200f <main+0x1a7d>
    3573: 78           	sei
    3574: 85 0f        	sta	$f                      ; 0x200f <main+0x1a7d>
    3576: 84 12        	sty	$12                     ; 0x2012 <main+0x1a80>
    3578: a5 13        	lda	$13                     ; 0x2013 <main+0x1a81>
    357a: 09 e0        	ora	#$e0
    357c: 85 13        	sta	$13                     ; 0x2013 <main+0x1a81>
    357e: a9 03        	lda	#$3
    3580: 92 12        	sta	($12)                   ; 0x2012 <main+0x1a80>
    3582: 86 0f        	stx	$f                      ; 0x200f <main+0x1a7d>
    3584: a5 28        	lda	$28                     ; 0x2028 <main+0x1a96>
    3586: 18           	clc
    3587: 69 05        	adc	#$5
    3589: a8           	tay
    358a: a5 29        	lda	$29                     ; 0x2029 <main+0x1a97>
    358c: 69 00        	adc	#$0
    358e: 85 13        	sta	$13                     ; 0x2013 <main+0x1a81>
    3590: a5 27        	lda	$27                     ; 0x2027 <main+0x1a95>
    3592: 69 06        	adc	#$6
    3594: a6 13        	ldx	$13                     ; 0x2013 <main+0x1a81>
    3596: 86 12        	stx	$12                     ; 0x2012 <main+0x1a80>
    3598: 06 12        	asl	$12                     ; 0x2012 <main+0x1a80>
    359a: 2a           	rol
    359b: 06 12        	asl	$12                     ; 0x2012 <main+0x1a80>
    359d: 2a           	rol
    359e: 06 12        	asl	$12                     ; 0x2012 <main+0x1a80>
    35a0: 2a           	rol
    35a1: 58           	cli
    35a2: a6 0f        	ldx	$f                      ; 0x200f <main+0x1a7d>
    35a4: 78           	sei
    35a5: 85 0f        	sta	$f                      ; 0x200f <main+0x1a7d>
    35a7: 84 12        	sty	$12                     ; 0x2012 <main+0x1a80>
    35a9: a5 13        	lda	$13                     ; 0x2013 <main+0x1a81>
    35ab: 09 e0        	ora	#$e0
    35ad: 85 13        	sta	$13                     ; 0x2013 <main+0x1a81>
    35af: a0 1b        	ldy	#$1b
    35b1: b1 10        	lda	($10),y                 ; 0x2010 <main+0x1a7e>
    35b3: 85 16        	sta	$16                     ; 0x2016 <main+0x1a84>
    35b5: 92 12        	sta	($12)                   ; 0x2012 <main+0x1a80>
    35b7: 86 0f        	stx	$f                      ; 0x200f <main+0x1a7d>
    35b9: a5 28        	lda	$28                     ; 0x2028 <main+0x1a96>
    35bb: 18           	clc
    35bc: 69 06        	adc	#$6
    35be: a8           	tay
    35bf: a5 29        	lda	$29                     ; 0x2029 <main+0x1a97>
    35c1: 69 00        	adc	#$0
    35c3: 85 13        	sta	$13                     ; 0x2013 <main+0x1a81>
    35c5: a5 27        	lda	$27                     ; 0x2027 <main+0x1a95>
    35c7: 69 06        	adc	#$6
    35c9: a6 13        	ldx	$13                     ; 0x2013 <main+0x1a81>
    35cb: 86 12        	stx	$12                     ; 0x2012 <main+0x1a80>
    35cd: 06 12        	asl	$12                     ; 0x2012 <main+0x1a80>
    35cf: 2a           	rol
    35d0: 06 12        	asl	$12                     ; 0x2012 <main+0x1a80>
    35d2: 2a           	rol
    35d3: 06 12        	asl	$12                     ; 0x2012 <main+0x1a80>
    35d5: 2a           	rol
    35d6: 58           	cli
    35d7: a6 0f        	ldx	$f                      ; 0x200f <main+0x1a7d>
    35d9: 78           	sei
    35da: 85 0f        	sta	$f                      ; 0x200f <main+0x1a7d>
    35dc: 84 12        	sty	$12                     ; 0x2012 <main+0x1a80>
    35de: a5 13        	lda	$13                     ; 0x2013 <main+0x1a81>
    35e0: 09 e0        	ora	#$e0
    35e2: 85 13        	sta	$13                     ; 0x2013 <main+0x1a81>
    35e4: a5 24        	lda	$24                     ; 0x2024 <main+0x1a92>
    35e6: 92 12        	sta	($12)                   ; 0x2012 <main+0x1a80>
    35e8: 86 0f        	stx	$f                      ; 0x200f <main+0x1a7d>
    35ea: 58           	cli
    35eb: 18           	clc
    35ec: a5 28        	lda	$28                     ; 0x2028 <main+0x1a96>
    35ee: 69 07        	adc	#$7
    35f0: 85 13        	sta	$13                     ; 0x2013 <main+0x1a81>
    35f2: a5 29        	lda	$29                     ; 0x2029 <main+0x1a97>
    35f4: 69 00        	adc	#$0
    35f6: 85 14        	sta	$14                     ; 0x2014 <main+0x1a82>
    35f8: a5 27        	lda	$27                     ; 0x2027 <main+0x1a95>
    35fa: 69 06        	adc	#$6
    35fc: 85 12        	sta	$12                     ; 0x2012 <main+0x1a80>
    35fe: a5 14        	lda	$14                     ; 0x2014 <main+0x1a82>
    3600: 0a           	asl
    3601: 26 12        	rol	$12                     ; 0x2012 <main+0x1a80>
    3603: 0a           	asl
    3604: 26 12        	rol	$12                     ; 0x2012 <main+0x1a80>
    3606: 0a           	asl
    3607: a5 12        	lda	$12                     ; 0x2012 <main+0x1a80>
    3609: 2a           	rol
    360a: a6 0f        	ldx	$f                      ; 0x200f <main+0x1a7d>
    360c: 78           	sei
    360d: 85 0f        	sta	$f                      ; 0x200f <main+0x1a7d>
    360f: a4 13        	ldy	$13                     ; 0x2013 <main+0x1a81>
    3611: 84 12        	sty	$12                     ; 0x2012 <main+0x1a80>
    3613: a5 14        	lda	$14                     ; 0x2014 <main+0x1a82>
    3615: 09 e0        	ora	#$e0
    3617: 85 13        	sta	$13                     ; 0x2013 <main+0x1a81>
    3619: a0 1d        	ldy	#$1d
    361b: b1 10        	lda	($10),y                 ; 0x2010 <main+0x1a7e>
    361d: 92 12        	sta	($12)                   ; 0x2012 <main+0x1a80>
    361f: 86 0f        	stx	$f                      ; 0x200f <main+0x1a7d>
    3621: 58           	cli
    3622: 18           	clc
    3623: a0 13        	ldy	#$13
    3625: b1 10        	lda	($10),y                 ; 0x2010 <main+0x1a7e>
    3627: 69 02        	adc	#$2
    3629: a8           	tay
    362a: a5 2c        	lda	$2c                     ; 0x202c <main+0x1a9a>
    362c: 69 00        	adc	#$0
    362e: 85 1c        	sta	$1c                     ; 0x201c <main+0x1a8a>
    3630: a5 2d        	lda	$2d                     ; 0x202d <main+0x1a9b>
    3632: 69 00        	adc	#$0
    3634: aa           	tax
    3635: a5 2e        	lda	$2e                     ; 0x202e <main+0x1a9c>
    3637: 69 00        	adc	#$0
    3639: 85 17        	sta	$17                     ; 0x2017 <main+0x1a85>
    363b: e6 26        	inc	$26                     ; 0x2026 <main+0x1a94>
    363d: d0 02        	bne	$3641 <parse+0x1323>
    363f: e6 25        	inc	$25                     ; 0x2025 <main+0x1a93>
    3641: 5a           	phy
    3642: a5 26        	lda	$26                     ; 0x2026 <main+0x1a94>
    3644: a0 15        	ldy	#$15
    3646: 91 10        	sta	($10),y                 ; 0x2010 <main+0x1a7e>
    3648: a5 25        	lda	$25                     ; 0x2025 <main+0x1a93>
    364a: 88           	dey
    364b: 91 10        	sta	($10),y                 ; 0x2010 <main+0x1a7e>
    364d: a0 10        	ldy	#$10
    364f: b1 10        	lda	($10),y                 ; 0x2010 <main+0x1a7e>
    3651: 7a           	ply
    3652: 85 12        	sta	$12                     ; 0x2012 <main+0x1a80>
    3654: a5 12        	lda	$12                     ; 0x2012 <main+0x1a80>
    3656: f0 12        	beq	$366a <parse+0x134c>
    3658: a5 17        	lda	$17                     ; 0x2017 <main+0x1a85>
    365a: 86 1d        	stx	$1d                     ; 0x201d <main+0x1a8b>
    365c: 48           	pha
    365d: 5a           	phy
    365e: a0 12        	ldy	#$12
    3660: b1 10        	lda	($10),y                 ; 0x2010 <main+0x1a7e>
    3662: 85 12        	sta	$12                     ; 0x2012 <main+0x1a80>
    3664: 88           	dey
    3665: b1 10        	lda	($10),y                 ; 0x2010 <main+0x1a7e>
    3667: 7a           	ply
    3668: 80 1c        	bra	$3686 <parse+0x1368>
    366a: a5 16        	lda	$16                     ; 0x2016 <main+0x1a84>
    366c: 29 0f        	and	#$f
    366e: 09 90        	ora	#$90
    3670: 84 21        	sty	$21                     ; 0x2021 <main+0x1a8f>
    3672: a0 1b        	ldy	#$1b
    3674: 91 10        	sta	($10),y                 ; 0x2010 <main+0x1a7e>
    3676: a5 17        	lda	$17                     ; 0x2017 <main+0x1a85>
    3678: 86 1d        	stx	$1d                     ; 0x201d <main+0x1a8b>
    367a: 48           	pha
    367b: a0 12        	ldy	#$12
    367d: b1 10        	lda	($10),y                 ; 0x2010 <main+0x1a7e>
    367f: 85 12        	sta	$12                     ; 0x2012 <main+0x1a80>
    3681: 88           	dey
    3682: b1 10        	lda	($10),y                 ; 0x2010 <main+0x1a7e>
    3684: a4 21        	ldy	$21                     ; 0x2021 <main+0x1a8f>
    3686: 85 2f        	sta	$2f                     ; 0x202f <main+0x1a9d>
    3688: 4c f8 2a     	jmp	$2af8 <parse+0x7da>
    368b: 38           	sec
    368c: 5a           	phy
    368d: a0 1e        	ldy	#$1e
    368f: b1 10        	lda	($10),y                 ; 0x2010 <main+0x1a7e>
    3691: 7a           	ply
    3692: 85 13        	sta	$13                     ; 0x2013 <main+0x1a81>
    3694: a5 1d        	lda	$1d                     ; 0x201d <main+0x1a8b>
    3696: e5 13        	sbc	$13                     ; 0x2013 <main+0x1a81>
    3698: 85 13        	sta	$13                     ; 0x2013 <main+0x1a81>
    369a: 98           	tya
    369b: e5 12        	sbc	$12                     ; 0x2012 <main+0x1a80>
    369d: 85 17        	sta	$17                     ; 0x2017 <main+0x1a85>
    369f: 18           	clc
    36a0: a5 1c        	lda	$1c                     ; 0x201c <main+0x1a8a>
    36a2: 65 13        	adc	$13                     ; 0x2013 <main+0x1a81>
    36a4: 85 1a        	sta	$1a                     ; 0x201a <main+0x1a88>
    36a6: 8a           	txa
    36a7: 65 17        	adc	$17                     ; 0x2017 <main+0x1a85>
    36a9: 85 1b        	sta	$1b                     ; 0x201b <main+0x1a89>
    36ab: a6 1a        	ldx	$1a                     ; 0x201a <main+0x1a88>
    36ad: 86 1c        	stx	$1c                     ; 0x201c <main+0x1a8a>
    36af: 85 1d        	sta	$1d                     ; 0x201d <main+0x1a8b>
    36b1: e6 1c        	inc	$1c                     ; 0x201c <main+0x1a8a>
    36b3: d0 02        	bne	$36b7 <parse+0x1399>
    36b5: e6 1d        	inc	$1d                     ; 0x201d <main+0x1a8b>
    36b7: a0 01        	ldy	#$1
    36b9: b1 1a        	lda	($1a),y                 ; 0x201a <main+0x1a88>
    36bb: 85 13        	sta	$13                     ; 0x2013 <main+0x1a81>
    36bd: b1 1c        	lda	($1c),y                 ; 0x201c <main+0x1a8a>
    36bf: aa           	tax
    36c0: a5 13        	lda	$13                     ; 0x2013 <main+0x1a81>
    36c2: 1a           	inc
    36c3: d0 01        	bne	$36c6 <parse+0x13a8>
    36c5: e8           	inx
    36c6: 91 1a        	sta	($1a),y                 ; 0x201a <main+0x1a88>
    36c8: 8a           	txa
    36c9: 91 1c        	sta	($1c),y                 ; 0x201c <main+0x1a8a>
    36cb: a6 2c        	ldx	$2c                     ; 0x202c <main+0x1a9a>
    36cd: 86 1c        	stx	$1c                     ; 0x201c <main+0x1a8a>
    36cf: a0 13        	ldy	#$13
    36d1: b1 10        	lda	($10),y                 ; 0x2010 <main+0x1a7e>
    36d3: aa           	tax
    36d4: a5 2e        	lda	$2e                     ; 0x202e <main+0x1a9c>
    36d6: e8           	inx
    36d7: d0 09        	bne	$36e2 <parse+0x13c4>
    36d9: e6 1c        	inc	$1c                     ; 0x201c <main+0x1a8a>
    36db: d0 05        	bne	$36e2 <parse+0x13c4>
    36dd: e6 2d        	inc	$2d                     ; 0x202d <main+0x1a9b>
    36df: d0 01        	bne	$36e2 <parse+0x13c4>
    36e1: 1a           	inc
    36e2: da           	phx
    36e3: 7a           	ply
    36e4: a6 2d        	ldx	$2d                     ; 0x202d <main+0x1a9b>
    36e6: 86 1d        	stx	$1d                     ; 0x201d <main+0x1a8b>
    36e8: 4c f9 2a     	jmp	$2af9 <parse+0x7db>
    36eb: 5a           	phy
    36ec: a5 2f        	lda	$2f                     ; 0x202f <main+0x1a9d>
    36ee: a0 11        	ldy	#$11
    36f0: 91 10        	sta	($10),y                 ; 0x2010 <main+0x1a7e>
    36f2: a0 1b        	ldy	#$1b
    36f4: b1 10        	lda	($10),y                 ; 0x2010 <main+0x1a7e>
    36f6: 29 8f        	and	#$8f
    36f8: 91 10        	sta	($10),y                 ; 0x2010 <main+0x1a7e>
    36fa: 18           	clc
    36fb: a9 00        	lda	#$0
    36fd: a0 10        	ldy	#$10
    36ff: 91 10        	sta	($10),y                 ; 0x2010 <main+0x1a7e>
    3701: a2 7f        	ldx	#$7f
    3703: 8a           	txa
    3704: a0 1d        	ldy	#$1d
    3706: 4c 4f 34     	jmp	$344f <parse+0x1131>

00003709 <__putchar>:
    3709: 85 6f        	sta	$6f                     ; 0x206f <main+0x1add>
    370b: a6 01        	ldx	$1                      ; 0x2001 <main+0x1a6f>
    370d: 86 22        	stx	$22                     ; 0x2022 <main+0x1a90>
    370f: a6 6a        	ldx	$6a                     ; 0x206a <main+0x1ad8>
    3711: a0 50        	ldy	#$50
    3713: 8c 00 de     	sty	$de00                   ; 0xde00 <end_block9+0x756a>
    3716: 9c 01 de     	stz	$de01                   ; 0xde01 <end_block9+0x756b>
    3719: 8e 02 de     	stx	$de02                   ; 0xde02 <end_block9+0x756c>
    371c: 9c 03 de     	stz	$de03                   ; 0xde03 <end_block9+0x756d>
    371f: ae 10 de     	ldx	$de10                   ; 0xde10 <end_block9+0x757a>
    3722: ac 11 de     	ldy	$de11                   ; 0xde11 <end_block9+0x757b>
    3725: 84 13        	sty	$13                     ; 0x2013 <main+0x1a81>
    3727: ad 12 de     	lda	$de12                   ; 0xde12 <end_block9+0x757c>
    372a: ac 13 de     	ldy	$de13                   ; 0xde13 <end_block9+0x757d>
    372d: 84 1a        	sty	$1a                     ; 0x201a <main+0x1a88>
    372f: 9c 08 de     	stz	$de08                   ; 0xde08 <end_block9+0x7572>
    3732: a0 c0        	ldy	#$c0
    3734: 8c 09 de     	sty	$de09                   ; 0xde09 <end_block9+0x7573>
    3737: 9c 0a de     	stz	$de0a                   ; 0xde0a <end_block9+0x7574>
    373a: 9c 0b de     	stz	$de0b                   ; 0xde0b <end_block9+0x7575>
    373d: 8e 0c de     	stx	$de0c                   ; 0xde0c <end_block9+0x7576>
    3740: 64 12        	stz	$12                     ; 0x2012 <main+0x1a80>
    3742: a2 00        	ldx	#$0
    3744: 86 14        	stx	$14                     ; 0x2014 <main+0x1a82>
    3746: a2 c0        	ldx	#$c0
    3748: 86 15        	stx	$15                     ; 0x2015 <main+0x1a83>
    374a: a2 11        	ldx	#$11
    374c: 86 16        	stx	$16                     ; 0x2016 <main+0x1a84>
    374e: a2 c9        	ldx	#$c9
    3750: 86 17        	stx	$17                     ; 0x2017 <main+0x1a85>
    3752: a2 10        	ldx	#$10
    3754: 86 18        	stx	$18                     ; 0x2018 <main+0x1a86>
    3756: a2 c9        	ldx	#$c9
    3758: 86 19        	stx	$19                     ; 0x2019 <main+0x1a87>
    375a: a6 13        	ldx	$13                     ; 0x2013 <main+0x1a81>
    375c: 8e 0d de     	stx	$de0d                   ; 0xde0d <end_block9+0x7577>
    375f: 8d 0e de     	sta	$de0e                   ; 0xde0e <end_block9+0x7578>
    3762: a6 1a        	ldx	$1a                     ; 0x201a <main+0x1a88>
    3764: 8e 0f de     	stx	$de0f                   ; 0xde0f <end_block9+0x7579>
    3767: ac 18 de     	ldy	$de18                   ; 0xde18 <end_block9+0x7582>
    376a: ad 19 de     	lda	$de19                   ; 0xde19 <end_block9+0x7583>
    376d: ae 1a de     	ldx	$de1a                   ; 0xde1a <end_block9+0x7584>
    3770: ae 1b de     	ldx	$de1b                   ; 0xde1b <end_block9+0x7585>
    3773: 84 1a        	sty	$1a                     ; 0x201a <main+0x1a88>
    3775: 85 1b        	sta	$1b                     ; 0x201b <main+0x1a89>
    3777: 64 13        	stz	$13                     ; 0x2013 <main+0x1a81>
    3779: 80 13        	bra	$378e <__putchar+0x85>
    377b: a5 1a        	lda	$1a                     ; 0x201a <main+0x1a88>
    377d: 18           	clc
    377e: 69 50        	adc	#$50
    3780: 85 1a        	sta	$1a                     ; 0x201a <main+0x1a88>
    3782: a5 1b        	lda	$1b                     ; 0x201b <main+0x1a89>
    3784: 69 00        	adc	#$0
    3786: 85 1b        	sta	$1b                     ; 0x201b <main+0x1a89>
    3788: e6 12        	inc	$12                     ; 0x2012 <main+0x1a80>
    378a: d0 02        	bne	$378e <__putchar+0x85>
    378c: e6 13        	inc	$13                     ; 0x2013 <main+0x1a81>
    378e: a9 6f        	lda	#$6f
    3790: 18           	clc
    3791: 65 12        	adc	$12                     ; 0x2012 <main+0x1a80>
    3793: 85 1c        	sta	$1c                     ; 0x201c <main+0x1a8a>
    3795: a9 00        	lda	#$0
    3797: 65 13        	adc	$13                     ; 0x2013 <main+0x1a81>
    3799: 85 1d        	sta	$1d                     ; 0x201d <main+0x1a8b>
    379b: b2 1c        	lda	($1c)                   ; 0x201c <main+0x1a8a>
    379d: c9 0a        	cmp	#$a
    379f: f0 26        	beq	$37c7 <__putchar+0xbe>
    37a1: c9 0d        	cmp	#$d
    37a3: f0 22        	beq	$37c7 <__putchar+0xbe>
    37a5: aa           	tax
    37a6: d0 03        	bne	$37ab <__putchar+0xa2>
    37a8: 4c ac 38     	jmp	$38ac <__putchar+0x1a3>
    37ab: a2 03        	ldx	#$3
    37ad: 86 01        	stx	$1                      ; 0x2001 <main+0x1a6f>
    37af: a5 60        	lda	$60                     ; 0x2060 <main+0x1ace>
    37b1: a4 69        	ldy	$69                     ; 0x2069 <main+0x1ad7>
    37b3: 91 1a        	sta	($1a),y                 ; 0x201a <main+0x1a88>
    37b5: ca           	dex
    37b6: 86 01        	stx	$1                      ; 0x2001 <main+0x1a6f>
    37b8: b2 1c        	lda	($1c)                   ; 0x201c <main+0x1a8a>
    37ba: a4 69        	ldy	$69                     ; 0x2069 <main+0x1ad7>
    37bc: 91 1a        	sta	($1a),y                 ; 0x201a <main+0x1a88>
    37be: a6 69        	ldx	$69                     ; 0x2069 <main+0x1ad7>
    37c0: e8           	inx
    37c1: e6 69        	inc	$69                     ; 0x2069 <main+0x1ad7>
    37c3: e0 50        	cpx	#$50
    37c5: d0 c1        	bne	$3788 <__putchar+0x7f>
    37c7: 64 69        	stz	$69                     ; 0x2069 <main+0x1ad7>
    37c9: a6 6a        	ldx	$6a                     ; 0x206a <main+0x1ad8>
    37cb: e8           	inx
    37cc: e6 6a        	inc	$6a                     ; 0x206a <main+0x1ad8>
    37ce: e0 1e        	cpx	#$1e
    37d0: f0 03        	beq	$37d5 <__putchar+0xcc>
    37d2: 4c 7b 37     	jmp	$377b <__putchar+0x72>
    37d5: a2 03        	ldx	#$3
    37d7: 86 01        	stx	$1                      ; 0x2001 <main+0x1a6f>
    37d9: a2 01        	ldx	#$1
    37db: 86 1a        	stx	$1a                     ; 0x201a <main+0x1a88>
    37dd: a2 09        	ldx	#$9
    37df: a9 10        	lda	#$10
    37e1: a0 00        	ldy	#$0
    37e3: 84 1c        	sty	$1c                     ; 0x201c <main+0x1a8a>
    37e5: a0 c0        	ldy	#$c0
    37e7: 84 1d        	sty	$1d                     ; 0x201d <main+0x1a8b>
    37e9: 85 1b        	sta	$1b                     ; 0x201b <main+0x1a89>
    37eb: a0 50        	ldy	#$50
    37ed: b1 1c        	lda	($1c),y                 ; 0x201c <main+0x1a8a>
    37ef: 92 1c        	sta	($1c)                   ; 0x201c <main+0x1a8a>
    37f1: a9 ff        	lda	#$ff
    37f3: c6 1b        	dec	$1b                     ; 0x201b <main+0x1a89>
    37f5: c5 1b        	cmp	$1b                     ; 0x201b <main+0x1a89>
    37f7: d0 01        	bne	$37fa <__putchar+0xf1>
    37f9: ca           	dex
    37fa: e6 1c        	inc	$1c                     ; 0x201c <main+0x1a8a>
    37fc: d0 02        	bne	$3800 <__putchar+0xf7>
    37fe: e6 1d        	inc	$1d                     ; 0x201d <main+0x1a8b>
    3800: 8a           	txa
    3801: d0 ea        	bne	$37ed <__putchar+0xe4>
    3803: a5 1b        	lda	$1b                     ; 0x201b <main+0x1a89>
    3805: d0 e6        	bne	$37ed <__putchar+0xe4>
    3807: a2 02        	ldx	#$2
    3809: 86 01        	stx	$1                      ; 0x2001 <main+0x1a6f>
    380b: a2 00        	ldx	#$0
    380d: a5 1a        	lda	$1a                     ; 0x201a <main+0x1a88>
    380f: d0 ca        	bne	$37db <__putchar+0xd2>
    3811: a2 03        	ldx	#$3
    3813: 86 01        	stx	$1                      ; 0x2001 <main+0x1a6f>
    3815: a5 60        	lda	$60                     ; 0x2060 <main+0x1ace>
    3817: a2 50        	ldx	#$50
    3819: a0 11        	ldy	#$11
    381b: 84 1a        	sty	$1a                     ; 0x201a <main+0x1a88>
    381d: a0 c9        	ldy	#$c9
    381f: 84 1b        	sty	$1b                     ; 0x201b <main+0x1a89>
    3821: a0 10        	ldy	#$10
    3823: 84 1c        	sty	$1c                     ; 0x201c <main+0x1a8a>
    3825: a0 c9        	ldy	#$c9
    3827: 84 1d        	sty	$1d                     ; 0x201d <main+0x1a8b>
    3829: a4 1a        	ldy	$1a                     ; 0x201a <main+0x1a88>
    382b: 84 1e        	sty	$1e                     ; 0x201e <main+0x1a8c>
    382d: a4 1b        	ldy	$1b                     ; 0x201b <main+0x1a89>
    382f: 84 1f        	sty	$1f                     ; 0x201f <main+0x1a8d>
    3831: 92 1c        	sta	($1c)                   ; 0x201c <main+0x1a8a>
    3833: e6 1a        	inc	$1a                     ; 0x201a <main+0x1a88>
    3835: d0 02        	bne	$3839 <__putchar+0x130>
    3837: e6 1b        	inc	$1b                     ; 0x201b <main+0x1a89>
    3839: ca           	dex
    383a: a4 1e        	ldy	$1e                     ; 0x201e <main+0x1a8c>
    383c: 84 1c        	sty	$1c                     ; 0x201c <main+0x1a8a>
    383e: a4 1f        	ldy	$1f                     ; 0x201f <main+0x1a8d>
    3840: 84 1d        	sty	$1d                     ; 0x201d <main+0x1a8b>
    3842: e0 00        	cpx	#$0
    3844: d0 e3        	bne	$3829 <__putchar+0x120>
    3846: a2 02        	ldx	#$2
    3848: 86 01        	stx	$1                      ; 0x2001 <main+0x1a6f>
    384a: a2 50        	ldx	#$50
    384c: a0 11        	ldy	#$11
    384e: 84 1a        	sty	$1a                     ; 0x201a <main+0x1a88>
    3850: a0 c9        	ldy	#$c9
    3852: 84 1b        	sty	$1b                     ; 0x201b <main+0x1a89>
    3854: a0 10        	ldy	#$10
    3856: 84 1c        	sty	$1c                     ; 0x201c <main+0x1a8a>
    3858: a0 c9        	ldy	#$c9
    385a: 84 1d        	sty	$1d                     ; 0x201d <main+0x1a8b>
    385c: a9 20        	lda	#$20
    385e: a4 1a        	ldy	$1a                     ; 0x201a <main+0x1a88>
    3860: 84 1e        	sty	$1e                     ; 0x201e <main+0x1a8c>
    3862: a4 1b        	ldy	$1b                     ; 0x201b <main+0x1a89>
    3864: 84 1f        	sty	$1f                     ; 0x201f <main+0x1a8d>
    3866: 92 1c        	sta	($1c)                   ; 0x201c <main+0x1a8a>
    3868: e6 1a        	inc	$1a                     ; 0x201a <main+0x1a88>
    386a: d0 02        	bne	$386e <__putchar+0x165>
    386c: e6 1b        	inc	$1b                     ; 0x201b <main+0x1a89>
    386e: ca           	dex
    386f: a4 1e        	ldy	$1e                     ; 0x201e <main+0x1a8c>
    3871: 84 1c        	sty	$1c                     ; 0x201c <main+0x1a8a>
    3873: a4 1f        	ldy	$1f                     ; 0x201f <main+0x1a8d>
    3875: 84 1d        	sty	$1d                     ; 0x201d <main+0x1a8b>
    3877: e0 00        	cpx	#$0
    3879: d0 e3        	bne	$385e <__putchar+0x155>
    387b: c6 6a        	dec	$6a                     ; 0x206a <main+0x1ad8>
    387d: 9c 08 de     	stz	$de08                   ; 0xde08 <end_block9+0x7572>
    3880: a2 c0        	ldx	#$c0
    3882: 8e 09 de     	stx	$de09                   ; 0xde09 <end_block9+0x7573>
    3885: 9c 0a de     	stz	$de0a                   ; 0xde0a <end_block9+0x7574>
    3888: 9c 0b de     	stz	$de0b                   ; 0xde0b <end_block9+0x7575>
    388b: a2 1d        	ldx	#$1d
    388d: 8e 0c de     	stx	$de0c                   ; 0xde0c <end_block9+0x7576>
    3890: 9c 0d de     	stz	$de0d                   ; 0xde0d <end_block9+0x7577>
    3893: 9c 0e de     	stz	$de0e                   ; 0xde0e <end_block9+0x7578>
    3896: 9c 0f de     	stz	$de0f                   ; 0xde0f <end_block9+0x7579>
    3899: ae 18 de     	ldx	$de18                   ; 0xde18 <end_block9+0x7582>
    389c: ac 19 de     	ldy	$de19                   ; 0xde19 <end_block9+0x7583>
    389f: ad 1a de     	lda	$de1a                   ; 0xde1a <end_block9+0x7584>
    38a2: ad 1b de     	lda	$de1b                   ; 0xde1b <end_block9+0x7585>
    38a5: 86 1a        	stx	$1a                     ; 0x201a <main+0x1a88>
    38a7: 84 1b        	sty	$1b                     ; 0x201b <main+0x1a89>
    38a9: 4c 88 37     	jmp	$3788 <__putchar+0x7f>
    38ac: a6 22        	ldx	$22                     ; 0x2022 <main+0x1a90>
    38ae: 86 01        	stx	$1                      ; 0x2001 <main+0x1a6f>
    38b0: a6 69        	ldx	$69                     ; 0x2069 <main+0x1ad7>
    38b2: a4 6a        	ldy	$6a                     ; 0x206a <main+0x1ad8>
    38b4: 8e 14 d0     	stx	$d014                   ; 0xd014 <end_block9+0x677e>
    38b7: 9c 15 d0     	stz	$d015                   ; 0xd015 <end_block9+0x677f>
    38ba: 84 6a        	sty	$6a                     ; 0x206a <main+0x1ad8>
    38bc: 8c 16 d0     	sty	$d016                   ; 0xd016 <end_block9+0x6780>
    38bf: 9c 17 d0     	stz	$d017                   ; 0xd017 <end_block9+0x6781>
    38c2: 60           	rts

000038c3 <exit>:
    38c3: 20 49 03     	jsr	$349 <_fini>
    38c6: 80 fe        	bra	$38c6 <exit+0x3>

000038c8 <_ZN12_GLOBAL__N_13putEcP6Status>:
    38c8: 85 18        	sta	$18                     ; 0x2018 <main+0x1a86>
    38ca: a6 13        	ldx	$13                     ; 0x2013 <main+0x1a81>
    38cc: 18           	clc
    38cd: a5 12        	lda	$12                     ; 0x2012 <main+0x1a80>
    38cf: 69 05        	adc	#$5
    38d1: a8           	tay
    38d2: a5 13        	lda	$13                     ; 0x2013 <main+0x1a81>
    38d4: 86 15        	stx	$15                     ; 0x2015 <main+0x1a83>
    38d6: 69 00        	adc	#$0
    38d8: 18           	clc
    38d9: 84 16        	sty	$16                     ; 0x2016 <main+0x1a84>
    38db: a0 05        	ldy	#$5
    38dd: 85 17        	sta	$17                     ; 0x2017 <main+0x1a85>
    38df: b1 12        	lda	($12),y                 ; 0x2012 <main+0x1a80>
    38e1: aa           	tax
    38e2: a5 12        	lda	$12                     ; 0x2012 <main+0x1a80>
    38e4: 69 03        	adc	#$3
    38e6: 85 14        	sta	$14                     ; 0x2014 <main+0x1a82>
    38e8: a5 15        	lda	$15                     ; 0x2015 <main+0x1a83>
    38ea: 69 00        	adc	#$0
    38ec: 85 15        	sta	$15                     ; 0x2015 <main+0x1a83>
    38ee: a0 01        	ldy	#$1
    38f0: b1 16        	lda	($16),y                 ; 0x2016 <main+0x1a84>
    38f2: d1 14        	cmp	($14),y                 ; 0x2014 <main+0x1a82>
    38f4: d0 11        	bne	$3907 <_ZN12_GLOBAL__N_13putEcP6Status+0x3f>
    38f6: a0 03        	ldy	#$3
    38f8: 85 17        	sta	$17                     ; 0x2017 <main+0x1a85>
    38fa: b1 12        	lda	($12),y                 ; 0x2012 <main+0x1a80>
    38fc: 85 14        	sta	$14                     ; 0x2014 <main+0x1a82>
    38fe: 86 16        	stx	$16                     ; 0x2016 <main+0x1a84>
    3900: e4 14        	cpx	$14                     ; 0x2014 <main+0x1a82>
    3902: 90 0e        	bcc	$3912 <_ZN12_GLOBAL__N_13putEcP6Status+0x4a>
    3904: 4c 71 39     	jmp	$3971 <_ZN12_GLOBAL__N_13putEcP6Status+0xa9>
    3907: 86 16        	stx	$16                     ; 0x2016 <main+0x1a84>
    3909: d1 14        	cmp	($14),y                 ; 0x2014 <main+0x1a82>
    390b: 85 17        	sta	$17                     ; 0x2017 <main+0x1a85>
    390d: 90 03        	bcc	$3912 <_ZN12_GLOBAL__N_13putEcP6Status+0x4a>
    390f: 4c 71 39     	jmp	$3971 <_ZN12_GLOBAL__N_13putEcP6Status+0xa9>
    3912: a5 12        	lda	$12                     ; 0x2012 <main+0x1a80>
    3914: 18           	clc
    3915: 69 0f        	adc	#$f
    3917: 85 14        	sta	$14                     ; 0x2014 <main+0x1a82>
    3919: a5 13        	lda	$13                     ; 0x2013 <main+0x1a81>
    391b: 69 00        	adc	#$0
    391d: 85 15        	sta	$15                     ; 0x2015 <main+0x1a83>
    391f: a0 01        	ldy	#$1
    3921: b1 14        	lda	($14),y                 ; 0x2014 <main+0x1a82>
    3923: a2 00        	ldx	#$0
    3925: 86 14        	stx	$14                     ; 0x2014 <main+0x1a82>
    3927: a2 00        	ldx	#$0
    3929: 86 15        	stx	$15                     ; 0x2015 <main+0x1a83>
    392b: c5 15        	cmp	$15                     ; 0x2015 <main+0x1a83>
    392d: d0 2d        	bne	$395c <_ZN12_GLOBAL__N_13putEcP6Status+0x94>
    392f: a0 0f        	ldy	#$f
    3931: b1 12        	lda	($12),y                 ; 0x2012 <main+0x1a80>
    3933: c5 14        	cmp	$14                     ; 0x2014 <main+0x1a82>
    3935: d0 25        	bne	$395c <_ZN12_GLOBAL__N_13putEcP6Status+0x94>
    3937: a5 12        	lda	$12                     ; 0x2012 <main+0x1a80>
    3939: 18           	clc
    393a: 69 09        	adc	#$9
    393c: 85 14        	sta	$14                     ; 0x2014 <main+0x1a82>
    393e: a5 13        	lda	$13                     ; 0x2013 <main+0x1a81>
    3940: 69 00        	adc	#$0
    3942: a0 09        	ldy	#$9
    3944: 85 15        	sta	$15                     ; 0x2015 <main+0x1a83>
    3946: 18           	clc
    3947: a5 16        	lda	$16                     ; 0x2016 <main+0x1a84>
    3949: 71 12        	adc	($12),y                 ; 0x2012 <main+0x1a80>
    394b: aa           	tax
    394c: a0 01        	ldy	#$1
    394e: a5 17        	lda	$17                     ; 0x2017 <main+0x1a85>
    3950: 71 14        	adc	($14),y                 ; 0x2014 <main+0x1a82>
    3952: 86 14        	stx	$14                     ; 0x2014 <main+0x1a82>
    3954: 85 15        	sta	$15                     ; 0x2015 <main+0x1a83>
    3956: a5 18        	lda	$18                     ; 0x2018 <main+0x1a86>
    3958: 92 14        	sta	($14)                   ; 0x2014 <main+0x1a82>
    395a: 80 15        	bra	$3971 <_ZN12_GLOBAL__N_13putEcP6Status+0xa9>
    395c: a6 12        	ldx	$12                     ; 0x2012 <main+0x1a80>
    395e: 86 de        	stx	$de                     ; 0x20de <main+0x1b4c>
    3960: a6 13        	ldx	$13                     ; 0x2013 <main+0x1a81>
    3962: 86 df        	stx	$df                     ; 0x20df <main+0x1b4d>
    3964: a5 18        	lda	$18                     ; 0x2018 <main+0x1a86>
    3966: 20 09 37     	jsr	$3709 <__putchar>
    3969: a6 de        	ldx	$de                     ; 0x20de <main+0x1b4c>
    396b: 86 12        	stx	$12                     ; 0x2012 <main+0x1a80>
    396d: a6 df        	ldx	$df                     ; 0x20df <main+0x1b4d>
    396f: 86 13        	stx	$13                     ; 0x2013 <main+0x1a81>
    3971: a0 05        	ldy	#$5
    3973: a5 12        	lda	$12                     ; 0x2012 <main+0x1a80>
    3975: 18           	clc
    3976: 69 05        	adc	#$5
    3978: 85 14        	sta	$14                     ; 0x2014 <main+0x1a82>
    397a: a5 13        	lda	$13                     ; 0x2013 <main+0x1a81>
    397c: 69 00        	adc	#$0
    397e: 85 15        	sta	$15                     ; 0x2015 <main+0x1a83>
    3980: b1 12        	lda	($12),y                 ; 0x2012 <main+0x1a80>
    3982: aa           	tax
    3983: a0 01        	ldy	#$1
    3985: b1 14        	lda	($14),y                 ; 0x2014 <main+0x1a82>
    3987: e8           	inx
    3988: d0 01        	bne	$398b <_ZN12_GLOBAL__N_13putEcP6Status+0xc3>
    398a: 1a           	inc
    398b: 85 16        	sta	$16                     ; 0x2016 <main+0x1a84>
    398d: 8a           	txa
    398e: a0 05        	ldy	#$5
    3990: 91 12        	sta	($12),y                 ; 0x2012 <main+0x1a80>
    3992: a0 01        	ldy	#$1
    3994: a5 16        	lda	$16                     ; 0x2016 <main+0x1a84>
    3996: 91 14        	sta	($14),y                 ; 0x2014 <main+0x1a82>
    3998: 60           	rts

00003999 <_ZN12_GLOBAL__N_112print_stringEPKcP6Status>:
    3999: a6 12        	ldx	$12                     ; 0x2012 <main+0x1a80>
    399b: 86 d6        	stx	$d6                     ; 0x20d6 <main+0x1b44>
    399d: a6 13        	ldx	$13                     ; 0x2013 <main+0x1a81>
    399f: 86 d7        	stx	$d7                     ; 0x20d7 <main+0x1b45>
    39a1: a6 14        	ldx	$14                     ; 0x2014 <main+0x1a82>
    39a3: 86 d8        	stx	$d8                     ; 0x20d8 <main+0x1b46>
    39a5: a6 15        	ldx	$15                     ; 0x2015 <main+0x1a83>
    39a7: 86 d9        	stx	$d9                     ; 0x20d9 <main+0x1b47>
    39a9: a5 d8        	lda	$d8                     ; 0x20d8 <main+0x1b46>
    39ab: 18           	clc
    39ac: 69 0d        	adc	#$d
    39ae: 85 12        	sta	$12                     ; 0x2012 <main+0x1a80>
    39b0: a5 d9        	lda	$d9                     ; 0x20d9 <main+0x1b47>
    39b2: 69 00        	adc	#$0
    39b4: 85 13        	sta	$13                     ; 0x2013 <main+0x1a81>
    39b6: a0 01        	ldy	#$1
    39b8: b1 12        	lda	($12),y                 ; 0x2012 <main+0x1a80>
    39ba: 30 16        	bmi	$39d2 <_ZN12_GLOBAL__N_112print_stringEPKcP6Status+0x39>
    39bc: a0 0d        	ldy	#$d
    39be: 85 12        	sta	$12                     ; 0x2012 <main+0x1a80>
    39c0: b1 d8        	lda	($d8),y                 ; 0x20d8 <main+0x1b46>
    39c2: a6 12        	ldx	$12                     ; 0x2012 <main+0x1a80>
    39c4: 86 dd        	stx	$dd                     ; 0x20dd <main+0x1b4b>
    39c6: d0 0f        	bne	$39d7 <_ZN12_GLOBAL__N_112print_stringEPKcP6Status+0x3e>
    39c8: aa           	tax
    39c9: d0 0c        	bne	$39d7 <_ZN12_GLOBAL__N_112print_stringEPKcP6Status+0x3e>
    39cb: 64 da        	stz	$da                     ; 0x20da <main+0x1b48>
    39cd: a2 00        	ldx	#$0
    39cf: 4c a1 3a     	jmp	$3aa1 <_ZN12_GLOBAL__N_112print_stringEPKcP6Status+0x108>
    39d2: a9 ff        	lda	#$ff
    39d4: aa           	tax
    39d5: 86 dd        	stx	$dd                     ; 0x20dd <main+0x1b4b>
    39d7: 85 da        	sta	$da                     ; 0x20da <main+0x1b48>
    39d9: 64 12        	stz	$12                     ; 0x2012 <main+0x1a80>
    39db: a4 d6        	ldy	$d6                     ; 0x20d6 <main+0x1b44>
    39dd: a6 d7        	ldx	$d7                     ; 0x20d7 <main+0x1b45>
    39df: 86 16        	stx	$16                     ; 0x2016 <main+0x1a84>
    39e1: 64 13        	stz	$13                     ; 0x2013 <main+0x1a81>
    39e3: 98           	tya
    39e4: 18           	clc
    39e5: 65 12        	adc	$12                     ; 0x2012 <main+0x1a80>
    39e7: 85 14        	sta	$14                     ; 0x2014 <main+0x1a82>
    39e9: a5 d7        	lda	$d7                     ; 0x20d7 <main+0x1b45>
    39eb: 65 13        	adc	$13                     ; 0x2013 <main+0x1a81>
    39ed: 85 15        	sta	$15                     ; 0x2015 <main+0x1a83>
    39ef: b2 14        	lda	($14)                   ; 0x2014 <main+0x1a82>
    39f1: d0 03        	bne	$39f6 <_ZN12_GLOBAL__N_112print_stringEPKcP6Status+0x5d>
    39f3: 4c 9b 3a     	jmp	$3a9b <_ZN12_GLOBAL__N_112print_stringEPKcP6Status+0x102>
    39f6: e6 12        	inc	$12                     ; 0x2012 <main+0x1a80>
    39f8: d0 02        	bne	$39fc <_ZN12_GLOBAL__N_112print_stringEPKcP6Status+0x63>
    39fa: e6 13        	inc	$13                     ; 0x2013 <main+0x1a81>
    39fc: a6 dd        	ldx	$dd                     ; 0x20dd <main+0x1b4b>
    39fe: e4 13        	cpx	$13                     ; 0x2013 <main+0x1a81>
    3a00: d0 e1        	bne	$39e3 <_ZN12_GLOBAL__N_112print_stringEPKcP6Status+0x4a>
    3a02: a6 da        	ldx	$da                     ; 0x20da <main+0x1b48>
    3a04: e4 12        	cpx	$12                     ; 0x2012 <main+0x1a80>
    3a06: d0 db        	bne	$39e3 <_ZN12_GLOBAL__N_112print_stringEPKcP6Status+0x4a>
    3a08: a0 01        	ldy	#$1
    3a0a: 98           	tya
    3a0b: 31 d8        	and	($d8),y                 ; 0x20d8 <main+0x1b46>
    3a0d: 29 01        	and	#$1
    3a0f: f0 03        	beq	$3a14 <_ZN12_GLOBAL__N_112print_stringEPKcP6Status+0x7b>
    3a11: 4c 6c 3a     	jmp	$3a6c <_ZN12_GLOBAL__N_112print_stringEPKcP6Status+0xd3>
    3a14: a0 0b        	ldy	#$b
    3a16: a5 d8        	lda	$d8                     ; 0x20d8 <main+0x1b46>
    3a18: 18           	clc
    3a19: 69 0b        	adc	#$b
    3a1b: 85 14        	sta	$14                     ; 0x2014 <main+0x1a82>
    3a1d: a5 d9        	lda	$d9                     ; 0x20d9 <main+0x1b47>
    3a1f: 69 00        	adc	#$0
    3a21: 85 15        	sta	$15                     ; 0x2015 <main+0x1a83>
    3a23: b1 d8        	lda	($d8),y                 ; 0x20d8 <main+0x1b46>
    3a25: 85 12        	sta	$12                     ; 0x2012 <main+0x1a80>
    3a27: a0 01        	ldy	#$1
    3a29: b1 14        	lda	($14),y                 ; 0x2014 <main+0x1a82>
    3a2b: 85 13        	sta	$13                     ; 0x2013 <main+0x1a81>
    3a2d: a6 dd        	ldx	$dd                     ; 0x20dd <main+0x1b4b>
    3a2f: e4 13        	cpx	$13                     ; 0x2013 <main+0x1a81>
    3a31: d0 08        	bne	$3a3b <_ZN12_GLOBAL__N_112print_stringEPKcP6Status+0xa2>
    3a33: a6 da        	ldx	$da                     ; 0x20da <main+0x1b48>
    3a35: e4 12        	cpx	$12                     ; 0x2012 <main+0x1a80>
    3a37: 90 06        	bcc	$3a3f <_ZN12_GLOBAL__N_112print_stringEPKcP6Status+0xa6>
    3a39: 80 31        	bra	$3a6c <_ZN12_GLOBAL__N_112print_stringEPKcP6Status+0xd3>
    3a3b: e4 13        	cpx	$13                     ; 0x2013 <main+0x1a81>
    3a3d: b0 2d        	bcs	$3a6c <_ZN12_GLOBAL__N_112print_stringEPKcP6Status+0xd3>
    3a3f: 38           	sec
    3a40: a5 da        	lda	$da                     ; 0x20da <main+0x1b48>
    3a42: e5 12        	sbc	$12                     ; 0x2012 <main+0x1a80>
    3a44: a8           	tay
    3a45: a5 dd        	lda	$dd                     ; 0x20dd <main+0x1b4b>
    3a47: e5 13        	sbc	$13                     ; 0x2013 <main+0x1a81>
    3a49: 85 dc        	sta	$dc                     ; 0x20dc <main+0x1b4a>
    3a4b: a6 d8        	ldx	$d8                     ; 0x20d8 <main+0x1b46>
    3a4d: 86 12        	stx	$12                     ; 0x2012 <main+0x1a80>
    3a4f: a6 d9        	ldx	$d9                     ; 0x20d9 <main+0x1b47>
    3a51: 86 13        	stx	$13                     ; 0x2013 <main+0x1a81>
    3a53: 84 db        	sty	$db                     ; 0x20db <main+0x1b49>
    3a55: a9 20        	lda	#$20
    3a57: 20 c8 38     	jsr	$38c8 <_ZN12_GLOBAL__N_13putEcP6Status>
    3a5a: a6 dc        	ldx	$dc                     ; 0x20dc <main+0x1b4a>
    3a5c: e6 db        	inc	$db                     ; 0x20db <main+0x1b49>
    3a5e: d0 01        	bne	$3a61 <_ZN12_GLOBAL__N_112print_stringEPKcP6Status+0xc8>
    3a60: e8           	inx
    3a61: 86 dc        	stx	$dc                     ; 0x20dc <main+0x1b4a>
    3a63: a4 db        	ldy	$db                     ; 0x20db <main+0x1b49>
    3a65: 8a           	txa
    3a66: d0 e3        	bne	$3a4b <_ZN12_GLOBAL__N_112print_stringEPKcP6Status+0xb2>
    3a68: a5 db        	lda	$db                     ; 0x20db <main+0x1b49>
    3a6a: d0 df        	bne	$3a4b <_ZN12_GLOBAL__N_112print_stringEPKcP6Status+0xb2>
    3a6c: a4 dd        	ldy	$dd                     ; 0x20dd <main+0x1b4b>
    3a6e: d0 04        	bne	$3a74 <_ZN12_GLOBAL__N_112print_stringEPKcP6Status+0xdb>
    3a70: a5 da        	lda	$da                     ; 0x20da <main+0x1b48>
    3a72: f0 26        	beq	$3a9a <_ZN12_GLOBAL__N_112print_stringEPKcP6Status+0x101>
    3a74: a2 ff        	ldx	#$ff
    3a76: c6 da        	dec	$da                     ; 0x20da <main+0x1b48>
    3a78: e4 da        	cpx	$da                     ; 0x20da <main+0x1b48>
    3a7a: d0 01        	bne	$3a7d <_ZN12_GLOBAL__N_112print_stringEPKcP6Status+0xe4>
    3a7c: 88           	dey
    3a7d: 84 db        	sty	$db                     ; 0x20db <main+0x1b49>
    3a7f: b2 d6        	lda	($d6)                   ; 0x20d6 <main+0x1b44>
    3a81: e6 d6        	inc	$d6                     ; 0x20d6 <main+0x1b44>
    3a83: d0 02        	bne	$3a87 <_ZN12_GLOBAL__N_112print_stringEPKcP6Status+0xee>
    3a85: e6 d7        	inc	$d7                     ; 0x20d7 <main+0x1b45>
    3a87: a6 d8        	ldx	$d8                     ; 0x20d8 <main+0x1b46>
    3a89: 86 12        	stx	$12                     ; 0x2012 <main+0x1a80>
    3a8b: a6 d9        	ldx	$d9                     ; 0x20d9 <main+0x1b47>
    3a8d: 86 13        	stx	$13                     ; 0x2013 <main+0x1a81>
    3a8f: 20 c8 38     	jsr	$38c8 <_ZN12_GLOBAL__N_13putEcP6Status>
    3a92: a4 db        	ldy	$db                     ; 0x20db <main+0x1b49>
    3a94: d0 de        	bne	$3a74 <_ZN12_GLOBAL__N_112print_stringEPKcP6Status+0xdb>
    3a96: a5 da        	lda	$da                     ; 0x20da <main+0x1b48>
    3a98: d0 da        	bne	$3a74 <_ZN12_GLOBAL__N_112print_stringEPKcP6Status+0xdb>
    3a9a: 60           	rts
    3a9b: a6 12        	ldx	$12                     ; 0x2012 <main+0x1a80>
    3a9d: 86 da        	stx	$da                     ; 0x20da <main+0x1b48>
    3a9f: a6 13        	ldx	$13                     ; 0x2013 <main+0x1a81>
    3aa1: 86 dd        	stx	$dd                     ; 0x20dd <main+0x1b4b>
    3aa3: 4c 08 3a     	jmp	$3a08 <_ZN12_GLOBAL__N_112print_stringEPKcP6Status+0x6f>

00003aa6 <printf>:
    3aa6: a6 12        	ldx	$12                     ; 0x2012 <main+0x1a80>
    3aa8: 86 8b        	stx	$8b                     ; 0x208b <main+0x1af9>
    3aaa: a6 13        	ldx	$13                     ; 0x2013 <main+0x1a81>
    3aac: 86 8c        	stx	$8c                     ; 0x208c <main+0x1afa>
    3aae: 18           	clc
    3aaf: a6 10        	ldx	$10                     ; 0x2010 <main+0x1a7e>
    3ab1: a4 11        	ldy	$11                     ; 0x2011 <main+0x1a7f>
    3ab3: 86 cc        	stx	$cc                     ; 0x20cc <main+0x1b3a>
    3ab5: 84 cd        	sty	$cd                     ; 0x20cd <main+0x1b3b>
    3ab7: a6 cc        	ldx	$cc                     ; 0x20cc <main+0x1b3a>
    3ab9: a4 cd        	ldy	$cd                     ; 0x20cd <main+0x1b3b>
    3abb: 86 b7        	stx	$b7                     ; 0x20b7 <main+0x1b25>
    3abd: 84 b8        	sty	$b8                     ; 0x20b8 <main+0x1b26>
    3abf: a2 ff        	ldx	#$ff
    3ac1: 86 bc        	stx	$bc                     ; 0x20bc <main+0x1b2a>
    3ac3: 86 bd        	stx	$bd                     ; 0x20bd <main+0x1b2b>
    3ac5: 64 be        	stz	$be                     ; 0x20be <main+0x1b2c>
    3ac7: 64 bf        	stz	$bf                     ; 0x20bf <main+0x1b2d>
    3ac9: e8           	inx
    3aca: 86 8d        	stx	$8d                     ; 0x208d <main+0x1afb>
    3acc: a2 00        	ldx	#$0
    3ace: 86 8e        	stx	$8e                     ; 0x208e <main+0x1afc>
    3ad0: a6 8d        	ldx	$8d                     ; 0x208d <main+0x1afb>
    3ad2: a4 8e        	ldy	$8e                     ; 0x208e <main+0x1afc>
    3ad4: 86 c2        	stx	$c2                     ; 0x20c2 <main+0x1b30>
    3ad6: 84 c3        	sty	$c3                     ; 0x20c3 <main+0x1b31>
    3ad8: a2 02        	ldx	#$2
    3ada: 86 c8        	stx	$c8                     ; 0x20c8 <main+0x1b36>
    3adc: 64 c9        	stz	$c9                     ; 0x20c9 <main+0x1b37>
    3ade: a6 b7        	ldx	$b7                     ; 0x20b7 <main+0x1b25>
    3ae0: a4 b8        	ldy	$b8                     ; 0x20b8 <main+0x1b26>
    3ae2: 86 ca        	stx	$ca                     ; 0x20ca <main+0x1b38>
    3ae4: 84 cb        	sty	$cb                     ; 0x20cb <main+0x1b39>
    3ae6: a2 ae        	ldx	#$ae
    3ae8: a0 00        	ldy	#$0
    3aea: 86 12        	stx	$12                     ; 0x2012 <main+0x1a80>
    3aec: 84 13        	sty	$13                     ; 0x2013 <main+0x1a81>
    3aee: a0 01        	ldy	#$1
    3af0: a9 95        	lda	#$95
    3af2: 18           	clc
    3af3: 69 02        	adc	#$2
    3af5: 85 d4        	sta	$d4                     ; 0x20d4 <main+0x1b42>
    3af7: a9 00        	lda	#$0
    3af9: 69 00        	adc	#$0
    3afb: 85 d5        	sta	$d5                     ; 0x20d5 <main+0x1b43>
    3afd: e6 12        	inc	$12                     ; 0x2012 <main+0x1a80>
    3aff: d0 02        	bne	$3b03 <printf+0x5d>
    3b01: e6 13        	inc	$13                     ; 0x2013 <main+0x1a81>
    3b03: a6 12        	ldx	$12                     ; 0x2012 <main+0x1a80>
    3b05: 86 d1        	stx	$d1                     ; 0x20d1 <main+0x1b3f>
    3b07: a6 13        	ldx	$13                     ; 0x2013 <main+0x1a81>
    3b09: 86 d2        	stx	$d2                     ; 0x20d2 <main+0x1b40>
    3b0b: a6 8b        	ldx	$8b                     ; 0x208b <main+0x1af9>
    3b0d: 86 8f        	stx	$8f                     ; 0x208f <main+0x1afd>
    3b0f: a6 8c        	ldx	$8c                     ; 0x208c <main+0x1afa>
    3b11: 86 90        	stx	$90                     ; 0x2090 <main+0x1afe>
    3b13: b2 8b        	lda	($8b)                   ; 0x208b <main+0x1af9>
    3b15: c9 25        	cmp	#$25
    3b17: f0 21        	beq	$3b3a <printf+0x94>
    3b19: aa           	tax
    3b1a: d0 03        	bne	$3b1f <printf+0x79>
    3b1c: 4c 55 46     	jmp	$4655 <printf+0xbaf>
    3b1f: 20 09 37     	jsr	$3709 <__putchar>
    3b22: a0 01        	ldy	#$1
    3b24: e6 8f        	inc	$8f                     ; 0x208f <main+0x1afd>
    3b26: d0 02        	bne	$3b2a <printf+0x84>
    3b28: e6 90        	inc	$90                     ; 0x2090 <main+0x1afe>
    3b2a: e6 be        	inc	$be                     ; 0x20be <main+0x1b2c>
    3b2c: d0 02        	bne	$3b30 <printf+0x8a>
    3b2e: e6 bf        	inc	$bf                     ; 0x20bf <main+0x1b2d>
    3b30: a6 8f        	ldx	$8f                     ; 0x208f <main+0x1afd>
    3b32: 86 8b        	stx	$8b                     ; 0x208b <main+0x1af9>
    3b34: a6 90        	ldx	$90                     ; 0x2090 <main+0x1afe>
    3b36: 86 8c        	stx	$8c                     ; 0x208c <main+0x1afa>
    3b38: 80 d1        	bra	$3b0b <printf+0x65>
    3b3a: a6 8b        	ldx	$8b                     ; 0x208b <main+0x1af9>
    3b3c: 86 12        	stx	$12                     ; 0x2012 <main+0x1a80>
    3b3e: a6 8c        	ldx	$8c                     ; 0x208c <main+0x1afa>
    3b40: 86 13        	stx	$13                     ; 0x2013 <main+0x1a81>
    3b42: e6 12        	inc	$12                     ; 0x2012 <main+0x1a80>
    3b44: d0 02        	bne	$3b48 <printf+0xa2>
    3b46: e6 13        	inc	$13                     ; 0x2013 <main+0x1a81>
    3b48: b1 8f        	lda	($8f),y                 ; 0x208f <main+0x1afd>
    3b4a: c9 25        	cmp	#$25
    3b4c: d0 16        	bne	$3b64 <printf+0xbe>
    3b4e: a4 be        	ldy	$be                     ; 0x20be <main+0x1b2c>
    3b50: a5 bf        	lda	$bf                     ; 0x20bf <main+0x1b2d>
    3b52: c5 bd        	cmp	$bd                     ; 0x20bd <main+0x1b2b>
    3b54: f0 03        	beq	$3b59 <printf+0xb3>
    3b56: 4c 6a 3c     	jmp	$3c6a <printf+0x1c4>
    3b59: a6 bc        	ldx	$bc                     ; 0x20bc <main+0x1b2a>
    3b5b: 86 12        	stx	$12                     ; 0x2012 <main+0x1a80>
    3b5d: 84 13        	sty	$13                     ; 0x2013 <main+0x1a81>
    3b5f: c4 12        	cpy	$12                     ; 0x2012 <main+0x1a80>
    3b61: 4c 6e 3c     	jmp	$3c6e <printf+0x1c8>
    3b64: 64 ba        	stz	$ba                     ; 0x20ba <main+0x1b28>
    3b66: 64 bb        	stz	$bb                     ; 0x20bb <main+0x1b29>
    3b68: 64 b9        	stz	$b9                     ; 0x20b9 <main+0x1b27>
    3b6a: 64 c4        	stz	$c4                     ; 0x20c4 <main+0x1b32>
    3b6c: 64 c5        	stz	$c5                     ; 0x20c5 <main+0x1b33>
    3b6e: a2 ff        	ldx	#$ff
    3b70: 86 c6        	stx	$c6                     ; 0x20c6 <main+0x1b34>
    3b72: 86 c7        	stx	$c7                     ; 0x20c7 <main+0x1b35>
    3b74: 64 8a        	stz	$8a                     ; 0x208a <main+0x1af8>
    3b76: 80 33        	bra	$3bab <printf+0x105>
    3b78: a2 02        	ldx	#$2
    3b7a: 80 15        	bra	$3b91 <printf+0xeb>
    3b7c: e0 20        	cpx	#$20
    3b7e: f0 15        	beq	$3b95 <printf+0xef>
    3b80: 86 15        	stx	$15                     ; 0x2015 <main+0x1a83>
    3b82: e0 23        	cpx	#$23
    3b84: f0 03        	beq	$3b89 <printf+0xe3>
    3b86: 4c 08 3c     	jmp	$3c08 <printf+0x162>
    3b89: a5 8a        	lda	$8a                     ; 0x208a <main+0x1af8>
    3b8b: a2 04        	ldx	#$4
    3b8d: 80 02        	bra	$3b91 <printf+0xeb>
    3b8f: a2 10        	ldx	#$10
    3b91: 86 14        	stx	$14                     ; 0x2014 <main+0x1a82>
    3b93: 80 06        	bra	$3b9b <printf+0xf5>
    3b95: a2 08        	ldx	#$8
    3b97: 86 14        	stx	$14                     ; 0x2014 <main+0x1a82>
    3b99: a5 8a        	lda	$8a                     ; 0x208a <main+0x1af8>
    3b9b: 05 14        	ora	$14                     ; 0x2014 <main+0x1a82>
    3b9d: 85 8a        	sta	$8a                     ; 0x208a <main+0x1af8>
    3b9f: 85 ba        	sta	$ba                     ; 0x20ba <main+0x1b28>
    3ba1: a2 00        	ldx	#$0
    3ba3: 86 bb        	stx	$bb                     ; 0x20bb <main+0x1b29>
    3ba5: e6 12        	inc	$12                     ; 0x2012 <main+0x1a80>
    3ba7: d0 02        	bne	$3bab <printf+0x105>
    3ba9: e6 13        	inc	$13                     ; 0x2013 <main+0x1a81>
    3bab: b2 12        	lda	($12)                   ; 0x2012 <main+0x1a80>
    3bad: aa           	tax
    3bae: 38           	sec
    3baf: e9 2a        	sbc	#$2a
    3bb1: c9 07        	cmp	#$7
    3bb3: b0 c7        	bcs	$3b7c <printf+0xd6>
    3bb5: 86 15        	stx	$15                     ; 0x2015 <main+0x1a83>
    3bb7: 0a           	asl
    3bb8: aa           	tax
    3bb9: a0 01        	ldy	#$1
    3bbb: 84 14        	sty	$14                     ; 0x2014 <main+0x1a82>
    3bbd: a5 8a        	lda	$8a                     ; 0x208a <main+0x1af8>
    3bbf: 7c db 64     	jmp	($64db,x)               ; 0x64db <__set_v+0x23>
    3bc2: a5 ca        	lda	$ca                     ; 0x20ca <main+0x1b38>
    3bc4: a6 cb        	ldx	$cb                     ; 0x20cb <main+0x1b39>
    3bc6: 85 16        	sta	$16                     ; 0x2016 <main+0x1a84>
    3bc8: 86 17        	stx	$17                     ; 0x2017 <main+0x1a85>
    3bca: 18           	clc
    3bcb: 69 02        	adc	#$2
    3bcd: a8           	tay
    3bce: 8a           	txa
    3bcf: 69 00        	adc	#$0
    3bd1: 84 ca        	sty	$ca                     ; 0x20ca <main+0x1b38>
    3bd3: 85 cb        	sta	$cb                     ; 0x20cb <main+0x1b39>
    3bd5: b2 16        	lda	($16)                   ; 0x2016 <main+0x1a84>
    3bd7: 85 15        	sta	$15                     ; 0x2015 <main+0x1a83>
    3bd9: a0 01        	ldy	#$1
    3bdb: b1 16        	lda	($16),y                 ; 0x2016 <main+0x1a84>
    3bdd: 85 14        	sta	$14                     ; 0x2014 <main+0x1a82>
    3bdf: 10 15        	bpl	$3bf6 <printf+0x150>
    3be1: a5 8a        	lda	$8a                     ; 0x208a <main+0x1af8>
    3be3: 09 01        	ora	#$1
    3be5: 85 8a        	sta	$8a                     ; 0x208a <main+0x1af8>
    3be7: 85 ba        	sta	$ba                     ; 0x20ba <main+0x1b28>
    3be9: a2 00        	ldx	#$0
    3beb: 86 bb        	stx	$bb                     ; 0x20bb <main+0x1b29>
    3bed: 8a           	txa
    3bee: 38           	sec
    3bef: e5 15        	sbc	$15                     ; 0x2015 <main+0x1a83>
    3bf1: 85 15        	sta	$15                     ; 0x2015 <main+0x1a83>
    3bf3: 8a           	txa
    3bf4: e5 14        	sbc	$14                     ; 0x2014 <main+0x1a82>
    3bf6: a6 15        	ldx	$15                     ; 0x2015 <main+0x1a83>
    3bf8: 86 c4        	stx	$c4                     ; 0x20c4 <main+0x1b32>
    3bfa: 85 c5        	sta	$c5                     ; 0x20c5 <main+0x1b33>
    3bfc: e6 12        	inc	$12                     ; 0x2012 <main+0x1a80>
    3bfe: f0 03        	beq	$3c03 <printf+0x15d>
    3c00: 4c bc 3c     	jmp	$3cbc <printf+0x216>
    3c03: e6 13        	inc	$13                     ; 0x2013 <main+0x1a81>
    3c05: 4c bc 3c     	jmp	$3cbc <printf+0x216>
    3c08: a5 15        	lda	$15                     ; 0x2015 <main+0x1a83>
    3c0a: 18           	clc
    3c0b: 69 d0        	adc	#$d0
    3c0d: c9 0a        	cmp	#$a
    3c0f: 90 03        	bcc	$3c14 <printf+0x16e>
    3c11: 4c ae 3c     	jmp	$3cae <printf+0x208>
    3c14: a6 15        	ldx	$15                     ; 0x2015 <main+0x1a83>
    3c16: 86 14        	stx	$14                     ; 0x2014 <main+0x1a82>
    3c18: 64 16        	stz	$16                     ; 0x2016 <main+0x1a84>
    3c1a: 64 15        	stz	$15                     ; 0x2015 <main+0x1a83>
    3c1c: 64 17        	stz	$17                     ; 0x2017 <main+0x1a85>
    3c1e: a0 01        	ldy	#$1
    3c20: 06 16        	asl	$16                     ; 0x2016 <main+0x1a84>
    3c22: 26 17        	rol	$17                     ; 0x2017 <main+0x1a85>
    3c24: a5 16        	lda	$16                     ; 0x2016 <main+0x1a84>
    3c26: 0a           	asl
    3c27: aa           	tax
    3c28: a5 17        	lda	$17                     ; 0x2017 <main+0x1a85>
    3c2a: 2a           	rol
    3c2b: 86 18        	stx	$18                     ; 0x2018 <main+0x1a86>
    3c2d: 06 18        	asl	$18                     ; 0x2018 <main+0x1a86>
    3c2f: 2a           	rol
    3c30: aa           	tax
    3c31: a5 18        	lda	$18                     ; 0x2018 <main+0x1a86>
    3c33: 18           	clc
    3c34: 65 16        	adc	$16                     ; 0x2016 <main+0x1a84>
    3c36: 85 16        	sta	$16                     ; 0x2016 <main+0x1a84>
    3c38: 8a           	txa
    3c39: 65 17        	adc	$17                     ; 0x2017 <main+0x1a85>
    3c3b: 85 17        	sta	$17                     ; 0x2017 <main+0x1a85>
    3c3d: a5 16        	lda	$16                     ; 0x2016 <main+0x1a84>
    3c3f: 18           	clc
    3c40: 65 14        	adc	$14                     ; 0x2014 <main+0x1a82>
    3c42: 85 14        	sta	$14                     ; 0x2014 <main+0x1a82>
    3c44: a5 17        	lda	$17                     ; 0x2017 <main+0x1a85>
    3c46: 65 15        	adc	$15                     ; 0x2015 <main+0x1a83>
    3c48: aa           	tax
    3c49: 18           	clc
    3c4a: a5 14        	lda	$14                     ; 0x2014 <main+0x1a82>
    3c4c: 69 d0        	adc	#$d0
    3c4e: 85 16        	sta	$16                     ; 0x2016 <main+0x1a84>
    3c50: 8a           	txa
    3c51: 69 ff        	adc	#$ff
    3c53: 85 17        	sta	$17                     ; 0x2017 <main+0x1a85>
    3c55: b1 12        	lda	($12),y                 ; 0x2012 <main+0x1a80>
    3c57: 85 14        	sta	$14                     ; 0x2014 <main+0x1a82>
    3c59: 18           	clc
    3c5a: 69 d0        	adc	#$d0
    3c5c: e6 12        	inc	$12                     ; 0x2012 <main+0x1a80>
    3c5e: d0 02        	bne	$3c62 <printf+0x1bc>
    3c60: e6 13        	inc	$13                     ; 0x2013 <main+0x1a81>
    3c62: c9 0a        	cmp	#$a
    3c64: 64 15        	stz	$15                     ; 0x2015 <main+0x1a83>
    3c66: 90 b8        	bcc	$3c20 <printf+0x17a>
    3c68: 80 4a        	bra	$3cb4 <printf+0x20e>
    3c6a: 84 13        	sty	$13                     ; 0x2013 <main+0x1a81>
    3c6c: c5 bd        	cmp	$bd                     ; 0x20bd <main+0x1b2b>
    3c6e: a0 01        	ldy	#$1
    3c70: b0 26        	bcs	$3c98 <printf+0x1f2>
    3c72: a6 c9        	ldx	$c9                     ; 0x20c9 <main+0x1b37>
    3c74: e4 8e        	cpx	$8e                     ; 0x208e <main+0x1afc>
    3c76: d0 19        	bne	$3c91 <printf+0x1eb>
    3c78: a6 c8        	ldx	$c8                     ; 0x20c8 <main+0x1b36>
    3c7a: e4 8d        	cpx	$8d                     ; 0x208d <main+0x1afb>
    3c7c: d0 13        	bne	$3c91 <printf+0x1eb>
    3c7e: 18           	clc
    3c7f: aa           	tax
    3c80: a5 13        	lda	$13                     ; 0x2013 <main+0x1a81>
    3c82: 65 c2        	adc	$c2                     ; 0x20c2 <main+0x1b30>
    3c84: 85 12        	sta	$12                     ; 0x2012 <main+0x1a80>
    3c86: 8a           	txa
    3c87: 65 c3        	adc	$c3                     ; 0x20c3 <main+0x1b31>
    3c89: 85 13        	sta	$13                     ; 0x2013 <main+0x1a81>
    3c8b: a9 25        	lda	#$25
    3c8d: 92 12        	sta	($12)                   ; 0x2012 <main+0x1a80>
    3c8f: 80 07        	bra	$3c98 <printf+0x1f2>
    3c91: a9 25        	lda	#$25
    3c93: 20 09 37     	jsr	$3709 <__putchar>
    3c96: a0 01        	ldy	#$1
    3c98: e6 be        	inc	$be                     ; 0x20be <main+0x1b2c>
    3c9a: d0 02        	bne	$3c9e <printf+0x1f8>
    3c9c: e6 bf        	inc	$bf                     ; 0x20bf <main+0x1b2d>
    3c9e: a5 8f        	lda	$8f                     ; 0x208f <main+0x1afd>
    3ca0: 18           	clc
    3ca1: 69 02        	adc	#$2
    3ca3: 85 8b        	sta	$8b                     ; 0x208b <main+0x1af9>
    3ca5: a5 90        	lda	$90                     ; 0x2090 <main+0x1afe>
    3ca7: 69 00        	adc	#$0
    3ca9: 85 8c        	sta	$8c                     ; 0x208c <main+0x1afa>
    3cab: 4c 0b 3b     	jmp	$3b0b <printf+0x65>
    3cae: 64 16        	stz	$16                     ; 0x2016 <main+0x1a84>
    3cb0: 64 17        	stz	$17                     ; 0x2017 <main+0x1a85>
    3cb2: a0 01        	ldy	#$1
    3cb4: a6 16        	ldx	$16                     ; 0x2016 <main+0x1a84>
    3cb6: 86 c4        	stx	$c4                     ; 0x20c4 <main+0x1b32>
    3cb8: a5 17        	lda	$17                     ; 0x2017 <main+0x1a85>
    3cba: 85 c5        	sta	$c5                     ; 0x20c5 <main+0x1b33>
    3cbc: 86 93        	stx	$93                     ; 0x2093 <main+0x1b01>
    3cbe: 85 91        	sta	$91                     ; 0x2091 <main+0x1aff>
    3cc0: b2 12        	lda	($12)                   ; 0x2012 <main+0x1a80>
    3cc2: a2 ff        	ldx	#$ff
    3cc4: c9 2e        	cmp	#$2e
    3cc6: d0 39        	bne	$3d01 <printf+0x25b>
    3cc8: b1 12        	lda	($12),y                 ; 0x2012 <main+0x1a80>
    3cca: c9 2a        	cmp	#$2a
    3ccc: d0 38        	bne	$3d06 <printf+0x260>
    3cce: a5 ca        	lda	$ca                     ; 0x20ca <main+0x1b38>
    3cd0: a6 cb        	ldx	$cb                     ; 0x20cb <main+0x1b39>
    3cd2: 85 14        	sta	$14                     ; 0x2014 <main+0x1a82>
    3cd4: 86 15        	stx	$15                     ; 0x2015 <main+0x1a83>
    3cd6: 18           	clc
    3cd7: 69 02        	adc	#$2
    3cd9: 85 16        	sta	$16                     ; 0x2016 <main+0x1a84>
    3cdb: 8a           	txa
    3cdc: 69 00        	adc	#$0
    3cde: a6 16        	ldx	$16                     ; 0x2016 <main+0x1a84>
    3ce0: 86 ca        	stx	$ca                     ; 0x20ca <main+0x1b38>
    3ce2: 85 cb        	sta	$cb                     ; 0x20cb <main+0x1b39>
    3ce4: a5 12        	lda	$12                     ; 0x2012 <main+0x1a80>
    3ce6: 18           	clc
    3ce7: 69 02        	adc	#$2
    3ce9: 85 12        	sta	$12                     ; 0x2012 <main+0x1a80>
    3ceb: a5 13        	lda	$13                     ; 0x2013 <main+0x1a81>
    3ced: 69 00        	adc	#$0
    3cef: 85 13        	sta	$13                     ; 0x2013 <main+0x1a81>
    3cf1: b2 14        	lda	($14)                   ; 0x2014 <main+0x1a82>
    3cf3: aa           	tax
    3cf4: b1 14        	lda	($14),y                 ; 0x2014 <main+0x1a82>
    3cf6: 86 18        	stx	$18                     ; 0x2018 <main+0x1a86>
    3cf8: 86 c6        	stx	$c6                     ; 0x20c6 <main+0x1b34>
    3cfa: 85 19        	sta	$19                     ; 0x2019 <main+0x1a87>
    3cfc: 85 c7        	sta	$c7                     ; 0x20c7 <main+0x1b35>
    3cfe: 4c b1 3d     	jmp	$3db1 <printf+0x30b>
    3d01: 86 18        	stx	$18                     ; 0x2018 <main+0x1a86>
    3d03: 4c c1 3d     	jmp	$3dc1 <printf+0x31b>
    3d06: 85 17        	sta	$17                     ; 0x2017 <main+0x1a85>
    3d08: 18           	clc
    3d09: 69 d0        	adc	#$d0
    3d0b: c9 0a        	cmp	#$a
    3d0d: 90 03        	bcc	$3d12 <printf+0x26c>
    3d0f: 4c a3 3d     	jmp	$3da3 <printf+0x2fd>
    3d12: 64 16        	stz	$16                     ; 0x2016 <main+0x1a84>
    3d14: a2 01        	ldx	#$1
    3d16: 64 18        	stz	$18                     ; 0x2018 <main+0x1a86>
    3d18: 64 19        	stz	$19                     ; 0x2019 <main+0x1a87>
    3d1a: a0 01        	ldy	#$1
    3d1c: 64 1a        	stz	$1a                     ; 0x201a <main+0x1a88>
    3d1e: 5a           	phy
    3d1f: a4 1a        	ldy	$1a                     ; 0x201a <main+0x1a88>
    3d21: 84 14        	sty	$14                     ; 0x2014 <main+0x1a82>
    3d23: 86 15        	stx	$15                     ; 0x2015 <main+0x1a83>
    3d25: 06 18        	asl	$18                     ; 0x2018 <main+0x1a86>
    3d27: 26 19        	rol	$19                     ; 0x2019 <main+0x1a87>
    3d29: a5 18        	lda	$18                     ; 0x2018 <main+0x1a86>
    3d2b: 0a           	asl
    3d2c: 85 1d        	sta	$1d                     ; 0x201d <main+0x1a8b>
    3d2e: a5 19        	lda	$19                     ; 0x2019 <main+0x1a87>
    3d30: 2a           	rol
    3d31: 06 1d        	asl	$1d                     ; 0x201d <main+0x1a8b>
    3d33: 2a           	rol
    3d34: 85 1e        	sta	$1e                     ; 0x201e <main+0x1a8c>
    3d36: a5 1d        	lda	$1d                     ; 0x201d <main+0x1a8b>
    3d38: 18           	clc
    3d39: 65 18        	adc	$18                     ; 0x2018 <main+0x1a86>
    3d3b: 85 18        	sta	$18                     ; 0x2018 <main+0x1a86>
    3d3d: a5 1e        	lda	$1e                     ; 0x201e <main+0x1a8c>
    3d3f: 65 19        	adc	$19                     ; 0x2019 <main+0x1a87>
    3d41: 85 19        	sta	$19                     ; 0x2019 <main+0x1a87>
    3d43: a5 18        	lda	$18                     ; 0x2018 <main+0x1a86>
    3d45: 18           	clc
    3d46: 65 17        	adc	$17                     ; 0x2017 <main+0x1a85>
    3d48: 85 17        	sta	$17                     ; 0x2017 <main+0x1a85>
    3d4a: a5 19        	lda	$19                     ; 0x2019 <main+0x1a87>
    3d4c: 65 16        	adc	$16                     ; 0x2016 <main+0x1a84>
    3d4e: 85 16        	sta	$16                     ; 0x2016 <main+0x1a84>
    3d50: 18           	clc
    3d51: a5 17        	lda	$17                     ; 0x2017 <main+0x1a85>
    3d53: 69 d0        	adc	#$d0
    3d55: 85 18        	sta	$18                     ; 0x2018 <main+0x1a86>
    3d57: a5 16        	lda	$16                     ; 0x2016 <main+0x1a84>
    3d59: 69 ff        	adc	#$ff
    3d5b: 85 19        	sta	$19                     ; 0x2019 <main+0x1a87>
    3d5d: e8           	inx
    3d5e: d0 02        	bne	$3d62 <printf+0x2bc>
    3d60: e6 1a        	inc	$1a                     ; 0x201a <main+0x1a88>
    3d62: a5 12        	lda	$12                     ; 0x2012 <main+0x1a80>
    3d64: 18           	clc
    3d65: 65 15        	adc	$15                     ; 0x2015 <main+0x1a83>
    3d67: 85 1d        	sta	$1d                     ; 0x201d <main+0x1a8b>
    3d69: a5 13        	lda	$13                     ; 0x2013 <main+0x1a81>
    3d6b: 65 14        	adc	$14                     ; 0x2014 <main+0x1a82>
    3d6d: a4 1d        	ldy	$1d                     ; 0x201d <main+0x1a8b>
    3d6f: 84 16        	sty	$16                     ; 0x2016 <main+0x1a84>
    3d71: 7a           	ply
    3d72: 85 17        	sta	$17                     ; 0x2017 <main+0x1a85>
    3d74: b1 16        	lda	($16),y                 ; 0x2016 <main+0x1a84>
    3d76: 85 17        	sta	$17                     ; 0x2017 <main+0x1a85>
    3d78: 18           	clc
    3d79: 69 d0        	adc	#$d0
    3d7b: c9 0a        	cmp	#$a
    3d7d: 64 16        	stz	$16                     ; 0x2016 <main+0x1a84>
    3d7f: b0 03        	bcs	$3d84 <printf+0x2de>
    3d81: 4c 1e 3d     	jmp	$3d1e <printf+0x278>
    3d84: a5 12        	lda	$12                     ; 0x2012 <main+0x1a80>
    3d86: 18           	clc
    3d87: 65 15        	adc	$15                     ; 0x2015 <main+0x1a83>
    3d89: 85 12        	sta	$12                     ; 0x2012 <main+0x1a80>
    3d8b: a5 13        	lda	$13                     ; 0x2013 <main+0x1a81>
    3d8d: 65 14        	adc	$14                     ; 0x2014 <main+0x1a82>
    3d8f: 85 13        	sta	$13                     ; 0x2013 <main+0x1a81>
    3d91: e6 12        	inc	$12                     ; 0x2012 <main+0x1a80>
    3d93: d0 02        	bne	$3d97 <printf+0x2f1>
    3d95: e6 13        	inc	$13                     ; 0x2013 <main+0x1a81>
    3d97: a6 18        	ldx	$18                     ; 0x2018 <main+0x1a86>
    3d99: 86 c6        	stx	$c6                     ; 0x20c6 <main+0x1b34>
    3d9b: a6 19        	ldx	$19                     ; 0x2019 <main+0x1a87>
    3d9d: 86 c7        	stx	$c7                     ; 0x20c7 <main+0x1b35>
    3d9f: a0 01        	ldy	#$1
    3da1: 80 0e        	bra	$3db1 <printf+0x30b>
    3da3: e6 12        	inc	$12                     ; 0x2012 <main+0x1a80>
    3da5: d0 02        	bne	$3da9 <printf+0x303>
    3da7: e6 13        	inc	$13                     ; 0x2013 <main+0x1a81>
    3da9: 64 18        	stz	$18                     ; 0x2018 <main+0x1a86>
    3dab: 64 c6        	stz	$c6                     ; 0x20c6 <main+0x1b34>
    3dad: 64 c7        	stz	$c7                     ; 0x20c7 <main+0x1b35>
    3daf: 64 19        	stz	$19                     ; 0x2019 <main+0x1a87>
    3db1: a5 8a        	lda	$8a                     ; 0x208a <main+0x1af8>
    3db3: 29 ef        	and	#$ef
    3db5: 85 8a        	sta	$8a                     ; 0x208a <main+0x1af8>
    3db7: 85 ba        	sta	$ba                     ; 0x20ba <main+0x1b28>
    3db9: a2 00        	ldx	#$0
    3dbb: 86 bb        	stx	$bb                     ; 0x20bb <main+0x1b29>
    3dbd: b2 12        	lda	($12)                   ; 0x2012 <main+0x1a80>
    3dbf: a6 19        	ldx	$19                     ; 0x2019 <main+0x1a87>
    3dc1: 86 15        	stx	$15                     ; 0x2015 <main+0x1a83>
    3dc3: a6 12        	ldx	$12                     ; 0x2012 <main+0x1a80>
    3dc5: 86 8b        	stx	$8b                     ; 0x208b <main+0x1af9>
    3dc7: a6 13        	ldx	$13                     ; 0x2013 <main+0x1a81>
    3dc9: 86 8c        	stx	$8c                     ; 0x208c <main+0x1afa>
    3dcb: e6 8b        	inc	$8b                     ; 0x208b <main+0x1af9>
    3dcd: d0 02        	bne	$3dd1 <printf+0x32b>
    3dcf: e6 8c        	inc	$8c                     ; 0x208c <main+0x1afa>
    3dd1: 85 14        	sta	$14                     ; 0x2014 <main+0x1a82>
    3dd3: 38           	sec
    3dd4: e9 6c        	sbc	#$6c
    3dd6: 50 02        	bvc	$3dda <printf+0x334>
    3dd8: 49 80        	eor	#$80
    3dda: aa           	tax
    3ddb: 10 1d        	bpl	$3dfa <printf+0x354>
    3ddd: a5 14        	lda	$14                     ; 0x2014 <main+0x1a82>
    3ddf: c9 4c        	cmp	#$4c
    3de1: f0 27        	beq	$3e0a <printf+0x364>
    3de3: c9 68        	cmp	#$68
    3de5: d0 03        	bne	$3dea <printf+0x344>
    3de7: 4c 71 3e     	jmp	$3e71 <printf+0x3cb>
    3dea: a2 08        	ldx	#$8
    3dec: c9 6a        	cmp	#$6a
    3dee: d0 2e        	bne	$3e1e <printf+0x378>
    3df0: a5 8b        	lda	$8b                     ; 0x208b <main+0x1af9>
    3df2: 85 12        	sta	$12                     ; 0x2012 <main+0x1a80>
    3df4: a5 8c        	lda	$8c                     ; 0x208c <main+0x1afa>
    3df6: 85 13        	sta	$13                     ; 0x2013 <main+0x1a81>
    3df8: 80 43        	bra	$3e3d <printf+0x397>
    3dfa: a6 14        	ldx	$14                     ; 0x2014 <main+0x1a82>
    3dfc: e0 6c        	cpx	#$6c
    3dfe: f0 23        	beq	$3e23 <printf+0x37d>
    3e00: e0 74        	cpx	#$74
    3e02: f0 12        	beq	$3e16 <printf+0x370>
    3e04: e0 7a        	cpx	#$7a
    3e06: f0 0e        	beq	$3e16 <printf+0x370>
    3e08: 80 14        	bra	$3e1e <printf+0x378>
    3e0a: a5 8a        	lda	$8a                     ; 0x208a <main+0x1af8>
    3e0c: 09 40        	ora	#$40
    3e0e: 85 8a        	sta	$8a                     ; 0x208a <main+0x1af8>
    3e10: 85 ba        	sta	$ba                     ; 0x20ba <main+0x1b28>
    3e12: a2 00        	ldx	#$0
    3e14: 86 bb        	stx	$bb                     ; 0x20bb <main+0x1b29>
    3e16: a6 8b        	ldx	$8b                     ; 0x208b <main+0x1af9>
    3e18: 86 12        	stx	$12                     ; 0x2012 <main+0x1a80>
    3e1a: a6 8c        	ldx	$8c                     ; 0x208c <main+0x1afa>
    3e1c: 86 13        	stx	$13                     ; 0x2013 <main+0x1a81>
    3e1e: a2 02        	ldx	#$2
    3e20: 8a           	txa
    3e21: 80 1c        	bra	$3e3f <printf+0x399>
    3e23: b1 12        	lda	($12),y                 ; 0x2012 <main+0x1a80>
    3e25: a2 04        	ldx	#$4
    3e27: c9 6c        	cmp	#$6c
    3e29: f0 03        	beq	$3e2e <printf+0x388>
    3e2b: 4c 70 41     	jmp	$4170 <printf+0x6ca>
    3e2e: a5 12        	lda	$12                     ; 0x2012 <main+0x1a80>
    3e30: 18           	clc
    3e31: 69 02        	adc	#$2
    3e33: 85 12        	sta	$12                     ; 0x2012 <main+0x1a80>
    3e35: a5 13        	lda	$13                     ; 0x2013 <main+0x1a81>
    3e37: 69 00        	adc	#$0
    3e39: 85 13        	sta	$13                     ; 0x2013 <main+0x1a81>
    3e3b: a2 08        	ldx	#$8
    3e3d: a9 08        	lda	#$8
    3e3f: 85 d0        	sta	$d0                     ; 0x20d0 <main+0x1b3e>
    3e41: b2 12        	lda	($12)                   ; 0x2012 <main+0x1a80>
    3e43: 5a           	phy
    3e44: a4 12        	ldy	$12                     ; 0x2012 <main+0x1a80>
    3e46: 84 8b        	sty	$8b                     ; 0x208b <main+0x1af9>
    3e48: a4 13        	ldy	$13                     ; 0x2013 <main+0x1a81>
    3e4a: 84 8c        	sty	$8c                     ; 0x208c <main+0x1afa>
    3e4c: 7a           	ply
    3e4d: 86 8d        	stx	$8d                     ; 0x208d <main+0x1afb>
    3e4f: aa           	tax
    3e50: 38           	sec
    3e51: e9 63        	sbc	#$63
    3e53: c9 16        	cmp	#$16
    3e55: b0 39        	bcs	$3e90 <printf+0x3ea>
    3e57: 0a           	asl
    3e58: aa           	tax
    3e59: 7c e9 64     	jmp	($64e9,x)               ; 0x64e9 <__set_v+0x31>
    3e5c: a6 15        	ldx	$15                     ; 0x2015 <main+0x1a83>
    3e5e: 86 ce        	stx	$ce                     ; 0x20ce <main+0x1b3c>
    3e60: a6 18        	ldx	$18                     ; 0x2018 <main+0x1a86>
    3e62: 86 d3        	stx	$d3                     ; 0x20d3 <main+0x1b41>
    3e64: a0 0a        	ldy	#$a
    3e66: a2 0a        	ldx	#$a
    3e68: 86 cf        	stx	$cf                     ; 0x20cf <main+0x1b3d>
    3e6a: 84 b9        	sty	$b9                     ; 0x20b9 <main+0x1b27>
    3e6c: 64 94        	stz	$94                     ; 0x2094 <main+0x1b02>
    3e6e: 4c 90 3f     	jmp	$3f90 <printf+0x4ea>
    3e71: b1 12        	lda	($12),y                 ; 0x2012 <main+0x1a80>
    3e73: a2 02        	ldx	#$2
    3e75: c9 68        	cmp	#$68
    3e77: f0 03        	beq	$3e7c <printf+0x3d6>
    3e79: 4c 76 41     	jmp	$4176 <printf+0x6d0>
    3e7c: a5 12        	lda	$12                     ; 0x2012 <main+0x1a80>
    3e7e: 18           	clc
    3e7f: 69 02        	adc	#$2
    3e81: 85 12        	sta	$12                     ; 0x2012 <main+0x1a80>
    3e83: a5 13        	lda	$13                     ; 0x2013 <main+0x1a81>
    3e85: 69 00        	adc	#$0
    3e87: 85 13        	sta	$13                     ; 0x2013 <main+0x1a81>
    3e89: a2 01        	ldx	#$1
    3e8b: 86 d0        	stx	$d0                     ; 0x20d0 <main+0x1b3e>
    3e8d: e8           	inx
    3e8e: 80 b1        	bra	$3e41 <printf+0x39b>
    3e90: e0 58        	cpx	#$58
    3e92: f0 03        	beq	$3e97 <printf+0x3f1>
    3e94: 4c 11 46     	jmp	$4611 <printf+0xb6b>
    3e97: a6 15        	ldx	$15                     ; 0x2015 <main+0x1a83>
    3e99: 86 ce        	stx	$ce                     ; 0x20ce <main+0x1b3c>
    3e9b: a6 18        	ldx	$18                     ; 0x2018 <main+0x1a86>
    3e9d: 86 d3        	stx	$d3                     ; 0x20d3 <main+0x1b41>
    3e9f: a2 10        	ldx	#$10
    3ea1: 86 b9        	stx	$b9                     ; 0x20b9 <main+0x1b27>
    3ea3: a9 00        	lda	#$0
    3ea5: 09 01        	ora	#$1
    3ea7: a6 8a        	ldx	$8a                     ; 0x208a <main+0x1af8>
    3ea9: 80 29        	bra	$3ed4 <printf+0x42e>
    3eab: a6 15        	ldx	$15                     ; 0x2015 <main+0x1a83>
    3ead: 86 ce        	stx	$ce                     ; 0x20ce <main+0x1b3c>
    3eaf: a6 18        	ldx	$18                     ; 0x2018 <main+0x1a86>
    3eb1: 86 d3        	stx	$d3                     ; 0x20d3 <main+0x1b41>
    3eb3: a2 10        	ldx	#$10
    3eb5: 86 b9        	stx	$b9                     ; 0x20b9 <main+0x1b27>
    3eb7: a5 8a        	lda	$8a                     ; 0x208a <main+0x1af8>
    3eb9: 09 84        	ora	#$84
    3ebb: 80 10        	bra	$3ecd <printf+0x427>
    3ebd: a6 15        	ldx	$15                     ; 0x2015 <main+0x1a83>
    3ebf: 86 ce        	stx	$ce                     ; 0x20ce <main+0x1b3c>
    3ec1: a6 18        	ldx	$18                     ; 0x2018 <main+0x1a86>
    3ec3: 86 d3        	stx	$d3                     ; 0x20d3 <main+0x1b41>
    3ec5: a2 10        	ldx	#$10
    3ec7: 86 b9        	stx	$b9                     ; 0x20b9 <main+0x1b27>
    3ec9: a5 8a        	lda	$8a                     ; 0x208a <main+0x1af8>
    3ecb: 09 80        	ora	#$80
    3ecd: aa           	tax
    3ece: a9 00        	lda	#$0
    3ed0: 09 01        	ora	#$1
    3ed2: 86 8a        	stx	$8a                     ; 0x208a <main+0x1af8>
    3ed4: 86 ba        	stx	$ba                     ; 0x20ba <main+0x1b28>
    3ed6: 85 94        	sta	$94                     ; 0x2094 <main+0x1b02>
    3ed8: 85 bb        	sta	$bb                     ; 0x20bb <main+0x1b29>
    3eda: a2 10        	ldx	#$10
    3edc: 86 cf        	stx	$cf                     ; 0x20cf <main+0x1b3d>
    3ede: 4c 90 3f     	jmp	$3f90 <printf+0x4ea>
    3ee1: a5 ca        	lda	$ca                     ; 0x20ca <main+0x1b38>
    3ee3: a6 cb        	ldx	$cb                     ; 0x20cb <main+0x1b39>
    3ee5: 85 12        	sta	$12                     ; 0x2012 <main+0x1a80>
    3ee7: 86 13        	stx	$13                     ; 0x2013 <main+0x1a81>
    3ee9: 18           	clc
    3eea: 69 02        	adc	#$2
    3eec: 85 14        	sta	$14                     ; 0x2014 <main+0x1a82>
    3eee: 8a           	txa
    3eef: 69 00        	adc	#$0
    3ef1: a6 14        	ldx	$14                     ; 0x2014 <main+0x1a82>
    3ef3: 86 ca        	stx	$ca                     ; 0x20ca <main+0x1b38>
    3ef5: 85 cb        	sta	$cb                     ; 0x20cb <main+0x1b39>
    3ef7: b2 12        	lda	($12)                   ; 0x2012 <main+0x1a80>
    3ef9: aa           	tax
    3efa: b1 12        	lda	($12),y                 ; 0x2012 <main+0x1a80>
    3efc: 86 12        	stx	$12                     ; 0x2012 <main+0x1a80>
    3efe: 85 13        	sta	$13                     ; 0x2013 <main+0x1a81>
    3f00: a5 be        	lda	$be                     ; 0x20be <main+0x1b2c>
    3f02: a6 bf        	ldx	$bf                     ; 0x20bf <main+0x1b2d>
    3f04: 92 12        	sta	($12)                   ; 0x2012 <main+0x1a80>
    3f06: 8a           	txa
    3f07: 91 12        	sta	($12),y                 ; 0x2012 <main+0x1a80>
    3f09: 4c 69 3f     	jmp	$3f69 <printf+0x4c3>
    3f0c: a5 ca        	lda	$ca                     ; 0x20ca <main+0x1b38>
    3f0e: a6 cb        	ldx	$cb                     ; 0x20cb <main+0x1b39>
    3f10: 85 12        	sta	$12                     ; 0x2012 <main+0x1a80>
    3f12: 86 13        	stx	$13                     ; 0x2013 <main+0x1a81>
    3f14: 18           	clc
    3f15: 69 02        	adc	#$2
    3f17: 85 14        	sta	$14                     ; 0x2014 <main+0x1a82>
    3f19: 8a           	txa
    3f1a: 69 00        	adc	#$0
    3f1c: a6 14        	ldx	$14                     ; 0x2014 <main+0x1a82>
    3f1e: 86 ca        	stx	$ca                     ; 0x20ca <main+0x1b38>
    3f20: 85 cb        	sta	$cb                     ; 0x20cb <main+0x1b39>
    3f22: b2 12        	lda	($12)                   ; 0x2012 <main+0x1a80>
    3f24: aa           	tax
    3f25: b1 12        	lda	($12),y                 ; 0x2012 <main+0x1a80>
    3f27: 86 12        	stx	$12                     ; 0x2012 <main+0x1a80>
    3f29: 85 13        	sta	$13                     ; 0x2013 <main+0x1a81>
    3f2b: 80 2f        	bra	$3f5c <printf+0x4b6>
    3f2d: a6 15        	ldx	$15                     ; 0x2015 <main+0x1a83>
    3f2f: 86 ce        	stx	$ce                     ; 0x20ce <main+0x1b3c>
    3f31: a6 18        	ldx	$18                     ; 0x2018 <main+0x1a86>
    3f33: 86 d3        	stx	$d3                     ; 0x20d3 <main+0x1b41>
    3f35: a0 08        	ldy	#$8
    3f37: a2 08        	ldx	#$8
    3f39: 80 45        	bra	$3f80 <printf+0x4da>
    3f3b: a5 ca        	lda	$ca                     ; 0x20ca <main+0x1b38>
    3f3d: a6 cb        	ldx	$cb                     ; 0x20cb <main+0x1b39>
    3f3f: 85 12        	sta	$12                     ; 0x2012 <main+0x1a80>
    3f41: 86 13        	stx	$13                     ; 0x2013 <main+0x1a81>
    3f43: 18           	clc
    3f44: 69 02        	adc	#$2
    3f46: a8           	tay
    3f47: 8a           	txa
    3f48: 69 00        	adc	#$0
    3f4a: 84 ca        	sty	$ca                     ; 0x20ca <main+0x1b38>
    3f4c: 85 cb        	sta	$cb                     ; 0x20cb <main+0x1b39>
    3f4e: b2 12        	lda	($12)                   ; 0x2012 <main+0x1a80>
    3f50: 85 ac        	sta	$ac                     ; 0x20ac <main+0x1b1a>
    3f52: 64 ad        	stz	$ad                     ; 0x20ad <main+0x1b1b>
    3f54: a2 ac        	ldx	#$ac
    3f56: 86 12        	stx	$12                     ; 0x2012 <main+0x1a80>
    3f58: a2 00        	ldx	#$0
    3f5a: 86 13        	stx	$13                     ; 0x2013 <main+0x1a81>
    3f5c: a2 b9        	ldx	#$b9
    3f5e: 86 14        	stx	$14                     ; 0x2014 <main+0x1a82>
    3f60: a2 00        	ldx	#$0
    3f62: 86 15        	stx	$15                     ; 0x2015 <main+0x1a83>
    3f64: 20 99 39     	jsr	$3999 <_ZN12_GLOBAL__N_112print_stringEPKcP6Status>
    3f67: a0 01        	ldy	#$1
    3f69: a2 00        	ldx	#$0
    3f6b: 86 8d        	stx	$8d                     ; 0x208d <main+0x1afb>
    3f6d: a2 00        	ldx	#$0
    3f6f: 86 8e        	stx	$8e                     ; 0x208e <main+0x1afc>
    3f71: 4c f9 45     	jmp	$45f9 <printf+0xb53>
    3f74: a6 15        	ldx	$15                     ; 0x2015 <main+0x1a83>
    3f76: 86 ce        	stx	$ce                     ; 0x20ce <main+0x1b3c>
    3f78: a6 18        	ldx	$18                     ; 0x2018 <main+0x1a86>
    3f7a: 86 d3        	stx	$d3                     ; 0x20d3 <main+0x1b41>
    3f7c: a0 0a        	ldy	#$a
    3f7e: a2 0a        	ldx	#$a
    3f80: 86 cf        	stx	$cf                     ; 0x20cf <main+0x1b3d>
    3f82: 84 b9        	sty	$b9                     ; 0x20b9 <main+0x1b27>
    3f84: a9 00        	lda	#$0
    3f86: 09 01        	ora	#$1
    3f88: a6 8a        	ldx	$8a                     ; 0x208a <main+0x1af8>
    3f8a: 86 ba        	stx	$ba                     ; 0x20ba <main+0x1b28>
    3f8c: 85 94        	sta	$94                     ; 0x2094 <main+0x1b02>
    3f8e: 85 bb        	sta	$bb                     ; 0x20bb <main+0x1b29>
    3f90: a5 d0        	lda	$d0                     ; 0x20d0 <main+0x1b3e>
    3f92: 85 ae        	sta	$ae                     ; 0x20ae <main+0x1b1c>
    3f94: a4 ca        	ldy	$ca                     ; 0x20ca <main+0x1b38>
    3f96: a6 cb        	ldx	$cb                     ; 0x20cb <main+0x1b39>
    3f98: 86 92        	stx	$92                     ; 0x2092 <main+0x1b00>
    3f9a: 84 14        	sty	$14                     ; 0x2014 <main+0x1a82>
    3f9c: 84 89        	sty	$89                     ; 0x2089 <main+0x1af7>
    3f9e: 86 15        	stx	$15                     ; 0x2015 <main+0x1a83>
    3fa0: a6 d1        	ldx	$d1                     ; 0x20d1 <main+0x1b3f>
    3fa2: 86 12        	stx	$12                     ; 0x2012 <main+0x1a80>
    3fa4: a6 d2        	ldx	$d2                     ; 0x20d2 <main+0x1b40>
    3fa6: 86 13        	stx	$13                     ; 0x2013 <main+0x1a81>
    3fa8: a2 00        	ldx	#$0
    3faa: 85 8e        	sta	$8e                     ; 0x208e <main+0x1afc>
    3fac: 20 f3 49     	jsr	$49f3 <memcpy>
    3faf: 18           	clc
    3fb0: a5 89        	lda	$89                     ; 0x2089 <main+0x1af7>
    3fb2: 65 8d        	adc	$8d                     ; 0x208d <main+0x1afb>
    3fb4: aa           	tax
    3fb5: a5 92        	lda	$92                     ; 0x2092 <main+0x1b00>
    3fb7: 69 00        	adc	#$0
    3fb9: 86 ca        	stx	$ca                     ; 0x20ca <main+0x1b38>
    3fbb: 85 cb        	sta	$cb                     ; 0x20cb <main+0x1b39>
    3fbd: a5 94        	lda	$94                     ; 0x2094 <main+0x1b02>
    3fbf: 29 01        	and	#$1
    3fc1: b8           	clv
    3fc2: f0 03        	beq	$3fc7 <printf+0x521>
    3fc4: 4c 1b 40     	jmp	$401b <printf+0x575>
    3fc7: a6 8e        	ldx	$8e                     ; 0x208e <main+0x1afc>
    3fc9: b5 ae        	lda	$ae,x                   ; 0x20ae <main+0x1b1c>
    3fcb: aa           	tax
    3fcc: a0 01        	ldy	#$1
    3fce: a5 91        	lda	$91                     ; 0x2091 <main+0x1aff>
    3fd0: 85 1a        	sta	$1a                     ; 0x201a <main+0x1a88>
    3fd2: a5 d3        	lda	$d3                     ; 0x20d3 <main+0x1b41>
    3fd4: 85 91        	sta	$91                     ; 0x2091 <main+0x1aff>
    3fd6: a9 00        	lda	#$0
    3fd8: 85 8d        	sta	$8d                     ; 0x208d <main+0x1afb>
    3fda: a9 00        	lda	#$0
    3fdc: 85 8e        	sta	$8e                     ; 0x208e <main+0x1afc>
    3fde: a5 ce        	lda	$ce                     ; 0x20ce <main+0x1b3c>
    3fe0: 85 92        	sta	$92                     ; 0x2092 <main+0x1b00>
    3fe2: 8a           	txa
    3fe3: 10 4c        	bpl	$4031 <printf+0x58b>
    3fe5: a2 00        	ldx	#$0
    3fe7: 64 12        	stz	$12                     ; 0x2012 <main+0x1a80>
    3fe9: a9 00        	lda	#$0
    3feb: 38           	sec
    3fec: f5 af        	sbc	$af,x                   ; 0x20af <main+0x1b1d>
    3fee: a0 00        	ldy	#$0
    3ff0: b0 02        	bcs	$3ff4 <printf+0x54e>
    3ff2: a0 01        	ldy	#$1
    3ff4: 38           	sec
    3ff5: e5 12        	sbc	$12                     ; 0x2012 <main+0x1a80>
    3ff7: 85 13        	sta	$13                     ; 0x2013 <main+0x1a81>
    3ff9: 64 12        	stz	$12                     ; 0x2012 <main+0x1a80>
    3ffb: b0 04        	bcs	$4001 <printf+0x55b>
    3ffd: a9 01        	lda	#$1
    3fff: 85 12        	sta	$12                     ; 0x2012 <main+0x1a80>
    4001: 98           	tya
    4002: 05 12        	ora	$12                     ; 0x2012 <main+0x1a80>
    4004: 85 12        	sta	$12                     ; 0x2012 <main+0x1a80>
    4006: a5 13        	lda	$13                     ; 0x2013 <main+0x1a81>
    4008: 9d af 00     	sta	$af,x                   ; 0xaf <__bss_size+0x6f>
    400b: e8           	inx
    400c: 86 13        	stx	$13                     ; 0x2013 <main+0x1a81>
    400e: a4 d0        	ldy	$d0                     ; 0x20d0 <main+0x1b3e>
    4010: c4 13        	cpy	$13                     ; 0x2013 <main+0x1a81>
    4012: d0 d5        	bne	$3fe9 <printf+0x543>
    4014: 2c b8 64     	bit	$64b8                   ; 0x64b8 <__set_v>
    4017: a0 01        	ldy	#$1
    4019: 80 16        	bra	$4031 <printf+0x58b>
    401b: a0 01        	ldy	#$1
    401d: a6 91        	ldx	$91                     ; 0x2091 <main+0x1aff>
    401f: 86 1a        	stx	$1a                     ; 0x201a <main+0x1a88>
    4021: a6 d3        	ldx	$d3                     ; 0x20d3 <main+0x1b41>
    4023: 86 91        	stx	$91                     ; 0x2091 <main+0x1aff>
    4025: a2 00        	ldx	#$0
    4027: 86 8d        	stx	$8d                     ; 0x208d <main+0x1afb>
    4029: a2 00        	ldx	#$0
    402b: 86 8e        	stx	$8e                     ; 0x208e <main+0x1afc>
    402d: a6 ce        	ldx	$ce                     ; 0x20ce <main+0x1b3c>
    402f: 86 92        	stx	$92                     ; 0x2092 <main+0x1b00>
    4031: a2 01        	ldx	#$1
    4033: 70 02        	bvs	$4037 <printf+0x591>
    4035: a2 00        	ldx	#$0
    4037: 86 16        	stx	$16                     ; 0x2016 <main+0x1a84>
    4039: a5 d0        	lda	$d0                     ; 0x20d0 <main+0x1b3e>
    403b: 0a           	asl
    403c: 0a           	asl
    403d: 0a           	asl
    403e: 85 12        	sta	$12                     ; 0x2012 <main+0x1a80>
    4040: a2 00        	ldx	#$0
    4042: 8a           	txa
    4043: 4c f7 40     	jmp	$40f7 <printf+0x651>
    4046: da           	phx
    4047: 7a           	ply
    4048: c8           	iny
    4049: 9d 97 00     	sta	$97,x                   ; 0x97 <__bss_size+0x57>
    404c: 5a           	phy
    404d: fa           	plx
    404e: c4 89        	cpy	$89                     ; 0x2089 <main+0x1af7>
    4050: f0 30        	beq	$4082 <printf+0x5dc>
    4052: b5 97        	lda	$97,x                   ; 0x2097 <main+0x1b05>
    4054: 0a           	asl
    4055: a4 ce        	ldy	$ce                     ; 0x20ce <main+0x1b3c>
    4057: f0 02        	beq	$405b <printf+0x5b5>
    4059: 09 01        	ora	#$1
    405b: a4 cf        	ldy	$cf                     ; 0x20cf <main+0x1b3d>
    405d: 84 14        	sty	$14                     ; 0x2014 <main+0x1a82>
    405f: c5 14        	cmp	$14                     ; 0x2014 <main+0x1a82>
    4061: a0 01        	ldy	#$1
    4063: b0 02        	bcs	$4067 <printf+0x5c1>
    4065: a0 00        	ldy	#$0
    4067: 84 ce        	sty	$ce                     ; 0x20ce <main+0x1b3c>
    4069: 90 db        	bcc	$4046 <printf+0x5a0>
    406b: 38           	sec
    406c: e5 14        	sbc	$14                     ; 0x2014 <main+0x1a82>
    406e: 9d 97 00     	sta	$97,x                   ; 0x97 <__bss_size+0x57>
    4071: e8           	inx
    4072: e4 89        	cpx	$89                     ; 0x2089 <main+0x1af7>
    4074: d0 dc        	bne	$4052 <printf+0x5ac>
    4076: a4 89        	ldy	$89                     ; 0x2089 <main+0x1af7>
    4078: a6 89        	ldx	$89                     ; 0x2089 <main+0x1af7>
    407a: e8           	inx
    407b: a9 01        	lda	#$1
    407d: 99 97 00     	sta	$97,y                   ; 0x97 <__bss_size+0x57>
    4080: 86 89        	stx	$89                     ; 0x2089 <main+0x1af7>
    4082: a6 d0        	ldx	$d0                     ; 0x20d0 <main+0x1b3e>
    4084: b5 ae        	lda	$ae,x                   ; 0x20ae <main+0x1b1c>
    4086: aa           	tax
    4087: 30 0f        	bmi	$4098 <printf+0x5f2>
    4089: a0 01        	ldy	#$1
    408b: 80 42        	bra	$40cf <printf+0x629>
    408d: a6 d0        	ldx	$d0                     ; 0x20d0 <main+0x1b3e>
    408f: b5 ae        	lda	$ae,x                   ; 0x20ae <main+0x1b1c>
    4091: aa           	tax
    4092: 64 89        	stz	$89                     ; 0x2089 <main+0x1af7>
    4094: 10 39        	bpl	$40cf <printf+0x629>
    4096: 80 2a        	bra	$40c2 <printf+0x61c>
    4098: a5 89        	lda	$89                     ; 0x2089 <main+0x1af7>
    409a: f0 24        	beq	$40c0 <printf+0x61a>
    409c: a2 00        	ldx	#$0
    409e: a4 cf        	ldy	$cf                     ; 0x20cf <main+0x1b3d>
    40a0: 84 14        	sty	$14                     ; 0x2014 <main+0x1a82>
    40a2: b5 97        	lda	$97,x                   ; 0x2097 <main+0x1b05>
    40a4: 1a           	inc
    40a5: f6 97        	inc	$97,x                   ; 0x2097 <main+0x1b05>
    40a7: c5 14        	cmp	$14                     ; 0x2014 <main+0x1a82>
    40a9: 90 de        	bcc	$4089 <printf+0x5e3>
    40ab: a4 14        	ldy	$14                     ; 0x2014 <main+0x1a82>
    40ad: 84 13        	sty	$13                     ; 0x2013 <main+0x1a81>
    40af: 38           	sec
    40b0: e5 13        	sbc	$13                     ; 0x2013 <main+0x1a81>
    40b2: 9d 97 00     	sta	$97,x                   ; 0x97 <__bss_size+0x57>
    40b5: e8           	inx
    40b6: 86 13        	stx	$13                     ; 0x2013 <main+0x1a81>
    40b8: a4 89        	ldy	$89                     ; 0x2089 <main+0x1af7>
    40ba: c4 13        	cpy	$13                     ; 0x2013 <main+0x1a81>
    40bc: d0 e4        	bne	$40a2 <printf+0x5fc>
    40be: 80 02        	bra	$40c2 <printf+0x61c>
    40c0: 64 89        	stz	$89                     ; 0x2089 <main+0x1af7>
    40c2: a4 89        	ldy	$89                     ; 0x2089 <main+0x1af7>
    40c4: a6 89        	ldx	$89                     ; 0x2089 <main+0x1af7>
    40c6: e8           	inx
    40c7: a9 01        	lda	#$1
    40c9: 99 97 00     	sta	$97,y                   ; 0x97 <__bss_size+0x57>
    40cc: a8           	tay
    40cd: 86 89        	stx	$89                     ; 0x2089 <main+0x1af7>
    40cf: a2 01        	ldx	#$1
    40d1: 64 13        	stz	$13                     ; 0x2013 <main+0x1a81>
    40d3: a5 d0        	lda	$d0                     ; 0x20d0 <main+0x1b3e>
    40d5: 85 14        	sta	$14                     ; 0x2014 <main+0x1a82>
    40d7: b5 ae        	lda	$ae,x                   ; 0x20ae <main+0x1b1c>
    40d9: 0a           	asl
    40da: 64 15        	stz	$15                     ; 0x2015 <main+0x1a83>
    40dc: 26 15        	rol	$15                     ; 0x2015 <main+0x1a83>
    40de: 05 13        	ora	$13                     ; 0x2013 <main+0x1a81>
    40e0: 9d ae 00     	sta	$ae,x                   ; 0xae <__bss_size+0x6e>
    40e3: e8           	inx
    40e4: c6 14        	dec	$14                     ; 0x2014 <main+0x1a82>
    40e6: a5 15        	lda	$15                     ; 0x2015 <main+0x1a83>
    40e8: 85 13        	sta	$13                     ; 0x2013 <main+0x1a81>
    40ea: a5 14        	lda	$14                     ; 0x2014 <main+0x1a82>
    40ec: d0 e9        	bne	$40d7 <printf+0x631>
    40ee: a5 17        	lda	$17                     ; 0x2017 <main+0x1a85>
    40f0: 1a           	inc
    40f1: c5 12        	cmp	$12                     ; 0x2012 <main+0x1a80>
    40f3: a6 89        	ldx	$89                     ; 0x2089 <main+0x1af7>
    40f5: b0 13        	bcs	$410a <printf+0x664>
    40f7: 85 17        	sta	$17                     ; 0x2017 <main+0x1a85>
    40f9: 8a           	txa
    40fa: d0 03        	bne	$40ff <printf+0x659>
    40fc: 4c 8d 40     	jmp	$408d <printf+0x5e7>
    40ff: 86 89        	stx	$89                     ; 0x2089 <main+0x1af7>
    4101: a2 00        	ldx	#$0
    4103: 86 ce        	stx	$ce                     ; 0x20ce <main+0x1b3c>
    4105: a2 00        	ldx	#$0
    4107: 4c 52 40     	jmp	$4052 <printf+0x5ac>
    410a: a5 8a        	lda	$8a                     ; 0x208a <main+0x1af8>
    410c: e6 92        	inc	$92                     ; 0x2092 <main+0x1b00>
    410e: c6 92        	dec	$92                     ; 0x2092 <main+0x1b00>
    4110: 10 08        	bpl	$411a <printf+0x674>
    4112: a2 01        	ldx	#$1
    4114: 64 92        	stz	$92                     ; 0x2092 <main+0x1b00>
    4116: 86 91        	stx	$91                     ; 0x2091 <main+0x1aff>
    4118: a6 89        	ldx	$89                     ; 0x2089 <main+0x1af7>
    411a: 29 04        	and	#$4
    411c: f0 2b        	beq	$4149 <printf+0x6a3>
    411e: a5 cf        	lda	$cf                     ; 0x20cf <main+0x1b3d>
    4120: c9 10        	cmp	#$10
    4122: f0 14        	beq	$4138 <printf+0x692>
    4124: c9 08        	cmp	#$8
    4126: d0 21        	bne	$4149 <printf+0x6a3>
    4128: a2 00        	ldx	#$0
    412a: e4 92        	cpx	$92                     ; 0x2092 <main+0x1b00>
    412c: f0 03        	beq	$4131 <printf+0x68b>
    412e: 4c 1e 46     	jmp	$461e <printf+0xb78>
    4131: a6 89        	ldx	$89                     ; 0x2089 <main+0x1af7>
    4133: e4 91        	cpx	$91                     ; 0x2091 <main+0x1aff>
    4135: 4c 20 46     	jmp	$4620 <printf+0xb7a>
    4138: 8a           	txa
    4139: f0 0e        	beq	$4149 <printf+0x6a3>
    413b: a5 8a        	lda	$8a                     ; 0x208a <main+0x1af8>
    413d: 29 80        	and	#$80
    413f: d0 03        	bne	$4144 <printf+0x69e>
    4141: 4c 39 46     	jmp	$4639 <printf+0xb93>
    4144: a2 78        	ldx	#$78
    4146: 4c 3b 46     	jmp	$463b <printf+0xb95>
    4149: a6 8a        	ldx	$8a                     ; 0x208a <main+0x1af8>
    414b: a9 2d        	lda	#$2d
    414d: 85 d0        	sta	$d0                     ; 0x20d0 <main+0x1b3e>
    414f: a5 16        	lda	$16                     ; 0x2016 <main+0x1a84>
    4151: d0 32        	bne	$4185 <printf+0x6df>
    4153: 86 12        	stx	$12                     ; 0x2012 <main+0x1a80>
    4155: 8a           	txa
    4156: 29 02        	and	#$2
    4158: a2 2b        	ldx	#$2b
    415a: 86 d0        	stx	$d0                     ; 0x20d0 <main+0x1b3e>
    415c: aa           	tax
    415d: d0 26        	bne	$4185 <printf+0x6df>
    415f: a5 12        	lda	$12                     ; 0x2012 <main+0x1a80>
    4161: 29 08        	and	#$8
    4163: d0 1c        	bne	$4181 <printf+0x6db>
    4165: a2 01        	ldx	#$1
    4167: 86 cf        	stx	$cf                     ; 0x20cf <main+0x1b3d>
    4169: a9 00        	lda	#$0
    416b: aa           	tax
    416c: 86 ce        	stx	$ce                     ; 0x20ce <main+0x1b3c>
    416e: 80 1c        	bra	$418c <printf+0x6e6>
    4170: 85 12        	sta	$12                     ; 0x2012 <main+0x1a80>
    4172: a9 04        	lda	#$4
    4174: 80 04        	bra	$417a <printf+0x6d4>
    4176: 85 12        	sta	$12                     ; 0x2012 <main+0x1a80>
    4178: a9 02        	lda	#$2
    417a: 85 d0        	sta	$d0                     ; 0x20d0 <main+0x1b3e>
    417c: a5 12        	lda	$12                     ; 0x2012 <main+0x1a80>
    417e: 4c 4d 3e     	jmp	$3e4d <printf+0x3a7>
    4181: a2 20        	ldx	#$20
    4183: 86 d0        	stx	$d0                     ; 0x20d0 <main+0x1b3e>
    4185: a2 00        	ldx	#$0
    4187: 86 cf        	stx	$cf                     ; 0x20cf <main+0x1b3d>
    4189: 86 ce        	stx	$ce                     ; 0x20ce <main+0x1b3c>
    418b: 98           	tya
    418c: a6 92        	ldx	$92                     ; 0x2092 <main+0x1b00>
    418e: d0 35        	bne	$41c5 <printf+0x71f>
    4190: a6 91        	ldx	$91                     ; 0x2091 <main+0x1aff>
    4192: a4 89        	ldy	$89                     ; 0x2089 <main+0x1af7>
    4194: 84 12        	sty	$12                     ; 0x2012 <main+0x1a80>
    4196: e4 12        	cpx	$12                     ; 0x2012 <main+0x1a80>
    4198: a6 91        	ldx	$91                     ; 0x2091 <main+0x1aff>
    419a: 86 12        	stx	$12                     ; 0x2012 <main+0x1a80>
    419c: a6 92        	ldx	$92                     ; 0x2092 <main+0x1b00>
    419e: 86 13        	stx	$13                     ; 0x2013 <main+0x1a81>
    41a0: b0 04        	bcs	$41a6 <printf+0x700>
    41a2: 84 12        	sty	$12                     ; 0x2012 <main+0x1a80>
    41a4: 64 13        	stz	$13                     ; 0x2013 <main+0x1a81>
    41a6: 85 18        	sta	$18                     ; 0x2018 <main+0x1a86>
    41a8: 18           	clc
    41a9: 65 12        	adc	$12                     ; 0x2012 <main+0x1a80>
    41ab: 85 16        	sta	$16                     ; 0x2016 <main+0x1a84>
    41ad: 85 14        	sta	$14                     ; 0x2014 <main+0x1a82>
    41af: a5 13        	lda	$13                     ; 0x2013 <main+0x1a81>
    41b1: 69 00        	adc	#$0
    41b3: 85 15        	sta	$15                     ; 0x2015 <main+0x1a83>
    41b5: c5 1a        	cmp	$1a                     ; 0x201a <main+0x1a88>
    41b7: d0 1e        	bne	$41d7 <printf+0x731>
    41b9: a6 1a        	ldx	$1a                     ; 0x201a <main+0x1a88>
    41bb: 86 17        	stx	$17                     ; 0x2017 <main+0x1a85>
    41bd: a6 93        	ldx	$93                     ; 0x2093 <main+0x1b01>
    41bf: a5 16        	lda	$16                     ; 0x2016 <main+0x1a84>
    41c1: c5 93        	cmp	$93                     ; 0x2093 <main+0x1b01>
    41c3: 80 1c        	bra	$41e1 <printf+0x73b>
    41c5: a6 92        	ldx	$92                     ; 0x2092 <main+0x1b00>
    41c7: e0 00        	cpx	#$0
    41c9: a6 91        	ldx	$91                     ; 0x2091 <main+0x1aff>
    41cb: 86 12        	stx	$12                     ; 0x2012 <main+0x1a80>
    41cd: a6 92        	ldx	$92                     ; 0x2092 <main+0x1b00>
    41cf: 86 13        	stx	$13                     ; 0x2013 <main+0x1a81>
    41d1: a4 89        	ldy	$89                     ; 0x2089 <main+0x1af7>
    41d3: 90 cd        	bcc	$41a2 <printf+0x6fc>
    41d5: 80 cf        	bra	$41a6 <printf+0x700>
    41d7: a6 93        	ldx	$93                     ; 0x2093 <main+0x1b01>
    41d9: 5a           	phy
    41da: a4 1a        	ldy	$1a                     ; 0x201a <main+0x1a88>
    41dc: 84 17        	sty	$17                     ; 0x2017 <main+0x1a85>
    41de: 7a           	ply
    41df: c5 1a        	cmp	$1a                     ; 0x201a <main+0x1a88>
    41e1: 64 94        	stz	$94                     ; 0x2094 <main+0x1b02>
    41e3: 64 93        	stz	$93                     ; 0x2093 <main+0x1b01>
    41e5: 90 03        	bcc	$41ea <printf+0x744>
    41e7: 4c 7d 42     	jmp	$427d <printf+0x7d7>
    41ea: a5 8a        	lda	$8a                     ; 0x208a <main+0x1af8>
    41ec: 29 11        	and	#$11
    41ee: 86 16        	stx	$16                     ; 0x2016 <main+0x1a84>
    41f0: f0 0f        	beq	$4201 <printf+0x75b>
    41f2: 8a           	txa
    41f3: 38           	sec
    41f4: e5 14        	sbc	$14                     ; 0x2014 <main+0x1a82>
    41f6: 85 94        	sta	$94                     ; 0x2094 <main+0x1b02>
    41f8: a5 1a        	lda	$1a                     ; 0x201a <main+0x1a88>
    41fa: e5 15        	sbc	$15                     ; 0x2015 <main+0x1a83>
    41fc: 85 93        	sta	$93                     ; 0x2093 <main+0x1b01>
    41fe: 4c 7d 42     	jmp	$427d <printf+0x7d7>
    4201: a6 be        	ldx	$be                     ; 0x20be <main+0x1b2c>
    4203: 86 14        	stx	$14                     ; 0x2014 <main+0x1a82>
    4205: 38           	sec
    4206: a5 18        	lda	$18                     ; 0x2018 <main+0x1a86>
    4208: e5 16        	sbc	$16                     ; 0x2016 <main+0x1a84>
    420a: aa           	tax
    420b: a9 00        	lda	#$0
    420d: e5 17        	sbc	$17                     ; 0x2017 <main+0x1a85>
    420f: a8           	tay
    4210: 18           	clc
    4211: 8a           	txa
    4212: 65 12        	adc	$12                     ; 0x2012 <main+0x1a80>
    4214: 85 8a        	sta	$8a                     ; 0x208a <main+0x1af8>
    4216: 98           	tya
    4217: 65 13        	adc	$13                     ; 0x2013 <main+0x1a81>
    4219: a4 bf        	ldy	$bf                     ; 0x20bf <main+0x1b2d>
    421b: 80 47        	bra	$4264 <printf+0x7be>
    421d: c4 bd        	cpy	$bd                     ; 0x20bd <main+0x1b2b>
    421f: b0 25        	bcs	$4246 <printf+0x7a0>
    4221: a6 c9        	ldx	$c9                     ; 0x20c9 <main+0x1b37>
    4223: e4 8e        	cpx	$8e                     ; 0x208e <main+0x1afc>
    4225: d0 18        	bne	$423f <printf+0x799>
    4227: a6 c8        	ldx	$c8                     ; 0x20c8 <main+0x1b36>
    4229: e4 8d        	cpx	$8d                     ; 0x208d <main+0x1afb>
    422b: d0 12        	bne	$423f <printf+0x799>
    422d: 18           	clc
    422e: a5 14        	lda	$14                     ; 0x2014 <main+0x1a82>
    4230: 65 c2        	adc	$c2                     ; 0x20c2 <main+0x1b30>
    4232: 85 12        	sta	$12                     ; 0x2012 <main+0x1a80>
    4234: 98           	tya
    4235: 65 c3        	adc	$c3                     ; 0x20c3 <main+0x1b31>
    4237: 85 13        	sta	$13                     ; 0x2013 <main+0x1a81>
    4239: a9 20        	lda	#$20
    423b: 92 12        	sta	($12)                   ; 0x2012 <main+0x1a80>
    423d: 80 05        	bra	$4244 <printf+0x79e>
    423f: a9 20        	lda	#$20
    4241: 20 09 37     	jsr	$3709 <__putchar>
    4244: a5 93        	lda	$93                     ; 0x2093 <main+0x1b01>
    4246: a6 be        	ldx	$be                     ; 0x20be <main+0x1b2c>
    4248: a4 bf        	ldy	$bf                     ; 0x20bf <main+0x1b2d>
    424a: e8           	inx
    424b: d0 01        	bne	$424e <printf+0x7a8>
    424d: c8           	iny
    424e: 86 14        	stx	$14                     ; 0x2014 <main+0x1a82>
    4250: 86 be        	stx	$be                     ; 0x20be <main+0x1b2c>
    4252: 84 bf        	sty	$bf                     ; 0x20bf <main+0x1b2d>
    4254: a6 8a        	ldx	$8a                     ; 0x208a <main+0x1af8>
    4256: e8           	inx
    4257: d0 01        	bne	$425a <printf+0x7b4>
    4259: 1a           	inc
    425a: 86 8a        	stx	$8a                     ; 0x208a <main+0x1af8>
    425c: c9 00        	cmp	#$0
    425e: d0 04        	bne	$4264 <printf+0x7be>
    4260: e0 00        	cpx	#$0
    4262: f0 13        	beq	$4277 <printf+0x7d1>
    4264: 85 93        	sta	$93                     ; 0x2093 <main+0x1b01>
    4266: c4 bd        	cpy	$bd                     ; 0x20bd <main+0x1b2b>
    4268: d0 b3        	bne	$421d <printf+0x777>
    426a: a6 bc        	ldx	$bc                     ; 0x20bc <main+0x1b2a>
    426c: 86 12        	stx	$12                     ; 0x2012 <main+0x1a80>
    426e: a6 14        	ldx	$14                     ; 0x2014 <main+0x1a82>
    4270: e4 12        	cpx	$12                     ; 0x2012 <main+0x1a80>
    4272: b0 d2        	bcs	$4246 <printf+0x7a0>
    4274: 4c 21 42     	jmp	$4221 <printf+0x77b>
    4277: 64 94        	stz	$94                     ; 0x2094 <main+0x1b02>
    4279: 64 93        	stz	$93                     ; 0x2093 <main+0x1b01>
    427b: a4 89        	ldy	$89                     ; 0x2089 <main+0x1af7>
    427d: a6 cf        	ldx	$cf                     ; 0x20cf <main+0x1b3d>
    427f: d0 4d        	bne	$42ce <printf+0x828>
    4281: a6 be        	ldx	$be                     ; 0x20be <main+0x1b2c>
    4283: a5 bf        	lda	$bf                     ; 0x20bf <main+0x1b2d>
    4285: c5 bd        	cmp	$bd                     ; 0x20bd <main+0x1b2b>
    4287: d0 10        	bne	$4299 <printf+0x7f3>
    4289: 86 13        	stx	$13                     ; 0x2013 <main+0x1a81>
    428b: a6 bc        	ldx	$bc                     ; 0x20bc <main+0x1b2a>
    428d: 86 12        	stx	$12                     ; 0x2012 <main+0x1a80>
    428f: a4 89        	ldy	$89                     ; 0x2089 <main+0x1af7>
    4291: a6 13        	ldx	$13                     ; 0x2013 <main+0x1a81>
    4293: e4 12        	cpx	$12                     ; 0x2012 <main+0x1a80>
    4295: 90 08        	bcc	$429f <printf+0x7f9>
    4297: 80 2f        	bra	$42c8 <printf+0x822>
    4299: 86 13        	stx	$13                     ; 0x2013 <main+0x1a81>
    429b: c5 bd        	cmp	$bd                     ; 0x20bd <main+0x1b2b>
    429d: b0 29        	bcs	$42c8 <printf+0x822>
    429f: a6 c9        	ldx	$c9                     ; 0x20c9 <main+0x1b37>
    42a1: e4 8e        	cpx	$8e                     ; 0x208e <main+0x1afc>
    42a3: d0 1c        	bne	$42c1 <printf+0x81b>
    42a5: a6 c8        	ldx	$c8                     ; 0x20c8 <main+0x1b36>
    42a7: e4 8d        	cpx	$8d                     ; 0x208d <main+0x1afb>
    42a9: d0 16        	bne	$42c1 <printf+0x81b>
    42ab: 18           	clc
    42ac: 85 12        	sta	$12                     ; 0x2012 <main+0x1a80>
    42ae: a5 13        	lda	$13                     ; 0x2013 <main+0x1a81>
    42b0: 65 c2        	adc	$c2                     ; 0x20c2 <main+0x1b30>
    42b2: aa           	tax
    42b3: a5 12        	lda	$12                     ; 0x2012 <main+0x1a80>
    42b5: 65 c3        	adc	$c3                     ; 0x20c3 <main+0x1b31>
    42b7: 86 12        	stx	$12                     ; 0x2012 <main+0x1a80>
    42b9: 85 13        	sta	$13                     ; 0x2013 <main+0x1a81>
    42bb: a5 d0        	lda	$d0                     ; 0x20d0 <main+0x1b3e>
    42bd: 92 12        	sta	($12)                   ; 0x2012 <main+0x1a80>
    42bf: 80 05        	bra	$42c6 <printf+0x820>
    42c1: a5 d0        	lda	$d0                     ; 0x20d0 <main+0x1b3e>
    42c3: 20 09 37     	jsr	$3709 <__putchar>
    42c6: a4 89        	ldy	$89                     ; 0x2089 <main+0x1af7>
    42c8: e6 be        	inc	$be                     ; 0x20be <main+0x1b2c>
    42ca: d0 02        	bne	$42ce <printf+0x828>
    42cc: e6 bf        	inc	$bf                     ; 0x20bf <main+0x1b2d>
    42ce: a6 ce        	ldx	$ce                     ; 0x20ce <main+0x1b3c>
    42d0: f0 4d        	beq	$431f <printf+0x879>
    42d2: a6 be        	ldx	$be                     ; 0x20be <main+0x1b2c>
    42d4: a5 bf        	lda	$bf                     ; 0x20bf <main+0x1b2d>
    42d6: c5 bd        	cmp	$bd                     ; 0x20bd <main+0x1b2b>
    42d8: d0 10        	bne	$42ea <printf+0x844>
    42da: 86 13        	stx	$13                     ; 0x2013 <main+0x1a81>
    42dc: a6 bc        	ldx	$bc                     ; 0x20bc <main+0x1b2a>
    42de: 86 12        	stx	$12                     ; 0x2012 <main+0x1a80>
    42e0: a4 89        	ldy	$89                     ; 0x2089 <main+0x1af7>
    42e2: a6 13        	ldx	$13                     ; 0x2013 <main+0x1a81>
    42e4: e4 12        	cpx	$12                     ; 0x2012 <main+0x1a80>
    42e6: 90 08        	bcc	$42f0 <printf+0x84a>
    42e8: 80 2f        	bra	$4319 <printf+0x873>
    42ea: 86 13        	stx	$13                     ; 0x2013 <main+0x1a81>
    42ec: c5 bd        	cmp	$bd                     ; 0x20bd <main+0x1b2b>
    42ee: b0 29        	bcs	$4319 <printf+0x873>
    42f0: a6 c9        	ldx	$c9                     ; 0x20c9 <main+0x1b37>
    42f2: e4 8e        	cpx	$8e                     ; 0x208e <main+0x1afc>
    42f4: d0 1c        	bne	$4312 <printf+0x86c>
    42f6: a6 c8        	ldx	$c8                     ; 0x20c8 <main+0x1b36>
    42f8: e4 8d        	cpx	$8d                     ; 0x208d <main+0x1afb>
    42fa: d0 16        	bne	$4312 <printf+0x86c>
    42fc: 18           	clc
    42fd: 85 12        	sta	$12                     ; 0x2012 <main+0x1a80>
    42ff: a5 13        	lda	$13                     ; 0x2013 <main+0x1a81>
    4301: 65 c2        	adc	$c2                     ; 0x20c2 <main+0x1b30>
    4303: aa           	tax
    4304: a5 12        	lda	$12                     ; 0x2012 <main+0x1a80>
    4306: 65 c3        	adc	$c3                     ; 0x20c3 <main+0x1b31>
    4308: 86 12        	stx	$12                     ; 0x2012 <main+0x1a80>
    430a: 85 13        	sta	$13                     ; 0x2013 <main+0x1a81>
    430c: a5 d3        	lda	$d3                     ; 0x20d3 <main+0x1b41>
    430e: 92 12        	sta	($12)                   ; 0x2012 <main+0x1a80>
    4310: 80 05        	bra	$4317 <printf+0x871>
    4312: a5 d3        	lda	$d3                     ; 0x20d3 <main+0x1b41>
    4314: 20 09 37     	jsr	$3709 <__putchar>
    4317: a4 89        	ldy	$89                     ; 0x2089 <main+0x1af7>
    4319: e6 be        	inc	$be                     ; 0x20be <main+0x1b2c>
    431b: d0 02        	bne	$431f <printf+0x879>
    431d: e6 bf        	inc	$bf                     ; 0x20bf <main+0x1b2d>
    431f: a9 10        	lda	#$10
    4321: 25 ba        	and	$ba                     ; 0x20ba <main+0x1b28>
    4323: d0 03        	bne	$4328 <printf+0x882>
    4325: 4c b0 43     	jmp	$43b0 <printf+0x90a>
    4328: a5 ba        	lda	$ba                     ; 0x20ba <main+0x1b28>
    432a: 29 01        	and	#$1
    432c: 29 01        	and	#$1
    432e: f0 03        	beq	$4333 <printf+0x88d>
    4330: 4c b0 43     	jmp	$43b0 <printf+0x90a>
    4333: a6 94        	ldx	$94                     ; 0x2094 <main+0x1b02>
    4335: a5 93        	lda	$93                     ; 0x2093 <main+0x1b01>
    4337: d0 06        	bne	$433f <printf+0x899>
    4339: 8a           	txa
    433a: d0 03        	bne	$433f <printf+0x899>
    433c: 4c 4e 46     	jmp	$464e <printf+0xba8>
    433f: a6 be        	ldx	$be                     ; 0x20be <main+0x1b2c>
    4341: 86 13        	stx	$13                     ; 0x2013 <main+0x1a81>
    4343: a5 bf        	lda	$bf                     ; 0x20bf <main+0x1b2d>
    4345: 80 4f        	bra	$4396 <printf+0x8f0>
    4347: c5 bd        	cmp	$bd                     ; 0x20bd <main+0x1b2b>
    4349: b0 24        	bcs	$436f <printf+0x8c9>
    434b: a6 c9        	ldx	$c9                     ; 0x20c9 <main+0x1b37>
    434d: e4 8e        	cpx	$8e                     ; 0x208e <main+0x1afc>
    434f: d0 19        	bne	$436a <printf+0x8c4>
    4351: a6 c8        	ldx	$c8                     ; 0x20c8 <main+0x1b36>
    4353: e4 8d        	cpx	$8d                     ; 0x208d <main+0x1afb>
    4355: d0 13        	bne	$436a <printf+0x8c4>
    4357: 18           	clc
    4358: aa           	tax
    4359: a5 13        	lda	$13                     ; 0x2013 <main+0x1a81>
    435b: 65 c2        	adc	$c2                     ; 0x20c2 <main+0x1b30>
    435d: 85 12        	sta	$12                     ; 0x2012 <main+0x1a80>
    435f: 8a           	txa
    4360: 65 c3        	adc	$c3                     ; 0x20c3 <main+0x1b31>
    4362: 85 13        	sta	$13                     ; 0x2013 <main+0x1a81>
    4364: a9 30        	lda	#$30
    4366: 92 12        	sta	($12)                   ; 0x2012 <main+0x1a80>
    4368: 80 05        	bra	$436f <printf+0x8c9>
    436a: a9 30        	lda	#$30
    436c: 20 09 37     	jsr	$3709 <__putchar>
    436f: a6 be        	ldx	$be                     ; 0x20be <main+0x1b2c>
    4371: a5 bf        	lda	$bf                     ; 0x20bf <main+0x1b2d>
    4373: e8           	inx
    4374: d0 01        	bne	$4377 <printf+0x8d1>
    4376: 1a           	inc
    4377: 86 13        	stx	$13                     ; 0x2013 <main+0x1a81>
    4379: 86 be        	stx	$be                     ; 0x20be <main+0x1b2c>
    437b: 85 bf        	sta	$bf                     ; 0x20bf <main+0x1b2d>
    437d: a4 94        	ldy	$94                     ; 0x2094 <main+0x1b02>
    437f: a6 93        	ldx	$93                     ; 0x2093 <main+0x1b01>
    4381: 86 12        	stx	$12                     ; 0x2012 <main+0x1a80>
    4383: 88           	dey
    4384: c0 ff        	cpy	#$ff
    4386: d0 02        	bne	$438a <printf+0x8e4>
    4388: c6 12        	dec	$12                     ; 0x2012 <main+0x1a80>
    438a: 84 94        	sty	$94                     ; 0x2094 <main+0x1b02>
    438c: a6 12        	ldx	$12                     ; 0x2012 <main+0x1a80>
    438e: 86 93        	stx	$93                     ; 0x2093 <main+0x1b01>
    4390: d0 04        	bne	$4396 <printf+0x8f0>
    4392: c0 00        	cpy	#$0
    4394: f0 14        	beq	$43aa <printf+0x904>
    4396: c5 bd        	cmp	$bd                     ; 0x20bd <main+0x1b2b>
    4398: f0 03        	beq	$439d <printf+0x8f7>
    439a: 4c 47 43     	jmp	$4347 <printf+0x8a1>
    439d: a6 bc        	ldx	$bc                     ; 0x20bc <main+0x1b2a>
    439f: 86 12        	stx	$12                     ; 0x2012 <main+0x1a80>
    43a1: a6 13        	ldx	$13                     ; 0x2013 <main+0x1a81>
    43a3: e4 12        	cpx	$12                     ; 0x2012 <main+0x1a80>
    43a5: b0 c8        	bcs	$436f <printf+0x8c9>
    43a7: 4c 4b 43     	jmp	$434b <printf+0x8a5>
    43aa: 64 94        	stz	$94                     ; 0x2094 <main+0x1b02>
    43ac: 64 93        	stz	$93                     ; 0x2093 <main+0x1b01>
    43ae: a4 89        	ldy	$89                     ; 0x2089 <main+0x1af7>
    43b0: a2 00        	ldx	#$0
    43b2: e4 92        	cpx	$92                     ; 0x2092 <main+0x1b00>
    43b4: d0 07        	bne	$43bd <printf+0x917>
    43b6: c4 91        	cpy	$91                     ; 0x2091 <main+0x1aff>
    43b8: 90 0a        	bcc	$43c4 <printf+0x91e>
    43ba: 4c 32 44     	jmp	$4432 <printf+0x98c>
    43bd: e4 92        	cpx	$92                     ; 0x2092 <main+0x1b00>
    43bf: 90 03        	bcc	$43c4 <printf+0x91e>
    43c1: 4c 32 44     	jmp	$4432 <printf+0x98c>
    43c4: a6 be        	ldx	$be                     ; 0x20be <main+0x1b2c>
    43c6: 86 13        	stx	$13                     ; 0x2013 <main+0x1a81>
    43c8: a5 bf        	lda	$bf                     ; 0x20bf <main+0x1b2d>
    43ca: a2 ff        	ldx	#$ff
    43cc: c6 91        	dec	$91                     ; 0x2091 <main+0x1aff>
    43ce: e4 91        	cpx	$91                     ; 0x2091 <main+0x1aff>
    43d0: d0 02        	bne	$43d4 <printf+0x92e>
    43d2: c6 92        	dec	$92                     ; 0x2092 <main+0x1b00>
    43d4: c5 bd        	cmp	$bd                     ; 0x20bd <main+0x1b2b>
    43d6: d0 0c        	bne	$43e4 <printf+0x93e>
    43d8: a6 bc        	ldx	$bc                     ; 0x20bc <main+0x1b2a>
    43da: 86 12        	stx	$12                     ; 0x2012 <main+0x1a80>
    43dc: a6 13        	ldx	$13                     ; 0x2013 <main+0x1a81>
    43de: e4 12        	cpx	$12                     ; 0x2012 <main+0x1a80>
    43e0: 90 06        	bcc	$43e8 <printf+0x942>
    43e2: 80 28        	bra	$440c <printf+0x966>
    43e4: c5 bd        	cmp	$bd                     ; 0x20bd <main+0x1b2b>
    43e6: b0 24        	bcs	$440c <printf+0x966>
    43e8: a6 c9        	ldx	$c9                     ; 0x20c9 <main+0x1b37>
    43ea: e4 8e        	cpx	$8e                     ; 0x208e <main+0x1afc>
    43ec: d0 19        	bne	$4407 <printf+0x961>
    43ee: a6 c8        	ldx	$c8                     ; 0x20c8 <main+0x1b36>
    43f0: e4 8d        	cpx	$8d                     ; 0x208d <main+0x1afb>
    43f2: d0 13        	bne	$4407 <printf+0x961>
    43f4: 18           	clc
    43f5: aa           	tax
    43f6: a5 13        	lda	$13                     ; 0x2013 <main+0x1a81>
    43f8: 65 c2        	adc	$c2                     ; 0x20c2 <main+0x1b30>
    43fa: 85 12        	sta	$12                     ; 0x2012 <main+0x1a80>
    43fc: 8a           	txa
    43fd: 65 c3        	adc	$c3                     ; 0x20c3 <main+0x1b31>
    43ff: 85 13        	sta	$13                     ; 0x2013 <main+0x1a81>
    4401: a9 30        	lda	#$30
    4403: 92 12        	sta	($12)                   ; 0x2012 <main+0x1a80>
    4405: 80 05        	bra	$440c <printf+0x966>
    4407: a9 30        	lda	#$30
    4409: 20 09 37     	jsr	$3709 <__putchar>
    440c: a6 be        	ldx	$be                     ; 0x20be <main+0x1b2c>
    440e: a5 bf        	lda	$bf                     ; 0x20bf <main+0x1b2d>
    4410: e8           	inx
    4411: d0 01        	bne	$4414 <printf+0x96e>
    4413: 1a           	inc
    4414: 86 13        	stx	$13                     ; 0x2013 <main+0x1a81>
    4416: 86 be        	stx	$be                     ; 0x20be <main+0x1b2c>
    4418: 85 bf        	sta	$bf                     ; 0x20bf <main+0x1b2d>
    441a: a2 00        	ldx	#$0
    441c: e4 92        	cpx	$92                     ; 0x2092 <main+0x1b00>
    441e: d0 09        	bne	$4429 <printf+0x983>
    4420: a4 89        	ldy	$89                     ; 0x2089 <main+0x1af7>
    4422: c4 91        	cpy	$91                     ; 0x2091 <main+0x1aff>
    4424: b0 0c        	bcs	$4432 <printf+0x98c>
    4426: 4c ca 43     	jmp	$43ca <printf+0x924>
    4429: e4 92        	cpx	$92                     ; 0x2092 <main+0x1b00>
    442b: a4 89        	ldy	$89                     ; 0x2089 <main+0x1af7>
    442d: b0 03        	bcs	$4432 <printf+0x98c>
    442f: 4c ca 43     	jmp	$43ca <printf+0x924>
    4432: 98           	tya
    4433: d0 03        	bne	$4438 <printf+0x992>
    4435: 4c 27 45     	jmp	$4527 <printf+0xa81>
    4438: 88           	dey
    4439: d0 03        	bne	$443e <printf+0x998>
    443b: 4c c6 44     	jmp	$44c6 <printf+0xa20>
    443e: 84 91        	sty	$91                     ; 0x2091 <main+0x1aff>
    4440: a6 d4        	ldx	$d4                     ; 0x20d4 <main+0x1b42>
    4442: 8a           	txa
    4443: 18           	clc
    4444: 65 91        	adc	$91                     ; 0x2091 <main+0x1aff>
    4446: 85 89        	sta	$89                     ; 0x2089 <main+0x1af7>
    4448: a5 d5        	lda	$d5                     ; 0x20d5 <main+0x1b43>
    444a: 69 00        	adc	#$0
    444c: 85 8a        	sta	$8a                     ; 0x208a <main+0x1af8>
    444e: 4c b8 44     	jmp	$44b8 <printf+0xa12>
    4451: a8           	tay
    4452: a9 80        	lda	#$80
    4454: 25 ba        	and	$ba                     ; 0x20ba <main+0x1b28>
    4456: f0 04        	beq	$445c <printf+0x9b6>
    4458: a2 61        	ldx	#$61
    445a: 80 02        	bra	$445e <printf+0x9b8>
    445c: a2 41        	ldx	#$41
    445e: 86 12        	stx	$12                     ; 0x2012 <main+0x1a80>
    4460: 18           	clc
    4461: 98           	tya
    4462: 65 12        	adc	$12                     ; 0x2012 <main+0x1a80>
    4464: 18           	clc
    4465: 69 f6        	adc	#$f6
    4467: a4 be        	ldy	$be                     ; 0x20be <main+0x1b2c>
    4469: a6 bf        	ldx	$bf                     ; 0x20bf <main+0x1b2d>
    446b: e4 bd        	cpx	$bd                     ; 0x20bd <main+0x1b2b>
    446d: d0 0c        	bne	$447b <printf+0x9d5>
    446f: 86 14        	stx	$14                     ; 0x2014 <main+0x1a82>
    4471: a6 bc        	ldx	$bc                     ; 0x20bc <main+0x1b2a>
    4473: 86 12        	stx	$12                     ; 0x2012 <main+0x1a80>
    4475: c4 12        	cpy	$12                     ; 0x2012 <main+0x1a80>
    4477: 90 08        	bcc	$4481 <printf+0x9db>
    4479: 80 27        	bra	$44a2 <printf+0x9fc>
    447b: 86 14        	stx	$14                     ; 0x2014 <main+0x1a82>
    447d: e4 bd        	cpx	$bd                     ; 0x20bd <main+0x1b2b>
    447f: b0 21        	bcs	$44a2 <printf+0x9fc>
    4481: a6 c9        	ldx	$c9                     ; 0x20c9 <main+0x1b37>
    4483: e4 8e        	cpx	$8e                     ; 0x208e <main+0x1afc>
    4485: d0 18        	bne	$449f <printf+0x9f9>
    4487: a6 c8        	ldx	$c8                     ; 0x20c8 <main+0x1b36>
    4489: e4 8d        	cpx	$8d                     ; 0x208d <main+0x1afb>
    448b: d0 12        	bne	$449f <printf+0x9f9>
    448d: 18           	clc
    448e: aa           	tax
    448f: 98           	tya
    4490: 65 c2        	adc	$c2                     ; 0x20c2 <main+0x1b30>
    4492: 85 12        	sta	$12                     ; 0x2012 <main+0x1a80>
    4494: a5 14        	lda	$14                     ; 0x2014 <main+0x1a82>
    4496: 65 c3        	adc	$c3                     ; 0x20c3 <main+0x1b31>
    4498: 85 13        	sta	$13                     ; 0x2013 <main+0x1a81>
    449a: 8a           	txa
    449b: 92 12        	sta	($12)                   ; 0x2012 <main+0x1a80>
    449d: 80 03        	bra	$44a2 <printf+0x9fc>
    449f: 20 09 37     	jsr	$3709 <__putchar>
    44a2: e6 be        	inc	$be                     ; 0x20be <main+0x1b2c>
    44a4: d0 02        	bne	$44a8 <printf+0xa02>
    44a6: e6 bf        	inc	$bf                     ; 0x20bf <main+0x1b2d>
    44a8: c6 91        	dec	$91                     ; 0x2091 <main+0x1aff>
    44aa: a2 ff        	ldx	#$ff
    44ac: c6 89        	dec	$89                     ; 0x2089 <main+0x1af7>
    44ae: e4 89        	cpx	$89                     ; 0x2089 <main+0x1af7>
    44b0: d0 02        	bne	$44b4 <printf+0xa0e>
    44b2: c6 8a        	dec	$8a                     ; 0x208a <main+0x1af8>
    44b4: a5 91        	lda	$91                     ; 0x2091 <main+0x1aff>
    44b6: f0 0e        	beq	$44c6 <printf+0xa20>
    44b8: b2 89        	lda	($89)                   ; 0x2089 <main+0x1af7>
    44ba: c9 0a        	cmp	#$a
    44bc: 90 03        	bcc	$44c1 <printf+0xa1b>
    44be: 4c 51 44     	jmp	$4451 <printf+0x9ab>
    44c1: 09 30        	ora	#$30
    44c3: 4c 67 44     	jmp	$4467 <printf+0x9c1>
    44c6: a5 97        	lda	$97                     ; 0x2097 <main+0x1b05>
    44c8: c9 0a        	cmp	#$a
    44ca: b0 04        	bcs	$44d0 <printf+0xa2a>
    44cc: 09 30        	ora	#$30
    44ce: 80 16        	bra	$44e6 <printf+0xa40>
    44d0: a8           	tay
    44d1: a9 80        	lda	#$80
    44d3: 25 ba        	and	$ba                     ; 0x20ba <main+0x1b28>
    44d5: f0 04        	beq	$44db <printf+0xa35>
    44d7: a2 61        	ldx	#$61
    44d9: 80 02        	bra	$44dd <printf+0xa37>
    44db: a2 41        	ldx	#$41
    44dd: 86 12        	stx	$12                     ; 0x2012 <main+0x1a80>
    44df: 18           	clc
    44e0: 98           	tya
    44e1: 65 12        	adc	$12                     ; 0x2012 <main+0x1a80>
    44e3: 18           	clc
    44e4: 69 f6        	adc	#$f6
    44e6: a4 be        	ldy	$be                     ; 0x20be <main+0x1b2c>
    44e8: a6 bf        	ldx	$bf                     ; 0x20bf <main+0x1b2d>
    44ea: e4 bd        	cpx	$bd                     ; 0x20bd <main+0x1b2b>
    44ec: d0 0c        	bne	$44fa <printf+0xa54>
    44ee: 86 14        	stx	$14                     ; 0x2014 <main+0x1a82>
    44f0: a6 bc        	ldx	$bc                     ; 0x20bc <main+0x1b2a>
    44f2: 86 12        	stx	$12                     ; 0x2012 <main+0x1a80>
    44f4: c4 12        	cpy	$12                     ; 0x2012 <main+0x1a80>
    44f6: 90 08        	bcc	$4500 <printf+0xa5a>
    44f8: 80 27        	bra	$4521 <printf+0xa7b>
    44fa: 86 14        	stx	$14                     ; 0x2014 <main+0x1a82>
    44fc: e4 bd        	cpx	$bd                     ; 0x20bd <main+0x1b2b>
    44fe: b0 21        	bcs	$4521 <printf+0xa7b>
    4500: a6 c9        	ldx	$c9                     ; 0x20c9 <main+0x1b37>
    4502: e4 8e        	cpx	$8e                     ; 0x208e <main+0x1afc>
    4504: d0 18        	bne	$451e <printf+0xa78>
    4506: a6 c8        	ldx	$c8                     ; 0x20c8 <main+0x1b36>
    4508: e4 8d        	cpx	$8d                     ; 0x208d <main+0x1afb>
    450a: d0 12        	bne	$451e <printf+0xa78>
    450c: 18           	clc
    450d: aa           	tax
    450e: 98           	tya
    450f: 65 c2        	adc	$c2                     ; 0x20c2 <main+0x1b30>
    4511: 85 12        	sta	$12                     ; 0x2012 <main+0x1a80>
    4513: a5 14        	lda	$14                     ; 0x2014 <main+0x1a82>
    4515: 65 c3        	adc	$c3                     ; 0x20c3 <main+0x1b31>
    4517: 85 13        	sta	$13                     ; 0x2013 <main+0x1a81>
    4519: 8a           	txa
    451a: 92 12        	sta	($12)                   ; 0x2012 <main+0x1a80>
    451c: 80 03        	bra	$4521 <printf+0xa7b>
    451e: 20 09 37     	jsr	$3709 <__putchar>
    4521: e6 be        	inc	$be                     ; 0x20be <main+0x1b2c>
    4523: d0 02        	bne	$4527 <printf+0xa81>
    4525: e6 bf        	inc	$bf                     ; 0x20bf <main+0x1b2d>
    4527: a9 01        	lda	#$1
    4529: 25 ba        	and	$ba                     ; 0x20ba <main+0x1b28>
    452b: 29 01        	and	#$1
    452d: d0 1e        	bne	$454d <printf+0xaa7>
    452f: a6 be        	ldx	$be                     ; 0x20be <main+0x1b2c>
    4531: 86 14        	stx	$14                     ; 0x2014 <main+0x1a82>
    4533: a5 bf        	lda	$bf                     ; 0x20bf <main+0x1b2d>
    4535: a4 bc        	ldy	$bc                     ; 0x20bc <main+0x1b2a>
    4537: a6 bd        	ldx	$bd                     ; 0x20bd <main+0x1b2b>
    4539: 86 12        	stx	$12                     ; 0x2012 <main+0x1a80>
    453b: 86 13        	stx	$13                     ; 0x2013 <main+0x1a81>
    453d: c5 12        	cmp	$12                     ; 0x2012 <main+0x1a80>
    453f: f0 03        	beq	$4544 <printf+0xa9e>
    4541: 4c d0 45     	jmp	$45d0 <printf+0xb2a>
    4544: 84 12        	sty	$12                     ; 0x2012 <main+0x1a80>
    4546: a6 14        	ldx	$14                     ; 0x2014 <main+0x1a82>
    4548: e4 12        	cpx	$12                     ; 0x2012 <main+0x1a80>
    454a: 4c d4 45     	jmp	$45d4 <printf+0xb2e>
    454d: a6 be        	ldx	$be                     ; 0x20be <main+0x1b2c>
    454f: 86 14        	stx	$14                     ; 0x2014 <main+0x1a82>
    4551: a5 bf        	lda	$bf                     ; 0x20bf <main+0x1b2d>
    4553: a6 94        	ldx	$94                     ; 0x2094 <main+0x1b02>
    4555: a4 93        	ldy	$93                     ; 0x2093 <main+0x1b01>
    4557: f0 03        	beq	$455c <printf+0xab6>
    4559: 4c bc 45     	jmp	$45bc <printf+0xb16>
    455c: e0 00        	cpx	#$0
    455e: f0 d5        	beq	$4535 <printf+0xa8f>
    4560: 4c bc 45     	jmp	$45bc <printf+0xb16>
    4563: c5 bd        	cmp	$bd                     ; 0x20bd <main+0x1b2b>
    4565: b0 24        	bcs	$458b <printf+0xae5>
    4567: a6 c9        	ldx	$c9                     ; 0x20c9 <main+0x1b37>
    4569: e4 8e        	cpx	$8e                     ; 0x208e <main+0x1afc>
    456b: d0 19        	bne	$4586 <printf+0xae0>
    456d: a6 c8        	ldx	$c8                     ; 0x20c8 <main+0x1b36>
    456f: e4 8d        	cpx	$8d                     ; 0x208d <main+0x1afb>
    4571: d0 13        	bne	$4586 <printf+0xae0>
    4573: 18           	clc
    4574: aa           	tax
    4575: a5 14        	lda	$14                     ; 0x2014 <main+0x1a82>
    4577: 65 c2        	adc	$c2                     ; 0x20c2 <main+0x1b30>
    4579: 85 12        	sta	$12                     ; 0x2012 <main+0x1a80>
    457b: 8a           	txa
    457c: 65 c3        	adc	$c3                     ; 0x20c3 <main+0x1b31>
    457e: 85 13        	sta	$13                     ; 0x2013 <main+0x1a81>
    4580: a9 20        	lda	#$20
    4582: 92 12        	sta	($12)                   ; 0x2012 <main+0x1a80>
    4584: 80 05        	bra	$458b <printf+0xae5>
    4586: a9 20        	lda	#$20
    4588: 20 09 37     	jsr	$3709 <__putchar>
    458b: a6 be        	ldx	$be                     ; 0x20be <main+0x1b2c>
    458d: a5 bf        	lda	$bf                     ; 0x20bf <main+0x1b2d>
    458f: e8           	inx
    4590: d0 01        	bne	$4593 <printf+0xaed>
    4592: 1a           	inc
    4593: 86 14        	stx	$14                     ; 0x2014 <main+0x1a82>
    4595: 86 be        	stx	$be                     ; 0x20be <main+0x1b2c>
    4597: 85 bf        	sta	$bf                     ; 0x20bf <main+0x1b2d>
    4599: a6 94        	ldx	$94                     ; 0x2094 <main+0x1b02>
    459b: 86 12        	stx	$12                     ; 0x2012 <main+0x1a80>
    459d: a6 93        	ldx	$93                     ; 0x2093 <main+0x1b01>
    459f: 86 13        	stx	$13                     ; 0x2013 <main+0x1a81>
    45a1: a2 ff        	ldx	#$ff
    45a3: c6 12        	dec	$12                     ; 0x2012 <main+0x1a80>
    45a5: e4 12        	cpx	$12                     ; 0x2012 <main+0x1a80>
    45a7: d0 02        	bne	$45ab <printf+0xb05>
    45a9: c6 13        	dec	$13                     ; 0x2013 <main+0x1a81>
    45ab: a6 12        	ldx	$12                     ; 0x2012 <main+0x1a80>
    45ad: 86 94        	stx	$94                     ; 0x2094 <main+0x1b02>
    45af: a6 13        	ldx	$13                     ; 0x2013 <main+0x1a81>
    45b1: 86 93        	stx	$93                     ; 0x2093 <main+0x1b01>
    45b3: d0 07        	bne	$45bc <printf+0xb16>
    45b5: a6 12        	ldx	$12                     ; 0x2012 <main+0x1a80>
    45b7: d0 03        	bne	$45bc <printf+0xb16>
    45b9: 4c 35 45     	jmp	$4535 <printf+0xa8f>
    45bc: c5 bd        	cmp	$bd                     ; 0x20bd <main+0x1b2b>
    45be: f0 03        	beq	$45c3 <printf+0xb1d>
    45c0: 4c 63 45     	jmp	$4563 <printf+0xabd>
    45c3: a6 bc        	ldx	$bc                     ; 0x20bc <main+0x1b2a>
    45c5: 86 12        	stx	$12                     ; 0x2012 <main+0x1a80>
    45c7: a6 14        	ldx	$14                     ; 0x2014 <main+0x1a82>
    45c9: e4 12        	cpx	$12                     ; 0x2012 <main+0x1a80>
    45cb: b0 be        	bcs	$458b <printf+0xae5>
    45cd: 4c 67 45     	jmp	$4567 <printf+0xac1>
    45d0: 86 12        	stx	$12                     ; 0x2012 <main+0x1a80>
    45d2: c5 12        	cmp	$12                     ; 0x2012 <main+0x1a80>
    45d4: 98           	tya
    45d5: a0 01        	ldy	#$1
    45d7: 90 20        	bcc	$45f9 <printf+0xb53>
    45d9: a6 13        	ldx	$13                     ; 0x2013 <main+0x1a81>
    45db: d0 03        	bne	$45e0 <printf+0xb3a>
    45dd: aa           	tax
    45de: f0 19        	beq	$45f9 <printf+0xb53>
    45e0: 18           	clc
    45e1: 65 c2        	adc	$c2                     ; 0x20c2 <main+0x1b30>
    45e3: 85 12        	sta	$12                     ; 0x2012 <main+0x1a80>
    45e5: a5 13        	lda	$13                     ; 0x2013 <main+0x1a81>
    45e7: 65 c3        	adc	$c3                     ; 0x20c3 <main+0x1b31>
    45e9: 85 13        	sta	$13                     ; 0x2013 <main+0x1a81>
    45eb: a2 ff        	ldx	#$ff
    45ed: c6 12        	dec	$12                     ; 0x2012 <main+0x1a80>
    45ef: e4 12        	cpx	$12                     ; 0x2012 <main+0x1a80>
    45f1: d0 02        	bne	$45f5 <printf+0xb4f>
    45f3: c6 13        	dec	$13                     ; 0x2013 <main+0x1a81>
    45f5: a9 00        	lda	#$0
    45f7: 92 12        	sta	($12)                   ; 0x2012 <main+0x1a80>
    45f9: e6 8b        	inc	$8b                     ; 0x208b <main+0x1af9>
    45fb: d0 02        	bne	$45ff <printf+0xb59>
    45fd: e6 8c        	inc	$8c                     ; 0x208c <main+0x1afa>
    45ff: a6 8c        	ldx	$8c                     ; 0x208c <main+0x1afa>
    4601: e4 90        	cpx	$90                     ; 0x2090 <main+0x1afe>
    4603: f0 03        	beq	$4608 <printf+0xb62>
    4605: 4c 0b 3b     	jmp	$3b0b <printf+0x65>
    4608: a6 8b        	ldx	$8b                     ; 0x208b <main+0x1af9>
    460a: e4 8f        	cpx	$8f                     ; 0x208f <main+0x1afd>
    460c: f0 03        	beq	$4611 <printf+0xb6b>
    460e: 4c 0b 3b     	jmp	$3b0b <printf+0x65>
    4611: b2 8f        	lda	($8f)                   ; 0x208f <main+0x1afd>
    4613: a2 00        	ldx	#$0
    4615: 86 8d        	stx	$8d                     ; 0x208d <main+0x1afb>
    4617: a2 00        	ldx	#$0
    4619: 86 8e        	stx	$8e                     ; 0x208e <main+0x1afc>
    461b: 4c 1f 3b     	jmp	$3b1f <printf+0x79>
    461e: e4 92        	cpx	$92                     ; 0x2092 <main+0x1b00>
    4620: a6 8a        	ldx	$8a                     ; 0x208a <main+0x1af8>
    4622: b0 03        	bcs	$4627 <printf+0xb81>
    4624: 4c 4b 41     	jmp	$414b <printf+0x6a5>
    4627: a5 89        	lda	$89                     ; 0x2089 <main+0x1af7>
    4629: 85 91        	sta	$91                     ; 0x2091 <main+0x1aff>
    462b: 64 92        	stz	$92                     ; 0x2092 <main+0x1b00>
    462d: e6 91        	inc	$91                     ; 0x2091 <main+0x1aff>
    462f: f0 03        	beq	$4634 <printf+0xb8e>
    4631: 4c 4b 41     	jmp	$414b <printf+0x6a5>
    4634: e6 92        	inc	$92                     ; 0x2092 <main+0x1b00>
    4636: 4c 4b 41     	jmp	$414b <printf+0x6a5>
    4639: a2 58        	ldx	#$58
    463b: 86 d3        	stx	$d3                     ; 0x20d3 <main+0x1b41>
    463d: a2 01        	ldx	#$1
    463f: 86 ce        	stx	$ce                     ; 0x20ce <main+0x1b3c>
    4641: a2 30        	ldx	#$30
    4643: 86 d0        	stx	$d0                     ; 0x20d0 <main+0x1b3e>
    4645: a9 02        	lda	#$2
    4647: a2 00        	ldx	#$0
    4649: 86 cf        	stx	$cf                     ; 0x20cf <main+0x1b3d>
    464b: 4c 8c 41     	jmp	$418c <printf+0x6e6>
    464e: 64 94        	stz	$94                     ; 0x2094 <main+0x1b02>
    4650: 64 93        	stz	$93                     ; 0x2093 <main+0x1b01>
    4652: 4c b0 43     	jmp	$43b0 <printf+0x90a>
    4655: 60           	rts

00004656 <putchar>:
    4656: 85 8a        	sta	$8a                     ; 0x208a <main+0x1af8>
    4658: 86 89        	stx	$89                     ; 0x2089 <main+0x1af7>
    465a: 20 09 37     	jsr	$3709 <__putchar>
    465d: a6 89        	ldx	$89                     ; 0x2089 <main+0x1af7>
    465f: a5 8a        	lda	$8a                     ; 0x208a <main+0x1af8>
    4661: 60           	rts

00004662 <puts>:
    4662: b2 12        	lda	($12)                   ; 0x2012 <main+0x1a80>
    4664: f0 28        	beq	$468e <puts+0x2c>
    4666: a6 12        	ldx	$12                     ; 0x2012 <main+0x1a80>
    4668: 86 89        	stx	$89                     ; 0x2089 <main+0x1af7>
    466a: a6 13        	ldx	$13                     ; 0x2013 <main+0x1a81>
    466c: 86 8a        	stx	$8a                     ; 0x208a <main+0x1af8>
    466e: a6 12        	ldx	$12                     ; 0x2012 <main+0x1a80>
    4670: 86 8b        	stx	$8b                     ; 0x208b <main+0x1af9>
    4672: a6 13        	ldx	$13                     ; 0x2013 <main+0x1a81>
    4674: 86 8c        	stx	$8c                     ; 0x208c <main+0x1afa>
    4676: e6 8b        	inc	$8b                     ; 0x208b <main+0x1af9>
    4678: d0 02        	bne	$467c <puts+0x1a>
    467a: e6 8c        	inc	$8c                     ; 0x208c <main+0x1afa>
    467c: 20 09 37     	jsr	$3709 <__putchar>
    467f: a0 01        	ldy	#$1
    4681: b1 89        	lda	($89),y                 ; 0x2089 <main+0x1af7>
    4683: a6 8b        	ldx	$8b                     ; 0x208b <main+0x1af9>
    4685: 86 89        	stx	$89                     ; 0x2089 <main+0x1af7>
    4687: a6 8c        	ldx	$8c                     ; 0x208c <main+0x1afa>
    4689: 86 8a        	stx	$8a                     ; 0x208a <main+0x1af8>
    468b: aa           	tax
    468c: d0 e8        	bne	$4676 <puts+0x14>
    468e: a9 0a        	lda	#$a
    4690: 4c 09 37     	jmp	$3709 <__putchar>

00004693 <malloc>:
    4693: a8           	tay
    4694: 8a           	txa
    4695: a2 00        	ldx	#$0
    4697: 86 12        	stx	$12                     ; 0x2012 <main+0x1a80>
    4699: a2 00        	ldx	#$0
    469b: 86 13        	stx	$13                     ; 0x2013 <main+0x1a81>
    469d: aa           	tax
    469e: d0 07        	bne	$46a7 <malloc+0x14>
    46a0: c0 00        	cpy	#$0
    46a2: d0 03        	bne	$46a7 <malloc+0x14>
    46a4: 4c 94 47     	jmp	$4794 <malloc+0x101>
    46a7: 84 16        	sty	$16                     ; 0x2016 <main+0x1a84>
    46a9: aa           	tax
    46aa: d0 0e        	bne	$46ba <malloc+0x27>
    46ac: a6 16        	ldx	$16                     ; 0x2016 <main+0x1a84>
    46ae: e0 07        	cpx	#$7
    46b0: b0 0c        	bcs	$46be <malloc+0x2b>
    46b2: a2 08        	ldx	#$8
    46b4: 86 8a        	stx	$8a                     ; 0x208a <main+0x1af8>
    46b6: a9 00        	lda	#$0
    46b8: 80 2f        	bra	$46e9 <malloc+0x56>
    46ba: c9 00        	cmp	#$0
    46bc: 90 f4        	bcc	$46b2 <malloc+0x1f>
    46be: a8           	tay
    46bf: a5 16        	lda	$16                     ; 0x2016 <main+0x1a84>
    46c1: 29 01        	and	#$1
    46c3: a2 02        	ldx	#$2
    46c5: 64 14        	stz	$14                     ; 0x2014 <main+0x1a82>
    46c7: c9 00        	cmp	#$0
    46c9: f0 02        	beq	$46cd <malloc+0x3a>
    46cb: a2 03        	ldx	#$3
    46cd: 86 15        	stx	$15                     ; 0x2015 <main+0x1a83>
    46cf: 18           	clc
    46d0: a5 16        	lda	$16                     ; 0x2016 <main+0x1a84>
    46d2: 65 15        	adc	$15                     ; 0x2015 <main+0x1a83>
    46d4: aa           	tax
    46d5: 98           	tya
    46d6: 65 14        	adc	$14                     ; 0x2014 <main+0x1a82>
    46d8: 90 03        	bcc	$46dd <malloc+0x4a>
    46da: 4c 94 47     	jmp	$4794 <malloc+0x101>
    46dd: 86 8a        	stx	$8a                     ; 0x208a <main+0x1af8>
    46df: a8           	tay
    46e0: d0 07        	bne	$46e9 <malloc+0x56>
    46e2: e0 00        	cpx	#$0
    46e4: d0 03        	bne	$46e9 <malloc+0x56>
    46e6: 4c 94 47     	jmp	$4794 <malloc+0x101>
    46e9: 85 89        	sta	$89                     ; 0x2089 <main+0x1af7>
    46eb: a5 83        	lda	$83                     ; 0x2083 <main+0x1af1>
    46ed: 29 01        	and	#$1
    46ef: d0 2b        	bne	$471c <malloc+0x89>
    46f1: a9 00        	lda	#$0
    46f3: a2 10        	ldx	#$10
    46f5: a0 96        	ldy	#$96
    46f7: 84 12        	sty	$12                     ; 0x2012 <main+0x1a80>
    46f9: a0 68        	ldy	#$68
    46fb: 84 13        	sty	$13                     ; 0x2013 <main+0x1a81>
    46fd: 20 4a 03     	jsr	$34a <_ZN12_GLOBAL__N_19FreeChunk6insertEPvj>
    4700: a2 00        	ldx	#$0
    4702: 86 12        	stx	$12                     ; 0x2012 <main+0x1a80>
    4704: a2 00        	ldx	#$0
    4706: 86 13        	stx	$13                     ; 0x2013 <main+0x1a81>
    4708: ae 97 68     	ldx	$6897                   ; 0x6897 <end_block9+0x1>
    470b: a9 fe        	lda	#$fe
    470d: 2d 96 68     	and	$6896                   ; 0x6896 <end_block9>
    4710: 8d 96 68     	sta	$6896                   ; 0x6896 <end_block9>
    4713: 8e 97 68     	stx	$6897                   ; 0x6897 <end_block9+0x1>
    4716: a2 01        	ldx	#$1
    4718: 86 84        	stx	$84                     ; 0x2084 <main+0x1af2>
    471a: 86 83        	stx	$83                     ; 0x2083 <main+0x1af1>
    471c: a6 87        	ldx	$87                     ; 0x2087 <main+0x1af5>
    471e: 86 16        	stx	$16                     ; 0x2016 <main+0x1a84>
    4720: a4 88        	ldy	$88                     ; 0x2088 <main+0x1af6>
    4722: 84 17        	sty	$17                     ; 0x2017 <main+0x1a85>
    4724: a9 00        	lda	#$0
    4726: 85 14        	sta	$14                     ; 0x2014 <main+0x1a82>
    4728: a9 00        	lda	#$0
    472a: 85 15        	sta	$15                     ; 0x2015 <main+0x1a83>
    472c: c4 15        	cpy	$15                     ; 0x2015 <main+0x1a83>
    472e: d0 07        	bne	$4737 <malloc+0xa4>
    4730: e4 14        	cpx	$14                     ; 0x2014 <main+0x1a82>
    4732: d0 03        	bne	$4737 <malloc+0xa4>
    4734: 4c 94 47     	jmp	$4794 <malloc+0x101>
    4737: a2 00        	ldx	#$0
    4739: a0 10        	ldy	#$10
    473b: 86 14        	stx	$14                     ; 0x2014 <main+0x1a82>
    473d: 84 15        	sty	$15                     ; 0x2015 <main+0x1a83>
    473f: 18           	clc
    4740: a9 96        	lda	#$96
    4742: 65 14        	adc	$14                     ; 0x2014 <main+0x1a82>
    4744: 85 18        	sta	$18                     ; 0x2018 <main+0x1a86>
    4746: a9 68        	lda	#$68
    4748: 65 15        	adc	$15                     ; 0x2015 <main+0x1a83>
    474a: 85 8d        	sta	$8d                     ; 0x208d <main+0x1afb>
    474c: a0 01        	ldy	#$1
    474e: a6 89        	ldx	$89                     ; 0x2089 <main+0x1af7>
    4750: 86 19        	stx	$19                     ; 0x2019 <main+0x1a87>
    4752: a6 16        	ldx	$16                     ; 0x2016 <main+0x1a84>
    4754: 86 14        	stx	$14                     ; 0x2014 <main+0x1a82>
    4756: a6 17        	ldx	$17                     ; 0x2017 <main+0x1a85>
    4758: 86 15        	stx	$15                     ; 0x2015 <main+0x1a83>
    475a: b1 14        	lda	($14),y                 ; 0x2014 <main+0x1a82>
    475c: c5 19        	cmp	$19                     ; 0x2019 <main+0x1a87>
    475e: d0 0e        	bne	$476e <malloc+0xdb>
    4760: b2 14        	lda	($14)                   ; 0x2014 <main+0x1a82>
    4762: 29 fe        	and	#$fe
    4764: a6 8a        	ldx	$8a                     ; 0x208a <main+0x1af8>
    4766: 86 1a        	stx	$1a                     ; 0x201a <main+0x1a88>
    4768: c5 1a        	cmp	$1a                     ; 0x201a <main+0x1a88>
    476a: b0 29        	bcs	$4795 <malloc+0x102>
    476c: 80 04        	bra	$4772 <malloc+0xdf>
    476e: c5 19        	cmp	$19                     ; 0x2019 <main+0x1a87>
    4770: b0 23        	bcs	$4795 <malloc+0x102>
    4772: a5 14        	lda	$14                     ; 0x2014 <main+0x1a82>
    4774: 18           	clc
    4775: 69 02        	adc	#$2
    4777: 85 1a        	sta	$1a                     ; 0x201a <main+0x1a88>
    4779: a5 15        	lda	$15                     ; 0x2015 <main+0x1a83>
    477b: 69 00        	adc	#$0
    477d: 85 1b        	sta	$1b                     ; 0x201b <main+0x1a89>
    477f: a0 02        	ldy	#$2
    4781: b1 14        	lda	($14),y                 ; 0x2014 <main+0x1a82>
    4783: 85 14        	sta	$14                     ; 0x2014 <main+0x1a82>
    4785: 88           	dey
    4786: b1 1a        	lda	($1a),y                 ; 0x201a <main+0x1a88>
    4788: 85 15        	sta	$15                     ; 0x2015 <main+0x1a83>
    478a: c5 17        	cmp	$17                     ; 0x2017 <main+0x1a85>
    478c: d0 cc        	bne	$475a <malloc+0xc7>
    478e: a5 14        	lda	$14                     ; 0x2014 <main+0x1a82>
    4790: c5 16        	cmp	$16                     ; 0x2016 <main+0x1a84>
    4792: d0 c6        	bne	$475a <malloc+0xc7>
    4794: 60           	rts
    4795: a6 18        	ldx	$18                     ; 0x2018 <main+0x1a86>
    4797: 86 8e        	stx	$8e                     ; 0x208e <main+0x1afc>
    4799: a6 14        	ldx	$14                     ; 0x2014 <main+0x1a82>
    479b: 86 12        	stx	$12                     ; 0x2012 <main+0x1a80>
    479d: a6 15        	ldx	$15                     ; 0x2015 <main+0x1a83>
    479f: 86 13        	stx	$13                     ; 0x2013 <main+0x1a81>
    47a1: a6 14        	ldx	$14                     ; 0x2014 <main+0x1a82>
    47a3: 86 8b        	stx	$8b                     ; 0x208b <main+0x1af9>
    47a5: a6 15        	ldx	$15                     ; 0x2015 <main+0x1a83>
    47a7: 86 8c        	stx	$8c                     ; 0x208c <main+0x1afa>
    47a9: 20 7e 04     	jsr	$47e <_ZN12_GLOBAL__N_19FreeChunk6removeEv>
    47ac: a6 8b        	ldx	$8b                     ; 0x208b <main+0x1af9>
    47ae: 86 12        	stx	$12                     ; 0x2012 <main+0x1a80>
    47b0: a6 8c        	ldx	$8c                     ; 0x208c <main+0x1afa>
    47b2: 86 13        	stx	$13                     ; 0x2013 <main+0x1a81>
    47b4: a0 01        	ldy	#$1
    47b6: b1 12        	lda	($12),y                 ; 0x2012 <main+0x1a80>
    47b8: 85 15        	sta	$15                     ; 0x2015 <main+0x1a83>
    47ba: a9 fe        	lda	#$fe
    47bc: 32 12        	and	($12)                   ; 0x2012 <main+0x1a80>
    47be: 38           	sec
    47bf: a6 8a        	ldx	$8a                     ; 0x208a <main+0x1af8>
    47c1: 86 14        	stx	$14                     ; 0x2014 <main+0x1a82>
    47c3: 85 17        	sta	$17                     ; 0x2017 <main+0x1a85>
    47c5: e5 14        	sbc	$14                     ; 0x2014 <main+0x1a82>
    47c7: a8           	tay
    47c8: a6 89        	ldx	$89                     ; 0x2089 <main+0x1af7>
    47ca: 86 14        	stx	$14                     ; 0x2014 <main+0x1a82>
    47cc: a5 15        	lda	$15                     ; 0x2015 <main+0x1a83>
    47ce: 85 16        	sta	$16                     ; 0x2016 <main+0x1a84>
    47d0: e5 14        	sbc	$14                     ; 0x2014 <main+0x1a82>
    47d2: d0 06        	bne	$47da <malloc+0x147>
    47d4: 85 18        	sta	$18                     ; 0x2018 <main+0x1a86>
    47d6: c0 08        	cpy	#$8
    47d8: 80 04        	bra	$47de <malloc+0x14b>
    47da: 85 18        	sta	$18                     ; 0x2018 <main+0x1a86>
    47dc: c9 00        	cmp	#$0
    47de: a6 8e        	ldx	$8e                     ; 0x208e <main+0x1afc>
    47e0: 86 14        	stx	$14                     ; 0x2014 <main+0x1a82>
    47e2: a6 8d        	ldx	$8d                     ; 0x208d <main+0x1afb>
    47e4: 86 15        	stx	$15                     ; 0x2015 <main+0x1a83>
    47e6: a5 17        	lda	$17                     ; 0x2017 <main+0x1a85>
    47e8: 90 43        	bcc	$482d <malloc+0x19a>
    47ea: 18           	clc
    47eb: a6 8a        	ldx	$8a                     ; 0x208a <main+0x1af8>
    47ed: 86 8a        	stx	$8a                     ; 0x208a <main+0x1af8>
    47ef: 8a           	txa
    47f0: 65 12        	adc	$12                     ; 0x2012 <main+0x1a80>
    47f2: 85 12        	sta	$12                     ; 0x2012 <main+0x1a80>
    47f4: a6 89        	ldx	$89                     ; 0x2089 <main+0x1af7>
    47f6: 86 89        	stx	$89                     ; 0x2089 <main+0x1af7>
    47f8: a5 89        	lda	$89                     ; 0x2089 <main+0x1af7>
    47fa: 65 13        	adc	$13                     ; 0x2013 <main+0x1a81>
    47fc: 85 13        	sta	$13                     ; 0x2013 <main+0x1a81>
    47fe: a6 18        	ldx	$18                     ; 0x2018 <main+0x1a86>
    4800: 98           	tya
    4801: 20 4a 03     	jsr	$34a <_ZN12_GLOBAL__N_19FreeChunk6insertEPvj>
    4804: a6 8b        	ldx	$8b                     ; 0x208b <main+0x1af9>
    4806: 86 12        	stx	$12                     ; 0x2012 <main+0x1a80>
    4808: a6 8c        	ldx	$8c                     ; 0x208c <main+0x1afa>
    480a: 86 13        	stx	$13                     ; 0x2013 <main+0x1a81>
    480c: a5 8a        	lda	$8a                     ; 0x208a <main+0x1af8>
    480e: 29 fe        	and	#$fe
    4810: 85 14        	sta	$14                     ; 0x2014 <main+0x1a82>
    4812: a0 01        	ldy	#$1
    4814: 98           	tya
    4815: 32 12        	and	($12)                   ; 0x2012 <main+0x1a80>
    4817: 05 14        	ora	$14                     ; 0x2014 <main+0x1a82>
    4819: 92 12        	sta	($12)                   ; 0x2012 <main+0x1a80>
    481b: a5 89        	lda	$89                     ; 0x2089 <main+0x1af7>
    481d: 91 12        	sta	($12),y                 ; 0x2012 <main+0x1a80>
    481f: a5 14        	lda	$14                     ; 0x2014 <main+0x1a82>
    4821: a6 89        	ldx	$89                     ; 0x2089 <main+0x1af7>
    4823: 86 16        	stx	$16                     ; 0x2016 <main+0x1a84>
    4825: a6 8e        	ldx	$8e                     ; 0x208e <main+0x1afc>
    4827: 86 14        	stx	$14                     ; 0x2014 <main+0x1a82>
    4829: a6 8d        	ldx	$8d                     ; 0x208d <main+0x1afb>
    482b: 86 15        	stx	$15                     ; 0x2015 <main+0x1a83>
    482d: 18           	clc
    482e: 65 12        	adc	$12                     ; 0x2012 <main+0x1a80>
    4830: a8           	tay
    4831: a5 16        	lda	$16                     ; 0x2016 <main+0x1a84>
    4833: 65 13        	adc	$13                     ; 0x2013 <main+0x1a81>
    4835: c5 15        	cmp	$15                     ; 0x2015 <main+0x1a83>
    4837: d0 08        	bne	$4841 <malloc+0x1ae>
    4839: c4 14        	cpy	$14                     ; 0x2014 <main+0x1a82>
    483b: d0 04        	bne	$4841 <malloc+0x1ae>
    483d: 64 84        	stz	$84                     ; 0x2084 <main+0x1af2>
    483f: 80 14        	bra	$4855 <malloc+0x1c2>
    4841: 84 14        	sty	$14                     ; 0x2014 <main+0x1a82>
    4843: 85 15        	sta	$15                     ; 0x2015 <main+0x1a83>
    4845: a0 01        	ldy	#$1
    4847: b1 14        	lda	($14),y                 ; 0x2014 <main+0x1a82>
    4849: 85 16        	sta	$16                     ; 0x2016 <main+0x1a84>
    484b: a9 fe        	lda	#$fe
    484d: 32 14        	and	($14)                   ; 0x2014 <main+0x1a82>
    484f: 92 14        	sta	($14)                   ; 0x2014 <main+0x1a82>
    4851: a5 16        	lda	$16                     ; 0x2016 <main+0x1a84>
    4853: 91 14        	sta	($14),y                 ; 0x2014 <main+0x1a82>
    4855: a5 12        	lda	$12                     ; 0x2012 <main+0x1a80>
    4857: 18           	clc
    4858: 69 02        	adc	#$2
    485a: 85 12        	sta	$12                     ; 0x2012 <main+0x1a80>
    485c: a5 13        	lda	$13                     ; 0x2013 <main+0x1a81>
    485e: 69 00        	adc	#$0
    4860: 85 13        	sta	$13                     ; 0x2013 <main+0x1a81>
    4862: 60           	rts

00004863 <free>:
    4863: a6 12        	ldx	$12                     ; 0x2012 <main+0x1a80>
    4865: 86 14        	stx	$14                     ; 0x2014 <main+0x1a82>
    4867: a6 13        	ldx	$13                     ; 0x2013 <main+0x1a81>
    4869: 86 15        	stx	$15                     ; 0x2015 <main+0x1a83>
    486b: a2 00        	ldx	#$0
    486d: 86 12        	stx	$12                     ; 0x2012 <main+0x1a80>
    486f: a2 00        	ldx	#$0
    4871: 86 13        	stx	$13                     ; 0x2013 <main+0x1a81>
    4873: a6 15        	ldx	$15                     ; 0x2015 <main+0x1a83>
    4875: e4 13        	cpx	$13                     ; 0x2013 <main+0x1a81>
    4877: d0 09        	bne	$4882 <free+0x1f>
    4879: a6 14        	ldx	$14                     ; 0x2014 <main+0x1a82>
    487b: e4 12        	cpx	$12                     ; 0x2012 <main+0x1a80>
    487d: d0 03        	bne	$4882 <free+0x1f>
    487f: 4c e4 49     	jmp	$49e4 <free+0x181>
    4882: a2 00        	ldx	#$0
    4884: a0 10        	ldy	#$10
    4886: a9 96        	lda	#$96
    4888: 86 12        	stx	$12                     ; 0x2012 <main+0x1a80>
    488a: 84 13        	sty	$13                     ; 0x2013 <main+0x1a81>
    488c: 18           	clc
    488d: 65 12        	adc	$12                     ; 0x2012 <main+0x1a80>
    488f: 85 18        	sta	$18                     ; 0x2018 <main+0x1a86>
    4891: a9 68        	lda	#$68
    4893: 65 13        	adc	$13                     ; 0x2013 <main+0x1a81>
    4895: 85 19        	sta	$19                     ; 0x2019 <main+0x1a87>
    4897: a5 14        	lda	$14                     ; 0x2014 <main+0x1a82>
    4899: 18           	clc
    489a: 69 fe        	adc	#$fe
    489c: 85 12        	sta	$12                     ; 0x2012 <main+0x1a80>
    489e: a5 15        	lda	$15                     ; 0x2015 <main+0x1a83>
    48a0: 69 ff        	adc	#$ff
    48a2: a6 12        	ldx	$12                     ; 0x2012 <main+0x1a80>
    48a4: 86 89        	stx	$89                     ; 0x2089 <main+0x1af7>
    48a6: aa           	tax
    48a7: 85 8a        	sta	$8a                     ; 0x208a <main+0x1af8>
    48a9: b2 89        	lda	($89)                   ; 0x2089 <main+0x1af7>
    48ab: 85 1a        	sta	$1a                     ; 0x201a <main+0x1a88>
    48ad: a0 01        	ldy	#$1
    48af: b1 89        	lda	($89),y                 ; 0x2089 <main+0x1af7>
    48b1: 85 16        	sta	$16                     ; 0x2016 <main+0x1a84>
    48b3: a9 fe        	lda	#$fe
    48b5: 32 89        	and	($89)                   ; 0x2089 <main+0x1af7>
    48b7: 85 17        	sta	$17                     ; 0x2017 <main+0x1a85>
    48b9: a4 12        	ldy	$12                     ; 0x2012 <main+0x1a80>
    48bb: 84 1b        	sty	$1b                     ; 0x201b <main+0x1a89>
    48bd: a5 12        	lda	$12                     ; 0x2012 <main+0x1a80>
    48bf: 18           	clc
    48c0: 65 17        	adc	$17                     ; 0x2017 <main+0x1a85>
    48c2: 85 12        	sta	$12                     ; 0x2012 <main+0x1a80>
    48c4: 8a           	txa
    48c5: 86 1c        	stx	$1c                     ; 0x201c <main+0x1a8a>
    48c7: 65 16        	adc	$16                     ; 0x2016 <main+0x1a84>
    48c9: c5 19        	cmp	$19                     ; 0x2019 <main+0x1a87>
    48cb: d0 10        	bne	$48dd <free+0x7a>
    48cd: a6 12        	ldx	$12                     ; 0x2012 <main+0x1a80>
    48cf: e4 18        	cpx	$18                     ; 0x2018 <main+0x1a86>
    48d1: d0 0a        	bne	$48dd <free+0x7a>
    48d3: a2 00        	ldx	#$0
    48d5: 86 12        	stx	$12                     ; 0x2012 <main+0x1a80>
    48d7: a2 00        	ldx	#$0
    48d9: 86 13        	stx	$13                     ; 0x2013 <main+0x1a81>
    48db: 80 02        	bra	$48df <free+0x7c>
    48dd: 85 13        	sta	$13                     ; 0x2013 <main+0x1a81>
    48df: a5 1a        	lda	$1a                     ; 0x201a <main+0x1a88>
    48e1: 29 01        	and	#$1
    48e3: d0 03        	bne	$48e8 <free+0x85>
    48e5: 4c 63 49     	jmp	$4963 <free+0x100>
    48e8: a5 14        	lda	$14                     ; 0x2014 <main+0x1a82>
    48ea: 18           	clc
    48eb: 69 fc        	adc	#$fc
    48ed: 85 14        	sta	$14                     ; 0x2014 <main+0x1a82>
    48ef: a5 15        	lda	$15                     ; 0x2015 <main+0x1a83>
    48f1: 69 ff        	adc	#$ff
    48f3: 85 15        	sta	$15                     ; 0x2015 <main+0x1a83>
    48f5: a0 01        	ldy	#$1
    48f7: 38           	sec
    48f8: a9 00        	lda	#$0
    48fa: f2 14        	sbc	($14)                   ; 0x2014 <main+0x1a82>
    48fc: 85 1a        	sta	$1a                     ; 0x201a <main+0x1a88>
    48fe: a9 00        	lda	#$0
    4900: f1 14        	sbc	($14),y                 ; 0x2014 <main+0x1a82>
    4902: 85 14        	sta	$14                     ; 0x2014 <main+0x1a82>
    4904: a5 1b        	lda	$1b                     ; 0x201b <main+0x1a89>
    4906: 18           	clc
    4907: 65 1a        	adc	$1a                     ; 0x201a <main+0x1a88>
    4909: 85 89        	sta	$89                     ; 0x2089 <main+0x1af7>
    490b: a5 1c        	lda	$1c                     ; 0x201c <main+0x1a8a>
    490d: 65 14        	adc	$14                     ; 0x2014 <main+0x1a82>
    490f: 85 8a        	sta	$8a                     ; 0x208a <main+0x1af8>
    4911: b1 89        	lda	($89),y                 ; 0x2089 <main+0x1af7>
    4913: 85 91        	sta	$91                     ; 0x2091 <main+0x1aff>
    4915: a9 fe        	lda	#$fe
    4917: 32 89        	and	($89)                   ; 0x2089 <main+0x1af7>
    4919: 85 92        	sta	$92                     ; 0x2092 <main+0x1b00>
    491b: a6 12        	ldx	$12                     ; 0x2012 <main+0x1a80>
    491d: 86 8b        	stx	$8b                     ; 0x208b <main+0x1af9>
    491f: a6 13        	ldx	$13                     ; 0x2013 <main+0x1a81>
    4921: 86 8c        	stx	$8c                     ; 0x208c <main+0x1afa>
    4923: a6 89        	ldx	$89                     ; 0x2089 <main+0x1af7>
    4925: 86 12        	stx	$12                     ; 0x2012 <main+0x1a80>
    4927: a6 8a        	ldx	$8a                     ; 0x208a <main+0x1af8>
    4929: 86 13        	stx	$13                     ; 0x2013 <main+0x1a81>
    492b: a6 16        	ldx	$16                     ; 0x2016 <main+0x1a84>
    492d: 86 8d        	stx	$8d                     ; 0x208d <main+0x1afb>
    492f: a6 17        	ldx	$17                     ; 0x2017 <main+0x1a85>
    4931: 86 8e        	stx	$8e                     ; 0x208e <main+0x1afc>
    4933: a6 18        	ldx	$18                     ; 0x2018 <main+0x1a86>
    4935: 86 8f        	stx	$8f                     ; 0x208f <main+0x1afd>
    4937: a6 19        	ldx	$19                     ; 0x2019 <main+0x1a87>
    4939: 86 90        	stx	$90                     ; 0x2090 <main+0x1afe>
    493b: 20 7e 04     	jsr	$47e <_ZN12_GLOBAL__N_19FreeChunk6removeEv>
    493e: a6 90        	ldx	$90                     ; 0x2090 <main+0x1afe>
    4940: 86 19        	stx	$19                     ; 0x2019 <main+0x1a87>
    4942: a6 8f        	ldx	$8f                     ; 0x208f <main+0x1afd>
    4944: 86 18        	stx	$18                     ; 0x2018 <main+0x1a86>
    4946: a6 8b        	ldx	$8b                     ; 0x208b <main+0x1af9>
    4948: 86 12        	stx	$12                     ; 0x2012 <main+0x1a80>
    494a: a6 8c        	ldx	$8c                     ; 0x208c <main+0x1afa>
    494c: 86 13        	stx	$13                     ; 0x2013 <main+0x1a81>
    494e: 18           	clc
    494f: a5 92        	lda	$92                     ; 0x2092 <main+0x1b00>
    4951: a6 8e        	ldx	$8e                     ; 0x208e <main+0x1afc>
    4953: 86 14        	stx	$14                     ; 0x2014 <main+0x1a82>
    4955: 65 14        	adc	$14                     ; 0x2014 <main+0x1a82>
    4957: 85 17        	sta	$17                     ; 0x2017 <main+0x1a85>
    4959: a5 91        	lda	$91                     ; 0x2091 <main+0x1aff>
    495b: a6 8d        	ldx	$8d                     ; 0x208d <main+0x1afb>
    495d: 86 14        	stx	$14                     ; 0x2014 <main+0x1a82>
    495f: 65 14        	adc	$14                     ; 0x2014 <main+0x1a82>
    4961: 85 16        	sta	$16                     ; 0x2016 <main+0x1a84>
    4963: a2 00        	ldx	#$0
    4965: 86 14        	stx	$14                     ; 0x2014 <main+0x1a82>
    4967: a2 00        	ldx	#$0
    4969: 86 15        	stx	$15                     ; 0x2015 <main+0x1a83>
    496b: a6 13        	ldx	$13                     ; 0x2013 <main+0x1a81>
    496d: e4 15        	cpx	$15                     ; 0x2015 <main+0x1a83>
    496f: d0 0d        	bne	$497e <free+0x11b>
    4971: a6 12        	ldx	$12                     ; 0x2012 <main+0x1a80>
    4973: e4 14        	cpx	$14                     ; 0x2014 <main+0x1a82>
    4975: d0 07        	bne	$497e <free+0x11b>
    4977: a2 01        	ldx	#$1
    4979: 86 84        	stx	$84                     ; 0x2084 <main+0x1af2>
    497b: 4c d5 49     	jmp	$49d5 <free+0x172>
    497e: a0 01        	ldy	#$1
    4980: b1 12        	lda	($12),y                 ; 0x2012 <main+0x1a80>
    4982: a8           	tay
    4983: a9 fe        	lda	#$fe
    4985: 32 12        	and	($12)                   ; 0x2012 <main+0x1a80>
    4987: 18           	clc
    4988: 85 8f        	sta	$8f                     ; 0x208f <main+0x1afd>
    498a: 65 12        	adc	$12                     ; 0x2012 <main+0x1a80>
    498c: 85 14        	sta	$14                     ; 0x2014 <main+0x1a82>
    498e: 98           	tya
    498f: 85 8b        	sta	$8b                     ; 0x208b <main+0x1af9>
    4991: 65 13        	adc	$13                     ; 0x2013 <main+0x1a81>
    4993: c5 19        	cmp	$19                     ; 0x2019 <main+0x1a87>
    4995: d0 0e        	bne	$49a5 <free+0x142>
    4997: a6 14        	ldx	$14                     ; 0x2014 <main+0x1a82>
    4999: e4 18        	cpx	$18                     ; 0x2018 <main+0x1a86>
    499b: d0 08        	bne	$49a5 <free+0x142>
    499d: a9 01        	lda	#$1
    499f: 64 14        	stz	$14                     ; 0x2014 <main+0x1a82>
    49a1: 25 84        	and	$84                     ; 0x2084 <main+0x1af2>
    49a3: 80 08        	bra	$49ad <free+0x14a>
    49a5: 85 15        	sta	$15                     ; 0x2015 <main+0x1a83>
    49a7: a9 01        	lda	#$1
    49a9: 32 14        	and	($14)                   ; 0x2014 <main+0x1a82>
    49ab: 64 14        	stz	$14                     ; 0x2014 <main+0x1a82>
    49ad: a6 14        	ldx	$14                     ; 0x2014 <main+0x1a82>
    49af: d0 03        	bne	$49b4 <free+0x151>
    49b1: aa           	tax
    49b2: f0 31        	beq	$49e5 <free+0x182>
    49b4: a6 16        	ldx	$16                     ; 0x2016 <main+0x1a84>
    49b6: 86 8d        	stx	$8d                     ; 0x208d <main+0x1afb>
    49b8: a6 17        	ldx	$17                     ; 0x2017 <main+0x1a85>
    49ba: 86 8e        	stx	$8e                     ; 0x208e <main+0x1afc>
    49bc: 20 7e 04     	jsr	$47e <_ZN12_GLOBAL__N_19FreeChunk6removeEv>
    49bf: 18           	clc
    49c0: a6 8f        	ldx	$8f                     ; 0x208f <main+0x1afd>
    49c2: 8a           	txa
    49c3: a6 8e        	ldx	$8e                     ; 0x208e <main+0x1afc>
    49c5: 86 12        	stx	$12                     ; 0x2012 <main+0x1a80>
    49c7: 65 12        	adc	$12                     ; 0x2012 <main+0x1a80>
    49c9: 85 17        	sta	$17                     ; 0x2017 <main+0x1a85>
    49cb: a5 8b        	lda	$8b                     ; 0x208b <main+0x1af9>
    49cd: a6 8d        	ldx	$8d                     ; 0x208d <main+0x1afb>
    49cf: 86 12        	stx	$12                     ; 0x2012 <main+0x1a80>
    49d1: 65 12        	adc	$12                     ; 0x2012 <main+0x1a80>
    49d3: 85 16        	sta	$16                     ; 0x2016 <main+0x1a84>
    49d5: a6 89        	ldx	$89                     ; 0x2089 <main+0x1af7>
    49d7: 86 12        	stx	$12                     ; 0x2012 <main+0x1a80>
    49d9: a6 8a        	ldx	$8a                     ; 0x208a <main+0x1af8>
    49db: 86 13        	stx	$13                     ; 0x2013 <main+0x1a81>
    49dd: a6 16        	ldx	$16                     ; 0x2016 <main+0x1a84>
    49df: a5 17        	lda	$17                     ; 0x2017 <main+0x1a85>
    49e1: 20 4a 03     	jsr	$34a <_ZN12_GLOBAL__N_19FreeChunk6insertEPvj>
    49e4: 60           	rts
    49e5: b2 12        	lda	($12)                   ; 0x2012 <main+0x1a80>
    49e7: 09 01        	ora	#$1
    49e9: 92 12        	sta	($12)                   ; 0x2012 <main+0x1a80>
    49eb: a0 01        	ldy	#$1
    49ed: a5 8b        	lda	$8b                     ; 0x208b <main+0x1af9>
    49ef: 91 12        	sta	($12),y                 ; 0x2012 <main+0x1a80>
    49f1: 80 e2        	bra	$49d5 <free+0x172>

000049f3 <memcpy>:
    49f3: a8           	tay
    49f4: 8a           	txa
    49f5: d0 03        	bne	$49fa <memcpy+0x7>
    49f7: 98           	tya
    49f8: f0 24        	beq	$4a1e <memcpy+0x2b>
    49fa: a5 12        	lda	$12                     ; 0x2012 <main+0x1a80>
    49fc: 85 16        	sta	$16                     ; 0x2016 <main+0x1a84>
    49fe: a5 13        	lda	$13                     ; 0x2013 <main+0x1a81>
    4a00: 85 17        	sta	$17                     ; 0x2017 <main+0x1a85>
    4a02: b2 14        	lda	($14)                   ; 0x2014 <main+0x1a82>
    4a04: 92 16        	sta	($16)                   ; 0x2016 <main+0x1a84>
    4a06: e6 16        	inc	$16                     ; 0x2016 <main+0x1a84>
    4a08: d0 02        	bne	$4a0c <memcpy+0x19>
    4a0a: e6 17        	inc	$17                     ; 0x2017 <main+0x1a85>
    4a0c: e6 14        	inc	$14                     ; 0x2014 <main+0x1a82>
    4a0e: d0 02        	bne	$4a12 <memcpy+0x1f>
    4a10: e6 15        	inc	$15                     ; 0x2015 <main+0x1a83>
    4a12: 88           	dey
    4a13: c0 ff        	cpy	#$ff
    4a15: d0 01        	bne	$4a18 <memcpy+0x25>
    4a17: ca           	dex
    4a18: 8a           	txa
    4a19: d0 e7        	bne	$4a02 <memcpy+0xf>
    4a1b: 98           	tya
    4a1c: d0 e4        	bne	$4a02 <memcpy+0xf>
    4a1e: 60           	rts

00004a1f <__memset>:
    4a1f: a4 14        	ldy	$14                     ; 0x2014 <main+0x1a82>
    4a21: d0 04        	bne	$4a27 <__memset+0x8>
    4a23: e0 00        	cpx	#$0
    4a25: f0 17        	beq	$4a3e <__memset+0x1f>
    4a27: 92 12        	sta	($12)                   ; 0x2012 <main+0x1a80>
    4a29: e6 12        	inc	$12                     ; 0x2012 <main+0x1a80>
    4a2b: d0 02        	bne	$4a2f <__memset+0x10>
    4a2d: e6 13        	inc	$13                     ; 0x2013 <main+0x1a81>
    4a2f: ca           	dex
    4a30: e0 ff        	cpx	#$ff
    4a32: d0 02        	bne	$4a36 <__memset+0x17>
    4a34: c6 14        	dec	$14                     ; 0x2014 <main+0x1a82>
    4a36: a4 14        	ldy	$14                     ; 0x2014 <main+0x1a82>
    4a38: d0 ed        	bne	$4a27 <__memset+0x8>
    4a3a: e0 00        	cpx	#$0
    4a3c: d0 e9        	bne	$4a27 <__memset+0x8>
    4a3e: 60           	rts

00004a3f <strlen>:
    4a3f: a9 0a        	lda	#$a
    4a41: a2 00        	ldx	#$0
    4a43: 60           	rts

00004a44 <strstr>:
    4a44: a6 12        	ldx	$12                     ; 0x2012 <main+0x1a80>
    4a46: 86 16        	stx	$16                     ; 0x2016 <main+0x1a84>
    4a48: a6 13        	ldx	$13                     ; 0x2013 <main+0x1a81>
    4a4a: 86 17        	stx	$17                     ; 0x2017 <main+0x1a85>
    4a4c: b2 12        	lda	($12)                   ; 0x2012 <main+0x1a80>
    4a4e: a2 00        	ldx	#$0
    4a50: 86 12        	stx	$12                     ; 0x2012 <main+0x1a80>
    4a52: a2 00        	ldx	#$0
    4a54: 86 13        	stx	$13                     ; 0x2013 <main+0x1a81>
    4a56: aa           	tax
    4a57: f0 4d        	beq	$4aa6 <strstr+0x62>
    4a59: b2 14        	lda	($14)                   ; 0x2014 <main+0x1a82>
    4a5b: a0 01        	ldy	#$1
    4a5d: a6 16        	ldx	$16                     ; 0x2016 <main+0x1a84>
    4a5f: 86 18        	stx	$18                     ; 0x2018 <main+0x1a86>
    4a61: a6 17        	ldx	$17                     ; 0x2017 <main+0x1a85>
    4a63: 86 19        	stx	$19                     ; 0x2019 <main+0x1a87>
    4a65: aa           	tax
    4a66: f0 48        	beq	$4ab0 <strstr+0x6c>
    4a68: a6 14        	ldx	$14                     ; 0x2014 <main+0x1a82>
    4a6a: 86 1a        	stx	$1a                     ; 0x201a <main+0x1a88>
    4a6c: a6 15        	ldx	$15                     ; 0x2015 <main+0x1a83>
    4a6e: 86 1b        	stx	$1b                     ; 0x201b <main+0x1a89>
    4a70: 85 1f        	sta	$1f                     ; 0x201f <main+0x1a8d>
    4a72: 85 1e        	sta	$1e                     ; 0x201e <main+0x1a8c>
    4a74: a6 18        	ldx	$18                     ; 0x2018 <main+0x1a86>
    4a76: 86 1c        	stx	$1c                     ; 0x201c <main+0x1a8a>
    4a78: a6 19        	ldx	$19                     ; 0x2019 <main+0x1a87>
    4a7a: 86 1d        	stx	$1d                     ; 0x201d <main+0x1a8b>
    4a7c: b2 1c        	lda	($1c)                   ; 0x201c <main+0x1a8a>
    4a7e: c5 1e        	cmp	$1e                     ; 0x201e <main+0x1a8c>
    4a80: d0 15        	bne	$4a97 <strstr+0x53>
    4a82: e6 1c        	inc	$1c                     ; 0x201c <main+0x1a8a>
    4a84: d0 02        	bne	$4a88 <strstr+0x44>
    4a86: e6 1d        	inc	$1d                     ; 0x201d <main+0x1a8b>
    4a88: b1 1a        	lda	($1a),y                 ; 0x201a <main+0x1a88>
    4a8a: e6 1a        	inc	$1a                     ; 0x201a <main+0x1a88>
    4a8c: d0 02        	bne	$4a90 <strstr+0x4c>
    4a8e: e6 1b        	inc	$1b                     ; 0x201b <main+0x1a89>
    4a90: 85 1e        	sta	$1e                     ; 0x201e <main+0x1a8c>
    4a92: aa           	tax
    4a93: d0 e7        	bne	$4a7c <strstr+0x38>
    4a95: 80 10        	bra	$4aa7 <strstr+0x63>
    4a97: b1 18        	lda	($18),y                 ; 0x2018 <main+0x1a86>
    4a99: aa           	tax
    4a9a: e6 18        	inc	$18                     ; 0x2018 <main+0x1a86>
    4a9c: d0 02        	bne	$4aa0 <strstr+0x5c>
    4a9e: e6 19        	inc	$19                     ; 0x2019 <main+0x1a87>
    4aa0: a5 1f        	lda	$1f                     ; 0x201f <main+0x1a8d>
    4aa2: e0 00        	cpx	#$0
    4aa4: d0 bf        	bne	$4a65 <strstr+0x21>
    4aa6: 60           	rts
    4aa7: a6 18        	ldx	$18                     ; 0x2018 <main+0x1a86>
    4aa9: 86 12        	stx	$12                     ; 0x2012 <main+0x1a80>
    4aab: a6 19        	ldx	$19                     ; 0x2019 <main+0x1a87>
    4aad: 86 13        	stx	$13                     ; 0x2013 <main+0x1a81>
    4aaf: 60           	rts
    4ab0: a6 16        	ldx	$16                     ; 0x2016 <main+0x1a84>
    4ab2: 86 12        	stx	$12                     ; 0x2012 <main+0x1a80>
    4ab4: a6 17        	ldx	$17                     ; 0x2017 <main+0x1a85>
    4ab6: 80 f5        	bra	$4aad <strstr+0x69>

00004ab8 <__ashldi3>:
    4ab8: 86 19        	stx	$19                     ; 0x2019 <main+0x1a87>
    4aba: a6 18        	ldx	$18                     ; 0x2018 <main+0x1a86>
    4abc: f0 16        	beq	$4ad4 <__ashldi3+0x1c>
    4abe: a6 18        	ldx	$18                     ; 0x2018 <main+0x1a86>
    4ac0: ca           	dex
    4ac1: 0a           	asl
    4ac2: 26 19        	rol	$19                     ; 0x2019 <main+0x1a87>
    4ac4: 26 12        	rol	$12                     ; 0x2012 <main+0x1a80>
    4ac6: 26 13        	rol	$13                     ; 0x2013 <main+0x1a81>
    4ac8: 26 14        	rol	$14                     ; 0x2014 <main+0x1a82>
    4aca: 26 15        	rol	$15                     ; 0x2015 <main+0x1a83>
    4acc: 26 16        	rol	$16                     ; 0x2016 <main+0x1a84>
    4ace: 26 17        	rol	$17                     ; 0x2017 <main+0x1a85>
    4ad0: e0 00        	cpx	#$0
    4ad2: d0 ec        	bne	$4ac0 <__ashldi3+0x8>
    4ad4: a6 19        	ldx	$19                     ; 0x2019 <main+0x1a87>
    4ad6: 60           	rts

00004ad7 <__lshrdi3>:
    4ad7: 86 19        	stx	$19                     ; 0x2019 <main+0x1a87>
    4ad9: a6 18        	ldx	$18                     ; 0x2018 <main+0x1a86>
    4adb: f0 16        	beq	$4af3 <__lshrdi3+0x1c>
    4add: a6 18        	ldx	$18                     ; 0x2018 <main+0x1a86>
    4adf: ca           	dex
    4ae0: 46 17        	lsr	$17                     ; 0x2017 <main+0x1a85>
    4ae2: 66 16        	ror	$16                     ; 0x2016 <main+0x1a84>
    4ae4: 66 15        	ror	$15                     ; 0x2015 <main+0x1a83>
    4ae6: 66 14        	ror	$14                     ; 0x2014 <main+0x1a82>
    4ae8: 66 13        	ror	$13                     ; 0x2013 <main+0x1a81>
    4aea: 66 12        	ror	$12                     ; 0x2012 <main+0x1a80>
    4aec: 66 19        	ror	$19                     ; 0x2019 <main+0x1a87>
    4aee: 6a           	ror
    4aef: e0 00        	cpx	#$0
    4af1: d0 ec        	bne	$4adf <__lshrdi3+0x8>
    4af3: a6 19        	ldx	$19                     ; 0x2019 <main+0x1a87>
    4af5: 60           	rts

00004af6 <__mulsi3>:
    4af6: a4 17        	ldy	$17                     ; 0x2017 <main+0x1a85>
    4af8: d0 0f        	bne	$4b09 <__mulsi3+0x13>
    4afa: a4 16        	ldy	$16                     ; 0x2016 <main+0x1a84>
    4afc: d0 0b        	bne	$4b09 <__mulsi3+0x13>
    4afe: a4 15        	ldy	$15                     ; 0x2015 <main+0x1a83>
    4b00: d0 07        	bne	$4b09 <__mulsi3+0x13>
    4b02: a4 14        	ldy	$14                     ; 0x2014 <main+0x1a82>
    4b04: d0 03        	bne	$4b09 <__mulsi3+0x13>
    4b06: 4c 5d 4b     	jmp	$4b5d <__mulsi3+0x67>
    4b09: 85 18        	sta	$18                     ; 0x2018 <main+0x1a86>
    4b0b: 86 19        	stx	$19                     ; 0x2019 <main+0x1a87>
    4b0d: a0 00        	ldy	#$0
    4b0f: a2 00        	ldx	#$0
    4b11: 64 1a        	stz	$1a                     ; 0x201a <main+0x1a88>
    4b13: 98           	tya
    4b14: 46 17        	lsr	$17                     ; 0x2017 <main+0x1a85>
    4b16: 66 16        	ror	$16                     ; 0x2016 <main+0x1a84>
    4b18: 66 15        	ror	$15                     ; 0x2015 <main+0x1a83>
    4b1a: 66 14        	ror	$14                     ; 0x2014 <main+0x1a82>
    4b1c: 90 15        	bcc	$4b33 <__mulsi3+0x3d>
    4b1e: 85 1b        	sta	$1b                     ; 0x201b <main+0x1a89>
    4b20: 98           	tya
    4b21: 18           	clc
    4b22: 65 18        	adc	$18                     ; 0x2018 <main+0x1a86>
    4b24: a8           	tay
    4b25: 8a           	txa
    4b26: 65 19        	adc	$19                     ; 0x2019 <main+0x1a87>
    4b28: aa           	tax
    4b29: a5 1a        	lda	$1a                     ; 0x201a <main+0x1a88>
    4b2b: 65 12        	adc	$12                     ; 0x2012 <main+0x1a80>
    4b2d: 85 1a        	sta	$1a                     ; 0x201a <main+0x1a88>
    4b2f: a5 1b        	lda	$1b                     ; 0x201b <main+0x1a89>
    4b31: 65 13        	adc	$13                     ; 0x2013 <main+0x1a81>
    4b33: 06 18        	asl	$18                     ; 0x2018 <main+0x1a86>
    4b35: 26 19        	rol	$19                     ; 0x2019 <main+0x1a87>
    4b37: 26 12        	rol	$12                     ; 0x2012 <main+0x1a80>
    4b39: 26 13        	rol	$13                     ; 0x2013 <main+0x1a81>
    4b3b: e6 17        	inc	$17                     ; 0x2017 <main+0x1a85>
    4b3d: c6 17        	dec	$17                     ; 0x2017 <main+0x1a85>
    4b3f: d0 d3        	bne	$4b14 <__mulsi3+0x1e>
    4b41: e6 16        	inc	$16                     ; 0x2016 <main+0x1a84>
    4b43: c6 16        	dec	$16                     ; 0x2016 <main+0x1a84>
    4b45: d0 cd        	bne	$4b14 <__mulsi3+0x1e>
    4b47: e6 15        	inc	$15                     ; 0x2015 <main+0x1a83>
    4b49: c6 15        	dec	$15                     ; 0x2015 <main+0x1a83>
    4b4b: d0 c7        	bne	$4b14 <__mulsi3+0x1e>
    4b4d: e6 14        	inc	$14                     ; 0x2014 <main+0x1a82>
    4b4f: c6 14        	dec	$14                     ; 0x2014 <main+0x1a82>
    4b51: d0 c1        	bne	$4b14 <__mulsi3+0x1e>
    4b53: 5a           	phy
    4b54: a4 1a        	ldy	$1a                     ; 0x201a <main+0x1a88>
    4b56: 84 12        	sty	$12                     ; 0x2012 <main+0x1a80>
    4b58: 7a           	ply
    4b59: 85 13        	sta	$13                     ; 0x2013 <main+0x1a81>
    4b5b: 98           	tya
    4b5c: 60           	rts
    4b5d: a0 00        	ldy	#$0
    4b5f: a2 00        	ldx	#$0
    4b61: 64 1a        	stz	$1a                     ; 0x201a <main+0x1a88>
    4b63: 98           	tya
    4b64: 80 ed        	bra	$4b53 <__mulsi3+0x5d>

00004b66 <__muldi3>:
    4b66: a4 1f        	ldy	$1f                     ; 0x201f <main+0x1a8d>
    4b68: d0 1f        	bne	$4b89 <__muldi3+0x23>
    4b6a: a4 1e        	ldy	$1e                     ; 0x201e <main+0x1a8c>
    4b6c: d0 1b        	bne	$4b89 <__muldi3+0x23>
    4b6e: a4 1d        	ldy	$1d                     ; 0x201d <main+0x1a8b>
    4b70: d0 17        	bne	$4b89 <__muldi3+0x23>
    4b72: a4 1c        	ldy	$1c                     ; 0x201c <main+0x1a8a>
    4b74: d0 13        	bne	$4b89 <__muldi3+0x23>
    4b76: a4 1b        	ldy	$1b                     ; 0x201b <main+0x1a89>
    4b78: d0 0f        	bne	$4b89 <__muldi3+0x23>
    4b7a: a4 1a        	ldy	$1a                     ; 0x201a <main+0x1a88>
    4b7c: d0 0b        	bne	$4b89 <__muldi3+0x23>
    4b7e: a4 19        	ldy	$19                     ; 0x2019 <main+0x1a87>
    4b80: d0 07        	bne	$4b89 <__muldi3+0x23>
    4b82: a4 18        	ldy	$18                     ; 0x2018 <main+0x1a86>
    4b84: d0 03        	bne	$4b89 <__muldi3+0x23>
    4b86: 4c 4d 4c     	jmp	$4c4d <__muldi3+0xe7>
    4b89: 85 22        	sta	$22                     ; 0x2022 <main+0x1a90>
    4b8b: 86 23        	stx	$23                     ; 0x2023 <main+0x1a91>
    4b8d: a0 00        	ldy	#$0
    4b8f: a2 00        	ldx	#$0
    4b91: 64 b0        	stz	$b0                     ; 0x20b0 <main+0x1b1e>
    4b93: 64 b1        	stz	$b1                     ; 0x20b1 <main+0x1b1f>
    4b95: 64 b2        	stz	$b2                     ; 0x20b2 <main+0x1b20>
    4b97: 64 b3        	stz	$b3                     ; 0x20b3 <main+0x1b21>
    4b99: 64 b4        	stz	$b4                     ; 0x20b4 <main+0x1b22>
    4b9b: 98           	tya
    4b9c: 46 1f        	lsr	$1f                     ; 0x201f <main+0x1a8d>
    4b9e: 66 1e        	ror	$1e                     ; 0x201e <main+0x1a8c>
    4ba0: 66 1d        	ror	$1d                     ; 0x201d <main+0x1a8b>
    4ba2: 66 1c        	ror	$1c                     ; 0x201c <main+0x1a8a>
    4ba4: 66 1b        	ror	$1b                     ; 0x201b <main+0x1a89>
    4ba6: 66 1a        	ror	$1a                     ; 0x201a <main+0x1a88>
    4ba8: 66 19        	ror	$19                     ; 0x2019 <main+0x1a87>
    4baa: 66 18        	ror	$18                     ; 0x2018 <main+0x1a86>
    4bac: 90 2d        	bcc	$4bdb <__muldi3+0x75>
    4bae: 85 b5        	sta	$b5                     ; 0x20b5 <main+0x1b23>
    4bb0: 98           	tya
    4bb1: 18           	clc
    4bb2: 65 22        	adc	$22                     ; 0x2022 <main+0x1a90>
    4bb4: a8           	tay
    4bb5: 8a           	txa
    4bb6: 65 23        	adc	$23                     ; 0x2023 <main+0x1a91>
    4bb8: aa           	tax
    4bb9: a5 b0        	lda	$b0                     ; 0x20b0 <main+0x1b1e>
    4bbb: 65 12        	adc	$12                     ; 0x2012 <main+0x1a80>
    4bbd: 85 b0        	sta	$b0                     ; 0x20b0 <main+0x1b1e>
    4bbf: a5 b1        	lda	$b1                     ; 0x20b1 <main+0x1b1f>
    4bc1: 65 13        	adc	$13                     ; 0x2013 <main+0x1a81>
    4bc3: 85 b1        	sta	$b1                     ; 0x20b1 <main+0x1b1f>
    4bc5: a5 b2        	lda	$b2                     ; 0x20b2 <main+0x1b20>
    4bc7: 65 14        	adc	$14                     ; 0x2014 <main+0x1a82>
    4bc9: 85 b2        	sta	$b2                     ; 0x20b2 <main+0x1b20>
    4bcb: a5 b3        	lda	$b3                     ; 0x20b3 <main+0x1b21>
    4bcd: 65 15        	adc	$15                     ; 0x2015 <main+0x1a83>
    4bcf: 85 b3        	sta	$b3                     ; 0x20b3 <main+0x1b21>
    4bd1: a5 b4        	lda	$b4                     ; 0x20b4 <main+0x1b22>
    4bd3: 65 16        	adc	$16                     ; 0x2016 <main+0x1a84>
    4bd5: 85 b4        	sta	$b4                     ; 0x20b4 <main+0x1b22>
    4bd7: a5 b5        	lda	$b5                     ; 0x20b5 <main+0x1b23>
    4bd9: 65 17        	adc	$17                     ; 0x2017 <main+0x1a85>
    4bdb: 06 22        	asl	$22                     ; 0x2022 <main+0x1a90>
    4bdd: 26 23        	rol	$23                     ; 0x2023 <main+0x1a91>
    4bdf: 26 12        	rol	$12                     ; 0x2012 <main+0x1a80>
    4be1: 26 13        	rol	$13                     ; 0x2013 <main+0x1a81>
    4be3: 26 14        	rol	$14                     ; 0x2014 <main+0x1a82>
    4be5: 26 15        	rol	$15                     ; 0x2015 <main+0x1a83>
    4be7: 26 16        	rol	$16                     ; 0x2016 <main+0x1a84>
    4be9: 26 17        	rol	$17                     ; 0x2017 <main+0x1a85>
    4beb: e6 1f        	inc	$1f                     ; 0x201f <main+0x1a8d>
    4bed: c6 1f        	dec	$1f                     ; 0x201f <main+0x1a8d>
    4bef: f0 03        	beq	$4bf4 <__muldi3+0x8e>
    4bf1: 4c 9c 4b     	jmp	$4b9c <__muldi3+0x36>
    4bf4: e6 1e        	inc	$1e                     ; 0x201e <main+0x1a8c>
    4bf6: c6 1e        	dec	$1e                     ; 0x201e <main+0x1a8c>
    4bf8: f0 03        	beq	$4bfd <__muldi3+0x97>
    4bfa: 4c 9c 4b     	jmp	$4b9c <__muldi3+0x36>
    4bfd: e6 1d        	inc	$1d                     ; 0x201d <main+0x1a8b>
    4bff: c6 1d        	dec	$1d                     ; 0x201d <main+0x1a8b>
    4c01: f0 03        	beq	$4c06 <__muldi3+0xa0>
    4c03: 4c 9c 4b     	jmp	$4b9c <__muldi3+0x36>
    4c06: e6 1c        	inc	$1c                     ; 0x201c <main+0x1a8a>
    4c08: c6 1c        	dec	$1c                     ; 0x201c <main+0x1a8a>
    4c0a: f0 03        	beq	$4c0f <__muldi3+0xa9>
    4c0c: 4c 9c 4b     	jmp	$4b9c <__muldi3+0x36>
    4c0f: e6 1b        	inc	$1b                     ; 0x201b <main+0x1a89>
    4c11: c6 1b        	dec	$1b                     ; 0x201b <main+0x1a89>
    4c13: f0 03        	beq	$4c18 <__muldi3+0xb2>
    4c15: 4c 9c 4b     	jmp	$4b9c <__muldi3+0x36>
    4c18: e6 1a        	inc	$1a                     ; 0x201a <main+0x1a88>
    4c1a: c6 1a        	dec	$1a                     ; 0x201a <main+0x1a88>
    4c1c: f0 03        	beq	$4c21 <__muldi3+0xbb>
    4c1e: 4c 9c 4b     	jmp	$4b9c <__muldi3+0x36>
    4c21: e6 19        	inc	$19                     ; 0x2019 <main+0x1a87>
    4c23: c6 19        	dec	$19                     ; 0x2019 <main+0x1a87>
    4c25: f0 03        	beq	$4c2a <__muldi3+0xc4>
    4c27: 4c 9c 4b     	jmp	$4b9c <__muldi3+0x36>
    4c2a: e6 18        	inc	$18                     ; 0x2018 <main+0x1a86>
    4c2c: c6 18        	dec	$18                     ; 0x2018 <main+0x1a86>
    4c2e: f0 03        	beq	$4c33 <__muldi3+0xcd>
    4c30: 4c 9c 4b     	jmp	$4b9c <__muldi3+0x36>
    4c33: 5a           	phy
    4c34: a4 b0        	ldy	$b0                     ; 0x20b0 <main+0x1b1e>
    4c36: 84 12        	sty	$12                     ; 0x2012 <main+0x1a80>
    4c38: a4 b1        	ldy	$b1                     ; 0x20b1 <main+0x1b1f>
    4c3a: 84 13        	sty	$13                     ; 0x2013 <main+0x1a81>
    4c3c: a4 b2        	ldy	$b2                     ; 0x20b2 <main+0x1b20>
    4c3e: 84 14        	sty	$14                     ; 0x2014 <main+0x1a82>
    4c40: a4 b3        	ldy	$b3                     ; 0x20b3 <main+0x1b21>
    4c42: 84 15        	sty	$15                     ; 0x2015 <main+0x1a83>
    4c44: a4 b4        	ldy	$b4                     ; 0x20b4 <main+0x1b22>
    4c46: 84 16        	sty	$16                     ; 0x2016 <main+0x1a84>
    4c48: 7a           	ply
    4c49: 85 17        	sta	$17                     ; 0x2017 <main+0x1a85>
    4c4b: 98           	tya
    4c4c: 60           	rts
    4c4d: a0 00        	ldy	#$0
    4c4f: a2 00        	ldx	#$0
    4c51: 64 b0        	stz	$b0                     ; 0x20b0 <main+0x1b1e>
    4c53: 64 b1        	stz	$b1                     ; 0x20b1 <main+0x1b1f>
    4c55: 64 b2        	stz	$b2                     ; 0x20b2 <main+0x1b20>
    4c57: 64 b3        	stz	$b3                     ; 0x20b3 <main+0x1b21>
    4c59: 64 b4        	stz	$b4                     ; 0x20b4 <main+0x1b22>
    4c5b: 98           	tya
    4c5c: 80 d5        	bra	$4c33 <__muldi3+0xcd>

00004c5e <__udivsi3>:
    4c5e: 64 18        	stz	$18                     ; 0x2018 <main+0x1a86>
    4c60: a4 17        	ldy	$17                     ; 0x2017 <main+0x1a85>
    4c62: d0 0c        	bne	$4c70 <__udivsi3+0x12>
    4c64: a4 16        	ldy	$16                     ; 0x2016 <main+0x1a84>
    4c66: d0 08        	bne	$4c70 <__udivsi3+0x12>
    4c68: a4 15        	ldy	$15                     ; 0x2015 <main+0x1a83>
    4c6a: d0 04        	bne	$4c70 <__udivsi3+0x12>
    4c6c: a4 14        	ldy	$14                     ; 0x2014 <main+0x1a82>
    4c6e: f0 27        	beq	$4c97 <__udivsi3+0x39>
    4c70: 86 1e        	stx	$1e                     ; 0x201e <main+0x1a8c>
    4c72: a6 12        	ldx	$12                     ; 0x2012 <main+0x1a80>
    4c74: 86 1f        	stx	$1f                     ; 0x201f <main+0x1a8d>
    4c76: a6 13        	ldx	$13                     ; 0x2013 <main+0x1a81>
    4c78: 86 22        	stx	$22                     ; 0x2022 <main+0x1a90>
    4c7a: e4 17        	cpx	$17                     ; 0x2017 <main+0x1a85>
    4c7c: d0 15        	bne	$4c93 <__udivsi3+0x35>
    4c7e: a6 12        	ldx	$12                     ; 0x2012 <main+0x1a80>
    4c80: e4 16        	cpx	$16                     ; 0x2016 <main+0x1a84>
    4c82: d0 1a        	bne	$4c9e <__udivsi3+0x40>
    4c84: a6 1e        	ldx	$1e                     ; 0x201e <main+0x1a8c>
    4c86: e4 15        	cpx	$15                     ; 0x2015 <main+0x1a83>
    4c88: f0 03        	beq	$4c8d <__udivsi3+0x2f>
    4c8a: 4c c3 4d     	jmp	$4dc3 <__udivsi3+0x165>
    4c8d: c5 14        	cmp	$14                     ; 0x2014 <main+0x1a82>
    4c8f: 90 06        	bcc	$4c97 <__udivsi3+0x39>
    4c91: 80 0f        	bra	$4ca2 <__udivsi3+0x44>
    4c93: e4 17        	cpx	$17                     ; 0x2017 <main+0x1a85>
    4c95: b0 0b        	bcs	$4ca2 <__udivsi3+0x44>
    4c97: a2 00        	ldx	#$0
    4c99: 86 89        	stx	$89                     ; 0x2089 <main+0x1af7>
    4c9b: 4c 08 4d     	jmp	$4d08 <__udivsi3+0xaa>
    4c9e: e4 16        	cpx	$16                     ; 0x2016 <main+0x1a84>
    4ca0: 90 f5        	bcc	$4c97 <__udivsi3+0x39>
    4ca2: a2 01        	ldx	#$1
    4ca4: 86 89        	stx	$89                     ; 0x2089 <main+0x1af7>
    4ca6: a6 17        	ldx	$17                     ; 0x2017 <main+0x1a85>
    4ca8: 10 03        	bpl	$4cad <__udivsi3+0x4f>
    4caa: 4c 08 4d     	jmp	$4d08 <__udivsi3+0xaa>
    4cad: 85 1d        	sta	$1d                     ; 0x201d <main+0x1a8b>
    4caf: a5 1e        	lda	$1e                     ; 0x201e <main+0x1a8c>
    4cb1: a2 00        	ldx	#$0
    4cb3: a4 14        	ldy	$14                     ; 0x2014 <main+0x1a82>
    4cb5: 84 19        	sty	$19                     ; 0x2019 <main+0x1a87>
    4cb7: a4 15        	ldy	$15                     ; 0x2015 <main+0x1a83>
    4cb9: 84 1a        	sty	$1a                     ; 0x201a <main+0x1a88>
    4cbb: a4 16        	ldy	$16                     ; 0x2016 <main+0x1a84>
    4cbd: 84 1b        	sty	$1b                     ; 0x201b <main+0x1a89>
    4cbf: a4 17        	ldy	$17                     ; 0x2017 <main+0x1a85>
    4cc1: 84 1c        	sty	$1c                     ; 0x201c <main+0x1a8a>
    4cc3: 06 19        	asl	$19                     ; 0x2019 <main+0x1a87>
    4cc5: 26 1a        	rol	$1a                     ; 0x201a <main+0x1a88>
    4cc7: 26 1b        	rol	$1b                     ; 0x201b <main+0x1a89>
    4cc9: 26 1c        	rol	$1c                     ; 0x201c <main+0x1a8a>
    4ccb: a4 22        	ldy	$22                     ; 0x2022 <main+0x1a90>
    4ccd: c4 1c        	cpy	$1c                     ; 0x201c <main+0x1a8a>
    4ccf: d0 12        	bne	$4ce3 <__udivsi3+0x85>
    4cd1: a4 12        	ldy	$12                     ; 0x2012 <main+0x1a80>
    4cd3: c4 1b        	cpy	$1b                     ; 0x201b <main+0x1a89>
    4cd5: d0 12        	bne	$4ce9 <__udivsi3+0x8b>
    4cd7: c5 1a        	cmp	$1a                     ; 0x201a <main+0x1a88>
    4cd9: d0 14        	bne	$4cef <__udivsi3+0x91>
    4cdb: a4 1d        	ldy	$1d                     ; 0x201d <main+0x1a8b>
    4cdd: c4 19        	cpy	$19                     ; 0x2019 <main+0x1a87>
    4cdf: 90 30        	bcc	$4d11 <__udivsi3+0xb3>
    4ce1: 80 10        	bra	$4cf3 <__udivsi3+0x95>
    4ce3: c4 1c        	cpy	$1c                     ; 0x201c <main+0x1a8a>
    4ce5: 90 2a        	bcc	$4d11 <__udivsi3+0xb3>
    4ce7: 80 0a        	bra	$4cf3 <__udivsi3+0x95>
    4ce9: c4 1b        	cpy	$1b                     ; 0x201b <main+0x1a89>
    4ceb: 90 24        	bcc	$4d11 <__udivsi3+0xb3>
    4ced: 80 04        	bra	$4cf3 <__udivsi3+0x95>
    4cef: c5 1a        	cmp	$1a                     ; 0x201a <main+0x1a88>
    4cf1: 90 1e        	bcc	$4d11 <__udivsi3+0xb3>
    4cf3: e8           	inx
    4cf4: a4 19        	ldy	$19                     ; 0x2019 <main+0x1a87>
    4cf6: 84 14        	sty	$14                     ; 0x2014 <main+0x1a82>
    4cf8: a4 1a        	ldy	$1a                     ; 0x201a <main+0x1a88>
    4cfa: 84 15        	sty	$15                     ; 0x2015 <main+0x1a83>
    4cfc: a4 1b        	ldy	$1b                     ; 0x201b <main+0x1a89>
    4cfe: 84 16        	sty	$16                     ; 0x2016 <main+0x1a84>
    4d00: a4 1c        	ldy	$1c                     ; 0x201c <main+0x1a8a>
    4d02: 84 17        	sty	$17                     ; 0x2017 <main+0x1a85>
    4d04: 10 bd        	bpl	$4cc3 <__udivsi3+0x65>
    4d06: 80 19        	bra	$4d21 <__udivsi3+0xc3>
    4d08: 64 12        	stz	$12                     ; 0x2012 <main+0x1a80>
    4d0a: 64 13        	stz	$13                     ; 0x2013 <main+0x1a81>
    4d0c: a6 18        	ldx	$18                     ; 0x2018 <main+0x1a86>
    4d0e: a5 89        	lda	$89                     ; 0x2089 <main+0x1af7>
    4d10: 60           	rts
    4d11: a4 14        	ldy	$14                     ; 0x2014 <main+0x1a82>
    4d13: 84 19        	sty	$19                     ; 0x2019 <main+0x1a87>
    4d15: a4 15        	ldy	$15                     ; 0x2015 <main+0x1a83>
    4d17: 84 1a        	sty	$1a                     ; 0x201a <main+0x1a88>
    4d19: a4 16        	ldy	$16                     ; 0x2016 <main+0x1a84>
    4d1b: 84 1b        	sty	$1b                     ; 0x201b <main+0x1a89>
    4d1d: a4 17        	ldy	$17                     ; 0x2017 <main+0x1a85>
    4d1f: 84 1c        	sty	$1c                     ; 0x201c <main+0x1a8a>
    4d21: 64 12        	stz	$12                     ; 0x2012 <main+0x1a80>
    4d23: 64 13        	stz	$13                     ; 0x2013 <main+0x1a81>
    4d25: 8a           	txa
    4d26: f0 e4        	beq	$4d0c <__udivsi3+0xae>
    4d28: 38           	sec
    4d29: a5 1d        	lda	$1d                     ; 0x201d <main+0x1a8b>
    4d2b: e5 19        	sbc	$19                     ; 0x2019 <main+0x1a87>
    4d2d: 85 14        	sta	$14                     ; 0x2014 <main+0x1a82>
    4d2f: a5 1e        	lda	$1e                     ; 0x201e <main+0x1a8c>
    4d31: e5 1a        	sbc	$1a                     ; 0x201a <main+0x1a88>
    4d33: 85 17        	sta	$17                     ; 0x2017 <main+0x1a85>
    4d35: a5 1f        	lda	$1f                     ; 0x201f <main+0x1a8d>
    4d37: e5 1b        	sbc	$1b                     ; 0x201b <main+0x1a89>
    4d39: 85 15        	sta	$15                     ; 0x2015 <main+0x1a83>
    4d3b: a5 22        	lda	$22                     ; 0x2022 <main+0x1a90>
    4d3d: e5 1c        	sbc	$1c                     ; 0x201c <main+0x1a8a>
    4d3f: a0 01        	ldy	#$1
    4d41: 84 89        	sty	$89                     ; 0x2089 <main+0x1af7>
    4d43: 64 18        	stz	$18                     ; 0x2018 <main+0x1a86>
    4d45: 46 1c        	lsr	$1c                     ; 0x201c <main+0x1a8a>
    4d47: 66 1b        	ror	$1b                     ; 0x201b <main+0x1a89>
    4d49: 66 1a        	ror	$1a                     ; 0x201a <main+0x1a88>
    4d4b: 66 19        	ror	$19                     ; 0x2019 <main+0x1a87>
    4d4d: a4 89        	ldy	$89                     ; 0x2089 <main+0x1af7>
    4d4f: 84 16        	sty	$16                     ; 0x2016 <main+0x1a84>
    4d51: 06 16        	asl	$16                     ; 0x2016 <main+0x1a84>
    4d53: a0 01        	ldy	#$1
    4d55: b0 02        	bcs	$4d59 <__udivsi3+0xfb>
    4d57: a0 00        	ldy	#$0
    4d59: 84 1d        	sty	$1d                     ; 0x201d <main+0x1a8b>
    4d5b: a4 16        	ldy	$16                     ; 0x2016 <main+0x1a84>
    4d5d: 84 89        	sty	$89                     ; 0x2089 <main+0x1af7>
    4d5f: c5 1c        	cmp	$1c                     ; 0x201c <main+0x1a8a>
    4d61: d0 16        	bne	$4d79 <__udivsi3+0x11b>
    4d63: 85 16        	sta	$16                     ; 0x2016 <main+0x1a84>
    4d65: a4 15        	ldy	$15                     ; 0x2015 <main+0x1a83>
    4d67: a5 17        	lda	$17                     ; 0x2017 <main+0x1a85>
    4d69: c4 1b        	cpy	$1b                     ; 0x201b <main+0x1a89>
    4d6b: d0 4a        	bne	$4db7 <__udivsi3+0x159>
    4d6d: c5 1a        	cmp	$1a                     ; 0x201a <main+0x1a88>
    4d6f: d0 4c        	bne	$4dbd <__udivsi3+0x15f>
    4d71: a4 14        	ldy	$14                     ; 0x2014 <main+0x1a82>
    4d73: c4 19        	cpy	$19                     ; 0x2019 <main+0x1a87>
    4d75: b0 0a        	bcs	$4d81 <__udivsi3+0x123>
    4d77: 80 27        	bra	$4da0 <__udivsi3+0x142>
    4d79: 85 16        	sta	$16                     ; 0x2016 <main+0x1a84>
    4d7b: c5 1c        	cmp	$1c                     ; 0x201c <main+0x1a8a>
    4d7d: a5 17        	lda	$17                     ; 0x2017 <main+0x1a85>
    4d7f: 90 1f        	bcc	$4da0 <__udivsi3+0x142>
    4d81: a8           	tay
    4d82: 38           	sec
    4d83: a5 14        	lda	$14                     ; 0x2014 <main+0x1a82>
    4d85: e5 19        	sbc	$19                     ; 0x2019 <main+0x1a87>
    4d87: 85 14        	sta	$14                     ; 0x2014 <main+0x1a82>
    4d89: 98           	tya
    4d8a: e5 1a        	sbc	$1a                     ; 0x201a <main+0x1a88>
    4d8c: 85 17        	sta	$17                     ; 0x2017 <main+0x1a85>
    4d8e: a5 15        	lda	$15                     ; 0x2015 <main+0x1a83>
    4d90: e5 1b        	sbc	$1b                     ; 0x201b <main+0x1a89>
    4d92: 85 15        	sta	$15                     ; 0x2015 <main+0x1a83>
    4d94: a5 16        	lda	$16                     ; 0x2016 <main+0x1a84>
    4d96: e5 1c        	sbc	$1c                     ; 0x201c <main+0x1a8a>
    4d98: 85 16        	sta	$16                     ; 0x2016 <main+0x1a84>
    4d9a: a5 89        	lda	$89                     ; 0x2089 <main+0x1af7>
    4d9c: 09 01        	ora	#$1
    4d9e: 85 89        	sta	$89                     ; 0x2089 <main+0x1af7>
    4da0: a4 1d        	ldy	$1d                     ; 0x201d <main+0x1a8b>
    4da2: c0 01        	cpy	#$1
    4da4: 26 18        	rol	$18                     ; 0x2018 <main+0x1a86>
    4da6: 26 12        	rol	$12                     ; 0x2012 <main+0x1a80>
    4da8: 26 13        	rol	$13                     ; 0x2013 <main+0x1a81>
    4daa: ca           	dex
    4dab: a5 16        	lda	$16                     ; 0x2016 <main+0x1a84>
    4dad: e0 00        	cpx	#$0
    4daf: f0 03        	beq	$4db4 <__udivsi3+0x156>
    4db1: 4c 45 4d     	jmp	$4d45 <__udivsi3+0xe7>
    4db4: 4c 0c 4d     	jmp	$4d0c <__udivsi3+0xae>
    4db7: c4 1b        	cpy	$1b                     ; 0x201b <main+0x1a89>
    4db9: b0 c6        	bcs	$4d81 <__udivsi3+0x123>
    4dbb: 80 e3        	bra	$4da0 <__udivsi3+0x142>
    4dbd: c5 1a        	cmp	$1a                     ; 0x201a <main+0x1a88>
    4dbf: b0 c0        	bcs	$4d81 <__udivsi3+0x123>
    4dc1: 80 dd        	bra	$4da0 <__udivsi3+0x142>
    4dc3: e4 15        	cpx	$15                     ; 0x2015 <main+0x1a83>
    4dc5: b0 03        	bcs	$4dca <__udivsi3+0x16c>
    4dc7: 4c 97 4c     	jmp	$4c97 <__udivsi3+0x39>
    4dca: 4c a2 4c     	jmp	$4ca2 <__udivsi3+0x44>

00004dcd <__muldf3>:
    4dcd: a8           	tay
    4dce: 86 22        	stx	$22                     ; 0x2022 <main+0x1a90>
    4dd0: a6 12        	ldx	$12                     ; 0x2012 <main+0x1a80>
    4dd2: 86 89        	stx	$89                     ; 0x2089 <main+0x1af7>
    4dd4: a6 13        	ldx	$13                     ; 0x2013 <main+0x1a81>
    4dd6: 86 8a        	stx	$8a                     ; 0x208a <main+0x1af8>
    4dd8: a6 14        	ldx	$14                     ; 0x2014 <main+0x1a82>
    4dda: 86 95        	stx	$95                     ; 0x2095 <main+0x1b03>
    4ddc: a6 15        	ldx	$15                     ; 0x2015 <main+0x1a83>
    4dde: 86 8c        	stx	$8c                     ; 0x208c <main+0x1afa>
    4de0: a6 17        	ldx	$17                     ; 0x2017 <main+0x1a85>
    4de2: 86 14        	stx	$14                     ; 0x2014 <main+0x1a82>
    4de4: a6 18        	ldx	$18                     ; 0x2018 <main+0x1a86>
    4de6: 86 97        	stx	$97                     ; 0x2097 <main+0x1b05>
    4de8: a6 19        	ldx	$19                     ; 0x2019 <main+0x1a87>
    4dea: 86 92        	stx	$92                     ; 0x2092 <main+0x1b00>
    4dec: a6 1a        	ldx	$1a                     ; 0x201a <main+0x1a88>
    4dee: 86 93        	stx	$93                     ; 0x2093 <main+0x1b01>
    4df0: a6 1b        	ldx	$1b                     ; 0x201b <main+0x1a89>
    4df2: 86 8e        	stx	$8e                     ; 0x208e <main+0x1afc>
    4df4: a6 1c        	ldx	$1c                     ; 0x201c <main+0x1a8a>
    4df6: 86 8f        	stx	$8f                     ; 0x208f <main+0x1afd>
    4df8: a6 1d        	ldx	$1d                     ; 0x201d <main+0x1a8b>
    4dfa: 86 90        	stx	$90                     ; 0x2090 <main+0x1afe>
    4dfc: a5 17        	lda	$17                     ; 0x2017 <main+0x1a85>
    4dfe: 4a           	lsr
    4dff: a6 16        	ldx	$16                     ; 0x2016 <main+0x1a84>
    4e01: 86 13        	stx	$13                     ; 0x2013 <main+0x1a81>
    4e03: 66 13        	ror	$13                     ; 0x2013 <main+0x1a81>
    4e05: 4a           	lsr
    4e06: 66 13        	ror	$13                     ; 0x2013 <main+0x1a81>
    4e08: 4a           	lsr
    4e09: 66 13        	ror	$13                     ; 0x2013 <main+0x1a81>
    4e0b: 4a           	lsr
    4e0c: 66 13        	ror	$13                     ; 0x2013 <main+0x1a81>
    4e0e: a6 1e        	ldx	$1e                     ; 0x201e <main+0x1a8c>
    4e10: 86 12        	stx	$12                     ; 0x2012 <main+0x1a80>
    4e12: a6 1f        	ldx	$1f                     ; 0x201f <main+0x1a8d>
    4e14: 86 17        	stx	$17                     ; 0x2017 <main+0x1a85>
    4e16: 46 17        	lsr	$17                     ; 0x2017 <main+0x1a85>
    4e18: 66 12        	ror	$12                     ; 0x2012 <main+0x1a80>
    4e1a: 46 17        	lsr	$17                     ; 0x2017 <main+0x1a85>
    4e1c: 66 12        	ror	$12                     ; 0x2012 <main+0x1a80>
    4e1e: 46 17        	lsr	$17                     ; 0x2017 <main+0x1a85>
    4e20: 66 12        	ror	$12                     ; 0x2012 <main+0x1a80>
    4e22: 46 17        	lsr	$17                     ; 0x2017 <main+0x1a85>
    4e24: 66 12        	ror	$12                     ; 0x2012 <main+0x1a80>
    4e26: 29 07        	and	#$7
    4e28: 85 15        	sta	$15                     ; 0x2015 <main+0x1a83>
    4e2a: 18           	clc
    4e2b: a6 13        	ldx	$13                     ; 0x2013 <main+0x1a81>
    4e2d: 86 9a        	stx	$9a                     ; 0x209a <main+0x1b08>
    4e2f: a5 13        	lda	$13                     ; 0x2013 <main+0x1a81>
    4e31: 69 01        	adc	#$1
    4e33: 85 18        	sta	$18                     ; 0x2018 <main+0x1a86>
    4e35: a6 15        	ldx	$15                     ; 0x2015 <main+0x1a83>
    4e37: 86 9b        	stx	$9b                     ; 0x209b <main+0x1b09>
    4e39: a5 15        	lda	$15                     ; 0x2015 <main+0x1a83>
    4e3b: 69 f8        	adc	#$f8
    4e3d: 85 19        	sta	$19                     ; 0x2019 <main+0x1a87>
    4e3f: a5 17        	lda	$17                     ; 0x2017 <main+0x1a85>
    4e41: 29 07        	and	#$7
    4e43: 85 15        	sta	$15                     ; 0x2015 <main+0x1a83>
    4e45: 85 13        	sta	$13                     ; 0x2013 <main+0x1a81>
    4e47: a5 1f        	lda	$1f                     ; 0x201f <main+0x1a8d>
    4e49: 45 14        	eor	$14                     ; 0x2014 <main+0x1a82>
    4e4b: 29 80        	and	#$80
    4e4d: 85 99        	sta	$99                     ; 0x2099 <main+0x1b07>
    4e4f: a6 16        	ldx	$16                     ; 0x2016 <main+0x1a84>
    4e51: 86 1b        	stx	$1b                     ; 0x201b <main+0x1a89>
    4e53: a5 16        	lda	$16                     ; 0x2016 <main+0x1a84>
    4e55: 29 0f        	and	#$f
    4e57: 85 98        	sta	$98                     ; 0x2098 <main+0x1b06>
    4e59: a6 1e        	ldx	$1e                     ; 0x201e <main+0x1a8c>
    4e5b: 86 94        	stx	$94                     ; 0x2094 <main+0x1b02>
    4e5d: a5 1e        	lda	$1e                     ; 0x201e <main+0x1a8c>
    4e5f: 29 0f        	and	#$f
    4e61: 85 96        	sta	$96                     ; 0x2096 <main+0x1b04>
    4e63: a5 19        	lda	$19                     ; 0x2019 <main+0x1a87>
    4e65: c9 f8        	cmp	#$f8
    4e67: d0 08        	bne	$4e71 <__muldf3+0xa4>
    4e69: a5 18        	lda	$18                     ; 0x2018 <main+0x1a86>
    4e6b: c9 02        	cmp	#$2
    4e6d: b0 06        	bcs	$4e75 <__muldf3+0xa8>
    4e6f: 80 31        	bra	$4ea2 <__muldf3+0xd5>
    4e71: c9 f8        	cmp	#$f8
    4e73: 90 2d        	bcc	$4ea2 <__muldf3+0xd5>
    4e75: 18           	clc
    4e76: a5 12        	lda	$12                     ; 0x2012 <main+0x1a80>
    4e78: 69 01        	adc	#$1
    4e7a: aa           	tax
    4e7b: a5 15        	lda	$15                     ; 0x2015 <main+0x1a83>
    4e7d: 69 f8        	adc	#$f8
    4e7f: c9 f8        	cmp	#$f8
    4e81: d0 1b        	bne	$4e9e <__muldf3+0xd1>
    4e83: e0 02        	cpx	#$2
    4e85: 90 1b        	bcc	$4ea2 <__muldf3+0xd5>
    4e87: a6 12        	ldx	$12                     ; 0x2012 <main+0x1a80>
    4e89: 86 9f        	stx	$9f                     ; 0x209f <main+0x1b0d>
    4e8b: a6 13        	ldx	$13                     ; 0x2013 <main+0x1a81>
    4e8d: 86 9e        	stx	$9e                     ; 0x209e <main+0x1b0c>
    4e8f: a2 00        	ldx	#$0
    4e91: 86 9c        	stx	$9c                     ; 0x209c <main+0x1b0a>
    4e93: 86 aa        	stx	$aa                     ; 0x20aa <main+0x1b18>
    4e95: 86 a0        	stx	$a0                     ; 0x20a0 <main+0x1b0e>
    4e97: a6 22        	ldx	$22                     ; 0x2022 <main+0x1a90>
    4e99: 86 19        	stx	$19                     ; 0x2019 <main+0x1a87>
    4e9b: 4c 46 5b     	jmp	$5b46 <__muldf3+0xd79>
    4e9e: c9 f8        	cmp	#$f8
    4ea0: b0 e5        	bcs	$4e87 <__muldf3+0xba>
    4ea2: a5 14        	lda	$14                     ; 0x2014 <main+0x1a82>
    4ea4: 29 7f        	and	#$7f
    4ea6: c9 7f        	cmp	#$7f
    4ea8: d0 34        	bne	$4ede <__muldf3+0x111>
    4eaa: 85 15        	sta	$15                     ; 0x2015 <main+0x1a83>
    4eac: a6 16        	ldx	$16                     ; 0x2016 <main+0x1a84>
    4eae: e0 f0        	cpx	#$f0
    4eb0: f0 03        	beq	$4eb5 <__muldf3+0xe8>
    4eb2: 4c 22 4f     	jmp	$4f22 <__muldf3+0x155>
    4eb5: a5 8c        	lda	$8c                     ; 0x208c <main+0x1afa>
    4eb7: f0 03        	beq	$4ebc <__muldf3+0xef>
    4eb9: 4c 3e 4f     	jmp	$4f3e <__muldf3+0x171>
    4ebc: a6 95        	ldx	$95                     ; 0x2095 <main+0x1b03>
    4ebe: f0 03        	beq	$4ec3 <__muldf3+0xf6>
    4ec0: 4c 40 4f     	jmp	$4f40 <__muldf3+0x173>
    4ec3: a5 8a        	lda	$8a                     ; 0x208a <main+0x1af8>
    4ec5: f0 03        	beq	$4eca <__muldf3+0xfd>
    4ec7: 4c 03 51     	jmp	$5103 <__muldf3+0x336>
    4eca: a5 89        	lda	$89                     ; 0x2089 <main+0x1af7>
    4ecc: f0 03        	beq	$4ed1 <__muldf3+0x104>
    4ece: 4c d9 5a     	jmp	$5ad9 <__muldf3+0xd0c>
    4ed1: a5 22        	lda	$22                     ; 0x2022 <main+0x1a90>
    4ed3: f0 03        	beq	$4ed8 <__muldf3+0x10b>
    4ed5: 4c e6 5a     	jmp	$5ae6 <__muldf3+0xd19>
    4ed8: c0 01        	cpy	#$1
    4eda: 90 08        	bcc	$4ee4 <__muldf3+0x117>
    4edc: 80 48        	bra	$4f26 <__muldf3+0x159>
    4ede: 85 15        	sta	$15                     ; 0x2015 <main+0x1a83>
    4ee0: c9 7f        	cmp	#$7f
    4ee2: b0 42        	bcs	$4f26 <__muldf3+0x159>
    4ee4: a5 1f        	lda	$1f                     ; 0x201f <main+0x1a8d>
    4ee6: 29 7f        	and	#$7f
    4ee8: 85 9c        	sta	$9c                     ; 0x209c <main+0x1b0a>
    4eea: c9 7f        	cmp	#$7f
    4eec: d0 4c        	bne	$4f3a <__muldf3+0x16d>
    4eee: a6 1e        	ldx	$1e                     ; 0x201e <main+0x1a8c>
    4ef0: e0 f0        	cpx	#$f0
    4ef2: d0 53        	bne	$4f47 <__muldf3+0x17a>
    4ef4: a5 16        	lda	$16                     ; 0x2016 <main+0x1a84>
    4ef6: a6 90        	ldx	$90                     ; 0x2090 <main+0x1afe>
    4ef8: f0 03        	beq	$4efd <__muldf3+0x130>
    4efa: 4c f4 50     	jmp	$50f4 <__muldf3+0x327>
    4efd: a6 8f        	ldx	$8f                     ; 0x208f <main+0x1afd>
    4eff: f0 03        	beq	$4f04 <__muldf3+0x137>
    4f01: 4c 08 51     	jmp	$5108 <__muldf3+0x33b>
    4f04: a6 8e        	ldx	$8e                     ; 0x208e <main+0x1afc>
    4f06: f0 03        	beq	$4f0b <__muldf3+0x13e>
    4f08: 4c de 5a     	jmp	$5ade <__muldf3+0xd11>
    4f0b: a6 93        	ldx	$93                     ; 0x2093 <main+0x1b01>
    4f0d: f0 03        	beq	$4f12 <__muldf3+0x145>
    4f0f: 4c eb 5a     	jmp	$5aeb <__muldf3+0xd1e>
    4f12: a6 92        	ldx	$92                     ; 0x2092 <main+0x1b00>
    4f14: f0 03        	beq	$4f19 <__muldf3+0x14c>
    4f16: 4c f8 5a     	jmp	$5af8 <__muldf3+0xd2b>
    4f19: a6 97        	ldx	$97                     ; 0x2097 <main+0x1b05>
    4f1b: e0 01        	cpx	#$1
    4f1d: 90 31        	bcc	$4f50 <__muldf3+0x183>
    4f1f: 4c 01 5b     	jmp	$5b01 <__muldf3+0xd34>
    4f22: e0 f0        	cpx	#$f0
    4f24: 90 be        	bcc	$4ee4 <__muldf3+0x117>
    4f26: 84 18        	sty	$18                     ; 0x2018 <main+0x1a86>
    4f28: a5 16        	lda	$16                     ; 0x2016 <main+0x1a84>
    4f2a: 09 08        	ora	#$8
    4f2c: a8           	tay
    4f2d: a6 8a        	ldx	$8a                     ; 0x208a <main+0x1af8>
    4f2f: 86 13        	stx	$13                     ; 0x2013 <main+0x1a81>
    4f31: a6 95        	ldx	$95                     ; 0x2095 <main+0x1b03>
    4f33: 86 8b        	stx	$8b                     ; 0x208b <main+0x1af9>
    4f35: a5 14        	lda	$14                     ; 0x2014 <main+0x1a82>
    4f37: 4c 85 61     	jmp	$6185 <__muldf3+0x13b8>
    4f3a: c9 7f        	cmp	#$7f
    4f3c: 80 0b        	bra	$4f49 <__muldf3+0x17c>
    4f3e: a6 8c        	ldx	$8c                     ; 0x208c <main+0x1afa>
    4f40: e0 00        	cpx	#$0
    4f42: b0 e2        	bcs	$4f26 <__muldf3+0x159>
    4f44: 4c e4 4e     	jmp	$4ee4 <__muldf3+0x117>
    4f47: e0 f0        	cpx	#$f0
    4f49: a5 16        	lda	$16                     ; 0x2016 <main+0x1a84>
    4f4b: 90 03        	bcc	$4f50 <__muldf3+0x183>
    4f4d: 4c 01 5b     	jmp	$5b01 <__muldf3+0xd34>
    4f50: a6 15        	ldx	$15                     ; 0x2015 <main+0x1a83>
    4f52: 86 1c        	stx	$1c                     ; 0x201c <main+0x1a8a>
    4f54: e0 7f        	cpx	#$7f
    4f56: f0 03        	beq	$4f5b <__muldf3+0x18e>
    4f58: 4c ba 4f     	jmp	$4fba <__muldf3+0x1ed>
    4f5b: c9 f0        	cmp	#$f0
    4f5d: d0 5b        	bne	$4fba <__muldf3+0x1ed>
    4f5f: a6 8c        	ldx	$8c                     ; 0x208c <main+0x1afa>
    4f61: d0 57        	bne	$4fba <__muldf3+0x1ed>
    4f63: a6 95        	ldx	$95                     ; 0x2095 <main+0x1b03>
    4f65: d0 53        	bne	$4fba <__muldf3+0x1ed>
    4f67: a6 8a        	ldx	$8a                     ; 0x208a <main+0x1af8>
    4f69: d0 4f        	bne	$4fba <__muldf3+0x1ed>
    4f6b: a6 89        	ldx	$89                     ; 0x2089 <main+0x1af7>
    4f6d: d0 4b        	bne	$4fba <__muldf3+0x1ed>
    4f6f: a6 22        	ldx	$22                     ; 0x2022 <main+0x1a90>
    4f71: d0 47        	bne	$4fba <__muldf3+0x1ed>
    4f73: c0 00        	cpy	#$0
    4f75: d0 43        	bne	$4fba <__muldf3+0x1ed>
    4f77: a6 9c        	ldx	$9c                     ; 0x209c <main+0x1b0a>
    4f79: 86 12        	stx	$12                     ; 0x2012 <main+0x1a80>
    4f7b: a6 97        	ldx	$97                     ; 0x2097 <main+0x1b05>
    4f7d: 86 13        	stx	$13                     ; 0x2013 <main+0x1a81>
    4f7f: a5 12        	lda	$12                     ; 0x2012 <main+0x1a80>
    4f81: f0 03        	beq	$4f86 <__muldf3+0x1b9>
    4f83: 4c e4 5e     	jmp	$5ee4 <__muldf3+0x1117>
    4f86: a5 94        	lda	$94                     ; 0x2094 <main+0x1b02>
    4f88: f0 03        	beq	$4f8d <__muldf3+0x1c0>
    4f8a: 4c e4 5e     	jmp	$5ee4 <__muldf3+0x1117>
    4f8d: a5 90        	lda	$90                     ; 0x2090 <main+0x1afe>
    4f8f: f0 03        	beq	$4f94 <__muldf3+0x1c7>
    4f91: 4c e4 5e     	jmp	$5ee4 <__muldf3+0x1117>
    4f94: a5 8f        	lda	$8f                     ; 0x208f <main+0x1afd>
    4f96: f0 03        	beq	$4f9b <__muldf3+0x1ce>
    4f98: 4c e4 5e     	jmp	$5ee4 <__muldf3+0x1117>
    4f9b: a5 8e        	lda	$8e                     ; 0x208e <main+0x1afc>
    4f9d: f0 03        	beq	$4fa2 <__muldf3+0x1d5>
    4f9f: 4c e4 5e     	jmp	$5ee4 <__muldf3+0x1117>
    4fa2: a5 93        	lda	$93                     ; 0x2093 <main+0x1b01>
    4fa4: f0 03        	beq	$4fa9 <__muldf3+0x1dc>
    4fa6: 4c e4 5e     	jmp	$5ee4 <__muldf3+0x1117>
    4fa9: a5 92        	lda	$92                     ; 0x2092 <main+0x1b00>
    4fab: f0 03        	beq	$4fb0 <__muldf3+0x1e3>
    4fad: 4c e4 5e     	jmp	$5ee4 <__muldf3+0x1117>
    4fb0: a5 13        	lda	$13                     ; 0x2013 <main+0x1a81>
    4fb2: d0 03        	bne	$4fb7 <__muldf3+0x1ea>
    4fb4: 4c 2b 50     	jmp	$502b <__muldf3+0x25e>
    4fb7: 4c e4 5e     	jmp	$5ee4 <__muldf3+0x1117>
    4fba: a6 9c        	ldx	$9c                     ; 0x209c <main+0x1b0a>
    4fbc: e0 7f        	cpx	#$7f
    4fbe: f0 03        	beq	$4fc3 <__muldf3+0x1f6>
    4fc0: 4c 3e 50     	jmp	$503e <__muldf3+0x271>
    4fc3: a6 1e        	ldx	$1e                     ; 0x201e <main+0x1a8c>
    4fc5: e0 f0        	cpx	#$f0
    4fc7: f0 03        	beq	$4fcc <__muldf3+0x1ff>
    4fc9: 4c 3e 50     	jmp	$503e <__muldf3+0x271>
    4fcc: a6 90        	ldx	$90                     ; 0x2090 <main+0x1afe>
    4fce: f0 03        	beq	$4fd3 <__muldf3+0x206>
    4fd0: 4c 3e 50     	jmp	$503e <__muldf3+0x271>
    4fd3: a6 8f        	ldx	$8f                     ; 0x208f <main+0x1afd>
    4fd5: f0 03        	beq	$4fda <__muldf3+0x20d>
    4fd7: 4c 3e 50     	jmp	$503e <__muldf3+0x271>
    4fda: a6 8e        	ldx	$8e                     ; 0x208e <main+0x1afc>
    4fdc: f0 03        	beq	$4fe1 <__muldf3+0x214>
    4fde: 4c 3e 50     	jmp	$503e <__muldf3+0x271>
    4fe1: a6 93        	ldx	$93                     ; 0x2093 <main+0x1b01>
    4fe3: d0 59        	bne	$503e <__muldf3+0x271>
    4fe5: a6 92        	ldx	$92                     ; 0x2092 <main+0x1b00>
    4fe7: d0 55        	bne	$503e <__muldf3+0x271>
    4fe9: a6 97        	ldx	$97                     ; 0x2097 <main+0x1b05>
    4feb: d0 51        	bne	$503e <__muldf3+0x271>
    4fed: 84 12        	sty	$12                     ; 0x2012 <main+0x1a80>
    4fef: a4 22        	ldy	$22                     ; 0x2022 <main+0x1a90>
    4ff1: a6 95        	ldx	$95                     ; 0x2095 <main+0x1b03>
    4ff3: 86 13        	stx	$13                     ; 0x2013 <main+0x1a81>
    4ff5: a6 1c        	ldx	$1c                     ; 0x201c <main+0x1a8a>
    4ff7: f0 03        	beq	$4ffc <__muldf3+0x22f>
    4ff9: 4c e4 5e     	jmp	$5ee4 <__muldf3+0x1117>
    4ffc: aa           	tax
    4ffd: f0 03        	beq	$5002 <__muldf3+0x235>
    4fff: 4c e4 5e     	jmp	$5ee4 <__muldf3+0x1117>
    5002: a5 8c        	lda	$8c                     ; 0x208c <main+0x1afa>
    5004: f0 03        	beq	$5009 <__muldf3+0x23c>
    5006: 4c e4 5e     	jmp	$5ee4 <__muldf3+0x1117>
    5009: a5 13        	lda	$13                     ; 0x2013 <main+0x1a81>
    500b: f0 03        	beq	$5010 <__muldf3+0x243>
    500d: 4c e4 5e     	jmp	$5ee4 <__muldf3+0x1117>
    5010: a5 8a        	lda	$8a                     ; 0x208a <main+0x1af8>
    5012: f0 03        	beq	$5017 <__muldf3+0x24a>
    5014: 4c e4 5e     	jmp	$5ee4 <__muldf3+0x1117>
    5017: a5 89        	lda	$89                     ; 0x2089 <main+0x1af7>
    5019: f0 03        	beq	$501e <__muldf3+0x251>
    501b: 4c e4 5e     	jmp	$5ee4 <__muldf3+0x1117>
    501e: 98           	tya
    501f: f0 03        	beq	$5024 <__muldf3+0x257>
    5021: 4c e4 5e     	jmp	$5ee4 <__muldf3+0x1117>
    5024: a5 12        	lda	$12                     ; 0x2012 <main+0x1a80>
    5026: f0 03        	beq	$502b <__muldf3+0x25e>
    5028: 4c e4 5e     	jmp	$5ee4 <__muldf3+0x1117>
    502b: a9 7f        	lda	#$7f
    502d: a0 f8        	ldy	#$f8
    502f: 64 18        	stz	$18                     ; 0x2018 <main+0x1a86>
    5031: 64 22        	stz	$22                     ; 0x2022 <main+0x1a90>
    5033: 64 89        	stz	$89                     ; 0x2089 <main+0x1af7>
    5035: 64 13        	stz	$13                     ; 0x2013 <main+0x1a81>
    5037: 64 8b        	stz	$8b                     ; 0x208b <main+0x1af9>
    5039: 64 8c        	stz	$8c                     ; 0x208c <main+0x1afa>
    503b: 4c 85 61     	jmp	$6185 <__muldf3+0x13b8>
    503e: 5a           	phy
    503f: a6 22        	ldx	$22                     ; 0x2022 <main+0x1a90>
    5041: 86 14        	stx	$14                     ; 0x2014 <main+0x1a82>
    5043: a6 89        	ldx	$89                     ; 0x2089 <main+0x1af7>
    5045: a4 8a        	ldy	$8a                     ; 0x208a <main+0x1af8>
    5047: 84 15        	sty	$15                     ; 0x2015 <main+0x1a83>
    5049: a4 8c        	ldy	$8c                     ; 0x208c <main+0x1afa>
    504b: 84 17        	sty	$17                     ; 0x2017 <main+0x1a85>
    504d: a5 95        	lda	$95                     ; 0x2095 <main+0x1b03>
    504f: 85 16        	sta	$16                     ; 0x2016 <main+0x1a84>
    5051: a5 1b        	lda	$1b                     ; 0x201b <main+0x1a89>
    5053: a4 1c        	ldy	$1c                     ; 0x201c <main+0x1a8a>
    5055: 84 18        	sty	$18                     ; 0x2018 <main+0x1a86>
    5057: 7a           	ply
    5058: e6 18        	inc	$18                     ; 0x2018 <main+0x1a86>
    505a: c6 18        	dec	$18                     ; 0x2018 <main+0x1a86>
    505c: d0 1d        	bne	$507b <__muldf3+0x2ae>
    505e: c9 00        	cmp	#$0
    5060: d0 19        	bne	$507b <__muldf3+0x2ae>
    5062: a5 17        	lda	$17                     ; 0x2017 <main+0x1a85>
    5064: d0 15        	bne	$507b <__muldf3+0x2ae>
    5066: a5 16        	lda	$16                     ; 0x2016 <main+0x1a84>
    5068: d0 11        	bne	$507b <__muldf3+0x2ae>
    506a: a5 15        	lda	$15                     ; 0x2015 <main+0x1a83>
    506c: d0 0d        	bne	$507b <__muldf3+0x2ae>
    506e: 8a           	txa
    506f: d0 0a        	bne	$507b <__muldf3+0x2ae>
    5071: a5 14        	lda	$14                     ; 0x2014 <main+0x1a82>
    5073: d0 06        	bne	$507b <__muldf3+0x2ae>
    5075: 98           	tya
    5076: d0 03        	bne	$507b <__muldf3+0x2ae>
    5078: 4c 4a 5f     	jmp	$5f4a <__muldf3+0x117d>
    507b: a6 8e        	ldx	$8e                     ; 0x208e <main+0x1afc>
    507d: a5 8f        	lda	$8f                     ; 0x208f <main+0x1afd>
    507f: 85 14        	sta	$14                     ; 0x2014 <main+0x1a82>
    5081: a5 1d        	lda	$1d                     ; 0x201d <main+0x1a8b>
    5083: 85 15        	sta	$15                     ; 0x2015 <main+0x1a83>
    5085: a5 92        	lda	$92                     ; 0x2092 <main+0x1b00>
    5087: 85 17        	sta	$17                     ; 0x2017 <main+0x1a85>
    5089: a5 1a        	lda	$1a                     ; 0x201a <main+0x1a88>
    508b: 85 18        	sta	$18                     ; 0x2018 <main+0x1a86>
    508d: a5 1e        	lda	$1e                     ; 0x201e <main+0x1a8c>
    508f: 85 19        	sta	$19                     ; 0x2019 <main+0x1a87>
    5091: a5 9c        	lda	$9c                     ; 0x209c <main+0x1b0a>
    5093: 85 1a        	sta	$1a                     ; 0x201a <main+0x1a88>
    5095: a5 97        	lda	$97                     ; 0x2097 <main+0x1b05>
    5097: 85 16        	sta	$16                     ; 0x2016 <main+0x1a84>
    5099: a5 1a        	lda	$1a                     ; 0x201a <main+0x1a88>
    509b: d0 1e        	bne	$50bb <__muldf3+0x2ee>
    509d: a5 19        	lda	$19                     ; 0x2019 <main+0x1a87>
    509f: d0 1a        	bne	$50bb <__muldf3+0x2ee>
    50a1: a5 15        	lda	$15                     ; 0x2015 <main+0x1a83>
    50a3: d0 16        	bne	$50bb <__muldf3+0x2ee>
    50a5: a5 14        	lda	$14                     ; 0x2014 <main+0x1a82>
    50a7: d0 12        	bne	$50bb <__muldf3+0x2ee>
    50a9: 8a           	txa
    50aa: d0 0f        	bne	$50bb <__muldf3+0x2ee>
    50ac: a5 18        	lda	$18                     ; 0x2018 <main+0x1a86>
    50ae: d0 0b        	bne	$50bb <__muldf3+0x2ee>
    50b0: a5 17        	lda	$17                     ; 0x2017 <main+0x1a85>
    50b2: d0 07        	bne	$50bb <__muldf3+0x2ee>
    50b4: a5 16        	lda	$16                     ; 0x2016 <main+0x1a84>
    50b6: d0 03        	bne	$50bb <__muldf3+0x2ee>
    50b8: 4c 4a 5f     	jmp	$5f4a <__muldf3+0x117d>
    50bb: a5 1c        	lda	$1c                     ; 0x201c <main+0x1a8a>
    50bd: d0 2d        	bne	$50ec <__muldf3+0x31f>
    50bf: a6 1b        	ldx	$1b                     ; 0x201b <main+0x1a89>
    50c1: e0 10        	cpx	#$10
    50c3: d0 34        	bne	$50f9 <__muldf3+0x32c>
    50c5: a6 22        	ldx	$22                     ; 0x2022 <main+0x1a90>
    50c7: 86 19        	stx	$19                     ; 0x2019 <main+0x1a87>
    50c9: a5 8c        	lda	$8c                     ; 0x208c <main+0x1afa>
    50cb: d0 40        	bne	$510d <__muldf3+0x340>
    50cd: a6 95        	ldx	$95                     ; 0x2095 <main+0x1b03>
    50cf: d0 3e        	bne	$510f <__muldf3+0x342>
    50d1: a5 8a        	lda	$8a                     ; 0x208a <main+0x1af8>
    50d3: f0 03        	beq	$50d8 <__muldf3+0x30b>
    50d5: 4c ef 5a     	jmp	$5aef <__muldf3+0xd22>
    50d8: a5 89        	lda	$89                     ; 0x2089 <main+0x1af7>
    50da: f0 03        	beq	$50df <__muldf3+0x312>
    50dc: 4c 23 5b     	jmp	$5b23 <__muldf3+0xd56>
    50df: a5 19        	lda	$19                     ; 0x2019 <main+0x1a87>
    50e1: f0 03        	beq	$50e6 <__muldf3+0x319>
    50e3: 4c 2c 5b     	jmp	$5b2c <__muldf3+0xd5f>
    50e6: c0 00        	cpy	#$0
    50e8: b0 29        	bcs	$5113 <__muldf3+0x346>
    50ea: 80 3a        	bra	$5126 <__muldf3+0x359>
    50ec: a6 1c        	ldx	$1c                     ; 0x201c <main+0x1a8a>
    50ee: e0 00        	cpx	#$0
    50f0: b0 0b        	bcs	$50fd <__muldf3+0x330>
    50f2: 80 32        	bra	$5126 <__muldf3+0x359>
    50f4: a6 1d        	ldx	$1d                     ; 0x201d <main+0x1a8b>
    50f6: 4c fa 5a     	jmp	$5afa <__muldf3+0xd2d>
    50f9: e0 10        	cpx	#$10
    50fb: 90 29        	bcc	$5126 <__muldf3+0x359>
    50fd: a6 22        	ldx	$22                     ; 0x2022 <main+0x1a90>
    50ff: 86 19        	stx	$19                     ; 0x2019 <main+0x1a87>
    5101: 80 10        	bra	$5113 <__muldf3+0x346>
    5103: a6 8a        	ldx	$8a                     ; 0x208a <main+0x1af8>
    5105: 4c 40 4f     	jmp	$4f40 <__muldf3+0x173>
    5108: a6 1c        	ldx	$1c                     ; 0x201c <main+0x1a8a>
    510a: 4c fa 5a     	jmp	$5afa <__muldf3+0xd2d>
    510d: a6 8c        	ldx	$8c                     ; 0x208c <main+0x1afa>
    510f: e0 00        	cpx	#$0
    5111: 90 13        	bcc	$5126 <__muldf3+0x359>
    5113: a6 12        	ldx	$12                     ; 0x2012 <main+0x1a80>
    5115: 86 9f        	stx	$9f                     ; 0x209f <main+0x1b0d>
    5117: a6 13        	ldx	$13                     ; 0x2013 <main+0x1a81>
    5119: 86 9e        	stx	$9e                     ; 0x209e <main+0x1b0c>
    511b: 64 17        	stz	$17                     ; 0x2017 <main+0x1a85>
    511d: a2 00        	ldx	#$0
    511f: 86 a1        	stx	$a1                     ; 0x20a1 <main+0x1b0f>
    5121: 86 a0        	stx	$a0                     ; 0x20a0 <main+0x1b0e>
    5123: 4c cd 55     	jmp	$55cd <__muldf3+0x800>
    5126: a6 12        	ldx	$12                     ; 0x2012 <main+0x1a80>
    5128: 86 9f        	stx	$9f                     ; 0x209f <main+0x1b0d>
    512a: a6 13        	ldx	$13                     ; 0x2013 <main+0x1a81>
    512c: 86 9e        	stx	$9e                     ; 0x209e <main+0x1b0c>
    512e: a6 98        	ldx	$98                     ; 0x2098 <main+0x1b06>
    5130: 8a           	txa
    5131: 86 23        	stx	$23                     ; 0x2023 <main+0x1a91>
    5133: 86 98        	stx	$98                     ; 0x2098 <main+0x1b06>
    5135: 4a           	lsr
    5136: 85 12        	sta	$12                     ; 0x2012 <main+0x1a80>
    5138: a5 8c        	lda	$8c                     ; 0x208c <main+0x1afa>
    513a: a6 8c        	ldx	$8c                     ; 0x208c <main+0x1afa>
    513c: 86 1a        	stx	$1a                     ; 0x201a <main+0x1a88>
    513e: a6 8c        	ldx	$8c                     ; 0x208c <main+0x1afa>
    5140: 86 9d        	stx	$9d                     ; 0x209d <main+0x1b0b>
    5142: 6a           	ror
    5143: 85 13        	sta	$13                     ; 0x2013 <main+0x1a81>
    5145: a6 95        	ldx	$95                     ; 0x2095 <main+0x1b03>
    5147: 86 8d        	stx	$8d                     ; 0x208d <main+0x1afb>
    5149: 8a           	txa
    514a: 6a           	ror
    514b: 85 14        	sta	$14                     ; 0x2014 <main+0x1a82>
    514d: a5 8a        	lda	$8a                     ; 0x208a <main+0x1af8>
    514f: 85 8c        	sta	$8c                     ; 0x208c <main+0x1afa>
    5151: a5 8a        	lda	$8a                     ; 0x208a <main+0x1af8>
    5153: 6a           	ror
    5154: 85 15        	sta	$15                     ; 0x2015 <main+0x1a83>
    5156: a5 89        	lda	$89                     ; 0x2089 <main+0x1af7>
    5158: 6a           	ror
    5159: 85 16        	sta	$16                     ; 0x2016 <main+0x1a84>
    515b: a5 22        	lda	$22                     ; 0x2022 <main+0x1a90>
    515d: 85 8a        	sta	$8a                     ; 0x208a <main+0x1af8>
    515f: a5 22        	lda	$22                     ; 0x2022 <main+0x1a90>
    5161: 6a           	ror
    5162: 85 17        	sta	$17                     ; 0x2017 <main+0x1a85>
    5164: 98           	tya
    5165: 6a           	ror
    5166: 85 18        	sta	$18                     ; 0x2018 <main+0x1a86>
    5168: 98           	tya
    5169: 05 18        	ora	$18                     ; 0x2018 <main+0x1a86>
    516b: 85 1c        	sta	$1c                     ; 0x201c <main+0x1a8a>
    516d: a5 22        	lda	$22                     ; 0x2022 <main+0x1a90>
    516f: 05 17        	ora	$17                     ; 0x2017 <main+0x1a85>
    5171: 85 1b        	sta	$1b                     ; 0x201b <main+0x1a89>
    5173: a5 89        	lda	$89                     ; 0x2089 <main+0x1af7>
    5175: 05 16        	ora	$16                     ; 0x2016 <main+0x1a84>
    5177: 85 1f        	sta	$1f                     ; 0x201f <main+0x1a8d>
    5179: a5 8c        	lda	$8c                     ; 0x208c <main+0x1afa>
    517b: 05 15        	ora	$15                     ; 0x2015 <main+0x1a83>
    517d: 85 19        	sta	$19                     ; 0x2019 <main+0x1a87>
    517f: 8a           	txa
    5180: 05 14        	ora	$14                     ; 0x2014 <main+0x1a82>
    5182: 85 1e        	sta	$1e                     ; 0x201e <main+0x1a8c>
    5184: a5 1a        	lda	$1a                     ; 0x201a <main+0x1a88>
    5186: 05 13        	ora	$13                     ; 0x2013 <main+0x1a81>
    5188: 85 1d        	sta	$1d                     ; 0x201d <main+0x1a8b>
    518a: a5 23        	lda	$23                     ; 0x2023 <main+0x1a91>
    518c: 05 12        	ora	$12                     ; 0x2012 <main+0x1a80>
    518e: 85 22        	sta	$22                     ; 0x2022 <main+0x1a90>
    5190: 5a           	phy
    5191: a6 1d        	ldx	$1d                     ; 0x201d <main+0x1a8b>
    5193: 86 12        	stx	$12                     ; 0x2012 <main+0x1a80>
    5195: 4a           	lsr
    5196: 66 12        	ror	$12                     ; 0x2012 <main+0x1a80>
    5198: a6 1e        	ldx	$1e                     ; 0x201e <main+0x1a8c>
    519a: 86 13        	stx	$13                     ; 0x2013 <main+0x1a81>
    519c: 66 13        	ror	$13                     ; 0x2013 <main+0x1a81>
    519e: a6 19        	ldx	$19                     ; 0x2019 <main+0x1a87>
    51a0: 86 14        	stx	$14                     ; 0x2014 <main+0x1a82>
    51a2: 66 14        	ror	$14                     ; 0x2014 <main+0x1a82>
    51a4: a6 1f        	ldx	$1f                     ; 0x201f <main+0x1a8d>
    51a6: 86 15        	stx	$15                     ; 0x2015 <main+0x1a83>
    51a8: 66 15        	ror	$15                     ; 0x2015 <main+0x1a83>
    51aa: a6 1b        	ldx	$1b                     ; 0x201b <main+0x1a89>
    51ac: 86 16        	stx	$16                     ; 0x2016 <main+0x1a84>
    51ae: 66 16        	ror	$16                     ; 0x2016 <main+0x1a84>
    51b0: a6 1c        	ldx	$1c                     ; 0x201c <main+0x1a8a>
    51b2: 86 17        	stx	$17                     ; 0x2017 <main+0x1a85>
    51b4: 66 17        	ror	$17                     ; 0x2017 <main+0x1a85>
    51b6: 4a           	lsr
    51b7: 66 12        	ror	$12                     ; 0x2012 <main+0x1a80>
    51b9: 66 13        	ror	$13                     ; 0x2013 <main+0x1a81>
    51bb: 66 14        	ror	$14                     ; 0x2014 <main+0x1a82>
    51bd: 66 15        	ror	$15                     ; 0x2015 <main+0x1a83>
    51bf: 66 16        	ror	$16                     ; 0x2016 <main+0x1a84>
    51c1: 66 17        	ror	$17                     ; 0x2017 <main+0x1a85>
    51c3: 85 18        	sta	$18                     ; 0x2018 <main+0x1a86>
    51c5: a5 1c        	lda	$1c                     ; 0x201c <main+0x1a8a>
    51c7: 05 17        	ora	$17                     ; 0x2017 <main+0x1a85>
    51c9: 85 1c        	sta	$1c                     ; 0x201c <main+0x1a8a>
    51cb: a5 1b        	lda	$1b                     ; 0x201b <main+0x1a89>
    51cd: 05 16        	ora	$16                     ; 0x2016 <main+0x1a84>
    51cf: 85 1b        	sta	$1b                     ; 0x201b <main+0x1a89>
    51d1: a5 1f        	lda	$1f                     ; 0x201f <main+0x1a8d>
    51d3: 05 15        	ora	$15                     ; 0x2015 <main+0x1a83>
    51d5: 85 1f        	sta	$1f                     ; 0x201f <main+0x1a8d>
    51d7: a5 19        	lda	$19                     ; 0x2019 <main+0x1a87>
    51d9: 05 14        	ora	$14                     ; 0x2014 <main+0x1a82>
    51db: 85 19        	sta	$19                     ; 0x2019 <main+0x1a87>
    51dd: a5 1e        	lda	$1e                     ; 0x201e <main+0x1a8c>
    51df: 05 13        	ora	$13                     ; 0x2013 <main+0x1a81>
    51e1: 85 1e        	sta	$1e                     ; 0x201e <main+0x1a8c>
    51e3: a5 1d        	lda	$1d                     ; 0x201d <main+0x1a8b>
    51e5: 05 12        	ora	$12                     ; 0x2012 <main+0x1a80>
    51e7: aa           	tax
    51e8: a5 22        	lda	$22                     ; 0x2022 <main+0x1a90>
    51ea: 05 18        	ora	$18                     ; 0x2018 <main+0x1a86>
    51ec: 85 1d        	sta	$1d                     ; 0x201d <main+0x1a8b>
    51ee: 85 18        	sta	$18                     ; 0x2018 <main+0x1a86>
    51f0: 86 12        	stx	$12                     ; 0x2012 <main+0x1a80>
    51f2: 46 18        	lsr	$18                     ; 0x2018 <main+0x1a86>
    51f4: 66 12        	ror	$12                     ; 0x2012 <main+0x1a80>
    51f6: a4 1e        	ldy	$1e                     ; 0x201e <main+0x1a8c>
    51f8: 84 13        	sty	$13                     ; 0x2013 <main+0x1a81>
    51fa: 66 13        	ror	$13                     ; 0x2013 <main+0x1a81>
    51fc: a4 19        	ldy	$19                     ; 0x2019 <main+0x1a87>
    51fe: 84 14        	sty	$14                     ; 0x2014 <main+0x1a82>
    5200: 66 14        	ror	$14                     ; 0x2014 <main+0x1a82>
    5202: a4 1f        	ldy	$1f                     ; 0x201f <main+0x1a8d>
    5204: 84 15        	sty	$15                     ; 0x2015 <main+0x1a83>
    5206: 66 15        	ror	$15                     ; 0x2015 <main+0x1a83>
    5208: a4 1b        	ldy	$1b                     ; 0x201b <main+0x1a89>
    520a: 84 16        	sty	$16                     ; 0x2016 <main+0x1a84>
    520c: 66 16        	ror	$16                     ; 0x2016 <main+0x1a84>
    520e: a4 1c        	ldy	$1c                     ; 0x201c <main+0x1a8a>
    5210: 84 17        	sty	$17                     ; 0x2017 <main+0x1a85>
    5212: 66 17        	ror	$17                     ; 0x2017 <main+0x1a85>
    5214: 46 18        	lsr	$18                     ; 0x2018 <main+0x1a86>
    5216: 66 12        	ror	$12                     ; 0x2012 <main+0x1a80>
    5218: 66 13        	ror	$13                     ; 0x2013 <main+0x1a81>
    521a: 66 14        	ror	$14                     ; 0x2014 <main+0x1a82>
    521c: 66 15        	ror	$15                     ; 0x2015 <main+0x1a83>
    521e: 66 16        	ror	$16                     ; 0x2016 <main+0x1a84>
    5220: 66 17        	ror	$17                     ; 0x2017 <main+0x1a85>
    5222: 46 18        	lsr	$18                     ; 0x2018 <main+0x1a86>
    5224: 66 12        	ror	$12                     ; 0x2012 <main+0x1a80>
    5226: 66 13        	ror	$13                     ; 0x2013 <main+0x1a81>
    5228: 66 14        	ror	$14                     ; 0x2014 <main+0x1a82>
    522a: 66 15        	ror	$15                     ; 0x2015 <main+0x1a83>
    522c: 66 16        	ror	$16                     ; 0x2016 <main+0x1a84>
    522e: 66 17        	ror	$17                     ; 0x2017 <main+0x1a85>
    5230: 46 18        	lsr	$18                     ; 0x2018 <main+0x1a86>
    5232: 66 12        	ror	$12                     ; 0x2012 <main+0x1a80>
    5234: 66 13        	ror	$13                     ; 0x2013 <main+0x1a81>
    5236: 66 14        	ror	$14                     ; 0x2014 <main+0x1a82>
    5238: 66 15        	ror	$15                     ; 0x2015 <main+0x1a83>
    523a: 66 16        	ror	$16                     ; 0x2016 <main+0x1a84>
    523c: 66 17        	ror	$17                     ; 0x2017 <main+0x1a85>
    523e: a5 1c        	lda	$1c                     ; 0x201c <main+0x1a8a>
    5240: 05 17        	ora	$17                     ; 0x2017 <main+0x1a85>
    5242: 85 1c        	sta	$1c                     ; 0x201c <main+0x1a8a>
    5244: a5 1b        	lda	$1b                     ; 0x201b <main+0x1a89>
    5246: 05 16        	ora	$16                     ; 0x2016 <main+0x1a84>
    5248: 85 1b        	sta	$1b                     ; 0x201b <main+0x1a89>
    524a: a5 1f        	lda	$1f                     ; 0x201f <main+0x1a8d>
    524c: 05 15        	ora	$15                     ; 0x2015 <main+0x1a83>
    524e: 85 15        	sta	$15                     ; 0x2015 <main+0x1a83>
    5250: a5 19        	lda	$19                     ; 0x2019 <main+0x1a87>
    5252: 05 14        	ora	$14                     ; 0x2014 <main+0x1a82>
    5254: 85 17        	sta	$17                     ; 0x2017 <main+0x1a85>
    5256: a5 1e        	lda	$1e                     ; 0x201e <main+0x1a8c>
    5258: 05 13        	ora	$13                     ; 0x2013 <main+0x1a81>
    525a: 85 14        	sta	$14                     ; 0x2014 <main+0x1a82>
    525c: 8a           	txa
    525d: 05 12        	ora	$12                     ; 0x2012 <main+0x1a80>
    525f: 85 1e        	sta	$1e                     ; 0x201e <main+0x1a8c>
    5261: a5 1d        	lda	$1d                     ; 0x201d <main+0x1a8b>
    5263: 05 18        	ora	$18                     ; 0x2018 <main+0x1a86>
    5265: aa           	tax
    5266: a5 1c        	lda	$1c                     ; 0x201c <main+0x1a8a>
    5268: 05 1b        	ora	$1b                     ; 0x201b <main+0x1a89>
    526a: 85 16        	sta	$16                     ; 0x2016 <main+0x1a84>
    526c: a5 15        	lda	$15                     ; 0x2015 <main+0x1a83>
    526e: 85 13        	sta	$13                     ; 0x2013 <main+0x1a81>
    5270: 05 17        	ora	$17                     ; 0x2017 <main+0x1a85>
    5272: 85 19        	sta	$19                     ; 0x2019 <main+0x1a87>
    5274: a5 14        	lda	$14                     ; 0x2014 <main+0x1a82>
    5276: 05 1e        	ora	$1e                     ; 0x201e <main+0x1a8c>
    5278: 85 1c        	sta	$1c                     ; 0x201c <main+0x1a8a>
    527a: 86 12        	stx	$12                     ; 0x2012 <main+0x1a80>
    527c: 86 1d        	stx	$1d                     ; 0x201d <main+0x1a8b>
    527e: a5 16        	lda	$16                     ; 0x2016 <main+0x1a84>
    5280: 05 19        	ora	$19                     ; 0x2019 <main+0x1a87>
    5282: 85 18        	sta	$18                     ; 0x2018 <main+0x1a86>
    5284: a5 1c        	lda	$1c                     ; 0x201c <main+0x1a8a>
    5286: 85 15        	sta	$15                     ; 0x2015 <main+0x1a83>
    5288: 05 12        	ora	$12                     ; 0x2012 <main+0x1a80>
    528a: 85 16        	sta	$16                     ; 0x2016 <main+0x1a84>
    528c: 85 1f        	sta	$1f                     ; 0x201f <main+0x1a8d>
    528e: a5 18        	lda	$18                     ; 0x2018 <main+0x1a86>
    5290: 05 16        	ora	$16                     ; 0x2016 <main+0x1a84>
    5292: 85 1c        	sta	$1c                     ; 0x201c <main+0x1a8a>
    5294: 4a           	lsr
    5295: 29 55        	and	#$55
    5297: 85 16        	sta	$16                     ; 0x2016 <main+0x1a84>
    5299: a5 1b        	lda	$1b                     ; 0x201b <main+0x1a89>
    529b: 05 13        	ora	$13                     ; 0x2013 <main+0x1a81>
    529d: 85 18        	sta	$18                     ; 0x2018 <main+0x1a86>
    529f: a5 17        	lda	$17                     ; 0x2017 <main+0x1a85>
    52a1: 05 14        	ora	$14                     ; 0x2014 <main+0x1a82>
    52a3: 85 17        	sta	$17                     ; 0x2017 <main+0x1a85>
    52a5: a5 1e        	lda	$1e                     ; 0x201e <main+0x1a8c>
    52a7: 05 12        	ora	$12                     ; 0x2012 <main+0x1a80>
    52a9: aa           	tax
    52aa: a5 18        	lda	$18                     ; 0x2018 <main+0x1a86>
    52ac: 05 17        	ora	$17                     ; 0x2017 <main+0x1a85>
    52ae: 86 13        	stx	$13                     ; 0x2013 <main+0x1a81>
    52b0: 05 13        	ora	$13                     ; 0x2013 <main+0x1a81>
    52b2: 85 1b        	sta	$1b                     ; 0x201b <main+0x1a89>
    52b4: 4a           	lsr
    52b5: 29 55        	and	#$55
    52b7: 85 14        	sta	$14                     ; 0x2014 <main+0x1a82>
    52b9: a5 19        	lda	$19                     ; 0x2019 <main+0x1a87>
    52bb: 05 15        	ora	$15                     ; 0x2015 <main+0x1a83>
    52bd: 05 12        	ora	$12                     ; 0x2012 <main+0x1a80>
    52bf: 85 22        	sta	$22                     ; 0x2022 <main+0x1a90>
    52c1: 4a           	lsr
    52c2: 29 55        	and	#$55
    52c4: 85 12        	sta	$12                     ; 0x2012 <main+0x1a80>
    52c6: a5 17        	lda	$17                     ; 0x2017 <main+0x1a85>
    52c8: 05 13        	ora	$13                     ; 0x2013 <main+0x1a81>
    52ca: 85 19        	sta	$19                     ; 0x2019 <main+0x1a87>
    52cc: 4a           	lsr
    52cd: 29 55        	and	#$55
    52cf: 85 13        	sta	$13                     ; 0x2013 <main+0x1a81>
    52d1: a5 1f        	lda	$1f                     ; 0x201f <main+0x1a8d>
    52d3: 4a           	lsr
    52d4: 29 55        	and	#$55
    52d6: 85 15        	sta	$15                     ; 0x2015 <main+0x1a83>
    52d8: 8a           	txa
    52d9: 4a           	lsr
    52da: 29 55        	and	#$55
    52dc: 85 17        	sta	$17                     ; 0x2017 <main+0x1a85>
    52de: a5 1d        	lda	$1d                     ; 0x201d <main+0x1a8b>
    52e0: 4a           	lsr
    52e1: 29 55        	and	#$55
    52e3: 85 18        	sta	$18                     ; 0x2018 <main+0x1a86>
    52e5: 38           	sec
    52e6: a5 1c        	lda	$1c                     ; 0x201c <main+0x1a8a>
    52e8: e5 16        	sbc	$16                     ; 0x2016 <main+0x1a84>
    52ea: 85 1c        	sta	$1c                     ; 0x201c <main+0x1a8a>
    52ec: a5 1b        	lda	$1b                     ; 0x201b <main+0x1a89>
    52ee: e5 14        	sbc	$14                     ; 0x2014 <main+0x1a82>
    52f0: 85 14        	sta	$14                     ; 0x2014 <main+0x1a82>
    52f2: a5 22        	lda	$22                     ; 0x2022 <main+0x1a90>
    52f4: e5 12        	sbc	$12                     ; 0x2012 <main+0x1a80>
    52f6: 85 1b        	sta	$1b                     ; 0x201b <main+0x1a89>
    52f8: a5 19        	lda	$19                     ; 0x2019 <main+0x1a87>
    52fa: e5 13        	sbc	$13                     ; 0x2013 <main+0x1a81>
    52fc: 85 16        	sta	$16                     ; 0x2016 <main+0x1a84>
    52fe: a5 1f        	lda	$1f                     ; 0x201f <main+0x1a8d>
    5300: e5 15        	sbc	$15                     ; 0x2015 <main+0x1a83>
    5302: 85 19        	sta	$19                     ; 0x2019 <main+0x1a87>
    5304: 8a           	txa
    5305: e5 17        	sbc	$17                     ; 0x2017 <main+0x1a85>
    5307: 85 17        	sta	$17                     ; 0x2017 <main+0x1a85>
    5309: a5 1d        	lda	$1d                     ; 0x201d <main+0x1a8b>
    530b: e5 18        	sbc	$18                     ; 0x2018 <main+0x1a86>
    530d: 85 18        	sta	$18                     ; 0x2018 <main+0x1a86>
    530f: a9 00        	lda	#$0
    5311: e9 00        	sbc	#$0
    5313: aa           	tax
    5314: a5 1c        	lda	$1c                     ; 0x201c <main+0x1a8a>
    5316: 29 33        	and	#$33
    5318: 85 12        	sta	$12                     ; 0x2012 <main+0x1a80>
    531a: a5 14        	lda	$14                     ; 0x2014 <main+0x1a82>
    531c: 85 23        	sta	$23                     ; 0x2023 <main+0x1a91>
    531e: 29 33        	and	#$33
    5320: 85 13        	sta	$13                     ; 0x2013 <main+0x1a81>
    5322: a5 1b        	lda	$1b                     ; 0x201b <main+0x1a89>
    5324: 85 22        	sta	$22                     ; 0x2022 <main+0x1a90>
    5326: 29 33        	and	#$33
    5328: 85 14        	sta	$14                     ; 0x2014 <main+0x1a82>
    532a: a4 16        	ldy	$16                     ; 0x2016 <main+0x1a84>
    532c: 84 1f        	sty	$1f                     ; 0x201f <main+0x1a8d>
    532e: a5 16        	lda	$16                     ; 0x2016 <main+0x1a84>
    5330: 29 33        	and	#$33
    5332: 85 15        	sta	$15                     ; 0x2015 <main+0x1a83>
    5334: a5 19        	lda	$19                     ; 0x2019 <main+0x1a87>
    5336: 85 1b        	sta	$1b                     ; 0x201b <main+0x1a89>
    5338: 29 33        	and	#$33
    533a: 85 16        	sta	$16                     ; 0x2016 <main+0x1a84>
    533c: a5 17        	lda	$17                     ; 0x2017 <main+0x1a85>
    533e: 85 1d        	sta	$1d                     ; 0x201d <main+0x1a8b>
    5340: 29 33        	and	#$33
    5342: 85 17        	sta	$17                     ; 0x2017 <main+0x1a85>
    5344: a5 18        	lda	$18                     ; 0x2018 <main+0x1a86>
    5346: 85 1e        	sta	$1e                     ; 0x201e <main+0x1a8c>
    5348: 29 33        	and	#$33
    534a: 85 18        	sta	$18                     ; 0x2018 <main+0x1a86>
    534c: 8a           	txa
    534d: 29 33        	and	#$33
    534f: 85 19        	sta	$19                     ; 0x2019 <main+0x1a87>
    5351: a5 1c        	lda	$1c                     ; 0x201c <main+0x1a8a>
    5353: 4a           	lsr
    5354: 4a           	lsr
    5355: 29 33        	and	#$33
    5357: 18           	clc
    5358: 65 12        	adc	$12                     ; 0x2012 <main+0x1a80>
    535a: a0 01        	ldy	#$1
    535c: b0 02        	bcs	$5360 <__muldf3+0x593>
    535e: a0 00        	ldy	#$0
    5360: 84 12        	sty	$12                     ; 0x2012 <main+0x1a80>
    5362: 85 1a        	sta	$1a                     ; 0x201a <main+0x1a88>
    5364: a5 23        	lda	$23                     ; 0x2023 <main+0x1a91>
    5366: 4a           	lsr
    5367: 4a           	lsr
    5368: 29 33        	and	#$33
    536a: a4 12        	ldy	$12                     ; 0x2012 <main+0x1a80>
    536c: c0 01        	cpy	#$1
    536e: 65 13        	adc	$13                     ; 0x2013 <main+0x1a81>
    5370: a0 01        	ldy	#$1
    5372: b0 02        	bcs	$5376 <__muldf3+0x5a9>
    5374: a0 00        	ldy	#$0
    5376: 84 12        	sty	$12                     ; 0x2012 <main+0x1a80>
    5378: 85 13        	sta	$13                     ; 0x2013 <main+0x1a81>
    537a: a5 22        	lda	$22                     ; 0x2022 <main+0x1a90>
    537c: 4a           	lsr
    537d: 4a           	lsr
    537e: 29 33        	and	#$33
    5380: a4 12        	ldy	$12                     ; 0x2012 <main+0x1a80>
    5382: c0 01        	cpy	#$1
    5384: 65 14        	adc	$14                     ; 0x2014 <main+0x1a82>
    5386: a0 01        	ldy	#$1
    5388: b0 02        	bcs	$538c <__muldf3+0x5bf>
    538a: a0 00        	ldy	#$0
    538c: 84 12        	sty	$12                     ; 0x2012 <main+0x1a80>
    538e: 85 14        	sta	$14                     ; 0x2014 <main+0x1a82>
    5390: a5 1f        	lda	$1f                     ; 0x201f <main+0x1a8d>
    5392: 4a           	lsr
    5393: 4a           	lsr
    5394: 29 33        	and	#$33
    5396: a4 12        	ldy	$12                     ; 0x2012 <main+0x1a80>
    5398: c0 01        	cpy	#$1
    539a: 65 15        	adc	$15                     ; 0x2015 <main+0x1a83>
    539c: a0 01        	ldy	#$1
    539e: b0 02        	bcs	$53a2 <__muldf3+0x5d5>
    53a0: a0 00        	ldy	#$0
    53a2: 84 22        	sty	$22                     ; 0x2022 <main+0x1a90>
    53a4: 85 15        	sta	$15                     ; 0x2015 <main+0x1a83>
    53a6: 8a           	txa
    53a7: 4a           	lsr
    53a8: 85 1f        	sta	$1f                     ; 0x201f <main+0x1a8d>
    53aa: a5 1e        	lda	$1e                     ; 0x201e <main+0x1a8c>
    53ac: 4a           	lsr
    53ad: 85 1c        	sta	$1c                     ; 0x201c <main+0x1a8a>
    53af: a5 1d        	lda	$1d                     ; 0x201d <main+0x1a8b>
    53b1: 4a           	lsr
    53b2: 85 12        	sta	$12                     ; 0x2012 <main+0x1a80>
    53b4: a5 1b        	lda	$1b                     ; 0x201b <main+0x1a89>
    53b6: 4a           	lsr
    53b7: a6 1f        	ldx	$1f                     ; 0x201f <main+0x1a8d>
    53b9: 86 1d        	stx	$1d                     ; 0x201d <main+0x1a8b>
    53bb: 46 1d        	lsr	$1d                     ; 0x201d <main+0x1a8b>
    53bd: a6 1c        	ldx	$1c                     ; 0x201c <main+0x1a8a>
    53bf: 86 1b        	stx	$1b                     ; 0x201b <main+0x1a89>
    53c1: 46 1b        	lsr	$1b                     ; 0x201b <main+0x1a89>
    53c3: 46 12        	lsr	$12                     ; 0x2012 <main+0x1a80>
    53c5: 4a           	lsr
    53c6: 29 33        	and	#$33
    53c8: 85 1c        	sta	$1c                     ; 0x201c <main+0x1a8a>
    53ca: a5 12        	lda	$12                     ; 0x2012 <main+0x1a80>
    53cc: 29 33        	and	#$33
    53ce: aa           	tax
    53cf: a5 1b        	lda	$1b                     ; 0x201b <main+0x1a89>
    53d1: 29 33        	and	#$33
    53d3: 85 12        	sta	$12                     ; 0x2012 <main+0x1a80>
    53d5: a5 1d        	lda	$1d                     ; 0x201d <main+0x1a8b>
    53d7: 29 33        	and	#$33
    53d9: 85 1b        	sta	$1b                     ; 0x201b <main+0x1a89>
    53db: a4 22        	ldy	$22                     ; 0x2022 <main+0x1a90>
    53dd: c0 01        	cpy	#$1
    53df: a5 1c        	lda	$1c                     ; 0x201c <main+0x1a8a>
    53e1: 65 16        	adc	$16                     ; 0x2016 <main+0x1a84>
    53e3: 85 16        	sta	$16                     ; 0x2016 <main+0x1a84>
    53e5: 8a           	txa
    53e6: 65 17        	adc	$17                     ; 0x2017 <main+0x1a85>
    53e8: 85 17        	sta	$17                     ; 0x2017 <main+0x1a85>
    53ea: a5 12        	lda	$12                     ; 0x2012 <main+0x1a80>
    53ec: 65 18        	adc	$18                     ; 0x2018 <main+0x1a86>
    53ee: 85 18        	sta	$18                     ; 0x2018 <main+0x1a86>
    53f0: a5 1b        	lda	$1b                     ; 0x201b <main+0x1a89>
    53f2: 65 19        	adc	$19                     ; 0x2019 <main+0x1a87>
    53f4: 85 19        	sta	$19                     ; 0x2019 <main+0x1a87>
    53f6: 4a           	lsr
    53f7: 85 1b        	sta	$1b                     ; 0x201b <main+0x1a89>
    53f9: a5 18        	lda	$18                     ; 0x2018 <main+0x1a86>
    53fb: 6a           	ror
    53fc: a6 17        	ldx	$17                     ; 0x2017 <main+0x1a85>
    53fe: 86 12        	stx	$12                     ; 0x2012 <main+0x1a80>
    5400: 66 12        	ror	$12                     ; 0x2012 <main+0x1a80>
    5402: a6 16        	ldx	$16                     ; 0x2016 <main+0x1a84>
    5404: 86 1d        	stx	$1d                     ; 0x201d <main+0x1a8b>
    5406: 66 1d        	ror	$1d                     ; 0x201d <main+0x1a8b>
    5408: a6 15        	ldx	$15                     ; 0x2015 <main+0x1a83>
    540a: 86 1e        	stx	$1e                     ; 0x201e <main+0x1a8c>
    540c: 66 1e        	ror	$1e                     ; 0x201e <main+0x1a8c>
    540e: a6 14        	ldx	$14                     ; 0x2014 <main+0x1a82>
    5410: 86 1f        	stx	$1f                     ; 0x201f <main+0x1a8d>
    5412: 66 1f        	ror	$1f                     ; 0x201f <main+0x1a8d>
    5414: a6 13        	ldx	$13                     ; 0x2013 <main+0x1a81>
    5416: 86 23        	stx	$23                     ; 0x2023 <main+0x1a91>
    5418: 66 23        	ror	$23                     ; 0x2023 <main+0x1a91>
    541a: a6 1a        	ldx	$1a                     ; 0x201a <main+0x1a88>
    541c: 86 22        	stx	$22                     ; 0x2022 <main+0x1a90>
    541e: 66 22        	ror	$22                     ; 0x2022 <main+0x1a90>
    5420: a6 22        	ldx	$22                     ; 0x2022 <main+0x1a90>
    5422: 46 1b        	lsr	$1b                     ; 0x201b <main+0x1a89>
    5424: 6a           	ror
    5425: 66 12        	ror	$12                     ; 0x2012 <main+0x1a80>
    5427: 66 1d        	ror	$1d                     ; 0x201d <main+0x1a8b>
    5429: 66 1e        	ror	$1e                     ; 0x201e <main+0x1a8c>
    542b: a4 1f        	ldy	$1f                     ; 0x201f <main+0x1a8d>
    542d: 84 1c        	sty	$1c                     ; 0x201c <main+0x1a8a>
    542f: 66 1c        	ror	$1c                     ; 0x201c <main+0x1a8a>
    5431: 66 23        	ror	$23                     ; 0x2023 <main+0x1a91>
    5433: 86 1f        	stx	$1f                     ; 0x201f <main+0x1a8d>
    5435: 66 1f        	ror	$1f                     ; 0x201f <main+0x1a8d>
    5437: a6 1f        	ldx	$1f                     ; 0x201f <main+0x1a8d>
    5439: 46 1b        	lsr	$1b                     ; 0x201b <main+0x1a89>
    543b: 85 1f        	sta	$1f                     ; 0x201f <main+0x1a8d>
    543d: 66 1f        	ror	$1f                     ; 0x201f <main+0x1a8d>
    543f: 66 12        	ror	$12                     ; 0x2012 <main+0x1a80>
    5441: a5 1d        	lda	$1d                     ; 0x201d <main+0x1a8b>
    5443: 6a           	ror
    5444: 66 1e        	ror	$1e                     ; 0x201e <main+0x1a8c>
    5446: 66 1c        	ror	$1c                     ; 0x201c <main+0x1a8a>
    5448: 66 23        	ror	$23                     ; 0x2023 <main+0x1a91>
    544a: 86 22        	stx	$22                     ; 0x2022 <main+0x1a90>
    544c: 66 22        	ror	$22                     ; 0x2022 <main+0x1a90>
    544e: 46 1b        	lsr	$1b                     ; 0x201b <main+0x1a89>
    5450: a6 1f        	ldx	$1f                     ; 0x201f <main+0x1a8d>
    5452: 86 1d        	stx	$1d                     ; 0x201d <main+0x1a8b>
    5454: 66 1d        	ror	$1d                     ; 0x201d <main+0x1a8b>
    5456: 66 12        	ror	$12                     ; 0x2012 <main+0x1a80>
    5458: 6a           	ror
    5459: 85 1f        	sta	$1f                     ; 0x201f <main+0x1a8d>
    545b: a6 1e        	ldx	$1e                     ; 0x201e <main+0x1a8c>
    545d: 86 8b        	stx	$8b                     ; 0x208b <main+0x1af9>
    545f: 66 8b        	ror	$8b                     ; 0x208b <main+0x1af9>
    5461: 66 1c        	ror	$1c                     ; 0x201c <main+0x1a8a>
    5463: 66 23        	ror	$23                     ; 0x2023 <main+0x1a91>
    5465: a5 22        	lda	$22                     ; 0x2022 <main+0x1a90>
    5467: 6a           	ror
    5468: 18           	clc
    5469: 65 1a        	adc	$1a                     ; 0x201a <main+0x1a88>
    546b: aa           	tax
    546c: a5 23        	lda	$23                     ; 0x2023 <main+0x1a91>
    546e: 65 13        	adc	$13                     ; 0x2013 <main+0x1a81>
    5470: 85 13        	sta	$13                     ; 0x2013 <main+0x1a81>
    5472: a5 1c        	lda	$1c                     ; 0x201c <main+0x1a8a>
    5474: 65 14        	adc	$14                     ; 0x2014 <main+0x1a82>
    5476: 85 14        	sta	$14                     ; 0x2014 <main+0x1a82>
    5478: a5 8b        	lda	$8b                     ; 0x208b <main+0x1af9>
    547a: 65 15        	adc	$15                     ; 0x2015 <main+0x1a83>
    547c: 85 15        	sta	$15                     ; 0x2015 <main+0x1a83>
    547e: a5 1f        	lda	$1f                     ; 0x201f <main+0x1a8d>
    5480: 65 16        	adc	$16                     ; 0x2016 <main+0x1a84>
    5482: 85 16        	sta	$16                     ; 0x2016 <main+0x1a84>
    5484: a5 12        	lda	$12                     ; 0x2012 <main+0x1a80>
    5486: 65 17        	adc	$17                     ; 0x2017 <main+0x1a85>
    5488: 85 17        	sta	$17                     ; 0x2017 <main+0x1a85>
    548a: a5 1d        	lda	$1d                     ; 0x201d <main+0x1a8b>
    548c: 65 18        	adc	$18                     ; 0x2018 <main+0x1a86>
    548e: 85 18        	sta	$18                     ; 0x2018 <main+0x1a86>
    5490: a5 1b        	lda	$1b                     ; 0x201b <main+0x1a89>
    5492: 65 19        	adc	$19                     ; 0x2019 <main+0x1a87>
    5494: 85 19        	sta	$19                     ; 0x2019 <main+0x1a87>
    5496: 8a           	txa
    5497: 29 0f        	and	#$f
    5499: 85 12        	sta	$12                     ; 0x2012 <main+0x1a80>
    549b: 85 1a        	sta	$1a                     ; 0x201a <main+0x1a88>
    549d: a5 13        	lda	$13                     ; 0x2013 <main+0x1a81>
    549f: 29 0f        	and	#$f
    54a1: 85 13        	sta	$13                     ; 0x2013 <main+0x1a81>
    54a3: 85 1e        	sta	$1e                     ; 0x201e <main+0x1a8c>
    54a5: a5 14        	lda	$14                     ; 0x2014 <main+0x1a82>
    54a7: 29 0f        	and	#$f
    54a9: 85 14        	sta	$14                     ; 0x2014 <main+0x1a82>
    54ab: 85 1d        	sta	$1d                     ; 0x201d <main+0x1a8b>
    54ad: a5 15        	lda	$15                     ; 0x2015 <main+0x1a83>
    54af: 29 0f        	and	#$f
    54b1: 85 15        	sta	$15                     ; 0x2015 <main+0x1a83>
    54b3: 85 1c        	sta	$1c                     ; 0x201c <main+0x1a8a>
    54b5: a5 16        	lda	$16                     ; 0x2016 <main+0x1a84>
    54b7: 29 0f        	and	#$f
    54b9: 85 16        	sta	$16                     ; 0x2016 <main+0x1a84>
    54bb: 85 1f        	sta	$1f                     ; 0x201f <main+0x1a8d>
    54bd: a5 17        	lda	$17                     ; 0x2017 <main+0x1a85>
    54bf: 29 0f        	and	#$f
    54c1: 85 17        	sta	$17                     ; 0x2017 <main+0x1a85>
    54c3: aa           	tax
    54c4: a5 18        	lda	$18                     ; 0x2018 <main+0x1a86>
    54c6: 29 0f        	and	#$f
    54c8: 85 18        	sta	$18                     ; 0x2018 <main+0x1a86>
    54ca: 85 1b        	sta	$1b                     ; 0x201b <main+0x1a89>
    54cc: a5 19        	lda	$19                     ; 0x2019 <main+0x1a87>
    54ce: 29 0f        	and	#$f
    54d0: 85 19        	sta	$19                     ; 0x2019 <main+0x1a87>
    54d2: 18           	clc
    54d3: a5 1a        	lda	$1a                     ; 0x201a <main+0x1a88>
    54d5: 69 00        	adc	#$0
    54d7: 85 1a        	sta	$1a                     ; 0x201a <main+0x1a88>
    54d9: a5 1e        	lda	$1e                     ; 0x201e <main+0x1a8c>
    54db: 65 12        	adc	$12                     ; 0x2012 <main+0x1a80>
    54dd: 85 1e        	sta	$1e                     ; 0x201e <main+0x1a8c>
    54df: a5 1d        	lda	$1d                     ; 0x201d <main+0x1a8b>
    54e1: 65 13        	adc	$13                     ; 0x2013 <main+0x1a81>
    54e3: 85 1d        	sta	$1d                     ; 0x201d <main+0x1a8b>
    54e5: a5 1c        	lda	$1c                     ; 0x201c <main+0x1a8a>
    54e7: 65 14        	adc	$14                     ; 0x2014 <main+0x1a82>
    54e9: 85 1c        	sta	$1c                     ; 0x201c <main+0x1a8a>
    54eb: a5 1f        	lda	$1f                     ; 0x201f <main+0x1a8d>
    54ed: 65 15        	adc	$15                     ; 0x2015 <main+0x1a83>
    54ef: 85 1f        	sta	$1f                     ; 0x201f <main+0x1a8d>
    54f1: 8a           	txa
    54f2: 65 16        	adc	$16                     ; 0x2016 <main+0x1a84>
    54f4: aa           	tax
    54f5: a5 1b        	lda	$1b                     ; 0x201b <main+0x1a89>
    54f7: 65 17        	adc	$17                     ; 0x2017 <main+0x1a85>
    54f9: 85 1b        	sta	$1b                     ; 0x201b <main+0x1a89>
    54fb: a5 19        	lda	$19                     ; 0x2019 <main+0x1a87>
    54fd: 65 18        	adc	$18                     ; 0x2018 <main+0x1a86>
    54ff: 85 18        	sta	$18                     ; 0x2018 <main+0x1a86>
    5501: a5 1a        	lda	$1a                     ; 0x201a <main+0x1a88>
    5503: 85 12        	sta	$12                     ; 0x2012 <main+0x1a80>
    5505: a4 1e        	ldy	$1e                     ; 0x201e <main+0x1a8c>
    5507: 84 13        	sty	$13                     ; 0x2013 <main+0x1a81>
    5509: a4 1d        	ldy	$1d                     ; 0x201d <main+0x1a8b>
    550b: 84 14        	sty	$14                     ; 0x2014 <main+0x1a82>
    550d: a4 1c        	ldy	$1c                     ; 0x201c <main+0x1a8a>
    550f: 84 15        	sty	$15                     ; 0x2015 <main+0x1a83>
    5511: a4 1f        	ldy	$1f                     ; 0x201f <main+0x1a8d>
    5513: 84 19        	sty	$19                     ; 0x2019 <main+0x1a87>
    5515: a4 1f        	ldy	$1f                     ; 0x201f <main+0x1a8d>
    5517: 84 16        	sty	$16                     ; 0x2016 <main+0x1a84>
    5519: 7a           	ply
    551a: 86 17        	stx	$17                     ; 0x2017 <main+0x1a85>
    551c: 18           	clc
    551d: 69 00        	adc	#$0
    551f: 85 1f        	sta	$1f                     ; 0x201f <main+0x1a8d>
    5521: a5 1e        	lda	$1e                     ; 0x201e <main+0x1a8c>
    5523: 69 00        	adc	#$0
    5525: 85 1e        	sta	$1e                     ; 0x201e <main+0x1a8c>
    5527: a5 1d        	lda	$1d                     ; 0x201d <main+0x1a8b>
    5529: 65 12        	adc	$12                     ; 0x2012 <main+0x1a80>
    552b: 85 1d        	sta	$1d                     ; 0x201d <main+0x1a8b>
    552d: a5 1c        	lda	$1c                     ; 0x201c <main+0x1a8a>
    552f: 65 13        	adc	$13                     ; 0x2013 <main+0x1a81>
    5531: 85 1c        	sta	$1c                     ; 0x201c <main+0x1a8a>
    5533: a5 19        	lda	$19                     ; 0x2019 <main+0x1a87>
    5535: 65 14        	adc	$14                     ; 0x2014 <main+0x1a82>
    5537: 85 1a        	sta	$1a                     ; 0x201a <main+0x1a88>
    5539: 8a           	txa
    553a: 65 15        	adc	$15                     ; 0x2015 <main+0x1a83>
    553c: 85 19        	sta	$19                     ; 0x2019 <main+0x1a87>
    553e: a5 1b        	lda	$1b                     ; 0x201b <main+0x1a89>
    5540: 65 16        	adc	$16                     ; 0x2016 <main+0x1a84>
    5542: 85 1b        	sta	$1b                     ; 0x201b <main+0x1a89>
    5544: a5 18        	lda	$18                     ; 0x2018 <main+0x1a86>
    5546: 65 17        	adc	$17                     ; 0x2017 <main+0x1a85>
    5548: 85 16        	sta	$16                     ; 0x2016 <main+0x1a84>
    554a: a5 1f        	lda	$1f                     ; 0x201f <main+0x1a8d>
    554c: 85 12        	sta	$12                     ; 0x2012 <main+0x1a80>
    554e: 18           	clc
    554f: 69 00        	adc	#$0
    5551: a5 1e        	lda	$1e                     ; 0x201e <main+0x1a8c>
    5553: 85 13        	sta	$13                     ; 0x2013 <main+0x1a81>
    5555: 69 00        	adc	#$0
    5557: a5 1d        	lda	$1d                     ; 0x201d <main+0x1a8b>
    5559: 85 14        	sta	$14                     ; 0x2014 <main+0x1a82>
    555b: 69 00        	adc	#$0
    555d: a5 1c        	lda	$1c                     ; 0x201c <main+0x1a8a>
    555f: 85 15        	sta	$15                     ; 0x2015 <main+0x1a83>
    5561: 69 00        	adc	#$0
    5563: a5 1a        	lda	$1a                     ; 0x201a <main+0x1a88>
    5565: 65 12        	adc	$12                     ; 0x2012 <main+0x1a80>
    5567: a5 19        	lda	$19                     ; 0x2019 <main+0x1a87>
    5569: 65 13        	adc	$13                     ; 0x2013 <main+0x1a81>
    556b: a5 1b        	lda	$1b                     ; 0x201b <main+0x1a89>
    556d: 65 14        	adc	$14                     ; 0x2014 <main+0x1a82>
    556f: a5 16        	lda	$16                     ; 0x2016 <main+0x1a84>
    5571: 65 15        	adc	$15                     ; 0x2015 <main+0x1a83>
    5573: 85 12        	sta	$12                     ; 0x2012 <main+0x1a80>
    5575: a9 40        	lda	#$40
    5577: 38           	sec
    5578: e5 12        	sbc	$12                     ; 0x2012 <main+0x1a80>
    557a: aa           	tax
    557b: a9 00        	lda	#$0
    557d: e9 00        	sbc	#$0
    557f: 85 8b        	sta	$8b                     ; 0x208b <main+0x1af9>
    5581: 64 17        	stz	$17                     ; 0x2017 <main+0x1a85>
    5583: 8a           	txa
    5584: 86 91        	stx	$91                     ; 0x2091 <main+0x1aff>
    5586: 18           	clc
    5587: 69 f5        	adc	#$f5
    5589: 85 18        	sta	$18                     ; 0x2018 <main+0x1a86>
    558b: a6 89        	ldx	$89                     ; 0x2089 <main+0x1af7>
    558d: 86 12        	stx	$12                     ; 0x2012 <main+0x1a80>
    558f: a6 8c        	ldx	$8c                     ; 0x208c <main+0x1afa>
    5591: 86 13        	stx	$13                     ; 0x2013 <main+0x1a81>
    5593: a6 8d        	ldx	$8d                     ; 0x208d <main+0x1afb>
    5595: 86 14        	stx	$14                     ; 0x2014 <main+0x1a82>
    5597: a6 9d        	ldx	$9d                     ; 0x209d <main+0x1b0b>
    5599: 86 15        	stx	$15                     ; 0x2015 <main+0x1a83>
    559b: a6 98        	ldx	$98                     ; 0x2098 <main+0x1b06>
    559d: 86 16        	stx	$16                     ; 0x2016 <main+0x1a84>
    559f: a6 8a        	ldx	$8a                     ; 0x208a <main+0x1af8>
    55a1: 98           	tya
    55a2: 20 b8 4a     	jsr	$4ab8 <__ashldi3>
    55a5: a8           	tay
    55a6: 86 18        	stx	$18                     ; 0x2018 <main+0x1a86>
    55a8: a6 12        	ldx	$12                     ; 0x2012 <main+0x1a80>
    55aa: 86 89        	stx	$89                     ; 0x2089 <main+0x1af7>
    55ac: a6 13        	ldx	$13                     ; 0x2013 <main+0x1a81>
    55ae: 86 8a        	stx	$8a                     ; 0x208a <main+0x1af8>
    55b0: a6 14        	ldx	$14                     ; 0x2014 <main+0x1a82>
    55b2: 86 95        	stx	$95                     ; 0x2095 <main+0x1b03>
    55b4: a6 15        	ldx	$15                     ; 0x2015 <main+0x1a83>
    55b6: 86 8c        	stx	$8c                     ; 0x208c <main+0x1afa>
    55b8: a6 16        	ldx	$16                     ; 0x2016 <main+0x1a84>
    55ba: 86 98        	stx	$98                     ; 0x2098 <main+0x1b06>
    55bc: a9 0c        	lda	#$c
    55be: 38           	sec
    55bf: e5 91        	sbc	$91                     ; 0x2091 <main+0x1aff>
    55c1: 85 a1        	sta	$a1                     ; 0x20a1 <main+0x1b0f>
    55c3: a6 18        	ldx	$18                     ; 0x2018 <main+0x1a86>
    55c5: 86 19        	stx	$19                     ; 0x2019 <main+0x1a87>
    55c7: a9 00        	lda	#$0
    55c9: e5 8b        	sbc	$8b                     ; 0x208b <main+0x1af9>
    55cb: 85 a0        	sta	$a0                     ; 0x20a0 <main+0x1b0e>
    55cd: a6 9c        	ldx	$9c                     ; 0x209c <main+0x1b0a>
    55cf: f0 03        	beq	$55d4 <__muldf3+0x807>
    55d1: 4c 33 5b     	jmp	$5b33 <__muldf3+0xd66>
    55d4: a6 94        	ldx	$94                     ; 0x2094 <main+0x1b02>
    55d6: e0 10        	cpx	#$10
    55d8: d0 28        	bne	$5602 <__muldf3+0x835>
    55da: a5 90        	lda	$90                     ; 0x2090 <main+0x1afe>
    55dc: f0 03        	beq	$55e1 <__muldf3+0x814>
    55de: 4c d5 5a     	jmp	$5ad5 <__muldf3+0xd08>
    55e1: a5 8f        	lda	$8f                     ; 0x208f <main+0x1afd>
    55e3: f0 03        	beq	$55e8 <__muldf3+0x81b>
    55e5: 4c e2 5a     	jmp	$5ae2 <__muldf3+0xd15>
    55e8: a5 8e        	lda	$8e                     ; 0x208e <main+0x1afc>
    55ea: f0 03        	beq	$55ef <__muldf3+0x822>
    55ec: 4c f4 5a     	jmp	$5af4 <__muldf3+0xd27>
    55ef: a5 93        	lda	$93                     ; 0x2093 <main+0x1b01>
    55f1: f0 03        	beq	$55f6 <__muldf3+0x829>
    55f3: 4c 28 5b     	jmp	$5b28 <__muldf3+0xd5b>
    55f6: a5 92        	lda	$92                     ; 0x2092 <main+0x1b00>
    55f8: f0 03        	beq	$55fd <__muldf3+0x830>
    55fa: 4c 31 5b     	jmp	$5b31 <__muldf3+0xd64>
    55fd: a6 97        	ldx	$97                     ; 0x2097 <main+0x1b05>
    55ff: 4c 33 5b     	jmp	$5b33 <__muldf3+0xd66>
    5602: e0 10        	cpx	#$10
    5604: 90 03        	bcc	$5609 <__muldf3+0x83c>
    5606: 4c 3a 5b     	jmp	$5b3a <__muldf3+0xd6d>
    5609: 84 9d        	sty	$9d                     ; 0x209d <main+0x1b0b>
    560b: a5 19        	lda	$19                     ; 0x2019 <main+0x1a87>
    560d: 85 a3        	sta	$a3                     ; 0x20a3 <main+0x1b11>
    560f: a6 17        	ldx	$17                     ; 0x2017 <main+0x1a85>
    5611: 86 9c        	stx	$9c                     ; 0x209c <main+0x1b0a>
    5613: a6 96        	ldx	$96                     ; 0x2096 <main+0x1b04>
    5615: 8a           	txa
    5616: 4a           	lsr
    5617: 85 12        	sta	$12                     ; 0x2012 <main+0x1a80>
    5619: a5 90        	lda	$90                     ; 0x2090 <main+0x1afe>
    561b: 6a           	ror
    561c: 85 13        	sta	$13                     ; 0x2013 <main+0x1a81>
    561e: a5 8f        	lda	$8f                     ; 0x208f <main+0x1afd>
    5620: 6a           	ror
    5621: 85 14        	sta	$14                     ; 0x2014 <main+0x1a82>
    5623: a5 8e        	lda	$8e                     ; 0x208e <main+0x1afc>
    5625: 6a           	ror
    5626: 85 15        	sta	$15                     ; 0x2015 <main+0x1a83>
    5628: a5 93        	lda	$93                     ; 0x2093 <main+0x1b01>
    562a: 6a           	ror
    562b: 85 16        	sta	$16                     ; 0x2016 <main+0x1a84>
    562d: a5 92        	lda	$92                     ; 0x2092 <main+0x1b00>
    562f: 6a           	ror
    5630: 85 17        	sta	$17                     ; 0x2017 <main+0x1a85>
    5632: a5 97        	lda	$97                     ; 0x2097 <main+0x1b05>
    5634: 85 91        	sta	$91                     ; 0x2091 <main+0x1aff>
    5636: 6a           	ror
    5637: 85 18        	sta	$18                     ; 0x2018 <main+0x1a86>
    5639: a5 91        	lda	$91                     ; 0x2091 <main+0x1aff>
    563b: 05 18        	ora	$18                     ; 0x2018 <main+0x1a86>
    563d: 85 1b        	sta	$1b                     ; 0x201b <main+0x1a89>
    563f: a5 92        	lda	$92                     ; 0x2092 <main+0x1b00>
    5641: 05 17        	ora	$17                     ; 0x2017 <main+0x1a85>
    5643: 85 1a        	sta	$1a                     ; 0x201a <main+0x1a88>
    5645: a5 93        	lda	$93                     ; 0x2093 <main+0x1b01>
    5647: 05 16        	ora	$16                     ; 0x2016 <main+0x1a84>
    5649: 85 1e        	sta	$1e                     ; 0x201e <main+0x1a8c>
    564b: a5 8e        	lda	$8e                     ; 0x208e <main+0x1afc>
    564d: 05 15        	ora	$15                     ; 0x2015 <main+0x1a83>
    564f: 85 19        	sta	$19                     ; 0x2019 <main+0x1a87>
    5651: a5 8f        	lda	$8f                     ; 0x208f <main+0x1afd>
    5653: 05 14        	ora	$14                     ; 0x2014 <main+0x1a82>
    5655: 85 1d        	sta	$1d                     ; 0x201d <main+0x1a8b>
    5657: a5 90        	lda	$90                     ; 0x2090 <main+0x1afe>
    5659: 05 13        	ora	$13                     ; 0x2013 <main+0x1a81>
    565b: 85 1c        	sta	$1c                     ; 0x201c <main+0x1a8a>
    565d: 8a           	txa
    565e: 05 12        	ora	$12                     ; 0x2012 <main+0x1a80>
    5660: 85 1f        	sta	$1f                     ; 0x201f <main+0x1a8d>
    5662: a4 1c        	ldy	$1c                     ; 0x201c <main+0x1a8a>
    5664: 84 12        	sty	$12                     ; 0x2012 <main+0x1a80>
    5666: 4a           	lsr
    5667: 66 12        	ror	$12                     ; 0x2012 <main+0x1a80>
    5669: a4 1d        	ldy	$1d                     ; 0x201d <main+0x1a8b>
    566b: 84 13        	sty	$13                     ; 0x2013 <main+0x1a81>
    566d: 66 13        	ror	$13                     ; 0x2013 <main+0x1a81>
    566f: a4 19        	ldy	$19                     ; 0x2019 <main+0x1a87>
    5671: 84 14        	sty	$14                     ; 0x2014 <main+0x1a82>
    5673: 66 14        	ror	$14                     ; 0x2014 <main+0x1a82>
    5675: a4 1e        	ldy	$1e                     ; 0x201e <main+0x1a8c>
    5677: 84 15        	sty	$15                     ; 0x2015 <main+0x1a83>
    5679: 66 15        	ror	$15                     ; 0x2015 <main+0x1a83>
    567b: a4 1a        	ldy	$1a                     ; 0x201a <main+0x1a88>
    567d: 84 16        	sty	$16                     ; 0x2016 <main+0x1a84>
    567f: 66 16        	ror	$16                     ; 0x2016 <main+0x1a84>
    5681: a4 1b        	ldy	$1b                     ; 0x201b <main+0x1a89>
    5683: 84 17        	sty	$17                     ; 0x2017 <main+0x1a85>
    5685: 66 17        	ror	$17                     ; 0x2017 <main+0x1a85>
    5687: 4a           	lsr
    5688: 66 12        	ror	$12                     ; 0x2012 <main+0x1a80>
    568a: 66 13        	ror	$13                     ; 0x2013 <main+0x1a81>
    568c: 66 14        	ror	$14                     ; 0x2014 <main+0x1a82>
    568e: 66 15        	ror	$15                     ; 0x2015 <main+0x1a83>
    5690: 66 16        	ror	$16                     ; 0x2016 <main+0x1a84>
    5692: 66 17        	ror	$17                     ; 0x2017 <main+0x1a85>
    5694: 85 18        	sta	$18                     ; 0x2018 <main+0x1a86>
    5696: a5 1b        	lda	$1b                     ; 0x201b <main+0x1a89>
    5698: 05 17        	ora	$17                     ; 0x2017 <main+0x1a85>
    569a: 85 1b        	sta	$1b                     ; 0x201b <main+0x1a89>
    569c: a5 1a        	lda	$1a                     ; 0x201a <main+0x1a88>
    569e: 05 16        	ora	$16                     ; 0x2016 <main+0x1a84>
    56a0: 85 1a        	sta	$1a                     ; 0x201a <main+0x1a88>
    56a2: a5 1e        	lda	$1e                     ; 0x201e <main+0x1a8c>
    56a4: 05 15        	ora	$15                     ; 0x2015 <main+0x1a83>
    56a6: 85 1e        	sta	$1e                     ; 0x201e <main+0x1a8c>
    56a8: a5 19        	lda	$19                     ; 0x2019 <main+0x1a87>
    56aa: 05 14        	ora	$14                     ; 0x2014 <main+0x1a82>
    56ac: 85 19        	sta	$19                     ; 0x2019 <main+0x1a87>
    56ae: a5 1d        	lda	$1d                     ; 0x201d <main+0x1a8b>
    56b0: 05 13        	ora	$13                     ; 0x2013 <main+0x1a81>
    56b2: 85 1d        	sta	$1d                     ; 0x201d <main+0x1a8b>
    56b4: a5 1c        	lda	$1c                     ; 0x201c <main+0x1a8a>
    56b6: 05 12        	ora	$12                     ; 0x2012 <main+0x1a80>
    56b8: 85 12        	sta	$12                     ; 0x2012 <main+0x1a80>
    56ba: a5 1f        	lda	$1f                     ; 0x201f <main+0x1a8d>
    56bc: 05 18        	ora	$18                     ; 0x2018 <main+0x1a86>
    56be: 85 1c        	sta	$1c                     ; 0x201c <main+0x1a8a>
    56c0: 85 18        	sta	$18                     ; 0x2018 <main+0x1a86>
    56c2: a5 12        	lda	$12                     ; 0x2012 <main+0x1a80>
    56c4: 85 1f        	sta	$1f                     ; 0x201f <main+0x1a8d>
    56c6: 46 18        	lsr	$18                     ; 0x2018 <main+0x1a86>
    56c8: 66 12        	ror	$12                     ; 0x2012 <main+0x1a80>
    56ca: a4 1d        	ldy	$1d                     ; 0x201d <main+0x1a8b>
    56cc: 84 13        	sty	$13                     ; 0x2013 <main+0x1a81>
    56ce: 66 13        	ror	$13                     ; 0x2013 <main+0x1a81>
    56d0: a4 19        	ldy	$19                     ; 0x2019 <main+0x1a87>
    56d2: 84 14        	sty	$14                     ; 0x2014 <main+0x1a82>
    56d4: 66 14        	ror	$14                     ; 0x2014 <main+0x1a82>
    56d6: a4 1e        	ldy	$1e                     ; 0x201e <main+0x1a8c>
    56d8: 84 15        	sty	$15                     ; 0x2015 <main+0x1a83>
    56da: 66 15        	ror	$15                     ; 0x2015 <main+0x1a83>
    56dc: a4 1a        	ldy	$1a                     ; 0x201a <main+0x1a88>
    56de: 84 16        	sty	$16                     ; 0x2016 <main+0x1a84>
    56e0: 66 16        	ror	$16                     ; 0x2016 <main+0x1a84>
    56e2: a4 1b        	ldy	$1b                     ; 0x201b <main+0x1a89>
    56e4: 84 17        	sty	$17                     ; 0x2017 <main+0x1a85>
    56e6: 66 17        	ror	$17                     ; 0x2017 <main+0x1a85>
    56e8: 46 18        	lsr	$18                     ; 0x2018 <main+0x1a86>
    56ea: 66 12        	ror	$12                     ; 0x2012 <main+0x1a80>
    56ec: 66 13        	ror	$13                     ; 0x2013 <main+0x1a81>
    56ee: 66 14        	ror	$14                     ; 0x2014 <main+0x1a82>
    56f0: 66 15        	ror	$15                     ; 0x2015 <main+0x1a83>
    56f2: 66 16        	ror	$16                     ; 0x2016 <main+0x1a84>
    56f4: 66 17        	ror	$17                     ; 0x2017 <main+0x1a85>
    56f6: 46 18        	lsr	$18                     ; 0x2018 <main+0x1a86>
    56f8: 66 12        	ror	$12                     ; 0x2012 <main+0x1a80>
    56fa: 66 13        	ror	$13                     ; 0x2013 <main+0x1a81>
    56fc: 66 14        	ror	$14                     ; 0x2014 <main+0x1a82>
    56fe: 66 15        	ror	$15                     ; 0x2015 <main+0x1a83>
    5700: 66 16        	ror	$16                     ; 0x2016 <main+0x1a84>
    5702: 66 17        	ror	$17                     ; 0x2017 <main+0x1a85>
    5704: 46 18        	lsr	$18                     ; 0x2018 <main+0x1a86>
    5706: 66 12        	ror	$12                     ; 0x2012 <main+0x1a80>
    5708: 66 13        	ror	$13                     ; 0x2013 <main+0x1a81>
    570a: 66 14        	ror	$14                     ; 0x2014 <main+0x1a82>
    570c: 66 15        	ror	$15                     ; 0x2015 <main+0x1a83>
    570e: 66 16        	ror	$16                     ; 0x2016 <main+0x1a84>
    5710: 66 17        	ror	$17                     ; 0x2017 <main+0x1a85>
    5712: a5 1b        	lda	$1b                     ; 0x201b <main+0x1a89>
    5714: 05 17        	ora	$17                     ; 0x2017 <main+0x1a85>
    5716: 85 1b        	sta	$1b                     ; 0x201b <main+0x1a89>
    5718: a5 1a        	lda	$1a                     ; 0x201a <main+0x1a88>
    571a: 05 16        	ora	$16                     ; 0x2016 <main+0x1a84>
    571c: 85 1a        	sta	$1a                     ; 0x201a <main+0x1a88>
    571e: a5 1e        	lda	$1e                     ; 0x201e <main+0x1a8c>
    5720: 05 15        	ora	$15                     ; 0x2015 <main+0x1a83>
    5722: 85 15        	sta	$15                     ; 0x2015 <main+0x1a83>
    5724: a5 19        	lda	$19                     ; 0x2019 <main+0x1a87>
    5726: 05 14        	ora	$14                     ; 0x2014 <main+0x1a82>
    5728: 85 17        	sta	$17                     ; 0x2017 <main+0x1a85>
    572a: a5 1d        	lda	$1d                     ; 0x201d <main+0x1a8b>
    572c: 05 13        	ora	$13                     ; 0x2013 <main+0x1a81>
    572e: 85 14        	sta	$14                     ; 0x2014 <main+0x1a82>
    5730: a5 1f        	lda	$1f                     ; 0x201f <main+0x1a8d>
    5732: 05 12        	ora	$12                     ; 0x2012 <main+0x1a80>
    5734: 85 1d        	sta	$1d                     ; 0x201d <main+0x1a8b>
    5736: a5 1c        	lda	$1c                     ; 0x201c <main+0x1a8a>
    5738: 05 18        	ora	$18                     ; 0x2018 <main+0x1a86>
    573a: 85 18        	sta	$18                     ; 0x2018 <main+0x1a86>
    573c: a5 1b        	lda	$1b                     ; 0x201b <main+0x1a89>
    573e: 05 1a        	ora	$1a                     ; 0x201a <main+0x1a88>
    5740: 85 16        	sta	$16                     ; 0x2016 <main+0x1a84>
    5742: a5 15        	lda	$15                     ; 0x2015 <main+0x1a83>
    5744: 85 13        	sta	$13                     ; 0x2013 <main+0x1a81>
    5746: 05 17        	ora	$17                     ; 0x2017 <main+0x1a85>
    5748: 85 19        	sta	$19                     ; 0x2019 <main+0x1a87>
    574a: a5 14        	lda	$14                     ; 0x2014 <main+0x1a82>
    574c: 05 1d        	ora	$1d                     ; 0x201d <main+0x1a8b>
    574e: 85 1b        	sta	$1b                     ; 0x201b <main+0x1a89>
    5750: a5 18        	lda	$18                     ; 0x2018 <main+0x1a86>
    5752: 85 12        	sta	$12                     ; 0x2012 <main+0x1a80>
    5754: 85 1c        	sta	$1c                     ; 0x201c <main+0x1a8a>
    5756: a5 16        	lda	$16                     ; 0x2016 <main+0x1a84>
    5758: 05 19        	ora	$19                     ; 0x2019 <main+0x1a87>
    575a: 85 18        	sta	$18                     ; 0x2018 <main+0x1a86>
    575c: a5 1b        	lda	$1b                     ; 0x201b <main+0x1a89>
    575e: 85 15        	sta	$15                     ; 0x2015 <main+0x1a83>
    5760: 05 12        	ora	$12                     ; 0x2012 <main+0x1a80>
    5762: 85 16        	sta	$16                     ; 0x2016 <main+0x1a84>
    5764: 85 1e        	sta	$1e                     ; 0x201e <main+0x1a8c>
    5766: a5 18        	lda	$18                     ; 0x2018 <main+0x1a86>
    5768: 05 16        	ora	$16                     ; 0x2016 <main+0x1a84>
    576a: 85 1b        	sta	$1b                     ; 0x201b <main+0x1a89>
    576c: 4a           	lsr
    576d: 29 55        	and	#$55
    576f: 85 16        	sta	$16                     ; 0x2016 <main+0x1a84>
    5771: a5 1a        	lda	$1a                     ; 0x201a <main+0x1a88>
    5773: 05 13        	ora	$13                     ; 0x2013 <main+0x1a81>
    5775: 85 18        	sta	$18                     ; 0x2018 <main+0x1a86>
    5777: a5 17        	lda	$17                     ; 0x2017 <main+0x1a85>
    5779: 05 14        	ora	$14                     ; 0x2014 <main+0x1a82>
    577b: 85 17        	sta	$17                     ; 0x2017 <main+0x1a85>
    577d: a5 1d        	lda	$1d                     ; 0x201d <main+0x1a8b>
    577f: 05 12        	ora	$12                     ; 0x2012 <main+0x1a80>
    5781: 85 1a        	sta	$1a                     ; 0x201a <main+0x1a88>
    5783: a5 18        	lda	$18                     ; 0x2018 <main+0x1a86>
    5785: 05 17        	ora	$17                     ; 0x2017 <main+0x1a85>
    5787: 85 14        	sta	$14                     ; 0x2014 <main+0x1a82>
    5789: a5 1a        	lda	$1a                     ; 0x201a <main+0x1a88>
    578b: 85 13        	sta	$13                     ; 0x2013 <main+0x1a81>
    578d: 85 1d        	sta	$1d                     ; 0x201d <main+0x1a8b>
    578f: a5 14        	lda	$14                     ; 0x2014 <main+0x1a82>
    5791: 05 13        	ora	$13                     ; 0x2013 <main+0x1a81>
    5793: 85 1a        	sta	$1a                     ; 0x201a <main+0x1a88>
    5795: 4a           	lsr
    5796: 29 55        	and	#$55
    5798: 85 14        	sta	$14                     ; 0x2014 <main+0x1a82>
    579a: a5 19        	lda	$19                     ; 0x2019 <main+0x1a87>
    579c: 05 15        	ora	$15                     ; 0x2015 <main+0x1a83>
    579e: 05 12        	ora	$12                     ; 0x2012 <main+0x1a80>
    57a0: 85 1f        	sta	$1f                     ; 0x201f <main+0x1a8d>
    57a2: 4a           	lsr
    57a3: 29 55        	and	#$55
    57a5: 85 12        	sta	$12                     ; 0x2012 <main+0x1a80>
    57a7: a5 17        	lda	$17                     ; 0x2017 <main+0x1a85>
    57a9: 05 13        	ora	$13                     ; 0x2013 <main+0x1a81>
    57ab: 85 19        	sta	$19                     ; 0x2019 <main+0x1a87>
    57ad: 4a           	lsr
    57ae: 29 55        	and	#$55
    57b0: 85 13        	sta	$13                     ; 0x2013 <main+0x1a81>
    57b2: a5 1e        	lda	$1e                     ; 0x201e <main+0x1a8c>
    57b4: 4a           	lsr
    57b5: 29 55        	and	#$55
    57b7: 85 15        	sta	$15                     ; 0x2015 <main+0x1a83>
    57b9: a5 1d        	lda	$1d                     ; 0x201d <main+0x1a8b>
    57bb: 4a           	lsr
    57bc: 29 55        	and	#$55
    57be: 85 17        	sta	$17                     ; 0x2017 <main+0x1a85>
    57c0: a5 1c        	lda	$1c                     ; 0x201c <main+0x1a8a>
    57c2: 4a           	lsr
    57c3: 29 55        	and	#$55
    57c5: 85 18        	sta	$18                     ; 0x2018 <main+0x1a86>
    57c7: 38           	sec
    57c8: a5 1b        	lda	$1b                     ; 0x201b <main+0x1a89>
    57ca: e5 16        	sbc	$16                     ; 0x2016 <main+0x1a84>
    57cc: 85 1b        	sta	$1b                     ; 0x201b <main+0x1a89>
    57ce: a5 1a        	lda	$1a                     ; 0x201a <main+0x1a88>
    57d0: e5 14        	sbc	$14                     ; 0x2014 <main+0x1a82>
    57d2: 85 14        	sta	$14                     ; 0x2014 <main+0x1a82>
    57d4: a5 1f        	lda	$1f                     ; 0x201f <main+0x1a8d>
    57d6: e5 12        	sbc	$12                     ; 0x2012 <main+0x1a80>
    57d8: 85 1a        	sta	$1a                     ; 0x201a <main+0x1a88>
    57da: a5 19        	lda	$19                     ; 0x2019 <main+0x1a87>
    57dc: e5 13        	sbc	$13                     ; 0x2013 <main+0x1a81>
    57de: 85 16        	sta	$16                     ; 0x2016 <main+0x1a84>
    57e0: a5 1e        	lda	$1e                     ; 0x201e <main+0x1a8c>
    57e2: e5 15        	sbc	$15                     ; 0x2015 <main+0x1a83>
    57e4: 85 19        	sta	$19                     ; 0x2019 <main+0x1a87>
    57e6: a5 1d        	lda	$1d                     ; 0x201d <main+0x1a8b>
    57e8: e5 17        	sbc	$17                     ; 0x2017 <main+0x1a85>
    57ea: 85 17        	sta	$17                     ; 0x2017 <main+0x1a85>
    57ec: a5 1c        	lda	$1c                     ; 0x201c <main+0x1a8a>
    57ee: e5 18        	sbc	$18                     ; 0x2018 <main+0x1a86>
    57f0: 85 18        	sta	$18                     ; 0x2018 <main+0x1a86>
    57f2: a9 00        	lda	#$0
    57f4: e9 00        	sbc	#$0
    57f6: 85 1c        	sta	$1c                     ; 0x201c <main+0x1a8a>
    57f8: a5 1b        	lda	$1b                     ; 0x201b <main+0x1a89>
    57fa: 29 33        	and	#$33
    57fc: 85 12        	sta	$12                     ; 0x2012 <main+0x1a80>
    57fe: a5 14        	lda	$14                     ; 0x2014 <main+0x1a82>
    5800: 85 23        	sta	$23                     ; 0x2023 <main+0x1a91>
    5802: 29 33        	and	#$33
    5804: 85 13        	sta	$13                     ; 0x2013 <main+0x1a81>
    5806: a5 1a        	lda	$1a                     ; 0x201a <main+0x1a88>
    5808: 85 22        	sta	$22                     ; 0x2022 <main+0x1a90>
    580a: 29 33        	and	#$33
    580c: 85 14        	sta	$14                     ; 0x2014 <main+0x1a82>
    580e: a4 16        	ldy	$16                     ; 0x2016 <main+0x1a84>
    5810: 84 1f        	sty	$1f                     ; 0x201f <main+0x1a8d>
    5812: a5 16        	lda	$16                     ; 0x2016 <main+0x1a84>
    5814: 29 33        	and	#$33
    5816: 85 15        	sta	$15                     ; 0x2015 <main+0x1a83>
    5818: a5 19        	lda	$19                     ; 0x2019 <main+0x1a87>
    581a: 85 1a        	sta	$1a                     ; 0x201a <main+0x1a88>
    581c: 29 33        	and	#$33
    581e: 85 16        	sta	$16                     ; 0x2016 <main+0x1a84>
    5820: a5 17        	lda	$17                     ; 0x2017 <main+0x1a85>
    5822: 85 1d        	sta	$1d                     ; 0x201d <main+0x1a8b>
    5824: 29 33        	and	#$33
    5826: 85 17        	sta	$17                     ; 0x2017 <main+0x1a85>
    5828: a5 18        	lda	$18                     ; 0x2018 <main+0x1a86>
    582a: 85 1e        	sta	$1e                     ; 0x201e <main+0x1a8c>
    582c: 29 33        	and	#$33
    582e: 85 18        	sta	$18                     ; 0x2018 <main+0x1a86>
    5830: a5 1c        	lda	$1c                     ; 0x201c <main+0x1a8a>
    5832: 29 33        	and	#$33
    5834: 85 19        	sta	$19                     ; 0x2019 <main+0x1a87>
    5836: a5 1b        	lda	$1b                     ; 0x201b <main+0x1a89>
    5838: 4a           	lsr
    5839: 4a           	lsr
    583a: 29 33        	and	#$33
    583c: 18           	clc
    583d: 65 12        	adc	$12                     ; 0x2012 <main+0x1a80>
    583f: a0 01        	ldy	#$1
    5841: b0 02        	bcs	$5845 <__muldf3+0xa78>
    5843: a0 00        	ldy	#$0
    5845: 84 1b        	sty	$1b                     ; 0x201b <main+0x1a89>
    5847: 85 12        	sta	$12                     ; 0x2012 <main+0x1a80>
    5849: a5 23        	lda	$23                     ; 0x2023 <main+0x1a91>
    584b: 4a           	lsr
    584c: 4a           	lsr
    584d: 29 33        	and	#$33
    584f: a4 1b        	ldy	$1b                     ; 0x201b <main+0x1a89>
    5851: c0 01        	cpy	#$1
    5853: 65 13        	adc	$13                     ; 0x2013 <main+0x1a81>
    5855: a0 01        	ldy	#$1
    5857: b0 02        	bcs	$585b <__muldf3+0xa8e>
    5859: a0 00        	ldy	#$0
    585b: 84 1b        	sty	$1b                     ; 0x201b <main+0x1a89>
    585d: 85 13        	sta	$13                     ; 0x2013 <main+0x1a81>
    585f: a5 22        	lda	$22                     ; 0x2022 <main+0x1a90>
    5861: 4a           	lsr
    5862: 4a           	lsr
    5863: 29 33        	and	#$33
    5865: a4 1b        	ldy	$1b                     ; 0x201b <main+0x1a89>
    5867: c0 01        	cpy	#$1
    5869: 65 14        	adc	$14                     ; 0x2014 <main+0x1a82>
    586b: a0 01        	ldy	#$1
    586d: b0 02        	bcs	$5871 <__muldf3+0xaa4>
    586f: a0 00        	ldy	#$0
    5871: 84 1b        	sty	$1b                     ; 0x201b <main+0x1a89>
    5873: 85 14        	sta	$14                     ; 0x2014 <main+0x1a82>
    5875: a5 1f        	lda	$1f                     ; 0x201f <main+0x1a8d>
    5877: 4a           	lsr
    5878: 4a           	lsr
    5879: 29 33        	and	#$33
    587b: a4 1b        	ldy	$1b                     ; 0x201b <main+0x1a89>
    587d: c0 01        	cpy	#$1
    587f: 65 15        	adc	$15                     ; 0x2015 <main+0x1a83>
    5881: a0 01        	ldy	#$1
    5883: b0 02        	bcs	$5887 <__muldf3+0xaba>
    5885: a0 00        	ldy	#$0
    5887: 84 22        	sty	$22                     ; 0x2022 <main+0x1a90>
    5889: 85 15        	sta	$15                     ; 0x2015 <main+0x1a83>
    588b: a5 1c        	lda	$1c                     ; 0x201c <main+0x1a8a>
    588d: 4a           	lsr
    588e: 85 1f        	sta	$1f                     ; 0x201f <main+0x1a8d>
    5890: a5 1e        	lda	$1e                     ; 0x201e <main+0x1a8c>
    5892: 4a           	lsr
    5893: 85 1c        	sta	$1c                     ; 0x201c <main+0x1a8a>
    5895: a5 1d        	lda	$1d                     ; 0x201d <main+0x1a8b>
    5897: 4a           	lsr
    5898: 85 1b        	sta	$1b                     ; 0x201b <main+0x1a89>
    589a: a5 1a        	lda	$1a                     ; 0x201a <main+0x1a88>
    589c: 4a           	lsr
    589d: a4 1f        	ldy	$1f                     ; 0x201f <main+0x1a8d>
    589f: 84 1d        	sty	$1d                     ; 0x201d <main+0x1a8b>
    58a1: 46 1d        	lsr	$1d                     ; 0x201d <main+0x1a8b>
    58a3: 46 1c        	lsr	$1c                     ; 0x201c <main+0x1a8a>
    58a5: a4 1b        	ldy	$1b                     ; 0x201b <main+0x1a89>
    58a7: 84 1a        	sty	$1a                     ; 0x201a <main+0x1a88>
    58a9: 46 1a        	lsr	$1a                     ; 0x201a <main+0x1a88>
    58ab: 4a           	lsr
    58ac: 29 33        	and	#$33
    58ae: 85 1e        	sta	$1e                     ; 0x201e <main+0x1a8c>
    58b0: a5 1a        	lda	$1a                     ; 0x201a <main+0x1a88>
    58b2: 29 33        	and	#$33
    58b4: 85 1a        	sta	$1a                     ; 0x201a <main+0x1a88>
    58b6: a5 1c        	lda	$1c                     ; 0x201c <main+0x1a8a>
    58b8: 29 33        	and	#$33
    58ba: 85 1b        	sta	$1b                     ; 0x201b <main+0x1a89>
    58bc: a5 1d        	lda	$1d                     ; 0x201d <main+0x1a8b>
    58be: 29 33        	and	#$33
    58c0: 85 1c        	sta	$1c                     ; 0x201c <main+0x1a8a>
    58c2: a4 22        	ldy	$22                     ; 0x2022 <main+0x1a90>
    58c4: c0 01        	cpy	#$1
    58c6: a5 1e        	lda	$1e                     ; 0x201e <main+0x1a8c>
    58c8: 65 16        	adc	$16                     ; 0x2016 <main+0x1a84>
    58ca: 85 16        	sta	$16                     ; 0x2016 <main+0x1a84>
    58cc: a5 1a        	lda	$1a                     ; 0x201a <main+0x1a88>
    58ce: 65 17        	adc	$17                     ; 0x2017 <main+0x1a85>
    58d0: 85 17        	sta	$17                     ; 0x2017 <main+0x1a85>
    58d2: a5 1b        	lda	$1b                     ; 0x201b <main+0x1a89>
    58d4: 65 18        	adc	$18                     ; 0x2018 <main+0x1a86>
    58d6: 85 18        	sta	$18                     ; 0x2018 <main+0x1a86>
    58d8: a5 1c        	lda	$1c                     ; 0x201c <main+0x1a8a>
    58da: 65 19        	adc	$19                     ; 0x2019 <main+0x1a87>
    58dc: 85 19        	sta	$19                     ; 0x2019 <main+0x1a87>
    58de: 4a           	lsr
    58df: 85 1a        	sta	$1a                     ; 0x201a <main+0x1a88>
    58e1: a5 18        	lda	$18                     ; 0x2018 <main+0x1a86>
    58e3: 6a           	ror
    58e4: a4 17        	ldy	$17                     ; 0x2017 <main+0x1a85>
    58e6: 84 1b        	sty	$1b                     ; 0x201b <main+0x1a89>
    58e8: 66 1b        	ror	$1b                     ; 0x201b <main+0x1a89>
    58ea: a4 16        	ldy	$16                     ; 0x2016 <main+0x1a84>
    58ec: 84 1c        	sty	$1c                     ; 0x201c <main+0x1a8a>
    58ee: 66 1c        	ror	$1c                     ; 0x201c <main+0x1a8a>
    58f0: a4 15        	ldy	$15                     ; 0x2015 <main+0x1a83>
    58f2: 84 1d        	sty	$1d                     ; 0x201d <main+0x1a8b>
    58f4: 66 1d        	ror	$1d                     ; 0x201d <main+0x1a8b>
    58f6: a4 14        	ldy	$14                     ; 0x2014 <main+0x1a82>
    58f8: 84 1e        	sty	$1e                     ; 0x201e <main+0x1a8c>
    58fa: 66 1e        	ror	$1e                     ; 0x201e <main+0x1a8c>
    58fc: a4 13        	ldy	$13                     ; 0x2013 <main+0x1a81>
    58fe: 84 22        	sty	$22                     ; 0x2022 <main+0x1a90>
    5900: 66 22        	ror	$22                     ; 0x2022 <main+0x1a90>
    5902: a4 12        	ldy	$12                     ; 0x2012 <main+0x1a80>
    5904: 84 1f        	sty	$1f                     ; 0x201f <main+0x1a8d>
    5906: 66 1f        	ror	$1f                     ; 0x201f <main+0x1a8d>
    5908: a4 1f        	ldy	$1f                     ; 0x201f <main+0x1a8d>
    590a: 84 23        	sty	$23                     ; 0x2023 <main+0x1a91>
    590c: 46 1a        	lsr	$1a                     ; 0x201a <main+0x1a88>
    590e: 6a           	ror
    590f: 85 1f        	sta	$1f                     ; 0x201f <main+0x1a8d>
    5911: a5 1b        	lda	$1b                     ; 0x201b <main+0x1a89>
    5913: 6a           	ror
    5914: 66 1c        	ror	$1c                     ; 0x201c <main+0x1a8a>
    5916: 66 1d        	ror	$1d                     ; 0x201d <main+0x1a8b>
    5918: a4 1e        	ldy	$1e                     ; 0x201e <main+0x1a8c>
    591a: 84 1b        	sty	$1b                     ; 0x201b <main+0x1a89>
    591c: 66 1b        	ror	$1b                     ; 0x201b <main+0x1a89>
    591e: 66 22        	ror	$22                     ; 0x2022 <main+0x1a90>
    5920: 66 23        	ror	$23                     ; 0x2023 <main+0x1a91>
    5922: 46 1a        	lsr	$1a                     ; 0x201a <main+0x1a88>
    5924: a4 1f        	ldy	$1f                     ; 0x201f <main+0x1a8d>
    5926: 84 1e        	sty	$1e                     ; 0x201e <main+0x1a8c>
    5928: 66 1e        	ror	$1e                     ; 0x201e <main+0x1a8c>
    592a: 6a           	ror
    592b: 85 8d        	sta	$8d                     ; 0x208d <main+0x1afb>
    592d: a5 1c        	lda	$1c                     ; 0x201c <main+0x1a8a>
    592f: 6a           	ror
    5930: 66 1d        	ror	$1d                     ; 0x201d <main+0x1a8b>
    5932: 66 1b        	ror	$1b                     ; 0x201b <main+0x1a89>
    5934: 66 22        	ror	$22                     ; 0x2022 <main+0x1a90>
    5936: a4 23        	ldy	$23                     ; 0x2023 <main+0x1a91>
    5938: 84 1f        	sty	$1f                     ; 0x201f <main+0x1a8d>
    593a: 66 1f        	ror	$1f                     ; 0x201f <main+0x1a8d>
    593c: 46 1a        	lsr	$1a                     ; 0x201a <main+0x1a88>
    593e: a4 1e        	ldy	$1e                     ; 0x201e <main+0x1a8c>
    5940: 84 1c        	sty	$1c                     ; 0x201c <main+0x1a8a>
    5942: 66 1c        	ror	$1c                     ; 0x201c <main+0x1a8a>
    5944: a4 8d        	ldy	$8d                     ; 0x208d <main+0x1afb>
    5946: 84 1e        	sty	$1e                     ; 0x201e <main+0x1a8c>
    5948: 66 1e        	ror	$1e                     ; 0x201e <main+0x1a8c>
    594a: 6a           	ror
    594b: 85 23        	sta	$23                     ; 0x2023 <main+0x1a91>
    594d: a4 1d        	ldy	$1d                     ; 0x201d <main+0x1a8b>
    594f: 84 8d        	sty	$8d                     ; 0x208d <main+0x1afb>
    5951: 66 8d        	ror	$8d                     ; 0x208d <main+0x1afb>
    5953: 66 1b        	ror	$1b                     ; 0x201b <main+0x1a89>
    5955: 66 22        	ror	$22                     ; 0x2022 <main+0x1a90>
    5957: a5 1f        	lda	$1f                     ; 0x201f <main+0x1a8d>
    5959: 6a           	ror
    595a: 18           	clc
    595b: 65 12        	adc	$12                     ; 0x2012 <main+0x1a80>
    595d: 85 12        	sta	$12                     ; 0x2012 <main+0x1a80>
    595f: a5 22        	lda	$22                     ; 0x2022 <main+0x1a90>
    5961: 65 13        	adc	$13                     ; 0x2013 <main+0x1a81>
    5963: 85 13        	sta	$13                     ; 0x2013 <main+0x1a81>
    5965: a5 1b        	lda	$1b                     ; 0x201b <main+0x1a89>
    5967: 65 14        	adc	$14                     ; 0x2014 <main+0x1a82>
    5969: 85 14        	sta	$14                     ; 0x2014 <main+0x1a82>
    596b: a5 8d        	lda	$8d                     ; 0x208d <main+0x1afb>
    596d: 65 15        	adc	$15                     ; 0x2015 <main+0x1a83>
    596f: 85 15        	sta	$15                     ; 0x2015 <main+0x1a83>
    5971: a5 23        	lda	$23                     ; 0x2023 <main+0x1a91>
    5973: 65 16        	adc	$16                     ; 0x2016 <main+0x1a84>
    5975: 85 16        	sta	$16                     ; 0x2016 <main+0x1a84>
    5977: a5 1e        	lda	$1e                     ; 0x201e <main+0x1a8c>
    5979: 65 17        	adc	$17                     ; 0x2017 <main+0x1a85>
    597b: 85 17        	sta	$17                     ; 0x2017 <main+0x1a85>
    597d: a5 1c        	lda	$1c                     ; 0x201c <main+0x1a8a>
    597f: 65 18        	adc	$18                     ; 0x2018 <main+0x1a86>
    5981: 85 18        	sta	$18                     ; 0x2018 <main+0x1a86>
    5983: a5 1a        	lda	$1a                     ; 0x201a <main+0x1a88>
    5985: 65 19        	adc	$19                     ; 0x2019 <main+0x1a87>
    5987: 85 19        	sta	$19                     ; 0x2019 <main+0x1a87>
    5989: a5 12        	lda	$12                     ; 0x2012 <main+0x1a80>
    598b: 29 0f        	and	#$f
    598d: 85 12        	sta	$12                     ; 0x2012 <main+0x1a80>
    598f: 85 1d        	sta	$1d                     ; 0x201d <main+0x1a8b>
    5991: a5 13        	lda	$13                     ; 0x2013 <main+0x1a81>
    5993: 29 0f        	and	#$f
    5995: 85 13        	sta	$13                     ; 0x2013 <main+0x1a81>
    5997: 85 1e        	sta	$1e                     ; 0x201e <main+0x1a8c>
    5999: a5 14        	lda	$14                     ; 0x2014 <main+0x1a82>
    599b: 29 0f        	and	#$f
    599d: 85 14        	sta	$14                     ; 0x2014 <main+0x1a82>
    599f: 85 1c        	sta	$1c                     ; 0x201c <main+0x1a8a>
    59a1: a5 15        	lda	$15                     ; 0x2015 <main+0x1a83>
    59a3: 29 0f        	and	#$f
    59a5: 85 15        	sta	$15                     ; 0x2015 <main+0x1a83>
    59a7: 85 1f        	sta	$1f                     ; 0x201f <main+0x1a8d>
    59a9: a5 16        	lda	$16                     ; 0x2016 <main+0x1a84>
    59ab: 29 0f        	and	#$f
    59ad: 85 16        	sta	$16                     ; 0x2016 <main+0x1a84>
    59af: 85 1a        	sta	$1a                     ; 0x201a <main+0x1a88>
    59b1: a5 17        	lda	$17                     ; 0x2017 <main+0x1a85>
    59b3: 29 0f        	and	#$f
    59b5: 85 17        	sta	$17                     ; 0x2017 <main+0x1a85>
    59b7: 85 22        	sta	$22                     ; 0x2022 <main+0x1a90>
    59b9: a5 18        	lda	$18                     ; 0x2018 <main+0x1a86>
    59bb: 29 0f        	and	#$f
    59bd: 85 18        	sta	$18                     ; 0x2018 <main+0x1a86>
    59bf: 85 1b        	sta	$1b                     ; 0x201b <main+0x1a89>
    59c1: a5 19        	lda	$19                     ; 0x2019 <main+0x1a87>
    59c3: 29 0f        	and	#$f
    59c5: 85 19        	sta	$19                     ; 0x2019 <main+0x1a87>
    59c7: 18           	clc
    59c8: a5 1d        	lda	$1d                     ; 0x201d <main+0x1a8b>
    59ca: 69 00        	adc	#$0
    59cc: 85 1d        	sta	$1d                     ; 0x201d <main+0x1a8b>
    59ce: a5 1e        	lda	$1e                     ; 0x201e <main+0x1a8c>
    59d0: 65 12        	adc	$12                     ; 0x2012 <main+0x1a80>
    59d2: 85 1e        	sta	$1e                     ; 0x201e <main+0x1a8c>
    59d4: a5 1c        	lda	$1c                     ; 0x201c <main+0x1a8a>
    59d6: 65 13        	adc	$13                     ; 0x2013 <main+0x1a81>
    59d8: 85 1c        	sta	$1c                     ; 0x201c <main+0x1a8a>
    59da: a5 1f        	lda	$1f                     ; 0x201f <main+0x1a8d>
    59dc: 65 14        	adc	$14                     ; 0x2014 <main+0x1a82>
    59de: 85 1f        	sta	$1f                     ; 0x201f <main+0x1a8d>
    59e0: a5 1a        	lda	$1a                     ; 0x201a <main+0x1a88>
    59e2: 65 15        	adc	$15                     ; 0x2015 <main+0x1a83>
    59e4: 85 1a        	sta	$1a                     ; 0x201a <main+0x1a88>
    59e6: a5 22        	lda	$22                     ; 0x2022 <main+0x1a90>
    59e8: 65 16        	adc	$16                     ; 0x2016 <main+0x1a84>
    59ea: 85 22        	sta	$22                     ; 0x2022 <main+0x1a90>
    59ec: a5 1b        	lda	$1b                     ; 0x201b <main+0x1a89>
    59ee: 65 17        	adc	$17                     ; 0x2017 <main+0x1a85>
    59f0: 85 1b        	sta	$1b                     ; 0x201b <main+0x1a89>
    59f2: a5 19        	lda	$19                     ; 0x2019 <main+0x1a87>
    59f4: 65 18        	adc	$18                     ; 0x2018 <main+0x1a86>
    59f6: 85 18        	sta	$18                     ; 0x2018 <main+0x1a86>
    59f8: a4 1e        	ldy	$1e                     ; 0x201e <main+0x1a8c>
    59fa: 84 13        	sty	$13                     ; 0x2013 <main+0x1a81>
    59fc: a4 1c        	ldy	$1c                     ; 0x201c <main+0x1a8a>
    59fe: 84 14        	sty	$14                     ; 0x2014 <main+0x1a82>
    5a00: a4 1f        	ldy	$1f                     ; 0x201f <main+0x1a8d>
    5a02: 84 19        	sty	$19                     ; 0x2019 <main+0x1a87>
    5a04: a4 1f        	ldy	$1f                     ; 0x201f <main+0x1a8d>
    5a06: 84 15        	sty	$15                     ; 0x2015 <main+0x1a83>
    5a08: a4 22        	ldy	$22                     ; 0x2022 <main+0x1a90>
    5a0a: 84 17        	sty	$17                     ; 0x2017 <main+0x1a85>
    5a0c: 18           	clc
    5a0d: a5 1d        	lda	$1d                     ; 0x201d <main+0x1a8b>
    5a0f: 69 00        	adc	#$0
    5a11: 85 1f        	sta	$1f                     ; 0x201f <main+0x1a8d>
    5a13: a5 1e        	lda	$1e                     ; 0x201e <main+0x1a8c>
    5a15: 69 00        	adc	#$0
    5a17: 85 1e        	sta	$1e                     ; 0x201e <main+0x1a8c>
    5a19: a5 1c        	lda	$1c                     ; 0x201c <main+0x1a8a>
    5a1b: 65 1d        	adc	$1d                     ; 0x201d <main+0x1a8b>
    5a1d: 85 1d        	sta	$1d                     ; 0x201d <main+0x1a8b>
    5a1f: a5 19        	lda	$19                     ; 0x2019 <main+0x1a87>
    5a21: 65 13        	adc	$13                     ; 0x2013 <main+0x1a81>
    5a23: 85 1c        	sta	$1c                     ; 0x201c <main+0x1a8a>
    5a25: a5 1a        	lda	$1a                     ; 0x201a <main+0x1a88>
    5a27: 65 14        	adc	$14                     ; 0x2014 <main+0x1a82>
    5a29: 85 19        	sta	$19                     ; 0x2019 <main+0x1a87>
    5a2b: a5 22        	lda	$22                     ; 0x2022 <main+0x1a90>
    5a2d: 65 15        	adc	$15                     ; 0x2015 <main+0x1a83>
    5a2f: 85 22        	sta	$22                     ; 0x2022 <main+0x1a90>
    5a31: a5 1b        	lda	$1b                     ; 0x201b <main+0x1a89>
    5a33: 65 1a        	adc	$1a                     ; 0x201a <main+0x1a88>
    5a35: 85 1a        	sta	$1a                     ; 0x201a <main+0x1a88>
    5a37: a5 18        	lda	$18                     ; 0x2018 <main+0x1a86>
    5a39: 65 17        	adc	$17                     ; 0x2017 <main+0x1a85>
    5a3b: 85 16        	sta	$16                     ; 0x2016 <main+0x1a84>
    5a3d: a5 1f        	lda	$1f                     ; 0x201f <main+0x1a8d>
    5a3f: 85 12        	sta	$12                     ; 0x2012 <main+0x1a80>
    5a41: 18           	clc
    5a42: 69 00        	adc	#$0
    5a44: a5 1e        	lda	$1e                     ; 0x201e <main+0x1a8c>
    5a46: 85 13        	sta	$13                     ; 0x2013 <main+0x1a81>
    5a48: 69 00        	adc	#$0
    5a4a: a5 1d        	lda	$1d                     ; 0x201d <main+0x1a8b>
    5a4c: 85 14        	sta	$14                     ; 0x2014 <main+0x1a82>
    5a4e: 69 00        	adc	#$0
    5a50: a5 1c        	lda	$1c                     ; 0x201c <main+0x1a8a>
    5a52: 85 15        	sta	$15                     ; 0x2015 <main+0x1a83>
    5a54: 69 00        	adc	#$0
    5a56: a5 19        	lda	$19                     ; 0x2019 <main+0x1a87>
    5a58: 65 12        	adc	$12                     ; 0x2012 <main+0x1a80>
    5a5a: a5 22        	lda	$22                     ; 0x2022 <main+0x1a90>
    5a5c: 65 13        	adc	$13                     ; 0x2013 <main+0x1a81>
    5a5e: a5 1a        	lda	$1a                     ; 0x201a <main+0x1a88>
    5a60: 65 14        	adc	$14                     ; 0x2014 <main+0x1a82>
    5a62: a5 16        	lda	$16                     ; 0x2016 <main+0x1a84>
    5a64: 65 15        	adc	$15                     ; 0x2015 <main+0x1a83>
    5a66: 85 12        	sta	$12                     ; 0x2012 <main+0x1a80>
    5a68: a9 40        	lda	#$40
    5a6a: 38           	sec
    5a6b: e5 12        	sbc	$12                     ; 0x2012 <main+0x1a80>
    5a6d: 85 8d        	sta	$8d                     ; 0x208d <main+0x1afb>
    5a6f: 85 12        	sta	$12                     ; 0x2012 <main+0x1a80>
    5a71: a9 00        	lda	#$0
    5a73: e9 00        	sbc	#$0
    5a75: 85 94        	sta	$94                     ; 0x2094 <main+0x1b02>
    5a77: 18           	clc
    5a78: a5 12        	lda	$12                     ; 0x2012 <main+0x1a80>
    5a7a: 69 f5        	adc	#$f5
    5a7c: a4 93        	ldy	$93                     ; 0x2093 <main+0x1b01>
    5a7e: 84 12        	sty	$12                     ; 0x2012 <main+0x1a80>
    5a80: a4 8e        	ldy	$8e                     ; 0x208e <main+0x1afc>
    5a82: 84 13        	sty	$13                     ; 0x2013 <main+0x1a81>
    5a84: a4 8f        	ldy	$8f                     ; 0x208f <main+0x1afd>
    5a86: 84 14        	sty	$14                     ; 0x2014 <main+0x1a82>
    5a88: a4 90        	ldy	$90                     ; 0x2090 <main+0x1afe>
    5a8a: 84 15        	sty	$15                     ; 0x2015 <main+0x1a83>
    5a8c: 86 16        	stx	$16                     ; 0x2016 <main+0x1a84>
    5a8e: 64 17        	stz	$17                     ; 0x2017 <main+0x1a85>
    5a90: 85 18        	sta	$18                     ; 0x2018 <main+0x1a86>
    5a92: a6 92        	ldx	$92                     ; 0x2092 <main+0x1b00>
    5a94: a5 91        	lda	$91                     ; 0x2091 <main+0x1aff>
    5a96: 20 b8 4a     	jsr	$4ab8 <__ashldi3>
    5a99: 85 97        	sta	$97                     ; 0x2097 <main+0x1b05>
    5a9b: 86 92        	stx	$92                     ; 0x2092 <main+0x1b00>
    5a9d: a6 12        	ldx	$12                     ; 0x2012 <main+0x1a80>
    5a9f: 86 93        	stx	$93                     ; 0x2093 <main+0x1b01>
    5aa1: a6 13        	ldx	$13                     ; 0x2013 <main+0x1a81>
    5aa3: 86 8e        	stx	$8e                     ; 0x208e <main+0x1afc>
    5aa5: a6 14        	ldx	$14                     ; 0x2014 <main+0x1a82>
    5aa7: 86 8f        	stx	$8f                     ; 0x208f <main+0x1afd>
    5aa9: a6 15        	ldx	$15                     ; 0x2015 <main+0x1a83>
    5aab: 86 90        	stx	$90                     ; 0x2090 <main+0x1afe>
    5aad: a6 16        	ldx	$16                     ; 0x2016 <main+0x1a84>
    5aaf: 86 96        	stx	$96                     ; 0x2096 <main+0x1b04>
    5ab1: a6 a1        	ldx	$a1                     ; 0x20a1 <main+0x1b0f>
    5ab3: 8a           	txa
    5ab4: 38           	sec
    5ab5: e5 8d        	sbc	$8d                     ; 0x208d <main+0x1afb>
    5ab7: aa           	tax
    5ab8: a5 a0        	lda	$a0                     ; 0x20a0 <main+0x1b0e>
    5aba: e5 94        	sbc	$94                     ; 0x2094 <main+0x1b02>
    5abc: a8           	tay
    5abd: 18           	clc
    5abe: 8a           	txa
    5abf: 69 0c        	adc	#$c
    5ac1: 85 12        	sta	$12                     ; 0x2012 <main+0x1a80>
    5ac3: 98           	tya
    5ac4: 69 00        	adc	#$0
    5ac6: a6 12        	ldx	$12                     ; 0x2012 <main+0x1a80>
    5ac8: 86 aa        	stx	$aa                     ; 0x20aa <main+0x1b18>
    5aca: 85 a0        	sta	$a0                     ; 0x20a0 <main+0x1b0e>
    5acc: a5 a3        	lda	$a3                     ; 0x20a3 <main+0x1b11>
    5ace: 85 19        	sta	$19                     ; 0x2019 <main+0x1a87>
    5ad0: a4 9d        	ldy	$9d                     ; 0x209d <main+0x1b0b>
    5ad2: 4c 46 5b     	jmp	$5b46 <__muldf3+0xd79>
    5ad5: a6 90        	ldx	$90                     ; 0x2090 <main+0x1afe>
    5ad7: 80 5a        	bra	$5b33 <__muldf3+0xd66>
    5ad9: a6 89        	ldx	$89                     ; 0x2089 <main+0x1af7>
    5adb: 4c 40 4f     	jmp	$4f40 <__muldf3+0x173>
    5ade: a6 8e        	ldx	$8e                     ; 0x208e <main+0x1afc>
    5ae0: 80 18        	bra	$5afa <__muldf3+0xd2d>
    5ae2: a6 8f        	ldx	$8f                     ; 0x208f <main+0x1afd>
    5ae4: 80 4d        	bra	$5b33 <__muldf3+0xd66>
    5ae6: a6 22        	ldx	$22                     ; 0x2022 <main+0x1a90>
    5ae8: 4c 40 4f     	jmp	$4f40 <__muldf3+0x173>
    5aeb: a6 1a        	ldx	$1a                     ; 0x201a <main+0x1a88>
    5aed: 80 0b        	bra	$5afa <__muldf3+0xd2d>
    5aef: a6 8a        	ldx	$8a                     ; 0x208a <main+0x1af8>
    5af1: 4c 0f 51     	jmp	$510f <__muldf3+0x342>
    5af4: a6 8e        	ldx	$8e                     ; 0x208e <main+0x1afc>
    5af6: 80 3b        	bra	$5b33 <__muldf3+0xd66>
    5af8: a6 92        	ldx	$92                     ; 0x2092 <main+0x1b00>
    5afa: e0 00        	cpx	#$0
    5afc: b0 03        	bcs	$5b01 <__muldf3+0xd34>
    5afe: 4c 50 4f     	jmp	$4f50 <__muldf3+0x183>
    5b01: a5 1e        	lda	$1e                     ; 0x201e <main+0x1a8c>
    5b03: 09 08        	ora	#$8
    5b05: a6 97        	ldx	$97                     ; 0x2097 <main+0x1b05>
    5b07: 86 18        	stx	$18                     ; 0x2018 <main+0x1a86>
    5b09: a6 92        	ldx	$92                     ; 0x2092 <main+0x1b00>
    5b0b: 86 22        	stx	$22                     ; 0x2022 <main+0x1a90>
    5b0d: a6 1a        	ldx	$1a                     ; 0x201a <main+0x1a88>
    5b0f: 86 89        	stx	$89                     ; 0x2089 <main+0x1af7>
    5b11: a6 8e        	ldx	$8e                     ; 0x208e <main+0x1afc>
    5b13: 86 13        	stx	$13                     ; 0x2013 <main+0x1a81>
    5b15: a6 1c        	ldx	$1c                     ; 0x201c <main+0x1a8a>
    5b17: 86 8b        	stx	$8b                     ; 0x208b <main+0x1af9>
    5b19: a6 1d        	ldx	$1d                     ; 0x201d <main+0x1a8b>
    5b1b: 86 8c        	stx	$8c                     ; 0x208c <main+0x1afa>
    5b1d: a8           	tay
    5b1e: a5 1f        	lda	$1f                     ; 0x201f <main+0x1a8d>
    5b20: 4c 85 61     	jmp	$6185 <__muldf3+0x13b8>
    5b23: a6 89        	ldx	$89                     ; 0x2089 <main+0x1af7>
    5b25: 4c 0f 51     	jmp	$510f <__muldf3+0x342>
    5b28: a6 93        	ldx	$93                     ; 0x2093 <main+0x1b01>
    5b2a: 80 07        	bra	$5b33 <__muldf3+0xd66>
    5b2c: a6 22        	ldx	$22                     ; 0x2022 <main+0x1a90>
    5b2e: 4c 0f 51     	jmp	$510f <__muldf3+0x342>
    5b31: a6 92        	ldx	$92                     ; 0x2092 <main+0x1b00>
    5b33: e0 00        	cpx	#$0
    5b35: b0 03        	bcs	$5b3a <__muldf3+0xd6d>
    5b37: 4c 09 56     	jmp	$5609 <__muldf3+0x83c>
    5b3a: a6 17        	ldx	$17                     ; 0x2017 <main+0x1a85>
    5b3c: 86 9c        	stx	$9c                     ; 0x209c <main+0x1b0a>
    5b3e: a6 a1        	ldx	$a1                     ; 0x20a1 <main+0x1b0f>
    5b40: 86 aa        	stx	$aa                     ; 0x20aa <main+0x1b18>
    5b42: a6 a0        	ldx	$a0                     ; 0x20a0 <main+0x1b0e>
    5b44: 86 a0        	stx	$a0                     ; 0x20a0 <main+0x1b0e>
    5b46: a5 97        	lda	$97                     ; 0x2097 <main+0x1b05>
    5b48: 0a           	asl
    5b49: 26 92        	rol	$92                     ; 0x2092 <main+0x1b00>
    5b4b: 26 93        	rol	$93                     ; 0x2093 <main+0x1b01>
    5b4d: 26 8e        	rol	$8e                     ; 0x208e <main+0x1afc>
    5b4f: 26 8f        	rol	$8f                     ; 0x208f <main+0x1afd>
    5b51: 26 90        	rol	$90                     ; 0x2090 <main+0x1afe>
    5b53: a6 96        	ldx	$96                     ; 0x2096 <main+0x1b04>
    5b55: 86 8b        	stx	$8b                     ; 0x208b <main+0x1af9>
    5b57: 26 8b        	rol	$8b                     ; 0x208b <main+0x1af9>
    5b59: a6 8b        	ldx	$8b                     ; 0x208b <main+0x1af9>
    5b5b: 86 94        	stx	$94                     ; 0x2094 <main+0x1b02>
    5b5d: 0a           	asl
    5b5e: 26 92        	rol	$92                     ; 0x2092 <main+0x1b00>
    5b60: 26 93        	rol	$93                     ; 0x2093 <main+0x1b01>
    5b62: 26 8e        	rol	$8e                     ; 0x208e <main+0x1afc>
    5b64: 26 8f        	rol	$8f                     ; 0x208f <main+0x1afd>
    5b66: 26 90        	rol	$90                     ; 0x2090 <main+0x1afe>
    5b68: 26 94        	rol	$94                     ; 0x2094 <main+0x1b02>
    5b6a: 0a           	asl
    5b6b: 26 92        	rol	$92                     ; 0x2092 <main+0x1b00>
    5b6d: 26 93        	rol	$93                     ; 0x2093 <main+0x1b01>
    5b6f: 26 8e        	rol	$8e                     ; 0x208e <main+0x1afc>
    5b71: 26 8f        	rol	$8f                     ; 0x208f <main+0x1afd>
    5b73: 26 90        	rol	$90                     ; 0x2090 <main+0x1afe>
    5b75: 26 94        	rol	$94                     ; 0x2094 <main+0x1b02>
    5b77: 29 f8        	and	#$f8
    5b79: 85 91        	sta	$91                     ; 0x2091 <main+0x1aff>
    5b7b: a6 92        	ldx	$92                     ; 0x2092 <main+0x1b00>
    5b7d: 86 12        	stx	$12                     ; 0x2012 <main+0x1a80>
    5b7f: a6 93        	ldx	$93                     ; 0x2093 <main+0x1b01>
    5b81: 86 13        	stx	$13                     ; 0x2013 <main+0x1a81>
    5b83: 64 14        	stz	$14                     ; 0x2014 <main+0x1a82>
    5b85: 64 15        	stz	$15                     ; 0x2015 <main+0x1a83>
    5b87: 64 16        	stz	$16                     ; 0x2016 <main+0x1a84>
    5b89: 64 17        	stz	$17                     ; 0x2017 <main+0x1a85>
    5b8b: 84 18        	sty	$18                     ; 0x2018 <main+0x1a86>
    5b8d: a6 89        	ldx	$89                     ; 0x2089 <main+0x1af7>
    5b8f: 86 1a        	stx	$1a                     ; 0x201a <main+0x1a88>
    5b91: a6 8a        	ldx	$8a                     ; 0x208a <main+0x1af8>
    5b93: 86 1b        	stx	$1b                     ; 0x201b <main+0x1a89>
    5b95: 64 1c        	stz	$1c                     ; 0x201c <main+0x1a8a>
    5b97: 64 1d        	stz	$1d                     ; 0x201d <main+0x1a8b>
    5b99: 64 1e        	stz	$1e                     ; 0x201e <main+0x1a8c>
    5b9b: 64 1f        	stz	$1f                     ; 0x201f <main+0x1a8d>
    5b9d: aa           	tax
    5b9e: a5 19        	lda	$19                     ; 0x2019 <main+0x1a87>
    5ba0: 85 8d        	sta	$8d                     ; 0x208d <main+0x1afb>
    5ba2: a9 00        	lda	#$0
    5ba4: 84 8b        	sty	$8b                     ; 0x208b <main+0x1af9>
    5ba6: 20 66 4b     	jsr	$4b66 <__muldi3>
    5ba9: 86 97        	stx	$97                     ; 0x2097 <main+0x1b05>
    5bab: a6 12        	ldx	$12                     ; 0x2012 <main+0x1a80>
    5bad: 86 a2        	stx	$a2                     ; 0x20a2 <main+0x1b10>
    5baf: a6 13        	ldx	$13                     ; 0x2013 <main+0x1a81>
    5bb1: 86 a1        	stx	$a1                     ; 0x20a1 <main+0x1b0f>
    5bb3: a6 14        	ldx	$14                     ; 0x2014 <main+0x1a82>
    5bb5: 86 ae        	stx	$ae                     ; 0x20ae <main+0x1b1c>
    5bb7: a6 15        	ldx	$15                     ; 0x2015 <main+0x1a83>
    5bb9: 86 ad        	stx	$ad                     ; 0x20ad <main+0x1b1b>
    5bbb: a6 16        	ldx	$16                     ; 0x2016 <main+0x1a84>
    5bbd: 86 ac        	stx	$ac                     ; 0x20ac <main+0x1b1a>
    5bbf: a6 17        	ldx	$17                     ; 0x2017 <main+0x1a85>
    5bc1: 86 ab        	stx	$ab                     ; 0x20ab <main+0x1b19>
    5bc3: a5 94        	lda	$94                     ; 0x2094 <main+0x1b02>
    5bc5: 09 80        	ora	#$80
    5bc7: 85 96        	sta	$96                     ; 0x2096 <main+0x1b04>
    5bc9: a6 8b        	ldx	$8b                     ; 0x208b <main+0x1af9>
    5bcb: 86 18        	stx	$18                     ; 0x2018 <main+0x1a86>
    5bcd: a6 8d        	ldx	$8d                     ; 0x208d <main+0x1afb>
    5bcf: 86 19        	stx	$19                     ; 0x2019 <main+0x1a87>
    5bd1: a6 90        	ldx	$90                     ; 0x2090 <main+0x1afe>
    5bd3: 86 12        	stx	$12                     ; 0x2012 <main+0x1a80>
    5bd5: 85 13        	sta	$13                     ; 0x2013 <main+0x1a81>
    5bd7: 64 14        	stz	$14                     ; 0x2014 <main+0x1a82>
    5bd9: 64 15        	stz	$15                     ; 0x2015 <main+0x1a83>
    5bdb: 64 16        	stz	$16                     ; 0x2016 <main+0x1a84>
    5bdd: 64 17        	stz	$17                     ; 0x2017 <main+0x1a85>
    5bdf: a6 89        	ldx	$89                     ; 0x2089 <main+0x1af7>
    5be1: 86 1a        	stx	$1a                     ; 0x201a <main+0x1a88>
    5be3: a6 8a        	ldx	$8a                     ; 0x208a <main+0x1af8>
    5be5: 86 1b        	stx	$1b                     ; 0x201b <main+0x1a89>
    5be7: 64 1c        	stz	$1c                     ; 0x201c <main+0x1a8a>
    5be9: 64 1d        	stz	$1d                     ; 0x201d <main+0x1a8b>
    5beb: 64 1e        	stz	$1e                     ; 0x201e <main+0x1a8c>
    5bed: 64 1f        	stz	$1f                     ; 0x201f <main+0x1a8d>
    5bef: a6 8f        	ldx	$8f                     ; 0x208f <main+0x1afd>
    5bf1: a5 8e        	lda	$8e                     ; 0x208e <main+0x1afc>
    5bf3: 20 66 4b     	jsr	$4b66 <__muldi3>
    5bf6: 85 a9        	sta	$a9                     ; 0x20a9 <main+0x1b17>
    5bf8: 86 af        	stx	$af                     ; 0x20af <main+0x1b1d>
    5bfa: a6 12        	ldx	$12                     ; 0x2012 <main+0x1a80>
    5bfc: 86 a7        	stx	$a7                     ; 0x20a7 <main+0x1b15>
    5bfe: a6 13        	ldx	$13                     ; 0x2013 <main+0x1a81>
    5c00: 86 a8        	stx	$a8                     ; 0x20a8 <main+0x1b16>
    5c02: a6 14        	ldx	$14                     ; 0x2014 <main+0x1a82>
    5c04: 86 9d        	stx	$9d                     ; 0x209d <main+0x1b0b>
    5c06: a6 15        	ldx	$15                     ; 0x2015 <main+0x1a83>
    5c08: 86 a3        	stx	$a3                     ; 0x20a3 <main+0x1b11>
    5c0a: a6 16        	ldx	$16                     ; 0x2016 <main+0x1a84>
    5c0c: 86 a5        	stx	$a5                     ; 0x20a5 <main+0x1b13>
    5c0e: a6 17        	ldx	$17                     ; 0x2017 <main+0x1a85>
    5c10: 86 a4        	stx	$a4                     ; 0x20a4 <main+0x1b12>
    5c12: a6 98        	ldx	$98                     ; 0x2098 <main+0x1b06>
    5c14: 8a           	txa
    5c15: 09 10        	ora	#$10
    5c17: 85 8d        	sta	$8d                     ; 0x208d <main+0x1afb>
    5c19: a6 92        	ldx	$92                     ; 0x2092 <main+0x1b00>
    5c1b: 86 12        	stx	$12                     ; 0x2012 <main+0x1a80>
    5c1d: a6 93        	ldx	$93                     ; 0x2093 <main+0x1b01>
    5c1f: 86 13        	stx	$13                     ; 0x2013 <main+0x1a81>
    5c21: 64 14        	stz	$14                     ; 0x2014 <main+0x1a82>
    5c23: 64 15        	stz	$15                     ; 0x2015 <main+0x1a83>
    5c25: 64 16        	stz	$16                     ; 0x2016 <main+0x1a84>
    5c27: 64 17        	stz	$17                     ; 0x2017 <main+0x1a85>
    5c29: a6 95        	ldx	$95                     ; 0x2095 <main+0x1b03>
    5c2b: 86 8b        	stx	$8b                     ; 0x208b <main+0x1af9>
    5c2d: 86 18        	stx	$18                     ; 0x2018 <main+0x1a86>
    5c2f: a6 8c        	ldx	$8c                     ; 0x208c <main+0x1afa>
    5c31: 86 19        	stx	$19                     ; 0x2019 <main+0x1a87>
    5c33: 85 1a        	sta	$1a                     ; 0x201a <main+0x1a88>
    5c35: a6 9c        	ldx	$9c                     ; 0x209c <main+0x1b0a>
    5c37: 86 1b        	stx	$1b                     ; 0x201b <main+0x1a89>
    5c39: 86 94        	stx	$94                     ; 0x2094 <main+0x1b02>
    5c3b: 64 1c        	stz	$1c                     ; 0x201c <main+0x1a8a>
    5c3d: 64 1d        	stz	$1d                     ; 0x201d <main+0x1a8b>
    5c3f: 64 1e        	stz	$1e                     ; 0x201e <main+0x1a8c>
    5c41: 64 1f        	stz	$1f                     ; 0x201f <main+0x1a8d>
    5c43: a6 91        	ldx	$91                     ; 0x2091 <main+0x1aff>
    5c45: a9 00        	lda	#$0
    5c47: 20 66 4b     	jsr	$4b66 <__muldi3>
    5c4a: 86 89        	stx	$89                     ; 0x2089 <main+0x1af7>
    5c4c: a6 12        	ldx	$12                     ; 0x2012 <main+0x1a80>
    5c4e: 86 8a        	stx	$8a                     ; 0x208a <main+0x1af8>
    5c50: a6 13        	ldx	$13                     ; 0x2013 <main+0x1a81>
    5c52: 86 91        	stx	$91                     ; 0x2091 <main+0x1aff>
    5c54: a6 14        	ldx	$14                     ; 0x2014 <main+0x1a82>
    5c56: 86 98        	stx	$98                     ; 0x2098 <main+0x1b06>
    5c58: a6 15        	ldx	$15                     ; 0x2015 <main+0x1a83>
    5c5a: 86 a6        	stx	$a6                     ; 0x20a6 <main+0x1b14>
    5c5c: a6 16        	ldx	$16                     ; 0x2016 <main+0x1a84>
    5c5e: 86 93        	stx	$93                     ; 0x2093 <main+0x1b01>
    5c60: a6 17        	ldx	$17                     ; 0x2017 <main+0x1a85>
    5c62: 86 92        	stx	$92                     ; 0x2092 <main+0x1b00>
    5c64: a6 90        	ldx	$90                     ; 0x2090 <main+0x1afe>
    5c66: 86 12        	stx	$12                     ; 0x2012 <main+0x1a80>
    5c68: a6 96        	ldx	$96                     ; 0x2096 <main+0x1b04>
    5c6a: 86 13        	stx	$13                     ; 0x2013 <main+0x1a81>
    5c6c: a6 8b        	ldx	$8b                     ; 0x208b <main+0x1af9>
    5c6e: 86 18        	stx	$18                     ; 0x2018 <main+0x1a86>
    5c70: a6 8c        	ldx	$8c                     ; 0x208c <main+0x1afa>
    5c72: 86 19        	stx	$19                     ; 0x2019 <main+0x1a87>
    5c74: a6 8d        	ldx	$8d                     ; 0x208d <main+0x1afb>
    5c76: 86 1a        	stx	$1a                     ; 0x201a <main+0x1a88>
    5c78: 64 14        	stz	$14                     ; 0x2014 <main+0x1a82>
    5c7a: 64 15        	stz	$15                     ; 0x2015 <main+0x1a83>
    5c7c: 64 16        	stz	$16                     ; 0x2016 <main+0x1a84>
    5c7e: 64 17        	stz	$17                     ; 0x2017 <main+0x1a85>
    5c80: a6 94        	ldx	$94                     ; 0x2094 <main+0x1b02>
    5c82: 86 1b        	stx	$1b                     ; 0x201b <main+0x1a89>
    5c84: 64 1c        	stz	$1c                     ; 0x201c <main+0x1a8a>
    5c86: 64 1d        	stz	$1d                     ; 0x201d <main+0x1a8b>
    5c88: 64 1e        	stz	$1e                     ; 0x201e <main+0x1a8c>
    5c8a: 64 1f        	stz	$1f                     ; 0x201f <main+0x1a8d>
    5c8c: a6 8f        	ldx	$8f                     ; 0x208f <main+0x1afd>
    5c8e: a5 8e        	lda	$8e                     ; 0x208e <main+0x1afc>
    5c90: 20 66 4b     	jsr	$4b66 <__muldi3>
    5c93: 64 19        	stz	$19                     ; 0x2019 <main+0x1a87>
    5c95: 85 1f        	sta	$1f                     ; 0x201f <main+0x1a8d>
    5c97: 86 1e        	stx	$1e                     ; 0x201e <main+0x1a8c>
    5c99: a6 17        	ldx	$17                     ; 0x2017 <main+0x1a85>
    5c9b: 86 1d        	stx	$1d                     ; 0x201d <main+0x1a8b>
    5c9d: a5 89        	lda	$89                     ; 0x2089 <main+0x1af7>
    5c9f: 29 f8        	and	#$f8
    5ca1: a8           	tay
    5ca2: a9 00        	lda	#$0
    5ca4: 18           	clc
    5ca5: a6 ae        	ldx	$ae                     ; 0x20ae <main+0x1b1c>
    5ca7: 86 17        	stx	$17                     ; 0x2017 <main+0x1a85>
    5ca9: 65 17        	adc	$17                     ; 0x2017 <main+0x1a85>
    5cab: 85 1c        	sta	$1c                     ; 0x201c <main+0x1a8a>
    5cad: a6 ad        	ldx	$ad                     ; 0x20ad <main+0x1b1b>
    5caf: 86 17        	stx	$17                     ; 0x2017 <main+0x1a85>
    5cb1: 98           	tya
    5cb2: 65 17        	adc	$17                     ; 0x2017 <main+0x1a85>
    5cb4: 85 23        	sta	$23                     ; 0x2023 <main+0x1a91>
    5cb6: a5 8a        	lda	$8a                     ; 0x208a <main+0x1af8>
    5cb8: a6 ac        	ldx	$ac                     ; 0x20ac <main+0x1b1a>
    5cba: 86 17        	stx	$17                     ; 0x2017 <main+0x1a85>
    5cbc: 65 17        	adc	$17                     ; 0x2017 <main+0x1a85>
    5cbe: 85 1b        	sta	$1b                     ; 0x201b <main+0x1a89>
    5cc0: a5 91        	lda	$91                     ; 0x2091 <main+0x1aff>
    5cc2: a6 ab        	ldx	$ab                     ; 0x20ab <main+0x1b19>
    5cc4: 86 17        	stx	$17                     ; 0x2017 <main+0x1a85>
    5cc6: 65 17        	adc	$17                     ; 0x2017 <main+0x1a85>
    5cc8: 85 1a        	sta	$1a                     ; 0x201a <main+0x1a88>
    5cca: a9 00        	lda	#$0
    5ccc: 69 00        	adc	#$0
    5cce: 85 22        	sta	$22                     ; 0x2022 <main+0x1a90>
    5cd0: a9 00        	lda	#$0
    5cd2: 69 00        	adc	#$0
    5cd4: a0 01        	ldy	#$1
    5cd6: b0 02        	bcs	$5cda <__muldf3+0xf0d>
    5cd8: a0 00        	ldy	#$0
    5cda: 85 89        	sta	$89                     ; 0x2089 <main+0x1af7>
    5cdc: a6 9f        	ldx	$9f                     ; 0x209f <main+0x1b0d>
    5cde: 86 17        	stx	$17                     ; 0x2017 <main+0x1a85>
    5ce0: a6 9a        	ldx	$9a                     ; 0x209a <main+0x1b08>
    5ce2: 8a           	txa
    5ce3: 18           	clc
    5ce4: 65 17        	adc	$17                     ; 0x2017 <main+0x1a85>
    5ce6: 85 8b        	sta	$8b                     ; 0x208b <main+0x1af9>
    5ce8: a6 9e        	ldx	$9e                     ; 0x209e <main+0x1b0c>
    5cea: 86 17        	stx	$17                     ; 0x2017 <main+0x1a85>
    5cec: a6 9b        	ldx	$9b                     ; 0x209b <main+0x1b09>
    5cee: 8a           	txa
    5cef: 65 17        	adc	$17                     ; 0x2017 <main+0x1a85>
    5cf1: 85 8c        	sta	$8c                     ; 0x208c <main+0x1afa>
    5cf3: a9 00        	lda	#$0
    5cf5: c0 01        	cpy	#$1
    5cf7: 69 00        	adc	#$0
    5cf9: 85 8a        	sta	$8a                     ; 0x208a <main+0x1af8>
    5cfb: a2 01        	ldx	#$1
    5cfd: b0 02        	bcs	$5d01 <__muldf3+0xf34>
    5cff: a2 00        	ldx	#$0
    5d01: 86 18        	stx	$18                     ; 0x2018 <main+0x1a86>
    5d03: 18           	clc
    5d04: a6 aa        	ldx	$aa                     ; 0x20aa <main+0x1b18>
    5d06: 86 17        	stx	$17                     ; 0x2017 <main+0x1a85>
    5d08: a5 8b        	lda	$8b                     ; 0x208b <main+0x1af9>
    5d0a: 65 17        	adc	$17                     ; 0x2017 <main+0x1a85>
    5d0c: a8           	tay
    5d0d: a6 a0        	ldx	$a0                     ; 0x20a0 <main+0x1b0e>
    5d0f: 86 17        	stx	$17                     ; 0x2017 <main+0x1a85>
    5d11: a5 8c        	lda	$8c                     ; 0x208c <main+0x1afa>
    5d13: 65 17        	adc	$17                     ; 0x2017 <main+0x1a85>
    5d15: 85 8c        	sta	$8c                     ; 0x208c <main+0x1afa>
    5d17: a9 00        	lda	#$0
    5d19: a6 18        	ldx	$18                     ; 0x2018 <main+0x1a86>
    5d1b: e0 01        	cpx	#$1
    5d1d: 69 00        	adc	#$0
    5d1f: 85 8b        	sta	$8b                     ; 0x208b <main+0x1af9>
    5d21: 18           	clc
    5d22: a6 a9        	ldx	$a9                     ; 0x20a9 <main+0x1b17>
    5d24: 86 17        	stx	$17                     ; 0x2017 <main+0x1a85>
    5d26: a5 1c        	lda	$1c                     ; 0x201c <main+0x1a8a>
    5d28: 65 17        	adc	$17                     ; 0x2017 <main+0x1a85>
    5d2a: 85 1c        	sta	$1c                     ; 0x201c <main+0x1a8a>
    5d2c: a5 23        	lda	$23                     ; 0x2023 <main+0x1a91>
    5d2e: a6 af        	ldx	$af                     ; 0x20af <main+0x1b1d>
    5d30: 86 17        	stx	$17                     ; 0x2017 <main+0x1a85>
    5d32: 65 17        	adc	$17                     ; 0x2017 <main+0x1a85>
    5d34: 85 8e        	sta	$8e                     ; 0x208e <main+0x1afc>
    5d36: a5 a7        	lda	$a7                     ; 0x20a7 <main+0x1b15>
    5d38: 85 17        	sta	$17                     ; 0x2017 <main+0x1a85>
    5d3a: a5 1b        	lda	$1b                     ; 0x201b <main+0x1a89>
    5d3c: 65 17        	adc	$17                     ; 0x2017 <main+0x1a85>
    5d3e: 85 8f        	sta	$8f                     ; 0x208f <main+0x1afd>
    5d40: a5 1a        	lda	$1a                     ; 0x201a <main+0x1a88>
    5d42: a6 a8        	ldx	$a8                     ; 0x20a8 <main+0x1b16>
    5d44: 86 17        	stx	$17                     ; 0x2017 <main+0x1a85>
    5d46: 65 17        	adc	$17                     ; 0x2017 <main+0x1a85>
    5d48: 85 90        	sta	$90                     ; 0x2090 <main+0x1afe>
    5d4a: a5 22        	lda	$22                     ; 0x2022 <main+0x1a90>
    5d4c: 69 00        	adc	#$0
    5d4e: aa           	tax
    5d4f: a5 89        	lda	$89                     ; 0x2089 <main+0x1af7>
    5d51: 69 00        	adc	#$0
    5d53: 85 18        	sta	$18                     ; 0x2018 <main+0x1a86>
    5d55: a5 8a        	lda	$8a                     ; 0x208a <main+0x1af8>
    5d57: 69 00        	adc	#$0
    5d59: 85 1a        	sta	$1a                     ; 0x201a <main+0x1a88>
    5d5b: a5 8b        	lda	$8b                     ; 0x208b <main+0x1af9>
    5d5d: 69 00        	adc	#$0
    5d5f: 85 22        	sta	$22                     ; 0x2022 <main+0x1a90>
    5d61: 18           	clc
    5d62: a5 98        	lda	$98                     ; 0x2098 <main+0x1b06>
    5d64: 85 17        	sta	$17                     ; 0x2017 <main+0x1a85>
    5d66: a5 1f        	lda	$1f                     ; 0x201f <main+0x1a8d>
    5d68: 65 17        	adc	$17                     ; 0x2017 <main+0x1a85>
    5d6a: 85 1f        	sta	$1f                     ; 0x201f <main+0x1a8d>
    5d6c: a5 a6        	lda	$a6                     ; 0x20a6 <main+0x1b14>
    5d6e: 85 17        	sta	$17                     ; 0x2017 <main+0x1a85>
    5d70: a5 1e        	lda	$1e                     ; 0x201e <main+0x1a8c>
    5d72: 65 17        	adc	$17                     ; 0x2017 <main+0x1a85>
    5d74: 85 1e        	sta	$1e                     ; 0x201e <main+0x1a8c>
    5d76: a5 93        	lda	$93                     ; 0x2093 <main+0x1b01>
    5d78: 65 12        	adc	$12                     ; 0x2012 <main+0x1a80>
    5d7a: 85 1b        	sta	$1b                     ; 0x201b <main+0x1a89>
    5d7c: 86 12        	stx	$12                     ; 0x2012 <main+0x1a80>
    5d7e: a6 18        	ldx	$18                     ; 0x2018 <main+0x1a86>
    5d80: 86 17        	stx	$17                     ; 0x2017 <main+0x1a85>
    5d82: a6 1a        	ldx	$1a                     ; 0x201a <main+0x1a88>
    5d84: 86 18        	stx	$18                     ; 0x2018 <main+0x1a86>
    5d86: a5 92        	lda	$92                     ; 0x2092 <main+0x1b00>
    5d88: 65 13        	adc	$13                     ; 0x2013 <main+0x1a81>
    5d8a: 85 1a        	sta	$1a                     ; 0x201a <main+0x1a88>
    5d8c: a9 00        	lda	#$0
    5d8e: 65 14        	adc	$14                     ; 0x2014 <main+0x1a82>
    5d90: 85 23        	sta	$23                     ; 0x2023 <main+0x1a91>
    5d92: a9 00        	lda	#$0
    5d94: 65 15        	adc	$15                     ; 0x2015 <main+0x1a83>
    5d96: 85 89        	sta	$89                     ; 0x2089 <main+0x1af7>
    5d98: a9 00        	lda	#$0
    5d9a: 65 16        	adc	$16                     ; 0x2016 <main+0x1a84>
    5d9c: aa           	tax
    5d9d: a5 1d        	lda	$1d                     ; 0x201d <main+0x1a8b>
    5d9f: 65 19        	adc	$19                     ; 0x2019 <main+0x1a87>
    5da1: 85 14        	sta	$14                     ; 0x2014 <main+0x1a82>
    5da3: 18           	clc
    5da4: a5 9d        	lda	$9d                     ; 0x209d <main+0x1b0b>
    5da6: 85 13        	sta	$13                     ; 0x2013 <main+0x1a81>
    5da8: a5 1f        	lda	$1f                     ; 0x201f <main+0x1a8d>
    5daa: 65 13        	adc	$13                     ; 0x2013 <main+0x1a81>
    5dac: 85 1f        	sta	$1f                     ; 0x201f <main+0x1a8d>
    5dae: a5 a3        	lda	$a3                     ; 0x20a3 <main+0x1b11>
    5db0: 85 13        	sta	$13                     ; 0x2013 <main+0x1a81>
    5db2: a5 1e        	lda	$1e                     ; 0x201e <main+0x1a8c>
    5db4: 65 13        	adc	$13                     ; 0x2013 <main+0x1a81>
    5db6: 85 1d        	sta	$1d                     ; 0x201d <main+0x1a8b>
    5db8: a5 a5        	lda	$a5                     ; 0x20a5 <main+0x1b13>
    5dba: 85 13        	sta	$13                     ; 0x2013 <main+0x1a81>
    5dbc: a5 1b        	lda	$1b                     ; 0x201b <main+0x1a89>
    5dbe: 65 13        	adc	$13                     ; 0x2013 <main+0x1a81>
    5dc0: 85 15        	sta	$15                     ; 0x2015 <main+0x1a83>
    5dc2: a5 a4        	lda	$a4                     ; 0x20a4 <main+0x1b12>
    5dc4: 85 13        	sta	$13                     ; 0x2013 <main+0x1a81>
    5dc6: a5 1a        	lda	$1a                     ; 0x201a <main+0x1a88>
    5dc8: 65 13        	adc	$13                     ; 0x2013 <main+0x1a81>
    5dca: 85 16        	sta	$16                     ; 0x2016 <main+0x1a84>
    5dcc: a5 23        	lda	$23                     ; 0x2023 <main+0x1a91>
    5dce: 69 00        	adc	#$0
    5dd0: 85 1b        	sta	$1b                     ; 0x201b <main+0x1a89>
    5dd2: a5 89        	lda	$89                     ; 0x2089 <main+0x1af7>
    5dd4: 69 00        	adc	#$0
    5dd6: 85 1e        	sta	$1e                     ; 0x201e <main+0x1a8c>
    5dd8: 8a           	txa
    5dd9: 69 00        	adc	#$0
    5ddb: 85 1a        	sta	$1a                     ; 0x201a <main+0x1a88>
    5ddd: a5 14        	lda	$14                     ; 0x2014 <main+0x1a82>
    5ddf: 69 00        	adc	#$0
    5de1: aa           	tax
    5de2: 18           	clc
    5de3: a5 1f        	lda	$1f                     ; 0x201f <main+0x1a8d>
    5de5: 65 12        	adc	$12                     ; 0x2012 <main+0x1a80>
    5de7: 85 93        	sta	$93                     ; 0x2093 <main+0x1b01>
    5de9: a5 1d        	lda	$1d                     ; 0x201d <main+0x1a8b>
    5deb: 65 17        	adc	$17                     ; 0x2017 <main+0x1a85>
    5ded: 85 14        	sta	$14                     ; 0x2014 <main+0x1a82>
    5def: a5 15        	lda	$15                     ; 0x2015 <main+0x1a83>
    5df1: 65 18        	adc	$18                     ; 0x2018 <main+0x1a86>
    5df3: 85 89        	sta	$89                     ; 0x2089 <main+0x1af7>
    5df5: a5 97        	lda	$97                     ; 0x2097 <main+0x1b05>
    5df7: 29 f8        	and	#$f8
    5df9: 85 8d        	sta	$8d                     ; 0x208d <main+0x1afb>
    5dfb: a5 16        	lda	$16                     ; 0x2016 <main+0x1a84>
    5dfd: 65 22        	adc	$22                     ; 0x2022 <main+0x1a90>
    5dff: 85 8a        	sta	$8a                     ; 0x208a <main+0x1af8>
    5e01: a5 1b        	lda	$1b                     ; 0x201b <main+0x1a89>
    5e03: 69 00        	adc	#$0
    5e05: 85 17        	sta	$17                     ; 0x2017 <main+0x1a85>
    5e07: a5 1e        	lda	$1e                     ; 0x201e <main+0x1a8c>
    5e09: 69 00        	adc	#$0
    5e0b: 85 18        	sta	$18                     ; 0x2018 <main+0x1a86>
    5e0d: a5 1a        	lda	$1a                     ; 0x201a <main+0x1a88>
    5e0f: 69 00        	adc	#$0
    5e11: 85 12        	sta	$12                     ; 0x2012 <main+0x1a80>
    5e13: 8a           	txa
    5e14: 69 00        	adc	#$0
    5e16: 85 92        	sta	$92                     ; 0x2092 <main+0x1b00>
    5e18: a5 12        	lda	$12                     ; 0x2012 <main+0x1a80>
    5e1a: 85 8b        	sta	$8b                     ; 0x208b <main+0x1af9>
    5e1c: 29 10        	and	#$10
    5e1e: f0 03        	beq	$5e23 <__muldf3+0x1056>
    5e20: 4c b4 5e     	jmp	$5eb4 <__muldf3+0x10e7>
    5e23: 18           	clc
    5e24: 98           	tya
    5e25: 69 01        	adc	#$1
    5e27: aa           	tax
    5e28: a5 8c        	lda	$8c                     ; 0x208c <main+0x1afa>
    5e2a: 69 fc        	adc	#$fc
    5e2c: 85 12        	sta	$12                     ; 0x2012 <main+0x1a80>
    5e2e: 06 93        	asl	$93                     ; 0x2093 <main+0x1b01>
    5e30: 26 14        	rol	$14                     ; 0x2014 <main+0x1a82>
    5e32: 26 89        	rol	$89                     ; 0x2089 <main+0x1af7>
    5e34: 26 8a        	rol	$8a                     ; 0x208a <main+0x1af8>
    5e36: 26 17        	rol	$17                     ; 0x2017 <main+0x1a85>
    5e38: 26 18        	rol	$18                     ; 0x2018 <main+0x1a86>
    5e3a: 26 8b        	rol	$8b                     ; 0x208b <main+0x1af9>
    5e3c: 26 92        	rol	$92                     ; 0x2092 <main+0x1b00>
    5e3e: a4 8b        	ldy	$8b                     ; 0x208b <main+0x1af9>
    5e40: 84 1a        	sty	$1a                     ; 0x201a <main+0x1a88>
    5e42: a4 92        	ldy	$92                     ; 0x2092 <main+0x1b00>
    5e44: 84 1b        	sty	$1b                     ; 0x201b <main+0x1a89>
    5e46: a5 90        	lda	$90                     ; 0x2090 <main+0x1afe>
    5e48: 0a           	asl
    5e49: 64 1d        	stz	$1d                     ; 0x201d <main+0x1a8b>
    5e4b: 26 1d        	rol	$1d                     ; 0x201d <main+0x1a8b>
    5e4d: 64 1e        	stz	$1e                     ; 0x201e <main+0x1a8c>
    5e4f: 26 1e        	rol	$1e                     ; 0x201e <main+0x1a8c>
    5e51: 64 1f        	stz	$1f                     ; 0x201f <main+0x1a8d>
    5e53: 26 1f        	rol	$1f                     ; 0x201f <main+0x1a8d>
    5e55: 64 22        	stz	$22                     ; 0x2022 <main+0x1a90>
    5e57: 26 22        	rol	$22                     ; 0x2022 <main+0x1a90>
    5e59: 64 23        	stz	$23                     ; 0x2023 <main+0x1a91>
    5e5b: 26 23        	rol	$23                     ; 0x2023 <main+0x1a91>
    5e5d: 64 8b        	stz	$8b                     ; 0x208b <main+0x1af9>
    5e5f: 26 8b        	rol	$8b                     ; 0x208b <main+0x1af9>
    5e61: 64 8c        	stz	$8c                     ; 0x208c <main+0x1afa>
    5e63: 26 8c        	rol	$8c                     ; 0x208c <main+0x1afa>
    5e65: 64 92        	stz	$92                     ; 0x2092 <main+0x1b00>
    5e67: 26 92        	rol	$92                     ; 0x2092 <main+0x1b00>
    5e69: 06 8d        	asl	$8d                     ; 0x208d <main+0x1afb>
    5e6b: a4 a2        	ldy	$a2                     ; 0x20a2 <main+0x1b10>
    5e6d: 84 91        	sty	$91                     ; 0x2091 <main+0x1aff>
    5e6f: 26 91        	rol	$91                     ; 0x2091 <main+0x1aff>
    5e71: a4 a1        	ldy	$a1                     ; 0x20a1 <main+0x1b0f>
    5e73: 84 94        	sty	$94                     ; 0x2094 <main+0x1b02>
    5e75: 26 94        	rol	$94                     ; 0x2094 <main+0x1b02>
    5e77: a5 1c        	lda	$1c                     ; 0x201c <main+0x1a8a>
    5e79: 2a           	rol
    5e7a: 85 96        	sta	$96                     ; 0x2096 <main+0x1b04>
    5e7c: 26 8e        	rol	$8e                     ; 0x208e <main+0x1afc>
    5e7e: 26 8f        	rol	$8f                     ; 0x208f <main+0x1afd>
    5e80: 26 90        	rol	$90                     ; 0x2090 <main+0x1afe>
    5e82: a5 1d        	lda	$1d                     ; 0x201d <main+0x1a8b>
    5e84: 05 93        	ora	$93                     ; 0x2093 <main+0x1b01>
    5e86: 85 93        	sta	$93                     ; 0x2093 <main+0x1b01>
    5e88: a5 1e        	lda	$1e                     ; 0x201e <main+0x1a8c>
    5e8a: 05 14        	ora	$14                     ; 0x2014 <main+0x1a82>
    5e8c: 85 a3        	sta	$a3                     ; 0x20a3 <main+0x1b11>
    5e8e: a5 1f        	lda	$1f                     ; 0x201f <main+0x1a8d>
    5e90: 05 89        	ora	$89                     ; 0x2089 <main+0x1af7>
    5e92: 85 89        	sta	$89                     ; 0x2089 <main+0x1af7>
    5e94: a5 22        	lda	$22                     ; 0x2022 <main+0x1a90>
    5e96: 05 8a        	ora	$8a                     ; 0x208a <main+0x1af8>
    5e98: 85 8a        	sta	$8a                     ; 0x208a <main+0x1af8>
    5e9a: a5 23        	lda	$23                     ; 0x2023 <main+0x1a91>
    5e9c: 05 17        	ora	$17                     ; 0x2017 <main+0x1a85>
    5e9e: 85 95        	sta	$95                     ; 0x2095 <main+0x1b03>
    5ea0: a5 8b        	lda	$8b                     ; 0x208b <main+0x1af9>
    5ea2: 05 18        	ora	$18                     ; 0x2018 <main+0x1a86>
    5ea4: 85 9d        	sta	$9d                     ; 0x209d <main+0x1b0b>
    5ea6: a5 8c        	lda	$8c                     ; 0x208c <main+0x1afa>
    5ea8: 05 1a        	ora	$1a                     ; 0x201a <main+0x1a88>
    5eaa: 85 8b        	sta	$8b                     ; 0x208b <main+0x1af9>
    5eac: a5 92        	lda	$92                     ; 0x2092 <main+0x1b00>
    5eae: 05 1b        	ora	$1b                     ; 0x201b <main+0x1a89>
    5eb0: 85 92        	sta	$92                     ; 0x2092 <main+0x1b00>
    5eb2: 80 23        	bra	$5ed7 <__muldf3+0x110a>
    5eb4: a6 1c        	ldx	$1c                     ; 0x201c <main+0x1a8a>
    5eb6: 86 96        	stx	$96                     ; 0x2096 <main+0x1b04>
    5eb8: a6 a1        	ldx	$a1                     ; 0x20a1 <main+0x1b0f>
    5eba: 86 94        	stx	$94                     ; 0x2094 <main+0x1b02>
    5ebc: a6 a2        	ldx	$a2                     ; 0x20a2 <main+0x1b10>
    5ebe: 86 91        	stx	$91                     ; 0x2091 <main+0x1aff>
    5ec0: a6 18        	ldx	$18                     ; 0x2018 <main+0x1a86>
    5ec2: 86 9d        	stx	$9d                     ; 0x209d <main+0x1b0b>
    5ec4: a6 17        	ldx	$17                     ; 0x2017 <main+0x1a85>
    5ec6: 86 95        	stx	$95                     ; 0x2095 <main+0x1b03>
    5ec8: a6 14        	ldx	$14                     ; 0x2014 <main+0x1a82>
    5eca: 86 a3        	stx	$a3                     ; 0x20a3 <main+0x1b11>
    5ecc: 18           	clc
    5ecd: 98           	tya
    5ece: 69 02        	adc	#$2
    5ed0: aa           	tax
    5ed1: a5 8c        	lda	$8c                     ; 0x208c <main+0x1afa>
    5ed3: 69 fc        	adc	#$fc
    5ed5: 85 12        	sta	$12                     ; 0x2012 <main+0x1a80>
    5ed7: e0 ff        	cpx	#$ff
    5ed9: a5 12        	lda	$12                     ; 0x2012 <main+0x1a80>
    5edb: e9 07        	sbc	#$7
    5edd: 50 02        	bvc	$5ee1 <__muldf3+0x1114>
    5edf: 49 80        	eor	#$80
    5ee1: a8           	tay
    5ee2: 30 15        	bmi	$5ef9 <__muldf3+0x112c>
    5ee4: a5 99        	lda	$99                     ; 0x2099 <main+0x1b07>
    5ee6: 09 7f        	ora	#$7f
    5ee8: 64 18        	stz	$18                     ; 0x2018 <main+0x1a86>
    5eea: 64 22        	stz	$22                     ; 0x2022 <main+0x1a90>
    5eec: 64 89        	stz	$89                     ; 0x2089 <main+0x1af7>
    5eee: 64 13        	stz	$13                     ; 0x2013 <main+0x1a81>
    5ef0: 64 8b        	stz	$8b                     ; 0x208b <main+0x1af9>
    5ef2: 64 8c        	stz	$8c                     ; 0x208c <main+0x1afa>
    5ef4: a0 f0        	ldy	#$f0
    5ef6: 4c 85 61     	jmp	$6185 <__muldf3+0x13b8>
    5ef9: e0 01        	cpx	#$1
    5efb: a5 12        	lda	$12                     ; 0x2012 <main+0x1a80>
    5efd: e9 00        	sbc	#$0
    5eff: 50 02        	bvc	$5f03 <__muldf3+0x1136>
    5f01: 49 80        	eor	#$80
    5f03: a8           	tay
    5f04: 30 30        	bmi	$5f36 <__muldf3+0x1169>
    5f06: a5 8b        	lda	$8b                     ; 0x208b <main+0x1af9>
    5f08: 29 0f        	and	#$f
    5f0a: 85 13        	sta	$13                     ; 0x2013 <main+0x1a81>
    5f0c: 8a           	txa
    5f0d: 0a           	asl
    5f0e: 26 12        	rol	$12                     ; 0x2012 <main+0x1a80>
    5f10: 0a           	asl
    5f11: 26 12        	rol	$12                     ; 0x2012 <main+0x1a80>
    5f13: 0a           	asl
    5f14: 26 12        	rol	$12                     ; 0x2012 <main+0x1a80>
    5f16: 0a           	asl
    5f17: 26 12        	rol	$12                     ; 0x2012 <main+0x1a80>
    5f19: 05 13        	ora	$13                     ; 0x2013 <main+0x1a81>
    5f1b: a6 93        	ldx	$93                     ; 0x2093 <main+0x1b01>
    5f1d: 86 18        	stx	$18                     ; 0x2018 <main+0x1a86>
    5f1f: 85 16        	sta	$16                     ; 0x2016 <main+0x1a84>
    5f21: a6 12        	ldx	$12                     ; 0x2012 <main+0x1a80>
    5f23: 86 17        	stx	$17                     ; 0x2017 <main+0x1a85>
    5f25: a2 00        	ldx	#$0
    5f27: 86 97        	stx	$97                     ; 0x2097 <main+0x1b05>
    5f29: a6 a3        	ldx	$a3                     ; 0x20a3 <main+0x1b11>
    5f2b: 86 22        	stx	$22                     ; 0x2022 <main+0x1a90>
    5f2d: a6 8a        	ldx	$8a                     ; 0x208a <main+0x1af8>
    5f2f: 86 13        	stx	$13                     ; 0x2013 <main+0x1a81>
    5f31: a6 90        	ldx	$90                     ; 0x2090 <main+0x1afe>
    5f33: 4c a6 60     	jmp	$60a6 <__muldf3+0x12d9>
    5f36: 38           	sec
    5f37: a9 01        	lda	#$1
    5f39: 86 13        	stx	$13                     ; 0x2013 <main+0x1a81>
    5f3b: e5 13        	sbc	$13                     ; 0x2013 <main+0x1a81>
    5f3d: a8           	tay
    5f3e: a9 00        	lda	#$0
    5f40: e5 12        	sbc	$12                     ; 0x2012 <main+0x1a80>
    5f42: d0 19        	bne	$5f5d <__muldf3+0x1190>
    5f44: 84 98        	sty	$98                     ; 0x2098 <main+0x1b06>
    5f46: c0 40        	cpy	#$40
    5f48: 90 19        	bcc	$5f63 <__muldf3+0x1196>
    5f4a: 64 18        	stz	$18                     ; 0x2018 <main+0x1a86>
    5f4c: 64 22        	stz	$22                     ; 0x2022 <main+0x1a90>
    5f4e: 64 89        	stz	$89                     ; 0x2089 <main+0x1af7>
    5f50: 64 13        	stz	$13                     ; 0x2013 <main+0x1a81>
    5f52: 64 8b        	stz	$8b                     ; 0x208b <main+0x1af9>
    5f54: a5 99        	lda	$99                     ; 0x2099 <main+0x1b07>
    5f56: 64 8c        	stz	$8c                     ; 0x208c <main+0x1afa>
    5f58: a0 00        	ldy	#$0
    5f5a: 4c 85 61     	jmp	$6185 <__muldf3+0x13b8>
    5f5d: 84 98        	sty	$98                     ; 0x2098 <main+0x1b06>
    5f5f: c9 00        	cmp	#$0
    5f61: b0 e7        	bcs	$5f4a <__muldf3+0x117d>
    5f63: 18           	clc
    5f64: 8a           	txa
    5f65: 69 3f        	adc	#$3f
    5f67: a6 91        	ldx	$91                     ; 0x2091 <main+0x1aff>
    5f69: 86 12        	stx	$12                     ; 0x2012 <main+0x1a80>
    5f6b: a6 94        	ldx	$94                     ; 0x2094 <main+0x1b02>
    5f6d: 86 13        	stx	$13                     ; 0x2013 <main+0x1a81>
    5f6f: a6 96        	ldx	$96                     ; 0x2096 <main+0x1b04>
    5f71: 86 14        	stx	$14                     ; 0x2014 <main+0x1a82>
    5f73: a6 8e        	ldx	$8e                     ; 0x208e <main+0x1afc>
    5f75: 86 15        	stx	$15                     ; 0x2015 <main+0x1a83>
    5f77: a6 8f        	ldx	$8f                     ; 0x208f <main+0x1afd>
    5f79: 86 16        	stx	$16                     ; 0x2016 <main+0x1a84>
    5f7b: a6 90        	ldx	$90                     ; 0x2090 <main+0x1afe>
    5f7d: 86 17        	stx	$17                     ; 0x2017 <main+0x1a85>
    5f7f: 85 9a        	sta	$9a                     ; 0x209a <main+0x1b08>
    5f81: 85 18        	sta	$18                     ; 0x2018 <main+0x1a86>
    5f83: a6 8d        	ldx	$8d                     ; 0x208d <main+0x1afb>
    5f85: a0 00        	ldy	#$0
    5f87: 84 97        	sty	$97                     ; 0x2097 <main+0x1b05>
    5f89: 98           	tya
    5f8a: 20 b8 4a     	jsr	$4ab8 <__ashldi3>
    5f8d: a4 17        	ldy	$17                     ; 0x2017 <main+0x1a85>
    5f8f: d0 1f        	bne	$5fb0 <__muldf3+0x11e3>
    5f91: a4 16        	ldy	$16                     ; 0x2016 <main+0x1a84>
    5f93: d0 1b        	bne	$5fb0 <__muldf3+0x11e3>
    5f95: a4 15        	ldy	$15                     ; 0x2015 <main+0x1a83>
    5f97: d0 17        	bne	$5fb0 <__muldf3+0x11e3>
    5f99: a4 14        	ldy	$14                     ; 0x2014 <main+0x1a82>
    5f9b: d0 13        	bne	$5fb0 <__muldf3+0x11e3>
    5f9d: a4 13        	ldy	$13                     ; 0x2013 <main+0x1a81>
    5f9f: d0 0f        	bne	$5fb0 <__muldf3+0x11e3>
    5fa1: a4 12        	ldy	$12                     ; 0x2012 <main+0x1a80>
    5fa3: d0 0b        	bne	$5fb0 <__muldf3+0x11e3>
    5fa5: e0 00        	cpx	#$0
    5fa7: d0 07        	bne	$5fb0 <__muldf3+0x11e3>
    5fa9: aa           	tax
    5faa: d0 04        	bne	$5fb0 <__muldf3+0x11e3>
    5fac: a2 00        	ldx	#$0
    5fae: 80 02        	bra	$5fb2 <__muldf3+0x11e5>
    5fb0: a2 01        	ldx	#$1
    5fb2: 86 9f        	stx	$9f                     ; 0x209f <main+0x1b0d>
    5fb4: a5 89        	lda	$89                     ; 0x2089 <main+0x1af7>
    5fb6: 85 a4        	sta	$a4                     ; 0x20a4 <main+0x1b12>
    5fb8: a6 89        	ldx	$89                     ; 0x2089 <main+0x1af7>
    5fba: 86 12        	stx	$12                     ; 0x2012 <main+0x1a80>
    5fbc: a6 8a        	ldx	$8a                     ; 0x208a <main+0x1af8>
    5fbe: 86 13        	stx	$13                     ; 0x2013 <main+0x1a81>
    5fc0: a6 95        	ldx	$95                     ; 0x2095 <main+0x1b03>
    5fc2: 86 14        	stx	$14                     ; 0x2014 <main+0x1a82>
    5fc4: 86 95        	stx	$95                     ; 0x2095 <main+0x1b03>
    5fc6: a6 9d        	ldx	$9d                     ; 0x209d <main+0x1b0b>
    5fc8: 86 8c        	stx	$8c                     ; 0x208c <main+0x1afa>
    5fca: 86 15        	stx	$15                     ; 0x2015 <main+0x1a83>
    5fcc: a5 8b        	lda	$8b                     ; 0x208b <main+0x1af9>
    5fce: 85 a1        	sta	$a1                     ; 0x20a1 <main+0x1b0f>
    5fd0: a6 8b        	ldx	$8b                     ; 0x208b <main+0x1af9>
    5fd2: 86 16        	stx	$16                     ; 0x2016 <main+0x1a84>
    5fd4: a5 92        	lda	$92                     ; 0x2092 <main+0x1b00>
    5fd6: 85 a0        	sta	$a0                     ; 0x20a0 <main+0x1b0e>
    5fd8: a6 92        	ldx	$92                     ; 0x2092 <main+0x1b00>
    5fda: 86 17        	stx	$17                     ; 0x2017 <main+0x1a85>
    5fdc: a6 9a        	ldx	$9a                     ; 0x209a <main+0x1b08>
    5fde: 86 18        	stx	$18                     ; 0x2018 <main+0x1a86>
    5fe0: a6 a3        	ldx	$a3                     ; 0x20a3 <main+0x1b11>
    5fe2: 86 a3        	stx	$a3                     ; 0x20a3 <main+0x1b11>
    5fe4: a5 93        	lda	$93                     ; 0x2093 <main+0x1b01>
    5fe6: 20 b8 4a     	jsr	$4ab8 <__ashldi3>
    5fe9: 85 92        	sta	$92                     ; 0x2092 <main+0x1b00>
    5feb: 86 89        	stx	$89                     ; 0x2089 <main+0x1af7>
    5fed: a6 12        	ldx	$12                     ; 0x2012 <main+0x1a80>
    5fef: 86 8b        	stx	$8b                     ; 0x208b <main+0x1af9>
    5ff1: a6 13        	ldx	$13                     ; 0x2013 <main+0x1a81>
    5ff3: 86 a2        	stx	$a2                     ; 0x20a2 <main+0x1b10>
    5ff5: a6 14        	ldx	$14                     ; 0x2014 <main+0x1a82>
    5ff7: 86 9a        	stx	$9a                     ; 0x209a <main+0x1b08>
    5ff9: a6 15        	ldx	$15                     ; 0x2015 <main+0x1a83>
    5ffb: 86 9b        	stx	$9b                     ; 0x209b <main+0x1b09>
    5ffd: a6 16        	ldx	$16                     ; 0x2016 <main+0x1a84>
    5fff: 86 9c        	stx	$9c                     ; 0x209c <main+0x1b0a>
    6001: a6 17        	ldx	$17                     ; 0x2017 <main+0x1a85>
    6003: 86 9e        	stx	$9e                     ; 0x209e <main+0x1b0c>
    6005: a6 91        	ldx	$91                     ; 0x2091 <main+0x1aff>
    6007: 86 12        	stx	$12                     ; 0x2012 <main+0x1a80>
    6009: a6 94        	ldx	$94                     ; 0x2094 <main+0x1b02>
    600b: 86 13        	stx	$13                     ; 0x2013 <main+0x1a81>
    600d: a6 96        	ldx	$96                     ; 0x2096 <main+0x1b04>
    600f: 86 14        	stx	$14                     ; 0x2014 <main+0x1a82>
    6011: a6 8e        	ldx	$8e                     ; 0x208e <main+0x1afc>
    6013: 86 15        	stx	$15                     ; 0x2015 <main+0x1a83>
    6015: a6 8f        	ldx	$8f                     ; 0x208f <main+0x1afd>
    6017: 86 16        	stx	$16                     ; 0x2016 <main+0x1a84>
    6019: a6 90        	ldx	$90                     ; 0x2090 <main+0x1afe>
    601b: 86 17        	stx	$17                     ; 0x2017 <main+0x1a85>
    601d: a6 98        	ldx	$98                     ; 0x2098 <main+0x1b06>
    601f: 86 8e        	stx	$8e                     ; 0x208e <main+0x1afc>
    6021: 86 18        	stx	$18                     ; 0x2018 <main+0x1a86>
    6023: a6 8d        	ldx	$8d                     ; 0x208d <main+0x1afb>
    6025: a5 97        	lda	$97                     ; 0x2097 <main+0x1b05>
    6027: 20 d7 4a     	jsr	$4ad7 <__lshrdi3>
    602a: 85 18        	sta	$18                     ; 0x2018 <main+0x1a86>
    602c: a5 92        	lda	$92                     ; 0x2092 <main+0x1b00>
    602e: 05 18        	ora	$18                     ; 0x2018 <main+0x1a86>
    6030: a8           	tay
    6031: 8a           	txa
    6032: 05 89        	ora	$89                     ; 0x2089 <main+0x1af7>
    6034: 85 8d        	sta	$8d                     ; 0x208d <main+0x1afb>
    6036: a5 8b        	lda	$8b                     ; 0x208b <main+0x1af9>
    6038: 05 12        	ora	$12                     ; 0x2012 <main+0x1a80>
    603a: 85 91        	sta	$91                     ; 0x2091 <main+0x1aff>
    603c: a5 a2        	lda	$a2                     ; 0x20a2 <main+0x1b10>
    603e: 05 13        	ora	$13                     ; 0x2013 <main+0x1a81>
    6040: 85 94        	sta	$94                     ; 0x2094 <main+0x1b02>
    6042: a5 9a        	lda	$9a                     ; 0x209a <main+0x1b08>
    6044: 05 14        	ora	$14                     ; 0x2014 <main+0x1a82>
    6046: 85 8f        	sta	$8f                     ; 0x208f <main+0x1afd>
    6048: a5 9b        	lda	$9b                     ; 0x209b <main+0x1b09>
    604a: 05 15        	ora	$15                     ; 0x2015 <main+0x1a83>
    604c: 85 90        	sta	$90                     ; 0x2090 <main+0x1afe>
    604e: a6 9c        	ldx	$9c                     ; 0x209c <main+0x1b0a>
    6050: 8a           	txa
    6051: 05 16        	ora	$16                     ; 0x2016 <main+0x1a84>
    6053: 85 92        	sta	$92                     ; 0x2092 <main+0x1b00>
    6055: a6 9e        	ldx	$9e                     ; 0x209e <main+0x1b0c>
    6057: 8a           	txa
    6058: 05 17        	ora	$17                     ; 0x2017 <main+0x1a85>
    605a: 85 8b        	sta	$8b                     ; 0x208b <main+0x1af9>
    605c: a6 9f        	ldx	$9f                     ; 0x209f <main+0x1b0d>
    605e: 86 12        	stx	$12                     ; 0x2012 <main+0x1a80>
    6060: 98           	tya
    6061: 05 12        	ora	$12                     ; 0x2012 <main+0x1a80>
    6063: 85 97        	sta	$97                     ; 0x2097 <main+0x1b05>
    6065: a6 a4        	ldx	$a4                     ; 0x20a4 <main+0x1b12>
    6067: 86 12        	stx	$12                     ; 0x2012 <main+0x1a80>
    6069: a6 8a        	ldx	$8a                     ; 0x208a <main+0x1af8>
    606b: 86 13        	stx	$13                     ; 0x2013 <main+0x1a81>
    606d: a6 95        	ldx	$95                     ; 0x2095 <main+0x1b03>
    606f: 86 14        	stx	$14                     ; 0x2014 <main+0x1a82>
    6071: a6 8c        	ldx	$8c                     ; 0x208c <main+0x1afa>
    6073: 86 15        	stx	$15                     ; 0x2015 <main+0x1a83>
    6075: a6 a1        	ldx	$a1                     ; 0x20a1 <main+0x1b0f>
    6077: 86 16        	stx	$16                     ; 0x2016 <main+0x1a84>
    6079: a6 a0        	ldx	$a0                     ; 0x20a0 <main+0x1b0e>
    607b: 86 17        	stx	$17                     ; 0x2017 <main+0x1a85>
    607d: a6 8e        	ldx	$8e                     ; 0x208e <main+0x1afc>
    607f: 86 18        	stx	$18                     ; 0x2018 <main+0x1a86>
    6081: a6 a3        	ldx	$a3                     ; 0x20a3 <main+0x1b11>
    6083: a5 93        	lda	$93                     ; 0x2093 <main+0x1b01>
    6085: 20 d7 4a     	jsr	$4ad7 <__lshrdi3>
    6088: 85 18        	sta	$18                     ; 0x2018 <main+0x1a86>
    608a: 86 22        	stx	$22                     ; 0x2022 <main+0x1a90>
    608c: a6 12        	ldx	$12                     ; 0x2012 <main+0x1a80>
    608e: 86 89        	stx	$89                     ; 0x2089 <main+0x1af7>
    6090: a6 14        	ldx	$14                     ; 0x2014 <main+0x1a82>
    6092: 86 95        	stx	$95                     ; 0x2095 <main+0x1b03>
    6094: a6 15        	ldx	$15                     ; 0x2015 <main+0x1a83>
    6096: 86 9d        	stx	$9d                     ; 0x209d <main+0x1b0b>
    6098: a4 8f        	ldy	$8f                     ; 0x208f <main+0x1afd>
    609a: 84 96        	sty	$96                     ; 0x2096 <main+0x1b04>
    609c: a6 90        	ldx	$90                     ; 0x2090 <main+0x1afe>
    609e: 86 8e        	stx	$8e                     ; 0x208e <main+0x1afc>
    60a0: a6 92        	ldx	$92                     ; 0x2092 <main+0x1b00>
    60a2: 86 8f        	stx	$8f                     ; 0x208f <main+0x1afd>
    60a4: a6 8b        	ldx	$8b                     ; 0x208b <main+0x1af9>
    60a6: a5 99        	lda	$99                     ; 0x2099 <main+0x1b07>
    60a8: 05 17        	ora	$17                     ; 0x2017 <main+0x1a85>
    60aa: 85 14        	sta	$14                     ; 0x2014 <main+0x1a82>
    60ac: e0 80        	cpx	#$80
    60ae: d0 36        	bne	$60e6 <__muldf3+0x1319>
    60b0: 86 12        	stx	$12                     ; 0x2012 <main+0x1a80>
    60b2: a5 8d        	lda	$8d                     ; 0x208d <main+0x1afb>
    60b4: a6 8f        	ldx	$8f                     ; 0x208f <main+0x1afd>
    60b6: f0 03        	beq	$60bb <__muldf3+0x12ee>
    60b8: 4c 49 61     	jmp	$6149 <__muldf3+0x137c>
    60bb: a6 8e        	ldx	$8e                     ; 0x208e <main+0x1afc>
    60bd: f0 03        	beq	$60c2 <__muldf3+0x12f5>
    60bf: 4c 4d 61     	jmp	$614d <__muldf3+0x1380>
    60c2: a4 96        	ldy	$96                     ; 0x2096 <main+0x1b04>
    60c4: f0 03        	beq	$60c9 <__muldf3+0x12fc>
    60c6: 4c 4f 61     	jmp	$614f <__muldf3+0x1382>
    60c9: a6 94        	ldx	$94                     ; 0x2094 <main+0x1b02>
    60cb: f0 03        	beq	$60d0 <__muldf3+0x1303>
    60cd: 4c 9a 61     	jmp	$619a <__muldf3+0x13cd>
    60d0: a6 91        	ldx	$91                     ; 0x2091 <main+0x1aff>
    60d2: f0 03        	beq	$60d7 <__muldf3+0x130a>
    60d4: 4c 9e 61     	jmp	$619e <__muldf3+0x13d1>
    60d7: aa           	tax
    60d8: f0 03        	beq	$60dd <__muldf3+0x1310>
    60da: 4c a7 61     	jmp	$61a7 <__muldf3+0x13da>
    60dd: a6 97        	ldx	$97                     ; 0x2097 <main+0x1b05>
    60df: e0 01        	cpx	#$1
    60e1: 90 0e        	bcc	$60f1 <__muldf3+0x1324>
    60e3: 4c 56 61     	jmp	$6156 <__muldf3+0x1389>
    60e6: 86 12        	stx	$12                     ; 0x2012 <main+0x1a80>
    60e8: e0 80        	cpx	#$80
    60ea: a5 8d        	lda	$8d                     ; 0x208d <main+0x1afb>
    60ec: 90 03        	bcc	$60f1 <__muldf3+0x1324>
    60ee: 4c 56 61     	jmp	$6156 <__muldf3+0x1389>
    60f1: a4 12        	ldy	$12                     ; 0x2012 <main+0x1a80>
    60f3: c0 80        	cpy	#$80
    60f5: d0 4e        	bne	$6145 <__muldf3+0x1378>
    60f7: a6 8f        	ldx	$8f                     ; 0x208f <main+0x1afd>
    60f9: d0 4a        	bne	$6145 <__muldf3+0x1378>
    60fb: a6 8e        	ldx	$8e                     ; 0x208e <main+0x1afc>
    60fd: d0 46        	bne	$6145 <__muldf3+0x1378>
    60ff: a4 96        	ldy	$96                     ; 0x2096 <main+0x1b04>
    6101: d0 42        	bne	$6145 <__muldf3+0x1378>
    6103: a6 94        	ldx	$94                     ; 0x2094 <main+0x1b02>
    6105: d0 3e        	bne	$6145 <__muldf3+0x1378>
    6107: a6 91        	ldx	$91                     ; 0x2091 <main+0x1aff>
    6109: d0 3a        	bne	$6145 <__muldf3+0x1378>
    610b: aa           	tax
    610c: d0 37        	bne	$6145 <__muldf3+0x1378>
    610e: a6 97        	ldx	$97                     ; 0x2097 <main+0x1b05>
    6110: d0 33        	bne	$6145 <__muldf3+0x1378>
    6112: a5 18        	lda	$18                     ; 0x2018 <main+0x1a86>
    6114: 29 01        	and	#$1
    6116: 18           	clc
    6117: 65 18        	adc	$18                     ; 0x2018 <main+0x1a86>
    6119: 85 18        	sta	$18                     ; 0x2018 <main+0x1a86>
    611b: a5 22        	lda	$22                     ; 0x2022 <main+0x1a90>
    611d: 69 00        	adc	#$0
    611f: 85 22        	sta	$22                     ; 0x2022 <main+0x1a90>
    6121: a5 89        	lda	$89                     ; 0x2089 <main+0x1af7>
    6123: 69 00        	adc	#$0
    6125: 85 89        	sta	$89                     ; 0x2089 <main+0x1af7>
    6127: a5 13        	lda	$13                     ; 0x2013 <main+0x1a81>
    6129: 69 00        	adc	#$0
    612b: 85 13        	sta	$13                     ; 0x2013 <main+0x1a81>
    612d: a5 95        	lda	$95                     ; 0x2095 <main+0x1b03>
    612f: 69 00        	adc	#$0
    6131: 85 95        	sta	$95                     ; 0x2095 <main+0x1b03>
    6133: a5 9d        	lda	$9d                     ; 0x209d <main+0x1b0b>
    6135: 69 00        	adc	#$0
    6137: 85 9d        	sta	$9d                     ; 0x209d <main+0x1b0b>
    6139: a5 16        	lda	$16                     ; 0x2016 <main+0x1a84>
    613b: 69 00        	adc	#$0
    613d: 85 16        	sta	$16                     ; 0x2016 <main+0x1a84>
    613f: a5 14        	lda	$14                     ; 0x2014 <main+0x1a82>
    6141: 69 00        	adc	#$0
    6143: 80 36        	bra	$617b <__muldf3+0x13ae>
    6145: a5 14        	lda	$14                     ; 0x2014 <main+0x1a82>
    6147: 80 32        	bra	$617b <__muldf3+0x13ae>
    6149: a4 8f        	ldy	$8f                     ; 0x208f <main+0x1afd>
    614b: 80 02        	bra	$614f <__muldf3+0x1382>
    614d: a4 8e        	ldy	$8e                     ; 0x208e <main+0x1afc>
    614f: c0 00        	cpy	#$0
    6151: b0 03        	bcs	$6156 <__muldf3+0x1389>
    6153: 4c f1 60     	jmp	$60f1 <__muldf3+0x1324>
    6156: a5 14        	lda	$14                     ; 0x2014 <main+0x1a82>
    6158: a6 95        	ldx	$95                     ; 0x2095 <main+0x1b03>
    615a: a4 9d        	ldy	$9d                     ; 0x209d <main+0x1b0b>
    615c: e6 18        	inc	$18                     ; 0x2018 <main+0x1a86>
    615e: d0 17        	bne	$6177 <__muldf3+0x13aa>
    6160: e6 22        	inc	$22                     ; 0x2022 <main+0x1a90>
    6162: d0 13        	bne	$6177 <__muldf3+0x13aa>
    6164: e6 89        	inc	$89                     ; 0x2089 <main+0x1af7>
    6166: d0 0f        	bne	$6177 <__muldf3+0x13aa>
    6168: e6 13        	inc	$13                     ; 0x2013 <main+0x1a81>
    616a: d0 0b        	bne	$6177 <__muldf3+0x13aa>
    616c: e8           	inx
    616d: d0 08        	bne	$6177 <__muldf3+0x13aa>
    616f: c8           	iny
    6170: d0 05        	bne	$6177 <__muldf3+0x13aa>
    6172: e6 16        	inc	$16                     ; 0x2016 <main+0x1a84>
    6174: d0 01        	bne	$6177 <__muldf3+0x13aa>
    6176: 1a           	inc
    6177: 84 9d        	sty	$9d                     ; 0x209d <main+0x1b0b>
    6179: 86 95        	stx	$95                     ; 0x2095 <main+0x1b03>
    617b: a6 95        	ldx	$95                     ; 0x2095 <main+0x1b03>
    617d: 86 8b        	stx	$8b                     ; 0x208b <main+0x1af9>
    617f: a6 9d        	ldx	$9d                     ; 0x209d <main+0x1b0b>
    6181: 86 8c        	stx	$8c                     ; 0x208c <main+0x1afa>
    6183: a4 16        	ldy	$16                     ; 0x2016 <main+0x1a84>
    6185: a6 89        	ldx	$89                     ; 0x2089 <main+0x1af7>
    6187: 86 12        	stx	$12                     ; 0x2012 <main+0x1a80>
    6189: a6 8b        	ldx	$8b                     ; 0x208b <main+0x1af9>
    618b: 86 14        	stx	$14                     ; 0x2014 <main+0x1a82>
    618d: a6 8c        	ldx	$8c                     ; 0x208c <main+0x1afa>
    618f: 86 15        	stx	$15                     ; 0x2015 <main+0x1a83>
    6191: 84 16        	sty	$16                     ; 0x2016 <main+0x1a84>
    6193: 85 17        	sta	$17                     ; 0x2017 <main+0x1a85>
    6195: a6 22        	ldx	$22                     ; 0x2022 <main+0x1a90>
    6197: a5 18        	lda	$18                     ; 0x2018 <main+0x1a86>
    6199: 60           	rts
    619a: a6 94        	ldx	$94                     ; 0x2094 <main+0x1b02>
    619c: 80 02        	bra	$61a0 <__muldf3+0x13d3>
    619e: a6 91        	ldx	$91                     ; 0x2091 <main+0x1aff>
    61a0: e0 00        	cpx	#$0
    61a2: b0 b2        	bcs	$6156 <__muldf3+0x1389>
    61a4: 4c f1 60     	jmp	$60f1 <__muldf3+0x1324>
    61a7: c9 00        	cmp	#$0
    61a9: b0 03        	bcs	$61ae <__muldf3+0x13e1>
    61ab: 4c f1 60     	jmp	$60f1 <__muldf3+0x1324>
    61ae: 4c 56 61     	jmp	$6156 <__muldf3+0x1389>

000061b1 <__fixunsdfsi>:
    61b1: a4 17        	ldy	$17                     ; 0x2017 <main+0x1a85>
    61b3: 30 24        	bmi	$61d9 <__fixunsdfsi+0x28>
    61b5: 85 1a        	sta	$1a                     ; 0x201a <main+0x1a88>
    61b7: 86 19        	stx	$19                     ; 0x2019 <main+0x1a87>
    61b9: a5 17        	lda	$17                     ; 0x2017 <main+0x1a85>
    61bb: 4a           	lsr
    61bc: a6 16        	ldx	$16                     ; 0x2016 <main+0x1a84>
    61be: 86 17        	stx	$17                     ; 0x2017 <main+0x1a85>
    61c0: 66 16        	ror	$16                     ; 0x2016 <main+0x1a84>
    61c2: 4a           	lsr
    61c3: 66 16        	ror	$16                     ; 0x2016 <main+0x1a84>
    61c5: 4a           	lsr
    61c6: 66 16        	ror	$16                     ; 0x2016 <main+0x1a84>
    61c8: 4a           	lsr
    61c9: 66 16        	ror	$16                     ; 0x2016 <main+0x1a84>
    61cb: 29 07        	and	#$7
    61cd: c9 03        	cmp	#$3
    61cf: d0 11        	bne	$61e2 <__fixunsdfsi+0x31>
    61d1: 85 1b        	sta	$1b                     ; 0x201b <main+0x1a89>
    61d3: a6 16        	ldx	$16                     ; 0x2016 <main+0x1a84>
    61d5: e0 ff        	cpx	#$ff
    61d7: 80 0d        	bra	$61e6 <__fixunsdfsi+0x35>
    61d9: a2 00        	ldx	#$0
    61db: 86 89        	stx	$89                     ; 0x2089 <main+0x1af7>
    61dd: a0 00        	ldy	#$0
    61df: 98           	tya
    61e0: 80 4b        	bra	$622d <__fixunsdfsi+0x7c>
    61e2: 85 1b        	sta	$1b                     ; 0x201b <main+0x1a89>
    61e4: c9 03        	cmp	#$3
    61e6: a2 00        	ldx	#$0
    61e8: 86 89        	stx	$89                     ; 0x2089 <main+0x1af7>
    61ea: a0 00        	ldy	#$0
    61ec: 98           	tya
    61ed: 90 3e        	bcc	$622d <__fixunsdfsi+0x7c>
    61ef: a5 17        	lda	$17                     ; 0x2017 <main+0x1a85>
    61f1: 29 0f        	and	#$f
    61f3: 09 10        	ora	#$10
    61f5: 85 18        	sta	$18                     ; 0x2018 <main+0x1a86>
    61f7: 18           	clc
    61f8: a5 16        	lda	$16                     ; 0x2016 <main+0x1a84>
    61fa: 69 e1        	adc	#$e1
    61fc: aa           	tax
    61fd: a5 1b        	lda	$1b                     ; 0x201b <main+0x1a89>
    61ff: 69 fb        	adc	#$fb
    6201: c9 ff        	cmp	#$ff
    6203: d0 04        	bne	$6209 <__fixunsdfsi+0x58>
    6205: e0 e0        	cpx	#$e0
    6207: 80 02        	bra	$620b <__fixunsdfsi+0x5a>
    6209: c9 ff        	cmp	#$ff
    620b: a9 ff        	lda	#$ff
    620d: aa           	tax
    620e: 86 89        	stx	$89                     ; 0x2089 <main+0x1af7>
    6210: a8           	tay
    6211: 90 1a        	bcc	$622d <__fixunsdfsi+0x7c>
    6213: 38           	sec
    6214: a9 33        	lda	#$33
    6216: e5 16        	sbc	$16                     ; 0x2016 <main+0x1a84>
    6218: 64 17        	stz	$17                     ; 0x2017 <main+0x1a85>
    621a: a6 18        	ldx	$18                     ; 0x2018 <main+0x1a86>
    621c: 86 16        	stx	$16                     ; 0x2016 <main+0x1a84>
    621e: 85 18        	sta	$18                     ; 0x2018 <main+0x1a86>
    6220: a6 19        	ldx	$19                     ; 0x2019 <main+0x1a87>
    6222: a5 1a        	lda	$1a                     ; 0x201a <main+0x1a88>
    6224: 20 d7 4a     	jsr	$4ad7 <__lshrdi3>
    6227: 86 89        	stx	$89                     ; 0x2089 <main+0x1af7>
    6229: a6 12        	ldx	$12                     ; 0x2012 <main+0x1a80>
    622b: a4 13        	ldy	$13                     ; 0x2013 <main+0x1a81>
    622d: 86 12        	stx	$12                     ; 0x2012 <main+0x1a80>
    622f: 84 13        	sty	$13                     ; 0x2013 <main+0x1a81>
    6231: a6 89        	ldx	$89                     ; 0x2089 <main+0x1af7>
    6233: 60           	rts

00006234 <__floatunsidf>:
    6234: 85 19        	sta	$19                     ; 0x2019 <main+0x1a87>
    6236: 86 1a        	stx	$1a                     ; 0x201a <main+0x1a88>
    6238: a5 13        	lda	$13                     ; 0x2013 <main+0x1a81>
    623a: d0 0f        	bne	$624b <__floatunsidf+0x17>
    623c: a5 12        	lda	$12                     ; 0x2012 <main+0x1a80>
    623e: d0 0b        	bne	$624b <__floatunsidf+0x17>
    6240: a5 1a        	lda	$1a                     ; 0x201a <main+0x1a88>
    6242: d0 07        	bne	$624b <__floatunsidf+0x17>
    6244: a5 19        	lda	$19                     ; 0x2019 <main+0x1a87>
    6246: d0 03        	bne	$624b <__floatunsidf+0x17>
    6248: 4c a6 64     	jmp	$64a6 <__floatunsidf+0x272>
    624b: a5 13        	lda	$13                     ; 0x2013 <main+0x1a81>
    624d: 4a           	lsr
    624e: 85 16        	sta	$16                     ; 0x2016 <main+0x1a84>
    6250: a5 12        	lda	$12                     ; 0x2012 <main+0x1a80>
    6252: 6a           	ror
    6253: 85 15        	sta	$15                     ; 0x2015 <main+0x1a83>
    6255: 86 17        	stx	$17                     ; 0x2017 <main+0x1a85>
    6257: 66 17        	ror	$17                     ; 0x2017 <main+0x1a85>
    6259: a5 19        	lda	$19                     ; 0x2019 <main+0x1a87>
    625b: 6a           	ror
    625c: 05 19        	ora	$19                     ; 0x2019 <main+0x1a87>
    625e: a8           	tay
    625f: a5 17        	lda	$17                     ; 0x2017 <main+0x1a85>
    6261: 05 1a        	ora	$1a                     ; 0x201a <main+0x1a88>
    6263: aa           	tax
    6264: a5 15        	lda	$15                     ; 0x2015 <main+0x1a83>
    6266: 05 12        	ora	$12                     ; 0x2012 <main+0x1a80>
    6268: 85 18        	sta	$18                     ; 0x2018 <main+0x1a86>
    626a: a5 16        	lda	$16                     ; 0x2016 <main+0x1a84>
    626c: 05 13        	ora	$13                     ; 0x2013 <main+0x1a81>
    626e: 85 1b        	sta	$1b                     ; 0x201b <main+0x1a89>
    6270: 4a           	lsr
    6271: 5a           	phy
    6272: a4 18        	ldy	$18                     ; 0x2018 <main+0x1a86>
    6274: 84 14        	sty	$14                     ; 0x2014 <main+0x1a82>
    6276: 7a           	ply
    6277: 66 14        	ror	$14                     ; 0x2014 <main+0x1a82>
    6279: 86 15        	stx	$15                     ; 0x2015 <main+0x1a83>
    627b: 66 15        	ror	$15                     ; 0x2015 <main+0x1a83>
    627d: 84 16        	sty	$16                     ; 0x2016 <main+0x1a84>
    627f: 66 16        	ror	$16                     ; 0x2016 <main+0x1a84>
    6281: 4a           	lsr
    6282: 85 17        	sta	$17                     ; 0x2017 <main+0x1a85>
    6284: 66 14        	ror	$14                     ; 0x2014 <main+0x1a82>
    6286: 66 15        	ror	$15                     ; 0x2015 <main+0x1a83>
    6288: 66 16        	ror	$16                     ; 0x2016 <main+0x1a84>
    628a: 98           	tya
    628b: 05 16        	ora	$16                     ; 0x2016 <main+0x1a84>
    628d: a8           	tay
    628e: 8a           	txa
    628f: 05 15        	ora	$15                     ; 0x2015 <main+0x1a83>
    6291: aa           	tax
    6292: a5 18        	lda	$18                     ; 0x2018 <main+0x1a86>
    6294: 05 14        	ora	$14                     ; 0x2014 <main+0x1a82>
    6296: 85 18        	sta	$18                     ; 0x2018 <main+0x1a86>
    6298: a5 1b        	lda	$1b                     ; 0x201b <main+0x1a89>
    629a: 05 17        	ora	$17                     ; 0x2017 <main+0x1a85>
    629c: 85 1b        	sta	$1b                     ; 0x201b <main+0x1a89>
    629e: 4a           	lsr
    629f: 5a           	phy
    62a0: a4 18        	ldy	$18                     ; 0x2018 <main+0x1a86>
    62a2: 84 14        	sty	$14                     ; 0x2014 <main+0x1a82>
    62a4: 7a           	ply
    62a5: 66 14        	ror	$14                     ; 0x2014 <main+0x1a82>
    62a7: 86 15        	stx	$15                     ; 0x2015 <main+0x1a83>
    62a9: 66 15        	ror	$15                     ; 0x2015 <main+0x1a83>
    62ab: 84 16        	sty	$16                     ; 0x2016 <main+0x1a84>
    62ad: 66 16        	ror	$16                     ; 0x2016 <main+0x1a84>
    62af: 4a           	lsr
    62b0: 66 14        	ror	$14                     ; 0x2014 <main+0x1a82>
    62b2: 66 15        	ror	$15                     ; 0x2015 <main+0x1a83>
    62b4: 66 16        	ror	$16                     ; 0x2016 <main+0x1a84>
    62b6: 4a           	lsr
    62b7: 66 14        	ror	$14                     ; 0x2014 <main+0x1a82>
    62b9: 66 15        	ror	$15                     ; 0x2015 <main+0x1a83>
    62bb: 66 16        	ror	$16                     ; 0x2016 <main+0x1a84>
    62bd: 4a           	lsr
    62be: 85 17        	sta	$17                     ; 0x2017 <main+0x1a85>
    62c0: 66 14        	ror	$14                     ; 0x2014 <main+0x1a82>
    62c2: 66 15        	ror	$15                     ; 0x2015 <main+0x1a83>
    62c4: 66 16        	ror	$16                     ; 0x2016 <main+0x1a84>
    62c6: 98           	tya
    62c7: 05 16        	ora	$16                     ; 0x2016 <main+0x1a84>
    62c9: 85 16        	sta	$16                     ; 0x2016 <main+0x1a84>
    62cb: 8a           	txa
    62cc: 05 15        	ora	$15                     ; 0x2015 <main+0x1a83>
    62ce: aa           	tax
    62cf: a5 18        	lda	$18                     ; 0x2018 <main+0x1a86>
    62d1: 05 14        	ora	$14                     ; 0x2014 <main+0x1a82>
    62d3: a8           	tay
    62d4: a5 1b        	lda	$1b                     ; 0x201b <main+0x1a89>
    62d6: 05 17        	ora	$17                     ; 0x2017 <main+0x1a85>
    62d8: 85 15        	sta	$15                     ; 0x2015 <main+0x1a83>
    62da: 86 14        	stx	$14                     ; 0x2014 <main+0x1a82>
    62dc: a5 16        	lda	$16                     ; 0x2016 <main+0x1a84>
    62de: 05 14        	ora	$14                     ; 0x2014 <main+0x1a82>
    62e0: 85 17        	sta	$17                     ; 0x2017 <main+0x1a85>
    62e2: 84 14        	sty	$14                     ; 0x2014 <main+0x1a82>
    62e4: 8a           	txa
    62e5: 05 14        	ora	$14                     ; 0x2014 <main+0x1a82>
    62e7: 85 16        	sta	$16                     ; 0x2016 <main+0x1a84>
    62e9: a6 15        	ldx	$15                     ; 0x2015 <main+0x1a83>
    62eb: 86 14        	stx	$14                     ; 0x2014 <main+0x1a82>
    62ed: 86 18        	stx	$18                     ; 0x2018 <main+0x1a86>
    62ef: 98           	tya
    62f0: 05 14        	ora	$14                     ; 0x2014 <main+0x1a82>
    62f2: 85 15        	sta	$15                     ; 0x2015 <main+0x1a83>
    62f4: 85 1b        	sta	$1b                     ; 0x201b <main+0x1a89>
    62f6: a5 17        	lda	$17                     ; 0x2017 <main+0x1a85>
    62f8: 05 15        	ora	$15                     ; 0x2015 <main+0x1a83>
    62fa: a8           	tay
    62fb: a5 16        	lda	$16                     ; 0x2016 <main+0x1a84>
    62fd: 05 14        	ora	$14                     ; 0x2014 <main+0x1a82>
    62ff: aa           	tax
    6300: 98           	tya
    6301: 4a           	lsr
    6302: 29 55        	and	#$55
    6304: 85 14        	sta	$14                     ; 0x2014 <main+0x1a82>
    6306: 8a           	txa
    6307: 4a           	lsr
    6308: 29 55        	and	#$55
    630a: 85 15        	sta	$15                     ; 0x2015 <main+0x1a83>
    630c: a5 1b        	lda	$1b                     ; 0x201b <main+0x1a89>
    630e: 4a           	lsr
    630f: 29 55        	and	#$55
    6311: 85 16        	sta	$16                     ; 0x2016 <main+0x1a84>
    6313: a5 18        	lda	$18                     ; 0x2018 <main+0x1a86>
    6315: 4a           	lsr
    6316: 29 55        	and	#$55
    6318: 85 17        	sta	$17                     ; 0x2017 <main+0x1a85>
    631a: 38           	sec
    631b: 98           	tya
    631c: e5 14        	sbc	$14                     ; 0x2014 <main+0x1a82>
    631e: 85 14        	sta	$14                     ; 0x2014 <main+0x1a82>
    6320: 8a           	txa
    6321: e5 15        	sbc	$15                     ; 0x2015 <main+0x1a83>
    6323: aa           	tax
    6324: a5 1b        	lda	$1b                     ; 0x201b <main+0x1a89>
    6326: e5 16        	sbc	$16                     ; 0x2016 <main+0x1a84>
    6328: 85 16        	sta	$16                     ; 0x2016 <main+0x1a84>
    632a: a5 18        	lda	$18                     ; 0x2018 <main+0x1a86>
    632c: e5 17        	sbc	$17                     ; 0x2017 <main+0x1a85>
    632e: a8           	tay
    632f: a5 14        	lda	$14                     ; 0x2014 <main+0x1a82>
    6331: 85 17        	sta	$17                     ; 0x2017 <main+0x1a85>
    6333: 29 33        	and	#$33
    6335: 85 14        	sta	$14                     ; 0x2014 <main+0x1a82>
    6337: 8a           	txa
    6338: 29 33        	and	#$33
    633a: 85 15        	sta	$15                     ; 0x2015 <main+0x1a83>
    633c: a5 16        	lda	$16                     ; 0x2016 <main+0x1a84>
    633e: 85 18        	sta	$18                     ; 0x2018 <main+0x1a86>
    6340: 29 33        	and	#$33
    6342: 85 16        	sta	$16                     ; 0x2016 <main+0x1a84>
    6344: 98           	tya
    6345: 4a           	lsr
    6346: 85 1c        	sta	$1c                     ; 0x201c <main+0x1a8a>
    6348: a5 18        	lda	$18                     ; 0x2018 <main+0x1a86>
    634a: 4a           	lsr
    634b: 85 1b        	sta	$1b                     ; 0x201b <main+0x1a89>
    634d: 8a           	txa
    634e: 4a           	lsr
    634f: 85 18        	sta	$18                     ; 0x2018 <main+0x1a86>
    6351: a5 17        	lda	$17                     ; 0x2017 <main+0x1a85>
    6353: 4a           	lsr
    6354: 46 1c        	lsr	$1c                     ; 0x201c <main+0x1a8a>
    6356: 46 1b        	lsr	$1b                     ; 0x201b <main+0x1a89>
    6358: a6 18        	ldx	$18                     ; 0x2018 <main+0x1a86>
    635a: 86 17        	stx	$17                     ; 0x2017 <main+0x1a85>
    635c: 46 17        	lsr	$17                     ; 0x2017 <main+0x1a85>
    635e: 4a           	lsr
    635f: 29 33        	and	#$33
    6361: 85 1d        	sta	$1d                     ; 0x201d <main+0x1a8b>
    6363: a5 17        	lda	$17                     ; 0x2017 <main+0x1a85>
    6365: 29 33        	and	#$33
    6367: aa           	tax
    6368: a5 1b        	lda	$1b                     ; 0x201b <main+0x1a89>
    636a: 29 33        	and	#$33
    636c: 85 18        	sta	$18                     ; 0x2018 <main+0x1a86>
    636e: a5 1c        	lda	$1c                     ; 0x201c <main+0x1a8a>
    6370: 29 33        	and	#$33
    6372: 85 1b        	sta	$1b                     ; 0x201b <main+0x1a89>
    6374: 98           	tya
    6375: 29 33        	and	#$33
    6377: 85 17        	sta	$17                     ; 0x2017 <main+0x1a85>
    6379: 18           	clc
    637a: a5 1d        	lda	$1d                     ; 0x201d <main+0x1a8b>
    637c: 65 14        	adc	$14                     ; 0x2014 <main+0x1a82>
    637e: 85 14        	sta	$14                     ; 0x2014 <main+0x1a82>
    6380: 8a           	txa
    6381: 65 15        	adc	$15                     ; 0x2015 <main+0x1a83>
    6383: 85 15        	sta	$15                     ; 0x2015 <main+0x1a83>
    6385: a5 18        	lda	$18                     ; 0x2018 <main+0x1a86>
    6387: 65 16        	adc	$16                     ; 0x2016 <main+0x1a84>
    6389: 85 16        	sta	$16                     ; 0x2016 <main+0x1a84>
    638b: a5 1b        	lda	$1b                     ; 0x201b <main+0x1a89>
    638d: 65 17        	adc	$17                     ; 0x2017 <main+0x1a85>
    638f: 85 17        	sta	$17                     ; 0x2017 <main+0x1a85>
    6391: 4a           	lsr
    6392: aa           	tax
    6393: a5 16        	lda	$16                     ; 0x2016 <main+0x1a84>
    6395: 6a           	ror
    6396: a4 15        	ldy	$15                     ; 0x2015 <main+0x1a83>
    6398: 84 1b        	sty	$1b                     ; 0x201b <main+0x1a89>
    639a: 66 1b        	ror	$1b                     ; 0x201b <main+0x1a89>
    639c: a4 14        	ldy	$14                     ; 0x2014 <main+0x1a82>
    639e: 84 1c        	sty	$1c                     ; 0x201c <main+0x1a8a>
    63a0: 66 1c        	ror	$1c                     ; 0x201c <main+0x1a8a>
    63a2: 86 18        	stx	$18                     ; 0x2018 <main+0x1a86>
    63a4: 46 18        	lsr	$18                     ; 0x2018 <main+0x1a86>
    63a6: 6a           	ror
    63a7: 66 1b        	ror	$1b                     ; 0x201b <main+0x1a89>
    63a9: 66 1c        	ror	$1c                     ; 0x201c <main+0x1a8a>
    63ab: 46 18        	lsr	$18                     ; 0x2018 <main+0x1a86>
    63ad: 6a           	ror
    63ae: 66 1b        	ror	$1b                     ; 0x201b <main+0x1a89>
    63b0: 66 1c        	ror	$1c                     ; 0x201c <main+0x1a8a>
    63b2: 46 18        	lsr	$18                     ; 0x2018 <main+0x1a86>
    63b4: 6a           	ror
    63b5: 85 1d        	sta	$1d                     ; 0x201d <main+0x1a8b>
    63b7: a6 1b        	ldx	$1b                     ; 0x201b <main+0x1a89>
    63b9: 86 1e        	stx	$1e                     ; 0x201e <main+0x1a8c>
    63bb: 66 1e        	ror	$1e                     ; 0x201e <main+0x1a8c>
    63bd: a5 1c        	lda	$1c                     ; 0x201c <main+0x1a8a>
    63bf: 6a           	ror
    63c0: 18           	clc
    63c1: 65 14        	adc	$14                     ; 0x2014 <main+0x1a82>
    63c3: aa           	tax
    63c4: a5 1e        	lda	$1e                     ; 0x201e <main+0x1a8c>
    63c6: 65 15        	adc	$15                     ; 0x2015 <main+0x1a83>
    63c8: a8           	tay
    63c9: a5 1d        	lda	$1d                     ; 0x201d <main+0x1a8b>
    63cb: 65 16        	adc	$16                     ; 0x2016 <main+0x1a84>
    63cd: 85 16        	sta	$16                     ; 0x2016 <main+0x1a84>
    63cf: a5 18        	lda	$18                     ; 0x2018 <main+0x1a86>
    63d1: 65 17        	adc	$17                     ; 0x2017 <main+0x1a85>
    63d3: 85 17        	sta	$17                     ; 0x2017 <main+0x1a85>
    63d5: 8a           	txa
    63d6: 29 0f        	and	#$f
    63d8: 85 14        	sta	$14                     ; 0x2014 <main+0x1a82>
    63da: aa           	tax
    63db: 98           	tya
    63dc: 29 0f        	and	#$f
    63de: 85 15        	sta	$15                     ; 0x2015 <main+0x1a83>
    63e0: 85 1b        	sta	$1b                     ; 0x201b <main+0x1a89>
    63e2: a5 16        	lda	$16                     ; 0x2016 <main+0x1a84>
    63e4: 29 0f        	and	#$f
    63e6: 85 16        	sta	$16                     ; 0x2016 <main+0x1a84>
    63e8: a8           	tay
    63e9: a5 17        	lda	$17                     ; 0x2017 <main+0x1a85>
    63eb: 29 0f        	and	#$f
    63ed: 85 18        	sta	$18                     ; 0x2018 <main+0x1a86>
    63ef: 18           	clc
    63f0: 8a           	txa
    63f1: 69 00        	adc	#$0
    63f3: 85 17        	sta	$17                     ; 0x2017 <main+0x1a85>
    63f5: 85 1c        	sta	$1c                     ; 0x201c <main+0x1a8a>
    63f7: a5 1b        	lda	$1b                     ; 0x201b <main+0x1a89>
    63f9: 65 14        	adc	$14                     ; 0x2014 <main+0x1a82>
    63fb: 85 14        	sta	$14                     ; 0x2014 <main+0x1a82>
    63fd: 98           	tya
    63fe: 65 15        	adc	$15                     ; 0x2015 <main+0x1a83>
    6400: 85 15        	sta	$15                     ; 0x2015 <main+0x1a83>
    6402: a5 18        	lda	$18                     ; 0x2018 <main+0x1a86>
    6404: 65 16        	adc	$16                     ; 0x2016 <main+0x1a84>
    6406: aa           	tax
    6407: 18           	clc
    6408: a5 1c        	lda	$1c                     ; 0x201c <main+0x1a8a>
    640a: 69 00        	adc	#$0
    640c: a5 14        	lda	$14                     ; 0x2014 <main+0x1a82>
    640e: 69 00        	adc	#$0
    6410: a5 15        	lda	$15                     ; 0x2015 <main+0x1a83>
    6412: 65 17        	adc	$17                     ; 0x2017 <main+0x1a85>
    6414: 8a           	txa
    6415: 65 14        	adc	$14                     ; 0x2014 <main+0x1a82>
    6417: 85 14        	sta	$14                     ; 0x2014 <main+0x1a82>
    6419: a9 20        	lda	#$20
    641b: 38           	sec
    641c: e5 14        	sbc	$14                     ; 0x2014 <main+0x1a82>
    641e: a8           	tay
    641f: 85 8a        	sta	$8a                     ; 0x208a <main+0x1af8>
    6421: a9 00        	lda	#$0
    6423: e9 00        	sbc	#$0
    6425: 85 89        	sta	$89                     ; 0x2089 <main+0x1af7>
    6427: 98           	tya
    6428: 49 1f        	eor	#$1f
    642a: 85 14        	sta	$14                     ; 0x2014 <main+0x1a82>
    642c: a9 34        	lda	#$34
    642e: 38           	sec
    642f: e5 14        	sbc	$14                     ; 0x2014 <main+0x1a82>
    6431: 64 14        	stz	$14                     ; 0x2014 <main+0x1a82>
    6433: 64 15        	stz	$15                     ; 0x2015 <main+0x1a83>
    6435: 64 16        	stz	$16                     ; 0x2016 <main+0x1a84>
    6437: 64 17        	stz	$17                     ; 0x2017 <main+0x1a85>
    6439: 85 18        	sta	$18                     ; 0x2018 <main+0x1a86>
    643b: a6 1a        	ldx	$1a                     ; 0x201a <main+0x1a88>
    643d: a5 19        	lda	$19                     ; 0x2019 <main+0x1a87>
    643f: 20 b8 4a     	jsr	$4ab8 <__ashldi3>
    6442: 85 1a        	sta	$1a                     ; 0x201a <main+0x1a88>
    6444: a9 1e        	lda	#$1e
    6446: a4 8a        	ldy	$8a                     ; 0x208a <main+0x1af8>
    6448: 84 18        	sty	$18                     ; 0x2018 <main+0x1a86>
    644a: 38           	sec
    644b: e5 18        	sbc	$18                     ; 0x2018 <main+0x1a86>
    644d: 85 19        	sta	$19                     ; 0x2019 <main+0x1a87>
    644f: a9 04        	lda	#$4
    6451: a4 89        	ldy	$89                     ; 0x2089 <main+0x1af7>
    6453: 84 18        	sty	$18                     ; 0x2018 <main+0x1a86>
    6455: e5 18        	sbc	$18                     ; 0x2018 <main+0x1a86>
    6457: 85 18        	sta	$18                     ; 0x2018 <main+0x1a86>
    6459: a5 19        	lda	$19                     ; 0x2019 <main+0x1a87>
    645b: 0a           	asl
    645c: 26 18        	rol	$18                     ; 0x2018 <main+0x1a86>
    645e: 0a           	asl
    645f: 26 18        	rol	$18                     ; 0x2018 <main+0x1a86>
    6461: 0a           	asl
    6462: 26 18        	rol	$18                     ; 0x2018 <main+0x1a86>
    6464: 0a           	asl
    6465: 85 19        	sta	$19                     ; 0x2019 <main+0x1a87>
    6467: a4 1a        	ldy	$1a                     ; 0x201a <main+0x1a88>
    6469: a5 16        	lda	$16                     ; 0x2016 <main+0x1a84>
    646b: 49 10        	eor	#$10
    646d: 85 16        	sta	$16                     ; 0x2016 <main+0x1a84>
    646f: a5 18        	lda	$18                     ; 0x2018 <main+0x1a86>
    6471: 2a           	rol
    6472: 85 1a        	sta	$1a                     ; 0x201a <main+0x1a88>
    6474: 18           	clc
    6475: 98           	tya
    6476: 69 00        	adc	#$0
    6478: 85 18        	sta	$18                     ; 0x2018 <main+0x1a86>
    647a: 8a           	txa
    647b: 69 00        	adc	#$0
    647d: aa           	tax
    647e: a5 12        	lda	$12                     ; 0x2012 <main+0x1a80>
    6480: 69 00        	adc	#$0
    6482: a8           	tay
    6483: a5 13        	lda	$13                     ; 0x2013 <main+0x1a81>
    6485: 69 00        	adc	#$0
    6487: 85 13        	sta	$13                     ; 0x2013 <main+0x1a81>
    6489: a5 14        	lda	$14                     ; 0x2014 <main+0x1a82>
    648b: 69 00        	adc	#$0
    648d: 85 14        	sta	$14                     ; 0x2014 <main+0x1a82>
    648f: a5 15        	lda	$15                     ; 0x2015 <main+0x1a83>
    6491: 69 00        	adc	#$0
    6493: 85 15        	sta	$15                     ; 0x2015 <main+0x1a83>
    6495: a5 16        	lda	$16                     ; 0x2016 <main+0x1a84>
    6497: 65 19        	adc	$19                     ; 0x2019 <main+0x1a87>
    6499: 85 16        	sta	$16                     ; 0x2016 <main+0x1a84>
    649b: a5 1a        	lda	$1a                     ; 0x201a <main+0x1a88>
    649d: 65 17        	adc	$17                     ; 0x2017 <main+0x1a85>
    649f: 85 17        	sta	$17                     ; 0x2017 <main+0x1a85>
    64a1: 84 12        	sty	$12                     ; 0x2012 <main+0x1a80>
    64a3: a5 18        	lda	$18                     ; 0x2018 <main+0x1a86>
    64a5: 60           	rts
    64a6: 64 18        	stz	$18                     ; 0x2018 <main+0x1a86>
    64a8: a2 00        	ldx	#$0
    64aa: a0 00        	ldy	#$0
    64ac: 64 13        	stz	$13                     ; 0x2013 <main+0x1a81>
    64ae: 64 14        	stz	$14                     ; 0x2014 <main+0x1a82>
    64b0: 64 15        	stz	$15                     ; 0x2015 <main+0x1a83>
    64b2: 64 16        	stz	$16                     ; 0x2016 <main+0x1a84>
    64b4: 64 17        	stz	$17                     ; 0x2017 <main+0x1a85>
    64b6: 80 e9        	bra	$64a1 <__floatunsidf+0x26d>
