
ParseNPlayMidi.elf:	file format elf32-mos

SYMBOL TABLE:
00000000 l    df *ABS*	00000000 zero-bss.c
00000000 l    df *ABS*	00000000 zero-zp-bss.c
00000000 l    df *ABS*	00000000 copy-zp-data.c
00000000 l    df *ABS*	00000000 ld-temp.o
000004be l     F .text	000003a1 f256Init
00005cc1 l     O .bss	00000007 kernelEventData
00000061 l     O .zp.bss	00000001 _ccolor
00000060 l     O .zp.bss	00000001 _MAX_ROW
00000030 l     O .zp.data	00000030 textColors
00000062 l     O .zp.bss	00000001 _col
00000063 l     O .zp.bss	00000001 _row
00005cc8 l     O .bss	00000001 kernelError
00000865 l     F .text	00000ac0 f256main
0000006c l     O .zp.bss	00000001 theBigList.0
0000006d l     O .zp.bss	00000002 theBigList.1
0000006f l     O .zp.bss	00000002 theBigList.2
00003a8d l     F .text	00000074 strstr
00003759 l     F .text	00000031 puts
00000066 l     O .zp.bss	00000002 trackcount
0000378a l     F .text	000002b7 malloc
00002ba9 l     F .text	00000bb0 printf
00001325 l     F .text	00001463 parse
00000068 l     O .zp.bss	00000004 tick
00003b3f l     F .text	00000070 __mulsi3
0000585a l     F .text	00000284 __floatunsidf
00003e16 l     F .text	000019c1 __divdf3
000057d7 l     F .text	00000083 __fixunsdfsi
00003ca7 l     F .text	0000016f __udivsi3
00002788 l     F .text	0000023e __putchar
00000064 l     O .zp.bss	00000002 __putchar.s
000029cb l     F .text	000000d1 _ZN12_GLOBAL__N_13putEcP6Status
00002a9c l     F .text	0000010d _ZN12_GLOBAL__N_112print_stringEPKcP6Status
00005cc9 l     O .bss	00000001 _ZN12_GLOBAL__N_111initializedE
00000348 l     F .text	00000139 _ZN12_GLOBAL__N_19FreeChunk6insertEPvj
00005ccc l     O .bss	00000002 _ZN12_GLOBAL__N_19free_listE
00005cca l     O .bss	00000002 _ZN12_GLOBAL__N_19free_sizeE
00003b01 l     F .text	0000001f __ashldi3
00003b20 l     F .text	0000001f __lshrdi3
00003baf l     F .text	000000f8 __muldi3
0000085f g     F .text	00000006 main
00010000 g       .human2	00000000 human2_start
00018454 g       .human2	00000000 human2_end
00000344 g       .text	00000000 __after_main
00000330 g       .text	00000000 __do_init_stack
0000033e g       .text	00000000 __do_copy_zp_data
000004a7 g     F .text	00000017 __copy_zp_data
00000338 g       .text	00000000 __do_zero_bss
00000481 g     F .text	00000013 __zero_bss
0000033b g       .text	00000000 __do_zero_zp_bss
00000494 g     F .text	00000013 __zero_zp_bss
000029c6 g     F .text	00000005 exit
00000347 g       .text	00000000 _fini
00005ade g       .rodata	00000000 __set_v
00003a6d  w    F .text	00000020 __memset
00001000  w      *ABS*	00000000 __heap_default_limit
00005cce g       .noinit	00000000 __heap_start
00003a41  w    F .text	0000002c memcpy
00000010 g       *ABS*	00000000 __rc0
00000012 g       *ABS*	00000000 __rc2
00000014 g       *ABS*	00000000 __rc4
00000016 g       *ABS*	00000000 __rc6
00000018 g       *ABS*	00000000 __rc8
0000001a g       *ABS*	00000000 __rc10
0000001c g       *ABS*	00000000 __rc12
0000001e g       *ABS*	00000000 __rc14
00000020 g       *ABS*	00000000 __rc16
00000022 g       *ABS*	00000000 __rc18
00000024 g       *ABS*	00000000 __rc20
00000026 g       *ABS*	00000000 __rc22
00000028 g       *ABS*	00000000 __rc24
0000002a g       *ABS*	00000000 __rc26
0000002c g       *ABS*	00000000 __rc28
0000002e g       *ABS*	00000000 __rc30
0000002f g       *ABS*	00000000 __rc31
00000300 g       *ABS*	00000000 __f256_start
0000a000 g       *ABS*	00000000 __stack
0000a000 g       *ABS*	00000000 __SLOT_ADDR
0800a000 g       *ABS*	00000000 __block8_lma
00002000 g       *ABS*	00000000 __BLOCK_SIZE
0900a000 g       *ABS*	00000000 __block9_lma
0a00a000 g       *ABS*	00000000 __block10_lma
0b00a000 g       *ABS*	00000000 __block11_lma
0c00a000 g       *ABS*	00000000 __block12_lma
0d00a000 g       *ABS*	00000000 __block13_lma
0e00a000 g       *ABS*	00000000 __block14_lma
0f00a000 g       *ABS*	00000000 __block15_lma
1000a000 g       *ABS*	00000000 __block16_lma
1100a000 g       *ABS*	00000000 __block17_lma
1200a000 g       *ABS*	00000000 __block18_lma
1300a000 g       *ABS*	00000000 __block19_lma
1400a000 g       *ABS*	00000000 __block20_lma
1500a000 g       *ABS*	00000000 __block21_lma
1600a000 g       *ABS*	00000000 __block22_lma
1700a000 g       *ABS*	00000000 __block23_lma
00010000 g       *ABS*	00000000 __human2_lma
00008454 g       *ABS*	00000000 __human2_size
00005cc1 g       .bss	00000000 __bss_start
00018454 g       .human2	00000000 end_human2
00000330 g       .text	00000000 _start
0000002d g       *ABS*	00000000 __rc29
0000002b g       *ABS*	00000000 __rc27
00000029 g       *ABS*	00000000 __rc25
00000027 g       *ABS*	00000000 __rc23
00000025 g       *ABS*	00000000 __rc21
00000023 g       *ABS*	00000000 __rc19
00000021 g       *ABS*	00000000 __rc17
0000001f g       *ABS*	00000000 __rc15
0000001d g       *ABS*	00000000 __rc13
0000001b g       *ABS*	00000000 __rc11
00000019 g       *ABS*	00000000 __rc9
00000017 g       *ABS*	00000000 __rc7
00000015 g       *ABS*	00000000 __rc5
00000013 g       *ABS*	00000000 __rc3
00000011 g       *ABS*	00000000 __rc1
00000030 g       .zp.data	00000000 __zp_data_start
00000300 g       *ABS*	00000000 __zp_data_load_start
00000030 g       *ABS*	00000000 __zp_data_size
00000060 g       .zp.bss	00000000 __zp_bss_start
00000011 g       *ABS*	00000000 __zp_bss_size
00000330 g       .text	00000000 _init
00005ade g       .text	00000000 __init_array_start
00005ade g       .text	00000000 __init_array_end
00005ade g       .text	00000000 __fini_array_start
00005ade g       .text	00000000 __fini_array_end
00005cc1 g       .data	00000000 __data_start
00005cc1 g       .data	00000000 __data_end
00005cc1 g       *ABS*	00000000 __data_load_start
00000000 g       *ABS*	00000000 __data_size
00005cce g       .bss	00000000 __bss_end
0000000d g       *ABS*	00000000 __bss_size
00005cce g       .noinit	00000000 end_block8
00005cce g       .noinit	00000000 end_block9
00005cce g       .noinit	00000000 end_block10
00005cce g       .noinit	00000000 end_block11
00005cce g       .noinit	00000000 end_block12
00005cce g       .noinit	00000000 end_block13
00005cce g       .noinit	00000000 end_block14
00005cce g       .noinit	00000000 end_block15
00005cce g       .noinit	00000000 end_block16
00005cce g       .noinit	00000000 end_block17
00005cce g       .noinit	00000000 end_block18
00005cce g       .noinit	00000000 end_block19
00005cce g       .noinit	00000000 end_block20
00005cce g       .noinit	00000000 end_block21
00005cce g       .noinit	00000000 end_block22
00005cce g       .noinit	00000000 end_block23

Disassembly of section .text:

00000330 <_start>:
     330: a9 00        	lda	#$0
     332: 85 10        	sta	$10                     ; 0x2010 <parse+0xceb>
     334: a9 a0        	lda	#$a0
     336: 85 11        	sta	$11                     ; 0x2011 <parse+0xcec>

00000338 <__do_zero_bss>:
     338: 20 81 04     	jsr	$481 <__zero_bss>

0000033b <__do_zero_zp_bss>:
     33b: 20 94 04     	jsr	$494 <__zero_zp_bss>

0000033e <__do_copy_zp_data>:
     33e: 20 a7 04     	jsr	$4a7 <__copy_zp_data>
     341: 20 5f 08     	jsr	$85f <main>

00000344 <__after_main>:
     344: 4c c6 29     	jmp	$29c6 <exit>

00000347 <_fini>:
     347: 60           	rts

00000348 <_ZN12_GLOBAL__N_19FreeChunk6insertEPvj>:
     348: 85 16        	sta	$16                     ; 0x2016 <parse+0xcf1>
     34a: 29 fe        	and	#$fe
     34c: 85 14        	sta	$14                     ; 0x2014 <parse+0xcef>
     34e: a0 01        	ldy	#$1
     350: 98           	tya
     351: 32 12        	and	($12)                   ; 0x2012 <parse+0xced>
     353: 05 14        	ora	$14                     ; 0x2014 <parse+0xcef>
     355: 92 12        	sta	($12)                   ; 0x2012 <parse+0xced>
     357: a5 12        	lda	$12                     ; 0x2012 <parse+0xced>
     359: 18           	clc
     35a: 65 14        	adc	$14                     ; 0x2014 <parse+0xcef>
     35c: 85 15        	sta	$15                     ; 0x2015 <parse+0xcf0>
     35e: 8a           	txa
     35f: 65 13        	adc	$13                     ; 0x2013 <parse+0xcee>
     361: 85 14        	sta	$14                     ; 0x2014 <parse+0xcef>
     363: 18           	clc
     364: a5 15        	lda	$15                     ; 0x2015 <parse+0xcf0>
     366: 69 fe        	adc	#$fe
     368: 85 17        	sta	$17                     ; 0x2017 <parse+0xcf2>
     36a: a5 14        	lda	$14                     ; 0x2014 <parse+0xcef>
     36c: 69 ff        	adc	#$ff
     36e: 85 15        	sta	$15                     ; 0x2015 <parse+0xcf0>
     370: a5 17        	lda	$17                     ; 0x2017 <parse+0xcf2>
     372: 85 14        	sta	$14                     ; 0x2014 <parse+0xcef>
     374: 8a           	txa
     375: 91 12        	sta	($12),y                 ; 0x2012 <parse+0xced>
     377: a5 16        	lda	$16                     ; 0x2016 <parse+0xcf1>
     379: 92 14        	sta	($14)                   ; 0x2014 <parse+0xcef>
     37b: 8a           	txa
     37c: 91 14        	sta	($14),y                 ; 0x2014 <parse+0xcef>
     37e: b1 12        	lda	($12),y                 ; 0x2012 <parse+0xced>
     380: 85 14        	sta	$14                     ; 0x2014 <parse+0xcef>
     382: a9 fe        	lda	#$fe
     384: 32 12        	and	($12)                   ; 0x2012 <parse+0xced>
     386: 18           	clc
     387: 6d ca 5c     	adc	$5cca                   ; 0x5cca <_ZN12_GLOBAL__N_19free_sizeE>
     38a: aa           	tax
     38b: a5 14        	lda	$14                     ; 0x2014 <parse+0xcef>
     38d: 6d cb 5c     	adc	$5ccb                   ; 0x5ccb <_ZN12_GLOBAL__N_19free_sizeE+0x1>
     390: a8           	tay
     391: 18           	clc
     392: 8a           	txa
     393: 69 fe        	adc	#$fe
     395: aa           	tax
     396: 98           	tya
     397: 69 ff        	adc	#$ff
     399: 8e ca 5c     	stx	$5cca                   ; 0x5cca <_ZN12_GLOBAL__N_19free_sizeE>
     39c: 8d cb 5c     	sta	$5ccb                   ; 0x5ccb <_ZN12_GLOBAL__N_19free_sizeE+0x1>
     39f: ae cc 5c     	ldx	$5ccc                   ; 0x5ccc <_ZN12_GLOBAL__N_19free_listE>
     3a2: 86 16        	stx	$16                     ; 0x2016 <parse+0xcf1>
     3a4: ac cd 5c     	ldy	$5ccd                   ; 0x5ccd <_ZN12_GLOBAL__N_19free_listE+0x1>
     3a7: a2 00        	ldx	#$0
     3a9: 86 14        	stx	$14                     ; 0x2014 <parse+0xcef>
     3ab: a2 00        	ldx	#$0
     3ad: 86 15        	stx	$15                     ; 0x2015 <parse+0xcf0>
     3af: 84 18        	sty	$18                     ; 0x2018 <parse+0xcf3>
     3b1: c4 15        	cpy	$15                     ; 0x2015 <parse+0xcf0>
     3b3: d0 31        	bne	$3e6 <_ZN12_GLOBAL__N_19FreeChunk6insertEPvj+0x9e>
     3b5: a6 16        	ldx	$16                     ; 0x2016 <parse+0xcf1>
     3b7: e4 14        	cpx	$14                     ; 0x2014 <parse+0xcef>
     3b9: d0 2b        	bne	$3e6 <_ZN12_GLOBAL__N_19FreeChunk6insertEPvj+0x9e>
     3bb: a0 02        	ldy	#$2
     3bd: 18           	clc
     3be: a5 12        	lda	$12                     ; 0x2012 <parse+0xced>
     3c0: 69 02        	adc	#$2
     3c2: 85 14        	sta	$14                     ; 0x2014 <parse+0xcef>
     3c4: a5 12        	lda	$12                     ; 0x2012 <parse+0xced>
     3c6: 91 12        	sta	($12),y                 ; 0x2012 <parse+0xced>
     3c8: a5 13        	lda	$13                     ; 0x2013 <parse+0xcee>
     3ca: 69 00        	adc	#$0
     3cc: 85 15        	sta	$15                     ; 0x2015 <parse+0xcf0>
     3ce: 88           	dey
     3cf: a5 13        	lda	$13                     ; 0x2013 <parse+0xcee>
     3d1: 91 14        	sta	($14),y                 ; 0x2014 <parse+0xcef>
     3d3: a2 cc        	ldx	#$cc
     3d5: 86 16        	stx	$16                     ; 0x2016 <parse+0xcf1>
     3d7: a2 5c        	ldx	#$5c
     3d9: 86 17        	stx	$17                     ; 0x2017 <parse+0xcf2>
     3db: a6 12        	ldx	$12                     ; 0x2012 <parse+0xced>
     3dd: 86 14        	stx	$14                     ; 0x2014 <parse+0xcef>
     3df: a6 13        	ldx	$13                     ; 0x2013 <parse+0xcee>
     3e1: 86 15        	stx	$15                     ; 0x2015 <parse+0xcf0>
     3e3: 4c 5f 04     	jmp	$45f <_ZN12_GLOBAL__N_19FreeChunk6insertEPvj+0x117>
     3e6: a5 12        	lda	$12                     ; 0x2012 <parse+0xced>
     3e8: 18           	clc
     3e9: 69 02        	adc	#$2
     3eb: 85 14        	sta	$14                     ; 0x2014 <parse+0xcef>
     3ed: a4 13        	ldy	$13                     ; 0x2013 <parse+0xcee>
     3ef: a6 16        	ldx	$16                     ; 0x2016 <parse+0xcf1>
     3f1: 86 19        	stx	$19                     ; 0x2019 <parse+0xcf4>
     3f3: a5 13        	lda	$13                     ; 0x2013 <parse+0xcee>
     3f5: 84 1a        	sty	$1a                     ; 0x201a <parse+0xcf5>
     3f7: 69 00        	adc	#$0
     3f9: a6 14        	ldx	$14                     ; 0x2014 <parse+0xcef>
     3fb: 86 16        	stx	$16                     ; 0x2016 <parse+0xcf1>
     3fd: 85 17        	sta	$17                     ; 0x2017 <parse+0xcf2>
     3ff: a6 19        	ldx	$19                     ; 0x2019 <parse+0xcf4>
     401: 86 14        	stx	$14                     ; 0x2014 <parse+0xcef>
     403: a4 18        	ldy	$18                     ; 0x2018 <parse+0xcf3>
     405: 84 15        	sty	$15                     ; 0x2015 <parse+0xcf0>
     407: 84 1b        	sty	$1b                     ; 0x201b <parse+0xcf6>
     409: a0 02        	ldy	#$2
     40b: a5 19        	lda	$19                     ; 0x2019 <parse+0xcf4>
     40d: 91 12        	sta	($12),y                 ; 0x2012 <parse+0xced>
     40f: 88           	dey
     410: a5 1b        	lda	$1b                     ; 0x201b <parse+0xcf6>
     412: 91 16        	sta	($16),y                 ; 0x2016 <parse+0xcf1>
     414: 18           	clc
     415: a5 19        	lda	$19                     ; 0x2019 <parse+0xcf4>
     417: 69 04        	adc	#$4
     419: 85 18        	sta	$18                     ; 0x2018 <parse+0xcf3>
     41b: a5 1b        	lda	$1b                     ; 0x201b <parse+0xcf6>
     41d: 69 00        	adc	#$0
     41f: 85 19        	sta	$19                     ; 0x2019 <parse+0xcf4>
     421: a0 04        	ldy	#$4
     423: b1 14        	lda	($14),y                 ; 0x2014 <parse+0xcef>
     425: 85 14        	sta	$14                     ; 0x2014 <parse+0xcef>
     427: 85 1b        	sta	$1b                     ; 0x201b <parse+0xcf6>
     429: a0 01        	ldy	#$1
     42b: b1 18        	lda	($18),y                 ; 0x2018 <parse+0xcf3>
     42d: 85 15        	sta	$15                     ; 0x2015 <parse+0xcf0>
     42f: a8           	tay
     430: 18           	clc
     431: a5 1b        	lda	$1b                     ; 0x201b <parse+0xcf6>
     433: 69 02        	adc	#$2
     435: 85 18        	sta	$18                     ; 0x2018 <parse+0xcf3>
     437: 98           	tya
     438: 69 00        	adc	#$0
     43a: 85 19        	sta	$19                     ; 0x2019 <parse+0xcf4>
     43c: a5 12        	lda	$12                     ; 0x2012 <parse+0xced>
     43e: a0 02        	ldy	#$2
     440: 91 14        	sta	($14),y                 ; 0x2014 <parse+0xcef>
     442: a5 1a        	lda	$1a                     ; 0x201a <parse+0xcf5>
     444: 88           	dey
     445: 91 18        	sta	($18),y                 ; 0x2018 <parse+0xcf3>
     447: c8           	iny
     448: b1 12        	lda	($12),y                 ; 0x2012 <parse+0xced>
     44a: 85 18        	sta	$18                     ; 0x2018 <parse+0xcf3>
     44c: 88           	dey
     44d: b1 16        	lda	($16),y                 ; 0x2016 <parse+0xcf1>
     44f: 85 16        	sta	$16                     ; 0x2016 <parse+0xcf1>
     451: 18           	clc
     452: a5 18        	lda	$18                     ; 0x2018 <parse+0xcf3>
     454: 69 04        	adc	#$4
     456: aa           	tax
     457: a5 16        	lda	$16                     ; 0x2016 <parse+0xcf1>
     459: 69 00        	adc	#$0
     45b: 86 16        	stx	$16                     ; 0x2016 <parse+0xcf1>
     45d: 85 17        	sta	$17                     ; 0x2017 <parse+0xcf2>
     45f: 18           	clc
     460: a5 12        	lda	$12                     ; 0x2012 <parse+0xced>
     462: 69 04        	adc	#$4
     464: 85 18        	sta	$18                     ; 0x2018 <parse+0xcf3>
     466: a5 13        	lda	$13                     ; 0x2013 <parse+0xcee>
     468: 69 00        	adc	#$0
     46a: a0 04        	ldy	#$4
     46c: 85 19        	sta	$19                     ; 0x2019 <parse+0xcf4>
     46e: a5 14        	lda	$14                     ; 0x2014 <parse+0xcef>
     470: 91 12        	sta	($12),y                 ; 0x2012 <parse+0xced>
     472: a5 15        	lda	$15                     ; 0x2015 <parse+0xcf0>
     474: a0 01        	ldy	#$1
     476: 91 18        	sta	($18),y                 ; 0x2018 <parse+0xcf3>
     478: a5 13        	lda	$13                     ; 0x2013 <parse+0xcee>
     47a: 91 16        	sta	($16),y                 ; 0x2016 <parse+0xcf1>
     47c: a5 12        	lda	$12                     ; 0x2012 <parse+0xced>
     47e: 92 16        	sta	($16)                   ; 0x2016 <parse+0xcf1>
     480: 60           	rts

00000481 <__zero_bss>:
     481: a2 0d        	ldx	#$d
     483: a0 00        	ldy	#$0
     485: a9 c1        	lda	#$c1
     487: 85 12        	sta	$12                     ; 0x2012 <parse+0xced>
     489: a9 5c        	lda	#$5c
     48b: 85 13        	sta	$13                     ; 0x2013 <parse+0xcee>
     48d: a9 00        	lda	#$0
     48f: 84 14        	sty	$14                     ; 0x2014 <parse+0xcef>
     491: 4c 6d 3a     	jmp	$3a6d <__memset>

00000494 <__zero_zp_bss>:
     494: a2 11        	ldx	#$11
     496: a0 00        	ldy	#$0
     498: a9 60        	lda	#$60
     49a: 85 12        	sta	$12                     ; 0x2012 <parse+0xced>
     49c: a9 00        	lda	#$0
     49e: 85 13        	sta	$13                     ; 0x2013 <parse+0xcee>
     4a0: a9 00        	lda	#$0
     4a2: 84 14        	sty	$14                     ; 0x2014 <parse+0xcef>
     4a4: 4c 6d 3a     	jmp	$3a6d <__memset>

000004a7 <__copy_zp_data>:
     4a7: a9 30        	lda	#$30
     4a9: a2 00        	ldx	#$0
     4ab: a0 30        	ldy	#$30
     4ad: 84 12        	sty	$12                     ; 0x2012 <parse+0xced>
     4af: a0 00        	ldy	#$0
     4b1: 84 13        	sty	$13                     ; 0x2013 <parse+0xcee>
     4b3: a0 00        	ldy	#$0
     4b5: 84 14        	sty	$14                     ; 0x2014 <parse+0xcef>
     4b7: a0 03        	ldy	#$3
     4b9: 84 15        	sty	$15                     ; 0x2015 <parse+0xcf0>
     4bb: 4c 41 3a     	jmp	$3a41 <memcpy>

000004be <f256Init>:
     4be: 64 14        	stz	$14                     ; 0x2014 <parse+0xcef>
     4c0: a2 00        	ldx	#$0
     4c2: 86 12        	stx	$12                     ; 0x2012 <parse+0xced>
     4c4: a2 c0        	ldx	#$c0
     4c6: 86 13        	stx	$13                     ; 0x2013 <parse+0xcee>
     4c8: 64 01        	stz	$1                      ; 0x2001 <parse+0xcdc>
     4ca: a2 3f        	ldx	#$3f
     4cc: 8e 00 d0     	stx	$d000                   ; 0xd000 <end_block9+0x7332>
     4cf: a2 b3        	ldx	#$b3
     4d1: 86 00        	stx	$0                      ; 0x2000 <parse+0xcdb>
     4d3: 64 08        	stz	$8                      ; 0x2008 <parse+0xce3>
     4d5: a2 01        	ldx	#$1
     4d7: 86 09        	stx	$9                      ; 0x2009 <parse+0xce4>
     4d9: e8           	inx
     4da: 86 0a        	stx	$a                      ; 0x200a <parse+0xce5>
     4dc: e8           	inx
     4dd: 86 0b        	stx	$b                      ; 0x200b <parse+0xce6>
     4df: e8           	inx
     4e0: 86 0c        	stx	$c                      ; 0x200c <parse+0xce7>
     4e2: e8           	inx
     4e3: 86 0d        	stx	$d                      ; 0x200d <parse+0xce8>
     4e5: a2 c1        	ldx	#$c1
     4e7: a0 5c        	ldy	#$5c
     4e9: 86 f0        	stx	$f0                     ; 0x20f0 <parse+0xdcb>
     4eb: 84 f1        	sty	$f1                     ; 0x20f1 <parse+0xdcc>
     4ed: a2 00        	ldx	#$0
     4ef: 86 18        	stx	$18                     ; 0x2018 <parse+0xcf3>
     4f1: ca           	dex
     4f2: 86 19        	stx	$19                     ; 0x2019 <parse+0xcf4>
     4f4: 8a           	txa
     4f5: 0a           	asl
     4f6: 0a           	asl
     4f7: 18           	clc
     4f8: 69 d4        	adc	#$d4
     4fa: 85 1a        	sta	$1a                     ; 0x201a <parse+0xcf5>
     4fc: a0 00        	ldy	#$0
     4fe: 64 17        	stz	$17                     ; 0x2017 <parse+0xcf2>
     500: 64 16        	stz	$16                     ; 0x2016 <parse+0xcf1>
     502: a6 19        	ldx	$19                     ; 0x2019 <parse+0xcf4>
     504: e0 03        	cpx	#$3
     506: a6 01        	ldx	$1                      ; 0x2001 <parse+0xcdc>
     508: 86 1c        	stx	$1c                     ; 0x201c <parse+0xcf7>
     50a: a2 d0        	ldx	#$d0
     50c: 84 1b        	sty	$1b                     ; 0x201b <parse+0xcf6>
     50e: b0 02        	bcs	$512 <f256Init+0x54>
     510: a6 1a        	ldx	$1a                     ; 0x201a <parse+0xcf5>
     512: 86 15        	stx	$15                     ; 0x2015 <parse+0xcf0>
     514: a5 17        	lda	$17                     ; 0x2017 <parse+0xcf2>
     516: 18           	clc
     517: 65 14        	adc	$14                     ; 0x2014 <parse+0xcef>
     519: a8           	tay
     51a: a6 17        	ldx	$17                     ; 0x2017 <parse+0xcf2>
     51c: a5 16        	lda	$16                     ; 0x2016 <parse+0xcf1>
     51e: 85 1d        	sta	$1d                     ; 0x201d <parse+0xcf8>
     520: a5 16        	lda	$16                     ; 0x2016 <parse+0xcf1>
     522: 65 15        	adc	$15                     ; 0x2015 <parse+0xcf0>
     524: 84 16        	sty	$16                     ; 0x2016 <parse+0xcf1>
     526: a0 01        	ldy	#$1
     528: 84 01        	sty	$1                      ; 0x2001 <parse+0xcdc>
     52a: 85 17        	sta	$17                     ; 0x2017 <parse+0xcf2>
     52c: a5 1b        	lda	$1b                     ; 0x201b <parse+0xcf6>
     52e: 92 16        	sta	($16)                   ; 0x2016 <parse+0xcf1>
     530: 91 16        	sta	($16),y                 ; 0x2016 <parse+0xcf1>
     532: c8           	iny
     533: 91 16        	sta	($16),y                 ; 0x2016 <parse+0xcf1>
     535: 85 15        	sta	$15                     ; 0x2015 <parse+0xcf0>
     537: c8           	iny
     538: a9 ff        	lda	#$ff
     53a: 91 16        	sta	($16),y                 ; 0x2016 <parse+0xcf1>
     53c: 8a           	txa
     53d: a6 1c        	ldx	$1c                     ; 0x201c <parse+0xcf7>
     53f: 86 01        	stx	$1                      ; 0x2001 <parse+0xcdc>
     541: 18           	clc
     542: 69 04        	adc	#$4
     544: 85 17        	sta	$17                     ; 0x2017 <parse+0xcf2>
     546: a5 1d        	lda	$1d                     ; 0x201d <parse+0xcf8>
     548: 69 00        	adc	#$0
     54a: e6 15        	inc	$15                     ; 0x2015 <parse+0xcf0>
     54c: a4 15        	ldy	$15                     ; 0x2015 <parse+0xcf0>
     54e: 85 16        	sta	$16                     ; 0x2016 <parse+0xcf1>
     550: c9 04        	cmp	#$4
     552: f0 03        	beq	$557 <f256Init+0x99>
     554: 4c 02 05     	jmp	$502 <f256Init+0x44>
     557: a5 17        	lda	$17                     ; 0x2017 <parse+0xcf2>
     559: f0 03        	beq	$55e <f256Init+0xa0>
     55b: 4c 02 05     	jmp	$502 <f256Init+0x44>
     55e: a6 18        	ldx	$18                     ; 0x2018 <parse+0xcf3>
     560: e8           	inx
     561: e0 04        	cpx	#$4
     563: f0 03        	beq	$568 <f256Init+0xaa>
     565: 4c ef 04     	jmp	$4ef <f256Init+0x31>
     568: ad 02 d0     	lda	$d002                   ; 0xd002 <end_block9+0x7334>
     56b: 29 f0        	and	#$f0
     56d: 8d 02 d0     	sta	$d002                   ; 0xd002 <end_block9+0x7334>
     570: ad 02 d0     	lda	$d002                   ; 0xd002 <end_block9+0x7334>
     573: 29 0f        	and	#$f
     575: 09 10        	ora	#$10
     577: 8d 02 d0     	sta	$d002                   ; 0xd002 <end_block9+0x7334>
     57a: a2 02        	ldx	#$2
     57c: 8e 03 d0     	stx	$d003                   ; 0xd003 <end_block9+0x7335>
     57f: 64 61        	stz	$61                     ; 0x2061 <parse+0xd3c>
     581: ad 01 d0     	lda	$d001                   ; 0xd001 <end_block9+0x7333>
     584: 29 f9        	and	#$f9
     586: 09 04        	ora	#$4
     588: 8d 01 d0     	sta	$d001                   ; 0xd001 <end_block9+0x7333>
     58b: 64 60        	stz	$60                     ; 0x2060 <parse+0xd3b>
     58d: 64 14        	stz	$14                     ; 0x2014 <parse+0xcef>
     58f: 9c 10 d0     	stz	$d010                   ; 0xd010 <end_block9+0x7342>
     592: a2 00        	ldx	#$0
     594: 64 15        	stz	$15                     ; 0x2015 <parse+0xcf0>
     596: 86 18        	stx	$18                     ; 0x2018 <parse+0xcf3>
     598: a4 18        	ldy	$18                     ; 0x2018 <parse+0xcf3>
     59a: b6 30        	ldx	$30,y                   ; 0x2030 <parse+0xd0b>
     59c: 86 19        	stx	$19                     ; 0x2019 <parse+0xcf4>
     59e: b6 31        	ldx	$31,y                   ; 0x2031 <parse+0xd0c>
     5a0: 86 1a        	stx	$1a                     ; 0x201a <parse+0xcf5>
     5a2: b6 32        	ldx	$32,y                   ; 0x2032 <parse+0xd0d>
     5a4: 86 1b        	stx	$1b                     ; 0x201b <parse+0xcf6>
     5a6: a6 15        	ldx	$15                     ; 0x2015 <parse+0xcf0>
     5a8: 8e 00 de     	stx	$de00                   ; 0xde00 <end_block9+0x8132>
     5ab: 86 17        	stx	$17                     ; 0x2017 <parse+0xcf2>
     5ad: 9c 01 de     	stz	$de01                   ; 0xde01 <end_block9+0x8133>
     5b0: a2 04        	ldx	#$4
     5b2: 8e 02 de     	stx	$de02                   ; 0xde02 <end_block9+0x8134>
     5b5: 9c 03 de     	stz	$de03                   ; 0xde03 <end_block9+0x8135>
     5b8: ad 10 de     	lda	$de10                   ; 0xde10 <end_block9+0x8142>
     5bb: ac 11 de     	ldy	$de11                   ; 0xde11 <end_block9+0x8143>
     5be: 84 15        	sty	$15                     ; 0x2015 <parse+0xcf0>
     5c0: ac 12 de     	ldy	$de12                   ; 0xde12 <end_block9+0x8144>
     5c3: ac 13 de     	ldy	$de13                   ; 0xde13 <end_block9+0x8145>
     5c6: 18           	clc
     5c7: 65 14        	adc	$14                     ; 0x2014 <parse+0xcef>
     5c9: 85 16        	sta	$16                     ; 0x2016 <parse+0xcf1>
     5cb: a6 17        	ldx	$17                     ; 0x2017 <parse+0xcf2>
     5cd: a9 d8        	lda	#$d8
     5cf: 65 15        	adc	$15                     ; 0x2015 <parse+0xcf0>
     5d1: 85 17        	sta	$17                     ; 0x2017 <parse+0xcf2>
     5d3: a5 1b        	lda	$1b                     ; 0x201b <parse+0xcf6>
     5d5: 92 16        	sta	($16)                   ; 0x2016 <parse+0xcf1>
     5d7: a0 01        	ldy	#$1
     5d9: a5 1a        	lda	$1a                     ; 0x201a <parse+0xcf5>
     5db: 91 16        	sta	($16),y                 ; 0x2016 <parse+0xcf1>
     5dd: c8           	iny
     5de: a5 19        	lda	$19                     ; 0x2019 <parse+0xcf4>
     5e0: 91 16        	sta	($16),y                 ; 0x2016 <parse+0xcf1>
     5e2: c8           	iny
     5e3: a9 ff        	lda	#$ff
     5e5: 91 16        	sta	($16),y                 ; 0x2016 <parse+0xcf1>
     5e7: 8e 00 de     	stx	$de00                   ; 0xde00 <end_block9+0x8132>
     5ea: 9c 01 de     	stz	$de01                   ; 0xde01 <end_block9+0x8133>
     5ed: c8           	iny
     5ee: 8c 02 de     	sty	$de02                   ; 0xde02 <end_block9+0x8134>
     5f1: 9c 03 de     	stz	$de03                   ; 0xde03 <end_block9+0x8135>
     5f4: ad 10 de     	lda	$de10                   ; 0xde10 <end_block9+0x8142>
     5f7: 85 15        	sta	$15                     ; 0x2015 <parse+0xcf0>
     5f9: ad 11 de     	lda	$de11                   ; 0xde11 <end_block9+0x8143>
     5fc: 85 16        	sta	$16                     ; 0x2016 <parse+0xcf1>
     5fe: a9 40        	lda	#$40
     600: 18           	clc
     601: 65 15        	adc	$15                     ; 0x2015 <parse+0xcf0>
     603: a8           	tay
     604: a9 d8        	lda	#$d8
     606: 65 16        	adc	$16                     ; 0x2016 <parse+0xcf1>
     608: 85 17        	sta	$17                     ; 0x2017 <parse+0xcf2>
     60a: 84 16        	sty	$16                     ; 0x2016 <parse+0xcf1>
     60c: ad 12 de     	lda	$de12                   ; 0xde12 <end_block9+0x8144>
     60f: ad 13 de     	lda	$de13                   ; 0xde13 <end_block9+0x8145>
     612: a5 1b        	lda	$1b                     ; 0x201b <parse+0xcf6>
     614: 92 16        	sta	($16)                   ; 0x2016 <parse+0xcf1>
     616: a5 1a        	lda	$1a                     ; 0x201a <parse+0xcf5>
     618: a0 01        	ldy	#$1
     61a: 91 16        	sta	($16),y                 ; 0x2016 <parse+0xcf1>
     61c: a5 19        	lda	$19                     ; 0x2019 <parse+0xcf4>
     61e: c8           	iny
     61f: 91 16        	sta	($16),y                 ; 0x2016 <parse+0xcf1>
     621: c8           	iny
     622: a9 ff        	lda	#$ff
     624: 91 16        	sta	($16),y                 ; 0x2016 <parse+0xcf1>
     626: e8           	inx
     627: 86 15        	stx	$15                     ; 0x2015 <parse+0xcf0>
     629: 18           	clc
     62a: a5 18        	lda	$18                     ; 0x2018 <parse+0xcf3>
     62c: 69 03        	adc	#$3
     62e: aa           	tax
     62f: c9 30        	cmp	#$30
     631: f0 03        	beq	$636 <f256Init+0x178>
     633: 4c 96 05     	jmp	$596 <f256Init+0xd8>
     636: a6 01        	ldx	$1                      ; 0x2001 <parse+0xcdc>
     638: 86 18        	stx	$18                     ; 0x2018 <parse+0xcf3>
     63a: a5 60        	lda	$60                     ; 0x2060 <parse+0xd3b>
     63c: 29 01        	and	#$1
     63e: a0 3c        	ldy	#$3c
     640: a2 00        	ldx	#$0
     642: c9 00        	cmp	#$0
     644: d0 02        	bne	$648 <f256Init+0x18a>
     646: a0 1e        	ldy	#$1e
     648: a9 50        	lda	#$50
     64a: 8d 00 de     	sta	$de00                   ; 0xde00 <end_block9+0x8132>
     64d: 9c 01 de     	stz	$de01                   ; 0xde01 <end_block9+0x8133>
     650: 8c 02 de     	sty	$de02                   ; 0xde02 <end_block9+0x8134>
     653: 8e 03 de     	stx	$de03                   ; 0xde03 <end_block9+0x8135>
     656: ae 10 de     	ldx	$de10                   ; 0xde10 <end_block9+0x8142>
     659: ac 11 de     	ldy	$de11                   ; 0xde11 <end_block9+0x8143>
     65c: ad 12 de     	lda	$de12                   ; 0xde12 <end_block9+0x8144>
     65f: ad 13 de     	lda	$de13                   ; 0xde13 <end_block9+0x8145>
     662: a9 02        	lda	#$2
     664: 85 01        	sta	$1                      ; 0x2001 <parse+0xcdc>
     666: e0 01        	cpx	#$1
     668: 98           	tya
     669: e9 00        	sbc	#$0
     66b: 50 02        	bvc	$66f <f256Init+0x1b1>
     66d: 49 80        	eor	#$80
     66f: c9 00        	cmp	#$0
     671: 10 03        	bpl	$676 <f256Init+0x1b8>
     673: 4c cf 06     	jmp	$6cf <f256Init+0x211>
     676: a9 20        	lda	#$20
     678: 86 19        	stx	$19                     ; 0x2019 <parse+0xcf4>
     67a: 86 14        	stx	$14                     ; 0x2014 <parse+0xcef>
     67c: 84 15        	sty	$15                     ; 0x2015 <parse+0xcf0>
     67e: a2 00        	ldx	#$0
     680: 86 16        	stx	$16                     ; 0x2016 <parse+0xcf1>
     682: a2 c0        	ldx	#$c0
     684: 86 17        	stx	$17                     ; 0x2017 <parse+0xcf2>
     686: 92 16        	sta	($16)                   ; 0x2016 <parse+0xcf1>
     688: e6 16        	inc	$16                     ; 0x2016 <parse+0xcf1>
     68a: d0 02        	bne	$68e <f256Init+0x1d0>
     68c: e6 17        	inc	$17                     ; 0x2017 <parse+0xcf2>
     68e: a2 ff        	ldx	#$ff
     690: c6 14        	dec	$14                     ; 0x2014 <parse+0xcef>
     692: e4 14        	cpx	$14                     ; 0x2014 <parse+0xcef>
     694: d0 02        	bne	$698 <f256Init+0x1da>
     696: c6 15        	dec	$15                     ; 0x2015 <parse+0xcf0>
     698: a6 15        	ldx	$15                     ; 0x2015 <parse+0xcf0>
     69a: d0 ea        	bne	$686 <f256Init+0x1c8>
     69c: a6 14        	ldx	$14                     ; 0x2014 <parse+0xcef>
     69e: d0 e6        	bne	$686 <f256Init+0x1c8>
     6a0: a2 03        	ldx	#$3
     6a2: 86 01        	stx	$1                      ; 0x2001 <parse+0xcdc>
     6a4: a5 61        	lda	$61                     ; 0x2061 <parse+0xd3c>
     6a6: 29 01        	and	#$1
     6a8: aa           	tax
     6a9: a9 60        	lda	#$60
     6ab: e0 00        	cpx	#$0
     6ad: d0 02        	bne	$6b1 <f256Init+0x1f3>
     6af: a9 f0        	lda	#$f0
     6b1: a6 19        	ldx	$19                     ; 0x2019 <parse+0xcf4>
     6b3: 92 12        	sta	($12)                   ; 0x2012 <parse+0xced>
     6b5: e6 12        	inc	$12                     ; 0x2012 <parse+0xced>
     6b7: d0 02        	bne	$6bb <f256Init+0x1fd>
     6b9: e6 13        	inc	$13                     ; 0x2013 <parse+0xcee>
     6bb: 85 14        	sta	$14                     ; 0x2014 <parse+0xcef>
     6bd: ca           	dex
     6be: e0 ff        	cpx	#$ff
     6c0: d0 01        	bne	$6c3 <f256Init+0x205>
     6c2: 88           	dey
     6c3: a5 14        	lda	$14                     ; 0x2014 <parse+0xcef>
     6c5: c0 00        	cpy	#$0
     6c7: d0 ea        	bne	$6b3 <f256Init+0x1f5>
     6c9: e0 00        	cpx	#$0
     6cb: d0 e6        	bne	$6b3 <f256Init+0x1f5>
     6cd: 80 04        	bra	$6d3 <f256Init+0x215>
     6cf: a2 03        	ldx	#$3
     6d1: 86 01        	stx	$1                      ; 0x2001 <parse+0xcdc>
     6d3: a6 18        	ldx	$18                     ; 0x2018 <parse+0xcf3>
     6d5: 86 01        	stx	$1                      ; 0x2001 <parse+0xcdc>
     6d7: 64 62        	stz	$62                     ; 0x2062 <parse+0xd3d>
     6d9: 9c 14 d0     	stz	$d014                   ; 0xd014 <end_block9+0x7346>
     6dc: 9c 15 d0     	stz	$d015                   ; 0xd015 <end_block9+0x7347>
     6df: 64 63        	stz	$63                     ; 0x2063 <parse+0xd3e>
     6e1: 9c 16 d0     	stz	$d016                   ; 0xd016 <end_block9+0x7348>
     6e4: 9c 17 d0     	stz	$d017                   ; 0xd017 <end_block9+0x7349>
     6e7: a2 40        	ldx	#$40
     6e9: 8e 00 de     	stx	$de00                   ; 0xde00 <end_block9+0x8132>
     6ec: a2 01        	ldx	#$1
     6ee: 8e 01 de     	stx	$de01                   ; 0xde01 <end_block9+0x8133>
     6f1: a2 f0        	ldx	#$f0
     6f3: 8e 02 de     	stx	$de02                   ; 0xde02 <end_block9+0x8134>
     6f6: 9c 03 de     	stz	$de03                   ; 0xde03 <end_block9+0x8135>
     6f9: ae 10 de     	ldx	$de10                   ; 0xde10 <end_block9+0x8142>
     6fc: 86 17        	stx	$17                     ; 0x2017 <parse+0xcf2>
     6fe: ae 11 de     	ldx	$de11                   ; 0xde11 <end_block9+0x8143>
     701: 86 12        	stx	$12                     ; 0x2012 <parse+0xced>
     703: ae 12 de     	ldx	$de12                   ; 0xde12 <end_block9+0x8144>
     706: 86 13        	stx	$13                     ; 0x2013 <parse+0xcee>
     708: ae 13 de     	ldx	$de13                   ; 0xde13 <end_block9+0x8145>
     70b: 86 14        	stx	$14                     ; 0x2014 <parse+0xcef>
     70d: a4 12        	ldy	$12                     ; 0x2012 <parse+0xced>
     70f: 84 15        	sty	$15                     ; 0x2015 <parse+0xcf0>
     711: 06 15        	asl	$15                     ; 0x2015 <parse+0xcf0>
     713: a5 13        	lda	$13                     ; 0x2013 <parse+0xcee>
     715: 2a           	rol
     716: 86 16        	stx	$16                     ; 0x2016 <parse+0xcf1>
     718: 26 16        	rol	$16                     ; 0x2016 <parse+0xcf1>
     71a: 06 15        	asl	$15                     ; 0x2015 <parse+0xcf0>
     71c: 2a           	rol
     71d: 26 16        	rol	$16                     ; 0x2016 <parse+0xcf1>
     71f: 06 15        	asl	$15                     ; 0x2015 <parse+0xcf0>
     721: 2a           	rol
     722: 26 16        	rol	$16                     ; 0x2016 <parse+0xcf1>
     724: 85 15        	sta	$15                     ; 0x2015 <parse+0xcf0>
     726: 8d 00 de     	sta	$de00                   ; 0xde00 <end_block9+0x8132>
     729: a5 16        	lda	$16                     ; 0x2016 <parse+0xcf1>
     72b: 8d 01 de     	sta	$de01                   ; 0xde01 <end_block9+0x8133>
     72e: 9c 02 de     	stz	$de02                   ; 0xde02 <end_block9+0x8134>
     731: a2 20        	ldx	#$20
     733: 8e 03 de     	stx	$de03                   ; 0xde03 <end_block9+0x8135>
     736: ae 10 de     	ldx	$de10                   ; 0xde10 <end_block9+0x8142>
     739: 86 16        	stx	$16                     ; 0x2016 <parse+0xcf1>
     73b: ae 11 de     	ldx	$de11                   ; 0xde11 <end_block9+0x8143>
     73e: 86 18        	stx	$18                     ; 0x2018 <parse+0xcf3>
     740: ac 12 de     	ldy	$de12                   ; 0xde12 <end_block9+0x8144>
     743: ae 13 de     	ldx	$de13                   ; 0xde13 <end_block9+0x8145>
     746: e4 14        	cpx	$14                     ; 0x2014 <parse+0xcef>
     748: d0 14        	bne	$75e <f256Init+0x2a0>
     74a: c4 13        	cpy	$13                     ; 0x2013 <parse+0xcee>
     74c: d0 10        	bne	$75e <f256Init+0x2a0>
     74e: a6 18        	ldx	$18                     ; 0x2018 <parse+0xcf3>
     750: e4 12        	cpx	$12                     ; 0x2012 <parse+0xced>
     752: d0 0a        	bne	$75e <f256Init+0x2a0>
     754: a6 16        	ldx	$16                     ; 0x2016 <parse+0xcf1>
     756: e4 17        	cpx	$17                     ; 0x2017 <parse+0xcf2>
     758: d0 04        	bne	$75e <f256Init+0x2a0>
     75a: a6 15        	ldx	$15                     ; 0x2015 <parse+0xcf0>
     75c: 80 06        	bra	$764 <f256Init+0x2a6>
     75e: a6 15        	ldx	$15                     ; 0x2015 <parse+0xcf0>
     760: e8           	inx
     761: d0 01        	bne	$764 <f256Init+0x2a6>
     763: 1a           	inc
     764: 8e 00 de     	stx	$de00                   ; 0xde00 <end_block9+0x8132>
     767: 8d 01 de     	sta	$de01                   ; 0xde01 <end_block9+0x8133>
     76a: 9c 02 de     	stz	$de02                   ; 0xde02 <end_block9+0x8134>
     76d: a2 20        	ldx	#$20
     76f: 8e 03 de     	stx	$de03                   ; 0xde03 <end_block9+0x8135>
     772: ae 10 de     	ldx	$de10                   ; 0xde10 <end_block9+0x8142>
     775: 86 12        	stx	$12                     ; 0x2012 <parse+0xced>
     777: ae 11 de     	ldx	$de11                   ; 0xde11 <end_block9+0x8143>
     77a: 86 13        	stx	$13                     ; 0x2013 <parse+0xcee>
     77c: ae 12 de     	ldx	$de12                   ; 0xde12 <end_block9+0x8144>
     77f: 86 14        	stx	$14                     ; 0x2014 <parse+0xcef>
     781: a9 00        	lda	#$0
     783: 38           	sec
     784: e5 12        	sbc	$12                     ; 0x2012 <parse+0xced>
     786: a8           	tay
     787: a9 00        	lda	#$0
     789: e5 13        	sbc	$13                     ; 0x2013 <parse+0xcee>
     78b: 85 15        	sta	$15                     ; 0x2015 <parse+0xcf0>
     78d: a9 08        	lda	#$8
     78f: e5 14        	sbc	$14                     ; 0x2014 <parse+0xcef>
     791: aa           	tax
     792: 98           	tya
     793: 84 17        	sty	$17                     ; 0x2017 <parse+0xcf2>
     795: 38           	sec
     796: e5 12        	sbc	$12                     ; 0x2012 <parse+0xced>
     798: 85 16        	sta	$16                     ; 0x2016 <parse+0xcf1>
     79a: a5 15        	lda	$15                     ; 0x2015 <parse+0xcf0>
     79c: e5 13        	sbc	$13                     ; 0x2013 <parse+0xcee>
     79e: 85 18        	sta	$18                     ; 0x2018 <parse+0xcf3>
     7a0: 8a           	txa
     7a1: 86 19        	stx	$19                     ; 0x2019 <parse+0xcf4>
     7a3: e5 14        	sbc	$14                     ; 0x2014 <parse+0xcef>
     7a5: a8           	tay
     7a6: 38           	sec
     7a7: a5 16        	lda	$16                     ; 0x2016 <parse+0xcf1>
     7a9: e5 12        	sbc	$12                     ; 0x2012 <parse+0xced>
     7ab: 85 12        	sta	$12                     ; 0x2012 <parse+0xced>
     7ad: a5 18        	lda	$18                     ; 0x2018 <parse+0xcf3>
     7af: e5 13        	sbc	$13                     ; 0x2013 <parse+0xcee>
     7b1: 85 13        	sta	$13                     ; 0x2013 <parse+0xcee>
     7b3: 98           	tya
     7b4: e5 14        	sbc	$14                     ; 0x2014 <parse+0xcef>
     7b6: ae 13 de     	ldx	$de13                   ; 0xde13 <end_block9+0x8145>
     7b9: a6 17        	ldx	$17                     ; 0x2017 <parse+0xcf2>
     7bb: 8e 01 d1     	stx	$d101                   ; 0xd101 <end_block9+0x7433>
     7be: a6 15        	ldx	$15                     ; 0x2015 <parse+0xcf0>
     7c0: 8e 02 d1     	stx	$d102                   ; 0xd102 <end_block9+0x7434>
     7c3: a6 19        	ldx	$19                     ; 0x2019 <parse+0xcf4>
     7c5: 8e 03 d1     	stx	$d103                   ; 0xd103 <end_block9+0x7435>
     7c8: a6 16        	ldx	$16                     ; 0x2016 <parse+0xcf1>
     7ca: 8e 09 d1     	stx	$d109                   ; 0xd109 <end_block9+0x743b>
     7cd: a6 18        	ldx	$18                     ; 0x2018 <parse+0xcf3>
     7cf: 8e 0a d1     	stx	$d10a                   ; 0xd10a <end_block9+0x743c>
     7d2: 8c 0b d1     	sty	$d10b                   ; 0xd10b <end_block9+0x743d>
     7d5: a6 12        	ldx	$12                     ; 0x2012 <parse+0xced>
     7d7: 8e 11 d1     	stx	$d111                   ; 0xd111 <end_block9+0x7443>
     7da: a6 13        	ldx	$13                     ; 0x2013 <parse+0xcee>
     7dc: 8e 12 d1     	stx	$d112                   ; 0xd112 <end_block9+0x7444>
     7df: 8d 13 d1     	sta	$d113                   ; 0xd113 <end_block9+0x7445>
     7e2: 9c 00 d1     	stz	$d100                   ; 0xd100 <end_block9+0x7432>
     7e5: 9c 08 d1     	stz	$d108                   ; 0xd108 <end_block9+0x743a>
     7e8: 9c 10 d1     	stz	$d110                   ; 0xd110 <end_block9+0x7442>
     7eb: a2 10        	ldx	#$10
     7ed: 8e 00 d2     	stx	$d200                   ; 0xd200 <end_block9+0x7532>
     7f0: 8e 0c d2     	stx	$d20c                   ; 0xd20c <end_block9+0x753e>
     7f3: 8e 18 d2     	stx	$d218                   ; 0xd218 <end_block9+0x754a>
     7f6: a0 d9        	ldy	#$d9
     7f8: a2 40        	ldx	#$40
     7fa: 64 12        	stz	$12                     ; 0x2012 <parse+0xced>
     7fc: 84 13        	sty	$13                     ; 0x2013 <parse+0xcee>
     7fe: a9 00        	lda	#$0
     800: 92 12        	sta	($12)                   ; 0x2012 <parse+0xced>
     802: ca           	dex
     803: 18           	clc
     804: a5 12        	lda	$12                     ; 0x2012 <parse+0xced>
     806: 69 08        	adc	#$8
     808: 85 12        	sta	$12                     ; 0x2012 <parse+0xced>
     80a: 98           	tya
     80b: 69 00        	adc	#$0
     80d: a8           	tay
     80e: 8a           	txa
     80f: d0 eb        	bne	$7fc <f256Init+0x33e>
     811: a2 71        	ldx	#$71
     813: a0 00        	ldy	#$0
     815: 86 fb        	stx	$fb                     ; 0x20fb <parse+0xdd6>
     817: 84 fc        	sty	$fc                     ; 0x20fc <parse+0xdd7>
     819: a2 08        	ldx	#$8
     81b: 86 fd        	stx	$fd                     ; 0x20fd <parse+0xdd8>
     81d: a2 79        	ldx	#$79
     81f: a0 00        	ldy	#$0
     821: 86 12        	stx	$12                     ; 0x2012 <parse+0xced>
     823: 84 13        	sty	$13                     ; 0x2013 <parse+0xcee>
     825: a2 c8        	ldx	#$c8
     827: 86 14        	stx	$14                     ; 0x2014 <parse+0xcef>
     829: a2 5c        	ldx	#$5c
     82b: 86 15        	stx	$15                     ; 0x2015 <parse+0xcf0>
     82d: 20 dc ff     	jsr	$ffdc <end_block9+0xa30e>
     830: 92 12        	sta	($12)                   ; 0x2012 <parse+0xced>
     832: a9 00        	lda	#$0
     834: 6a           	ror
     835: 85 14        	sta	$14                     ; 0x2014 <parse+0xcef>
     837: a6 77        	ldx	$77                     ; 0x2077 <parse+0xd52>
     839: a4 78        	ldy	$78                     ; 0x2078 <parse+0xd53>
     83b: 8e 00 de     	stx	$de00                   ; 0xde00 <end_block9+0x8132>
     83e: 9c 01 de     	stz	$de01                   ; 0xde01 <end_block9+0x8133>
     841: 8c 02 de     	sty	$de02                   ; 0xde02 <end_block9+0x8134>
     844: 9c 03 de     	stz	$de03                   ; 0xde03 <end_block9+0x8135>
     847: ae 10 de     	ldx	$de10                   ; 0xde10 <end_block9+0x8142>
     84a: ac 11 de     	ldy	$de11                   ; 0xde11 <end_block9+0x8143>
     84d: ad 12 de     	lda	$de12                   ; 0xde12 <end_block9+0x8144>
     850: ad 13 de     	lda	$de13                   ; 0xde13 <end_block9+0x8145>
     853: 8e a4 d6     	stx	$d6a4                   ; 0xd6a4 <end_block9+0x79d6>
     856: 8c a5 d6     	sty	$d6a5                   ; 0xd6a5 <end_block9+0x79d7>
     859: a2 03        	ldx	#$3
     85b: 8e a6 d6     	stx	$d6a6                   ; 0xd6a6 <end_block9+0x79d8>
     85e: 60           	rts

0000085f <main>:
     85f: 20 be 04     	jsr	$4be <f256Init>
     862: 20 65 08     	jsr	$865 <f256main>

00000865 <f256main>:
     865: 18           	clc
     866: a5 10        	lda	$10                     ; 0x2010 <parse+0xceb>
     868: 69 92        	adc	#$92
     86a: 85 10        	sta	$10                     ; 0x2010 <parse+0xceb>
     86c: a5 11        	lda	$11                     ; 0x2011 <parse+0xcec>
     86e: 69 ff        	adc	#$ff
     870: 85 11        	sta	$11                     ; 0x2011 <parse+0xcec>
     872: 64 01        	stz	$1                      ; 0x2001 <parse+0xcdc>
     874: a2 4f        	ldx	#$4f
     876: 8e 00 d0     	stx	$d000                   ; 0xd000 <end_block9+0x7332>
     879: 9c 01 d0     	stz	$d001                   ; 0xd001 <end_block9+0x7333>
     87c: ad 01 d0     	lda	$d001                   ; 0xd001 <end_block9+0x7333>
     87f: 29 f9        	and	#$f9
     881: 8d 01 d0     	sta	$d001                   ; 0xd001 <end_block9+0x7333>
     884: a2 01        	ldx	#$1
     886: 86 60        	stx	$60                     ; 0x2060 <parse+0xd3b>
     888: a2 c0        	ldx	#$c0
     88a: 8e a1 dd     	stx	$dda1                   ; 0xdda1 <end_block9+0x80d3>
     88d: 9c a1 dd     	stz	$dda1                   ; 0xdda1 <end_block9+0x80d3>
     890: 8e a1 dd     	stx	$dda1                   ; 0xdda1 <end_block9+0x80d3>
     893: 9c a1 dd     	stz	$dda1                   ; 0xdda1 <end_block9+0x80d3>
     896: e8           	inx
     897: e0 d0        	cpx	#$d0
     899: d0 f5        	bne	$890 <f256main+0x2b>
     89b: a2 ff        	ldx	#$ff
     89d: 8e a1 dd     	stx	$dda1                   ; 0xdda1 <end_block9+0x80d3>
     8a0: 64 6c        	stz	$6c                     ; 0x206c <parse+0xd47>
     8a2: a0 00        	ldy	#$0
     8a4: 64 6d        	stz	$6d                     ; 0x206d <parse+0xd48>
     8a6: 64 6e        	stz	$6e                     ; 0x206e <parse+0xd49>
     8a8: e8           	inx
     8a9: 86 12        	stx	$12                     ; 0x2012 <parse+0xced>
     8ab: a2 00        	ldx	#$0
     8ad: 86 13        	stx	$13                     ; 0x2013 <parse+0xcee>
     8af: a6 12        	ldx	$12                     ; 0x2012 <parse+0xced>
     8b1: a5 13        	lda	$13                     ; 0x2013 <parse+0xcee>
     8b3: 86 6f        	stx	$6f                     ; 0x206f <parse+0xd4a>
     8b5: 85 70        	sta	$70                     ; 0x2070 <parse+0xd4b>
     8b7: a6 0f        	ldx	$f                      ; 0x200f <parse+0xcea>
     8b9: 78           	sei
     8ba: a9 08        	lda	#$8
     8bc: 85 0f        	sta	$f                      ; 0x200f <parse+0xcea>
     8be: 84 12        	sty	$12                     ; 0x2012 <parse+0xced>
     8c0: a9 e0        	lda	#$e0
     8c2: 85 13        	sta	$13                     ; 0x2013 <parse+0xcee>
     8c4: b2 12        	lda	($12)                   ; 0x2012 <parse+0xced>
     8c6: 86 0f        	stx	$f                      ; 0x200f <parse+0xcea>
     8c8: 58           	cli
     8c9: 18           	clc
     8ca: 48           	pha
     8cb: a5 10        	lda	$10                     ; 0x2010 <parse+0xceb>
     8cd: 69 0a        	adc	#$a
     8cf: 85 12        	sta	$12                     ; 0x2012 <parse+0xced>
     8d1: a5 11        	lda	$11                     ; 0x2011 <parse+0xcec>
     8d3: 69 00        	adc	#$0
     8d5: 85 13        	sta	$13                     ; 0x2013 <parse+0xcee>
     8d7: 68           	pla
     8d8: 91 12        	sta	($12),y                 ; 0x2012 <parse+0xced>
     8da: c8           	iny
     8db: c0 64        	cpy	#$64
     8dd: d0 d8        	bne	$8b7 <f256main+0x52>
     8df: a2 dc        	ldx	#$dc
     8e1: 86 14        	stx	$14                     ; 0x2014 <parse+0xcef>
     8e3: a2 5b        	ldx	#$5b
     8e5: 86 15        	stx	$15                     ; 0x2015 <parse+0xcf0>
     8e7: 20 8d 3a     	jsr	$3a8d <strstr>
     8ea: a2 00        	ldx	#$0
     8ec: 86 14        	stx	$14                     ; 0x2014 <parse+0xcef>
     8ee: a2 00        	ldx	#$0
     8f0: 86 15        	stx	$15                     ; 0x2015 <parse+0xcf0>
     8f2: a6 13        	ldx	$13                     ; 0x2013 <parse+0xcee>
     8f4: e4 15        	cpx	$15                     ; 0x2015 <parse+0xcf0>
     8f6: d0 06        	bne	$8fe <f256main+0x99>
     8f8: a6 12        	ldx	$12                     ; 0x2012 <parse+0xced>
     8fa: e4 14        	cpx	$14                     ; 0x2014 <parse+0xcef>
     8fc: f0 26        	beq	$924 <f256main+0xbf>
     8fe: 18           	clc
     8ff: a5 10        	lda	$10                     ; 0x2010 <parse+0xceb>
     901: 69 0a        	adc	#$a
     903: 85 14        	sta	$14                     ; 0x2014 <parse+0xcef>
     905: a5 11        	lda	$11                     ; 0x2011 <parse+0xcec>
     907: 69 00        	adc	#$0
     909: 85 15        	sta	$15                     ; 0x2015 <parse+0xcf0>
     90b: a5 12        	lda	$12                     ; 0x2012 <parse+0xced>
     90d: 38           	sec
     90e: e5 14        	sbc	$14                     ; 0x2014 <parse+0xcef>
     910: 85 18        	sta	$18                     ; 0x2018 <parse+0xcf3>
     912: a5 13        	lda	$13                     ; 0x2013 <parse+0xcee>
     914: e5 15        	sbc	$15                     ; 0x2015 <parse+0xcf0>
     916: a0 09        	ldy	#$9
     918: 91 10        	sta	($10),y                 ; 0x2010 <parse+0xceb>
     91a: c9 ff        	cmp	#$ff
     91c: d0 23        	bne	$941 <f256main+0xdc>
     91e: a6 18        	ldx	$18                     ; 0x2018 <parse+0xcf3>
     920: e0 ff        	cpx	#$ff
     922: d0 1d        	bne	$941 <f256main+0xdc>
     924: a2 50        	ldx	#$50
     926: 86 12        	stx	$12                     ; 0x2012 <parse+0xced>
     928: a2 5c        	ldx	#$5c
     92a: 86 13        	stx	$13                     ; 0x2013 <parse+0xcee>
     92c: 20 59 37     	jsr	$3759 <puts>
     92f: a2 02        	ldx	#$2
     931: 8e 54 d6     	stx	$d654                   ; 0xd654 <end_block9+0x7986>
     934: a2 ff        	ldx	#$ff
     936: 8e 55 d6     	stx	$d655                   ; 0xd655 <end_block9+0x7987>
     939: 8e 56 d6     	stx	$d656                   ; 0xd656 <end_block9+0x7988>
     93c: 8e 57 d6     	stx	$d657                   ; 0xd657 <end_block9+0x7989>
     93f: 80 fe        	bra	$93f <f256main+0xda>
     941: a5 18        	lda	$18                     ; 0x2018 <parse+0xcf3>
     943: 18           	clc
     944: 69 04        	adc	#$4
     946: 85 15        	sta	$15                     ; 0x2015 <parse+0xcf0>
     948: b1 10        	lda	($10),y                 ; 0x2010 <parse+0xceb>
     94a: 85 14        	sta	$14                     ; 0x2014 <parse+0xcef>
     94c: 69 00        	adc	#$0
     94e: 85 16        	sta	$16                     ; 0x2016 <parse+0xcf1>
     950: a9 00        	lda	#$0
     952: 69 01        	adc	#$1
     954: 85 17        	sta	$17                     ; 0x2017 <parse+0xcf2>
     956: a5 18        	lda	$18                     ; 0x2018 <parse+0xcf3>
     958: 18           	clc
     959: 69 07        	adc	#$7
     95b: a8           	tay
     95c: a5 14        	lda	$14                     ; 0x2014 <parse+0xcef>
     95e: 69 00        	adc	#$0
     960: 85 13        	sta	$13                     ; 0x2013 <parse+0xcee>
     962: a9 00        	lda	#$0
     964: 69 01        	adc	#$1
     966: a6 13        	ldx	$13                     ; 0x2013 <parse+0xcee>
     968: 86 12        	stx	$12                     ; 0x2012 <parse+0xced>
     96a: 06 12        	asl	$12                     ; 0x2012 <parse+0xced>
     96c: 2a           	rol
     96d: 06 12        	asl	$12                     ; 0x2012 <parse+0xced>
     96f: 2a           	rol
     970: 06 12        	asl	$12                     ; 0x2012 <parse+0xced>
     972: 2a           	rol
     973: a6 0f        	ldx	$f                      ; 0x200f <parse+0xcea>
     975: 78           	sei
     976: 85 0f        	sta	$f                      ; 0x200f <parse+0xcea>
     978: a5 13        	lda	$13                     ; 0x2013 <parse+0xcee>
     97a: 09 e0        	ora	#$e0
     97c: 84 12        	sty	$12                     ; 0x2012 <parse+0xced>
     97e: 85 13        	sta	$13                     ; 0x2013 <parse+0xcee>
     980: b2 12        	lda	($12)                   ; 0x2012 <parse+0xced>
     982: 86 0f        	stx	$f                      ; 0x200f <parse+0xcea>
     984: a5 18        	lda	$18                     ; 0x2018 <parse+0xcf3>
     986: 18           	clc
     987: 69 06        	adc	#$6
     989: a8           	tay
     98a: a5 14        	lda	$14                     ; 0x2014 <parse+0xcef>
     98c: 69 00        	adc	#$0
     98e: 85 13        	sta	$13                     ; 0x2013 <parse+0xcee>
     990: a9 00        	lda	#$0
     992: 69 01        	adc	#$1
     994: a6 13        	ldx	$13                     ; 0x2013 <parse+0xcee>
     996: 86 12        	stx	$12                     ; 0x2012 <parse+0xced>
     998: 06 12        	asl	$12                     ; 0x2012 <parse+0xced>
     99a: 2a           	rol
     99b: 06 12        	asl	$12                     ; 0x2012 <parse+0xced>
     99d: 2a           	rol
     99e: 06 12        	asl	$12                     ; 0x2012 <parse+0xced>
     9a0: 2a           	rol
     9a1: 58           	cli
     9a2: a6 0f        	ldx	$f                      ; 0x200f <parse+0xcea>
     9a4: 78           	sei
     9a5: 85 0f        	sta	$f                      ; 0x200f <parse+0xcea>
     9a7: a5 13        	lda	$13                     ; 0x2013 <parse+0xcee>
     9a9: 09 e0        	ora	#$e0
     9ab: 84 12        	sty	$12                     ; 0x2012 <parse+0xced>
     9ad: 85 13        	sta	$13                     ; 0x2013 <parse+0xcee>
     9af: b2 12        	lda	($12)                   ; 0x2012 <parse+0xced>
     9b1: 86 0f        	stx	$f                      ; 0x200f <parse+0xcea>
     9b3: a5 18        	lda	$18                     ; 0x2018 <parse+0xcf3>
     9b5: 18           	clc
     9b6: 69 05        	adc	#$5
     9b8: a8           	tay
     9b9: a5 14        	lda	$14                     ; 0x2014 <parse+0xcef>
     9bb: 69 00        	adc	#$0
     9bd: 85 13        	sta	$13                     ; 0x2013 <parse+0xcee>
     9bf: a9 00        	lda	#$0
     9c1: 69 01        	adc	#$1
     9c3: a6 13        	ldx	$13                     ; 0x2013 <parse+0xcee>
     9c5: 86 12        	stx	$12                     ; 0x2012 <parse+0xced>
     9c7: 06 12        	asl	$12                     ; 0x2012 <parse+0xced>
     9c9: 2a           	rol
     9ca: 06 12        	asl	$12                     ; 0x2012 <parse+0xced>
     9cc: 2a           	rol
     9cd: 06 12        	asl	$12                     ; 0x2012 <parse+0xced>
     9cf: 2a           	rol
     9d0: 58           	cli
     9d1: a6 0f        	ldx	$f                      ; 0x200f <parse+0xcea>
     9d3: 78           	sei
     9d4: 85 0f        	sta	$f                      ; 0x200f <parse+0xcea>
     9d6: a5 13        	lda	$13                     ; 0x2013 <parse+0xcee>
     9d8: 09 e0        	ora	#$e0
     9da: 84 12        	sty	$12                     ; 0x2012 <parse+0xced>
     9dc: 85 13        	sta	$13                     ; 0x2013 <parse+0xcee>
     9de: b2 12        	lda	($12)                   ; 0x2012 <parse+0xced>
     9e0: 86 0f        	stx	$f                      ; 0x200f <parse+0xcea>
     9e2: 58           	cli
     9e3: a6 0f        	ldx	$f                      ; 0x200f <parse+0xcea>
     9e5: 78           	sei
     9e6: a5 16        	lda	$16                     ; 0x2016 <parse+0xcf1>
     9e8: 0a           	asl
     9e9: 26 17        	rol	$17                     ; 0x2017 <parse+0xcf2>
     9eb: 0a           	asl
     9ec: 26 17        	rol	$17                     ; 0x2017 <parse+0xcf2>
     9ee: 0a           	asl
     9ef: a5 17        	lda	$17                     ; 0x2017 <parse+0xcf2>
     9f1: 2a           	rol
     9f2: 85 0f        	sta	$f                      ; 0x200f <parse+0xcea>
     9f4: a5 16        	lda	$16                     ; 0x2016 <parse+0xcf1>
     9f6: 09 e0        	ora	#$e0
     9f8: a4 15        	ldy	$15                     ; 0x2015 <parse+0xcf0>
     9fa: 84 12        	sty	$12                     ; 0x2012 <parse+0xced>
     9fc: 85 13        	sta	$13                     ; 0x2013 <parse+0xcee>
     9fe: b2 12        	lda	($12)                   ; 0x2012 <parse+0xced>
     a00: 86 0f        	stx	$f                      ; 0x200f <parse+0xcea>
     a02: a5 18        	lda	$18                     ; 0x2018 <parse+0xcf3>
     a04: 18           	clc
     a05: 69 08        	adc	#$8
     a07: 85 15        	sta	$15                     ; 0x2015 <parse+0xcf0>
     a09: a5 14        	lda	$14                     ; 0x2014 <parse+0xcef>
     a0b: 69 00        	adc	#$0
     a0d: 85 16        	sta	$16                     ; 0x2016 <parse+0xcf1>
     a0f: a9 00        	lda	#$0
     a11: 69 01        	adc	#$1
     a13: 85 17        	sta	$17                     ; 0x2017 <parse+0xcf2>
     a15: a5 18        	lda	$18                     ; 0x2018 <parse+0xcf3>
     a17: 18           	clc
     a18: 69 09        	adc	#$9
     a1a: a8           	tay
     a1b: a5 14        	lda	$14                     ; 0x2014 <parse+0xcef>
     a1d: 69 00        	adc	#$0
     a1f: 85 13        	sta	$13                     ; 0x2013 <parse+0xcee>
     a21: a9 00        	lda	#$0
     a23: 69 01        	adc	#$1
     a25: a6 13        	ldx	$13                     ; 0x2013 <parse+0xcee>
     a27: 86 12        	stx	$12                     ; 0x2012 <parse+0xced>
     a29: 06 12        	asl	$12                     ; 0x2012 <parse+0xced>
     a2b: 2a           	rol
     a2c: 06 12        	asl	$12                     ; 0x2012 <parse+0xced>
     a2e: 2a           	rol
     a2f: 06 12        	asl	$12                     ; 0x2012 <parse+0xced>
     a31: 2a           	rol
     a32: 58           	cli
     a33: a6 0f        	ldx	$f                      ; 0x200f <parse+0xcea>
     a35: 78           	sei
     a36: 85 0f        	sta	$f                      ; 0x200f <parse+0xcea>
     a38: a5 13        	lda	$13                     ; 0x2013 <parse+0xcee>
     a3a: 09 e0        	ora	#$e0
     a3c: 84 12        	sty	$12                     ; 0x2012 <parse+0xced>
     a3e: 85 13        	sta	$13                     ; 0x2013 <parse+0xcee>
     a40: b2 12        	lda	($12)                   ; 0x2012 <parse+0xced>
     a42: 86 0f        	stx	$f                      ; 0x200f <parse+0xcea>
     a44: 58           	cli
     a45: a6 0f        	ldx	$f                      ; 0x200f <parse+0xcea>
     a47: 78           	sei
     a48: a5 16        	lda	$16                     ; 0x2016 <parse+0xcf1>
     a4a: 0a           	asl
     a4b: 26 17        	rol	$17                     ; 0x2017 <parse+0xcf2>
     a4d: 0a           	asl
     a4e: 26 17        	rol	$17                     ; 0x2017 <parse+0xcf2>
     a50: 0a           	asl
     a51: a5 17        	lda	$17                     ; 0x2017 <parse+0xcf2>
     a53: 2a           	rol
     a54: 85 0f        	sta	$f                      ; 0x200f <parse+0xcea>
     a56: a5 16        	lda	$16                     ; 0x2016 <parse+0xcf1>
     a58: 09 e0        	ora	#$e0
     a5a: a4 15        	ldy	$15                     ; 0x2015 <parse+0xcf0>
     a5c: 84 12        	sty	$12                     ; 0x2012 <parse+0xced>
     a5e: 85 13        	sta	$13                     ; 0x2013 <parse+0xcee>
     a60: b2 12        	lda	($12)                   ; 0x2012 <parse+0xced>
     a62: 86 0f        	stx	$f                      ; 0x200f <parse+0xcea>
     a64: a5 18        	lda	$18                     ; 0x2018 <parse+0xcf3>
     a66: 18           	clc
     a67: 69 0a        	adc	#$a
     a69: 85 15        	sta	$15                     ; 0x2015 <parse+0xcf0>
     a6b: a5 14        	lda	$14                     ; 0x2014 <parse+0xcef>
     a6d: 69 00        	adc	#$0
     a6f: 85 16        	sta	$16                     ; 0x2016 <parse+0xcf1>
     a71: a9 00        	lda	#$0
     a73: 69 01        	adc	#$1
     a75: 85 17        	sta	$17                     ; 0x2017 <parse+0xcf2>
     a77: a5 18        	lda	$18                     ; 0x2018 <parse+0xcf3>
     a79: 18           	clc
     a7a: 69 0b        	adc	#$b
     a7c: a8           	tay
     a7d: a5 14        	lda	$14                     ; 0x2014 <parse+0xcef>
     a7f: 69 00        	adc	#$0
     a81: 85 13        	sta	$13                     ; 0x2013 <parse+0xcee>
     a83: a9 00        	lda	#$0
     a85: 69 01        	adc	#$1
     a87: a6 13        	ldx	$13                     ; 0x2013 <parse+0xcee>
     a89: 86 12        	stx	$12                     ; 0x2012 <parse+0xced>
     a8b: 06 12        	asl	$12                     ; 0x2012 <parse+0xced>
     a8d: 2a           	rol
     a8e: 06 12        	asl	$12                     ; 0x2012 <parse+0xced>
     a90: 2a           	rol
     a91: 06 12        	asl	$12                     ; 0x2012 <parse+0xced>
     a93: 2a           	rol
     a94: 58           	cli
     a95: a6 0f        	ldx	$f                      ; 0x200f <parse+0xcea>
     a97: 78           	sei
     a98: 85 0f        	sta	$f                      ; 0x200f <parse+0xcea>
     a9a: a5 13        	lda	$13                     ; 0x2013 <parse+0xcee>
     a9c: 09 e0        	ora	#$e0
     a9e: 84 12        	sty	$12                     ; 0x2012 <parse+0xced>
     aa0: 85 13        	sta	$13                     ; 0x2013 <parse+0xcee>
     aa2: b2 12        	lda	($12)                   ; 0x2012 <parse+0xced>
     aa4: 85 19        	sta	$19                     ; 0x2019 <parse+0xcf4>
     aa6: 86 0f        	stx	$f                      ; 0x200f <parse+0xcea>
     aa8: 58           	cli
     aa9: a6 0f        	ldx	$f                      ; 0x200f <parse+0xcea>
     aab: 78           	sei
     aac: a5 16        	lda	$16                     ; 0x2016 <parse+0xcf1>
     aae: 85 12        	sta	$12                     ; 0x2012 <parse+0xced>
     ab0: 06 12        	asl	$12                     ; 0x2012 <parse+0xced>
     ab2: 26 17        	rol	$17                     ; 0x2017 <parse+0xcf2>
     ab4: 06 12        	asl	$12                     ; 0x2012 <parse+0xced>
     ab6: 26 17        	rol	$17                     ; 0x2017 <parse+0xcf2>
     ab8: 06 12        	asl	$12                     ; 0x2012 <parse+0xced>
     aba: 26 17        	rol	$17                     ; 0x2017 <parse+0xcf2>
     abc: a4 17        	ldy	$17                     ; 0x2017 <parse+0xcf2>
     abe: 84 0f        	sty	$f                      ; 0x200f <parse+0xcea>
     ac0: 09 e0        	ora	#$e0
     ac2: 85 13        	sta	$13                     ; 0x2013 <parse+0xcee>
     ac4: a4 15        	ldy	$15                     ; 0x2015 <parse+0xcf0>
     ac6: 84 12        	sty	$12                     ; 0x2012 <parse+0xced>
     ac8: b2 12        	lda	($12)                   ; 0x2012 <parse+0xced>
     aca: 86 0f        	stx	$f                      ; 0x200f <parse+0xcea>
     acc: 58           	cli
     acd: a6 19        	ldx	$19                     ; 0x2019 <parse+0xcf4>
     acf: 86 66        	stx	$66                     ; 0x2066 <parse+0xd41>
     ad1: a5 18        	lda	$18                     ; 0x2018 <parse+0xcf3>
     ad3: 18           	clc
     ad4: 69 0c        	adc	#$c
     ad6: 85 15        	sta	$15                     ; 0x2015 <parse+0xcf0>
     ad8: a5 14        	lda	$14                     ; 0x2014 <parse+0xcef>
     ada: 69 00        	adc	#$0
     adc: 85 16        	sta	$16                     ; 0x2016 <parse+0xcf1>
     ade: a9 00        	lda	#$0
     ae0: 69 01        	adc	#$1
     ae2: 85 17        	sta	$17                     ; 0x2017 <parse+0xcf2>
     ae4: a5 18        	lda	$18                     ; 0x2018 <parse+0xcf3>
     ae6: a0 08        	ldy	#$8
     ae8: 91 10        	sta	($10),y                 ; 0x2010 <parse+0xceb>
     aea: 18           	clc
     aeb: 69 0d        	adc	#$d
     aed: a8           	tay
     aee: a5 14        	lda	$14                     ; 0x2014 <parse+0xcef>
     af0: 69 00        	adc	#$0
     af2: 85 13        	sta	$13                     ; 0x2013 <parse+0xcee>
     af4: a9 00        	lda	#$0
     af6: 69 01        	adc	#$1
     af8: a6 13        	ldx	$13                     ; 0x2013 <parse+0xcee>
     afa: 86 12        	stx	$12                     ; 0x2012 <parse+0xced>
     afc: 06 12        	asl	$12                     ; 0x2012 <parse+0xced>
     afe: 2a           	rol
     aff: 06 12        	asl	$12                     ; 0x2012 <parse+0xced>
     b01: 2a           	rol
     b02: 06 12        	asl	$12                     ; 0x2012 <parse+0xced>
     b04: 2a           	rol
     b05: 64 67        	stz	$67                     ; 0x2067 <parse+0xd42>
     b07: a6 0f        	ldx	$f                      ; 0x200f <parse+0xcea>
     b09: 78           	sei
     b0a: 85 0f        	sta	$f                      ; 0x200f <parse+0xcea>
     b0c: 84 12        	sty	$12                     ; 0x2012 <parse+0xced>
     b0e: a5 13        	lda	$13                     ; 0x2013 <parse+0xcee>
     b10: 09 e0        	ora	#$e0
     b12: 85 13        	sta	$13                     ; 0x2013 <parse+0xcee>
     b14: b2 12        	lda	($12)                   ; 0x2012 <parse+0xced>
     b16: 86 0f        	stx	$f                      ; 0x200f <parse+0xcea>
     b18: 58           	cli
     b19: a6 0f        	ldx	$f                      ; 0x200f <parse+0xcea>
     b1b: 78           	sei
     b1c: a5 16        	lda	$16                     ; 0x2016 <parse+0xcf1>
     b1e: 0a           	asl
     b1f: 26 17        	rol	$17                     ; 0x2017 <parse+0xcf2>
     b21: 0a           	asl
     b22: 26 17        	rol	$17                     ; 0x2017 <parse+0xcf2>
     b24: 0a           	asl
     b25: a5 17        	lda	$17                     ; 0x2017 <parse+0xcf2>
     b27: 2a           	rol
     b28: 85 0f        	sta	$f                      ; 0x200f <parse+0xcea>
     b2a: a5 16        	lda	$16                     ; 0x2016 <parse+0xcf1>
     b2c: 09 e0        	ora	#$e0
     b2e: a4 15        	ldy	$15                     ; 0x2015 <parse+0xcf0>
     b30: 84 12        	sty	$12                     ; 0x2012 <parse+0xced>
     b32: 85 13        	sta	$13                     ; 0x2013 <parse+0xcee>
     b34: b2 12        	lda	($12)                   ; 0x2012 <parse+0xced>
     b36: 86 0f        	stx	$f                      ; 0x200f <parse+0xcea>
     b38: 58           	cli
     b39: a2 01        	ldx	#$1
     b3b: 86 6c        	stx	$6c                     ; 0x206c <parse+0xd47>
     b3d: a6 66        	ldx	$66                     ; 0x2066 <parse+0xd41>
     b3f: 86 12        	stx	$12                     ; 0x2012 <parse+0xced>
     b41: a5 67        	lda	$67                     ; 0x2067 <parse+0xd42>
     b43: a6 66        	ldx	$66                     ; 0x2066 <parse+0xd41>
     b45: 86 6d        	stx	$6d                     ; 0x206d <parse+0xd48>
     b47: a6 67        	ldx	$67                     ; 0x2067 <parse+0xd42>
     b49: 86 6e        	stx	$6e                     ; 0x206e <parse+0xd49>
     b4b: 06 12        	asl	$12                     ; 0x2012 <parse+0xced>
     b4d: 2a           	rol
     b4e: 06 12        	asl	$12                     ; 0x2012 <parse+0xced>
     b50: 2a           	rol
     b51: 06 12        	asl	$12                     ; 0x2012 <parse+0xced>
     b53: 2a           	rol
     b54: aa           	tax
     b55: 18           	clc
     b56: a5 12        	lda	$12                     ; 0x2012 <parse+0xced>
     b58: 65 66        	adc	$66                     ; 0x2066 <parse+0xd41>
     b5a: a8           	tay
     b5b: 8a           	txa
     b5c: 65 67        	adc	$67                     ; 0x2067 <parse+0xd42>
     b5e: aa           	tax
     b5f: 98           	tya
     b60: 20 8a 37     	jsr	$378a <malloc>
     b63: a6 12        	ldx	$12                     ; 0x2012 <parse+0xced>
     b65: 86 24        	stx	$24                     ; 0x2024 <parse+0xcff>
     b67: a6 13        	ldx	$13                     ; 0x2013 <parse+0xcee>
     b69: 86 25        	stx	$25                     ; 0x2025 <parse+0xd00>
     b6b: a6 24        	ldx	$24                     ; 0x2024 <parse+0xcff>
     b6d: a4 25        	ldy	$25                     ; 0x2025 <parse+0xd00>
     b6f: 86 6f        	stx	$6f                     ; 0x206f <parse+0xd4a>
     b71: 84 70        	sty	$70                     ; 0x2070 <parse+0xd4b>
     b73: a6 66        	ldx	$66                     ; 0x2066 <parse+0xd41>
     b75: a4 67        	ldy	$67                     ; 0x2067 <parse+0xd42>
     b77: d0 06        	bne	$b7f <f256main+0x31a>
     b79: 8a           	txa
     b7a: d0 03        	bne	$b7f <f256main+0x31a>
     b7c: 4c c7 0c     	jmp	$cc7 <f256main+0x462>
     b7f: a0 08        	ldy	#$8
     b81: b1 10        	lda	($10),y                 ; 0x2010 <parse+0xceb>
     b83: 18           	clc
     b84: 69 0e        	adc	#$e
     b86: 85 14        	sta	$14                     ; 0x2014 <parse+0xcef>
     b88: c8           	iny
     b89: b1 10        	lda	($10),y                 ; 0x2010 <parse+0xceb>
     b8b: 69 00        	adc	#$0
     b8d: 85 13        	sta	$13                     ; 0x2013 <parse+0xcee>
     b8f: a9 00        	lda	#$0
     b91: 69 00        	adc	#$0
     b93: 85 16        	sta	$16                     ; 0x2016 <parse+0xcf1>
     b95: a9 00        	lda	#$0
     b97: 69 00        	adc	#$0
     b99: 85 18        	sta	$18                     ; 0x2018 <parse+0xcf3>
     b9b: a2 00        	ldx	#$0
     b9d: 64 15        	stz	$15                     ; 0x2015 <parse+0xcf0>
     b9f: a4 16        	ldy	$16                     ; 0x2016 <parse+0xcf1>
     ba1: 84 12        	sty	$12                     ; 0x2012 <parse+0xced>
     ba3: 86 1c        	stx	$1c                     ; 0x201c <parse+0xcf7>
     ba5: 18           	clc
     ba6: a5 14        	lda	$14                     ; 0x2014 <parse+0xcef>
     ba8: 69 04        	adc	#$4
     baa: 85 19        	sta	$19                     ; 0x2019 <parse+0xcf4>
     bac: a5 13        	lda	$13                     ; 0x2013 <parse+0xcee>
     bae: 69 00        	adc	#$0
     bb0: 85 1a        	sta	$1a                     ; 0x201a <parse+0xcf5>
     bb2: a5 16        	lda	$16                     ; 0x2016 <parse+0xcf1>
     bb4: 69 01        	adc	#$1
     bb6: 85 1b        	sta	$1b                     ; 0x201b <parse+0xcf6>
     bb8: 18           	clc
     bb9: a5 14        	lda	$14                     ; 0x2014 <parse+0xcef>
     bbb: 69 07        	adc	#$7
     bbd: aa           	tax
     bbe: a5 13        	lda	$13                     ; 0x2013 <parse+0xcee>
     bc0: 69 00        	adc	#$0
     bc2: 85 17        	sta	$17                     ; 0x2017 <parse+0xcf2>
     bc4: a5 16        	lda	$16                     ; 0x2016 <parse+0xcf1>
     bc6: 69 01        	adc	#$1
     bc8: a4 17        	ldy	$17                     ; 0x2017 <parse+0xcf2>
     bca: 84 16        	sty	$16                     ; 0x2016 <parse+0xcf1>
     bcc: 06 16        	asl	$16                     ; 0x2016 <parse+0xcf1>
     bce: 2a           	rol
     bcf: 06 16        	asl	$16                     ; 0x2016 <parse+0xcf1>
     bd1: 2a           	rol
     bd2: 06 16        	asl	$16                     ; 0x2016 <parse+0xcf1>
     bd4: 2a           	rol
     bd5: e6 15        	inc	$15                     ; 0x2015 <parse+0xcf0>
     bd7: d0 02        	bne	$bdb <f256main+0x376>
     bd9: e6 1c        	inc	$1c                     ; 0x201c <parse+0xcf7>
     bdb: a4 0f        	ldy	$f                      ; 0x200f <parse+0xcea>
     bdd: 78           	sei
     bde: 85 0f        	sta	$f                      ; 0x200f <parse+0xcea>
     be0: a5 17        	lda	$17                     ; 0x2017 <parse+0xcf2>
     be2: 09 e0        	ora	#$e0
     be4: 86 16        	stx	$16                     ; 0x2016 <parse+0xcf1>
     be6: 85 17        	sta	$17                     ; 0x2017 <parse+0xcf2>
     be8: b2 16        	lda	($16)                   ; 0x2016 <parse+0xcf1>
     bea: 85 1d        	sta	$1d                     ; 0x201d <parse+0xcf8>
     bec: 84 0f        	sty	$f                      ; 0x200f <parse+0xcea>
     bee: 18           	clc
     bef: a5 14        	lda	$14                     ; 0x2014 <parse+0xcef>
     bf1: 69 06        	adc	#$6
     bf3: aa           	tax
     bf4: a5 13        	lda	$13                     ; 0x2013 <parse+0xcee>
     bf6: 69 00        	adc	#$0
     bf8: 85 17        	sta	$17                     ; 0x2017 <parse+0xcf2>
     bfa: a5 12        	lda	$12                     ; 0x2012 <parse+0xced>
     bfc: 69 01        	adc	#$1
     bfe: a4 17        	ldy	$17                     ; 0x2017 <parse+0xcf2>
     c00: 84 16        	sty	$16                     ; 0x2016 <parse+0xcf1>
     c02: 06 16        	asl	$16                     ; 0x2016 <parse+0xcf1>
     c04: 2a           	rol
     c05: 06 16        	asl	$16                     ; 0x2016 <parse+0xcf1>
     c07: 2a           	rol
     c08: 06 16        	asl	$16                     ; 0x2016 <parse+0xcf1>
     c0a: 2a           	rol
     c0b: 58           	cli
     c0c: a4 0f        	ldy	$f                      ; 0x200f <parse+0xcea>
     c0e: 78           	sei
     c0f: 85 0f        	sta	$f                      ; 0x200f <parse+0xcea>
     c11: 86 16        	stx	$16                     ; 0x2016 <parse+0xcf1>
     c13: a5 17        	lda	$17                     ; 0x2017 <parse+0xcf2>
     c15: 09 e0        	ora	#$e0
     c17: 85 17        	sta	$17                     ; 0x2017 <parse+0xcf2>
     c19: b2 16        	lda	($16)                   ; 0x2016 <parse+0xcf1>
     c1b: 85 1e        	sta	$1e                     ; 0x201e <parse+0xcf9>
     c1d: 84 0f        	sty	$f                      ; 0x200f <parse+0xcea>
     c1f: 18           	clc
     c20: a5 14        	lda	$14                     ; 0x2014 <parse+0xcef>
     c22: 69 05        	adc	#$5
     c24: aa           	tax
     c25: a5 13        	lda	$13                     ; 0x2013 <parse+0xcee>
     c27: 69 00        	adc	#$0
     c29: 85 17        	sta	$17                     ; 0x2017 <parse+0xcf2>
     c2b: a5 12        	lda	$12                     ; 0x2012 <parse+0xced>
     c2d: 69 01        	adc	#$1
     c2f: a4 17        	ldy	$17                     ; 0x2017 <parse+0xcf2>
     c31: 84 16        	sty	$16                     ; 0x2016 <parse+0xcf1>
     c33: 06 16        	asl	$16                     ; 0x2016 <parse+0xcf1>
     c35: 2a           	rol
     c36: 06 16        	asl	$16                     ; 0x2016 <parse+0xcf1>
     c38: 2a           	rol
     c39: 06 16        	asl	$16                     ; 0x2016 <parse+0xcf1>
     c3b: 2a           	rol
     c3c: 58           	cli
     c3d: a4 0f        	ldy	$f                      ; 0x200f <parse+0xcea>
     c3f: 78           	sei
     c40: 85 0f        	sta	$f                      ; 0x200f <parse+0xcea>
     c42: 86 16        	stx	$16                     ; 0x2016 <parse+0xcf1>
     c44: a5 17        	lda	$17                     ; 0x2017 <parse+0xcf2>
     c46: 09 e0        	ora	#$e0
     c48: 85 17        	sta	$17                     ; 0x2017 <parse+0xcf2>
     c4a: b2 16        	lda	($16)                   ; 0x2016 <parse+0xcf1>
     c4c: 85 1f        	sta	$1f                     ; 0x201f <parse+0xcfa>
     c4e: 84 0f        	sty	$f                      ; 0x200f <parse+0xcea>
     c50: a5 1a        	lda	$1a                     ; 0x201a <parse+0xcf5>
     c52: 85 16        	sta	$16                     ; 0x2016 <parse+0xcf1>
     c54: 06 16        	asl	$16                     ; 0x2016 <parse+0xcf1>
     c56: 26 1b        	rol	$1b                     ; 0x201b <parse+0xcf6>
     c58: 06 16        	asl	$16                     ; 0x2016 <parse+0xcf1>
     c5a: 26 1b        	rol	$1b                     ; 0x201b <parse+0xcf6>
     c5c: 06 16        	asl	$16                     ; 0x2016 <parse+0xcf1>
     c5e: 26 1b        	rol	$1b                     ; 0x201b <parse+0xcf6>
     c60: a6 1b        	ldx	$1b                     ; 0x201b <parse+0xcf6>
     c62: 58           	cli
     c63: a4 0f        	ldy	$f                      ; 0x200f <parse+0xcea>
     c65: 78           	sei
     c66: 86 0f        	stx	$f                      ; 0x200f <parse+0xcea>
     c68: a6 19        	ldx	$19                     ; 0x2019 <parse+0xcf4>
     c6a: 86 16        	stx	$16                     ; 0x2016 <parse+0xcf1>
     c6c: 09 e0        	ora	#$e0
     c6e: 85 17        	sta	$17                     ; 0x2017 <parse+0xcf2>
     c70: a6 1c        	ldx	$1c                     ; 0x201c <parse+0xcf7>
     c72: b2 16        	lda	($16)                   ; 0x2016 <parse+0xcf1>
     c74: 84 0f        	sty	$f                      ; 0x200f <parse+0xcea>
     c76: 58           	cli
     c77: 18           	clc
     c78: a5 1d        	lda	$1d                     ; 0x201d <parse+0xcf8>
     c7a: 65 14        	adc	$14                     ; 0x2014 <parse+0xcef>
     c7c: 85 14        	sta	$14                     ; 0x2014 <parse+0xcef>
     c7e: a5 1e        	lda	$1e                     ; 0x201e <parse+0xcf9>
     c80: 65 13        	adc	$13                     ; 0x2013 <parse+0xcee>
     c82: a8           	tay
     c83: a5 1f        	lda	$1f                     ; 0x201f <parse+0xcfa>
     c85: 65 12        	adc	$12                     ; 0x2012 <parse+0xced>
     c87: 85 12        	sta	$12                     ; 0x2012 <parse+0xced>
     c89: a5 18        	lda	$18                     ; 0x2018 <parse+0xcf3>
     c8b: 69 00        	adc	#$0
     c8d: 85 17        	sta	$17                     ; 0x2017 <parse+0xcf2>
     c8f: 18           	clc
     c90: a5 14        	lda	$14                     ; 0x2014 <parse+0xcef>
     c92: 69 08        	adc	#$8
     c94: 85 14        	sta	$14                     ; 0x2014 <parse+0xcef>
     c96: 98           	tya
     c97: 69 00        	adc	#$0
     c99: 85 13        	sta	$13                     ; 0x2013 <parse+0xcee>
     c9b: a5 12        	lda	$12                     ; 0x2012 <parse+0xced>
     c9d: 69 00        	adc	#$0
     c9f: 85 16        	sta	$16                     ; 0x2016 <parse+0xcf1>
     ca1: a5 17        	lda	$17                     ; 0x2017 <parse+0xcf2>
     ca3: 69 00        	adc	#$0
     ca5: 85 18        	sta	$18                     ; 0x2018 <parse+0xcf3>
     ca7: e4 67        	cpx	$67                     ; 0x2067 <parse+0xd42>
     ca9: d0 0d        	bne	$cb8 <f256main+0x453>
     cab: a4 66        	ldy	$66                     ; 0x2066 <parse+0xd41>
     cad: 84 12        	sty	$12                     ; 0x2012 <parse+0xced>
     caf: a4 15        	ldy	$15                     ; 0x2015 <parse+0xcf0>
     cb1: c4 12        	cpy	$12                     ; 0x2012 <parse+0xced>
     cb3: b0 0a        	bcs	$cbf <f256main+0x45a>
     cb5: 4c 9f 0b     	jmp	$b9f <f256main+0x33a>
     cb8: e4 67        	cpx	$67                     ; 0x2067 <parse+0xd42>
     cba: b0 03        	bcs	$cbf <f256main+0x45a>
     cbc: 4c 9f 0b     	jmp	$b9f <f256main+0x33a>
     cbf: a6 6f        	ldx	$6f                     ; 0x206f <parse+0xd4a>
     cc1: a4 70        	ldy	$70                     ; 0x2070 <parse+0xd4b>
     cc3: 86 24        	stx	$24                     ; 0x2024 <parse+0xcff>
     cc5: 84 25        	sty	$25                     ; 0x2025 <parse+0xd00>
     cc7: a2 cb        	ldx	#$cb
     cc9: 86 12        	stx	$12                     ; 0x2012 <parse+0xced>
     ccb: a2 5b        	ldx	#$5b
     ccd: 86 13        	stx	$13                     ; 0x2013 <parse+0xcee>
     ccf: 20 59 37     	jsr	$3759 <puts>
     cd2: a6 6d        	ldx	$6d                     ; 0x206d <parse+0xd48>
     cd4: 86 13        	stx	$13                     ; 0x2013 <parse+0xcee>
     cd6: a6 6e        	ldx	$6e                     ; 0x206e <parse+0xd49>
     cd8: a0 01        	ldy	#$1
     cda: 98           	tya
     cdb: 25 6c        	and	$6c                     ; 0x206c <parse+0xd47>
     cdd: 92 10        	sta	($10)                   ; 0x2010 <parse+0xceb>
     cdf: a9 00        	lda	#$0
     ce1: 91 10        	sta	($10),y                 ; 0x2010 <parse+0xceb>
     ce3: c8           	iny
     ce4: a5 13        	lda	$13                     ; 0x2013 <parse+0xcee>
     ce6: 91 10        	sta	($10),y                 ; 0x2010 <parse+0xceb>
     ce8: c8           	iny
     ce9: 8a           	txa
     cea: 91 10        	sta	($10),y                 ; 0x2010 <parse+0xceb>
     cec: a5 24        	lda	$24                     ; 0x2024 <parse+0xcff>
     cee: c8           	iny
     cef: 91 10        	sta	($10),y                 ; 0x2010 <parse+0xceb>
     cf1: c8           	iny
     cf2: a5 25        	lda	$25                     ; 0x2025 <parse+0xd00>
     cf4: 91 10        	sta	($10),y                 ; 0x2010 <parse+0xceb>
     cf6: a2 3b        	ldx	#$3b
     cf8: 86 12        	stx	$12                     ; 0x2012 <parse+0xced>
     cfa: a2 5b        	ldx	#$5b
     cfc: 86 13        	stx	$13                     ; 0x2013 <parse+0xcee>
     cfe: 20 a9 2b     	jsr	$2ba9 <printf>
     d01: a6 6d        	ldx	$6d                     ; 0x206d <parse+0xd48>
     d03: 86 12        	stx	$12                     ; 0x2012 <parse+0xced>
     d05: a6 6e        	ldx	$6e                     ; 0x206e <parse+0xd49>
     d07: 86 13        	stx	$13                     ; 0x2013 <parse+0xcee>
     d09: a5 13        	lda	$13                     ; 0x2013 <parse+0xcee>
     d0b: d0 07        	bne	$d14 <f256main+0x4af>
     d0d: a5 12        	lda	$12                     ; 0x2012 <parse+0xced>
     d0f: d0 03        	bne	$d14 <f256main+0x4af>
     d11: 4c b5 0d     	jmp	$db5 <f256main+0x550>
     d14: a6 6f        	ldx	$6f                     ; 0x206f <parse+0xd4a>
     d16: a4 70        	ldy	$70                     ; 0x2070 <parse+0xd4b>
     d18: 86 16        	stx	$16                     ; 0x2016 <parse+0xcf1>
     d1a: 84 17        	sty	$17                     ; 0x2017 <parse+0xcf2>
     d1c: 64 1d        	stz	$1d                     ; 0x201d <parse+0xcf8>
     d1e: a2 00        	ldx	#$0
     d20: 64 15        	stz	$15                     ; 0x2015 <parse+0xcf0>
     d22: 64 14        	stz	$14                     ; 0x2014 <parse+0xcef>
     d24: a4 16        	ldy	$16                     ; 0x2016 <parse+0xcf1>
     d26: 84 18        	sty	$18                     ; 0x2018 <parse+0xcf3>
     d28: a4 17        	ldy	$17                     ; 0x2017 <parse+0xcf2>
     d2a: 84 19        	sty	$19                     ; 0x2019 <parse+0xcf4>
     d2c: a4 16        	ldy	$16                     ; 0x2016 <parse+0xcf1>
     d2e: a5 16        	lda	$16                     ; 0x2016 <parse+0xcf1>
     d30: 84 1f        	sty	$1f                     ; 0x201f <parse+0xcfa>
     d32: 18           	clc
     d33: 69 03        	adc	#$3
     d35: 85 1a        	sta	$1a                     ; 0x201a <parse+0xcf5>
     d37: a5 17        	lda	$17                     ; 0x2017 <parse+0xcf2>
     d39: 69 00        	adc	#$0
     d3b: 85 1b        	sta	$1b                     ; 0x201b <parse+0xcf6>
     d3d: 98           	tya
     d3e: 18           	clc
     d3f: 69 05        	adc	#$5
     d41: 85 1c        	sta	$1c                     ; 0x201c <parse+0xcf7>
     d43: a5 17        	lda	$17                     ; 0x2017 <parse+0xcf2>
     d45: 69 00        	adc	#$0
     d47: 85 22        	sta	$22                     ; 0x2022 <parse+0xcfd>
     d49: e6 18        	inc	$18                     ; 0x2018 <parse+0xcf3>
     d4b: d0 02        	bne	$d4f <f256main+0x4ea>
     d4d: e6 19        	inc	$19                     ; 0x2019 <parse+0xcf4>
     d4f: a9 00        	lda	#$0
     d51: a0 01        	ldy	#$1
     d53: 91 18        	sta	($18),y                 ; 0x2018 <parse+0xcf3>
     d55: 91 1a        	sta	($1a),y                 ; 0x201a <parse+0xcf5>
     d57: a5 1d        	lda	$1d                     ; 0x201d <parse+0xcf8>
     d59: 85 18        	sta	$18                     ; 0x2018 <parse+0xcf3>
     d5b: a5 1d        	lda	$1d                     ; 0x201d <parse+0xcf8>
     d5d: 92 16        	sta	($16)                   ; 0x2016 <parse+0xcf1>
     d5f: a9 00        	lda	#$0
     d61: 91 16        	sta	($16),y                 ; 0x2016 <parse+0xcf1>
     d63: a0 03        	ldy	#$3
     d65: 91 16        	sta	($16),y                 ; 0x2016 <parse+0xcf1>
     d67: a4 22        	ldy	$22                     ; 0x2022 <parse+0xcfd>
     d69: 84 1d        	sty	$1d                     ; 0x201d <parse+0xcf8>
     d6b: a0 05        	ldy	#$5
     d6d: 91 16        	sta	($16),y                 ; 0x2016 <parse+0xcf1>
     d6f: a0 01        	ldy	#$1
     d71: 91 1c        	sta	($1c),y                 ; 0x201c <parse+0xcf7>
     d73: c8           	iny
     d74: 91 1c        	sta	($1c),y                 ; 0x201c <parse+0xcf7>
     d76: c8           	iny
     d77: 91 1c        	sta	($1c),y                 ; 0x201c <parse+0xcf7>
     d79: 18           	clc
     d7a: a5 1f        	lda	$1f                     ; 0x201f <parse+0xcfa>
     d7c: 69 09        	adc	#$9
     d7e: 85 16        	sta	$16                     ; 0x2016 <parse+0xcf1>
     d80: a5 17        	lda	$17                     ; 0x2017 <parse+0xcf2>
     d82: 69 00        	adc	#$0
     d84: e6 18        	inc	$18                     ; 0x2018 <parse+0xcf3>
     d86: d0 09        	bne	$d91 <f256main+0x52c>
     d88: e8           	inx
     d89: d0 06        	bne	$d91 <f256main+0x52c>
     d8b: e6 15        	inc	$15                     ; 0x2015 <parse+0xcf0>
     d8d: d0 02        	bne	$d91 <f256main+0x52c>
     d8f: e6 14        	inc	$14                     ; 0x2014 <parse+0xcef>
     d91: a4 18        	ldy	$18                     ; 0x2018 <parse+0xcf3>
     d93: 84 1d        	sty	$1d                     ; 0x201d <parse+0xcf8>
     d95: 85 17        	sta	$17                     ; 0x2017 <parse+0xcf2>
     d97: a5 14        	lda	$14                     ; 0x2014 <parse+0xcef>
     d99: f0 03        	beq	$d9e <f256main+0x539>
     d9b: 4c 24 0d     	jmp	$d24 <f256main+0x4bf>
     d9e: a5 15        	lda	$15                     ; 0x2015 <parse+0xcf0>
     da0: f0 03        	beq	$da5 <f256main+0x540>
     da2: 4c 24 0d     	jmp	$d24 <f256main+0x4bf>
     da5: e4 13        	cpx	$13                     ; 0x2013 <parse+0xcee>
     da7: f0 03        	beq	$dac <f256main+0x547>
     da9: 4c 24 0d     	jmp	$d24 <f256main+0x4bf>
     dac: a4 18        	ldy	$18                     ; 0x2018 <parse+0xcf3>
     dae: c4 12        	cpy	$12                     ; 0x2012 <parse+0xced>
     db0: f0 03        	beq	$db5 <f256main+0x550>
     db2: 4c 24 0d     	jmp	$d24 <f256main+0x4bf>
     db5: a2 02        	ldx	#$2
     db7: 8e 54 d6     	stx	$d654                   ; 0xd654 <end_block9+0x7986>
     dba: a2 ff        	ldx	#$ff
     dbc: 8e 55 d6     	stx	$d655                   ; 0xd655 <end_block9+0x7987>
     dbf: 8e 56 d6     	stx	$d656                   ; 0xd656 <end_block9+0x7988>
     dc2: 8e 57 d6     	stx	$d657                   ; 0xd657 <end_block9+0x7989>
     dc5: 64 12        	stz	$12                     ; 0x2012 <parse+0xced>
     dc7: a0 09        	ldy	#$9
     dc9: b1 10        	lda	($10),y                 ; 0x2010 <parse+0xceb>
     dcb: aa           	tax
     dcc: 88           	dey
     dcd: b1 10        	lda	($10),y                 ; 0x2010 <parse+0xceb>
     dcf: 20 25 13     	jsr	$1325 <parse>
     dd2: a6 6d        	ldx	$6d                     ; 0x206d <parse+0xd48>
     dd4: a4 6e        	ldy	$6e                     ; 0x206e <parse+0xd49>
     dd6: d0 06        	bne	$dde <f256main+0x579>
     dd8: 8a           	txa
     dd9: d0 03        	bne	$dde <f256main+0x579>
     ddb: 4c e3 0f     	jmp	$fe3 <f256main+0x77e>
     dde: a0 00        	ldy	#$0
     de0: 64 27        	stz	$27                     ; 0x2027 <parse+0xd02>
     de2: 84 24        	sty	$24                     ; 0x2024 <parse+0xcff>
     de4: 06 24        	asl	$24                     ; 0x2024 <parse+0xcff>
     de6: a6 27        	ldx	$27                     ; 0x2027 <parse+0xd02>
     de8: 86 25        	stx	$25                     ; 0x2025 <parse+0xd00>
     dea: 86 26        	stx	$26                     ; 0x2026 <parse+0xd01>
     dec: 26 25        	rol	$25                     ; 0x2025 <parse+0xd00>
     dee: 06 24        	asl	$24                     ; 0x2024 <parse+0xcff>
     df0: 26 25        	rol	$25                     ; 0x2025 <parse+0xd00>
     df2: 06 24        	asl	$24                     ; 0x2024 <parse+0xcff>
     df4: 26 25        	rol	$25                     ; 0x2025 <parse+0xd00>
     df6: 84 12        	sty	$12                     ; 0x2012 <parse+0xced>
     df8: a5 24        	lda	$24                     ; 0x2024 <parse+0xcff>
     dfa: 18           	clc
     dfb: 65 12        	adc	$12                     ; 0x2012 <parse+0xced>
     dfd: aa           	tax
     dfe: 84 28        	sty	$28                     ; 0x2028 <parse+0xd03>
     e00: a5 25        	lda	$25                     ; 0x2025 <parse+0xd00>
     e02: 65 26        	adc	$26                     ; 0x2026 <parse+0xd01>
     e04: a8           	tay
     e05: 18           	clc
     e06: 8a           	txa
     e07: 65 6f        	adc	$6f                     ; 0x206f <parse+0xd4a>
     e09: aa           	tax
     e0a: 98           	tya
     e0b: 65 70        	adc	$70                     ; 0x2070 <parse+0xd4b>
     e0d: 86 12        	stx	$12                     ; 0x2012 <parse+0xced>
     e0f: 85 13        	sta	$13                     ; 0x2013 <parse+0xcee>
     e11: a8           	tay
     e12: 18           	clc
     e13: 8a           	txa
     e14: 69 05        	adc	#$5
     e16: 85 14        	sta	$14                     ; 0x2014 <parse+0xcef>
     e18: 98           	tya
     e19: 69 00        	adc	#$0
     e1b: 85 15        	sta	$15                     ; 0x2015 <parse+0xcf0>
     e1d: a9 00        	lda	#$0
     e1f: a0 05        	ldy	#$5
     e21: 91 12        	sta	($12),y                 ; 0x2012 <parse+0xced>
     e23: a0 01        	ldy	#$1
     e25: 91 14        	sta	($14),y                 ; 0x2014 <parse+0xcef>
     e27: c8           	iny
     e28: 91 14        	sta	($14),y                 ; 0x2014 <parse+0xcef>
     e2a: c8           	iny
     e2b: 91 14        	sta	($14),y                 ; 0x2014 <parse+0xcef>
     e2d: a5 28        	lda	$28                     ; 0x2028 <parse+0xd03>
     e2f: 92 10        	sta	($10)                   ; 0x2010 <parse+0xceb>
     e31: a5 26        	lda	$26                     ; 0x2026 <parse+0xd01>
     e33: a0 01        	ldy	#$1
     e35: 91 10        	sta	($10),y                 ; 0x2010 <parse+0xceb>
     e37: a9 00        	lda	#$0
     e39: c8           	iny
     e3a: 91 10        	sta	($10),y                 ; 0x2010 <parse+0xceb>
     e3c: c8           	iny
     e3d: 91 10        	sta	($10),y                 ; 0x2010 <parse+0xceb>
     e3f: c8           	iny
     e40: 91 10        	sta	($10),y                 ; 0x2010 <parse+0xceb>
     e42: c8           	iny
     e43: 91 10        	sta	($10),y                 ; 0x2010 <parse+0xceb>
     e45: a2 a7        	ldx	#$a7
     e47: 86 12        	stx	$12                     ; 0x2012 <parse+0xced>
     e49: a2 5c        	ldx	#$5c
     e4b: 86 13        	stx	$13                     ; 0x2013 <parse+0xcee>
     e4d: 20 a9 2b     	jsr	$2ba9 <printf>
     e50: a5 6f        	lda	$6f                     ; 0x206f <parse+0xd4a>
     e52: a6 70        	ldx	$70                     ; 0x2070 <parse+0xd4b>
     e54: 85 12        	sta	$12                     ; 0x2012 <parse+0xced>
     e56: 86 14        	stx	$14                     ; 0x2014 <parse+0xcef>
     e58: 86 13        	stx	$13                     ; 0x2013 <parse+0xcee>
     e5a: a4 28        	ldy	$28                     ; 0x2028 <parse+0xd03>
     e5c: 84 2a        	sty	$2a                     ; 0x202a <parse+0xd05>
     e5e: a6 26        	ldx	$26                     ; 0x2026 <parse+0xd01>
     e60: 86 2b        	stx	$2b                     ; 0x202b <parse+0xd06>
     e62: d0 07        	bne	$e6b <f256main+0x606>
     e64: c0 00        	cpy	#$0
     e66: d0 03        	bne	$e6b <f256main+0x606>
     e68: 4c be 0f     	jmp	$fbe <f256main+0x759>
     e6b: 84 26        	sty	$26                     ; 0x2026 <parse+0xd01>
     e6d: a0 01        	ldy	#$1
     e6f: 64 16        	stz	$16                     ; 0x2016 <parse+0xcf1>
     e71: 64 17        	stz	$17                     ; 0x2017 <parse+0xcf2>
     e73: 64 1a        	stz	$1a                     ; 0x201a <parse+0xcf5>
     e75: 98           	tya
     e76: 84 2d        	sty	$2d                     ; 0x202d <parse+0xd08>
     e78: 18           	clc
     e79: 65 12        	adc	$12                     ; 0x2012 <parse+0xced>
     e7b: 85 12        	sta	$12                     ; 0x2012 <parse+0xced>
     e7d: a6 16        	ldx	$16                     ; 0x2016 <parse+0xcf1>
     e7f: 86 2c        	stx	$2c                     ; 0x202c <parse+0xd07>
     e81: a5 16        	lda	$16                     ; 0x2016 <parse+0xcf1>
     e83: 65 13        	adc	$13                     ; 0x2013 <parse+0xcee>
     e85: 85 13        	sta	$13                     ; 0x2013 <parse+0xcee>
     e87: b2 12        	lda	($12)                   ; 0x2012 <parse+0xced>
     e89: 85 14        	sta	$14                     ; 0x2014 <parse+0xcef>
     e8b: a0 01        	ldy	#$1
     e8d: b1 12        	lda	($12),y                 ; 0x2012 <parse+0xced>
     e8f: a6 14        	ldx	$14                     ; 0x2014 <parse+0xcef>
     e91: 86 28        	stx	$28                     ; 0x2028 <parse+0xd03>
     e93: 06 28        	asl	$28                     ; 0x2028 <parse+0xd03>
     e95: 85 12        	sta	$12                     ; 0x2012 <parse+0xced>
     e97: aa           	tax
     e98: 26 12        	rol	$12                     ; 0x2012 <parse+0xced>
     e9a: 06 28        	asl	$28                     ; 0x2028 <parse+0xd03>
     e9c: 26 12        	rol	$12                     ; 0x2012 <parse+0xced>
     e9e: 06 28        	asl	$28                     ; 0x2028 <parse+0xd03>
     ea0: 26 12        	rol	$12                     ; 0x2012 <parse+0xced>
     ea2: a4 12        	ldy	$12                     ; 0x2012 <parse+0xced>
     ea4: 84 2f        	sty	$2f                     ; 0x202f <parse+0xd0a>
     ea6: a0 02        	ldy	#$2
     ea8: a5 14        	lda	$14                     ; 0x2014 <parse+0xcef>
     eaa: 91 10        	sta	($10),y                 ; 0x2010 <parse+0xceb>
     eac: c8           	iny
     ead: 8a           	txa
     eae: 91 10        	sta	($10),y                 ; 0x2010 <parse+0xceb>
     eb0: a5 17        	lda	$17                     ; 0x2017 <parse+0xcf2>
     eb2: 92 10        	sta	($10)                   ; 0x2010 <parse+0xceb>
     eb4: 85 29        	sta	$29                     ; 0x2029 <parse+0xd04>
     eb6: a5 1a        	lda	$1a                     ; 0x201a <parse+0xcf5>
     eb8: a0 01        	ldy	#$1
     eba: 91 10        	sta	($10),y                 ; 0x2010 <parse+0xceb>
     ebc: 85 2e        	sta	$2e                     ; 0x202e <parse+0xd09>
     ebe: a0 04        	ldy	#$4
     ec0: a5 28        	lda	$28                     ; 0x2028 <parse+0xd03>
     ec2: 91 10        	sta	($10),y                 ; 0x2010 <parse+0xceb>
     ec4: c8           	iny
     ec5: a5 12        	lda	$12                     ; 0x2012 <parse+0xced>
     ec7: 91 10        	sta	($10),y                 ; 0x2010 <parse+0xceb>
     ec9: a9 00        	lda	#$0
     ecb: c8           	iny
     ecc: 91 10        	sta	($10),y                 ; 0x2010 <parse+0xceb>
     ece: c8           	iny
     ecf: 91 10        	sta	($10),y                 ; 0x2010 <parse+0xceb>
     ed1: a2 35        	ldx	#$35
     ed3: 86 12        	stx	$12                     ; 0x2012 <parse+0xced>
     ed5: a2 5c        	ldx	#$5c
     ed7: 86 13        	stx	$13                     ; 0x2013 <parse+0xcee>
     ed9: 20 a9 2b     	jsr	$2ba9 <printf>
     edc: a6 6f        	ldx	$6f                     ; 0x206f <parse+0xd4a>
     ede: a4 70        	ldy	$70                     ; 0x2070 <parse+0xd4b>
     ee0: 86 12        	stx	$12                     ; 0x2012 <parse+0xced>
     ee2: 84 13        	sty	$13                     ; 0x2013 <parse+0xcee>
     ee4: a5 24        	lda	$24                     ; 0x2024 <parse+0xcff>
     ee6: 18           	clc
     ee7: 65 26        	adc	$26                     ; 0x2026 <parse+0xd01>
     ee9: aa           	tax
     eea: a5 25        	lda	$25                     ; 0x2025 <parse+0xd00>
     eec: 65 27        	adc	$27                     ; 0x2027 <parse+0xd02>
     eee: a8           	tay
     eef: 18           	clc
     ef0: 8a           	txa
     ef1: 65 6f        	adc	$6f                     ; 0x206f <parse+0xd4a>
     ef3: aa           	tax
     ef4: 98           	tya
     ef5: 65 70        	adc	$70                     ; 0x2070 <parse+0xd4b>
     ef7: 86 14        	stx	$14                     ; 0x2014 <parse+0xcef>
     ef9: 85 15        	sta	$15                     ; 0x2015 <parse+0xcf0>
     efb: a8           	tay
     efc: 18           	clc
     efd: 8a           	txa
     efe: 69 05        	adc	#$5
     f00: 85 16        	sta	$16                     ; 0x2016 <parse+0xcf1>
     f02: 98           	tya
     f03: 69 00        	adc	#$0
     f05: 85 17        	sta	$17                     ; 0x2017 <parse+0xcf2>
     f07: a0 02        	ldy	#$2
     f09: b1 16        	lda	($16),y                 ; 0x2016 <parse+0xcf1>
     f0b: 85 18        	sta	$18                     ; 0x2018 <parse+0xcf3>
     f0d: c8           	iny
     f0e: b1 16        	lda	($16),y                 ; 0x2016 <parse+0xcf1>
     f10: 85 19        	sta	$19                     ; 0x2019 <parse+0xcf4>
     f12: 18           	clc
     f13: a5 28        	lda	$28                     ; 0x2028 <parse+0xd03>
     f15: a0 05        	ldy	#$5
     f17: 71 14        	adc	($14),y                 ; 0x2014 <parse+0xcef>
     f19: 85 1b        	sta	$1b                     ; 0x201b <parse+0xcf6>
     f1b: a0 01        	ldy	#$1
     f1d: a5 2f        	lda	$2f                     ; 0x202f <parse+0xd0a>
     f1f: 71 16        	adc	($16),y                 ; 0x2016 <parse+0xcf1>
     f21: aa           	tax
     f22: a5 18        	lda	$18                     ; 0x2018 <parse+0xcf3>
     f24: 69 00        	adc	#$0
     f26: 85 1a        	sta	$1a                     ; 0x201a <parse+0xcf5>
     f28: a5 19        	lda	$19                     ; 0x2019 <parse+0xcf4>
     f2a: 69 00        	adc	#$0
     f2c: 85 1c        	sta	$1c                     ; 0x201c <parse+0xcf7>
     f2e: a5 1b        	lda	$1b                     ; 0x201b <parse+0xcf6>
     f30: 85 18        	sta	$18                     ; 0x2018 <parse+0xcf3>
     f32: a0 05        	ldy	#$5
     f34: 91 14        	sta	($14),y                 ; 0x2014 <parse+0xcef>
     f36: 8a           	txa
     f37: 86 19        	stx	$19                     ; 0x2019 <parse+0xcf4>
     f39: a0 01        	ldy	#$1
     f3b: 91 16        	sta	($16),y                 ; 0x2016 <parse+0xcf1>
     f3d: a6 1a        	ldx	$1a                     ; 0x201a <parse+0xcf5>
     f3f: 86 1b        	stx	$1b                     ; 0x201b <parse+0xcf6>
     f41: c8           	iny
     f42: a5 1a        	lda	$1a                     ; 0x201a <parse+0xcf5>
     f44: 91 16        	sta	($16),y                 ; 0x2016 <parse+0xcf1>
     f46: a5 1c        	lda	$1c                     ; 0x201c <parse+0xcf7>
     f48: c8           	iny
     f49: 91 16        	sta	($16),y                 ; 0x2016 <parse+0xcf1>
     f4b: e6 29        	inc	$29                     ; 0x2029 <parse+0xd04>
     f4d: d0 02        	bne	$f51 <f256main+0x6ec>
     f4f: e6 2e        	inc	$2e                     ; 0x202e <parse+0xd09>
     f51: 18           	clc
     f52: a5 2d        	lda	$2d                     ; 0x202d <parse+0xd08>
     f54: 69 09        	adc	#$9
     f56: a8           	tay
     f57: a5 2c        	lda	$2c                     ; 0x202c <parse+0xd07>
     f59: 69 00        	adc	#$0
     f5b: 85 16        	sta	$16                     ; 0x2016 <parse+0xcf1>
     f5d: a6 29        	ldx	$29                     ; 0x2029 <parse+0xd04>
     f5f: 86 17        	stx	$17                     ; 0x2017 <parse+0xcf2>
     f61: a6 2e        	ldx	$2e                     ; 0x202e <parse+0xd09>
     f63: 86 1a        	stx	$1a                     ; 0x201a <parse+0xcf5>
     f65: a6 2b        	ldx	$2b                     ; 0x202b <parse+0xd06>
     f67: e4 2e        	cpx	$2e                     ; 0x202e <parse+0xd09>
     f69: f0 03        	beq	$f6e <f256main+0x709>
     f6b: 4c 75 0e     	jmp	$e75 <f256main+0x610>
     f6e: a6 29        	ldx	$29                     ; 0x2029 <parse+0xd04>
     f70: 86 17        	stx	$17                     ; 0x2017 <parse+0xcf2>
     f72: a6 2e        	ldx	$2e                     ; 0x202e <parse+0xd09>
     f74: 86 1a        	stx	$1a                     ; 0x201a <parse+0xcf5>
     f76: a6 2a        	ldx	$2a                     ; 0x202a <parse+0xd05>
     f78: e4 29        	cpx	$29                     ; 0x2029 <parse+0xd04>
     f7a: f0 03        	beq	$f7f <f256main+0x71a>
     f7c: 4c 75 0e     	jmp	$e75 <f256main+0x610>
     f7f: a0 01        	ldy	#$1
     f81: a5 18        	lda	$18                     ; 0x2018 <parse+0xcf3>
     f83: 92 10        	sta	($10)                   ; 0x2010 <parse+0xceb>
     f85: a5 19        	lda	$19                     ; 0x2019 <parse+0xcf4>
     f87: 91 10        	sta	($10),y                 ; 0x2010 <parse+0xceb>
     f89: c8           	iny
     f8a: a5 1b        	lda	$1b                     ; 0x201b <parse+0xcf6>
     f8c: 91 10        	sta	($10),y                 ; 0x2010 <parse+0xceb>
     f8e: a5 1c        	lda	$1c                     ; 0x201c <parse+0xcf7>
     f90: c8           	iny
     f91: 91 10        	sta	($10),y                 ; 0x2010 <parse+0xceb>
     f93: a2 95        	ldx	#$95
     f95: 86 12        	stx	$12                     ; 0x2012 <parse+0xced>
     f97: a2 5c        	ldx	#$5c
     f99: 86 13        	stx	$13                     ; 0x2013 <parse+0xcee>
     f9b: 20 a9 2b     	jsr	$2ba9 <printf>
     f9e: a4 2a        	ldy	$2a                     ; 0x202a <parse+0xd05>
     fa0: a6 2b        	ldx	$2b                     ; 0x202b <parse+0xd06>
     fa2: c8           	iny
     fa3: d0 01        	bne	$fa6 <f256main+0x741>
     fa5: e8           	inx
     fa6: 86 27        	stx	$27                     ; 0x2027 <parse+0xd02>
     fa8: e4 6e        	cpx	$6e                     ; 0x206e <parse+0xd49>
     faa: d0 0b        	bne	$fb7 <f256main+0x752>
     fac: a6 6d        	ldx	$6d                     ; 0x206d <parse+0xd48>
     fae: 86 12        	stx	$12                     ; 0x2012 <parse+0xced>
     fb0: c4 12        	cpy	$12                     ; 0x2012 <parse+0xced>
     fb2: b0 2f        	bcs	$fe3 <f256main+0x77e>
     fb4: 4c e2 0d     	jmp	$de2 <f256main+0x57d>
     fb7: e4 6e        	cpx	$6e                     ; 0x206e <parse+0xd49>
     fb9: b0 28        	bcs	$fe3 <f256main+0x77e>
     fbb: 4c e2 0d     	jmp	$de2 <f256main+0x57d>
     fbe: 18           	clc
     fbf: 69 05        	adc	#$5
     fc1: aa           	tax
     fc2: a5 14        	lda	$14                     ; 0x2014 <parse+0xcef>
     fc4: 69 00        	adc	#$0
     fc6: 86 14        	stx	$14                     ; 0x2014 <parse+0xcef>
     fc8: 85 15        	sta	$15                     ; 0x2015 <parse+0xcf0>
     fca: a0 05        	ldy	#$5
     fcc: b1 12        	lda	($12),y                 ; 0x2012 <parse+0xced>
     fce: 85 18        	sta	$18                     ; 0x2018 <parse+0xcf3>
     fd0: a0 01        	ldy	#$1
     fd2: b1 14        	lda	($14),y                 ; 0x2014 <parse+0xcef>
     fd4: 85 19        	sta	$19                     ; 0x2019 <parse+0xcf4>
     fd6: c8           	iny
     fd7: b1 14        	lda	($14),y                 ; 0x2014 <parse+0xcef>
     fd9: 85 1b        	sta	$1b                     ; 0x201b <parse+0xcf6>
     fdb: c8           	iny
     fdc: b1 14        	lda	($14),y                 ; 0x2014 <parse+0xcef>
     fde: 85 1c        	sta	$1c                     ; 0x201c <parse+0xcf7>
     fe0: 4c 7f 0f     	jmp	$f7f <f256main+0x71a>
     fe3: a2 01        	ldx	#$1
     fe5: 86 12        	stx	$12                     ; 0x2012 <parse+0xced>
     fe7: a0 09        	ldy	#$9
     fe9: b1 10        	lda	($10),y                 ; 0x2010 <parse+0xceb>
     feb: aa           	tax
     fec: 88           	dey
     fed: b1 10        	lda	($10),y                 ; 0x2010 <parse+0xceb>
     fef: 20 25 13     	jsr	$1325 <parse>
     ff2: a2 75        	ldx	#$75
     ff4: 86 12        	stx	$12                     ; 0x2012 <parse+0xced>
     ff6: a2 5b        	ldx	#$5b
     ff8: 86 13        	stx	$13                     ; 0x2013 <parse+0xcee>
     ffa: 20 59 37     	jsr	$3759 <puts>
     ffd: a6 6d        	ldx	$6d                     ; 0x206d <parse+0xd48>
     fff: a4 6e        	ldy	$6e                     ; 0x206e <parse+0xd49>
    1001: d0 06        	bne	$1009 <f256main+0x7a4>
    1003: 8a           	txa
    1004: d0 03        	bne	$1009 <f256main+0x7a4>
    1006: 4c 0f 13     	jmp	$130f <f256main+0xaaa>
    1009: a5 6f        	lda	$6f                     ; 0x206f <parse+0xd4a>
    100b: 85 13        	sta	$13                     ; 0x2013 <parse+0xcee>
    100d: a5 70        	lda	$70                     ; 0x2070 <parse+0xd4b>
    100f: 85 12        	sta	$12                     ; 0x2012 <parse+0xced>
    1011: 18           	clc
    1012: a5 13        	lda	$13                     ; 0x2013 <parse+0xcee>
    1014: 69 03        	adc	#$3
    1016: 85 14        	sta	$14                     ; 0x2014 <parse+0xcef>
    1018: a5 12        	lda	$12                     ; 0x2012 <parse+0xced>
    101a: 69 00        	adc	#$0
    101c: 5a           	phy
    101d: a4 14        	ldy	$14                     ; 0x2014 <parse+0xcef>
    101f: 84 12        	sty	$12                     ; 0x2012 <parse+0xced>
    1021: 7a           	ply
    1022: 85 13        	sta	$13                     ; 0x2013 <parse+0xcee>
    1024: a9 00        	lda	#$0
    1026: 84 14        	sty	$14                     ; 0x2014 <parse+0xcef>
    1028: 64 15        	stz	$15                     ; 0x2015 <parse+0xcf0>
    102a: a0 01        	ldy	#$1
    102c: 18           	clc
    102d: 72 12        	adc	($12)                   ; 0x2012 <parse+0xced>
    102f: 85 24        	sta	$24                     ; 0x2024 <parse+0xcff>
    1031: a5 15        	lda	$15                     ; 0x2015 <parse+0xcf0>
    1033: 71 12        	adc	($12),y                 ; 0x2012 <parse+0xced>
    1035: 85 15        	sta	$15                     ; 0x2015 <parse+0xcf0>
    1037: a5 12        	lda	$12                     ; 0x2012 <parse+0xced>
    1039: 18           	clc
    103a: 69 09        	adc	#$9
    103c: 85 12        	sta	$12                     ; 0x2012 <parse+0xced>
    103e: a5 13        	lda	$13                     ; 0x2013 <parse+0xcee>
    1040: 69 00        	adc	#$0
    1042: 85 13        	sta	$13                     ; 0x2013 <parse+0xcee>
    1044: ca           	dex
    1045: e0 ff        	cpx	#$ff
    1047: d0 02        	bne	$104b <f256main+0x7e6>
    1049: c6 14        	dec	$14                     ; 0x2014 <parse+0xcef>
    104b: a5 24        	lda	$24                     ; 0x2024 <parse+0xcff>
    104d: e6 14        	inc	$14                     ; 0x2014 <parse+0xcef>
    104f: c6 14        	dec	$14                     ; 0x2014 <parse+0xcef>
    1051: d0 d9        	bne	$102c <f256main+0x7c7>
    1053: e0 00        	cpx	#$0
    1055: d0 d5        	bne	$102c <f256main+0x7c7>
    1057: 92 10        	sta	($10)                   ; 0x2010 <parse+0xceb>
    1059: 85 25        	sta	$25                     ; 0x2025 <parse+0xd00>
    105b: a0 01        	ldy	#$1
    105d: a6 15        	ldx	$15                     ; 0x2015 <parse+0xcf0>
    105f: 86 26        	stx	$26                     ; 0x2026 <parse+0xd01>
    1061: a5 15        	lda	$15                     ; 0x2015 <parse+0xcf0>
    1063: 91 10        	sta	($10),y                 ; 0x2010 <parse+0xceb>
    1065: a2 ec        	ldx	#$ec
    1067: 86 12        	stx	$12                     ; 0x2012 <parse+0xced>
    1069: a2 5b        	ldx	#$5b
    106b: 86 13        	stx	$13                     ; 0x2013 <parse+0xcee>
    106d: 20 a9 2b     	jsr	$2ba9 <printf>
    1070: a6 26        	ldx	$26                     ; 0x2026 <parse+0xd01>
    1072: d0 07        	bne	$107b <f256main+0x816>
    1074: a5 25        	lda	$25                     ; 0x2025 <parse+0xd00>
    1076: d0 03        	bne	$107b <f256main+0x816>
    1078: 4c 3f 09     	jmp	$93f <f256main+0xda>
    107b: 86 18        	stx	$18                     ; 0x2018 <parse+0xcf3>
    107d: a5 6f        	lda	$6f                     ; 0x206f <parse+0xd4a>
    107f: a6 70        	ldx	$70                     ; 0x2070 <parse+0xd4b>
    1081: 85 12        	sta	$12                     ; 0x2012 <parse+0xced>
    1083: 86 13        	stx	$13                     ; 0x2013 <parse+0xcee>
    1085: a0 03        	ldy	#$3
    1087: 18           	clc
    1088: 69 03        	adc	#$3
    108a: 85 14        	sta	$14                     ; 0x2014 <parse+0xcef>
    108c: 8a           	txa
    108d: 69 00        	adc	#$0
    108f: 85 15        	sta	$15                     ; 0x2015 <parse+0xcf0>
    1091: b1 12        	lda	($12),y                 ; 0x2012 <parse+0xced>
    1093: aa           	tax
    1094: a0 01        	ldy	#$1
    1096: b1 14        	lda	($14),y                 ; 0x2014 <parse+0xcef>
    1098: 86 14        	stx	$14                     ; 0x2014 <parse+0xcef>
    109a: 85 15        	sta	$15                     ; 0x2015 <parse+0xcf0>
    109c: 4c 18 11     	jmp	$1118 <f256main+0x8b3>
    109f: a6 14        	ldx	$14                     ; 0x2014 <parse+0xcef>
    10a1: e0 00        	cpx	#$0
    10a3: 90 11        	bcc	$10b6 <f256main+0x851>
    10a5: 4c dc 12     	jmp	$12dc <f256main+0xa77>
    10a8: c5 12        	cmp	$12                     ; 0x2012 <parse+0xced>
    10aa: 90 0a        	bcc	$10b6 <f256main+0x851>
    10ac: 4c dc 12     	jmp	$12dc <f256main+0xa77>
    10af: e4 12        	cpx	$12                     ; 0x2012 <parse+0xced>
    10b1: 90 03        	bcc	$10b6 <f256main+0x851>
    10b3: 4c dc 12     	jmp	$12dc <f256main+0xa77>
    10b6: a6 1e        	ldx	$1e                     ; 0x201e <parse+0xcf9>
    10b8: 8e a1 dd     	stx	$dda1                   ; 0xdda1 <end_block9+0x80d3>
    10bb: a6 1f        	ldx	$1f                     ; 0x201f <parse+0xcfa>
    10bd: 8e a1 dd     	stx	$dda1                   ; 0xdda1 <end_block9+0x80d3>
    10c0: a6 1d        	ldx	$1d                     ; 0x201d <parse+0xcf8>
    10c2: e0 03        	cpx	#$3
    10c4: d0 05        	bne	$10cb <f256main+0x866>
    10c6: a6 19        	ldx	$19                     ; 0x2019 <parse+0xcf4>
    10c8: 8e a1 dd     	stx	$dda1                   ; 0xdda1 <end_block9+0x80d3>
    10cb: a5 6f        	lda	$6f                     ; 0x206f <parse+0xd4a>
    10cd: a6 70        	ldx	$70                     ; 0x2070 <parse+0xd4b>
    10cf: 85 12        	sta	$12                     ; 0x2012 <parse+0xced>
    10d1: 86 13        	stx	$13                     ; 0x2013 <parse+0xcee>
    10d3: 18           	clc
    10d4: 69 03        	adc	#$3
    10d6: 85 14        	sta	$14                     ; 0x2014 <parse+0xcef>
    10d8: 8a           	txa
    10d9: 69 00        	adc	#$0
    10db: 85 15        	sta	$15                     ; 0x2015 <parse+0xcf0>
    10dd: a0 03        	ldy	#$3
    10df: b1 12        	lda	($12),y                 ; 0x2012 <parse+0xced>
    10e1: aa           	tax
    10e2: a0 01        	ldy	#$1
    10e4: b1 14        	lda	($14),y                 ; 0x2014 <parse+0xcef>
    10e6: 85 16        	sta	$16                     ; 0x2016 <parse+0xcf1>
    10e8: 8a           	txa
    10e9: 3a           	dec
    10ea: c9 ff        	cmp	#$ff
    10ec: d0 02        	bne	$10f0 <f256main+0x88b>
    10ee: c6 16        	dec	$16                     ; 0x2016 <parse+0xcf1>
    10f0: a0 03        	ldy	#$3
    10f2: 91 12        	sta	($12),y                 ; 0x2012 <parse+0xced>
    10f4: aa           	tax
    10f5: a5 16        	lda	$16                     ; 0x2016 <parse+0xcf1>
    10f7: a0 01        	ldy	#$1
    10f9: 91 14        	sta	($14),y                 ; 0x2014 <parse+0xcef>
    10fb: 86 14        	stx	$14                     ; 0x2014 <parse+0xcef>
    10fd: a4 24        	ldy	$24                     ; 0x2024 <parse+0xcff>
    10ff: a5 18        	lda	$18                     ; 0x2018 <parse+0xcf3>
    1101: 88           	dey
    1102: c0 ff        	cpy	#$ff
    1104: d0 01        	bne	$1107 <f256main+0x8a2>
    1106: 3a           	dec
    1107: a6 16        	ldx	$16                     ; 0x2016 <parse+0xcf1>
    1109: 86 15        	stx	$15                     ; 0x2015 <parse+0xcf0>
    110b: 84 24        	sty	$24                     ; 0x2024 <parse+0xcff>
    110d: 85 18        	sta	$18                     ; 0x2018 <parse+0xcf3>
    110f: aa           	tax
    1110: d0 06        	bne	$1118 <f256main+0x8b3>
    1112: 98           	tya
    1113: d0 03        	bne	$1118 <f256main+0x8b3>
    1115: 4c 3f 09     	jmp	$93f <f256main+0xda>
    1118: a6 12        	ldx	$12                     ; 0x2012 <parse+0xced>
    111a: 86 16        	stx	$16                     ; 0x2016 <parse+0xcf1>
    111c: a6 13        	ldx	$13                     ; 0x2013 <parse+0xcee>
    111e: 86 17        	stx	$17                     ; 0x2017 <parse+0xcf2>
    1120: e6 16        	inc	$16                     ; 0x2016 <parse+0xcf1>
    1122: d0 02        	bne	$1126 <f256main+0x8c1>
    1124: e6 17        	inc	$17                     ; 0x2017 <parse+0xcf2>
    1126: a0 01        	ldy	#$1
    1128: b1 12        	lda	($12),y                 ; 0x2012 <parse+0xced>
    112a: aa           	tax
    112b: b1 16        	lda	($16),y                 ; 0x2016 <parse+0xcf1>
    112d: 85 16        	sta	$16                     ; 0x2016 <parse+0xcf1>
    112f: 38           	sec
    1130: 8a           	txa
    1131: e5 14        	sbc	$14                     ; 0x2014 <parse+0xcef>
    1133: aa           	tax
    1134: a5 16        	lda	$16                     ; 0x2016 <parse+0xcf1>
    1136: e5 15        	sbc	$15                     ; 0x2015 <parse+0xcf0>
    1138: a8           	tay
    1139: a5 12        	lda	$12                     ; 0x2012 <parse+0xced>
    113b: 18           	clc
    113c: 69 05        	adc	#$5
    113e: 85 16        	sta	$16                     ; 0x2016 <parse+0xcf1>
    1140: a5 13        	lda	$13                     ; 0x2013 <parse+0xcee>
    1142: 69 00        	adc	#$0
    1144: 5a           	phy
    1145: a4 16        	ldy	$16                     ; 0x2016 <parse+0xcf1>
    1147: 84 14        	sty	$14                     ; 0x2014 <parse+0xcef>
    1149: 7a           	ply
    114a: 85 15        	sta	$15                     ; 0x2015 <parse+0xcf0>
    114c: 8a           	txa
    114d: 0a           	asl
    114e: 85 16        	sta	$16                     ; 0x2016 <parse+0xcf1>
    1150: 98           	tya
    1151: 2a           	rol
    1152: 64 17        	stz	$17                     ; 0x2017 <parse+0xcf2>
    1154: 26 17        	rol	$17                     ; 0x2017 <parse+0xcf2>
    1156: 06 16        	asl	$16                     ; 0x2016 <parse+0xcf1>
    1158: 2a           	rol
    1159: 26 17        	rol	$17                     ; 0x2017 <parse+0xcf2>
    115b: 06 16        	asl	$16                     ; 0x2016 <parse+0xcf1>
    115d: 2a           	rol
    115e: aa           	tax
    115f: 26 17        	rol	$17                     ; 0x2017 <parse+0xcf2>
    1161: 18           	clc
    1162: a0 05        	ldy	#$5
    1164: a5 16        	lda	$16                     ; 0x2016 <parse+0xcf1>
    1166: 71 12        	adc	($12),y                 ; 0x2012 <parse+0xced>
    1168: 85 16        	sta	$16                     ; 0x2016 <parse+0xcf1>
    116a: 8a           	txa
    116b: a0 01        	ldy	#$1
    116d: 71 14        	adc	($14),y                 ; 0x2014 <parse+0xcef>
    116f: 85 19        	sta	$19                     ; 0x2019 <parse+0xcf4>
    1171: c8           	iny
    1172: a5 17        	lda	$17                     ; 0x2017 <parse+0xcf2>
    1174: 71 14        	adc	($14),y                 ; 0x2014 <parse+0xcef>
    1176: 85 14        	sta	$14                     ; 0x2014 <parse+0xcef>
    1178: 18           	clc
    1179: a5 16        	lda	$16                     ; 0x2016 <parse+0xcf1>
    117b: 69 00        	adc	#$0
    117d: a5 19        	lda	$19                     ; 0x2019 <parse+0xcf4>
    117f: 69 00        	adc	#$0
    1181: 85 12        	sta	$12                     ; 0x2012 <parse+0xced>
    1183: a5 14        	lda	$14                     ; 0x2014 <parse+0xcef>
    1185: 69 03        	adc	#$3
    1187: 06 12        	asl	$12                     ; 0x2012 <parse+0xced>
    1189: 2a           	rol
    118a: 06 12        	asl	$12                     ; 0x2012 <parse+0xced>
    118c: 2a           	rol
    118d: a6 0f        	ldx	$f                      ; 0x200f <parse+0xcea>
    118f: 78           	sei
    1190: 06 12        	asl	$12                     ; 0x2012 <parse+0xced>
    1192: 2a           	rol
    1193: 85 0f        	sta	$f                      ; 0x200f <parse+0xcea>
    1195: a5 19        	lda	$19                     ; 0x2019 <parse+0xcf4>
    1197: 09 e0        	ora	#$e0
    1199: a4 16        	ldy	$16                     ; 0x2016 <parse+0xcf1>
    119b: 84 12        	sty	$12                     ; 0x2012 <parse+0xced>
    119d: 85 13        	sta	$13                     ; 0x2013 <parse+0xcee>
    119f: b2 12        	lda	($12)                   ; 0x2012 <parse+0xced>
    11a1: 85 1a        	sta	$1a                     ; 0x201a <parse+0xcf5>
    11a3: a0 01        	ldy	#$1
    11a5: b1 12        	lda	($12),y                 ; 0x2012 <parse+0xced>
    11a7: 85 17        	sta	$17                     ; 0x2017 <parse+0xcf2>
    11a9: 86 0f        	stx	$f                      ; 0x200f <parse+0xcea>
    11ab: 18           	clc
    11ac: a5 16        	lda	$16                     ; 0x2016 <parse+0xcf1>
    11ae: 69 02        	adc	#$2
    11b0: 85 13        	sta	$13                     ; 0x2013 <parse+0xcee>
    11b2: a5 19        	lda	$19                     ; 0x2019 <parse+0xcf4>
    11b4: 69 00        	adc	#$0
    11b6: 85 15        	sta	$15                     ; 0x2015 <parse+0xcf0>
    11b8: a5 14        	lda	$14                     ; 0x2014 <parse+0xcef>
    11ba: 69 03        	adc	#$3
    11bc: a6 15        	ldx	$15                     ; 0x2015 <parse+0xcf0>
    11be: 86 12        	stx	$12                     ; 0x2012 <parse+0xced>
    11c0: 06 12        	asl	$12                     ; 0x2012 <parse+0xced>
    11c2: 2a           	rol
    11c3: 06 12        	asl	$12                     ; 0x2012 <parse+0xced>
    11c5: 2a           	rol
    11c6: 06 12        	asl	$12                     ; 0x2012 <parse+0xced>
    11c8: 2a           	rol
    11c9: 58           	cli
    11ca: a6 0f        	ldx	$f                      ; 0x200f <parse+0xcea>
    11cc: 78           	sei
    11cd: 85 0f        	sta	$f                      ; 0x200f <parse+0xcea>
    11cf: a5 13        	lda	$13                     ; 0x2013 <parse+0xcee>
    11d1: 85 12        	sta	$12                     ; 0x2012 <parse+0xced>
    11d3: a5 15        	lda	$15                     ; 0x2015 <parse+0xcf0>
    11d5: 09 e0        	ora	#$e0
    11d7: 85 13        	sta	$13                     ; 0x2013 <parse+0xcee>
    11d9: b2 12        	lda	($12)                   ; 0x2012 <parse+0xced>
    11db: 85 1b        	sta	$1b                     ; 0x201b <parse+0xcf6>
    11dd: b1 12        	lda	($12),y                 ; 0x2012 <parse+0xced>
    11df: 85 1c        	sta	$1c                     ; 0x201c <parse+0xcf7>
    11e1: 86 0f        	stx	$f                      ; 0x200f <parse+0xcea>
    11e3: 18           	clc
    11e4: a5 16        	lda	$16                     ; 0x2016 <parse+0xcf1>
    11e6: 69 04        	adc	#$4
    11e8: a8           	tay
    11e9: a5 19        	lda	$19                     ; 0x2019 <parse+0xcf4>
    11eb: 69 00        	adc	#$0
    11ed: 85 13        	sta	$13                     ; 0x2013 <parse+0xcee>
    11ef: a5 14        	lda	$14                     ; 0x2014 <parse+0xcef>
    11f1: 69 03        	adc	#$3
    11f3: a6 13        	ldx	$13                     ; 0x2013 <parse+0xcee>
    11f5: 86 12        	stx	$12                     ; 0x2012 <parse+0xced>
    11f7: 06 12        	asl	$12                     ; 0x2012 <parse+0xced>
    11f9: 2a           	rol
    11fa: 06 12        	asl	$12                     ; 0x2012 <parse+0xced>
    11fc: 2a           	rol
    11fd: 06 12        	asl	$12                     ; 0x2012 <parse+0xced>
    11ff: 2a           	rol
    1200: 58           	cli
    1201: a6 0f        	ldx	$f                      ; 0x200f <parse+0xcea>
    1203: 78           	sei
    1204: 85 0f        	sta	$f                      ; 0x200f <parse+0xcea>
    1206: 84 12        	sty	$12                     ; 0x2012 <parse+0xced>
    1208: a5 13        	lda	$13                     ; 0x2013 <parse+0xcee>
    120a: 09 e0        	ora	#$e0
    120c: 85 13        	sta	$13                     ; 0x2013 <parse+0xcee>
    120e: b2 12        	lda	($12)                   ; 0x2012 <parse+0xced>
    1210: 85 1d        	sta	$1d                     ; 0x201d <parse+0xcf8>
    1212: 86 0f        	stx	$f                      ; 0x200f <parse+0xcea>
    1214: 18           	clc
    1215: a5 16        	lda	$16                     ; 0x2016 <parse+0xcf1>
    1217: 69 05        	adc	#$5
    1219: a8           	tay
    121a: a5 19        	lda	$19                     ; 0x2019 <parse+0xcf4>
    121c: 69 00        	adc	#$0
    121e: 85 13        	sta	$13                     ; 0x2013 <parse+0xcee>
    1220: a5 14        	lda	$14                     ; 0x2014 <parse+0xcef>
    1222: 69 03        	adc	#$3
    1224: a6 13        	ldx	$13                     ; 0x2013 <parse+0xcee>
    1226: 86 12        	stx	$12                     ; 0x2012 <parse+0xced>
    1228: 06 12        	asl	$12                     ; 0x2012 <parse+0xced>
    122a: 2a           	rol
    122b: 06 12        	asl	$12                     ; 0x2012 <parse+0xced>
    122d: 2a           	rol
    122e: 06 12        	asl	$12                     ; 0x2012 <parse+0xced>
    1230: 2a           	rol
    1231: 58           	cli
    1232: a6 0f        	ldx	$f                      ; 0x200f <parse+0xcea>
    1234: 78           	sei
    1235: 85 0f        	sta	$f                      ; 0x200f <parse+0xcea>
    1237: 84 12        	sty	$12                     ; 0x2012 <parse+0xced>
    1239: a5 13        	lda	$13                     ; 0x2013 <parse+0xcee>
    123b: 09 e0        	ora	#$e0
    123d: 85 13        	sta	$13                     ; 0x2013 <parse+0xcee>
    123f: b2 12        	lda	($12)                   ; 0x2012 <parse+0xced>
    1241: 85 1e        	sta	$1e                     ; 0x201e <parse+0xcf9>
    1243: 86 0f        	stx	$f                      ; 0x200f <parse+0xcea>
    1245: 18           	clc
    1246: a5 16        	lda	$16                     ; 0x2016 <parse+0xcf1>
    1248: 69 06        	adc	#$6
    124a: a8           	tay
    124b: a5 19        	lda	$19                     ; 0x2019 <parse+0xcf4>
    124d: 69 00        	adc	#$0
    124f: 85 13        	sta	$13                     ; 0x2013 <parse+0xcee>
    1251: a5 14        	lda	$14                     ; 0x2014 <parse+0xcef>
    1253: 69 03        	adc	#$3
    1255: a6 13        	ldx	$13                     ; 0x2013 <parse+0xcee>
    1257: 86 12        	stx	$12                     ; 0x2012 <parse+0xced>
    1259: 06 12        	asl	$12                     ; 0x2012 <parse+0xced>
    125b: 2a           	rol
    125c: 06 12        	asl	$12                     ; 0x2012 <parse+0xced>
    125e: 2a           	rol
    125f: 06 12        	asl	$12                     ; 0x2012 <parse+0xced>
    1261: 2a           	rol
    1262: 58           	cli
    1263: a6 0f        	ldx	$f                      ; 0x200f <parse+0xcea>
    1265: 78           	sei
    1266: 85 0f        	sta	$f                      ; 0x200f <parse+0xcea>
    1268: 84 12        	sty	$12                     ; 0x2012 <parse+0xced>
    126a: a5 13        	lda	$13                     ; 0x2013 <parse+0xcee>
    126c: 09 e0        	ora	#$e0
    126e: 85 13        	sta	$13                     ; 0x2013 <parse+0xcee>
    1270: b2 12        	lda	($12)                   ; 0x2012 <parse+0xced>
    1272: 85 1f        	sta	$1f                     ; 0x201f <parse+0xcfa>
    1274: 86 0f        	stx	$f                      ; 0x200f <parse+0xcea>
    1276: 18           	clc
    1277: a5 16        	lda	$16                     ; 0x2016 <parse+0xcf1>
    1279: 69 07        	adc	#$7
    127b: 85 12        	sta	$12                     ; 0x2012 <parse+0xced>
    127d: a5 19        	lda	$19                     ; 0x2019 <parse+0xcf4>
    127f: 69 00        	adc	#$0
    1281: 85 15        	sta	$15                     ; 0x2015 <parse+0xcf0>
    1283: a5 14        	lda	$14                     ; 0x2014 <parse+0xcef>
    1285: 69 03        	adc	#$3
    1287: 85 13        	sta	$13                     ; 0x2013 <parse+0xcee>
    1289: a5 15        	lda	$15                     ; 0x2015 <parse+0xcf0>
    128b: 0a           	asl
    128c: 26 13        	rol	$13                     ; 0x2013 <parse+0xcee>
    128e: 0a           	asl
    128f: 26 13        	rol	$13                     ; 0x2013 <parse+0xcee>
    1291: 0a           	asl
    1292: a5 13        	lda	$13                     ; 0x2013 <parse+0xcee>
    1294: 2a           	rol
    1295: 58           	cli
    1296: a6 0f        	ldx	$f                      ; 0x200f <parse+0xcea>
    1298: 78           	sei
    1299: 85 0f        	sta	$f                      ; 0x200f <parse+0xcea>
    129b: a5 15        	lda	$15                     ; 0x2015 <parse+0xcf0>
    129d: 09 e0        	ora	#$e0
    129f: 85 13        	sta	$13                     ; 0x2013 <parse+0xcee>
    12a1: b2 12        	lda	($12)                   ; 0x2012 <parse+0xced>
    12a3: 85 19        	sta	$19                     ; 0x2019 <parse+0xcf4>
    12a5: 86 0f        	stx	$f                      ; 0x200f <parse+0xcea>
    12a7: 58           	cli
    12a8: a2 02        	ldx	#$2
    12aa: 8e 50 d6     	stx	$d650                   ; 0xd650 <end_block9+0x7982>
    12ad: a2 09        	ldx	#$9
    12af: 8e 50 d6     	stx	$d650                   ; 0xd650 <end_block9+0x7982>
    12b2: a6 17        	ldx	$17                     ; 0x2017 <parse+0xcf2>
    12b4: a4 1b        	ldy	$1b                     ; 0x201b <parse+0xcf6>
    12b6: 84 12        	sty	$12                     ; 0x2012 <parse+0xced>
    12b8: a4 1c        	ldy	$1c                     ; 0x201c <parse+0xcf7>
    12ba: 84 13        	sty	$13                     ; 0x2013 <parse+0xcee>
    12bc: 8a           	txa
    12bd: d0 0f        	bne	$12ce <f256main+0xa69>
    12bf: a5 1a        	lda	$1a                     ; 0x201a <parse+0xcf5>
    12c1: d0 0b        	bne	$12ce <f256main+0xa69>
    12c3: a5 13        	lda	$13                     ; 0x2013 <parse+0xcee>
    12c5: d0 07        	bne	$12ce <f256main+0xa69>
    12c7: a5 12        	lda	$12                     ; 0x2012 <parse+0xced>
    12c9: d0 03        	bne	$12ce <f256main+0xa69>
    12cb: 4c b6 10     	jmp	$10b6 <f256main+0x851>
    12ce: 86 14        	stx	$14                     ; 0x2014 <parse+0xcef>
    12d0: a6 1b        	ldx	$1b                     ; 0x201b <parse+0xcf6>
    12d2: 86 15        	stx	$15                     ; 0x2015 <parse+0xcf0>
    12d4: a6 1c        	ldx	$1c                     ; 0x201c <parse+0xcf7>
    12d6: 86 16        	stx	$16                     ; 0x2016 <parse+0xcf1>
    12d8: a6 1a        	ldx	$1a                     ; 0x201a <parse+0xcf5>
    12da: 86 13        	stx	$13                     ; 0x2013 <parse+0xcee>
    12dc: ad 53 d6     	lda	$d653                   ; 0xd653 <end_block9+0x7985>
    12df: ac 52 d6     	ldy	$d652                   ; 0xd652 <end_block9+0x7984>
    12e2: ae 51 d6     	ldx	$d651                   ; 0xd651 <end_block9+0x7983>
    12e5: e6 14        	inc	$14                     ; 0x2014 <parse+0xcef>
    12e7: c6 14        	dec	$14                     ; 0x2014 <parse+0xcef>
    12e9: f0 03        	beq	$12ee <f256main+0xa89>
    12eb: 4c 9f 10     	jmp	$109f <f256main+0x83a>
    12ee: 85 12        	sta	$12                     ; 0x2012 <parse+0xced>
    12f0: a5 1a        	lda	$1a                     ; 0x201a <parse+0xcf5>
    12f2: c5 12        	cmp	$12                     ; 0x2012 <parse+0xced>
    12f4: f0 03        	beq	$12f9 <f256main+0xa94>
    12f6: 4c a8 10     	jmp	$10a8 <f256main+0x843>
    12f9: 86 17        	stx	$17                     ; 0x2017 <parse+0xcf2>
    12fb: 84 12        	sty	$12                     ; 0x2012 <parse+0xced>
    12fd: a6 1c        	ldx	$1c                     ; 0x201c <parse+0xcf7>
    12ff: e4 12        	cpx	$12                     ; 0x2012 <parse+0xced>
    1301: f0 03        	beq	$1306 <f256main+0xaa1>
    1303: 4c af 10     	jmp	$10af <f256main+0x84a>
    1306: a6 1b        	ldx	$1b                     ; 0x201b <parse+0xcf6>
    1308: e4 17        	cpx	$17                     ; 0x2017 <parse+0xcf2>
    130a: b0 d0        	bcs	$12dc <f256main+0xa77>
    130c: 4c b6 10     	jmp	$10b6 <f256main+0x851>
    130f: a9 00        	lda	#$0
    1311: 92 10        	sta	($10)                   ; 0x2010 <parse+0xceb>
    1313: a0 01        	ldy	#$1
    1315: 91 10        	sta	($10),y                 ; 0x2010 <parse+0xceb>
    1317: a2 ec        	ldx	#$ec
    1319: 86 12        	stx	$12                     ; 0x2012 <parse+0xced>
    131b: a2 5b        	ldx	#$5b
    131d: 86 13        	stx	$13                     ; 0x2013 <parse+0xcee>
    131f: 20 a9 2b     	jsr	$2ba9 <printf>
    1322: 4c 3f 09     	jmp	$93f <f256main+0xda>

00001325 <parse>:
    1325: 48           	pha
    1326: 18           	clc
    1327: a5 10        	lda	$10                     ; 0x2010 <parse+0xceb>
    1329: 69 dd        	adc	#$dd
    132b: 85 10        	sta	$10                     ; 0x2010 <parse+0xceb>
    132d: a5 11        	lda	$11                     ; 0x2011 <parse+0xcec>
    132f: 69 ff        	adc	#$ff
    1331: 85 11        	sta	$11                     ; 0x2011 <parse+0xcec>
    1333: 68           	pla
    1334: a4 24        	ldy	$24                     ; 0x2024 <parse+0xcff>
    1336: 5a           	phy
    1337: a4 25        	ldy	$25                     ; 0x2025 <parse+0xd00>
    1339: 5a           	phy
    133a: a4 26        	ldy	$26                     ; 0x2026 <parse+0xd01>
    133c: 5a           	phy
    133d: a4 27        	ldy	$27                     ; 0x2027 <parse+0xd02>
    133f: 5a           	phy
    1340: 48           	pha
    1341: a5 28        	lda	$28                     ; 0x2028 <parse+0xd03>
    1343: a0 11        	ldy	#$11
    1345: 91 10        	sta	($10),y                 ; 0x2010 <parse+0xceb>
    1347: a5 29        	lda	$29                     ; 0x2029 <parse+0xd04>
    1349: 88           	dey
    134a: 91 10        	sta	($10),y                 ; 0x2010 <parse+0xceb>
    134c: a5 2a        	lda	$2a                     ; 0x202a <parse+0xd05>
    134e: 88           	dey
    134f: 91 10        	sta	($10),y                 ; 0x2010 <parse+0xceb>
    1351: a5 2b        	lda	$2b                     ; 0x202b <parse+0xd06>
    1353: 88           	dey
    1354: 91 10        	sta	($10),y                 ; 0x2010 <parse+0xceb>
    1356: a5 2c        	lda	$2c                     ; 0x202c <parse+0xd07>
    1358: 88           	dey
    1359: 91 10        	sta	($10),y                 ; 0x2010 <parse+0xceb>
    135b: a5 2d        	lda	$2d                     ; 0x202d <parse+0xd08>
    135d: 88           	dey
    135e: 91 10        	sta	($10),y                 ; 0x2010 <parse+0xceb>
    1360: a5 2e        	lda	$2e                     ; 0x202e <parse+0xd09>
    1362: 88           	dey
    1363: 91 10        	sta	($10),y                 ; 0x2010 <parse+0xceb>
    1365: a5 2f        	lda	$2f                     ; 0x202f <parse+0xd0a>
    1367: 88           	dey
    1368: 91 10        	sta	($10),y                 ; 0x2010 <parse+0xceb>
    136a: 68           	pla
    136b: 85 25        	sta	$25                     ; 0x2025 <parse+0xd00>
    136d: 86 26        	stx	$26                     ; 0x2026 <parse+0xd01>
    136f: a5 12        	lda	$12                     ; 0x2012 <parse+0xced>
    1371: a0 1c        	ldy	#$1c
    1373: 91 10        	sta	($10),y                 ; 0x2010 <parse+0xceb>
    1375: a2 00        	ldx	#$0
    1377: a0 00        	ldy	#$0
    1379: 86 12        	stx	$12                     ; 0x2012 <parse+0xced>
    137b: 84 13        	sty	$13                     ; 0x2013 <parse+0xcee>
    137d: 38           	sec
    137e: a9 54        	lda	#$54
    1380: e5 12        	sbc	$12                     ; 0x2012 <parse+0xced>
    1382: 85 24        	sta	$24                     ; 0x2024 <parse+0xcff>
    1384: a9 84        	lda	#$84
    1386: e5 13        	sbc	$13                     ; 0x2013 <parse+0xcee>
    1388: 85 28        	sta	$28                     ; 0x2028 <parse+0xd03>
    138a: a9 00        	lda	#$0
    138c: e9 00        	sbc	#$0
    138e: 85 29        	sta	$29                     ; 0x2029 <parse+0xd04>
    1390: a9 00        	lda	#$0
    1392: e9 00        	sbc	#$0
    1394: 85 2a        	sta	$2a                     ; 0x202a <parse+0xd05>
    1396: a5 25        	lda	$25                     ; 0x2025 <parse+0xd00>
    1398: 18           	clc
    1399: 69 04        	adc	#$4
    139b: a8           	tay
    139c: a5 26        	lda	$26                     ; 0x2026 <parse+0xd01>
    139e: 69 00        	adc	#$0
    13a0: 85 14        	sta	$14                     ; 0x2014 <parse+0xcef>
    13a2: a9 00        	lda	#$0
    13a4: 69 01        	adc	#$1
    13a6: 85 15        	sta	$15                     ; 0x2015 <parse+0xcf0>
    13a8: a5 25        	lda	$25                     ; 0x2025 <parse+0xd00>
    13aa: 18           	clc
    13ab: 69 07        	adc	#$7
    13ad: 85 13        	sta	$13                     ; 0x2013 <parse+0xcee>
    13af: a5 26        	lda	$26                     ; 0x2026 <parse+0xd01>
    13b1: 69 00        	adc	#$0
    13b3: 85 16        	sta	$16                     ; 0x2016 <parse+0xcf1>
    13b5: a9 00        	lda	#$0
    13b7: 69 01        	adc	#$1
    13b9: a6 16        	ldx	$16                     ; 0x2016 <parse+0xcf1>
    13bb: 86 12        	stx	$12                     ; 0x2012 <parse+0xced>
    13bd: 06 12        	asl	$12                     ; 0x2012 <parse+0xced>
    13bf: 2a           	rol
    13c0: 06 12        	asl	$12                     ; 0x2012 <parse+0xced>
    13c2: 2a           	rol
    13c3: 06 12        	asl	$12                     ; 0x2012 <parse+0xced>
    13c5: 2a           	rol
    13c6: a6 0f        	ldx	$f                      ; 0x200f <parse+0xcea>
    13c8: 78           	sei
    13c9: 85 0f        	sta	$f                      ; 0x200f <parse+0xcea>
    13cb: a5 13        	lda	$13                     ; 0x2013 <parse+0xcee>
    13cd: 85 12        	sta	$12                     ; 0x2012 <parse+0xced>
    13cf: a5 16        	lda	$16                     ; 0x2016 <parse+0xcf1>
    13d1: 09 e0        	ora	#$e0
    13d3: 85 13        	sta	$13                     ; 0x2013 <parse+0xcee>
    13d5: b2 12        	lda	($12)                   ; 0x2012 <parse+0xced>
    13d7: 85 16        	sta	$16                     ; 0x2016 <parse+0xcf1>
    13d9: 86 0f        	stx	$f                      ; 0x200f <parse+0xcea>
    13db: a5 25        	lda	$25                     ; 0x2025 <parse+0xd00>
    13dd: 18           	clc
    13de: 69 06        	adc	#$6
    13e0: 85 13        	sta	$13                     ; 0x2013 <parse+0xcee>
    13e2: a5 26        	lda	$26                     ; 0x2026 <parse+0xd01>
    13e4: 69 00        	adc	#$0
    13e6: 85 17        	sta	$17                     ; 0x2017 <parse+0xcf2>
    13e8: a9 00        	lda	#$0
    13ea: 69 01        	adc	#$1
    13ec: a6 17        	ldx	$17                     ; 0x2017 <parse+0xcf2>
    13ee: 86 12        	stx	$12                     ; 0x2012 <parse+0xced>
    13f0: 06 12        	asl	$12                     ; 0x2012 <parse+0xced>
    13f2: 2a           	rol
    13f3: 06 12        	asl	$12                     ; 0x2012 <parse+0xced>
    13f5: 2a           	rol
    13f6: 06 12        	asl	$12                     ; 0x2012 <parse+0xced>
    13f8: 2a           	rol
    13f9: 58           	cli
    13fa: a6 0f        	ldx	$f                      ; 0x200f <parse+0xcea>
    13fc: 78           	sei
    13fd: 85 0f        	sta	$f                      ; 0x200f <parse+0xcea>
    13ff: a5 13        	lda	$13                     ; 0x2013 <parse+0xcee>
    1401: 85 12        	sta	$12                     ; 0x2012 <parse+0xced>
    1403: a5 17        	lda	$17                     ; 0x2017 <parse+0xcf2>
    1405: 09 e0        	ora	#$e0
    1407: 85 13        	sta	$13                     ; 0x2013 <parse+0xcee>
    1409: b2 12        	lda	($12)                   ; 0x2012 <parse+0xced>
    140b: 85 17        	sta	$17                     ; 0x2017 <parse+0xcf2>
    140d: 86 0f        	stx	$f                      ; 0x200f <parse+0xcea>
    140f: a5 25        	lda	$25                     ; 0x2025 <parse+0xd00>
    1411: 18           	clc
    1412: 69 05        	adc	#$5
    1414: 85 13        	sta	$13                     ; 0x2013 <parse+0xcee>
    1416: a5 26        	lda	$26                     ; 0x2026 <parse+0xd01>
    1418: 69 00        	adc	#$0
    141a: 85 18        	sta	$18                     ; 0x2018 <parse+0xcf3>
    141c: a9 00        	lda	#$0
    141e: 69 01        	adc	#$1
    1420: a6 18        	ldx	$18                     ; 0x2018 <parse+0xcf3>
    1422: 86 12        	stx	$12                     ; 0x2012 <parse+0xced>
    1424: 06 12        	asl	$12                     ; 0x2012 <parse+0xced>
    1426: 2a           	rol
    1427: 06 12        	asl	$12                     ; 0x2012 <parse+0xced>
    1429: 2a           	rol
    142a: 06 12        	asl	$12                     ; 0x2012 <parse+0xced>
    142c: 2a           	rol
    142d: 58           	cli
    142e: a6 0f        	ldx	$f                      ; 0x200f <parse+0xcea>
    1430: 78           	sei
    1431: 85 0f        	sta	$f                      ; 0x200f <parse+0xcea>
    1433: a5 13        	lda	$13                     ; 0x2013 <parse+0xcee>
    1435: 85 12        	sta	$12                     ; 0x2012 <parse+0xced>
    1437: a5 18        	lda	$18                     ; 0x2018 <parse+0xcf3>
    1439: 09 e0        	ora	#$e0
    143b: 85 13        	sta	$13                     ; 0x2013 <parse+0xcee>
    143d: b2 12        	lda	($12)                   ; 0x2012 <parse+0xced>
    143f: 85 18        	sta	$18                     ; 0x2018 <parse+0xcf3>
    1441: 86 0f        	stx	$f                      ; 0x200f <parse+0xcea>
    1443: a5 14        	lda	$14                     ; 0x2014 <parse+0xcef>
    1445: 0a           	asl
    1446: 26 15        	rol	$15                     ; 0x2015 <parse+0xcf0>
    1448: 0a           	asl
    1449: 26 15        	rol	$15                     ; 0x2015 <parse+0xcf0>
    144b: 0a           	asl
    144c: a5 15        	lda	$15                     ; 0x2015 <parse+0xcf0>
    144e: 2a           	rol
    144f: 58           	cli
    1450: a6 0f        	ldx	$f                      ; 0x200f <parse+0xcea>
    1452: 78           	sei
    1453: 85 0f        	sta	$f                      ; 0x200f <parse+0xcea>
    1455: 84 12        	sty	$12                     ; 0x2012 <parse+0xced>
    1457: a5 14        	lda	$14                     ; 0x2014 <parse+0xcef>
    1459: 09 e0        	ora	#$e0
    145b: 85 13        	sta	$13                     ; 0x2013 <parse+0xcee>
    145d: b2 12        	lda	($12)                   ; 0x2012 <parse+0xced>
    145f: 85 12        	sta	$12                     ; 0x2012 <parse+0xced>
    1461: 86 0f        	stx	$f                      ; 0x200f <parse+0xcea>
    1463: 58           	cli
    1464: a0 01        	ldy	#$1
    1466: a5 16        	lda	$16                     ; 0x2016 <parse+0xcf1>
    1468: 92 10        	sta	($10)                   ; 0x2010 <parse+0xceb>
    146a: a5 17        	lda	$17                     ; 0x2017 <parse+0xcf2>
    146c: 91 10        	sta	($10),y                 ; 0x2010 <parse+0xceb>
    146e: c8           	iny
    146f: a5 18        	lda	$18                     ; 0x2018 <parse+0xcf3>
    1471: 91 10        	sta	($10),y                 ; 0x2010 <parse+0xceb>
    1473: c8           	iny
    1474: a5 12        	lda	$12                     ; 0x2012 <parse+0xced>
    1476: 91 10        	sta	($10),y                 ; 0x2010 <parse+0xceb>
    1478: a2 69        	ldx	#$69
    147a: 86 12        	stx	$12                     ; 0x2012 <parse+0xced>
    147c: a2 5b        	ldx	#$5b
    147e: 86 13        	stx	$13                     ; 0x2013 <parse+0xcee>
    1480: 20 a9 2b     	jsr	$2ba9 <printf>
    1483: a5 25        	lda	$25                     ; 0x2025 <parse+0xd00>
    1485: 18           	clc
    1486: 69 08        	adc	#$8
    1488: a8           	tay
    1489: a5 26        	lda	$26                     ; 0x2026 <parse+0xd01>
    148b: 69 00        	adc	#$0
    148d: 85 14        	sta	$14                     ; 0x2014 <parse+0xcef>
    148f: a9 00        	lda	#$0
    1491: 69 01        	adc	#$1
    1493: 85 15        	sta	$15                     ; 0x2015 <parse+0xcf0>
    1495: a5 25        	lda	$25                     ; 0x2025 <parse+0xd00>
    1497: 18           	clc
    1498: 69 09        	adc	#$9
    149a: 85 13        	sta	$13                     ; 0x2013 <parse+0xcee>
    149c: a5 26        	lda	$26                     ; 0x2026 <parse+0xd01>
    149e: 69 00        	adc	#$0
    14a0: 85 16        	sta	$16                     ; 0x2016 <parse+0xcf1>
    14a2: a9 00        	lda	#$0
    14a4: 69 01        	adc	#$1
    14a6: a6 16        	ldx	$16                     ; 0x2016 <parse+0xcf1>
    14a8: 86 12        	stx	$12                     ; 0x2012 <parse+0xced>
    14aa: 06 12        	asl	$12                     ; 0x2012 <parse+0xced>
    14ac: 2a           	rol
    14ad: 06 12        	asl	$12                     ; 0x2012 <parse+0xced>
    14af: 2a           	rol
    14b0: 06 12        	asl	$12                     ; 0x2012 <parse+0xced>
    14b2: 2a           	rol
    14b3: a6 0f        	ldx	$f                      ; 0x200f <parse+0xcea>
    14b5: 78           	sei
    14b6: 85 0f        	sta	$f                      ; 0x200f <parse+0xcea>
    14b8: a5 13        	lda	$13                     ; 0x2013 <parse+0xcee>
    14ba: 85 12        	sta	$12                     ; 0x2012 <parse+0xced>
    14bc: a5 16        	lda	$16                     ; 0x2016 <parse+0xcf1>
    14be: 09 e0        	ora	#$e0
    14c0: 85 13        	sta	$13                     ; 0x2013 <parse+0xcee>
    14c2: b2 12        	lda	($12)                   ; 0x2012 <parse+0xced>
    14c4: 85 16        	sta	$16                     ; 0x2016 <parse+0xcf1>
    14c6: 86 0f        	stx	$f                      ; 0x200f <parse+0xcea>
    14c8: 58           	cli
    14c9: a5 14        	lda	$14                     ; 0x2014 <parse+0xcef>
    14cb: 0a           	asl
    14cc: 26 15        	rol	$15                     ; 0x2015 <parse+0xcf0>
    14ce: 0a           	asl
    14cf: 26 15        	rol	$15                     ; 0x2015 <parse+0xcf0>
    14d1: 0a           	asl
    14d2: a5 15        	lda	$15                     ; 0x2015 <parse+0xcf0>
    14d4: 2a           	rol
    14d5: a6 0f        	ldx	$f                      ; 0x200f <parse+0xcea>
    14d7: 78           	sei
    14d8: 85 0f        	sta	$f                      ; 0x200f <parse+0xcea>
    14da: 84 12        	sty	$12                     ; 0x2012 <parse+0xced>
    14dc: a5 14        	lda	$14                     ; 0x2014 <parse+0xcef>
    14de: 09 e0        	ora	#$e0
    14e0: 85 13        	sta	$13                     ; 0x2013 <parse+0xcee>
    14e2: b2 12        	lda	($12)                   ; 0x2012 <parse+0xced>
    14e4: 86 0f        	stx	$f                      ; 0x200f <parse+0xcea>
    14e6: 58           	cli
    14e7: a5 16        	lda	$16                     ; 0x2016 <parse+0xcf1>
    14e9: 92 10        	sta	($10)                   ; 0x2010 <parse+0xceb>
    14eb: a0 01        	ldy	#$1
    14ed: a9 00        	lda	#$0
    14ef: 91 10        	sta	($10),y                 ; 0x2010 <parse+0xceb>
    14f1: a2 e1        	ldx	#$e1
    14f3: 86 12        	stx	$12                     ; 0x2012 <parse+0xced>
    14f5: a2 5b        	ldx	#$5b
    14f7: 86 13        	stx	$13                     ; 0x2013 <parse+0xcee>
    14f9: 20 a9 2b     	jsr	$2ba9 <printf>
    14fc: a5 25        	lda	$25                     ; 0x2025 <parse+0xd00>
    14fe: 18           	clc
    14ff: 69 0a        	adc	#$a
    1501: a8           	tay
    1502: a5 26        	lda	$26                     ; 0x2026 <parse+0xd01>
    1504: 69 00        	adc	#$0
    1506: 85 14        	sta	$14                     ; 0x2014 <parse+0xcef>
    1508: a9 00        	lda	#$0
    150a: 69 01        	adc	#$1
    150c: 85 15        	sta	$15                     ; 0x2015 <parse+0xcf0>
    150e: a5 25        	lda	$25                     ; 0x2025 <parse+0xd00>
    1510: 18           	clc
    1511: 69 0b        	adc	#$b
    1513: 85 13        	sta	$13                     ; 0x2013 <parse+0xcee>
    1515: a5 26        	lda	$26                     ; 0x2026 <parse+0xd01>
    1517: 69 00        	adc	#$0
    1519: 85 16        	sta	$16                     ; 0x2016 <parse+0xcf1>
    151b: a9 00        	lda	#$0
    151d: 69 01        	adc	#$1
    151f: a6 16        	ldx	$16                     ; 0x2016 <parse+0xcf1>
    1521: 86 12        	stx	$12                     ; 0x2012 <parse+0xced>
    1523: 06 12        	asl	$12                     ; 0x2012 <parse+0xced>
    1525: 2a           	rol
    1526: 06 12        	asl	$12                     ; 0x2012 <parse+0xced>
    1528: 2a           	rol
    1529: 06 12        	asl	$12                     ; 0x2012 <parse+0xced>
    152b: 2a           	rol
    152c: a6 0f        	ldx	$f                      ; 0x200f <parse+0xcea>
    152e: 78           	sei
    152f: 85 0f        	sta	$f                      ; 0x200f <parse+0xcea>
    1531: a5 13        	lda	$13                     ; 0x2013 <parse+0xcee>
    1533: 85 12        	sta	$12                     ; 0x2012 <parse+0xced>
    1535: a5 16        	lda	$16                     ; 0x2016 <parse+0xcf1>
    1537: 09 e0        	ora	#$e0
    1539: 85 13        	sta	$13                     ; 0x2013 <parse+0xcee>
    153b: b2 12        	lda	($12)                   ; 0x2012 <parse+0xced>
    153d: 85 16        	sta	$16                     ; 0x2016 <parse+0xcf1>
    153f: 86 0f        	stx	$f                      ; 0x200f <parse+0xcea>
    1541: 58           	cli
    1542: a5 14        	lda	$14                     ; 0x2014 <parse+0xcef>
    1544: 0a           	asl
    1545: 26 15        	rol	$15                     ; 0x2015 <parse+0xcf0>
    1547: 0a           	asl
    1548: 26 15        	rol	$15                     ; 0x2015 <parse+0xcf0>
    154a: 0a           	asl
    154b: a5 15        	lda	$15                     ; 0x2015 <parse+0xcf0>
    154d: 2a           	rol
    154e: a6 0f        	ldx	$f                      ; 0x200f <parse+0xcea>
    1550: 78           	sei
    1551: 85 0f        	sta	$f                      ; 0x200f <parse+0xcea>
    1553: 84 12        	sty	$12                     ; 0x2012 <parse+0xced>
    1555: a5 14        	lda	$14                     ; 0x2014 <parse+0xcef>
    1557: 09 e0        	ora	#$e0
    1559: 85 13        	sta	$13                     ; 0x2013 <parse+0xcee>
    155b: b2 12        	lda	($12)                   ; 0x2012 <parse+0xced>
    155d: 86 0f        	stx	$f                      ; 0x200f <parse+0xcea>
    155f: 58           	cli
    1560: a5 16        	lda	$16                     ; 0x2016 <parse+0xcf1>
    1562: 85 66        	sta	$66                     ; 0x2066 <parse+0xd41>
    1564: 64 67        	stz	$67                     ; 0x2067 <parse+0xd42>
    1566: 92 10        	sta	($10)                   ; 0x2010 <parse+0xceb>
    1568: a0 01        	ldy	#$1
    156a: a9 00        	lda	#$0
    156c: 91 10        	sta	($10),y                 ; 0x2010 <parse+0xceb>
    156e: a2 ab        	ldx	#$ab
    1570: 86 12        	stx	$12                     ; 0x2012 <parse+0xced>
    1572: a2 5b        	ldx	#$5b
    1574: 86 13        	stx	$13                     ; 0x2013 <parse+0xcee>
    1576: 20 a9 2b     	jsr	$2ba9 <printf>
    1579: a5 25        	lda	$25                     ; 0x2025 <parse+0xd00>
    157b: 18           	clc
    157c: 69 0c        	adc	#$c
    157e: a8           	tay
    157f: a5 26        	lda	$26                     ; 0x2026 <parse+0xd01>
    1581: 69 00        	adc	#$0
    1583: 85 14        	sta	$14                     ; 0x2014 <parse+0xcef>
    1585: a9 00        	lda	#$0
    1587: 69 01        	adc	#$1
    1589: 85 15        	sta	$15                     ; 0x2015 <parse+0xcf0>
    158b: a5 25        	lda	$25                     ; 0x2025 <parse+0xd00>
    158d: 18           	clc
    158e: 69 0d        	adc	#$d
    1590: 85 13        	sta	$13                     ; 0x2013 <parse+0xcee>
    1592: a5 26        	lda	$26                     ; 0x2026 <parse+0xd01>
    1594: 69 00        	adc	#$0
    1596: 85 16        	sta	$16                     ; 0x2016 <parse+0xcf1>
    1598: a9 00        	lda	#$0
    159a: 69 01        	adc	#$1
    159c: a6 16        	ldx	$16                     ; 0x2016 <parse+0xcf1>
    159e: 86 12        	stx	$12                     ; 0x2012 <parse+0xced>
    15a0: 06 12        	asl	$12                     ; 0x2012 <parse+0xced>
    15a2: 2a           	rol
    15a3: 06 12        	asl	$12                     ; 0x2012 <parse+0xced>
    15a5: 2a           	rol
    15a6: 06 12        	asl	$12                     ; 0x2012 <parse+0xced>
    15a8: 2a           	rol
    15a9: a6 0f        	ldx	$f                      ; 0x200f <parse+0xcea>
    15ab: 78           	sei
    15ac: 85 0f        	sta	$f                      ; 0x200f <parse+0xcea>
    15ae: a5 13        	lda	$13                     ; 0x2013 <parse+0xcee>
    15b0: 85 12        	sta	$12                     ; 0x2012 <parse+0xced>
    15b2: a5 16        	lda	$16                     ; 0x2016 <parse+0xcf1>
    15b4: 09 e0        	ora	#$e0
    15b6: 85 13        	sta	$13                     ; 0x2013 <parse+0xcee>
    15b8: b2 12        	lda	($12)                   ; 0x2012 <parse+0xced>
    15ba: 85 16        	sta	$16                     ; 0x2016 <parse+0xcf1>
    15bc: 86 0f        	stx	$f                      ; 0x200f <parse+0xcea>
    15be: 58           	cli
    15bf: a5 14        	lda	$14                     ; 0x2014 <parse+0xcef>
    15c1: 0a           	asl
    15c2: 26 15        	rol	$15                     ; 0x2015 <parse+0xcf0>
    15c4: 0a           	asl
    15c5: 26 15        	rol	$15                     ; 0x2015 <parse+0xcf0>
    15c7: 0a           	asl
    15c8: a5 15        	lda	$15                     ; 0x2015 <parse+0xcf0>
    15ca: 2a           	rol
    15cb: a6 0f        	ldx	$f                      ; 0x200f <parse+0xcea>
    15cd: 78           	sei
    15ce: 85 0f        	sta	$f                      ; 0x200f <parse+0xcea>
    15d0: 84 12        	sty	$12                     ; 0x2012 <parse+0xced>
    15d2: a5 14        	lda	$14                     ; 0x2014 <parse+0xcef>
    15d4: 09 e0        	ora	#$e0
    15d6: 85 13        	sta	$13                     ; 0x2013 <parse+0xcee>
    15d8: b2 12        	lda	($12)                   ; 0x2012 <parse+0xced>
    15da: 86 0f        	stx	$f                      ; 0x200f <parse+0xcea>
    15dc: 58           	cli
    15dd: a5 16        	lda	$16                     ; 0x2016 <parse+0xcf1>
    15df: a0 19        	ldy	#$19
    15e1: 91 10        	sta	($10),y                 ; 0x2010 <parse+0xceb>
    15e3: 92 10        	sta	($10)                   ; 0x2010 <parse+0xceb>
    15e5: a0 01        	ldy	#$1
    15e7: a9 00        	lda	#$0
    15e9: 91 10        	sta	($10),y                 ; 0x2010 <parse+0xceb>
    15eb: a2 a2        	ldx	#$a2
    15ed: 86 12        	stx	$12                     ; 0x2012 <parse+0xced>
    15ef: a2 5b        	ldx	#$5b
    15f1: 86 13        	stx	$13                     ; 0x2013 <parse+0xcee>
    15f3: 20 a9 2b     	jsr	$2ba9 <printf>
    15f6: a5 24        	lda	$24                     ; 0x2024 <parse+0xcff>
    15f8: 92 10        	sta	($10)                   ; 0x2010 <parse+0xceb>
    15fa: a5 28        	lda	$28                     ; 0x2028 <parse+0xd03>
    15fc: a0 01        	ldy	#$1
    15fe: 91 10        	sta	($10),y                 ; 0x2010 <parse+0xceb>
    1600: a5 29        	lda	$29                     ; 0x2029 <parse+0xd04>
    1602: c8           	iny
    1603: 91 10        	sta	($10),y                 ; 0x2010 <parse+0xceb>
    1605: a5 2a        	lda	$2a                     ; 0x202a <parse+0xd05>
    1607: c8           	iny
    1608: 91 10        	sta	($10),y                 ; 0x2010 <parse+0xceb>
    160a: a2 ba        	ldx	#$ba
    160c: 86 12        	stx	$12                     ; 0x2012 <parse+0xced>
    160e: a2 5b        	ldx	#$5b
    1610: 86 13        	stx	$13                     ; 0x2013 <parse+0xcee>
    1612: 20 a9 2b     	jsr	$2ba9 <printf>
    1615: a6 66        	ldx	$66                     ; 0x2066 <parse+0xd41>
    1617: a4 67        	ldy	$67                     ; 0x2067 <parse+0xd42>
    1619: d0 06        	bne	$1621 <parse+0x2fc>
    161b: 8a           	txa
    161c: d0 03        	bne	$1621 <parse+0x2fc>
    161e: 4c 01 1c     	jmp	$1c01 <parse+0x8dc>
    1621: 64 14        	stz	$14                     ; 0x2014 <parse+0xcef>
    1623: 18           	clc
    1624: a5 25        	lda	$25                     ; 0x2025 <parse+0xd00>
    1626: 69 0e        	adc	#$e
    1628: 85 2b        	sta	$2b                     ; 0x202b <parse+0xd06>
    162a: a5 26        	lda	$26                     ; 0x2026 <parse+0xd01>
    162c: 69 00        	adc	#$0
    162e: 85 1b        	sta	$1b                     ; 0x201b <parse+0xcf6>
    1630: a9 00        	lda	#$0
    1632: 69 00        	adc	#$0
    1634: 85 1c        	sta	$1c                     ; 0x201c <parse+0xcf7>
    1636: a9 00        	lda	#$0
    1638: 69 00        	adc	#$0
    163a: 85 1a        	sta	$1a                     ; 0x201a <parse+0xcf5>
    163c: a9 00        	lda	#$0
    163e: a0 21        	ldy	#$21
    1640: 91 10        	sta	($10),y                 ; 0x2010 <parse+0xceb>
    1642: 88           	dey
    1643: 91 10        	sta	($10),y                 ; 0x2010 <parse+0xceb>
    1645: 4c 48 1a     	jmp	$1a48 <parse+0x723>
    1648: 64 18        	stz	$18                     ; 0x2018 <parse+0xcf3>
    164a: 48           	pha
    164b: a5 22        	lda	$22                     ; 0x2022 <parse+0xcfd>
    164d: a0 1f        	ldy	#$1f
    164f: 91 10        	sta	($10),y                 ; 0x2010 <parse+0xceb>
    1651: 68           	pla
    1652: a4 2b        	ldy	$2b                     ; 0x202b <parse+0xd06>
    1654: 85 19        	sta	$19                     ; 0x2019 <parse+0xcf4>
    1656: a5 2b        	lda	$2b                     ; 0x202b <parse+0xd06>
    1658: 18           	clc
    1659: 69 00        	adc	#$0
    165b: a6 1b        	ldx	$1b                     ; 0x201b <parse+0xcf6>
    165d: 86 15        	stx	$15                     ; 0x2015 <parse+0xcf0>
    165f: a5 1b        	lda	$1b                     ; 0x201b <parse+0xcf6>
    1661: 69 00        	adc	#$0
    1663: 85 12        	sta	$12                     ; 0x2012 <parse+0xced>
    1665: a5 1c        	lda	$1c                     ; 0x201c <parse+0xcf7>
    1667: 69 01        	adc	#$1
    1669: a6 0f        	ldx	$f                      ; 0x200f <parse+0xcea>
    166b: 78           	sei
    166c: 06 12        	asl	$12                     ; 0x2012 <parse+0xced>
    166e: 2a           	rol
    166f: 06 12        	asl	$12                     ; 0x2012 <parse+0xced>
    1671: 2a           	rol
    1672: 06 12        	asl	$12                     ; 0x2012 <parse+0xced>
    1674: 2a           	rol
    1675: 85 0f        	sta	$f                      ; 0x200f <parse+0xcea>
    1677: a5 1b        	lda	$1b                     ; 0x201b <parse+0xcf6>
    1679: 09 e0        	ora	#$e0
    167b: 84 1a        	sty	$1a                     ; 0x201a <parse+0xcf5>
    167d: 85 1b        	sta	$1b                     ; 0x201b <parse+0xcf6>
    167f: 84 16        	sty	$16                     ; 0x2016 <parse+0xcf1>
    1681: b2 1a        	lda	($1a)                   ; 0x201a <parse+0xcf5>
    1683: 86 0f        	stx	$f                      ; 0x200f <parse+0xcea>
    1685: 58           	cli
    1686: a4 15        	ldy	$15                     ; 0x2015 <parse+0xcf0>
    1688: a6 19        	ldx	$19                     ; 0x2019 <parse+0xcf4>
    168a: 86 1d        	stx	$1d                     ; 0x201d <parse+0xcf8>
    168c: a6 16        	ldx	$16                     ; 0x2016 <parse+0xcf1>
    168e: 86 25        	stx	$25                     ; 0x2025 <parse+0xd00>
    1690: a6 1c        	ldx	$1c                     ; 0x201c <parse+0xcf7>
    1692: 86 1f        	stx	$1f                     ; 0x201f <parse+0xcfa>
    1694: e6 25        	inc	$25                     ; 0x2025 <parse+0xd00>
    1696: d0 09        	bne	$16a1 <parse+0x37c>
    1698: c8           	iny
    1699: d0 06        	bne	$16a1 <parse+0x37c>
    169b: e6 1c        	inc	$1c                     ; 0x201c <parse+0xcf7>
    169d: d0 02        	bne	$16a1 <parse+0x37c>
    169f: e6 1d        	inc	$1d                     ; 0x201d <parse+0xcf8>
    16a1: aa           	tax
    16a2: 30 13        	bmi	$16b7 <parse+0x392>
    16a4: 64 1b        	stz	$1b                     ; 0x201b <parse+0xcf6>
    16a6: 85 1e        	sta	$1e                     ; 0x201e <parse+0xcf9>
    16a8: 64 1a        	stz	$1a                     ; 0x201a <parse+0xcf5>
    16aa: 64 19        	stz	$19                     ; 0x2019 <parse+0xcf4>
    16ac: 64 15        	stz	$15                     ; 0x2015 <parse+0xcf0>
    16ae: 64 16        	stz	$16                     ; 0x2016 <parse+0xcf1>
    16b0: 64 1f        	stz	$1f                     ; 0x201f <parse+0xcfa>
    16b2: 64 24        	stz	$24                     ; 0x2024 <parse+0xcff>
    16b4: 4c e5 17     	jmp	$17e5 <parse+0x4c0>
    16b7: a6 15        	ldx	$15                     ; 0x2015 <parse+0xcf0>
    16b9: 86 22        	stx	$22                     ; 0x2022 <parse+0xcfd>
    16bb: a4 19        	ldy	$19                     ; 0x2019 <parse+0xcf4>
    16bd: 64 1a        	stz	$1a                     ; 0x201a <parse+0xcf5>
    16bf: 85 12        	sta	$12                     ; 0x2012 <parse+0xced>
    16c1: 46 12        	lsr	$12                     ; 0x2012 <parse+0xced>
    16c3: 64 14        	stz	$14                     ; 0x2014 <parse+0xcef>
    16c5: 66 14        	ror	$14                     ; 0x2014 <parse+0xcef>
    16c7: 18           	clc
    16c8: a5 16        	lda	$16                     ; 0x2016 <parse+0xcf1>
    16ca: 69 01        	adc	#$1
    16cc: 85 1c        	sta	$1c                     ; 0x201c <parse+0xcf7>
    16ce: a5 15        	lda	$15                     ; 0x2015 <parse+0xcf0>
    16d0: 69 00        	adc	#$0
    16d2: 85 15        	sta	$15                     ; 0x2015 <parse+0xcf0>
    16d4: a6 16        	ldx	$16                     ; 0x2016 <parse+0xcf1>
    16d6: 86 25        	stx	$25                     ; 0x2025 <parse+0xd00>
    16d8: a5 1f        	lda	$1f                     ; 0x201f <parse+0xcfa>
    16da: 69 01        	adc	#$1
    16dc: a6 15        	ldx	$15                     ; 0x2015 <parse+0xcf0>
    16de: 86 19        	stx	$19                     ; 0x2019 <parse+0xcf4>
    16e0: 06 19        	asl	$19                     ; 0x2019 <parse+0xcf4>
    16e2: 2a           	rol
    16e3: 06 19        	asl	$19                     ; 0x2019 <parse+0xcf4>
    16e5: 2a           	rol
    16e6: 06 19        	asl	$19                     ; 0x2019 <parse+0xcf4>
    16e8: 2a           	rol
    16e9: a6 0f        	ldx	$f                      ; 0x200f <parse+0xcea>
    16eb: 78           	sei
    16ec: 85 0f        	sta	$f                      ; 0x200f <parse+0xcea>
    16ee: a5 14        	lda	$14                     ; 0x2014 <parse+0xcef>
    16f0: 29 80        	and	#$80
    16f2: 85 1e        	sta	$1e                     ; 0x201e <parse+0xcf9>
    16f4: a5 12        	lda	$12                     ; 0x2012 <parse+0xced>
    16f6: 29 3f        	and	#$3f
    16f8: 85 1b        	sta	$1b                     ; 0x201b <parse+0xcf6>
    16fa: a5 15        	lda	$15                     ; 0x2015 <parse+0xcf0>
    16fc: 09 e0        	ora	#$e0
    16fe: 85 1d        	sta	$1d                     ; 0x201d <parse+0xcf8>
    1700: b2 1c        	lda	($1c)                   ; 0x201c <parse+0xcf7>
    1702: 86 0f        	stx	$f                      ; 0x200f <parse+0xcea>
    1704: 58           	cli
    1705: aa           	tax
    1706: 10 03        	bpl	$170b <parse+0x3e6>
    1708: 4c 64 17     	jmp	$1764 <parse+0x43f>
    170b: 85 24        	sta	$24                     ; 0x2024 <parse+0xcff>
    170d: 18           	clc
    170e: a5 16        	lda	$16                     ; 0x2016 <parse+0xcf1>
    1710: 69 02        	adc	#$2
    1712: 85 25        	sta	$25                     ; 0x2025 <parse+0xd00>
    1714: a5 22        	lda	$22                     ; 0x2022 <parse+0xcfd>
    1716: 69 00        	adc	#$0
    1718: 85 12        	sta	$12                     ; 0x2012 <parse+0xced>
    171a: a5 1f        	lda	$1f                     ; 0x201f <parse+0xcfa>
    171c: 69 00        	adc	#$0
    171e: 85 1c        	sta	$1c                     ; 0x201c <parse+0xcf7>
    1720: 98           	tya
    1721: 69 00        	adc	#$0
    1723: a4 12        	ldy	$12                     ; 0x2012 <parse+0xced>
    1725: 85 1d        	sta	$1d                     ; 0x201d <parse+0xcf8>
    1727: 64 19        	stz	$19                     ; 0x2019 <parse+0xcf4>
    1729: 64 15        	stz	$15                     ; 0x2015 <parse+0xcf0>
    172b: 64 16        	stz	$16                     ; 0x2016 <parse+0xcf1>
    172d: 64 1f        	stz	$1f                     ; 0x201f <parse+0xcfa>
    172f: 4c e5 17     	jmp	$17e5 <parse+0x4c0>
    1732: a2 00        	ldx	#$0
    1734: 1a           	inc
    1735: d0 01        	bne	$1738 <parse+0x413>
    1737: e8           	inx
    1738: 85 18        	sta	$18                     ; 0x2018 <parse+0xcf3>
    173a: 86 19        	stx	$19                     ; 0x2019 <parse+0xcf4>
    173c: 18           	clc
    173d: a5 1a        	lda	$1a                     ; 0x201a <parse+0xcf5>
    173f: 65 18        	adc	$18                     ; 0x2018 <parse+0xcf3>
    1741: 85 2b        	sta	$2b                     ; 0x202b <parse+0xd06>
    1743: a5 1b        	lda	$1b                     ; 0x201b <parse+0xcf6>
    1745: 65 19        	adc	$19                     ; 0x2019 <parse+0xcf4>
    1747: 85 1b        	sta	$1b                     ; 0x201b <parse+0xcf6>
    1749: a5 1c        	lda	$1c                     ; 0x201c <parse+0xcf7>
    174b: 69 00        	adc	#$0
    174d: 85 2f        	sta	$2f                     ; 0x202f <parse+0xd0a>
    174f: a5 1d        	lda	$1d                     ; 0x201d <parse+0xcf8>
    1751: 69 00        	adc	#$0
    1753: a2 ff        	ldx	#$ff
    1755: 48           	pha
    1756: 8a           	txa
    1757: a0 1a        	ldy	#$1a
    1759: 91 10        	sta	($10),y                 ; 0x2010 <parse+0xceb>
    175b: 68           	pla
    175c: 4c cb 19     	jmp	$19cb <parse+0x6a6>
    175f: e4 15        	cpx	$15                     ; 0x2015 <parse+0xcf0>
    1761: 4c 05 1a     	jmp	$1a05 <parse+0x6e0>
    1764: 4a           	lsr
    1765: 85 12        	sta	$12                     ; 0x2012 <parse+0xced>
    1767: 66 1a        	ror	$1a                     ; 0x201a <parse+0xcf5>
    1769: a5 1b        	lda	$1b                     ; 0x201b <parse+0xcf6>
    176b: 4a           	lsr
    176c: 85 23        	sta	$23                     ; 0x2023 <parse+0xcfe>
    176e: a5 1e        	lda	$1e                     ; 0x201e <parse+0xcf9>
    1770: 6a           	ror
    1771: 85 1c        	sta	$1c                     ; 0x201c <parse+0xcf7>
    1773: 64 1e        	stz	$1e                     ; 0x201e <parse+0xcf9>
    1775: 66 1e        	ror	$1e                     ; 0x201e <parse+0xcf9>
    1777: 18           	clc
    1778: a5 16        	lda	$16                     ; 0x2016 <parse+0xcf1>
    177a: 69 02        	adc	#$2
    177c: 85 15        	sta	$15                     ; 0x2015 <parse+0xcf0>
    177e: a5 22        	lda	$22                     ; 0x2022 <parse+0xcfd>
    1780: 69 00        	adc	#$0
    1782: 85 14        	sta	$14                     ; 0x2014 <parse+0xcef>
    1784: a5 1f        	lda	$1f                     ; 0x201f <parse+0xcfa>
    1786: 69 01        	adc	#$1
    1788: 5a           	phy
    1789: a6 14        	ldx	$14                     ; 0x2014 <parse+0xcef>
    178b: 86 19        	stx	$19                     ; 0x2019 <parse+0xcf4>
    178d: 06 19        	asl	$19                     ; 0x2019 <parse+0xcf4>
    178f: 2a           	rol
    1790: 06 19        	asl	$19                     ; 0x2019 <parse+0xcf4>
    1792: 2a           	rol
    1793: 06 19        	asl	$19                     ; 0x2019 <parse+0xcf4>
    1795: 2a           	rol
    1796: a6 0f        	ldx	$f                      ; 0x200f <parse+0xcea>
    1798: 78           	sei
    1799: 85 0f        	sta	$f                      ; 0x200f <parse+0xcea>
    179b: a5 1a        	lda	$1a                     ; 0x201a <parse+0xcf5>
    179d: a4 15        	ldy	$15                     ; 0x2015 <parse+0xcf0>
    179f: 84 1a        	sty	$1a                     ; 0x201a <parse+0xcf5>
    17a1: 7a           	ply
    17a2: 64 19        	stz	$19                     ; 0x2019 <parse+0xcf4>
    17a4: 29 80        	and	#$80
    17a6: 85 24        	sta	$24                     ; 0x2024 <parse+0xcff>
    17a8: a5 12        	lda	$12                     ; 0x2012 <parse+0xced>
    17aa: 29 3f        	and	#$3f
    17ac: 85 15        	sta	$15                     ; 0x2015 <parse+0xcf0>
    17ae: a5 14        	lda	$14                     ; 0x2014 <parse+0xcef>
    17b0: 09 e0        	ora	#$e0
    17b2: 85 1b        	sta	$1b                     ; 0x201b <parse+0xcf6>
    17b4: b2 1a        	lda	($1a)                   ; 0x201a <parse+0xcf5>
    17b6: 86 0f        	stx	$f                      ; 0x200f <parse+0xcea>
    17b8: 58           	cli
    17b9: aa           	tax
    17ba: 10 03        	bpl	$17bf <parse+0x49a>
    17bc: 4c b5 1d     	jmp	$1db5 <parse+0xa90>
    17bf: a5 1c        	lda	$1c                     ; 0x201c <parse+0xcf7>
    17c1: 85 1b        	sta	$1b                     ; 0x201b <parse+0xcf6>
    17c3: 18           	clc
    17c4: a5 16        	lda	$16                     ; 0x2016 <parse+0xcf1>
    17c6: 69 03        	adc	#$3
    17c8: 85 25        	sta	$25                     ; 0x2025 <parse+0xd00>
    17ca: a5 22        	lda	$22                     ; 0x2022 <parse+0xcfd>
    17cc: 69 00        	adc	#$0
    17ce: 85 12        	sta	$12                     ; 0x2012 <parse+0xced>
    17d0: a5 1f        	lda	$1f                     ; 0x201f <parse+0xcfa>
    17d2: 69 00        	adc	#$0
    17d4: 85 1c        	sta	$1c                     ; 0x201c <parse+0xcf7>
    17d6: 98           	tya
    17d7: 69 00        	adc	#$0
    17d9: a4 12        	ldy	$12                     ; 0x2012 <parse+0xced>
    17db: 85 1d        	sta	$1d                     ; 0x201d <parse+0xcf8>
    17dd: a5 23        	lda	$23                     ; 0x2023 <parse+0xcfe>
    17df: 85 1a        	sta	$1a                     ; 0x201a <parse+0xcf5>
    17e1: 64 16        	stz	$16                     ; 0x2016 <parse+0xcf1>
    17e3: 86 1f        	stx	$1f                     ; 0x201f <parse+0xcfa>
    17e5: 64 22        	stz	$22                     ; 0x2022 <parse+0xcfd>
    17e7: 64 23        	stz	$23                     ; 0x2023 <parse+0xcfe>
    17e9: 18           	clc
    17ea: a5 25        	lda	$25                     ; 0x2025 <parse+0xd00>
    17ec: 69 00        	adc	#$0
    17ee: 98           	tya
    17ef: 69 00        	adc	#$0
    17f1: 85 12        	sta	$12                     ; 0x2012 <parse+0xced>
    17f3: a5 1c        	lda	$1c                     ; 0x201c <parse+0xcf7>
    17f5: 69 01        	adc	#$1
    17f7: a6 0f        	ldx	$f                      ; 0x200f <parse+0xcea>
    17f9: 78           	sei
    17fa: 06 12        	asl	$12                     ; 0x2012 <parse+0xced>
    17fc: 2a           	rol
    17fd: 06 12        	asl	$12                     ; 0x2012 <parse+0xced>
    17ff: 2a           	rol
    1800: 06 12        	asl	$12                     ; 0x2012 <parse+0xced>
    1802: 2a           	rol
    1803: 85 17        	sta	$17                     ; 0x2017 <parse+0xcf2>
    1805: 85 0f        	sta	$f                      ; 0x200f <parse+0xcea>
    1807: 98           	tya
    1808: 09 e0        	ora	#$e0
    180a: 5a           	phy
    180b: a4 25        	ldy	$25                     ; 0x2025 <parse+0xd00>
    180d: 84 26        	sty	$26                     ; 0x2026 <parse+0xd01>
    180f: 7a           	ply
    1810: 85 27        	sta	$27                     ; 0x2027 <parse+0xd02>
    1812: b2 26        	lda	($26)                   ; 0x2026 <parse+0xd01>
    1814: 85 12        	sta	$12                     ; 0x2012 <parse+0xced>
    1816: 86 0f        	stx	$f                      ; 0x200f <parse+0xcea>
    1818: 58           	cli
    1819: 18           	clc
    181a: a5 25        	lda	$25                     ; 0x2025 <parse+0xd00>
    181c: 69 01        	adc	#$1
    181e: 85 29        	sta	$29                     ; 0x2029 <parse+0xd04>
    1820: 98           	tya
    1821: 69 00        	adc	#$0
    1823: 85 2a        	sta	$2a                     ; 0x202a <parse+0xd05>
    1825: a5 1c        	lda	$1c                     ; 0x201c <parse+0xcf7>
    1827: 69 01        	adc	#$1
    1829: 5a           	phy
    182a: a6 2a        	ldx	$2a                     ; 0x202a <parse+0xd05>
    182c: 86 28        	stx	$28                     ; 0x2028 <parse+0xd03>
    182e: 06 28        	asl	$28                     ; 0x2028 <parse+0xd03>
    1830: 2a           	rol
    1831: 06 28        	asl	$28                     ; 0x2028 <parse+0xd03>
    1833: 2a           	rol
    1834: 06 28        	asl	$28                     ; 0x2028 <parse+0xd03>
    1836: 2a           	rol
    1837: a6 0f        	ldx	$f                      ; 0x200f <parse+0xcea>
    1839: 78           	sei
    183a: 85 14        	sta	$14                     ; 0x2014 <parse+0xcef>
    183c: 85 0f        	sta	$f                      ; 0x200f <parse+0xcea>
    183e: a5 2a        	lda	$2a                     ; 0x202a <parse+0xd05>
    1840: 09 e0        	ora	#$e0
    1842: a4 29        	ldy	$29                     ; 0x2029 <parse+0xd04>
    1844: 84 28        	sty	$28                     ; 0x2028 <parse+0xd03>
    1846: 7a           	ply
    1847: 85 29        	sta	$29                     ; 0x2029 <parse+0xd04>
    1849: b2 28        	lda	($28)                   ; 0x2028 <parse+0xd03>
    184b: 85 2d        	sta	$2d                     ; 0x202d <parse+0xd08>
    184d: 86 0f        	stx	$f                      ; 0x200f <parse+0xcea>
    184f: 18           	clc
    1850: a5 25        	lda	$25                     ; 0x2025 <parse+0xd00>
    1852: 69 02        	adc	#$2
    1854: 85 2b        	sta	$2b                     ; 0x202b <parse+0xd06>
    1856: 98           	tya
    1857: 69 00        	adc	#$0
    1859: 85 2c        	sta	$2c                     ; 0x202c <parse+0xd07>
    185b: a5 1c        	lda	$1c                     ; 0x201c <parse+0xcf7>
    185d: 69 01        	adc	#$1
    185f: a6 2c        	ldx	$2c                     ; 0x202c <parse+0xd07>
    1861: 86 2a        	stx	$2a                     ; 0x202a <parse+0xd05>
    1863: 06 2a        	asl	$2a                     ; 0x202a <parse+0xd05>
    1865: 2a           	rol
    1866: 06 2a        	asl	$2a                     ; 0x202a <parse+0xd05>
    1868: 2a           	rol
    1869: 06 2a        	asl	$2a                     ; 0x202a <parse+0xd05>
    186b: 2a           	rol
    186c: 58           	cli
    186d: a6 0f        	ldx	$f                      ; 0x200f <parse+0xcea>
    186f: 78           	sei
    1870: 85 0f        	sta	$f                      ; 0x200f <parse+0xcea>
    1872: a5 2b        	lda	$2b                     ; 0x202b <parse+0xd06>
    1874: 85 2a        	sta	$2a                     ; 0x202a <parse+0xd05>
    1876: a5 2c        	lda	$2c                     ; 0x202c <parse+0xd07>
    1878: 09 e0        	ora	#$e0
    187a: 85 2b        	sta	$2b                     ; 0x202b <parse+0xd06>
    187c: b2 2a        	lda	($2a)                   ; 0x202a <parse+0xd05>
    187e: 85 2e        	sta	$2e                     ; 0x202e <parse+0xd09>
    1880: 86 0f        	stx	$f                      ; 0x200f <parse+0xcea>
    1882: 58           	cli
    1883: 98           	tya
    1884: a6 25        	ldx	$25                     ; 0x2025 <parse+0xd00>
    1886: 5a           	phy
    1887: a4 1c        	ldy	$1c                     ; 0x201c <parse+0xcf7>
    1889: 84 2a        	sty	$2a                     ; 0x202a <parse+0xd05>
    188b: a4 1d        	ldy	$1d                     ; 0x201d <parse+0xcf8>
    188d: 84 2c        	sty	$2c                     ; 0x202c <parse+0xd07>
    188f: e8           	inx
    1890: d0 09        	bne	$189b <parse+0x576>
    1892: 1a           	inc
    1893: d0 06        	bne	$189b <parse+0x576>
    1895: e6 2a        	inc	$2a                     ; 0x202a <parse+0xd05>
    1897: d0 02        	bne	$189b <parse+0x576>
    1899: e6 2c        	inc	$2c                     ; 0x202c <parse+0xd07>
    189b: a4 2a        	ldy	$2a                     ; 0x202a <parse+0xd05>
    189d: 84 2f        	sty	$2f                     ; 0x202f <parse+0xd0a>
    189f: 7a           	ply
    18a0: 86 2b        	stx	$2b                     ; 0x202b <parse+0xd06>
    18a2: 85 2a        	sta	$2a                     ; 0x202a <parse+0xd05>
    18a4: a6 12        	ldx	$12                     ; 0x2012 <parse+0xced>
    18a6: 30 2c        	bmi	$18d4 <parse+0x5af>
    18a8: a6 0f        	ldx	$f                      ; 0x200f <parse+0xcea>
    18aa: 78           	sei
    18ab: a5 17        	lda	$17                     ; 0x2017 <parse+0xcf2>
    18ad: 85 0f        	sta	$f                      ; 0x200f <parse+0xcea>
    18af: b2 26        	lda	($26)                   ; 0x2026 <parse+0xd01>
    18b1: 85 2d        	sta	$2d                     ; 0x202d <parse+0xd08>
    18b3: 86 0f        	stx	$f                      ; 0x200f <parse+0xcea>
    18b5: 58           	cli
    18b6: a6 0f        	ldx	$f                      ; 0x200f <parse+0xcea>
    18b8: 78           	sei
    18b9: a5 14        	lda	$14                     ; 0x2014 <parse+0xcef>
    18bb: 85 0f        	sta	$f                      ; 0x200f <parse+0xcea>
    18bd: b2 28        	lda	($28)                   ; 0x2028 <parse+0xd03>
    18bf: 85 2e        	sta	$2e                     ; 0x202e <parse+0xd09>
    18c1: 86 0f        	stx	$f                      ; 0x200f <parse+0xcea>
    18c3: 58           	cli
    18c4: a6 25        	ldx	$25                     ; 0x2025 <parse+0xd00>
    18c6: 86 2b        	stx	$2b                     ; 0x202b <parse+0xd06>
    18c8: 84 2a        	sty	$2a                     ; 0x202a <parse+0xd05>
    18ca: a6 1c        	ldx	$1c                     ; 0x201c <parse+0xcf7>
    18cc: 86 2f        	stx	$2f                     ; 0x202f <parse+0xd0a>
    18ce: a6 1d        	ldx	$1d                     ; 0x201d <parse+0xcf8>
    18d0: 86 2c        	stx	$2c                     ; 0x202c <parse+0xd07>
    18d2: a6 18        	ldx	$18                     ; 0x2018 <parse+0xcf3>
    18d4: e0 ff        	cpx	#$ff
    18d6: f0 03        	beq	$18db <parse+0x5b6>
    18d8: 4c b1 1f     	jmp	$1fb1 <parse+0xc8c>
    18db: 18           	clc
    18dc: a5 2b        	lda	$2b                     ; 0x202b <parse+0xd06>
    18de: 69 00        	adc	#$0
    18e0: a4 2a        	ldy	$2a                     ; 0x202a <parse+0xd05>
    18e2: a5 2a        	lda	$2a                     ; 0x202a <parse+0xd05>
    18e4: 69 00        	adc	#$0
    18e6: 85 12        	sta	$12                     ; 0x2012 <parse+0xced>
    18e8: 5a           	phy
    18e9: a6 2f        	ldx	$2f                     ; 0x202f <parse+0xd0a>
    18eb: 86 1c        	stx	$1c                     ; 0x201c <parse+0xcf7>
    18ed: a5 2f        	lda	$2f                     ; 0x202f <parse+0xd0a>
    18ef: 69 01        	adc	#$1
    18f1: a6 0f        	ldx	$f                      ; 0x200f <parse+0xcea>
    18f3: 78           	sei
    18f4: 06 12        	asl	$12                     ; 0x2012 <parse+0xced>
    18f6: 2a           	rol
    18f7: 06 12        	asl	$12                     ; 0x2012 <parse+0xced>
    18f9: 2a           	rol
    18fa: 06 12        	asl	$12                     ; 0x2012 <parse+0xced>
    18fc: 2a           	rol
    18fd: 85 0f        	sta	$f                      ; 0x200f <parse+0xcea>
    18ff: a5 2a        	lda	$2a                     ; 0x202a <parse+0xd05>
    1901: 09 e0        	ora	#$e0
    1903: a4 2b        	ldy	$2b                     ; 0x202b <parse+0xd06>
    1905: 84 1a        	sty	$1a                     ; 0x201a <parse+0xcf5>
    1907: 7a           	ply
    1908: 85 1b        	sta	$1b                     ; 0x201b <parse+0xcf6>
    190a: b2 1a        	lda	($1a)                   ; 0x201a <parse+0xcf5>
    190c: 86 0f        	stx	$f                      ; 0x200f <parse+0xcea>
    190e: 58           	cli
    190f: 84 1b        	sty	$1b                     ; 0x201b <parse+0xcf6>
    1911: a6 2c        	ldx	$2c                     ; 0x202c <parse+0xd07>
    1913: e6 1a        	inc	$1a                     ; 0x201a <parse+0xcf5>
    1915: d0 09        	bne	$1920 <parse+0x5fb>
    1917: e6 1b        	inc	$1b                     ; 0x201b <parse+0xcf6>
    1919: d0 05        	bne	$1920 <parse+0x5fb>
    191b: e6 1c        	inc	$1c                     ; 0x201c <parse+0xcf7>
    191d: d0 01        	bne	$1920 <parse+0x5fb>
    191f: e8           	inx
    1920: 86 1d        	stx	$1d                     ; 0x201d <parse+0xcf8>
    1922: 38           	sec
    1923: aa           	tax
    1924: e9 2f        	sbc	#$2f
    1926: 48           	pha
    1927: a0 1f        	ldy	#$1f
    1929: b1 10        	lda	($10),y                 ; 0x2010 <parse+0xceb>
    192b: 85 22        	sta	$22                     ; 0x2022 <parse+0xcfd>
    192d: 68           	pla
    192e: 50 02        	bvc	$1932 <parse+0x60d>
    1930: 49 80        	eor	#$80
    1932: a8           	tay
    1933: 10 0d        	bpl	$1942 <parse+0x61d>
    1935: 8a           	txa
    1936: e0 08        	cpx	#$8
    1938: 90 03        	bcc	$193d <parse+0x618>
    193a: 4c a0 19     	jmp	$19a0 <parse+0x67b>
    193d: 0a           	asl
    193e: aa           	tax
    193f: 7c df 5a     	jmp	($5adf,x)               ; 0x5adf <__set_v+0x1>
    1942: e0 2f        	cpx	#$2f
    1944: f0 10        	beq	$1956 <parse+0x631>
    1946: 8a           	txa
    1947: e0 7f        	cpx	#$7f
    1949: f0 03        	beq	$194e <parse+0x629>
    194b: 4c 77 22     	jmp	$2277 <parse+0xf52>
    194e: a6 1a        	ldx	$1a                     ; 0x201a <parse+0xcf5>
    1950: 86 2b        	stx	$2b                     ; 0x202b <parse+0xd06>
    1952: a5 1d        	lda	$1d                     ; 0x201d <parse+0xcf8>
    1954: 80 17        	bra	$196d <parse+0x648>
    1956: 18           	clc
    1957: a5 2b        	lda	$2b                     ; 0x202b <parse+0xd06>
    1959: 69 02        	adc	#$2
    195b: 85 2b        	sta	$2b                     ; 0x202b <parse+0xd06>
    195d: a5 2a        	lda	$2a                     ; 0x202a <parse+0xd05>
    195f: 69 00        	adc	#$0
    1961: 85 1b        	sta	$1b                     ; 0x201b <parse+0xcf6>
    1963: a5 2f        	lda	$2f                     ; 0x202f <parse+0xd0a>
    1965: 69 00        	adc	#$0
    1967: 85 1c        	sta	$1c                     ; 0x201c <parse+0xcf7>
    1969: a5 2c        	lda	$2c                     ; 0x202c <parse+0xd07>
    196b: 69 00        	adc	#$0
    196d: c5 13        	cmp	$13                     ; 0x2013 <parse+0xcee>
    196f: d0 25        	bne	$1996 <parse+0x671>
    1971: a6 1c        	ldx	$1c                     ; 0x201c <parse+0xcf7>
    1973: 48           	pha
    1974: a0 22        	ldy	#$22
    1976: b1 10        	lda	($10),y                 ; 0x2010 <parse+0xceb>
    1978: 85 12        	sta	$12                     ; 0x2012 <parse+0xced>
    197a: 68           	pla
    197b: e4 12        	cpx	$12                     ; 0x2012 <parse+0xced>
    197d: f0 03        	beq	$1982 <parse+0x65d>
    197f: 4c 1e 1a     	jmp	$1a1e <parse+0x6f9>
    1982: a6 1b        	ldx	$1b                     ; 0x201b <parse+0xcf6>
    1984: 48           	pha
    1985: a0 1d        	ldy	#$1d
    1987: b1 10        	lda	($10),y                 ; 0x2010 <parse+0xceb>
    1989: 85 15        	sta	$15                     ; 0x2015 <parse+0xcf0>
    198b: 68           	pla
    198c: e4 15        	cpx	$15                     ; 0x2015 <parse+0xcf0>
    198e: f0 03        	beq	$1993 <parse+0x66e>
    1990: 4c 51 1e     	jmp	$1e51 <parse+0xb2c>
    1993: 4c 44 1e     	jmp	$1e44 <parse+0xb1f>
    1996: c5 13        	cmp	$13                     ; 0x2013 <parse+0xcee>
    1998: 90 03        	bcc	$199d <parse+0x678>
    199a: 4c e6 1b     	jmp	$1be6 <parse+0x8c1>
    199d: 4c 4a 16     	jmp	$164a <parse+0x325>
    19a0: c9 20        	cmp	#$20
    19a2: f0 03        	beq	$19a7 <parse+0x682>
    19a4: 4c 86 1d     	jmp	$1d86 <parse+0xa61>
    19a7: 18           	clc
    19a8: a5 2b        	lda	$2b                     ; 0x202b <parse+0xd06>
    19aa: 69 03        	adc	#$3
    19ac: 85 2b        	sta	$2b                     ; 0x202b <parse+0xd06>
    19ae: a5 2a        	lda	$2a                     ; 0x202a <parse+0xd05>
    19b0: 69 00        	adc	#$0
    19b2: 85 1b        	sta	$1b                     ; 0x201b <parse+0xcf6>
    19b4: a5 2f        	lda	$2f                     ; 0x202f <parse+0xd0a>
    19b6: 69 00        	adc	#$0
    19b8: 85 12        	sta	$12                     ; 0x2012 <parse+0xced>
    19ba: a5 2c        	lda	$2c                     ; 0x202c <parse+0xd07>
    19bc: 69 00        	adc	#$0
    19be: a2 ff        	ldx	#$ff
    19c0: 48           	pha
    19c1: 8a           	txa
    19c2: a0 1a        	ldy	#$1a
    19c4: 91 10        	sta	($10),y                 ; 0x2010 <parse+0xceb>
    19c6: 68           	pla
    19c7: a6 12        	ldx	$12                     ; 0x2012 <parse+0xced>
    19c9: 86 2f        	stx	$2f                     ; 0x202f <parse+0xd0a>
    19cb: c5 13        	cmp	$13                     ; 0x2013 <parse+0xcee>
    19cd: d0 24        	bne	$19f3 <parse+0x6ce>
    19cf: a6 2f        	ldx	$2f                     ; 0x202f <parse+0xd0a>
    19d1: 48           	pha
    19d2: a0 22        	ldy	#$22
    19d4: b1 10        	lda	($10),y                 ; 0x2010 <parse+0xceb>
    19d6: 85 12        	sta	$12                     ; 0x2012 <parse+0xced>
    19d8: 68           	pla
    19d9: e4 12        	cpx	$12                     ; 0x2012 <parse+0xced>
    19db: d0 1f        	bne	$19fc <parse+0x6d7>
    19dd: 86 1c        	stx	$1c                     ; 0x201c <parse+0xcf7>
    19df: a6 1b        	ldx	$1b                     ; 0x201b <parse+0xcf6>
    19e1: 48           	pha
    19e2: a0 1d        	ldy	#$1d
    19e4: b1 10        	lda	($10),y                 ; 0x2010 <parse+0xceb>
    19e6: 85 15        	sta	$15                     ; 0x2015 <parse+0xcf0>
    19e8: 68           	pla
    19e9: e4 15        	cpx	$15                     ; 0x2015 <parse+0xcf0>
    19eb: f0 03        	beq	$19f0 <parse+0x6cb>
    19ed: 4c ad 1d     	jmp	$1dad <parse+0xa88>
    19f0: 4c a1 1d     	jmp	$1da1 <parse+0xa7c>
    19f3: a6 2f        	ldx	$2f                     ; 0x202f <parse+0xd0a>
    19f5: 86 1c        	stx	$1c                     ; 0x201c <parse+0xcf7>
    19f7: c5 13        	cmp	$13                     ; 0x2013 <parse+0xcee>
    19f9: 48           	pha
    19fa: 80 09        	bra	$1a05 <parse+0x6e0>
    19fc: 86 1c        	stx	$1c                     ; 0x201c <parse+0xcf7>
    19fe: 48           	pha
    19ff: b1 10        	lda	($10),y                 ; 0x2010 <parse+0xceb>
    1a01: 85 12        	sta	$12                     ; 0x2012 <parse+0xced>
    1a03: e4 12        	cpx	$12                     ; 0x2012 <parse+0xced>
    1a05: a0 1a        	ldy	#$1a
    1a07: b1 10        	lda	($10),y                 ; 0x2010 <parse+0xceb>
    1a09: 85 18        	sta	$18                     ; 0x2018 <parse+0xcf3>
    1a0b: 68           	pla
    1a0c: 90 03        	bcc	$1a11 <parse+0x6ec>
    1a0e: 4c e6 1b     	jmp	$1be6 <parse+0x8c1>
    1a11: 4c 4a 16     	jmp	$164a <parse+0x325>
    1a14: e4 15        	cpx	$15                     ; 0x2015 <parse+0xcf0>
    1a16: 90 03        	bcc	$1a1b <parse+0x6f6>
    1a18: 4c e6 1b     	jmp	$1be6 <parse+0x8c1>
    1a1b: 4c 4a 16     	jmp	$164a <parse+0x325>
    1a1e: 48           	pha
    1a1f: b1 10        	lda	($10),y                 ; 0x2010 <parse+0xceb>
    1a21: 85 12        	sta	$12                     ; 0x2012 <parse+0xced>
    1a23: 68           	pla
    1a24: e4 12        	cpx	$12                     ; 0x2012 <parse+0xced>
    1a26: b0 03        	bcs	$1a2b <parse+0x706>
    1a28: 4c 4a 16     	jmp	$164a <parse+0x325>
    1a2b: 4c e6 1b     	jmp	$1be6 <parse+0x8c1>
    1a2e: a6 22        	ldx	$22                     ; 0x2022 <parse+0xcfd>
    1a30: e4 67        	cpx	$67                     ; 0x2067 <parse+0xd42>
    1a32: 90 03        	bcc	$1a37 <parse+0x712>
    1a34: 4c 01 1c     	jmp	$1c01 <parse+0x8dc>
    1a37: 48           	pha
    1a38: a0 1e        	ldy	#$1e
    1a3a: b1 10        	lda	($10),y                 ; 0x2010 <parse+0xceb>
    1a3c: a0 21        	ldy	#$21
    1a3e: 91 10        	sta	($10),y                 ; 0x2010 <parse+0xceb>
    1a40: a5 22        	lda	$22                     ; 0x2022 <parse+0xcfd>
    1a42: 88           	dey
    1a43: 91 10        	sta	($10),y                 ; 0x2010 <parse+0xceb>
    1a45: 68           	pla
    1a46: 85 1a        	sta	$1a                     ; 0x201a <parse+0xcf5>
    1a48: 18           	clc
    1a49: a6 2b        	ldx	$2b                     ; 0x202b <parse+0xd06>
    1a4b: a5 2b        	lda	$2b                     ; 0x202b <parse+0xd06>
    1a4d: 69 04        	adc	#$4
    1a4f: 85 18        	sta	$18                     ; 0x2018 <parse+0xcf3>
    1a51: a5 1b        	lda	$1b                     ; 0x201b <parse+0xcf6>
    1a53: 69 00        	adc	#$0
    1a55: 85 1e        	sta	$1e                     ; 0x201e <parse+0xcf9>
    1a57: a4 1c        	ldy	$1c                     ; 0x201c <parse+0xcf7>
    1a59: a5 1c        	lda	$1c                     ; 0x201c <parse+0xcf7>
    1a5b: 69 01        	adc	#$1
    1a5d: 85 19        	sta	$19                     ; 0x2019 <parse+0xcf4>
    1a5f: 18           	clc
    1a60: a5 2b        	lda	$2b                     ; 0x202b <parse+0xd06>
    1a62: 69 07        	adc	#$7
    1a64: 85 14        	sta	$14                     ; 0x2014 <parse+0xcef>
    1a66: a5 1b        	lda	$1b                     ; 0x201b <parse+0xcf6>
    1a68: 5a           	phy
    1a69: a4 1b        	ldy	$1b                     ; 0x201b <parse+0xcf6>
    1a6b: 84 1c        	sty	$1c                     ; 0x201c <parse+0xcf7>
    1a6d: 7a           	ply
    1a6e: 69 00        	adc	#$0
    1a70: 85 15        	sta	$15                     ; 0x2015 <parse+0xcf0>
    1a72: 86 1d        	stx	$1d                     ; 0x201d <parse+0xcf8>
    1a74: 84 1b        	sty	$1b                     ; 0x201b <parse+0xcf6>
    1a76: 98           	tya
    1a77: 69 01        	adc	#$1
    1a79: a6 15        	ldx	$15                     ; 0x2015 <parse+0xcf0>
    1a7b: 86 13        	stx	$13                     ; 0x2013 <parse+0xcee>
    1a7d: 06 13        	asl	$13                     ; 0x2013 <parse+0xcee>
    1a7f: 2a           	rol
    1a80: 06 13        	asl	$13                     ; 0x2013 <parse+0xcee>
    1a82: 2a           	rol
    1a83: 06 13        	asl	$13                     ; 0x2013 <parse+0xcee>
    1a85: 2a           	rol
    1a86: 48           	pha
    1a87: a0 21        	ldy	#$21
    1a89: b1 10        	lda	($10),y                 ; 0x2010 <parse+0xceb>
    1a8b: a8           	tay
    1a8c: 5a           	phy
    1a8d: a0 20        	ldy	#$20
    1a8f: b1 10        	lda	($10),y                 ; 0x2010 <parse+0xceb>
    1a91: 7a           	ply
    1a92: 85 13        	sta	$13                     ; 0x2013 <parse+0xcee>
    1a94: 68           	pla
    1a95: c8           	iny
    1a96: d0 02        	bne	$1a9a <parse+0x775>
    1a98: e6 13        	inc	$13                     ; 0x2013 <parse+0xcee>
    1a9a: a6 0f        	ldx	$f                      ; 0x200f <parse+0xcea>
    1a9c: 78           	sei
    1a9d: 85 0f        	sta	$f                      ; 0x200f <parse+0xcea>
    1a9f: a5 15        	lda	$15                     ; 0x2015 <parse+0xcf0>
    1aa1: 09 e0        	ora	#$e0
    1aa3: 5a           	phy
    1aa4: a4 14        	ldy	$14                     ; 0x2014 <parse+0xcef>
    1aa6: 84 16        	sty	$16                     ; 0x2016 <parse+0xcf1>
    1aa8: 7a           	ply
    1aa9: 85 17        	sta	$17                     ; 0x2017 <parse+0xcf2>
    1aab: b2 16        	lda	($16)                   ; 0x2016 <parse+0xcf1>
    1aad: 85 1f        	sta	$1f                     ; 0x201f <parse+0xcfa>
    1aaf: 86 0f        	stx	$f                      ; 0x200f <parse+0xcea>
    1ab1: 18           	clc
    1ab2: a5 1d        	lda	$1d                     ; 0x201d <parse+0xcf8>
    1ab4: 69 06        	adc	#$6
    1ab6: 85 16        	sta	$16                     ; 0x2016 <parse+0xcf1>
    1ab8: a5 1c        	lda	$1c                     ; 0x201c <parse+0xcf7>
    1aba: 69 00        	adc	#$0
    1abc: 85 12        	sta	$12                     ; 0x2012 <parse+0xced>
    1abe: a5 1b        	lda	$1b                     ; 0x201b <parse+0xcf6>
    1ac0: 69 01        	adc	#$1
    1ac2: a6 12        	ldx	$12                     ; 0x2012 <parse+0xced>
    1ac4: 86 15        	stx	$15                     ; 0x2015 <parse+0xcf0>
    1ac6: 06 15        	asl	$15                     ; 0x2015 <parse+0xcf0>
    1ac8: 2a           	rol
    1ac9: 06 15        	asl	$15                     ; 0x2015 <parse+0xcf0>
    1acb: 2a           	rol
    1acc: 06 15        	asl	$15                     ; 0x2015 <parse+0xcf0>
    1ace: 2a           	rol
    1acf: 58           	cli
    1ad0: a6 0f        	ldx	$f                      ; 0x200f <parse+0xcea>
    1ad2: 78           	sei
    1ad3: 85 0f        	sta	$f                      ; 0x200f <parse+0xcea>
    1ad5: a5 12        	lda	$12                     ; 0x2012 <parse+0xced>
    1ad7: 09 e0        	ora	#$e0
    1ad9: 85 17        	sta	$17                     ; 0x2017 <parse+0xcf2>
    1adb: b2 16        	lda	($16)                   ; 0x2016 <parse+0xcf1>
    1add: 85 12        	sta	$12                     ; 0x2012 <parse+0xced>
    1adf: 86 0f        	stx	$f                      ; 0x200f <parse+0xcea>
    1ae1: 18           	clc
    1ae2: a5 1d        	lda	$1d                     ; 0x201d <parse+0xcf8>
    1ae4: 69 05        	adc	#$5
    1ae6: 85 16        	sta	$16                     ; 0x2016 <parse+0xcf1>
    1ae8: a5 1c        	lda	$1c                     ; 0x201c <parse+0xcf7>
    1aea: 69 00        	adc	#$0
    1aec: 85 14        	sta	$14                     ; 0x2014 <parse+0xcef>
    1aee: a5 1b        	lda	$1b                     ; 0x201b <parse+0xcf6>
    1af0: 69 01        	adc	#$1
    1af2: a6 14        	ldx	$14                     ; 0x2014 <parse+0xcef>
    1af4: 86 15        	stx	$15                     ; 0x2015 <parse+0xcf0>
    1af6: 06 15        	asl	$15                     ; 0x2015 <parse+0xcf0>
    1af8: 2a           	rol
    1af9: 06 15        	asl	$15                     ; 0x2015 <parse+0xcf0>
    1afb: 2a           	rol
    1afc: 06 15        	asl	$15                     ; 0x2015 <parse+0xcf0>
    1afe: 2a           	rol
    1aff: 58           	cli
    1b00: a6 0f        	ldx	$f                      ; 0x200f <parse+0xcea>
    1b02: 78           	sei
    1b03: 85 0f        	sta	$f                      ; 0x200f <parse+0xcea>
    1b05: a5 14        	lda	$14                     ; 0x2014 <parse+0xcef>
    1b07: 09 e0        	ora	#$e0
    1b09: 85 17        	sta	$17                     ; 0x2017 <parse+0xcf2>
    1b0b: b2 16        	lda	($16)                   ; 0x2016 <parse+0xcf1>
    1b0d: 85 14        	sta	$14                     ; 0x2014 <parse+0xcef>
    1b0f: 86 0f        	stx	$f                      ; 0x200f <parse+0xcea>
    1b11: a5 1e        	lda	$1e                     ; 0x201e <parse+0xcf9>
    1b13: 0a           	asl
    1b14: 26 19        	rol	$19                     ; 0x2019 <parse+0xcf4>
    1b16: 0a           	asl
    1b17: 26 19        	rol	$19                     ; 0x2019 <parse+0xcf4>
    1b19: 0a           	asl
    1b1a: a5 19        	lda	$19                     ; 0x2019 <parse+0xcf4>
    1b1c: 2a           	rol
    1b1d: 58           	cli
    1b1e: a6 0f        	ldx	$f                      ; 0x200f <parse+0xcea>
    1b20: 78           	sei
    1b21: 85 0f        	sta	$f                      ; 0x200f <parse+0xcea>
    1b23: a5 18        	lda	$18                     ; 0x2018 <parse+0xcf3>
    1b25: 85 16        	sta	$16                     ; 0x2016 <parse+0xcf1>
    1b27: 98           	tya
    1b28: a0 1e        	ldy	#$1e
    1b2a: 91 10        	sta	($10),y                 ; 0x2010 <parse+0xceb>
    1b2c: a5 1e        	lda	$1e                     ; 0x201e <parse+0xcf9>
    1b2e: 09 e0        	ora	#$e0
    1b30: 85 17        	sta	$17                     ; 0x2017 <parse+0xcf2>
    1b32: b2 16        	lda	($16)                   ; 0x2016 <parse+0xcf1>
    1b34: 85 19        	sta	$19                     ; 0x2019 <parse+0xcf4>
    1b36: 86 0f        	stx	$f                      ; 0x200f <parse+0xcea>
    1b38: 18           	clc
    1b39: a5 1d        	lda	$1d                     ; 0x201d <parse+0xcf8>
    1b3b: 69 08        	adc	#$8
    1b3d: 85 15        	sta	$15                     ; 0x2015 <parse+0xcf0>
    1b3f: a5 1c        	lda	$1c                     ; 0x201c <parse+0xcf7>
    1b41: 69 00        	adc	#$0
    1b43: 85 18        	sta	$18                     ; 0x2018 <parse+0xcf3>
    1b45: a5 1b        	lda	$1b                     ; 0x201b <parse+0xcf6>
    1b47: 69 00        	adc	#$0
    1b49: a8           	tay
    1b4a: a5 1a        	lda	$1a                     ; 0x201a <parse+0xcf5>
    1b4c: 69 00        	adc	#$0
    1b4e: 85 1a        	sta	$1a                     ; 0x201a <parse+0xcf5>
    1b50: a6 15        	ldx	$15                     ; 0x2015 <parse+0xcf0>
    1b52: 18           	clc
    1b53: a5 1f        	lda	$1f                     ; 0x201f <parse+0xcfa>
    1b55: 65 15        	adc	$15                     ; 0x2015 <parse+0xcf0>
    1b57: 5a           	phy
    1b58: a0 1b        	ldy	#$1b
    1b5a: 91 10        	sta	($10),y                 ; 0x2010 <parse+0xceb>
    1b5c: a4 18        	ldy	$18                     ; 0x2018 <parse+0xcf3>
    1b5e: 84 1b        	sty	$1b                     ; 0x201b <parse+0xcf6>
    1b60: a5 12        	lda	$12                     ; 0x2012 <parse+0xced>
    1b62: 65 18        	adc	$18                     ; 0x2018 <parse+0xcf3>
    1b64: a0 1d        	ldy	#$1d
    1b66: 91 10        	sta	($10),y                 ; 0x2010 <parse+0xceb>
    1b68: 7a           	ply
    1b69: 84 1c        	sty	$1c                     ; 0x201c <parse+0xcf7>
    1b6b: 84 17        	sty	$17                     ; 0x2017 <parse+0xcf2>
    1b6d: a5 14        	lda	$14                     ; 0x2014 <parse+0xcef>
    1b6f: 65 17        	adc	$17                     ; 0x2017 <parse+0xcf2>
    1b71: a0 22        	ldy	#$22
    1b73: 91 10        	sta	($10),y                 ; 0x2010 <parse+0xceb>
    1b75: a5 19        	lda	$19                     ; 0x2019 <parse+0xcf4>
    1b77: 65 1a        	adc	$1a                     ; 0x201a <parse+0xcf5>
    1b79: 5a           	phy
    1b7a: a4 13        	ldy	$13                     ; 0x2013 <parse+0xcee>
    1b7c: 84 22        	sty	$22                     ; 0x2022 <parse+0xcfd>
    1b7e: 58           	cli
    1b7f: 85 12        	sta	$12                     ; 0x2012 <parse+0xced>
    1b81: a5 1a        	lda	$1a                     ; 0x201a <parse+0xcf5>
    1b83: a4 12        	ldy	$12                     ; 0x2012 <parse+0xced>
    1b85: 84 13        	sty	$13                     ; 0x2013 <parse+0xcee>
    1b87: 7a           	ply
    1b88: c5 12        	cmp	$12                     ; 0x2012 <parse+0xced>
    1b8a: d0 30        	bne	$1bbc <parse+0x897>
    1b8c: 85 18        	sta	$18                     ; 0x2018 <parse+0xcf3>
    1b8e: a5 1c        	lda	$1c                     ; 0x201c <parse+0xcf7>
    1b90: 48           	pha
    1b91: b1 10        	lda	($10),y                 ; 0x2010 <parse+0xceb>
    1b93: 85 12        	sta	$12                     ; 0x2012 <parse+0xced>
    1b95: 68           	pla
    1b96: c5 12        	cmp	$12                     ; 0x2012 <parse+0xced>
    1b98: d0 2b        	bne	$1bc5 <parse+0x8a0>
    1b9a: a4 15        	ldy	$15                     ; 0x2015 <parse+0xcf0>
    1b9c: a6 1b        	ldx	$1b                     ; 0x201b <parse+0xcf6>
    1b9e: 48           	pha
    1b9f: 5a           	phy
    1ba0: a0 1d        	ldy	#$1d
    1ba2: b1 10        	lda	($10),y                 ; 0x2010 <parse+0xceb>
    1ba4: 7a           	ply
    1ba5: 85 15        	sta	$15                     ; 0x2015 <parse+0xcf0>
    1ba7: 68           	pla
    1ba8: e4 15        	cpx	$15                     ; 0x2015 <parse+0xcf0>
    1baa: d0 27        	bne	$1bd3 <parse+0x8ae>
    1bac: 85 1c        	sta	$1c                     ; 0x201c <parse+0xcf7>
    1bae: 5a           	phy
    1baf: a0 1b        	ldy	#$1b
    1bb1: b1 10        	lda	($10),y                 ; 0x2010 <parse+0xceb>
    1bb3: 7a           	ply
    1bb4: 85 15        	sta	$15                     ; 0x2015 <parse+0xcf0>
    1bb6: 84 2b        	sty	$2b                     ; 0x202b <parse+0xd06>
    1bb8: c4 15        	cpy	$15                     ; 0x2015 <parse+0xcf0>
    1bba: 80 23        	bra	$1bdf <parse+0x8ba>
    1bbc: c5 13        	cmp	$13                     ; 0x2013 <parse+0xcee>
    1bbe: 86 2b        	stx	$2b                     ; 0x202b <parse+0xd06>
    1bc0: b0 24        	bcs	$1be6 <parse+0x8c1>
    1bc2: 4c 48 16     	jmp	$1648 <parse+0x323>
    1bc5: 85 1c        	sta	$1c                     ; 0x201c <parse+0xcf7>
    1bc7: 48           	pha
    1bc8: b1 10        	lda	($10),y                 ; 0x2010 <parse+0xceb>
    1bca: 85 12        	sta	$12                     ; 0x2012 <parse+0xced>
    1bcc: 68           	pla
    1bcd: c5 12        	cmp	$12                     ; 0x2012 <parse+0xced>
    1bcf: 86 2b        	stx	$2b                     ; 0x202b <parse+0xd06>
    1bd1: 80 0c        	bra	$1bdf <parse+0x8ba>
    1bd3: 84 2b        	sty	$2b                     ; 0x202b <parse+0xd06>
    1bd5: 85 1c        	sta	$1c                     ; 0x201c <parse+0xcf7>
    1bd7: a0 1d        	ldy	#$1d
    1bd9: b1 10        	lda	($10),y                 ; 0x2010 <parse+0xceb>
    1bdb: 85 15        	sta	$15                     ; 0x2015 <parse+0xcf0>
    1bdd: e4 15        	cpx	$15                     ; 0x2015 <parse+0xcf0>
    1bdf: a5 18        	lda	$18                     ; 0x2018 <parse+0xcf3>
    1be1: b0 03        	bcs	$1be6 <parse+0x8c1>
    1be3: 4c 48 16     	jmp	$1648 <parse+0x323>
    1be6: a6 22        	ldx	$22                     ; 0x2022 <parse+0xcfd>
    1be8: e4 67        	cpx	$67                     ; 0x2067 <parse+0xd42>
    1bea: f0 03        	beq	$1bef <parse+0x8ca>
    1bec: 4c 2e 1a     	jmp	$1a2e <parse+0x709>
    1bef: a6 66        	ldx	$66                     ; 0x2066 <parse+0xd41>
    1bf1: 86 12        	stx	$12                     ; 0x2012 <parse+0xced>
    1bf3: 48           	pha
    1bf4: a0 1e        	ldy	#$1e
    1bf6: b1 10        	lda	($10),y                 ; 0x2010 <parse+0xceb>
    1bf8: aa           	tax
    1bf9: 68           	pla
    1bfa: e4 12        	cpx	$12                     ; 0x2012 <parse+0xced>
    1bfc: b0 03        	bcs	$1c01 <parse+0x8dc>
    1bfe: 4c 37 1a     	jmp	$1a37 <parse+0x712>
    1c01: a0 1c        	ldy	#$1c
    1c03: b1 10        	lda	($10),y                 ; 0x2010 <parse+0xceb>
    1c05: d0 03        	bne	$1c0a <parse+0x8e5>
    1c07: 4c 43 1d     	jmp	$1d43 <parse+0xa1e>
    1c0a: a2 01        	ldx	#$1
    1c0c: 86 61        	stx	$61                     ; 0x2061 <parse+0xd3c>
    1c0e: a6 6d        	ldx	$6d                     ; 0x206d <parse+0xd48>
    1c10: a4 6e        	ldy	$6e                     ; 0x206e <parse+0xd49>
    1c12: d0 06        	bne	$1c1a <parse+0x8f5>
    1c14: 8a           	txa
    1c15: d0 03        	bne	$1c1a <parse+0x8f5>
    1c17: 4c 43 1d     	jmp	$1d43 <parse+0xa1e>
    1c1a: a0 05        	ldy	#$5
    1c1c: 64 24        	stz	$24                     ; 0x2024 <parse+0xcff>
    1c1e: 84 14        	sty	$14                     ; 0x2014 <parse+0xcef>
    1c20: a2 00        	ldx	#$0
    1c22: 64 26        	stz	$26                     ; 0x2026 <parse+0xd01>
    1c24: 64 27        	stz	$27                     ; 0x2027 <parse+0xd02>
    1c26: 64 28        	stz	$28                     ; 0x2028 <parse+0xd03>
    1c28: 18           	clc
    1c29: a4 14        	ldy	$14                     ; 0x2014 <parse+0xcef>
    1c2b: 84 29        	sty	$29                     ; 0x2029 <parse+0xd04>
    1c2d: a5 14        	lda	$14                     ; 0x2014 <parse+0xcef>
    1c2f: 65 6f        	adc	$6f                     ; 0x206f <parse+0xd4a>
    1c31: a8           	tay
    1c32: a5 24        	lda	$24                     ; 0x2024 <parse+0xcff>
    1c34: 65 70        	adc	$70                     ; 0x2070 <parse+0xd4b>
    1c36: 84 12        	sty	$12                     ; 0x2012 <parse+0xced>
    1c38: 85 13        	sta	$13                     ; 0x2013 <parse+0xcee>
    1c3a: 85 17        	sta	$17                     ; 0x2017 <parse+0xcf2>
    1c3c: 18           	clc
    1c3d: 98           	tya
    1c3e: 69 fb        	adc	#$fb
    1c40: 85 14        	sta	$14                     ; 0x2014 <parse+0xcef>
    1c42: a5 17        	lda	$17                     ; 0x2017 <parse+0xcf2>
    1c44: 69 ff        	adc	#$ff
    1c46: 85 15        	sta	$15                     ; 0x2015 <parse+0xcf0>
    1c48: b2 14        	lda	($14)                   ; 0x2014 <parse+0xcef>
    1c4a: 85 19        	sta	$19                     ; 0x2019 <parse+0xcf4>
    1c4c: 18           	clc
    1c4d: 98           	tya
    1c4e: 69 fc        	adc	#$fc
    1c50: 85 15        	sta	$15                     ; 0x2015 <parse+0xcf0>
    1c52: a5 17        	lda	$17                     ; 0x2017 <parse+0xcf2>
    1c54: 69 ff        	adc	#$ff
    1c56: 64 14        	stz	$14                     ; 0x2014 <parse+0xcef>
    1c58: e6 19        	inc	$19                     ; 0x2019 <parse+0xcf4>
    1c5a: d0 02        	bne	$1c5e <parse+0x939>
    1c5c: e6 14        	inc	$14                     ; 0x2014 <parse+0xcef>
    1c5e: 5a           	phy
    1c5f: a4 14        	ldy	$14                     ; 0x2014 <parse+0xcef>
    1c61: 84 18        	sty	$18                     ; 0x2018 <parse+0xcf3>
    1c63: a4 15        	ldy	$15                     ; 0x2015 <parse+0xcf0>
    1c65: 84 14        	sty	$14                     ; 0x2014 <parse+0xcef>
    1c67: 7a           	ply
    1c68: 85 15        	sta	$15                     ; 0x2015 <parse+0xcf0>
    1c6a: b2 14        	lda	($14)                   ; 0x2014 <parse+0xcef>
    1c6c: 85 1a        	sta	$1a                     ; 0x201a <parse+0xcf5>
    1c6e: 18           	clc
    1c6f: 98           	tya
    1c70: 69 fe        	adc	#$fe
    1c72: 85 16        	sta	$16                     ; 0x2016 <parse+0xcf1>
    1c74: a5 17        	lda	$17                     ; 0x2017 <parse+0xcf2>
    1c76: 69 ff        	adc	#$ff
    1c78: 85 1b        	sta	$1b                     ; 0x201b <parse+0xcf6>
    1c7a: a0 01        	ldy	#$1
    1c7c: b1 14        	lda	($14),y                 ; 0x2014 <parse+0xcef>
    1c7e: 85 17        	sta	$17                     ; 0x2017 <parse+0xcf2>
    1c80: a5 16        	lda	$16                     ; 0x2016 <parse+0xcf1>
    1c82: 85 14        	sta	$14                     ; 0x2014 <parse+0xcef>
    1c84: a5 1b        	lda	$1b                     ; 0x201b <parse+0xcf6>
    1c86: 85 15        	sta	$15                     ; 0x2015 <parse+0xcf0>
    1c88: b2 14        	lda	($14)                   ; 0x2014 <parse+0xcef>
    1c8a: 85 1b        	sta	$1b                     ; 0x201b <parse+0xcf6>
    1c8c: b1 14        	lda	($14),y                 ; 0x2014 <parse+0xcef>
    1c8e: 85 1c        	sta	$1c                     ; 0x201c <parse+0xcf7>
    1c90: b2 12        	lda	($12)                   ; 0x2012 <parse+0xced>
    1c92: 85 14        	sta	$14                     ; 0x2014 <parse+0xcef>
    1c94: b1 12        	lda	($12),y                 ; 0x2012 <parse+0xced>
    1c96: 85 15        	sta	$15                     ; 0x2015 <parse+0xcf0>
    1c98: c8           	iny
    1c99: b1 12        	lda	($12),y                 ; 0x2012 <parse+0xced>
    1c9b: 85 16        	sta	$16                     ; 0x2016 <parse+0xcf1>
    1c9d: c8           	iny
    1c9e: b1 12        	lda	($12),y                 ; 0x2012 <parse+0xced>
    1ca0: 85 12        	sta	$12                     ; 0x2012 <parse+0xced>
    1ca2: a5 19        	lda	$19                     ; 0x2019 <parse+0xcf4>
    1ca4: 92 10        	sta	($10)                   ; 0x2010 <parse+0xceb>
    1ca6: a5 18        	lda	$18                     ; 0x2018 <parse+0xcf3>
    1ca8: a0 01        	ldy	#$1
    1caa: 91 10        	sta	($10),y                 ; 0x2010 <parse+0xceb>
    1cac: a5 1a        	lda	$1a                     ; 0x201a <parse+0xcf5>
    1cae: c8           	iny
    1caf: 91 10        	sta	($10),y                 ; 0x2010 <parse+0xceb>
    1cb1: a5 17        	lda	$17                     ; 0x2017 <parse+0xcf2>
    1cb3: c8           	iny
    1cb4: 91 10        	sta	($10),y                 ; 0x2010 <parse+0xceb>
    1cb6: c8           	iny
    1cb7: a5 1b        	lda	$1b                     ; 0x201b <parse+0xcf6>
    1cb9: 91 10        	sta	($10),y                 ; 0x2010 <parse+0xceb>
    1cbb: c8           	iny
    1cbc: a5 1c        	lda	$1c                     ; 0x201c <parse+0xcf7>
    1cbe: 91 10        	sta	($10),y                 ; 0x2010 <parse+0xceb>
    1cc0: c8           	iny
    1cc1: a5 14        	lda	$14                     ; 0x2014 <parse+0xcef>
    1cc3: 91 10        	sta	($10),y                 ; 0x2010 <parse+0xceb>
    1cc5: c8           	iny
    1cc6: a5 15        	lda	$15                     ; 0x2015 <parse+0xcf0>
    1cc8: 91 10        	sta	($10),y                 ; 0x2010 <parse+0xceb>
    1cca: c8           	iny
    1ccb: a5 16        	lda	$16                     ; 0x2016 <parse+0xcf1>
    1ccd: 91 10        	sta	($10),y                 ; 0x2010 <parse+0xceb>
    1ccf: c8           	iny
    1cd0: a5 12        	lda	$12                     ; 0x2012 <parse+0xced>
    1cd2: 91 10        	sta	($10),y                 ; 0x2010 <parse+0xceb>
    1cd4: a0 ff        	ldy	#$ff
    1cd6: 84 12        	sty	$12                     ; 0x2012 <parse+0xced>
    1cd8: a0 5b        	ldy	#$5b
    1cda: 84 13        	sty	$13                     ; 0x2013 <parse+0xcee>
    1cdc: 86 25        	stx	$25                     ; 0x2025 <parse+0xd00>
    1cde: 20 a9 2b     	jsr	$2ba9 <printf>
    1ce1: a6 25        	ldx	$25                     ; 0x2025 <parse+0xd00>
    1ce3: a4 27        	ldy	$27                     ; 0x2027 <parse+0xd02>
    1ce5: a5 26        	lda	$26                     ; 0x2026 <parse+0xd01>
    1ce7: 5a           	phy
    1ce8: a4 28        	ldy	$28                     ; 0x2028 <parse+0xd03>
    1cea: 84 12        	sty	$12                     ; 0x2012 <parse+0xced>
    1cec: 7a           	ply
    1ced: e8           	inx
    1cee: d0 08        	bne	$1cf8 <parse+0x9d3>
    1cf0: 1a           	inc
    1cf1: d0 05        	bne	$1cf8 <parse+0x9d3>
    1cf3: c8           	iny
    1cf4: d0 02        	bne	$1cf8 <parse+0x9d3>
    1cf6: e6 12        	inc	$12                     ; 0x2012 <parse+0xced>
    1cf8: 85 26        	sta	$26                     ; 0x2026 <parse+0xd01>
    1cfa: 84 27        	sty	$27                     ; 0x2027 <parse+0xd02>
    1cfc: a4 12        	ldy	$12                     ; 0x2012 <parse+0xced>
    1cfe: 18           	clc
    1cff: a5 29        	lda	$29                     ; 0x2029 <parse+0xd04>
    1d01: 69 09        	adc	#$9
    1d03: 85 14        	sta	$14                     ; 0x2014 <parse+0xcef>
    1d05: a5 24        	lda	$24                     ; 0x2024 <parse+0xcff>
    1d07: 69 00        	adc	#$0
    1d09: 85 24        	sta	$24                     ; 0x2024 <parse+0xcff>
    1d0b: a5 12        	lda	$12                     ; 0x2012 <parse+0xced>
    1d0d: d0 1a        	bne	$1d29 <parse+0xa04>
    1d0f: a5 27        	lda	$27                     ; 0x2027 <parse+0xd02>
    1d11: d0 1f        	bne	$1d32 <parse+0xa0d>
    1d13: 86 13        	stx	$13                     ; 0x2013 <parse+0xcee>
    1d15: a6 6e        	ldx	$6e                     ; 0x206e <parse+0xd49>
    1d17: 86 12        	stx	$12                     ; 0x2012 <parse+0xced>
    1d19: a6 26        	ldx	$26                     ; 0x2026 <parse+0xd01>
    1d1b: e4 12        	cpx	$12                     ; 0x2012 <parse+0xced>
    1d1d: d0 1e        	bne	$1d3d <parse+0xa18>
    1d1f: a6 6d        	ldx	$6d                     ; 0x206d <parse+0xd48>
    1d21: 86 12        	stx	$12                     ; 0x2012 <parse+0xced>
    1d23: a6 13        	ldx	$13                     ; 0x2013 <parse+0xcee>
    1d25: e4 12        	cpx	$12                     ; 0x2012 <parse+0xced>
    1d27: 80 02        	bra	$1d2b <parse+0xa06>
    1d29: c0 00        	cpy	#$0
    1d2b: 84 28        	sty	$28                     ; 0x2028 <parse+0xd03>
    1d2d: b0 14        	bcs	$1d43 <parse+0xa1e>
    1d2f: 4c 28 1c     	jmp	$1c28 <parse+0x903>
    1d32: 84 28        	sty	$28                     ; 0x2028 <parse+0xd03>
    1d34: a4 27        	ldy	$27                     ; 0x2027 <parse+0xd02>
    1d36: c0 00        	cpy	#$0
    1d38: b0 09        	bcs	$1d43 <parse+0xa1e>
    1d3a: 4c 28 1c     	jmp	$1c28 <parse+0x903>
    1d3d: e4 12        	cpx	$12                     ; 0x2012 <parse+0xced>
    1d3f: a6 13        	ldx	$13                     ; 0x2013 <parse+0xcee>
    1d41: 80 e8        	bra	$1d2b <parse+0xa06>
    1d43: a0 0a        	ldy	#$a
    1d45: b1 10        	lda	($10),y                 ; 0x2010 <parse+0xceb>
    1d47: 85 2f        	sta	$2f                     ; 0x202f <parse+0xd0a>
    1d49: c8           	iny
    1d4a: b1 10        	lda	($10),y                 ; 0x2010 <parse+0xceb>
    1d4c: 85 2e        	sta	$2e                     ; 0x202e <parse+0xd09>
    1d4e: c8           	iny
    1d4f: b1 10        	lda	($10),y                 ; 0x2010 <parse+0xceb>
    1d51: 85 2d        	sta	$2d                     ; 0x202d <parse+0xd08>
    1d53: c8           	iny
    1d54: b1 10        	lda	($10),y                 ; 0x2010 <parse+0xceb>
    1d56: 85 2c        	sta	$2c                     ; 0x202c <parse+0xd07>
    1d58: c8           	iny
    1d59: b1 10        	lda	($10),y                 ; 0x2010 <parse+0xceb>
    1d5b: 85 2b        	sta	$2b                     ; 0x202b <parse+0xd06>
    1d5d: c8           	iny
    1d5e: b1 10        	lda	($10),y                 ; 0x2010 <parse+0xceb>
    1d60: 85 2a        	sta	$2a                     ; 0x202a <parse+0xd05>
    1d62: c8           	iny
    1d63: b1 10        	lda	($10),y                 ; 0x2010 <parse+0xceb>
    1d65: 85 29        	sta	$29                     ; 0x2029 <parse+0xd04>
    1d67: c8           	iny
    1d68: b1 10        	lda	($10),y                 ; 0x2010 <parse+0xceb>
    1d6a: 85 28        	sta	$28                     ; 0x2028 <parse+0xd03>
    1d6c: fa           	plx
    1d6d: 86 27        	stx	$27                     ; 0x2027 <parse+0xd02>
    1d6f: fa           	plx
    1d70: 86 26        	stx	$26                     ; 0x2026 <parse+0xd01>
    1d72: fa           	plx
    1d73: 86 25        	stx	$25                     ; 0x2025 <parse+0xd00>
    1d75: fa           	plx
    1d76: 86 24        	stx	$24                     ; 0x2024 <parse+0xcff>
    1d78: 18           	clc
    1d79: a5 10        	lda	$10                     ; 0x2010 <parse+0xceb>
    1d7b: 69 23        	adc	#$23
    1d7d: 85 10        	sta	$10                     ; 0x2010 <parse+0xceb>
    1d7f: a5 11        	lda	$11                     ; 0x2011 <parse+0xcec>
    1d81: 69 00        	adc	#$0
    1d83: 85 11        	sta	$11                     ; 0x2011 <parse+0xcec>
    1d85: 60           	rts
    1d86: c9 21        	cmp	#$21
    1d88: d0 03        	bne	$1d8d <parse+0xa68>
    1d8a: 4c a7 19     	jmp	$19a7 <parse+0x682>
    1d8d: a2 ff        	ldx	#$ff
    1d8f: 8a           	txa
    1d90: a0 1a        	ldy	#$1a
    1d92: 91 10        	sta	($10),y                 ; 0x2010 <parse+0xceb>
    1d94: a6 1a        	ldx	$1a                     ; 0x201a <parse+0xcf5>
    1d96: 86 2b        	stx	$2b                     ; 0x202b <parse+0xd06>
    1d98: a6 1c        	ldx	$1c                     ; 0x201c <parse+0xcf7>
    1d9a: 86 2f        	stx	$2f                     ; 0x202f <parse+0xd0a>
    1d9c: a5 1d        	lda	$1d                     ; 0x201d <parse+0xcf8>
    1d9e: 4c cb 19     	jmp	$19cb <parse+0x6a6>
    1da1: 48           	pha
    1da2: a0 1b        	ldy	#$1b
    1da4: b1 10        	lda	($10),y                 ; 0x2010 <parse+0xceb>
    1da6: 85 15        	sta	$15                     ; 0x2015 <parse+0xcf0>
    1da8: a6 2b        	ldx	$2b                     ; 0x202b <parse+0xd06>
    1daa: 4c 5f 17     	jmp	$175f <parse+0x43a>
    1dad: 48           	pha
    1dae: b1 10        	lda	($10),y                 ; 0x2010 <parse+0xceb>
    1db0: 85 15        	sta	$15                     ; 0x2015 <parse+0xcf0>
    1db2: 4c 5f 17     	jmp	$175f <parse+0x43a>
    1db5: 85 12        	sta	$12                     ; 0x2012 <parse+0xced>
    1db7: 46 12        	lsr	$12                     ; 0x2012 <parse+0xced>
    1db9: 64 14        	stz	$14                     ; 0x2014 <parse+0xcef>
    1dbb: 66 14        	ror	$14                     ; 0x2014 <parse+0xcef>
    1dbd: a6 15        	ldx	$15                     ; 0x2015 <parse+0xcf0>
    1dbf: 86 16        	stx	$16                     ; 0x2016 <parse+0xcf1>
    1dc1: a6 24        	ldx	$24                     ; 0x2024 <parse+0xcff>
    1dc3: 86 15        	stx	$15                     ; 0x2015 <parse+0xcf0>
    1dc5: 46 16        	lsr	$16                     ; 0x2016 <parse+0xcf1>
    1dc7: 66 15        	ror	$15                     ; 0x2015 <parse+0xcf0>
    1dc9: 64 24        	stz	$24                     ; 0x2024 <parse+0xcff>
    1dcb: 66 24        	ror	$24                     ; 0x2024 <parse+0xcff>
    1dcd: 46 23        	lsr	$23                     ; 0x2023 <parse+0xcfe>
    1dcf: a6 1c        	ldx	$1c                     ; 0x201c <parse+0xcf7>
    1dd1: 86 1a        	stx	$1a                     ; 0x201a <parse+0xcf5>
    1dd3: 66 1a        	ror	$1a                     ; 0x201a <parse+0xcf5>
    1dd5: 66 1e        	ror	$1e                     ; 0x201e <parse+0xcf9>
    1dd7: 64 1b        	stz	$1b                     ; 0x201b <parse+0xcf6>
    1dd9: 66 1b        	ror	$1b                     ; 0x201b <parse+0xcf6>
    1ddb: 18           	clc
    1ddc: a5 25        	lda	$25                     ; 0x2025 <parse+0xd00>
    1dde: 69 03        	adc	#$3
    1de0: 85 1c        	sta	$1c                     ; 0x201c <parse+0xcf7>
    1de2: a5 22        	lda	$22                     ; 0x2022 <parse+0xcfd>
    1de4: 69 00        	adc	#$0
    1de6: 85 17        	sta	$17                     ; 0x2017 <parse+0xcf2>
    1de8: a5 1f        	lda	$1f                     ; 0x201f <parse+0xcfa>
    1dea: 69 01        	adc	#$1
    1dec: a6 17        	ldx	$17                     ; 0x2017 <parse+0xcf2>
    1dee: 86 19        	stx	$19                     ; 0x2019 <parse+0xcf4>
    1df0: 06 19        	asl	$19                     ; 0x2019 <parse+0xcf4>
    1df2: 2a           	rol
    1df3: 06 19        	asl	$19                     ; 0x2019 <parse+0xcf4>
    1df5: 2a           	rol
    1df6: 06 19        	asl	$19                     ; 0x2019 <parse+0xcf4>
    1df8: 2a           	rol
    1df9: a6 0f        	ldx	$f                      ; 0x200f <parse+0xcea>
    1dfb: 78           	sei
    1dfc: 85 0f        	sta	$f                      ; 0x200f <parse+0xcea>
    1dfe: a5 17        	lda	$17                     ; 0x2017 <parse+0xcf2>
    1e00: 09 e0        	ora	#$e0
    1e02: 85 1d        	sta	$1d                     ; 0x201d <parse+0xcf8>
    1e04: b2 1c        	lda	($1c)                   ; 0x201c <parse+0xcf7>
    1e06: 85 26        	sta	$26                     ; 0x2026 <parse+0xd01>
    1e08: 86 0f        	stx	$f                      ; 0x200f <parse+0xcea>
    1e0a: 18           	clc
    1e0b: a5 25        	lda	$25                     ; 0x2025 <parse+0xd00>
    1e0d: 69 04        	adc	#$4
    1e0f: 85 25        	sta	$25                     ; 0x2025 <parse+0xd00>
    1e11: a5 22        	lda	$22                     ; 0x2022 <parse+0xcfd>
    1e13: 69 00        	adc	#$0
    1e15: 85 17        	sta	$17                     ; 0x2017 <parse+0xcf2>
    1e17: a5 1f        	lda	$1f                     ; 0x201f <parse+0xcfa>
    1e19: 69 00        	adc	#$0
    1e1b: 85 1c        	sta	$1c                     ; 0x201c <parse+0xcf7>
    1e1d: 98           	tya
    1e1e: 69 00        	adc	#$0
    1e20: a4 17        	ldy	$17                     ; 0x2017 <parse+0xcf2>
    1e22: 85 1d        	sta	$1d                     ; 0x201d <parse+0xcf8>
    1e24: a6 23        	ldx	$23                     ; 0x2023 <parse+0xcfe>
    1e26: 86 19        	stx	$19                     ; 0x2019 <parse+0xcf4>
    1e28: a5 14        	lda	$14                     ; 0x2014 <parse+0xcef>
    1e2a: 29 80        	and	#$80
    1e2c: 85 1f        	sta	$1f                     ; 0x201f <parse+0xcfa>
    1e2e: a5 12        	lda	$12                     ; 0x2012 <parse+0xced>
    1e30: 29 3f        	and	#$3f
    1e32: 85 22        	sta	$22                     ; 0x2022 <parse+0xcfd>
    1e34: a6 26        	ldx	$26                     ; 0x2026 <parse+0xd01>
    1e36: 86 23        	stx	$23                     ; 0x2023 <parse+0xcfe>
    1e38: 58           	cli
    1e39: a5 1e        	lda	$1e                     ; 0x201e <parse+0xcf9>
    1e3b: a6 1b        	ldx	$1b                     ; 0x201b <parse+0xcf6>
    1e3d: 86 1e        	stx	$1e                     ; 0x201e <parse+0xcf9>
    1e3f: 85 1b        	sta	$1b                     ; 0x201b <parse+0xcf6>
    1e41: 4c e9 17     	jmp	$17e9 <parse+0x4c4>
    1e44: 48           	pha
    1e45: a0 1b        	ldy	#$1b
    1e47: b1 10        	lda	($10),y                 ; 0x2010 <parse+0xceb>
    1e49: 85 15        	sta	$15                     ; 0x2015 <parse+0xcf0>
    1e4b: 68           	pla
    1e4c: a6 2b        	ldx	$2b                     ; 0x202b <parse+0xd06>
    1e4e: 4c 14 1a     	jmp	$1a14 <parse+0x6ef>
    1e51: 48           	pha
    1e52: b1 10        	lda	($10),y                 ; 0x2010 <parse+0xceb>
    1e54: 85 15        	sta	$15                     ; 0x2015 <parse+0xcf0>
    1e56: 68           	pla
    1e57: 4c 14 1a     	jmp	$1a14 <parse+0x6ef>
    1e5a: 18           	clc
    1e5b: a5 2b        	lda	$2b                     ; 0x202b <parse+0xd06>
    1e5d: 69 01        	adc	#$1
    1e5f: 85 12        	sta	$12                     ; 0x2012 <parse+0xced>
    1e61: a5 2a        	lda	$2a                     ; 0x202a <parse+0xd05>
    1e63: 69 00        	adc	#$0
    1e65: a8           	tay
    1e66: a5 2f        	lda	$2f                     ; 0x202f <parse+0xd0a>
    1e68: 69 01        	adc	#$1
    1e6a: 84 18        	sty	$18                     ; 0x2018 <parse+0xcf3>
    1e6c: 06 18        	asl	$18                     ; 0x2018 <parse+0xcf3>
    1e6e: 2a           	rol
    1e6f: 06 18        	asl	$18                     ; 0x2018 <parse+0xcf3>
    1e71: 2a           	rol
    1e72: 06 18        	asl	$18                     ; 0x2018 <parse+0xcf3>
    1e74: 2a           	rol
    1e75: a6 0f        	ldx	$f                      ; 0x200f <parse+0xcea>
    1e77: 78           	sei
    1e78: 85 0f        	sta	$f                      ; 0x200f <parse+0xcea>
    1e7a: 98           	tya
    1e7b: 09 e0        	ora	#$e0
    1e7d: a4 12        	ldy	$12                     ; 0x2012 <parse+0xced>
    1e7f: 84 18        	sty	$18                     ; 0x2018 <parse+0xcf3>
    1e81: 85 19        	sta	$19                     ; 0x2019 <parse+0xcf4>
    1e83: b2 18        	lda	($18)                   ; 0x2018 <parse+0xcf3>
    1e85: 86 0f        	stx	$f                      ; 0x200f <parse+0xcea>
    1e87: 58           	cli
    1e88: 4c 32 17     	jmp	$1732 <parse+0x40d>
    1e8b: 18           	clc
    1e8c: a5 2b        	lda	$2b                     ; 0x202b <parse+0xd06>
    1e8e: 69 01        	adc	#$1
    1e90: 85 12        	sta	$12                     ; 0x2012 <parse+0xced>
    1e92: a5 2a        	lda	$2a                     ; 0x202a <parse+0xd05>
    1e94: 69 00        	adc	#$0
    1e96: a8           	tay
    1e97: a5 2f        	lda	$2f                     ; 0x202f <parse+0xd0a>
    1e99: 69 01        	adc	#$1
    1e9b: 84 18        	sty	$18                     ; 0x2018 <parse+0xcf3>
    1e9d: 06 18        	asl	$18                     ; 0x2018 <parse+0xcf3>
    1e9f: 2a           	rol
    1ea0: 06 18        	asl	$18                     ; 0x2018 <parse+0xcf3>
    1ea2: 2a           	rol
    1ea3: 06 18        	asl	$18                     ; 0x2018 <parse+0xcf3>
    1ea5: 2a           	rol
    1ea6: a6 0f        	ldx	$f                      ; 0x200f <parse+0xcea>
    1ea8: 78           	sei
    1ea9: 85 0f        	sta	$f                      ; 0x200f <parse+0xcea>
    1eab: 98           	tya
    1eac: 09 e0        	ora	#$e0
    1eae: a4 12        	ldy	$12                     ; 0x2012 <parse+0xced>
    1eb0: 84 18        	sty	$18                     ; 0x2018 <parse+0xcf3>
    1eb2: 85 19        	sta	$19                     ; 0x2019 <parse+0xcf4>
    1eb4: b2 18        	lda	($18)                   ; 0x2018 <parse+0xcf3>
    1eb6: 86 0f        	stx	$f                      ; 0x200f <parse+0xcea>
    1eb8: 58           	cli
    1eb9: 4c 32 17     	jmp	$1732 <parse+0x40d>
    1ebc: 18           	clc
    1ebd: a5 2b        	lda	$2b                     ; 0x202b <parse+0xd06>
    1ebf: 69 01        	adc	#$1
    1ec1: 85 12        	sta	$12                     ; 0x2012 <parse+0xced>
    1ec3: a5 2a        	lda	$2a                     ; 0x202a <parse+0xd05>
    1ec5: 69 00        	adc	#$0
    1ec7: a8           	tay
    1ec8: a5 2f        	lda	$2f                     ; 0x202f <parse+0xd0a>
    1eca: 69 01        	adc	#$1
    1ecc: 84 18        	sty	$18                     ; 0x2018 <parse+0xcf3>
    1ece: 06 18        	asl	$18                     ; 0x2018 <parse+0xcf3>
    1ed0: 2a           	rol
    1ed1: 06 18        	asl	$18                     ; 0x2018 <parse+0xcf3>
    1ed3: 2a           	rol
    1ed4: 06 18        	asl	$18                     ; 0x2018 <parse+0xcf3>
    1ed6: 2a           	rol
    1ed7: a6 0f        	ldx	$f                      ; 0x200f <parse+0xcea>
    1ed9: 78           	sei
    1eda: 85 0f        	sta	$f                      ; 0x200f <parse+0xcea>
    1edc: 98           	tya
    1edd: 09 e0        	ora	#$e0
    1edf: a4 12        	ldy	$12                     ; 0x2012 <parse+0xced>
    1ee1: 84 18        	sty	$18                     ; 0x2018 <parse+0xcf3>
    1ee3: 85 19        	sta	$19                     ; 0x2019 <parse+0xcf4>
    1ee5: b2 18        	lda	($18)                   ; 0x2018 <parse+0xcf3>
    1ee7: 86 0f        	stx	$f                      ; 0x200f <parse+0xcea>
    1ee9: 58           	cli
    1eea: 4c 32 17     	jmp	$1732 <parse+0x40d>
    1eed: 18           	clc
    1eee: a5 2b        	lda	$2b                     ; 0x202b <parse+0xd06>
    1ef0: 69 01        	adc	#$1
    1ef2: 85 12        	sta	$12                     ; 0x2012 <parse+0xced>
    1ef4: a5 2a        	lda	$2a                     ; 0x202a <parse+0xd05>
    1ef6: 69 00        	adc	#$0
    1ef8: a8           	tay
    1ef9: a5 2f        	lda	$2f                     ; 0x202f <parse+0xd0a>
    1efb: 69 01        	adc	#$1
    1efd: 84 18        	sty	$18                     ; 0x2018 <parse+0xcf3>
    1eff: 06 18        	asl	$18                     ; 0x2018 <parse+0xcf3>
    1f01: 2a           	rol
    1f02: 06 18        	asl	$18                     ; 0x2018 <parse+0xcf3>
    1f04: 2a           	rol
    1f05: 06 18        	asl	$18                     ; 0x2018 <parse+0xcf3>
    1f07: 2a           	rol
    1f08: a6 0f        	ldx	$f                      ; 0x200f <parse+0xcea>
    1f0a: 78           	sei
    1f0b: 85 0f        	sta	$f                      ; 0x200f <parse+0xcea>
    1f0d: 98           	tya
    1f0e: 09 e0        	ora	#$e0
    1f10: a4 12        	ldy	$12                     ; 0x2012 <parse+0xced>
    1f12: 84 18        	sty	$18                     ; 0x2018 <parse+0xcf3>
    1f14: 85 19        	sta	$19                     ; 0x2019 <parse+0xcf4>
    1f16: b2 18        	lda	($18)                   ; 0x2018 <parse+0xcf3>
    1f18: 86 0f        	stx	$f                      ; 0x200f <parse+0xcea>
    1f1a: 58           	cli
    1f1b: 4c 32 17     	jmp	$1732 <parse+0x40d>
    1f1e: 18           	clc
    1f1f: a5 2b        	lda	$2b                     ; 0x202b <parse+0xd06>
    1f21: 69 01        	adc	#$1
    1f23: 85 12        	sta	$12                     ; 0x2012 <parse+0xced>
    1f25: a5 2a        	lda	$2a                     ; 0x202a <parse+0xd05>
    1f27: 69 00        	adc	#$0
    1f29: a8           	tay
    1f2a: a5 2f        	lda	$2f                     ; 0x202f <parse+0xd0a>
    1f2c: 69 01        	adc	#$1
    1f2e: 84 18        	sty	$18                     ; 0x2018 <parse+0xcf3>
    1f30: 06 18        	asl	$18                     ; 0x2018 <parse+0xcf3>
    1f32: 2a           	rol
    1f33: 06 18        	asl	$18                     ; 0x2018 <parse+0xcf3>
    1f35: 2a           	rol
    1f36: 06 18        	asl	$18                     ; 0x2018 <parse+0xcf3>
    1f38: 2a           	rol
    1f39: a6 0f        	ldx	$f                      ; 0x200f <parse+0xcea>
    1f3b: 78           	sei
    1f3c: 85 0f        	sta	$f                      ; 0x200f <parse+0xcea>
    1f3e: 98           	tya
    1f3f: 09 e0        	ora	#$e0
    1f41: a4 12        	ldy	$12                     ; 0x2012 <parse+0xced>
    1f43: 84 18        	sty	$18                     ; 0x2018 <parse+0xcf3>
    1f45: 85 19        	sta	$19                     ; 0x2019 <parse+0xcf4>
    1f47: b2 18        	lda	($18)                   ; 0x2018 <parse+0xcf3>
    1f49: 86 0f        	stx	$f                      ; 0x200f <parse+0xcea>
    1f4b: 58           	cli
    1f4c: 4c 32 17     	jmp	$1732 <parse+0x40d>
    1f4f: 18           	clc
    1f50: a5 2b        	lda	$2b                     ; 0x202b <parse+0xd06>
    1f52: 69 01        	adc	#$1
    1f54: 85 12        	sta	$12                     ; 0x2012 <parse+0xced>
    1f56: a5 2a        	lda	$2a                     ; 0x202a <parse+0xd05>
    1f58: 69 00        	adc	#$0
    1f5a: a8           	tay
    1f5b: a5 2f        	lda	$2f                     ; 0x202f <parse+0xd0a>
    1f5d: 69 01        	adc	#$1
    1f5f: 84 18        	sty	$18                     ; 0x2018 <parse+0xcf3>
    1f61: 06 18        	asl	$18                     ; 0x2018 <parse+0xcf3>
    1f63: 2a           	rol
    1f64: 06 18        	asl	$18                     ; 0x2018 <parse+0xcf3>
    1f66: 2a           	rol
    1f67: 06 18        	asl	$18                     ; 0x2018 <parse+0xcf3>
    1f69: 2a           	rol
    1f6a: a6 0f        	ldx	$f                      ; 0x200f <parse+0xcea>
    1f6c: 78           	sei
    1f6d: 85 0f        	sta	$f                      ; 0x200f <parse+0xcea>
    1f6f: 98           	tya
    1f70: 09 e0        	ora	#$e0
    1f72: a4 12        	ldy	$12                     ; 0x2012 <parse+0xced>
    1f74: 84 18        	sty	$18                     ; 0x2018 <parse+0xcf3>
    1f76: 85 19        	sta	$19                     ; 0x2019 <parse+0xcf4>
    1f78: b2 18        	lda	($18)                   ; 0x2018 <parse+0xcf3>
    1f7a: 86 0f        	stx	$f                      ; 0x200f <parse+0xcea>
    1f7c: 58           	cli
    1f7d: 4c 32 17     	jmp	$1732 <parse+0x40d>
    1f80: 18           	clc
    1f81: a5 2b        	lda	$2b                     ; 0x202b <parse+0xd06>
    1f83: 69 01        	adc	#$1
    1f85: 85 12        	sta	$12                     ; 0x2012 <parse+0xced>
    1f87: a5 2a        	lda	$2a                     ; 0x202a <parse+0xd05>
    1f89: 69 00        	adc	#$0
    1f8b: a8           	tay
    1f8c: a5 2f        	lda	$2f                     ; 0x202f <parse+0xd0a>
    1f8e: 69 01        	adc	#$1
    1f90: 84 18        	sty	$18                     ; 0x2018 <parse+0xcf3>
    1f92: 06 18        	asl	$18                     ; 0x2018 <parse+0xcf3>
    1f94: 2a           	rol
    1f95: 06 18        	asl	$18                     ; 0x2018 <parse+0xcf3>
    1f97: 2a           	rol
    1f98: 06 18        	asl	$18                     ; 0x2018 <parse+0xcf3>
    1f9a: 2a           	rol
    1f9b: a6 0f        	ldx	$f                      ; 0x200f <parse+0xcea>
    1f9d: 78           	sei
    1f9e: 85 0f        	sta	$f                      ; 0x200f <parse+0xcea>
    1fa0: 98           	tya
    1fa1: 09 e0        	ora	#$e0
    1fa3: a4 12        	ldy	$12                     ; 0x2012 <parse+0xced>
    1fa5: 84 18        	sty	$18                     ; 0x2018 <parse+0xcf3>
    1fa7: 85 19        	sta	$19                     ; 0x2019 <parse+0xcf4>
    1fa9: b2 18        	lda	($18)                   ; 0x2018 <parse+0xcf3>
    1fab: 86 0f        	stx	$f                      ; 0x200f <parse+0xcea>
    1fad: 58           	cli
    1fae: 4c 32 17     	jmp	$1732 <parse+0x40d>
    1fb1: a5 24        	lda	$24                     ; 0x2024 <parse+0xcff>
    1fb3: 05 1e        	ora	$1e                     ; 0x201e <parse+0xcf9>
    1fb5: a8           	tay
    1fb6: a5 15        	lda	$15                     ; 0x2015 <parse+0xcf0>
    1fb8: 05 1b        	ora	$1b                     ; 0x201b <parse+0xcf6>
    1fba: 85 12        	sta	$12                     ; 0x2012 <parse+0xced>
    1fbc: a5 16        	lda	$16                     ; 0x2016 <parse+0xcf1>
    1fbe: 05 1a        	ora	$1a                     ; 0x201a <parse+0xcf5>
    1fc0: 85 27        	sta	$27                     ; 0x2027 <parse+0xd02>
    1fc2: 98           	tya
    1fc3: 05 1f        	ora	$1f                     ; 0x201f <parse+0xcfa>
    1fc5: a8           	tay
    1fc6: a5 12        	lda	$12                     ; 0x2012 <parse+0xced>
    1fc8: 05 22        	ora	$22                     ; 0x2022 <parse+0xcfd>
    1fca: 85 24        	sta	$24                     ; 0x2024 <parse+0xcff>
    1fcc: 98           	tya
    1fcd: 05 23        	ora	$23                     ; 0x2023 <parse+0xcfe>
    1fcf: 85 25        	sta	$25                     ; 0x2025 <parse+0xd00>
    1fd1: a0 21        	ldy	#$21
    1fd3: b1 10        	lda	($10),y                 ; 0x2010 <parse+0xceb>
    1fd5: 85 18        	sta	$18                     ; 0x2018 <parse+0xcf3>
    1fd7: 06 18        	asl	$18                     ; 0x2018 <parse+0xcf3>
    1fd9: 88           	dey
    1fda: b1 10        	lda	($10),y                 ; 0x2010 <parse+0xceb>
    1fdc: 2a           	rol
    1fdd: 06 18        	asl	$18                     ; 0x2018 <parse+0xcf3>
    1fdf: 2a           	rol
    1fe0: 06 18        	asl	$18                     ; 0x2018 <parse+0xcf3>
    1fe2: 2a           	rol
    1fe3: e0 c0        	cpx	#$c0
    1fe5: 48           	pha
    1fe6: 88           	dey
    1fe7: b1 10        	lda	($10),y                 ; 0x2010 <parse+0xceb>
    1fe9: 85 22        	sta	$22                     ; 0x2022 <parse+0xcfd>
    1feb: 8a           	txa
    1fec: a0 1a        	ldy	#$1a
    1fee: 91 10        	sta	($10),y                 ; 0x2010 <parse+0xceb>
    1ff0: 68           	pla
    1ff1: b0 03        	bcs	$1ff6 <parse+0xcd1>
    1ff3: 4c 13 24     	jmp	$2413 <parse+0x10ee>
    1ff6: e0 e0        	cpx	#$e0
    1ff8: 90 03        	bcc	$1ffd <parse+0xcd8>
    1ffa: 4c 20 24     	jmp	$2420 <parse+0x10fb>
    1ffd: 85 1c        	sta	$1c                     ; 0x201c <parse+0xcf7>
    1fff: a6 6f        	ldx	$6f                     ; 0x206f <parse+0xd4a>
    2001: 86 17        	stx	$17                     ; 0x2017 <parse+0xcf2>
    2003: a6 70        	ldx	$70                     ; 0x2070 <parse+0xd4b>
    2005: 86 16        	stx	$16                     ; 0x2016 <parse+0xcf1>
    2007: a0 1c        	ldy	#$1c
    2009: b1 10        	lda	($10),y                 ; 0x2010 <parse+0xceb>
    200b: d0 03        	bne	$2010 <parse+0xceb>
    200d: 4c 27 27     	jmp	$2727 <parse+0x1402>
    2010: a5 18        	lda	$18                     ; 0x2018 <parse+0xcf3>
    2012: 48           	pha
    2013: a0 21        	ldy	#$21
    2015: b1 10        	lda	($10),y                 ; 0x2010 <parse+0xceb>
    2017: 85 12        	sta	$12                     ; 0x2012 <parse+0xced>
    2019: 68           	pla
    201a: 18           	clc
    201b: 65 12        	adc	$12                     ; 0x2012 <parse+0xced>
    201d: a0 13        	ldy	#$13
    201f: 91 10        	sta	($10),y                 ; 0x2010 <parse+0xceb>
    2021: 85 18        	sta	$18                     ; 0x2018 <parse+0xcf3>
    2023: a5 1c        	lda	$1c                     ; 0x201c <parse+0xcf7>
    2025: 48           	pha
    2026: a0 20        	ldy	#$20
    2028: b1 10        	lda	($10),y                 ; 0x2010 <parse+0xceb>
    202a: 85 12        	sta	$12                     ; 0x2012 <parse+0xced>
    202c: 68           	pla
    202d: 65 12        	adc	$12                     ; 0x2012 <parse+0xced>
    202f: a0 14        	ldy	#$14
    2031: 91 10        	sta	($10),y                 ; 0x2010 <parse+0xceb>
    2033: a5 17        	lda	$17                     ; 0x2017 <parse+0xcf2>
    2035: 18           	clc
    2036: 65 18        	adc	$18                     ; 0x2018 <parse+0xcf3>
    2038: aa           	tax
    2039: b1 10        	lda	($10),y                 ; 0x2010 <parse+0xceb>
    203b: 85 18        	sta	$18                     ; 0x2018 <parse+0xcf3>
    203d: a5 16        	lda	$16                     ; 0x2016 <parse+0xcf1>
    203f: 65 18        	adc	$18                     ; 0x2018 <parse+0xcf3>
    2041: 86 1a        	stx	$1a                     ; 0x201a <parse+0xcf5>
    2043: 85 1b        	sta	$1b                     ; 0x201b <parse+0xcf6>
    2045: a8           	tay
    2046: 18           	clc
    2047: 8a           	txa
    2048: 69 05        	adc	#$5
    204a: 85 1c        	sta	$1c                     ; 0x201c <parse+0xcf7>
    204c: 98           	tya
    204d: 69 00        	adc	#$0
    204f: 85 1d        	sta	$1d                     ; 0x201d <parse+0xcf8>
    2051: 18           	clc
    2052: 8a           	txa
    2053: 69 03        	adc	#$3
    2055: 85 1e        	sta	$1e                     ; 0x201e <parse+0xcf9>
    2057: 98           	tya
    2058: 69 00        	adc	#$0
    205a: 85 1f        	sta	$1f                     ; 0x201f <parse+0xcfa>
    205c: a0 03        	ldy	#$3
    205e: b1 1a        	lda	($1a),y                 ; 0x201a <parse+0xcf5>
    2060: aa           	tax
    2061: a0 01        	ldy	#$1
    2063: b1 1e        	lda	($1e),y                 ; 0x201e <parse+0xcf9>
    2065: 85 12        	sta	$12                     ; 0x2012 <parse+0xced>
    2067: 8a           	txa
    2068: 0a           	asl
    2069: 26 12        	rol	$12                     ; 0x2012 <parse+0xced>
    206b: 64 15        	stz	$15                     ; 0x2015 <parse+0xcf0>
    206d: 26 15        	rol	$15                     ; 0x2015 <parse+0xcf0>
    206f: 0a           	asl
    2070: 26 12        	rol	$12                     ; 0x2012 <parse+0xced>
    2072: 26 15        	rol	$15                     ; 0x2015 <parse+0xcf0>
    2074: 0a           	asl
    2075: 26 12        	rol	$12                     ; 0x2012 <parse+0xced>
    2077: 26 15        	rol	$15                     ; 0x2015 <parse+0xcf0>
    2079: 18           	clc
    207a: a0 05        	ldy	#$5
    207c: 71 1a        	adc	($1a),y                 ; 0x201a <parse+0xcf5>
    207e: 85 2e        	sta	$2e                     ; 0x202e <parse+0xd09>
    2080: a0 01        	ldy	#$1
    2082: a5 12        	lda	$12                     ; 0x2012 <parse+0xced>
    2084: 71 1c        	adc	($1c),y                 ; 0x201c <parse+0xcf7>
    2086: a0 18        	ldy	#$18
    2088: 91 10        	sta	($10),y                 ; 0x2010 <parse+0xceb>
    208a: a0 02        	ldy	#$2
    208c: a5 15        	lda	$15                     ; 0x2015 <parse+0xcf0>
    208e: 71 1c        	adc	($1c),y                 ; 0x201c <parse+0xcf7>
    2090: a0 17        	ldy	#$17
    2092: 91 10        	sta	($10),y                 ; 0x2010 <parse+0xceb>
    2094: 18           	clc
    2095: a5 2e        	lda	$2e                     ; 0x202e <parse+0xd09>
    2097: 69 00        	adc	#$0
    2099: c8           	iny
    209a: b1 10        	lda	($10),y                 ; 0x2010 <parse+0xceb>
    209c: 69 00        	adc	#$0
    209e: 85 26        	sta	$26                     ; 0x2026 <parse+0xd01>
    20a0: 88           	dey
    20a1: b1 10        	lda	($10),y                 ; 0x2010 <parse+0xceb>
    20a3: 69 03        	adc	#$3
    20a5: 85 28        	sta	$28                     ; 0x2028 <parse+0xd03>
    20a7: a6 68        	ldx	$68                     ; 0x2068 <parse+0xd43>
    20a9: 86 1c        	stx	$1c                     ; 0x201c <parse+0xcf7>
    20ab: a5 69        	lda	$69                     ; 0x2069 <parse+0xd44>
    20ad: a4 6a        	ldy	$6a                     ; 0x206a <parse+0xd45>
    20af: a6 6b        	ldx	$6b                     ; 0x206b <parse+0xd46>
    20b1: 84 12        	sty	$12                     ; 0x2012 <parse+0xced>
    20b3: 48           	pha
    20b4: a5 13        	lda	$13                     ; 0x2013 <parse+0xcee>
    20b6: a0 15        	ldy	#$15
    20b8: 91 10        	sta	($10),y                 ; 0x2010 <parse+0xceb>
    20ba: 86 13        	stx	$13                     ; 0x2013 <parse+0xcee>
    20bc: a6 25        	ldx	$25                     ; 0x2025 <parse+0xd00>
    20be: 86 14        	stx	$14                     ; 0x2014 <parse+0xcef>
    20c0: a6 24        	ldx	$24                     ; 0x2024 <parse+0xcff>
    20c2: 86 15        	stx	$15                     ; 0x2015 <parse+0xcf0>
    20c4: a6 27        	ldx	$27                     ; 0x2027 <parse+0xd02>
    20c6: 86 16        	stx	$16                     ; 0x2016 <parse+0xcf1>
    20c8: a6 19        	ldx	$19                     ; 0x2019 <parse+0xcf4>
    20ca: 8a           	txa
    20cb: a0 12        	ldy	#$12
    20cd: 91 10        	sta	($10),y                 ; 0x2010 <parse+0xceb>
    20cf: 68           	pla
    20d0: 86 17        	stx	$17                     ; 0x2017 <parse+0xcf2>
    20d2: aa           	tax
    20d3: a5 1c        	lda	$1c                     ; 0x201c <parse+0xcf7>
    20d5: 20 3f 3b     	jsr	$3b3f <__mulsi3>
    20d8: a6 0f        	ldx	$f                      ; 0x200f <parse+0xcea>
    20da: 78           	sei
    20db: 06 26        	asl	$26                     ; 0x2026 <parse+0xd01>
    20dd: a5 28        	lda	$28                     ; 0x2028 <parse+0xd03>
    20df: 2a           	rol
    20e0: 06 26        	asl	$26                     ; 0x2026 <parse+0xd01>
    20e2: 2a           	rol
    20e3: 06 26        	asl	$26                     ; 0x2026 <parse+0xd01>
    20e5: 2a           	rol
    20e6: 85 0f        	sta	$f                      ; 0x200f <parse+0xcea>
    20e8: a0 18        	ldy	#$18
    20ea: b1 10        	lda	($10),y                 ; 0x2010 <parse+0xceb>
    20ec: 09 e0        	ora	#$e0
    20ee: a4 2e        	ldy	$2e                     ; 0x202e <parse+0xd09>
    20f0: 84 14        	sty	$14                     ; 0x2014 <parse+0xcef>
    20f2: 85 15        	sta	$15                     ; 0x2015 <parse+0xcf0>
    20f4: a5 12        	lda	$12                     ; 0x2012 <parse+0xced>
    20f6: 92 14        	sta	($14)                   ; 0x2014 <parse+0xcef>
    20f8: a0 01        	ldy	#$1
    20fa: a5 13        	lda	$13                     ; 0x2013 <parse+0xcee>
    20fc: 91 14        	sta	($14),y                 ; 0x2014 <parse+0xcef>
    20fe: 86 0f        	stx	$f                      ; 0x200f <parse+0xcea>
    2100: 58           	cli
    2101: 18           	clc
    2102: a5 2e        	lda	$2e                     ; 0x202e <parse+0xd09>
    2104: 69 02        	adc	#$2
    2106: 85 29        	sta	$29                     ; 0x2029 <parse+0xd04>
    2108: a0 18        	ldy	#$18
    210a: b1 10        	lda	($10),y                 ; 0x2010 <parse+0xceb>
    210c: 69 00        	adc	#$0
    210e: 85 28        	sta	$28                     ; 0x2028 <parse+0xd03>
    2110: 88           	dey
    2111: b1 10        	lda	($10),y                 ; 0x2010 <parse+0xceb>
    2113: 69 03        	adc	#$3
    2115: 85 26        	sta	$26                     ; 0x2026 <parse+0xd01>
    2117: a6 68        	ldx	$68                     ; 0x2068 <parse+0xd43>
    2119: 86 1a        	stx	$1a                     ; 0x201a <parse+0xcf5>
    211b: a5 69        	lda	$69                     ; 0x2069 <parse+0xd44>
    211d: a4 6a        	ldy	$6a                     ; 0x206a <parse+0xd45>
    211f: a6 6b        	ldx	$6b                     ; 0x206b <parse+0xd46>
    2121: 84 12        	sty	$12                     ; 0x2012 <parse+0xced>
    2123: 86 13        	stx	$13                     ; 0x2013 <parse+0xcee>
    2125: a6 25        	ldx	$25                     ; 0x2025 <parse+0xd00>
    2127: 86 14        	stx	$14                     ; 0x2014 <parse+0xcef>
    2129: a6 24        	ldx	$24                     ; 0x2024 <parse+0xcff>
    212b: 86 15        	stx	$15                     ; 0x2015 <parse+0xcf0>
    212d: a6 27        	ldx	$27                     ; 0x2027 <parse+0xd02>
    212f: 86 16        	stx	$16                     ; 0x2016 <parse+0xcf1>
    2131: 48           	pha
    2132: a0 12        	ldy	#$12
    2134: b1 10        	lda	($10),y                 ; 0x2010 <parse+0xceb>
    2136: 85 17        	sta	$17                     ; 0x2017 <parse+0xcf2>
    2138: 68           	pla
    2139: aa           	tax
    213a: a5 1a        	lda	$1a                     ; 0x201a <parse+0xcf5>
    213c: 20 3f 3b     	jsr	$3b3f <__mulsi3>
    213f: 48           	pha
    2140: a0 1f        	ldy	#$1f
    2142: b1 10        	lda	($10),y                 ; 0x2010 <parse+0xceb>
    2144: 85 22        	sta	$22                     ; 0x2022 <parse+0xcfd>
    2146: a0 15        	ldy	#$15
    2148: b1 10        	lda	($10),y                 ; 0x2010 <parse+0xceb>
    214a: 85 13        	sta	$13                     ; 0x2013 <parse+0xcee>
    214c: 68           	pla
    214d: 85 14        	sta	$14                     ; 0x2014 <parse+0xcef>
    214f: 86 12        	stx	$12                     ; 0x2012 <parse+0xced>
    2151: a6 29        	ldx	$29                     ; 0x2029 <parse+0xd04>
    2153: 86 18        	stx	$18                     ; 0x2018 <parse+0xcf3>
    2155: a5 28        	lda	$28                     ; 0x2028 <parse+0xd03>
    2157: 85 19        	sta	$19                     ; 0x2019 <parse+0xcf4>
    2159: 06 19        	asl	$19                     ; 0x2019 <parse+0xcf4>
    215b: 26 26        	rol	$26                     ; 0x2026 <parse+0xd01>
    215d: 06 19        	asl	$19                     ; 0x2019 <parse+0xcf4>
    215f: 26 26        	rol	$26                     ; 0x2026 <parse+0xd01>
    2161: 06 19        	asl	$19                     ; 0x2019 <parse+0xcf4>
    2163: 26 26        	rol	$26                     ; 0x2026 <parse+0xd01>
    2165: a6 26        	ldx	$26                     ; 0x2026 <parse+0xd01>
    2167: a4 0f        	ldy	$f                      ; 0x200f <parse+0xcea>
    2169: 84 15        	sty	$15                     ; 0x2015 <parse+0xcf0>
    216b: 78           	sei
    216c: 86 0f        	stx	$f                      ; 0x200f <parse+0xcea>
    216e: 09 e0        	ora	#$e0
    2170: 85 19        	sta	$19                     ; 0x2019 <parse+0xcf4>
    2172: a5 14        	lda	$14                     ; 0x2014 <parse+0xcef>
    2174: 92 18        	sta	($18)                   ; 0x2018 <parse+0xcf3>
    2176: a5 12        	lda	$12                     ; 0x2012 <parse+0xced>
    2178: a0 01        	ldy	#$1
    217a: 91 18        	sta	($18),y                 ; 0x2018 <parse+0xcf3>
    217c: a6 15        	ldx	$15                     ; 0x2015 <parse+0xcf0>
    217e: 86 0f        	stx	$f                      ; 0x200f <parse+0xcea>
    2180: 18           	clc
    2181: a5 2e        	lda	$2e                     ; 0x202e <parse+0xd09>
    2183: 69 04        	adc	#$4
    2185: 85 12        	sta	$12                     ; 0x2012 <parse+0xced>
    2187: a0 18        	ldy	#$18
    2189: b1 10        	lda	($10),y                 ; 0x2010 <parse+0xceb>
    218b: 69 00        	adc	#$0
    218d: a8           	tay
    218e: 5a           	phy
    218f: a0 17        	ldy	#$17
    2191: b1 10        	lda	($10),y                 ; 0x2010 <parse+0xceb>
    2193: 7a           	ply
    2194: 69 03        	adc	#$3
    2196: 84 18        	sty	$18                     ; 0x2018 <parse+0xcf3>
    2198: 06 18        	asl	$18                     ; 0x2018 <parse+0xcf3>
    219a: 2a           	rol
    219b: 06 18        	asl	$18                     ; 0x2018 <parse+0xcf3>
    219d: 2a           	rol
    219e: 06 18        	asl	$18                     ; 0x2018 <parse+0xcf3>
    21a0: 2a           	rol
    21a1: 58           	cli
    21a2: a6 0f        	ldx	$f                      ; 0x200f <parse+0xcea>
    21a4: 78           	sei
    21a5: 85 0f        	sta	$f                      ; 0x200f <parse+0xcea>
    21a7: a5 12        	lda	$12                     ; 0x2012 <parse+0xced>
    21a9: 85 18        	sta	$18                     ; 0x2018 <parse+0xcf3>
    21ab: 98           	tya
    21ac: 09 e0        	ora	#$e0
    21ae: 85 19        	sta	$19                     ; 0x2019 <parse+0xcf4>
    21b0: a9 02        	lda	#$2
    21b2: 92 18        	sta	($18)                   ; 0x2018 <parse+0xcf3>
    21b4: 86 0f        	stx	$f                      ; 0x200f <parse+0xcea>
    21b6: 18           	clc
    21b7: a5 2e        	lda	$2e                     ; 0x202e <parse+0xd09>
    21b9: 69 05        	adc	#$5
    21bb: 85 12        	sta	$12                     ; 0x2012 <parse+0xced>
    21bd: a0 18        	ldy	#$18
    21bf: b1 10        	lda	($10),y                 ; 0x2010 <parse+0xceb>
    21c1: 69 00        	adc	#$0
    21c3: a8           	tay
    21c4: 5a           	phy
    21c5: a0 17        	ldy	#$17
    21c7: b1 10        	lda	($10),y                 ; 0x2010 <parse+0xceb>
    21c9: 7a           	ply
    21ca: 69 03        	adc	#$3
    21cc: 84 18        	sty	$18                     ; 0x2018 <parse+0xcf3>
    21ce: 06 18        	asl	$18                     ; 0x2018 <parse+0xcf3>
    21d0: 2a           	rol
    21d1: 06 18        	asl	$18                     ; 0x2018 <parse+0xcf3>
    21d3: 2a           	rol
    21d4: 06 18        	asl	$18                     ; 0x2018 <parse+0xcf3>
    21d6: 2a           	rol
    21d7: 58           	cli
    21d8: a6 0f        	ldx	$f                      ; 0x200f <parse+0xcea>
    21da: 78           	sei
    21db: 85 0f        	sta	$f                      ; 0x200f <parse+0xcea>
    21dd: a5 12        	lda	$12                     ; 0x2012 <parse+0xced>
    21df: 85 18        	sta	$18                     ; 0x2018 <parse+0xcf3>
    21e1: 98           	tya
    21e2: 09 e0        	ora	#$e0
    21e4: 85 19        	sta	$19                     ; 0x2019 <parse+0xcf4>
    21e6: a0 1a        	ldy	#$1a
    21e8: b1 10        	lda	($10),y                 ; 0x2010 <parse+0xceb>
    21ea: 92 18        	sta	($18)                   ; 0x2018 <parse+0xcf3>
    21ec: 86 0f        	stx	$f                      ; 0x200f <parse+0xcea>
    21ee: 18           	clc
    21ef: a5 2e        	lda	$2e                     ; 0x202e <parse+0xd09>
    21f1: 69 06        	adc	#$6
    21f3: 85 12        	sta	$12                     ; 0x2012 <parse+0xced>
    21f5: a0 18        	ldy	#$18
    21f7: b1 10        	lda	($10),y                 ; 0x2010 <parse+0xceb>
    21f9: 69 00        	adc	#$0
    21fb: a8           	tay
    21fc: 5a           	phy
    21fd: a0 17        	ldy	#$17
    21ff: b1 10        	lda	($10),y                 ; 0x2010 <parse+0xceb>
    2201: 7a           	ply
    2202: 69 03        	adc	#$3
    2204: 84 18        	sty	$18                     ; 0x2018 <parse+0xcf3>
    2206: 06 18        	asl	$18                     ; 0x2018 <parse+0xcf3>
    2208: 2a           	rol
    2209: 06 18        	asl	$18                     ; 0x2018 <parse+0xcf3>
    220b: 2a           	rol
    220c: 06 18        	asl	$18                     ; 0x2018 <parse+0xcf3>
    220e: 2a           	rol
    220f: 58           	cli
    2210: a6 0f        	ldx	$f                      ; 0x200f <parse+0xcea>
    2212: 78           	sei
    2213: 85 0f        	sta	$f                      ; 0x200f <parse+0xcea>
    2215: a5 12        	lda	$12                     ; 0x2012 <parse+0xced>
    2217: 85 18        	sta	$18                     ; 0x2018 <parse+0xcf3>
    2219: 98           	tya
    221a: 09 e0        	ora	#$e0
    221c: 85 19        	sta	$19                     ; 0x2019 <parse+0xcf4>
    221e: a5 2d        	lda	$2d                     ; 0x202d <parse+0xd08>
    2220: 92 18        	sta	($18)                   ; 0x2018 <parse+0xcf3>
    2222: 86 0f        	stx	$f                      ; 0x200f <parse+0xcea>
    2224: 58           	cli
    2225: 18           	clc
    2226: a5 2e        	lda	$2e                     ; 0x202e <parse+0xd09>
    2228: 69 07        	adc	#$7
    222a: 85 18        	sta	$18                     ; 0x2018 <parse+0xcf3>
    222c: a0 18        	ldy	#$18
    222e: b1 10        	lda	($10),y                 ; 0x2010 <parse+0xceb>
    2230: 69 00        	adc	#$0
    2232: 85 16        	sta	$16                     ; 0x2016 <parse+0xcf1>
    2234: 88           	dey
    2235: b1 10        	lda	($10),y                 ; 0x2010 <parse+0xceb>
    2237: 69 03        	adc	#$3
    2239: 85 15        	sta	$15                     ; 0x2015 <parse+0xcf0>
    223b: a5 16        	lda	$16                     ; 0x2016 <parse+0xcf1>
    223d: 0a           	asl
    223e: 26 15        	rol	$15                     ; 0x2015 <parse+0xcf0>
    2240: 0a           	asl
    2241: 26 15        	rol	$15                     ; 0x2015 <parse+0xcf0>
    2243: 0a           	asl
    2244: a5 15        	lda	$15                     ; 0x2015 <parse+0xcf0>
    2246: 2a           	rol
    2247: a6 0f        	ldx	$f                      ; 0x200f <parse+0xcea>
    2249: 78           	sei
    224a: 85 0f        	sta	$f                      ; 0x200f <parse+0xcea>
    224c: a5 16        	lda	$16                     ; 0x2016 <parse+0xcf1>
    224e: 09 e0        	ora	#$e0
    2250: 85 19        	sta	$19                     ; 0x2019 <parse+0xcf4>
    2252: a9 00        	lda	#$0
    2254: 92 18        	sta	($18)                   ; 0x2018 <parse+0xcf3>
    2256: 86 0f        	stx	$f                      ; 0x200f <parse+0xcea>
    2258: 58           	cli
    2259: 18           	clc
    225a: a0 13        	ldy	#$13
    225c: b1 10        	lda	($10),y                 ; 0x2010 <parse+0xceb>
    225e: 65 6f        	adc	$6f                     ; 0x206f <parse+0xd4a>
    2260: 85 15        	sta	$15                     ; 0x2015 <parse+0xcf0>
    2262: c8           	iny
    2263: b1 10        	lda	($10),y                 ; 0x2010 <parse+0xceb>
    2265: 65 70        	adc	$70                     ; 0x2070 <parse+0xd4b>
    2267: aa           	tax
    2268: 18           	clc
    2269: a5 15        	lda	$15                     ; 0x2015 <parse+0xcf0>
    226b: 69 03        	adc	#$3
    226d: 85 18        	sta	$18                     ; 0x2018 <parse+0xcf3>
    226f: 8a           	txa
    2270: 69 00        	adc	#$0
    2272: 85 19        	sta	$19                     ; 0x2019 <parse+0xcf4>
    2274: 4c 55 27     	jmp	$2755 <parse+0x1430>
    2277: 38           	sec
    2278: e9 51        	sbc	#$51
    227a: c9 09        	cmp	#$9
    227c: 90 03        	bcc	$2281 <parse+0xf5c>
    227e: 4c 8d 1d     	jmp	$1d8d <parse+0xa68>
    2281: 0a           	asl
    2282: aa           	tax
    2283: 7c ef 5a     	jmp	($5aef,x)               ; 0x5aef <__set_v+0x11>
    2286: 18           	clc
    2287: a5 2b        	lda	$2b                     ; 0x202b <parse+0xd06>
    2289: 69 01        	adc	#$1
    228b: 85 12        	sta	$12                     ; 0x2012 <parse+0xced>
    228d: a5 2a        	lda	$2a                     ; 0x202a <parse+0xd05>
    228f: 69 00        	adc	#$0
    2291: 85 14        	sta	$14                     ; 0x2014 <parse+0xcef>
    2293: a5 2f        	lda	$2f                     ; 0x202f <parse+0xd0a>
    2295: 69 01        	adc	#$1
    2297: a6 0f        	ldx	$f                      ; 0x200f <parse+0xcea>
    2299: 78           	sei
    229a: a4 14        	ldy	$14                     ; 0x2014 <parse+0xcef>
    229c: 84 18        	sty	$18                     ; 0x2018 <parse+0xcf3>
    229e: 06 18        	asl	$18                     ; 0x2018 <parse+0xcf3>
    22a0: 2a           	rol
    22a1: 06 18        	asl	$18                     ; 0x2018 <parse+0xcf3>
    22a3: 2a           	rol
    22a4: 06 18        	asl	$18                     ; 0x2018 <parse+0xcf3>
    22a6: 2a           	rol
    22a7: 85 0f        	sta	$f                      ; 0x200f <parse+0xcea>
    22a9: a5 14        	lda	$14                     ; 0x2014 <parse+0xcef>
    22ab: 09 e0        	ora	#$e0
    22ad: a4 12        	ldy	$12                     ; 0x2012 <parse+0xced>
    22af: 84 18        	sty	$18                     ; 0x2018 <parse+0xcf3>
    22b1: 85 19        	sta	$19                     ; 0x2019 <parse+0xcf4>
    22b3: b2 18        	lda	($18)                   ; 0x2018 <parse+0xcf3>
    22b5: 86 0f        	stx	$f                      ; 0x200f <parse+0xcea>
    22b7: 58           	cli
    22b8: 18           	clc
    22b9: a5 2b        	lda	$2b                     ; 0x202b <parse+0xd06>
    22bb: 69 02        	adc	#$2
    22bd: 85 12        	sta	$12                     ; 0x2012 <parse+0xced>
    22bf: a5 2a        	lda	$2a                     ; 0x202a <parse+0xd05>
    22c1: 69 00        	adc	#$0
    22c3: 85 14        	sta	$14                     ; 0x2014 <parse+0xcef>
    22c5: a5 2f        	lda	$2f                     ; 0x202f <parse+0xd0a>
    22c7: 69 01        	adc	#$1
    22c9: a6 0f        	ldx	$f                      ; 0x200f <parse+0xcea>
    22cb: 78           	sei
    22cc: a4 14        	ldy	$14                     ; 0x2014 <parse+0xcef>
    22ce: 84 18        	sty	$18                     ; 0x2018 <parse+0xcf3>
    22d0: 06 18        	asl	$18                     ; 0x2018 <parse+0xcf3>
    22d2: 2a           	rol
    22d3: 06 18        	asl	$18                     ; 0x2018 <parse+0xcf3>
    22d5: 2a           	rol
    22d6: 06 18        	asl	$18                     ; 0x2018 <parse+0xcf3>
    22d8: 2a           	rol
    22d9: 85 0f        	sta	$f                      ; 0x200f <parse+0xcea>
    22db: a5 14        	lda	$14                     ; 0x2014 <parse+0xcef>
    22dd: 09 e0        	ora	#$e0
    22df: a4 12        	ldy	$12                     ; 0x2012 <parse+0xced>
    22e1: 84 18        	sty	$18                     ; 0x2018 <parse+0xcf3>
    22e3: 85 19        	sta	$19                     ; 0x2019 <parse+0xcf4>
    22e5: b2 18        	lda	($18)                   ; 0x2018 <parse+0xcf3>
    22e7: 85 12        	sta	$12                     ; 0x2012 <parse+0xced>
    22e9: 86 0f        	stx	$f                      ; 0x200f <parse+0xcea>
    22eb: 58           	cli
    22ec: 18           	clc
    22ed: a5 2b        	lda	$2b                     ; 0x202b <parse+0xd06>
    22ef: 69 03        	adc	#$3
    22f1: 85 14        	sta	$14                     ; 0x2014 <parse+0xcef>
    22f3: a5 2a        	lda	$2a                     ; 0x202a <parse+0xd05>
    22f5: 69 00        	adc	#$0
    22f7: 85 15        	sta	$15                     ; 0x2015 <parse+0xcf0>
    22f9: a5 2f        	lda	$2f                     ; 0x202f <parse+0xd0a>
    22fb: 69 01        	adc	#$1
    22fd: a6 0f        	ldx	$f                      ; 0x200f <parse+0xcea>
    22ff: 78           	sei
    2300: a4 15        	ldy	$15                     ; 0x2015 <parse+0xcf0>
    2302: 84 18        	sty	$18                     ; 0x2018 <parse+0xcf3>
    2304: 06 18        	asl	$18                     ; 0x2018 <parse+0xcf3>
    2306: 2a           	rol
    2307: 06 18        	asl	$18                     ; 0x2018 <parse+0xcf3>
    2309: 2a           	rol
    230a: 06 18        	asl	$18                     ; 0x2018 <parse+0xcf3>
    230c: 2a           	rol
    230d: 85 0f        	sta	$f                      ; 0x200f <parse+0xcea>
    230f: a5 15        	lda	$15                     ; 0x2015 <parse+0xcf0>
    2311: 09 e0        	ora	#$e0
    2313: a4 14        	ldy	$14                     ; 0x2014 <parse+0xcef>
    2315: 84 18        	sty	$18                     ; 0x2018 <parse+0xcf3>
    2317: 85 19        	sta	$19                     ; 0x2019 <parse+0xcf4>
    2319: b2 18        	lda	($18)                   ; 0x2018 <parse+0xcf3>
    231b: 85 16        	sta	$16                     ; 0x2016 <parse+0xcf1>
    231d: 86 0f        	stx	$f                      ; 0x200f <parse+0xcea>
    231f: 58           	cli
    2320: 18           	clc
    2321: a5 2b        	lda	$2b                     ; 0x202b <parse+0xd06>
    2323: 69 04        	adc	#$4
    2325: 85 14        	sta	$14                     ; 0x2014 <parse+0xcef>
    2327: a5 2a        	lda	$2a                     ; 0x202a <parse+0xd05>
    2329: 69 00        	adc	#$0
    232b: 85 15        	sta	$15                     ; 0x2015 <parse+0xcf0>
    232d: a5 2f        	lda	$2f                     ; 0x202f <parse+0xd0a>
    232f: 69 01        	adc	#$1
    2331: a6 15        	ldx	$15                     ; 0x2015 <parse+0xcf0>
    2333: 86 18        	stx	$18                     ; 0x2018 <parse+0xcf3>
    2335: 06 18        	asl	$18                     ; 0x2018 <parse+0xcf3>
    2337: 2a           	rol
    2338: 06 18        	asl	$18                     ; 0x2018 <parse+0xcf3>
    233a: 2a           	rol
    233b: 06 18        	asl	$18                     ; 0x2018 <parse+0xcf3>
    233d: 2a           	rol
    233e: a6 0f        	ldx	$f                      ; 0x200f <parse+0xcea>
    2340: 78           	sei
    2341: 85 0f        	sta	$f                      ; 0x200f <parse+0xcea>
    2343: a5 15        	lda	$15                     ; 0x2015 <parse+0xcf0>
    2345: 09 e0        	ora	#$e0
    2347: a4 14        	ldy	$14                     ; 0x2014 <parse+0xcef>
    2349: 84 18        	sty	$18                     ; 0x2018 <parse+0xcf3>
    234b: 85 19        	sta	$19                     ; 0x2019 <parse+0xcf4>
    234d: b2 18        	lda	($18)                   ; 0x2018 <parse+0xcf3>
    234f: 85 17        	sta	$17                     ; 0x2017 <parse+0xcf2>
    2351: 86 0f        	stx	$f                      ; 0x200f <parse+0xcea>
    2353: 18           	clc
    2354: a5 2b        	lda	$2b                     ; 0x202b <parse+0xd06>
    2356: 69 05        	adc	#$5
    2358: 85 2b        	sta	$2b                     ; 0x202b <parse+0xd06>
    235a: a5 2a        	lda	$2a                     ; 0x202a <parse+0xd05>
    235c: 69 00        	adc	#$0
    235e: 85 24        	sta	$24                     ; 0x2024 <parse+0xcff>
    2360: a5 2f        	lda	$2f                     ; 0x202f <parse+0xd0a>
    2362: 69 00        	adc	#$0
    2364: 85 25        	sta	$25                     ; 0x2025 <parse+0xd00>
    2366: a5 2c        	lda	$2c                     ; 0x202c <parse+0xd07>
    2368: 69 00        	adc	#$0
    236a: 85 27        	sta	$27                     ; 0x2027 <parse+0xd02>
    236c: 58           	cli
    236d: a5 13        	lda	$13                     ; 0x2013 <parse+0xcee>
    236f: a0 15        	ldy	#$15
    2371: 91 10        	sta	($10),y                 ; 0x2010 <parse+0xceb>
    2373: 64 13        	stz	$13                     ; 0x2013 <parse+0xcee>
    2375: a6 16        	ldx	$16                     ; 0x2016 <parse+0xcf1>
    2377: a5 17        	lda	$17                     ; 0x2017 <parse+0xcf2>
    2379: 20 5a 58     	jsr	$585a <__floatunsidf>
    237c: 85 18        	sta	$18                     ; 0x2018 <parse+0xcf3>
    237e: 86 19        	stx	$19                     ; 0x2019 <parse+0xcf4>
    2380: a6 12        	ldx	$12                     ; 0x2012 <parse+0xced>
    2382: 86 1a        	stx	$1a                     ; 0x201a <parse+0xcf5>
    2384: a4 13        	ldy	$13                     ; 0x2013 <parse+0xcee>
    2386: a5 14        	lda	$14                     ; 0x2014 <parse+0xcef>
    2388: a6 15        	ldx	$15                     ; 0x2015 <parse+0xcf0>
    238a: 86 1d        	stx	$1d                     ; 0x201d <parse+0xcf8>
    238c: a6 16        	ldx	$16                     ; 0x2016 <parse+0xcf1>
    238e: 86 1e        	stx	$1e                     ; 0x201e <parse+0xcf9>
    2390: a6 17        	ldx	$17                     ; 0x2017 <parse+0xcf2>
    2392: 86 1f        	stx	$1f                     ; 0x201f <parse+0xcfa>
    2394: 64 12        	stz	$12                     ; 0x2012 <parse+0xced>
    2396: 64 13        	stz	$13                     ; 0x2013 <parse+0xcee>
    2398: a2 38        	ldx	#$38
    239a: 86 14        	stx	$14                     ; 0x2014 <parse+0xcef>
    239c: a2 9c        	ldx	#$9c
    239e: 86 15        	stx	$15                     ; 0x2015 <parse+0xcf0>
    23a0: a2 8c        	ldx	#$8c
    23a2: 86 16        	stx	$16                     ; 0x2016 <parse+0xcf1>
    23a4: a2 41        	ldx	#$41
    23a6: 86 17        	stx	$17                     ; 0x2017 <parse+0xcf2>
    23a8: 84 1b        	sty	$1b                     ; 0x201b <parse+0xcf6>
    23aa: 85 1c        	sta	$1c                     ; 0x201c <parse+0xcf7>
    23ac: a2 00        	ldx	#$0
    23ae: 8a           	txa
    23af: 20 16 3e     	jsr	$3e16 <__divdf3>
    23b2: 20 d7 57     	jsr	$57d7 <__fixunsdfsi>
    23b5: 85 14        	sta	$14                     ; 0x2014 <parse+0xcef>
    23b7: 86 15        	stx	$15                     ; 0x2015 <parse+0xcf0>
    23b9: a2 c3        	ldx	#$c3
    23bb: 86 12        	stx	$12                     ; 0x2012 <parse+0xced>
    23bd: a2 23        	ldx	#$23
    23bf: 86 13        	stx	$13                     ; 0x2013 <parse+0xcee>
    23c1: 64 16        	stz	$16                     ; 0x2016 <parse+0xcf1>
    23c3: 64 17        	stz	$17                     ; 0x2017 <parse+0xcf2>
    23c5: a2 46        	ldx	#$46
    23c7: a9 00        	lda	#$0
    23c9: 20 a7 3c     	jsr	$3ca7 <__udivsi3>
    23cc: 48           	pha
    23cd: a0 19        	ldy	#$19
    23cf: b1 10        	lda	($10),y                 ; 0x2010 <parse+0xceb>
    23d1: 85 14        	sta	$14                     ; 0x2014 <parse+0xcef>
    23d3: 68           	pla
    23d4: 64 15        	stz	$15                     ; 0x2015 <parse+0xcf0>
    23d6: 64 16        	stz	$16                     ; 0x2016 <parse+0xcf1>
    23d8: 64 17        	stz	$17                     ; 0x2017 <parse+0xcf2>
    23da: 20 a7 3c     	jsr	$3ca7 <__udivsi3>
    23dd: a4 12        	ldy	$12                     ; 0x2012 <parse+0xced>
    23df: 48           	pha
    23e0: a5 13        	lda	$13                     ; 0x2013 <parse+0xcee>
    23e2: 85 12        	sta	$12                     ; 0x2012 <parse+0xced>
    23e4: 68           	pla
    23e5: 48           	pha
    23e6: 5a           	phy
    23e7: a0 15        	ldy	#$15
    23e9: b1 10        	lda	($10),y                 ; 0x2010 <parse+0xceb>
    23eb: 7a           	ply
    23ec: 85 13        	sta	$13                     ; 0x2013 <parse+0xcee>
    23ee: 68           	pla
    23ef: 85 68        	sta	$68                     ; 0x2068 <parse+0xd43>
    23f1: 86 69        	stx	$69                     ; 0x2069 <parse+0xd44>
    23f3: 84 6a        	sty	$6a                     ; 0x206a <parse+0xd45>
    23f5: a0 1f        	ldy	#$1f
    23f7: b1 10        	lda	($10),y                 ; 0x2010 <parse+0xceb>
    23f9: 85 22        	sta	$22                     ; 0x2022 <parse+0xcfd>
    23fb: a6 12        	ldx	$12                     ; 0x2012 <parse+0xced>
    23fd: 86 6b        	stx	$6b                     ; 0x206b <parse+0xd46>
    23ff: a2 ff        	ldx	#$ff
    2401: 8a           	txa
    2402: a0 1a        	ldy	#$1a
    2404: 91 10        	sta	($10),y                 ; 0x2010 <parse+0xceb>
    2406: a6 24        	ldx	$24                     ; 0x2024 <parse+0xcff>
    2408: 86 1b        	stx	$1b                     ; 0x201b <parse+0xcf6>
    240a: a6 25        	ldx	$25                     ; 0x2025 <parse+0xd00>
    240c: 86 2f        	stx	$2f                     ; 0x202f <parse+0xd0a>
    240e: a5 27        	lda	$27                     ; 0x2027 <parse+0xd02>
    2410: 4c cb 19     	jmp	$19cb <parse+0x6a6>
    2413: e0 00        	cpx	#$0
    2415: 30 0d        	bmi	$2424 <parse+0x10ff>
    2417: a6 2a        	ldx	$2a                     ; 0x202a <parse+0xd05>
    2419: 86 1b        	stx	$1b                     ; 0x201b <parse+0xcf6>
    241b: a5 2c        	lda	$2c                     ; 0x202c <parse+0xd07>
    241d: 4c cb 19     	jmp	$19cb <parse+0x6a6>
    2420: e0 f0        	cpx	#$f0
    2422: b0 f3        	bcs	$2417 <parse+0x10f2>
    2424: 85 1c        	sta	$1c                     ; 0x201c <parse+0xcf7>
    2426: a6 6f        	ldx	$6f                     ; 0x206f <parse+0xd4a>
    2428: 86 17        	stx	$17                     ; 0x2017 <parse+0xcf2>
    242a: a6 70        	ldx	$70                     ; 0x2070 <parse+0xd4b>
    242c: 86 16        	stx	$16                     ; 0x2016 <parse+0xcf1>
    242e: a0 1c        	ldy	#$1c
    2430: b1 10        	lda	($10),y                 ; 0x2010 <parse+0xceb>
    2432: d0 03        	bne	$2437 <parse+0x1112>
    2434: 4c cc 26     	jmp	$26cc <parse+0x13a7>
    2437: a5 18        	lda	$18                     ; 0x2018 <parse+0xcf3>
    2439: 48           	pha
    243a: a0 21        	ldy	#$21
    243c: b1 10        	lda	($10),y                 ; 0x2010 <parse+0xceb>
    243e: 85 12        	sta	$12                     ; 0x2012 <parse+0xced>
    2440: 68           	pla
    2441: 18           	clc
    2442: 65 12        	adc	$12                     ; 0x2012 <parse+0xced>
    2444: a0 13        	ldy	#$13
    2446: 91 10        	sta	($10),y                 ; 0x2010 <parse+0xceb>
    2448: 85 18        	sta	$18                     ; 0x2018 <parse+0xcf3>
    244a: a5 1c        	lda	$1c                     ; 0x201c <parse+0xcf7>
    244c: 48           	pha
    244d: a0 20        	ldy	#$20
    244f: b1 10        	lda	($10),y                 ; 0x2010 <parse+0xceb>
    2451: 85 12        	sta	$12                     ; 0x2012 <parse+0xced>
    2453: 68           	pla
    2454: 65 12        	adc	$12                     ; 0x2012 <parse+0xced>
    2456: a0 14        	ldy	#$14
    2458: 91 10        	sta	($10),y                 ; 0x2010 <parse+0xceb>
    245a: a5 17        	lda	$17                     ; 0x2017 <parse+0xcf2>
    245c: 18           	clc
    245d: 65 18        	adc	$18                     ; 0x2018 <parse+0xcf3>
    245f: aa           	tax
    2460: b1 10        	lda	($10),y                 ; 0x2010 <parse+0xceb>
    2462: 85 18        	sta	$18                     ; 0x2018 <parse+0xcf3>
    2464: a5 16        	lda	$16                     ; 0x2016 <parse+0xcf1>
    2466: 65 18        	adc	$18                     ; 0x2018 <parse+0xcf3>
    2468: 86 1a        	stx	$1a                     ; 0x201a <parse+0xcf5>
    246a: 85 1b        	sta	$1b                     ; 0x201b <parse+0xcf6>
    246c: a8           	tay
    246d: 18           	clc
    246e: 8a           	txa
    246f: 69 05        	adc	#$5
    2471: 85 1c        	sta	$1c                     ; 0x201c <parse+0xcf7>
    2473: 98           	tya
    2474: 69 00        	adc	#$0
    2476: 85 1d        	sta	$1d                     ; 0x201d <parse+0xcf8>
    2478: 18           	clc
    2479: 8a           	txa
    247a: 69 03        	adc	#$3
    247c: 85 1e        	sta	$1e                     ; 0x201e <parse+0xcf9>
    247e: 98           	tya
    247f: 69 00        	adc	#$0
    2481: 85 1f        	sta	$1f                     ; 0x201f <parse+0xcfa>
    2483: a0 03        	ldy	#$3
    2485: b1 1a        	lda	($1a),y                 ; 0x201a <parse+0xcf5>
    2487: aa           	tax
    2488: a0 01        	ldy	#$1
    248a: b1 1e        	lda	($1e),y                 ; 0x201e <parse+0xcf9>
    248c: 85 12        	sta	$12                     ; 0x2012 <parse+0xced>
    248e: 8a           	txa
    248f: 0a           	asl
    2490: 26 12        	rol	$12                     ; 0x2012 <parse+0xced>
    2492: 64 15        	stz	$15                     ; 0x2015 <parse+0xcf0>
    2494: 26 15        	rol	$15                     ; 0x2015 <parse+0xcf0>
    2496: 0a           	asl
    2497: 26 12        	rol	$12                     ; 0x2012 <parse+0xced>
    2499: 26 15        	rol	$15                     ; 0x2015 <parse+0xcf0>
    249b: 0a           	asl
    249c: 26 12        	rol	$12                     ; 0x2012 <parse+0xced>
    249e: 26 15        	rol	$15                     ; 0x2015 <parse+0xcf0>
    24a0: 18           	clc
    24a1: a0 05        	ldy	#$5
    24a3: 71 1a        	adc	($1a),y                 ; 0x201a <parse+0xcf5>
    24a5: a0 17        	ldy	#$17
    24a7: 91 10        	sta	($10),y                 ; 0x2010 <parse+0xceb>
    24a9: a0 01        	ldy	#$1
    24ab: a5 12        	lda	$12                     ; 0x2012 <parse+0xced>
    24ad: 71 1c        	adc	($1c),y                 ; 0x201c <parse+0xcf7>
    24af: a0 18        	ldy	#$18
    24b1: 91 10        	sta	($10),y                 ; 0x2010 <parse+0xceb>
    24b3: a0 02        	ldy	#$2
    24b5: a5 15        	lda	$15                     ; 0x2015 <parse+0xcf0>
    24b7: 71 1c        	adc	($1c),y                 ; 0x201c <parse+0xcf7>
    24b9: a0 16        	ldy	#$16
    24bb: 91 10        	sta	($10),y                 ; 0x2010 <parse+0xceb>
    24bd: 18           	clc
    24be: c8           	iny
    24bf: b1 10        	lda	($10),y                 ; 0x2010 <parse+0xceb>
    24c1: 69 00        	adc	#$0
    24c3: c8           	iny
    24c4: b1 10        	lda	($10),y                 ; 0x2010 <parse+0xceb>
    24c6: 69 00        	adc	#$0
    24c8: 85 26        	sta	$26                     ; 0x2026 <parse+0xd01>
    24ca: a0 16        	ldy	#$16
    24cc: b1 10        	lda	($10),y                 ; 0x2010 <parse+0xceb>
    24ce: 69 03        	adc	#$3
    24d0: 85 28        	sta	$28                     ; 0x2028 <parse+0xd03>
    24d2: a6 68        	ldx	$68                     ; 0x2068 <parse+0xd43>
    24d4: 86 1c        	stx	$1c                     ; 0x201c <parse+0xcf7>
    24d6: a5 69        	lda	$69                     ; 0x2069 <parse+0xd44>
    24d8: a4 6a        	ldy	$6a                     ; 0x206a <parse+0xd45>
    24da: a6 6b        	ldx	$6b                     ; 0x206b <parse+0xd46>
    24dc: 84 12        	sty	$12                     ; 0x2012 <parse+0xced>
    24de: 48           	pha
    24df: a5 13        	lda	$13                     ; 0x2013 <parse+0xcee>
    24e1: a0 15        	ldy	#$15
    24e3: 91 10        	sta	($10),y                 ; 0x2010 <parse+0xceb>
    24e5: 86 13        	stx	$13                     ; 0x2013 <parse+0xcee>
    24e7: a6 25        	ldx	$25                     ; 0x2025 <parse+0xd00>
    24e9: 86 14        	stx	$14                     ; 0x2014 <parse+0xcef>
    24eb: a6 24        	ldx	$24                     ; 0x2024 <parse+0xcff>
    24ed: 86 15        	stx	$15                     ; 0x2015 <parse+0xcf0>
    24ef: a6 27        	ldx	$27                     ; 0x2027 <parse+0xd02>
    24f1: 86 16        	stx	$16                     ; 0x2016 <parse+0xcf1>
    24f3: a6 19        	ldx	$19                     ; 0x2019 <parse+0xcf4>
    24f5: 8a           	txa
    24f6: a0 12        	ldy	#$12
    24f8: 91 10        	sta	($10),y                 ; 0x2010 <parse+0xceb>
    24fa: 68           	pla
    24fb: 86 17        	stx	$17                     ; 0x2017 <parse+0xcf2>
    24fd: aa           	tax
    24fe: a5 1c        	lda	$1c                     ; 0x201c <parse+0xcf7>
    2500: 20 3f 3b     	jsr	$3b3f <__mulsi3>
    2503: a4 12        	ldy	$12                     ; 0x2012 <parse+0xced>
    2505: a6 13        	ldx	$13                     ; 0x2013 <parse+0xcee>
    2507: 86 14        	stx	$14                     ; 0x2014 <parse+0xcef>
    2509: a6 0f        	ldx	$f                      ; 0x200f <parse+0xcea>
    250b: 78           	sei
    250c: 06 26        	asl	$26                     ; 0x2026 <parse+0xd01>
    250e: a5 28        	lda	$28                     ; 0x2028 <parse+0xd03>
    2510: 2a           	rol
    2511: 06 26        	asl	$26                     ; 0x2026 <parse+0xd01>
    2513: 2a           	rol
    2514: 06 26        	asl	$26                     ; 0x2026 <parse+0xd01>
    2516: 2a           	rol
    2517: 85 0f        	sta	$f                      ; 0x200f <parse+0xcea>
    2519: 84 21        	sty	$21                     ; 0x2021 <parse+0xcfc>
    251b: a0 18        	ldy	#$18
    251d: b1 10        	lda	($10),y                 ; 0x2010 <parse+0xceb>
    251f: 09 e0        	ora	#$e0
    2521: 48           	pha
    2522: 88           	dey
    2523: b1 10        	lda	($10),y                 ; 0x2010 <parse+0xceb>
    2525: a4 21        	ldy	$21                     ; 0x2021 <parse+0xcfc>
    2527: 85 12        	sta	$12                     ; 0x2012 <parse+0xced>
    2529: 68           	pla
    252a: 85 13        	sta	$13                     ; 0x2013 <parse+0xcee>
    252c: 98           	tya
    252d: 92 12        	sta	($12)                   ; 0x2012 <parse+0xced>
    252f: a0 01        	ldy	#$1
    2531: a5 14        	lda	$14                     ; 0x2014 <parse+0xcef>
    2533: 91 12        	sta	($12),y                 ; 0x2012 <parse+0xced>
    2535: 86 0f        	stx	$f                      ; 0x200f <parse+0xcea>
    2537: 58           	cli
    2538: 18           	clc
    2539: a0 17        	ldy	#$17
    253b: b1 10        	lda	($10),y                 ; 0x2010 <parse+0xceb>
    253d: 69 02        	adc	#$2
    253f: 85 29        	sta	$29                     ; 0x2029 <parse+0xd04>
    2541: c8           	iny
    2542: b1 10        	lda	($10),y                 ; 0x2010 <parse+0xceb>
    2544: 69 00        	adc	#$0
    2546: 85 26        	sta	$26                     ; 0x2026 <parse+0xd01>
    2548: a0 16        	ldy	#$16
    254a: b1 10        	lda	($10),y                 ; 0x2010 <parse+0xceb>
    254c: 69 03        	adc	#$3
    254e: 85 28        	sta	$28                     ; 0x2028 <parse+0xd03>
    2550: a6 68        	ldx	$68                     ; 0x2068 <parse+0xd43>
    2552: 86 1a        	stx	$1a                     ; 0x201a <parse+0xcf5>
    2554: a5 69        	lda	$69                     ; 0x2069 <parse+0xd44>
    2556: a4 6a        	ldy	$6a                     ; 0x206a <parse+0xd45>
    2558: a6 6b        	ldx	$6b                     ; 0x206b <parse+0xd46>
    255a: 84 12        	sty	$12                     ; 0x2012 <parse+0xced>
    255c: 86 13        	stx	$13                     ; 0x2013 <parse+0xcee>
    255e: a6 25        	ldx	$25                     ; 0x2025 <parse+0xd00>
    2560: 86 14        	stx	$14                     ; 0x2014 <parse+0xcef>
    2562: a6 24        	ldx	$24                     ; 0x2024 <parse+0xcff>
    2564: 86 15        	stx	$15                     ; 0x2015 <parse+0xcf0>
    2566: a6 27        	ldx	$27                     ; 0x2027 <parse+0xd02>
    2568: 86 16        	stx	$16                     ; 0x2016 <parse+0xcf1>
    256a: 48           	pha
    256b: a0 12        	ldy	#$12
    256d: b1 10        	lda	($10),y                 ; 0x2010 <parse+0xceb>
    256f: 85 17        	sta	$17                     ; 0x2017 <parse+0xcf2>
    2571: 68           	pla
    2572: aa           	tax
    2573: a5 1a        	lda	$1a                     ; 0x201a <parse+0xcf5>
    2575: 20 3f 3b     	jsr	$3b3f <__mulsi3>
    2578: 48           	pha
    2579: a0 1f        	ldy	#$1f
    257b: b1 10        	lda	($10),y                 ; 0x2010 <parse+0xceb>
    257d: 85 22        	sta	$22                     ; 0x2022 <parse+0xcfd>
    257f: a0 15        	ldy	#$15
    2581: b1 10        	lda	($10),y                 ; 0x2010 <parse+0xceb>
    2583: 85 13        	sta	$13                     ; 0x2013 <parse+0xcee>
    2585: 68           	pla
    2586: 85 15        	sta	$15                     ; 0x2015 <parse+0xcf0>
    2588: 86 12        	stx	$12                     ; 0x2012 <parse+0xced>
    258a: a6 29        	ldx	$29                     ; 0x2029 <parse+0xd04>
    258c: 86 18        	stx	$18                     ; 0x2018 <parse+0xcf3>
    258e: a5 26        	lda	$26                     ; 0x2026 <parse+0xd01>
    2590: 85 19        	sta	$19                     ; 0x2019 <parse+0xcf4>
    2592: 06 19        	asl	$19                     ; 0x2019 <parse+0xcf4>
    2594: 26 28        	rol	$28                     ; 0x2028 <parse+0xd03>
    2596: 06 19        	asl	$19                     ; 0x2019 <parse+0xcf4>
    2598: 26 28        	rol	$28                     ; 0x2028 <parse+0xd03>
    259a: 06 19        	asl	$19                     ; 0x2019 <parse+0xcf4>
    259c: 26 28        	rol	$28                     ; 0x2028 <parse+0xd03>
    259e: a6 28        	ldx	$28                     ; 0x2028 <parse+0xd03>
    25a0: a4 0f        	ldy	$f                      ; 0x200f <parse+0xcea>
    25a2: 84 14        	sty	$14                     ; 0x2014 <parse+0xcef>
    25a4: 78           	sei
    25a5: 86 0f        	stx	$f                      ; 0x200f <parse+0xcea>
    25a7: 09 e0        	ora	#$e0
    25a9: 85 19        	sta	$19                     ; 0x2019 <parse+0xcf4>
    25ab: a5 15        	lda	$15                     ; 0x2015 <parse+0xcf0>
    25ad: 92 18        	sta	($18)                   ; 0x2018 <parse+0xcf3>
    25af: a0 01        	ldy	#$1
    25b1: a5 12        	lda	$12                     ; 0x2012 <parse+0xced>
    25b3: 91 18        	sta	($18),y                 ; 0x2018 <parse+0xcf3>
    25b5: a6 14        	ldx	$14                     ; 0x2014 <parse+0xcef>
    25b7: 86 0f        	stx	$f                      ; 0x200f <parse+0xcea>
    25b9: 18           	clc
    25ba: a0 17        	ldy	#$17
    25bc: b1 10        	lda	($10),y                 ; 0x2010 <parse+0xceb>
    25be: 69 04        	adc	#$4
    25c0: 85 12        	sta	$12                     ; 0x2012 <parse+0xced>
    25c2: c8           	iny
    25c3: b1 10        	lda	($10),y                 ; 0x2010 <parse+0xceb>
    25c5: 69 00        	adc	#$0
    25c7: a8           	tay
    25c8: 5a           	phy
    25c9: a0 16        	ldy	#$16
    25cb: b1 10        	lda	($10),y                 ; 0x2010 <parse+0xceb>
    25cd: 7a           	ply
    25ce: 69 03        	adc	#$3
    25d0: 84 18        	sty	$18                     ; 0x2018 <parse+0xcf3>
    25d2: 06 18        	asl	$18                     ; 0x2018 <parse+0xcf3>
    25d4: 2a           	rol
    25d5: 06 18        	asl	$18                     ; 0x2018 <parse+0xcf3>
    25d7: 2a           	rol
    25d8: 06 18        	asl	$18                     ; 0x2018 <parse+0xcf3>
    25da: 2a           	rol
    25db: 58           	cli
    25dc: a6 0f        	ldx	$f                      ; 0x200f <parse+0xcea>
    25de: 78           	sei
    25df: 85 0f        	sta	$f                      ; 0x200f <parse+0xcea>
    25e1: a5 12        	lda	$12                     ; 0x2012 <parse+0xced>
    25e3: 85 18        	sta	$18                     ; 0x2018 <parse+0xcf3>
    25e5: 98           	tya
    25e6: 09 e0        	ora	#$e0
    25e8: 85 19        	sta	$19                     ; 0x2019 <parse+0xcf4>
    25ea: a9 03        	lda	#$3
    25ec: 92 18        	sta	($18)                   ; 0x2018 <parse+0xcf3>
    25ee: 86 0f        	stx	$f                      ; 0x200f <parse+0xcea>
    25f0: 18           	clc
    25f1: a0 17        	ldy	#$17
    25f3: b1 10        	lda	($10),y                 ; 0x2010 <parse+0xceb>
    25f5: 69 05        	adc	#$5
    25f7: 85 12        	sta	$12                     ; 0x2012 <parse+0xced>
    25f9: c8           	iny
    25fa: b1 10        	lda	($10),y                 ; 0x2010 <parse+0xceb>
    25fc: 69 00        	adc	#$0
    25fe: a8           	tay
    25ff: 5a           	phy
    2600: a0 16        	ldy	#$16
    2602: b1 10        	lda	($10),y                 ; 0x2010 <parse+0xceb>
    2604: 7a           	ply
    2605: 69 03        	adc	#$3
    2607: 84 18        	sty	$18                     ; 0x2018 <parse+0xcf3>
    2609: 06 18        	asl	$18                     ; 0x2018 <parse+0xcf3>
    260b: 2a           	rol
    260c: 06 18        	asl	$18                     ; 0x2018 <parse+0xcf3>
    260e: 2a           	rol
    260f: 06 18        	asl	$18                     ; 0x2018 <parse+0xcf3>
    2611: 2a           	rol
    2612: 58           	cli
    2613: a6 0f        	ldx	$f                      ; 0x200f <parse+0xcea>
    2615: 78           	sei
    2616: 85 0f        	sta	$f                      ; 0x200f <parse+0xcea>
    2618: a5 12        	lda	$12                     ; 0x2012 <parse+0xced>
    261a: 85 18        	sta	$18                     ; 0x2018 <parse+0xcf3>
    261c: 98           	tya
    261d: 09 e0        	ora	#$e0
    261f: 85 19        	sta	$19                     ; 0x2019 <parse+0xcf4>
    2621: a0 1a        	ldy	#$1a
    2623: b1 10        	lda	($10),y                 ; 0x2010 <parse+0xceb>
    2625: 92 18        	sta	($18)                   ; 0x2018 <parse+0xcf3>
    2627: 86 0f        	stx	$f                      ; 0x200f <parse+0xcea>
    2629: 18           	clc
    262a: a0 17        	ldy	#$17
    262c: b1 10        	lda	($10),y                 ; 0x2010 <parse+0xceb>
    262e: 69 06        	adc	#$6
    2630: 85 12        	sta	$12                     ; 0x2012 <parse+0xced>
    2632: c8           	iny
    2633: b1 10        	lda	($10),y                 ; 0x2010 <parse+0xceb>
    2635: 69 00        	adc	#$0
    2637: a8           	tay
    2638: 5a           	phy
    2639: a0 16        	ldy	#$16
    263b: b1 10        	lda	($10),y                 ; 0x2010 <parse+0xceb>
    263d: 7a           	ply
    263e: 69 03        	adc	#$3
    2640: 84 18        	sty	$18                     ; 0x2018 <parse+0xcf3>
    2642: 06 18        	asl	$18                     ; 0x2018 <parse+0xcf3>
    2644: 2a           	rol
    2645: 06 18        	asl	$18                     ; 0x2018 <parse+0xcf3>
    2647: 2a           	rol
    2648: 06 18        	asl	$18                     ; 0x2018 <parse+0xcf3>
    264a: 2a           	rol
    264b: 58           	cli
    264c: a6 0f        	ldx	$f                      ; 0x200f <parse+0xcea>
    264e: 78           	sei
    264f: 85 0f        	sta	$f                      ; 0x200f <parse+0xcea>
    2651: a5 12        	lda	$12                     ; 0x2012 <parse+0xced>
    2653: 85 18        	sta	$18                     ; 0x2018 <parse+0xcf3>
    2655: 98           	tya
    2656: 09 e0        	ora	#$e0
    2658: 85 19        	sta	$19                     ; 0x2019 <parse+0xcf4>
    265a: a5 2d        	lda	$2d                     ; 0x202d <parse+0xd08>
    265c: 92 18        	sta	($18)                   ; 0x2018 <parse+0xcf3>
    265e: 86 0f        	stx	$f                      ; 0x200f <parse+0xcea>
    2660: 18           	clc
    2661: a0 17        	ldy	#$17
    2663: b1 10        	lda	($10),y                 ; 0x2010 <parse+0xceb>
    2665: 69 07        	adc	#$7
    2667: 85 18        	sta	$18                     ; 0x2018 <parse+0xcf3>
    2669: c8           	iny
    266a: b1 10        	lda	($10),y                 ; 0x2010 <parse+0xceb>
    266c: 69 00        	adc	#$0
    266e: 85 16        	sta	$16                     ; 0x2016 <parse+0xcf1>
    2670: a0 16        	ldy	#$16
    2672: b1 10        	lda	($10),y                 ; 0x2010 <parse+0xceb>
    2674: 69 03        	adc	#$3
    2676: 85 15        	sta	$15                     ; 0x2015 <parse+0xcf0>
    2678: a5 16        	lda	$16                     ; 0x2016 <parse+0xcf1>
    267a: 0a           	asl
    267b: 26 15        	rol	$15                     ; 0x2015 <parse+0xcf0>
    267d: 0a           	asl
    267e: 26 15        	rol	$15                     ; 0x2015 <parse+0xcf0>
    2680: 0a           	asl
    2681: a5 15        	lda	$15                     ; 0x2015 <parse+0xcf0>
    2683: 2a           	rol
    2684: 58           	cli
    2685: a6 0f        	ldx	$f                      ; 0x200f <parse+0xcea>
    2687: 78           	sei
    2688: 85 0f        	sta	$f                      ; 0x200f <parse+0xcea>
    268a: a5 16        	lda	$16                     ; 0x2016 <parse+0xcf1>
    268c: 09 e0        	ora	#$e0
    268e: 85 19        	sta	$19                     ; 0x2019 <parse+0xcf4>
    2690: a5 2e        	lda	$2e                     ; 0x202e <parse+0xd09>
    2692: 92 18        	sta	($18)                   ; 0x2018 <parse+0xcf3>
    2694: 86 0f        	stx	$f                      ; 0x200f <parse+0xcea>
    2696: 58           	cli
    2697: 18           	clc
    2698: a0 13        	ldy	#$13
    269a: b1 10        	lda	($10),y                 ; 0x2010 <parse+0xceb>
    269c: 65 6f        	adc	$6f                     ; 0x206f <parse+0xd4a>
    269e: 85 15        	sta	$15                     ; 0x2015 <parse+0xcf0>
    26a0: c8           	iny
    26a1: b1 10        	lda	($10),y                 ; 0x2010 <parse+0xceb>
    26a3: 65 70        	adc	$70                     ; 0x2070 <parse+0xd4b>
    26a5: aa           	tax
    26a6: 18           	clc
    26a7: a5 15        	lda	$15                     ; 0x2015 <parse+0xcf0>
    26a9: 69 03        	adc	#$3
    26ab: 85 18        	sta	$18                     ; 0x2018 <parse+0xcf3>
    26ad: 8a           	txa
    26ae: 69 00        	adc	#$0
    26b0: 85 19        	sta	$19                     ; 0x2019 <parse+0xcf4>
    26b2: 80 46        	bra	$26fa <parse+0x13d5>
    26b4: 18           	clc
    26b5: a5 2b        	lda	$2b                     ; 0x202b <parse+0xd06>
    26b7: 69 04        	adc	#$4
    26b9: 4c ac 19     	jmp	$19ac <parse+0x687>
    26bc: 18           	clc
    26bd: a5 2b        	lda	$2b                     ; 0x202b <parse+0xd06>
    26bf: 69 07        	adc	#$7
    26c1: 4c ac 19     	jmp	$19ac <parse+0x687>
    26c4: 18           	clc
    26c5: a5 2b        	lda	$2b                     ; 0x202b <parse+0xd06>
    26c7: 69 06        	adc	#$6
    26c9: 4c ac 19     	jmp	$19ac <parse+0x687>
    26cc: 18           	clc
    26cd: a5 18        	lda	$18                     ; 0x2018 <parse+0xcf3>
    26cf: 48           	pha
    26d0: a0 21        	ldy	#$21
    26d2: b1 10        	lda	($10),y                 ; 0x2010 <parse+0xceb>
    26d4: 85 12        	sta	$12                     ; 0x2012 <parse+0xced>
    26d6: 68           	pla
    26d7: 65 12        	adc	$12                     ; 0x2012 <parse+0xced>
    26d9: 85 18        	sta	$18                     ; 0x2018 <parse+0xcf3>
    26db: a5 1c        	lda	$1c                     ; 0x201c <parse+0xcf7>
    26dd: 48           	pha
    26de: 88           	dey
    26df: b1 10        	lda	($10),y                 ; 0x2010 <parse+0xceb>
    26e1: 85 12        	sta	$12                     ; 0x2012 <parse+0xced>
    26e3: 68           	pla
    26e4: 65 12        	adc	$12                     ; 0x2012 <parse+0xced>
    26e6: 85 19        	sta	$19                     ; 0x2019 <parse+0xcf4>
    26e8: a5 17        	lda	$17                     ; 0x2017 <parse+0xcf2>
    26ea: 18           	clc
    26eb: 65 18        	adc	$18                     ; 0x2018 <parse+0xcf3>
    26ed: 85 18        	sta	$18                     ; 0x2018 <parse+0xcf3>
    26ef: 8a           	txa
    26f0: 65 19        	adc	$19                     ; 0x2019 <parse+0xcf4>
    26f2: 85 19        	sta	$19                     ; 0x2019 <parse+0xcf4>
    26f4: e6 18        	inc	$18                     ; 0x2018 <parse+0xcf3>
    26f6: d0 02        	bne	$26fa <parse+0x13d5>
    26f8: e6 19        	inc	$19                     ; 0x2019 <parse+0xcf4>
    26fa: b2 18        	lda	($18)                   ; 0x2018 <parse+0xcf3>
    26fc: 85 12        	sta	$12                     ; 0x2012 <parse+0xced>
    26fe: a0 01        	ldy	#$1
    2700: b1 18        	lda	($18),y                 ; 0x2018 <parse+0xcf3>
    2702: aa           	tax
    2703: a5 12        	lda	$12                     ; 0x2012 <parse+0xced>
    2705: 1a           	inc
    2706: d0 01        	bne	$2709 <parse+0x13e4>
    2708: e8           	inx
    2709: 92 18        	sta	($18)                   ; 0x2018 <parse+0xcf3>
    270b: 8a           	txa
    270c: 91 18        	sta	($18),y                 ; 0x2018 <parse+0xcf3>
    270e: 18           	clc
    270f: a5 2b        	lda	$2b                     ; 0x202b <parse+0xd06>
    2711: 69 02        	adc	#$2
    2713: 85 2b        	sta	$2b                     ; 0x202b <parse+0xd06>
    2715: a5 2a        	lda	$2a                     ; 0x202a <parse+0xd05>
    2717: 69 00        	adc	#$0
    2719: 85 1b        	sta	$1b                     ; 0x201b <parse+0xcf6>
    271b: a5 2f        	lda	$2f                     ; 0x202f <parse+0xd0a>
    271d: 69 00        	adc	#$0
    271f: aa           	tax
    2720: a5 2c        	lda	$2c                     ; 0x202c <parse+0xd07>
    2722: 69 00        	adc	#$0
    2724: 4c c9 19     	jmp	$19c9 <parse+0x6a4>
    2727: 18           	clc
    2728: a5 18        	lda	$18                     ; 0x2018 <parse+0xcf3>
    272a: 48           	pha
    272b: a0 21        	ldy	#$21
    272d: b1 10        	lda	($10),y                 ; 0x2010 <parse+0xceb>
    272f: 85 12        	sta	$12                     ; 0x2012 <parse+0xced>
    2731: 68           	pla
    2732: 65 12        	adc	$12                     ; 0x2012 <parse+0xced>
    2734: 85 18        	sta	$18                     ; 0x2018 <parse+0xcf3>
    2736: a5 1c        	lda	$1c                     ; 0x201c <parse+0xcf7>
    2738: 48           	pha
    2739: 88           	dey
    273a: b1 10        	lda	($10),y                 ; 0x2010 <parse+0xceb>
    273c: 85 12        	sta	$12                     ; 0x2012 <parse+0xced>
    273e: 68           	pla
    273f: 65 12        	adc	$12                     ; 0x2012 <parse+0xced>
    2741: 85 19        	sta	$19                     ; 0x2019 <parse+0xcf4>
    2743: a5 17        	lda	$17                     ; 0x2017 <parse+0xcf2>
    2745: 18           	clc
    2746: 65 18        	adc	$18                     ; 0x2018 <parse+0xcf3>
    2748: 85 18        	sta	$18                     ; 0x2018 <parse+0xcf3>
    274a: 8a           	txa
    274b: 65 19        	adc	$19                     ; 0x2019 <parse+0xcf4>
    274d: 85 19        	sta	$19                     ; 0x2019 <parse+0xcf4>
    274f: e6 18        	inc	$18                     ; 0x2018 <parse+0xcf3>
    2751: d0 02        	bne	$2755 <parse+0x1430>
    2753: e6 19        	inc	$19                     ; 0x2019 <parse+0xcf4>
    2755: b2 18        	lda	($18)                   ; 0x2018 <parse+0xcf3>
    2757: 85 12        	sta	$12                     ; 0x2012 <parse+0xced>
    2759: a0 01        	ldy	#$1
    275b: b1 18        	lda	($18),y                 ; 0x2018 <parse+0xcf3>
    275d: aa           	tax
    275e: a5 12        	lda	$12                     ; 0x2012 <parse+0xced>
    2760: 1a           	inc
    2761: d0 01        	bne	$2764 <parse+0x143f>
    2763: e8           	inx
    2764: 92 18        	sta	($18)                   ; 0x2018 <parse+0xcf3>
    2766: 8a           	txa
    2767: 91 18        	sta	($18),y                 ; 0x2018 <parse+0xcf3>
    2769: a6 2a        	ldx	$2a                     ; 0x202a <parse+0xd05>
    276b: 86 1b        	stx	$1b                     ; 0x201b <parse+0xcf6>
    276d: a5 2c        	lda	$2c                     ; 0x202c <parse+0xd07>
    276f: e6 2b        	inc	$2b                     ; 0x202b <parse+0xd06>
    2771: f0 03        	beq	$2776 <parse+0x1451>
    2773: 4c cb 19     	jmp	$19cb <parse+0x6a6>
    2776: e6 1b        	inc	$1b                     ; 0x201b <parse+0xcf6>
    2778: f0 03        	beq	$277d <parse+0x1458>
    277a: 4c cb 19     	jmp	$19cb <parse+0x6a6>
    277d: e6 2f        	inc	$2f                     ; 0x202f <parse+0xd0a>
    277f: f0 03        	beq	$2784 <parse+0x145f>
    2781: 4c cb 19     	jmp	$19cb <parse+0x6a6>
    2784: 1a           	inc
    2785: 4c cb 19     	jmp	$19cb <parse+0x6a6>

00002788 <__putchar>:
    2788: 85 64        	sta	$64                     ; 0x2064 <parse+0xd3f>
    278a: a6 01        	ldx	$1                      ; 0x2001 <parse+0xcdc>
    278c: 86 22        	stx	$22                     ; 0x2022 <parse+0xcfd>
    278e: a6 63        	ldx	$63                     ; 0x2063 <parse+0xd3e>
    2790: a0 50        	ldy	#$50
    2792: 8c 00 de     	sty	$de00                   ; 0xde00 <end_block9+0x8132>
    2795: 9c 01 de     	stz	$de01                   ; 0xde01 <end_block9+0x8133>
    2798: 8e 02 de     	stx	$de02                   ; 0xde02 <end_block9+0x8134>
    279b: 9c 03 de     	stz	$de03                   ; 0xde03 <end_block9+0x8135>
    279e: ae 10 de     	ldx	$de10                   ; 0xde10 <end_block9+0x8142>
    27a1: ad 11 de     	lda	$de11                   ; 0xde11 <end_block9+0x8143>
    27a4: 85 13        	sta	$13                     ; 0x2013 <parse+0xcee>
    27a6: ad 12 de     	lda	$de12                   ; 0xde12 <end_block9+0x8144>
    27a9: 85 16        	sta	$16                     ; 0x2016 <parse+0xcf1>
    27ab: ad 13 de     	lda	$de13                   ; 0xde13 <end_block9+0x8145>
    27ae: 85 17        	sta	$17                     ; 0x2017 <parse+0xcf2>
    27b0: 9c 08 de     	stz	$de08                   ; 0xde08 <end_block9+0x813a>
    27b3: a9 c0        	lda	#$c0
    27b5: 8d 09 de     	sta	$de09                   ; 0xde09 <end_block9+0x813b>
    27b8: 9c 0a de     	stz	$de0a                   ; 0xde0a <end_block9+0x813c>
    27bb: 9c 0b de     	stz	$de0b                   ; 0xde0b <end_block9+0x813d>
    27be: 8e 0c de     	stx	$de0c                   ; 0xde0c <end_block9+0x813e>
    27c1: 64 12        	stz	$12                     ; 0x2012 <parse+0xced>
    27c3: a2 00        	ldx	#$0
    27c5: 86 14        	stx	$14                     ; 0x2014 <parse+0xcef>
    27c7: a2 c0        	ldx	#$c0
    27c9: 86 15        	stx	$15                     ; 0x2015 <parse+0xcf0>
    27cb: a6 13        	ldx	$13                     ; 0x2013 <parse+0xcee>
    27cd: 8e 0d de     	stx	$de0d                   ; 0xde0d <end_block9+0x813f>
    27d0: a6 16        	ldx	$16                     ; 0x2016 <parse+0xcf1>
    27d2: 8e 0e de     	stx	$de0e                   ; 0xde0e <end_block9+0x8140>
    27d5: a6 17        	ldx	$17                     ; 0x2017 <parse+0xcf2>
    27d7: 8e 0f de     	stx	$de0f                   ; 0xde0f <end_block9+0x8141>
    27da: ae 18 de     	ldx	$de18                   ; 0xde18 <end_block9+0x814a>
    27dd: 86 16        	stx	$16                     ; 0x2016 <parse+0xcf1>
    27df: ad 19 de     	lda	$de19                   ; 0xde19 <end_block9+0x814b>
    27e2: ae 1a de     	ldx	$de1a                   ; 0xde1a <end_block9+0x814c>
    27e5: ae 1b de     	ldx	$de1b                   ; 0xde1b <end_block9+0x814d>
    27e8: 85 17        	sta	$17                     ; 0x2017 <parse+0xcf2>
    27ea: 64 13        	stz	$13                     ; 0x2013 <parse+0xcee>
    27ec: 80 13        	bra	$2801 <__putchar+0x79>
    27ee: a5 16        	lda	$16                     ; 0x2016 <parse+0xcf1>
    27f0: 18           	clc
    27f1: 69 50        	adc	#$50
    27f3: 85 16        	sta	$16                     ; 0x2016 <parse+0xcf1>
    27f5: a5 17        	lda	$17                     ; 0x2017 <parse+0xcf2>
    27f7: 69 00        	adc	#$0
    27f9: 85 17        	sta	$17                     ; 0x2017 <parse+0xcf2>
    27fb: e6 12        	inc	$12                     ; 0x2012 <parse+0xced>
    27fd: d0 02        	bne	$2801 <__putchar+0x79>
    27ff: e6 13        	inc	$13                     ; 0x2013 <parse+0xcee>
    2801: a9 64        	lda	#$64
    2803: 18           	clc
    2804: 65 12        	adc	$12                     ; 0x2012 <parse+0xced>
    2806: 85 18        	sta	$18                     ; 0x2018 <parse+0xcf3>
    2808: a9 00        	lda	#$0
    280a: 65 13        	adc	$13                     ; 0x2013 <parse+0xcee>
    280c: 85 19        	sta	$19                     ; 0x2019 <parse+0xcf4>
    280e: b2 18        	lda	($18)                   ; 0x2018 <parse+0xcf3>
    2810: c9 0a        	cmp	#$a
    2812: f0 33        	beq	$2847 <__putchar+0xbf>
    2814: c9 0d        	cmp	#$d
    2816: f0 2f        	beq	$2847 <__putchar+0xbf>
    2818: aa           	tax
    2819: d0 03        	bne	$281e <__putchar+0x96>
    281b: 4c af 29     	jmp	$29af <__putchar+0x227>
    281e: a2 03        	ldx	#$3
    2820: 86 01        	stx	$1                      ; 0x2001 <parse+0xcdc>
    2822: a5 61        	lda	$61                     ; 0x2061 <parse+0xd3c>
    2824: 29 01        	and	#$1
    2826: a2 60        	ldx	#$60
    2828: a8           	tay
    2829: d0 02        	bne	$282d <__putchar+0xa5>
    282b: a2 f0        	ldx	#$f0
    282d: a4 62        	ldy	$62                     ; 0x2062 <parse+0xd3d>
    282f: 8a           	txa
    2830: 91 16        	sta	($16),y                 ; 0x2016 <parse+0xcf1>
    2832: a2 02        	ldx	#$2
    2834: 86 01        	stx	$1                      ; 0x2001 <parse+0xcdc>
    2836: b2 18        	lda	($18)                   ; 0x2018 <parse+0xcf3>
    2838: a4 62        	ldy	$62                     ; 0x2062 <parse+0xd3d>
    283a: 91 16        	sta	($16),y                 ; 0x2016 <parse+0xcf1>
    283c: a6 62        	ldx	$62                     ; 0x2062 <parse+0xd3d>
    283e: e8           	inx
    283f: e6 62        	inc	$62                     ; 0x2062 <parse+0xd3d>
    2841: a0 50        	ldy	#$50
    2843: e0 50        	cpx	#$50
    2845: d0 b4        	bne	$27fb <__putchar+0x73>
    2847: 64 62        	stz	$62                     ; 0x2062 <parse+0xd3d>
    2849: a6 63        	ldx	$63                     ; 0x2063 <parse+0xd3e>
    284b: 86 1a        	stx	$1a                     ; 0x201a <parse+0xcf5>
    284d: e6 63        	inc	$63                     ; 0x2063 <parse+0xd3e>
    284f: a5 60        	lda	$60                     ; 0x2060 <parse+0xd3b>
    2851: 29 01        	and	#$1
    2853: a2 3c        	ldx	#$3c
    2855: 86 18        	stx	$18                     ; 0x2018 <parse+0xcf3>
    2857: aa           	tax
    2858: d0 04        	bne	$285e <__putchar+0xd6>
    285a: a2 1e        	ldx	#$1e
    285c: 86 18        	stx	$18                     ; 0x2018 <parse+0xcf3>
    285e: a5 1a        	lda	$1a                     ; 0x201a <parse+0xcf5>
    2860: 1a           	inc
    2861: c5 18        	cmp	$18                     ; 0x2018 <parse+0xcf3>
    2863: f0 03        	beq	$2868 <__putchar+0xe0>
    2865: 4c ee 27     	jmp	$27ee <__putchar+0x66>
    2868: 0a           	asl
    2869: 64 16        	stz	$16                     ; 0x2016 <parse+0xcf1>
    286b: 26 16        	rol	$16                     ; 0x2016 <parse+0xcf1>
    286d: 0a           	asl
    286e: 26 16        	rol	$16                     ; 0x2016 <parse+0xcf1>
    2870: 0a           	asl
    2871: 26 16        	rol	$16                     ; 0x2016 <parse+0xcf1>
    2873: 0a           	asl
    2874: 85 17        	sta	$17                     ; 0x2017 <parse+0xcf2>
    2876: 26 16        	rol	$16                     ; 0x2016 <parse+0xcf1>
    2878: a6 16        	ldx	$16                     ; 0x2016 <parse+0xcf1>
    287a: 86 18        	stx	$18                     ; 0x2018 <parse+0xcf3>
    287c: 0a           	asl
    287d: 26 16        	rol	$16                     ; 0x2016 <parse+0xcf1>
    287f: 0a           	asl
    2880: 26 16        	rol	$16                     ; 0x2016 <parse+0xcf1>
    2882: a6 16        	ldx	$16                     ; 0x2016 <parse+0xcf1>
    2884: 86 19        	stx	$19                     ; 0x2019 <parse+0xcf4>
    2886: 18           	clc
    2887: 65 17        	adc	$17                     ; 0x2017 <parse+0xcf2>
    2889: 85 16        	sta	$16                     ; 0x2016 <parse+0xcf1>
    288b: 85 1a        	sta	$1a                     ; 0x201a <parse+0xcf5>
    288d: a5 19        	lda	$19                     ; 0x2019 <parse+0xcf4>
    288f: 65 18        	adc	$18                     ; 0x2018 <parse+0xcf3>
    2891: aa           	tax
    2892: 85 17        	sta	$17                     ; 0x2017 <parse+0xcf2>
    2894: 18           	clc
    2895: a5 1a        	lda	$1a                     ; 0x201a <parse+0xcf5>
    2897: 69 b0        	adc	#$b0
    2899: 85 1c        	sta	$1c                     ; 0x201c <parse+0xcf7>
    289b: 8a           	txa
    289c: 69 ff        	adc	#$ff
    289e: 85 1d        	sta	$1d                     ; 0x201d <parse+0xcf8>
    28a0: a2 03        	ldx	#$3
    28a2: 86 01        	stx	$1                      ; 0x2001 <parse+0xcdc>
    28a4: a2 01        	ldx	#$1
    28a6: 86 18        	stx	$18                     ; 0x2018 <parse+0xcf3>
    28a8: a2 00        	ldx	#$0
    28aa: 86 1a        	stx	$1a                     ; 0x201a <parse+0xcf5>
    28ac: a2 c0        	ldx	#$c0
    28ae: 86 1b        	stx	$1b                     ; 0x201b <parse+0xcf6>
    28b0: a6 1c        	ldx	$1c                     ; 0x201c <parse+0xcf7>
    28b2: 86 19        	stx	$19                     ; 0x2019 <parse+0xcf4>
    28b4: a6 1d        	ldx	$1d                     ; 0x201d <parse+0xcf8>
    28b6: b1 1a        	lda	($1a),y                 ; 0x201a <parse+0xcf5>
    28b8: 92 1a        	sta	($1a)                   ; 0x201a <parse+0xcf5>
    28ba: a0 ff        	ldy	#$ff
    28bc: c6 19        	dec	$19                     ; 0x2019 <parse+0xcf4>
    28be: c4 19        	cpy	$19                     ; 0x2019 <parse+0xcf4>
    28c0: d0 01        	bne	$28c3 <__putchar+0x13b>
    28c2: ca           	dex
    28c3: a0 50        	ldy	#$50
    28c5: e6 1a        	inc	$1a                     ; 0x201a <parse+0xcf5>
    28c7: d0 02        	bne	$28cb <__putchar+0x143>
    28c9: e6 1b        	inc	$1b                     ; 0x201b <parse+0xcf6>
    28cb: 8a           	txa
    28cc: d0 e8        	bne	$28b6 <__putchar+0x12e>
    28ce: a5 19        	lda	$19                     ; 0x2019 <parse+0xcf4>
    28d0: d0 e4        	bne	$28b6 <__putchar+0x12e>
    28d2: a2 02        	ldx	#$2
    28d4: 86 01        	stx	$1                      ; 0x2001 <parse+0xcdc>
    28d6: a2 00        	ldx	#$0
    28d8: a5 18        	lda	$18                     ; 0x2018 <parse+0xcf3>
    28da: d0 ca        	bne	$28a6 <__putchar+0x11e>
    28dc: a2 03        	ldx	#$3
    28de: 86 01        	stx	$1                      ; 0x2001 <parse+0xcdc>
    28e0: a5 61        	lda	$61                     ; 0x2061 <parse+0xd3c>
    28e2: 29 01        	and	#$1
    28e4: a2 60        	ldx	#$60
    28e6: a8           	tay
    28e7: d0 02        	bne	$28eb <__putchar+0x163>
    28e9: a2 f0        	ldx	#$f0
    28eb: a9 00        	lda	#$0
    28ed: 18           	clc
    28ee: 65 16        	adc	$16                     ; 0x2016 <parse+0xcf1>
    28f0: a8           	tay
    28f1: a9 c0        	lda	#$c0
    28f3: 65 17        	adc	$17                     ; 0x2017 <parse+0xcf2>
    28f5: 85 18        	sta	$18                     ; 0x2018 <parse+0xcf3>
    28f7: 18           	clc
    28f8: 98           	tya
    28f9: 69 b0        	adc	#$b0
    28fb: a8           	tay
    28fc: a5 18        	lda	$18                     ; 0x2018 <parse+0xcf3>
    28fe: 69 ff        	adc	#$ff
    2900: 84 18        	sty	$18                     ; 0x2018 <parse+0xcf3>
    2902: 85 19        	sta	$19                     ; 0x2019 <parse+0xcf4>
    2904: 18           	clc
    2905: a9 01        	lda	#$1
    2907: 65 16        	adc	$16                     ; 0x2016 <parse+0xcf1>
    2909: 85 16        	sta	$16                     ; 0x2016 <parse+0xcf1>
    290b: a9 c0        	lda	#$c0
    290d: 65 17        	adc	$17                     ; 0x2017 <parse+0xcf2>
    290f: a8           	tay
    2910: 18           	clc
    2911: a5 16        	lda	$16                     ; 0x2016 <parse+0xcf1>
    2913: 69 b0        	adc	#$b0
    2915: 85 16        	sta	$16                     ; 0x2016 <parse+0xcf1>
    2917: 98           	tya
    2918: 69 ff        	adc	#$ff
    291a: 85 17        	sta	$17                     ; 0x2017 <parse+0xcf2>
    291c: 8a           	txa
    291d: a2 50        	ldx	#$50
    291f: a4 16        	ldy	$16                     ; 0x2016 <parse+0xcf1>
    2921: 84 1a        	sty	$1a                     ; 0x201a <parse+0xcf5>
    2923: a4 17        	ldy	$17                     ; 0x2017 <parse+0xcf2>
    2925: 84 1b        	sty	$1b                     ; 0x201b <parse+0xcf6>
    2927: a4 18        	ldy	$18                     ; 0x2018 <parse+0xcf3>
    2929: 84 1c        	sty	$1c                     ; 0x201c <parse+0xcf7>
    292b: a4 19        	ldy	$19                     ; 0x2019 <parse+0xcf4>
    292d: 84 1d        	sty	$1d                     ; 0x201d <parse+0xcf8>
    292f: a4 1a        	ldy	$1a                     ; 0x201a <parse+0xcf5>
    2931: 84 1e        	sty	$1e                     ; 0x201e <parse+0xcf9>
    2933: a4 1b        	ldy	$1b                     ; 0x201b <parse+0xcf6>
    2935: 84 1f        	sty	$1f                     ; 0x201f <parse+0xcfa>
    2937: 92 1c        	sta	($1c)                   ; 0x201c <parse+0xcf7>
    2939: e6 1a        	inc	$1a                     ; 0x201a <parse+0xcf5>
    293b: d0 02        	bne	$293f <__putchar+0x1b7>
    293d: e6 1b        	inc	$1b                     ; 0x201b <parse+0xcf6>
    293f: ca           	dex
    2940: a4 1e        	ldy	$1e                     ; 0x201e <parse+0xcf9>
    2942: 84 1c        	sty	$1c                     ; 0x201c <parse+0xcf7>
    2944: a4 1f        	ldy	$1f                     ; 0x201f <parse+0xcfa>
    2946: 84 1d        	sty	$1d                     ; 0x201d <parse+0xcf8>
    2948: e0 00        	cpx	#$0
    294a: d0 e3        	bne	$292f <__putchar+0x1a7>
    294c: a2 02        	ldx	#$2
    294e: 86 01        	stx	$1                      ; 0x2001 <parse+0xcdc>
    2950: a2 50        	ldx	#$50
    2952: a9 20        	lda	#$20
    2954: a4 16        	ldy	$16                     ; 0x2016 <parse+0xcf1>
    2956: 84 1a        	sty	$1a                     ; 0x201a <parse+0xcf5>
    2958: a4 17        	ldy	$17                     ; 0x2017 <parse+0xcf2>
    295a: 84 1b        	sty	$1b                     ; 0x201b <parse+0xcf6>
    295c: 92 18        	sta	($18)                   ; 0x2018 <parse+0xcf3>
    295e: e6 16        	inc	$16                     ; 0x2016 <parse+0xcf1>
    2960: d0 02        	bne	$2964 <__putchar+0x1dc>
    2962: e6 17        	inc	$17                     ; 0x2017 <parse+0xcf2>
    2964: ca           	dex
    2965: a4 1a        	ldy	$1a                     ; 0x201a <parse+0xcf5>
    2967: 84 18        	sty	$18                     ; 0x2018 <parse+0xcf3>
    2969: a4 1b        	ldy	$1b                     ; 0x201b <parse+0xcf6>
    296b: 84 19        	sty	$19                     ; 0x2019 <parse+0xcf4>
    296d: e0 00        	cpx	#$0
    296f: d0 e3        	bne	$2954 <__putchar+0x1cc>
    2971: c6 63        	dec	$63                     ; 0x2063 <parse+0xd3e>
    2973: a5 60        	lda	$60                     ; 0x2060 <parse+0xd3b>
    2975: 29 01        	and	#$1
    2977: a2 3b        	ldx	#$3b
    2979: a8           	tay
    297a: d0 02        	bne	$297e <__putchar+0x1f6>
    297c: a2 1d        	ldx	#$1d
    297e: 9c 08 de     	stz	$de08                   ; 0xde08 <end_block9+0x813a>
    2981: a0 c0        	ldy	#$c0
    2983: 8c 09 de     	sty	$de09                   ; 0xde09 <end_block9+0x813b>
    2986: 9c 0a de     	stz	$de0a                   ; 0xde0a <end_block9+0x813c>
    2989: 9c 0b de     	stz	$de0b                   ; 0xde0b <end_block9+0x813d>
    298c: 8e 0c de     	stx	$de0c                   ; 0xde0c <end_block9+0x813e>
    298f: a2 00        	ldx	#$0
    2991: 8e 0d de     	stx	$de0d                   ; 0xde0d <end_block9+0x813f>
    2994: 8e 0e de     	stx	$de0e                   ; 0xde0e <end_block9+0x8140>
    2997: 8e 0f de     	stx	$de0f                   ; 0xde0f <end_block9+0x8141>
    299a: ae 18 de     	ldx	$de18                   ; 0xde18 <end_block9+0x814a>
    299d: ac 19 de     	ldy	$de19                   ; 0xde19 <end_block9+0x814b>
    29a0: ad 1a de     	lda	$de1a                   ; 0xde1a <end_block9+0x814c>
    29a3: ad 1b de     	lda	$de1b                   ; 0xde1b <end_block9+0x814d>
    29a6: 86 16        	stx	$16                     ; 0x2016 <parse+0xcf1>
    29a8: 84 17        	sty	$17                     ; 0x2017 <parse+0xcf2>
    29aa: a0 50        	ldy	#$50
    29ac: 4c fb 27     	jmp	$27fb <__putchar+0x73>
    29af: a6 22        	ldx	$22                     ; 0x2022 <parse+0xcfd>
    29b1: 86 01        	stx	$1                      ; 0x2001 <parse+0xcdc>
    29b3: a6 62        	ldx	$62                     ; 0x2062 <parse+0xd3d>
    29b5: a4 63        	ldy	$63                     ; 0x2063 <parse+0xd3e>
    29b7: 8e 14 d0     	stx	$d014                   ; 0xd014 <end_block9+0x7346>
    29ba: 9c 15 d0     	stz	$d015                   ; 0xd015 <end_block9+0x7347>
    29bd: 84 63        	sty	$63                     ; 0x2063 <parse+0xd3e>
    29bf: 8c 16 d0     	sty	$d016                   ; 0xd016 <end_block9+0x7348>
    29c2: 9c 17 d0     	stz	$d017                   ; 0xd017 <end_block9+0x7349>
    29c5: 60           	rts

000029c6 <exit>:
    29c6: 20 47 03     	jsr	$347 <_fini>
    29c9: 80 fe        	bra	$29c9 <exit+0x3>

000029cb <_ZN12_GLOBAL__N_13putEcP6Status>:
    29cb: 85 18        	sta	$18                     ; 0x2018 <parse+0xcf3>
    29cd: a6 13        	ldx	$13                     ; 0x2013 <parse+0xcee>
    29cf: 18           	clc
    29d0: a5 12        	lda	$12                     ; 0x2012 <parse+0xced>
    29d2: 69 05        	adc	#$5
    29d4: a8           	tay
    29d5: a5 13        	lda	$13                     ; 0x2013 <parse+0xcee>
    29d7: 86 15        	stx	$15                     ; 0x2015 <parse+0xcf0>
    29d9: 69 00        	adc	#$0
    29db: 18           	clc
    29dc: 84 16        	sty	$16                     ; 0x2016 <parse+0xcf1>
    29de: a0 05        	ldy	#$5
    29e0: 85 17        	sta	$17                     ; 0x2017 <parse+0xcf2>
    29e2: b1 12        	lda	($12),y                 ; 0x2012 <parse+0xced>
    29e4: aa           	tax
    29e5: a5 12        	lda	$12                     ; 0x2012 <parse+0xced>
    29e7: 69 03        	adc	#$3
    29e9: 85 14        	sta	$14                     ; 0x2014 <parse+0xcef>
    29eb: a5 15        	lda	$15                     ; 0x2015 <parse+0xcf0>
    29ed: 69 00        	adc	#$0
    29ef: 85 15        	sta	$15                     ; 0x2015 <parse+0xcf0>
    29f1: a0 01        	ldy	#$1
    29f3: b1 16        	lda	($16),y                 ; 0x2016 <parse+0xcf1>
    29f5: d1 14        	cmp	($14),y                 ; 0x2014 <parse+0xcef>
    29f7: d0 11        	bne	$2a0a <_ZN12_GLOBAL__N_13putEcP6Status+0x3f>
    29f9: a0 03        	ldy	#$3
    29fb: 85 17        	sta	$17                     ; 0x2017 <parse+0xcf2>
    29fd: b1 12        	lda	($12),y                 ; 0x2012 <parse+0xced>
    29ff: 85 14        	sta	$14                     ; 0x2014 <parse+0xcef>
    2a01: 86 16        	stx	$16                     ; 0x2016 <parse+0xcf1>
    2a03: e4 14        	cpx	$14                     ; 0x2014 <parse+0xcef>
    2a05: 90 0e        	bcc	$2a15 <_ZN12_GLOBAL__N_13putEcP6Status+0x4a>
    2a07: 4c 74 2a     	jmp	$2a74 <_ZN12_GLOBAL__N_13putEcP6Status+0xa9>
    2a0a: 86 16        	stx	$16                     ; 0x2016 <parse+0xcf1>
    2a0c: d1 14        	cmp	($14),y                 ; 0x2014 <parse+0xcef>
    2a0e: 85 17        	sta	$17                     ; 0x2017 <parse+0xcf2>
    2a10: 90 03        	bcc	$2a15 <_ZN12_GLOBAL__N_13putEcP6Status+0x4a>
    2a12: 4c 74 2a     	jmp	$2a74 <_ZN12_GLOBAL__N_13putEcP6Status+0xa9>
    2a15: a5 12        	lda	$12                     ; 0x2012 <parse+0xced>
    2a17: 18           	clc
    2a18: 69 0f        	adc	#$f
    2a1a: 85 14        	sta	$14                     ; 0x2014 <parse+0xcef>
    2a1c: a5 13        	lda	$13                     ; 0x2013 <parse+0xcee>
    2a1e: 69 00        	adc	#$0
    2a20: 85 15        	sta	$15                     ; 0x2015 <parse+0xcf0>
    2a22: a0 01        	ldy	#$1
    2a24: b1 14        	lda	($14),y                 ; 0x2014 <parse+0xcef>
    2a26: a2 00        	ldx	#$0
    2a28: 86 14        	stx	$14                     ; 0x2014 <parse+0xcef>
    2a2a: a2 00        	ldx	#$0
    2a2c: 86 15        	stx	$15                     ; 0x2015 <parse+0xcf0>
    2a2e: c5 15        	cmp	$15                     ; 0x2015 <parse+0xcf0>
    2a30: d0 2d        	bne	$2a5f <_ZN12_GLOBAL__N_13putEcP6Status+0x94>
    2a32: a0 0f        	ldy	#$f
    2a34: b1 12        	lda	($12),y                 ; 0x2012 <parse+0xced>
    2a36: c5 14        	cmp	$14                     ; 0x2014 <parse+0xcef>
    2a38: d0 25        	bne	$2a5f <_ZN12_GLOBAL__N_13putEcP6Status+0x94>
    2a3a: a5 12        	lda	$12                     ; 0x2012 <parse+0xced>
    2a3c: 18           	clc
    2a3d: 69 09        	adc	#$9
    2a3f: 85 14        	sta	$14                     ; 0x2014 <parse+0xcef>
    2a41: a5 13        	lda	$13                     ; 0x2013 <parse+0xcee>
    2a43: 69 00        	adc	#$0
    2a45: a0 09        	ldy	#$9
    2a47: 85 15        	sta	$15                     ; 0x2015 <parse+0xcf0>
    2a49: 18           	clc
    2a4a: a5 16        	lda	$16                     ; 0x2016 <parse+0xcf1>
    2a4c: 71 12        	adc	($12),y                 ; 0x2012 <parse+0xced>
    2a4e: aa           	tax
    2a4f: a0 01        	ldy	#$1
    2a51: a5 17        	lda	$17                     ; 0x2017 <parse+0xcf2>
    2a53: 71 14        	adc	($14),y                 ; 0x2014 <parse+0xcef>
    2a55: 86 14        	stx	$14                     ; 0x2014 <parse+0xcef>
    2a57: 85 15        	sta	$15                     ; 0x2015 <parse+0xcf0>
    2a59: a5 18        	lda	$18                     ; 0x2018 <parse+0xcf3>
    2a5b: 92 14        	sta	($14)                   ; 0x2014 <parse+0xcef>
    2a5d: 80 15        	bra	$2a74 <_ZN12_GLOBAL__N_13putEcP6Status+0xa9>
    2a5f: a6 12        	ldx	$12                     ; 0x2012 <parse+0xced>
    2a61: 86 c6        	stx	$c6                     ; 0x20c6 <parse+0xda1>
    2a63: a6 13        	ldx	$13                     ; 0x2013 <parse+0xcee>
    2a65: 86 c7        	stx	$c7                     ; 0x20c7 <parse+0xda2>
    2a67: a5 18        	lda	$18                     ; 0x2018 <parse+0xcf3>
    2a69: 20 88 27     	jsr	$2788 <__putchar>
    2a6c: a6 c6        	ldx	$c6                     ; 0x20c6 <parse+0xda1>
    2a6e: 86 12        	stx	$12                     ; 0x2012 <parse+0xced>
    2a70: a6 c7        	ldx	$c7                     ; 0x20c7 <parse+0xda2>
    2a72: 86 13        	stx	$13                     ; 0x2013 <parse+0xcee>
    2a74: a0 05        	ldy	#$5
    2a76: a5 12        	lda	$12                     ; 0x2012 <parse+0xced>
    2a78: 18           	clc
    2a79: 69 05        	adc	#$5
    2a7b: 85 14        	sta	$14                     ; 0x2014 <parse+0xcef>
    2a7d: a5 13        	lda	$13                     ; 0x2013 <parse+0xcee>
    2a7f: 69 00        	adc	#$0
    2a81: 85 15        	sta	$15                     ; 0x2015 <parse+0xcf0>
    2a83: b1 12        	lda	($12),y                 ; 0x2012 <parse+0xced>
    2a85: aa           	tax
    2a86: a0 01        	ldy	#$1
    2a88: b1 14        	lda	($14),y                 ; 0x2014 <parse+0xcef>
    2a8a: e8           	inx
    2a8b: d0 01        	bne	$2a8e <_ZN12_GLOBAL__N_13putEcP6Status+0xc3>
    2a8d: 1a           	inc
    2a8e: 85 16        	sta	$16                     ; 0x2016 <parse+0xcf1>
    2a90: 8a           	txa
    2a91: a0 05        	ldy	#$5
    2a93: 91 12        	sta	($12),y                 ; 0x2012 <parse+0xced>
    2a95: a0 01        	ldy	#$1
    2a97: a5 16        	lda	$16                     ; 0x2016 <parse+0xcf1>
    2a99: 91 14        	sta	($14),y                 ; 0x2014 <parse+0xcef>
    2a9b: 60           	rts

00002a9c <_ZN12_GLOBAL__N_112print_stringEPKcP6Status>:
    2a9c: a6 12        	ldx	$12                     ; 0x2012 <parse+0xced>
    2a9e: 86 be        	stx	$be                     ; 0x20be <parse+0xd99>
    2aa0: a6 13        	ldx	$13                     ; 0x2013 <parse+0xcee>
    2aa2: 86 bf        	stx	$bf                     ; 0x20bf <parse+0xd9a>
    2aa4: a6 14        	ldx	$14                     ; 0x2014 <parse+0xcef>
    2aa6: 86 c0        	stx	$c0                     ; 0x20c0 <parse+0xd9b>
    2aa8: a6 15        	ldx	$15                     ; 0x2015 <parse+0xcf0>
    2aaa: 86 c1        	stx	$c1                     ; 0x20c1 <parse+0xd9c>
    2aac: a5 c0        	lda	$c0                     ; 0x20c0 <parse+0xd9b>
    2aae: 18           	clc
    2aaf: 69 0d        	adc	#$d
    2ab1: 85 12        	sta	$12                     ; 0x2012 <parse+0xced>
    2ab3: a5 c1        	lda	$c1                     ; 0x20c1 <parse+0xd9c>
    2ab5: 69 00        	adc	#$0
    2ab7: 85 13        	sta	$13                     ; 0x2013 <parse+0xcee>
    2ab9: a0 01        	ldy	#$1
    2abb: b1 12        	lda	($12),y                 ; 0x2012 <parse+0xced>
    2abd: 30 16        	bmi	$2ad5 <_ZN12_GLOBAL__N_112print_stringEPKcP6Status+0x39>
    2abf: a0 0d        	ldy	#$d
    2ac1: 85 12        	sta	$12                     ; 0x2012 <parse+0xced>
    2ac3: b1 c0        	lda	($c0),y                 ; 0x20c0 <parse+0xd9b>
    2ac5: a6 12        	ldx	$12                     ; 0x2012 <parse+0xced>
    2ac7: 86 c5        	stx	$c5                     ; 0x20c5 <parse+0xda0>
    2ac9: d0 0f        	bne	$2ada <_ZN12_GLOBAL__N_112print_stringEPKcP6Status+0x3e>
    2acb: aa           	tax
    2acc: d0 0c        	bne	$2ada <_ZN12_GLOBAL__N_112print_stringEPKcP6Status+0x3e>
    2ace: 64 c2        	stz	$c2                     ; 0x20c2 <parse+0xd9d>
    2ad0: a2 00        	ldx	#$0
    2ad2: 4c a4 2b     	jmp	$2ba4 <_ZN12_GLOBAL__N_112print_stringEPKcP6Status+0x108>
    2ad5: a9 ff        	lda	#$ff
    2ad7: aa           	tax
    2ad8: 86 c5        	stx	$c5                     ; 0x20c5 <parse+0xda0>
    2ada: 85 c2        	sta	$c2                     ; 0x20c2 <parse+0xd9d>
    2adc: 64 12        	stz	$12                     ; 0x2012 <parse+0xced>
    2ade: a4 be        	ldy	$be                     ; 0x20be <parse+0xd99>
    2ae0: a6 bf        	ldx	$bf                     ; 0x20bf <parse+0xd9a>
    2ae2: 86 16        	stx	$16                     ; 0x2016 <parse+0xcf1>
    2ae4: 64 13        	stz	$13                     ; 0x2013 <parse+0xcee>
    2ae6: 98           	tya
    2ae7: 18           	clc
    2ae8: 65 12        	adc	$12                     ; 0x2012 <parse+0xced>
    2aea: 85 14        	sta	$14                     ; 0x2014 <parse+0xcef>
    2aec: a5 bf        	lda	$bf                     ; 0x20bf <parse+0xd9a>
    2aee: 65 13        	adc	$13                     ; 0x2013 <parse+0xcee>
    2af0: 85 15        	sta	$15                     ; 0x2015 <parse+0xcf0>
    2af2: b2 14        	lda	($14)                   ; 0x2014 <parse+0xcef>
    2af4: d0 03        	bne	$2af9 <_ZN12_GLOBAL__N_112print_stringEPKcP6Status+0x5d>
    2af6: 4c 9e 2b     	jmp	$2b9e <_ZN12_GLOBAL__N_112print_stringEPKcP6Status+0x102>
    2af9: e6 12        	inc	$12                     ; 0x2012 <parse+0xced>
    2afb: d0 02        	bne	$2aff <_ZN12_GLOBAL__N_112print_stringEPKcP6Status+0x63>
    2afd: e6 13        	inc	$13                     ; 0x2013 <parse+0xcee>
    2aff: a6 c5        	ldx	$c5                     ; 0x20c5 <parse+0xda0>
    2b01: e4 13        	cpx	$13                     ; 0x2013 <parse+0xcee>
    2b03: d0 e1        	bne	$2ae6 <_ZN12_GLOBAL__N_112print_stringEPKcP6Status+0x4a>
    2b05: a6 c2        	ldx	$c2                     ; 0x20c2 <parse+0xd9d>
    2b07: e4 12        	cpx	$12                     ; 0x2012 <parse+0xced>
    2b09: d0 db        	bne	$2ae6 <_ZN12_GLOBAL__N_112print_stringEPKcP6Status+0x4a>
    2b0b: a0 01        	ldy	#$1
    2b0d: 98           	tya
    2b0e: 31 c0        	and	($c0),y                 ; 0x20c0 <parse+0xd9b>
    2b10: 29 01        	and	#$1
    2b12: f0 03        	beq	$2b17 <_ZN12_GLOBAL__N_112print_stringEPKcP6Status+0x7b>
    2b14: 4c 6f 2b     	jmp	$2b6f <_ZN12_GLOBAL__N_112print_stringEPKcP6Status+0xd3>
    2b17: a0 0b        	ldy	#$b
    2b19: a5 c0        	lda	$c0                     ; 0x20c0 <parse+0xd9b>
    2b1b: 18           	clc
    2b1c: 69 0b        	adc	#$b
    2b1e: 85 14        	sta	$14                     ; 0x2014 <parse+0xcef>
    2b20: a5 c1        	lda	$c1                     ; 0x20c1 <parse+0xd9c>
    2b22: 69 00        	adc	#$0
    2b24: 85 15        	sta	$15                     ; 0x2015 <parse+0xcf0>
    2b26: b1 c0        	lda	($c0),y                 ; 0x20c0 <parse+0xd9b>
    2b28: 85 12        	sta	$12                     ; 0x2012 <parse+0xced>
    2b2a: a0 01        	ldy	#$1
    2b2c: b1 14        	lda	($14),y                 ; 0x2014 <parse+0xcef>
    2b2e: 85 13        	sta	$13                     ; 0x2013 <parse+0xcee>
    2b30: a6 c5        	ldx	$c5                     ; 0x20c5 <parse+0xda0>
    2b32: e4 13        	cpx	$13                     ; 0x2013 <parse+0xcee>
    2b34: d0 08        	bne	$2b3e <_ZN12_GLOBAL__N_112print_stringEPKcP6Status+0xa2>
    2b36: a6 c2        	ldx	$c2                     ; 0x20c2 <parse+0xd9d>
    2b38: e4 12        	cpx	$12                     ; 0x2012 <parse+0xced>
    2b3a: 90 06        	bcc	$2b42 <_ZN12_GLOBAL__N_112print_stringEPKcP6Status+0xa6>
    2b3c: 80 31        	bra	$2b6f <_ZN12_GLOBAL__N_112print_stringEPKcP6Status+0xd3>
    2b3e: e4 13        	cpx	$13                     ; 0x2013 <parse+0xcee>
    2b40: b0 2d        	bcs	$2b6f <_ZN12_GLOBAL__N_112print_stringEPKcP6Status+0xd3>
    2b42: 38           	sec
    2b43: a5 c2        	lda	$c2                     ; 0x20c2 <parse+0xd9d>
    2b45: e5 12        	sbc	$12                     ; 0x2012 <parse+0xced>
    2b47: a8           	tay
    2b48: a5 c5        	lda	$c5                     ; 0x20c5 <parse+0xda0>
    2b4a: e5 13        	sbc	$13                     ; 0x2013 <parse+0xcee>
    2b4c: 85 c4        	sta	$c4                     ; 0x20c4 <parse+0xd9f>
    2b4e: a6 c0        	ldx	$c0                     ; 0x20c0 <parse+0xd9b>
    2b50: 86 12        	stx	$12                     ; 0x2012 <parse+0xced>
    2b52: a6 c1        	ldx	$c1                     ; 0x20c1 <parse+0xd9c>
    2b54: 86 13        	stx	$13                     ; 0x2013 <parse+0xcee>
    2b56: 84 c3        	sty	$c3                     ; 0x20c3 <parse+0xd9e>
    2b58: a9 20        	lda	#$20
    2b5a: 20 cb 29     	jsr	$29cb <_ZN12_GLOBAL__N_13putEcP6Status>
    2b5d: a6 c4        	ldx	$c4                     ; 0x20c4 <parse+0xd9f>
    2b5f: e6 c3        	inc	$c3                     ; 0x20c3 <parse+0xd9e>
    2b61: d0 01        	bne	$2b64 <_ZN12_GLOBAL__N_112print_stringEPKcP6Status+0xc8>
    2b63: e8           	inx
    2b64: 86 c4        	stx	$c4                     ; 0x20c4 <parse+0xd9f>
    2b66: a4 c3        	ldy	$c3                     ; 0x20c3 <parse+0xd9e>
    2b68: 8a           	txa
    2b69: d0 e3        	bne	$2b4e <_ZN12_GLOBAL__N_112print_stringEPKcP6Status+0xb2>
    2b6b: a5 c3        	lda	$c3                     ; 0x20c3 <parse+0xd9e>
    2b6d: d0 df        	bne	$2b4e <_ZN12_GLOBAL__N_112print_stringEPKcP6Status+0xb2>
    2b6f: a4 c5        	ldy	$c5                     ; 0x20c5 <parse+0xda0>
    2b71: d0 04        	bne	$2b77 <_ZN12_GLOBAL__N_112print_stringEPKcP6Status+0xdb>
    2b73: a5 c2        	lda	$c2                     ; 0x20c2 <parse+0xd9d>
    2b75: f0 26        	beq	$2b9d <_ZN12_GLOBAL__N_112print_stringEPKcP6Status+0x101>
    2b77: a2 ff        	ldx	#$ff
    2b79: c6 c2        	dec	$c2                     ; 0x20c2 <parse+0xd9d>
    2b7b: e4 c2        	cpx	$c2                     ; 0x20c2 <parse+0xd9d>
    2b7d: d0 01        	bne	$2b80 <_ZN12_GLOBAL__N_112print_stringEPKcP6Status+0xe4>
    2b7f: 88           	dey
    2b80: 84 c3        	sty	$c3                     ; 0x20c3 <parse+0xd9e>
    2b82: b2 be        	lda	($be)                   ; 0x20be <parse+0xd99>
    2b84: e6 be        	inc	$be                     ; 0x20be <parse+0xd99>
    2b86: d0 02        	bne	$2b8a <_ZN12_GLOBAL__N_112print_stringEPKcP6Status+0xee>
    2b88: e6 bf        	inc	$bf                     ; 0x20bf <parse+0xd9a>
    2b8a: a6 c0        	ldx	$c0                     ; 0x20c0 <parse+0xd9b>
    2b8c: 86 12        	stx	$12                     ; 0x2012 <parse+0xced>
    2b8e: a6 c1        	ldx	$c1                     ; 0x20c1 <parse+0xd9c>
    2b90: 86 13        	stx	$13                     ; 0x2013 <parse+0xcee>
    2b92: 20 cb 29     	jsr	$29cb <_ZN12_GLOBAL__N_13putEcP6Status>
    2b95: a4 c3        	ldy	$c3                     ; 0x20c3 <parse+0xd9e>
    2b97: d0 de        	bne	$2b77 <_ZN12_GLOBAL__N_112print_stringEPKcP6Status+0xdb>
    2b99: a5 c2        	lda	$c2                     ; 0x20c2 <parse+0xd9d>
    2b9b: d0 da        	bne	$2b77 <_ZN12_GLOBAL__N_112print_stringEPKcP6Status+0xdb>
    2b9d: 60           	rts
    2b9e: a6 12        	ldx	$12                     ; 0x2012 <parse+0xced>
    2ba0: 86 c2        	stx	$c2                     ; 0x20c2 <parse+0xd9d>
    2ba2: a6 13        	ldx	$13                     ; 0x2013 <parse+0xcee>
    2ba4: 86 c5        	stx	$c5                     ; 0x20c5 <parse+0xda0>
    2ba6: 4c 0b 2b     	jmp	$2b0b <_ZN12_GLOBAL__N_112print_stringEPKcP6Status+0x6f>

00002ba9 <printf>:
    2ba9: a6 12        	ldx	$12                     ; 0x2012 <parse+0xced>
    2bab: 86 73        	stx	$73                     ; 0x2073 <parse+0xd4e>
    2bad: a6 13        	ldx	$13                     ; 0x2013 <parse+0xcee>
    2baf: 86 74        	stx	$74                     ; 0x2074 <parse+0xd4f>
    2bb1: 18           	clc
    2bb2: a6 10        	ldx	$10                     ; 0x2010 <parse+0xceb>
    2bb4: a4 11        	ldy	$11                     ; 0x2011 <parse+0xcec>
    2bb6: 86 b4        	stx	$b4                     ; 0x20b4 <parse+0xd8f>
    2bb8: 84 b5        	sty	$b5                     ; 0x20b5 <parse+0xd90>
    2bba: a6 b4        	ldx	$b4                     ; 0x20b4 <parse+0xd8f>
    2bbc: a4 b5        	ldy	$b5                     ; 0x20b5 <parse+0xd90>
    2bbe: 86 9f        	stx	$9f                     ; 0x209f <parse+0xd7a>
    2bc0: 84 a0        	sty	$a0                     ; 0x20a0 <parse+0xd7b>
    2bc2: a2 ff        	ldx	#$ff
    2bc4: 86 a4        	stx	$a4                     ; 0x20a4 <parse+0xd7f>
    2bc6: 86 a5        	stx	$a5                     ; 0x20a5 <parse+0xd80>
    2bc8: 64 a6        	stz	$a6                     ; 0x20a6 <parse+0xd81>
    2bca: 64 a7        	stz	$a7                     ; 0x20a7 <parse+0xd82>
    2bcc: e8           	inx
    2bcd: 86 75        	stx	$75                     ; 0x2075 <parse+0xd50>
    2bcf: a2 00        	ldx	#$0
    2bd1: 86 76        	stx	$76                     ; 0x2076 <parse+0xd51>
    2bd3: a6 75        	ldx	$75                     ; 0x2075 <parse+0xd50>
    2bd5: a4 76        	ldy	$76                     ; 0x2076 <parse+0xd51>
    2bd7: 86 aa        	stx	$aa                     ; 0x20aa <parse+0xd85>
    2bd9: 84 ab        	sty	$ab                     ; 0x20ab <parse+0xd86>
    2bdb: a2 02        	ldx	#$2
    2bdd: 86 b0        	stx	$b0                     ; 0x20b0 <parse+0xd8b>
    2bdf: 64 b1        	stz	$b1                     ; 0x20b1 <parse+0xd8c>
    2be1: a6 9f        	ldx	$9f                     ; 0x209f <parse+0xd7a>
    2be3: a4 a0        	ldy	$a0                     ; 0x20a0 <parse+0xd7b>
    2be5: 86 b2        	stx	$b2                     ; 0x20b2 <parse+0xd8d>
    2be7: 84 b3        	sty	$b3                     ; 0x20b3 <parse+0xd8e>
    2be9: a2 96        	ldx	#$96
    2beb: a0 00        	ldy	#$0
    2bed: 86 12        	stx	$12                     ; 0x2012 <parse+0xced>
    2bef: 84 13        	sty	$13                     ; 0x2013 <parse+0xcee>
    2bf1: a0 01        	ldy	#$1
    2bf3: a9 7d        	lda	#$7d
    2bf5: 18           	clc
    2bf6: 69 02        	adc	#$2
    2bf8: 85 bc        	sta	$bc                     ; 0x20bc <parse+0xd97>
    2bfa: a9 00        	lda	#$0
    2bfc: 69 00        	adc	#$0
    2bfe: 85 bd        	sta	$bd                     ; 0x20bd <parse+0xd98>
    2c00: e6 12        	inc	$12                     ; 0x2012 <parse+0xced>
    2c02: d0 02        	bne	$2c06 <printf+0x5d>
    2c04: e6 13        	inc	$13                     ; 0x2013 <parse+0xcee>
    2c06: a6 12        	ldx	$12                     ; 0x2012 <parse+0xced>
    2c08: 86 b9        	stx	$b9                     ; 0x20b9 <parse+0xd94>
    2c0a: a6 13        	ldx	$13                     ; 0x2013 <parse+0xcee>
    2c0c: 86 ba        	stx	$ba                     ; 0x20ba <parse+0xd95>
    2c0e: a6 73        	ldx	$73                     ; 0x2073 <parse+0xd4e>
    2c10: 86 77        	stx	$77                     ; 0x2077 <parse+0xd52>
    2c12: a6 74        	ldx	$74                     ; 0x2074 <parse+0xd4f>
    2c14: 86 78        	stx	$78                     ; 0x2078 <parse+0xd53>
    2c16: b2 73        	lda	($73)                   ; 0x2073 <parse+0xd4e>
    2c18: c9 25        	cmp	#$25
    2c1a: f0 21        	beq	$2c3d <printf+0x94>
    2c1c: aa           	tax
    2c1d: d0 03        	bne	$2c22 <printf+0x79>
    2c1f: 4c 58 37     	jmp	$3758 <printf+0xbaf>
    2c22: 20 88 27     	jsr	$2788 <__putchar>
    2c25: a0 01        	ldy	#$1
    2c27: e6 77        	inc	$77                     ; 0x2077 <parse+0xd52>
    2c29: d0 02        	bne	$2c2d <printf+0x84>
    2c2b: e6 78        	inc	$78                     ; 0x2078 <parse+0xd53>
    2c2d: e6 a6        	inc	$a6                     ; 0x20a6 <parse+0xd81>
    2c2f: d0 02        	bne	$2c33 <printf+0x8a>
    2c31: e6 a7        	inc	$a7                     ; 0x20a7 <parse+0xd82>
    2c33: a6 77        	ldx	$77                     ; 0x2077 <parse+0xd52>
    2c35: 86 73        	stx	$73                     ; 0x2073 <parse+0xd4e>
    2c37: a6 78        	ldx	$78                     ; 0x2078 <parse+0xd53>
    2c39: 86 74        	stx	$74                     ; 0x2074 <parse+0xd4f>
    2c3b: 80 d1        	bra	$2c0e <printf+0x65>
    2c3d: a6 73        	ldx	$73                     ; 0x2073 <parse+0xd4e>
    2c3f: 86 12        	stx	$12                     ; 0x2012 <parse+0xced>
    2c41: a6 74        	ldx	$74                     ; 0x2074 <parse+0xd4f>
    2c43: 86 13        	stx	$13                     ; 0x2013 <parse+0xcee>
    2c45: e6 12        	inc	$12                     ; 0x2012 <parse+0xced>
    2c47: d0 02        	bne	$2c4b <printf+0xa2>
    2c49: e6 13        	inc	$13                     ; 0x2013 <parse+0xcee>
    2c4b: b1 77        	lda	($77),y                 ; 0x2077 <parse+0xd52>
    2c4d: c9 25        	cmp	#$25
    2c4f: d0 16        	bne	$2c67 <printf+0xbe>
    2c51: a4 a6        	ldy	$a6                     ; 0x20a6 <parse+0xd81>
    2c53: a5 a7        	lda	$a7                     ; 0x20a7 <parse+0xd82>
    2c55: c5 a5        	cmp	$a5                     ; 0x20a5 <parse+0xd80>
    2c57: f0 03        	beq	$2c5c <printf+0xb3>
    2c59: 4c 6d 2d     	jmp	$2d6d <printf+0x1c4>
    2c5c: a6 a4        	ldx	$a4                     ; 0x20a4 <parse+0xd7f>
    2c5e: 86 12        	stx	$12                     ; 0x2012 <parse+0xced>
    2c60: 84 13        	sty	$13                     ; 0x2013 <parse+0xcee>
    2c62: c4 12        	cpy	$12                     ; 0x2012 <parse+0xced>
    2c64: 4c 71 2d     	jmp	$2d71 <printf+0x1c8>
    2c67: 64 a2        	stz	$a2                     ; 0x20a2 <parse+0xd7d>
    2c69: 64 a3        	stz	$a3                     ; 0x20a3 <parse+0xd7e>
    2c6b: 64 a1        	stz	$a1                     ; 0x20a1 <parse+0xd7c>
    2c6d: 64 ac        	stz	$ac                     ; 0x20ac <parse+0xd87>
    2c6f: 64 ad        	stz	$ad                     ; 0x20ad <parse+0xd88>
    2c71: a2 ff        	ldx	#$ff
    2c73: 86 ae        	stx	$ae                     ; 0x20ae <parse+0xd89>
    2c75: 86 af        	stx	$af                     ; 0x20af <parse+0xd8a>
    2c77: 64 72        	stz	$72                     ; 0x2072 <parse+0xd4d>
    2c79: 80 33        	bra	$2cae <printf+0x105>
    2c7b: a2 02        	ldx	#$2
    2c7d: 80 15        	bra	$2c94 <printf+0xeb>
    2c7f: e0 20        	cpx	#$20
    2c81: f0 15        	beq	$2c98 <printf+0xef>
    2c83: 86 15        	stx	$15                     ; 0x2015 <parse+0xcf0>
    2c85: e0 23        	cpx	#$23
    2c87: f0 03        	beq	$2c8c <printf+0xe3>
    2c89: 4c 0b 2d     	jmp	$2d0b <printf+0x162>
    2c8c: a5 72        	lda	$72                     ; 0x2072 <parse+0xd4d>
    2c8e: a2 04        	ldx	#$4
    2c90: 80 02        	bra	$2c94 <printf+0xeb>
    2c92: a2 10        	ldx	#$10
    2c94: 86 14        	stx	$14                     ; 0x2014 <parse+0xcef>
    2c96: 80 06        	bra	$2c9e <printf+0xf5>
    2c98: a2 08        	ldx	#$8
    2c9a: 86 14        	stx	$14                     ; 0x2014 <parse+0xcef>
    2c9c: a5 72        	lda	$72                     ; 0x2072 <parse+0xd4d>
    2c9e: 05 14        	ora	$14                     ; 0x2014 <parse+0xcef>
    2ca0: 85 72        	sta	$72                     ; 0x2072 <parse+0xd4d>
    2ca2: 85 a2        	sta	$a2                     ; 0x20a2 <parse+0xd7d>
    2ca4: a2 00        	ldx	#$0
    2ca6: 86 a3        	stx	$a3                     ; 0x20a3 <parse+0xd7e>
    2ca8: e6 12        	inc	$12                     ; 0x2012 <parse+0xced>
    2caa: d0 02        	bne	$2cae <printf+0x105>
    2cac: e6 13        	inc	$13                     ; 0x2013 <parse+0xcee>
    2cae: b2 12        	lda	($12)                   ; 0x2012 <parse+0xced>
    2cb0: aa           	tax
    2cb1: 38           	sec
    2cb2: e9 2a        	sbc	#$2a
    2cb4: c9 07        	cmp	#$7
    2cb6: b0 c7        	bcs	$2c7f <printf+0xd6>
    2cb8: 86 15        	stx	$15                     ; 0x2015 <parse+0xcf0>
    2cba: 0a           	asl
    2cbb: aa           	tax
    2cbc: a0 01        	ldy	#$1
    2cbe: 84 14        	sty	$14                     ; 0x2014 <parse+0xcef>
    2cc0: a5 72        	lda	$72                     ; 0x2072 <parse+0xd4d>
    2cc2: 7c 01 5b     	jmp	($5b01,x)               ; 0x5b01 <__set_v+0x23>
    2cc5: a5 b2        	lda	$b2                     ; 0x20b2 <parse+0xd8d>
    2cc7: a6 b3        	ldx	$b3                     ; 0x20b3 <parse+0xd8e>
    2cc9: 85 16        	sta	$16                     ; 0x2016 <parse+0xcf1>
    2ccb: 86 17        	stx	$17                     ; 0x2017 <parse+0xcf2>
    2ccd: 18           	clc
    2cce: 69 02        	adc	#$2
    2cd0: a8           	tay
    2cd1: 8a           	txa
    2cd2: 69 00        	adc	#$0
    2cd4: 84 b2        	sty	$b2                     ; 0x20b2 <parse+0xd8d>
    2cd6: 85 b3        	sta	$b3                     ; 0x20b3 <parse+0xd8e>
    2cd8: b2 16        	lda	($16)                   ; 0x2016 <parse+0xcf1>
    2cda: 85 15        	sta	$15                     ; 0x2015 <parse+0xcf0>
    2cdc: a0 01        	ldy	#$1
    2cde: b1 16        	lda	($16),y                 ; 0x2016 <parse+0xcf1>
    2ce0: 85 14        	sta	$14                     ; 0x2014 <parse+0xcef>
    2ce2: 10 15        	bpl	$2cf9 <printf+0x150>
    2ce4: a5 72        	lda	$72                     ; 0x2072 <parse+0xd4d>
    2ce6: 09 01        	ora	#$1
    2ce8: 85 72        	sta	$72                     ; 0x2072 <parse+0xd4d>
    2cea: 85 a2        	sta	$a2                     ; 0x20a2 <parse+0xd7d>
    2cec: a2 00        	ldx	#$0
    2cee: 86 a3        	stx	$a3                     ; 0x20a3 <parse+0xd7e>
    2cf0: 8a           	txa
    2cf1: 38           	sec
    2cf2: e5 15        	sbc	$15                     ; 0x2015 <parse+0xcf0>
    2cf4: 85 15        	sta	$15                     ; 0x2015 <parse+0xcf0>
    2cf6: 8a           	txa
    2cf7: e5 14        	sbc	$14                     ; 0x2014 <parse+0xcef>
    2cf9: a6 15        	ldx	$15                     ; 0x2015 <parse+0xcf0>
    2cfb: 86 ac        	stx	$ac                     ; 0x20ac <parse+0xd87>
    2cfd: 85 ad        	sta	$ad                     ; 0x20ad <parse+0xd88>
    2cff: e6 12        	inc	$12                     ; 0x2012 <parse+0xced>
    2d01: f0 03        	beq	$2d06 <printf+0x15d>
    2d03: 4c bf 2d     	jmp	$2dbf <printf+0x216>
    2d06: e6 13        	inc	$13                     ; 0x2013 <parse+0xcee>
    2d08: 4c bf 2d     	jmp	$2dbf <printf+0x216>
    2d0b: a5 15        	lda	$15                     ; 0x2015 <parse+0xcf0>
    2d0d: 18           	clc
    2d0e: 69 d0        	adc	#$d0
    2d10: c9 0a        	cmp	#$a
    2d12: 90 03        	bcc	$2d17 <printf+0x16e>
    2d14: 4c b1 2d     	jmp	$2db1 <printf+0x208>
    2d17: a6 15        	ldx	$15                     ; 0x2015 <parse+0xcf0>
    2d19: 86 14        	stx	$14                     ; 0x2014 <parse+0xcef>
    2d1b: 64 16        	stz	$16                     ; 0x2016 <parse+0xcf1>
    2d1d: 64 15        	stz	$15                     ; 0x2015 <parse+0xcf0>
    2d1f: 64 17        	stz	$17                     ; 0x2017 <parse+0xcf2>
    2d21: a0 01        	ldy	#$1
    2d23: 06 16        	asl	$16                     ; 0x2016 <parse+0xcf1>
    2d25: 26 17        	rol	$17                     ; 0x2017 <parse+0xcf2>
    2d27: a5 16        	lda	$16                     ; 0x2016 <parse+0xcf1>
    2d29: 0a           	asl
    2d2a: aa           	tax
    2d2b: a5 17        	lda	$17                     ; 0x2017 <parse+0xcf2>
    2d2d: 2a           	rol
    2d2e: 86 18        	stx	$18                     ; 0x2018 <parse+0xcf3>
    2d30: 06 18        	asl	$18                     ; 0x2018 <parse+0xcf3>
    2d32: 2a           	rol
    2d33: aa           	tax
    2d34: a5 18        	lda	$18                     ; 0x2018 <parse+0xcf3>
    2d36: 18           	clc
    2d37: 65 16        	adc	$16                     ; 0x2016 <parse+0xcf1>
    2d39: 85 16        	sta	$16                     ; 0x2016 <parse+0xcf1>
    2d3b: 8a           	txa
    2d3c: 65 17        	adc	$17                     ; 0x2017 <parse+0xcf2>
    2d3e: 85 17        	sta	$17                     ; 0x2017 <parse+0xcf2>
    2d40: a5 16        	lda	$16                     ; 0x2016 <parse+0xcf1>
    2d42: 18           	clc
    2d43: 65 14        	adc	$14                     ; 0x2014 <parse+0xcef>
    2d45: 85 14        	sta	$14                     ; 0x2014 <parse+0xcef>
    2d47: a5 17        	lda	$17                     ; 0x2017 <parse+0xcf2>
    2d49: 65 15        	adc	$15                     ; 0x2015 <parse+0xcf0>
    2d4b: aa           	tax
    2d4c: 18           	clc
    2d4d: a5 14        	lda	$14                     ; 0x2014 <parse+0xcef>
    2d4f: 69 d0        	adc	#$d0
    2d51: 85 16        	sta	$16                     ; 0x2016 <parse+0xcf1>
    2d53: 8a           	txa
    2d54: 69 ff        	adc	#$ff
    2d56: 85 17        	sta	$17                     ; 0x2017 <parse+0xcf2>
    2d58: b1 12        	lda	($12),y                 ; 0x2012 <parse+0xced>
    2d5a: 85 14        	sta	$14                     ; 0x2014 <parse+0xcef>
    2d5c: 18           	clc
    2d5d: 69 d0        	adc	#$d0
    2d5f: e6 12        	inc	$12                     ; 0x2012 <parse+0xced>
    2d61: d0 02        	bne	$2d65 <printf+0x1bc>
    2d63: e6 13        	inc	$13                     ; 0x2013 <parse+0xcee>
    2d65: c9 0a        	cmp	#$a
    2d67: 64 15        	stz	$15                     ; 0x2015 <parse+0xcf0>
    2d69: 90 b8        	bcc	$2d23 <printf+0x17a>
    2d6b: 80 4a        	bra	$2db7 <printf+0x20e>
    2d6d: 84 13        	sty	$13                     ; 0x2013 <parse+0xcee>
    2d6f: c5 a5        	cmp	$a5                     ; 0x20a5 <parse+0xd80>
    2d71: a0 01        	ldy	#$1
    2d73: b0 26        	bcs	$2d9b <printf+0x1f2>
    2d75: a6 b1        	ldx	$b1                     ; 0x20b1 <parse+0xd8c>
    2d77: e4 76        	cpx	$76                     ; 0x2076 <parse+0xd51>
    2d79: d0 19        	bne	$2d94 <printf+0x1eb>
    2d7b: a6 b0        	ldx	$b0                     ; 0x20b0 <parse+0xd8b>
    2d7d: e4 75        	cpx	$75                     ; 0x2075 <parse+0xd50>
    2d7f: d0 13        	bne	$2d94 <printf+0x1eb>
    2d81: 18           	clc
    2d82: aa           	tax
    2d83: a5 13        	lda	$13                     ; 0x2013 <parse+0xcee>
    2d85: 65 aa        	adc	$aa                     ; 0x20aa <parse+0xd85>
    2d87: 85 12        	sta	$12                     ; 0x2012 <parse+0xced>
    2d89: 8a           	txa
    2d8a: 65 ab        	adc	$ab                     ; 0x20ab <parse+0xd86>
    2d8c: 85 13        	sta	$13                     ; 0x2013 <parse+0xcee>
    2d8e: a9 25        	lda	#$25
    2d90: 92 12        	sta	($12)                   ; 0x2012 <parse+0xced>
    2d92: 80 07        	bra	$2d9b <printf+0x1f2>
    2d94: a9 25        	lda	#$25
    2d96: 20 88 27     	jsr	$2788 <__putchar>
    2d99: a0 01        	ldy	#$1
    2d9b: e6 a6        	inc	$a6                     ; 0x20a6 <parse+0xd81>
    2d9d: d0 02        	bne	$2da1 <printf+0x1f8>
    2d9f: e6 a7        	inc	$a7                     ; 0x20a7 <parse+0xd82>
    2da1: a5 77        	lda	$77                     ; 0x2077 <parse+0xd52>
    2da3: 18           	clc
    2da4: 69 02        	adc	#$2
    2da6: 85 73        	sta	$73                     ; 0x2073 <parse+0xd4e>
    2da8: a5 78        	lda	$78                     ; 0x2078 <parse+0xd53>
    2daa: 69 00        	adc	#$0
    2dac: 85 74        	sta	$74                     ; 0x2074 <parse+0xd4f>
    2dae: 4c 0e 2c     	jmp	$2c0e <printf+0x65>
    2db1: 64 16        	stz	$16                     ; 0x2016 <parse+0xcf1>
    2db3: 64 17        	stz	$17                     ; 0x2017 <parse+0xcf2>
    2db5: a0 01        	ldy	#$1
    2db7: a6 16        	ldx	$16                     ; 0x2016 <parse+0xcf1>
    2db9: 86 ac        	stx	$ac                     ; 0x20ac <parse+0xd87>
    2dbb: a5 17        	lda	$17                     ; 0x2017 <parse+0xcf2>
    2dbd: 85 ad        	sta	$ad                     ; 0x20ad <parse+0xd88>
    2dbf: 86 7b        	stx	$7b                     ; 0x207b <parse+0xd56>
    2dc1: 85 79        	sta	$79                     ; 0x2079 <parse+0xd54>
    2dc3: b2 12        	lda	($12)                   ; 0x2012 <parse+0xced>
    2dc5: a2 ff        	ldx	#$ff
    2dc7: c9 2e        	cmp	#$2e
    2dc9: d0 39        	bne	$2e04 <printf+0x25b>
    2dcb: b1 12        	lda	($12),y                 ; 0x2012 <parse+0xced>
    2dcd: c9 2a        	cmp	#$2a
    2dcf: d0 38        	bne	$2e09 <printf+0x260>
    2dd1: a5 b2        	lda	$b2                     ; 0x20b2 <parse+0xd8d>
    2dd3: a6 b3        	ldx	$b3                     ; 0x20b3 <parse+0xd8e>
    2dd5: 85 14        	sta	$14                     ; 0x2014 <parse+0xcef>
    2dd7: 86 15        	stx	$15                     ; 0x2015 <parse+0xcf0>
    2dd9: 18           	clc
    2dda: 69 02        	adc	#$2
    2ddc: 85 16        	sta	$16                     ; 0x2016 <parse+0xcf1>
    2dde: 8a           	txa
    2ddf: 69 00        	adc	#$0
    2de1: a6 16        	ldx	$16                     ; 0x2016 <parse+0xcf1>
    2de3: 86 b2        	stx	$b2                     ; 0x20b2 <parse+0xd8d>
    2de5: 85 b3        	sta	$b3                     ; 0x20b3 <parse+0xd8e>
    2de7: a5 12        	lda	$12                     ; 0x2012 <parse+0xced>
    2de9: 18           	clc
    2dea: 69 02        	adc	#$2
    2dec: 85 12        	sta	$12                     ; 0x2012 <parse+0xced>
    2dee: a5 13        	lda	$13                     ; 0x2013 <parse+0xcee>
    2df0: 69 00        	adc	#$0
    2df2: 85 13        	sta	$13                     ; 0x2013 <parse+0xcee>
    2df4: b2 14        	lda	($14)                   ; 0x2014 <parse+0xcef>
    2df6: aa           	tax
    2df7: b1 14        	lda	($14),y                 ; 0x2014 <parse+0xcef>
    2df9: 86 18        	stx	$18                     ; 0x2018 <parse+0xcf3>
    2dfb: 86 ae        	stx	$ae                     ; 0x20ae <parse+0xd89>
    2dfd: 85 19        	sta	$19                     ; 0x2019 <parse+0xcf4>
    2dff: 85 af        	sta	$af                     ; 0x20af <parse+0xd8a>
    2e01: 4c b4 2e     	jmp	$2eb4 <printf+0x30b>
    2e04: 86 18        	stx	$18                     ; 0x2018 <parse+0xcf3>
    2e06: 4c c4 2e     	jmp	$2ec4 <printf+0x31b>
    2e09: 85 17        	sta	$17                     ; 0x2017 <parse+0xcf2>
    2e0b: 18           	clc
    2e0c: 69 d0        	adc	#$d0
    2e0e: c9 0a        	cmp	#$a
    2e10: 90 03        	bcc	$2e15 <printf+0x26c>
    2e12: 4c a6 2e     	jmp	$2ea6 <printf+0x2fd>
    2e15: 64 16        	stz	$16                     ; 0x2016 <parse+0xcf1>
    2e17: a2 01        	ldx	#$1
    2e19: 64 18        	stz	$18                     ; 0x2018 <parse+0xcf3>
    2e1b: 64 19        	stz	$19                     ; 0x2019 <parse+0xcf4>
    2e1d: a0 01        	ldy	#$1
    2e1f: 64 1a        	stz	$1a                     ; 0x201a <parse+0xcf5>
    2e21: 5a           	phy
    2e22: a4 1a        	ldy	$1a                     ; 0x201a <parse+0xcf5>
    2e24: 84 14        	sty	$14                     ; 0x2014 <parse+0xcef>
    2e26: 86 15        	stx	$15                     ; 0x2015 <parse+0xcf0>
    2e28: 06 18        	asl	$18                     ; 0x2018 <parse+0xcf3>
    2e2a: 26 19        	rol	$19                     ; 0x2019 <parse+0xcf4>
    2e2c: a5 18        	lda	$18                     ; 0x2018 <parse+0xcf3>
    2e2e: 0a           	asl
    2e2f: 85 1d        	sta	$1d                     ; 0x201d <parse+0xcf8>
    2e31: a5 19        	lda	$19                     ; 0x2019 <parse+0xcf4>
    2e33: 2a           	rol
    2e34: 06 1d        	asl	$1d                     ; 0x201d <parse+0xcf8>
    2e36: 2a           	rol
    2e37: 85 1e        	sta	$1e                     ; 0x201e <parse+0xcf9>
    2e39: a5 1d        	lda	$1d                     ; 0x201d <parse+0xcf8>
    2e3b: 18           	clc
    2e3c: 65 18        	adc	$18                     ; 0x2018 <parse+0xcf3>
    2e3e: 85 18        	sta	$18                     ; 0x2018 <parse+0xcf3>
    2e40: a5 1e        	lda	$1e                     ; 0x201e <parse+0xcf9>
    2e42: 65 19        	adc	$19                     ; 0x2019 <parse+0xcf4>
    2e44: 85 19        	sta	$19                     ; 0x2019 <parse+0xcf4>
    2e46: a5 18        	lda	$18                     ; 0x2018 <parse+0xcf3>
    2e48: 18           	clc
    2e49: 65 17        	adc	$17                     ; 0x2017 <parse+0xcf2>
    2e4b: 85 17        	sta	$17                     ; 0x2017 <parse+0xcf2>
    2e4d: a5 19        	lda	$19                     ; 0x2019 <parse+0xcf4>
    2e4f: 65 16        	adc	$16                     ; 0x2016 <parse+0xcf1>
    2e51: 85 16        	sta	$16                     ; 0x2016 <parse+0xcf1>
    2e53: 18           	clc
    2e54: a5 17        	lda	$17                     ; 0x2017 <parse+0xcf2>
    2e56: 69 d0        	adc	#$d0
    2e58: 85 18        	sta	$18                     ; 0x2018 <parse+0xcf3>
    2e5a: a5 16        	lda	$16                     ; 0x2016 <parse+0xcf1>
    2e5c: 69 ff        	adc	#$ff
    2e5e: 85 19        	sta	$19                     ; 0x2019 <parse+0xcf4>
    2e60: e8           	inx
    2e61: d0 02        	bne	$2e65 <printf+0x2bc>
    2e63: e6 1a        	inc	$1a                     ; 0x201a <parse+0xcf5>
    2e65: a5 12        	lda	$12                     ; 0x2012 <parse+0xced>
    2e67: 18           	clc
    2e68: 65 15        	adc	$15                     ; 0x2015 <parse+0xcf0>
    2e6a: 85 1d        	sta	$1d                     ; 0x201d <parse+0xcf8>
    2e6c: a5 13        	lda	$13                     ; 0x2013 <parse+0xcee>
    2e6e: 65 14        	adc	$14                     ; 0x2014 <parse+0xcef>
    2e70: a4 1d        	ldy	$1d                     ; 0x201d <parse+0xcf8>
    2e72: 84 16        	sty	$16                     ; 0x2016 <parse+0xcf1>
    2e74: 7a           	ply
    2e75: 85 17        	sta	$17                     ; 0x2017 <parse+0xcf2>
    2e77: b1 16        	lda	($16),y                 ; 0x2016 <parse+0xcf1>
    2e79: 85 17        	sta	$17                     ; 0x2017 <parse+0xcf2>
    2e7b: 18           	clc
    2e7c: 69 d0        	adc	#$d0
    2e7e: c9 0a        	cmp	#$a
    2e80: 64 16        	stz	$16                     ; 0x2016 <parse+0xcf1>
    2e82: b0 03        	bcs	$2e87 <printf+0x2de>
    2e84: 4c 21 2e     	jmp	$2e21 <printf+0x278>
    2e87: a5 12        	lda	$12                     ; 0x2012 <parse+0xced>
    2e89: 18           	clc
    2e8a: 65 15        	adc	$15                     ; 0x2015 <parse+0xcf0>
    2e8c: 85 12        	sta	$12                     ; 0x2012 <parse+0xced>
    2e8e: a5 13        	lda	$13                     ; 0x2013 <parse+0xcee>
    2e90: 65 14        	adc	$14                     ; 0x2014 <parse+0xcef>
    2e92: 85 13        	sta	$13                     ; 0x2013 <parse+0xcee>
    2e94: e6 12        	inc	$12                     ; 0x2012 <parse+0xced>
    2e96: d0 02        	bne	$2e9a <printf+0x2f1>
    2e98: e6 13        	inc	$13                     ; 0x2013 <parse+0xcee>
    2e9a: a6 18        	ldx	$18                     ; 0x2018 <parse+0xcf3>
    2e9c: 86 ae        	stx	$ae                     ; 0x20ae <parse+0xd89>
    2e9e: a6 19        	ldx	$19                     ; 0x2019 <parse+0xcf4>
    2ea0: 86 af        	stx	$af                     ; 0x20af <parse+0xd8a>
    2ea2: a0 01        	ldy	#$1
    2ea4: 80 0e        	bra	$2eb4 <printf+0x30b>
    2ea6: e6 12        	inc	$12                     ; 0x2012 <parse+0xced>
    2ea8: d0 02        	bne	$2eac <printf+0x303>
    2eaa: e6 13        	inc	$13                     ; 0x2013 <parse+0xcee>
    2eac: 64 18        	stz	$18                     ; 0x2018 <parse+0xcf3>
    2eae: 64 ae        	stz	$ae                     ; 0x20ae <parse+0xd89>
    2eb0: 64 af        	stz	$af                     ; 0x20af <parse+0xd8a>
    2eb2: 64 19        	stz	$19                     ; 0x2019 <parse+0xcf4>
    2eb4: a5 72        	lda	$72                     ; 0x2072 <parse+0xd4d>
    2eb6: 29 ef        	and	#$ef
    2eb8: 85 72        	sta	$72                     ; 0x2072 <parse+0xd4d>
    2eba: 85 a2        	sta	$a2                     ; 0x20a2 <parse+0xd7d>
    2ebc: a2 00        	ldx	#$0
    2ebe: 86 a3        	stx	$a3                     ; 0x20a3 <parse+0xd7e>
    2ec0: b2 12        	lda	($12)                   ; 0x2012 <parse+0xced>
    2ec2: a6 19        	ldx	$19                     ; 0x2019 <parse+0xcf4>
    2ec4: 86 15        	stx	$15                     ; 0x2015 <parse+0xcf0>
    2ec6: a6 12        	ldx	$12                     ; 0x2012 <parse+0xced>
    2ec8: 86 73        	stx	$73                     ; 0x2073 <parse+0xd4e>
    2eca: a6 13        	ldx	$13                     ; 0x2013 <parse+0xcee>
    2ecc: 86 74        	stx	$74                     ; 0x2074 <parse+0xd4f>
    2ece: e6 73        	inc	$73                     ; 0x2073 <parse+0xd4e>
    2ed0: d0 02        	bne	$2ed4 <printf+0x32b>
    2ed2: e6 74        	inc	$74                     ; 0x2074 <parse+0xd4f>
    2ed4: 85 14        	sta	$14                     ; 0x2014 <parse+0xcef>
    2ed6: 38           	sec
    2ed7: e9 6c        	sbc	#$6c
    2ed9: 50 02        	bvc	$2edd <printf+0x334>
    2edb: 49 80        	eor	#$80
    2edd: aa           	tax
    2ede: 10 1d        	bpl	$2efd <printf+0x354>
    2ee0: a5 14        	lda	$14                     ; 0x2014 <parse+0xcef>
    2ee2: c9 4c        	cmp	#$4c
    2ee4: f0 27        	beq	$2f0d <printf+0x364>
    2ee6: c9 68        	cmp	#$68
    2ee8: d0 03        	bne	$2eed <printf+0x344>
    2eea: 4c 74 2f     	jmp	$2f74 <printf+0x3cb>
    2eed: a2 08        	ldx	#$8
    2eef: c9 6a        	cmp	#$6a
    2ef1: d0 2e        	bne	$2f21 <printf+0x378>
    2ef3: a5 73        	lda	$73                     ; 0x2073 <parse+0xd4e>
    2ef5: 85 12        	sta	$12                     ; 0x2012 <parse+0xced>
    2ef7: a5 74        	lda	$74                     ; 0x2074 <parse+0xd4f>
    2ef9: 85 13        	sta	$13                     ; 0x2013 <parse+0xcee>
    2efb: 80 43        	bra	$2f40 <printf+0x397>
    2efd: a6 14        	ldx	$14                     ; 0x2014 <parse+0xcef>
    2eff: e0 6c        	cpx	#$6c
    2f01: f0 23        	beq	$2f26 <printf+0x37d>
    2f03: e0 74        	cpx	#$74
    2f05: f0 12        	beq	$2f19 <printf+0x370>
    2f07: e0 7a        	cpx	#$7a
    2f09: f0 0e        	beq	$2f19 <printf+0x370>
    2f0b: 80 14        	bra	$2f21 <printf+0x378>
    2f0d: a5 72        	lda	$72                     ; 0x2072 <parse+0xd4d>
    2f0f: 09 40        	ora	#$40
    2f11: 85 72        	sta	$72                     ; 0x2072 <parse+0xd4d>
    2f13: 85 a2        	sta	$a2                     ; 0x20a2 <parse+0xd7d>
    2f15: a2 00        	ldx	#$0
    2f17: 86 a3        	stx	$a3                     ; 0x20a3 <parse+0xd7e>
    2f19: a6 73        	ldx	$73                     ; 0x2073 <parse+0xd4e>
    2f1b: 86 12        	stx	$12                     ; 0x2012 <parse+0xced>
    2f1d: a6 74        	ldx	$74                     ; 0x2074 <parse+0xd4f>
    2f1f: 86 13        	stx	$13                     ; 0x2013 <parse+0xcee>
    2f21: a2 02        	ldx	#$2
    2f23: 8a           	txa
    2f24: 80 1c        	bra	$2f42 <printf+0x399>
    2f26: b1 12        	lda	($12),y                 ; 0x2012 <parse+0xced>
    2f28: a2 04        	ldx	#$4
    2f2a: c9 6c        	cmp	#$6c
    2f2c: f0 03        	beq	$2f31 <printf+0x388>
    2f2e: 4c 73 32     	jmp	$3273 <printf+0x6ca>
    2f31: a5 12        	lda	$12                     ; 0x2012 <parse+0xced>
    2f33: 18           	clc
    2f34: 69 02        	adc	#$2
    2f36: 85 12        	sta	$12                     ; 0x2012 <parse+0xced>
    2f38: a5 13        	lda	$13                     ; 0x2013 <parse+0xcee>
    2f3a: 69 00        	adc	#$0
    2f3c: 85 13        	sta	$13                     ; 0x2013 <parse+0xcee>
    2f3e: a2 08        	ldx	#$8
    2f40: a9 08        	lda	#$8
    2f42: 85 b8        	sta	$b8                     ; 0x20b8 <parse+0xd93>
    2f44: b2 12        	lda	($12)                   ; 0x2012 <parse+0xced>
    2f46: 5a           	phy
    2f47: a4 12        	ldy	$12                     ; 0x2012 <parse+0xced>
    2f49: 84 73        	sty	$73                     ; 0x2073 <parse+0xd4e>
    2f4b: a4 13        	ldy	$13                     ; 0x2013 <parse+0xcee>
    2f4d: 84 74        	sty	$74                     ; 0x2074 <parse+0xd4f>
    2f4f: 7a           	ply
    2f50: 86 75        	stx	$75                     ; 0x2075 <parse+0xd50>
    2f52: aa           	tax
    2f53: 38           	sec
    2f54: e9 63        	sbc	#$63
    2f56: c9 16        	cmp	#$16
    2f58: b0 39        	bcs	$2f93 <printf+0x3ea>
    2f5a: 0a           	asl
    2f5b: aa           	tax
    2f5c: 7c 0f 5b     	jmp	($5b0f,x)               ; 0x5b0f <__set_v+0x31>
    2f5f: a6 15        	ldx	$15                     ; 0x2015 <parse+0xcf0>
    2f61: 86 b6        	stx	$b6                     ; 0x20b6 <parse+0xd91>
    2f63: a6 18        	ldx	$18                     ; 0x2018 <parse+0xcf3>
    2f65: 86 bb        	stx	$bb                     ; 0x20bb <parse+0xd96>
    2f67: a0 0a        	ldy	#$a
    2f69: a2 0a        	ldx	#$a
    2f6b: 86 b7        	stx	$b7                     ; 0x20b7 <parse+0xd92>
    2f6d: 84 a1        	sty	$a1                     ; 0x20a1 <parse+0xd7c>
    2f6f: 64 7c        	stz	$7c                     ; 0x207c <parse+0xd57>
    2f71: 4c 93 30     	jmp	$3093 <printf+0x4ea>
    2f74: b1 12        	lda	($12),y                 ; 0x2012 <parse+0xced>
    2f76: a2 02        	ldx	#$2
    2f78: c9 68        	cmp	#$68
    2f7a: f0 03        	beq	$2f7f <printf+0x3d6>
    2f7c: 4c 79 32     	jmp	$3279 <printf+0x6d0>
    2f7f: a5 12        	lda	$12                     ; 0x2012 <parse+0xced>
    2f81: 18           	clc
    2f82: 69 02        	adc	#$2
    2f84: 85 12        	sta	$12                     ; 0x2012 <parse+0xced>
    2f86: a5 13        	lda	$13                     ; 0x2013 <parse+0xcee>
    2f88: 69 00        	adc	#$0
    2f8a: 85 13        	sta	$13                     ; 0x2013 <parse+0xcee>
    2f8c: a2 01        	ldx	#$1
    2f8e: 86 b8        	stx	$b8                     ; 0x20b8 <parse+0xd93>
    2f90: e8           	inx
    2f91: 80 b1        	bra	$2f44 <printf+0x39b>
    2f93: e0 58        	cpx	#$58
    2f95: f0 03        	beq	$2f9a <printf+0x3f1>
    2f97: 4c 14 37     	jmp	$3714 <printf+0xb6b>
    2f9a: a6 15        	ldx	$15                     ; 0x2015 <parse+0xcf0>
    2f9c: 86 b6        	stx	$b6                     ; 0x20b6 <parse+0xd91>
    2f9e: a6 18        	ldx	$18                     ; 0x2018 <parse+0xcf3>
    2fa0: 86 bb        	stx	$bb                     ; 0x20bb <parse+0xd96>
    2fa2: a2 10        	ldx	#$10
    2fa4: 86 a1        	stx	$a1                     ; 0x20a1 <parse+0xd7c>
    2fa6: a9 00        	lda	#$0
    2fa8: 09 01        	ora	#$1
    2faa: a6 72        	ldx	$72                     ; 0x2072 <parse+0xd4d>
    2fac: 80 29        	bra	$2fd7 <printf+0x42e>
    2fae: a6 15        	ldx	$15                     ; 0x2015 <parse+0xcf0>
    2fb0: 86 b6        	stx	$b6                     ; 0x20b6 <parse+0xd91>
    2fb2: a6 18        	ldx	$18                     ; 0x2018 <parse+0xcf3>
    2fb4: 86 bb        	stx	$bb                     ; 0x20bb <parse+0xd96>
    2fb6: a2 10        	ldx	#$10
    2fb8: 86 a1        	stx	$a1                     ; 0x20a1 <parse+0xd7c>
    2fba: a5 72        	lda	$72                     ; 0x2072 <parse+0xd4d>
    2fbc: 09 84        	ora	#$84
    2fbe: 80 10        	bra	$2fd0 <printf+0x427>
    2fc0: a6 15        	ldx	$15                     ; 0x2015 <parse+0xcf0>
    2fc2: 86 b6        	stx	$b6                     ; 0x20b6 <parse+0xd91>
    2fc4: a6 18        	ldx	$18                     ; 0x2018 <parse+0xcf3>
    2fc6: 86 bb        	stx	$bb                     ; 0x20bb <parse+0xd96>
    2fc8: a2 10        	ldx	#$10
    2fca: 86 a1        	stx	$a1                     ; 0x20a1 <parse+0xd7c>
    2fcc: a5 72        	lda	$72                     ; 0x2072 <parse+0xd4d>
    2fce: 09 80        	ora	#$80
    2fd0: aa           	tax
    2fd1: a9 00        	lda	#$0
    2fd3: 09 01        	ora	#$1
    2fd5: 86 72        	stx	$72                     ; 0x2072 <parse+0xd4d>
    2fd7: 86 a2        	stx	$a2                     ; 0x20a2 <parse+0xd7d>
    2fd9: 85 7c        	sta	$7c                     ; 0x207c <parse+0xd57>
    2fdb: 85 a3        	sta	$a3                     ; 0x20a3 <parse+0xd7e>
    2fdd: a2 10        	ldx	#$10
    2fdf: 86 b7        	stx	$b7                     ; 0x20b7 <parse+0xd92>
    2fe1: 4c 93 30     	jmp	$3093 <printf+0x4ea>
    2fe4: a5 b2        	lda	$b2                     ; 0x20b2 <parse+0xd8d>
    2fe6: a6 b3        	ldx	$b3                     ; 0x20b3 <parse+0xd8e>
    2fe8: 85 12        	sta	$12                     ; 0x2012 <parse+0xced>
    2fea: 86 13        	stx	$13                     ; 0x2013 <parse+0xcee>
    2fec: 18           	clc
    2fed: 69 02        	adc	#$2
    2fef: 85 14        	sta	$14                     ; 0x2014 <parse+0xcef>
    2ff1: 8a           	txa
    2ff2: 69 00        	adc	#$0
    2ff4: a6 14        	ldx	$14                     ; 0x2014 <parse+0xcef>
    2ff6: 86 b2        	stx	$b2                     ; 0x20b2 <parse+0xd8d>
    2ff8: 85 b3        	sta	$b3                     ; 0x20b3 <parse+0xd8e>
    2ffa: b2 12        	lda	($12)                   ; 0x2012 <parse+0xced>
    2ffc: aa           	tax
    2ffd: b1 12        	lda	($12),y                 ; 0x2012 <parse+0xced>
    2fff: 86 12        	stx	$12                     ; 0x2012 <parse+0xced>
    3001: 85 13        	sta	$13                     ; 0x2013 <parse+0xcee>
    3003: a5 a6        	lda	$a6                     ; 0x20a6 <parse+0xd81>
    3005: a6 a7        	ldx	$a7                     ; 0x20a7 <parse+0xd82>
    3007: 92 12        	sta	($12)                   ; 0x2012 <parse+0xced>
    3009: 8a           	txa
    300a: 91 12        	sta	($12),y                 ; 0x2012 <parse+0xced>
    300c: 4c 6c 30     	jmp	$306c <printf+0x4c3>
    300f: a5 b2        	lda	$b2                     ; 0x20b2 <parse+0xd8d>
    3011: a6 b3        	ldx	$b3                     ; 0x20b3 <parse+0xd8e>
    3013: 85 12        	sta	$12                     ; 0x2012 <parse+0xced>
    3015: 86 13        	stx	$13                     ; 0x2013 <parse+0xcee>
    3017: 18           	clc
    3018: 69 02        	adc	#$2
    301a: 85 14        	sta	$14                     ; 0x2014 <parse+0xcef>
    301c: 8a           	txa
    301d: 69 00        	adc	#$0
    301f: a6 14        	ldx	$14                     ; 0x2014 <parse+0xcef>
    3021: 86 b2        	stx	$b2                     ; 0x20b2 <parse+0xd8d>
    3023: 85 b3        	sta	$b3                     ; 0x20b3 <parse+0xd8e>
    3025: b2 12        	lda	($12)                   ; 0x2012 <parse+0xced>
    3027: aa           	tax
    3028: b1 12        	lda	($12),y                 ; 0x2012 <parse+0xced>
    302a: 86 12        	stx	$12                     ; 0x2012 <parse+0xced>
    302c: 85 13        	sta	$13                     ; 0x2013 <parse+0xcee>
    302e: 80 2f        	bra	$305f <printf+0x4b6>
    3030: a6 15        	ldx	$15                     ; 0x2015 <parse+0xcf0>
    3032: 86 b6        	stx	$b6                     ; 0x20b6 <parse+0xd91>
    3034: a6 18        	ldx	$18                     ; 0x2018 <parse+0xcf3>
    3036: 86 bb        	stx	$bb                     ; 0x20bb <parse+0xd96>
    3038: a0 08        	ldy	#$8
    303a: a2 08        	ldx	#$8
    303c: 80 45        	bra	$3083 <printf+0x4da>
    303e: a5 b2        	lda	$b2                     ; 0x20b2 <parse+0xd8d>
    3040: a6 b3        	ldx	$b3                     ; 0x20b3 <parse+0xd8e>
    3042: 85 12        	sta	$12                     ; 0x2012 <parse+0xced>
    3044: 86 13        	stx	$13                     ; 0x2013 <parse+0xcee>
    3046: 18           	clc
    3047: 69 02        	adc	#$2
    3049: a8           	tay
    304a: 8a           	txa
    304b: 69 00        	adc	#$0
    304d: 84 b2        	sty	$b2                     ; 0x20b2 <parse+0xd8d>
    304f: 85 b3        	sta	$b3                     ; 0x20b3 <parse+0xd8e>
    3051: b2 12        	lda	($12)                   ; 0x2012 <parse+0xced>
    3053: 85 94        	sta	$94                     ; 0x2094 <parse+0xd6f>
    3055: 64 95        	stz	$95                     ; 0x2095 <parse+0xd70>
    3057: a2 94        	ldx	#$94
    3059: 86 12        	stx	$12                     ; 0x2012 <parse+0xced>
    305b: a2 00        	ldx	#$0
    305d: 86 13        	stx	$13                     ; 0x2013 <parse+0xcee>
    305f: a2 a1        	ldx	#$a1
    3061: 86 14        	stx	$14                     ; 0x2014 <parse+0xcef>
    3063: a2 00        	ldx	#$0
    3065: 86 15        	stx	$15                     ; 0x2015 <parse+0xcf0>
    3067: 20 9c 2a     	jsr	$2a9c <_ZN12_GLOBAL__N_112print_stringEPKcP6Status>
    306a: a0 01        	ldy	#$1
    306c: a2 00        	ldx	#$0
    306e: 86 75        	stx	$75                     ; 0x2075 <parse+0xd50>
    3070: a2 00        	ldx	#$0
    3072: 86 76        	stx	$76                     ; 0x2076 <parse+0xd51>
    3074: 4c fc 36     	jmp	$36fc <printf+0xb53>
    3077: a6 15        	ldx	$15                     ; 0x2015 <parse+0xcf0>
    3079: 86 b6        	stx	$b6                     ; 0x20b6 <parse+0xd91>
    307b: a6 18        	ldx	$18                     ; 0x2018 <parse+0xcf3>
    307d: 86 bb        	stx	$bb                     ; 0x20bb <parse+0xd96>
    307f: a0 0a        	ldy	#$a
    3081: a2 0a        	ldx	#$a
    3083: 86 b7        	stx	$b7                     ; 0x20b7 <parse+0xd92>
    3085: 84 a1        	sty	$a1                     ; 0x20a1 <parse+0xd7c>
    3087: a9 00        	lda	#$0
    3089: 09 01        	ora	#$1
    308b: a6 72        	ldx	$72                     ; 0x2072 <parse+0xd4d>
    308d: 86 a2        	stx	$a2                     ; 0x20a2 <parse+0xd7d>
    308f: 85 7c        	sta	$7c                     ; 0x207c <parse+0xd57>
    3091: 85 a3        	sta	$a3                     ; 0x20a3 <parse+0xd7e>
    3093: a5 b8        	lda	$b8                     ; 0x20b8 <parse+0xd93>
    3095: 85 96        	sta	$96                     ; 0x2096 <parse+0xd71>
    3097: a4 b2        	ldy	$b2                     ; 0x20b2 <parse+0xd8d>
    3099: a6 b3        	ldx	$b3                     ; 0x20b3 <parse+0xd8e>
    309b: 86 7a        	stx	$7a                     ; 0x207a <parse+0xd55>
    309d: 84 14        	sty	$14                     ; 0x2014 <parse+0xcef>
    309f: 84 71        	sty	$71                     ; 0x2071 <parse+0xd4c>
    30a1: 86 15        	stx	$15                     ; 0x2015 <parse+0xcf0>
    30a3: a6 b9        	ldx	$b9                     ; 0x20b9 <parse+0xd94>
    30a5: 86 12        	stx	$12                     ; 0x2012 <parse+0xced>
    30a7: a6 ba        	ldx	$ba                     ; 0x20ba <parse+0xd95>
    30a9: 86 13        	stx	$13                     ; 0x2013 <parse+0xcee>
    30ab: a2 00        	ldx	#$0
    30ad: 85 76        	sta	$76                     ; 0x2076 <parse+0xd51>
    30af: 20 41 3a     	jsr	$3a41 <memcpy>
    30b2: 18           	clc
    30b3: a5 71        	lda	$71                     ; 0x2071 <parse+0xd4c>
    30b5: 65 75        	adc	$75                     ; 0x2075 <parse+0xd50>
    30b7: aa           	tax
    30b8: a5 7a        	lda	$7a                     ; 0x207a <parse+0xd55>
    30ba: 69 00        	adc	#$0
    30bc: 86 b2        	stx	$b2                     ; 0x20b2 <parse+0xd8d>
    30be: 85 b3        	sta	$b3                     ; 0x20b3 <parse+0xd8e>
    30c0: a5 7c        	lda	$7c                     ; 0x207c <parse+0xd57>
    30c2: 29 01        	and	#$1
    30c4: b8           	clv
    30c5: f0 03        	beq	$30ca <printf+0x521>
    30c7: 4c 1e 31     	jmp	$311e <printf+0x575>
    30ca: a6 76        	ldx	$76                     ; 0x2076 <parse+0xd51>
    30cc: b5 96        	lda	$96,x                   ; 0x2096 <parse+0xd71>
    30ce: aa           	tax
    30cf: a0 01        	ldy	#$1
    30d1: a5 79        	lda	$79                     ; 0x2079 <parse+0xd54>
    30d3: 85 1a        	sta	$1a                     ; 0x201a <parse+0xcf5>
    30d5: a5 bb        	lda	$bb                     ; 0x20bb <parse+0xd96>
    30d7: 85 79        	sta	$79                     ; 0x2079 <parse+0xd54>
    30d9: a9 00        	lda	#$0
    30db: 85 75        	sta	$75                     ; 0x2075 <parse+0xd50>
    30dd: a9 00        	lda	#$0
    30df: 85 76        	sta	$76                     ; 0x2076 <parse+0xd51>
    30e1: a5 b6        	lda	$b6                     ; 0x20b6 <parse+0xd91>
    30e3: 85 7a        	sta	$7a                     ; 0x207a <parse+0xd55>
    30e5: 8a           	txa
    30e6: 10 4c        	bpl	$3134 <printf+0x58b>
    30e8: a2 00        	ldx	#$0
    30ea: 64 12        	stz	$12                     ; 0x2012 <parse+0xced>
    30ec: a9 00        	lda	#$0
    30ee: 38           	sec
    30ef: f5 97        	sbc	$97,x                   ; 0x2097 <parse+0xd72>
    30f1: a0 00        	ldy	#$0
    30f3: b0 02        	bcs	$30f7 <printf+0x54e>
    30f5: a0 01        	ldy	#$1
    30f7: 38           	sec
    30f8: e5 12        	sbc	$12                     ; 0x2012 <parse+0xced>
    30fa: 85 13        	sta	$13                     ; 0x2013 <parse+0xcee>
    30fc: 64 12        	stz	$12                     ; 0x2012 <parse+0xced>
    30fe: b0 04        	bcs	$3104 <printf+0x55b>
    3100: a9 01        	lda	#$1
    3102: 85 12        	sta	$12                     ; 0x2012 <parse+0xced>
    3104: 98           	tya
    3105: 05 12        	ora	$12                     ; 0x2012 <parse+0xced>
    3107: 85 12        	sta	$12                     ; 0x2012 <parse+0xced>
    3109: a5 13        	lda	$13                     ; 0x2013 <parse+0xcee>
    310b: 9d 97 00     	sta	$97,x                   ; 0x97 <__zp_data_size+0x67>
    310e: e8           	inx
    310f: 86 13        	stx	$13                     ; 0x2013 <parse+0xcee>
    3111: a4 b8        	ldy	$b8                     ; 0x20b8 <parse+0xd93>
    3113: c4 13        	cpy	$13                     ; 0x2013 <parse+0xcee>
    3115: d0 d5        	bne	$30ec <printf+0x543>
    3117: 2c de 5a     	bit	$5ade                   ; 0x5ade <__set_v>
    311a: a0 01        	ldy	#$1
    311c: 80 16        	bra	$3134 <printf+0x58b>
    311e: a0 01        	ldy	#$1
    3120: a6 79        	ldx	$79                     ; 0x2079 <parse+0xd54>
    3122: 86 1a        	stx	$1a                     ; 0x201a <parse+0xcf5>
    3124: a6 bb        	ldx	$bb                     ; 0x20bb <parse+0xd96>
    3126: 86 79        	stx	$79                     ; 0x2079 <parse+0xd54>
    3128: a2 00        	ldx	#$0
    312a: 86 75        	stx	$75                     ; 0x2075 <parse+0xd50>
    312c: a2 00        	ldx	#$0
    312e: 86 76        	stx	$76                     ; 0x2076 <parse+0xd51>
    3130: a6 b6        	ldx	$b6                     ; 0x20b6 <parse+0xd91>
    3132: 86 7a        	stx	$7a                     ; 0x207a <parse+0xd55>
    3134: a2 01        	ldx	#$1
    3136: 70 02        	bvs	$313a <printf+0x591>
    3138: a2 00        	ldx	#$0
    313a: 86 16        	stx	$16                     ; 0x2016 <parse+0xcf1>
    313c: a5 b8        	lda	$b8                     ; 0x20b8 <parse+0xd93>
    313e: 0a           	asl
    313f: 0a           	asl
    3140: 0a           	asl
    3141: 85 12        	sta	$12                     ; 0x2012 <parse+0xced>
    3143: a2 00        	ldx	#$0
    3145: 8a           	txa
    3146: 4c fa 31     	jmp	$31fa <printf+0x651>
    3149: da           	phx
    314a: 7a           	ply
    314b: c8           	iny
    314c: 9d 7f 00     	sta	$7f,x                   ; 0x7f <__zp_data_size+0x4f>
    314f: 5a           	phy
    3150: fa           	plx
    3151: c4 71        	cpy	$71                     ; 0x2071 <parse+0xd4c>
    3153: f0 30        	beq	$3185 <printf+0x5dc>
    3155: b5 7f        	lda	$7f,x                   ; 0x207f <parse+0xd5a>
    3157: 0a           	asl
    3158: a4 b6        	ldy	$b6                     ; 0x20b6 <parse+0xd91>
    315a: f0 02        	beq	$315e <printf+0x5b5>
    315c: 09 01        	ora	#$1
    315e: a4 b7        	ldy	$b7                     ; 0x20b7 <parse+0xd92>
    3160: 84 14        	sty	$14                     ; 0x2014 <parse+0xcef>
    3162: c5 14        	cmp	$14                     ; 0x2014 <parse+0xcef>
    3164: a0 01        	ldy	#$1
    3166: b0 02        	bcs	$316a <printf+0x5c1>
    3168: a0 00        	ldy	#$0
    316a: 84 b6        	sty	$b6                     ; 0x20b6 <parse+0xd91>
    316c: 90 db        	bcc	$3149 <printf+0x5a0>
    316e: 38           	sec
    316f: e5 14        	sbc	$14                     ; 0x2014 <parse+0xcef>
    3171: 9d 7f 00     	sta	$7f,x                   ; 0x7f <__zp_data_size+0x4f>
    3174: e8           	inx
    3175: e4 71        	cpx	$71                     ; 0x2071 <parse+0xd4c>
    3177: d0 dc        	bne	$3155 <printf+0x5ac>
    3179: a4 71        	ldy	$71                     ; 0x2071 <parse+0xd4c>
    317b: a6 71        	ldx	$71                     ; 0x2071 <parse+0xd4c>
    317d: e8           	inx
    317e: a9 01        	lda	#$1
    3180: 99 7f 00     	sta	$7f,y                   ; 0x7f <__zp_data_size+0x4f>
    3183: 86 71        	stx	$71                     ; 0x2071 <parse+0xd4c>
    3185: a6 b8        	ldx	$b8                     ; 0x20b8 <parse+0xd93>
    3187: b5 96        	lda	$96,x                   ; 0x2096 <parse+0xd71>
    3189: aa           	tax
    318a: 30 0f        	bmi	$319b <printf+0x5f2>
    318c: a0 01        	ldy	#$1
    318e: 80 42        	bra	$31d2 <printf+0x629>
    3190: a6 b8        	ldx	$b8                     ; 0x20b8 <parse+0xd93>
    3192: b5 96        	lda	$96,x                   ; 0x2096 <parse+0xd71>
    3194: aa           	tax
    3195: 64 71        	stz	$71                     ; 0x2071 <parse+0xd4c>
    3197: 10 39        	bpl	$31d2 <printf+0x629>
    3199: 80 2a        	bra	$31c5 <printf+0x61c>
    319b: a5 71        	lda	$71                     ; 0x2071 <parse+0xd4c>
    319d: f0 24        	beq	$31c3 <printf+0x61a>
    319f: a2 00        	ldx	#$0
    31a1: a4 b7        	ldy	$b7                     ; 0x20b7 <parse+0xd92>
    31a3: 84 14        	sty	$14                     ; 0x2014 <parse+0xcef>
    31a5: b5 7f        	lda	$7f,x                   ; 0x207f <parse+0xd5a>
    31a7: 1a           	inc
    31a8: f6 7f        	inc	$7f,x                   ; 0x207f <parse+0xd5a>
    31aa: c5 14        	cmp	$14                     ; 0x2014 <parse+0xcef>
    31ac: 90 de        	bcc	$318c <printf+0x5e3>
    31ae: a4 14        	ldy	$14                     ; 0x2014 <parse+0xcef>
    31b0: 84 13        	sty	$13                     ; 0x2013 <parse+0xcee>
    31b2: 38           	sec
    31b3: e5 13        	sbc	$13                     ; 0x2013 <parse+0xcee>
    31b5: 9d 7f 00     	sta	$7f,x                   ; 0x7f <__zp_data_size+0x4f>
    31b8: e8           	inx
    31b9: 86 13        	stx	$13                     ; 0x2013 <parse+0xcee>
    31bb: a4 71        	ldy	$71                     ; 0x2071 <parse+0xd4c>
    31bd: c4 13        	cpy	$13                     ; 0x2013 <parse+0xcee>
    31bf: d0 e4        	bne	$31a5 <printf+0x5fc>
    31c1: 80 02        	bra	$31c5 <printf+0x61c>
    31c3: 64 71        	stz	$71                     ; 0x2071 <parse+0xd4c>
    31c5: a4 71        	ldy	$71                     ; 0x2071 <parse+0xd4c>
    31c7: a6 71        	ldx	$71                     ; 0x2071 <parse+0xd4c>
    31c9: e8           	inx
    31ca: a9 01        	lda	#$1
    31cc: 99 7f 00     	sta	$7f,y                   ; 0x7f <__zp_data_size+0x4f>
    31cf: a8           	tay
    31d0: 86 71        	stx	$71                     ; 0x2071 <parse+0xd4c>
    31d2: a2 01        	ldx	#$1
    31d4: 64 13        	stz	$13                     ; 0x2013 <parse+0xcee>
    31d6: a5 b8        	lda	$b8                     ; 0x20b8 <parse+0xd93>
    31d8: 85 14        	sta	$14                     ; 0x2014 <parse+0xcef>
    31da: b5 96        	lda	$96,x                   ; 0x2096 <parse+0xd71>
    31dc: 0a           	asl
    31dd: 64 15        	stz	$15                     ; 0x2015 <parse+0xcf0>
    31df: 26 15        	rol	$15                     ; 0x2015 <parse+0xcf0>
    31e1: 05 13        	ora	$13                     ; 0x2013 <parse+0xcee>
    31e3: 9d 96 00     	sta	$96,x                   ; 0x96 <__zp_data_size+0x66>
    31e6: e8           	inx
    31e7: c6 14        	dec	$14                     ; 0x2014 <parse+0xcef>
    31e9: a5 15        	lda	$15                     ; 0x2015 <parse+0xcf0>
    31eb: 85 13        	sta	$13                     ; 0x2013 <parse+0xcee>
    31ed: a5 14        	lda	$14                     ; 0x2014 <parse+0xcef>
    31ef: d0 e9        	bne	$31da <printf+0x631>
    31f1: a5 17        	lda	$17                     ; 0x2017 <parse+0xcf2>
    31f3: 1a           	inc
    31f4: c5 12        	cmp	$12                     ; 0x2012 <parse+0xced>
    31f6: a6 71        	ldx	$71                     ; 0x2071 <parse+0xd4c>
    31f8: b0 13        	bcs	$320d <printf+0x664>
    31fa: 85 17        	sta	$17                     ; 0x2017 <parse+0xcf2>
    31fc: 8a           	txa
    31fd: d0 03        	bne	$3202 <printf+0x659>
    31ff: 4c 90 31     	jmp	$3190 <printf+0x5e7>
    3202: 86 71        	stx	$71                     ; 0x2071 <parse+0xd4c>
    3204: a2 00        	ldx	#$0
    3206: 86 b6        	stx	$b6                     ; 0x20b6 <parse+0xd91>
    3208: a2 00        	ldx	#$0
    320a: 4c 55 31     	jmp	$3155 <printf+0x5ac>
    320d: a5 72        	lda	$72                     ; 0x2072 <parse+0xd4d>
    320f: e6 7a        	inc	$7a                     ; 0x207a <parse+0xd55>
    3211: c6 7a        	dec	$7a                     ; 0x207a <parse+0xd55>
    3213: 10 08        	bpl	$321d <printf+0x674>
    3215: a2 01        	ldx	#$1
    3217: 64 7a        	stz	$7a                     ; 0x207a <parse+0xd55>
    3219: 86 79        	stx	$79                     ; 0x2079 <parse+0xd54>
    321b: a6 71        	ldx	$71                     ; 0x2071 <parse+0xd4c>
    321d: 29 04        	and	#$4
    321f: f0 2b        	beq	$324c <printf+0x6a3>
    3221: a5 b7        	lda	$b7                     ; 0x20b7 <parse+0xd92>
    3223: c9 10        	cmp	#$10
    3225: f0 14        	beq	$323b <printf+0x692>
    3227: c9 08        	cmp	#$8
    3229: d0 21        	bne	$324c <printf+0x6a3>
    322b: a2 00        	ldx	#$0
    322d: e4 7a        	cpx	$7a                     ; 0x207a <parse+0xd55>
    322f: f0 03        	beq	$3234 <printf+0x68b>
    3231: 4c 21 37     	jmp	$3721 <printf+0xb78>
    3234: a6 71        	ldx	$71                     ; 0x2071 <parse+0xd4c>
    3236: e4 79        	cpx	$79                     ; 0x2079 <parse+0xd54>
    3238: 4c 23 37     	jmp	$3723 <printf+0xb7a>
    323b: 8a           	txa
    323c: f0 0e        	beq	$324c <printf+0x6a3>
    323e: a5 72        	lda	$72                     ; 0x2072 <parse+0xd4d>
    3240: 29 80        	and	#$80
    3242: d0 03        	bne	$3247 <printf+0x69e>
    3244: 4c 3c 37     	jmp	$373c <printf+0xb93>
    3247: a2 78        	ldx	#$78
    3249: 4c 3e 37     	jmp	$373e <printf+0xb95>
    324c: a6 72        	ldx	$72                     ; 0x2072 <parse+0xd4d>
    324e: a9 2d        	lda	#$2d
    3250: 85 b8        	sta	$b8                     ; 0x20b8 <parse+0xd93>
    3252: a5 16        	lda	$16                     ; 0x2016 <parse+0xcf1>
    3254: d0 32        	bne	$3288 <printf+0x6df>
    3256: 86 12        	stx	$12                     ; 0x2012 <parse+0xced>
    3258: 8a           	txa
    3259: 29 02        	and	#$2
    325b: a2 2b        	ldx	#$2b
    325d: 86 b8        	stx	$b8                     ; 0x20b8 <parse+0xd93>
    325f: aa           	tax
    3260: d0 26        	bne	$3288 <printf+0x6df>
    3262: a5 12        	lda	$12                     ; 0x2012 <parse+0xced>
    3264: 29 08        	and	#$8
    3266: d0 1c        	bne	$3284 <printf+0x6db>
    3268: a2 01        	ldx	#$1
    326a: 86 b7        	stx	$b7                     ; 0x20b7 <parse+0xd92>
    326c: a9 00        	lda	#$0
    326e: aa           	tax
    326f: 86 b6        	stx	$b6                     ; 0x20b6 <parse+0xd91>
    3271: 80 1c        	bra	$328f <printf+0x6e6>
    3273: 85 12        	sta	$12                     ; 0x2012 <parse+0xced>
    3275: a9 04        	lda	#$4
    3277: 80 04        	bra	$327d <printf+0x6d4>
    3279: 85 12        	sta	$12                     ; 0x2012 <parse+0xced>
    327b: a9 02        	lda	#$2
    327d: 85 b8        	sta	$b8                     ; 0x20b8 <parse+0xd93>
    327f: a5 12        	lda	$12                     ; 0x2012 <parse+0xced>
    3281: 4c 50 2f     	jmp	$2f50 <printf+0x3a7>
    3284: a2 20        	ldx	#$20
    3286: 86 b8        	stx	$b8                     ; 0x20b8 <parse+0xd93>
    3288: a2 00        	ldx	#$0
    328a: 86 b7        	stx	$b7                     ; 0x20b7 <parse+0xd92>
    328c: 86 b6        	stx	$b6                     ; 0x20b6 <parse+0xd91>
    328e: 98           	tya
    328f: a6 7a        	ldx	$7a                     ; 0x207a <parse+0xd55>
    3291: d0 35        	bne	$32c8 <printf+0x71f>
    3293: a6 79        	ldx	$79                     ; 0x2079 <parse+0xd54>
    3295: a4 71        	ldy	$71                     ; 0x2071 <parse+0xd4c>
    3297: 84 12        	sty	$12                     ; 0x2012 <parse+0xced>
    3299: e4 12        	cpx	$12                     ; 0x2012 <parse+0xced>
    329b: a6 79        	ldx	$79                     ; 0x2079 <parse+0xd54>
    329d: 86 12        	stx	$12                     ; 0x2012 <parse+0xced>
    329f: a6 7a        	ldx	$7a                     ; 0x207a <parse+0xd55>
    32a1: 86 13        	stx	$13                     ; 0x2013 <parse+0xcee>
    32a3: b0 04        	bcs	$32a9 <printf+0x700>
    32a5: 84 12        	sty	$12                     ; 0x2012 <parse+0xced>
    32a7: 64 13        	stz	$13                     ; 0x2013 <parse+0xcee>
    32a9: 85 18        	sta	$18                     ; 0x2018 <parse+0xcf3>
    32ab: 18           	clc
    32ac: 65 12        	adc	$12                     ; 0x2012 <parse+0xced>
    32ae: 85 16        	sta	$16                     ; 0x2016 <parse+0xcf1>
    32b0: 85 14        	sta	$14                     ; 0x2014 <parse+0xcef>
    32b2: a5 13        	lda	$13                     ; 0x2013 <parse+0xcee>
    32b4: 69 00        	adc	#$0
    32b6: 85 15        	sta	$15                     ; 0x2015 <parse+0xcf0>
    32b8: c5 1a        	cmp	$1a                     ; 0x201a <parse+0xcf5>
    32ba: d0 1e        	bne	$32da <printf+0x731>
    32bc: a6 1a        	ldx	$1a                     ; 0x201a <parse+0xcf5>
    32be: 86 17        	stx	$17                     ; 0x2017 <parse+0xcf2>
    32c0: a6 7b        	ldx	$7b                     ; 0x207b <parse+0xd56>
    32c2: a5 16        	lda	$16                     ; 0x2016 <parse+0xcf1>
    32c4: c5 7b        	cmp	$7b                     ; 0x207b <parse+0xd56>
    32c6: 80 1c        	bra	$32e4 <printf+0x73b>
    32c8: a6 7a        	ldx	$7a                     ; 0x207a <parse+0xd55>
    32ca: e0 00        	cpx	#$0
    32cc: a6 79        	ldx	$79                     ; 0x2079 <parse+0xd54>
    32ce: 86 12        	stx	$12                     ; 0x2012 <parse+0xced>
    32d0: a6 7a        	ldx	$7a                     ; 0x207a <parse+0xd55>
    32d2: 86 13        	stx	$13                     ; 0x2013 <parse+0xcee>
    32d4: a4 71        	ldy	$71                     ; 0x2071 <parse+0xd4c>
    32d6: 90 cd        	bcc	$32a5 <printf+0x6fc>
    32d8: 80 cf        	bra	$32a9 <printf+0x700>
    32da: a6 7b        	ldx	$7b                     ; 0x207b <parse+0xd56>
    32dc: 5a           	phy
    32dd: a4 1a        	ldy	$1a                     ; 0x201a <parse+0xcf5>
    32df: 84 17        	sty	$17                     ; 0x2017 <parse+0xcf2>
    32e1: 7a           	ply
    32e2: c5 1a        	cmp	$1a                     ; 0x201a <parse+0xcf5>
    32e4: 64 7c        	stz	$7c                     ; 0x207c <parse+0xd57>
    32e6: 64 7b        	stz	$7b                     ; 0x207b <parse+0xd56>
    32e8: 90 03        	bcc	$32ed <printf+0x744>
    32ea: 4c 80 33     	jmp	$3380 <printf+0x7d7>
    32ed: a5 72        	lda	$72                     ; 0x2072 <parse+0xd4d>
    32ef: 29 11        	and	#$11
    32f1: 86 16        	stx	$16                     ; 0x2016 <parse+0xcf1>
    32f3: f0 0f        	beq	$3304 <printf+0x75b>
    32f5: 8a           	txa
    32f6: 38           	sec
    32f7: e5 14        	sbc	$14                     ; 0x2014 <parse+0xcef>
    32f9: 85 7c        	sta	$7c                     ; 0x207c <parse+0xd57>
    32fb: a5 1a        	lda	$1a                     ; 0x201a <parse+0xcf5>
    32fd: e5 15        	sbc	$15                     ; 0x2015 <parse+0xcf0>
    32ff: 85 7b        	sta	$7b                     ; 0x207b <parse+0xd56>
    3301: 4c 80 33     	jmp	$3380 <printf+0x7d7>
    3304: a6 a6        	ldx	$a6                     ; 0x20a6 <parse+0xd81>
    3306: 86 14        	stx	$14                     ; 0x2014 <parse+0xcef>
    3308: 38           	sec
    3309: a5 18        	lda	$18                     ; 0x2018 <parse+0xcf3>
    330b: e5 16        	sbc	$16                     ; 0x2016 <parse+0xcf1>
    330d: aa           	tax
    330e: a9 00        	lda	#$0
    3310: e5 17        	sbc	$17                     ; 0x2017 <parse+0xcf2>
    3312: a8           	tay
    3313: 18           	clc
    3314: 8a           	txa
    3315: 65 12        	adc	$12                     ; 0x2012 <parse+0xced>
    3317: 85 72        	sta	$72                     ; 0x2072 <parse+0xd4d>
    3319: 98           	tya
    331a: 65 13        	adc	$13                     ; 0x2013 <parse+0xcee>
    331c: a4 a7        	ldy	$a7                     ; 0x20a7 <parse+0xd82>
    331e: 80 47        	bra	$3367 <printf+0x7be>
    3320: c4 a5        	cpy	$a5                     ; 0x20a5 <parse+0xd80>
    3322: b0 25        	bcs	$3349 <printf+0x7a0>
    3324: a6 b1        	ldx	$b1                     ; 0x20b1 <parse+0xd8c>
    3326: e4 76        	cpx	$76                     ; 0x2076 <parse+0xd51>
    3328: d0 18        	bne	$3342 <printf+0x799>
    332a: a6 b0        	ldx	$b0                     ; 0x20b0 <parse+0xd8b>
    332c: e4 75        	cpx	$75                     ; 0x2075 <parse+0xd50>
    332e: d0 12        	bne	$3342 <printf+0x799>
    3330: 18           	clc
    3331: a5 14        	lda	$14                     ; 0x2014 <parse+0xcef>
    3333: 65 aa        	adc	$aa                     ; 0x20aa <parse+0xd85>
    3335: 85 12        	sta	$12                     ; 0x2012 <parse+0xced>
    3337: 98           	tya
    3338: 65 ab        	adc	$ab                     ; 0x20ab <parse+0xd86>
    333a: 85 13        	sta	$13                     ; 0x2013 <parse+0xcee>
    333c: a9 20        	lda	#$20
    333e: 92 12        	sta	($12)                   ; 0x2012 <parse+0xced>
    3340: 80 05        	bra	$3347 <printf+0x79e>
    3342: a9 20        	lda	#$20
    3344: 20 88 27     	jsr	$2788 <__putchar>
    3347: a5 7b        	lda	$7b                     ; 0x207b <parse+0xd56>
    3349: a6 a6        	ldx	$a6                     ; 0x20a6 <parse+0xd81>
    334b: a4 a7        	ldy	$a7                     ; 0x20a7 <parse+0xd82>
    334d: e8           	inx
    334e: d0 01        	bne	$3351 <printf+0x7a8>
    3350: c8           	iny
    3351: 86 14        	stx	$14                     ; 0x2014 <parse+0xcef>
    3353: 86 a6        	stx	$a6                     ; 0x20a6 <parse+0xd81>
    3355: 84 a7        	sty	$a7                     ; 0x20a7 <parse+0xd82>
    3357: a6 72        	ldx	$72                     ; 0x2072 <parse+0xd4d>
    3359: e8           	inx
    335a: d0 01        	bne	$335d <printf+0x7b4>
    335c: 1a           	inc
    335d: 86 72        	stx	$72                     ; 0x2072 <parse+0xd4d>
    335f: c9 00        	cmp	#$0
    3361: d0 04        	bne	$3367 <printf+0x7be>
    3363: e0 00        	cpx	#$0
    3365: f0 13        	beq	$337a <printf+0x7d1>
    3367: 85 7b        	sta	$7b                     ; 0x207b <parse+0xd56>
    3369: c4 a5        	cpy	$a5                     ; 0x20a5 <parse+0xd80>
    336b: d0 b3        	bne	$3320 <printf+0x777>
    336d: a6 a4        	ldx	$a4                     ; 0x20a4 <parse+0xd7f>
    336f: 86 12        	stx	$12                     ; 0x2012 <parse+0xced>
    3371: a6 14        	ldx	$14                     ; 0x2014 <parse+0xcef>
    3373: e4 12        	cpx	$12                     ; 0x2012 <parse+0xced>
    3375: b0 d2        	bcs	$3349 <printf+0x7a0>
    3377: 4c 24 33     	jmp	$3324 <printf+0x77b>
    337a: 64 7c        	stz	$7c                     ; 0x207c <parse+0xd57>
    337c: 64 7b        	stz	$7b                     ; 0x207b <parse+0xd56>
    337e: a4 71        	ldy	$71                     ; 0x2071 <parse+0xd4c>
    3380: a6 b7        	ldx	$b7                     ; 0x20b7 <parse+0xd92>
    3382: d0 4d        	bne	$33d1 <printf+0x828>
    3384: a6 a6        	ldx	$a6                     ; 0x20a6 <parse+0xd81>
    3386: a5 a7        	lda	$a7                     ; 0x20a7 <parse+0xd82>
    3388: c5 a5        	cmp	$a5                     ; 0x20a5 <parse+0xd80>
    338a: d0 10        	bne	$339c <printf+0x7f3>
    338c: 86 13        	stx	$13                     ; 0x2013 <parse+0xcee>
    338e: a6 a4        	ldx	$a4                     ; 0x20a4 <parse+0xd7f>
    3390: 86 12        	stx	$12                     ; 0x2012 <parse+0xced>
    3392: a4 71        	ldy	$71                     ; 0x2071 <parse+0xd4c>
    3394: a6 13        	ldx	$13                     ; 0x2013 <parse+0xcee>
    3396: e4 12        	cpx	$12                     ; 0x2012 <parse+0xced>
    3398: 90 08        	bcc	$33a2 <printf+0x7f9>
    339a: 80 2f        	bra	$33cb <printf+0x822>
    339c: 86 13        	stx	$13                     ; 0x2013 <parse+0xcee>
    339e: c5 a5        	cmp	$a5                     ; 0x20a5 <parse+0xd80>
    33a0: b0 29        	bcs	$33cb <printf+0x822>
    33a2: a6 b1        	ldx	$b1                     ; 0x20b1 <parse+0xd8c>
    33a4: e4 76        	cpx	$76                     ; 0x2076 <parse+0xd51>
    33a6: d0 1c        	bne	$33c4 <printf+0x81b>
    33a8: a6 b0        	ldx	$b0                     ; 0x20b0 <parse+0xd8b>
    33aa: e4 75        	cpx	$75                     ; 0x2075 <parse+0xd50>
    33ac: d0 16        	bne	$33c4 <printf+0x81b>
    33ae: 18           	clc
    33af: 85 12        	sta	$12                     ; 0x2012 <parse+0xced>
    33b1: a5 13        	lda	$13                     ; 0x2013 <parse+0xcee>
    33b3: 65 aa        	adc	$aa                     ; 0x20aa <parse+0xd85>
    33b5: aa           	tax
    33b6: a5 12        	lda	$12                     ; 0x2012 <parse+0xced>
    33b8: 65 ab        	adc	$ab                     ; 0x20ab <parse+0xd86>
    33ba: 86 12        	stx	$12                     ; 0x2012 <parse+0xced>
    33bc: 85 13        	sta	$13                     ; 0x2013 <parse+0xcee>
    33be: a5 b8        	lda	$b8                     ; 0x20b8 <parse+0xd93>
    33c0: 92 12        	sta	($12)                   ; 0x2012 <parse+0xced>
    33c2: 80 05        	bra	$33c9 <printf+0x820>
    33c4: a5 b8        	lda	$b8                     ; 0x20b8 <parse+0xd93>
    33c6: 20 88 27     	jsr	$2788 <__putchar>
    33c9: a4 71        	ldy	$71                     ; 0x2071 <parse+0xd4c>
    33cb: e6 a6        	inc	$a6                     ; 0x20a6 <parse+0xd81>
    33cd: d0 02        	bne	$33d1 <printf+0x828>
    33cf: e6 a7        	inc	$a7                     ; 0x20a7 <parse+0xd82>
    33d1: a6 b6        	ldx	$b6                     ; 0x20b6 <parse+0xd91>
    33d3: f0 4d        	beq	$3422 <printf+0x879>
    33d5: a6 a6        	ldx	$a6                     ; 0x20a6 <parse+0xd81>
    33d7: a5 a7        	lda	$a7                     ; 0x20a7 <parse+0xd82>
    33d9: c5 a5        	cmp	$a5                     ; 0x20a5 <parse+0xd80>
    33db: d0 10        	bne	$33ed <printf+0x844>
    33dd: 86 13        	stx	$13                     ; 0x2013 <parse+0xcee>
    33df: a6 a4        	ldx	$a4                     ; 0x20a4 <parse+0xd7f>
    33e1: 86 12        	stx	$12                     ; 0x2012 <parse+0xced>
    33e3: a4 71        	ldy	$71                     ; 0x2071 <parse+0xd4c>
    33e5: a6 13        	ldx	$13                     ; 0x2013 <parse+0xcee>
    33e7: e4 12        	cpx	$12                     ; 0x2012 <parse+0xced>
    33e9: 90 08        	bcc	$33f3 <printf+0x84a>
    33eb: 80 2f        	bra	$341c <printf+0x873>
    33ed: 86 13        	stx	$13                     ; 0x2013 <parse+0xcee>
    33ef: c5 a5        	cmp	$a5                     ; 0x20a5 <parse+0xd80>
    33f1: b0 29        	bcs	$341c <printf+0x873>
    33f3: a6 b1        	ldx	$b1                     ; 0x20b1 <parse+0xd8c>
    33f5: e4 76        	cpx	$76                     ; 0x2076 <parse+0xd51>
    33f7: d0 1c        	bne	$3415 <printf+0x86c>
    33f9: a6 b0        	ldx	$b0                     ; 0x20b0 <parse+0xd8b>
    33fb: e4 75        	cpx	$75                     ; 0x2075 <parse+0xd50>
    33fd: d0 16        	bne	$3415 <printf+0x86c>
    33ff: 18           	clc
    3400: 85 12        	sta	$12                     ; 0x2012 <parse+0xced>
    3402: a5 13        	lda	$13                     ; 0x2013 <parse+0xcee>
    3404: 65 aa        	adc	$aa                     ; 0x20aa <parse+0xd85>
    3406: aa           	tax
    3407: a5 12        	lda	$12                     ; 0x2012 <parse+0xced>
    3409: 65 ab        	adc	$ab                     ; 0x20ab <parse+0xd86>
    340b: 86 12        	stx	$12                     ; 0x2012 <parse+0xced>
    340d: 85 13        	sta	$13                     ; 0x2013 <parse+0xcee>
    340f: a5 bb        	lda	$bb                     ; 0x20bb <parse+0xd96>
    3411: 92 12        	sta	($12)                   ; 0x2012 <parse+0xced>
    3413: 80 05        	bra	$341a <printf+0x871>
    3415: a5 bb        	lda	$bb                     ; 0x20bb <parse+0xd96>
    3417: 20 88 27     	jsr	$2788 <__putchar>
    341a: a4 71        	ldy	$71                     ; 0x2071 <parse+0xd4c>
    341c: e6 a6        	inc	$a6                     ; 0x20a6 <parse+0xd81>
    341e: d0 02        	bne	$3422 <printf+0x879>
    3420: e6 a7        	inc	$a7                     ; 0x20a7 <parse+0xd82>
    3422: a9 10        	lda	#$10
    3424: 25 a2        	and	$a2                     ; 0x20a2 <parse+0xd7d>
    3426: d0 03        	bne	$342b <printf+0x882>
    3428: 4c b3 34     	jmp	$34b3 <printf+0x90a>
    342b: a5 a2        	lda	$a2                     ; 0x20a2 <parse+0xd7d>
    342d: 29 01        	and	#$1
    342f: 29 01        	and	#$1
    3431: f0 03        	beq	$3436 <printf+0x88d>
    3433: 4c b3 34     	jmp	$34b3 <printf+0x90a>
    3436: a6 7c        	ldx	$7c                     ; 0x207c <parse+0xd57>
    3438: a5 7b        	lda	$7b                     ; 0x207b <parse+0xd56>
    343a: d0 06        	bne	$3442 <printf+0x899>
    343c: 8a           	txa
    343d: d0 03        	bne	$3442 <printf+0x899>
    343f: 4c 51 37     	jmp	$3751 <printf+0xba8>
    3442: a6 a6        	ldx	$a6                     ; 0x20a6 <parse+0xd81>
    3444: 86 13        	stx	$13                     ; 0x2013 <parse+0xcee>
    3446: a5 a7        	lda	$a7                     ; 0x20a7 <parse+0xd82>
    3448: 80 4f        	bra	$3499 <printf+0x8f0>
    344a: c5 a5        	cmp	$a5                     ; 0x20a5 <parse+0xd80>
    344c: b0 24        	bcs	$3472 <printf+0x8c9>
    344e: a6 b1        	ldx	$b1                     ; 0x20b1 <parse+0xd8c>
    3450: e4 76        	cpx	$76                     ; 0x2076 <parse+0xd51>
    3452: d0 19        	bne	$346d <printf+0x8c4>
    3454: a6 b0        	ldx	$b0                     ; 0x20b0 <parse+0xd8b>
    3456: e4 75        	cpx	$75                     ; 0x2075 <parse+0xd50>
    3458: d0 13        	bne	$346d <printf+0x8c4>
    345a: 18           	clc
    345b: aa           	tax
    345c: a5 13        	lda	$13                     ; 0x2013 <parse+0xcee>
    345e: 65 aa        	adc	$aa                     ; 0x20aa <parse+0xd85>
    3460: 85 12        	sta	$12                     ; 0x2012 <parse+0xced>
    3462: 8a           	txa
    3463: 65 ab        	adc	$ab                     ; 0x20ab <parse+0xd86>
    3465: 85 13        	sta	$13                     ; 0x2013 <parse+0xcee>
    3467: a9 30        	lda	#$30
    3469: 92 12        	sta	($12)                   ; 0x2012 <parse+0xced>
    346b: 80 05        	bra	$3472 <printf+0x8c9>
    346d: a9 30        	lda	#$30
    346f: 20 88 27     	jsr	$2788 <__putchar>
    3472: a6 a6        	ldx	$a6                     ; 0x20a6 <parse+0xd81>
    3474: a5 a7        	lda	$a7                     ; 0x20a7 <parse+0xd82>
    3476: e8           	inx
    3477: d0 01        	bne	$347a <printf+0x8d1>
    3479: 1a           	inc
    347a: 86 13        	stx	$13                     ; 0x2013 <parse+0xcee>
    347c: 86 a6        	stx	$a6                     ; 0x20a6 <parse+0xd81>
    347e: 85 a7        	sta	$a7                     ; 0x20a7 <parse+0xd82>
    3480: a4 7c        	ldy	$7c                     ; 0x207c <parse+0xd57>
    3482: a6 7b        	ldx	$7b                     ; 0x207b <parse+0xd56>
    3484: 86 12        	stx	$12                     ; 0x2012 <parse+0xced>
    3486: 88           	dey
    3487: c0 ff        	cpy	#$ff
    3489: d0 02        	bne	$348d <printf+0x8e4>
    348b: c6 12        	dec	$12                     ; 0x2012 <parse+0xced>
    348d: 84 7c        	sty	$7c                     ; 0x207c <parse+0xd57>
    348f: a6 12        	ldx	$12                     ; 0x2012 <parse+0xced>
    3491: 86 7b        	stx	$7b                     ; 0x207b <parse+0xd56>
    3493: d0 04        	bne	$3499 <printf+0x8f0>
    3495: c0 00        	cpy	#$0
    3497: f0 14        	beq	$34ad <printf+0x904>
    3499: c5 a5        	cmp	$a5                     ; 0x20a5 <parse+0xd80>
    349b: f0 03        	beq	$34a0 <printf+0x8f7>
    349d: 4c 4a 34     	jmp	$344a <printf+0x8a1>
    34a0: a6 a4        	ldx	$a4                     ; 0x20a4 <parse+0xd7f>
    34a2: 86 12        	stx	$12                     ; 0x2012 <parse+0xced>
    34a4: a6 13        	ldx	$13                     ; 0x2013 <parse+0xcee>
    34a6: e4 12        	cpx	$12                     ; 0x2012 <parse+0xced>
    34a8: b0 c8        	bcs	$3472 <printf+0x8c9>
    34aa: 4c 4e 34     	jmp	$344e <printf+0x8a5>
    34ad: 64 7c        	stz	$7c                     ; 0x207c <parse+0xd57>
    34af: 64 7b        	stz	$7b                     ; 0x207b <parse+0xd56>
    34b1: a4 71        	ldy	$71                     ; 0x2071 <parse+0xd4c>
    34b3: a2 00        	ldx	#$0
    34b5: e4 7a        	cpx	$7a                     ; 0x207a <parse+0xd55>
    34b7: d0 07        	bne	$34c0 <printf+0x917>
    34b9: c4 79        	cpy	$79                     ; 0x2079 <parse+0xd54>
    34bb: 90 0a        	bcc	$34c7 <printf+0x91e>
    34bd: 4c 35 35     	jmp	$3535 <printf+0x98c>
    34c0: e4 7a        	cpx	$7a                     ; 0x207a <parse+0xd55>
    34c2: 90 03        	bcc	$34c7 <printf+0x91e>
    34c4: 4c 35 35     	jmp	$3535 <printf+0x98c>
    34c7: a6 a6        	ldx	$a6                     ; 0x20a6 <parse+0xd81>
    34c9: 86 13        	stx	$13                     ; 0x2013 <parse+0xcee>
    34cb: a5 a7        	lda	$a7                     ; 0x20a7 <parse+0xd82>
    34cd: a2 ff        	ldx	#$ff
    34cf: c6 79        	dec	$79                     ; 0x2079 <parse+0xd54>
    34d1: e4 79        	cpx	$79                     ; 0x2079 <parse+0xd54>
    34d3: d0 02        	bne	$34d7 <printf+0x92e>
    34d5: c6 7a        	dec	$7a                     ; 0x207a <parse+0xd55>
    34d7: c5 a5        	cmp	$a5                     ; 0x20a5 <parse+0xd80>
    34d9: d0 0c        	bne	$34e7 <printf+0x93e>
    34db: a6 a4        	ldx	$a4                     ; 0x20a4 <parse+0xd7f>
    34dd: 86 12        	stx	$12                     ; 0x2012 <parse+0xced>
    34df: a6 13        	ldx	$13                     ; 0x2013 <parse+0xcee>
    34e1: e4 12        	cpx	$12                     ; 0x2012 <parse+0xced>
    34e3: 90 06        	bcc	$34eb <printf+0x942>
    34e5: 80 28        	bra	$350f <printf+0x966>
    34e7: c5 a5        	cmp	$a5                     ; 0x20a5 <parse+0xd80>
    34e9: b0 24        	bcs	$350f <printf+0x966>
    34eb: a6 b1        	ldx	$b1                     ; 0x20b1 <parse+0xd8c>
    34ed: e4 76        	cpx	$76                     ; 0x2076 <parse+0xd51>
    34ef: d0 19        	bne	$350a <printf+0x961>
    34f1: a6 b0        	ldx	$b0                     ; 0x20b0 <parse+0xd8b>
    34f3: e4 75        	cpx	$75                     ; 0x2075 <parse+0xd50>
    34f5: d0 13        	bne	$350a <printf+0x961>
    34f7: 18           	clc
    34f8: aa           	tax
    34f9: a5 13        	lda	$13                     ; 0x2013 <parse+0xcee>
    34fb: 65 aa        	adc	$aa                     ; 0x20aa <parse+0xd85>
    34fd: 85 12        	sta	$12                     ; 0x2012 <parse+0xced>
    34ff: 8a           	txa
    3500: 65 ab        	adc	$ab                     ; 0x20ab <parse+0xd86>
    3502: 85 13        	sta	$13                     ; 0x2013 <parse+0xcee>
    3504: a9 30        	lda	#$30
    3506: 92 12        	sta	($12)                   ; 0x2012 <parse+0xced>
    3508: 80 05        	bra	$350f <printf+0x966>
    350a: a9 30        	lda	#$30
    350c: 20 88 27     	jsr	$2788 <__putchar>
    350f: a6 a6        	ldx	$a6                     ; 0x20a6 <parse+0xd81>
    3511: a5 a7        	lda	$a7                     ; 0x20a7 <parse+0xd82>
    3513: e8           	inx
    3514: d0 01        	bne	$3517 <printf+0x96e>
    3516: 1a           	inc
    3517: 86 13        	stx	$13                     ; 0x2013 <parse+0xcee>
    3519: 86 a6        	stx	$a6                     ; 0x20a6 <parse+0xd81>
    351b: 85 a7        	sta	$a7                     ; 0x20a7 <parse+0xd82>
    351d: a2 00        	ldx	#$0
    351f: e4 7a        	cpx	$7a                     ; 0x207a <parse+0xd55>
    3521: d0 09        	bne	$352c <printf+0x983>
    3523: a4 71        	ldy	$71                     ; 0x2071 <parse+0xd4c>
    3525: c4 79        	cpy	$79                     ; 0x2079 <parse+0xd54>
    3527: b0 0c        	bcs	$3535 <printf+0x98c>
    3529: 4c cd 34     	jmp	$34cd <printf+0x924>
    352c: e4 7a        	cpx	$7a                     ; 0x207a <parse+0xd55>
    352e: a4 71        	ldy	$71                     ; 0x2071 <parse+0xd4c>
    3530: b0 03        	bcs	$3535 <printf+0x98c>
    3532: 4c cd 34     	jmp	$34cd <printf+0x924>
    3535: 98           	tya
    3536: d0 03        	bne	$353b <printf+0x992>
    3538: 4c 2a 36     	jmp	$362a <printf+0xa81>
    353b: 88           	dey
    353c: d0 03        	bne	$3541 <printf+0x998>
    353e: 4c c9 35     	jmp	$35c9 <printf+0xa20>
    3541: 84 79        	sty	$79                     ; 0x2079 <parse+0xd54>
    3543: a6 bc        	ldx	$bc                     ; 0x20bc <parse+0xd97>
    3545: 8a           	txa
    3546: 18           	clc
    3547: 65 79        	adc	$79                     ; 0x2079 <parse+0xd54>
    3549: 85 71        	sta	$71                     ; 0x2071 <parse+0xd4c>
    354b: a5 bd        	lda	$bd                     ; 0x20bd <parse+0xd98>
    354d: 69 00        	adc	#$0
    354f: 85 72        	sta	$72                     ; 0x2072 <parse+0xd4d>
    3551: 4c bb 35     	jmp	$35bb <printf+0xa12>
    3554: a8           	tay
    3555: a9 80        	lda	#$80
    3557: 25 a2        	and	$a2                     ; 0x20a2 <parse+0xd7d>
    3559: f0 04        	beq	$355f <printf+0x9b6>
    355b: a2 61        	ldx	#$61
    355d: 80 02        	bra	$3561 <printf+0x9b8>
    355f: a2 41        	ldx	#$41
    3561: 86 12        	stx	$12                     ; 0x2012 <parse+0xced>
    3563: 18           	clc
    3564: 98           	tya
    3565: 65 12        	adc	$12                     ; 0x2012 <parse+0xced>
    3567: 18           	clc
    3568: 69 f6        	adc	#$f6
    356a: a4 a6        	ldy	$a6                     ; 0x20a6 <parse+0xd81>
    356c: a6 a7        	ldx	$a7                     ; 0x20a7 <parse+0xd82>
    356e: e4 a5        	cpx	$a5                     ; 0x20a5 <parse+0xd80>
    3570: d0 0c        	bne	$357e <printf+0x9d5>
    3572: 86 14        	stx	$14                     ; 0x2014 <parse+0xcef>
    3574: a6 a4        	ldx	$a4                     ; 0x20a4 <parse+0xd7f>
    3576: 86 12        	stx	$12                     ; 0x2012 <parse+0xced>
    3578: c4 12        	cpy	$12                     ; 0x2012 <parse+0xced>
    357a: 90 08        	bcc	$3584 <printf+0x9db>
    357c: 80 27        	bra	$35a5 <printf+0x9fc>
    357e: 86 14        	stx	$14                     ; 0x2014 <parse+0xcef>
    3580: e4 a5        	cpx	$a5                     ; 0x20a5 <parse+0xd80>
    3582: b0 21        	bcs	$35a5 <printf+0x9fc>
    3584: a6 b1        	ldx	$b1                     ; 0x20b1 <parse+0xd8c>
    3586: e4 76        	cpx	$76                     ; 0x2076 <parse+0xd51>
    3588: d0 18        	bne	$35a2 <printf+0x9f9>
    358a: a6 b0        	ldx	$b0                     ; 0x20b0 <parse+0xd8b>
    358c: e4 75        	cpx	$75                     ; 0x2075 <parse+0xd50>
    358e: d0 12        	bne	$35a2 <printf+0x9f9>
    3590: 18           	clc
    3591: aa           	tax
    3592: 98           	tya
    3593: 65 aa        	adc	$aa                     ; 0x20aa <parse+0xd85>
    3595: 85 12        	sta	$12                     ; 0x2012 <parse+0xced>
    3597: a5 14        	lda	$14                     ; 0x2014 <parse+0xcef>
    3599: 65 ab        	adc	$ab                     ; 0x20ab <parse+0xd86>
    359b: 85 13        	sta	$13                     ; 0x2013 <parse+0xcee>
    359d: 8a           	txa
    359e: 92 12        	sta	($12)                   ; 0x2012 <parse+0xced>
    35a0: 80 03        	bra	$35a5 <printf+0x9fc>
    35a2: 20 88 27     	jsr	$2788 <__putchar>
    35a5: e6 a6        	inc	$a6                     ; 0x20a6 <parse+0xd81>
    35a7: d0 02        	bne	$35ab <printf+0xa02>
    35a9: e6 a7        	inc	$a7                     ; 0x20a7 <parse+0xd82>
    35ab: c6 79        	dec	$79                     ; 0x2079 <parse+0xd54>
    35ad: a2 ff        	ldx	#$ff
    35af: c6 71        	dec	$71                     ; 0x2071 <parse+0xd4c>
    35b1: e4 71        	cpx	$71                     ; 0x2071 <parse+0xd4c>
    35b3: d0 02        	bne	$35b7 <printf+0xa0e>
    35b5: c6 72        	dec	$72                     ; 0x2072 <parse+0xd4d>
    35b7: a5 79        	lda	$79                     ; 0x2079 <parse+0xd54>
    35b9: f0 0e        	beq	$35c9 <printf+0xa20>
    35bb: b2 71        	lda	($71)                   ; 0x2071 <parse+0xd4c>
    35bd: c9 0a        	cmp	#$a
    35bf: 90 03        	bcc	$35c4 <printf+0xa1b>
    35c1: 4c 54 35     	jmp	$3554 <printf+0x9ab>
    35c4: 09 30        	ora	#$30
    35c6: 4c 6a 35     	jmp	$356a <printf+0x9c1>
    35c9: a5 7f        	lda	$7f                     ; 0x207f <parse+0xd5a>
    35cb: c9 0a        	cmp	#$a
    35cd: b0 04        	bcs	$35d3 <printf+0xa2a>
    35cf: 09 30        	ora	#$30
    35d1: 80 16        	bra	$35e9 <printf+0xa40>
    35d3: a8           	tay
    35d4: a9 80        	lda	#$80
    35d6: 25 a2        	and	$a2                     ; 0x20a2 <parse+0xd7d>
    35d8: f0 04        	beq	$35de <printf+0xa35>
    35da: a2 61        	ldx	#$61
    35dc: 80 02        	bra	$35e0 <printf+0xa37>
    35de: a2 41        	ldx	#$41
    35e0: 86 12        	stx	$12                     ; 0x2012 <parse+0xced>
    35e2: 18           	clc
    35e3: 98           	tya
    35e4: 65 12        	adc	$12                     ; 0x2012 <parse+0xced>
    35e6: 18           	clc
    35e7: 69 f6        	adc	#$f6
    35e9: a4 a6        	ldy	$a6                     ; 0x20a6 <parse+0xd81>
    35eb: a6 a7        	ldx	$a7                     ; 0x20a7 <parse+0xd82>
    35ed: e4 a5        	cpx	$a5                     ; 0x20a5 <parse+0xd80>
    35ef: d0 0c        	bne	$35fd <printf+0xa54>
    35f1: 86 14        	stx	$14                     ; 0x2014 <parse+0xcef>
    35f3: a6 a4        	ldx	$a4                     ; 0x20a4 <parse+0xd7f>
    35f5: 86 12        	stx	$12                     ; 0x2012 <parse+0xced>
    35f7: c4 12        	cpy	$12                     ; 0x2012 <parse+0xced>
    35f9: 90 08        	bcc	$3603 <printf+0xa5a>
    35fb: 80 27        	bra	$3624 <printf+0xa7b>
    35fd: 86 14        	stx	$14                     ; 0x2014 <parse+0xcef>
    35ff: e4 a5        	cpx	$a5                     ; 0x20a5 <parse+0xd80>
    3601: b0 21        	bcs	$3624 <printf+0xa7b>
    3603: a6 b1        	ldx	$b1                     ; 0x20b1 <parse+0xd8c>
    3605: e4 76        	cpx	$76                     ; 0x2076 <parse+0xd51>
    3607: d0 18        	bne	$3621 <printf+0xa78>
    3609: a6 b0        	ldx	$b0                     ; 0x20b0 <parse+0xd8b>
    360b: e4 75        	cpx	$75                     ; 0x2075 <parse+0xd50>
    360d: d0 12        	bne	$3621 <printf+0xa78>
    360f: 18           	clc
    3610: aa           	tax
    3611: 98           	tya
    3612: 65 aa        	adc	$aa                     ; 0x20aa <parse+0xd85>
    3614: 85 12        	sta	$12                     ; 0x2012 <parse+0xced>
    3616: a5 14        	lda	$14                     ; 0x2014 <parse+0xcef>
    3618: 65 ab        	adc	$ab                     ; 0x20ab <parse+0xd86>
    361a: 85 13        	sta	$13                     ; 0x2013 <parse+0xcee>
    361c: 8a           	txa
    361d: 92 12        	sta	($12)                   ; 0x2012 <parse+0xced>
    361f: 80 03        	bra	$3624 <printf+0xa7b>
    3621: 20 88 27     	jsr	$2788 <__putchar>
    3624: e6 a6        	inc	$a6                     ; 0x20a6 <parse+0xd81>
    3626: d0 02        	bne	$362a <printf+0xa81>
    3628: e6 a7        	inc	$a7                     ; 0x20a7 <parse+0xd82>
    362a: a9 01        	lda	#$1
    362c: 25 a2        	and	$a2                     ; 0x20a2 <parse+0xd7d>
    362e: 29 01        	and	#$1
    3630: d0 1e        	bne	$3650 <printf+0xaa7>
    3632: a6 a6        	ldx	$a6                     ; 0x20a6 <parse+0xd81>
    3634: 86 14        	stx	$14                     ; 0x2014 <parse+0xcef>
    3636: a5 a7        	lda	$a7                     ; 0x20a7 <parse+0xd82>
    3638: a4 a4        	ldy	$a4                     ; 0x20a4 <parse+0xd7f>
    363a: a6 a5        	ldx	$a5                     ; 0x20a5 <parse+0xd80>
    363c: 86 12        	stx	$12                     ; 0x2012 <parse+0xced>
    363e: 86 13        	stx	$13                     ; 0x2013 <parse+0xcee>
    3640: c5 12        	cmp	$12                     ; 0x2012 <parse+0xced>
    3642: f0 03        	beq	$3647 <printf+0xa9e>
    3644: 4c d3 36     	jmp	$36d3 <printf+0xb2a>
    3647: 84 12        	sty	$12                     ; 0x2012 <parse+0xced>
    3649: a6 14        	ldx	$14                     ; 0x2014 <parse+0xcef>
    364b: e4 12        	cpx	$12                     ; 0x2012 <parse+0xced>
    364d: 4c d7 36     	jmp	$36d7 <printf+0xb2e>
    3650: a6 a6        	ldx	$a6                     ; 0x20a6 <parse+0xd81>
    3652: 86 14        	stx	$14                     ; 0x2014 <parse+0xcef>
    3654: a5 a7        	lda	$a7                     ; 0x20a7 <parse+0xd82>
    3656: a6 7c        	ldx	$7c                     ; 0x207c <parse+0xd57>
    3658: a4 7b        	ldy	$7b                     ; 0x207b <parse+0xd56>
    365a: f0 03        	beq	$365f <printf+0xab6>
    365c: 4c bf 36     	jmp	$36bf <printf+0xb16>
    365f: e0 00        	cpx	#$0
    3661: f0 d5        	beq	$3638 <printf+0xa8f>
    3663: 4c bf 36     	jmp	$36bf <printf+0xb16>
    3666: c5 a5        	cmp	$a5                     ; 0x20a5 <parse+0xd80>
    3668: b0 24        	bcs	$368e <printf+0xae5>
    366a: a6 b1        	ldx	$b1                     ; 0x20b1 <parse+0xd8c>
    366c: e4 76        	cpx	$76                     ; 0x2076 <parse+0xd51>
    366e: d0 19        	bne	$3689 <printf+0xae0>
    3670: a6 b0        	ldx	$b0                     ; 0x20b0 <parse+0xd8b>
    3672: e4 75        	cpx	$75                     ; 0x2075 <parse+0xd50>
    3674: d0 13        	bne	$3689 <printf+0xae0>
    3676: 18           	clc
    3677: aa           	tax
    3678: a5 14        	lda	$14                     ; 0x2014 <parse+0xcef>
    367a: 65 aa        	adc	$aa                     ; 0x20aa <parse+0xd85>
    367c: 85 12        	sta	$12                     ; 0x2012 <parse+0xced>
    367e: 8a           	txa
    367f: 65 ab        	adc	$ab                     ; 0x20ab <parse+0xd86>
    3681: 85 13        	sta	$13                     ; 0x2013 <parse+0xcee>
    3683: a9 20        	lda	#$20
    3685: 92 12        	sta	($12)                   ; 0x2012 <parse+0xced>
    3687: 80 05        	bra	$368e <printf+0xae5>
    3689: a9 20        	lda	#$20
    368b: 20 88 27     	jsr	$2788 <__putchar>
    368e: a6 a6        	ldx	$a6                     ; 0x20a6 <parse+0xd81>
    3690: a5 a7        	lda	$a7                     ; 0x20a7 <parse+0xd82>
    3692: e8           	inx
    3693: d0 01        	bne	$3696 <printf+0xaed>
    3695: 1a           	inc
    3696: 86 14        	stx	$14                     ; 0x2014 <parse+0xcef>
    3698: 86 a6        	stx	$a6                     ; 0x20a6 <parse+0xd81>
    369a: 85 a7        	sta	$a7                     ; 0x20a7 <parse+0xd82>
    369c: a6 7c        	ldx	$7c                     ; 0x207c <parse+0xd57>
    369e: 86 12        	stx	$12                     ; 0x2012 <parse+0xced>
    36a0: a6 7b        	ldx	$7b                     ; 0x207b <parse+0xd56>
    36a2: 86 13        	stx	$13                     ; 0x2013 <parse+0xcee>
    36a4: a2 ff        	ldx	#$ff
    36a6: c6 12        	dec	$12                     ; 0x2012 <parse+0xced>
    36a8: e4 12        	cpx	$12                     ; 0x2012 <parse+0xced>
    36aa: d0 02        	bne	$36ae <printf+0xb05>
    36ac: c6 13        	dec	$13                     ; 0x2013 <parse+0xcee>
    36ae: a6 12        	ldx	$12                     ; 0x2012 <parse+0xced>
    36b0: 86 7c        	stx	$7c                     ; 0x207c <parse+0xd57>
    36b2: a6 13        	ldx	$13                     ; 0x2013 <parse+0xcee>
    36b4: 86 7b        	stx	$7b                     ; 0x207b <parse+0xd56>
    36b6: d0 07        	bne	$36bf <printf+0xb16>
    36b8: a6 12        	ldx	$12                     ; 0x2012 <parse+0xced>
    36ba: d0 03        	bne	$36bf <printf+0xb16>
    36bc: 4c 38 36     	jmp	$3638 <printf+0xa8f>
    36bf: c5 a5        	cmp	$a5                     ; 0x20a5 <parse+0xd80>
    36c1: f0 03        	beq	$36c6 <printf+0xb1d>
    36c3: 4c 66 36     	jmp	$3666 <printf+0xabd>
    36c6: a6 a4        	ldx	$a4                     ; 0x20a4 <parse+0xd7f>
    36c8: 86 12        	stx	$12                     ; 0x2012 <parse+0xced>
    36ca: a6 14        	ldx	$14                     ; 0x2014 <parse+0xcef>
    36cc: e4 12        	cpx	$12                     ; 0x2012 <parse+0xced>
    36ce: b0 be        	bcs	$368e <printf+0xae5>
    36d0: 4c 6a 36     	jmp	$366a <printf+0xac1>
    36d3: 86 12        	stx	$12                     ; 0x2012 <parse+0xced>
    36d5: c5 12        	cmp	$12                     ; 0x2012 <parse+0xced>
    36d7: 98           	tya
    36d8: a0 01        	ldy	#$1
    36da: 90 20        	bcc	$36fc <printf+0xb53>
    36dc: a6 13        	ldx	$13                     ; 0x2013 <parse+0xcee>
    36de: d0 03        	bne	$36e3 <printf+0xb3a>
    36e0: aa           	tax
    36e1: f0 19        	beq	$36fc <printf+0xb53>
    36e3: 18           	clc
    36e4: 65 aa        	adc	$aa                     ; 0x20aa <parse+0xd85>
    36e6: 85 12        	sta	$12                     ; 0x2012 <parse+0xced>
    36e8: a5 13        	lda	$13                     ; 0x2013 <parse+0xcee>
    36ea: 65 ab        	adc	$ab                     ; 0x20ab <parse+0xd86>
    36ec: 85 13        	sta	$13                     ; 0x2013 <parse+0xcee>
    36ee: a2 ff        	ldx	#$ff
    36f0: c6 12        	dec	$12                     ; 0x2012 <parse+0xced>
    36f2: e4 12        	cpx	$12                     ; 0x2012 <parse+0xced>
    36f4: d0 02        	bne	$36f8 <printf+0xb4f>
    36f6: c6 13        	dec	$13                     ; 0x2013 <parse+0xcee>
    36f8: a9 00        	lda	#$0
    36fa: 92 12        	sta	($12)                   ; 0x2012 <parse+0xced>
    36fc: e6 73        	inc	$73                     ; 0x2073 <parse+0xd4e>
    36fe: d0 02        	bne	$3702 <printf+0xb59>
    3700: e6 74        	inc	$74                     ; 0x2074 <parse+0xd4f>
    3702: a6 74        	ldx	$74                     ; 0x2074 <parse+0xd4f>
    3704: e4 78        	cpx	$78                     ; 0x2078 <parse+0xd53>
    3706: f0 03        	beq	$370b <printf+0xb62>
    3708: 4c 0e 2c     	jmp	$2c0e <printf+0x65>
    370b: a6 73        	ldx	$73                     ; 0x2073 <parse+0xd4e>
    370d: e4 77        	cpx	$77                     ; 0x2077 <parse+0xd52>
    370f: f0 03        	beq	$3714 <printf+0xb6b>
    3711: 4c 0e 2c     	jmp	$2c0e <printf+0x65>
    3714: b2 77        	lda	($77)                   ; 0x2077 <parse+0xd52>
    3716: a2 00        	ldx	#$0
    3718: 86 75        	stx	$75                     ; 0x2075 <parse+0xd50>
    371a: a2 00        	ldx	#$0
    371c: 86 76        	stx	$76                     ; 0x2076 <parse+0xd51>
    371e: 4c 22 2c     	jmp	$2c22 <printf+0x79>
    3721: e4 7a        	cpx	$7a                     ; 0x207a <parse+0xd55>
    3723: a6 72        	ldx	$72                     ; 0x2072 <parse+0xd4d>
    3725: b0 03        	bcs	$372a <printf+0xb81>
    3727: 4c 4e 32     	jmp	$324e <printf+0x6a5>
    372a: a5 71        	lda	$71                     ; 0x2071 <parse+0xd4c>
    372c: 85 79        	sta	$79                     ; 0x2079 <parse+0xd54>
    372e: 64 7a        	stz	$7a                     ; 0x207a <parse+0xd55>
    3730: e6 79        	inc	$79                     ; 0x2079 <parse+0xd54>
    3732: f0 03        	beq	$3737 <printf+0xb8e>
    3734: 4c 4e 32     	jmp	$324e <printf+0x6a5>
    3737: e6 7a        	inc	$7a                     ; 0x207a <parse+0xd55>
    3739: 4c 4e 32     	jmp	$324e <printf+0x6a5>
    373c: a2 58        	ldx	#$58
    373e: 86 bb        	stx	$bb                     ; 0x20bb <parse+0xd96>
    3740: a2 01        	ldx	#$1
    3742: 86 b6        	stx	$b6                     ; 0x20b6 <parse+0xd91>
    3744: a2 30        	ldx	#$30
    3746: 86 b8        	stx	$b8                     ; 0x20b8 <parse+0xd93>
    3748: a9 02        	lda	#$2
    374a: a2 00        	ldx	#$0
    374c: 86 b7        	stx	$b7                     ; 0x20b7 <parse+0xd92>
    374e: 4c 8f 32     	jmp	$328f <printf+0x6e6>
    3751: 64 7c        	stz	$7c                     ; 0x207c <parse+0xd57>
    3753: 64 7b        	stz	$7b                     ; 0x207b <parse+0xd56>
    3755: 4c b3 34     	jmp	$34b3 <printf+0x90a>
    3758: 60           	rts

00003759 <puts>:
    3759: b2 12        	lda	($12)                   ; 0x2012 <parse+0xced>
    375b: f0 28        	beq	$3785 <puts+0x2c>
    375d: a6 12        	ldx	$12                     ; 0x2012 <parse+0xced>
    375f: 86 71        	stx	$71                     ; 0x2071 <parse+0xd4c>
    3761: a6 13        	ldx	$13                     ; 0x2013 <parse+0xcee>
    3763: 86 72        	stx	$72                     ; 0x2072 <parse+0xd4d>
    3765: a6 12        	ldx	$12                     ; 0x2012 <parse+0xced>
    3767: 86 73        	stx	$73                     ; 0x2073 <parse+0xd4e>
    3769: a6 13        	ldx	$13                     ; 0x2013 <parse+0xcee>
    376b: 86 74        	stx	$74                     ; 0x2074 <parse+0xd4f>
    376d: e6 73        	inc	$73                     ; 0x2073 <parse+0xd4e>
    376f: d0 02        	bne	$3773 <puts+0x1a>
    3771: e6 74        	inc	$74                     ; 0x2074 <parse+0xd4f>
    3773: 20 88 27     	jsr	$2788 <__putchar>
    3776: a0 01        	ldy	#$1
    3778: b1 71        	lda	($71),y                 ; 0x2071 <parse+0xd4c>
    377a: a6 73        	ldx	$73                     ; 0x2073 <parse+0xd4e>
    377c: 86 71        	stx	$71                     ; 0x2071 <parse+0xd4c>
    377e: a6 74        	ldx	$74                     ; 0x2074 <parse+0xd4f>
    3780: 86 72        	stx	$72                     ; 0x2072 <parse+0xd4d>
    3782: aa           	tax
    3783: d0 e8        	bne	$376d <puts+0x14>
    3785: a9 0a        	lda	#$a
    3787: 4c 88 27     	jmp	$2788 <__putchar>

0000378a <malloc>:
    378a: a8           	tay
    378b: 8a           	txa
    378c: a2 00        	ldx	#$0
    378e: 86 12        	stx	$12                     ; 0x2012 <parse+0xced>
    3790: a2 00        	ldx	#$0
    3792: 86 13        	stx	$13                     ; 0x2013 <parse+0xcee>
    3794: aa           	tax
    3795: d0 07        	bne	$379e <malloc+0x14>
    3797: c0 00        	cpy	#$0
    3799: d0 03        	bne	$379e <malloc+0x14>
    379b: 4c 9a 38     	jmp	$389a <malloc+0x110>
    379e: 84 16        	sty	$16                     ; 0x2016 <parse+0xcf1>
    37a0: aa           	tax
    37a1: d0 0e        	bne	$37b1 <malloc+0x27>
    37a3: a6 16        	ldx	$16                     ; 0x2016 <parse+0xcf1>
    37a5: e0 07        	cpx	#$7
    37a7: b0 0c        	bcs	$37b5 <malloc+0x2b>
    37a9: a2 08        	ldx	#$8
    37ab: 86 71        	stx	$71                     ; 0x2071 <parse+0xd4c>
    37ad: a9 00        	lda	#$0
    37af: 80 2f        	bra	$37e0 <malloc+0x56>
    37b1: c9 00        	cmp	#$0
    37b3: 90 f4        	bcc	$37a9 <malloc+0x1f>
    37b5: a8           	tay
    37b6: a5 16        	lda	$16                     ; 0x2016 <parse+0xcf1>
    37b8: 29 01        	and	#$1
    37ba: a2 02        	ldx	#$2
    37bc: 64 14        	stz	$14                     ; 0x2014 <parse+0xcef>
    37be: c9 00        	cmp	#$0
    37c0: f0 02        	beq	$37c4 <malloc+0x3a>
    37c2: a2 03        	ldx	#$3
    37c4: 86 15        	stx	$15                     ; 0x2015 <parse+0xcf0>
    37c6: 18           	clc
    37c7: a5 16        	lda	$16                     ; 0x2016 <parse+0xcf1>
    37c9: 65 15        	adc	$15                     ; 0x2015 <parse+0xcf0>
    37cb: aa           	tax
    37cc: 98           	tya
    37cd: 65 14        	adc	$14                     ; 0x2014 <parse+0xcef>
    37cf: 90 03        	bcc	$37d4 <malloc+0x4a>
    37d1: 4c 9a 38     	jmp	$389a <malloc+0x110>
    37d4: 86 71        	stx	$71                     ; 0x2071 <parse+0xd4c>
    37d6: a8           	tay
    37d7: d0 07        	bne	$37e0 <malloc+0x56>
    37d9: e0 00        	cpx	#$0
    37db: d0 03        	bne	$37e0 <malloc+0x56>
    37dd: 4c 9a 38     	jmp	$389a <malloc+0x110>
    37e0: 85 72        	sta	$72                     ; 0x2072 <parse+0xd4d>
    37e2: ad c9 5c     	lda	$5cc9                   ; 0x5cc9 <_ZN12_GLOBAL__N_111initializedE>
    37e5: 29 01        	and	#$1
    37e7: d0 2a        	bne	$3813 <malloc+0x89>
    37e9: a9 00        	lda	#$0
    37eb: a2 10        	ldx	#$10
    37ed: a0 ce        	ldy	#$ce
    37ef: 84 12        	sty	$12                     ; 0x2012 <parse+0xced>
    37f1: a0 5c        	ldy	#$5c
    37f3: 84 13        	sty	$13                     ; 0x2013 <parse+0xcee>
    37f5: 20 48 03     	jsr	$348 <_ZN12_GLOBAL__N_19FreeChunk6insertEPvj>
    37f8: a2 00        	ldx	#$0
    37fa: 86 12        	stx	$12                     ; 0x2012 <parse+0xced>
    37fc: a2 00        	ldx	#$0
    37fe: 86 13        	stx	$13                     ; 0x2013 <parse+0xcee>
    3800: ae cf 5c     	ldx	$5ccf                   ; 0x5ccf <end_block9+0x1>
    3803: a9 fe        	lda	#$fe
    3805: 2d ce 5c     	and	$5cce                   ; 0x5cce <end_block9>
    3808: 8d ce 5c     	sta	$5cce                   ; 0x5cce <end_block9>
    380b: 8e cf 5c     	stx	$5ccf                   ; 0x5ccf <end_block9+0x1>
    380e: a2 01        	ldx	#$1
    3810: 8e c9 5c     	stx	$5cc9                   ; 0x5cc9 <_ZN12_GLOBAL__N_111initializedE>
    3813: ad cc 5c     	lda	$5ccc                   ; 0x5ccc <_ZN12_GLOBAL__N_19free_listE>
    3816: ae cd 5c     	ldx	$5ccd                   ; 0x5ccd <_ZN12_GLOBAL__N_19free_listE+0x1>
    3819: a0 00        	ldy	#$0
    381b: 84 14        	sty	$14                     ; 0x2014 <parse+0xcef>
    381d: a0 00        	ldy	#$0
    381f: 84 15        	sty	$15                     ; 0x2015 <parse+0xcf0>
    3821: 86 1d        	stx	$1d                     ; 0x201d <parse+0xcf8>
    3823: e4 15        	cpx	$15                     ; 0x2015 <parse+0xcf0>
    3825: d0 07        	bne	$382e <malloc+0xa4>
    3827: c5 14        	cmp	$14                     ; 0x2014 <parse+0xcef>
    3829: d0 03        	bne	$382e <malloc+0xa4>
    382b: 4c 9a 38     	jmp	$389a <malloc+0x110>
    382e: a0 00        	ldy	#$0
    3830: a2 10        	ldx	#$10
    3832: 85 18        	sta	$18                     ; 0x2018 <parse+0xcf3>
    3834: 84 14        	sty	$14                     ; 0x2014 <parse+0xcef>
    3836: 86 15        	stx	$15                     ; 0x2015 <parse+0xcf0>
    3838: 18           	clc
    3839: a9 ce        	lda	#$ce
    383b: 65 14        	adc	$14                     ; 0x2014 <parse+0xcef>
    383d: 85 14        	sta	$14                     ; 0x2014 <parse+0xcef>
    383f: a9 5c        	lda	#$5c
    3841: 65 15        	adc	$15                     ; 0x2015 <parse+0xcf0>
    3843: a6 14        	ldx	$14                     ; 0x2014 <parse+0xcef>
    3845: 86 73        	stx	$73                     ; 0x2073 <parse+0xd4e>
    3847: 85 17        	sta	$17                     ; 0x2017 <parse+0xcf2>
    3849: a6 18        	ldx	$18                     ; 0x2018 <parse+0xcf3>
    384b: 86 1c        	stx	$1c                     ; 0x201c <parse+0xcf7>
    384d: a6 18        	ldx	$18                     ; 0x2018 <parse+0xcf3>
    384f: 86 14        	stx	$14                     ; 0x2014 <parse+0xcef>
    3851: a6 1d        	ldx	$1d                     ; 0x201d <parse+0xcf8>
    3853: 86 15        	stx	$15                     ; 0x2015 <parse+0xcf0>
    3855: a0 01        	ldy	#$1
    3857: a6 72        	ldx	$72                     ; 0x2072 <parse+0xd4d>
    3859: 86 18        	stx	$18                     ; 0x2018 <parse+0xcf3>
    385b: b1 14        	lda	($14),y                 ; 0x2014 <parse+0xcef>
    385d: 85 19        	sta	$19                     ; 0x2019 <parse+0xcf4>
    385f: aa           	tax
    3860: a9 fe        	lda	#$fe
    3862: 32 14        	and	($14)                   ; 0x2014 <parse+0xcef>
    3864: 85 1a        	sta	$1a                     ; 0x201a <parse+0xcf5>
    3866: e4 18        	cpx	$18                     ; 0x2018 <parse+0xcf3>
    3868: d0 0a        	bne	$3874 <malloc+0xea>
    386a: a6 71        	ldx	$71                     ; 0x2071 <parse+0xd4c>
    386c: 86 1b        	stx	$1b                     ; 0x201b <parse+0xcf6>
    386e: c5 1b        	cmp	$1b                     ; 0x201b <parse+0xcf6>
    3870: b0 29        	bcs	$389b <malloc+0x111>
    3872: 80 04        	bra	$3878 <malloc+0xee>
    3874: e4 18        	cpx	$18                     ; 0x2018 <parse+0xcf3>
    3876: b0 23        	bcs	$389b <malloc+0x111>
    3878: a5 14        	lda	$14                     ; 0x2014 <parse+0xcef>
    387a: 18           	clc
    387b: 69 02        	adc	#$2
    387d: 85 1a        	sta	$1a                     ; 0x201a <parse+0xcf5>
    387f: a5 15        	lda	$15                     ; 0x2015 <parse+0xcf0>
    3881: 69 00        	adc	#$0
    3883: 85 1b        	sta	$1b                     ; 0x201b <parse+0xcf6>
    3885: a0 02        	ldy	#$2
    3887: b1 14        	lda	($14),y                 ; 0x2014 <parse+0xcef>
    3889: 85 14        	sta	$14                     ; 0x2014 <parse+0xcef>
    388b: 88           	dey
    388c: b1 1a        	lda	($1a),y                 ; 0x201a <parse+0xcf5>
    388e: 85 15        	sta	$15                     ; 0x2015 <parse+0xcf0>
    3890: c5 1d        	cmp	$1d                     ; 0x201d <parse+0xcf8>
    3892: d0 c7        	bne	$385b <malloc+0xd1>
    3894: a5 14        	lda	$14                     ; 0x2014 <parse+0xcef>
    3896: c5 1c        	cmp	$1c                     ; 0x201c <parse+0xcf7>
    3898: d0 c1        	bne	$385b <malloc+0xd1>
    389a: 60           	rts
    389b: ad ca 5c     	lda	$5cca                   ; 0x5cca <_ZN12_GLOBAL__N_19free_sizeE>
    389e: ae cb 5c     	ldx	$5ccb                   ; 0x5ccb <_ZN12_GLOBAL__N_19free_sizeE+0x1>
    38a1: 86 12        	stx	$12                     ; 0x2012 <parse+0xced>
    38a3: 38           	sec
    38a4: e5 1a        	sbc	$1a                     ; 0x201a <parse+0xcf5>
    38a6: aa           	tax
    38a7: a5 12        	lda	$12                     ; 0x2012 <parse+0xced>
    38a9: e5 19        	sbc	$19                     ; 0x2019 <parse+0xcf4>
    38ab: 85 12        	sta	$12                     ; 0x2012 <parse+0xced>
    38ad: 18           	clc
    38ae: 8a           	txa
    38af: 69 02        	adc	#$2
    38b1: 85 13        	sta	$13                     ; 0x2013 <parse+0xcee>
    38b3: a5 12        	lda	$12                     ; 0x2012 <parse+0xced>
    38b5: 69 00        	adc	#$0
    38b7: a6 13        	ldx	$13                     ; 0x2013 <parse+0xcee>
    38b9: 8e ca 5c     	stx	$5cca                   ; 0x5cca <_ZN12_GLOBAL__N_19free_sizeE>
    38bc: 8d cb 5c     	sta	$5ccb                   ; 0x5ccb <_ZN12_GLOBAL__N_19free_sizeE+0x1>
    38bf: a0 02        	ldy	#$2
    38c1: a5 14        	lda	$14                     ; 0x2014 <parse+0xcef>
    38c3: 18           	clc
    38c4: 69 02        	adc	#$2
    38c6: 85 12        	sta	$12                     ; 0x2012 <parse+0xced>
    38c8: a5 15        	lda	$15                     ; 0x2015 <parse+0xcf0>
    38ca: 69 00        	adc	#$0
    38cc: 85 13        	sta	$13                     ; 0x2013 <parse+0xcee>
    38ce: b1 14        	lda	($14),y                 ; 0x2014 <parse+0xcef>
    38d0: 85 1e        	sta	$1e                     ; 0x201e <parse+0xcf9>
    38d2: 88           	dey
    38d3: b1 12        	lda	($12),y                 ; 0x2012 <parse+0xced>
    38d5: 85 1f        	sta	$1f                     ; 0x201f <parse+0xcfa>
    38d7: c5 15        	cmp	$15                     ; 0x2015 <parse+0xcf0>
    38d9: d0 15        	bne	$38f0 <malloc+0x166>
    38db: a5 72        	lda	$72                     ; 0x2072 <parse+0xd4d>
    38dd: a6 1e        	ldx	$1e                     ; 0x201e <parse+0xcf9>
    38df: e4 14        	cpx	$14                     ; 0x2014 <parse+0xcef>
    38e1: d0 0d        	bne	$38f0 <malloc+0x166>
    38e3: 85 1a        	sta	$1a                     ; 0x201a <parse+0xcf5>
    38e5: a2 00        	ldx	#$0
    38e7: 86 18        	stx	$18                     ; 0x2018 <parse+0xcf3>
    38e9: a2 00        	ldx	#$0
    38eb: 86 19        	stx	$19                     ; 0x2019 <parse+0xcf4>
    38ed: 4c 6a 39     	jmp	$396a <malloc+0x1e0>
    38f0: 18           	clc
    38f1: a5 14        	lda	$14                     ; 0x2014 <parse+0xcef>
    38f3: 69 04        	adc	#$4
    38f5: 85 18        	sta	$18                     ; 0x2018 <parse+0xcf3>
    38f7: a5 15        	lda	$15                     ; 0x2015 <parse+0xcf0>
    38f9: 69 00        	adc	#$0
    38fb: 85 19        	sta	$19                     ; 0x2019 <parse+0xcf4>
    38fd: a0 04        	ldy	#$4
    38ff: b1 14        	lda	($14),y                 ; 0x2014 <parse+0xcef>
    3901: 85 23        	sta	$23                     ; 0x2023 <parse+0xcfe>
    3903: 18           	clc
    3904: 69 02        	adc	#$2
    3906: 85 1a        	sta	$1a                     ; 0x201a <parse+0xcf5>
    3908: a0 01        	ldy	#$1
    390a: b1 18        	lda	($18),y                 ; 0x2018 <parse+0xcf3>
    390c: 85 22        	sta	$22                     ; 0x2022 <parse+0xcfd>
    390e: 69 00        	adc	#$0
    3910: a6 1a        	ldx	$1a                     ; 0x201a <parse+0xcf5>
    3912: 86 18        	stx	$18                     ; 0x2018 <parse+0xcf3>
    3914: 85 19        	sta	$19                     ; 0x2019 <parse+0xcf4>
    3916: a6 23        	ldx	$23                     ; 0x2023 <parse+0xcfe>
    3918: 86 1a        	stx	$1a                     ; 0x201a <parse+0xcf5>
    391a: a6 22        	ldx	$22                     ; 0x2022 <parse+0xcfd>
    391c: 86 1b        	stx	$1b                     ; 0x201b <parse+0xcf6>
    391e: c8           	iny
    391f: a5 1e        	lda	$1e                     ; 0x201e <parse+0xcf9>
    3921: 91 1a        	sta	($1a),y                 ; 0x201a <parse+0xcf5>
    3923: a5 1f        	lda	$1f                     ; 0x201f <parse+0xcfa>
    3925: 88           	dey
    3926: 91 18        	sta	($18),y                 ; 0x2018 <parse+0xcf3>
    3928: 18           	clc
    3929: a5 14        	lda	$14                     ; 0x2014 <parse+0xcef>
    392b: 69 02        	adc	#$2
    392d: 85 1a        	sta	$1a                     ; 0x201a <parse+0xcf5>
    392f: a5 15        	lda	$15                     ; 0x2015 <parse+0xcf0>
    3931: 69 00        	adc	#$0
    3933: 85 1b        	sta	$1b                     ; 0x201b <parse+0xcf6>
    3935: c8           	iny
    3936: b1 14        	lda	($14),y                 ; 0x2014 <parse+0xcef>
    3938: 85 18        	sta	$18                     ; 0x2018 <parse+0xcf3>
    393a: aa           	tax
    393b: 88           	dey
    393c: b1 1a        	lda	($1a),y                 ; 0x201a <parse+0xcf5>
    393e: 85 19        	sta	$19                     ; 0x2019 <parse+0xcf4>
    3940: 85 16        	sta	$16                     ; 0x2016 <parse+0xcf1>
    3942: a0 04        	ldy	#$4
    3944: a5 23        	lda	$23                     ; 0x2023 <parse+0xcfe>
    3946: 91 18        	sta	($18),y                 ; 0x2018 <parse+0xcf3>
    3948: 18           	clc
    3949: 8a           	txa
    394a: 69 04        	adc	#$4
    394c: 85 1a        	sta	$1a                     ; 0x201a <parse+0xcf5>
    394e: a5 16        	lda	$16                     ; 0x2016 <parse+0xcf1>
    3950: 69 00        	adc	#$0
    3952: 85 1b        	sta	$1b                     ; 0x201b <parse+0xcf6>
    3954: a5 22        	lda	$22                     ; 0x2022 <parse+0xcfd>
    3956: a0 01        	ldy	#$1
    3958: 91 1a        	sta	($1a),y                 ; 0x201a <parse+0xcf5>
    395a: a5 72        	lda	$72                     ; 0x2072 <parse+0xd4d>
    395c: 85 1a        	sta	$1a                     ; 0x201a <parse+0xcf5>
    395e: a6 1d        	ldx	$1d                     ; 0x201d <parse+0xcf8>
    3960: e4 15        	cpx	$15                     ; 0x2015 <parse+0xcf0>
    3962: d0 10        	bne	$3974 <malloc+0x1ea>
    3964: a6 1c        	ldx	$1c                     ; 0x201c <parse+0xcf7>
    3966: e4 14        	cpx	$14                     ; 0x2014 <parse+0xcef>
    3968: d0 0a        	bne	$3974 <malloc+0x1ea>
    396a: a6 18        	ldx	$18                     ; 0x2018 <parse+0xcf3>
    396c: a4 19        	ldy	$19                     ; 0x2019 <parse+0xcf4>
    396e: 8e cc 5c     	stx	$5ccc                   ; 0x5ccc <_ZN12_GLOBAL__N_19free_listE>
    3971: 8c cd 5c     	sty	$5ccd                   ; 0x5ccd <_ZN12_GLOBAL__N_19free_listE+0x1>
    3974: a0 01        	ldy	#$1
    3976: b1 14        	lda	($14),y                 ; 0x2014 <parse+0xcef>
    3978: 85 16        	sta	$16                     ; 0x2016 <parse+0xcf1>
    397a: a9 fe        	lda	#$fe
    397c: 32 14        	and	($14)                   ; 0x2014 <parse+0xcef>
    397e: 38           	sec
    397f: a6 71        	ldx	$71                     ; 0x2071 <parse+0xd4c>
    3981: 86 18        	stx	$18                     ; 0x2018 <parse+0xcf3>
    3983: a8           	tay
    3984: e5 18        	sbc	$18                     ; 0x2018 <parse+0xcf3>
    3986: 85 19        	sta	$19                     ; 0x2019 <parse+0xcf4>
    3988: a5 16        	lda	$16                     ; 0x2016 <parse+0xcf1>
    398a: a6 16        	ldx	$16                     ; 0x2016 <parse+0xcf1>
    398c: e5 1a        	sbc	$1a                     ; 0x201a <parse+0xcf5>
    398e: f0 03        	beq	$3993 <malloc+0x209>
    3990: 4c 1f 3a     	jmp	$3a1f <malloc+0x295>
    3993: 85 16        	sta	$16                     ; 0x2016 <parse+0xcf1>
    3995: a5 19        	lda	$19                     ; 0x2019 <parse+0xcf4>
    3997: c9 08        	cmp	#$8
    3999: 86 18        	stx	$18                     ; 0x2018 <parse+0xcf3>
    399b: b0 03        	bcs	$39a0 <malloc+0x216>
    399d: 4c 02 3a     	jmp	$3a02 <malloc+0x278>
    39a0: a6 17        	ldx	$17                     ; 0x2017 <parse+0xcf2>
    39a2: 86 78        	stx	$78                     ; 0x2078 <parse+0xd53>
    39a4: a6 73        	ldx	$73                     ; 0x2073 <parse+0xd4e>
    39a6: 86 73        	stx	$73                     ; 0x2073 <parse+0xd4e>
    39a8: a6 12        	ldx	$12                     ; 0x2012 <parse+0xced>
    39aa: 86 74        	stx	$74                     ; 0x2074 <parse+0xd4f>
    39ac: a6 13        	ldx	$13                     ; 0x2013 <parse+0xcee>
    39ae: 86 75        	stx	$75                     ; 0x2075 <parse+0xd50>
    39b0: a8           	tay
    39b1: 18           	clc
    39b2: a6 71        	ldx	$71                     ; 0x2071 <parse+0xd4c>
    39b4: 86 71        	stx	$71                     ; 0x2071 <parse+0xd4c>
    39b6: 8a           	txa
    39b7: 65 14        	adc	$14                     ; 0x2014 <parse+0xcef>
    39b9: 85 12        	sta	$12                     ; 0x2012 <parse+0xced>
    39bb: a5 1a        	lda	$1a                     ; 0x201a <parse+0xcf5>
    39bd: a6 1a        	ldx	$1a                     ; 0x201a <parse+0xcf5>
    39bf: 86 72        	stx	$72                     ; 0x2072 <parse+0xd4d>
    39c1: 65 15        	adc	$15                     ; 0x2015 <parse+0xcf0>
    39c3: 85 13        	sta	$13                     ; 0x2013 <parse+0xcee>
    39c5: a6 16        	ldx	$16                     ; 0x2016 <parse+0xcf1>
    39c7: 98           	tya
    39c8: a4 14        	ldy	$14                     ; 0x2014 <parse+0xcef>
    39ca: 84 76        	sty	$76                     ; 0x2076 <parse+0xd51>
    39cc: a4 15        	ldy	$15                     ; 0x2015 <parse+0xcf0>
    39ce: 84 77        	sty	$77                     ; 0x2077 <parse+0xd52>
    39d0: 20 48 03     	jsr	$348 <_ZN12_GLOBAL__N_19FreeChunk6insertEPvj>
    39d3: a6 76        	ldx	$76                     ; 0x2076 <parse+0xd51>
    39d5: 86 14        	stx	$14                     ; 0x2014 <parse+0xcef>
    39d7: a6 77        	ldx	$77                     ; 0x2077 <parse+0xd52>
    39d9: 86 15        	stx	$15                     ; 0x2015 <parse+0xcf0>
    39db: a5 71        	lda	$71                     ; 0x2071 <parse+0xd4c>
    39dd: 29 fe        	and	#$fe
    39df: 85 12        	sta	$12                     ; 0x2012 <parse+0xced>
    39e1: a0 01        	ldy	#$1
    39e3: 98           	tya
    39e4: 32 14        	and	($14)                   ; 0x2014 <parse+0xcef>
    39e6: 05 12        	ora	$12                     ; 0x2012 <parse+0xced>
    39e8: 92 14        	sta	($14)                   ; 0x2014 <parse+0xcef>
    39ea: a5 72        	lda	$72                     ; 0x2072 <parse+0xd4d>
    39ec: 91 14        	sta	($14),y                 ; 0x2014 <parse+0xcef>
    39ee: a4 12        	ldy	$12                     ; 0x2012 <parse+0xced>
    39f0: 85 18        	sta	$18                     ; 0x2018 <parse+0xcf3>
    39f2: a6 74        	ldx	$74                     ; 0x2074 <parse+0xd4f>
    39f4: 86 12        	stx	$12                     ; 0x2012 <parse+0xced>
    39f6: a6 75        	ldx	$75                     ; 0x2075 <parse+0xd50>
    39f8: 86 13        	stx	$13                     ; 0x2013 <parse+0xcee>
    39fa: a6 73        	ldx	$73                     ; 0x2073 <parse+0xd4e>
    39fc: 86 73        	stx	$73                     ; 0x2073 <parse+0xd4e>
    39fe: a6 78        	ldx	$78                     ; 0x2078 <parse+0xd53>
    3a00: 86 17        	stx	$17                     ; 0x2017 <parse+0xcf2>
    3a02: 18           	clc
    3a03: 98           	tya
    3a04: 65 14        	adc	$14                     ; 0x2014 <parse+0xcef>
    3a06: 85 16        	sta	$16                     ; 0x2016 <parse+0xcf1>
    3a08: a5 15        	lda	$15                     ; 0x2015 <parse+0xcf0>
    3a0a: 65 18        	adc	$18                     ; 0x2018 <parse+0xcf3>
    3a0c: 85 15        	sta	$15                     ; 0x2015 <parse+0xcf0>
    3a0e: c5 17        	cmp	$17                     ; 0x2017 <parse+0xcf2>
    3a10: d0 1a        	bne	$3a2c <malloc+0x2a2>
    3a12: a6 73        	ldx	$73                     ; 0x2073 <parse+0xd4e>
    3a14: 86 14        	stx	$14                     ; 0x2014 <parse+0xcef>
    3a16: a6 16        	ldx	$16                     ; 0x2016 <parse+0xcf1>
    3a18: e4 14        	cpx	$14                     ; 0x2014 <parse+0xcef>
    3a1a: d0 12        	bne	$3a2e <malloc+0x2a4>
    3a1c: 4c 9a 38     	jmp	$389a <malloc+0x110>
    3a1f: 85 16        	sta	$16                     ; 0x2016 <parse+0xcf1>
    3a21: c9 00        	cmp	#$0
    3a23: 86 18        	stx	$18                     ; 0x2018 <parse+0xcf3>
    3a25: a5 19        	lda	$19                     ; 0x2019 <parse+0xcf4>
    3a27: 90 d9        	bcc	$3a02 <malloc+0x278>
    3a29: 4c a0 39     	jmp	$39a0 <malloc+0x216>
    3a2c: a6 16        	ldx	$16                     ; 0x2016 <parse+0xcf1>
    3a2e: 86 14        	stx	$14                     ; 0x2014 <parse+0xcef>
    3a30: a0 01        	ldy	#$1
    3a32: b1 14        	lda	($14),y                 ; 0x2014 <parse+0xcef>
    3a34: 85 16        	sta	$16                     ; 0x2016 <parse+0xcf1>
    3a36: a9 fe        	lda	#$fe
    3a38: 32 14        	and	($14)                   ; 0x2014 <parse+0xcef>
    3a3a: 92 14        	sta	($14)                   ; 0x2014 <parse+0xcef>
    3a3c: a5 16        	lda	$16                     ; 0x2016 <parse+0xcf1>
    3a3e: 91 14        	sta	($14),y                 ; 0x2014 <parse+0xcef>
    3a40: 60           	rts

00003a41 <memcpy>:
    3a41: a8           	tay
    3a42: 8a           	txa
    3a43: d0 03        	bne	$3a48 <memcpy+0x7>
    3a45: 98           	tya
    3a46: f0 24        	beq	$3a6c <memcpy+0x2b>
    3a48: a5 12        	lda	$12                     ; 0x2012 <parse+0xced>
    3a4a: 85 16        	sta	$16                     ; 0x2016 <parse+0xcf1>
    3a4c: a5 13        	lda	$13                     ; 0x2013 <parse+0xcee>
    3a4e: 85 17        	sta	$17                     ; 0x2017 <parse+0xcf2>
    3a50: b2 14        	lda	($14)                   ; 0x2014 <parse+0xcef>
    3a52: 92 16        	sta	($16)                   ; 0x2016 <parse+0xcf1>
    3a54: e6 16        	inc	$16                     ; 0x2016 <parse+0xcf1>
    3a56: d0 02        	bne	$3a5a <memcpy+0x19>
    3a58: e6 17        	inc	$17                     ; 0x2017 <parse+0xcf2>
    3a5a: e6 14        	inc	$14                     ; 0x2014 <parse+0xcef>
    3a5c: d0 02        	bne	$3a60 <memcpy+0x1f>
    3a5e: e6 15        	inc	$15                     ; 0x2015 <parse+0xcf0>
    3a60: 88           	dey
    3a61: c0 ff        	cpy	#$ff
    3a63: d0 01        	bne	$3a66 <memcpy+0x25>
    3a65: ca           	dex
    3a66: 8a           	txa
    3a67: d0 e7        	bne	$3a50 <memcpy+0xf>
    3a69: 98           	tya
    3a6a: d0 e4        	bne	$3a50 <memcpy+0xf>
    3a6c: 60           	rts

00003a6d <__memset>:
    3a6d: a4 14        	ldy	$14                     ; 0x2014 <parse+0xcef>
    3a6f: d0 04        	bne	$3a75 <__memset+0x8>
    3a71: e0 00        	cpx	#$0
    3a73: f0 17        	beq	$3a8c <__memset+0x1f>
    3a75: 92 12        	sta	($12)                   ; 0x2012 <parse+0xced>
    3a77: e6 12        	inc	$12                     ; 0x2012 <parse+0xced>
    3a79: d0 02        	bne	$3a7d <__memset+0x10>
    3a7b: e6 13        	inc	$13                     ; 0x2013 <parse+0xcee>
    3a7d: ca           	dex
    3a7e: e0 ff        	cpx	#$ff
    3a80: d0 02        	bne	$3a84 <__memset+0x17>
    3a82: c6 14        	dec	$14                     ; 0x2014 <parse+0xcef>
    3a84: a4 14        	ldy	$14                     ; 0x2014 <parse+0xcef>
    3a86: d0 ed        	bne	$3a75 <__memset+0x8>
    3a88: e0 00        	cpx	#$0
    3a8a: d0 e9        	bne	$3a75 <__memset+0x8>
    3a8c: 60           	rts

00003a8d <strstr>:
    3a8d: a6 12        	ldx	$12                     ; 0x2012 <parse+0xced>
    3a8f: 86 16        	stx	$16                     ; 0x2016 <parse+0xcf1>
    3a91: a6 13        	ldx	$13                     ; 0x2013 <parse+0xcee>
    3a93: 86 17        	stx	$17                     ; 0x2017 <parse+0xcf2>
    3a95: b2 12        	lda	($12)                   ; 0x2012 <parse+0xced>
    3a97: a2 00        	ldx	#$0
    3a99: 86 12        	stx	$12                     ; 0x2012 <parse+0xced>
    3a9b: a2 00        	ldx	#$0
    3a9d: 86 13        	stx	$13                     ; 0x2013 <parse+0xcee>
    3a9f: aa           	tax
    3aa0: f0 4d        	beq	$3aef <strstr+0x62>
    3aa2: b2 14        	lda	($14)                   ; 0x2014 <parse+0xcef>
    3aa4: a0 01        	ldy	#$1
    3aa6: a6 16        	ldx	$16                     ; 0x2016 <parse+0xcf1>
    3aa8: 86 18        	stx	$18                     ; 0x2018 <parse+0xcf3>
    3aaa: a6 17        	ldx	$17                     ; 0x2017 <parse+0xcf2>
    3aac: 86 19        	stx	$19                     ; 0x2019 <parse+0xcf4>
    3aae: aa           	tax
    3aaf: f0 48        	beq	$3af9 <strstr+0x6c>
    3ab1: a6 14        	ldx	$14                     ; 0x2014 <parse+0xcef>
    3ab3: 86 1a        	stx	$1a                     ; 0x201a <parse+0xcf5>
    3ab5: a6 15        	ldx	$15                     ; 0x2015 <parse+0xcf0>
    3ab7: 86 1b        	stx	$1b                     ; 0x201b <parse+0xcf6>
    3ab9: 85 1f        	sta	$1f                     ; 0x201f <parse+0xcfa>
    3abb: 85 1e        	sta	$1e                     ; 0x201e <parse+0xcf9>
    3abd: a6 18        	ldx	$18                     ; 0x2018 <parse+0xcf3>
    3abf: 86 1c        	stx	$1c                     ; 0x201c <parse+0xcf7>
    3ac1: a6 19        	ldx	$19                     ; 0x2019 <parse+0xcf4>
    3ac3: 86 1d        	stx	$1d                     ; 0x201d <parse+0xcf8>
    3ac5: b2 1c        	lda	($1c)                   ; 0x201c <parse+0xcf7>
    3ac7: c5 1e        	cmp	$1e                     ; 0x201e <parse+0xcf9>
    3ac9: d0 15        	bne	$3ae0 <strstr+0x53>
    3acb: e6 1c        	inc	$1c                     ; 0x201c <parse+0xcf7>
    3acd: d0 02        	bne	$3ad1 <strstr+0x44>
    3acf: e6 1d        	inc	$1d                     ; 0x201d <parse+0xcf8>
    3ad1: b1 1a        	lda	($1a),y                 ; 0x201a <parse+0xcf5>
    3ad3: e6 1a        	inc	$1a                     ; 0x201a <parse+0xcf5>
    3ad5: d0 02        	bne	$3ad9 <strstr+0x4c>
    3ad7: e6 1b        	inc	$1b                     ; 0x201b <parse+0xcf6>
    3ad9: 85 1e        	sta	$1e                     ; 0x201e <parse+0xcf9>
    3adb: aa           	tax
    3adc: d0 e7        	bne	$3ac5 <strstr+0x38>
    3ade: 80 10        	bra	$3af0 <strstr+0x63>
    3ae0: b1 18        	lda	($18),y                 ; 0x2018 <parse+0xcf3>
    3ae2: aa           	tax
    3ae3: e6 18        	inc	$18                     ; 0x2018 <parse+0xcf3>
    3ae5: d0 02        	bne	$3ae9 <strstr+0x5c>
    3ae7: e6 19        	inc	$19                     ; 0x2019 <parse+0xcf4>
    3ae9: a5 1f        	lda	$1f                     ; 0x201f <parse+0xcfa>
    3aeb: e0 00        	cpx	#$0
    3aed: d0 bf        	bne	$3aae <strstr+0x21>
    3aef: 60           	rts
    3af0: a6 18        	ldx	$18                     ; 0x2018 <parse+0xcf3>
    3af2: 86 12        	stx	$12                     ; 0x2012 <parse+0xced>
    3af4: a6 19        	ldx	$19                     ; 0x2019 <parse+0xcf4>
    3af6: 86 13        	stx	$13                     ; 0x2013 <parse+0xcee>
    3af8: 60           	rts
    3af9: a6 16        	ldx	$16                     ; 0x2016 <parse+0xcf1>
    3afb: 86 12        	stx	$12                     ; 0x2012 <parse+0xced>
    3afd: a6 17        	ldx	$17                     ; 0x2017 <parse+0xcf2>
    3aff: 80 f5        	bra	$3af6 <strstr+0x69>

00003b01 <__ashldi3>:
    3b01: 86 19        	stx	$19                     ; 0x2019 <parse+0xcf4>
    3b03: a6 18        	ldx	$18                     ; 0x2018 <parse+0xcf3>
    3b05: f0 16        	beq	$3b1d <__ashldi3+0x1c>
    3b07: a6 18        	ldx	$18                     ; 0x2018 <parse+0xcf3>
    3b09: ca           	dex
    3b0a: 0a           	asl
    3b0b: 26 19        	rol	$19                     ; 0x2019 <parse+0xcf4>
    3b0d: 26 12        	rol	$12                     ; 0x2012 <parse+0xced>
    3b0f: 26 13        	rol	$13                     ; 0x2013 <parse+0xcee>
    3b11: 26 14        	rol	$14                     ; 0x2014 <parse+0xcef>
    3b13: 26 15        	rol	$15                     ; 0x2015 <parse+0xcf0>
    3b15: 26 16        	rol	$16                     ; 0x2016 <parse+0xcf1>
    3b17: 26 17        	rol	$17                     ; 0x2017 <parse+0xcf2>
    3b19: e0 00        	cpx	#$0
    3b1b: d0 ec        	bne	$3b09 <__ashldi3+0x8>
    3b1d: a6 19        	ldx	$19                     ; 0x2019 <parse+0xcf4>
    3b1f: 60           	rts

00003b20 <__lshrdi3>:
    3b20: 86 19        	stx	$19                     ; 0x2019 <parse+0xcf4>
    3b22: a6 18        	ldx	$18                     ; 0x2018 <parse+0xcf3>
    3b24: f0 16        	beq	$3b3c <__lshrdi3+0x1c>
    3b26: a6 18        	ldx	$18                     ; 0x2018 <parse+0xcf3>
    3b28: ca           	dex
    3b29: 46 17        	lsr	$17                     ; 0x2017 <parse+0xcf2>
    3b2b: 66 16        	ror	$16                     ; 0x2016 <parse+0xcf1>
    3b2d: 66 15        	ror	$15                     ; 0x2015 <parse+0xcf0>
    3b2f: 66 14        	ror	$14                     ; 0x2014 <parse+0xcef>
    3b31: 66 13        	ror	$13                     ; 0x2013 <parse+0xcee>
    3b33: 66 12        	ror	$12                     ; 0x2012 <parse+0xced>
    3b35: 66 19        	ror	$19                     ; 0x2019 <parse+0xcf4>
    3b37: 6a           	ror
    3b38: e0 00        	cpx	#$0
    3b3a: d0 ec        	bne	$3b28 <__lshrdi3+0x8>
    3b3c: a6 19        	ldx	$19                     ; 0x2019 <parse+0xcf4>
    3b3e: 60           	rts

00003b3f <__mulsi3>:
    3b3f: a4 17        	ldy	$17                     ; 0x2017 <parse+0xcf2>
    3b41: d0 0f        	bne	$3b52 <__mulsi3+0x13>
    3b43: a4 16        	ldy	$16                     ; 0x2016 <parse+0xcf1>
    3b45: d0 0b        	bne	$3b52 <__mulsi3+0x13>
    3b47: a4 15        	ldy	$15                     ; 0x2015 <parse+0xcf0>
    3b49: d0 07        	bne	$3b52 <__mulsi3+0x13>
    3b4b: a4 14        	ldy	$14                     ; 0x2014 <parse+0xcef>
    3b4d: d0 03        	bne	$3b52 <__mulsi3+0x13>
    3b4f: 4c a6 3b     	jmp	$3ba6 <__mulsi3+0x67>
    3b52: 85 18        	sta	$18                     ; 0x2018 <parse+0xcf3>
    3b54: 86 19        	stx	$19                     ; 0x2019 <parse+0xcf4>
    3b56: a0 00        	ldy	#$0
    3b58: a2 00        	ldx	#$0
    3b5a: 64 1a        	stz	$1a                     ; 0x201a <parse+0xcf5>
    3b5c: 98           	tya
    3b5d: 46 17        	lsr	$17                     ; 0x2017 <parse+0xcf2>
    3b5f: 66 16        	ror	$16                     ; 0x2016 <parse+0xcf1>
    3b61: 66 15        	ror	$15                     ; 0x2015 <parse+0xcf0>
    3b63: 66 14        	ror	$14                     ; 0x2014 <parse+0xcef>
    3b65: 90 15        	bcc	$3b7c <__mulsi3+0x3d>
    3b67: 85 1b        	sta	$1b                     ; 0x201b <parse+0xcf6>
    3b69: 98           	tya
    3b6a: 18           	clc
    3b6b: 65 18        	adc	$18                     ; 0x2018 <parse+0xcf3>
    3b6d: a8           	tay
    3b6e: 8a           	txa
    3b6f: 65 19        	adc	$19                     ; 0x2019 <parse+0xcf4>
    3b71: aa           	tax
    3b72: a5 1a        	lda	$1a                     ; 0x201a <parse+0xcf5>
    3b74: 65 12        	adc	$12                     ; 0x2012 <parse+0xced>
    3b76: 85 1a        	sta	$1a                     ; 0x201a <parse+0xcf5>
    3b78: a5 1b        	lda	$1b                     ; 0x201b <parse+0xcf6>
    3b7a: 65 13        	adc	$13                     ; 0x2013 <parse+0xcee>
    3b7c: 06 18        	asl	$18                     ; 0x2018 <parse+0xcf3>
    3b7e: 26 19        	rol	$19                     ; 0x2019 <parse+0xcf4>
    3b80: 26 12        	rol	$12                     ; 0x2012 <parse+0xced>
    3b82: 26 13        	rol	$13                     ; 0x2013 <parse+0xcee>
    3b84: e6 17        	inc	$17                     ; 0x2017 <parse+0xcf2>
    3b86: c6 17        	dec	$17                     ; 0x2017 <parse+0xcf2>
    3b88: d0 d3        	bne	$3b5d <__mulsi3+0x1e>
    3b8a: e6 16        	inc	$16                     ; 0x2016 <parse+0xcf1>
    3b8c: c6 16        	dec	$16                     ; 0x2016 <parse+0xcf1>
    3b8e: d0 cd        	bne	$3b5d <__mulsi3+0x1e>
    3b90: e6 15        	inc	$15                     ; 0x2015 <parse+0xcf0>
    3b92: c6 15        	dec	$15                     ; 0x2015 <parse+0xcf0>
    3b94: d0 c7        	bne	$3b5d <__mulsi3+0x1e>
    3b96: e6 14        	inc	$14                     ; 0x2014 <parse+0xcef>
    3b98: c6 14        	dec	$14                     ; 0x2014 <parse+0xcef>
    3b9a: d0 c1        	bne	$3b5d <__mulsi3+0x1e>
    3b9c: 5a           	phy
    3b9d: a4 1a        	ldy	$1a                     ; 0x201a <parse+0xcf5>
    3b9f: 84 12        	sty	$12                     ; 0x2012 <parse+0xced>
    3ba1: 7a           	ply
    3ba2: 85 13        	sta	$13                     ; 0x2013 <parse+0xcee>
    3ba4: 98           	tya
    3ba5: 60           	rts
    3ba6: a0 00        	ldy	#$0
    3ba8: a2 00        	ldx	#$0
    3baa: 64 1a        	stz	$1a                     ; 0x201a <parse+0xcf5>
    3bac: 98           	tya
    3bad: 80 ed        	bra	$3b9c <__mulsi3+0x5d>

00003baf <__muldi3>:
    3baf: a4 1f        	ldy	$1f                     ; 0x201f <parse+0xcfa>
    3bb1: d0 1f        	bne	$3bd2 <__muldi3+0x23>
    3bb3: a4 1e        	ldy	$1e                     ; 0x201e <parse+0xcf9>
    3bb5: d0 1b        	bne	$3bd2 <__muldi3+0x23>
    3bb7: a4 1d        	ldy	$1d                     ; 0x201d <parse+0xcf8>
    3bb9: d0 17        	bne	$3bd2 <__muldi3+0x23>
    3bbb: a4 1c        	ldy	$1c                     ; 0x201c <parse+0xcf7>
    3bbd: d0 13        	bne	$3bd2 <__muldi3+0x23>
    3bbf: a4 1b        	ldy	$1b                     ; 0x201b <parse+0xcf6>
    3bc1: d0 0f        	bne	$3bd2 <__muldi3+0x23>
    3bc3: a4 1a        	ldy	$1a                     ; 0x201a <parse+0xcf5>
    3bc5: d0 0b        	bne	$3bd2 <__muldi3+0x23>
    3bc7: a4 19        	ldy	$19                     ; 0x2019 <parse+0xcf4>
    3bc9: d0 07        	bne	$3bd2 <__muldi3+0x23>
    3bcb: a4 18        	ldy	$18                     ; 0x2018 <parse+0xcf3>
    3bcd: d0 03        	bne	$3bd2 <__muldi3+0x23>
    3bcf: 4c 96 3c     	jmp	$3c96 <__muldi3+0xe7>
    3bd2: 85 22        	sta	$22                     ; 0x2022 <parse+0xcfd>
    3bd4: 86 23        	stx	$23                     ; 0x2023 <parse+0xcfe>
    3bd6: a0 00        	ldy	#$0
    3bd8: a2 00        	ldx	#$0
    3bda: 64 aa        	stz	$aa                     ; 0x20aa <parse+0xd85>
    3bdc: 64 ab        	stz	$ab                     ; 0x20ab <parse+0xd86>
    3bde: 64 ac        	stz	$ac                     ; 0x20ac <parse+0xd87>
    3be0: 64 ad        	stz	$ad                     ; 0x20ad <parse+0xd88>
    3be2: 64 ae        	stz	$ae                     ; 0x20ae <parse+0xd89>
    3be4: 98           	tya
    3be5: 46 1f        	lsr	$1f                     ; 0x201f <parse+0xcfa>
    3be7: 66 1e        	ror	$1e                     ; 0x201e <parse+0xcf9>
    3be9: 66 1d        	ror	$1d                     ; 0x201d <parse+0xcf8>
    3beb: 66 1c        	ror	$1c                     ; 0x201c <parse+0xcf7>
    3bed: 66 1b        	ror	$1b                     ; 0x201b <parse+0xcf6>
    3bef: 66 1a        	ror	$1a                     ; 0x201a <parse+0xcf5>
    3bf1: 66 19        	ror	$19                     ; 0x2019 <parse+0xcf4>
    3bf3: 66 18        	ror	$18                     ; 0x2018 <parse+0xcf3>
    3bf5: 90 2d        	bcc	$3c24 <__muldi3+0x75>
    3bf7: 85 af        	sta	$af                     ; 0x20af <parse+0xd8a>
    3bf9: 98           	tya
    3bfa: 18           	clc
    3bfb: 65 22        	adc	$22                     ; 0x2022 <parse+0xcfd>
    3bfd: a8           	tay
    3bfe: 8a           	txa
    3bff: 65 23        	adc	$23                     ; 0x2023 <parse+0xcfe>
    3c01: aa           	tax
    3c02: a5 aa        	lda	$aa                     ; 0x20aa <parse+0xd85>
    3c04: 65 12        	adc	$12                     ; 0x2012 <parse+0xced>
    3c06: 85 aa        	sta	$aa                     ; 0x20aa <parse+0xd85>
    3c08: a5 ab        	lda	$ab                     ; 0x20ab <parse+0xd86>
    3c0a: 65 13        	adc	$13                     ; 0x2013 <parse+0xcee>
    3c0c: 85 ab        	sta	$ab                     ; 0x20ab <parse+0xd86>
    3c0e: a5 ac        	lda	$ac                     ; 0x20ac <parse+0xd87>
    3c10: 65 14        	adc	$14                     ; 0x2014 <parse+0xcef>
    3c12: 85 ac        	sta	$ac                     ; 0x20ac <parse+0xd87>
    3c14: a5 ad        	lda	$ad                     ; 0x20ad <parse+0xd88>
    3c16: 65 15        	adc	$15                     ; 0x2015 <parse+0xcf0>
    3c18: 85 ad        	sta	$ad                     ; 0x20ad <parse+0xd88>
    3c1a: a5 ae        	lda	$ae                     ; 0x20ae <parse+0xd89>
    3c1c: 65 16        	adc	$16                     ; 0x2016 <parse+0xcf1>
    3c1e: 85 ae        	sta	$ae                     ; 0x20ae <parse+0xd89>
    3c20: a5 af        	lda	$af                     ; 0x20af <parse+0xd8a>
    3c22: 65 17        	adc	$17                     ; 0x2017 <parse+0xcf2>
    3c24: 06 22        	asl	$22                     ; 0x2022 <parse+0xcfd>
    3c26: 26 23        	rol	$23                     ; 0x2023 <parse+0xcfe>
    3c28: 26 12        	rol	$12                     ; 0x2012 <parse+0xced>
    3c2a: 26 13        	rol	$13                     ; 0x2013 <parse+0xcee>
    3c2c: 26 14        	rol	$14                     ; 0x2014 <parse+0xcef>
    3c2e: 26 15        	rol	$15                     ; 0x2015 <parse+0xcf0>
    3c30: 26 16        	rol	$16                     ; 0x2016 <parse+0xcf1>
    3c32: 26 17        	rol	$17                     ; 0x2017 <parse+0xcf2>
    3c34: e6 1f        	inc	$1f                     ; 0x201f <parse+0xcfa>
    3c36: c6 1f        	dec	$1f                     ; 0x201f <parse+0xcfa>
    3c38: f0 03        	beq	$3c3d <__muldi3+0x8e>
    3c3a: 4c e5 3b     	jmp	$3be5 <__muldi3+0x36>
    3c3d: e6 1e        	inc	$1e                     ; 0x201e <parse+0xcf9>
    3c3f: c6 1e        	dec	$1e                     ; 0x201e <parse+0xcf9>
    3c41: f0 03        	beq	$3c46 <__muldi3+0x97>
    3c43: 4c e5 3b     	jmp	$3be5 <__muldi3+0x36>
    3c46: e6 1d        	inc	$1d                     ; 0x201d <parse+0xcf8>
    3c48: c6 1d        	dec	$1d                     ; 0x201d <parse+0xcf8>
    3c4a: f0 03        	beq	$3c4f <__muldi3+0xa0>
    3c4c: 4c e5 3b     	jmp	$3be5 <__muldi3+0x36>
    3c4f: e6 1c        	inc	$1c                     ; 0x201c <parse+0xcf7>
    3c51: c6 1c        	dec	$1c                     ; 0x201c <parse+0xcf7>
    3c53: f0 03        	beq	$3c58 <__muldi3+0xa9>
    3c55: 4c e5 3b     	jmp	$3be5 <__muldi3+0x36>
    3c58: e6 1b        	inc	$1b                     ; 0x201b <parse+0xcf6>
    3c5a: c6 1b        	dec	$1b                     ; 0x201b <parse+0xcf6>
    3c5c: f0 03        	beq	$3c61 <__muldi3+0xb2>
    3c5e: 4c e5 3b     	jmp	$3be5 <__muldi3+0x36>
    3c61: e6 1a        	inc	$1a                     ; 0x201a <parse+0xcf5>
    3c63: c6 1a        	dec	$1a                     ; 0x201a <parse+0xcf5>
    3c65: f0 03        	beq	$3c6a <__muldi3+0xbb>
    3c67: 4c e5 3b     	jmp	$3be5 <__muldi3+0x36>
    3c6a: e6 19        	inc	$19                     ; 0x2019 <parse+0xcf4>
    3c6c: c6 19        	dec	$19                     ; 0x2019 <parse+0xcf4>
    3c6e: f0 03        	beq	$3c73 <__muldi3+0xc4>
    3c70: 4c e5 3b     	jmp	$3be5 <__muldi3+0x36>
    3c73: e6 18        	inc	$18                     ; 0x2018 <parse+0xcf3>
    3c75: c6 18        	dec	$18                     ; 0x2018 <parse+0xcf3>
    3c77: f0 03        	beq	$3c7c <__muldi3+0xcd>
    3c79: 4c e5 3b     	jmp	$3be5 <__muldi3+0x36>
    3c7c: 5a           	phy
    3c7d: a4 aa        	ldy	$aa                     ; 0x20aa <parse+0xd85>
    3c7f: 84 12        	sty	$12                     ; 0x2012 <parse+0xced>
    3c81: a4 ab        	ldy	$ab                     ; 0x20ab <parse+0xd86>
    3c83: 84 13        	sty	$13                     ; 0x2013 <parse+0xcee>
    3c85: a4 ac        	ldy	$ac                     ; 0x20ac <parse+0xd87>
    3c87: 84 14        	sty	$14                     ; 0x2014 <parse+0xcef>
    3c89: a4 ad        	ldy	$ad                     ; 0x20ad <parse+0xd88>
    3c8b: 84 15        	sty	$15                     ; 0x2015 <parse+0xcf0>
    3c8d: a4 ae        	ldy	$ae                     ; 0x20ae <parse+0xd89>
    3c8f: 84 16        	sty	$16                     ; 0x2016 <parse+0xcf1>
    3c91: 7a           	ply
    3c92: 85 17        	sta	$17                     ; 0x2017 <parse+0xcf2>
    3c94: 98           	tya
    3c95: 60           	rts
    3c96: a0 00        	ldy	#$0
    3c98: a2 00        	ldx	#$0
    3c9a: 64 aa        	stz	$aa                     ; 0x20aa <parse+0xd85>
    3c9c: 64 ab        	stz	$ab                     ; 0x20ab <parse+0xd86>
    3c9e: 64 ac        	stz	$ac                     ; 0x20ac <parse+0xd87>
    3ca0: 64 ad        	stz	$ad                     ; 0x20ad <parse+0xd88>
    3ca2: 64 ae        	stz	$ae                     ; 0x20ae <parse+0xd89>
    3ca4: 98           	tya
    3ca5: 80 d5        	bra	$3c7c <__muldi3+0xcd>

00003ca7 <__udivsi3>:
    3ca7: 64 18        	stz	$18                     ; 0x2018 <parse+0xcf3>
    3ca9: a4 17        	ldy	$17                     ; 0x2017 <parse+0xcf2>
    3cab: d0 0c        	bne	$3cb9 <__udivsi3+0x12>
    3cad: a4 16        	ldy	$16                     ; 0x2016 <parse+0xcf1>
    3caf: d0 08        	bne	$3cb9 <__udivsi3+0x12>
    3cb1: a4 15        	ldy	$15                     ; 0x2015 <parse+0xcf0>
    3cb3: d0 04        	bne	$3cb9 <__udivsi3+0x12>
    3cb5: a4 14        	ldy	$14                     ; 0x2014 <parse+0xcef>
    3cb7: f0 27        	beq	$3ce0 <__udivsi3+0x39>
    3cb9: 86 1e        	stx	$1e                     ; 0x201e <parse+0xcf9>
    3cbb: a6 12        	ldx	$12                     ; 0x2012 <parse+0xced>
    3cbd: 86 1f        	stx	$1f                     ; 0x201f <parse+0xcfa>
    3cbf: a6 13        	ldx	$13                     ; 0x2013 <parse+0xcee>
    3cc1: 86 22        	stx	$22                     ; 0x2022 <parse+0xcfd>
    3cc3: e4 17        	cpx	$17                     ; 0x2017 <parse+0xcf2>
    3cc5: d0 15        	bne	$3cdc <__udivsi3+0x35>
    3cc7: a6 12        	ldx	$12                     ; 0x2012 <parse+0xced>
    3cc9: e4 16        	cpx	$16                     ; 0x2016 <parse+0xcf1>
    3ccb: d0 1a        	bne	$3ce7 <__udivsi3+0x40>
    3ccd: a6 1e        	ldx	$1e                     ; 0x201e <parse+0xcf9>
    3ccf: e4 15        	cpx	$15                     ; 0x2015 <parse+0xcf0>
    3cd1: f0 03        	beq	$3cd6 <__udivsi3+0x2f>
    3cd3: 4c 0c 3e     	jmp	$3e0c <__udivsi3+0x165>
    3cd6: c5 14        	cmp	$14                     ; 0x2014 <parse+0xcef>
    3cd8: 90 06        	bcc	$3ce0 <__udivsi3+0x39>
    3cda: 80 0f        	bra	$3ceb <__udivsi3+0x44>
    3cdc: e4 17        	cpx	$17                     ; 0x2017 <parse+0xcf2>
    3cde: b0 0b        	bcs	$3ceb <__udivsi3+0x44>
    3ce0: a2 00        	ldx	#$0
    3ce2: 86 71        	stx	$71                     ; 0x2071 <parse+0xd4c>
    3ce4: 4c 51 3d     	jmp	$3d51 <__udivsi3+0xaa>
    3ce7: e4 16        	cpx	$16                     ; 0x2016 <parse+0xcf1>
    3ce9: 90 f5        	bcc	$3ce0 <__udivsi3+0x39>
    3ceb: a2 01        	ldx	#$1
    3ced: 86 71        	stx	$71                     ; 0x2071 <parse+0xd4c>
    3cef: a6 17        	ldx	$17                     ; 0x2017 <parse+0xcf2>
    3cf1: 10 03        	bpl	$3cf6 <__udivsi3+0x4f>
    3cf3: 4c 51 3d     	jmp	$3d51 <__udivsi3+0xaa>
    3cf6: 85 1d        	sta	$1d                     ; 0x201d <parse+0xcf8>
    3cf8: a5 1e        	lda	$1e                     ; 0x201e <parse+0xcf9>
    3cfa: a2 00        	ldx	#$0
    3cfc: a4 14        	ldy	$14                     ; 0x2014 <parse+0xcef>
    3cfe: 84 19        	sty	$19                     ; 0x2019 <parse+0xcf4>
    3d00: a4 15        	ldy	$15                     ; 0x2015 <parse+0xcf0>
    3d02: 84 1a        	sty	$1a                     ; 0x201a <parse+0xcf5>
    3d04: a4 16        	ldy	$16                     ; 0x2016 <parse+0xcf1>
    3d06: 84 1b        	sty	$1b                     ; 0x201b <parse+0xcf6>
    3d08: a4 17        	ldy	$17                     ; 0x2017 <parse+0xcf2>
    3d0a: 84 1c        	sty	$1c                     ; 0x201c <parse+0xcf7>
    3d0c: 06 19        	asl	$19                     ; 0x2019 <parse+0xcf4>
    3d0e: 26 1a        	rol	$1a                     ; 0x201a <parse+0xcf5>
    3d10: 26 1b        	rol	$1b                     ; 0x201b <parse+0xcf6>
    3d12: 26 1c        	rol	$1c                     ; 0x201c <parse+0xcf7>
    3d14: a4 22        	ldy	$22                     ; 0x2022 <parse+0xcfd>
    3d16: c4 1c        	cpy	$1c                     ; 0x201c <parse+0xcf7>
    3d18: d0 12        	bne	$3d2c <__udivsi3+0x85>
    3d1a: a4 12        	ldy	$12                     ; 0x2012 <parse+0xced>
    3d1c: c4 1b        	cpy	$1b                     ; 0x201b <parse+0xcf6>
    3d1e: d0 12        	bne	$3d32 <__udivsi3+0x8b>
    3d20: c5 1a        	cmp	$1a                     ; 0x201a <parse+0xcf5>
    3d22: d0 14        	bne	$3d38 <__udivsi3+0x91>
    3d24: a4 1d        	ldy	$1d                     ; 0x201d <parse+0xcf8>
    3d26: c4 19        	cpy	$19                     ; 0x2019 <parse+0xcf4>
    3d28: 90 30        	bcc	$3d5a <__udivsi3+0xb3>
    3d2a: 80 10        	bra	$3d3c <__udivsi3+0x95>
    3d2c: c4 1c        	cpy	$1c                     ; 0x201c <parse+0xcf7>
    3d2e: 90 2a        	bcc	$3d5a <__udivsi3+0xb3>
    3d30: 80 0a        	bra	$3d3c <__udivsi3+0x95>
    3d32: c4 1b        	cpy	$1b                     ; 0x201b <parse+0xcf6>
    3d34: 90 24        	bcc	$3d5a <__udivsi3+0xb3>
    3d36: 80 04        	bra	$3d3c <__udivsi3+0x95>
    3d38: c5 1a        	cmp	$1a                     ; 0x201a <parse+0xcf5>
    3d3a: 90 1e        	bcc	$3d5a <__udivsi3+0xb3>
    3d3c: e8           	inx
    3d3d: a4 19        	ldy	$19                     ; 0x2019 <parse+0xcf4>
    3d3f: 84 14        	sty	$14                     ; 0x2014 <parse+0xcef>
    3d41: a4 1a        	ldy	$1a                     ; 0x201a <parse+0xcf5>
    3d43: 84 15        	sty	$15                     ; 0x2015 <parse+0xcf0>
    3d45: a4 1b        	ldy	$1b                     ; 0x201b <parse+0xcf6>
    3d47: 84 16        	sty	$16                     ; 0x2016 <parse+0xcf1>
    3d49: a4 1c        	ldy	$1c                     ; 0x201c <parse+0xcf7>
    3d4b: 84 17        	sty	$17                     ; 0x2017 <parse+0xcf2>
    3d4d: 10 bd        	bpl	$3d0c <__udivsi3+0x65>
    3d4f: 80 19        	bra	$3d6a <__udivsi3+0xc3>
    3d51: 64 12        	stz	$12                     ; 0x2012 <parse+0xced>
    3d53: 64 13        	stz	$13                     ; 0x2013 <parse+0xcee>
    3d55: a6 18        	ldx	$18                     ; 0x2018 <parse+0xcf3>
    3d57: a5 71        	lda	$71                     ; 0x2071 <parse+0xd4c>
    3d59: 60           	rts
    3d5a: a4 14        	ldy	$14                     ; 0x2014 <parse+0xcef>
    3d5c: 84 19        	sty	$19                     ; 0x2019 <parse+0xcf4>
    3d5e: a4 15        	ldy	$15                     ; 0x2015 <parse+0xcf0>
    3d60: 84 1a        	sty	$1a                     ; 0x201a <parse+0xcf5>
    3d62: a4 16        	ldy	$16                     ; 0x2016 <parse+0xcf1>
    3d64: 84 1b        	sty	$1b                     ; 0x201b <parse+0xcf6>
    3d66: a4 17        	ldy	$17                     ; 0x2017 <parse+0xcf2>
    3d68: 84 1c        	sty	$1c                     ; 0x201c <parse+0xcf7>
    3d6a: 64 12        	stz	$12                     ; 0x2012 <parse+0xced>
    3d6c: 64 13        	stz	$13                     ; 0x2013 <parse+0xcee>
    3d6e: 8a           	txa
    3d6f: f0 e4        	beq	$3d55 <__udivsi3+0xae>
    3d71: 38           	sec
    3d72: a5 1d        	lda	$1d                     ; 0x201d <parse+0xcf8>
    3d74: e5 19        	sbc	$19                     ; 0x2019 <parse+0xcf4>
    3d76: 85 14        	sta	$14                     ; 0x2014 <parse+0xcef>
    3d78: a5 1e        	lda	$1e                     ; 0x201e <parse+0xcf9>
    3d7a: e5 1a        	sbc	$1a                     ; 0x201a <parse+0xcf5>
    3d7c: 85 17        	sta	$17                     ; 0x2017 <parse+0xcf2>
    3d7e: a5 1f        	lda	$1f                     ; 0x201f <parse+0xcfa>
    3d80: e5 1b        	sbc	$1b                     ; 0x201b <parse+0xcf6>
    3d82: 85 15        	sta	$15                     ; 0x2015 <parse+0xcf0>
    3d84: a5 22        	lda	$22                     ; 0x2022 <parse+0xcfd>
    3d86: e5 1c        	sbc	$1c                     ; 0x201c <parse+0xcf7>
    3d88: a0 01        	ldy	#$1
    3d8a: 84 71        	sty	$71                     ; 0x2071 <parse+0xd4c>
    3d8c: 64 18        	stz	$18                     ; 0x2018 <parse+0xcf3>
    3d8e: 46 1c        	lsr	$1c                     ; 0x201c <parse+0xcf7>
    3d90: 66 1b        	ror	$1b                     ; 0x201b <parse+0xcf6>
    3d92: 66 1a        	ror	$1a                     ; 0x201a <parse+0xcf5>
    3d94: 66 19        	ror	$19                     ; 0x2019 <parse+0xcf4>
    3d96: a4 71        	ldy	$71                     ; 0x2071 <parse+0xd4c>
    3d98: 84 16        	sty	$16                     ; 0x2016 <parse+0xcf1>
    3d9a: 06 16        	asl	$16                     ; 0x2016 <parse+0xcf1>
    3d9c: a0 01        	ldy	#$1
    3d9e: b0 02        	bcs	$3da2 <__udivsi3+0xfb>
    3da0: a0 00        	ldy	#$0
    3da2: 84 1d        	sty	$1d                     ; 0x201d <parse+0xcf8>
    3da4: a4 16        	ldy	$16                     ; 0x2016 <parse+0xcf1>
    3da6: 84 71        	sty	$71                     ; 0x2071 <parse+0xd4c>
    3da8: c5 1c        	cmp	$1c                     ; 0x201c <parse+0xcf7>
    3daa: d0 16        	bne	$3dc2 <__udivsi3+0x11b>
    3dac: 85 16        	sta	$16                     ; 0x2016 <parse+0xcf1>
    3dae: a4 15        	ldy	$15                     ; 0x2015 <parse+0xcf0>
    3db0: a5 17        	lda	$17                     ; 0x2017 <parse+0xcf2>
    3db2: c4 1b        	cpy	$1b                     ; 0x201b <parse+0xcf6>
    3db4: d0 4a        	bne	$3e00 <__udivsi3+0x159>
    3db6: c5 1a        	cmp	$1a                     ; 0x201a <parse+0xcf5>
    3db8: d0 4c        	bne	$3e06 <__udivsi3+0x15f>
    3dba: a4 14        	ldy	$14                     ; 0x2014 <parse+0xcef>
    3dbc: c4 19        	cpy	$19                     ; 0x2019 <parse+0xcf4>
    3dbe: b0 0a        	bcs	$3dca <__udivsi3+0x123>
    3dc0: 80 27        	bra	$3de9 <__udivsi3+0x142>
    3dc2: 85 16        	sta	$16                     ; 0x2016 <parse+0xcf1>
    3dc4: c5 1c        	cmp	$1c                     ; 0x201c <parse+0xcf7>
    3dc6: a5 17        	lda	$17                     ; 0x2017 <parse+0xcf2>
    3dc8: 90 1f        	bcc	$3de9 <__udivsi3+0x142>
    3dca: a8           	tay
    3dcb: 38           	sec
    3dcc: a5 14        	lda	$14                     ; 0x2014 <parse+0xcef>
    3dce: e5 19        	sbc	$19                     ; 0x2019 <parse+0xcf4>
    3dd0: 85 14        	sta	$14                     ; 0x2014 <parse+0xcef>
    3dd2: 98           	tya
    3dd3: e5 1a        	sbc	$1a                     ; 0x201a <parse+0xcf5>
    3dd5: 85 17        	sta	$17                     ; 0x2017 <parse+0xcf2>
    3dd7: a5 15        	lda	$15                     ; 0x2015 <parse+0xcf0>
    3dd9: e5 1b        	sbc	$1b                     ; 0x201b <parse+0xcf6>
    3ddb: 85 15        	sta	$15                     ; 0x2015 <parse+0xcf0>
    3ddd: a5 16        	lda	$16                     ; 0x2016 <parse+0xcf1>
    3ddf: e5 1c        	sbc	$1c                     ; 0x201c <parse+0xcf7>
    3de1: 85 16        	sta	$16                     ; 0x2016 <parse+0xcf1>
    3de3: a5 71        	lda	$71                     ; 0x2071 <parse+0xd4c>
    3de5: 09 01        	ora	#$1
    3de7: 85 71        	sta	$71                     ; 0x2071 <parse+0xd4c>
    3de9: a4 1d        	ldy	$1d                     ; 0x201d <parse+0xcf8>
    3deb: c0 01        	cpy	#$1
    3ded: 26 18        	rol	$18                     ; 0x2018 <parse+0xcf3>
    3def: 26 12        	rol	$12                     ; 0x2012 <parse+0xced>
    3df1: 26 13        	rol	$13                     ; 0x2013 <parse+0xcee>
    3df3: ca           	dex
    3df4: a5 16        	lda	$16                     ; 0x2016 <parse+0xcf1>
    3df6: e0 00        	cpx	#$0
    3df8: f0 03        	beq	$3dfd <__udivsi3+0x156>
    3dfa: 4c 8e 3d     	jmp	$3d8e <__udivsi3+0xe7>
    3dfd: 4c 55 3d     	jmp	$3d55 <__udivsi3+0xae>
    3e00: c4 1b        	cpy	$1b                     ; 0x201b <parse+0xcf6>
    3e02: b0 c6        	bcs	$3dca <__udivsi3+0x123>
    3e04: 80 e3        	bra	$3de9 <__udivsi3+0x142>
    3e06: c5 1a        	cmp	$1a                     ; 0x201a <parse+0xcf5>
    3e08: b0 c0        	bcs	$3dca <__udivsi3+0x123>
    3e0a: 80 dd        	bra	$3de9 <__udivsi3+0x142>
    3e0c: e4 15        	cpx	$15                     ; 0x2015 <parse+0xcf0>
    3e0e: b0 03        	bcs	$3e13 <__udivsi3+0x16c>
    3e10: 4c e0 3c     	jmp	$3ce0 <__udivsi3+0x39>
    3e13: 4c eb 3c     	jmp	$3ceb <__udivsi3+0x44>

00003e16 <__divdf3>:
    3e16: 85 82        	sta	$82                     ; 0x2082 <parse+0xd5d>
    3e18: 86 22        	stx	$22                     ; 0x2022 <parse+0xcfd>
    3e1a: a6 12        	ldx	$12                     ; 0x2012 <parse+0xced>
    3e1c: 86 7d        	stx	$7d                     ; 0x207d <parse+0xd58>
    3e1e: a6 13        	ldx	$13                     ; 0x2013 <parse+0xcee>
    3e20: 86 80        	stx	$80                     ; 0x2080 <parse+0xd5b>
    3e22: a6 14        	ldx	$14                     ; 0x2014 <parse+0xcef>
    3e24: 86 7e        	stx	$7e                     ; 0x207e <parse+0xd59>
    3e26: a4 15        	ldy	$15                     ; 0x2015 <parse+0xcf0>
    3e28: a6 17        	ldx	$17                     ; 0x2017 <parse+0xcf2>
    3e2a: 86 14        	stx	$14                     ; 0x2014 <parse+0xcef>
    3e2c: a6 19        	ldx	$19                     ; 0x2019 <parse+0xcf4>
    3e2e: 86 23        	stx	$23                     ; 0x2023 <parse+0xcfe>
    3e30: a6 1a        	ldx	$1a                     ; 0x201a <parse+0xcf5>
    3e32: 86 7f        	stx	$7f                     ; 0x207f <parse+0xd5a>
    3e34: a6 1b        	ldx	$1b                     ; 0x201b <parse+0xcf6>
    3e36: 86 81        	stx	$81                     ; 0x2081 <parse+0xd5c>
    3e38: a5 17        	lda	$17                     ; 0x2017 <parse+0xcf2>
    3e3a: 4a           	lsr
    3e3b: a6 16        	ldx	$16                     ; 0x2016 <parse+0xcf1>
    3e3d: 86 12        	stx	$12                     ; 0x2012 <parse+0xced>
    3e3f: 66 12        	ror	$12                     ; 0x2012 <parse+0xced>
    3e41: 4a           	lsr
    3e42: 66 12        	ror	$12                     ; 0x2012 <parse+0xced>
    3e44: 4a           	lsr
    3e45: 66 12        	ror	$12                     ; 0x2012 <parse+0xced>
    3e47: 4a           	lsr
    3e48: 66 12        	ror	$12                     ; 0x2012 <parse+0xced>
    3e4a: a6 1e        	ldx	$1e                     ; 0x201e <parse+0xcf9>
    3e4c: 86 13        	stx	$13                     ; 0x2013 <parse+0xcee>
    3e4e: a6 1f        	ldx	$1f                     ; 0x201f <parse+0xcfa>
    3e50: 86 17        	stx	$17                     ; 0x2017 <parse+0xcf2>
    3e52: 46 17        	lsr	$17                     ; 0x2017 <parse+0xcf2>
    3e54: 66 13        	ror	$13                     ; 0x2013 <parse+0xcee>
    3e56: 46 17        	lsr	$17                     ; 0x2017 <parse+0xcf2>
    3e58: 66 13        	ror	$13                     ; 0x2013 <parse+0xcee>
    3e5a: 46 17        	lsr	$17                     ; 0x2017 <parse+0xcf2>
    3e5c: 66 13        	ror	$13                     ; 0x2013 <parse+0xcee>
    3e5e: 46 17        	lsr	$17                     ; 0x2017 <parse+0xcf2>
    3e60: 66 13        	ror	$13                     ; 0x2013 <parse+0xcee>
    3e62: 29 07        	and	#$7
    3e64: 85 15        	sta	$15                     ; 0x2015 <parse+0xcf0>
    3e66: 18           	clc
    3e67: a6 12        	ldx	$12                     ; 0x2012 <parse+0xced>
    3e69: 86 85        	stx	$85                     ; 0x2085 <parse+0xd60>
    3e6b: a5 12        	lda	$12                     ; 0x2012 <parse+0xced>
    3e6d: 69 01        	adc	#$1
    3e6f: 85 19        	sta	$19                     ; 0x2019 <parse+0xcf4>
    3e71: a6 15        	ldx	$15                     ; 0x2015 <parse+0xcf0>
    3e73: 86 84        	stx	$84                     ; 0x2084 <parse+0xd5f>
    3e75: a5 15        	lda	$15                     ; 0x2015 <parse+0xcf0>
    3e77: 69 f8        	adc	#$f8
    3e79: aa           	tax
    3e7a: a5 17        	lda	$17                     ; 0x2017 <parse+0xcf2>
    3e7c: 29 07        	and	#$7
    3e7e: 85 15        	sta	$15                     ; 0x2015 <parse+0xcf0>
    3e80: 85 12        	sta	$12                     ; 0x2012 <parse+0xced>
    3e82: a5 14        	lda	$14                     ; 0x2014 <parse+0xcef>
    3e84: 85 17        	sta	$17                     ; 0x2017 <parse+0xcf2>
    3e86: a5 1f        	lda	$1f                     ; 0x201f <parse+0xcfa>
    3e88: 45 14        	eor	$14                     ; 0x2014 <parse+0xcef>
    3e8a: 29 80        	and	#$80
    3e8c: 85 86        	sta	$86                     ; 0x2086 <parse+0xd61>
    3e8e: a5 16        	lda	$16                     ; 0x2016 <parse+0xcf1>
    3e90: 85 1b        	sta	$1b                     ; 0x201b <parse+0xcf6>
    3e92: a5 16        	lda	$16                     ; 0x2016 <parse+0xcf1>
    3e94: 29 0f        	and	#$f
    3e96: 85 1a        	sta	$1a                     ; 0x201a <parse+0xcf5>
    3e98: a5 1e        	lda	$1e                     ; 0x201e <parse+0xcf9>
    3e9a: 85 73        	sta	$73                     ; 0x2073 <parse+0xd4e>
    3e9c: a5 1e        	lda	$1e                     ; 0x201e <parse+0xcf9>
    3e9e: 29 0f        	and	#$f
    3ea0: e0 f8        	cpx	#$f8
    3ea2: d0 06        	bne	$3eaa <__divdf3+0x94>
    3ea4: a6 19        	ldx	$19                     ; 0x2019 <parse+0xcf4>
    3ea6: e0 02        	cpx	#$2
    3ea8: 80 02        	bra	$3eac <__divdf3+0x96>
    3eaa: e0 f8        	cpx	#$f8
    3eac: a6 7d        	ldx	$7d                     ; 0x207d <parse+0xd58>
    3eae: 86 19        	stx	$19                     ; 0x2019 <parse+0xcf4>
    3eb0: a6 14        	ldx	$14                     ; 0x2014 <parse+0xcef>
    3eb2: 90 3f        	bcc	$3ef3 <__divdf3+0xdd>
    3eb4: 85 72        	sta	$72                     ; 0x2072 <parse+0xd4d>
    3eb6: 18           	clc
    3eb7: a5 13        	lda	$13                     ; 0x2013 <parse+0xcee>
    3eb9: 69 01        	adc	#$1
    3ebb: 85 16        	sta	$16                     ; 0x2016 <parse+0xcf1>
    3ebd: a5 15        	lda	$15                     ; 0x2015 <parse+0xcf0>
    3ebf: 69 f8        	adc	#$f8
    3ec1: c9 f8        	cmp	#$f8
    3ec3: d0 28        	bne	$3eed <__divdf3+0xd7>
    3ec5: a5 16        	lda	$16                     ; 0x2016 <parse+0xcf1>
    3ec7: c9 02        	cmp	#$2
    3ec9: 90 26        	bcc	$3ef1 <__divdf3+0xdb>
    3ecb: a5 1a        	lda	$1a                     ; 0x201a <parse+0xcf5>
    3ecd: 85 83        	sta	$83                     ; 0x2083 <parse+0xd5e>
    3ecf: 98           	tya
    3ed0: 85 8a        	sta	$8a                     ; 0x208a <parse+0xd65>
    3ed2: a4 22        	ldy	$22                     ; 0x2022 <parse+0xcfd>
    3ed4: 84 8b        	sty	$8b                     ; 0x208b <parse+0xd66>
    3ed6: a6 1d        	ldx	$1d                     ; 0x201d <parse+0xcf8>
    3ed8: 86 87        	stx	$87                     ; 0x2087 <parse+0xd62>
    3eda: a6 23        	ldx	$23                     ; 0x2023 <parse+0xcfe>
    3edc: 86 88        	stx	$88                     ; 0x2088 <parse+0xd63>
    3ede: a2 00        	ldx	#$0
    3ee0: 86 93        	stx	$93                     ; 0x2093 <parse+0xd6e>
    3ee2: 86 92        	stx	$92                     ; 0x2092 <parse+0xd6d>
    3ee4: 64 14        	stz	$14                     ; 0x2014 <parse+0xcef>
    3ee6: 64 15        	stz	$15                     ; 0x2015 <parse+0xcf0>
    3ee8: a4 1c        	ldy	$1c                     ; 0x201c <parse+0xcf7>
    3eea: 4c c1 4b     	jmp	$4bc1 <__divdf3+0xdab>
    3eed: c9 f8        	cmp	#$f8
    3eef: b0 da        	bcs	$3ecb <__divdf3+0xb5>
    3ef1: a5 72        	lda	$72                     ; 0x2072 <parse+0xd4d>
    3ef3: 85 72        	sta	$72                     ; 0x2072 <parse+0xd4d>
    3ef5: 8a           	txa
    3ef6: 29 7f        	and	#$7f
    3ef8: c9 7f        	cmp	#$7f
    3efa: d0 47        	bne	$3f43 <__divdf3+0x12d>
    3efc: 85 1e        	sta	$1e                     ; 0x201e <parse+0xcf9>
    3efe: a6 22        	ldx	$22                     ; 0x2022 <parse+0xcfd>
    3f00: a5 1b        	lda	$1b                     ; 0x201b <parse+0xcf6>
    3f02: c9 f0        	cmp	#$f0
    3f04: f0 03        	beq	$3f09 <__divdf3+0xf3>
    3f06: 4c 9d 3f     	jmp	$3f9d <__divdf3+0x187>
    3f09: c0 00        	cpy	#$0
    3f0b: f0 03        	beq	$3f10 <__divdf3+0xfa>
    3f0d: 4c bf 3f     	jmp	$3fbf <__divdf3+0x1a9>
    3f10: 84 15        	sty	$15                     ; 0x2015 <parse+0xcf0>
    3f12: a4 7e        	ldy	$7e                     ; 0x207e <parse+0xd59>
    3f14: f0 03        	beq	$3f19 <__divdf3+0x103>
    3f16: 4c a3 41     	jmp	$41a3 <__divdf3+0x38d>
    3f19: a6 80        	ldx	$80                     ; 0x2080 <parse+0xd5b>
    3f1b: f0 03        	beq	$3f20 <__divdf3+0x10a>
    3f1d: 4c 80 41     	jmp	$4180 <__divdf3+0x36a>
    3f20: a4 15        	ldy	$15                     ; 0x2015 <parse+0xcf0>
    3f22: a6 22        	ldx	$22                     ; 0x2022 <parse+0xcfd>
    3f24: e6 19        	inc	$19                     ; 0x2019 <parse+0xcf4>
    3f26: c6 19        	dec	$19                     ; 0x2019 <parse+0xcf4>
    3f28: f0 03        	beq	$3f2d <__divdf3+0x117>
    3f2a: 4c a1 41     	jmp	$41a1 <__divdf3+0x38b>
    3f2d: e0 00        	cpx	#$0
    3f2f: f0 03        	beq	$3f34 <__divdf3+0x11e>
    3f31: 4c 4d 57     	jmp	$574d <__divdf3+0x1937>
    3f34: 86 14        	stx	$14                     ; 0x2014 <parse+0xcef>
    3f36: a6 82        	ldx	$82                     ; 0x2082 <parse+0xd5d>
    3f38: e0 01        	cpx	#$1
    3f3a: a4 15        	ldy	$15                     ; 0x2015 <parse+0xcf0>
    3f3c: a6 14        	ldx	$14                     ; 0x2014 <parse+0xcef>
    3f3e: 90 0d        	bcc	$3f4d <__divdf3+0x137>
    3f40: 4c a1 3f     	jmp	$3fa1 <__divdf3+0x18b>
    3f43: 85 1e        	sta	$1e                     ; 0x201e <parse+0xcf9>
    3f45: c9 7f        	cmp	#$7f
    3f47: a6 22        	ldx	$22                     ; 0x2022 <parse+0xcfd>
    3f49: a5 1b        	lda	$1b                     ; 0x201b <parse+0xcf6>
    3f4b: b0 54        	bcs	$3fa1 <__divdf3+0x18b>
    3f4d: 86 15        	stx	$15                     ; 0x2015 <parse+0xcf0>
    3f4f: a5 1f        	lda	$1f                     ; 0x201f <parse+0xcfa>
    3f51: 29 7f        	and	#$7f
    3f53: 85 78        	sta	$78                     ; 0x2078 <parse+0xd53>
    3f55: c9 7f        	cmp	#$7f
    3f57: f0 03        	beq	$3f5c <__divdf3+0x146>
    3f59: 4c bb 3f     	jmp	$3fbb <__divdf3+0x1a5>
    3f5c: a6 73        	ldx	$73                     ; 0x2073 <parse+0xd4e>
    3f5e: e0 f0        	cpx	#$f0
    3f60: f0 03        	beq	$3f65 <__divdf3+0x14f>
    3f62: 4c c6 3f     	jmp	$3fc6 <__divdf3+0x1b0>
    3f65: a5 1b        	lda	$1b                     ; 0x201b <parse+0xcf6>
    3f67: a6 1d        	ldx	$1d                     ; 0x201d <parse+0xcf8>
    3f69: f0 03        	beq	$3f6e <__divdf3+0x158>
    3f6b: 4c 4b 41     	jmp	$414b <__divdf3+0x335>
    3f6e: a6 1c        	ldx	$1c                     ; 0x201c <parse+0xcf7>
    3f70: f0 03        	beq	$3f75 <__divdf3+0x15f>
    3f72: 4c 4d 41     	jmp	$414d <__divdf3+0x337>
    3f75: 84 16        	sty	$16                     ; 0x2016 <parse+0xcf1>
    3f77: 86 14        	stx	$14                     ; 0x2014 <parse+0xcef>
    3f79: a4 81        	ldy	$81                     ; 0x2081 <parse+0xd5c>
    3f7b: f0 03        	beq	$3f80 <__divdf3+0x16a>
    3f7d: 4c af 41     	jmp	$41af <__divdf3+0x399>
    3f80: a6 7f        	ldx	$7f                     ; 0x207f <parse+0xd5a>
    3f82: f0 03        	beq	$3f87 <__divdf3+0x171>
    3f84: 4c 57 57     	jmp	$5757 <__divdf3+0x1941>
    3f87: a6 14        	ldx	$14                     ; 0x2014 <parse+0xcef>
    3f89: 86 1c        	stx	$1c                     ; 0x201c <parse+0xcf7>
    3f8b: a4 16        	ldy	$16                     ; 0x2016 <parse+0xcf1>
    3f8d: a6 23        	ldx	$23                     ; 0x2023 <parse+0xcfe>
    3f8f: f0 03        	beq	$3f94 <__divdf3+0x17e>
    3f91: 4c 80 57     	jmp	$5780 <__divdf3+0x196a>
    3f94: a6 18        	ldx	$18                     ; 0x2018 <parse+0xcf3>
    3f96: e0 01        	cpx	#$1
    3f98: 90 35        	bcc	$3fcf <__divdf3+0x1b9>
    3f9a: 4c 54 41     	jmp	$4154 <__divdf3+0x33e>
    3f9d: c9 f0        	cmp	#$f0
    3f9f: 90 ac        	bcc	$3f4d <__divdf3+0x137>
    3fa1: 84 15        	sty	$15                     ; 0x2015 <parse+0xcf0>
    3fa3: 86 12        	stx	$12                     ; 0x2012 <parse+0xced>
    3fa5: 09 08        	ora	#$8
    3fa7: a8           	tay
    3fa8: a6 82        	ldx	$82                     ; 0x2082 <parse+0xd5d>
    3faa: 86 74        	stx	$74                     ; 0x2074 <parse+0xd4f>
    3fac: a6 80        	ldx	$80                     ; 0x2080 <parse+0xd5b>
    3fae: 86 13        	stx	$13                     ; 0x2013 <parse+0xcee>
    3fb0: a6 7e        	ldx	$7e                     ; 0x207e <parse+0xd59>
    3fb2: 86 14        	stx	$14                     ; 0x2014 <parse+0xcef>
    3fb4: a5 17        	lda	$17                     ; 0x2017 <parse+0xcf2>
    3fb6: a6 12        	ldx	$12                     ; 0x2012 <parse+0xced>
    3fb8: 4c 40 57     	jmp	$5740 <__divdf3+0x192a>
    3fbb: c9 7f        	cmp	#$7f
    3fbd: 80 09        	bra	$3fc8 <__divdf3+0x1b2>
    3fbf: c0 00        	cpy	#$0
    3fc1: b0 de        	bcs	$3fa1 <__divdf3+0x18b>
    3fc3: 4c 4d 3f     	jmp	$3f4d <__divdf3+0x137>
    3fc6: e0 f0        	cpx	#$f0
    3fc8: a5 1b        	lda	$1b                     ; 0x201b <parse+0xcf6>
    3fca: 90 03        	bcc	$3fcf <__divdf3+0x1b9>
    3fcc: 4c 54 41     	jmp	$4154 <__divdf3+0x33e>
    3fcf: a6 1e        	ldx	$1e                     ; 0x201e <parse+0xcf9>
    3fd1: e0 7f        	cpx	#$7f
    3fd3: f0 03        	beq	$3fd8 <__divdf3+0x1c2>
    3fd5: 4c 4b 40     	jmp	$404b <__divdf3+0x235>
    3fd8: c9 f0        	cmp	#$f0
    3fda: f0 03        	beq	$3fdf <__divdf3+0x1c9>
    3fdc: 4c 4b 40     	jmp	$404b <__divdf3+0x235>
    3fdf: 98           	tya
    3fe0: f0 03        	beq	$3fe5 <__divdf3+0x1cf>
    3fe2: 4c 4b 40     	jmp	$404b <__divdf3+0x235>
    3fe5: a6 7e        	ldx	$7e                     ; 0x207e <parse+0xd59>
    3fe7: f0 03        	beq	$3fec <__divdf3+0x1d6>
    3fe9: 4c 4b 40     	jmp	$404b <__divdf3+0x235>
    3fec: a6 80        	ldx	$80                     ; 0x2080 <parse+0xd5b>
    3fee: d0 5b        	bne	$404b <__divdf3+0x235>
    3ff0: a5 19        	lda	$19                     ; 0x2019 <parse+0xcf4>
    3ff2: d0 57        	bne	$404b <__divdf3+0x235>
    3ff4: a5 15        	lda	$15                     ; 0x2015 <parse+0xcf0>
    3ff6: d0 53        	bne	$404b <__divdf3+0x235>
    3ff8: a6 82        	ldx	$82                     ; 0x2082 <parse+0xd5d>
    3ffa: d0 4f        	bne	$404b <__divdf3+0x235>
    3ffc: a4 78        	ldy	$78                     ; 0x2078 <parse+0xd53>
    3ffe: c0 7f        	cpy	#$7f
    4000: f0 03        	beq	$4005 <__divdf3+0x1ef>
    4002: 4c 67 54     	jmp	$5467 <__divdf3+0x1651>
    4005: a6 73        	ldx	$73                     ; 0x2073 <parse+0xd4e>
    4007: e0 f0        	cpx	#$f0
    4009: f0 03        	beq	$400e <__divdf3+0x1f8>
    400b: 4c 67 54     	jmp	$5467 <__divdf3+0x1651>
    400e: a5 1d        	lda	$1d                     ; 0x201d <parse+0xcf8>
    4010: f0 03        	beq	$4015 <__divdf3+0x1ff>
    4012: 4c 67 54     	jmp	$5467 <__divdf3+0x1651>
    4015: a5 1c        	lda	$1c                     ; 0x201c <parse+0xcf7>
    4017: f0 03        	beq	$401c <__divdf3+0x206>
    4019: 4c 67 54     	jmp	$5467 <__divdf3+0x1651>
    401c: a6 81        	ldx	$81                     ; 0x2081 <parse+0xd5c>
    401e: f0 03        	beq	$4023 <__divdf3+0x20d>
    4020: 4c 67 54     	jmp	$5467 <__divdf3+0x1651>
    4023: a6 7f        	ldx	$7f                     ; 0x207f <parse+0xd5a>
    4025: f0 03        	beq	$402a <__divdf3+0x214>
    4027: 4c 67 54     	jmp	$5467 <__divdf3+0x1651>
    402a: a5 23        	lda	$23                     ; 0x2023 <parse+0xcfe>
    402c: f0 03        	beq	$4031 <__divdf3+0x21b>
    402e: 4c 67 54     	jmp	$5467 <__divdf3+0x1651>
    4031: a5 18        	lda	$18                     ; 0x2018 <parse+0xcf3>
    4033: f0 03        	beq	$4038 <__divdf3+0x222>
    4035: 4c 67 54     	jmp	$5467 <__divdf3+0x1651>
    4038: a9 7f        	lda	#$7f
    403a: a0 f8        	ldy	#$f8
    403c: 64 74        	stz	$74                     ; 0x2074 <parse+0xd4f>
    403e: a2 00        	ldx	#$0
    4040: 64 19        	stz	$19                     ; 0x2019 <parse+0xcf4>
    4042: 64 13        	stz	$13                     ; 0x2013 <parse+0xcee>
    4044: 64 14        	stz	$14                     ; 0x2014 <parse+0xcef>
    4046: 64 15        	stz	$15                     ; 0x2015 <parse+0xcf0>
    4048: 4c 40 57     	jmp	$5740 <__divdf3+0x192a>
    404b: a6 78        	ldx	$78                     ; 0x2078 <parse+0xd53>
    404d: e0 7f        	cpx	#$7f
    404f: d0 21        	bne	$4072 <__divdf3+0x25c>
    4051: a6 73        	ldx	$73                     ; 0x2073 <parse+0xd4e>
    4053: e0 f0        	cpx	#$f0
    4055: d0 1b        	bne	$4072 <__divdf3+0x25c>
    4057: a5 1d        	lda	$1d                     ; 0x201d <parse+0xcf8>
    4059: d0 17        	bne	$4072 <__divdf3+0x25c>
    405b: a5 1c        	lda	$1c                     ; 0x201c <parse+0xcf7>
    405d: d0 13        	bne	$4072 <__divdf3+0x25c>
    405f: a6 81        	ldx	$81                     ; 0x2081 <parse+0xd5c>
    4061: d0 0f        	bne	$4072 <__divdf3+0x25c>
    4063: a6 7f        	ldx	$7f                     ; 0x207f <parse+0xd5a>
    4065: d0 0b        	bne	$4072 <__divdf3+0x25c>
    4067: a5 23        	lda	$23                     ; 0x2023 <parse+0xcfe>
    4069: d0 07        	bne	$4072 <__divdf3+0x25c>
    406b: a5 18        	lda	$18                     ; 0x2018 <parse+0xcf3>
    406d: d0 03        	bne	$4072 <__divdf3+0x25c>
    406f: 4c 09 55     	jmp	$5509 <__divdf3+0x16f3>
    4072: a6 1a        	ldx	$1a                     ; 0x201a <parse+0xcf5>
    4074: 86 83        	stx	$83                     ; 0x2083 <parse+0xd5e>
    4076: a6 15        	ldx	$15                     ; 0x2015 <parse+0xcf0>
    4078: 86 14        	stx	$14                     ; 0x2014 <parse+0xcef>
    407a: 84 17        	sty	$17                     ; 0x2017 <parse+0xcf2>
    407c: a6 15        	ldx	$15                     ; 0x2015 <parse+0xcf0>
    407e: 86 8b        	stx	$8b                     ; 0x208b <parse+0xd66>
    4080: 84 8a        	sty	$8a                     ; 0x208a <parse+0xd65>
    4082: a5 1b        	lda	$1b                     ; 0x201b <parse+0xcf6>
    4084: a4 82        	ldy	$82                     ; 0x2082 <parse+0xd5d>
    4086: 84 15        	sty	$15                     ; 0x2015 <parse+0xcf0>
    4088: a4 80        	ldy	$80                     ; 0x2080 <parse+0xd5b>
    408a: 84 19        	sty	$19                     ; 0x2019 <parse+0xcf4>
    408c: a4 7e        	ldy	$7e                     ; 0x207e <parse+0xd59>
    408e: 84 16        	sty	$16                     ; 0x2016 <parse+0xcf1>
    4090: a6 7d        	ldx	$7d                     ; 0x207d <parse+0xd58>
    4092: 86 1a        	stx	$1a                     ; 0x201a <parse+0xcf5>
    4094: a6 1e        	ldx	$1e                     ; 0x201e <parse+0xcf9>
    4096: d0 1e        	bne	$40b6 <__divdf3+0x2a0>
    4098: aa           	tax
    4099: d0 1b        	bne	$40b6 <__divdf3+0x2a0>
    409b: a5 17        	lda	$17                     ; 0x2017 <parse+0xcf2>
    409d: d0 17        	bne	$40b6 <__divdf3+0x2a0>
    409f: a5 16        	lda	$16                     ; 0x2016 <parse+0xcf1>
    40a1: d0 13        	bne	$40b6 <__divdf3+0x2a0>
    40a3: a5 19        	lda	$19                     ; 0x2019 <parse+0xcf4>
    40a5: d0 0f        	bne	$40b6 <__divdf3+0x2a0>
    40a7: a5 1a        	lda	$1a                     ; 0x201a <parse+0xcf5>
    40a9: d0 0b        	bne	$40b6 <__divdf3+0x2a0>
    40ab: a5 14        	lda	$14                     ; 0x2014 <parse+0xcef>
    40ad: d0 07        	bne	$40b6 <__divdf3+0x2a0>
    40af: a5 15        	lda	$15                     ; 0x2015 <parse+0xcf0>
    40b1: d0 03        	bne	$40b6 <__divdf3+0x2a0>
    40b3: 4c 94 57     	jmp	$5794 <__divdf3+0x197e>
    40b6: a6 1c        	ldx	$1c                     ; 0x201c <parse+0xcf7>
    40b8: 86 15        	stx	$15                     ; 0x2015 <parse+0xcf0>
    40ba: a6 1d        	ldx	$1d                     ; 0x201d <parse+0xcf8>
    40bc: 86 87        	stx	$87                     ; 0x2087 <parse+0xd62>
    40be: a6 1c        	ldx	$1c                     ; 0x201c <parse+0xcf7>
    40c0: 86 91        	stx	$91                     ; 0x2091 <parse+0xd6c>
    40c2: a6 87        	ldx	$87                     ; 0x2087 <parse+0xd62>
    40c4: 86 16        	stx	$16                     ; 0x2016 <parse+0xcf1>
    40c6: a6 18        	ldx	$18                     ; 0x2018 <parse+0xcf3>
    40c8: a5 73        	lda	$73                     ; 0x2073 <parse+0xd4e>
    40ca: a4 78        	ldy	$78                     ; 0x2078 <parse+0xd53>
    40cc: 84 17        	sty	$17                     ; 0x2017 <parse+0xcf2>
    40ce: a4 81        	ldy	$81                     ; 0x2081 <parse+0xd5c>
    40d0: 84 19        	sty	$19                     ; 0x2019 <parse+0xcf4>
    40d2: a4 7f        	ldy	$7f                     ; 0x207f <parse+0xd5a>
    40d4: 84 14        	sty	$14                     ; 0x2014 <parse+0xcef>
    40d6: a4 23        	ldy	$23                     ; 0x2023 <parse+0xcfe>
    40d8: e6 17        	inc	$17                     ; 0x2017 <parse+0xcf2>
    40da: c6 17        	dec	$17                     ; 0x2017 <parse+0xcf2>
    40dc: d0 1d        	bne	$40fb <__divdf3+0x2e5>
    40de: c9 00        	cmp	#$0
    40e0: d0 19        	bne	$40fb <__divdf3+0x2e5>
    40e2: a5 16        	lda	$16                     ; 0x2016 <parse+0xcf1>
    40e4: d0 15        	bne	$40fb <__divdf3+0x2e5>
    40e6: a5 15        	lda	$15                     ; 0x2015 <parse+0xcf0>
    40e8: d0 11        	bne	$40fb <__divdf3+0x2e5>
    40ea: a5 19        	lda	$19                     ; 0x2019 <parse+0xcf4>
    40ec: d0 0d        	bne	$40fb <__divdf3+0x2e5>
    40ee: a5 14        	lda	$14                     ; 0x2014 <parse+0xcef>
    40f0: d0 09        	bne	$40fb <__divdf3+0x2e5>
    40f2: 98           	tya
    40f3: d0 06        	bne	$40fb <__divdf3+0x2e5>
    40f5: 8a           	txa
    40f6: d0 03        	bne	$40fb <__divdf3+0x2e5>
    40f8: 4c 67 54     	jmp	$5467 <__divdf3+0x1651>
    40fb: a5 1e        	lda	$1e                     ; 0x201e <parse+0xcf9>
    40fd: d0 3d        	bne	$413c <__divdf3+0x326>
    40ff: a4 91        	ldy	$91                     ; 0x2091 <parse+0xd6c>
    4101: a5 1b        	lda	$1b                     ; 0x201b <parse+0xcf6>
    4103: c9 10        	cmp	#$10
    4105: f0 03        	beq	$410a <__divdf3+0x2f4>
    4107: 4c 74 41     	jmp	$4174 <__divdf3+0x35e>
    410a: 84 14        	sty	$14                     ; 0x2014 <parse+0xcef>
    410c: a5 7f        	lda	$7f                     ; 0x207f <parse+0xd5a>
    410e: a4 8a        	ldy	$8a                     ; 0x208a <parse+0xd65>
    4110: f0 03        	beq	$4115 <__divdf3+0x2ff>
    4112: 4c 8e 41     	jmp	$418e <__divdf3+0x378>
    4115: a6 23        	ldx	$23                     ; 0x2023 <parse+0xcfe>
    4117: 86 88        	stx	$88                     ; 0x2088 <parse+0xd63>
    4119: a6 7e        	ldx	$7e                     ; 0x207e <parse+0xd59>
    411b: f0 03        	beq	$4120 <__divdf3+0x30a>
    411d: 4c b4 41     	jmp	$41b4 <__divdf3+0x39e>
    4120: a6 80        	ldx	$80                     ; 0x2080 <parse+0xd5b>
    4122: a4 14        	ldy	$14                     ; 0x2014 <parse+0xcef>
    4124: e0 00        	cpx	#$0
    4126: d0 0a        	bne	$4132 <__divdf3+0x31c>
    4128: a6 7d        	ldx	$7d                     ; 0x207d <parse+0xd58>
    412a: d0 06        	bne	$4132 <__divdf3+0x31c>
    412c: a6 8b        	ldx	$8b                     ; 0x208b <parse+0xd66>
    412e: d0 02        	bne	$4132 <__divdf3+0x31c>
    4130: a6 82        	ldx	$82                     ; 0x2082 <parse+0xd5d>
    4132: e0 00        	cpx	#$0
    4134: 90 03        	bcc	$4139 <__divdf3+0x323>
    4136: 4c 98 41     	jmp	$4198 <__divdf3+0x382>
    4139: 4c b8 41     	jmp	$41b8 <__divdf3+0x3a2>
    413c: a5 1e        	lda	$1e                     ; 0x201e <parse+0xcf9>
    413e: 84 88        	sty	$88                     ; 0x2088 <parse+0xd63>
    4140: c9 00        	cmp	#$0
    4142: a5 7f        	lda	$7f                     ; 0x207f <parse+0xd5a>
    4144: a4 91        	ldy	$91                     ; 0x2091 <parse+0xd6c>
    4146: b0 50        	bcs	$4198 <__divdf3+0x382>
    4148: 4c b8 41     	jmp	$41b8 <__divdf3+0x3a2>
    414b: a6 1d        	ldx	$1d                     ; 0x201d <parse+0xcf8>
    414d: e0 00        	cpx	#$0
    414f: b0 03        	bcs	$4154 <__divdf3+0x33e>
    4151: 4c cf 3f     	jmp	$3fcf <__divdf3+0x1b9>
    4154: a5 73        	lda	$73                     ; 0x2073 <parse+0xd4e>
    4156: 09 08        	ora	#$8
    4158: a6 18        	ldx	$18                     ; 0x2018 <parse+0xcf3>
    415a: 86 74        	stx	$74                     ; 0x2074 <parse+0xd4f>
    415c: a6 7f        	ldx	$7f                     ; 0x207f <parse+0xd5a>
    415e: 86 19        	stx	$19                     ; 0x2019 <parse+0xcf4>
    4160: a6 81        	ldx	$81                     ; 0x2081 <parse+0xd5c>
    4162: 86 13        	stx	$13                     ; 0x2013 <parse+0xcee>
    4164: a6 23        	ldx	$23                     ; 0x2023 <parse+0xcfe>
    4166: a4 1c        	ldy	$1c                     ; 0x201c <parse+0xcf7>
    4168: 84 14        	sty	$14                     ; 0x2014 <parse+0xcef>
    416a: a4 1d        	ldy	$1d                     ; 0x201d <parse+0xcf8>
    416c: 84 15        	sty	$15                     ; 0x2015 <parse+0xcf0>
    416e: a8           	tay
    416f: a5 1f        	lda	$1f                     ; 0x201f <parse+0xcfa>
    4171: 4c 40 57     	jmp	$5740 <__divdf3+0x192a>
    4174: a6 23        	ldx	$23                     ; 0x2023 <parse+0xcfe>
    4176: 86 88        	stx	$88                     ; 0x2088 <parse+0xd63>
    4178: c9 10        	cmp	#$10
    417a: a5 7f        	lda	$7f                     ; 0x207f <parse+0xd5a>
    417c: b0 1a        	bcs	$4198 <__divdf3+0x382>
    417e: 80 38        	bra	$41b8 <__divdf3+0x3a2>
    4180: e0 00        	cpx	#$0
    4182: a4 15        	ldy	$15                     ; 0x2015 <parse+0xcf0>
    4184: a6 22        	ldx	$22                     ; 0x2022 <parse+0xcfd>
    4186: b0 03        	bcs	$418b <__divdf3+0x375>
    4188: 4c 4d 3f     	jmp	$3f4d <__divdf3+0x137>
    418b: 4c a1 3f     	jmp	$3fa1 <__divdf3+0x18b>
    418e: a6 23        	ldx	$23                     ; 0x2023 <parse+0xcfe>
    4190: 86 88        	stx	$88                     ; 0x2088 <parse+0xd63>
    4192: c0 00        	cpy	#$0
    4194: 90 22        	bcc	$41b8 <__divdf3+0x3a2>
    4196: a4 14        	ldy	$14                     ; 0x2014 <parse+0xcef>
    4198: 64 17        	stz	$17                     ; 0x2017 <parse+0xcf2>
    419a: 64 14        	stz	$14                     ; 0x2014 <parse+0xcef>
    419c: 64 15        	stz	$15                     ; 0x2015 <parse+0xcf0>
    419e: 4c 8f 46     	jmp	$468f <__divdf3+0x879>
    41a1: a4 19        	ldy	$19                     ; 0x2019 <parse+0xcf4>
    41a3: c0 00        	cpy	#$0
    41a5: a4 15        	ldy	$15                     ; 0x2015 <parse+0xcf0>
    41a7: b0 03        	bcs	$41ac <__divdf3+0x396>
    41a9: 4c 4d 3f     	jmp	$3f4d <__divdf3+0x137>
    41ac: 4c a1 3f     	jmp	$3fa1 <__divdf3+0x18b>
    41af: c0 00        	cpy	#$0
    41b1: 4c 59 57     	jmp	$5759 <__divdf3+0x1943>
    41b4: e0 00        	cpx	#$0
    41b6: b0 de        	bcs	$4196 <__divdf3+0x380>
    41b8: a4 18        	ldy	$18                     ; 0x2018 <parse+0xcf3>
    41ba: 84 89        	sty	$89                     ; 0x2089 <parse+0xd64>
    41bc: a6 13        	ldx	$13                     ; 0x2013 <parse+0xcee>
    41be: 86 8d        	stx	$8d                     ; 0x208d <parse+0xd68>
    41c0: a6 12        	ldx	$12                     ; 0x2012 <parse+0xced>
    41c2: 86 8c        	stx	$8c                     ; 0x208c <parse+0xd67>
    41c4: a6 83        	ldx	$83                     ; 0x2083 <parse+0xd5e>
    41c6: 86 1b        	stx	$1b                     ; 0x201b <parse+0xcf6>
    41c8: 8a           	txa
    41c9: 4a           	lsr
    41ca: 85 12        	sta	$12                     ; 0x2012 <parse+0xced>
    41cc: a6 8a        	ldx	$8a                     ; 0x208a <parse+0xd65>
    41ce: 86 1a        	stx	$1a                     ; 0x201a <parse+0xcf5>
    41d0: 8a           	txa
    41d1: 6a           	ror
    41d2: 85 13        	sta	$13                     ; 0x2013 <parse+0xcee>
    41d4: a6 7e        	ldx	$7e                     ; 0x207e <parse+0xd59>
    41d6: 86 77        	stx	$77                     ; 0x2077 <parse+0xd52>
    41d8: 8a           	txa
    41d9: 6a           	ror
    41da: 85 14        	sta	$14                     ; 0x2014 <parse+0xcef>
    41dc: a6 80        	ldx	$80                     ; 0x2080 <parse+0xd5b>
    41de: 86 76        	stx	$76                     ; 0x2076 <parse+0xd51>
    41e0: 8a           	txa
    41e1: 6a           	ror
    41e2: 85 15        	sta	$15                     ; 0x2015 <parse+0xcf0>
    41e4: a4 7d        	ldy	$7d                     ; 0x207d <parse+0xd58>
    41e6: 98           	tya
    41e7: 6a           	ror
    41e8: 85 16        	sta	$16                     ; 0x2016 <parse+0xcf1>
    41ea: a6 8b        	ldx	$8b                     ; 0x208b <parse+0xd66>
    41ec: 8a           	txa
    41ed: 6a           	ror
    41ee: 85 17        	sta	$17                     ; 0x2017 <parse+0xcf2>
    41f0: a5 82        	lda	$82                     ; 0x2082 <parse+0xd5d>
    41f2: 85 74        	sta	$74                     ; 0x2074 <parse+0xd4f>
    41f4: 6a           	ror
    41f5: 85 18        	sta	$18                     ; 0x2018 <parse+0xcf3>
    41f7: a5 74        	lda	$74                     ; 0x2074 <parse+0xd4f>
    41f9: 05 18        	ora	$18                     ; 0x2018 <parse+0xcf3>
    41fb: 85 1d        	sta	$1d                     ; 0x201d <parse+0xcf8>
    41fd: 8a           	txa
    41fe: 05 17        	ora	$17                     ; 0x2017 <parse+0xcf2>
    4200: 85 1c        	sta	$1c                     ; 0x201c <parse+0xcf7>
    4202: 98           	tya
    4203: 05 16        	ora	$16                     ; 0x2016 <parse+0xcf1>
    4205: 85 22        	sta	$22                     ; 0x2022 <parse+0xcfd>
    4207: a5 76        	lda	$76                     ; 0x2076 <parse+0xd51>
    4209: 05 15        	ora	$15                     ; 0x2015 <parse+0xcf0>
    420b: 85 19        	sta	$19                     ; 0x2019 <parse+0xcf4>
    420d: a5 77        	lda	$77                     ; 0x2077 <parse+0xd52>
    420f: 05 14        	ora	$14                     ; 0x2014 <parse+0xcef>
    4211: 85 1f        	sta	$1f                     ; 0x201f <parse+0xcfa>
    4213: a5 1a        	lda	$1a                     ; 0x201a <parse+0xcf5>
    4215: 05 13        	ora	$13                     ; 0x2013 <parse+0xcee>
    4217: 85 1e        	sta	$1e                     ; 0x201e <parse+0xcf9>
    4219: a5 1b        	lda	$1b                     ; 0x201b <parse+0xcf6>
    421b: 05 12        	ora	$12                     ; 0x2012 <parse+0xced>
    421d: 85 23        	sta	$23                     ; 0x2023 <parse+0xcfe>
    421f: 5a           	phy
    4220: a4 1e        	ldy	$1e                     ; 0x201e <parse+0xcf9>
    4222: 84 12        	sty	$12                     ; 0x2012 <parse+0xced>
    4224: 4a           	lsr
    4225: 66 12        	ror	$12                     ; 0x2012 <parse+0xced>
    4227: a4 1f        	ldy	$1f                     ; 0x201f <parse+0xcfa>
    4229: 84 13        	sty	$13                     ; 0x2013 <parse+0xcee>
    422b: 66 13        	ror	$13                     ; 0x2013 <parse+0xcee>
    422d: a4 19        	ldy	$19                     ; 0x2019 <parse+0xcf4>
    422f: 84 14        	sty	$14                     ; 0x2014 <parse+0xcef>
    4231: 66 14        	ror	$14                     ; 0x2014 <parse+0xcef>
    4233: a4 22        	ldy	$22                     ; 0x2022 <parse+0xcfd>
    4235: 84 15        	sty	$15                     ; 0x2015 <parse+0xcf0>
    4237: 66 15        	ror	$15                     ; 0x2015 <parse+0xcf0>
    4239: a4 1c        	ldy	$1c                     ; 0x201c <parse+0xcf7>
    423b: 84 16        	sty	$16                     ; 0x2016 <parse+0xcf1>
    423d: 66 16        	ror	$16                     ; 0x2016 <parse+0xcf1>
    423f: a4 1d        	ldy	$1d                     ; 0x201d <parse+0xcf8>
    4241: 84 17        	sty	$17                     ; 0x2017 <parse+0xcf2>
    4243: 66 17        	ror	$17                     ; 0x2017 <parse+0xcf2>
    4245: 4a           	lsr
    4246: 66 12        	ror	$12                     ; 0x2012 <parse+0xced>
    4248: 66 13        	ror	$13                     ; 0x2013 <parse+0xcee>
    424a: 66 14        	ror	$14                     ; 0x2014 <parse+0xcef>
    424c: 66 15        	ror	$15                     ; 0x2015 <parse+0xcf0>
    424e: 66 16        	ror	$16                     ; 0x2016 <parse+0xcf1>
    4250: 66 17        	ror	$17                     ; 0x2017 <parse+0xcf2>
    4252: 85 18        	sta	$18                     ; 0x2018 <parse+0xcf3>
    4254: a5 1d        	lda	$1d                     ; 0x201d <parse+0xcf8>
    4256: 05 17        	ora	$17                     ; 0x2017 <parse+0xcf2>
    4258: 85 1d        	sta	$1d                     ; 0x201d <parse+0xcf8>
    425a: a5 1c        	lda	$1c                     ; 0x201c <parse+0xcf7>
    425c: 05 16        	ora	$16                     ; 0x2016 <parse+0xcf1>
    425e: 85 1c        	sta	$1c                     ; 0x201c <parse+0xcf7>
    4260: a5 22        	lda	$22                     ; 0x2022 <parse+0xcfd>
    4262: 05 15        	ora	$15                     ; 0x2015 <parse+0xcf0>
    4264: 85 22        	sta	$22                     ; 0x2022 <parse+0xcfd>
    4266: a5 19        	lda	$19                     ; 0x2019 <parse+0xcf4>
    4268: 05 14        	ora	$14                     ; 0x2014 <parse+0xcef>
    426a: 85 19        	sta	$19                     ; 0x2019 <parse+0xcf4>
    426c: a5 1f        	lda	$1f                     ; 0x201f <parse+0xcfa>
    426e: 05 13        	ora	$13                     ; 0x2013 <parse+0xcee>
    4270: 85 1f        	sta	$1f                     ; 0x201f <parse+0xcfa>
    4272: a5 1e        	lda	$1e                     ; 0x201e <parse+0xcf9>
    4274: 05 12        	ora	$12                     ; 0x2012 <parse+0xced>
    4276: 85 12        	sta	$12                     ; 0x2012 <parse+0xced>
    4278: a5 23        	lda	$23                     ; 0x2023 <parse+0xcfe>
    427a: 05 18        	ora	$18                     ; 0x2018 <parse+0xcf3>
    427c: 85 1e        	sta	$1e                     ; 0x201e <parse+0xcf9>
    427e: 85 18        	sta	$18                     ; 0x2018 <parse+0xcf3>
    4280: a5 12        	lda	$12                     ; 0x2012 <parse+0xced>
    4282: 85 23        	sta	$23                     ; 0x2023 <parse+0xcfe>
    4284: 46 18        	lsr	$18                     ; 0x2018 <parse+0xcf3>
    4286: 66 12        	ror	$12                     ; 0x2012 <parse+0xced>
    4288: a4 1f        	ldy	$1f                     ; 0x201f <parse+0xcfa>
    428a: 84 13        	sty	$13                     ; 0x2013 <parse+0xcee>
    428c: 66 13        	ror	$13                     ; 0x2013 <parse+0xcee>
    428e: a4 19        	ldy	$19                     ; 0x2019 <parse+0xcf4>
    4290: 84 14        	sty	$14                     ; 0x2014 <parse+0xcef>
    4292: 66 14        	ror	$14                     ; 0x2014 <parse+0xcef>
    4294: a4 22        	ldy	$22                     ; 0x2022 <parse+0xcfd>
    4296: 84 15        	sty	$15                     ; 0x2015 <parse+0xcf0>
    4298: 66 15        	ror	$15                     ; 0x2015 <parse+0xcf0>
    429a: a4 1c        	ldy	$1c                     ; 0x201c <parse+0xcf7>
    429c: 84 16        	sty	$16                     ; 0x2016 <parse+0xcf1>
    429e: 66 16        	ror	$16                     ; 0x2016 <parse+0xcf1>
    42a0: a4 1d        	ldy	$1d                     ; 0x201d <parse+0xcf8>
    42a2: 84 17        	sty	$17                     ; 0x2017 <parse+0xcf2>
    42a4: 66 17        	ror	$17                     ; 0x2017 <parse+0xcf2>
    42a6: 46 18        	lsr	$18                     ; 0x2018 <parse+0xcf3>
    42a8: 66 12        	ror	$12                     ; 0x2012 <parse+0xced>
    42aa: 66 13        	ror	$13                     ; 0x2013 <parse+0xcee>
    42ac: 66 14        	ror	$14                     ; 0x2014 <parse+0xcef>
    42ae: 66 15        	ror	$15                     ; 0x2015 <parse+0xcf0>
    42b0: 66 16        	ror	$16                     ; 0x2016 <parse+0xcf1>
    42b2: 66 17        	ror	$17                     ; 0x2017 <parse+0xcf2>
    42b4: 46 18        	lsr	$18                     ; 0x2018 <parse+0xcf3>
    42b6: 66 12        	ror	$12                     ; 0x2012 <parse+0xced>
    42b8: 66 13        	ror	$13                     ; 0x2013 <parse+0xcee>
    42ba: 66 14        	ror	$14                     ; 0x2014 <parse+0xcef>
    42bc: 66 15        	ror	$15                     ; 0x2015 <parse+0xcf0>
    42be: 66 16        	ror	$16                     ; 0x2016 <parse+0xcf1>
    42c0: 66 17        	ror	$17                     ; 0x2017 <parse+0xcf2>
    42c2: 46 18        	lsr	$18                     ; 0x2018 <parse+0xcf3>
    42c4: 66 12        	ror	$12                     ; 0x2012 <parse+0xced>
    42c6: 66 13        	ror	$13                     ; 0x2013 <parse+0xcee>
    42c8: 66 14        	ror	$14                     ; 0x2014 <parse+0xcef>
    42ca: 66 15        	ror	$15                     ; 0x2015 <parse+0xcf0>
    42cc: 66 16        	ror	$16                     ; 0x2016 <parse+0xcf1>
    42ce: 66 17        	ror	$17                     ; 0x2017 <parse+0xcf2>
    42d0: a5 1d        	lda	$1d                     ; 0x201d <parse+0xcf8>
    42d2: 05 17        	ora	$17                     ; 0x2017 <parse+0xcf2>
    42d4: 85 1d        	sta	$1d                     ; 0x201d <parse+0xcf8>
    42d6: a5 1c        	lda	$1c                     ; 0x201c <parse+0xcf7>
    42d8: 05 16        	ora	$16                     ; 0x2016 <parse+0xcf1>
    42da: 85 1c        	sta	$1c                     ; 0x201c <parse+0xcf7>
    42dc: a5 22        	lda	$22                     ; 0x2022 <parse+0xcfd>
    42de: 05 15        	ora	$15                     ; 0x2015 <parse+0xcf0>
    42e0: 85 15        	sta	$15                     ; 0x2015 <parse+0xcf0>
    42e2: a5 19        	lda	$19                     ; 0x2019 <parse+0xcf4>
    42e4: 05 14        	ora	$14                     ; 0x2014 <parse+0xcef>
    42e6: 85 17        	sta	$17                     ; 0x2017 <parse+0xcf2>
    42e8: a5 1f        	lda	$1f                     ; 0x201f <parse+0xcfa>
    42ea: 05 13        	ora	$13                     ; 0x2013 <parse+0xcee>
    42ec: 85 14        	sta	$14                     ; 0x2014 <parse+0xcef>
    42ee: a5 23        	lda	$23                     ; 0x2023 <parse+0xcfe>
    42f0: 05 12        	ora	$12                     ; 0x2012 <parse+0xced>
    42f2: 85 1f        	sta	$1f                     ; 0x201f <parse+0xcfa>
    42f4: a5 1e        	lda	$1e                     ; 0x201e <parse+0xcf9>
    42f6: 05 18        	ora	$18                     ; 0x2018 <parse+0xcf3>
    42f8: 85 18        	sta	$18                     ; 0x2018 <parse+0xcf3>
    42fa: a5 1d        	lda	$1d                     ; 0x201d <parse+0xcf8>
    42fc: 05 1c        	ora	$1c                     ; 0x201c <parse+0xcf7>
    42fe: 85 16        	sta	$16                     ; 0x2016 <parse+0xcf1>
    4300: a5 15        	lda	$15                     ; 0x2015 <parse+0xcf0>
    4302: 85 13        	sta	$13                     ; 0x2013 <parse+0xcee>
    4304: 05 17        	ora	$17                     ; 0x2017 <parse+0xcf2>
    4306: 85 19        	sta	$19                     ; 0x2019 <parse+0xcf4>
    4308: a5 14        	lda	$14                     ; 0x2014 <parse+0xcef>
    430a: 05 1f        	ora	$1f                     ; 0x201f <parse+0xcfa>
    430c: 85 1d        	sta	$1d                     ; 0x201d <parse+0xcf8>
    430e: a5 18        	lda	$18                     ; 0x2018 <parse+0xcf3>
    4310: 85 12        	sta	$12                     ; 0x2012 <parse+0xced>
    4312: 85 1e        	sta	$1e                     ; 0x201e <parse+0xcf9>
    4314: a5 16        	lda	$16                     ; 0x2016 <parse+0xcf1>
    4316: 05 19        	ora	$19                     ; 0x2019 <parse+0xcf4>
    4318: 85 18        	sta	$18                     ; 0x2018 <parse+0xcf3>
    431a: a5 1d        	lda	$1d                     ; 0x201d <parse+0xcf8>
    431c: 85 15        	sta	$15                     ; 0x2015 <parse+0xcf0>
    431e: 05 12        	ora	$12                     ; 0x2012 <parse+0xced>
    4320: 85 16        	sta	$16                     ; 0x2016 <parse+0xcf1>
    4322: 85 22        	sta	$22                     ; 0x2022 <parse+0xcfd>
    4324: a5 18        	lda	$18                     ; 0x2018 <parse+0xcf3>
    4326: 05 16        	ora	$16                     ; 0x2016 <parse+0xcf1>
    4328: 85 1d        	sta	$1d                     ; 0x201d <parse+0xcf8>
    432a: 4a           	lsr
    432b: 29 55        	and	#$55
    432d: 85 16        	sta	$16                     ; 0x2016 <parse+0xcf1>
    432f: a5 1c        	lda	$1c                     ; 0x201c <parse+0xcf7>
    4331: 05 13        	ora	$13                     ; 0x2013 <parse+0xcee>
    4333: 85 18        	sta	$18                     ; 0x2018 <parse+0xcf3>
    4335: a5 17        	lda	$17                     ; 0x2017 <parse+0xcf2>
    4337: 05 14        	ora	$14                     ; 0x2014 <parse+0xcef>
    4339: 85 17        	sta	$17                     ; 0x2017 <parse+0xcf2>
    433b: a5 1f        	lda	$1f                     ; 0x201f <parse+0xcfa>
    433d: 05 12        	ora	$12                     ; 0x2012 <parse+0xced>
    433f: 85 1c        	sta	$1c                     ; 0x201c <parse+0xcf7>
    4341: a5 18        	lda	$18                     ; 0x2018 <parse+0xcf3>
    4343: 05 17        	ora	$17                     ; 0x2017 <parse+0xcf2>
    4345: 85 14        	sta	$14                     ; 0x2014 <parse+0xcef>
    4347: a5 1c        	lda	$1c                     ; 0x201c <parse+0xcf7>
    4349: 85 13        	sta	$13                     ; 0x2013 <parse+0xcee>
    434b: 85 1f        	sta	$1f                     ; 0x201f <parse+0xcfa>
    434d: a5 14        	lda	$14                     ; 0x2014 <parse+0xcef>
    434f: 05 13        	ora	$13                     ; 0x2013 <parse+0xcee>
    4351: 85 1c        	sta	$1c                     ; 0x201c <parse+0xcf7>
    4353: 4a           	lsr
    4354: 29 55        	and	#$55
    4356: 85 14        	sta	$14                     ; 0x2014 <parse+0xcef>
    4358: a5 19        	lda	$19                     ; 0x2019 <parse+0xcf4>
    435a: 05 15        	ora	$15                     ; 0x2015 <parse+0xcf0>
    435c: 05 12        	ora	$12                     ; 0x2012 <parse+0xced>
    435e: 85 23        	sta	$23                     ; 0x2023 <parse+0xcfe>
    4360: 4a           	lsr
    4361: 29 55        	and	#$55
    4363: 85 12        	sta	$12                     ; 0x2012 <parse+0xced>
    4365: a5 17        	lda	$17                     ; 0x2017 <parse+0xcf2>
    4367: 05 13        	ora	$13                     ; 0x2013 <parse+0xcee>
    4369: 85 19        	sta	$19                     ; 0x2019 <parse+0xcf4>
    436b: 4a           	lsr
    436c: 29 55        	and	#$55
    436e: 85 13        	sta	$13                     ; 0x2013 <parse+0xcee>
    4370: a5 22        	lda	$22                     ; 0x2022 <parse+0xcfd>
    4372: 4a           	lsr
    4373: 29 55        	and	#$55
    4375: 85 15        	sta	$15                     ; 0x2015 <parse+0xcf0>
    4377: a5 1f        	lda	$1f                     ; 0x201f <parse+0xcfa>
    4379: 4a           	lsr
    437a: 29 55        	and	#$55
    437c: 85 17        	sta	$17                     ; 0x2017 <parse+0xcf2>
    437e: a5 1e        	lda	$1e                     ; 0x201e <parse+0xcf9>
    4380: 4a           	lsr
    4381: 29 55        	and	#$55
    4383: 85 18        	sta	$18                     ; 0x2018 <parse+0xcf3>
    4385: 38           	sec
    4386: a5 1d        	lda	$1d                     ; 0x201d <parse+0xcf8>
    4388: e5 16        	sbc	$16                     ; 0x2016 <parse+0xcf1>
    438a: 85 1d        	sta	$1d                     ; 0x201d <parse+0xcf8>
    438c: a5 1c        	lda	$1c                     ; 0x201c <parse+0xcf7>
    438e: e5 14        	sbc	$14                     ; 0x2014 <parse+0xcef>
    4390: 85 14        	sta	$14                     ; 0x2014 <parse+0xcef>
    4392: a5 23        	lda	$23                     ; 0x2023 <parse+0xcfe>
    4394: e5 12        	sbc	$12                     ; 0x2012 <parse+0xced>
    4396: 85 1c        	sta	$1c                     ; 0x201c <parse+0xcf7>
    4398: a5 19        	lda	$19                     ; 0x2019 <parse+0xcf4>
    439a: e5 13        	sbc	$13                     ; 0x2013 <parse+0xcee>
    439c: 85 16        	sta	$16                     ; 0x2016 <parse+0xcf1>
    439e: a5 22        	lda	$22                     ; 0x2022 <parse+0xcfd>
    43a0: e5 15        	sbc	$15                     ; 0x2015 <parse+0xcf0>
    43a2: 85 19        	sta	$19                     ; 0x2019 <parse+0xcf4>
    43a4: a5 1f        	lda	$1f                     ; 0x201f <parse+0xcfa>
    43a6: e5 17        	sbc	$17                     ; 0x2017 <parse+0xcf2>
    43a8: 85 17        	sta	$17                     ; 0x2017 <parse+0xcf2>
    43aa: a5 1e        	lda	$1e                     ; 0x201e <parse+0xcf9>
    43ac: e5 18        	sbc	$18                     ; 0x2018 <parse+0xcf3>
    43ae: 85 18        	sta	$18                     ; 0x2018 <parse+0xcf3>
    43b0: a9 00        	lda	#$0
    43b2: e9 00        	sbc	#$0
    43b4: 85 1e        	sta	$1e                     ; 0x201e <parse+0xcf9>
    43b6: a5 1d        	lda	$1d                     ; 0x201d <parse+0xcf8>
    43b8: 29 33        	and	#$33
    43ba: 85 12        	sta	$12                     ; 0x2012 <parse+0xced>
    43bc: a5 14        	lda	$14                     ; 0x2014 <parse+0xcef>
    43be: 85 75        	sta	$75                     ; 0x2075 <parse+0xd50>
    43c0: 29 33        	and	#$33
    43c2: 85 13        	sta	$13                     ; 0x2013 <parse+0xcee>
    43c4: a5 1c        	lda	$1c                     ; 0x201c <parse+0xcf7>
    43c6: 85 71        	sta	$71                     ; 0x2071 <parse+0xd4c>
    43c8: 29 33        	and	#$33
    43ca: 85 14        	sta	$14                     ; 0x2014 <parse+0xcef>
    43cc: a4 16        	ldy	$16                     ; 0x2016 <parse+0xcf1>
    43ce: 84 23        	sty	$23                     ; 0x2023 <parse+0xcfe>
    43d0: a5 16        	lda	$16                     ; 0x2016 <parse+0xcf1>
    43d2: 29 33        	and	#$33
    43d4: 85 15        	sta	$15                     ; 0x2015 <parse+0xcf0>
    43d6: a5 19        	lda	$19                     ; 0x2019 <parse+0xcf4>
    43d8: 85 1c        	sta	$1c                     ; 0x201c <parse+0xcf7>
    43da: 29 33        	and	#$33
    43dc: 85 16        	sta	$16                     ; 0x2016 <parse+0xcf1>
    43de: a5 17        	lda	$17                     ; 0x2017 <parse+0xcf2>
    43e0: 85 1f        	sta	$1f                     ; 0x201f <parse+0xcfa>
    43e2: 29 33        	and	#$33
    43e4: 85 17        	sta	$17                     ; 0x2017 <parse+0xcf2>
    43e6: a5 18        	lda	$18                     ; 0x2018 <parse+0xcf3>
    43e8: 85 22        	sta	$22                     ; 0x2022 <parse+0xcfd>
    43ea: 29 33        	and	#$33
    43ec: 85 18        	sta	$18                     ; 0x2018 <parse+0xcf3>
    43ee: a5 1e        	lda	$1e                     ; 0x201e <parse+0xcf9>
    43f0: 29 33        	and	#$33
    43f2: 85 19        	sta	$19                     ; 0x2019 <parse+0xcf4>
    43f4: a5 1d        	lda	$1d                     ; 0x201d <parse+0xcf8>
    43f6: 4a           	lsr
    43f7: 4a           	lsr
    43f8: 29 33        	and	#$33
    43fa: 18           	clc
    43fb: 65 12        	adc	$12                     ; 0x2012 <parse+0xced>
    43fd: a0 01        	ldy	#$1
    43ff: b0 02        	bcs	$4403 <__divdf3+0x5ed>
    4401: a0 00        	ldy	#$0
    4403: 84 1d        	sty	$1d                     ; 0x201d <parse+0xcf8>
    4405: 85 12        	sta	$12                     ; 0x2012 <parse+0xced>
    4407: a5 75        	lda	$75                     ; 0x2075 <parse+0xd50>
    4409: 4a           	lsr
    440a: 4a           	lsr
    440b: 29 33        	and	#$33
    440d: a4 1d        	ldy	$1d                     ; 0x201d <parse+0xcf8>
    440f: c0 01        	cpy	#$1
    4411: 65 13        	adc	$13                     ; 0x2013 <parse+0xcee>
    4413: a0 01        	ldy	#$1
    4415: b0 02        	bcs	$4419 <__divdf3+0x603>
    4417: a0 00        	ldy	#$0
    4419: 84 1d        	sty	$1d                     ; 0x201d <parse+0xcf8>
    441b: 85 13        	sta	$13                     ; 0x2013 <parse+0xcee>
    441d: a5 71        	lda	$71                     ; 0x2071 <parse+0xd4c>
    441f: 4a           	lsr
    4420: 4a           	lsr
    4421: 29 33        	and	#$33
    4423: a4 1d        	ldy	$1d                     ; 0x201d <parse+0xcf8>
    4425: c0 01        	cpy	#$1
    4427: 65 14        	adc	$14                     ; 0x2014 <parse+0xcef>
    4429: a0 01        	ldy	#$1
    442b: b0 02        	bcs	$442f <__divdf3+0x619>
    442d: a0 00        	ldy	#$0
    442f: 84 1d        	sty	$1d                     ; 0x201d <parse+0xcf8>
    4431: 85 14        	sta	$14                     ; 0x2014 <parse+0xcef>
    4433: a5 23        	lda	$23                     ; 0x2023 <parse+0xcfe>
    4435: 4a           	lsr
    4436: 4a           	lsr
    4437: 29 33        	and	#$33
    4439: a4 1d        	ldy	$1d                     ; 0x201d <parse+0xcf8>
    443b: c0 01        	cpy	#$1
    443d: 65 15        	adc	$15                     ; 0x2015 <parse+0xcf0>
    443f: 2c de 5a     	bit	$5ade                   ; 0x5ade <__set_v>
    4442: b0 01        	bcs	$4445 <__divdf3+0x62f>
    4444: b8           	clv
    4445: 85 15        	sta	$15                     ; 0x2015 <parse+0xcf0>
    4447: a5 1e        	lda	$1e                     ; 0x201e <parse+0xcf9>
    4449: 4a           	lsr
    444a: 85 23        	sta	$23                     ; 0x2023 <parse+0xcfe>
    444c: a5 22        	lda	$22                     ; 0x2022 <parse+0xcfd>
    444e: 4a           	lsr
    444f: 85 1e        	sta	$1e                     ; 0x201e <parse+0xcf9>
    4451: a5 1f        	lda	$1f                     ; 0x201f <parse+0xcfa>
    4453: 4a           	lsr
    4454: 85 1d        	sta	$1d                     ; 0x201d <parse+0xcf8>
    4456: a5 1c        	lda	$1c                     ; 0x201c <parse+0xcf7>
    4458: 4a           	lsr
    4459: a4 23        	ldy	$23                     ; 0x2023 <parse+0xcfe>
    445b: 84 1f        	sty	$1f                     ; 0x201f <parse+0xcfa>
    445d: 46 1f        	lsr	$1f                     ; 0x201f <parse+0xcfa>
    445f: 46 1e        	lsr	$1e                     ; 0x201e <parse+0xcf9>
    4461: a4 1d        	ldy	$1d                     ; 0x201d <parse+0xcf8>
    4463: 84 1c        	sty	$1c                     ; 0x201c <parse+0xcf7>
    4465: 46 1c        	lsr	$1c                     ; 0x201c <parse+0xcf7>
    4467: 4a           	lsr
    4468: 29 33        	and	#$33
    446a: 85 22        	sta	$22                     ; 0x2022 <parse+0xcfd>
    446c: a5 1c        	lda	$1c                     ; 0x201c <parse+0xcf7>
    446e: 29 33        	and	#$33
    4470: 85 1c        	sta	$1c                     ; 0x201c <parse+0xcf7>
    4472: a5 1e        	lda	$1e                     ; 0x201e <parse+0xcf9>
    4474: 29 33        	and	#$33
    4476: 85 1d        	sta	$1d                     ; 0x201d <parse+0xcf8>
    4478: a5 1f        	lda	$1f                     ; 0x201f <parse+0xcfa>
    447a: 29 33        	and	#$33
    447c: 85 1e        	sta	$1e                     ; 0x201e <parse+0xcf9>
    447e: 38           	sec
    447f: 70 01        	bvs	$4482 <__divdf3+0x66c>
    4481: 18           	clc
    4482: a5 22        	lda	$22                     ; 0x2022 <parse+0xcfd>
    4484: 65 16        	adc	$16                     ; 0x2016 <parse+0xcf1>
    4486: 85 16        	sta	$16                     ; 0x2016 <parse+0xcf1>
    4488: a5 1c        	lda	$1c                     ; 0x201c <parse+0xcf7>
    448a: 65 17        	adc	$17                     ; 0x2017 <parse+0xcf2>
    448c: 85 17        	sta	$17                     ; 0x2017 <parse+0xcf2>
    448e: a5 1d        	lda	$1d                     ; 0x201d <parse+0xcf8>
    4490: 65 18        	adc	$18                     ; 0x2018 <parse+0xcf3>
    4492: 85 18        	sta	$18                     ; 0x2018 <parse+0xcf3>
    4494: a5 1e        	lda	$1e                     ; 0x201e <parse+0xcf9>
    4496: 65 19        	adc	$19                     ; 0x2019 <parse+0xcf4>
    4498: 85 19        	sta	$19                     ; 0x2019 <parse+0xcf4>
    449a: 4a           	lsr
    449b: 85 1c        	sta	$1c                     ; 0x201c <parse+0xcf7>
    449d: a5 18        	lda	$18                     ; 0x2018 <parse+0xcf3>
    449f: 6a           	ror
    44a0: a4 17        	ldy	$17                     ; 0x2017 <parse+0xcf2>
    44a2: 84 1d        	sty	$1d                     ; 0x201d <parse+0xcf8>
    44a4: 66 1d        	ror	$1d                     ; 0x201d <parse+0xcf8>
    44a6: a4 16        	ldy	$16                     ; 0x2016 <parse+0xcf1>
    44a8: 84 1e        	sty	$1e                     ; 0x201e <parse+0xcf9>
    44aa: 66 1e        	ror	$1e                     ; 0x201e <parse+0xcf9>
    44ac: a4 15        	ldy	$15                     ; 0x2015 <parse+0xcf0>
    44ae: 84 1f        	sty	$1f                     ; 0x201f <parse+0xcfa>
    44b0: 66 1f        	ror	$1f                     ; 0x201f <parse+0xcfa>
    44b2: a4 14        	ldy	$14                     ; 0x2014 <parse+0xcef>
    44b4: 84 22        	sty	$22                     ; 0x2022 <parse+0xcfd>
    44b6: 66 22        	ror	$22                     ; 0x2022 <parse+0xcfd>
    44b8: a4 13        	ldy	$13                     ; 0x2013 <parse+0xcee>
    44ba: 84 71        	sty	$71                     ; 0x2071 <parse+0xd4c>
    44bc: 66 71        	ror	$71                     ; 0x2071 <parse+0xd4c>
    44be: a4 12        	ldy	$12                     ; 0x2012 <parse+0xced>
    44c0: 84 23        	sty	$23                     ; 0x2023 <parse+0xcfe>
    44c2: 66 23        	ror	$23                     ; 0x2023 <parse+0xcfe>
    44c4: a4 23        	ldy	$23                     ; 0x2023 <parse+0xcfe>
    44c6: 84 75        	sty	$75                     ; 0x2075 <parse+0xd50>
    44c8: 46 1c        	lsr	$1c                     ; 0x201c <parse+0xcf7>
    44ca: 6a           	ror
    44cb: 85 23        	sta	$23                     ; 0x2023 <parse+0xcfe>
    44cd: a5 1d        	lda	$1d                     ; 0x201d <parse+0xcf8>
    44cf: 6a           	ror
    44d0: 66 1e        	ror	$1e                     ; 0x201e <parse+0xcf9>
    44d2: 66 1f        	ror	$1f                     ; 0x201f <parse+0xcfa>
    44d4: a4 22        	ldy	$22                     ; 0x2022 <parse+0xcfd>
    44d6: 84 1d        	sty	$1d                     ; 0x201d <parse+0xcf8>
    44d8: 66 1d        	ror	$1d                     ; 0x201d <parse+0xcf8>
    44da: 66 71        	ror	$71                     ; 0x2071 <parse+0xd4c>
    44dc: 66 75        	ror	$75                     ; 0x2075 <parse+0xd50>
    44de: 46 1c        	lsr	$1c                     ; 0x201c <parse+0xcf7>
    44e0: a4 23        	ldy	$23                     ; 0x2023 <parse+0xcfe>
    44e2: 84 22        	sty	$22                     ; 0x2022 <parse+0xcfd>
    44e4: 66 22        	ror	$22                     ; 0x2022 <parse+0xcfd>
    44e6: 6a           	ror
    44e7: 85 79        	sta	$79                     ; 0x2079 <parse+0xd54>
    44e9: a5 1e        	lda	$1e                     ; 0x201e <parse+0xcf9>
    44eb: 6a           	ror
    44ec: 66 1f        	ror	$1f                     ; 0x201f <parse+0xcfa>
    44ee: 66 1d        	ror	$1d                     ; 0x201d <parse+0xcf8>
    44f0: 66 71        	ror	$71                     ; 0x2071 <parse+0xd4c>
    44f2: a4 75        	ldy	$75                     ; 0x2075 <parse+0xd50>
    44f4: 84 23        	sty	$23                     ; 0x2023 <parse+0xcfe>
    44f6: 66 23        	ror	$23                     ; 0x2023 <parse+0xcfe>
    44f8: 46 1c        	lsr	$1c                     ; 0x201c <parse+0xcf7>
    44fa: a4 22        	ldy	$22                     ; 0x2022 <parse+0xcfd>
    44fc: 84 1e        	sty	$1e                     ; 0x201e <parse+0xcf9>
    44fe: 66 1e        	ror	$1e                     ; 0x201e <parse+0xcf9>
    4500: a4 79        	ldy	$79                     ; 0x2079 <parse+0xd54>
    4502: 84 22        	sty	$22                     ; 0x2022 <parse+0xcfd>
    4504: 66 22        	ror	$22                     ; 0x2022 <parse+0xcfd>
    4506: 6a           	ror
    4507: 85 75        	sta	$75                     ; 0x2075 <parse+0xd50>
    4509: a4 1f        	ldy	$1f                     ; 0x201f <parse+0xcfa>
    450b: 84 79        	sty	$79                     ; 0x2079 <parse+0xd54>
    450d: 66 79        	ror	$79                     ; 0x2079 <parse+0xd54>
    450f: 66 1d        	ror	$1d                     ; 0x201d <parse+0xcf8>
    4511: 66 71        	ror	$71                     ; 0x2071 <parse+0xd4c>
    4513: a5 23        	lda	$23                     ; 0x2023 <parse+0xcfe>
    4515: 6a           	ror
    4516: 18           	clc
    4517: 65 12        	adc	$12                     ; 0x2012 <parse+0xced>
    4519: 85 12        	sta	$12                     ; 0x2012 <parse+0xced>
    451b: a5 71        	lda	$71                     ; 0x2071 <parse+0xd4c>
    451d: 65 13        	adc	$13                     ; 0x2013 <parse+0xcee>
    451f: 85 13        	sta	$13                     ; 0x2013 <parse+0xcee>
    4521: a5 1d        	lda	$1d                     ; 0x201d <parse+0xcf8>
    4523: 65 14        	adc	$14                     ; 0x2014 <parse+0xcef>
    4525: 85 14        	sta	$14                     ; 0x2014 <parse+0xcef>
    4527: a5 79        	lda	$79                     ; 0x2079 <parse+0xd54>
    4529: 65 15        	adc	$15                     ; 0x2015 <parse+0xcf0>
    452b: 85 15        	sta	$15                     ; 0x2015 <parse+0xcf0>
    452d: a5 75        	lda	$75                     ; 0x2075 <parse+0xd50>
    452f: 65 16        	adc	$16                     ; 0x2016 <parse+0xcf1>
    4531: 85 16        	sta	$16                     ; 0x2016 <parse+0xcf1>
    4533: a5 22        	lda	$22                     ; 0x2022 <parse+0xcfd>
    4535: 65 17        	adc	$17                     ; 0x2017 <parse+0xcf2>
    4537: 85 17        	sta	$17                     ; 0x2017 <parse+0xcf2>
    4539: a5 1e        	lda	$1e                     ; 0x201e <parse+0xcf9>
    453b: 65 18        	adc	$18                     ; 0x2018 <parse+0xcf3>
    453d: 85 18        	sta	$18                     ; 0x2018 <parse+0xcf3>
    453f: a5 1c        	lda	$1c                     ; 0x201c <parse+0xcf7>
    4541: 65 19        	adc	$19                     ; 0x2019 <parse+0xcf4>
    4543: 85 19        	sta	$19                     ; 0x2019 <parse+0xcf4>
    4545: a5 12        	lda	$12                     ; 0x2012 <parse+0xced>
    4547: 29 0f        	and	#$f
    4549: 85 12        	sta	$12                     ; 0x2012 <parse+0xced>
    454b: 85 23        	sta	$23                     ; 0x2023 <parse+0xcfe>
    454d: a5 13        	lda	$13                     ; 0x2013 <parse+0xcee>
    454f: 29 0f        	and	#$f
    4551: 85 13        	sta	$13                     ; 0x2013 <parse+0xcee>
    4553: 85 22        	sta	$22                     ; 0x2022 <parse+0xcfd>
    4555: a5 14        	lda	$14                     ; 0x2014 <parse+0xcef>
    4557: 29 0f        	and	#$f
    4559: 85 14        	sta	$14                     ; 0x2014 <parse+0xcef>
    455b: 85 1f        	sta	$1f                     ; 0x201f <parse+0xcfa>
    455d: a5 15        	lda	$15                     ; 0x2015 <parse+0xcf0>
    455f: 29 0f        	and	#$f
    4561: 85 15        	sta	$15                     ; 0x2015 <parse+0xcf0>
    4563: 85 1e        	sta	$1e                     ; 0x201e <parse+0xcf9>
    4565: a5 16        	lda	$16                     ; 0x2016 <parse+0xcf1>
    4567: 29 0f        	and	#$f
    4569: 85 16        	sta	$16                     ; 0x2016 <parse+0xcf1>
    456b: 85 71        	sta	$71                     ; 0x2071 <parse+0xd4c>
    456d: a5 17        	lda	$17                     ; 0x2017 <parse+0xcf2>
    456f: 29 0f        	and	#$f
    4571: 85 17        	sta	$17                     ; 0x2017 <parse+0xcf2>
    4573: 85 1c        	sta	$1c                     ; 0x201c <parse+0xcf7>
    4575: a5 18        	lda	$18                     ; 0x2018 <parse+0xcf3>
    4577: 29 0f        	and	#$f
    4579: 85 18        	sta	$18                     ; 0x2018 <parse+0xcf3>
    457b: 85 1d        	sta	$1d                     ; 0x201d <parse+0xcf8>
    457d: a5 19        	lda	$19                     ; 0x2019 <parse+0xcf4>
    457f: 29 0f        	and	#$f
    4581: 85 19        	sta	$19                     ; 0x2019 <parse+0xcf4>
    4583: 18           	clc
    4584: a5 23        	lda	$23                     ; 0x2023 <parse+0xcfe>
    4586: 69 00        	adc	#$0
    4588: 85 23        	sta	$23                     ; 0x2023 <parse+0xcfe>
    458a: a5 22        	lda	$22                     ; 0x2022 <parse+0xcfd>
    458c: 65 12        	adc	$12                     ; 0x2012 <parse+0xced>
    458e: 85 22        	sta	$22                     ; 0x2022 <parse+0xcfd>
    4590: a5 1f        	lda	$1f                     ; 0x201f <parse+0xcfa>
    4592: 65 13        	adc	$13                     ; 0x2013 <parse+0xcee>
    4594: 85 1f        	sta	$1f                     ; 0x201f <parse+0xcfa>
    4596: a5 1e        	lda	$1e                     ; 0x201e <parse+0xcf9>
    4598: 65 14        	adc	$14                     ; 0x2014 <parse+0xcef>
    459a: 85 1e        	sta	$1e                     ; 0x201e <parse+0xcf9>
    459c: a5 71        	lda	$71                     ; 0x2071 <parse+0xd4c>
    459e: 65 15        	adc	$15                     ; 0x2015 <parse+0xcf0>
    45a0: 85 71        	sta	$71                     ; 0x2071 <parse+0xd4c>
    45a2: a5 1c        	lda	$1c                     ; 0x201c <parse+0xcf7>
    45a4: 65 16        	adc	$16                     ; 0x2016 <parse+0xcf1>
    45a6: 85 1c        	sta	$1c                     ; 0x201c <parse+0xcf7>
    45a8: a5 1d        	lda	$1d                     ; 0x201d <parse+0xcf8>
    45aa: 65 17        	adc	$17                     ; 0x2017 <parse+0xcf2>
    45ac: 85 1d        	sta	$1d                     ; 0x201d <parse+0xcf8>
    45ae: a5 19        	lda	$19                     ; 0x2019 <parse+0xcf4>
    45b0: 65 18        	adc	$18                     ; 0x2018 <parse+0xcf3>
    45b2: 85 18        	sta	$18                     ; 0x2018 <parse+0xcf3>
    45b4: a5 23        	lda	$23                     ; 0x2023 <parse+0xcfe>
    45b6: 85 12        	sta	$12                     ; 0x2012 <parse+0xced>
    45b8: a4 22        	ldy	$22                     ; 0x2022 <parse+0xcfd>
    45ba: 84 13        	sty	$13                     ; 0x2013 <parse+0xcee>
    45bc: a4 1f        	ldy	$1f                     ; 0x201f <parse+0xcfa>
    45be: 84 14        	sty	$14                     ; 0x2014 <parse+0xcef>
    45c0: a4 1e        	ldy	$1e                     ; 0x201e <parse+0xcf9>
    45c2: 84 15        	sty	$15                     ; 0x2015 <parse+0xcf0>
    45c4: a4 71        	ldy	$71                     ; 0x2071 <parse+0xd4c>
    45c6: 84 19        	sty	$19                     ; 0x2019 <parse+0xcf4>
    45c8: a4 71        	ldy	$71                     ; 0x2071 <parse+0xd4c>
    45ca: 84 16        	sty	$16                     ; 0x2016 <parse+0xcf1>
    45cc: a4 1c        	ldy	$1c                     ; 0x201c <parse+0xcf7>
    45ce: 84 17        	sty	$17                     ; 0x2017 <parse+0xcf2>
    45d0: 7a           	ply
    45d1: 18           	clc
    45d2: 69 00        	adc	#$0
    45d4: 85 71        	sta	$71                     ; 0x2071 <parse+0xd4c>
    45d6: a5 22        	lda	$22                     ; 0x2022 <parse+0xcfd>
    45d8: 69 00        	adc	#$0
    45da: 85 22        	sta	$22                     ; 0x2022 <parse+0xcfd>
    45dc: a5 1f        	lda	$1f                     ; 0x201f <parse+0xcfa>
    45de: 65 12        	adc	$12                     ; 0x2012 <parse+0xced>
    45e0: 85 1f        	sta	$1f                     ; 0x201f <parse+0xcfa>
    45e2: a5 1e        	lda	$1e                     ; 0x201e <parse+0xcf9>
    45e4: 65 13        	adc	$13                     ; 0x2013 <parse+0xcee>
    45e6: 85 1e        	sta	$1e                     ; 0x201e <parse+0xcf9>
    45e8: a5 19        	lda	$19                     ; 0x2019 <parse+0xcf4>
    45ea: 65 14        	adc	$14                     ; 0x2014 <parse+0xcef>
    45ec: 85 23        	sta	$23                     ; 0x2023 <parse+0xcfe>
    45ee: a5 1c        	lda	$1c                     ; 0x201c <parse+0xcf7>
    45f0: 65 15        	adc	$15                     ; 0x2015 <parse+0xcf0>
    45f2: 85 19        	sta	$19                     ; 0x2019 <parse+0xcf4>
    45f4: a5 1d        	lda	$1d                     ; 0x201d <parse+0xcf8>
    45f6: 65 16        	adc	$16                     ; 0x2016 <parse+0xcf1>
    45f8: 85 1c        	sta	$1c                     ; 0x201c <parse+0xcf7>
    45fa: a5 18        	lda	$18                     ; 0x2018 <parse+0xcf3>
    45fc: 65 17        	adc	$17                     ; 0x2017 <parse+0xcf2>
    45fe: 85 16        	sta	$16                     ; 0x2016 <parse+0xcf1>
    4600: a5 71        	lda	$71                     ; 0x2071 <parse+0xd4c>
    4602: 85 12        	sta	$12                     ; 0x2012 <parse+0xced>
    4604: 18           	clc
    4605: 69 00        	adc	#$0
    4607: a5 22        	lda	$22                     ; 0x2022 <parse+0xcfd>
    4609: 85 13        	sta	$13                     ; 0x2013 <parse+0xcee>
    460b: 69 00        	adc	#$0
    460d: a5 1f        	lda	$1f                     ; 0x201f <parse+0xcfa>
    460f: 85 14        	sta	$14                     ; 0x2014 <parse+0xcef>
    4611: 69 00        	adc	#$0
    4613: a5 1e        	lda	$1e                     ; 0x201e <parse+0xcf9>
    4615: 85 15        	sta	$15                     ; 0x2015 <parse+0xcf0>
    4617: 69 00        	adc	#$0
    4619: a5 23        	lda	$23                     ; 0x2023 <parse+0xcfe>
    461b: 65 12        	adc	$12                     ; 0x2012 <parse+0xced>
    461d: a5 19        	lda	$19                     ; 0x2019 <parse+0xcf4>
    461f: 65 13        	adc	$13                     ; 0x2013 <parse+0xcee>
    4621: a5 1c        	lda	$1c                     ; 0x201c <parse+0xcf7>
    4623: 65 14        	adc	$14                     ; 0x2014 <parse+0xcef>
    4625: a5 16        	lda	$16                     ; 0x2016 <parse+0xcf1>
    4627: 65 15        	adc	$15                     ; 0x2015 <parse+0xcf0>
    4629: 85 12        	sta	$12                     ; 0x2012 <parse+0xced>
    462b: a9 40        	lda	#$40
    462d: 38           	sec
    462e: e5 12        	sbc	$12                     ; 0x2012 <parse+0xced>
    4630: 85 12        	sta	$12                     ; 0x2012 <parse+0xced>
    4632: a9 00        	lda	#$0
    4634: e9 00        	sbc	#$0
    4636: 85 71        	sta	$71                     ; 0x2071 <parse+0xd4c>
    4638: 64 17        	stz	$17                     ; 0x2017 <parse+0xcf2>
    463a: a5 12        	lda	$12                     ; 0x2012 <parse+0xced>
    463c: 85 75        	sta	$75                     ; 0x2075 <parse+0xd50>
    463e: 18           	clc
    463f: 69 f5        	adc	#$f5
    4641: 85 18        	sta	$18                     ; 0x2018 <parse+0xcf3>
    4643: 84 12        	sty	$12                     ; 0x2012 <parse+0xced>
    4645: a4 76        	ldy	$76                     ; 0x2076 <parse+0xd51>
    4647: 84 13        	sty	$13                     ; 0x2013 <parse+0xcee>
    4649: a4 77        	ldy	$77                     ; 0x2077 <parse+0xd52>
    464b: 84 14        	sty	$14                     ; 0x2014 <parse+0xcef>
    464d: a4 1a        	ldy	$1a                     ; 0x201a <parse+0xcf5>
    464f: 84 15        	sty	$15                     ; 0x2015 <parse+0xcf0>
    4651: a4 1b        	ldy	$1b                     ; 0x201b <parse+0xcf6>
    4653: 84 16        	sty	$16                     ; 0x2016 <parse+0xcf1>
    4655: a5 74        	lda	$74                     ; 0x2074 <parse+0xd4f>
    4657: 20 01 3b     	jsr	$3b01 <__ashldi3>
    465a: 85 82        	sta	$82                     ; 0x2082 <parse+0xd5d>
    465c: 86 8b        	stx	$8b                     ; 0x208b <parse+0xd66>
    465e: a6 12        	ldx	$12                     ; 0x2012 <parse+0xced>
    4660: 86 7d        	stx	$7d                     ; 0x207d <parse+0xd58>
    4662: a6 13        	ldx	$13                     ; 0x2013 <parse+0xcee>
    4664: 86 80        	stx	$80                     ; 0x2080 <parse+0xd5b>
    4666: a6 14        	ldx	$14                     ; 0x2014 <parse+0xcef>
    4668: 86 7e        	stx	$7e                     ; 0x207e <parse+0xd59>
    466a: a6 15        	ldx	$15                     ; 0x2015 <parse+0xcf0>
    466c: 86 8a        	stx	$8a                     ; 0x208a <parse+0xd65>
    466e: a6 16        	ldx	$16                     ; 0x2016 <parse+0xcf1>
    4670: 86 83        	stx	$83                     ; 0x2083 <parse+0xd5e>
    4672: a9 0c        	lda	#$c
    4674: 38           	sec
    4675: e5 75        	sbc	$75                     ; 0x2075 <parse+0xd50>
    4677: 85 14        	sta	$14                     ; 0x2014 <parse+0xcef>
    4679: a9 00        	lda	#$0
    467b: e5 71        	sbc	$71                     ; 0x2071 <parse+0xd4c>
    467d: 85 15        	sta	$15                     ; 0x2015 <parse+0xcf0>
    467f: a6 8c        	ldx	$8c                     ; 0x208c <parse+0xd67>
    4681: 86 12        	stx	$12                     ; 0x2012 <parse+0xced>
    4683: a6 8d        	ldx	$8d                     ; 0x208d <parse+0xd68>
    4685: 86 13        	stx	$13                     ; 0x2013 <parse+0xcee>
    4687: a4 89        	ldy	$89                     ; 0x2089 <parse+0xd64>
    4689: 84 18        	sty	$18                     ; 0x2018 <parse+0xcf3>
    468b: a5 7f        	lda	$7f                     ; 0x207f <parse+0xd5a>
    468d: a4 91        	ldy	$91                     ; 0x2091 <parse+0xd6c>
    468f: a6 78        	ldx	$78                     ; 0x2078 <parse+0xd53>
    4691: d0 31        	bne	$46c4 <__divdf3+0x8ae>
    4693: a6 73        	ldx	$73                     ; 0x2073 <parse+0xd4e>
    4695: e0 10        	cpx	#$10
    4697: d0 3c        	bne	$46d5 <__divdf3+0x8bf>
    4699: a6 87        	ldx	$87                     ; 0x2087 <parse+0xd62>
    469b: d0 29        	bne	$46c6 <__divdf3+0x8b0>
    469d: a6 88        	ldx	$88                     ; 0x2088 <parse+0xd63>
    469f: c0 00        	cpy	#$0
    46a1: f0 03        	beq	$46a6 <__divdf3+0x890>
    46a3: 4c 97 53     	jmp	$5397 <__divdf3+0x1581>
    46a6: 86 19        	stx	$19                     ; 0x2019 <parse+0xcf4>
    46a8: a6 81        	ldx	$81                     ; 0x2081 <parse+0xd5c>
    46aa: f0 03        	beq	$46af <__divdf3+0x899>
    46ac: 4c 67 57     	jmp	$5767 <__divdf3+0x1951>
    46af: a6 19        	ldx	$19                     ; 0x2019 <parse+0xcf4>
    46b1: c9 00        	cmp	#$0
    46b3: f0 03        	beq	$46b8 <__divdf3+0x8a2>
    46b5: 4c 6a 57     	jmp	$576a <__divdf3+0x1954>
    46b8: 8a           	txa
    46b9: f0 03        	beq	$46be <__divdf3+0x8a8>
    46bb: 4c 8a 57     	jmp	$578a <__divdf3+0x1974>
    46be: 86 88        	stx	$88                     ; 0x2088 <parse+0xd63>
    46c0: a6 18        	ldx	$18                     ; 0x2018 <parse+0xcf3>
    46c2: 80 02        	bra	$46c6 <__divdf3+0x8b0>
    46c4: a6 78        	ldx	$78                     ; 0x2078 <parse+0xd53>
    46c6: e0 00        	cpx	#$0
    46c8: 90 0f        	bcc	$46d9 <__divdf3+0x8c3>
    46ca: a6 17        	ldx	$17                     ; 0x2017 <parse+0xcf2>
    46cc: 86 93        	stx	$93                     ; 0x2093 <parse+0xd6e>
    46ce: a2 00        	ldx	#$0
    46d0: 86 92        	stx	$92                     ; 0x2092 <parse+0xd6d>
    46d2: 4c c1 4b     	jmp	$4bc1 <__divdf3+0xdab>
    46d5: e0 10        	cpx	#$10
    46d7: b0 f1        	bcs	$46ca <__divdf3+0x8b4>
    46d9: a6 15        	ldx	$15                     ; 0x2015 <parse+0xcf0>
    46db: 86 89        	stx	$89                     ; 0x2089 <parse+0xd64>
    46dd: a6 14        	ldx	$14                     ; 0x2014 <parse+0xcef>
    46df: 86 8e        	stx	$8e                     ; 0x208e <parse+0xd69>
    46e1: a6 13        	ldx	$13                     ; 0x2013 <parse+0xcee>
    46e3: 86 8d        	stx	$8d                     ; 0x208d <parse+0xd68>
    46e5: a6 12        	ldx	$12                     ; 0x2012 <parse+0xced>
    46e7: 86 8c        	stx	$8c                     ; 0x208c <parse+0xd67>
    46e9: a6 17        	ldx	$17                     ; 0x2017 <parse+0xcf2>
    46eb: 86 93        	stx	$93                     ; 0x2093 <parse+0xd6e>
    46ed: a6 72        	ldx	$72                     ; 0x2072 <parse+0xd4d>
    46ef: 86 1b        	stx	$1b                     ; 0x201b <parse+0xcf6>
    46f1: a5 72        	lda	$72                     ; 0x2072 <parse+0xd4d>
    46f3: 4a           	lsr
    46f4: 85 12        	sta	$12                     ; 0x2012 <parse+0xced>
    46f6: a6 87        	ldx	$87                     ; 0x2087 <parse+0xd62>
    46f8: 86 1a        	stx	$1a                     ; 0x201a <parse+0xcf5>
    46fa: 8a           	txa
    46fb: 6a           	ror
    46fc: 85 13        	sta	$13                     ; 0x2013 <parse+0xcee>
    46fe: 98           	tya
    46ff: 6a           	ror
    4700: 85 14        	sta	$14                     ; 0x2014 <parse+0xcef>
    4702: a6 81        	ldx	$81                     ; 0x2081 <parse+0xd5c>
    4704: 86 72        	stx	$72                     ; 0x2072 <parse+0xd4d>
    4706: 8a           	txa
    4707: 6a           	ror
    4708: 85 15        	sta	$15                     ; 0x2015 <parse+0xcf0>
    470a: a6 7f        	ldx	$7f                     ; 0x207f <parse+0xd5a>
    470c: 86 71        	stx	$71                     ; 0x2071 <parse+0xd4c>
    470e: 8a           	txa
    470f: 6a           	ror
    4710: 85 16        	sta	$16                     ; 0x2016 <parse+0xcf1>
    4712: a6 88        	ldx	$88                     ; 0x2088 <parse+0xd63>
    4714: 8a           	txa
    4715: 6a           	ror
    4716: 85 17        	sta	$17                     ; 0x2017 <parse+0xcf2>
    4718: 84 1c        	sty	$1c                     ; 0x201c <parse+0xcf7>
    471a: a4 18        	ldy	$18                     ; 0x2018 <parse+0xcf3>
    471c: a5 18        	lda	$18                     ; 0x2018 <parse+0xcf3>
    471e: 6a           	ror
    471f: 85 18        	sta	$18                     ; 0x2018 <parse+0xcf3>
    4721: 98           	tya
    4722: 05 18        	ora	$18                     ; 0x2018 <parse+0xcf3>
    4724: 85 1e        	sta	$1e                     ; 0x201e <parse+0xcf9>
    4726: 8a           	txa
    4727: 05 17        	ora	$17                     ; 0x2017 <parse+0xcf2>
    4729: 85 1d        	sta	$1d                     ; 0x201d <parse+0xcf8>
    472b: a5 71        	lda	$71                     ; 0x2071 <parse+0xd4c>
    472d: 05 16        	ora	$16                     ; 0x2016 <parse+0xcf1>
    472f: 85 23        	sta	$23                     ; 0x2023 <parse+0xcfe>
    4731: a5 72        	lda	$72                     ; 0x2072 <parse+0xd4d>
    4733: 05 15        	ora	$15                     ; 0x2015 <parse+0xcf0>
    4735: 85 19        	sta	$19                     ; 0x2019 <parse+0xcf4>
    4737: a5 1c        	lda	$1c                     ; 0x201c <parse+0xcf7>
    4739: 05 14        	ora	$14                     ; 0x2014 <parse+0xcef>
    473b: 85 22        	sta	$22                     ; 0x2022 <parse+0xcfd>
    473d: a5 1a        	lda	$1a                     ; 0x201a <parse+0xcf5>
    473f: 05 13        	ora	$13                     ; 0x2013 <parse+0xcee>
    4741: 85 1f        	sta	$1f                     ; 0x201f <parse+0xcfa>
    4743: a5 1b        	lda	$1b                     ; 0x201b <parse+0xcf6>
    4745: 05 12        	ora	$12                     ; 0x2012 <parse+0xced>
    4747: 85 73        	sta	$73                     ; 0x2073 <parse+0xd4e>
    4749: 5a           	phy
    474a: a4 1f        	ldy	$1f                     ; 0x201f <parse+0xcfa>
    474c: 84 12        	sty	$12                     ; 0x2012 <parse+0xced>
    474e: 4a           	lsr
    474f: 66 12        	ror	$12                     ; 0x2012 <parse+0xced>
    4751: a4 22        	ldy	$22                     ; 0x2022 <parse+0xcfd>
    4753: 84 13        	sty	$13                     ; 0x2013 <parse+0xcee>
    4755: 66 13        	ror	$13                     ; 0x2013 <parse+0xcee>
    4757: a4 19        	ldy	$19                     ; 0x2019 <parse+0xcf4>
    4759: 84 14        	sty	$14                     ; 0x2014 <parse+0xcef>
    475b: 66 14        	ror	$14                     ; 0x2014 <parse+0xcef>
    475d: a4 23        	ldy	$23                     ; 0x2023 <parse+0xcfe>
    475f: 84 15        	sty	$15                     ; 0x2015 <parse+0xcf0>
    4761: 66 15        	ror	$15                     ; 0x2015 <parse+0xcf0>
    4763: a4 1d        	ldy	$1d                     ; 0x201d <parse+0xcf8>
    4765: 84 16        	sty	$16                     ; 0x2016 <parse+0xcf1>
    4767: 66 16        	ror	$16                     ; 0x2016 <parse+0xcf1>
    4769: a4 1e        	ldy	$1e                     ; 0x201e <parse+0xcf9>
    476b: 84 17        	sty	$17                     ; 0x2017 <parse+0xcf2>
    476d: 66 17        	ror	$17                     ; 0x2017 <parse+0xcf2>
    476f: 4a           	lsr
    4770: 66 12        	ror	$12                     ; 0x2012 <parse+0xced>
    4772: 66 13        	ror	$13                     ; 0x2013 <parse+0xcee>
    4774: 66 14        	ror	$14                     ; 0x2014 <parse+0xcef>
    4776: 66 15        	ror	$15                     ; 0x2015 <parse+0xcf0>
    4778: 66 16        	ror	$16                     ; 0x2016 <parse+0xcf1>
    477a: 66 17        	ror	$17                     ; 0x2017 <parse+0xcf2>
    477c: 85 18        	sta	$18                     ; 0x2018 <parse+0xcf3>
    477e: a5 1e        	lda	$1e                     ; 0x201e <parse+0xcf9>
    4780: 05 17        	ora	$17                     ; 0x2017 <parse+0xcf2>
    4782: 85 1e        	sta	$1e                     ; 0x201e <parse+0xcf9>
    4784: a5 1d        	lda	$1d                     ; 0x201d <parse+0xcf8>
    4786: 05 16        	ora	$16                     ; 0x2016 <parse+0xcf1>
    4788: 85 1d        	sta	$1d                     ; 0x201d <parse+0xcf8>
    478a: a5 23        	lda	$23                     ; 0x2023 <parse+0xcfe>
    478c: 05 15        	ora	$15                     ; 0x2015 <parse+0xcf0>
    478e: 85 23        	sta	$23                     ; 0x2023 <parse+0xcfe>
    4790: a5 19        	lda	$19                     ; 0x2019 <parse+0xcf4>
    4792: 05 14        	ora	$14                     ; 0x2014 <parse+0xcef>
    4794: 85 19        	sta	$19                     ; 0x2019 <parse+0xcf4>
    4796: a5 22        	lda	$22                     ; 0x2022 <parse+0xcfd>
    4798: 05 13        	ora	$13                     ; 0x2013 <parse+0xcee>
    479a: 85 22        	sta	$22                     ; 0x2022 <parse+0xcfd>
    479c: a5 1f        	lda	$1f                     ; 0x201f <parse+0xcfa>
    479e: 05 12        	ora	$12                     ; 0x2012 <parse+0xced>
    47a0: 85 12        	sta	$12                     ; 0x2012 <parse+0xced>
    47a2: a5 73        	lda	$73                     ; 0x2073 <parse+0xd4e>
    47a4: 05 18        	ora	$18                     ; 0x2018 <parse+0xcf3>
    47a6: 85 1f        	sta	$1f                     ; 0x201f <parse+0xcfa>
    47a8: 85 18        	sta	$18                     ; 0x2018 <parse+0xcf3>
    47aa: a5 12        	lda	$12                     ; 0x2012 <parse+0xced>
    47ac: 85 73        	sta	$73                     ; 0x2073 <parse+0xd4e>
    47ae: 46 18        	lsr	$18                     ; 0x2018 <parse+0xcf3>
    47b0: 66 12        	ror	$12                     ; 0x2012 <parse+0xced>
    47b2: a4 22        	ldy	$22                     ; 0x2022 <parse+0xcfd>
    47b4: 84 13        	sty	$13                     ; 0x2013 <parse+0xcee>
    47b6: 66 13        	ror	$13                     ; 0x2013 <parse+0xcee>
    47b8: a4 19        	ldy	$19                     ; 0x2019 <parse+0xcf4>
    47ba: 84 14        	sty	$14                     ; 0x2014 <parse+0xcef>
    47bc: 66 14        	ror	$14                     ; 0x2014 <parse+0xcef>
    47be: a4 23        	ldy	$23                     ; 0x2023 <parse+0xcfe>
    47c0: 84 15        	sty	$15                     ; 0x2015 <parse+0xcf0>
    47c2: 66 15        	ror	$15                     ; 0x2015 <parse+0xcf0>
    47c4: a4 1d        	ldy	$1d                     ; 0x201d <parse+0xcf8>
    47c6: 84 16        	sty	$16                     ; 0x2016 <parse+0xcf1>
    47c8: 66 16        	ror	$16                     ; 0x2016 <parse+0xcf1>
    47ca: a4 1e        	ldy	$1e                     ; 0x201e <parse+0xcf9>
    47cc: 84 17        	sty	$17                     ; 0x2017 <parse+0xcf2>
    47ce: 66 17        	ror	$17                     ; 0x2017 <parse+0xcf2>
    47d0: 46 18        	lsr	$18                     ; 0x2018 <parse+0xcf3>
    47d2: 66 12        	ror	$12                     ; 0x2012 <parse+0xced>
    47d4: 66 13        	ror	$13                     ; 0x2013 <parse+0xcee>
    47d6: 66 14        	ror	$14                     ; 0x2014 <parse+0xcef>
    47d8: 66 15        	ror	$15                     ; 0x2015 <parse+0xcf0>
    47da: 66 16        	ror	$16                     ; 0x2016 <parse+0xcf1>
    47dc: 66 17        	ror	$17                     ; 0x2017 <parse+0xcf2>
    47de: 46 18        	lsr	$18                     ; 0x2018 <parse+0xcf3>
    47e0: 66 12        	ror	$12                     ; 0x2012 <parse+0xced>
    47e2: 66 13        	ror	$13                     ; 0x2013 <parse+0xcee>
    47e4: 66 14        	ror	$14                     ; 0x2014 <parse+0xcef>
    47e6: 66 15        	ror	$15                     ; 0x2015 <parse+0xcf0>
    47e8: 66 16        	ror	$16                     ; 0x2016 <parse+0xcf1>
    47ea: 66 17        	ror	$17                     ; 0x2017 <parse+0xcf2>
    47ec: 46 18        	lsr	$18                     ; 0x2018 <parse+0xcf3>
    47ee: 66 12        	ror	$12                     ; 0x2012 <parse+0xced>
    47f0: 66 13        	ror	$13                     ; 0x2013 <parse+0xcee>
    47f2: 66 14        	ror	$14                     ; 0x2014 <parse+0xcef>
    47f4: 66 15        	ror	$15                     ; 0x2015 <parse+0xcf0>
    47f6: 66 16        	ror	$16                     ; 0x2016 <parse+0xcf1>
    47f8: 66 17        	ror	$17                     ; 0x2017 <parse+0xcf2>
    47fa: a5 1e        	lda	$1e                     ; 0x201e <parse+0xcf9>
    47fc: 05 17        	ora	$17                     ; 0x2017 <parse+0xcf2>
    47fe: 85 1e        	sta	$1e                     ; 0x201e <parse+0xcf9>
    4800: a5 1d        	lda	$1d                     ; 0x201d <parse+0xcf8>
    4802: 05 16        	ora	$16                     ; 0x2016 <parse+0xcf1>
    4804: 85 1d        	sta	$1d                     ; 0x201d <parse+0xcf8>
    4806: a5 23        	lda	$23                     ; 0x2023 <parse+0xcfe>
    4808: 05 15        	ora	$15                     ; 0x2015 <parse+0xcf0>
    480a: 85 15        	sta	$15                     ; 0x2015 <parse+0xcf0>
    480c: a5 19        	lda	$19                     ; 0x2019 <parse+0xcf4>
    480e: 05 14        	ora	$14                     ; 0x2014 <parse+0xcef>
    4810: 85 17        	sta	$17                     ; 0x2017 <parse+0xcf2>
    4812: a5 22        	lda	$22                     ; 0x2022 <parse+0xcfd>
    4814: 05 13        	ora	$13                     ; 0x2013 <parse+0xcee>
    4816: 85 14        	sta	$14                     ; 0x2014 <parse+0xcef>
    4818: a5 73        	lda	$73                     ; 0x2073 <parse+0xd4e>
    481a: 05 12        	ora	$12                     ; 0x2012 <parse+0xced>
    481c: 85 22        	sta	$22                     ; 0x2022 <parse+0xcfd>
    481e: a5 1f        	lda	$1f                     ; 0x201f <parse+0xcfa>
    4820: 05 18        	ora	$18                     ; 0x2018 <parse+0xcf3>
    4822: 85 18        	sta	$18                     ; 0x2018 <parse+0xcf3>
    4824: a5 1e        	lda	$1e                     ; 0x201e <parse+0xcf9>
    4826: 05 1d        	ora	$1d                     ; 0x201d <parse+0xcf8>
    4828: 85 16        	sta	$16                     ; 0x2016 <parse+0xcf1>
    482a: a5 15        	lda	$15                     ; 0x2015 <parse+0xcf0>
    482c: 85 13        	sta	$13                     ; 0x2013 <parse+0xcee>
    482e: 05 17        	ora	$17                     ; 0x2017 <parse+0xcf2>
    4830: 85 19        	sta	$19                     ; 0x2019 <parse+0xcf4>
    4832: a5 14        	lda	$14                     ; 0x2014 <parse+0xcef>
    4834: 05 22        	ora	$22                     ; 0x2022 <parse+0xcfd>
    4836: 85 1e        	sta	$1e                     ; 0x201e <parse+0xcf9>
    4838: a5 18        	lda	$18                     ; 0x2018 <parse+0xcf3>
    483a: 85 12        	sta	$12                     ; 0x2012 <parse+0xced>
    483c: 85 1f        	sta	$1f                     ; 0x201f <parse+0xcfa>
    483e: a5 16        	lda	$16                     ; 0x2016 <parse+0xcf1>
    4840: 05 19        	ora	$19                     ; 0x2019 <parse+0xcf4>
    4842: 85 18        	sta	$18                     ; 0x2018 <parse+0xcf3>
    4844: a5 1e        	lda	$1e                     ; 0x201e <parse+0xcf9>
    4846: 85 15        	sta	$15                     ; 0x2015 <parse+0xcf0>
    4848: 05 12        	ora	$12                     ; 0x2012 <parse+0xced>
    484a: 85 16        	sta	$16                     ; 0x2016 <parse+0xcf1>
    484c: 85 23        	sta	$23                     ; 0x2023 <parse+0xcfe>
    484e: a5 18        	lda	$18                     ; 0x2018 <parse+0xcf3>
    4850: 05 16        	ora	$16                     ; 0x2016 <parse+0xcf1>
    4852: 85 1e        	sta	$1e                     ; 0x201e <parse+0xcf9>
    4854: 4a           	lsr
    4855: 29 55        	and	#$55
    4857: 85 16        	sta	$16                     ; 0x2016 <parse+0xcf1>
    4859: a5 1d        	lda	$1d                     ; 0x201d <parse+0xcf8>
    485b: 05 13        	ora	$13                     ; 0x2013 <parse+0xcee>
    485d: 85 18        	sta	$18                     ; 0x2018 <parse+0xcf3>
    485f: a5 17        	lda	$17                     ; 0x2017 <parse+0xcf2>
    4861: 05 14        	ora	$14                     ; 0x2014 <parse+0xcef>
    4863: 85 17        	sta	$17                     ; 0x2017 <parse+0xcf2>
    4865: a5 22        	lda	$22                     ; 0x2022 <parse+0xcfd>
    4867: 05 12        	ora	$12                     ; 0x2012 <parse+0xced>
    4869: 85 1d        	sta	$1d                     ; 0x201d <parse+0xcf8>
    486b: a5 18        	lda	$18                     ; 0x2018 <parse+0xcf3>
    486d: 05 17        	ora	$17                     ; 0x2017 <parse+0xcf2>
    486f: 85 14        	sta	$14                     ; 0x2014 <parse+0xcef>
    4871: a5 1d        	lda	$1d                     ; 0x201d <parse+0xcf8>
    4873: 85 13        	sta	$13                     ; 0x2013 <parse+0xcee>
    4875: 85 22        	sta	$22                     ; 0x2022 <parse+0xcfd>
    4877: a5 14        	lda	$14                     ; 0x2014 <parse+0xcef>
    4879: 05 13        	ora	$13                     ; 0x2013 <parse+0xcee>
    487b: 85 1d        	sta	$1d                     ; 0x201d <parse+0xcf8>
    487d: 4a           	lsr
    487e: 29 55        	and	#$55
    4880: 85 14        	sta	$14                     ; 0x2014 <parse+0xcef>
    4882: a5 19        	lda	$19                     ; 0x2019 <parse+0xcf4>
    4884: 05 15        	ora	$15                     ; 0x2015 <parse+0xcf0>
    4886: 05 12        	ora	$12                     ; 0x2012 <parse+0xced>
    4888: 85 73        	sta	$73                     ; 0x2073 <parse+0xd4e>
    488a: 4a           	lsr
    488b: 29 55        	and	#$55
    488d: 85 12        	sta	$12                     ; 0x2012 <parse+0xced>
    488f: a5 17        	lda	$17                     ; 0x2017 <parse+0xcf2>
    4891: 05 13        	ora	$13                     ; 0x2013 <parse+0xcee>
    4893: 85 19        	sta	$19                     ; 0x2019 <parse+0xcf4>
    4895: 4a           	lsr
    4896: 29 55        	and	#$55
    4898: 85 13        	sta	$13                     ; 0x2013 <parse+0xcee>
    489a: a5 23        	lda	$23                     ; 0x2023 <parse+0xcfe>
    489c: 4a           	lsr
    489d: 29 55        	and	#$55
    489f: 85 15        	sta	$15                     ; 0x2015 <parse+0xcf0>
    48a1: a5 22        	lda	$22                     ; 0x2022 <parse+0xcfd>
    48a3: 4a           	lsr
    48a4: 29 55        	and	#$55
    48a6: 85 17        	sta	$17                     ; 0x2017 <parse+0xcf2>
    48a8: a5 1f        	lda	$1f                     ; 0x201f <parse+0xcfa>
    48aa: 4a           	lsr
    48ab: 29 55        	and	#$55
    48ad: 85 18        	sta	$18                     ; 0x2018 <parse+0xcf3>
    48af: 38           	sec
    48b0: a5 1e        	lda	$1e                     ; 0x201e <parse+0xcf9>
    48b2: e5 16        	sbc	$16                     ; 0x2016 <parse+0xcf1>
    48b4: 85 1e        	sta	$1e                     ; 0x201e <parse+0xcf9>
    48b6: a5 1d        	lda	$1d                     ; 0x201d <parse+0xcf8>
    48b8: e5 14        	sbc	$14                     ; 0x2014 <parse+0xcef>
    48ba: 85 14        	sta	$14                     ; 0x2014 <parse+0xcef>
    48bc: a5 73        	lda	$73                     ; 0x2073 <parse+0xd4e>
    48be: e5 12        	sbc	$12                     ; 0x2012 <parse+0xced>
    48c0: 85 1d        	sta	$1d                     ; 0x201d <parse+0xcf8>
    48c2: a5 19        	lda	$19                     ; 0x2019 <parse+0xcf4>
    48c4: e5 13        	sbc	$13                     ; 0x2013 <parse+0xcee>
    48c6: 85 16        	sta	$16                     ; 0x2016 <parse+0xcf1>
    48c8: a5 23        	lda	$23                     ; 0x2023 <parse+0xcfe>
    48ca: e5 15        	sbc	$15                     ; 0x2015 <parse+0xcf0>
    48cc: 85 19        	sta	$19                     ; 0x2019 <parse+0xcf4>
    48ce: a5 22        	lda	$22                     ; 0x2022 <parse+0xcfd>
    48d0: e5 17        	sbc	$17                     ; 0x2017 <parse+0xcf2>
    48d2: 85 17        	sta	$17                     ; 0x2017 <parse+0xcf2>
    48d4: a5 1f        	lda	$1f                     ; 0x201f <parse+0xcfa>
    48d6: e5 18        	sbc	$18                     ; 0x2018 <parse+0xcf3>
    48d8: 85 18        	sta	$18                     ; 0x2018 <parse+0xcf3>
    48da: a9 00        	lda	#$0
    48dc: e9 00        	sbc	#$0
    48de: 85 1f        	sta	$1f                     ; 0x201f <parse+0xcfa>
    48e0: a5 1e        	lda	$1e                     ; 0x201e <parse+0xcf9>
    48e2: 29 33        	and	#$33
    48e4: 85 12        	sta	$12                     ; 0x2012 <parse+0xced>
    48e6: a5 14        	lda	$14                     ; 0x2014 <parse+0xcef>
    48e8: 85 75        	sta	$75                     ; 0x2075 <parse+0xd50>
    48ea: 29 33        	and	#$33
    48ec: 85 13        	sta	$13                     ; 0x2013 <parse+0xcee>
    48ee: a5 1d        	lda	$1d                     ; 0x201d <parse+0xcf8>
    48f0: 85 74        	sta	$74                     ; 0x2074 <parse+0xd4f>
    48f2: 29 33        	and	#$33
    48f4: 85 14        	sta	$14                     ; 0x2014 <parse+0xcef>
    48f6: a4 16        	ldy	$16                     ; 0x2016 <parse+0xcf1>
    48f8: 84 73        	sty	$73                     ; 0x2073 <parse+0xd4e>
    48fa: a5 16        	lda	$16                     ; 0x2016 <parse+0xcf1>
    48fc: 29 33        	and	#$33
    48fe: 85 15        	sta	$15                     ; 0x2015 <parse+0xcf0>
    4900: a5 19        	lda	$19                     ; 0x2019 <parse+0xcf4>
    4902: 85 1d        	sta	$1d                     ; 0x201d <parse+0xcf8>
    4904: 29 33        	and	#$33
    4906: 85 16        	sta	$16                     ; 0x2016 <parse+0xcf1>
    4908: a5 17        	lda	$17                     ; 0x2017 <parse+0xcf2>
    490a: 85 22        	sta	$22                     ; 0x2022 <parse+0xcfd>
    490c: 29 33        	and	#$33
    490e: 85 17        	sta	$17                     ; 0x2017 <parse+0xcf2>
    4910: a5 18        	lda	$18                     ; 0x2018 <parse+0xcf3>
    4912: 85 23        	sta	$23                     ; 0x2023 <parse+0xcfe>
    4914: 29 33        	and	#$33
    4916: 85 18        	sta	$18                     ; 0x2018 <parse+0xcf3>
    4918: a5 1f        	lda	$1f                     ; 0x201f <parse+0xcfa>
    491a: 29 33        	and	#$33
    491c: 85 19        	sta	$19                     ; 0x2019 <parse+0xcf4>
    491e: a5 1e        	lda	$1e                     ; 0x201e <parse+0xcf9>
    4920: 4a           	lsr
    4921: 4a           	lsr
    4922: 29 33        	and	#$33
    4924: 18           	clc
    4925: 65 12        	adc	$12                     ; 0x2012 <parse+0xced>
    4927: a0 01        	ldy	#$1
    4929: b0 02        	bcs	$492d <__divdf3+0xb17>
    492b: a0 00        	ldy	#$0
    492d: 84 1e        	sty	$1e                     ; 0x201e <parse+0xcf9>
    492f: 85 12        	sta	$12                     ; 0x2012 <parse+0xced>
    4931: a5 75        	lda	$75                     ; 0x2075 <parse+0xd50>
    4933: 4a           	lsr
    4934: 4a           	lsr
    4935: 29 33        	and	#$33
    4937: a4 1e        	ldy	$1e                     ; 0x201e <parse+0xcf9>
    4939: c0 01        	cpy	#$1
    493b: 65 13        	adc	$13                     ; 0x2013 <parse+0xcee>
    493d: a0 01        	ldy	#$1
    493f: b0 02        	bcs	$4943 <__divdf3+0xb2d>
    4941: a0 00        	ldy	#$0
    4943: 84 1e        	sty	$1e                     ; 0x201e <parse+0xcf9>
    4945: 85 13        	sta	$13                     ; 0x2013 <parse+0xcee>
    4947: a5 74        	lda	$74                     ; 0x2074 <parse+0xd4f>
    4949: 4a           	lsr
    494a: 4a           	lsr
    494b: 29 33        	and	#$33
    494d: a4 1e        	ldy	$1e                     ; 0x201e <parse+0xcf9>
    494f: c0 01        	cpy	#$1
    4951: 65 14        	adc	$14                     ; 0x2014 <parse+0xcef>
    4953: a0 01        	ldy	#$1
    4955: b0 02        	bcs	$4959 <__divdf3+0xb43>
    4957: a0 00        	ldy	#$0
    4959: 84 1e        	sty	$1e                     ; 0x201e <parse+0xcf9>
    495b: 85 14        	sta	$14                     ; 0x2014 <parse+0xcef>
    495d: a5 73        	lda	$73                     ; 0x2073 <parse+0xd4e>
    495f: 4a           	lsr
    4960: 4a           	lsr
    4961: 29 33        	and	#$33
    4963: a4 1e        	ldy	$1e                     ; 0x201e <parse+0xcf9>
    4965: c0 01        	cpy	#$1
    4967: 65 15        	adc	$15                     ; 0x2015 <parse+0xcf0>
    4969: 2c de 5a     	bit	$5ade                   ; 0x5ade <__set_v>
    496c: b0 01        	bcs	$496f <__divdf3+0xb59>
    496e: b8           	clv
    496f: 85 15        	sta	$15                     ; 0x2015 <parse+0xcf0>
    4971: a5 1f        	lda	$1f                     ; 0x201f <parse+0xcfa>
    4973: 4a           	lsr
    4974: 85 73        	sta	$73                     ; 0x2073 <parse+0xd4e>
    4976: a5 23        	lda	$23                     ; 0x2023 <parse+0xcfe>
    4978: 4a           	lsr
    4979: 85 1f        	sta	$1f                     ; 0x201f <parse+0xcfa>
    497b: a5 22        	lda	$22                     ; 0x2022 <parse+0xcfd>
    497d: 4a           	lsr
    497e: 85 1e        	sta	$1e                     ; 0x201e <parse+0xcf9>
    4980: a5 1d        	lda	$1d                     ; 0x201d <parse+0xcf8>
    4982: 4a           	lsr
    4983: a4 73        	ldy	$73                     ; 0x2073 <parse+0xd4e>
    4985: 84 22        	sty	$22                     ; 0x2022 <parse+0xcfd>
    4987: 46 22        	lsr	$22                     ; 0x2022 <parse+0xcfd>
    4989: 46 1f        	lsr	$1f                     ; 0x201f <parse+0xcfa>
    498b: a4 1e        	ldy	$1e                     ; 0x201e <parse+0xcf9>
    498d: 84 1d        	sty	$1d                     ; 0x201d <parse+0xcf8>
    498f: 46 1d        	lsr	$1d                     ; 0x201d <parse+0xcf8>
    4991: 4a           	lsr
    4992: 29 33        	and	#$33
    4994: 85 23        	sta	$23                     ; 0x2023 <parse+0xcfe>
    4996: a5 1d        	lda	$1d                     ; 0x201d <parse+0xcf8>
    4998: 29 33        	and	#$33
    499a: 85 1d        	sta	$1d                     ; 0x201d <parse+0xcf8>
    499c: a5 1f        	lda	$1f                     ; 0x201f <parse+0xcfa>
    499e: 29 33        	and	#$33
    49a0: 85 1e        	sta	$1e                     ; 0x201e <parse+0xcf9>
    49a2: a5 22        	lda	$22                     ; 0x2022 <parse+0xcfd>
    49a4: 29 33        	and	#$33
    49a6: 85 1f        	sta	$1f                     ; 0x201f <parse+0xcfa>
    49a8: 38           	sec
    49a9: 70 01        	bvs	$49ac <__divdf3+0xb96>
    49ab: 18           	clc
    49ac: a5 23        	lda	$23                     ; 0x2023 <parse+0xcfe>
    49ae: 65 16        	adc	$16                     ; 0x2016 <parse+0xcf1>
    49b0: 85 16        	sta	$16                     ; 0x2016 <parse+0xcf1>
    49b2: a5 1d        	lda	$1d                     ; 0x201d <parse+0xcf8>
    49b4: 65 17        	adc	$17                     ; 0x2017 <parse+0xcf2>
    49b6: 85 17        	sta	$17                     ; 0x2017 <parse+0xcf2>
    49b8: a5 1e        	lda	$1e                     ; 0x201e <parse+0xcf9>
    49ba: 65 18        	adc	$18                     ; 0x2018 <parse+0xcf3>
    49bc: 85 18        	sta	$18                     ; 0x2018 <parse+0xcf3>
    49be: a5 1f        	lda	$1f                     ; 0x201f <parse+0xcfa>
    49c0: 65 19        	adc	$19                     ; 0x2019 <parse+0xcf4>
    49c2: 85 19        	sta	$19                     ; 0x2019 <parse+0xcf4>
    49c4: 4a           	lsr
    49c5: 85 1d        	sta	$1d                     ; 0x201d <parse+0xcf8>
    49c7: a5 18        	lda	$18                     ; 0x2018 <parse+0xcf3>
    49c9: 6a           	ror
    49ca: a4 17        	ldy	$17                     ; 0x2017 <parse+0xcf2>
    49cc: 84 1e        	sty	$1e                     ; 0x201e <parse+0xcf9>
    49ce: 66 1e        	ror	$1e                     ; 0x201e <parse+0xcf9>
    49d0: a4 16        	ldy	$16                     ; 0x2016 <parse+0xcf1>
    49d2: 84 1f        	sty	$1f                     ; 0x201f <parse+0xcfa>
    49d4: 66 1f        	ror	$1f                     ; 0x201f <parse+0xcfa>
    49d6: a4 15        	ldy	$15                     ; 0x2015 <parse+0xcf0>
    49d8: 84 22        	sty	$22                     ; 0x2022 <parse+0xcfd>
    49da: 66 22        	ror	$22                     ; 0x2022 <parse+0xcfd>
    49dc: a4 14        	ldy	$14                     ; 0x2014 <parse+0xcef>
    49de: 84 23        	sty	$23                     ; 0x2023 <parse+0xcfe>
    49e0: 66 23        	ror	$23                     ; 0x2023 <parse+0xcfe>
    49e2: a4 13        	ldy	$13                     ; 0x2013 <parse+0xcee>
    49e4: 84 74        	sty	$74                     ; 0x2074 <parse+0xd4f>
    49e6: 66 74        	ror	$74                     ; 0x2074 <parse+0xd4f>
    49e8: a4 12        	ldy	$12                     ; 0x2012 <parse+0xced>
    49ea: 84 73        	sty	$73                     ; 0x2073 <parse+0xd4e>
    49ec: 66 73        	ror	$73                     ; 0x2073 <parse+0xd4e>
    49ee: a4 73        	ldy	$73                     ; 0x2073 <parse+0xd4e>
    49f0: 84 75        	sty	$75                     ; 0x2075 <parse+0xd50>
    49f2: 46 1d        	lsr	$1d                     ; 0x201d <parse+0xcf8>
    49f4: 6a           	ror
    49f5: 85 73        	sta	$73                     ; 0x2073 <parse+0xd4e>
    49f7: a5 1e        	lda	$1e                     ; 0x201e <parse+0xcf9>
    49f9: 6a           	ror
    49fa: 66 1f        	ror	$1f                     ; 0x201f <parse+0xcfa>
    49fc: 66 22        	ror	$22                     ; 0x2022 <parse+0xcfd>
    49fe: a4 23        	ldy	$23                     ; 0x2023 <parse+0xcfe>
    4a00: 84 1e        	sty	$1e                     ; 0x201e <parse+0xcf9>
    4a02: 66 1e        	ror	$1e                     ; 0x201e <parse+0xcf9>
    4a04: 66 74        	ror	$74                     ; 0x2074 <parse+0xd4f>
    4a06: 66 75        	ror	$75                     ; 0x2075 <parse+0xd50>
    4a08: 46 1d        	lsr	$1d                     ; 0x201d <parse+0xcf8>
    4a0a: a4 73        	ldy	$73                     ; 0x2073 <parse+0xd4e>
    4a0c: 84 23        	sty	$23                     ; 0x2023 <parse+0xcfe>
    4a0e: 66 23        	ror	$23                     ; 0x2023 <parse+0xcfe>
    4a10: 6a           	ror
    4a11: 85 76        	sta	$76                     ; 0x2076 <parse+0xd51>
    4a13: a5 1f        	lda	$1f                     ; 0x201f <parse+0xcfa>
    4a15: 6a           	ror
    4a16: 66 22        	ror	$22                     ; 0x2022 <parse+0xcfd>
    4a18: 66 1e        	ror	$1e                     ; 0x201e <parse+0xcf9>
    4a1a: 66 74        	ror	$74                     ; 0x2074 <parse+0xd4f>
    4a1c: a4 75        	ldy	$75                     ; 0x2075 <parse+0xd50>
    4a1e: 84 73        	sty	$73                     ; 0x2073 <parse+0xd4e>
    4a20: 66 73        	ror	$73                     ; 0x2073 <parse+0xd4e>
    4a22: 46 1d        	lsr	$1d                     ; 0x201d <parse+0xcf8>
    4a24: a4 23        	ldy	$23                     ; 0x2023 <parse+0xcfe>
    4a26: 84 1f        	sty	$1f                     ; 0x201f <parse+0xcfa>
    4a28: 66 1f        	ror	$1f                     ; 0x201f <parse+0xcfa>
    4a2a: a4 76        	ldy	$76                     ; 0x2076 <parse+0xd51>
    4a2c: 84 23        	sty	$23                     ; 0x2023 <parse+0xcfe>
    4a2e: 66 23        	ror	$23                     ; 0x2023 <parse+0xcfe>
    4a30: 6a           	ror
    4a31: 85 75        	sta	$75                     ; 0x2075 <parse+0xd50>
    4a33: a4 22        	ldy	$22                     ; 0x2022 <parse+0xcfd>
    4a35: 84 76        	sty	$76                     ; 0x2076 <parse+0xd51>
    4a37: 66 76        	ror	$76                     ; 0x2076 <parse+0xd51>
    4a39: 66 1e        	ror	$1e                     ; 0x201e <parse+0xcf9>
    4a3b: 66 74        	ror	$74                     ; 0x2074 <parse+0xd4f>
    4a3d: a5 73        	lda	$73                     ; 0x2073 <parse+0xd4e>
    4a3f: 6a           	ror
    4a40: 18           	clc
    4a41: 65 12        	adc	$12                     ; 0x2012 <parse+0xced>
    4a43: 85 12        	sta	$12                     ; 0x2012 <parse+0xced>
    4a45: a5 74        	lda	$74                     ; 0x2074 <parse+0xd4f>
    4a47: 65 13        	adc	$13                     ; 0x2013 <parse+0xcee>
    4a49: 85 13        	sta	$13                     ; 0x2013 <parse+0xcee>
    4a4b: a5 1e        	lda	$1e                     ; 0x201e <parse+0xcf9>
    4a4d: 65 14        	adc	$14                     ; 0x2014 <parse+0xcef>
    4a4f: 85 14        	sta	$14                     ; 0x2014 <parse+0xcef>
    4a51: a5 76        	lda	$76                     ; 0x2076 <parse+0xd51>
    4a53: 65 15        	adc	$15                     ; 0x2015 <parse+0xcf0>
    4a55: 85 15        	sta	$15                     ; 0x2015 <parse+0xcf0>
    4a57: a5 75        	lda	$75                     ; 0x2075 <parse+0xd50>
    4a59: 65 16        	adc	$16                     ; 0x2016 <parse+0xcf1>
    4a5b: 85 16        	sta	$16                     ; 0x2016 <parse+0xcf1>
    4a5d: a5 23        	lda	$23                     ; 0x2023 <parse+0xcfe>
    4a5f: 65 17        	adc	$17                     ; 0x2017 <parse+0xcf2>
    4a61: 85 17        	sta	$17                     ; 0x2017 <parse+0xcf2>
    4a63: a5 1f        	lda	$1f                     ; 0x201f <parse+0xcfa>
    4a65: 65 18        	adc	$18                     ; 0x2018 <parse+0xcf3>
    4a67: 85 18        	sta	$18                     ; 0x2018 <parse+0xcf3>
    4a69: a5 1d        	lda	$1d                     ; 0x201d <parse+0xcf8>
    4a6b: 65 19        	adc	$19                     ; 0x2019 <parse+0xcf4>
    4a6d: 85 19        	sta	$19                     ; 0x2019 <parse+0xcf4>
    4a6f: a5 12        	lda	$12                     ; 0x2012 <parse+0xced>
    4a71: 29 0f        	and	#$f
    4a73: 85 12        	sta	$12                     ; 0x2012 <parse+0xced>
    4a75: 85 22        	sta	$22                     ; 0x2022 <parse+0xcfd>
    4a77: a5 13        	lda	$13                     ; 0x2013 <parse+0xcee>
    4a79: 29 0f        	and	#$f
    4a7b: 85 13        	sta	$13                     ; 0x2013 <parse+0xcee>
    4a7d: 85 23        	sta	$23                     ; 0x2023 <parse+0xcfe>
    4a7f: a5 14        	lda	$14                     ; 0x2014 <parse+0xcef>
    4a81: 29 0f        	and	#$f
    4a83: 85 14        	sta	$14                     ; 0x2014 <parse+0xcef>
    4a85: 85 1f        	sta	$1f                     ; 0x201f <parse+0xcfa>
    4a87: a5 15        	lda	$15                     ; 0x2015 <parse+0xcf0>
    4a89: 29 0f        	and	#$f
    4a8b: 85 15        	sta	$15                     ; 0x2015 <parse+0xcf0>
    4a8d: 85 73        	sta	$73                     ; 0x2073 <parse+0xd4e>
    4a8f: a5 16        	lda	$16                     ; 0x2016 <parse+0xcf1>
    4a91: 29 0f        	and	#$f
    4a93: 85 16        	sta	$16                     ; 0x2016 <parse+0xcf1>
    4a95: 85 1d        	sta	$1d                     ; 0x201d <parse+0xcf8>
    4a97: a5 17        	lda	$17                     ; 0x2017 <parse+0xcf2>
    4a99: 29 0f        	and	#$f
    4a9b: 85 17        	sta	$17                     ; 0x2017 <parse+0xcf2>
    4a9d: 85 74        	sta	$74                     ; 0x2074 <parse+0xd4f>
    4a9f: a5 18        	lda	$18                     ; 0x2018 <parse+0xcf3>
    4aa1: 29 0f        	and	#$f
    4aa3: 85 18        	sta	$18                     ; 0x2018 <parse+0xcf3>
    4aa5: 85 1e        	sta	$1e                     ; 0x201e <parse+0xcf9>
    4aa7: a5 19        	lda	$19                     ; 0x2019 <parse+0xcf4>
    4aa9: 29 0f        	and	#$f
    4aab: 85 19        	sta	$19                     ; 0x2019 <parse+0xcf4>
    4aad: 18           	clc
    4aae: a5 22        	lda	$22                     ; 0x2022 <parse+0xcfd>
    4ab0: 69 00        	adc	#$0
    4ab2: 85 22        	sta	$22                     ; 0x2022 <parse+0xcfd>
    4ab4: a5 23        	lda	$23                     ; 0x2023 <parse+0xcfe>
    4ab6: 65 12        	adc	$12                     ; 0x2012 <parse+0xced>
    4ab8: 85 23        	sta	$23                     ; 0x2023 <parse+0xcfe>
    4aba: a5 1f        	lda	$1f                     ; 0x201f <parse+0xcfa>
    4abc: 65 13        	adc	$13                     ; 0x2013 <parse+0xcee>
    4abe: 85 1f        	sta	$1f                     ; 0x201f <parse+0xcfa>
    4ac0: a5 73        	lda	$73                     ; 0x2073 <parse+0xd4e>
    4ac2: 65 14        	adc	$14                     ; 0x2014 <parse+0xcef>
    4ac4: 85 73        	sta	$73                     ; 0x2073 <parse+0xd4e>
    4ac6: a5 1d        	lda	$1d                     ; 0x201d <parse+0xcf8>
    4ac8: 65 15        	adc	$15                     ; 0x2015 <parse+0xcf0>
    4aca: 85 1d        	sta	$1d                     ; 0x201d <parse+0xcf8>
    4acc: a5 74        	lda	$74                     ; 0x2074 <parse+0xd4f>
    4ace: 65 16        	adc	$16                     ; 0x2016 <parse+0xcf1>
    4ad0: 85 74        	sta	$74                     ; 0x2074 <parse+0xd4f>
    4ad2: a5 1e        	lda	$1e                     ; 0x201e <parse+0xcf9>
    4ad4: 65 17        	adc	$17                     ; 0x2017 <parse+0xcf2>
    4ad6: 85 1e        	sta	$1e                     ; 0x201e <parse+0xcf9>
    4ad8: a5 19        	lda	$19                     ; 0x2019 <parse+0xcf4>
    4ada: 65 18        	adc	$18                     ; 0x2018 <parse+0xcf3>
    4adc: 85 18        	sta	$18                     ; 0x2018 <parse+0xcf3>
    4ade: a4 23        	ldy	$23                     ; 0x2023 <parse+0xcfe>
    4ae0: 84 13        	sty	$13                     ; 0x2013 <parse+0xcee>
    4ae2: a4 1f        	ldy	$1f                     ; 0x201f <parse+0xcfa>
    4ae4: 84 14        	sty	$14                     ; 0x2014 <parse+0xcef>
    4ae6: a4 73        	ldy	$73                     ; 0x2073 <parse+0xd4e>
    4ae8: 84 19        	sty	$19                     ; 0x2019 <parse+0xcf4>
    4aea: a4 73        	ldy	$73                     ; 0x2073 <parse+0xd4e>
    4aec: 84 15        	sty	$15                     ; 0x2015 <parse+0xcf0>
    4aee: a4 74        	ldy	$74                     ; 0x2074 <parse+0xd4f>
    4af0: 84 17        	sty	$17                     ; 0x2017 <parse+0xcf2>
    4af2: 18           	clc
    4af3: a5 22        	lda	$22                     ; 0x2022 <parse+0xcfd>
    4af5: 69 00        	adc	#$0
    4af7: 85 73        	sta	$73                     ; 0x2073 <parse+0xd4e>
    4af9: a5 23        	lda	$23                     ; 0x2023 <parse+0xcfe>
    4afb: 69 00        	adc	#$0
    4afd: 85 23        	sta	$23                     ; 0x2023 <parse+0xcfe>
    4aff: a5 1f        	lda	$1f                     ; 0x201f <parse+0xcfa>
    4b01: 65 22        	adc	$22                     ; 0x2022 <parse+0xcfd>
    4b03: 85 22        	sta	$22                     ; 0x2022 <parse+0xcfd>
    4b05: a5 19        	lda	$19                     ; 0x2019 <parse+0xcf4>
    4b07: 65 13        	adc	$13                     ; 0x2013 <parse+0xcee>
    4b09: 85 1f        	sta	$1f                     ; 0x201f <parse+0xcfa>
    4b0b: a5 1d        	lda	$1d                     ; 0x201d <parse+0xcf8>
    4b0d: 65 14        	adc	$14                     ; 0x2014 <parse+0xcef>
    4b0f: 85 19        	sta	$19                     ; 0x2019 <parse+0xcf4>
    4b11: a5 74        	lda	$74                     ; 0x2074 <parse+0xd4f>
    4b13: 65 15        	adc	$15                     ; 0x2015 <parse+0xcf0>
    4b15: 85 74        	sta	$74                     ; 0x2074 <parse+0xd4f>
    4b17: a5 1e        	lda	$1e                     ; 0x201e <parse+0xcf9>
    4b19: 65 1d        	adc	$1d                     ; 0x201d <parse+0xcf8>
    4b1b: 85 1d        	sta	$1d                     ; 0x201d <parse+0xcf8>
    4b1d: a5 18        	lda	$18                     ; 0x2018 <parse+0xcf3>
    4b1f: 65 17        	adc	$17                     ; 0x2017 <parse+0xcf2>
    4b21: 85 16        	sta	$16                     ; 0x2016 <parse+0xcf1>
    4b23: a5 73        	lda	$73                     ; 0x2073 <parse+0xd4e>
    4b25: 85 12        	sta	$12                     ; 0x2012 <parse+0xced>
    4b27: 18           	clc
    4b28: 69 00        	adc	#$0
    4b2a: a5 23        	lda	$23                     ; 0x2023 <parse+0xcfe>
    4b2c: 85 13        	sta	$13                     ; 0x2013 <parse+0xcee>
    4b2e: 69 00        	adc	#$0
    4b30: a5 22        	lda	$22                     ; 0x2022 <parse+0xcfd>
    4b32: 85 14        	sta	$14                     ; 0x2014 <parse+0xcef>
    4b34: 69 00        	adc	#$0
    4b36: a5 1f        	lda	$1f                     ; 0x201f <parse+0xcfa>
    4b38: 85 15        	sta	$15                     ; 0x2015 <parse+0xcf0>
    4b3a: 69 00        	adc	#$0
    4b3c: a5 19        	lda	$19                     ; 0x2019 <parse+0xcf4>
    4b3e: 65 12        	adc	$12                     ; 0x2012 <parse+0xced>
    4b40: a5 74        	lda	$74                     ; 0x2074 <parse+0xd4f>
    4b42: 65 13        	adc	$13                     ; 0x2013 <parse+0xcee>
    4b44: a5 1d        	lda	$1d                     ; 0x201d <parse+0xcf8>
    4b46: 65 14        	adc	$14                     ; 0x2014 <parse+0xcef>
    4b48: a5 16        	lda	$16                     ; 0x2016 <parse+0xcf1>
    4b4a: 65 15        	adc	$15                     ; 0x2015 <parse+0xcf0>
    4b4c: 85 12        	sta	$12                     ; 0x2012 <parse+0xced>
    4b4e: a9 40        	lda	#$40
    4b50: 38           	sec
    4b51: e5 12        	sbc	$12                     ; 0x2012 <parse+0xced>
    4b53: 85 73        	sta	$73                     ; 0x2073 <parse+0xd4e>
    4b55: a9 00        	lda	#$0
    4b57: e9 00        	sbc	#$0
    4b59: 85 74        	sta	$74                     ; 0x2074 <parse+0xd4f>
    4b5b: 18           	clc
    4b5c: a5 73        	lda	$73                     ; 0x2073 <parse+0xd4e>
    4b5e: 69 f5        	adc	#$f5
    4b60: a4 71        	ldy	$71                     ; 0x2071 <parse+0xd4c>
    4b62: 84 12        	sty	$12                     ; 0x2012 <parse+0xced>
    4b64: a4 72        	ldy	$72                     ; 0x2072 <parse+0xd4d>
    4b66: 84 13        	sty	$13                     ; 0x2013 <parse+0xcee>
    4b68: a4 1c        	ldy	$1c                     ; 0x201c <parse+0xcf7>
    4b6a: 84 14        	sty	$14                     ; 0x2014 <parse+0xcef>
    4b6c: a4 1a        	ldy	$1a                     ; 0x201a <parse+0xcf5>
    4b6e: 84 15        	sty	$15                     ; 0x2015 <parse+0xcf0>
    4b70: a4 1b        	ldy	$1b                     ; 0x201b <parse+0xcf6>
    4b72: 84 16        	sty	$16                     ; 0x2016 <parse+0xcf1>
    4b74: 7a           	ply
    4b75: 64 17        	stz	$17                     ; 0x2017 <parse+0xcf2>
    4b77: 85 18        	sta	$18                     ; 0x2018 <parse+0xcf3>
    4b79: 98           	tya
    4b7a: 20 01 3b     	jsr	$3b01 <__ashldi3>
    4b7d: 85 18        	sta	$18                     ; 0x2018 <parse+0xcf3>
    4b7f: 86 88        	stx	$88                     ; 0x2088 <parse+0xd63>
    4b81: a6 12        	ldx	$12                     ; 0x2012 <parse+0xced>
    4b83: 86 7f        	stx	$7f                     ; 0x207f <parse+0xd5a>
    4b85: a6 13        	ldx	$13                     ; 0x2013 <parse+0xcee>
    4b87: 86 81        	stx	$81                     ; 0x2081 <parse+0xd5c>
    4b89: a4 14        	ldy	$14                     ; 0x2014 <parse+0xcef>
    4b8b: a6 15        	ldx	$15                     ; 0x2015 <parse+0xcf0>
    4b8d: 86 87        	stx	$87                     ; 0x2087 <parse+0xd62>
    4b8f: a6 16        	ldx	$16                     ; 0x2016 <parse+0xcf1>
    4b91: 86 72        	stx	$72                     ; 0x2072 <parse+0xd4d>
    4b93: a6 17        	ldx	$17                     ; 0x2017 <parse+0xcf2>
    4b95: 86 92        	stx	$92                     ; 0x2092 <parse+0xd6d>
    4b97: a6 8e        	ldx	$8e                     ; 0x208e <parse+0xd69>
    4b99: 86 12        	stx	$12                     ; 0x2012 <parse+0xced>
    4b9b: 18           	clc
    4b9c: a5 73        	lda	$73                     ; 0x2073 <parse+0xd4e>
    4b9e: 65 12        	adc	$12                     ; 0x2012 <parse+0xced>
    4ba0: 85 13        	sta	$13                     ; 0x2013 <parse+0xcee>
    4ba2: a6 89        	ldx	$89                     ; 0x2089 <parse+0xd64>
    4ba4: 86 12        	stx	$12                     ; 0x2012 <parse+0xced>
    4ba6: a5 74        	lda	$74                     ; 0x2074 <parse+0xd4f>
    4ba8: 65 12        	adc	$12                     ; 0x2012 <parse+0xced>
    4baa: 85 12        	sta	$12                     ; 0x2012 <parse+0xced>
    4bac: 18           	clc
    4bad: a5 13        	lda	$13                     ; 0x2013 <parse+0xcee>
    4baf: 69 f4        	adc	#$f4
    4bb1: 85 14        	sta	$14                     ; 0x2014 <parse+0xcef>
    4bb3: a5 12        	lda	$12                     ; 0x2012 <parse+0xced>
    4bb5: 69 ff        	adc	#$ff
    4bb7: 85 15        	sta	$15                     ; 0x2015 <parse+0xcf0>
    4bb9: a6 8c        	ldx	$8c                     ; 0x208c <parse+0xd67>
    4bbb: 86 12        	stx	$12                     ; 0x2012 <parse+0xced>
    4bbd: a6 8d        	ldx	$8d                     ; 0x208d <parse+0xd68>
    4bbf: 86 13        	stx	$13                     ; 0x2013 <parse+0xcee>
    4bc1: a5 72        	lda	$72                     ; 0x2072 <parse+0xd4d>
    4bc3: 09 10        	ora	#$10
    4bc5: 85 78        	sta	$78                     ; 0x2078 <parse+0xd53>
    4bc7: 38           	sec
    4bc8: a5 85        	lda	$85                     ; 0x2085 <parse+0xd60>
    4bca: e5 13        	sbc	$13                     ; 0x2013 <parse+0xcee>
    4bcc: 85 13        	sta	$13                     ; 0x2013 <parse+0xcee>
    4bce: a5 84        	lda	$84                     ; 0x2084 <parse+0xd5f>
    4bd0: e5 12        	sbc	$12                     ; 0x2012 <parse+0xced>
    4bd2: 85 12        	sta	$12                     ; 0x2012 <parse+0xced>
    4bd4: 18           	clc
    4bd5: a5 13        	lda	$13                     ; 0x2013 <parse+0xcee>
    4bd7: 65 14        	adc	$14                     ; 0x2014 <parse+0xcef>
    4bd9: 85 85        	sta	$85                     ; 0x2085 <parse+0xd60>
    4bdb: a5 12        	lda	$12                     ; 0x2012 <parse+0xced>
    4bdd: 65 15        	adc	$15                     ; 0x2015 <parse+0xcf0>
    4bdf: 85 84        	sta	$84                     ; 0x2084 <parse+0xd5f>
    4be1: a5 18        	lda	$18                     ; 0x2018 <parse+0xcf3>
    4be3: 85 89        	sta	$89                     ; 0x2089 <parse+0xd64>
    4be5: 06 18        	asl	$18                     ; 0x2018 <parse+0xcf3>
    4be7: a6 88        	ldx	$88                     ; 0x2088 <parse+0xd63>
    4be9: 86 13        	stx	$13                     ; 0x2013 <parse+0xcee>
    4beb: 26 13        	rol	$13                     ; 0x2013 <parse+0xcee>
    4bed: a5 7f        	lda	$7f                     ; 0x207f <parse+0xd5a>
    4bef: 85 14        	sta	$14                     ; 0x2014 <parse+0xcef>
    4bf1: 26 14        	rol	$14                     ; 0x2014 <parse+0xcef>
    4bf3: a2 01        	ldx	#$1
    4bf5: b0 02        	bcs	$4bf9 <__divdf3+0xde3>
    4bf7: a2 00        	ldx	#$0
    4bf9: 86 a6        	stx	$a6                     ; 0x20a6 <parse+0xd81>
    4bfb: a6 18        	ldx	$18                     ; 0x2018 <parse+0xcf3>
    4bfd: 86 a7        	stx	$a7                     ; 0x20a7 <parse+0xd82>
    4bff: 06 18        	asl	$18                     ; 0x2018 <parse+0xcf3>
    4c01: a6 13        	ldx	$13                     ; 0x2013 <parse+0xcee>
    4c03: 86 a8        	stx	$a8                     ; 0x20a8 <parse+0xd83>
    4c05: 26 13        	rol	$13                     ; 0x2013 <parse+0xcee>
    4c07: a6 14        	ldx	$14                     ; 0x2014 <parse+0xcef>
    4c09: 86 a9        	stx	$a9                     ; 0x20a9 <parse+0xd84>
    4c0b: 26 14        	rol	$14                     ; 0x2014 <parse+0xcef>
    4c0d: 06 18        	asl	$18                     ; 0x2018 <parse+0xcf3>
    4c0f: a6 18        	ldx	$18                     ; 0x2018 <parse+0xcf3>
    4c11: 86 72        	stx	$72                     ; 0x2072 <parse+0xd4d>
    4c13: 26 13        	rol	$13                     ; 0x2013 <parse+0xcee>
    4c15: a6 13        	ldx	$13                     ; 0x2013 <parse+0xcee>
    4c17: 86 8c        	stx	$8c                     ; 0x208c <parse+0xd67>
    4c19: 26 14        	rol	$14                     ; 0x2014 <parse+0xcef>
    4c1b: a6 14        	ldx	$14                     ; 0x2014 <parse+0xcef>
    4c1d: 86 8d        	stx	$8d                     ; 0x208d <parse+0xd68>
    4c1f: 0a           	asl
    4c20: a6 81        	ldx	$81                     ; 0x2081 <parse+0xd5c>
    4c22: 86 75        	stx	$75                     ; 0x2075 <parse+0xd50>
    4c24: 26 75        	rol	$75                     ; 0x2075 <parse+0xd50>
    4c26: 84 13        	sty	$13                     ; 0x2013 <parse+0xcee>
    4c28: a6 13        	ldx	$13                     ; 0x2013 <parse+0xcee>
    4c2a: 86 91        	stx	$91                     ; 0x2091 <parse+0xd6c>
    4c2c: 84 76        	sty	$76                     ; 0x2076 <parse+0xd51>
    4c2e: 26 76        	rol	$76                     ; 0x2076 <parse+0xd51>
    4c30: a6 87        	ldx	$87                     ; 0x2087 <parse+0xd62>
    4c32: 86 77        	stx	$77                     ; 0x2077 <parse+0xd52>
    4c34: 26 77        	rol	$77                     ; 0x2077 <parse+0xd52>
    4c36: a6 78        	ldx	$78                     ; 0x2078 <parse+0xd53>
    4c38: 86 94        	stx	$94                     ; 0x2094 <parse+0xd6f>
    4c3a: 26 78        	rol	$78                     ; 0x2078 <parse+0xd53>
    4c3c: 0a           	asl
    4c3d: 26 75        	rol	$75                     ; 0x2075 <parse+0xd50>
    4c3f: 26 76        	rol	$76                     ; 0x2076 <parse+0xd51>
    4c41: 26 77        	rol	$77                     ; 0x2077 <parse+0xd52>
    4c43: 26 78        	rol	$78                     ; 0x2078 <parse+0xd53>
    4c45: 0a           	asl
    4c46: 26 75        	rol	$75                     ; 0x2075 <parse+0xd50>
    4c48: 26 76        	rol	$76                     ; 0x2076 <parse+0xd51>
    4c4a: 26 77        	rol	$77                     ; 0x2077 <parse+0xd52>
    4c4c: 26 78        	rol	$78                     ; 0x2078 <parse+0xd53>
    4c4e: a9 33        	lda	#$33
    4c50: 38           	sec
    4c51: e5 75        	sbc	$75                     ; 0x2075 <parse+0xd50>
    4c53: 85 71        	sta	$71                     ; 0x2071 <parse+0xd4c>
    4c55: a9 f3        	lda	#$f3
    4c57: e5 76        	sbc	$76                     ; 0x2076 <parse+0xd51>
    4c59: 85 79        	sta	$79                     ; 0x2079 <parse+0xd54>
    4c5b: a9 04        	lda	#$4
    4c5d: e5 77        	sbc	$77                     ; 0x2077 <parse+0xd52>
    4c5f: 85 7a        	sta	$7a                     ; 0x207a <parse+0xd55>
    4c61: a9 75        	lda	#$75
    4c63: e5 78        	sbc	$78                     ; 0x2078 <parse+0xd53>
    4c65: 85 7b        	sta	$7b                     ; 0x207b <parse+0xd56>
    4c67: a6 83        	ldx	$83                     ; 0x2083 <parse+0xd5e>
    4c69: 8a           	txa
    4c6a: 09 10        	ora	#$10
    4c6c: 85 83        	sta	$83                     ; 0x2083 <parse+0xd5e>
    4c6e: a6 77        	ldx	$77                     ; 0x2077 <parse+0xd52>
    4c70: 86 12        	stx	$12                     ; 0x2012 <parse+0xced>
    4c72: a6 78        	ldx	$78                     ; 0x2078 <parse+0xd53>
    4c74: 86 13        	stx	$13                     ; 0x2013 <parse+0xcee>
    4c76: 64 14        	stz	$14                     ; 0x2014 <parse+0xcef>
    4c78: 64 15        	stz	$15                     ; 0x2015 <parse+0xcf0>
    4c7a: 64 16        	stz	$16                     ; 0x2016 <parse+0xcf1>
    4c7c: 64 17        	stz	$17                     ; 0x2017 <parse+0xcf2>
    4c7e: a6 71        	ldx	$71                     ; 0x2071 <parse+0xd4c>
    4c80: 86 18        	stx	$18                     ; 0x2018 <parse+0xcf3>
    4c82: a6 79        	ldx	$79                     ; 0x2079 <parse+0xd54>
    4c84: 86 19        	stx	$19                     ; 0x2019 <parse+0xcf4>
    4c86: a6 7a        	ldx	$7a                     ; 0x207a <parse+0xd55>
    4c88: 86 1a        	stx	$1a                     ; 0x201a <parse+0xcf5>
    4c8a: a6 7b        	ldx	$7b                     ; 0x207b <parse+0xd56>
    4c8c: 86 1b        	stx	$1b                     ; 0x201b <parse+0xcf6>
    4c8e: 64 1c        	stz	$1c                     ; 0x201c <parse+0xcf7>
    4c90: 64 1d        	stz	$1d                     ; 0x201d <parse+0xcf8>
    4c92: 64 1e        	stz	$1e                     ; 0x201e <parse+0xcf9>
    4c94: 64 1f        	stz	$1f                     ; 0x201f <parse+0xcfa>
    4c96: a6 76        	ldx	$76                     ; 0x2076 <parse+0xd51>
    4c98: a5 75        	lda	$75                     ; 0x2075 <parse+0xd50>
    4c9a: 20 af 3b     	jsr	$3baf <__muldi3>
    4c9d: a9 00        	lda	#$0
    4c9f: 38           	sec
    4ca0: e5 14        	sbc	$14                     ; 0x2014 <parse+0xcef>
    4ca2: a8           	tay
    4ca3: a9 00        	lda	#$0
    4ca5: e5 15        	sbc	$15                     ; 0x2015 <parse+0xcf0>
    4ca7: aa           	tax
    4ca8: a9 00        	lda	#$0
    4caa: e5 16        	sbc	$16                     ; 0x2016 <parse+0xcf1>
    4cac: 85 12        	sta	$12                     ; 0x2012 <parse+0xced>
    4cae: a9 00        	lda	#$0
    4cb0: e5 17        	sbc	$17                     ; 0x2017 <parse+0xcf2>
    4cb2: 85 13        	sta	$13                     ; 0x2013 <parse+0xcee>
    4cb4: a5 71        	lda	$71                     ; 0x2071 <parse+0xd4c>
    4cb6: 85 18        	sta	$18                     ; 0x2018 <parse+0xcf3>
    4cb8: a5 79        	lda	$79                     ; 0x2079 <parse+0xd54>
    4cba: 85 19        	sta	$19                     ; 0x2019 <parse+0xcf4>
    4cbc: a5 7a        	lda	$7a                     ; 0x207a <parse+0xd55>
    4cbe: 85 1a        	sta	$1a                     ; 0x201a <parse+0xcf5>
    4cc0: a5 7b        	lda	$7b                     ; 0x207b <parse+0xd56>
    4cc2: 85 1b        	sta	$1b                     ; 0x201b <parse+0xcf6>
    4cc4: 64 14        	stz	$14                     ; 0x2014 <parse+0xcef>
    4cc6: 64 15        	stz	$15                     ; 0x2015 <parse+0xcf0>
    4cc8: 64 16        	stz	$16                     ; 0x2016 <parse+0xcf1>
    4cca: 64 17        	stz	$17                     ; 0x2017 <parse+0xcf2>
    4ccc: 64 1c        	stz	$1c                     ; 0x201c <parse+0xcf7>
    4cce: 64 1d        	stz	$1d                     ; 0x201d <parse+0xcf8>
    4cd0: 64 1e        	stz	$1e                     ; 0x201e <parse+0xcf9>
    4cd2: 64 1f        	stz	$1f                     ; 0x201f <parse+0xcfa>
    4cd4: 98           	tya
    4cd5: 20 af 3b     	jsr	$3baf <__muldi3>
    4cd8: a6 14        	ldx	$14                     ; 0x2014 <parse+0xcef>
    4cda: 86 71        	stx	$71                     ; 0x2071 <parse+0xd4c>
    4cdc: a6 15        	ldx	$15                     ; 0x2015 <parse+0xcf0>
    4cde: 86 79        	stx	$79                     ; 0x2079 <parse+0xd54>
    4ce0: a6 16        	ldx	$16                     ; 0x2016 <parse+0xcf1>
    4ce2: 86 7a        	stx	$7a                     ; 0x207a <parse+0xd55>
    4ce4: a6 17        	ldx	$17                     ; 0x2017 <parse+0xcf2>
    4ce6: 86 7b        	stx	$7b                     ; 0x207b <parse+0xd56>
    4ce8: 06 13        	asl	$13                     ; 0x2013 <parse+0xcee>
    4cea: 26 71        	rol	$71                     ; 0x2071 <parse+0xd4c>
    4cec: 26 79        	rol	$79                     ; 0x2079 <parse+0xd54>
    4cee: 26 7a        	rol	$7a                     ; 0x207a <parse+0xd55>
    4cf0: 26 7b        	rol	$7b                     ; 0x207b <parse+0xd56>
    4cf2: a6 7a        	ldx	$7a                     ; 0x207a <parse+0xd55>
    4cf4: 86 12        	stx	$12                     ; 0x2012 <parse+0xced>
    4cf6: a6 7b        	ldx	$7b                     ; 0x207b <parse+0xd56>
    4cf8: 86 13        	stx	$13                     ; 0x2013 <parse+0xcee>
    4cfa: 64 14        	stz	$14                     ; 0x2014 <parse+0xcef>
    4cfc: 64 15        	stz	$15                     ; 0x2015 <parse+0xcf0>
    4cfe: 64 16        	stz	$16                     ; 0x2016 <parse+0xcf1>
    4d00: 64 17        	stz	$17                     ; 0x2017 <parse+0xcf2>
    4d02: a6 75        	ldx	$75                     ; 0x2075 <parse+0xd50>
    4d04: 86 18        	stx	$18                     ; 0x2018 <parse+0xcf3>
    4d06: a6 76        	ldx	$76                     ; 0x2076 <parse+0xd51>
    4d08: 86 19        	stx	$19                     ; 0x2019 <parse+0xcf4>
    4d0a: a6 77        	ldx	$77                     ; 0x2077 <parse+0xd52>
    4d0c: 86 1a        	stx	$1a                     ; 0x201a <parse+0xcf5>
    4d0e: a6 78        	ldx	$78                     ; 0x2078 <parse+0xd53>
    4d10: 86 1b        	stx	$1b                     ; 0x201b <parse+0xcf6>
    4d12: 64 1c        	stz	$1c                     ; 0x201c <parse+0xcf7>
    4d14: 64 1d        	stz	$1d                     ; 0x201d <parse+0xcf8>
    4d16: 64 1e        	stz	$1e                     ; 0x201e <parse+0xcf9>
    4d18: 64 1f        	stz	$1f                     ; 0x201f <parse+0xcfa>
    4d1a: a6 79        	ldx	$79                     ; 0x2079 <parse+0xd54>
    4d1c: a5 71        	lda	$71                     ; 0x2071 <parse+0xd4c>
    4d1e: 20 af 3b     	jsr	$3baf <__muldi3>
    4d21: a9 00        	lda	#$0
    4d23: 38           	sec
    4d24: e5 14        	sbc	$14                     ; 0x2014 <parse+0xcef>
    4d26: 85 18        	sta	$18                     ; 0x2018 <parse+0xcf3>
    4d28: a9 00        	lda	#$0
    4d2a: e5 15        	sbc	$15                     ; 0x2015 <parse+0xcf0>
    4d2c: 85 19        	sta	$19                     ; 0x2019 <parse+0xcf4>
    4d2e: a9 00        	lda	#$0
    4d30: e5 16        	sbc	$16                     ; 0x2016 <parse+0xcf1>
    4d32: 85 1a        	sta	$1a                     ; 0x201a <parse+0xcf5>
    4d34: a9 00        	lda	#$0
    4d36: e5 17        	sbc	$17                     ; 0x2017 <parse+0xcf2>
    4d38: a6 7a        	ldx	$7a                     ; 0x207a <parse+0xd55>
    4d3a: 86 12        	stx	$12                     ; 0x2012 <parse+0xced>
    4d3c: a6 7b        	ldx	$7b                     ; 0x207b <parse+0xd56>
    4d3e: 86 13        	stx	$13                     ; 0x2013 <parse+0xcee>
    4d40: 64 14        	stz	$14                     ; 0x2014 <parse+0xcef>
    4d42: 64 15        	stz	$15                     ; 0x2015 <parse+0xcf0>
    4d44: 64 16        	stz	$16                     ; 0x2016 <parse+0xcf1>
    4d46: 64 17        	stz	$17                     ; 0x2017 <parse+0xcf2>
    4d48: 85 1b        	sta	$1b                     ; 0x201b <parse+0xcf6>
    4d4a: 64 1c        	stz	$1c                     ; 0x201c <parse+0xcf7>
    4d4c: 64 1d        	stz	$1d                     ; 0x201d <parse+0xcf8>
    4d4e: 64 1e        	stz	$1e                     ; 0x201e <parse+0xcf9>
    4d50: 64 1f        	stz	$1f                     ; 0x201f <parse+0xcfa>
    4d52: a6 79        	ldx	$79                     ; 0x2079 <parse+0xd54>
    4d54: a5 71        	lda	$71                     ; 0x2071 <parse+0xd4c>
    4d56: 20 af 3b     	jsr	$3baf <__muldi3>
    4d59: a6 14        	ldx	$14                     ; 0x2014 <parse+0xcef>
    4d5b: 86 71        	stx	$71                     ; 0x2071 <parse+0xd4c>
    4d5d: a6 15        	ldx	$15                     ; 0x2015 <parse+0xcf0>
    4d5f: 86 79        	stx	$79                     ; 0x2079 <parse+0xd54>
    4d61: a6 16        	ldx	$16                     ; 0x2016 <parse+0xcf1>
    4d63: 86 7a        	stx	$7a                     ; 0x207a <parse+0xd55>
    4d65: a6 17        	ldx	$17                     ; 0x2017 <parse+0xcf2>
    4d67: 86 7b        	stx	$7b                     ; 0x207b <parse+0xd56>
    4d69: 06 13        	asl	$13                     ; 0x2013 <parse+0xcee>
    4d6b: 26 71        	rol	$71                     ; 0x2071 <parse+0xd4c>
    4d6d: 26 79        	rol	$79                     ; 0x2079 <parse+0xd54>
    4d6f: 26 7a        	rol	$7a                     ; 0x207a <parse+0xd55>
    4d71: 26 7b        	rol	$7b                     ; 0x207b <parse+0xd56>
    4d73: a6 7a        	ldx	$7a                     ; 0x207a <parse+0xd55>
    4d75: 86 12        	stx	$12                     ; 0x2012 <parse+0xced>
    4d77: a6 7b        	ldx	$7b                     ; 0x207b <parse+0xd56>
    4d79: 86 13        	stx	$13                     ; 0x2013 <parse+0xcee>
    4d7b: 64 14        	stz	$14                     ; 0x2014 <parse+0xcef>
    4d7d: 64 15        	stz	$15                     ; 0x2015 <parse+0xcf0>
    4d7f: 64 16        	stz	$16                     ; 0x2016 <parse+0xcf1>
    4d81: 64 17        	stz	$17                     ; 0x2017 <parse+0xcf2>
    4d83: a6 75        	ldx	$75                     ; 0x2075 <parse+0xd50>
    4d85: 86 18        	stx	$18                     ; 0x2018 <parse+0xcf3>
    4d87: a6 76        	ldx	$76                     ; 0x2076 <parse+0xd51>
    4d89: 86 19        	stx	$19                     ; 0x2019 <parse+0xcf4>
    4d8b: a6 77        	ldx	$77                     ; 0x2077 <parse+0xd52>
    4d8d: 86 1a        	stx	$1a                     ; 0x201a <parse+0xcf5>
    4d8f: a6 78        	ldx	$78                     ; 0x2078 <parse+0xd53>
    4d91: 86 1b        	stx	$1b                     ; 0x201b <parse+0xcf6>
    4d93: 64 1c        	stz	$1c                     ; 0x201c <parse+0xcf7>
    4d95: 64 1d        	stz	$1d                     ; 0x201d <parse+0xcf8>
    4d97: 64 1e        	stz	$1e                     ; 0x201e <parse+0xcf9>
    4d99: 64 1f        	stz	$1f                     ; 0x201f <parse+0xcfa>
    4d9b: a6 79        	ldx	$79                     ; 0x2079 <parse+0xd54>
    4d9d: a5 71        	lda	$71                     ; 0x2071 <parse+0xd4c>
    4d9f: 20 af 3b     	jsr	$3baf <__muldi3>
    4da2: a9 00        	lda	#$0
    4da4: 38           	sec
    4da5: e5 14        	sbc	$14                     ; 0x2014 <parse+0xcef>
    4da7: 85 18        	sta	$18                     ; 0x2018 <parse+0xcf3>
    4da9: a9 00        	lda	#$0
    4dab: e5 15        	sbc	$15                     ; 0x2015 <parse+0xcf0>
    4dad: 85 19        	sta	$19                     ; 0x2019 <parse+0xcf4>
    4daf: a9 00        	lda	#$0
    4db1: e5 16        	sbc	$16                     ; 0x2016 <parse+0xcf1>
    4db3: 85 1a        	sta	$1a                     ; 0x201a <parse+0xcf5>
    4db5: a9 00        	lda	#$0
    4db7: e5 17        	sbc	$17                     ; 0x2017 <parse+0xcf2>
    4db9: a6 7a        	ldx	$7a                     ; 0x207a <parse+0xd55>
    4dbb: 86 12        	stx	$12                     ; 0x2012 <parse+0xced>
    4dbd: a6 7b        	ldx	$7b                     ; 0x207b <parse+0xd56>
    4dbf: 86 13        	stx	$13                     ; 0x2013 <parse+0xcee>
    4dc1: 64 14        	stz	$14                     ; 0x2014 <parse+0xcef>
    4dc3: 64 15        	stz	$15                     ; 0x2015 <parse+0xcf0>
    4dc5: 64 16        	stz	$16                     ; 0x2016 <parse+0xcf1>
    4dc7: 64 17        	stz	$17                     ; 0x2017 <parse+0xcf2>
    4dc9: 85 1b        	sta	$1b                     ; 0x201b <parse+0xcf6>
    4dcb: 64 1c        	stz	$1c                     ; 0x201c <parse+0xcf7>
    4dcd: 64 1d        	stz	$1d                     ; 0x201d <parse+0xcf8>
    4dcf: 64 1e        	stz	$1e                     ; 0x201e <parse+0xcf9>
    4dd1: 64 1f        	stz	$1f                     ; 0x201f <parse+0xcfa>
    4dd3: a6 79        	ldx	$79                     ; 0x2079 <parse+0xd54>
    4dd5: a5 71        	lda	$71                     ; 0x2071 <parse+0xd4c>
    4dd7: 20 af 3b     	jsr	$3baf <__muldi3>
    4dda: a6 14        	ldx	$14                     ; 0x2014 <parse+0xcef>
    4ddc: 86 79        	stx	$79                     ; 0x2079 <parse+0xd54>
    4dde: a6 15        	ldx	$15                     ; 0x2015 <parse+0xcf0>
    4de0: 86 7a        	stx	$7a                     ; 0x207a <parse+0xd55>
    4de2: a6 16        	ldx	$16                     ; 0x2016 <parse+0xcf1>
    4de4: 86 7b        	stx	$7b                     ; 0x207b <parse+0xd56>
    4de6: a6 17        	ldx	$17                     ; 0x2017 <parse+0xcf2>
    4de8: 86 7c        	stx	$7c                     ; 0x207c <parse+0xd57>
    4dea: 06 13        	asl	$13                     ; 0x2013 <parse+0xcee>
    4dec: 26 79        	rol	$79                     ; 0x2079 <parse+0xd54>
    4dee: 26 7a        	rol	$7a                     ; 0x207a <parse+0xd55>
    4df0: 26 7b        	rol	$7b                     ; 0x207b <parse+0xd56>
    4df2: 26 7c        	rol	$7c                     ; 0x207c <parse+0xd57>
    4df4: a2 ff        	ldx	#$ff
    4df6: c6 79        	dec	$79                     ; 0x2079 <parse+0xd54>
    4df8: e4 79        	cpx	$79                     ; 0x2079 <parse+0xd54>
    4dfa: d0 12        	bne	$4e0e <__divdf3+0xff8>
    4dfc: a2 ff        	ldx	#$ff
    4dfe: c6 7a        	dec	$7a                     ; 0x207a <parse+0xd55>
    4e00: e4 7a        	cpx	$7a                     ; 0x207a <parse+0xd55>
    4e02: d0 0a        	bne	$4e0e <__divdf3+0xff8>
    4e04: a2 ff        	ldx	#$ff
    4e06: c6 7b        	dec	$7b                     ; 0x207b <parse+0xd56>
    4e08: e4 7b        	cpx	$7b                     ; 0x207b <parse+0xd56>
    4e0a: d0 02        	bne	$4e0e <__divdf3+0xff8>
    4e0c: c6 7c        	dec	$7c                     ; 0x207c <parse+0xd57>
    4e0e: a5 72        	lda	$72                     ; 0x2072 <parse+0xd4d>
    4e10: 29 f8        	and	#$f8
    4e12: 85 72        	sta	$72                     ; 0x2072 <parse+0xd4d>
    4e14: a6 77        	ldx	$77                     ; 0x2077 <parse+0xd52>
    4e16: 86 12        	stx	$12                     ; 0x2012 <parse+0xced>
    4e18: a6 78        	ldx	$78                     ; 0x2078 <parse+0xd53>
    4e1a: 86 13        	stx	$13                     ; 0x2013 <parse+0xcee>
    4e1c: 64 14        	stz	$14                     ; 0x2014 <parse+0xcef>
    4e1e: 64 15        	stz	$15                     ; 0x2015 <parse+0xcf0>
    4e20: 64 16        	stz	$16                     ; 0x2016 <parse+0xcf1>
    4e22: 64 17        	stz	$17                     ; 0x2017 <parse+0xcf2>
    4e24: a6 79        	ldx	$79                     ; 0x2079 <parse+0xd54>
    4e26: 86 18        	stx	$18                     ; 0x2018 <parse+0xcf3>
    4e28: a6 7a        	ldx	$7a                     ; 0x207a <parse+0xd55>
    4e2a: 86 19        	stx	$19                     ; 0x2019 <parse+0xcf4>
    4e2c: a6 7b        	ldx	$7b                     ; 0x207b <parse+0xd56>
    4e2e: 86 1a        	stx	$1a                     ; 0x201a <parse+0xcf5>
    4e30: a6 7c        	ldx	$7c                     ; 0x207c <parse+0xd57>
    4e32: 86 1b        	stx	$1b                     ; 0x201b <parse+0xcf6>
    4e34: 64 1c        	stz	$1c                     ; 0x201c <parse+0xcf7>
    4e36: 64 1d        	stz	$1d                     ; 0x201d <parse+0xcf8>
    4e38: 64 1e        	stz	$1e                     ; 0x201e <parse+0xcf9>
    4e3a: 64 1f        	stz	$1f                     ; 0x201f <parse+0xcfa>
    4e3c: a6 76        	ldx	$76                     ; 0x2076 <parse+0xd51>
    4e3e: a5 75        	lda	$75                     ; 0x2075 <parse+0xd50>
    4e40: 20 af 3b     	jsr	$3baf <__muldi3>
    4e43: 85 74        	sta	$74                     ; 0x2074 <parse+0xd4f>
    4e45: 86 71        	stx	$71                     ; 0x2071 <parse+0xd4c>
    4e47: a6 12        	ldx	$12                     ; 0x2012 <parse+0xced>
    4e49: 86 73        	stx	$73                     ; 0x2073 <parse+0xd4e>
    4e4b: a6 13        	ldx	$13                     ; 0x2013 <parse+0xcee>
    4e4d: 86 78        	stx	$78                     ; 0x2078 <parse+0xd53>
    4e4f: a6 14        	ldx	$14                     ; 0x2014 <parse+0xcef>
    4e51: 86 77        	stx	$77                     ; 0x2077 <parse+0xd52>
    4e53: a6 15        	ldx	$15                     ; 0x2015 <parse+0xcf0>
    4e55: 86 76        	stx	$76                     ; 0x2076 <parse+0xd51>
    4e57: a6 16        	ldx	$16                     ; 0x2016 <parse+0xcf1>
    4e59: 86 75        	stx	$75                     ; 0x2075 <parse+0xd50>
    4e5b: a6 17        	ldx	$17                     ; 0x2017 <parse+0xcf2>
    4e5d: 86 8e        	stx	$8e                     ; 0x208e <parse+0xd69>
    4e5f: a6 8c        	ldx	$8c                     ; 0x208c <parse+0xd67>
    4e61: 86 12        	stx	$12                     ; 0x2012 <parse+0xced>
    4e63: a6 8d        	ldx	$8d                     ; 0x208d <parse+0xd68>
    4e65: 86 13        	stx	$13                     ; 0x2013 <parse+0xcee>
    4e67: 64 14        	stz	$14                     ; 0x2014 <parse+0xcef>
    4e69: 64 15        	stz	$15                     ; 0x2015 <parse+0xcf0>
    4e6b: 64 16        	stz	$16                     ; 0x2016 <parse+0xcf1>
    4e6d: 64 17        	stz	$17                     ; 0x2017 <parse+0xcf2>
    4e6f: a6 79        	ldx	$79                     ; 0x2079 <parse+0xd54>
    4e71: 86 18        	stx	$18                     ; 0x2018 <parse+0xcf3>
    4e73: a6 7a        	ldx	$7a                     ; 0x207a <parse+0xd55>
    4e75: 86 19        	stx	$19                     ; 0x2019 <parse+0xcf4>
    4e77: a6 7b        	ldx	$7b                     ; 0x207b <parse+0xd56>
    4e79: 86 1a        	stx	$1a                     ; 0x201a <parse+0xcf5>
    4e7b: a6 7c        	ldx	$7c                     ; 0x207c <parse+0xd57>
    4e7d: 86 1b        	stx	$1b                     ; 0x201b <parse+0xcf6>
    4e7f: 64 1c        	stz	$1c                     ; 0x201c <parse+0xcf7>
    4e81: 64 1d        	stz	$1d                     ; 0x201d <parse+0xcf8>
    4e83: 64 1e        	stz	$1e                     ; 0x201e <parse+0xcf9>
    4e85: 64 1f        	stz	$1f                     ; 0x201f <parse+0xcfa>
    4e87: a6 72        	ldx	$72                     ; 0x2072 <parse+0xd4d>
    4e89: a9 00        	lda	#$0
    4e8b: 20 af 3b     	jsr	$3baf <__muldi3>
    4e8e: 18           	clc
    4e8f: a5 74        	lda	$74                     ; 0x2074 <parse+0xd4f>
    4e91: 65 14        	adc	$14                     ; 0x2014 <parse+0xcef>
    4e93: 85 12        	sta	$12                     ; 0x2012 <parse+0xced>
    4e95: a5 71        	lda	$71                     ; 0x2071 <parse+0xd4c>
    4e97: 65 15        	adc	$15                     ; 0x2015 <parse+0xcf0>
    4e99: 85 13        	sta	$13                     ; 0x2013 <parse+0xcee>
    4e9b: a5 73        	lda	$73                     ; 0x2073 <parse+0xd4e>
    4e9d: 65 16        	adc	$16                     ; 0x2016 <parse+0xcf1>
    4e9f: 85 14        	sta	$14                     ; 0x2014 <parse+0xcef>
    4ea1: a5 78        	lda	$78                     ; 0x2078 <parse+0xd53>
    4ea3: 65 17        	adc	$17                     ; 0x2017 <parse+0xcf2>
    4ea5: 85 15        	sta	$15                     ; 0x2015 <parse+0xcf0>
    4ea7: a5 77        	lda	$77                     ; 0x2077 <parse+0xd52>
    4ea9: 69 00        	adc	#$0
    4eab: 85 16        	sta	$16                     ; 0x2016 <parse+0xcf1>
    4ead: a5 76        	lda	$76                     ; 0x2076 <parse+0xd51>
    4eaf: 69 00        	adc	#$0
    4eb1: 85 17        	sta	$17                     ; 0x2017 <parse+0xcf2>
    4eb3: a5 75        	lda	$75                     ; 0x2075 <parse+0xd50>
    4eb5: 69 00        	adc	#$0
    4eb7: 85 18        	sta	$18                     ; 0x2018 <parse+0xcf3>
    4eb9: a5 8e        	lda	$8e                     ; 0x208e <parse+0xd69>
    4ebb: 69 00        	adc	#$0
    4ebd: 85 19        	sta	$19                     ; 0x2019 <parse+0xcf4>
    4ebf: a9 01        	lda	#$1
    4ec1: 38           	sec
    4ec2: e5 12        	sbc	$12                     ; 0x2012 <parse+0xced>
    4ec4: 85 8c        	sta	$8c                     ; 0x208c <parse+0xd67>
    4ec6: a9 00        	lda	#$0
    4ec8: e5 13        	sbc	$13                     ; 0x2013 <parse+0xcee>
    4eca: 85 8d        	sta	$8d                     ; 0x208d <parse+0xd68>
    4ecc: a9 00        	lda	#$0
    4ece: e5 14        	sbc	$14                     ; 0x2014 <parse+0xcef>
    4ed0: 85 8e        	sta	$8e                     ; 0x208e <parse+0xd69>
    4ed2: a9 00        	lda	#$0
    4ed4: e5 15        	sbc	$15                     ; 0x2015 <parse+0xcf0>
    4ed6: 85 75        	sta	$75                     ; 0x2075 <parse+0xd50>
    4ed8: a9 00        	lda	#$0
    4eda: e5 16        	sbc	$16                     ; 0x2016 <parse+0xcf1>
    4edc: aa           	tax
    4edd: a9 00        	lda	#$0
    4edf: e5 17        	sbc	$17                     ; 0x2017 <parse+0xcf2>
    4ee1: a8           	tay
    4ee2: a9 00        	lda	#$0
    4ee4: e5 18        	sbc	$18                     ; 0x2018 <parse+0xcf3>
    4ee6: 85 1a        	sta	$1a                     ; 0x201a <parse+0xcf5>
    4ee8: a9 00        	lda	#$0
    4eea: e5 19        	sbc	$19                     ; 0x2019 <parse+0xcf4>
    4eec: 5a           	phy
    4eed: a4 79        	ldy	$79                     ; 0x2079 <parse+0xd54>
    4eef: 84 22        	sty	$22                     ; 0x2022 <parse+0xcfd>
    4ef1: a4 7a        	ldy	$7a                     ; 0x207a <parse+0xd55>
    4ef3: 84 23        	sty	$23                     ; 0x2023 <parse+0xcfe>
    4ef5: 06 22        	asl	$22                     ; 0x2022 <parse+0xcfd>
    4ef7: 26 23        	rol	$23                     ; 0x2023 <parse+0xcfe>
    4ef9: a4 7b        	ldy	$7b                     ; 0x207b <parse+0xd56>
    4efb: 84 12        	sty	$12                     ; 0x2012 <parse+0xced>
    4efd: 26 12        	rol	$12                     ; 0x2012 <parse+0xced>
    4eff: a4 7c        	ldy	$7c                     ; 0x207c <parse+0xd57>
    4f01: 84 13        	sty	$13                     ; 0x2013 <parse+0xcee>
    4f03: 7a           	ply
    4f04: 26 13        	rol	$13                     ; 0x2013 <parse+0xcee>
    4f06: 64 14        	stz	$14                     ; 0x2014 <parse+0xcef>
    4f08: 26 14        	rol	$14                     ; 0x2014 <parse+0xcef>
    4f0a: 64 15        	stz	$15                     ; 0x2015 <parse+0xcf0>
    4f0c: 26 15        	rol	$15                     ; 0x2015 <parse+0xcf0>
    4f0e: 64 16        	stz	$16                     ; 0x2016 <parse+0xcf1>
    4f10: 26 16        	rol	$16                     ; 0x2016 <parse+0xcf1>
    4f12: 64 17        	stz	$17                     ; 0x2017 <parse+0xcf2>
    4f14: 26 17        	rol	$17                     ; 0x2017 <parse+0xcf2>
    4f16: 86 18        	stx	$18                     ; 0x2018 <parse+0xcf3>
    4f18: 84 19        	sty	$19                     ; 0x2019 <parse+0xcf4>
    4f1a: 85 1b        	sta	$1b                     ; 0x201b <parse+0xcf6>
    4f1c: 64 1c        	stz	$1c                     ; 0x201c <parse+0xcf7>
    4f1e: 64 1d        	stz	$1d                     ; 0x201d <parse+0xcf8>
    4f20: 64 1e        	stz	$1e                     ; 0x201e <parse+0xcf9>
    4f22: 64 1f        	stz	$1f                     ; 0x201f <parse+0xcfa>
    4f24: a6 23        	ldx	$23                     ; 0x2023 <parse+0xcfe>
    4f26: a5 22        	lda	$22                     ; 0x2022 <parse+0xcfd>
    4f28: 20 af 3b     	jsr	$3baf <__muldi3>
    4f2b: 85 72        	sta	$72                     ; 0x2072 <parse+0xd4d>
    4f2d: 86 77        	stx	$77                     ; 0x2077 <parse+0xd52>
    4f2f: a6 12        	ldx	$12                     ; 0x2012 <parse+0xced>
    4f31: 86 73        	stx	$73                     ; 0x2073 <parse+0xd4e>
    4f33: a6 13        	ldx	$13                     ; 0x2013 <parse+0xcee>
    4f35: 86 74        	stx	$74                     ; 0x2074 <parse+0xd4f>
    4f37: a6 14        	ldx	$14                     ; 0x2014 <parse+0xcef>
    4f39: 86 71        	stx	$71                     ; 0x2071 <parse+0xd4c>
    4f3b: a6 15        	ldx	$15                     ; 0x2015 <parse+0xcf0>
    4f3d: 86 78        	stx	$78                     ; 0x2078 <parse+0xd53>
    4f3f: a6 16        	ldx	$16                     ; 0x2016 <parse+0xcf1>
    4f41: 86 76        	stx	$76                     ; 0x2076 <parse+0xd51>
    4f43: a6 17        	ldx	$17                     ; 0x2017 <parse+0xcf2>
    4f45: 86 8f        	stx	$8f                     ; 0x208f <parse+0xd6a>
    4f47: a6 8e        	ldx	$8e                     ; 0x208e <parse+0xd69>
    4f49: 86 12        	stx	$12                     ; 0x2012 <parse+0xced>
    4f4b: a6 75        	ldx	$75                     ; 0x2075 <parse+0xd50>
    4f4d: 86 13        	stx	$13                     ; 0x2013 <parse+0xcee>
    4f4f: 64 14        	stz	$14                     ; 0x2014 <parse+0xcef>
    4f51: 64 15        	stz	$15                     ; 0x2015 <parse+0xcf0>
    4f53: 64 16        	stz	$16                     ; 0x2016 <parse+0xcf1>
    4f55: 64 17        	stz	$17                     ; 0x2017 <parse+0xcf2>
    4f57: a6 79        	ldx	$79                     ; 0x2079 <parse+0xd54>
    4f59: 86 18        	stx	$18                     ; 0x2018 <parse+0xcf3>
    4f5b: a6 7a        	ldx	$7a                     ; 0x207a <parse+0xd55>
    4f5d: 86 19        	stx	$19                     ; 0x2019 <parse+0xcf4>
    4f5f: a6 7b        	ldx	$7b                     ; 0x207b <parse+0xd56>
    4f61: 86 1a        	stx	$1a                     ; 0x201a <parse+0xcf5>
    4f63: a6 7c        	ldx	$7c                     ; 0x207c <parse+0xd57>
    4f65: 86 1b        	stx	$1b                     ; 0x201b <parse+0xcf6>
    4f67: 64 1c        	stz	$1c                     ; 0x201c <parse+0xcf7>
    4f69: 64 1d        	stz	$1d                     ; 0x201d <parse+0xcf8>
    4f6b: 64 1e        	stz	$1e                     ; 0x201e <parse+0xcf9>
    4f6d: 64 1f        	stz	$1f                     ; 0x201f <parse+0xcfa>
    4f6f: a6 8d        	ldx	$8d                     ; 0x208d <parse+0xd68>
    4f71: a5 8c        	lda	$8c                     ; 0x208c <parse+0xd67>
    4f73: 20 af 3b     	jsr	$3baf <__muldi3>
    4f76: 06 13        	asl	$13                     ; 0x2013 <parse+0xcee>
    4f78: 26 14        	rol	$14                     ; 0x2014 <parse+0xcef>
    4f7a: 26 15        	rol	$15                     ; 0x2015 <parse+0xcf0>
    4f7c: 26 16        	rol	$16                     ; 0x2016 <parse+0xcf1>
    4f7e: 26 17        	rol	$17                     ; 0x2017 <parse+0xcf2>
    4f80: a9 00        	lda	#$0
    4f82: 2a           	rol
    4f83: 85 12        	sta	$12                     ; 0x2012 <parse+0xced>
    4f85: a9 00        	lda	#$0
    4f87: 2a           	rol
    4f88: aa           	tax
    4f89: a9 00        	lda	#$0
    4f8b: 2a           	rol
    4f8c: a8           	tay
    4f8d: a9 00        	lda	#$0
    4f8f: 2a           	rol
    4f90: 85 18        	sta	$18                     ; 0x2018 <parse+0xcf3>
    4f92: 18           	clc
    4f93: a5 72        	lda	$72                     ; 0x2072 <parse+0xd4d>
    4f95: 65 14        	adc	$14                     ; 0x2014 <parse+0xcef>
    4f97: 85 1a        	sta	$1a                     ; 0x201a <parse+0xcf5>
    4f99: a5 77        	lda	$77                     ; 0x2077 <parse+0xd52>
    4f9b: 65 15        	adc	$15                     ; 0x2015 <parse+0xcf0>
    4f9d: 85 19        	sta	$19                     ; 0x2019 <parse+0xcf4>
    4f9f: a5 73        	lda	$73                     ; 0x2073 <parse+0xd4e>
    4fa1: 65 16        	adc	$16                     ; 0x2016 <parse+0xcf1>
    4fa3: 85 13        	sta	$13                     ; 0x2013 <parse+0xcee>
    4fa5: a5 74        	lda	$74                     ; 0x2074 <parse+0xd4f>
    4fa7: 65 17        	adc	$17                     ; 0x2017 <parse+0xcf2>
    4fa9: 85 14        	sta	$14                     ; 0x2014 <parse+0xcef>
    4fab: a5 12        	lda	$12                     ; 0x2012 <parse+0xced>
    4fad: 65 71        	adc	$71                     ; 0x2071 <parse+0xd4c>
    4faf: 85 16        	sta	$16                     ; 0x2016 <parse+0xcf1>
    4fb1: 8a           	txa
    4fb2: 65 78        	adc	$78                     ; 0x2078 <parse+0xd53>
    4fb4: 85 12        	sta	$12                     ; 0x2012 <parse+0xced>
    4fb6: 98           	tya
    4fb7: 65 76        	adc	$76                     ; 0x2076 <parse+0xd51>
    4fb9: 85 15        	sta	$15                     ; 0x2015 <parse+0xcf0>
    4fbb: a5 18        	lda	$18                     ; 0x2018 <parse+0xcf3>
    4fbd: a6 8f        	ldx	$8f                     ; 0x208f <parse+0xd6a>
    4fbf: 86 17        	stx	$17                     ; 0x2017 <parse+0xcf2>
    4fc1: 65 17        	adc	$17                     ; 0x2017 <parse+0xcf2>
    4fc3: 85 17        	sta	$17                     ; 0x2017 <parse+0xcf2>
    4fc5: 18           	clc
    4fc6: a5 1a        	lda	$1a                     ; 0x201a <parse+0xcf5>
    4fc8: 69 1f        	adc	#$1f
    4fca: 85 75        	sta	$75                     ; 0x2075 <parse+0xd50>
    4fcc: a5 19        	lda	$19                     ; 0x2019 <parse+0xcf4>
    4fce: 69 ff        	adc	#$ff
    4fd0: 85 22        	sta	$22                     ; 0x2022 <parse+0xcfd>
    4fd2: a5 13        	lda	$13                     ; 0x2013 <parse+0xcee>
    4fd4: 69 ff        	adc	#$ff
    4fd6: 85 79        	sta	$79                     ; 0x2079 <parse+0xd54>
    4fd8: a5 14        	lda	$14                     ; 0x2014 <parse+0xcef>
    4fda: 69 ff        	adc	#$ff
    4fdc: 85 7a        	sta	$7a                     ; 0x207a <parse+0xd55>
    4fde: a5 16        	lda	$16                     ; 0x2016 <parse+0xcf1>
    4fe0: 69 ff        	adc	#$ff
    4fe2: 85 8d        	sta	$8d                     ; 0x208d <parse+0xd68>
    4fe4: a5 12        	lda	$12                     ; 0x2012 <parse+0xced>
    4fe6: 69 ff        	adc	#$ff
    4fe8: 85 8e        	sta	$8e                     ; 0x208e <parse+0xd69>
    4fea: a5 15        	lda	$15                     ; 0x2015 <parse+0xcf0>
    4fec: 69 ff        	adc	#$ff
    4fee: 85 8f        	sta	$8f                     ; 0x208f <parse+0xd6a>
    4ff0: a5 17        	lda	$17                     ; 0x2017 <parse+0xcf2>
    4ff2: 69 ff        	adc	#$ff
    4ff4: 85 90        	sta	$90                     ; 0x2090 <parse+0xd6b>
    4ff6: a6 82        	ldx	$82                     ; 0x2082 <parse+0xd5d>
    4ff8: 86 12        	stx	$12                     ; 0x2012 <parse+0xced>
    4ffa: 06 12        	asl	$12                     ; 0x2012 <parse+0xced>
    4ffc: a5 12        	lda	$12                     ; 0x2012 <parse+0xced>
    4ffe: 85 8c        	sta	$8c                     ; 0x208c <parse+0xd67>
    5000: a6 8b        	ldx	$8b                     ; 0x208b <parse+0xd66>
    5002: 86 7c        	stx	$7c                     ; 0x207c <parse+0xd57>
    5004: 26 7c        	rol	$7c                     ; 0x207c <parse+0xd57>
    5006: a6 7d        	ldx	$7d                     ; 0x207d <parse+0xd58>
    5008: 86 72        	stx	$72                     ; 0x2072 <parse+0xd4d>
    500a: 26 72        	rol	$72                     ; 0x2072 <parse+0xd4d>
    500c: a6 80        	ldx	$80                     ; 0x2080 <parse+0xd5b>
    500e: 86 73        	stx	$73                     ; 0x2073 <parse+0xd4e>
    5010: 26 73        	rol	$73                     ; 0x2073 <parse+0xd4e>
    5012: a6 7e        	ldx	$7e                     ; 0x207e <parse+0xd59>
    5014: 86 74        	stx	$74                     ; 0x2074 <parse+0xd4f>
    5016: 26 74        	rol	$74                     ; 0x2074 <parse+0xd4f>
    5018: a6 8a        	ldx	$8a                     ; 0x208a <parse+0xd65>
    501a: 86 76        	stx	$76                     ; 0x2076 <parse+0xd51>
    501c: 26 76        	rol	$76                     ; 0x2076 <parse+0xd51>
    501e: a5 83        	lda	$83                     ; 0x2083 <parse+0xd5e>
    5020: 85 83        	sta	$83                     ; 0x2083 <parse+0xd5e>
    5022: 85 71        	sta	$71                     ; 0x2071 <parse+0xd4c>
    5024: 26 71        	rol	$71                     ; 0x2071 <parse+0xd4c>
    5026: a6 93        	ldx	$93                     ; 0x2093 <parse+0xd6e>
    5028: 86 77        	stx	$77                     ; 0x2077 <parse+0xd52>
    502a: 26 77        	rol	$77                     ; 0x2077 <parse+0xd52>
    502c: a5 12        	lda	$12                     ; 0x2012 <parse+0xced>
    502e: 29 fe        	and	#$fe
    5030: a6 79        	ldx	$79                     ; 0x2079 <parse+0xd54>
    5032: 86 12        	stx	$12                     ; 0x2012 <parse+0xced>
    5034: a6 7a        	ldx	$7a                     ; 0x207a <parse+0xd55>
    5036: 86 13        	stx	$13                     ; 0x2013 <parse+0xcee>
    5038: 64 14        	stz	$14                     ; 0x2014 <parse+0xcef>
    503a: 64 15        	stz	$15                     ; 0x2015 <parse+0xcf0>
    503c: 64 16        	stz	$16                     ; 0x2016 <parse+0xcf1>
    503e: 64 17        	stz	$17                     ; 0x2017 <parse+0xcf2>
    5040: 85 18        	sta	$18                     ; 0x2018 <parse+0xcf3>
    5042: 85 7b        	sta	$7b                     ; 0x207b <parse+0xd56>
    5044: a6 7c        	ldx	$7c                     ; 0x207c <parse+0xd57>
    5046: 86 19        	stx	$19                     ; 0x2019 <parse+0xcf4>
    5048: a6 72        	ldx	$72                     ; 0x2072 <parse+0xd4d>
    504a: 86 1a        	stx	$1a                     ; 0x201a <parse+0xcf5>
    504c: a6 73        	ldx	$73                     ; 0x2073 <parse+0xd4e>
    504e: 86 1b        	stx	$1b                     ; 0x201b <parse+0xcf6>
    5050: 64 1c        	stz	$1c                     ; 0x201c <parse+0xcf7>
    5052: 64 1d        	stz	$1d                     ; 0x201d <parse+0xcf8>
    5054: 64 1e        	stz	$1e                     ; 0x201e <parse+0xcf9>
    5056: 64 1f        	stz	$1f                     ; 0x201f <parse+0xcfa>
    5058: a6 22        	ldx	$22                     ; 0x2022 <parse+0xcfd>
    505a: 86 78        	stx	$78                     ; 0x2078 <parse+0xd53>
    505c: a5 75        	lda	$75                     ; 0x2075 <parse+0xd50>
    505e: 20 af 3b     	jsr	$3baf <__muldi3>
    5061: a6 14        	ldx	$14                     ; 0x2014 <parse+0xcef>
    5063: 86 99        	stx	$99                     ; 0x2099 <parse+0xd74>
    5065: a6 15        	ldx	$15                     ; 0x2015 <parse+0xcf0>
    5067: 86 98        	stx	$98                     ; 0x2098 <parse+0xd73>
    5069: a6 16        	ldx	$16                     ; 0x2016 <parse+0xcf1>
    506b: 86 97        	stx	$97                     ; 0x2097 <parse+0xd72>
    506d: a6 17        	ldx	$17                     ; 0x2017 <parse+0xcf2>
    506f: 86 96        	stx	$96                     ; 0x2096 <parse+0xd71>
    5071: a6 79        	ldx	$79                     ; 0x2079 <parse+0xd54>
    5073: 86 12        	stx	$12                     ; 0x2012 <parse+0xced>
    5075: a6 7a        	ldx	$7a                     ; 0x207a <parse+0xd55>
    5077: 86 13        	stx	$13                     ; 0x2013 <parse+0xcee>
    5079: 64 14        	stz	$14                     ; 0x2014 <parse+0xcef>
    507b: 64 15        	stz	$15                     ; 0x2015 <parse+0xcf0>
    507d: 64 16        	stz	$16                     ; 0x2016 <parse+0xcf1>
    507f: 64 17        	stz	$17                     ; 0x2017 <parse+0xcf2>
    5081: a6 74        	ldx	$74                     ; 0x2074 <parse+0xd4f>
    5083: 86 18        	stx	$18                     ; 0x2018 <parse+0xcf3>
    5085: a6 76        	ldx	$76                     ; 0x2076 <parse+0xd51>
    5087: 86 19        	stx	$19                     ; 0x2019 <parse+0xcf4>
    5089: a6 71        	ldx	$71                     ; 0x2071 <parse+0xd4c>
    508b: 86 1a        	stx	$1a                     ; 0x201a <parse+0xcf5>
    508d: a6 77        	ldx	$77                     ; 0x2077 <parse+0xd52>
    508f: 86 1b        	stx	$1b                     ; 0x201b <parse+0xcf6>
    5091: 64 1c        	stz	$1c                     ; 0x201c <parse+0xcf7>
    5093: 64 1d        	stz	$1d                     ; 0x201d <parse+0xcf8>
    5095: 64 1e        	stz	$1e                     ; 0x201e <parse+0xcf9>
    5097: 64 1f        	stz	$1f                     ; 0x201f <parse+0xcfa>
    5099: a6 78        	ldx	$78                     ; 0x2078 <parse+0xd53>
    509b: a5 75        	lda	$75                     ; 0x2075 <parse+0xd50>
    509d: 20 af 3b     	jsr	$3baf <__muldi3>
    50a0: 85 79        	sta	$79                     ; 0x2079 <parse+0xd54>
    50a2: 86 75        	stx	$75                     ; 0x2075 <parse+0xd50>
    50a4: a6 12        	ldx	$12                     ; 0x2012 <parse+0xced>
    50a6: 86 78        	stx	$78                     ; 0x2078 <parse+0xd53>
    50a8: a6 13        	ldx	$13                     ; 0x2013 <parse+0xcee>
    50aa: 86 9e        	stx	$9e                     ; 0x209e <parse+0xd79>
    50ac: a6 14        	ldx	$14                     ; 0x2014 <parse+0xcef>
    50ae: 86 9c        	stx	$9c                     ; 0x209c <parse+0xd77>
    50b0: a6 15        	ldx	$15                     ; 0x2015 <parse+0xcf0>
    50b2: 86 9b        	stx	$9b                     ; 0x209b <parse+0xd76>
    50b4: a6 16        	ldx	$16                     ; 0x2016 <parse+0xcf1>
    50b6: 86 9a        	stx	$9a                     ; 0x209a <parse+0xd75>
    50b8: a6 17        	ldx	$17                     ; 0x2017 <parse+0xcf2>
    50ba: 86 95        	stx	$95                     ; 0x2095 <parse+0xd70>
    50bc: a6 8f        	ldx	$8f                     ; 0x208f <parse+0xd6a>
    50be: 86 12        	stx	$12                     ; 0x2012 <parse+0xced>
    50c0: a6 90        	ldx	$90                     ; 0x2090 <parse+0xd6b>
    50c2: 86 13        	stx	$13                     ; 0x2013 <parse+0xcee>
    50c4: 64 14        	stz	$14                     ; 0x2014 <parse+0xcef>
    50c6: 64 15        	stz	$15                     ; 0x2015 <parse+0xcf0>
    50c8: 64 16        	stz	$16                     ; 0x2016 <parse+0xcf1>
    50ca: 64 17        	stz	$17                     ; 0x2017 <parse+0xcf2>
    50cc: a6 7b        	ldx	$7b                     ; 0x207b <parse+0xd56>
    50ce: 86 18        	stx	$18                     ; 0x2018 <parse+0xcf3>
    50d0: a6 7c        	ldx	$7c                     ; 0x207c <parse+0xd57>
    50d2: 86 19        	stx	$19                     ; 0x2019 <parse+0xcf4>
    50d4: a6 72        	ldx	$72                     ; 0x2072 <parse+0xd4d>
    50d6: 86 a3        	stx	$a3                     ; 0x20a3 <parse+0xd7e>
    50d8: a6 72        	ldx	$72                     ; 0x2072 <parse+0xd4d>
    50da: 86 1a        	stx	$1a                     ; 0x201a <parse+0xcf5>
    50dc: a6 73        	ldx	$73                     ; 0x2073 <parse+0xd4e>
    50de: 86 a2        	stx	$a2                     ; 0x20a2 <parse+0xd7d>
    50e0: a6 73        	ldx	$73                     ; 0x2073 <parse+0xd4e>
    50e2: 86 1b        	stx	$1b                     ; 0x201b <parse+0xcf6>
    50e4: 64 1c        	stz	$1c                     ; 0x201c <parse+0xcf7>
    50e6: 64 1d        	stz	$1d                     ; 0x201d <parse+0xcf8>
    50e8: 64 1e        	stz	$1e                     ; 0x201e <parse+0xcf9>
    50ea: 64 1f        	stz	$1f                     ; 0x201f <parse+0xcfa>
    50ec: a6 8e        	ldx	$8e                     ; 0x208e <parse+0xd69>
    50ee: a5 8d        	lda	$8d                     ; 0x208d <parse+0xd68>
    50f0: 20 af 3b     	jsr	$3baf <__muldi3>
    50f3: 85 7a        	sta	$7a                     ; 0x207a <parse+0xd55>
    50f5: 86 72        	stx	$72                     ; 0x2072 <parse+0xd4d>
    50f7: a6 12        	ldx	$12                     ; 0x2012 <parse+0xced>
    50f9: 86 7b        	stx	$7b                     ; 0x207b <parse+0xd56>
    50fb: a6 13        	ldx	$13                     ; 0x2013 <parse+0xcee>
    50fd: 86 73        	stx	$73                     ; 0x2073 <parse+0xd4e>
    50ff: a6 14        	ldx	$14                     ; 0x2014 <parse+0xcef>
    5101: 86 a0        	stx	$a0                     ; 0x20a0 <parse+0xd7b>
    5103: a6 15        	ldx	$15                     ; 0x2015 <parse+0xcf0>
    5105: 86 9f        	stx	$9f                     ; 0x209f <parse+0xd7a>
    5107: a6 16        	ldx	$16                     ; 0x2016 <parse+0xcf1>
    5109: 86 a1        	stx	$a1                     ; 0x20a1 <parse+0xd7c>
    510b: a6 17        	ldx	$17                     ; 0x2017 <parse+0xcf2>
    510d: 86 9d        	stx	$9d                     ; 0x209d <parse+0xd78>
    510f: a6 8f        	ldx	$8f                     ; 0x208f <parse+0xd6a>
    5111: 86 12        	stx	$12                     ; 0x2012 <parse+0xced>
    5113: a6 90        	ldx	$90                     ; 0x2090 <parse+0xd6b>
    5115: 86 13        	stx	$13                     ; 0x2013 <parse+0xcee>
    5117: 64 14        	stz	$14                     ; 0x2014 <parse+0xcef>
    5119: 64 15        	stz	$15                     ; 0x2015 <parse+0xcf0>
    511b: 64 16        	stz	$16                     ; 0x2016 <parse+0xcf1>
    511d: 64 17        	stz	$17                     ; 0x2017 <parse+0xcf2>
    511f: a6 74        	ldx	$74                     ; 0x2074 <parse+0xd4f>
    5121: 86 a4        	stx	$a4                     ; 0x20a4 <parse+0xd7f>
    5123: a6 74        	ldx	$74                     ; 0x2074 <parse+0xd4f>
    5125: 86 18        	stx	$18                     ; 0x2018 <parse+0xcf3>
    5127: a6 76        	ldx	$76                     ; 0x2076 <parse+0xd51>
    5129: 86 8f        	stx	$8f                     ; 0x208f <parse+0xd6a>
    512b: a6 76        	ldx	$76                     ; 0x2076 <parse+0xd51>
    512d: 86 19        	stx	$19                     ; 0x2019 <parse+0xcf4>
    512f: a6 71        	ldx	$71                     ; 0x2071 <parse+0xd4c>
    5131: 86 90        	stx	$90                     ; 0x2090 <parse+0xd6b>
    5133: a6 71        	ldx	$71                     ; 0x2071 <parse+0xd4c>
    5135: 86 1a        	stx	$1a                     ; 0x201a <parse+0xcf5>
    5137: a6 77        	ldx	$77                     ; 0x2077 <parse+0xd52>
    5139: 86 a5        	stx	$a5                     ; 0x20a5 <parse+0xd80>
    513b: a6 77        	ldx	$77                     ; 0x2077 <parse+0xd52>
    513d: 86 1b        	stx	$1b                     ; 0x201b <parse+0xcf6>
    513f: 64 1c        	stz	$1c                     ; 0x201c <parse+0xcf7>
    5141: 64 1d        	stz	$1d                     ; 0x201d <parse+0xcf8>
    5143: 64 1e        	stz	$1e                     ; 0x201e <parse+0xcf9>
    5145: 64 1f        	stz	$1f                     ; 0x201f <parse+0xcfa>
    5147: a6 8e        	ldx	$8e                     ; 0x208e <parse+0xd69>
    5149: a5 8d        	lda	$8d                     ; 0x208d <parse+0xd68>
    514b: 20 af 3b     	jsr	$3baf <__muldi3>
    514e: a4 7c        	ldy	$7c                     ; 0x207c <parse+0xd57>
    5150: 84 18        	sty	$18                     ; 0x2018 <parse+0xcf3>
    5152: 85 22        	sta	$22                     ; 0x2022 <parse+0xcfd>
    5154: a4 8c        	ldy	$8c                     ; 0x208c <parse+0xd67>
    5156: 84 19        	sty	$19                     ; 0x2019 <parse+0xcf4>
    5158: 86 1f        	stx	$1f                     ; 0x201f <parse+0xcfa>
    515a: 18           	clc
    515b: a6 99        	ldx	$99                     ; 0x2099 <parse+0xd74>
    515d: 86 1a        	stx	$1a                     ; 0x201a <parse+0xcf5>
    515f: a5 79        	lda	$79                     ; 0x2079 <parse+0xd54>
    5161: 65 1a        	adc	$1a                     ; 0x201a <parse+0xcf5>
    5163: 85 1e        	sta	$1e                     ; 0x201e <parse+0xcf9>
    5165: a6 98        	ldx	$98                     ; 0x2098 <parse+0xd73>
    5167: 86 1a        	stx	$1a                     ; 0x201a <parse+0xcf5>
    5169: a5 75        	lda	$75                     ; 0x2075 <parse+0xd50>
    516b: 65 1a        	adc	$1a                     ; 0x201a <parse+0xcf5>
    516d: 85 1d        	sta	$1d                     ; 0x201d <parse+0xcf8>
    516f: a5 97        	lda	$97                     ; 0x2097 <parse+0xd72>
    5171: 65 78        	adc	$78                     ; 0x2078 <parse+0xd53>
    5173: 85 1c        	sta	$1c                     ; 0x201c <parse+0xcf7>
    5175: a5 96        	lda	$96                     ; 0x2096 <parse+0xd71>
    5177: a6 9e        	ldx	$9e                     ; 0x209e <parse+0xd79>
    5179: 86 1a        	stx	$1a                     ; 0x201a <parse+0xcf5>
    517b: 65 1a        	adc	$1a                     ; 0x201a <parse+0xcf5>
    517d: 85 1b        	sta	$1b                     ; 0x201b <parse+0xcf6>
    517f: a9 00        	lda	#$0
    5181: 69 00        	adc	#$0
    5183: 85 71        	sta	$71                     ; 0x2071 <parse+0xd4c>
    5185: a9 00        	lda	#$0
    5187: 69 00        	adc	#$0
    5189: 85 23        	sta	$23                     ; 0x2023 <parse+0xcfe>
    518b: a9 00        	lda	#$0
    518d: 69 00        	adc	#$0
    518f: a8           	tay
    5190: a9 00        	lda	#$0
    5192: 69 00        	adc	#$0
    5194: aa           	tax
    5195: a5 7a        	lda	$7a                     ; 0x207a <parse+0xd55>
    5197: 29 fe        	and	#$fe
    5199: 85 1a        	sta	$1a                     ; 0x201a <parse+0xcf5>
    519b: 18           	clc
    519c: a5 1e        	lda	$1e                     ; 0x201e <parse+0xcf9>
    519e: 65 1a        	adc	$1a                     ; 0x201a <parse+0xcf5>
    51a0: a5 1d        	lda	$1d                     ; 0x201d <parse+0xcf8>
    51a2: 65 72        	adc	$72                     ; 0x2072 <parse+0xd4d>
    51a4: a5 1c        	lda	$1c                     ; 0x201c <parse+0xcf7>
    51a6: 65 7b        	adc	$7b                     ; 0x207b <parse+0xd56>
    51a8: a5 1b        	lda	$1b                     ; 0x201b <parse+0xcf6>
    51aa: 65 73        	adc	$73                     ; 0x2073 <parse+0xd4e>
    51ac: a5 71        	lda	$71                     ; 0x2071 <parse+0xd4c>
    51ae: 69 00        	adc	#$0
    51b0: 85 1a        	sta	$1a                     ; 0x201a <parse+0xcf5>
    51b2: a5 23        	lda	$23                     ; 0x2023 <parse+0xcfe>
    51b4: 69 00        	adc	#$0
    51b6: 85 1b        	sta	$1b                     ; 0x201b <parse+0xcf6>
    51b8: 98           	tya
    51b9: 69 00        	adc	#$0
    51bb: 85 1c        	sta	$1c                     ; 0x201c <parse+0xcf7>
    51bd: 8a           	txa
    51be: 69 00        	adc	#$0
    51c0: 85 1d        	sta	$1d                     ; 0x201d <parse+0xcf8>
    51c2: 18           	clc
    51c3: a5 22        	lda	$22                     ; 0x2022 <parse+0xcfd>
    51c5: a6 a0        	ldx	$a0                     ; 0x20a0 <parse+0xd7b>
    51c7: 86 1e        	stx	$1e                     ; 0x201e <parse+0xcf9>
    51c9: 65 1e        	adc	$1e                     ; 0x201e <parse+0xcf9>
    51cb: 85 22        	sta	$22                     ; 0x2022 <parse+0xcfd>
    51cd: a5 1f        	lda	$1f                     ; 0x201f <parse+0xcfa>
    51cf: a6 9f        	ldx	$9f                     ; 0x209f <parse+0xd7a>
    51d1: 86 1e        	stx	$1e                     ; 0x201e <parse+0xcf9>
    51d3: 65 1e        	adc	$1e                     ; 0x201e <parse+0xcf9>
    51d5: 85 1e        	sta	$1e                     ; 0x201e <parse+0xcf9>
    51d7: a5 a1        	lda	$a1                     ; 0x20a1 <parse+0xd7c>
    51d9: 65 12        	adc	$12                     ; 0x2012 <parse+0xced>
    51db: 85 1f        	sta	$1f                     ; 0x201f <parse+0xcfa>
    51dd: a5 9d        	lda	$9d                     ; 0x209d <parse+0xd78>
    51df: 65 13        	adc	$13                     ; 0x2013 <parse+0xcee>
    51e1: 85 13        	sta	$13                     ; 0x2013 <parse+0xcee>
    51e3: a9 00        	lda	#$0
    51e5: 65 14        	adc	$14                     ; 0x2014 <parse+0xcef>
    51e7: 85 71        	sta	$71                     ; 0x2071 <parse+0xd4c>
    51e9: a9 00        	lda	#$0
    51eb: 65 15        	adc	$15                     ; 0x2015 <parse+0xcf0>
    51ed: 85 23        	sta	$23                     ; 0x2023 <parse+0xcfe>
    51ef: a9 00        	lda	#$0
    51f1: 65 16        	adc	$16                     ; 0x2016 <parse+0xcf1>
    51f3: 85 16        	sta	$16                     ; 0x2016 <parse+0xcf1>
    51f5: a9 00        	lda	#$0
    51f7: 65 17        	adc	$17                     ; 0x2017 <parse+0xcf2>
    51f9: 85 17        	sta	$17                     ; 0x2017 <parse+0xcf2>
    51fb: 18           	clc
    51fc: a5 22        	lda	$22                     ; 0x2022 <parse+0xcfd>
    51fe: a6 9c        	ldx	$9c                     ; 0x209c <parse+0xd77>
    5200: 86 12        	stx	$12                     ; 0x2012 <parse+0xced>
    5202: 65 12        	adc	$12                     ; 0x2012 <parse+0xced>
    5204: 85 14        	sta	$14                     ; 0x2014 <parse+0xcef>
    5206: a6 9b        	ldx	$9b                     ; 0x209b <parse+0xd76>
    5208: 86 12        	stx	$12                     ; 0x2012 <parse+0xced>
    520a: a5 1e        	lda	$1e                     ; 0x201e <parse+0xcf9>
    520c: 65 12        	adc	$12                     ; 0x2012 <parse+0xced>
    520e: a8           	tay
    520f: a6 9a        	ldx	$9a                     ; 0x209a <parse+0xd75>
    5211: 86 12        	stx	$12                     ; 0x2012 <parse+0xced>
    5213: a5 1f        	lda	$1f                     ; 0x201f <parse+0xcfa>
    5215: 65 12        	adc	$12                     ; 0x2012 <parse+0xced>
    5217: 85 15        	sta	$15                     ; 0x2015 <parse+0xcf0>
    5219: a6 95        	ldx	$95                     ; 0x2095 <parse+0xd70>
    521b: 86 12        	stx	$12                     ; 0x2012 <parse+0xced>
    521d: a5 13        	lda	$13                     ; 0x2013 <parse+0xcee>
    521f: 65 12        	adc	$12                     ; 0x2012 <parse+0xced>
    5221: 85 12        	sta	$12                     ; 0x2012 <parse+0xced>
    5223: a5 71        	lda	$71                     ; 0x2071 <parse+0xd4c>
    5225: 69 00        	adc	#$0
    5227: aa           	tax
    5228: a5 23        	lda	$23                     ; 0x2023 <parse+0xcfe>
    522a: 69 00        	adc	#$0
    522c: 85 1e        	sta	$1e                     ; 0x201e <parse+0xcf9>
    522e: a5 16        	lda	$16                     ; 0x2016 <parse+0xcf1>
    5230: 69 00        	adc	#$0
    5232: 85 13        	sta	$13                     ; 0x2013 <parse+0xcee>
    5234: a5 17        	lda	$17                     ; 0x2017 <parse+0xcf2>
    5236: 69 00        	adc	#$0
    5238: 85 16        	sta	$16                     ; 0x2016 <parse+0xcf1>
    523a: 18           	clc
    523b: a5 14        	lda	$14                     ; 0x2014 <parse+0xcef>
    523d: 65 1a        	adc	$1a                     ; 0x201a <parse+0xcf5>
    523f: 85 71        	sta	$71                     ; 0x2071 <parse+0xd4c>
    5241: 98           	tya
    5242: 65 1b        	adc	$1b                     ; 0x201b <parse+0xcf6>
    5244: 85 72        	sta	$72                     ; 0x2072 <parse+0xd4d>
    5246: a5 15        	lda	$15                     ; 0x2015 <parse+0xcf0>
    5248: 65 1c        	adc	$1c                     ; 0x201c <parse+0xcf7>
    524a: 85 7a        	sta	$7a                     ; 0x207a <parse+0xd55>
    524c: a5 12        	lda	$12                     ; 0x2012 <parse+0xced>
    524e: 65 1d        	adc	$1d                     ; 0x201d <parse+0xcf8>
    5250: 85 79        	sta	$79                     ; 0x2079 <parse+0xd54>
    5252: 8a           	txa
    5253: 69 00        	adc	#$0
    5255: 85 73        	sta	$73                     ; 0x2073 <parse+0xd4e>
    5257: a5 1e        	lda	$1e                     ; 0x201e <parse+0xcf9>
    5259: 69 00        	adc	#$0
    525b: 85 77        	sta	$77                     ; 0x2077 <parse+0xd52>
    525d: a5 13        	lda	$13                     ; 0x2013 <parse+0xcee>
    525f: 69 00        	adc	#$0
    5261: aa           	tax
    5262: a5 16        	lda	$16                     ; 0x2016 <parse+0xcf1>
    5264: 69 00        	adc	#$0
    5266: 85 14        	sta	$14                     ; 0x2014 <parse+0xcef>
    5268: a4 19        	ldy	$19                     ; 0x2019 <parse+0xcf4>
    526a: 84 78        	sty	$78                     ; 0x2078 <parse+0xd53>
    526c: 06 78        	asl	$78                     ; 0x2078 <parse+0xd53>
    526e: a4 7c        	ldy	$7c                     ; 0x207c <parse+0xd57>
    5270: 84 12        	sty	$12                     ; 0x2012 <parse+0xced>
    5272: 26 12        	rol	$12                     ; 0x2012 <parse+0xced>
    5274: 06 78        	asl	$78                     ; 0x2078 <parse+0xd53>
    5276: 26 12        	rol	$12                     ; 0x2012 <parse+0xced>
    5278: 06 78        	asl	$78                     ; 0x2078 <parse+0xd53>
    527a: 26 12        	rol	$12                     ; 0x2012 <parse+0xced>
    527c: a4 12        	ldy	$12                     ; 0x2012 <parse+0xced>
    527e: 84 74        	sty	$74                     ; 0x2074 <parse+0xd4f>
    5280: 8a           	txa
    5281: a6 14        	ldx	$14                     ; 0x2014 <parse+0xcef>
    5283: 85 76        	sta	$76                     ; 0x2076 <parse+0xd51>
    5285: 86 7c        	stx	$7c                     ; 0x207c <parse+0xd57>
    5287: d0 33        	bne	$52bc <__divdf3+0x14a6>
    5289: c9 20        	cmp	#$20
    528b: d0 33        	bne	$52c0 <__divdf3+0x14aa>
    528d: a4 89        	ldy	$89                     ; 0x2089 <parse+0xd64>
    528f: a5 7f        	lda	$7f                     ; 0x207f <parse+0xd5a>
    5291: 85 1a        	sta	$1a                     ; 0x201a <parse+0xcf5>
    5293: a5 77        	lda	$77                     ; 0x2077 <parse+0xd52>
    5295: f0 03        	beq	$529a <__divdf3+0x1484>
    5297: 4c 88 53     	jmp	$5388 <__divdf3+0x1572>
    529a: a5 72        	lda	$72                     ; 0x2072 <parse+0xd4d>
    529c: a6 73        	ldx	$73                     ; 0x2073 <parse+0xd4e>
    529e: f0 03        	beq	$52a3 <__divdf3+0x148d>
    52a0: 4c 8f 53     	jmp	$538f <__divdf3+0x1579>
    52a3: a6 79        	ldx	$79                     ; 0x2079 <parse+0xd54>
    52a5: f0 03        	beq	$52aa <__divdf3+0x1494>
    52a7: 4c 93 53     	jmp	$5393 <__divdf3+0x157d>
    52aa: a6 7a        	ldx	$7a                     ; 0x207a <parse+0xd55>
    52ac: f0 03        	beq	$52b1 <__divdf3+0x149b>
    52ae: 4c a3 53     	jmp	$53a3 <__divdf3+0x158d>
    52b1: aa           	tax
    52b2: f0 03        	beq	$52b7 <__divdf3+0x14a1>
    52b4: 4c 76 57     	jmp	$5776 <__divdf3+0x1960>
    52b7: a6 71        	ldx	$71                     ; 0x2071 <parse+0xd4c>
    52b9: 4c a5 53     	jmp	$53a5 <__divdf3+0x158f>
    52bc: e0 00        	cpx	#$0
    52be: 80 02        	bra	$52c2 <__divdf3+0x14ac>
    52c0: c9 20        	cmp	#$20
    52c2: a4 89        	ldy	$89                     ; 0x2089 <parse+0xd64>
    52c4: a5 7f        	lda	$7f                     ; 0x207f <parse+0xd5a>
    52c6: 85 1a        	sta	$1a                     ; 0x201a <parse+0xcf5>
    52c8: a5 72        	lda	$72                     ; 0x2072 <parse+0xd4d>
    52ca: b0 03        	bcs	$52cf <__divdf3+0x14b9>
    52cc: 4c ac 53     	jmp	$53ac <__divdf3+0x1596>
    52cf: 18           	clc
    52d0: a6 85        	ldx	$85                     ; 0x2085 <parse+0xd60>
    52d2: 85 22        	sta	$22                     ; 0x2022 <parse+0xcfd>
    52d4: 8a           	txa
    52d5: 69 ff        	adc	#$ff
    52d7: 85 75        	sta	$75                     ; 0x2075 <parse+0xd50>
    52d9: a6 84        	ldx	$84                     ; 0x2084 <parse+0xd5f>
    52db: 8a           	txa
    52dc: 69 03        	adc	#$3
    52de: 85 7b        	sta	$7b                     ; 0x207b <parse+0xd56>
    52e0: a6 7c        	ldx	$7c                     ; 0x207c <parse+0xd57>
    52e2: 86 17        	stx	$17                     ; 0x2017 <parse+0xcf2>
    52e4: 46 17        	lsr	$17                     ; 0x2017 <parse+0xcf2>
    52e6: a6 76        	ldx	$76                     ; 0x2076 <parse+0xd51>
    52e8: 86 16        	stx	$16                     ; 0x2016 <parse+0xcf1>
    52ea: 66 16        	ror	$16                     ; 0x2016 <parse+0xcf1>
    52ec: a6 77        	ldx	$77                     ; 0x2077 <parse+0xd52>
    52ee: 86 15        	stx	$15                     ; 0x2015 <parse+0xcf0>
    52f0: 66 15        	ror	$15                     ; 0x2015 <parse+0xcf0>
    52f2: a6 73        	ldx	$73                     ; 0x2073 <parse+0xd4e>
    52f4: 86 14        	stx	$14                     ; 0x2014 <parse+0xcef>
    52f6: 66 14        	ror	$14                     ; 0x2014 <parse+0xcef>
    52f8: a6 79        	ldx	$79                     ; 0x2079 <parse+0xd54>
    52fa: 86 13        	stx	$13                     ; 0x2013 <parse+0xcee>
    52fc: 66 13        	ror	$13                     ; 0x2013 <parse+0xcee>
    52fe: a6 7a        	ldx	$7a                     ; 0x207a <parse+0xd55>
    5300: 86 12        	stx	$12                     ; 0x2012 <parse+0xced>
    5302: 66 12        	ror	$12                     ; 0x2012 <parse+0xced>
    5304: 66 22        	ror	$22                     ; 0x2022 <parse+0xcfd>
    5306: a5 71        	lda	$71                     ; 0x2071 <parse+0xd4c>
    5308: 6a           	ror
    5309: a6 12        	ldx	$12                     ; 0x2012 <parse+0xced>
    530b: 86 7a        	stx	$7a                     ; 0x207a <parse+0xd55>
    530d: a6 13        	ldx	$13                     ; 0x2013 <parse+0xcee>
    530f: 86 79        	stx	$79                     ; 0x2079 <parse+0xd54>
    5311: a6 14        	ldx	$14                     ; 0x2014 <parse+0xcef>
    5313: 86 73        	stx	$73                     ; 0x2073 <parse+0xd4e>
    5315: a6 15        	ldx	$15                     ; 0x2015 <parse+0xcf0>
    5317: 86 77        	stx	$77                     ; 0x2077 <parse+0xd52>
    5319: a6 16        	ldx	$16                     ; 0x2016 <parse+0xcf1>
    531b: 86 76        	stx	$76                     ; 0x2076 <parse+0xd51>
    531d: a6 17        	ldx	$17                     ; 0x2017 <parse+0xcf2>
    531f: 86 7c        	stx	$7c                     ; 0x207c <parse+0xd57>
    5321: 84 18        	sty	$18                     ; 0x2018 <parse+0xcf3>
    5323: a6 88        	ldx	$88                     ; 0x2088 <parse+0xd63>
    5325: 86 19        	stx	$19                     ; 0x2019 <parse+0xcf4>
    5327: a6 81        	ldx	$81                     ; 0x2081 <parse+0xd5c>
    5329: 86 1b        	stx	$1b                     ; 0x201b <parse+0xcf6>
    532b: a6 91        	ldx	$91                     ; 0x2091 <parse+0xd6c>
    532d: 86 1c        	stx	$1c                     ; 0x201c <parse+0xcf7>
    532f: a6 87        	ldx	$87                     ; 0x2087 <parse+0xd62>
    5331: 86 1d        	stx	$1d                     ; 0x201d <parse+0xcf8>
    5333: a6 94        	ldx	$94                     ; 0x2094 <parse+0xd6f>
    5335: 86 1e        	stx	$1e                     ; 0x201e <parse+0xcf9>
    5337: a6 92        	ldx	$92                     ; 0x2092 <parse+0xd6d>
    5339: 86 1f        	stx	$1f                     ; 0x201f <parse+0xcfa>
    533b: a6 22        	ldx	$22                     ; 0x2022 <parse+0xcfd>
    533d: 86 72        	stx	$72                     ; 0x2072 <parse+0xd4d>
    533f: a6 22        	ldx	$22                     ; 0x2022 <parse+0xcfd>
    5341: 85 71        	sta	$71                     ; 0x2071 <parse+0xd4c>
    5343: 20 af 3b     	jsr	$3baf <__muldi3>
    5346: 85 18        	sta	$18                     ; 0x2018 <parse+0xcf3>
    5348: a4 7b        	ldy	$7b                     ; 0x207b <parse+0xd56>
    534a: 86 19        	stx	$19                     ; 0x2019 <parse+0xcf4>
    534c: 38           	sec
    534d: a9 00        	lda	#$0
    534f: e5 18        	sbc	$18                     ; 0x2018 <parse+0xcf3>
    5351: 85 1a        	sta	$1a                     ; 0x201a <parse+0xcf5>
    5353: a9 00        	lda	#$0
    5355: e5 19        	sbc	$19                     ; 0x2019 <parse+0xcf4>
    5357: 85 1b        	sta	$1b                     ; 0x201b <parse+0xcf6>
    5359: a9 00        	lda	#$0
    535b: e5 12        	sbc	$12                     ; 0x2012 <parse+0xced>
    535d: 85 1c        	sta	$1c                     ; 0x201c <parse+0xcf7>
    535f: a9 00        	lda	#$0
    5361: e5 13        	sbc	$13                     ; 0x2013 <parse+0xcee>
    5363: 85 1d        	sta	$1d                     ; 0x201d <parse+0xcf8>
    5365: a9 00        	lda	#$0
    5367: e5 14        	sbc	$14                     ; 0x2014 <parse+0xcef>
    5369: 85 1e        	sta	$1e                     ; 0x201e <parse+0xcf9>
    536b: a9 00        	lda	#$0
    536d: e5 15        	sbc	$15                     ; 0x2015 <parse+0xcf0>
    536f: 85 14        	sta	$14                     ; 0x2014 <parse+0xcef>
    5371: a5 78        	lda	$78                     ; 0x2078 <parse+0xd53>
    5373: e5 16        	sbc	$16                     ; 0x2016 <parse+0xcf1>
    5375: 85 18        	sta	$18                     ; 0x2018 <parse+0xcf3>
    5377: a5 74        	lda	$74                     ; 0x2074 <parse+0xd4f>
    5379: e5 17        	sbc	$17                     ; 0x2017 <parse+0xcf2>
    537b: 85 16        	sta	$16                     ; 0x2016 <parse+0xcf1>
    537d: a6 75        	ldx	$75                     ; 0x2075 <parse+0xd50>
    537f: 86 12        	stx	$12                     ; 0x2012 <parse+0xced>
    5381: a6 93        	ldx	$93                     ; 0x2093 <parse+0xd6e>
    5383: 86 17        	stx	$17                     ; 0x2017 <parse+0xcf2>
    5385: 4c 55 54     	jmp	$5455 <__divdf3+0x163f>
    5388: a6 77        	ldx	$77                     ; 0x2077 <parse+0xd52>
    538a: e0 00        	cpx	#$0
    538c: 4c c8 52     	jmp	$52c8 <__divdf3+0x14b2>
    538f: a6 73        	ldx	$73                     ; 0x2073 <parse+0xd4e>
    5391: 80 12        	bra	$53a5 <__divdf3+0x158f>
    5393: a6 79        	ldx	$79                     ; 0x2079 <parse+0xd54>
    5395: 80 0e        	bra	$53a5 <__divdf3+0x158f>
    5397: 86 88        	stx	$88                     ; 0x2088 <parse+0xd63>
    5399: c0 00        	cpy	#$0
    539b: 90 03        	bcc	$53a0 <__divdf3+0x158a>
    539d: 4c ca 46     	jmp	$46ca <__divdf3+0x8b4>
    53a0: 4c d9 46     	jmp	$46d9 <__divdf3+0x8c3>
    53a3: a6 7a        	ldx	$7a                     ; 0x207a <parse+0xd55>
    53a5: e0 00        	cpx	#$0
    53a7: 90 03        	bcc	$53ac <__divdf3+0x1596>
    53a9: 4c cf 52     	jmp	$52cf <__divdf3+0x14b9>
    53ac: a6 19        	ldx	$19                     ; 0x2019 <parse+0xcf4>
    53ae: 86 8c        	stx	$8c                     ; 0x208c <parse+0xd67>
    53b0: a6 18        	ldx	$18                     ; 0x2018 <parse+0xcf3>
    53b2: 86 7d        	stx	$7d                     ; 0x207d <parse+0xd58>
    53b4: 06 78        	asl	$78                     ; 0x2078 <parse+0xd53>
    53b6: 26 74        	rol	$74                     ; 0x2074 <parse+0xd4f>
    53b8: a6 7a        	ldx	$7a                     ; 0x207a <parse+0xd55>
    53ba: 86 12        	stx	$12                     ; 0x2012 <parse+0xced>
    53bc: a6 79        	ldx	$79                     ; 0x2079 <parse+0xd54>
    53be: 86 13        	stx	$13                     ; 0x2013 <parse+0xcee>
    53c0: a6 73        	ldx	$73                     ; 0x2073 <parse+0xd4e>
    53c2: 86 14        	stx	$14                     ; 0x2014 <parse+0xcef>
    53c4: a6 77        	ldx	$77                     ; 0x2077 <parse+0xd52>
    53c6: 86 15        	stx	$15                     ; 0x2015 <parse+0xcf0>
    53c8: a6 76        	ldx	$76                     ; 0x2076 <parse+0xd51>
    53ca: 86 16        	stx	$16                     ; 0x2016 <parse+0xcf1>
    53cc: a6 7c        	ldx	$7c                     ; 0x207c <parse+0xd57>
    53ce: 86 17        	stx	$17                     ; 0x2017 <parse+0xcf2>
    53d0: 84 18        	sty	$18                     ; 0x2018 <parse+0xcf3>
    53d2: a6 88        	ldx	$88                     ; 0x2088 <parse+0xd63>
    53d4: 86 19        	stx	$19                     ; 0x2019 <parse+0xcf4>
    53d6: a6 81        	ldx	$81                     ; 0x2081 <parse+0xd5c>
    53d8: 86 1b        	stx	$1b                     ; 0x201b <parse+0xcf6>
    53da: a6 91        	ldx	$91                     ; 0x2091 <parse+0xd6c>
    53dc: 86 1c        	stx	$1c                     ; 0x201c <parse+0xcf7>
    53de: a6 87        	ldx	$87                     ; 0x2087 <parse+0xd62>
    53e0: 86 1d        	stx	$1d                     ; 0x201d <parse+0xcf8>
    53e2: a6 94        	ldx	$94                     ; 0x2094 <parse+0xd6f>
    53e4: 86 1e        	stx	$1e                     ; 0x201e <parse+0xcf9>
    53e6: a6 92        	ldx	$92                     ; 0x2092 <parse+0xd6d>
    53e8: 86 1f        	stx	$1f                     ; 0x201f <parse+0xcfa>
    53ea: aa           	tax
    53eb: a5 71        	lda	$71                     ; 0x2071 <parse+0xd4c>
    53ed: 20 af 3b     	jsr	$3baf <__muldi3>
    53f0: 85 18        	sta	$18                     ; 0x2018 <parse+0xcf3>
    53f2: 86 19        	stx	$19                     ; 0x2019 <parse+0xcf4>
    53f4: 38           	sec
    53f5: a9 00        	lda	#$0
    53f7: e5 18        	sbc	$18                     ; 0x2018 <parse+0xcf3>
    53f9: 85 1a        	sta	$1a                     ; 0x201a <parse+0xcf5>
    53fb: a9 00        	lda	#$0
    53fd: e5 19        	sbc	$19                     ; 0x2019 <parse+0xcf4>
    53ff: 85 1b        	sta	$1b                     ; 0x201b <parse+0xcf6>
    5401: a9 00        	lda	#$0
    5403: e5 12        	sbc	$12                     ; 0x2012 <parse+0xced>
    5405: 85 1c        	sta	$1c                     ; 0x201c <parse+0xcf7>
    5407: a9 00        	lda	#$0
    5409: e5 13        	sbc	$13                     ; 0x2013 <parse+0xcee>
    540b: 85 1d        	sta	$1d                     ; 0x201d <parse+0xcf8>
    540d: a9 00        	lda	#$0
    540f: e5 14        	sbc	$14                     ; 0x2014 <parse+0xcef>
    5411: 85 1e        	sta	$1e                     ; 0x201e <parse+0xcf9>
    5413: a9 00        	lda	#$0
    5415: e5 15        	sbc	$15                     ; 0x2015 <parse+0xcf0>
    5417: 85 14        	sta	$14                     ; 0x2014 <parse+0xcef>
    5419: a5 78        	lda	$78                     ; 0x2078 <parse+0xd53>
    541b: e5 16        	sbc	$16                     ; 0x2016 <parse+0xcf1>
    541d: 85 18        	sta	$18                     ; 0x2018 <parse+0xcf3>
    541f: a5 74        	lda	$74                     ; 0x2074 <parse+0xd4f>
    5421: e5 17        	sbc	$17                     ; 0x2017 <parse+0xcf2>
    5423: 85 16        	sta	$16                     ; 0x2016 <parse+0xcf1>
    5425: a5 85        	lda	$85                     ; 0x2085 <parse+0xd60>
    5427: 18           	clc
    5428: 69 fe        	adc	#$fe
    542a: 85 13        	sta	$13                     ; 0x2013 <parse+0xcee>
    542c: a5 84        	lda	$84                     ; 0x2084 <parse+0xd5f>
    542e: 69 03        	adc	#$3
    5430: a8           	tay
    5431: a6 13        	ldx	$13                     ; 0x2013 <parse+0xcee>
    5433: 86 12        	stx	$12                     ; 0x2012 <parse+0xced>
    5435: a6 8c        	ldx	$8c                     ; 0x208c <parse+0xd67>
    5437: 86 82        	stx	$82                     ; 0x2082 <parse+0xd5d>
    5439: a6 a5        	ldx	$a5                     ; 0x20a5 <parse+0xd80>
    543b: 86 17        	stx	$17                     ; 0x2017 <parse+0xcf2>
    543d: a6 7d        	ldx	$7d                     ; 0x207d <parse+0xd58>
    543f: 86 8b        	stx	$8b                     ; 0x208b <parse+0xd66>
    5441: a6 a3        	ldx	$a3                     ; 0x20a3 <parse+0xd7e>
    5443: 86 7d        	stx	$7d                     ; 0x207d <parse+0xd58>
    5445: a6 a2        	ldx	$a2                     ; 0x20a2 <parse+0xd7d>
    5447: 86 80        	stx	$80                     ; 0x2080 <parse+0xd5b>
    5449: a6 a4        	ldx	$a4                     ; 0x20a4 <parse+0xd7f>
    544b: 86 7e        	stx	$7e                     ; 0x207e <parse+0xd59>
    544d: a6 8f        	ldx	$8f                     ; 0x208f <parse+0xd6a>
    544f: 86 8a        	stx	$8a                     ; 0x208a <parse+0xd65>
    5451: a6 90        	ldx	$90                     ; 0x2090 <parse+0xd6b>
    5453: 86 83        	stx	$83                     ; 0x2083 <parse+0xd5e>
    5455: a6 12        	ldx	$12                     ; 0x2012 <parse+0xced>
    5457: e0 ff        	cpx	#$ff
    5459: 98           	tya
    545a: 84 13        	sty	$13                     ; 0x2013 <parse+0xcee>
    545c: e9 07        	sbc	#$7
    545e: 50 02        	bvc	$5462 <__divdf3+0x164c>
    5460: 49 80        	eor	#$80
    5462: a4 89        	ldy	$89                     ; 0x2089 <parse+0xd64>
    5464: aa           	tax
    5465: 30 15        	bmi	$547c <__divdf3+0x1666>
    5467: a5 86        	lda	$86                     ; 0x2086 <parse+0xd61>
    5469: 09 7f        	ora	#$7f
    546b: 64 74        	stz	$74                     ; 0x2074 <parse+0xd4f>
    546d: a2 00        	ldx	#$0
    546f: 64 19        	stz	$19                     ; 0x2019 <parse+0xcf4>
    5471: 64 13        	stz	$13                     ; 0x2013 <parse+0xcee>
    5473: 64 14        	stz	$14                     ; 0x2014 <parse+0xcef>
    5475: 64 15        	stz	$15                     ; 0x2015 <parse+0xcf0>
    5477: a0 f0        	ldy	#$f0
    5479: 4c 40 57     	jmp	$5740 <__divdf3+0x192a>
    547c: a6 12        	ldx	$12                     ; 0x2012 <parse+0xced>
    547e: e0 01        	cpx	#$1
    5480: a5 13        	lda	$13                     ; 0x2013 <parse+0xcee>
    5482: e9 00        	sbc	#$0
    5484: 50 02        	bvc	$5488 <__divdf3+0x1672>
    5486: 49 80        	eor	#$80
    5488: a6 88        	ldx	$88                     ; 0x2088 <parse+0xd63>
    548a: 86 1f        	stx	$1f                     ; 0x201f <parse+0xcfa>
    548c: a6 92        	ldx	$92                     ; 0x2092 <parse+0xd6d>
    548e: c9 00        	cmp	#$0
    5490: 10 03        	bpl	$5495 <__divdf3+0x167f>
    5492: 4c fa 54     	jmp	$54fa <__divdf3+0x16e4>
    5495: a5 76        	lda	$76                     ; 0x2076 <parse+0xd51>
    5497: 29 0f        	and	#$f
    5499: 85 15        	sta	$15                     ; 0x2015 <parse+0xcf0>
    549b: a5 12        	lda	$12                     ; 0x2012 <parse+0xced>
    549d: 0a           	asl
    549e: 5a           	phy
    549f: a4 13        	ldy	$13                     ; 0x2013 <parse+0xcee>
    54a1: 84 19        	sty	$19                     ; 0x2019 <parse+0xcf4>
    54a3: 26 19        	rol	$19                     ; 0x2019 <parse+0xcf4>
    54a5: 0a           	asl
    54a6: 26 19        	rol	$19                     ; 0x2019 <parse+0xcf4>
    54a8: 0a           	asl
    54a9: 26 19        	rol	$19                     ; 0x2019 <parse+0xcf4>
    54ab: 0a           	asl
    54ac: 26 19        	rol	$19                     ; 0x2019 <parse+0xcf4>
    54ae: a4 1a        	ldy	$1a                     ; 0x201a <parse+0xcf5>
    54b0: 84 12        	sty	$12                     ; 0x2012 <parse+0xced>
    54b2: 06 12        	asl	$12                     ; 0x2012 <parse+0xced>
    54b4: a4 1b        	ldy	$1b                     ; 0x201b <parse+0xcf6>
    54b6: 84 13        	sty	$13                     ; 0x2013 <parse+0xcee>
    54b8: 26 13        	rol	$13                     ; 0x2013 <parse+0xcee>
    54ba: a4 1c        	ldy	$1c                     ; 0x201c <parse+0xcf7>
    54bc: 84 1a        	sty	$1a                     ; 0x201a <parse+0xcf5>
    54be: 26 1a        	rol	$1a                     ; 0x201a <parse+0xcf5>
    54c0: a4 1d        	ldy	$1d                     ; 0x201d <parse+0xcf8>
    54c2: 84 1b        	sty	$1b                     ; 0x201b <parse+0xcf6>
    54c4: 26 1b        	rol	$1b                     ; 0x201b <parse+0xcf6>
    54c6: a4 1e        	ldy	$1e                     ; 0x201e <parse+0xcf9>
    54c8: 84 1c        	sty	$1c                     ; 0x201c <parse+0xcf7>
    54ca: 26 1c        	rol	$1c                     ; 0x201c <parse+0xcf7>
    54cc: a4 14        	ldy	$14                     ; 0x2014 <parse+0xcef>
    54ce: 84 17        	sty	$17                     ; 0x2017 <parse+0xcf2>
    54d0: 26 17        	rol	$17                     ; 0x2017 <parse+0xcf2>
    54d2: 26 18        	rol	$18                     ; 0x2018 <parse+0xcf3>
    54d4: 26 16        	rol	$16                     ; 0x2016 <parse+0xcf1>
    54d6: a4 16        	ldy	$16                     ; 0x2016 <parse+0xcf1>
    54d8: 84 1d        	sty	$1d                     ; 0x201d <parse+0xcf8>
    54da: a4 12        	ldy	$12                     ; 0x2012 <parse+0xced>
    54dc: 84 14        	sty	$14                     ; 0x2014 <parse+0xcef>
    54de: a4 13        	ldy	$13                     ; 0x2013 <parse+0xcee>
    54e0: 84 12        	sty	$12                     ; 0x2012 <parse+0xced>
    54e2: a4 1a        	ldy	$1a                     ; 0x201a <parse+0xcf5>
    54e4: 84 13        	sty	$13                     ; 0x2013 <parse+0xcee>
    54e6: 7a           	ply
    54e7: 05 15        	ora	$15                     ; 0x2015 <parse+0xcf0>
    54e9: 85 84        	sta	$84                     ; 0x2084 <parse+0xd5f>
    54eb: a5 1b        	lda	$1b                     ; 0x201b <parse+0xcf6>
    54ed: 85 15        	sta	$15                     ; 0x2015 <parse+0xcf0>
    54ef: a5 1c        	lda	$1c                     ; 0x201c <parse+0xcf7>
    54f1: 85 16        	sta	$16                     ; 0x2016 <parse+0xcf1>
    54f3: a5 19        	lda	$19                     ; 0x2019 <parse+0xcf4>
    54f5: 85 74        	sta	$74                     ; 0x2074 <parse+0xd4f>
    54f7: 4c 6b 56     	jmp	$566b <__divdf3+0x1855>
    54fa: a6 12        	ldx	$12                     ; 0x2012 <parse+0xced>
    54fc: e0 cc        	cpx	#$cc
    54fe: a5 13        	lda	$13                     ; 0x2013 <parse+0xcee>
    5500: e9 ff        	sbc	#$ff
    5502: 50 02        	bvc	$5506 <__divdf3+0x16f0>
    5504: 49 80        	eor	#$80
    5506: aa           	tax
    5507: 10 13        	bpl	$551c <__divdf3+0x1706>
    5509: 64 74        	stz	$74                     ; 0x2074 <parse+0xd4f>
    550b: 64 13        	stz	$13                     ; 0x2013 <parse+0xcee>
    550d: 64 14        	stz	$14                     ; 0x2014 <parse+0xcef>
    550f: a5 86        	lda	$86                     ; 0x2086 <parse+0xd61>
    5511: a2 00        	ldx	#$0
    5513: 64 19        	stz	$19                     ; 0x2019 <parse+0xcf4>
    5515: 64 15        	stz	$15                     ; 0x2015 <parse+0xcf0>
    5517: a0 00        	ldy	#$0
    5519: 4c 40 57     	jmp	$5740 <__divdf3+0x192a>
    551c: 18           	clc
    551d: a5 12        	lda	$12                     ; 0x2012 <parse+0xced>
    551f: 69 34        	adc	#$34
    5521: 85 75        	sta	$75                     ; 0x2075 <parse+0xd50>
    5523: a9 01        	lda	#$1
    5525: 38           	sec
    5526: e5 12        	sbc	$12                     ; 0x2012 <parse+0xced>
    5528: a6 7a        	ldx	$7a                     ; 0x207a <parse+0xd55>
    552a: 86 12        	stx	$12                     ; 0x2012 <parse+0xced>
    552c: a6 79        	ldx	$79                     ; 0x2079 <parse+0xd54>
    552e: 86 13        	stx	$13                     ; 0x2013 <parse+0xcee>
    5530: a6 73        	ldx	$73                     ; 0x2073 <parse+0xd4e>
    5532: 86 14        	stx	$14                     ; 0x2014 <parse+0xcef>
    5534: a6 77        	ldx	$77                     ; 0x2077 <parse+0xd52>
    5536: 86 15        	stx	$15                     ; 0x2015 <parse+0xcf0>
    5538: a6 76        	ldx	$76                     ; 0x2076 <parse+0xd51>
    553a: 86 16        	stx	$16                     ; 0x2016 <parse+0xcf1>
    553c: a6 17        	ldx	$17                     ; 0x2017 <parse+0xcf2>
    553e: 86 78        	stx	$78                     ; 0x2078 <parse+0xd53>
    5540: a6 7c        	ldx	$7c                     ; 0x207c <parse+0xd57>
    5542: 86 17        	stx	$17                     ; 0x2017 <parse+0xcf2>
    5544: 85 18        	sta	$18                     ; 0x2018 <parse+0xcf3>
    5546: a6 72        	ldx	$72                     ; 0x2072 <parse+0xd4d>
    5548: a5 71        	lda	$71                     ; 0x2071 <parse+0xd4c>
    554a: 20 20 3b     	jsr	$3b20 <__lshrdi3>
    554d: 85 7a        	sta	$7a                     ; 0x207a <parse+0xd55>
    554f: 86 73        	stx	$73                     ; 0x2073 <parse+0xd4e>
    5551: a6 12        	ldx	$12                     ; 0x2012 <parse+0xced>
    5553: 86 7b        	stx	$7b                     ; 0x207b <parse+0xd56>
    5555: a6 13        	ldx	$13                     ; 0x2013 <parse+0xcee>
    5557: 86 7c        	stx	$7c                     ; 0x207c <parse+0xd57>
    5559: a6 14        	ldx	$14                     ; 0x2014 <parse+0xcef>
    555b: 86 77        	stx	$77                     ; 0x2077 <parse+0xd52>
    555d: a6 15        	ldx	$15                     ; 0x2015 <parse+0xcf0>
    555f: 86 74        	stx	$74                     ; 0x2074 <parse+0xd4f>
    5561: a6 16        	ldx	$16                     ; 0x2016 <parse+0xcf1>
    5563: 86 84        	stx	$84                     ; 0x2084 <parse+0xd5f>
    5565: a6 17        	ldx	$17                     ; 0x2017 <parse+0xcf2>
    5567: 86 76        	stx	$76                     ; 0x2076 <parse+0xd51>
    5569: a6 7d        	ldx	$7d                     ; 0x207d <parse+0xd58>
    556b: 86 12        	stx	$12                     ; 0x2012 <parse+0xced>
    556d: a6 80        	ldx	$80                     ; 0x2080 <parse+0xd5b>
    556f: 86 13        	stx	$13                     ; 0x2013 <parse+0xcee>
    5571: a6 7e        	ldx	$7e                     ; 0x207e <parse+0xd59>
    5573: 86 14        	stx	$14                     ; 0x2014 <parse+0xcef>
    5575: a6 8a        	ldx	$8a                     ; 0x208a <parse+0xd65>
    5577: 86 15        	stx	$15                     ; 0x2015 <parse+0xcf0>
    5579: a6 83        	ldx	$83                     ; 0x2083 <parse+0xd5e>
    557b: 86 16        	stx	$16                     ; 0x2016 <parse+0xcf1>
    557d: a6 75        	ldx	$75                     ; 0x2075 <parse+0xd50>
    557f: 86 18        	stx	$18                     ; 0x2018 <parse+0xcf3>
    5581: a6 78        	ldx	$78                     ; 0x2078 <parse+0xd53>
    5583: 86 17        	stx	$17                     ; 0x2017 <parse+0xcf2>
    5585: a6 8b        	ldx	$8b                     ; 0x208b <parse+0xd66>
    5587: a5 82        	lda	$82                     ; 0x2082 <parse+0xd5d>
    5589: 20 01 3b     	jsr	$3b01 <__ashldi3>
    558c: 85 78        	sta	$78                     ; 0x2078 <parse+0xd53>
    558e: 86 83        	stx	$83                     ; 0x2083 <parse+0xd5e>
    5590: a6 12        	ldx	$12                     ; 0x2012 <parse+0xced>
    5592: 86 82        	stx	$82                     ; 0x2082 <parse+0xd5d>
    5594: a6 13        	ldx	$13                     ; 0x2013 <parse+0xcee>
    5596: 86 80        	stx	$80                     ; 0x2080 <parse+0xd5b>
    5598: a6 14        	ldx	$14                     ; 0x2014 <parse+0xcef>
    559a: 86 7e        	stx	$7e                     ; 0x207e <parse+0xd59>
    559c: a6 15        	ldx	$15                     ; 0x2015 <parse+0xcf0>
    559e: 86 7d        	stx	$7d                     ; 0x207d <parse+0xd58>
    55a0: a6 16        	ldx	$16                     ; 0x2016 <parse+0xcf1>
    55a2: 86 8a        	stx	$8a                     ; 0x208a <parse+0xd65>
    55a4: a6 17        	ldx	$17                     ; 0x2017 <parse+0xcf2>
    55a6: 86 85        	stx	$85                     ; 0x2085 <parse+0xd60>
    55a8: a6 81        	ldx	$81                     ; 0x2081 <parse+0xd5c>
    55aa: 86 13        	stx	$13                     ; 0x2013 <parse+0xcee>
    55ac: a6 a6        	ldx	$a6                     ; 0x20a6 <parse+0xd81>
    55ae: e0 01        	cpx	#$1
    55b0: 26 13        	rol	$13                     ; 0x2013 <parse+0xcee>
    55b2: a6 91        	ldx	$91                     ; 0x2091 <parse+0xd6c>
    55b4: 86 14        	stx	$14                     ; 0x2014 <parse+0xcef>
    55b6: 26 14        	rol	$14                     ; 0x2014 <parse+0xcef>
    55b8: a6 87        	ldx	$87                     ; 0x2087 <parse+0xd62>
    55ba: 86 15        	stx	$15                     ; 0x2015 <parse+0xcf0>
    55bc: 26 15        	rol	$15                     ; 0x2015 <parse+0xcf0>
    55be: a6 94        	ldx	$94                     ; 0x2094 <parse+0xd6f>
    55c0: 86 16        	stx	$16                     ; 0x2016 <parse+0xcf1>
    55c2: 26 16        	rol	$16                     ; 0x2016 <parse+0xcf1>
    55c4: a6 92        	ldx	$92                     ; 0x2092 <parse+0xd6d>
    55c6: 86 75        	stx	$75                     ; 0x2075 <parse+0xd50>
    55c8: 86 17        	stx	$17                     ; 0x2017 <parse+0xcf2>
    55ca: 26 17        	rol	$17                     ; 0x2017 <parse+0xcf2>
    55cc: a6 a9        	ldx	$a9                     ; 0x20a9 <parse+0xd84>
    55ce: 86 12        	stx	$12                     ; 0x2012 <parse+0xced>
    55d0: a6 7a        	ldx	$7a                     ; 0x207a <parse+0xd55>
    55d2: 86 71        	stx	$71                     ; 0x2071 <parse+0xd4c>
    55d4: a6 7a        	ldx	$7a                     ; 0x207a <parse+0xd55>
    55d6: 86 18        	stx	$18                     ; 0x2018 <parse+0xcf3>
    55d8: a6 73        	ldx	$73                     ; 0x2073 <parse+0xd4e>
    55da: 86 72        	stx	$72                     ; 0x2072 <parse+0xd4d>
    55dc: a6 73        	ldx	$73                     ; 0x2073 <parse+0xd4e>
    55de: 86 19        	stx	$19                     ; 0x2019 <parse+0xcf4>
    55e0: a6 7b        	ldx	$7b                     ; 0x207b <parse+0xd56>
    55e2: 86 7a        	stx	$7a                     ; 0x207a <parse+0xd55>
    55e4: a6 7b        	ldx	$7b                     ; 0x207b <parse+0xd56>
    55e6: 86 1a        	stx	$1a                     ; 0x201a <parse+0xcf5>
    55e8: a6 7c        	ldx	$7c                     ; 0x207c <parse+0xd57>
    55ea: 86 79        	stx	$79                     ; 0x2079 <parse+0xd54>
    55ec: a6 7c        	ldx	$7c                     ; 0x207c <parse+0xd57>
    55ee: 86 1b        	stx	$1b                     ; 0x201b <parse+0xcf6>
    55f0: a6 77        	ldx	$77                     ; 0x2077 <parse+0xd52>
    55f2: 86 73        	stx	$73                     ; 0x2073 <parse+0xd4e>
    55f4: a6 77        	ldx	$77                     ; 0x2077 <parse+0xd52>
    55f6: 86 1c        	stx	$1c                     ; 0x201c <parse+0xcf7>
    55f8: a6 74        	ldx	$74                     ; 0x2074 <parse+0xd4f>
    55fa: 86 77        	stx	$77                     ; 0x2077 <parse+0xd52>
    55fc: a6 74        	ldx	$74                     ; 0x2074 <parse+0xd4f>
    55fe: 86 1d        	stx	$1d                     ; 0x201d <parse+0xcf8>
    5600: a6 84        	ldx	$84                     ; 0x2084 <parse+0xd5f>
    5602: 86 1e        	stx	$1e                     ; 0x201e <parse+0xcf9>
    5604: 86 84        	stx	$84                     ; 0x2084 <parse+0xd5f>
    5606: a6 76        	ldx	$76                     ; 0x2076 <parse+0xd51>
    5608: 86 74        	stx	$74                     ; 0x2074 <parse+0xd4f>
    560a: a6 76        	ldx	$76                     ; 0x2076 <parse+0xd51>
    560c: 86 1f        	stx	$1f                     ; 0x201f <parse+0xcfa>
    560e: a6 a8        	ldx	$a8                     ; 0x20a8 <parse+0xd83>
    5610: a5 a7        	lda	$a7                     ; 0x20a7 <parse+0xd82>
    5612: 20 af 3b     	jsr	$3baf <__muldi3>
    5615: a4 89        	ldy	$89                     ; 0x2089 <parse+0xd64>
    5617: 85 18        	sta	$18                     ; 0x2018 <parse+0xcf3>
    5619: 86 19        	stx	$19                     ; 0x2019 <parse+0xcf4>
    561b: 38           	sec
    561c: a5 78        	lda	$78                     ; 0x2078 <parse+0xd53>
    561e: e5 18        	sbc	$18                     ; 0x2018 <parse+0xcf3>
    5620: 85 1c        	sta	$1c                     ; 0x201c <parse+0xcf7>
    5622: a5 83        	lda	$83                     ; 0x2083 <parse+0xd5e>
    5624: e5 19        	sbc	$19                     ; 0x2019 <parse+0xcf4>
    5626: 85 1b        	sta	$1b                     ; 0x201b <parse+0xcf6>
    5628: a5 82        	lda	$82                     ; 0x2082 <parse+0xd5d>
    562a: e5 12        	sbc	$12                     ; 0x2012 <parse+0xced>
    562c: 85 1a        	sta	$1a                     ; 0x201a <parse+0xcf5>
    562e: a5 80        	lda	$80                     ; 0x2080 <parse+0xd5b>
    5630: e5 13        	sbc	$13                     ; 0x2013 <parse+0xcee>
    5632: 85 19        	sta	$19                     ; 0x2019 <parse+0xcf4>
    5634: a5 7e        	lda	$7e                     ; 0x207e <parse+0xd59>
    5636: e5 14        	sbc	$14                     ; 0x2014 <parse+0xcef>
    5638: 85 18        	sta	$18                     ; 0x2018 <parse+0xcf3>
    563a: a5 7d        	lda	$7d                     ; 0x207d <parse+0xd58>
    563c: e5 15        	sbc	$15                     ; 0x2015 <parse+0xcf0>
    563e: aa           	tax
    563f: a5 8a        	lda	$8a                     ; 0x208a <parse+0xd65>
    5641: e5 16        	sbc	$16                     ; 0x2016 <parse+0xcf1>
    5643: 85 1e        	sta	$1e                     ; 0x201e <parse+0xcf9>
    5645: a5 85        	lda	$85                     ; 0x2085 <parse+0xd60>
    5647: e5 17        	sbc	$17                     ; 0x2017 <parse+0xcf2>
    5649: 85 1d        	sta	$1d                     ; 0x201d <parse+0xcf8>
    564b: a5 1c        	lda	$1c                     ; 0x201c <parse+0xcf7>
    564d: 85 14        	sta	$14                     ; 0x2014 <parse+0xcef>
    564f: a5 1b        	lda	$1b                     ; 0x201b <parse+0xcf6>
    5651: 85 12        	sta	$12                     ; 0x2012 <parse+0xced>
    5653: a5 1a        	lda	$1a                     ; 0x201a <parse+0xcf5>
    5655: 85 13        	sta	$13                     ; 0x2013 <parse+0xcee>
    5657: a5 19        	lda	$19                     ; 0x2019 <parse+0xcf4>
    5659: 85 15        	sta	$15                     ; 0x2015 <parse+0xcf0>
    565b: a5 18        	lda	$18                     ; 0x2018 <parse+0xcf3>
    565d: 85 16        	sta	$16                     ; 0x2016 <parse+0xcf1>
    565f: 86 17        	stx	$17                     ; 0x2017 <parse+0xcf2>
    5661: a6 1e        	ldx	$1e                     ; 0x201e <parse+0xcf9>
    5663: 86 18        	stx	$18                     ; 0x2018 <parse+0xcf3>
    5665: a6 88        	ldx	$88                     ; 0x2088 <parse+0xd63>
    5667: 86 1f        	stx	$1f                     ; 0x201f <parse+0xcfa>
    5669: a6 75        	ldx	$75                     ; 0x2075 <parse+0xd50>
    566b: a5 71        	lda	$71                     ; 0x2071 <parse+0xd4c>
    566d: 29 01        	and	#$1
    566f: 18           	clc
    5670: 65 14        	adc	$14                     ; 0x2014 <parse+0xcef>
    5672: 85 19        	sta	$19                     ; 0x2019 <parse+0xcf4>
    5674: 64 14        	stz	$14                     ; 0x2014 <parse+0xcef>
    5676: a9 00        	lda	#$0
    5678: 65 12        	adc	$12                     ; 0x2012 <parse+0xced>
    567a: 85 1a        	sta	$1a                     ; 0x201a <parse+0xcf5>
    567c: a9 00        	lda	#$0
    567e: 65 13        	adc	$13                     ; 0x2013 <parse+0xcee>
    5680: 85 1b        	sta	$1b                     ; 0x201b <parse+0xcf6>
    5682: a9 00        	lda	#$0
    5684: 65 15        	adc	$15                     ; 0x2015 <parse+0xcf0>
    5686: 85 13        	sta	$13                     ; 0x2013 <parse+0xcee>
    5688: a9 00        	lda	#$0
    568a: 65 16        	adc	$16                     ; 0x2016 <parse+0xcf1>
    568c: 85 15        	sta	$15                     ; 0x2015 <parse+0xcf0>
    568e: a9 00        	lda	#$0
    5690: 65 17        	adc	$17                     ; 0x2017 <parse+0xcf2>
    5692: 85 16        	sta	$16                     ; 0x2016 <parse+0xcf1>
    5694: a9 00        	lda	#$0
    5696: 65 18        	adc	$18                     ; 0x2018 <parse+0xcf3>
    5698: 85 17        	sta	$17                     ; 0x2017 <parse+0xcf2>
    569a: a5 1d        	lda	$1d                     ; 0x201d <parse+0xcf8>
    569c: 65 14        	adc	$14                     ; 0x2014 <parse+0xcef>
    569e: 85 12        	sta	$12                     ; 0x2012 <parse+0xced>
    56a0: e4 12        	cpx	$12                     ; 0x2012 <parse+0xced>
    56a2: d0 3a        	bne	$56de <__divdf3+0x18c8>
    56a4: a6 94        	ldx	$94                     ; 0x2094 <parse+0xd6f>
    56a6: e4 17        	cpx	$17                     ; 0x2017 <parse+0xcf2>
    56a8: d0 30        	bne	$56da <__divdf3+0x18c4>
    56aa: a5 84        	lda	$84                     ; 0x2084 <parse+0xd5f>
    56ac: 85 14        	sta	$14                     ; 0x2014 <parse+0xcef>
    56ae: a6 87        	ldx	$87                     ; 0x2087 <parse+0xd62>
    56b0: e4 16        	cpx	$16                     ; 0x2016 <parse+0xcf1>
    56b2: d0 32        	bne	$56e6 <__divdf3+0x18d0>
    56b4: a6 91        	ldx	$91                     ; 0x2091 <parse+0xd6c>
    56b6: e4 15        	cpx	$15                     ; 0x2015 <parse+0xcf0>
    56b8: d0 30        	bne	$56ea <__divdf3+0x18d4>
    56ba: a6 13        	ldx	$13                     ; 0x2013 <parse+0xcee>
    56bc: 86 12        	stx	$12                     ; 0x2012 <parse+0xced>
    56be: a6 81        	ldx	$81                     ; 0x2081 <parse+0xd5c>
    56c0: e4 13        	cpx	$13                     ; 0x2013 <parse+0xcee>
    56c2: d0 2a        	bne	$56ee <__divdf3+0x18d8>
    56c4: a6 7f        	ldx	$7f                     ; 0x207f <parse+0xd5a>
    56c6: e4 1b        	cpx	$1b                     ; 0x201b <parse+0xcf6>
    56c8: f0 03        	beq	$56cd <__divdf3+0x18b7>
    56ca: 4c 85 57     	jmp	$5785 <__divdf3+0x196f>
    56cd: a6 1f        	ldx	$1f                     ; 0x201f <parse+0xcfa>
    56cf: e4 1a        	cpx	$1a                     ; 0x201a <parse+0xcf5>
    56d1: f0 03        	beq	$56d6 <__divdf3+0x18c0>
    56d3: 4c 8f 57     	jmp	$578f <__divdf3+0x1979>
    56d6: c4 19        	cpy	$19                     ; 0x2019 <parse+0xcf4>
    56d8: 80 16        	bra	$56f0 <__divdf3+0x18da>
    56da: a4 17        	ldy	$17                     ; 0x2017 <parse+0xcf2>
    56dc: 84 12        	sty	$12                     ; 0x2012 <parse+0xced>
    56de: e4 12        	cpx	$12                     ; 0x2012 <parse+0xced>
    56e0: a5 84        	lda	$84                     ; 0x2084 <parse+0xd5f>
    56e2: 85 14        	sta	$14                     ; 0x2014 <parse+0xcef>
    56e4: 80 0a        	bra	$56f0 <__divdf3+0x18da>
    56e6: a4 16        	ldy	$16                     ; 0x2016 <parse+0xcf1>
    56e8: 80 02        	bra	$56ec <__divdf3+0x18d6>
    56ea: a4 15        	ldy	$15                     ; 0x2015 <parse+0xcf0>
    56ec: 84 12        	sty	$12                     ; 0x2012 <parse+0xced>
    56ee: e4 12        	cpx	$12                     ; 0x2012 <parse+0xced>
    56f0: 64 12        	stz	$12                     ; 0x2012 <parse+0xced>
    56f2: b0 04        	bcs	$56f8 <__divdf3+0x18e2>
    56f4: a2 01        	ldx	#$1
    56f6: 86 12        	stx	$12                     ; 0x2012 <parse+0xced>
    56f8: a5 71        	lda	$71                     ; 0x2071 <parse+0xd4c>
    56fa: 18           	clc
    56fb: 65 12        	adc	$12                     ; 0x2012 <parse+0xced>
    56fd: 85 13        	sta	$13                     ; 0x2013 <parse+0xcee>
    56ff: a5 72        	lda	$72                     ; 0x2072 <parse+0xd4d>
    5701: 69 00        	adc	#$0
    5703: 85 15        	sta	$15                     ; 0x2015 <parse+0xcf0>
    5705: a5 7a        	lda	$7a                     ; 0x207a <parse+0xd55>
    5707: 69 00        	adc	#$0
    5709: 85 19        	sta	$19                     ; 0x2019 <parse+0xcf4>
    570b: a5 79        	lda	$79                     ; 0x2079 <parse+0xd54>
    570d: 69 00        	adc	#$0
    570f: 85 16        	sta	$16                     ; 0x2016 <parse+0xcf1>
    5711: a5 73        	lda	$73                     ; 0x2073 <parse+0xd4e>
    5713: 69 00        	adc	#$0
    5715: 85 17        	sta	$17                     ; 0x2017 <parse+0xcf2>
    5717: a5 77        	lda	$77                     ; 0x2077 <parse+0xd52>
    5719: 69 00        	adc	#$0
    571b: 85 18        	sta	$18                     ; 0x2018 <parse+0xcf3>
    571d: a5 14        	lda	$14                     ; 0x2014 <parse+0xcef>
    571f: 69 00        	adc	#$0
    5721: a8           	tay
    5722: a5 74        	lda	$74                     ; 0x2074 <parse+0xd4f>
    5724: 69 00        	adc	#$0
    5726: a6 86        	ldx	$86                     ; 0x2086 <parse+0xd61>
    5728: 86 12        	stx	$12                     ; 0x2012 <parse+0xced>
    572a: 05 12        	ora	$12                     ; 0x2012 <parse+0xced>
    572c: 5a           	phy
    572d: a6 13        	ldx	$13                     ; 0x2013 <parse+0xcee>
    572f: 86 74        	stx	$74                     ; 0x2074 <parse+0xd4f>
    5731: a6 15        	ldx	$15                     ; 0x2015 <parse+0xcf0>
    5733: a4 16        	ldy	$16                     ; 0x2016 <parse+0xcf1>
    5735: 84 13        	sty	$13                     ; 0x2013 <parse+0xcee>
    5737: a4 17        	ldy	$17                     ; 0x2017 <parse+0xcf2>
    5739: 84 14        	sty	$14                     ; 0x2014 <parse+0xcef>
    573b: a4 18        	ldy	$18                     ; 0x2018 <parse+0xcf3>
    573d: 84 15        	sty	$15                     ; 0x2015 <parse+0xcf0>
    573f: 7a           	ply
    5740: 5a           	phy
    5741: a4 19        	ldy	$19                     ; 0x2019 <parse+0xcf4>
    5743: 84 12        	sty	$12                     ; 0x2012 <parse+0xced>
    5745: 7a           	ply
    5746: 84 16        	sty	$16                     ; 0x2016 <parse+0xcf1>
    5748: 85 17        	sta	$17                     ; 0x2017 <parse+0xcf2>
    574a: a5 74        	lda	$74                     ; 0x2074 <parse+0xd4f>
    574c: 60           	rts
    574d: e0 00        	cpx	#$0
    574f: b0 03        	bcs	$5754 <__divdf3+0x193e>
    5751: 4c 4d 3f     	jmp	$3f4d <__divdf3+0x137>
    5754: 4c a1 3f     	jmp	$3fa1 <__divdf3+0x18b>
    5757: e0 00        	cpx	#$0
    5759: a6 14        	ldx	$14                     ; 0x2014 <parse+0xcef>
    575b: 86 1c        	stx	$1c                     ; 0x201c <parse+0xcf7>
    575d: a4 16        	ldy	$16                     ; 0x2016 <parse+0xcf1>
    575f: b0 03        	bcs	$5764 <__divdf3+0x194e>
    5761: 4c cf 3f     	jmp	$3fcf <__divdf3+0x1b9>
    5764: 4c 54 41     	jmp	$4154 <__divdf3+0x33e>
    5767: 8a           	txa
    5768: a6 19        	ldx	$19                     ; 0x2019 <parse+0xcf4>
    576a: 86 88        	stx	$88                     ; 0x2088 <parse+0xd63>
    576c: c9 00        	cmp	#$0
    576e: 90 03        	bcc	$5773 <__divdf3+0x195d>
    5770: 4c ca 46     	jmp	$46ca <__divdf3+0x8b4>
    5773: 4c d9 46     	jmp	$46d9 <__divdf3+0x8c3>
    5776: c9 00        	cmp	#$0
    5778: 90 03        	bcc	$577d <__divdf3+0x1967>
    577a: 4c cf 52     	jmp	$52cf <__divdf3+0x14b9>
    577d: 4c ac 53     	jmp	$53ac <__divdf3+0x1596>
    5780: a6 23        	ldx	$23                     ; 0x2023 <parse+0xcfe>
    5782: 4c 4d 41     	jmp	$414d <__divdf3+0x337>
    5785: a4 1b        	ldy	$1b                     ; 0x201b <parse+0xcf6>
    5787: 4c ec 56     	jmp	$56ec <__divdf3+0x18d6>
    578a: 86 88        	stx	$88                     ; 0x2088 <parse+0xd63>
    578c: 4c c6 46     	jmp	$46c6 <__divdf3+0x8b0>
    578f: a4 1a        	ldy	$1a                     ; 0x201a <parse+0xcf5>
    5791: 4c ec 56     	jmp	$56ec <__divdf3+0x18d6>
    5794: a6 81        	ldx	$81                     ; 0x2081 <parse+0xd5c>
    5796: 86 12        	stx	$12                     ; 0x2012 <parse+0xced>
    5798: a6 7f        	ldx	$7f                     ; 0x207f <parse+0xd5a>
    579a: 86 13        	stx	$13                     ; 0x2013 <parse+0xcee>
    579c: a5 78        	lda	$78                     ; 0x2078 <parse+0xd53>
    579e: f0 03        	beq	$57a3 <__divdf3+0x198d>
    57a0: 4c 09 55     	jmp	$5509 <__divdf3+0x16f3>
    57a3: a5 73        	lda	$73                     ; 0x2073 <parse+0xd4e>
    57a5: f0 03        	beq	$57aa <__divdf3+0x1994>
    57a7: 4c 09 55     	jmp	$5509 <__divdf3+0x16f3>
    57aa: a5 1d        	lda	$1d                     ; 0x201d <parse+0xcf8>
    57ac: f0 03        	beq	$57b1 <__divdf3+0x199b>
    57ae: 4c 09 55     	jmp	$5509 <__divdf3+0x16f3>
    57b1: a5 1c        	lda	$1c                     ; 0x201c <parse+0xcf7>
    57b3: f0 03        	beq	$57b8 <__divdf3+0x19a2>
    57b5: 4c 09 55     	jmp	$5509 <__divdf3+0x16f3>
    57b8: a5 12        	lda	$12                     ; 0x2012 <parse+0xced>
    57ba: f0 03        	beq	$57bf <__divdf3+0x19a9>
    57bc: 4c 09 55     	jmp	$5509 <__divdf3+0x16f3>
    57bf: a5 13        	lda	$13                     ; 0x2013 <parse+0xcee>
    57c1: f0 03        	beq	$57c6 <__divdf3+0x19b0>
    57c3: 4c 09 55     	jmp	$5509 <__divdf3+0x16f3>
    57c6: a5 23        	lda	$23                     ; 0x2023 <parse+0xcfe>
    57c8: f0 03        	beq	$57cd <__divdf3+0x19b7>
    57ca: 4c 09 55     	jmp	$5509 <__divdf3+0x16f3>
    57cd: a5 18        	lda	$18                     ; 0x2018 <parse+0xcf3>
    57cf: f0 03        	beq	$57d4 <__divdf3+0x19be>
    57d1: 4c 09 55     	jmp	$5509 <__divdf3+0x16f3>
    57d4: 4c 38 40     	jmp	$4038 <__divdf3+0x222>

000057d7 <__fixunsdfsi>:
    57d7: a4 17        	ldy	$17                     ; 0x2017 <parse+0xcf2>
    57d9: 30 24        	bmi	$57ff <__fixunsdfsi+0x28>
    57db: 85 1a        	sta	$1a                     ; 0x201a <parse+0xcf5>
    57dd: 86 19        	stx	$19                     ; 0x2019 <parse+0xcf4>
    57df: a5 17        	lda	$17                     ; 0x2017 <parse+0xcf2>
    57e1: 4a           	lsr
    57e2: a6 16        	ldx	$16                     ; 0x2016 <parse+0xcf1>
    57e4: 86 17        	stx	$17                     ; 0x2017 <parse+0xcf2>
    57e6: 66 16        	ror	$16                     ; 0x2016 <parse+0xcf1>
    57e8: 4a           	lsr
    57e9: 66 16        	ror	$16                     ; 0x2016 <parse+0xcf1>
    57eb: 4a           	lsr
    57ec: 66 16        	ror	$16                     ; 0x2016 <parse+0xcf1>
    57ee: 4a           	lsr
    57ef: 66 16        	ror	$16                     ; 0x2016 <parse+0xcf1>
    57f1: 29 07        	and	#$7
    57f3: c9 03        	cmp	#$3
    57f5: d0 11        	bne	$5808 <__fixunsdfsi+0x31>
    57f7: 85 1b        	sta	$1b                     ; 0x201b <parse+0xcf6>
    57f9: a6 16        	ldx	$16                     ; 0x2016 <parse+0xcf1>
    57fb: e0 ff        	cpx	#$ff
    57fd: 80 0d        	bra	$580c <__fixunsdfsi+0x35>
    57ff: a2 00        	ldx	#$0
    5801: 86 71        	stx	$71                     ; 0x2071 <parse+0xd4c>
    5803: a0 00        	ldy	#$0
    5805: 98           	tya
    5806: 80 4b        	bra	$5853 <__fixunsdfsi+0x7c>
    5808: 85 1b        	sta	$1b                     ; 0x201b <parse+0xcf6>
    580a: c9 03        	cmp	#$3
    580c: a2 00        	ldx	#$0
    580e: 86 71        	stx	$71                     ; 0x2071 <parse+0xd4c>
    5810: a0 00        	ldy	#$0
    5812: 98           	tya
    5813: 90 3e        	bcc	$5853 <__fixunsdfsi+0x7c>
    5815: a5 17        	lda	$17                     ; 0x2017 <parse+0xcf2>
    5817: 29 0f        	and	#$f
    5819: 09 10        	ora	#$10
    581b: 85 18        	sta	$18                     ; 0x2018 <parse+0xcf3>
    581d: 18           	clc
    581e: a5 16        	lda	$16                     ; 0x2016 <parse+0xcf1>
    5820: 69 e1        	adc	#$e1
    5822: aa           	tax
    5823: a5 1b        	lda	$1b                     ; 0x201b <parse+0xcf6>
    5825: 69 fb        	adc	#$fb
    5827: c9 ff        	cmp	#$ff
    5829: d0 04        	bne	$582f <__fixunsdfsi+0x58>
    582b: e0 e0        	cpx	#$e0
    582d: 80 02        	bra	$5831 <__fixunsdfsi+0x5a>
    582f: c9 ff        	cmp	#$ff
    5831: a9 ff        	lda	#$ff
    5833: aa           	tax
    5834: 86 71        	stx	$71                     ; 0x2071 <parse+0xd4c>
    5836: a8           	tay
    5837: 90 1a        	bcc	$5853 <__fixunsdfsi+0x7c>
    5839: 38           	sec
    583a: a9 33        	lda	#$33
    583c: e5 16        	sbc	$16                     ; 0x2016 <parse+0xcf1>
    583e: 64 17        	stz	$17                     ; 0x2017 <parse+0xcf2>
    5840: a6 18        	ldx	$18                     ; 0x2018 <parse+0xcf3>
    5842: 86 16        	stx	$16                     ; 0x2016 <parse+0xcf1>
    5844: 85 18        	sta	$18                     ; 0x2018 <parse+0xcf3>
    5846: a6 19        	ldx	$19                     ; 0x2019 <parse+0xcf4>
    5848: a5 1a        	lda	$1a                     ; 0x201a <parse+0xcf5>
    584a: 20 20 3b     	jsr	$3b20 <__lshrdi3>
    584d: 86 71        	stx	$71                     ; 0x2071 <parse+0xd4c>
    584f: a6 12        	ldx	$12                     ; 0x2012 <parse+0xced>
    5851: a4 13        	ldy	$13                     ; 0x2013 <parse+0xcee>
    5853: 86 12        	stx	$12                     ; 0x2012 <parse+0xced>
    5855: 84 13        	sty	$13                     ; 0x2013 <parse+0xcee>
    5857: a6 71        	ldx	$71                     ; 0x2071 <parse+0xd4c>
    5859: 60           	rts

0000585a <__floatunsidf>:
    585a: 85 19        	sta	$19                     ; 0x2019 <parse+0xcf4>
    585c: 86 1a        	stx	$1a                     ; 0x201a <parse+0xcf5>
    585e: a5 13        	lda	$13                     ; 0x2013 <parse+0xcee>
    5860: d0 0f        	bne	$5871 <__floatunsidf+0x17>
    5862: a5 12        	lda	$12                     ; 0x2012 <parse+0xced>
    5864: d0 0b        	bne	$5871 <__floatunsidf+0x17>
    5866: a5 1a        	lda	$1a                     ; 0x201a <parse+0xcf5>
    5868: d0 07        	bne	$5871 <__floatunsidf+0x17>
    586a: a5 19        	lda	$19                     ; 0x2019 <parse+0xcf4>
    586c: d0 03        	bne	$5871 <__floatunsidf+0x17>
    586e: 4c cc 5a     	jmp	$5acc <__floatunsidf+0x272>
    5871: a5 13        	lda	$13                     ; 0x2013 <parse+0xcee>
    5873: 4a           	lsr
    5874: 85 16        	sta	$16                     ; 0x2016 <parse+0xcf1>
    5876: a5 12        	lda	$12                     ; 0x2012 <parse+0xced>
    5878: 6a           	ror
    5879: 85 15        	sta	$15                     ; 0x2015 <parse+0xcf0>
    587b: 86 17        	stx	$17                     ; 0x2017 <parse+0xcf2>
    587d: 66 17        	ror	$17                     ; 0x2017 <parse+0xcf2>
    587f: a5 19        	lda	$19                     ; 0x2019 <parse+0xcf4>
    5881: 6a           	ror
    5882: 05 19        	ora	$19                     ; 0x2019 <parse+0xcf4>
    5884: a8           	tay
    5885: a5 17        	lda	$17                     ; 0x2017 <parse+0xcf2>
    5887: 05 1a        	ora	$1a                     ; 0x201a <parse+0xcf5>
    5889: aa           	tax
    588a: a5 15        	lda	$15                     ; 0x2015 <parse+0xcf0>
    588c: 05 12        	ora	$12                     ; 0x2012 <parse+0xced>
    588e: 85 18        	sta	$18                     ; 0x2018 <parse+0xcf3>
    5890: a5 16        	lda	$16                     ; 0x2016 <parse+0xcf1>
    5892: 05 13        	ora	$13                     ; 0x2013 <parse+0xcee>
    5894: 85 1b        	sta	$1b                     ; 0x201b <parse+0xcf6>
    5896: 4a           	lsr
    5897: 5a           	phy
    5898: a4 18        	ldy	$18                     ; 0x2018 <parse+0xcf3>
    589a: 84 14        	sty	$14                     ; 0x2014 <parse+0xcef>
    589c: 7a           	ply
    589d: 66 14        	ror	$14                     ; 0x2014 <parse+0xcef>
    589f: 86 15        	stx	$15                     ; 0x2015 <parse+0xcf0>
    58a1: 66 15        	ror	$15                     ; 0x2015 <parse+0xcf0>
    58a3: 84 16        	sty	$16                     ; 0x2016 <parse+0xcf1>
    58a5: 66 16        	ror	$16                     ; 0x2016 <parse+0xcf1>
    58a7: 4a           	lsr
    58a8: 85 17        	sta	$17                     ; 0x2017 <parse+0xcf2>
    58aa: 66 14        	ror	$14                     ; 0x2014 <parse+0xcef>
    58ac: 66 15        	ror	$15                     ; 0x2015 <parse+0xcf0>
    58ae: 66 16        	ror	$16                     ; 0x2016 <parse+0xcf1>
    58b0: 98           	tya
    58b1: 05 16        	ora	$16                     ; 0x2016 <parse+0xcf1>
    58b3: a8           	tay
    58b4: 8a           	txa
    58b5: 05 15        	ora	$15                     ; 0x2015 <parse+0xcf0>
    58b7: aa           	tax
    58b8: a5 18        	lda	$18                     ; 0x2018 <parse+0xcf3>
    58ba: 05 14        	ora	$14                     ; 0x2014 <parse+0xcef>
    58bc: 85 18        	sta	$18                     ; 0x2018 <parse+0xcf3>
    58be: a5 1b        	lda	$1b                     ; 0x201b <parse+0xcf6>
    58c0: 05 17        	ora	$17                     ; 0x2017 <parse+0xcf2>
    58c2: 85 1b        	sta	$1b                     ; 0x201b <parse+0xcf6>
    58c4: 4a           	lsr
    58c5: 5a           	phy
    58c6: a4 18        	ldy	$18                     ; 0x2018 <parse+0xcf3>
    58c8: 84 14        	sty	$14                     ; 0x2014 <parse+0xcef>
    58ca: 7a           	ply
    58cb: 66 14        	ror	$14                     ; 0x2014 <parse+0xcef>
    58cd: 86 15        	stx	$15                     ; 0x2015 <parse+0xcf0>
    58cf: 66 15        	ror	$15                     ; 0x2015 <parse+0xcf0>
    58d1: 84 16        	sty	$16                     ; 0x2016 <parse+0xcf1>
    58d3: 66 16        	ror	$16                     ; 0x2016 <parse+0xcf1>
    58d5: 4a           	lsr
    58d6: 66 14        	ror	$14                     ; 0x2014 <parse+0xcef>
    58d8: 66 15        	ror	$15                     ; 0x2015 <parse+0xcf0>
    58da: 66 16        	ror	$16                     ; 0x2016 <parse+0xcf1>
    58dc: 4a           	lsr
    58dd: 66 14        	ror	$14                     ; 0x2014 <parse+0xcef>
    58df: 66 15        	ror	$15                     ; 0x2015 <parse+0xcf0>
    58e1: 66 16        	ror	$16                     ; 0x2016 <parse+0xcf1>
    58e3: 4a           	lsr
    58e4: 85 17        	sta	$17                     ; 0x2017 <parse+0xcf2>
    58e6: 66 14        	ror	$14                     ; 0x2014 <parse+0xcef>
    58e8: 66 15        	ror	$15                     ; 0x2015 <parse+0xcf0>
    58ea: 66 16        	ror	$16                     ; 0x2016 <parse+0xcf1>
    58ec: 98           	tya
    58ed: 05 16        	ora	$16                     ; 0x2016 <parse+0xcf1>
    58ef: 85 16        	sta	$16                     ; 0x2016 <parse+0xcf1>
    58f1: 8a           	txa
    58f2: 05 15        	ora	$15                     ; 0x2015 <parse+0xcf0>
    58f4: aa           	tax
    58f5: a5 18        	lda	$18                     ; 0x2018 <parse+0xcf3>
    58f7: 05 14        	ora	$14                     ; 0x2014 <parse+0xcef>
    58f9: a8           	tay
    58fa: a5 1b        	lda	$1b                     ; 0x201b <parse+0xcf6>
    58fc: 05 17        	ora	$17                     ; 0x2017 <parse+0xcf2>
    58fe: 85 15        	sta	$15                     ; 0x2015 <parse+0xcf0>
    5900: 86 14        	stx	$14                     ; 0x2014 <parse+0xcef>
    5902: a5 16        	lda	$16                     ; 0x2016 <parse+0xcf1>
    5904: 05 14        	ora	$14                     ; 0x2014 <parse+0xcef>
    5906: 85 17        	sta	$17                     ; 0x2017 <parse+0xcf2>
    5908: 84 14        	sty	$14                     ; 0x2014 <parse+0xcef>
    590a: 8a           	txa
    590b: 05 14        	ora	$14                     ; 0x2014 <parse+0xcef>
    590d: 85 16        	sta	$16                     ; 0x2016 <parse+0xcf1>
    590f: a6 15        	ldx	$15                     ; 0x2015 <parse+0xcf0>
    5911: 86 14        	stx	$14                     ; 0x2014 <parse+0xcef>
    5913: 86 18        	stx	$18                     ; 0x2018 <parse+0xcf3>
    5915: 98           	tya
    5916: 05 14        	ora	$14                     ; 0x2014 <parse+0xcef>
    5918: 85 15        	sta	$15                     ; 0x2015 <parse+0xcf0>
    591a: 85 1b        	sta	$1b                     ; 0x201b <parse+0xcf6>
    591c: a5 17        	lda	$17                     ; 0x2017 <parse+0xcf2>
    591e: 05 15        	ora	$15                     ; 0x2015 <parse+0xcf0>
    5920: a8           	tay
    5921: a5 16        	lda	$16                     ; 0x2016 <parse+0xcf1>
    5923: 05 14        	ora	$14                     ; 0x2014 <parse+0xcef>
    5925: aa           	tax
    5926: 98           	tya
    5927: 4a           	lsr
    5928: 29 55        	and	#$55
    592a: 85 14        	sta	$14                     ; 0x2014 <parse+0xcef>
    592c: 8a           	txa
    592d: 4a           	lsr
    592e: 29 55        	and	#$55
    5930: 85 15        	sta	$15                     ; 0x2015 <parse+0xcf0>
    5932: a5 1b        	lda	$1b                     ; 0x201b <parse+0xcf6>
    5934: 4a           	lsr
    5935: 29 55        	and	#$55
    5937: 85 16        	sta	$16                     ; 0x2016 <parse+0xcf1>
    5939: a5 18        	lda	$18                     ; 0x2018 <parse+0xcf3>
    593b: 4a           	lsr
    593c: 29 55        	and	#$55
    593e: 85 17        	sta	$17                     ; 0x2017 <parse+0xcf2>
    5940: 38           	sec
    5941: 98           	tya
    5942: e5 14        	sbc	$14                     ; 0x2014 <parse+0xcef>
    5944: 85 14        	sta	$14                     ; 0x2014 <parse+0xcef>
    5946: 8a           	txa
    5947: e5 15        	sbc	$15                     ; 0x2015 <parse+0xcf0>
    5949: aa           	tax
    594a: a5 1b        	lda	$1b                     ; 0x201b <parse+0xcf6>
    594c: e5 16        	sbc	$16                     ; 0x2016 <parse+0xcf1>
    594e: 85 16        	sta	$16                     ; 0x2016 <parse+0xcf1>
    5950: a5 18        	lda	$18                     ; 0x2018 <parse+0xcf3>
    5952: e5 17        	sbc	$17                     ; 0x2017 <parse+0xcf2>
    5954: a8           	tay
    5955: a5 14        	lda	$14                     ; 0x2014 <parse+0xcef>
    5957: 85 17        	sta	$17                     ; 0x2017 <parse+0xcf2>
    5959: 29 33        	and	#$33
    595b: 85 14        	sta	$14                     ; 0x2014 <parse+0xcef>
    595d: 8a           	txa
    595e: 29 33        	and	#$33
    5960: 85 15        	sta	$15                     ; 0x2015 <parse+0xcf0>
    5962: a5 16        	lda	$16                     ; 0x2016 <parse+0xcf1>
    5964: 85 18        	sta	$18                     ; 0x2018 <parse+0xcf3>
    5966: 29 33        	and	#$33
    5968: 85 16        	sta	$16                     ; 0x2016 <parse+0xcf1>
    596a: 98           	tya
    596b: 4a           	lsr
    596c: 85 1c        	sta	$1c                     ; 0x201c <parse+0xcf7>
    596e: a5 18        	lda	$18                     ; 0x2018 <parse+0xcf3>
    5970: 4a           	lsr
    5971: 85 1b        	sta	$1b                     ; 0x201b <parse+0xcf6>
    5973: 8a           	txa
    5974: 4a           	lsr
    5975: 85 18        	sta	$18                     ; 0x2018 <parse+0xcf3>
    5977: a5 17        	lda	$17                     ; 0x2017 <parse+0xcf2>
    5979: 4a           	lsr
    597a: 46 1c        	lsr	$1c                     ; 0x201c <parse+0xcf7>
    597c: 46 1b        	lsr	$1b                     ; 0x201b <parse+0xcf6>
    597e: a6 18        	ldx	$18                     ; 0x2018 <parse+0xcf3>
    5980: 86 17        	stx	$17                     ; 0x2017 <parse+0xcf2>
    5982: 46 17        	lsr	$17                     ; 0x2017 <parse+0xcf2>
    5984: 4a           	lsr
    5985: 29 33        	and	#$33
    5987: 85 1d        	sta	$1d                     ; 0x201d <parse+0xcf8>
    5989: a5 17        	lda	$17                     ; 0x2017 <parse+0xcf2>
    598b: 29 33        	and	#$33
    598d: aa           	tax
    598e: a5 1b        	lda	$1b                     ; 0x201b <parse+0xcf6>
    5990: 29 33        	and	#$33
    5992: 85 18        	sta	$18                     ; 0x2018 <parse+0xcf3>
    5994: a5 1c        	lda	$1c                     ; 0x201c <parse+0xcf7>
    5996: 29 33        	and	#$33
    5998: 85 1b        	sta	$1b                     ; 0x201b <parse+0xcf6>
    599a: 98           	tya
    599b: 29 33        	and	#$33
    599d: 85 17        	sta	$17                     ; 0x2017 <parse+0xcf2>
    599f: 18           	clc
    59a0: a5 1d        	lda	$1d                     ; 0x201d <parse+0xcf8>
    59a2: 65 14        	adc	$14                     ; 0x2014 <parse+0xcef>
    59a4: 85 14        	sta	$14                     ; 0x2014 <parse+0xcef>
    59a6: 8a           	txa
    59a7: 65 15        	adc	$15                     ; 0x2015 <parse+0xcf0>
    59a9: 85 15        	sta	$15                     ; 0x2015 <parse+0xcf0>
    59ab: a5 18        	lda	$18                     ; 0x2018 <parse+0xcf3>
    59ad: 65 16        	adc	$16                     ; 0x2016 <parse+0xcf1>
    59af: 85 16        	sta	$16                     ; 0x2016 <parse+0xcf1>
    59b1: a5 1b        	lda	$1b                     ; 0x201b <parse+0xcf6>
    59b3: 65 17        	adc	$17                     ; 0x2017 <parse+0xcf2>
    59b5: 85 17        	sta	$17                     ; 0x2017 <parse+0xcf2>
    59b7: 4a           	lsr
    59b8: aa           	tax
    59b9: a5 16        	lda	$16                     ; 0x2016 <parse+0xcf1>
    59bb: 6a           	ror
    59bc: a4 15        	ldy	$15                     ; 0x2015 <parse+0xcf0>
    59be: 84 1b        	sty	$1b                     ; 0x201b <parse+0xcf6>
    59c0: 66 1b        	ror	$1b                     ; 0x201b <parse+0xcf6>
    59c2: a4 14        	ldy	$14                     ; 0x2014 <parse+0xcef>
    59c4: 84 1c        	sty	$1c                     ; 0x201c <parse+0xcf7>
    59c6: 66 1c        	ror	$1c                     ; 0x201c <parse+0xcf7>
    59c8: 86 18        	stx	$18                     ; 0x2018 <parse+0xcf3>
    59ca: 46 18        	lsr	$18                     ; 0x2018 <parse+0xcf3>
    59cc: 6a           	ror
    59cd: 66 1b        	ror	$1b                     ; 0x201b <parse+0xcf6>
    59cf: 66 1c        	ror	$1c                     ; 0x201c <parse+0xcf7>
    59d1: 46 18        	lsr	$18                     ; 0x2018 <parse+0xcf3>
    59d3: 6a           	ror
    59d4: 66 1b        	ror	$1b                     ; 0x201b <parse+0xcf6>
    59d6: 66 1c        	ror	$1c                     ; 0x201c <parse+0xcf7>
    59d8: 46 18        	lsr	$18                     ; 0x2018 <parse+0xcf3>
    59da: 6a           	ror
    59db: 85 1d        	sta	$1d                     ; 0x201d <parse+0xcf8>
    59dd: a6 1b        	ldx	$1b                     ; 0x201b <parse+0xcf6>
    59df: 86 1e        	stx	$1e                     ; 0x201e <parse+0xcf9>
    59e1: 66 1e        	ror	$1e                     ; 0x201e <parse+0xcf9>
    59e3: a5 1c        	lda	$1c                     ; 0x201c <parse+0xcf7>
    59e5: 6a           	ror
    59e6: 18           	clc
    59e7: 65 14        	adc	$14                     ; 0x2014 <parse+0xcef>
    59e9: aa           	tax
    59ea: a5 1e        	lda	$1e                     ; 0x201e <parse+0xcf9>
    59ec: 65 15        	adc	$15                     ; 0x2015 <parse+0xcf0>
    59ee: a8           	tay
    59ef: a5 1d        	lda	$1d                     ; 0x201d <parse+0xcf8>
    59f1: 65 16        	adc	$16                     ; 0x2016 <parse+0xcf1>
    59f3: 85 16        	sta	$16                     ; 0x2016 <parse+0xcf1>
    59f5: a5 18        	lda	$18                     ; 0x2018 <parse+0xcf3>
    59f7: 65 17        	adc	$17                     ; 0x2017 <parse+0xcf2>
    59f9: 85 17        	sta	$17                     ; 0x2017 <parse+0xcf2>
    59fb: 8a           	txa
    59fc: 29 0f        	and	#$f
    59fe: 85 14        	sta	$14                     ; 0x2014 <parse+0xcef>
    5a00: aa           	tax
    5a01: 98           	tya
    5a02: 29 0f        	and	#$f
    5a04: 85 15        	sta	$15                     ; 0x2015 <parse+0xcf0>
    5a06: 85 1b        	sta	$1b                     ; 0x201b <parse+0xcf6>
    5a08: a5 16        	lda	$16                     ; 0x2016 <parse+0xcf1>
    5a0a: 29 0f        	and	#$f
    5a0c: 85 16        	sta	$16                     ; 0x2016 <parse+0xcf1>
    5a0e: a8           	tay
    5a0f: a5 17        	lda	$17                     ; 0x2017 <parse+0xcf2>
    5a11: 29 0f        	and	#$f
    5a13: 85 18        	sta	$18                     ; 0x2018 <parse+0xcf3>
    5a15: 18           	clc
    5a16: 8a           	txa
    5a17: 69 00        	adc	#$0
    5a19: 85 17        	sta	$17                     ; 0x2017 <parse+0xcf2>
    5a1b: 85 1c        	sta	$1c                     ; 0x201c <parse+0xcf7>
    5a1d: a5 1b        	lda	$1b                     ; 0x201b <parse+0xcf6>
    5a1f: 65 14        	adc	$14                     ; 0x2014 <parse+0xcef>
    5a21: 85 14        	sta	$14                     ; 0x2014 <parse+0xcef>
    5a23: 98           	tya
    5a24: 65 15        	adc	$15                     ; 0x2015 <parse+0xcf0>
    5a26: 85 15        	sta	$15                     ; 0x2015 <parse+0xcf0>
    5a28: a5 18        	lda	$18                     ; 0x2018 <parse+0xcf3>
    5a2a: 65 16        	adc	$16                     ; 0x2016 <parse+0xcf1>
    5a2c: aa           	tax
    5a2d: 18           	clc
    5a2e: a5 1c        	lda	$1c                     ; 0x201c <parse+0xcf7>
    5a30: 69 00        	adc	#$0
    5a32: a5 14        	lda	$14                     ; 0x2014 <parse+0xcef>
    5a34: 69 00        	adc	#$0
    5a36: a5 15        	lda	$15                     ; 0x2015 <parse+0xcf0>
    5a38: 65 17        	adc	$17                     ; 0x2017 <parse+0xcf2>
    5a3a: 8a           	txa
    5a3b: 65 14        	adc	$14                     ; 0x2014 <parse+0xcef>
    5a3d: 85 14        	sta	$14                     ; 0x2014 <parse+0xcef>
    5a3f: a9 20        	lda	#$20
    5a41: 38           	sec
    5a42: e5 14        	sbc	$14                     ; 0x2014 <parse+0xcef>
    5a44: a8           	tay
    5a45: 85 72        	sta	$72                     ; 0x2072 <parse+0xd4d>
    5a47: a9 00        	lda	#$0
    5a49: e9 00        	sbc	#$0
    5a4b: 85 71        	sta	$71                     ; 0x2071 <parse+0xd4c>
    5a4d: 98           	tya
    5a4e: 49 1f        	eor	#$1f
    5a50: 85 14        	sta	$14                     ; 0x2014 <parse+0xcef>
    5a52: a9 34        	lda	#$34
    5a54: 38           	sec
    5a55: e5 14        	sbc	$14                     ; 0x2014 <parse+0xcef>
    5a57: 64 14        	stz	$14                     ; 0x2014 <parse+0xcef>
    5a59: 64 15        	stz	$15                     ; 0x2015 <parse+0xcf0>
    5a5b: 64 16        	stz	$16                     ; 0x2016 <parse+0xcf1>
    5a5d: 64 17        	stz	$17                     ; 0x2017 <parse+0xcf2>
    5a5f: 85 18        	sta	$18                     ; 0x2018 <parse+0xcf3>
    5a61: a6 1a        	ldx	$1a                     ; 0x201a <parse+0xcf5>
    5a63: a5 19        	lda	$19                     ; 0x2019 <parse+0xcf4>
    5a65: 20 01 3b     	jsr	$3b01 <__ashldi3>
    5a68: 85 1a        	sta	$1a                     ; 0x201a <parse+0xcf5>
    5a6a: a9 1e        	lda	#$1e
    5a6c: a4 72        	ldy	$72                     ; 0x2072 <parse+0xd4d>
    5a6e: 84 18        	sty	$18                     ; 0x2018 <parse+0xcf3>
    5a70: 38           	sec
    5a71: e5 18        	sbc	$18                     ; 0x2018 <parse+0xcf3>
    5a73: 85 19        	sta	$19                     ; 0x2019 <parse+0xcf4>
    5a75: a9 04        	lda	#$4
    5a77: a4 71        	ldy	$71                     ; 0x2071 <parse+0xd4c>
    5a79: 84 18        	sty	$18                     ; 0x2018 <parse+0xcf3>
    5a7b: e5 18        	sbc	$18                     ; 0x2018 <parse+0xcf3>
    5a7d: 85 18        	sta	$18                     ; 0x2018 <parse+0xcf3>
    5a7f: a5 19        	lda	$19                     ; 0x2019 <parse+0xcf4>
    5a81: 0a           	asl
    5a82: 26 18        	rol	$18                     ; 0x2018 <parse+0xcf3>
    5a84: 0a           	asl
    5a85: 26 18        	rol	$18                     ; 0x2018 <parse+0xcf3>
    5a87: 0a           	asl
    5a88: 26 18        	rol	$18                     ; 0x2018 <parse+0xcf3>
    5a8a: 0a           	asl
    5a8b: 85 19        	sta	$19                     ; 0x2019 <parse+0xcf4>
    5a8d: a4 1a        	ldy	$1a                     ; 0x201a <parse+0xcf5>
    5a8f: a5 16        	lda	$16                     ; 0x2016 <parse+0xcf1>
    5a91: 49 10        	eor	#$10
    5a93: 85 16        	sta	$16                     ; 0x2016 <parse+0xcf1>
    5a95: a5 18        	lda	$18                     ; 0x2018 <parse+0xcf3>
    5a97: 2a           	rol
    5a98: 85 1a        	sta	$1a                     ; 0x201a <parse+0xcf5>
    5a9a: 18           	clc
    5a9b: 98           	tya
    5a9c: 69 00        	adc	#$0
    5a9e: 85 18        	sta	$18                     ; 0x2018 <parse+0xcf3>
    5aa0: 8a           	txa
    5aa1: 69 00        	adc	#$0
    5aa3: aa           	tax
    5aa4: a5 12        	lda	$12                     ; 0x2012 <parse+0xced>
    5aa6: 69 00        	adc	#$0
    5aa8: a8           	tay
    5aa9: a5 13        	lda	$13                     ; 0x2013 <parse+0xcee>
    5aab: 69 00        	adc	#$0
    5aad: 85 13        	sta	$13                     ; 0x2013 <parse+0xcee>
    5aaf: a5 14        	lda	$14                     ; 0x2014 <parse+0xcef>
    5ab1: 69 00        	adc	#$0
    5ab3: 85 14        	sta	$14                     ; 0x2014 <parse+0xcef>
    5ab5: a5 15        	lda	$15                     ; 0x2015 <parse+0xcf0>
    5ab7: 69 00        	adc	#$0
    5ab9: 85 15        	sta	$15                     ; 0x2015 <parse+0xcf0>
    5abb: a5 16        	lda	$16                     ; 0x2016 <parse+0xcf1>
    5abd: 65 19        	adc	$19                     ; 0x2019 <parse+0xcf4>
    5abf: 85 16        	sta	$16                     ; 0x2016 <parse+0xcf1>
    5ac1: a5 1a        	lda	$1a                     ; 0x201a <parse+0xcf5>
    5ac3: 65 17        	adc	$17                     ; 0x2017 <parse+0xcf2>
    5ac5: 85 17        	sta	$17                     ; 0x2017 <parse+0xcf2>
    5ac7: 84 12        	sty	$12                     ; 0x2012 <parse+0xced>
    5ac9: a5 18        	lda	$18                     ; 0x2018 <parse+0xcf3>
    5acb: 60           	rts
    5acc: 64 18        	stz	$18                     ; 0x2018 <parse+0xcf3>
    5ace: a2 00        	ldx	#$0
    5ad0: a0 00        	ldy	#$0
    5ad2: 64 13        	stz	$13                     ; 0x2013 <parse+0xcee>
    5ad4: 64 14        	stz	$14                     ; 0x2014 <parse+0xcef>
    5ad6: 64 15        	stz	$15                     ; 0x2015 <parse+0xcf0>
    5ad8: 64 16        	stz	$16                     ; 0x2016 <parse+0xcf1>
    5ada: 64 17        	stz	$17                     ; 0x2017 <parse+0xcf2>
    5adc: 80 e9        	bra	$5ac7 <__floatunsidf+0x26d>
