
Aero.elf:	file format elf32-mos

SYMBOL TABLE:
00000000 l    df *ABS*	00000000 zero-bss.c
00000000 l    df *ABS*	00000000 zero-zp-bss.c
00000000 l    df *ABS*	00000000 copy-zp-data.c
00000000 l    df *ABS*	00000000 ld-temp.o
000003ad l     F .text	00000328 f256Init
00000088 l     O .zp.bss	00000007 kernelEventData
00001fe2 l     O .rodata	00000030 textColors
000006d5 l     F .text	0000009a textClear
00000091 l     O .zp.bss	00000001 _active
00002046 l     O .bss	00000004 _BITMAP_BASE.0
0000204a l     O .bss	00000004 _BITMAP_BASE.1
0000204e l     O .bss	00000003 _BITMAP_CLUT
00002045 l     O .bss	00000001 kernelError
0000008f l     O .zp.bss	00000001 _col
00000090 l     O .zp.bss	00000001 _row
00000775 l     F .text	00000887 f256main
00000094 l     O .zp.bss	00000001 midiTimer.1
00000095 l     O .zp.bss	00000001 refTimer.1
00000096 l     O .zp.bss	00000001 bassTimer.1
00000097 l     O .zp.bss	00000001 snareTimer.1
00000098 l     O .zp.bss	00000001 kickTimer.1
00000030 l     O .zp.data	00000058 noteColors
0000202a l     O .rodata	00000004 snareNotes
0000202e l     O .rodata	00000005 kickNotes
00002033 l     O .rodata	00000005 kickDelays
00002012 l     O .rodata	0000000c bassNotes
0000201e l     O .rodata	0000000c bassDelays
00001399 l     F .text	00000bb0 printf
00000ffc l     F .text	000001ba __putchar
00000092 l     O .zp.bss	00000002 __putchar.s
000011bb l     F .text	000000d1 _ZN12_GLOBAL__N_13putEcP6Status
0000128c l     F .text	0000010d _ZN12_GLOBAL__N_112print_stringEPKcP6Status
0000076f g     F .text	00000006 main
00040000 g       .pia2	00000000 pia2_end
00038000 g       .pia2	00000000 pia2_start
00022c00 g       .daft3	00000000 daft3_end
00040000 g       .pia3	00000000 pia3_start
00018000 g       .daft1	00000000 daft1_end
00020000 g       .daft2	00000000 daft2_end
00020000 g       .daft3	00000000 daft3_start
00028000 g       .palpiano	00000000 palpiano_start
00018000 g       .daft2	00000000 daft2_start
00038000 g       .pia1	00000000 pia1_end
00042c00 g       .pia3	00000000 pia3_end
00010000 g       .daft1	00000000 daft1_start
000283fc g       .palpiano	00000000 palpiano_end
00030000 g       .pia1	00000000 pia1_start
00028800 g       .paldaft	00000000 paldaft_end
00028400 g       .paldaft	00000000 paldaft_start
0000036c g       .text	00000000 __after_main
00000358 g       .text	00000000 __do_init_stack
00000366 g       .text	00000000 __do_copy_zp_data
00000396 g     F .text	00000017 __copy_zp_data
00000360 g       .text	00000000 __do_zero_bss
00000370 g     F .text	00000013 __zero_bss
00000363 g       .text	00000000 __do_zero_zp_bss
00000383 g     F .text	00000013 __zero_zp_bss
000011b6 g     F .text	00000005 exit
0000036f g       .text	00000000 _fini
00001f95 g       .rodata	00000000 __set_v
00001f75  w    F .text	00000020 __memset
00001000  w      *ABS*	00000000 __heap_default_limit
00002052 g       .noinit	00000000 __heap_start
00001f49  w    F .text	0000002c memcpy
00000010 g       *ABS*	00000000 __rc0
00000012 g       *ABS*	00000000 __rc2
00000014 g       *ABS*	00000000 __rc4
00000016 g       *ABS*	00000000 __rc6
00000018 g       *ABS*	00000000 __rc8
0000001a g       *ABS*	00000000 __rc10
0000001c g       *ABS*	00000000 __rc12
0000001e g       *ABS*	00000000 __rc14
00000020 g       *ABS*	00000000 __rc16
00000022 g       *ABS*	00000000 __rc18
00000024 g       *ABS*	00000000 __rc20
00000026 g       *ABS*	00000000 __rc22
00000028 g       *ABS*	00000000 __rc24
0000002a g       *ABS*	00000000 __rc26
0000002c g       *ABS*	00000000 __rc28
0000002e g       *ABS*	00000000 __rc30
0000002f g       *ABS*	00000000 __rc31
00000300 g       *ABS*	00000000 __f256_start
0000a000 g       *ABS*	00000000 __stack
0000a000 g       *ABS*	00000000 __SLOT_ADDR
0800a000 g       *ABS*	00000000 __block8_lma
00002000 g       *ABS*	00000000 __BLOCK_SIZE
0900a000 g       *ABS*	00000000 __block9_lma
0a00a000 g       *ABS*	00000000 __block10_lma
0b00a000 g       *ABS*	00000000 __block11_lma
0c00a000 g       *ABS*	00000000 __block12_lma
0d00a000 g       *ABS*	00000000 __block13_lma
0e00a000 g       *ABS*	00000000 __block14_lma
0f00a000 g       *ABS*	00000000 __block15_lma
1000a000 g       *ABS*	00000000 __block16_lma
1100a000 g       *ABS*	00000000 __block17_lma
1200a000 g       *ABS*	00000000 __block18_lma
1300a000 g       *ABS*	00000000 __block19_lma
1400a000 g       *ABS*	00000000 __block20_lma
1500a000 g       *ABS*	00000000 __block21_lma
1600a000 g       *ABS*	00000000 __block22_lma
1700a000 g       *ABS*	00000000 __block23_lma
00010000 g       *ABS*	00000000 __daft1_lma
00008000 g       *ABS*	00000000 __daft1_size
00018000 g       *ABS*	00000000 __daft2_lma
00008000 g       *ABS*	00000000 __daft2_size
00020000 g       *ABS*	00000000 __daft3_lma
00002c00 g       *ABS*	00000000 __daft3_size
00028000 g       *ABS*	00000000 __palpiano_lma
000003fc g       *ABS*	00000000 __palpiano_size
00028400 g       *ABS*	00000000 __paldaft_lma
00000400 g       *ABS*	00000000 __paldaft_size
00030000 g       *ABS*	00000000 __pia1_lma
00008000 g       *ABS*	00000000 __pia1_size
00038000 g       *ABS*	00000000 __pia2_lma
00008000 g       *ABS*	00000000 __pia2_size
00040000 g       *ABS*	00000000 __pia3_lma
00002c00 g       *ABS*	00000000 __pia3_size
00002045 g       .bss	00000000 __bss_start
00018000 g       .daft1	00000000 end_daft1
00020000 g       .daft2	00000000 end_daft2
00022c00 g       .daft3	00000000 end_daft3
000283fc g       .palpiano	00000000 end_palpiano
00028800 g       .paldaft	00000000 end_paldaft
00038000 g       .pia1	00000000 end_pia1
00040000 g       .pia2	00000000 end_pia2
00042c00 g       .pia3	00000000 end_pia3
00000358 g       .text	00000000 _start
0000002d g       *ABS*	00000000 __rc29
0000002b g       *ABS*	00000000 __rc27
00000029 g       *ABS*	00000000 __rc25
00000027 g       *ABS*	00000000 __rc23
00000025 g       *ABS*	00000000 __rc21
00000023 g       *ABS*	00000000 __rc19
00000021 g       *ABS*	00000000 __rc17
0000001f g       *ABS*	00000000 __rc15
0000001d g       *ABS*	00000000 __rc13
0000001b g       *ABS*	00000000 __rc11
00000019 g       *ABS*	00000000 __rc9
00000017 g       *ABS*	00000000 __rc7
00000015 g       *ABS*	00000000 __rc5
00000013 g       *ABS*	00000000 __rc3
00000011 g       *ABS*	00000000 __rc1
00000030 g       .zp.data	00000000 __zp_data_start
00000300 g       *ABS*	00000000 __zp_data_load_start
00000058 g       *ABS*	00000000 __zp_data_size
00000088 g       .zp.bss	00000000 __zp_bss_start
00000011 g       *ABS*	00000000 __zp_bss_size
00000358 g       .text	00000000 _init
00001f95 g       .text	00000000 __init_array_start
00001f95 g       .text	00000000 __init_array_end
00001f95 g       .text	00000000 __fini_array_start
00001f95 g       .text	00000000 __fini_array_end
00002045 g       .data	00000000 __data_start
00002045 g       .data	00000000 __data_end
00002045 g       *ABS*	00000000 __data_load_start
00000000 g       *ABS*	00000000 __data_size
00002051 g       .bss	00000000 __bss_end
0000000c g       *ABS*	00000000 __bss_size
00002051 g       .noinit	00000000 end_block8
00002051 g       .noinit	00000000 end_block9
00002051 g       .noinit	00000000 end_block10
00002051 g       .noinit	00000000 end_block11
00002051 g       .noinit	00000000 end_block12
00002051 g       .noinit	00000000 end_block13
00002051 g       .noinit	00000000 end_block14
00002051 g       .noinit	00000000 end_block15
00002051 g       .noinit	00000000 end_block16
00002051 g       .noinit	00000000 end_block17
00002051 g       .noinit	00000000 end_block18
00002051 g       .noinit	00000000 end_block19
00002051 g       .noinit	00000000 end_block20
00002051 g       .noinit	00000000 end_block21
00002051 g       .noinit	00000000 end_block22
00002051 g       .noinit	00000000 end_block23

Disassembly of section .text:

00000358 <_start>:
     358: a9 00        	lda	#$0
     35a: 85 10        	sta	$10                     ; 0x2010 <textColors+0x2e>
     35c: a9 a0        	lda	#$a0
     35e: 85 11        	sta	$11                     ; 0x2011 <textColors+0x2f>

00000360 <__do_zero_bss>:
     360: 20 70 03     	jsr	$370 <__zero_bss>

00000363 <__do_zero_zp_bss>:
     363: 20 83 03     	jsr	$383 <__zero_zp_bss>

00000366 <__do_copy_zp_data>:
     366: 20 96 03     	jsr	$396 <__copy_zp_data>
     369: 20 6f 07     	jsr	$76f <main>

0000036c <__after_main>:
     36c: 4c b6 11     	jmp	$11b6 <exit>

0000036f <_fini>:
     36f: 60           	rts

00000370 <__zero_bss>:
     370: a2 0c        	ldx	#$c
     372: a0 00        	ldy	#$0
     374: a9 45        	lda	#$45
     376: 85 12        	sta	$12                     ; 0x2012 <bassNotes>
     378: a9 20        	lda	#$20
     37a: 85 13        	sta	$13                     ; 0x2013 <bassNotes+0x1>
     37c: a9 00        	lda	#$0
     37e: 84 14        	sty	$14                     ; 0x2014 <bassNotes+0x2>
     380: 4c 75 1f     	jmp	$1f75 <__memset>

00000383 <__zero_zp_bss>:
     383: a2 11        	ldx	#$11
     385: a0 00        	ldy	#$0
     387: a9 88        	lda	#$88
     389: 85 12        	sta	$12                     ; 0x2012 <bassNotes>
     38b: a9 00        	lda	#$0
     38d: 85 13        	sta	$13                     ; 0x2013 <bassNotes+0x1>
     38f: a9 00        	lda	#$0
     391: 84 14        	sty	$14                     ; 0x2014 <bassNotes+0x2>
     393: 4c 75 1f     	jmp	$1f75 <__memset>

00000396 <__copy_zp_data>:
     396: a9 58        	lda	#$58
     398: a2 00        	ldx	#$0
     39a: a0 30        	ldy	#$30
     39c: 84 12        	sty	$12                     ; 0x2012 <bassNotes>
     39e: a0 00        	ldy	#$0
     3a0: 84 13        	sty	$13                     ; 0x2013 <bassNotes+0x1>
     3a2: a0 00        	ldy	#$0
     3a4: 84 14        	sty	$14                     ; 0x2014 <bassNotes+0x2>
     3a6: a0 03        	ldy	#$3
     3a8: 84 15        	sty	$15                     ; 0x2015 <bassNotes+0x3>
     3aa: 4c 49 1f     	jmp	$1f49 <memcpy>

000003ad <f256Init>:
     3ad: 64 12        	stz	$12                     ; 0x2012 <bassNotes>
     3af: 64 01        	stz	$1                      ; 0x2001 <textColors+0x1f>
     3b1: a2 3f        	ldx	#$3f
     3b3: 8e 00 d0     	stx	$d000                   ; 0xd000 <__heap_start+0xafae>
     3b6: a2 b3        	ldx	#$b3
     3b8: 86 00        	stx	$0                      ; 0x2000 <textColors+0x1e>
     3ba: 64 08        	stz	$8                      ; 0x2008 <textColors+0x26>
     3bc: a2 01        	ldx	#$1
     3be: 86 09        	stx	$9                      ; 0x2009 <textColors+0x27>
     3c0: e8           	inx
     3c1: 86 0a        	stx	$a                      ; 0x200a <textColors+0x28>
     3c3: e8           	inx
     3c4: 86 0b        	stx	$b                      ; 0x200b <textColors+0x29>
     3c6: e8           	inx
     3c7: 86 0c        	stx	$c                      ; 0x200c <textColors+0x2a>
     3c9: e8           	inx
     3ca: 86 0d        	stx	$d                      ; 0x200d <textColors+0x2b>
     3cc: a2 88        	ldx	#$88
     3ce: a0 00        	ldy	#$0
     3d0: 86 f0        	stx	$f0                     ; 0x20f0 <__heap_start+0x9e>
     3d2: 84 f1        	sty	$f1                     ; 0x20f1 <__heap_start+0x9f>
     3d4: a2 00        	ldx	#$0
     3d6: 86 16        	stx	$16                     ; 0x2016 <bassNotes+0x4>
     3d8: ca           	dex
     3d9: 86 17        	stx	$17                     ; 0x2017 <bassNotes+0x5>
     3db: 8a           	txa
     3dc: 0a           	asl
     3dd: 0a           	asl
     3de: 18           	clc
     3df: 69 d4        	adc	#$d4
     3e1: 85 18        	sta	$18                     ; 0x2018 <bassNotes+0x6>
     3e3: a0 00        	ldy	#$0
     3e5: 64 15        	stz	$15                     ; 0x2015 <bassNotes+0x3>
     3e7: 64 14        	stz	$14                     ; 0x2014 <bassNotes+0x2>
     3e9: a6 17        	ldx	$17                     ; 0x2017 <bassNotes+0x5>
     3eb: e0 03        	cpx	#$3
     3ed: a6 01        	ldx	$1                      ; 0x2001 <textColors+0x1f>
     3ef: 86 1a        	stx	$1a                     ; 0x201a <bassNotes+0x8>
     3f1: a2 d0        	ldx	#$d0
     3f3: 84 19        	sty	$19                     ; 0x2019 <bassNotes+0x7>
     3f5: b0 02        	bcs	$3f9 <f256Init+0x4c>
     3f7: a6 18        	ldx	$18                     ; 0x2018 <bassNotes+0x6>
     3f9: 86 13        	stx	$13                     ; 0x2013 <bassNotes+0x1>
     3fb: a5 15        	lda	$15                     ; 0x2015 <bassNotes+0x3>
     3fd: 18           	clc
     3fe: 65 12        	adc	$12                     ; 0x2012 <bassNotes>
     400: a8           	tay
     401: a6 15        	ldx	$15                     ; 0x2015 <bassNotes+0x3>
     403: a5 14        	lda	$14                     ; 0x2014 <bassNotes+0x2>
     405: 85 1b        	sta	$1b                     ; 0x201b <bassNotes+0x9>
     407: a5 14        	lda	$14                     ; 0x2014 <bassNotes+0x2>
     409: 65 13        	adc	$13                     ; 0x2013 <bassNotes+0x1>
     40b: 84 14        	sty	$14                     ; 0x2014 <bassNotes+0x2>
     40d: a0 01        	ldy	#$1
     40f: 84 01        	sty	$1                      ; 0x2001 <textColors+0x1f>
     411: 85 15        	sta	$15                     ; 0x2015 <bassNotes+0x3>
     413: a5 19        	lda	$19                     ; 0x2019 <bassNotes+0x7>
     415: 92 14        	sta	($14)                   ; 0x2014 <bassNotes+0x2>
     417: 91 14        	sta	($14),y                 ; 0x2014 <bassNotes+0x2>
     419: c8           	iny
     41a: 91 14        	sta	($14),y                 ; 0x2014 <bassNotes+0x2>
     41c: 85 13        	sta	$13                     ; 0x2013 <bassNotes+0x1>
     41e: c8           	iny
     41f: a9 ff        	lda	#$ff
     421: 91 14        	sta	($14),y                 ; 0x2014 <bassNotes+0x2>
     423: 8a           	txa
     424: a6 1a        	ldx	$1a                     ; 0x201a <bassNotes+0x8>
     426: 86 01        	stx	$1                      ; 0x2001 <textColors+0x1f>
     428: 18           	clc
     429: 69 04        	adc	#$4
     42b: 85 15        	sta	$15                     ; 0x2015 <bassNotes+0x3>
     42d: a5 1b        	lda	$1b                     ; 0x201b <bassNotes+0x9>
     42f: 69 00        	adc	#$0
     431: e6 13        	inc	$13                     ; 0x2013 <bassNotes+0x1>
     433: a4 13        	ldy	$13                     ; 0x2013 <bassNotes+0x1>
     435: 85 14        	sta	$14                     ; 0x2014 <bassNotes+0x2>
     437: c9 04        	cmp	#$4
     439: f0 03        	beq	$43e <f256Init+0x91>
     43b: 4c e9 03     	jmp	$3e9 <f256Init+0x3c>
     43e: a5 15        	lda	$15                     ; 0x2015 <bassNotes+0x3>
     440: f0 03        	beq	$445 <f256Init+0x98>
     442: 4c e9 03     	jmp	$3e9 <f256Init+0x3c>
     445: a6 16        	ldx	$16                     ; 0x2016 <bassNotes+0x4>
     447: e8           	inx
     448: e0 04        	cpx	#$4
     44a: f0 03        	beq	$44f <f256Init+0xa2>
     44c: 4c d6 03     	jmp	$3d6 <f256Init+0x29>
     44f: ad 02 d0     	lda	$d002                   ; 0xd002 <__heap_start+0xafb0>
     452: 29 f0        	and	#$f0
     454: 8d 02 d0     	sta	$d002                   ; 0xd002 <__heap_start+0xafb0>
     457: ad 02 d0     	lda	$d002                   ; 0xd002 <__heap_start+0xafb0>
     45a: 29 0f        	and	#$f
     45c: 09 10        	ora	#$10
     45e: 8d 02 d0     	sta	$d002                   ; 0xd002 <__heap_start+0xafb0>
     461: a2 02        	ldx	#$2
     463: 8e 03 d0     	stx	$d003                   ; 0xd003 <__heap_start+0xafb1>
     466: ad 01 d0     	lda	$d001                   ; 0xd001 <__heap_start+0xafaf>
     469: 29 f9        	and	#$f9
     46b: 09 04        	ora	#$4
     46d: 8d 01 d0     	sta	$d001                   ; 0xd001 <__heap_start+0xafaf>
     470: 64 12        	stz	$12                     ; 0x2012 <bassNotes>
     472: 9c 10 d0     	stz	$d010                   ; 0xd010 <__heap_start+0xafbe>
     475: a2 00        	ldx	#$0
     477: 64 13        	stz	$13                     ; 0x2013 <bassNotes+0x1>
     479: 86 16        	stx	$16                     ; 0x2016 <bassNotes+0x4>
     47b: a4 16        	ldy	$16                     ; 0x2016 <bassNotes+0x4>
     47d: be e2 1f     	ldx	$1fe2,y                 ; 0x1fe2 <textColors>
     480: 86 17        	stx	$17                     ; 0x2017 <bassNotes+0x5>
     482: be e3 1f     	ldx	$1fe3,y                 ; 0x1fe3 <textColors+0x1>
     485: 86 18        	stx	$18                     ; 0x2018 <bassNotes+0x6>
     487: be e4 1f     	ldx	$1fe4,y                 ; 0x1fe4 <textColors+0x2>
     48a: 86 19        	stx	$19                     ; 0x2019 <bassNotes+0x7>
     48c: a6 13        	ldx	$13                     ; 0x2013 <bassNotes+0x1>
     48e: 8e 00 de     	stx	$de00                   ; 0xde00 <__heap_start+0xbdae>
     491: 86 15        	stx	$15                     ; 0x2015 <bassNotes+0x3>
     493: 9c 01 de     	stz	$de01                   ; 0xde01 <__heap_start+0xbdaf>
     496: a2 04        	ldx	#$4
     498: 8e 02 de     	stx	$de02                   ; 0xde02 <__heap_start+0xbdb0>
     49b: 9c 03 de     	stz	$de03                   ; 0xde03 <__heap_start+0xbdb1>
     49e: ad 10 de     	lda	$de10                   ; 0xde10 <__heap_start+0xbdbe>
     4a1: ac 11 de     	ldy	$de11                   ; 0xde11 <__heap_start+0xbdbf>
     4a4: 84 13        	sty	$13                     ; 0x2013 <bassNotes+0x1>
     4a6: ac 12 de     	ldy	$de12                   ; 0xde12 <__heap_start+0xbdc0>
     4a9: ac 13 de     	ldy	$de13                   ; 0xde13 <__heap_start+0xbdc1>
     4ac: 18           	clc
     4ad: 65 12        	adc	$12                     ; 0x2012 <bassNotes>
     4af: 85 14        	sta	$14                     ; 0x2014 <bassNotes+0x2>
     4b1: a6 15        	ldx	$15                     ; 0x2015 <bassNotes+0x3>
     4b3: a9 d8        	lda	#$d8
     4b5: 65 13        	adc	$13                     ; 0x2013 <bassNotes+0x1>
     4b7: 85 15        	sta	$15                     ; 0x2015 <bassNotes+0x3>
     4b9: a5 19        	lda	$19                     ; 0x2019 <bassNotes+0x7>
     4bb: 92 14        	sta	($14)                   ; 0x2014 <bassNotes+0x2>
     4bd: a0 01        	ldy	#$1
     4bf: a5 18        	lda	$18                     ; 0x2018 <bassNotes+0x6>
     4c1: 91 14        	sta	($14),y                 ; 0x2014 <bassNotes+0x2>
     4c3: c8           	iny
     4c4: a5 17        	lda	$17                     ; 0x2017 <bassNotes+0x5>
     4c6: 91 14        	sta	($14),y                 ; 0x2014 <bassNotes+0x2>
     4c8: c8           	iny
     4c9: a9 ff        	lda	#$ff
     4cb: 91 14        	sta	($14),y                 ; 0x2014 <bassNotes+0x2>
     4cd: 8e 00 de     	stx	$de00                   ; 0xde00 <__heap_start+0xbdae>
     4d0: 9c 01 de     	stz	$de01                   ; 0xde01 <__heap_start+0xbdaf>
     4d3: c8           	iny
     4d4: 8c 02 de     	sty	$de02                   ; 0xde02 <__heap_start+0xbdb0>
     4d7: 9c 03 de     	stz	$de03                   ; 0xde03 <__heap_start+0xbdb1>
     4da: ad 10 de     	lda	$de10                   ; 0xde10 <__heap_start+0xbdbe>
     4dd: 85 13        	sta	$13                     ; 0x2013 <bassNotes+0x1>
     4df: ad 11 de     	lda	$de11                   ; 0xde11 <__heap_start+0xbdbf>
     4e2: 85 14        	sta	$14                     ; 0x2014 <bassNotes+0x2>
     4e4: a9 40        	lda	#$40
     4e6: 18           	clc
     4e7: 65 13        	adc	$13                     ; 0x2013 <bassNotes+0x1>
     4e9: a8           	tay
     4ea: a9 d8        	lda	#$d8
     4ec: 65 14        	adc	$14                     ; 0x2014 <bassNotes+0x2>
     4ee: 85 15        	sta	$15                     ; 0x2015 <bassNotes+0x3>
     4f0: 84 14        	sty	$14                     ; 0x2014 <bassNotes+0x2>
     4f2: ad 12 de     	lda	$de12                   ; 0xde12 <__heap_start+0xbdc0>
     4f5: ad 13 de     	lda	$de13                   ; 0xde13 <__heap_start+0xbdc1>
     4f8: a5 19        	lda	$19                     ; 0x2019 <bassNotes+0x7>
     4fa: 92 14        	sta	($14)                   ; 0x2014 <bassNotes+0x2>
     4fc: a5 18        	lda	$18                     ; 0x2018 <bassNotes+0x6>
     4fe: a0 01        	ldy	#$1
     500: 91 14        	sta	($14),y                 ; 0x2014 <bassNotes+0x2>
     502: a5 17        	lda	$17                     ; 0x2017 <bassNotes+0x5>
     504: c8           	iny
     505: 91 14        	sta	($14),y                 ; 0x2014 <bassNotes+0x2>
     507: c8           	iny
     508: a9 ff        	lda	#$ff
     50a: 91 14        	sta	($14),y                 ; 0x2014 <bassNotes+0x2>
     50c: e8           	inx
     50d: 86 13        	stx	$13                     ; 0x2013 <bassNotes+0x1>
     50f: 18           	clc
     510: a5 16        	lda	$16                     ; 0x2016 <bassNotes+0x4>
     512: 69 03        	adc	#$3
     514: aa           	tax
     515: c9 30        	cmp	#$30
     517: f0 03        	beq	$51c <f256Init+0x16f>
     519: 4c 79 04     	jmp	$479 <f256Init+0xcc>
     51c: 20 d5 06     	jsr	$6d5 <textClear>
     51f: a2 40        	ldx	#$40
     521: 8e 00 de     	stx	$de00                   ; 0xde00 <__heap_start+0xbdae>
     524: a2 01        	ldx	#$1
     526: 8e 01 de     	stx	$de01                   ; 0xde01 <__heap_start+0xbdaf>
     529: a2 f0        	ldx	#$f0
     52b: 8e 02 de     	stx	$de02                   ; 0xde02 <__heap_start+0xbdb0>
     52e: 9c 03 de     	stz	$de03                   ; 0xde03 <__heap_start+0xbdb1>
     531: ae 10 de     	ldx	$de10                   ; 0xde10 <__heap_start+0xbdbe>
     534: 86 17        	stx	$17                     ; 0x2017 <bassNotes+0x5>
     536: ae 11 de     	ldx	$de11                   ; 0xde11 <__heap_start+0xbdbf>
     539: 86 12        	stx	$12                     ; 0x2012 <bassNotes>
     53b: ae 12 de     	ldx	$de12                   ; 0xde12 <__heap_start+0xbdc0>
     53e: 86 13        	stx	$13                     ; 0x2013 <bassNotes+0x1>
     540: ae 13 de     	ldx	$de13                   ; 0xde13 <__heap_start+0xbdc1>
     543: 86 14        	stx	$14                     ; 0x2014 <bassNotes+0x2>
     545: 64 91        	stz	$91                     ; 0x2091 <__heap_start+0x3f>
     547: a4 12        	ldy	$12                     ; 0x2012 <bassNotes>
     549: 84 15        	sty	$15                     ; 0x2015 <bassNotes+0x3>
     54b: 06 15        	asl	$15                     ; 0x2015 <bassNotes+0x3>
     54d: a5 13        	lda	$13                     ; 0x2013 <bassNotes+0x1>
     54f: 2a           	rol
     550: 86 16        	stx	$16                     ; 0x2016 <bassNotes+0x4>
     552: 26 16        	rol	$16                     ; 0x2016 <bassNotes+0x4>
     554: 06 15        	asl	$15                     ; 0x2015 <bassNotes+0x3>
     556: 2a           	rol
     557: 26 16        	rol	$16                     ; 0x2016 <bassNotes+0x4>
     559: 06 15        	asl	$15                     ; 0x2015 <bassNotes+0x3>
     55b: 2a           	rol
     55c: 26 16        	rol	$16                     ; 0x2016 <bassNotes+0x4>
     55e: 85 15        	sta	$15                     ; 0x2015 <bassNotes+0x3>
     560: 8d 00 de     	sta	$de00                   ; 0xde00 <__heap_start+0xbdae>
     563: a5 16        	lda	$16                     ; 0x2016 <bassNotes+0x4>
     565: 8d 01 de     	sta	$de01                   ; 0xde01 <__heap_start+0xbdaf>
     568: 9c 02 de     	stz	$de02                   ; 0xde02 <__heap_start+0xbdb0>
     56b: a2 20        	ldx	#$20
     56d: 8e 03 de     	stx	$de03                   ; 0xde03 <__heap_start+0xbdb1>
     570: ae 10 de     	ldx	$de10                   ; 0xde10 <__heap_start+0xbdbe>
     573: 86 16        	stx	$16                     ; 0x2016 <bassNotes+0x4>
     575: ae 11 de     	ldx	$de11                   ; 0xde11 <__heap_start+0xbdbf>
     578: 86 18        	stx	$18                     ; 0x2018 <bassNotes+0x6>
     57a: ac 12 de     	ldy	$de12                   ; 0xde12 <__heap_start+0xbdc0>
     57d: ae 13 de     	ldx	$de13                   ; 0xde13 <__heap_start+0xbdc1>
     580: e4 14        	cpx	$14                     ; 0x2014 <bassNotes+0x2>
     582: d0 14        	bne	$598 <f256Init+0x1eb>
     584: c4 13        	cpy	$13                     ; 0x2013 <bassNotes+0x1>
     586: d0 10        	bne	$598 <f256Init+0x1eb>
     588: a6 18        	ldx	$18                     ; 0x2018 <bassNotes+0x6>
     58a: e4 12        	cpx	$12                     ; 0x2012 <bassNotes>
     58c: d0 0a        	bne	$598 <f256Init+0x1eb>
     58e: a6 16        	ldx	$16                     ; 0x2016 <bassNotes+0x4>
     590: e4 17        	cpx	$17                     ; 0x2017 <bassNotes+0x5>
     592: d0 04        	bne	$598 <f256Init+0x1eb>
     594: a6 15        	ldx	$15                     ; 0x2015 <bassNotes+0x3>
     596: 80 06        	bra	$59e <f256Init+0x1f1>
     598: a6 15        	ldx	$15                     ; 0x2015 <bassNotes+0x3>
     59a: e8           	inx
     59b: d0 01        	bne	$59e <f256Init+0x1f1>
     59d: 1a           	inc
     59e: 8e 00 de     	stx	$de00                   ; 0xde00 <__heap_start+0xbdae>
     5a1: 8d 01 de     	sta	$de01                   ; 0xde01 <__heap_start+0xbdaf>
     5a4: 9c 02 de     	stz	$de02                   ; 0xde02 <__heap_start+0xbdb0>
     5a7: a2 20        	ldx	#$20
     5a9: 8e 03 de     	stx	$de03                   ; 0xde03 <__heap_start+0xbdb1>
     5ac: ae 10 de     	ldx	$de10                   ; 0xde10 <__heap_start+0xbdbe>
     5af: 86 12        	stx	$12                     ; 0x2012 <bassNotes>
     5b1: ae 11 de     	ldx	$de11                   ; 0xde11 <__heap_start+0xbdbf>
     5b4: 86 13        	stx	$13                     ; 0x2013 <bassNotes+0x1>
     5b6: ae 12 de     	ldx	$de12                   ; 0xde12 <__heap_start+0xbdc0>
     5b9: 86 14        	stx	$14                     ; 0x2014 <bassNotes+0x2>
     5bb: ae 13 de     	ldx	$de13                   ; 0xde13 <__heap_start+0xbdc1>
     5be: 86 15        	stx	$15                     ; 0x2015 <bassNotes+0x3>
     5c0: 38           	sec
     5c1: a9 00        	lda	#$0
     5c3: e5 12        	sbc	$12                     ; 0x2012 <bassNotes>
     5c5: a8           	tay
     5c6: a9 00        	lda	#$0
     5c8: e5 13        	sbc	$13                     ; 0x2013 <bassNotes+0x1>
     5ca: 85 16        	sta	$16                     ; 0x2016 <bassNotes+0x4>
     5cc: a9 08        	lda	#$8
     5ce: e5 14        	sbc	$14                     ; 0x2014 <bassNotes+0x2>
     5d0: aa           	tax
     5d1: a9 00        	lda	#$0
     5d3: e5 15        	sbc	$15                     ; 0x2015 <bassNotes+0x3>
     5d5: 85 18        	sta	$18                     ; 0x2018 <bassNotes+0x6>
     5d7: a5 16        	lda	$16                     ; 0x2016 <bassNotes+0x4>
     5d9: 8d 47 20     	sta	$2047                   ; 0x2047 <_BITMAP_BASE.0+0x1>
     5dc: 8e 48 20     	stx	$2048                   ; 0x2048 <_BITMAP_BASE.0+0x2>
     5df: a5 18        	lda	$18                     ; 0x2018 <bassNotes+0x6>
     5e1: 8d 49 20     	sta	$2049                   ; 0x2049 <_BITMAP_BASE.0+0x3>
     5e4: 98           	tya
     5e5: 38           	sec
     5e6: e5 12        	sbc	$12                     ; 0x2012 <bassNotes>
     5e8: 85 19        	sta	$19                     ; 0x2019 <bassNotes+0x7>
     5ea: a5 16        	lda	$16                     ; 0x2016 <bassNotes+0x4>
     5ec: e5 13        	sbc	$13                     ; 0x2013 <bassNotes+0x1>
     5ee: 85 17        	sta	$17                     ; 0x2017 <bassNotes+0x5>
     5f0: 8a           	txa
     5f1: e5 14        	sbc	$14                     ; 0x2014 <bassNotes+0x2>
     5f3: 85 16        	sta	$16                     ; 0x2016 <bassNotes+0x4>
     5f5: a5 18        	lda	$18                     ; 0x2018 <bassNotes+0x6>
     5f7: e5 15        	sbc	$15                     ; 0x2015 <bassNotes+0x3>
     5f9: 85 15        	sta	$15                     ; 0x2015 <bassNotes+0x3>
     5fb: 38           	sec
     5fc: a5 19        	lda	$19                     ; 0x2019 <bassNotes+0x7>
     5fe: 8d 4a 20     	sta	$204a                   ; 0x204a <_BITMAP_BASE.1>
     601: a6 17        	ldx	$17                     ; 0x2017 <bassNotes+0x5>
     603: 8e 4b 20     	stx	$204b                   ; 0x204b <_BITMAP_BASE.1+0x1>
     606: a6 16        	ldx	$16                     ; 0x2016 <bassNotes+0x4>
     608: 8e 4c 20     	stx	$204c                   ; 0x204c <_BITMAP_BASE.1+0x2>
     60b: a6 15        	ldx	$15                     ; 0x2015 <bassNotes+0x3>
     60d: 8e 4d 20     	stx	$204d                   ; 0x204d <_BITMAP_BASE.1+0x3>
     610: e5 12        	sbc	$12                     ; 0x2012 <bassNotes>
     612: 85 15        	sta	$15                     ; 0x2015 <bassNotes+0x3>
     614: a5 17        	lda	$17                     ; 0x2017 <bassNotes+0x5>
     616: e5 13        	sbc	$13                     ; 0x2013 <bassNotes+0x1>
     618: 85 13        	sta	$13                     ; 0x2013 <bassNotes+0x1>
     61a: a5 16        	lda	$16                     ; 0x2016 <bassNotes+0x4>
     61c: e5 14        	sbc	$14                     ; 0x2014 <bassNotes+0x2>
     61e: 8c 46 20     	sty	$2046                   ; 0x2046 <_BITMAP_BASE.0>
     621: 9c 4e 20     	stz	$204e                   ; 0x204e <_BITMAP_CLUT>
     624: 9c 4f 20     	stz	$204f                   ; 0x204f <_BITMAP_CLUT+0x1>
     627: 9c 50 20     	stz	$2050                   ; 0x2050 <_BITMAP_CLUT+0x2>
     62a: 8c 01 d1     	sty	$d101                   ; 0xd101 <__heap_start+0xb0af>
     62d: ae 47 20     	ldx	$2047                   ; 0x2047 <_BITMAP_BASE.0+0x1>
     630: 8e 02 d1     	stx	$d102                   ; 0xd102 <__heap_start+0xb0b0>
     633: ae 48 20     	ldx	$2048                   ; 0x2048 <_BITMAP_BASE.0+0x2>
     636: 8e 03 d1     	stx	$d103                   ; 0xd103 <__heap_start+0xb0b1>
     639: ae 4a 20     	ldx	$204a                   ; 0x204a <_BITMAP_BASE.1>
     63c: 8e 09 d1     	stx	$d109                   ; 0xd109 <__heap_start+0xb0b7>
     63f: ae 4b 20     	ldx	$204b                   ; 0x204b <_BITMAP_BASE.1+0x1>
     642: 8e 0a d1     	stx	$d10a                   ; 0xd10a <__heap_start+0xb0b8>
     645: ae 4c 20     	ldx	$204c                   ; 0x204c <_BITMAP_BASE.1+0x2>
     648: 8e 0b d1     	stx	$d10b                   ; 0xd10b <__heap_start+0xb0b9>
     64b: a6 15        	ldx	$15                     ; 0x2015 <bassNotes+0x3>
     64d: 8e 11 d1     	stx	$d111                   ; 0xd111 <__heap_start+0xb0bf>
     650: a6 13        	ldx	$13                     ; 0x2013 <bassNotes+0x1>
     652: 8e 12 d1     	stx	$d112                   ; 0xd112 <__heap_start+0xb0c0>
     655: 8d 13 d1     	sta	$d113                   ; 0xd113 <__heap_start+0xb0c1>
     658: 9c 00 d1     	stz	$d100                   ; 0xd100 <__heap_start+0xb0ae>
     65b: 9c 08 d1     	stz	$d108                   ; 0xd108 <__heap_start+0xb0b6>
     65e: 9c 10 d1     	stz	$d110                   ; 0xd110 <__heap_start+0xb0be>
     661: a2 10        	ldx	#$10
     663: 8e 00 d2     	stx	$d200                   ; 0xd200 <__heap_start+0xb1ae>
     666: 8e 0c d2     	stx	$d20c                   ; 0xd20c <__heap_start+0xb1ba>
     669: 8e 18 d2     	stx	$d218                   ; 0xd218 <__heap_start+0xb1c6>
     66c: a0 d9        	ldy	#$d9
     66e: a2 40        	ldx	#$40
     670: 64 12        	stz	$12                     ; 0x2012 <bassNotes>
     672: 84 13        	sty	$13                     ; 0x2013 <bassNotes+0x1>
     674: a9 00        	lda	#$0
     676: 92 12        	sta	($12)                   ; 0x2012 <bassNotes>
     678: ca           	dex
     679: 18           	clc
     67a: a5 12        	lda	$12                     ; 0x2012 <bassNotes>
     67c: 69 08        	adc	#$8
     67e: 85 12        	sta	$12                     ; 0x2012 <bassNotes>
     680: 98           	tya
     681: 69 00        	adc	#$0
     683: a8           	tay
     684: 8a           	txa
     685: d0 eb        	bne	$672 <f256Init+0x2c5>
     687: a2 99        	ldx	#$99
     689: a0 00        	ldy	#$0
     68b: 86 fb        	stx	$fb                     ; 0x20fb <__heap_start+0xa9>
     68d: 84 fc        	sty	$fc                     ; 0x20fc <__heap_start+0xaa>
     68f: a2 08        	ldx	#$8
     691: 86 fd        	stx	$fd                     ; 0x20fd <__heap_start+0xab>
     693: a2 a1        	ldx	#$a1
     695: a0 00        	ldy	#$0
     697: 86 12        	stx	$12                     ; 0x2012 <bassNotes>
     699: 84 13        	sty	$13                     ; 0x2013 <bassNotes+0x1>
     69b: a2 45        	ldx	#$45
     69d: 86 14        	stx	$14                     ; 0x2014 <bassNotes+0x2>
     69f: a2 20        	ldx	#$20
     6a1: 86 15        	stx	$15                     ; 0x2015 <bassNotes+0x3>
     6a3: 20 dc ff     	jsr	$ffdc <__heap_start+0xdf8a>
     6a6: 92 12        	sta	($12)                   ; 0x2012 <bassNotes>
     6a8: a9 00        	lda	#$0
     6aa: 6a           	ror
     6ab: 85 14        	sta	$14                     ; 0x2014 <bassNotes+0x2>
     6ad: a6 9f        	ldx	$9f                     ; 0x209f <__heap_start+0x4d>
     6af: a4 a0        	ldy	$a0                     ; 0x20a0 <__heap_start+0x4e>
     6b1: 8e 00 de     	stx	$de00                   ; 0xde00 <__heap_start+0xbdae>
     6b4: 9c 01 de     	stz	$de01                   ; 0xde01 <__heap_start+0xbdaf>
     6b7: 8c 02 de     	sty	$de02                   ; 0xde02 <__heap_start+0xbdb0>
     6ba: 9c 03 de     	stz	$de03                   ; 0xde03 <__heap_start+0xbdb1>
     6bd: ae 10 de     	ldx	$de10                   ; 0xde10 <__heap_start+0xbdbe>
     6c0: ac 11 de     	ldy	$de11                   ; 0xde11 <__heap_start+0xbdbf>
     6c3: ad 12 de     	lda	$de12                   ; 0xde12 <__heap_start+0xbdc0>
     6c6: ad 13 de     	lda	$de13                   ; 0xde13 <__heap_start+0xbdc1>
     6c9: 8e a4 d6     	stx	$d6a4                   ; 0xd6a4 <__heap_start+0xb652>
     6cc: 8c a5 d6     	sty	$d6a5                   ; 0xd6a5 <__heap_start+0xb653>
     6cf: a2 03        	ldx	#$3
     6d1: 8e a6 d6     	stx	$d6a6                   ; 0xd6a6 <__heap_start+0xb654>
     6d4: 60           	rts

000006d5 <textClear>:
     6d5: a6 01        	ldx	$1                      ; 0x2001 <textColors+0x1f>
     6d7: 86 18        	stx	$18                     ; 0x2018 <bassNotes+0x6>
     6d9: a2 50        	ldx	#$50
     6db: 8e 00 de     	stx	$de00                   ; 0xde00 <__heap_start+0xbdae>
     6de: 9c 01 de     	stz	$de01                   ; 0xde01 <__heap_start+0xbdaf>
     6e1: a2 1e        	ldx	#$1e
     6e3: 8e 02 de     	stx	$de02                   ; 0xde02 <__heap_start+0xbdb0>
     6e6: 9c 03 de     	stz	$de03                   ; 0xde03 <__heap_start+0xbdb1>
     6e9: ae 10 de     	ldx	$de10                   ; 0xde10 <__heap_start+0xbdbe>
     6ec: ac 11 de     	ldy	$de11                   ; 0xde11 <__heap_start+0xbdbf>
     6ef: ad 12 de     	lda	$de12                   ; 0xde12 <__heap_start+0xbdc0>
     6f2: ad 13 de     	lda	$de13                   ; 0xde13 <__heap_start+0xbdc1>
     6f5: a9 02        	lda	#$2
     6f7: 85 01        	sta	$1                      ; 0x2001 <textColors+0x1f>
     6f9: e0 01        	cpx	#$1
     6fb: 98           	tya
     6fc: e9 00        	sbc	#$0
     6fe: 50 02        	bvc	$702 <textClear+0x2d>
     700: 49 80        	eor	#$80
     702: c9 00        	cmp	#$0
     704: 30 50        	bmi	$756 <textClear+0x81>
     706: a9 00        	lda	#$0
     708: 85 12        	sta	$12                     ; 0x2012 <bassNotes>
     70a: a9 c0        	lda	#$c0
     70c: 85 13        	sta	$13                     ; 0x2013 <bassNotes+0x1>
     70e: a9 20        	lda	#$20
     710: 86 19        	stx	$19                     ; 0x2019 <bassNotes+0x7>
     712: 86 14        	stx	$14                     ; 0x2014 <bassNotes+0x2>
     714: 84 15        	sty	$15                     ; 0x2015 <bassNotes+0x3>
     716: a2 00        	ldx	#$0
     718: 86 16        	stx	$16                     ; 0x2016 <bassNotes+0x4>
     71a: a2 c0        	ldx	#$c0
     71c: 86 17        	stx	$17                     ; 0x2017 <bassNotes+0x5>
     71e: 92 16        	sta	($16)                   ; 0x2016 <bassNotes+0x4>
     720: e6 16        	inc	$16                     ; 0x2016 <bassNotes+0x4>
     722: d0 02        	bne	$726 <textClear+0x51>
     724: e6 17        	inc	$17                     ; 0x2017 <bassNotes+0x5>
     726: a2 ff        	ldx	#$ff
     728: c6 14        	dec	$14                     ; 0x2014 <bassNotes+0x2>
     72a: e4 14        	cpx	$14                     ; 0x2014 <bassNotes+0x2>
     72c: d0 02        	bne	$730 <textClear+0x5b>
     72e: c6 15        	dec	$15                     ; 0x2015 <bassNotes+0x3>
     730: a6 15        	ldx	$15                     ; 0x2015 <bassNotes+0x3>
     732: d0 ea        	bne	$71e <textClear+0x49>
     734: a6 14        	ldx	$14                     ; 0x2014 <bassNotes+0x2>
     736: d0 e6        	bne	$71e <textClear+0x49>
     738: a2 03        	ldx	#$3
     73a: 86 01        	stx	$1                      ; 0x2001 <textColors+0x1f>
     73c: a6 19        	ldx	$19                     ; 0x2019 <bassNotes+0x7>
     73e: a9 f0        	lda	#$f0
     740: 92 12        	sta	($12)                   ; 0x2012 <bassNotes>
     742: e6 12        	inc	$12                     ; 0x2012 <bassNotes>
     744: d0 02        	bne	$748 <textClear+0x73>
     746: e6 13        	inc	$13                     ; 0x2013 <bassNotes+0x1>
     748: ca           	dex
     749: e0 ff        	cpx	#$ff
     74b: d0 01        	bne	$74e <textClear+0x79>
     74d: 88           	dey
     74e: 98           	tya
     74f: d0 ed        	bne	$73e <textClear+0x69>
     751: 8a           	txa
     752: d0 ea        	bne	$73e <textClear+0x69>
     754: 80 04        	bra	$75a <textClear+0x85>
     756: a2 03        	ldx	#$3
     758: 86 01        	stx	$1                      ; 0x2001 <textColors+0x1f>
     75a: a6 18        	ldx	$18                     ; 0x2018 <bassNotes+0x6>
     75c: 86 01        	stx	$1                      ; 0x2001 <textColors+0x1f>
     75e: 64 8f        	stz	$8f                     ; 0x208f <__heap_start+0x3d>
     760: 9c 14 d0     	stz	$d014                   ; 0xd014 <__heap_start+0xafc2>
     763: 9c 15 d0     	stz	$d015                   ; 0xd015 <__heap_start+0xafc3>
     766: 64 90        	stz	$90                     ; 0x2090 <__heap_start+0x3e>
     768: 9c 16 d0     	stz	$d016                   ; 0xd016 <__heap_start+0xafc4>
     76b: 9c 17 d0     	stz	$d017                   ; 0xd017 <__heap_start+0xafc5>
     76e: 60           	rts

0000076f <main>:
     76f: 20 ad 03     	jsr	$3ad <f256Init>
     772: 20 75 07     	jsr	$775 <f256main>

00000775 <f256main>:
     775: 18           	clc
     776: a5 10        	lda	$10                     ; 0x2010 <textColors+0x2e>
     778: 69 f7        	adc	#$f7
     77a: 85 10        	sta	$10                     ; 0x2010 <textColors+0x2e>
     77c: a5 11        	lda	$11                     ; 0x2011 <textColors+0x2f>
     77e: 69 ff        	adc	#$ff
     780: 85 11        	sta	$11                     ; 0x2011 <textColors+0x2f>
     782: 64 28        	stz	$28                     ; 0x2028 <bassDelays+0xa>
     784: a2 00        	ldx	#$0
     786: 86 24        	stx	$24                     ; 0x2024 <bassDelays+0x6>
     788: a2 d1        	ldx	#$d1
     78a: 86 25        	stx	$25                     ; 0x2025 <bassDelays+0x7>
     78c: a2 08        	ldx	#$8
     78e: 86 26        	stx	$26                     ; 0x2026 <bassDelays+0x8>
     790: a2 d1        	ldx	#$d1
     792: 86 27        	stx	$27                     ; 0x2027 <bassDelays+0x9>
     794: 64 01        	stz	$1                      ; 0x2001 <textColors+0x1f>
     796: 20 d5 06     	jsr	$6d5 <textClear>
     799: 9c 00 de     	stz	$de00                   ; 0xde00 <__heap_start+0xbdae>
     79c: 9c 01 de     	stz	$de01                   ; 0xde01 <__heap_start+0xbdaf>
     79f: a2 04        	ldx	#$4
     7a1: 8e 02 de     	stx	$de02                   ; 0xde02 <__heap_start+0xbdb0>
     7a4: 9c 03 de     	stz	$de03                   ; 0xde03 <__heap_start+0xbdb1>
     7a7: ad 10 de     	lda	$de10                   ; 0xde10 <__heap_start+0xbdbe>
     7aa: ae 11 de     	ldx	$de11                   ; 0xde11 <__heap_start+0xbdbf>
     7ad: 86 12        	stx	$12                     ; 0x2012 <bassNotes>
     7af: ae 12 de     	ldx	$de12                   ; 0xde12 <__heap_start+0xbdc0>
     7b2: ae 13 de     	ldx	$de13                   ; 0xde13 <__heap_start+0xbdc1>
     7b5: 18           	clc
     7b6: 65 28        	adc	$28                     ; 0x2028 <bassDelays+0xa>
     7b8: aa           	tax
     7b9: a9 d8        	lda	#$d8
     7bb: 65 12        	adc	$12                     ; 0x2012 <bassNotes>
     7bd: 86 12        	stx	$12                     ; 0x2012 <bassNotes>
     7bf: 85 13        	sta	$13                     ; 0x2013 <bassNotes+0x1>
     7c1: a9 ff        	lda	#$ff
     7c3: 92 12        	sta	($12)                   ; 0x2012 <bassNotes>
     7c5: a0 01        	ldy	#$1
     7c7: 91 12        	sta	($12),y                 ; 0x2012 <bassNotes>
     7c9: c8           	iny
     7ca: 91 12        	sta	($12),y                 ; 0x2012 <bassNotes>
     7cc: c8           	iny
     7cd: 91 12        	sta	($12),y                 ; 0x2012 <bassNotes>
     7cf: 64 01        	stz	$1                      ; 0x2001 <textColors+0x1f>
     7d1: a2 0e        	ldx	#$e
     7d3: 8e 00 d0     	stx	$d000                   ; 0xd000 <__heap_start+0xafae>
     7d6: a2 10        	ldx	#$10
     7d8: 8e 01 d0     	stx	$d001                   ; 0xd001 <__heap_start+0xafaf>
     7db: 8e 02 d0     	stx	$d002                   ; 0xd002 <__heap_start+0xafb0>
     7de: a2 02        	ldx	#$2
     7e0: 8e 03 d0     	stx	$d003                   ; 0xd003 <__heap_start+0xafb1>
     7e3: ca           	dex
     7e4: 86 01        	stx	$1                      ; 0x2001 <textColors+0x1f>
     7e6: a2 d0        	ldx	#$d0
     7e8: a0 00        	ldy	#$0
     7ea: 84 12        	sty	$12                     ; 0x2012 <bassNotes>
     7ec: 86 13        	stx	$13                     ; 0x2013 <bassNotes+0x1>
     7ee: 84 18        	sty	$18                     ; 0x2018 <bassNotes+0x6>
     7f0: a5 0f        	lda	$f                      ; 0x200f <textColors+0x2d>
     7f2: 85 17        	sta	$17                     ; 0x2017 <bassNotes+0x5>
     7f4: 78           	sei
     7f5: a0 14        	ldy	#$14
     7f7: 84 0f        	sty	$f                      ; 0x200f <textColors+0x2d>
     7f9: a5 18        	lda	$18                     ; 0x2018 <bassNotes+0x6>
     7fb: 18           	clc
     7fc: 69 00        	adc	#$0
     7fe: 85 16        	sta	$16                     ; 0x2016 <bassNotes+0x4>
     800: a0 01        	ldy	#$1
     802: b0 02        	bcs	$806 <f256main+0x91>
     804: a0 00        	ldy	#$0
     806: 84 19        	sty	$19                     ; 0x2019 <bassNotes+0x7>
     808: 8a           	txa
     809: 69 10        	adc	#$10
     80b: a4 16        	ldy	$16                     ; 0x2016 <bassNotes+0x4>
     80d: 84 14        	sty	$14                     ; 0x2014 <bassNotes+0x2>
     80f: 85 15        	sta	$15                     ; 0x2015 <bassNotes+0x3>
     811: b2 14        	lda	($14)                   ; 0x2014 <bassNotes+0x2>
     813: a4 17        	ldy	$17                     ; 0x2017 <bassNotes+0x5>
     815: 84 0f        	sty	$f                      ; 0x200f <textColors+0x2d>
     817: 58           	cli
     818: 92 12        	sta	($12)                   ; 0x2012 <bassNotes>
     81a: a4 0f        	ldy	$f                      ; 0x200f <textColors+0x2d>
     81c: 78           	sei
     81d: a9 14        	lda	#$14
     81f: 85 0f        	sta	$f                      ; 0x200f <textColors+0x2d>
     821: 5a           	phy
     822: a4 19        	ldy	$19                     ; 0x2019 <bassNotes+0x7>
     824: c0 01        	cpy	#$1
     826: 8a           	txa
     827: 69 14        	adc	#$14
     829: a4 16        	ldy	$16                     ; 0x2016 <bassNotes+0x4>
     82b: 84 12        	sty	$12                     ; 0x2012 <bassNotes>
     82d: 7a           	ply
     82e: 85 13        	sta	$13                     ; 0x2013 <bassNotes+0x1>
     830: b2 12        	lda	($12)                   ; 0x2012 <bassNotes>
     832: 85 14        	sta	$14                     ; 0x2014 <bassNotes+0x2>
     834: 84 0f        	sty	$f                      ; 0x200f <textColors+0x2d>
     836: 8a           	txa
     837: a4 19        	ldy	$19                     ; 0x2019 <bassNotes+0x7>
     839: c0 01        	cpy	#$1
     83b: 69 04        	adc	#$4
     83d: 58           	cli
     83e: 85 13        	sta	$13                     ; 0x2013 <bassNotes+0x1>
     840: a4 18        	ldy	$18                     ; 0x2018 <bassNotes+0x6>
     842: a5 14        	lda	$14                     ; 0x2014 <bassNotes+0x2>
     844: 92 12        	sta	($12)                   ; 0x2012 <bassNotes>
     846: c8           	iny
     847: d0 01        	bne	$84a <f256main+0xd5>
     849: e8           	inx
     84a: e0 d3        	cpx	#$d3
     84c: f0 03        	beq	$851 <f256main+0xdc>
     84e: 4c ea 07     	jmp	$7ea <f256main+0x75>
     851: c0 ff        	cpy	#$ff
     853: f0 03        	beq	$858 <f256main+0xe3>
     855: 4c ea 07     	jmp	$7ea <f256main+0x75>
     858: 64 01        	stz	$1                      ; 0x2001 <textColors+0x1f>
     85a: 64 91        	stz	$91                     ; 0x2091 <__heap_start+0x3f>
     85c: 9c 46 20     	stz	$2046                   ; 0x2046 <_BITMAP_BASE.0>
     85f: 9c 47 20     	stz	$2047                   ; 0x2047 <_BITMAP_BASE.0+0x1>
     862: a2 03        	ldx	#$3
     864: 8e 48 20     	stx	$2048                   ; 0x2048 <_BITMAP_BASE.0+0x2>
     867: 9c 49 20     	stz	$2049                   ; 0x2049 <_BITMAP_BASE.0+0x3>
     86a: 9c 01 d1     	stz	$d101                   ; 0xd101 <__heap_start+0xb0af>
     86d: 9c 02 d1     	stz	$d102                   ; 0xd102 <__heap_start+0xb0b0>
     870: 8e 03 d1     	stx	$d103                   ; 0xd103 <__heap_start+0xb0b1>
     873: a9 01        	lda	#$1
     875: 0d 4e 20     	ora	$204e                   ; 0x204e <_BITMAP_CLUT>
     878: 8d 00 d1     	sta	$d100                   ; 0xd100 <__heap_start+0xb0ae>
     87b: a5 91        	lda	$91                     ; 0x2091 <__heap_start+0x3f>
     87d: 29 01        	and	#$1
     87f: a8           	tay
     880: a9 01        	lda	#$1
     882: 25 91        	and	$91                     ; 0x2091 <__heap_start+0x3f>
     884: aa           	tax
     885: 9e 4e 20     	stz	$204e,x                 ; 0x204e <_BITMAP_CLUT>
     888: a2 00        	ldx	#$0
     88a: 86 12        	stx	$12                     ; 0x2012 <bassNotes>
     88c: a2 d1        	ldx	#$d1
     88e: 86 13        	stx	$13                     ; 0x2013 <bassNotes+0x1>
     890: 98           	tya
     891: f0 08        	beq	$89b <f256main+0x126>
     893: a2 08        	ldx	#$8
     895: 86 12        	stx	$12                     ; 0x2012 <bassNotes>
     897: a2 d1        	ldx	#$d1
     899: 86 13        	stx	$13                     ; 0x2013 <bassNotes+0x1>
     89b: b2 12        	lda	($12)                   ; 0x2012 <bassNotes>
     89d: 29 f9        	and	#$f9
     89f: 92 12        	sta	($12)                   ; 0x2012 <bassNotes>
     8a1: a2 01        	ldx	#$1
     8a3: 86 91        	stx	$91                     ; 0x2091 <__heap_start+0x3f>
     8a5: 9c 4a 20     	stz	$204a                   ; 0x204a <_BITMAP_BASE.1>
     8a8: 9c 4b 20     	stz	$204b                   ; 0x204b <_BITMAP_BASE.1+0x1>
     8ab: 8e 4c 20     	stx	$204c                   ; 0x204c <_BITMAP_BASE.1+0x2>
     8ae: 9c 4d 20     	stz	$204d                   ; 0x204d <_BITMAP_BASE.1+0x3>
     8b1: 9c 09 d1     	stz	$d109                   ; 0xd109 <__heap_start+0xb0b7>
     8b4: 9c 0a d1     	stz	$d10a                   ; 0xd10a <__heap_start+0xb0b8>
     8b7: 8e 0b d1     	stx	$d10b                   ; 0xd10b <__heap_start+0xb0b9>
     8ba: 8a           	txa
     8bb: 0d 4f 20     	ora	$204f                   ; 0x204f <_BITMAP_CLUT+0x1>
     8be: 8d 08 d1     	sta	$d108                   ; 0xd108 <__heap_start+0xb0b6>
     8c1: a5 91        	lda	$91                     ; 0x2091 <__heap_start+0x3f>
     8c3: 29 01        	and	#$1
     8c5: a8           	tay
     8c6: 8a           	txa
     8c7: 25 91        	and	$91                     ; 0x2091 <__heap_start+0x3f>
     8c9: aa           	tax
     8ca: a9 02        	lda	#$2
     8cc: 9d 4e 20     	sta	$204e,x                 ; 0x204e <_BITMAP_CLUT>
     8cf: 98           	tya
     8d0: f0 08        	beq	$8da <f256main+0x165>
     8d2: a2 08        	ldx	#$8
     8d4: 86 24        	stx	$24                     ; 0x2024 <bassDelays+0x6>
     8d6: a2 d1        	ldx	#$d1
     8d8: 86 25        	stx	$25                     ; 0x2025 <bassDelays+0x7>
     8da: b2 24        	lda	($24)                   ; 0x2024 <bassDelays+0x6>
     8dc: 29 f9        	and	#$f9
     8de: a0 02        	ldy	#$2
     8e0: 09 02        	ora	#$2
     8e2: 92 24        	sta	($24)                   ; 0x2024 <bassDelays+0x6>
     8e4: 9c 10 d1     	stz	$d110                   ; 0xd110 <__heap_start+0xb0be>
     8e7: 64 91        	stz	$91                     ; 0x2091 <__heap_start+0x3f>
     8e9: a9 1e        	lda	#$1e
     8eb: 85 94        	sta	$94                     ; 0x2094 <__heap_start+0x42>
     8ed: a9 01        	lda	#$1
     8ef: 85 95        	sta	$95                     ; 0x2095 <__heap_start+0x43>
     8f1: 64 96        	stz	$96                     ; 0x2096 <__heap_start+0x44>
     8f3: 64 97        	stz	$97                     ; 0x2097 <__heap_start+0x45>
     8f5: 64 98        	stz	$98                     ; 0x2098 <__heap_start+0x46>
     8f7: 64 f3        	stz	$f3                     ; 0x20f3 <__heap_start+0xa1>
     8f9: a6 94        	ldx	$94                     ; 0x2094 <__heap_start+0x42>
     8fb: 86 f4        	stx	$f4                     ; 0x20f4 <__heap_start+0xa2>
     8fd: 85 f5        	sta	$f5                     ; 0x20f5 <__heap_start+0xa3>
     8ff: 18           	clc
     900: a5 10        	lda	$10                     ; 0x2010 <textColors+0x2e>
     902: 69 08        	adc	#$8
     904: 85 26        	sta	$26                     ; 0x2026 <bassDelays+0x8>
     906: a5 11        	lda	$11                     ; 0x2011 <textColors+0x2f>
     908: 69 00        	adc	#$0
     90a: 85 27        	sta	$27                     ; 0x2027 <bassDelays+0x9>
     90c: a2 45        	ldx	#$45
     90e: 86 24        	stx	$24                     ; 0x2024 <bassDelays+0x6>
     910: a2 20        	ldx	#$20
     912: 86 25        	stx	$25                     ; 0x2025 <bassDelays+0x7>
     914: 20 f0 ff     	jsr	$fff0 <__heap_start+0xdf9e>
     917: 92 26        	sta	($26)                   ; 0x2026 <bassDelays+0x8>
     919: a9 00        	lda	#$0
     91b: 6a           	ror
     91c: 85 24        	sta	$24                     ; 0x2024 <bassDelays+0x6>
     91e: 64 f3        	stz	$f3                     ; 0x20f3 <__heap_start+0xa1>
     920: a6 95        	ldx	$95                     ; 0x2095 <__heap_start+0x43>
     922: 86 f4        	stx	$f4                     ; 0x20f4 <__heap_start+0xa2>
     924: 64 f5        	stz	$f5                     ; 0x20f5 <__heap_start+0xa3>
     926: 20 f0 ff     	jsr	$fff0 <__heap_start+0xdf9e>
     929: 92 26        	sta	($26)                   ; 0x2026 <bassDelays+0x8>
     92b: a9 00        	lda	#$0
     92d: 6a           	ror
     92e: 85 24        	sta	$24                     ; 0x2024 <bassDelays+0x6>
     930: 64 f3        	stz	$f3                     ; 0x20f3 <__heap_start+0xa1>
     932: a6 96        	ldx	$96                     ; 0x2096 <__heap_start+0x44>
     934: 86 f4        	stx	$f4                     ; 0x20f4 <__heap_start+0xa2>
     936: 84 f5        	sty	$f5                     ; 0x20f5 <__heap_start+0xa3>
     938: a2 7b        	ldx	#$7b
     93a: 20 f0 ff     	jsr	$fff0 <__heap_start+0xdf9e>
     93d: 92 26        	sta	($26)                   ; 0x2026 <bassDelays+0x8>
     93f: a9 00        	lda	#$0
     941: 6a           	ror
     942: 85 24        	sta	$24                     ; 0x2024 <bassDelays+0x6>
     944: 8e a1 dd     	stx	$dda1                   ; 0xdda1 <__heap_start+0xbd4f>
     947: 9c a1 dd     	stz	$dda1                   ; 0xdda1 <__heap_start+0xbd4f>
     94a: a2 ff        	ldx	#$ff
     94c: 8e a1 dd     	stx	$dda1                   ; 0xdda1 <__heap_start+0xbd4f>
     94f: a2 c0        	ldx	#$c0
     951: 8e a1 dd     	stx	$dda1                   ; 0xdda1 <__heap_start+0xbd4f>
     954: a2 21        	ldx	#$21
     956: 8e a1 dd     	stx	$dda1                   ; 0xdda1 <__heap_start+0xbd4f>
     959: a2 c1        	ldx	#$c1
     95b: 8e a1 dd     	stx	$dda1                   ; 0xdda1 <__heap_start+0xbd4f>
     95e: a2 1d        	ldx	#$1d
     960: 8e a1 dd     	stx	$dda1                   ; 0xdda1 <__heap_start+0xbd4f>
     963: a2 c2        	ldx	#$c2
     965: 8e a1 dd     	stx	$dda1                   ; 0xdda1 <__heap_start+0xbd4f>
     968: a2 26        	ldx	#$26
     96a: 8e a1 dd     	stx	$dda1                   ; 0xdda1 <__heap_start+0xbd4f>
     96d: a2 c3        	ldx	#$c3
     96f: 8e a1 dd     	stx	$dda1                   ; 0xdda1 <__heap_start+0xbd4f>
     972: a2 57        	ldx	#$57
     974: 8e a1 dd     	stx	$dda1                   ; 0xdda1 <__heap_start+0xbd4f>
     977: 64 12        	stz	$12                     ; 0x2012 <bassNotes>
     979: a2 23        	ldx	#$23
     97b: 8a           	txa
     97c: 91 10        	sta	($10),y                 ; 0x2010 <textColors+0x2e>
     97e: a0 30        	ldy	#$30
     980: 64 13        	stz	$13                     ; 0x2013 <bassNotes+0x1>
     982: 5a           	phy
     983: a9 00        	lda	#$0
     985: a0 05        	ldy	#$5
     987: 91 10        	sta	($10),y                 ; 0x2010 <textColors+0x2e>
     989: 88           	dey
     98a: 91 10        	sta	($10),y                 ; 0x2010 <textColors+0x2e>
     98c: 88           	dey
     98d: 91 10        	sta	($10),y                 ; 0x2010 <textColors+0x2e>
     98f: 64 2c        	stz	$2c                     ; 0x202c <snareNotes+0x2>
     991: a0 07        	ldy	#$7
     993: 91 10        	sta	($10),y                 ; 0x2010 <textColors+0x2e>
     995: 7a           	ply
     996: 64 28        	stz	$28                     ; 0x2028 <bassDelays+0xa>
     998: 64 29        	stz	$29                     ; 0x2029 <bassDelays+0xb>
     99a: 64 2a        	stz	$2a                     ; 0x202a <snareNotes>
     99c: 4c 30 0f     	jmp	$f30 <f256main+0x7bb>
     99f: a8           	tay
     9a0: 64 12        	stz	$12                     ; 0x2012 <bassNotes>
     9a2: 48           	pha
     9a3: b9 2f 00     	lda	$2f,y                   ; 0x2f <__rc31>
     9a6: a8           	tay
     9a7: 68           	pla
     9a8: 84 13        	sty	$13                     ; 0x2013 <bassNotes+0x1>
     9aa: a0 00        	ldy	#$0
     9ac: e6 13        	inc	$13                     ; 0x2013 <bassNotes+0x1>
     9ae: c6 13        	dec	$13                     ; 0x2013 <bassNotes+0x1>
     9b0: f0 02        	beq	$9b4 <f256main+0x23f>
     9b2: a0 01        	ldy	#$1
     9b4: 84 13        	sty	$13                     ; 0x2013 <bassNotes+0x1>
     9b6: 46 13        	lsr	$13                     ; 0x2013 <bassNotes+0x1>
     9b8: 64 13        	stz	$13                     ; 0x2013 <bassNotes+0x1>
     9ba: 66 13        	ror	$13                     ; 0x2013 <bassNotes+0x1>
     9bc: 10 04        	bpl	$9c2 <f256main+0x24d>
     9be: a0 ff        	ldy	#$ff
     9c0: 80 02        	bra	$9c4 <f256main+0x24f>
     9c2: a0 00        	ldy	#$0
     9c4: 06 13        	asl	$13                     ; 0x2013 <bassNotes+0x1>
     9c6: 84 13        	sty	$13                     ; 0x2013 <bassNotes+0x1>
     9c8: 26 13        	rol	$13                     ; 0x2013 <bassNotes+0x1>
     9ca: a4 01        	ldy	$1                      ; 0x2001 <textColors+0x1f>
     9cc: 84 1a        	sty	$1a                     ; 0x201a <bassNotes+0x8>
     9ce: a0 01        	ldy	#$1
     9d0: 84 01        	sty	$1                      ; 0x2001 <textColors+0x1f>
     9d2: 48           	pha
     9d3: a5 13        	lda	$13                     ; 0x2013 <bassNotes+0x1>
     9d5: 85 14        	sta	$14                     ; 0x2014 <bassNotes+0x2>
     9d7: 68           	pla
     9d8: 48           	pha
     9d9: a5 13        	lda	$13                     ; 0x2013 <bassNotes+0x1>
     9db: 5a           	phy
     9dc: a0 05        	ldy	#$5
     9de: 91 10        	sta	($10),y                 ; 0x2010 <textColors+0x2e>
     9e0: 7a           	ply
     9e1: 68           	pla
     9e2: 0a           	asl
     9e3: 26 12        	rol	$12                     ; 0x2012 <bassNotes>
     9e5: 0a           	asl
     9e6: 85 13        	sta	$13                     ; 0x2013 <bassNotes+0x1>
     9e8: 26 12        	rol	$12                     ; 0x2012 <bassNotes>
     9ea: a9 00        	lda	#$0
     9ec: 18           	clc
     9ed: 65 13        	adc	$13                     ; 0x2013 <bassNotes+0x1>
     9ef: 85 13        	sta	$13                     ; 0x2013 <bassNotes+0x1>
     9f1: a9 d0        	lda	#$d0
     9f3: 65 12        	adc	$12                     ; 0x2012 <bassNotes>
     9f5: 5a           	phy
     9f6: a4 13        	ldy	$13                     ; 0x2013 <bassNotes+0x1>
     9f8: 84 12        	sty	$12                     ; 0x2012 <bassNotes>
     9fa: 7a           	ply
     9fb: 85 13        	sta	$13                     ; 0x2013 <bassNotes+0x1>
     9fd: a5 14        	lda	$14                     ; 0x2014 <bassNotes+0x2>
     9ff: 91 12        	sta	($12),y                 ; 0x2012 <bassNotes>
     a01: a0 05        	ldy	#$5
     a03: b1 10        	lda	($10),y                 ; 0x2010 <textColors+0x2e>
     a05: 92 12        	sta	($12)                   ; 0x2012 <bassNotes>
     a07: a0 02        	ldy	#$2
     a09: 91 12        	sta	($12),y                 ; 0x2012 <bassNotes>
     a0b: a9 ff        	lda	#$ff
     a0d: c8           	iny
     a0e: 91 12        	sta	($12),y                 ; 0x2012 <bassNotes>
     a10: a4 1a        	ldy	$1a                     ; 0x201a <bassNotes+0x8>
     a12: 84 01        	sty	$1                      ; 0x2001 <textColors+0x1f>
     a14: a4 17        	ldy	$17                     ; 0x2017 <bassNotes+0x5>
     a16: a9 01        	lda	#$1
     a18: c0 90        	cpy	#$90
     a1a: f0 14        	beq	$a30 <f256main+0x2bb>
     a1c: c0 80        	cpy	#$80
     a1e: d0 1d        	bne	$a3d <f256main+0x2c8>
     a20: a0 81        	ldy	#$81
     a22: 64 12        	stz	$12                     ; 0x2012 <bassNotes>
     a24: 48           	pha
     a25: a9 00        	lda	#$0
     a27: 5a           	phy
     a28: a0 07        	ldy	#$7
     a2a: 91 10        	sta	($10),y                 ; 0x2010 <textColors+0x2e>
     a2c: 7a           	ply
     a2d: 68           	pla
     a2e: 80 0f        	bra	$a3f <f256main+0x2ca>
     a30: a0 01        	ldy	#$1
     a32: 48           	pha
     a33: 98           	tya
     a34: a0 07        	ldy	#$7
     a36: 91 10        	sta	($10),y                 ; 0x2010 <textColors+0x2e>
     a38: 68           	pla
     a39: a0 91        	ldy	#$91
     a3b: 80 02        	bra	$a3f <f256main+0x2ca>
     a3d: a9 00        	lda	#$0
     a3f: 8c a1 dd     	sty	$dda1                   ; 0xdda1 <__heap_start+0xbd4f>
     a42: 48           	pha
     a43: a4 16        	ldy	$16                     ; 0x2016 <bassNotes+0x4>
     a45: 84 12        	sty	$12                     ; 0x2012 <bassNotes>
     a47: ca           	dex
     a48: e0 ff        	cpx	#$ff
     a4a: d0 02        	bne	$a4e <f256main+0x2d9>
     a4c: c6 12        	dec	$12                     ; 0x2012 <bassNotes>
     a4e: a4 2b        	ldy	$2b                     ; 0x202b <snareNotes+0x1>
     a50: a5 12        	lda	$12                     ; 0x2012 <bassNotes>
     a52: 85 16        	sta	$16                     ; 0x2016 <bassNotes+0x4>
     a54: 68           	pla
     a55: e6 12        	inc	$12                     ; 0x2012 <bassNotes>
     a57: c6 12        	dec	$12                     ; 0x2012 <bassNotes>
     a59: d0 04        	bne	$a5f <f256main+0x2ea>
     a5b: e0 00        	cpx	#$0
     a5d: f0 3b        	beq	$a9a <f256main+0x325>
     a5f: ac a1 dd     	ldy	$dda1                   ; 0xdda1 <__heap_start+0xbd4f>
     a62: c9 00        	cmp	#$0
     a64: d0 03        	bne	$a69 <f256main+0x2f4>
     a66: 4c 16 0a     	jmp	$a16 <f256main+0x2a1>
     a69: 84 17        	sty	$17                     ; 0x2017 <bassNotes+0x5>
     a6b: 98           	tya
     a6c: 18           	clc
     a6d: 69 ec        	adc	#$ec
     a6f: 48           	pha
     a70: a0 07        	ldy	#$7
     a72: b1 10        	lda	($10),y                 ; 0x2010 <textColors+0x2e>
     a74: 85 12        	sta	$12                     ; 0x2012 <bassNotes>
     a76: 68           	pla
     a77: a4 12        	ldy	$12                     ; 0x2012 <bassNotes>
     a79: d0 03        	bne	$a7e <f256main+0x309>
     a7b: 4c 9f 09     	jmp	$99f <f256main+0x22a>
     a7e: a4 01        	ldy	$1                      ; 0x2001 <textColors+0x1f>
     a80: 84 1a        	sty	$1a                     ; 0x201a <bassNotes+0x8>
     a82: a0 01        	ldy	#$1
     a84: 84 01        	sty	$1                      ; 0x2001 <textColors+0x1f>
     a86: 64 12        	stz	$12                     ; 0x2012 <bassNotes>
     a88: a0 ff        	ldy	#$ff
     a8a: 48           	pha
     a8b: 98           	tya
     a8c: a0 05        	ldy	#$5
     a8e: 91 10        	sta	($10),y                 ; 0x2010 <textColors+0x2e>
     a90: 68           	pla
     a91: a0 01        	ldy	#$1
     a93: 64 14        	stz	$14                     ; 0x2014 <bassNotes+0x2>
     a95: 4c e2 09     	jmp	$9e2 <f256main+0x26d>
     a98: a5 2c        	lda	$2c                     ; 0x202c <snareNotes+0x2>
     a9a: 85 2c        	sta	$2c                     ; 0x202c <snareNotes+0x2>
     a9c: 64 88        	stz	$88                     ; 0x2088 <__heap_start+0x36>
     a9e: 20 00 ff     	jsr	$ff00 <__heap_start+0xdeae>
     aa1: 92 26        	sta	($26)                   ; 0x2026 <bassDelays+0x8>
     aa3: a9 00        	lda	#$0
     aa5: 6a           	ror
     aa6: 85 24        	sta	$24                     ; 0x2024 <bassDelays+0x6>
     aa8: a5 88        	lda	$88                     ; 0x2088 <__heap_start+0x36>
     aaa: c9 08        	cmp	#$8
     aac: d0 03        	bne	$ab1 <f256main+0x33c>
     aae: 4c 53 0b     	jmp	$b53 <f256main+0x3de>
     ab1: a6 2f        	ldx	$2f                     ; 0x202f <kickNotes+0x1>
     ab3: 48           	pha
     ab4: 5a           	phy
     ab5: 8a           	txa
     ab6: a0 05        	ldy	#$5
     ab8: 91 10        	sta	($10),y                 ; 0x2010 <textColors+0x2e>
     aba: a6 2e        	ldx	$2e                     ; 0x202e <kickNotes>
     abc: 8a           	txa
     abd: 88           	dey
     abe: 91 10        	sta	($10),y                 ; 0x2010 <textColors+0x2e>
     ac0: a6 2d        	ldx	$2d                     ; 0x202d <snareNotes+0x3>
     ac2: 8a           	txa
     ac3: 88           	dey
     ac4: 91 10        	sta	($10),y                 ; 0x2010 <textColors+0x2e>
     ac6: 7a           	ply
     ac7: 68           	pla
     ac8: c9 52        	cmp	#$52
     aca: f0 03        	beq	$acf <f256main+0x35a>
     acc: 4c 30 0f     	jmp	$f30 <f256main+0x7bb>
     acf: a6 2f        	ldx	$2f                     ; 0x202f <kickNotes+0x1>
     ad1: 86 15        	stx	$15                     ; 0x2015 <bassNotes+0x3>
     ad3: a6 2e        	ldx	$2e                     ; 0x202e <kickNotes>
     ad5: 86 14        	stx	$14                     ; 0x2014 <bassNotes+0x2>
     ad7: a6 2d        	ldx	$2d                     ; 0x202d <snareNotes+0x3>
     ad9: 86 13        	stx	$13                     ; 0x2013 <bassNotes+0x1>
     adb: 84 12        	sty	$12                     ; 0x2012 <bassNotes>
     add: a5 8c        	lda	$8c                     ; 0x208c <__heap_start+0x3a>
     adf: c9 05        	cmp	#$5
     ae1: a6 2f        	ldx	$2f                     ; 0x202f <kickNotes+0x1>
     ae3: 48           	pha
     ae4: 8a           	txa
     ae5: a0 05        	ldy	#$5
     ae7: 91 10        	sta	($10),y                 ; 0x2010 <textColors+0x2e>
     ae9: a6 2e        	ldx	$2e                     ; 0x202e <kickNotes>
     aeb: 8a           	txa
     aec: 88           	dey
     aed: 91 10        	sta	($10),y                 ; 0x2010 <textColors+0x2e>
     aef: a6 2d        	ldx	$2d                     ; 0x202d <snareNotes+0x3>
     af1: 8a           	txa
     af2: 88           	dey
     af3: 91 10        	sta	($10),y                 ; 0x2010 <textColors+0x2e>
     af5: 68           	pla
     af6: a4 12        	ldy	$12                     ; 0x2012 <bassNotes>
     af8: 90 03        	bcc	$afd <f256main+0x388>
     afa: 4c 30 0f     	jmp	$f30 <f256main+0x7bb>
     afd: 0a           	asl
     afe: a6 2f        	ldx	$2f                     ; 0x202f <kickNotes+0x1>
     b00: 48           	pha
     b01: 8a           	txa
     b02: a0 05        	ldy	#$5
     b04: 91 10        	sta	($10),y                 ; 0x2010 <textColors+0x2e>
     b06: a6 2e        	ldx	$2e                     ; 0x202e <kickNotes>
     b08: 8a           	txa
     b09: 88           	dey
     b0a: 91 10        	sta	($10),y                 ; 0x2010 <textColors+0x2e>
     b0c: a6 2d        	ldx	$2d                     ; 0x202d <snareNotes+0x3>
     b0e: 8a           	txa
     b0f: 88           	dey
     b10: 91 10        	sta	($10),y                 ; 0x2010 <textColors+0x2e>
     b12: 68           	pla
     b13: a4 12        	ldy	$12                     ; 0x2012 <bassNotes>
     b15: aa           	tax
     b16: 7c 9e 1f     	jmp	($1f9e,x)               ; 0x1f9e <__set_v+0x9>
     b19: a2 80        	ldx	#$80
     b1b: 86 f3        	stx	$f3                     ; 0x20f3 <__heap_start+0xa1>
     b1d: 20 f0 ff     	jsr	$fff0 <__heap_start+0xdf9e>
     b20: 92 26        	sta	($26)                   ; 0x2026 <bassDelays+0x8>
     b22: a9 00        	lda	#$0
     b24: 6a           	ror
     b25: 85 24        	sta	$24                     ; 0x2024 <bassDelays+0x6>
     b27: b2 26        	lda	($26)                   ; 0x2026 <bassDelays+0x8>
     b29: 1a           	inc
     b2a: 85 95        	sta	$95                     ; 0x2095 <__heap_start+0x43>
     b2c: 64 f3        	stz	$f3                     ; 0x20f3 <__heap_start+0xa1>
     b2e: a6 95        	ldx	$95                     ; 0x2095 <__heap_start+0x43>
     b30: 86 f4        	stx	$f4                     ; 0x20f4 <__heap_start+0xa2>
     b32: 64 f5        	stz	$f5                     ; 0x20f5 <__heap_start+0xa3>
     b34: a5 2f        	lda	$2f                     ; 0x202f <kickNotes+0x1>
     b36: a0 05        	ldy	#$5
     b38: 91 10        	sta	($10),y                 ; 0x2010 <textColors+0x2e>
     b3a: a5 2e        	lda	$2e                     ; 0x202e <kickNotes>
     b3c: 88           	dey
     b3d: 91 10        	sta	($10),y                 ; 0x2010 <textColors+0x2e>
     b3f: a5 2d        	lda	$2d                     ; 0x202d <snareNotes+0x3>
     b41: 88           	dey
     b42: 91 10        	sta	($10),y                 ; 0x2010 <textColors+0x2e>
     b44: a4 12        	ldy	$12                     ; 0x2012 <bassNotes>
     b46: 20 f0 ff     	jsr	$fff0 <__heap_start+0xdf9e>
     b49: 92 26        	sta	($26)                   ; 0x2026 <bassDelays+0x8>
     b4b: a9 00        	lda	#$0
     b4d: 6a           	ror
     b4e: 85 24        	sta	$24                     ; 0x2024 <bassDelays+0x6>
     b50: 4c 30 0f     	jmp	$f30 <f256main+0x7bb>
     b53: a5 8c        	lda	$8c                     ; 0x208c <__heap_start+0x3a>
     b55: 85 14        	sta	$14                     ; 0x2014 <bassNotes+0x2>
     b57: 38           	sec
     b58: e9 b6        	sbc	#$b6
     b5a: c9 04        	cmp	#$4
     b5c: a0 01        	ldy	#$1
     b5e: b0 29        	bcs	$b89 <f256main+0x414>
     b60: 0a           	asl
     b61: aa           	tax
     b62: 7c 96 1f     	jmp	($1f96,x)               ; 0x1f96 <__set_v+0x1>
     b65: a5 2b        	lda	$2b                     ; 0x202b <snareNotes+0x1>
     b67: c9 7f        	cmp	#$7f
     b69: a6 2f        	ldx	$2f                     ; 0x202f <kickNotes+0x1>
     b6b: 48           	pha
     b6c: 8a           	txa
     b6d: a0 05        	ldy	#$5
     b6f: 91 10        	sta	($10),y                 ; 0x2010 <textColors+0x2e>
     b71: a6 2e        	ldx	$2e                     ; 0x202e <kickNotes>
     b73: 8a           	txa
     b74: 88           	dey
     b75: 91 10        	sta	($10),y                 ; 0x2010 <textColors+0x2e>
     b77: a6 2d        	ldx	$2d                     ; 0x202d <snareNotes+0x3>
     b79: 8a           	txa
     b7a: 88           	dey
     b7b: 91 10        	sta	($10),y                 ; 0x2010 <textColors+0x2e>
     b7d: 68           	pla
     b7e: a4 2b        	ldy	$2b                     ; 0x202b <snareNotes+0x1>
     b80: 90 03        	bcc	$b85 <f256main+0x410>
     b82: 4c 30 0f     	jmp	$f30 <f256main+0x7bb>
     b85: 1a           	inc
     b86: 4c ce 0e     	jmp	$ece <f256main+0x759>
     b89: a6 14        	ldx	$14                     ; 0x2014 <bassNotes+0x2>
     b8b: e0 20        	cpx	#$20
     b8d: d0 03        	bne	$b92 <f256main+0x41d>
     b8f: 4c b2 0d     	jmp	$db2 <f256main+0x63d>
     b92: a6 2f        	ldx	$2f                     ; 0x202f <kickNotes+0x1>
     b94: 8a           	txa
     b95: a0 05        	ldy	#$5
     b97: 91 10        	sta	($10),y                 ; 0x2010 <textColors+0x2e>
     b99: a6 2e        	ldx	$2e                     ; 0x202e <kickNotes>
     b9b: 8a           	txa
     b9c: 88           	dey
     b9d: 91 10        	sta	($10),y                 ; 0x2010 <textColors+0x2e>
     b9f: a6 2d        	ldx	$2d                     ; 0x202d <snareNotes+0x3>
     ba1: 8a           	txa
     ba2: 88           	dey
     ba3: 91 10        	sta	($10),y                 ; 0x2010 <textColors+0x2e>
     ba5: a4 2b        	ldy	$2b                     ; 0x202b <snareNotes+0x1>
     ba7: a5 14        	lda	$14                     ; 0x2014 <bassNotes+0x2>
     ba9: c9 92        	cmp	#$92
     bab: f0 03        	beq	$bb0 <f256main+0x43b>
     bad: 4c 30 0f     	jmp	$f30 <f256main+0x7bb>
     bb0: a2 7b        	ldx	#$7b
     bb2: 8e a1 dd     	stx	$dda1                   ; 0xdda1 <__heap_start+0xbd4f>
     bb5: 9c a1 dd     	stz	$dda1                   ; 0xdda1 <__heap_start+0xbd4f>
     bb8: a2 ff        	ldx	#$ff
     bba: 8e a1 dd     	stx	$dda1                   ; 0xdda1 <__heap_start+0xbd4f>
     bbd: a2 c0        	ldx	#$c0
     bbf: 8e a1 dd     	stx	$dda1                   ; 0xdda1 <__heap_start+0xbd4f>
     bc2: a2 21        	ldx	#$21
     bc4: 8e a1 dd     	stx	$dda1                   ; 0xdda1 <__heap_start+0xbd4f>
     bc7: a2 c1        	ldx	#$c1
     bc9: 8e a1 dd     	stx	$dda1                   ; 0xdda1 <__heap_start+0xbd4f>
     bcc: a2 1d        	ldx	#$1d
     bce: 8e a1 dd     	stx	$dda1                   ; 0xdda1 <__heap_start+0xbd4f>
     bd1: a2 c2        	ldx	#$c2
     bd3: 8e a1 dd     	stx	$dda1                   ; 0xdda1 <__heap_start+0xbd4f>
     bd6: a2 26        	ldx	#$26
     bd8: 8e a1 dd     	stx	$dda1                   ; 0xdda1 <__heap_start+0xbd4f>
     bdb: a2 c3        	ldx	#$c3
     bdd: 8e a1 dd     	stx	$dda1                   ; 0xdda1 <__heap_start+0xbd4f>
     be0: a2 57        	ldx	#$57
     be2: 8e a1 dd     	stx	$dda1                   ; 0xdda1 <__heap_start+0xbd4f>
     be5: 4c 1e 0f     	jmp	$f1e <f256main+0x7a9>
     be8: a4 2b        	ldy	$2b                     ; 0x202b <snareNotes+0x1>
     bea: a5 2c        	lda	$2c                     ; 0x202c <snareNotes+0x2>
     bec: a2 45        	ldx	#$45
     bee: 86 24        	stx	$24                     ; 0x2024 <bassDelays+0x6>
     bf0: a2 20        	ldx	#$20
     bf2: 86 25        	stx	$25                     ; 0x2025 <bassDelays+0x7>
     bf4: 4c 9a 0a     	jmp	$a9a <f256main+0x325>
     bf7: a5 2f        	lda	$2f                     ; 0x202f <kickNotes+0x1>
     bf9: a0 05        	ldy	#$5
     bfb: 91 10        	sta	($10),y                 ; 0x2010 <textColors+0x2e>
     bfd: 64 15        	stz	$15                     ; 0x2015 <bassNotes+0x3>
     bff: a9 00        	lda	#$0
     c01: 88           	dey
     c02: 91 10        	sta	($10),y                 ; 0x2010 <textColors+0x2e>
     c04: a5 2d        	lda	$2d                     ; 0x202d <snareNotes+0x3>
     c06: 88           	dey
     c07: 91 10        	sta	($10),y                 ; 0x2010 <textColors+0x2e>
     c09: a4 12        	ldy	$12                     ; 0x2012 <bassNotes>
     c0b: a5 14        	lda	$14                     ; 0x2014 <bassNotes+0x2>
     c0d: d0 03        	bne	$c12 <f256main+0x49d>
     c0f: 4c 30 0f     	jmp	$f30 <f256main+0x7bb>
     c12: a6 29        	ldx	$29                     ; 0x2029 <bassDelays+0xb>
     c14: bd 2a 20     	lda	$202a,x                 ; 0x202a <snareNotes>
     c17: a0 89        	ldy	#$89
     c19: 8c a1 dd     	sty	$dda1                   ; 0xdda1 <__heap_start+0xbd4f>
     c1c: 8d a1 dd     	sta	$dda1                   ; 0xdda1 <__heap_start+0xbd4f>
     c1f: a0 4f        	ldy	#$4f
     c21: 8c a1 dd     	sty	$dda1                   ; 0xdda1 <__heap_start+0xbd4f>
     c24: e8           	inx
     c25: e0 04        	cpx	#$4
     c27: d0 02        	bne	$c2b <f256main+0x4b6>
     c29: a2 00        	ldx	#$0
     c2b: 86 29        	stx	$29                     ; 0x2029 <bassDelays+0xb>
     c2d: bd 2a 20     	lda	$202a,x                 ; 0x202a <snareNotes>
     c30: aa           	tax
     c31: a9 99        	lda	#$99
     c33: 8d a1 dd     	sta	$dda1                   ; 0xdda1 <__heap_start+0xbd4f>
     c36: 8e a1 dd     	stx	$dda1                   ; 0xdda1 <__heap_start+0xbd4f>
     c39: 8c a1 dd     	sty	$dda1                   ; 0xdda1 <__heap_start+0xbd4f>
     c3c: a2 80        	ldx	#$80
     c3e: 86 f3        	stx	$f3                     ; 0x20f3 <__heap_start+0xa1>
     c40: 20 f0 ff     	jsr	$fff0 <__heap_start+0xdf9e>
     c43: 92 26        	sta	($26)                   ; 0x2026 <bassDelays+0x8>
     c45: a9 00        	lda	#$0
     c47: 6a           	ror
     c48: 85 24        	sta	$24                     ; 0x2024 <bassDelays+0x6>
     c4a: 18           	clc
     c4b: a9 1e        	lda	#$1e
     c4d: 72 26        	adc	($26)                   ; 0x2026 <bassDelays+0x8>
     c4f: 85 97        	sta	$97                     ; 0x2097 <__heap_start+0x45>
     c51: 64 f3        	stz	$f3                     ; 0x20f3 <__heap_start+0xa1>
     c53: a6 97        	ldx	$97                     ; 0x2097 <__heap_start+0x45>
     c55: 86 f4        	stx	$f4                     ; 0x20f4 <__heap_start+0xa2>
     c57: a2 03        	ldx	#$3
     c59: 86 f5        	stx	$f5                     ; 0x20f5 <__heap_start+0xa3>
     c5b: a2 01        	ldx	#$1
     c5d: 8a           	txa
     c5e: a0 04        	ldy	#$4
     c60: 91 10        	sta	($10),y                 ; 0x2010 <textColors+0x2e>
     c62: a5 2f        	lda	$2f                     ; 0x202f <kickNotes+0x1>
     c64: c8           	iny
     c65: 91 10        	sta	($10),y                 ; 0x2010 <textColors+0x2e>
     c67: a5 2d        	lda	$2d                     ; 0x202d <snareNotes+0x3>
     c69: a0 03        	ldy	#$3
     c6b: 91 10        	sta	($10),y                 ; 0x2010 <textColors+0x2e>
     c6d: a4 2b        	ldy	$2b                     ; 0x202b <snareNotes+0x1>
     c6f: 20 f0 ff     	jsr	$fff0 <__heap_start+0xdf9e>
     c72: 92 26        	sta	($26)                   ; 0x2026 <bassDelays+0x8>
     c74: a9 00        	lda	#$0
     c76: 6a           	ror
     c77: 85 24        	sta	$24                     ; 0x2024 <bassDelays+0x6>
     c79: 4c 30 0f     	jmp	$f30 <f256main+0x7bb>
     c7c: a5 2f        	lda	$2f                     ; 0x202f <kickNotes+0x1>
     c7e: a0 05        	ldy	#$5
     c80: 91 10        	sta	($10),y                 ; 0x2010 <textColors+0x2e>
     c82: a5 2e        	lda	$2e                     ; 0x202e <kickNotes>
     c84: 88           	dey
     c85: 91 10        	sta	($10),y                 ; 0x2010 <textColors+0x2e>
     c87: 64 14        	stz	$14                     ; 0x2014 <bassNotes+0x2>
     c89: a9 00        	lda	#$0
     c8b: 88           	dey
     c8c: 91 10        	sta	($10),y                 ; 0x2010 <textColors+0x2e>
     c8e: a4 12        	ldy	$12                     ; 0x2012 <bassNotes>
     c90: a5 13        	lda	$13                     ; 0x2013 <bassNotes+0x1>
     c92: d0 03        	bne	$c97 <f256main+0x522>
     c94: 4c 30 0f     	jmp	$f30 <f256main+0x7bb>
     c97: a4 28        	ldy	$28                     ; 0x2028 <bassDelays+0xa>
     c99: be 2e 20     	ldx	$202e,y                 ; 0x202e <kickNotes>
     c9c: a0 89        	ldy	#$89
     c9e: 8c a1 dd     	sty	$dda1                   ; 0xdda1 <__heap_start+0xbd4f>
     ca1: 8e a1 dd     	stx	$dda1                   ; 0xdda1 <__heap_start+0xbd4f>
     ca4: a2 4f        	ldx	#$4f
     ca6: 8e a1 dd     	stx	$dda1                   ; 0xdda1 <__heap_start+0xbd4f>
     ca9: a6 28        	ldx	$28                     ; 0x2028 <bassDelays+0xa>
     cab: e8           	inx
     cac: e0 05        	cpx	#$5
     cae: d0 02        	bne	$cb2 <f256main+0x53d>
     cb0: a2 00        	ldx	#$0
     cb2: da           	phx
     cb3: 7a           	ply
     cb4: bd 2e 20     	lda	$202e,x                 ; 0x202e <kickNotes>
     cb7: aa           	tax
     cb8: 84 12        	sty	$12                     ; 0x2012 <bassNotes>
     cba: a0 99        	ldy	#$99
     cbc: 8c a1 dd     	sty	$dda1                   ; 0xdda1 <__heap_start+0xbd4f>
     cbf: 8e a1 dd     	stx	$dda1                   ; 0xdda1 <__heap_start+0xbd4f>
     cc2: a2 2f        	ldx	#$2f
     cc4: 8e a1 dd     	stx	$dda1                   ; 0xdda1 <__heap_start+0xbd4f>
     cc7: a2 80        	ldx	#$80
     cc9: 86 f3        	stx	$f3                     ; 0x20f3 <__heap_start+0xa1>
     ccb: 20 f0 ff     	jsr	$fff0 <__heap_start+0xdf9e>
     cce: 92 26        	sta	($26)                   ; 0x2026 <bassDelays+0x8>
     cd0: a9 00        	lda	#$0
     cd2: 6a           	ror
     cd3: 85 24        	sta	$24                     ; 0x2024 <bassDelays+0x6>
     cd5: b2 26        	lda	($26)                   ; 0x2026 <bassDelays+0x8>
     cd7: 18           	clc
     cd8: a6 12        	ldx	$12                     ; 0x2012 <bassNotes>
     cda: 86 28        	stx	$28                     ; 0x2028 <bassDelays+0xa>
     cdc: 7d 33 20     	adc	$2033,x                 ; 0x2033 <kickDelays>
     cdf: 85 98        	sta	$98                     ; 0x2098 <__heap_start+0x46>
     ce1: 64 f3        	stz	$f3                     ; 0x20f3 <__heap_start+0xa1>
     ce3: a6 98        	ldx	$98                     ; 0x2098 <__heap_start+0x46>
     ce5: 86 f4        	stx	$f4                     ; 0x20f4 <__heap_start+0xa2>
     ce7: a2 04        	ldx	#$4
     ce9: 86 f5        	stx	$f5                     ; 0x20f5 <__heap_start+0xa3>
     ceb: a2 01        	ldx	#$1
     ced: 8a           	txa
     cee: a0 03        	ldy	#$3
     cf0: 91 10        	sta	($10),y                 ; 0x2010 <textColors+0x2e>
     cf2: a5 2f        	lda	$2f                     ; 0x202f <kickNotes+0x1>
     cf4: a0 05        	ldy	#$5
     cf6: 91 10        	sta	($10),y                 ; 0x2010 <textColors+0x2e>
     cf8: a5 2e        	lda	$2e                     ; 0x202e <kickNotes>
     cfa: 88           	dey
     cfb: 91 10        	sta	($10),y                 ; 0x2010 <textColors+0x2e>
     cfd: a4 2b        	ldy	$2b                     ; 0x202b <snareNotes+0x1>
     cff: 20 f0 ff     	jsr	$fff0 <__heap_start+0xdf9e>
     d02: 92 26        	sta	($26)                   ; 0x2026 <bassDelays+0x8>
     d04: a9 00        	lda	#$0
     d06: 6a           	ror
     d07: 85 24        	sta	$24                     ; 0x2024 <bassDelays+0x6>
     d09: 4c 30 0f     	jmp	$f30 <f256main+0x7bb>
     d0c: 64 16        	stz	$16                     ; 0x2016 <bassNotes+0x4>
     d0e: a9 00        	lda	#$0
     d10: a0 05        	ldy	#$5
     d12: 91 10        	sta	($10),y                 ; 0x2010 <textColors+0x2e>
     d14: a5 2e        	lda	$2e                     ; 0x202e <kickNotes>
     d16: 88           	dey
     d17: 91 10        	sta	($10),y                 ; 0x2010 <textColors+0x2e>
     d19: a5 2d        	lda	$2d                     ; 0x202d <snareNotes+0x3>
     d1b: 88           	dey
     d1c: 91 10        	sta	($10),y                 ; 0x2010 <textColors+0x2e>
     d1e: a4 12        	ldy	$12                     ; 0x2012 <bassNotes>
     d20: a5 15        	lda	$15                     ; 0x2015 <bassNotes+0x3>
     d22: d0 03        	bne	$d27 <f256main+0x5b2>
     d24: 4c 30 0f     	jmp	$f30 <f256main+0x7bb>
     d27: a4 2a        	ldy	$2a                     ; 0x202a <snareNotes>
     d29: be 12 20     	ldx	$2012,y                 ; 0x2012 <bassNotes>
     d2c: 84 12        	sty	$12                     ; 0x2012 <bassNotes>
     d2e: a0 82        	ldy	#$82
     d30: 8c a1 dd     	sty	$dda1                   ; 0xdda1 <__heap_start+0xbd4f>
     d33: 8e a1 dd     	stx	$dda1                   ; 0xdda1 <__heap_start+0xbd4f>
     d36: a0 4f        	ldy	#$4f
     d38: 8c a1 dd     	sty	$dda1                   ; 0xdda1 <__heap_start+0xbd4f>
     d3b: a9 83        	lda	#$83
     d3d: 8d a1 dd     	sta	$dda1                   ; 0xdda1 <__heap_start+0xbd4f>
     d40: 8e a1 dd     	stx	$dda1                   ; 0xdda1 <__heap_start+0xbd4f>
     d43: a6 12        	ldx	$12                     ; 0x2012 <bassNotes>
     d45: 8c a1 dd     	sty	$dda1                   ; 0xdda1 <__heap_start+0xbd4f>
     d48: e8           	inx
     d49: e0 0c        	cpx	#$c
     d4b: d0 02        	bne	$d4f <f256main+0x5da>
     d4d: a2 00        	ldx	#$0
     d4f: da           	phx
     d50: 7a           	ply
     d51: bd 12 20     	lda	$2012,x                 ; 0x2012 <bassNotes>
     d54: aa           	tax
     d55: 84 12        	sty	$12                     ; 0x2012 <bassNotes>
     d57: a0 92        	ldy	#$92
     d59: 8c a1 dd     	sty	$dda1                   ; 0xdda1 <__heap_start+0xbd4f>
     d5c: 8e a1 dd     	stx	$dda1                   ; 0xdda1 <__heap_start+0xbd4f>
     d5f: a0 2f        	ldy	#$2f
     d61: 8c a1 dd     	sty	$dda1                   ; 0xdda1 <__heap_start+0xbd4f>
     d64: a9 93        	lda	#$93
     d66: 8d a1 dd     	sta	$dda1                   ; 0xdda1 <__heap_start+0xbd4f>
     d69: 8e a1 dd     	stx	$dda1                   ; 0xdda1 <__heap_start+0xbd4f>
     d6c: 8c a1 dd     	sty	$dda1                   ; 0xdda1 <__heap_start+0xbd4f>
     d6f: a2 80        	ldx	#$80
     d71: 86 f3        	stx	$f3                     ; 0x20f3 <__heap_start+0xa1>
     d73: 20 f0 ff     	jsr	$fff0 <__heap_start+0xdf9e>
     d76: 92 26        	sta	($26)                   ; 0x2026 <bassDelays+0x8>
     d78: a9 00        	lda	#$0
     d7a: 6a           	ror
     d7b: 85 24        	sta	$24                     ; 0x2024 <bassDelays+0x6>
     d7d: b2 26        	lda	($26)                   ; 0x2026 <bassDelays+0x8>
     d7f: 18           	clc
     d80: a6 12        	ldx	$12                     ; 0x2012 <bassNotes>
     d82: 86 2a        	stx	$2a                     ; 0x202a <snareNotes>
     d84: 7d 1e 20     	adc	$201e,x                 ; 0x201e <bassDelays>
     d87: 85 96        	sta	$96                     ; 0x2096 <__heap_start+0x44>
     d89: 64 f3        	stz	$f3                     ; 0x20f3 <__heap_start+0xa1>
     d8b: a6 96        	ldx	$96                     ; 0x2096 <__heap_start+0x44>
     d8d: 86 f4        	stx	$f4                     ; 0x20f4 <__heap_start+0xa2>
     d8f: a2 02        	ldx	#$2
     d91: 86 f5        	stx	$f5                     ; 0x20f5 <__heap_start+0xa3>
     d93: ca           	dex
     d94: 8a           	txa
     d95: a0 05        	ldy	#$5
     d97: 91 10        	sta	($10),y                 ; 0x2010 <textColors+0x2e>
     d99: a5 2e        	lda	$2e                     ; 0x202e <kickNotes>
     d9b: 88           	dey
     d9c: 91 10        	sta	($10),y                 ; 0x2010 <textColors+0x2e>
     d9e: a5 2d        	lda	$2d                     ; 0x202d <snareNotes+0x3>
     da0: 88           	dey
     da1: 91 10        	sta	($10),y                 ; 0x2010 <textColors+0x2e>
     da3: a4 2b        	ldy	$2b                     ; 0x202b <snareNotes+0x1>
     da5: 20 f0 ff     	jsr	$fff0 <__heap_start+0xdf9e>
     da8: 92 26        	sta	($26)                   ; 0x2026 <bassDelays+0x8>
     daa: a9 00        	lda	#$0
     dac: 6a           	ror
     dad: 85 24        	sta	$24                     ; 0x2024 <bassDelays+0x6>
     daf: 4c 30 0f     	jmp	$f30 <f256main+0x7bb>
     db2: a2 80        	ldx	#$80
     db4: 86 f3        	stx	$f3                     ; 0x20f3 <__heap_start+0xa1>
     db6: 20 f0 ff     	jsr	$fff0 <__heap_start+0xdf9e>
     db9: 92 26        	sta	($26)                   ; 0x2026 <bassDelays+0x8>
     dbb: a9 00        	lda	#$0
     dbd: 6a           	ror
     dbe: 85 24        	sta	$24                     ; 0x2024 <bassDelays+0x6>
     dc0: 18           	clc
     dc1: a9 1e        	lda	#$1e
     dc3: 72 26        	adc	($26)                   ; 0x2026 <bassDelays+0x8>
     dc5: 85 94        	sta	$94                     ; 0x2094 <__heap_start+0x42>
     dc7: 64 f3        	stz	$f3                     ; 0x20f3 <__heap_start+0xa1>
     dc9: a6 94        	ldx	$94                     ; 0x2094 <__heap_start+0x42>
     dcb: 86 f4        	stx	$f4                     ; 0x20f4 <__heap_start+0xa2>
     dcd: 84 f5        	sty	$f5                     ; 0x20f5 <__heap_start+0xa3>
     dcf: 20 f0 ff     	jsr	$fff0 <__heap_start+0xdf9e>
     dd2: 92 26        	sta	($26)                   ; 0x2026 <bassDelays+0x8>
     dd4: a9 00        	lda	#$0
     dd6: 6a           	ror
     dd7: 85 24        	sta	$24                     ; 0x2024 <bassDelays+0x6>
     dd9: a6 2a        	ldx	$2a                     ; 0x202a <snareNotes>
     ddb: a5 2f        	lda	$2f                     ; 0x202f <kickNotes+0x1>
     ddd: d0 02        	bne	$de1 <f256main+0x66c>
     ddf: a2 00        	ldx	#$0
     de1: a5 2e        	lda	$2e                     ; 0x202e <kickNotes>
     de3: d0 02        	bne	$de7 <f256main+0x672>
     de5: 64 29        	stz	$29                     ; 0x2029 <bassDelays+0xb>
     de7: a4 2d        	ldy	$2d                     ; 0x202d <snareNotes+0x3>
     de9: d0 02        	bne	$ded <f256main+0x678>
     deb: 64 28        	stz	$28                     ; 0x2028 <bassDelays+0xa>
     ded: a5 2f        	lda	$2f                     ; 0x202f <kickNotes+0x1>
     def: 49 01        	eor	#$1
     df1: 85 16        	sta	$16                     ; 0x2016 <bassNotes+0x4>
     df3: a5 2e        	lda	$2e                     ; 0x202e <kickNotes>
     df5: 49 01        	eor	#$1
     df7: 85 13        	sta	$13                     ; 0x2013 <bassNotes+0x1>
     df9: 98           	tya
     dfa: 49 01        	eor	#$1
     dfc: a0 80        	ldy	#$80
     dfe: 84 f3        	sty	$f3                     ; 0x20f3 <__heap_start+0xa1>
     e00: 85 12        	sta	$12                     ; 0x2012 <bassNotes>
     e02: 20 f0 ff     	jsr	$fff0 <__heap_start+0xdf9e>
     e05: 92 26        	sta	($26)                   ; 0x2026 <bassDelays+0x8>
     e07: a9 00        	lda	#$0
     e09: 6a           	ror
     e0a: 85 24        	sta	$24                     ; 0x2024 <bassDelays+0x6>
     e0c: b2 26        	lda	($26)                   ; 0x2026 <bassDelays+0x8>
     e0e: 18           	clc
     e0f: 86 2a        	stx	$2a                     ; 0x202a <snareNotes>
     e11: 7d 1e 20     	adc	$201e,x                 ; 0x201e <bassDelays>
     e14: 85 96        	sta	$96                     ; 0x2096 <__heap_start+0x44>
     e16: 64 f3        	stz	$f3                     ; 0x20f3 <__heap_start+0xa1>
     e18: a6 96        	ldx	$96                     ; 0x2096 <__heap_start+0x44>
     e1a: 86 f4        	stx	$f4                     ; 0x20f4 <__heap_start+0xa2>
     e1c: a2 02        	ldx	#$2
     e1e: 86 f5        	stx	$f5                     ; 0x20f5 <__heap_start+0xa3>
     e20: 20 f0 ff     	jsr	$fff0 <__heap_start+0xdf9e>
     e23: 92 26        	sta	($26)                   ; 0x2026 <bassDelays+0x8>
     e25: a9 00        	lda	#$0
     e27: 6a           	ror
     e28: 85 24        	sta	$24                     ; 0x2024 <bassDelays+0x6>
     e2a: 84 f3        	sty	$f3                     ; 0x20f3 <__heap_start+0xa1>
     e2c: 20 f0 ff     	jsr	$fff0 <__heap_start+0xdf9e>
     e2f: 92 26        	sta	($26)                   ; 0x2026 <bassDelays+0x8>
     e31: a9 00        	lda	#$0
     e33: 6a           	ror
     e34: 85 24        	sta	$24                     ; 0x2024 <bassDelays+0x6>
     e36: 18           	clc
     e37: a9 1e        	lda	#$1e
     e39: 72 26        	adc	($26)                   ; 0x2026 <bassDelays+0x8>
     e3b: 85 97        	sta	$97                     ; 0x2097 <__heap_start+0x45>
     e3d: 64 f3        	stz	$f3                     ; 0x20f3 <__heap_start+0xa1>
     e3f: a6 97        	ldx	$97                     ; 0x2097 <__heap_start+0x45>
     e41: 86 f4        	stx	$f4                     ; 0x20f4 <__heap_start+0xa2>
     e43: a2 03        	ldx	#$3
     e45: 86 f5        	stx	$f5                     ; 0x20f5 <__heap_start+0xa3>
     e47: 20 f0 ff     	jsr	$fff0 <__heap_start+0xdf9e>
     e4a: 92 26        	sta	($26)                   ; 0x2026 <bassDelays+0x8>
     e4c: a9 00        	lda	#$0
     e4e: 6a           	ror
     e4f: 85 24        	sta	$24                     ; 0x2024 <bassDelays+0x6>
     e51: 84 f3        	sty	$f3                     ; 0x20f3 <__heap_start+0xa1>
     e53: 20 f0 ff     	jsr	$fff0 <__heap_start+0xdf9e>
     e56: 92 26        	sta	($26)                   ; 0x2026 <bassDelays+0x8>
     e58: a9 00        	lda	#$0
     e5a: 6a           	ror
     e5b: 85 24        	sta	$24                     ; 0x2024 <bassDelays+0x6>
     e5d: b2 26        	lda	($26)                   ; 0x2026 <bassDelays+0x8>
     e5f: 18           	clc
     e60: a6 28        	ldx	$28                     ; 0x2028 <bassDelays+0xa>
     e62: 7d 33 20     	adc	$2033,x                 ; 0x2033 <kickDelays>
     e65: 85 98        	sta	$98                     ; 0x2098 <__heap_start+0x46>
     e67: 64 f3        	stz	$f3                     ; 0x20f3 <__heap_start+0xa1>
     e69: a6 98        	ldx	$98                     ; 0x2098 <__heap_start+0x46>
     e6b: 86 f4        	stx	$f4                     ; 0x20f4 <__heap_start+0xa2>
     e6d: a2 04        	ldx	#$4
     e6f: 86 f5        	stx	$f5                     ; 0x20f5 <__heap_start+0xa3>
     e71: a5 16        	lda	$16                     ; 0x2016 <bassNotes+0x4>
     e73: a0 05        	ldy	#$5
     e75: 91 10        	sta	($10),y                 ; 0x2010 <textColors+0x2e>
     e77: a5 13        	lda	$13                     ; 0x2013 <bassNotes+0x1>
     e79: 88           	dey
     e7a: 91 10        	sta	($10),y                 ; 0x2010 <textColors+0x2e>
     e7c: a5 12        	lda	$12                     ; 0x2012 <bassNotes>
     e7e: 88           	dey
     e7f: 91 10        	sta	($10),y                 ; 0x2010 <textColors+0x2e>
     e81: a4 2b        	ldy	$2b                     ; 0x202b <snareNotes+0x1>
     e83: 20 f0 ff     	jsr	$fff0 <__heap_start+0xdf9e>
     e86: 92 26        	sta	($26)                   ; 0x2026 <bassDelays+0x8>
     e88: a9 00        	lda	#$0
     e8a: 6a           	ror
     e8b: 85 24        	sta	$24                     ; 0x2024 <bassDelays+0x6>
     e8d: 4c 30 0f     	jmp	$f30 <f256main+0x7bb>
     e90: 5a           	phy
     e91: a0 02        	ldy	#$2
     e93: b1 10        	lda	($10),y                 ; 0x2010 <textColors+0x2e>
     e95: 7a           	ply
     e96: aa           	tax
     e97: d0 03        	bne	$e9c <f256main+0x727>
     e99: 4c f3 0e     	jmp	$ef3 <f256main+0x77e>
     e9c: 3a           	dec
     e9d: 4c f5 0e     	jmp	$ef5 <f256main+0x780>
     ea0: 5a           	phy
     ea1: a0 02        	ldy	#$2
     ea3: b1 10        	lda	($10),y                 ; 0x2010 <textColors+0x2e>
     ea5: 7a           	ply
     ea6: c9 7f        	cmp	#$7f
     ea8: b0 4b        	bcs	$ef5 <f256main+0x780>
     eaa: 1a           	inc
     eab: 80 48        	bra	$ef5 <f256main+0x780>
     ead: a0 00        	ldy	#$0
     eaf: a6 2f        	ldx	$2f                     ; 0x202f <kickNotes+0x1>
     eb1: 5a           	phy
     eb2: 8a           	txa
     eb3: a0 05        	ldy	#$5
     eb5: 91 10        	sta	($10),y                 ; 0x2010 <textColors+0x2e>
     eb7: a6 2e        	ldx	$2e                     ; 0x202e <kickNotes>
     eb9: 8a           	txa
     eba: 88           	dey
     ebb: 91 10        	sta	($10),y                 ; 0x2010 <textColors+0x2e>
     ebd: a6 2d        	ldx	$2d                     ; 0x202d <snareNotes+0x3>
     ebf: 8a           	txa
     ec0: 88           	dey
     ec1: 91 10        	sta	($10),y                 ; 0x2010 <textColors+0x2e>
     ec3: 7a           	ply
     ec4: a5 2b        	lda	$2b                     ; 0x202b <snareNotes+0x1>
     ec6: d0 03        	bne	$ecb <f256main+0x756>
     ec8: 4c 30 0f     	jmp	$f30 <f256main+0x7bb>
     ecb: a5 2b        	lda	$2b                     ; 0x202b <snareNotes+0x1>
     ecd: 3a           	dec
     ece: a2 c1        	ldx	#$c1
     ed0: 8e a1 dd     	stx	$dda1                   ; 0xdda1 <__heap_start+0xbd4f>
     ed3: 8d a1 dd     	sta	$dda1                   ; 0xdda1 <__heap_start+0xbd4f>
     ed6: 64 8f        	stz	$8f                     ; 0x208f <__heap_start+0x3d>
     ed8: 9c 14 d0     	stz	$d014                   ; 0xd014 <__heap_start+0xafc2>
     edb: 9c 15 d0     	stz	$d015                   ; 0xd015 <__heap_start+0xafc3>
     ede: a2 0b        	ldx	#$b
     ee0: 86 90        	stx	$90                     ; 0x2090 <__heap_start+0x3e>
     ee2: 8e 16 d0     	stx	$d016                   ; 0xd016 <__heap_start+0xafc4>
     ee5: 9c 17 d0     	stz	$d017                   ; 0xd017 <__heap_start+0xafc5>
     ee8: 85 2b        	sta	$2b                     ; 0x202b <snareNotes+0x1>
     eea: a0 02        	ldy	#$2
     eec: b1 10        	lda	($10),y                 ; 0x2010 <textColors+0x2e>
     eee: 92 10        	sta	($10)                   ; 0x2010 <textColors+0x2e>
     ef0: 88           	dey
     ef1: 80 1c        	bra	$f0f <f256main+0x79a>
     ef3: a9 00        	lda	#$0
     ef5: 64 8f        	stz	$8f                     ; 0x208f <__heap_start+0x3d>
     ef7: 9c 14 d0     	stz	$d014                   ; 0xd014 <__heap_start+0xafc2>
     efa: 9c 15 d0     	stz	$d015                   ; 0xd015 <__heap_start+0xafc3>
     efd: a2 0a        	ldx	#$a
     eff: 86 90        	stx	$90                     ; 0x2090 <__heap_start+0x3e>
     f01: 8e 16 d0     	stx	$d016                   ; 0xd016 <__heap_start+0xafc4>
     f04: 9c 17 d0     	stz	$d017                   ; 0xd017 <__heap_start+0xafc5>
     f07: 5a           	phy
     f08: a0 02        	ldy	#$2
     f0a: 91 10        	sta	($10),y                 ; 0x2010 <textColors+0x2e>
     f0c: 7a           	ply
     f0d: 92 10        	sta	($10)                   ; 0x2010 <textColors+0x2e>
     f0f: a9 00        	lda	#$0
     f11: 91 10        	sta	($10),y                 ; 0x2010 <textColors+0x2e>
     f13: a2 38        	ldx	#$38
     f15: 86 12        	stx	$12                     ; 0x2012 <bassNotes>
     f17: a2 20        	ldx	#$20
     f19: 86 13        	stx	$13                     ; 0x2013 <bassNotes+0x1>
     f1b: 20 99 13     	jsr	$1399 <printf>
     f1e: a5 2f        	lda	$2f                     ; 0x202f <kickNotes+0x1>
     f20: a0 05        	ldy	#$5
     f22: 91 10        	sta	($10),y                 ; 0x2010 <textColors+0x2e>
     f24: a5 2e        	lda	$2e                     ; 0x202e <kickNotes>
     f26: 88           	dey
     f27: 91 10        	sta	($10),y                 ; 0x2010 <textColors+0x2e>
     f29: a5 2d        	lda	$2d                     ; 0x202d <snareNotes+0x3>
     f2b: 88           	dey
     f2c: 91 10        	sta	($10),y                 ; 0x2010 <textColors+0x2e>
     f2e: a4 2b        	ldy	$2b                     ; 0x202b <snareNotes+0x1>
     f30: 5a           	phy
     f31: a0 03        	ldy	#$3
     f33: b1 10        	lda	($10),y                 ; 0x2010 <textColors+0x2e>
     f35: 85 2d        	sta	$2d                     ; 0x202d <snareNotes+0x3>
     f37: c8           	iny
     f38: b1 10        	lda	($10),y                 ; 0x2010 <textColors+0x2e>
     f3a: 85 2e        	sta	$2e                     ; 0x202e <kickNotes>
     f3c: c8           	iny
     f3d: b1 10        	lda	($10),y                 ; 0x2010 <textColors+0x2e>
     f3f: 7a           	ply
     f40: 85 2f        	sta	$2f                     ; 0x202f <kickNotes+0x1>
     f42: ad a0 dd     	lda	$dda0                   ; 0xdda0 <__heap_start+0xbd4e>
     f45: 29 02        	and	#$2
     f47: 84 2b        	sty	$2b                     ; 0x202b <snareNotes+0x1>
     f49: f0 03        	beq	$f4e <f256main+0x7d9>
     f4b: 4c 98 0a     	jmp	$a98 <f256main+0x323>
     f4e: ae a2 dd     	ldx	$dda2                   ; 0xdda2 <__heap_start+0xbd50>
     f51: 86 24        	stx	$24                     ; 0x2024 <bassDelays+0x6>
     f53: ad a3 dd     	lda	$dda3                   ; 0xdda3 <__heap_start+0xbd51>
     f56: 29 0f        	and	#$f
     f58: 85 25        	sta	$25                     ; 0x2025 <bassDelays+0x7>
     f5a: 64 8f        	stz	$8f                     ; 0x208f <__heap_start+0x3d>
     f5c: 9c 14 d0     	stz	$d014                   ; 0xd014 <__heap_start+0xafc2>
     f5f: 9c 15 d0     	stz	$d015                   ; 0xd015 <__heap_start+0xafc3>
     f62: 64 90        	stz	$90                     ; 0x2090 <__heap_start+0x3e>
     f64: 9c 16 d0     	stz	$d016                   ; 0xd016 <__heap_start+0xafc4>
     f67: 9c 17 d0     	stz	$d017                   ; 0xd017 <__heap_start+0xafc5>
     f6a: ad a3 dd     	lda	$dda3                   ; 0xdda3 <__heap_start+0xbd51>
     f6d: 29 0f        	and	#$f
     f6f: 92 10        	sta	($10)                   ; 0x2010 <textColors+0x2e>
     f71: a0 01        	ldy	#$1
     f73: a9 00        	lda	#$0
     f75: 91 10        	sta	($10),y                 ; 0x2010 <textColors+0x2e>
     f77: a2 3e        	ldx	#$3e
     f79: 86 12        	stx	$12                     ; 0x2012 <bassNotes>
     f7b: a2 20        	ldx	#$20
     f7d: 86 13        	stx	$13                     ; 0x2013 <bassNotes+0x1>
     f7f: a5 12        	lda	$12                     ; 0x2012 <bassNotes>
     f81: a0 05        	ldy	#$5
     f83: 91 10        	sta	($10),y                 ; 0x2010 <textColors+0x2e>
     f85: a5 13        	lda	$13                     ; 0x2013 <bassNotes+0x1>
     f87: c8           	iny
     f88: 91 10        	sta	($10),y                 ; 0x2010 <textColors+0x2e>
     f8a: 88           	dey
     f8b: b1 10        	lda	($10),y                 ; 0x2010 <textColors+0x2e>
     f8d: 85 12        	sta	$12                     ; 0x2012 <bassNotes>
     f8f: c8           	iny
     f90: b1 10        	lda	($10),y                 ; 0x2010 <textColors+0x2e>
     f92: 85 13        	sta	$13                     ; 0x2013 <bassNotes+0x1>
     f94: 20 99 13     	jsr	$1399 <printf>
     f97: 64 8f        	stz	$8f                     ; 0x208f <__heap_start+0x3d>
     f99: 9c 14 d0     	stz	$d014                   ; 0xd014 <__heap_start+0xafc2>
     f9c: 9c 15 d0     	stz	$d015                   ; 0xd015 <__heap_start+0xafc3>
     f9f: a2 01        	ldx	#$1
     fa1: 86 90        	stx	$90                     ; 0x2090 <__heap_start+0x3e>
     fa3: 8e 16 d0     	stx	$d016                   ; 0xd016 <__heap_start+0xafc4>
     fa6: a0 01        	ldy	#$1
     fa8: 9c 17 d0     	stz	$d017                   ; 0xd017 <__heap_start+0xafc5>
     fab: ad a4 dd     	lda	$dda4                   ; 0xdda4 <__heap_start+0xbd52>
     fae: 92 10        	sta	($10)                   ; 0x2010 <textColors+0x2e>
     fb0: a9 00        	lda	#$0
     fb2: 91 10        	sta	($10),y                 ; 0x2010 <textColors+0x2e>
     fb4: a0 05        	ldy	#$5
     fb6: b1 10        	lda	($10),y                 ; 0x2010 <textColors+0x2e>
     fb8: 85 12        	sta	$12                     ; 0x2012 <bassNotes>
     fba: c8           	iny
     fbb: b1 10        	lda	($10),y                 ; 0x2010 <textColors+0x2e>
     fbd: 85 13        	sta	$13                     ; 0x2013 <bassNotes+0x1>
     fbf: 20 99 13     	jsr	$1399 <printf>
     fc2: 9c 14 d0     	stz	$d014                   ; 0xd014 <__heap_start+0xafc2>
     fc5: 9c 15 d0     	stz	$d015                   ; 0xd015 <__heap_start+0xafc3>
     fc8: a2 02        	ldx	#$2
     fca: 8e 16 d0     	stx	$d016                   ; 0xd016 <__heap_start+0xafc4>
     fcd: 9c 17 d0     	stz	$d017                   ; 0xd017 <__heap_start+0xafc5>
     fd0: 64 8f        	stz	$8f                     ; 0x208f <__heap_start+0x3d>
     fd2: 9c 14 d0     	stz	$d014                   ; 0xd014 <__heap_start+0xafc2>
     fd5: 9c 15 d0     	stz	$d015                   ; 0xd015 <__heap_start+0xafc3>
     fd8: 86 90        	stx	$90                     ; 0x2090 <__heap_start+0x3e>
     fda: 8e 16 d0     	stx	$d016                   ; 0xd016 <__heap_start+0xafc4>
     fdd: 9c 17 d0     	stz	$d017                   ; 0xd017 <__heap_start+0xafc5>
     fe0: a4 25        	ldy	$25                     ; 0x2025 <bassDelays+0x7>
     fe2: d0 07        	bne	$feb <f256main+0x876>
     fe4: a5 24        	lda	$24                     ; 0x2024 <bassDelays+0x6>
     fe6: d0 03        	bne	$feb <f256main+0x876>
     fe8: 4c e8 0b     	jmp	$be8 <f256main+0x473>
     feb: 84 16        	sty	$16                     ; 0x2016 <bassNotes+0x4>
     fed: a6 24        	ldx	$24                     ; 0x2024 <bassDelays+0x6>
     fef: a5 2c        	lda	$2c                     ; 0x202c <snareNotes+0x2>
     ff1: a0 45        	ldy	#$45
     ff3: 84 24        	sty	$24                     ; 0x2024 <bassDelays+0x6>
     ff5: a0 20        	ldy	#$20
     ff7: 84 25        	sty	$25                     ; 0x2025 <bassDelays+0x7>
     ff9: 4c 5f 0a     	jmp	$a5f <f256main+0x2ea>

00000ffc <__putchar>:
     ffc: 85 92        	sta	$92                     ; 0x2092 <__heap_start+0x40>
     ffe: a6 01        	ldx	$1                      ; 0x2001 <textColors+0x1f>
    1000: 86 22        	stx	$22                     ; 0x2022 <bassDelays+0x4>
    1002: a6 90        	ldx	$90                     ; 0x2090 <__heap_start+0x3e>
    1004: a0 50        	ldy	#$50
    1006: 8c 00 de     	sty	$de00                   ; 0xde00 <__heap_start+0xbdae>
    1009: 9c 01 de     	stz	$de01                   ; 0xde01 <__heap_start+0xbdaf>
    100c: 8e 02 de     	stx	$de02                   ; 0xde02 <__heap_start+0xbdb0>
    100f: 9c 03 de     	stz	$de03                   ; 0xde03 <__heap_start+0xbdb1>
    1012: ae 10 de     	ldx	$de10                   ; 0xde10 <__heap_start+0xbdbe>
    1015: ac 11 de     	ldy	$de11                   ; 0xde11 <__heap_start+0xbdbf>
    1018: 84 13        	sty	$13                     ; 0x2013 <bassNotes+0x1>
    101a: ad 12 de     	lda	$de12                   ; 0xde12 <__heap_start+0xbdc0>
    101d: ac 13 de     	ldy	$de13                   ; 0xde13 <__heap_start+0xbdc1>
    1020: 84 1a        	sty	$1a                     ; 0x201a <bassNotes+0x8>
    1022: 9c 08 de     	stz	$de08                   ; 0xde08 <__heap_start+0xbdb6>
    1025: a0 c0        	ldy	#$c0
    1027: 8c 09 de     	sty	$de09                   ; 0xde09 <__heap_start+0xbdb7>
    102a: 9c 0a de     	stz	$de0a                   ; 0xde0a <__heap_start+0xbdb8>
    102d: 9c 0b de     	stz	$de0b                   ; 0xde0b <__heap_start+0xbdb9>
    1030: 8e 0c de     	stx	$de0c                   ; 0xde0c <__heap_start+0xbdba>
    1033: 64 12        	stz	$12                     ; 0x2012 <bassNotes>
    1035: a2 00        	ldx	#$0
    1037: 86 14        	stx	$14                     ; 0x2014 <bassNotes+0x2>
    1039: a2 c0        	ldx	#$c0
    103b: 86 15        	stx	$15                     ; 0x2015 <bassNotes+0x3>
    103d: a2 11        	ldx	#$11
    103f: 86 16        	stx	$16                     ; 0x2016 <bassNotes+0x4>
    1041: a2 c9        	ldx	#$c9
    1043: 86 17        	stx	$17                     ; 0x2017 <bassNotes+0x5>
    1045: a2 10        	ldx	#$10
    1047: 86 18        	stx	$18                     ; 0x2018 <bassNotes+0x6>
    1049: a2 c9        	ldx	#$c9
    104b: 86 19        	stx	$19                     ; 0x2019 <bassNotes+0x7>
    104d: a6 13        	ldx	$13                     ; 0x2013 <bassNotes+0x1>
    104f: 8e 0d de     	stx	$de0d                   ; 0xde0d <__heap_start+0xbdbb>
    1052: 8d 0e de     	sta	$de0e                   ; 0xde0e <__heap_start+0xbdbc>
    1055: a6 1a        	ldx	$1a                     ; 0x201a <bassNotes+0x8>
    1057: 8e 0f de     	stx	$de0f                   ; 0xde0f <__heap_start+0xbdbd>
    105a: ac 18 de     	ldy	$de18                   ; 0xde18 <__heap_start+0xbdc6>
    105d: ad 19 de     	lda	$de19                   ; 0xde19 <__heap_start+0xbdc7>
    1060: ae 1a de     	ldx	$de1a                   ; 0xde1a <__heap_start+0xbdc8>
    1063: ae 1b de     	ldx	$de1b                   ; 0xde1b <__heap_start+0xbdc9>
    1066: 84 1a        	sty	$1a                     ; 0x201a <bassNotes+0x8>
    1068: 85 1b        	sta	$1b                     ; 0x201b <bassNotes+0x9>
    106a: 64 13        	stz	$13                     ; 0x2013 <bassNotes+0x1>
    106c: 80 13        	bra	$1081 <__putchar+0x85>
    106e: a5 1a        	lda	$1a                     ; 0x201a <bassNotes+0x8>
    1070: 18           	clc
    1071: 69 50        	adc	#$50
    1073: 85 1a        	sta	$1a                     ; 0x201a <bassNotes+0x8>
    1075: a5 1b        	lda	$1b                     ; 0x201b <bassNotes+0x9>
    1077: 69 00        	adc	#$0
    1079: 85 1b        	sta	$1b                     ; 0x201b <bassNotes+0x9>
    107b: e6 12        	inc	$12                     ; 0x2012 <bassNotes>
    107d: d0 02        	bne	$1081 <__putchar+0x85>
    107f: e6 13        	inc	$13                     ; 0x2013 <bassNotes+0x1>
    1081: a9 92        	lda	#$92
    1083: 18           	clc
    1084: 65 12        	adc	$12                     ; 0x2012 <bassNotes>
    1086: 85 1c        	sta	$1c                     ; 0x201c <bassNotes+0xa>
    1088: a9 00        	lda	#$0
    108a: 65 13        	adc	$13                     ; 0x2013 <bassNotes+0x1>
    108c: 85 1d        	sta	$1d                     ; 0x201d <bassNotes+0xb>
    108e: b2 1c        	lda	($1c)                   ; 0x201c <bassNotes+0xa>
    1090: c9 0a        	cmp	#$a
    1092: f0 26        	beq	$10ba <__putchar+0xbe>
    1094: c9 0d        	cmp	#$d
    1096: f0 22        	beq	$10ba <__putchar+0xbe>
    1098: aa           	tax
    1099: d0 03        	bne	$109e <__putchar+0xa2>
    109b: 4c 9f 11     	jmp	$119f <__putchar+0x1a3>
    109e: a2 03        	ldx	#$3
    10a0: 86 01        	stx	$1                      ; 0x2001 <textColors+0x1f>
    10a2: a4 8f        	ldy	$8f                     ; 0x208f <__heap_start+0x3d>
    10a4: a9 f0        	lda	#$f0
    10a6: 91 1a        	sta	($1a),y                 ; 0x201a <bassNotes+0x8>
    10a8: ca           	dex
    10a9: 86 01        	stx	$1                      ; 0x2001 <textColors+0x1f>
    10ab: b2 1c        	lda	($1c)                   ; 0x201c <bassNotes+0xa>
    10ad: a4 8f        	ldy	$8f                     ; 0x208f <__heap_start+0x3d>
    10af: 91 1a        	sta	($1a),y                 ; 0x201a <bassNotes+0x8>
    10b1: a6 8f        	ldx	$8f                     ; 0x208f <__heap_start+0x3d>
    10b3: e8           	inx
    10b4: e6 8f        	inc	$8f                     ; 0x208f <__heap_start+0x3d>
    10b6: e0 50        	cpx	#$50
    10b8: d0 c1        	bne	$107b <__putchar+0x7f>
    10ba: 64 8f        	stz	$8f                     ; 0x208f <__heap_start+0x3d>
    10bc: a6 90        	ldx	$90                     ; 0x2090 <__heap_start+0x3e>
    10be: e8           	inx
    10bf: e6 90        	inc	$90                     ; 0x2090 <__heap_start+0x3e>
    10c1: e0 1e        	cpx	#$1e
    10c3: f0 03        	beq	$10c8 <__putchar+0xcc>
    10c5: 4c 6e 10     	jmp	$106e <__putchar+0x72>
    10c8: a2 03        	ldx	#$3
    10ca: 86 01        	stx	$1                      ; 0x2001 <textColors+0x1f>
    10cc: a2 01        	ldx	#$1
    10ce: 86 1a        	stx	$1a                     ; 0x201a <bassNotes+0x8>
    10d0: a2 09        	ldx	#$9
    10d2: a0 10        	ldy	#$10
    10d4: a9 00        	lda	#$0
    10d6: 85 1c        	sta	$1c                     ; 0x201c <bassNotes+0xa>
    10d8: a9 c0        	lda	#$c0
    10da: 85 1d        	sta	$1d                     ; 0x201d <bassNotes+0xb>
    10dc: 84 1b        	sty	$1b                     ; 0x201b <bassNotes+0x9>
    10de: a0 50        	ldy	#$50
    10e0: b1 1c        	lda	($1c),y                 ; 0x201c <bassNotes+0xa>
    10e2: 92 1c        	sta	($1c)                   ; 0x201c <bassNotes+0xa>
    10e4: a9 ff        	lda	#$ff
    10e6: c6 1b        	dec	$1b                     ; 0x201b <bassNotes+0x9>
    10e8: c5 1b        	cmp	$1b                     ; 0x201b <bassNotes+0x9>
    10ea: d0 01        	bne	$10ed <__putchar+0xf1>
    10ec: ca           	dex
    10ed: e6 1c        	inc	$1c                     ; 0x201c <bassNotes+0xa>
    10ef: d0 02        	bne	$10f3 <__putchar+0xf7>
    10f1: e6 1d        	inc	$1d                     ; 0x201d <bassNotes+0xb>
    10f3: 8a           	txa
    10f4: d0 ea        	bne	$10e0 <__putchar+0xe4>
    10f6: a5 1b        	lda	$1b                     ; 0x201b <bassNotes+0x9>
    10f8: d0 e6        	bne	$10e0 <__putchar+0xe4>
    10fa: a2 02        	ldx	#$2
    10fc: 86 01        	stx	$1                      ; 0x2001 <textColors+0x1f>
    10fe: a2 00        	ldx	#$0
    1100: a5 1a        	lda	$1a                     ; 0x201a <bassNotes+0x8>
    1102: d0 ca        	bne	$10ce <__putchar+0xd2>
    1104: a2 03        	ldx	#$3
    1106: 86 01        	stx	$1                      ; 0x2001 <textColors+0x1f>
    1108: a2 50        	ldx	#$50
    110a: a0 11        	ldy	#$11
    110c: 84 1a        	sty	$1a                     ; 0x201a <bassNotes+0x8>
    110e: a0 c9        	ldy	#$c9
    1110: 84 1b        	sty	$1b                     ; 0x201b <bassNotes+0x9>
    1112: a0 10        	ldy	#$10
    1114: 84 1c        	sty	$1c                     ; 0x201c <bassNotes+0xa>
    1116: a0 c9        	ldy	#$c9
    1118: 84 1d        	sty	$1d                     ; 0x201d <bassNotes+0xb>
    111a: a9 f0        	lda	#$f0
    111c: a4 1a        	ldy	$1a                     ; 0x201a <bassNotes+0x8>
    111e: 84 1e        	sty	$1e                     ; 0x201e <bassDelays>
    1120: a4 1b        	ldy	$1b                     ; 0x201b <bassNotes+0x9>
    1122: 84 1f        	sty	$1f                     ; 0x201f <bassDelays+0x1>
    1124: 92 1c        	sta	($1c)                   ; 0x201c <bassNotes+0xa>
    1126: e6 1a        	inc	$1a                     ; 0x201a <bassNotes+0x8>
    1128: d0 02        	bne	$112c <__putchar+0x130>
    112a: e6 1b        	inc	$1b                     ; 0x201b <bassNotes+0x9>
    112c: ca           	dex
    112d: a4 1e        	ldy	$1e                     ; 0x201e <bassDelays>
    112f: 84 1c        	sty	$1c                     ; 0x201c <bassNotes+0xa>
    1131: a4 1f        	ldy	$1f                     ; 0x201f <bassDelays+0x1>
    1133: 84 1d        	sty	$1d                     ; 0x201d <bassNotes+0xb>
    1135: e0 00        	cpx	#$0
    1137: d0 e3        	bne	$111c <__putchar+0x120>
    1139: a2 02        	ldx	#$2
    113b: 86 01        	stx	$1                      ; 0x2001 <textColors+0x1f>
    113d: a2 50        	ldx	#$50
    113f: a0 11        	ldy	#$11
    1141: 84 1a        	sty	$1a                     ; 0x201a <bassNotes+0x8>
    1143: a0 c9        	ldy	#$c9
    1145: 84 1b        	sty	$1b                     ; 0x201b <bassNotes+0x9>
    1147: a0 10        	ldy	#$10
    1149: 84 1c        	sty	$1c                     ; 0x201c <bassNotes+0xa>
    114b: a0 c9        	ldy	#$c9
    114d: 84 1d        	sty	$1d                     ; 0x201d <bassNotes+0xb>
    114f: a9 20        	lda	#$20
    1151: a4 1a        	ldy	$1a                     ; 0x201a <bassNotes+0x8>
    1153: 84 1e        	sty	$1e                     ; 0x201e <bassDelays>
    1155: a4 1b        	ldy	$1b                     ; 0x201b <bassNotes+0x9>
    1157: 84 1f        	sty	$1f                     ; 0x201f <bassDelays+0x1>
    1159: 92 1c        	sta	($1c)                   ; 0x201c <bassNotes+0xa>
    115b: e6 1a        	inc	$1a                     ; 0x201a <bassNotes+0x8>
    115d: d0 02        	bne	$1161 <__putchar+0x165>
    115f: e6 1b        	inc	$1b                     ; 0x201b <bassNotes+0x9>
    1161: ca           	dex
    1162: a4 1e        	ldy	$1e                     ; 0x201e <bassDelays>
    1164: 84 1c        	sty	$1c                     ; 0x201c <bassNotes+0xa>
    1166: a4 1f        	ldy	$1f                     ; 0x201f <bassDelays+0x1>
    1168: 84 1d        	sty	$1d                     ; 0x201d <bassNotes+0xb>
    116a: e0 00        	cpx	#$0
    116c: d0 e3        	bne	$1151 <__putchar+0x155>
    116e: c6 90        	dec	$90                     ; 0x2090 <__heap_start+0x3e>
    1170: 9c 08 de     	stz	$de08                   ; 0xde08 <__heap_start+0xbdb6>
    1173: a2 c0        	ldx	#$c0
    1175: 8e 09 de     	stx	$de09                   ; 0xde09 <__heap_start+0xbdb7>
    1178: 9c 0a de     	stz	$de0a                   ; 0xde0a <__heap_start+0xbdb8>
    117b: 9c 0b de     	stz	$de0b                   ; 0xde0b <__heap_start+0xbdb9>
    117e: a2 1d        	ldx	#$1d
    1180: 8e 0c de     	stx	$de0c                   ; 0xde0c <__heap_start+0xbdba>
    1183: 9c 0d de     	stz	$de0d                   ; 0xde0d <__heap_start+0xbdbb>
    1186: 9c 0e de     	stz	$de0e                   ; 0xde0e <__heap_start+0xbdbc>
    1189: 9c 0f de     	stz	$de0f                   ; 0xde0f <__heap_start+0xbdbd>
    118c: ae 18 de     	ldx	$de18                   ; 0xde18 <__heap_start+0xbdc6>
    118f: ac 19 de     	ldy	$de19                   ; 0xde19 <__heap_start+0xbdc7>
    1192: ad 1a de     	lda	$de1a                   ; 0xde1a <__heap_start+0xbdc8>
    1195: ad 1b de     	lda	$de1b                   ; 0xde1b <__heap_start+0xbdc9>
    1198: 86 1a        	stx	$1a                     ; 0x201a <bassNotes+0x8>
    119a: 84 1b        	sty	$1b                     ; 0x201b <bassNotes+0x9>
    119c: 4c 7b 10     	jmp	$107b <__putchar+0x7f>
    119f: a6 22        	ldx	$22                     ; 0x2022 <bassDelays+0x4>
    11a1: 86 01        	stx	$1                      ; 0x2001 <textColors+0x1f>
    11a3: a6 8f        	ldx	$8f                     ; 0x208f <__heap_start+0x3d>
    11a5: a4 90        	ldy	$90                     ; 0x2090 <__heap_start+0x3e>
    11a7: 8e 14 d0     	stx	$d014                   ; 0xd014 <__heap_start+0xafc2>
    11aa: 9c 15 d0     	stz	$d015                   ; 0xd015 <__heap_start+0xafc3>
    11ad: 84 90        	sty	$90                     ; 0x2090 <__heap_start+0x3e>
    11af: 8c 16 d0     	sty	$d016                   ; 0xd016 <__heap_start+0xafc4>
    11b2: 9c 17 d0     	stz	$d017                   ; 0xd017 <__heap_start+0xafc5>
    11b5: 60           	rts

000011b6 <exit>:
    11b6: 20 6f 03     	jsr	$36f <_fini>
    11b9: 80 fe        	bra	$11b9 <exit+0x3>

000011bb <_ZN12_GLOBAL__N_13putEcP6Status>:
    11bb: 85 18        	sta	$18                     ; 0x2018 <bassNotes+0x6>
    11bd: a6 13        	ldx	$13                     ; 0x2013 <bassNotes+0x1>
    11bf: 18           	clc
    11c0: a5 12        	lda	$12                     ; 0x2012 <bassNotes>
    11c2: 69 05        	adc	#$5
    11c4: a8           	tay
    11c5: a5 13        	lda	$13                     ; 0x2013 <bassNotes+0x1>
    11c7: 86 15        	stx	$15                     ; 0x2015 <bassNotes+0x3>
    11c9: 69 00        	adc	#$0
    11cb: 18           	clc
    11cc: 84 16        	sty	$16                     ; 0x2016 <bassNotes+0x4>
    11ce: a0 05        	ldy	#$5
    11d0: 85 17        	sta	$17                     ; 0x2017 <bassNotes+0x5>
    11d2: b1 12        	lda	($12),y                 ; 0x2012 <bassNotes>
    11d4: aa           	tax
    11d5: a5 12        	lda	$12                     ; 0x2012 <bassNotes>
    11d7: 69 03        	adc	#$3
    11d9: 85 14        	sta	$14                     ; 0x2014 <bassNotes+0x2>
    11db: a5 15        	lda	$15                     ; 0x2015 <bassNotes+0x3>
    11dd: 69 00        	adc	#$0
    11df: 85 15        	sta	$15                     ; 0x2015 <bassNotes+0x3>
    11e1: a0 01        	ldy	#$1
    11e3: b1 16        	lda	($16),y                 ; 0x2016 <bassNotes+0x4>
    11e5: d1 14        	cmp	($14),y                 ; 0x2014 <bassNotes+0x2>
    11e7: d0 11        	bne	$11fa <_ZN12_GLOBAL__N_13putEcP6Status+0x3f>
    11e9: a0 03        	ldy	#$3
    11eb: 85 17        	sta	$17                     ; 0x2017 <bassNotes+0x5>
    11ed: b1 12        	lda	($12),y                 ; 0x2012 <bassNotes>
    11ef: 85 14        	sta	$14                     ; 0x2014 <bassNotes+0x2>
    11f1: 86 16        	stx	$16                     ; 0x2016 <bassNotes+0x4>
    11f3: e4 14        	cpx	$14                     ; 0x2014 <bassNotes+0x2>
    11f5: 90 0e        	bcc	$1205 <_ZN12_GLOBAL__N_13putEcP6Status+0x4a>
    11f7: 4c 64 12     	jmp	$1264 <_ZN12_GLOBAL__N_13putEcP6Status+0xa9>
    11fa: 86 16        	stx	$16                     ; 0x2016 <bassNotes+0x4>
    11fc: d1 14        	cmp	($14),y                 ; 0x2014 <bassNotes+0x2>
    11fe: 85 17        	sta	$17                     ; 0x2017 <bassNotes+0x5>
    1200: 90 03        	bcc	$1205 <_ZN12_GLOBAL__N_13putEcP6Status+0x4a>
    1202: 4c 64 12     	jmp	$1264 <_ZN12_GLOBAL__N_13putEcP6Status+0xa9>
    1205: a5 12        	lda	$12                     ; 0x2012 <bassNotes>
    1207: 18           	clc
    1208: 69 0f        	adc	#$f
    120a: 85 14        	sta	$14                     ; 0x2014 <bassNotes+0x2>
    120c: a5 13        	lda	$13                     ; 0x2013 <bassNotes+0x1>
    120e: 69 00        	adc	#$0
    1210: 85 15        	sta	$15                     ; 0x2015 <bassNotes+0x3>
    1212: a0 01        	ldy	#$1
    1214: b1 14        	lda	($14),y                 ; 0x2014 <bassNotes+0x2>
    1216: a2 00        	ldx	#$0
    1218: 86 14        	stx	$14                     ; 0x2014 <bassNotes+0x2>
    121a: a2 00        	ldx	#$0
    121c: 86 15        	stx	$15                     ; 0x2015 <bassNotes+0x3>
    121e: c5 15        	cmp	$15                     ; 0x2015 <bassNotes+0x3>
    1220: d0 2d        	bne	$124f <_ZN12_GLOBAL__N_13putEcP6Status+0x94>
    1222: a0 0f        	ldy	#$f
    1224: b1 12        	lda	($12),y                 ; 0x2012 <bassNotes>
    1226: c5 14        	cmp	$14                     ; 0x2014 <bassNotes+0x2>
    1228: d0 25        	bne	$124f <_ZN12_GLOBAL__N_13putEcP6Status+0x94>
    122a: a5 12        	lda	$12                     ; 0x2012 <bassNotes>
    122c: 18           	clc
    122d: 69 09        	adc	#$9
    122f: 85 14        	sta	$14                     ; 0x2014 <bassNotes+0x2>
    1231: a5 13        	lda	$13                     ; 0x2013 <bassNotes+0x1>
    1233: 69 00        	adc	#$0
    1235: a0 09        	ldy	#$9
    1237: 85 15        	sta	$15                     ; 0x2015 <bassNotes+0x3>
    1239: 18           	clc
    123a: a5 16        	lda	$16                     ; 0x2016 <bassNotes+0x4>
    123c: 71 12        	adc	($12),y                 ; 0x2012 <bassNotes>
    123e: aa           	tax
    123f: a0 01        	ldy	#$1
    1241: a5 17        	lda	$17                     ; 0x2017 <bassNotes+0x5>
    1243: 71 14        	adc	($14),y                 ; 0x2014 <bassNotes+0x2>
    1245: 86 14        	stx	$14                     ; 0x2014 <bassNotes+0x2>
    1247: 85 15        	sta	$15                     ; 0x2015 <bassNotes+0x3>
    1249: a5 18        	lda	$18                     ; 0x2018 <bassNotes+0x6>
    124b: 92 14        	sta	($14)                   ; 0x2014 <bassNotes+0x2>
    124d: 80 15        	bra	$1264 <_ZN12_GLOBAL__N_13putEcP6Status+0xa9>
    124f: a6 12        	ldx	$12                     ; 0x2012 <bassNotes>
    1251: 86 ee        	stx	$ee                     ; 0x20ee <__heap_start+0x9c>
    1253: a6 13        	ldx	$13                     ; 0x2013 <bassNotes+0x1>
    1255: 86 ef        	stx	$ef                     ; 0x20ef <__heap_start+0x9d>
    1257: a5 18        	lda	$18                     ; 0x2018 <bassNotes+0x6>
    1259: 20 fc 0f     	jsr	$ffc <__putchar>
    125c: a6 ee        	ldx	$ee                     ; 0x20ee <__heap_start+0x9c>
    125e: 86 12        	stx	$12                     ; 0x2012 <bassNotes>
    1260: a6 ef        	ldx	$ef                     ; 0x20ef <__heap_start+0x9d>
    1262: 86 13        	stx	$13                     ; 0x2013 <bassNotes+0x1>
    1264: a0 05        	ldy	#$5
    1266: a5 12        	lda	$12                     ; 0x2012 <bassNotes>
    1268: 18           	clc
    1269: 69 05        	adc	#$5
    126b: 85 14        	sta	$14                     ; 0x2014 <bassNotes+0x2>
    126d: a5 13        	lda	$13                     ; 0x2013 <bassNotes+0x1>
    126f: 69 00        	adc	#$0
    1271: 85 15        	sta	$15                     ; 0x2015 <bassNotes+0x3>
    1273: b1 12        	lda	($12),y                 ; 0x2012 <bassNotes>
    1275: aa           	tax
    1276: a0 01        	ldy	#$1
    1278: b1 14        	lda	($14),y                 ; 0x2014 <bassNotes+0x2>
    127a: e8           	inx
    127b: d0 01        	bne	$127e <_ZN12_GLOBAL__N_13putEcP6Status+0xc3>
    127d: 1a           	inc
    127e: 85 16        	sta	$16                     ; 0x2016 <bassNotes+0x4>
    1280: 8a           	txa
    1281: a0 05        	ldy	#$5
    1283: 91 12        	sta	($12),y                 ; 0x2012 <bassNotes>
    1285: a0 01        	ldy	#$1
    1287: a5 16        	lda	$16                     ; 0x2016 <bassNotes+0x4>
    1289: 91 14        	sta	($14),y                 ; 0x2014 <bassNotes+0x2>
    128b: 60           	rts

0000128c <_ZN12_GLOBAL__N_112print_stringEPKcP6Status>:
    128c: a6 12        	ldx	$12                     ; 0x2012 <bassNotes>
    128e: 86 e6        	stx	$e6                     ; 0x20e6 <__heap_start+0x94>
    1290: a6 13        	ldx	$13                     ; 0x2013 <bassNotes+0x1>
    1292: 86 e7        	stx	$e7                     ; 0x20e7 <__heap_start+0x95>
    1294: a6 14        	ldx	$14                     ; 0x2014 <bassNotes+0x2>
    1296: 86 e8        	stx	$e8                     ; 0x20e8 <__heap_start+0x96>
    1298: a6 15        	ldx	$15                     ; 0x2015 <bassNotes+0x3>
    129a: 86 e9        	stx	$e9                     ; 0x20e9 <__heap_start+0x97>
    129c: a5 e8        	lda	$e8                     ; 0x20e8 <__heap_start+0x96>
    129e: 18           	clc
    129f: 69 0d        	adc	#$d
    12a1: 85 12        	sta	$12                     ; 0x2012 <bassNotes>
    12a3: a5 e9        	lda	$e9                     ; 0x20e9 <__heap_start+0x97>
    12a5: 69 00        	adc	#$0
    12a7: 85 13        	sta	$13                     ; 0x2013 <bassNotes+0x1>
    12a9: a0 01        	ldy	#$1
    12ab: b1 12        	lda	($12),y                 ; 0x2012 <bassNotes>
    12ad: 30 16        	bmi	$12c5 <_ZN12_GLOBAL__N_112print_stringEPKcP6Status+0x39>
    12af: a0 0d        	ldy	#$d
    12b1: 85 12        	sta	$12                     ; 0x2012 <bassNotes>
    12b3: b1 e8        	lda	($e8),y                 ; 0x20e8 <__heap_start+0x96>
    12b5: a6 12        	ldx	$12                     ; 0x2012 <bassNotes>
    12b7: 86 ed        	stx	$ed                     ; 0x20ed <__heap_start+0x9b>
    12b9: d0 0f        	bne	$12ca <_ZN12_GLOBAL__N_112print_stringEPKcP6Status+0x3e>
    12bb: aa           	tax
    12bc: d0 0c        	bne	$12ca <_ZN12_GLOBAL__N_112print_stringEPKcP6Status+0x3e>
    12be: 64 ea        	stz	$ea                     ; 0x20ea <__heap_start+0x98>
    12c0: a2 00        	ldx	#$0
    12c2: 4c 94 13     	jmp	$1394 <_ZN12_GLOBAL__N_112print_stringEPKcP6Status+0x108>
    12c5: a9 ff        	lda	#$ff
    12c7: aa           	tax
    12c8: 86 ed        	stx	$ed                     ; 0x20ed <__heap_start+0x9b>
    12ca: 85 ea        	sta	$ea                     ; 0x20ea <__heap_start+0x98>
    12cc: 64 12        	stz	$12                     ; 0x2012 <bassNotes>
    12ce: a4 e6        	ldy	$e6                     ; 0x20e6 <__heap_start+0x94>
    12d0: a6 e7        	ldx	$e7                     ; 0x20e7 <__heap_start+0x95>
    12d2: 86 16        	stx	$16                     ; 0x2016 <bassNotes+0x4>
    12d4: 64 13        	stz	$13                     ; 0x2013 <bassNotes+0x1>
    12d6: 98           	tya
    12d7: 18           	clc
    12d8: 65 12        	adc	$12                     ; 0x2012 <bassNotes>
    12da: 85 14        	sta	$14                     ; 0x2014 <bassNotes+0x2>
    12dc: a5 e7        	lda	$e7                     ; 0x20e7 <__heap_start+0x95>
    12de: 65 13        	adc	$13                     ; 0x2013 <bassNotes+0x1>
    12e0: 85 15        	sta	$15                     ; 0x2015 <bassNotes+0x3>
    12e2: b2 14        	lda	($14)                   ; 0x2014 <bassNotes+0x2>
    12e4: d0 03        	bne	$12e9 <_ZN12_GLOBAL__N_112print_stringEPKcP6Status+0x5d>
    12e6: 4c 8e 13     	jmp	$138e <_ZN12_GLOBAL__N_112print_stringEPKcP6Status+0x102>
    12e9: e6 12        	inc	$12                     ; 0x2012 <bassNotes>
    12eb: d0 02        	bne	$12ef <_ZN12_GLOBAL__N_112print_stringEPKcP6Status+0x63>
    12ed: e6 13        	inc	$13                     ; 0x2013 <bassNotes+0x1>
    12ef: a6 ed        	ldx	$ed                     ; 0x20ed <__heap_start+0x9b>
    12f1: e4 13        	cpx	$13                     ; 0x2013 <bassNotes+0x1>
    12f3: d0 e1        	bne	$12d6 <_ZN12_GLOBAL__N_112print_stringEPKcP6Status+0x4a>
    12f5: a6 ea        	ldx	$ea                     ; 0x20ea <__heap_start+0x98>
    12f7: e4 12        	cpx	$12                     ; 0x2012 <bassNotes>
    12f9: d0 db        	bne	$12d6 <_ZN12_GLOBAL__N_112print_stringEPKcP6Status+0x4a>
    12fb: a0 01        	ldy	#$1
    12fd: 98           	tya
    12fe: 31 e8        	and	($e8),y                 ; 0x20e8 <__heap_start+0x96>
    1300: 29 01        	and	#$1
    1302: f0 03        	beq	$1307 <_ZN12_GLOBAL__N_112print_stringEPKcP6Status+0x7b>
    1304: 4c 5f 13     	jmp	$135f <_ZN12_GLOBAL__N_112print_stringEPKcP6Status+0xd3>
    1307: a0 0b        	ldy	#$b
    1309: a5 e8        	lda	$e8                     ; 0x20e8 <__heap_start+0x96>
    130b: 18           	clc
    130c: 69 0b        	adc	#$b
    130e: 85 14        	sta	$14                     ; 0x2014 <bassNotes+0x2>
    1310: a5 e9        	lda	$e9                     ; 0x20e9 <__heap_start+0x97>
    1312: 69 00        	adc	#$0
    1314: 85 15        	sta	$15                     ; 0x2015 <bassNotes+0x3>
    1316: b1 e8        	lda	($e8),y                 ; 0x20e8 <__heap_start+0x96>
    1318: 85 12        	sta	$12                     ; 0x2012 <bassNotes>
    131a: a0 01        	ldy	#$1
    131c: b1 14        	lda	($14),y                 ; 0x2014 <bassNotes+0x2>
    131e: 85 13        	sta	$13                     ; 0x2013 <bassNotes+0x1>
    1320: a6 ed        	ldx	$ed                     ; 0x20ed <__heap_start+0x9b>
    1322: e4 13        	cpx	$13                     ; 0x2013 <bassNotes+0x1>
    1324: d0 08        	bne	$132e <_ZN12_GLOBAL__N_112print_stringEPKcP6Status+0xa2>
    1326: a6 ea        	ldx	$ea                     ; 0x20ea <__heap_start+0x98>
    1328: e4 12        	cpx	$12                     ; 0x2012 <bassNotes>
    132a: 90 06        	bcc	$1332 <_ZN12_GLOBAL__N_112print_stringEPKcP6Status+0xa6>
    132c: 80 31        	bra	$135f <_ZN12_GLOBAL__N_112print_stringEPKcP6Status+0xd3>
    132e: e4 13        	cpx	$13                     ; 0x2013 <bassNotes+0x1>
    1330: b0 2d        	bcs	$135f <_ZN12_GLOBAL__N_112print_stringEPKcP6Status+0xd3>
    1332: 38           	sec
    1333: a5 ea        	lda	$ea                     ; 0x20ea <__heap_start+0x98>
    1335: e5 12        	sbc	$12                     ; 0x2012 <bassNotes>
    1337: a8           	tay
    1338: a5 ed        	lda	$ed                     ; 0x20ed <__heap_start+0x9b>
    133a: e5 13        	sbc	$13                     ; 0x2013 <bassNotes+0x1>
    133c: 85 ec        	sta	$ec                     ; 0x20ec <__heap_start+0x9a>
    133e: a6 e8        	ldx	$e8                     ; 0x20e8 <__heap_start+0x96>
    1340: 86 12        	stx	$12                     ; 0x2012 <bassNotes>
    1342: a6 e9        	ldx	$e9                     ; 0x20e9 <__heap_start+0x97>
    1344: 86 13        	stx	$13                     ; 0x2013 <bassNotes+0x1>
    1346: 84 eb        	sty	$eb                     ; 0x20eb <__heap_start+0x99>
    1348: a9 20        	lda	#$20
    134a: 20 bb 11     	jsr	$11bb <_ZN12_GLOBAL__N_13putEcP6Status>
    134d: a6 ec        	ldx	$ec                     ; 0x20ec <__heap_start+0x9a>
    134f: e6 eb        	inc	$eb                     ; 0x20eb <__heap_start+0x99>
    1351: d0 01        	bne	$1354 <_ZN12_GLOBAL__N_112print_stringEPKcP6Status+0xc8>
    1353: e8           	inx
    1354: 86 ec        	stx	$ec                     ; 0x20ec <__heap_start+0x9a>
    1356: a4 eb        	ldy	$eb                     ; 0x20eb <__heap_start+0x99>
    1358: 8a           	txa
    1359: d0 e3        	bne	$133e <_ZN12_GLOBAL__N_112print_stringEPKcP6Status+0xb2>
    135b: a5 eb        	lda	$eb                     ; 0x20eb <__heap_start+0x99>
    135d: d0 df        	bne	$133e <_ZN12_GLOBAL__N_112print_stringEPKcP6Status+0xb2>
    135f: a4 ed        	ldy	$ed                     ; 0x20ed <__heap_start+0x9b>
    1361: d0 04        	bne	$1367 <_ZN12_GLOBAL__N_112print_stringEPKcP6Status+0xdb>
    1363: a5 ea        	lda	$ea                     ; 0x20ea <__heap_start+0x98>
    1365: f0 26        	beq	$138d <_ZN12_GLOBAL__N_112print_stringEPKcP6Status+0x101>
    1367: a2 ff        	ldx	#$ff
    1369: c6 ea        	dec	$ea                     ; 0x20ea <__heap_start+0x98>
    136b: e4 ea        	cpx	$ea                     ; 0x20ea <__heap_start+0x98>
    136d: d0 01        	bne	$1370 <_ZN12_GLOBAL__N_112print_stringEPKcP6Status+0xe4>
    136f: 88           	dey
    1370: 84 eb        	sty	$eb                     ; 0x20eb <__heap_start+0x99>
    1372: b2 e6        	lda	($e6)                   ; 0x20e6 <__heap_start+0x94>
    1374: e6 e6        	inc	$e6                     ; 0x20e6 <__heap_start+0x94>
    1376: d0 02        	bne	$137a <_ZN12_GLOBAL__N_112print_stringEPKcP6Status+0xee>
    1378: e6 e7        	inc	$e7                     ; 0x20e7 <__heap_start+0x95>
    137a: a6 e8        	ldx	$e8                     ; 0x20e8 <__heap_start+0x96>
    137c: 86 12        	stx	$12                     ; 0x2012 <bassNotes>
    137e: a6 e9        	ldx	$e9                     ; 0x20e9 <__heap_start+0x97>
    1380: 86 13        	stx	$13                     ; 0x2013 <bassNotes+0x1>
    1382: 20 bb 11     	jsr	$11bb <_ZN12_GLOBAL__N_13putEcP6Status>
    1385: a4 eb        	ldy	$eb                     ; 0x20eb <__heap_start+0x99>
    1387: d0 de        	bne	$1367 <_ZN12_GLOBAL__N_112print_stringEPKcP6Status+0xdb>
    1389: a5 ea        	lda	$ea                     ; 0x20ea <__heap_start+0x98>
    138b: d0 da        	bne	$1367 <_ZN12_GLOBAL__N_112print_stringEPKcP6Status+0xdb>
    138d: 60           	rts
    138e: a6 12        	ldx	$12                     ; 0x2012 <bassNotes>
    1390: 86 ea        	stx	$ea                     ; 0x20ea <__heap_start+0x98>
    1392: a6 13        	ldx	$13                     ; 0x2013 <bassNotes+0x1>
    1394: 86 ed        	stx	$ed                     ; 0x20ed <__heap_start+0x9b>
    1396: 4c fb 12     	jmp	$12fb <_ZN12_GLOBAL__N_112print_stringEPKcP6Status+0x6f>

00001399 <printf>:
    1399: a6 12        	ldx	$12                     ; 0x2012 <bassNotes>
    139b: 86 9b        	stx	$9b                     ; 0x209b <__heap_start+0x49>
    139d: a6 13        	ldx	$13                     ; 0x2013 <bassNotes+0x1>
    139f: 86 9c        	stx	$9c                     ; 0x209c <__heap_start+0x4a>
    13a1: 18           	clc
    13a2: a6 10        	ldx	$10                     ; 0x2010 <textColors+0x2e>
    13a4: a4 11        	ldy	$11                     ; 0x2011 <textColors+0x2f>
    13a6: 86 dc        	stx	$dc                     ; 0x20dc <__heap_start+0x8a>
    13a8: 84 dd        	sty	$dd                     ; 0x20dd <__heap_start+0x8b>
    13aa: a6 dc        	ldx	$dc                     ; 0x20dc <__heap_start+0x8a>
    13ac: a4 dd        	ldy	$dd                     ; 0x20dd <__heap_start+0x8b>
    13ae: 86 c7        	stx	$c7                     ; 0x20c7 <__heap_start+0x75>
    13b0: 84 c8        	sty	$c8                     ; 0x20c8 <__heap_start+0x76>
    13b2: a2 ff        	ldx	#$ff
    13b4: 86 cc        	stx	$cc                     ; 0x20cc <__heap_start+0x7a>
    13b6: 86 cd        	stx	$cd                     ; 0x20cd <__heap_start+0x7b>
    13b8: 64 ce        	stz	$ce                     ; 0x20ce <__heap_start+0x7c>
    13ba: 64 cf        	stz	$cf                     ; 0x20cf <__heap_start+0x7d>
    13bc: e8           	inx
    13bd: 86 9d        	stx	$9d                     ; 0x209d <__heap_start+0x4b>
    13bf: a2 00        	ldx	#$0
    13c1: 86 9e        	stx	$9e                     ; 0x209e <__heap_start+0x4c>
    13c3: a6 9d        	ldx	$9d                     ; 0x209d <__heap_start+0x4b>
    13c5: a4 9e        	ldy	$9e                     ; 0x209e <__heap_start+0x4c>
    13c7: 86 d2        	stx	$d2                     ; 0x20d2 <__heap_start+0x80>
    13c9: 84 d3        	sty	$d3                     ; 0x20d3 <__heap_start+0x81>
    13cb: a2 02        	ldx	#$2
    13cd: 86 d8        	stx	$d8                     ; 0x20d8 <__heap_start+0x86>
    13cf: 64 d9        	stz	$d9                     ; 0x20d9 <__heap_start+0x87>
    13d1: a6 c7        	ldx	$c7                     ; 0x20c7 <__heap_start+0x75>
    13d3: a4 c8        	ldy	$c8                     ; 0x20c8 <__heap_start+0x76>
    13d5: 86 da        	stx	$da                     ; 0x20da <__heap_start+0x88>
    13d7: 84 db        	sty	$db                     ; 0x20db <__heap_start+0x89>
    13d9: a2 be        	ldx	#$be
    13db: a0 00        	ldy	#$0
    13dd: 86 12        	stx	$12                     ; 0x2012 <bassNotes>
    13df: 84 13        	sty	$13                     ; 0x2013 <bassNotes+0x1>
    13e1: a0 01        	ldy	#$1
    13e3: a9 a5        	lda	#$a5
    13e5: 18           	clc
    13e6: 69 02        	adc	#$2
    13e8: 85 e4        	sta	$e4                     ; 0x20e4 <__heap_start+0x92>
    13ea: a9 00        	lda	#$0
    13ec: 69 00        	adc	#$0
    13ee: 85 e5        	sta	$e5                     ; 0x20e5 <__heap_start+0x93>
    13f0: e6 12        	inc	$12                     ; 0x2012 <bassNotes>
    13f2: d0 02        	bne	$13f6 <printf+0x5d>
    13f4: e6 13        	inc	$13                     ; 0x2013 <bassNotes+0x1>
    13f6: a6 12        	ldx	$12                     ; 0x2012 <bassNotes>
    13f8: 86 e1        	stx	$e1                     ; 0x20e1 <__heap_start+0x8f>
    13fa: a6 13        	ldx	$13                     ; 0x2013 <bassNotes+0x1>
    13fc: 86 e2        	stx	$e2                     ; 0x20e2 <__heap_start+0x90>
    13fe: a6 9b        	ldx	$9b                     ; 0x209b <__heap_start+0x49>
    1400: 86 9f        	stx	$9f                     ; 0x209f <__heap_start+0x4d>
    1402: a6 9c        	ldx	$9c                     ; 0x209c <__heap_start+0x4a>
    1404: 86 a0        	stx	$a0                     ; 0x20a0 <__heap_start+0x4e>
    1406: b2 9b        	lda	($9b)                   ; 0x209b <__heap_start+0x49>
    1408: c9 25        	cmp	#$25
    140a: f0 21        	beq	$142d <printf+0x94>
    140c: aa           	tax
    140d: d0 03        	bne	$1412 <printf+0x79>
    140f: 4c 48 1f     	jmp	$1f48 <printf+0xbaf>
    1412: 20 fc 0f     	jsr	$ffc <__putchar>
    1415: a0 01        	ldy	#$1
    1417: e6 9f        	inc	$9f                     ; 0x209f <__heap_start+0x4d>
    1419: d0 02        	bne	$141d <printf+0x84>
    141b: e6 a0        	inc	$a0                     ; 0x20a0 <__heap_start+0x4e>
    141d: e6 ce        	inc	$ce                     ; 0x20ce <__heap_start+0x7c>
    141f: d0 02        	bne	$1423 <printf+0x8a>
    1421: e6 cf        	inc	$cf                     ; 0x20cf <__heap_start+0x7d>
    1423: a6 9f        	ldx	$9f                     ; 0x209f <__heap_start+0x4d>
    1425: 86 9b        	stx	$9b                     ; 0x209b <__heap_start+0x49>
    1427: a6 a0        	ldx	$a0                     ; 0x20a0 <__heap_start+0x4e>
    1429: 86 9c        	stx	$9c                     ; 0x209c <__heap_start+0x4a>
    142b: 80 d1        	bra	$13fe <printf+0x65>
    142d: a6 9b        	ldx	$9b                     ; 0x209b <__heap_start+0x49>
    142f: 86 12        	stx	$12                     ; 0x2012 <bassNotes>
    1431: a6 9c        	ldx	$9c                     ; 0x209c <__heap_start+0x4a>
    1433: 86 13        	stx	$13                     ; 0x2013 <bassNotes+0x1>
    1435: e6 12        	inc	$12                     ; 0x2012 <bassNotes>
    1437: d0 02        	bne	$143b <printf+0xa2>
    1439: e6 13        	inc	$13                     ; 0x2013 <bassNotes+0x1>
    143b: b1 9f        	lda	($9f),y                 ; 0x209f <__heap_start+0x4d>
    143d: c9 25        	cmp	#$25
    143f: d0 16        	bne	$1457 <printf+0xbe>
    1441: a4 ce        	ldy	$ce                     ; 0x20ce <__heap_start+0x7c>
    1443: a5 cf        	lda	$cf                     ; 0x20cf <__heap_start+0x7d>
    1445: c5 cd        	cmp	$cd                     ; 0x20cd <__heap_start+0x7b>
    1447: f0 03        	beq	$144c <printf+0xb3>
    1449: 4c 5d 15     	jmp	$155d <printf+0x1c4>
    144c: a6 cc        	ldx	$cc                     ; 0x20cc <__heap_start+0x7a>
    144e: 86 12        	stx	$12                     ; 0x2012 <bassNotes>
    1450: 84 13        	sty	$13                     ; 0x2013 <bassNotes+0x1>
    1452: c4 12        	cpy	$12                     ; 0x2012 <bassNotes>
    1454: 4c 61 15     	jmp	$1561 <printf+0x1c8>
    1457: 64 ca        	stz	$ca                     ; 0x20ca <__heap_start+0x78>
    1459: 64 cb        	stz	$cb                     ; 0x20cb <__heap_start+0x79>
    145b: 64 c9        	stz	$c9                     ; 0x20c9 <__heap_start+0x77>
    145d: 64 d4        	stz	$d4                     ; 0x20d4 <__heap_start+0x82>
    145f: 64 d5        	stz	$d5                     ; 0x20d5 <__heap_start+0x83>
    1461: a2 ff        	ldx	#$ff
    1463: 86 d6        	stx	$d6                     ; 0x20d6 <__heap_start+0x84>
    1465: 86 d7        	stx	$d7                     ; 0x20d7 <__heap_start+0x85>
    1467: 64 9a        	stz	$9a                     ; 0x209a <__heap_start+0x48>
    1469: 80 33        	bra	$149e <printf+0x105>
    146b: a2 02        	ldx	#$2
    146d: 80 15        	bra	$1484 <printf+0xeb>
    146f: e0 20        	cpx	#$20
    1471: f0 15        	beq	$1488 <printf+0xef>
    1473: 86 15        	stx	$15                     ; 0x2015 <bassNotes+0x3>
    1475: e0 23        	cpx	#$23
    1477: f0 03        	beq	$147c <printf+0xe3>
    1479: 4c fb 14     	jmp	$14fb <printf+0x162>
    147c: a5 9a        	lda	$9a                     ; 0x209a <__heap_start+0x48>
    147e: a2 04        	ldx	#$4
    1480: 80 02        	bra	$1484 <printf+0xeb>
    1482: a2 10        	ldx	#$10
    1484: 86 14        	stx	$14                     ; 0x2014 <bassNotes+0x2>
    1486: 80 06        	bra	$148e <printf+0xf5>
    1488: a2 08        	ldx	#$8
    148a: 86 14        	stx	$14                     ; 0x2014 <bassNotes+0x2>
    148c: a5 9a        	lda	$9a                     ; 0x209a <__heap_start+0x48>
    148e: 05 14        	ora	$14                     ; 0x2014 <bassNotes+0x2>
    1490: 85 9a        	sta	$9a                     ; 0x209a <__heap_start+0x48>
    1492: 85 ca        	sta	$ca                     ; 0x20ca <__heap_start+0x78>
    1494: a2 00        	ldx	#$0
    1496: 86 cb        	stx	$cb                     ; 0x20cb <__heap_start+0x79>
    1498: e6 12        	inc	$12                     ; 0x2012 <bassNotes>
    149a: d0 02        	bne	$149e <printf+0x105>
    149c: e6 13        	inc	$13                     ; 0x2013 <bassNotes+0x1>
    149e: b2 12        	lda	($12)                   ; 0x2012 <bassNotes>
    14a0: aa           	tax
    14a1: 38           	sec
    14a2: e9 2a        	sbc	#$2a
    14a4: c9 07        	cmp	#$7
    14a6: b0 c7        	bcs	$146f <printf+0xd6>
    14a8: 86 15        	stx	$15                     ; 0x2015 <bassNotes+0x3>
    14aa: 0a           	asl
    14ab: aa           	tax
    14ac: a0 01        	ldy	#$1
    14ae: 84 14        	sty	$14                     ; 0x2014 <bassNotes+0x2>
    14b0: a5 9a        	lda	$9a                     ; 0x209a <__heap_start+0x48>
    14b2: 7c a8 1f     	jmp	($1fa8,x)               ; 0x1fa8 <__set_v+0x13>
    14b5: a5 da        	lda	$da                     ; 0x20da <__heap_start+0x88>
    14b7: a6 db        	ldx	$db                     ; 0x20db <__heap_start+0x89>
    14b9: 85 16        	sta	$16                     ; 0x2016 <bassNotes+0x4>
    14bb: 86 17        	stx	$17                     ; 0x2017 <bassNotes+0x5>
    14bd: 18           	clc
    14be: 69 02        	adc	#$2
    14c0: a8           	tay
    14c1: 8a           	txa
    14c2: 69 00        	adc	#$0
    14c4: 84 da        	sty	$da                     ; 0x20da <__heap_start+0x88>
    14c6: 85 db        	sta	$db                     ; 0x20db <__heap_start+0x89>
    14c8: b2 16        	lda	($16)                   ; 0x2016 <bassNotes+0x4>
    14ca: 85 15        	sta	$15                     ; 0x2015 <bassNotes+0x3>
    14cc: a0 01        	ldy	#$1
    14ce: b1 16        	lda	($16),y                 ; 0x2016 <bassNotes+0x4>
    14d0: 85 14        	sta	$14                     ; 0x2014 <bassNotes+0x2>
    14d2: 10 15        	bpl	$14e9 <printf+0x150>
    14d4: a5 9a        	lda	$9a                     ; 0x209a <__heap_start+0x48>
    14d6: 09 01        	ora	#$1
    14d8: 85 9a        	sta	$9a                     ; 0x209a <__heap_start+0x48>
    14da: 85 ca        	sta	$ca                     ; 0x20ca <__heap_start+0x78>
    14dc: a2 00        	ldx	#$0
    14de: 86 cb        	stx	$cb                     ; 0x20cb <__heap_start+0x79>
    14e0: 8a           	txa
    14e1: 38           	sec
    14e2: e5 15        	sbc	$15                     ; 0x2015 <bassNotes+0x3>
    14e4: 85 15        	sta	$15                     ; 0x2015 <bassNotes+0x3>
    14e6: 8a           	txa
    14e7: e5 14        	sbc	$14                     ; 0x2014 <bassNotes+0x2>
    14e9: a6 15        	ldx	$15                     ; 0x2015 <bassNotes+0x3>
    14eb: 86 d4        	stx	$d4                     ; 0x20d4 <__heap_start+0x82>
    14ed: 85 d5        	sta	$d5                     ; 0x20d5 <__heap_start+0x83>
    14ef: e6 12        	inc	$12                     ; 0x2012 <bassNotes>
    14f1: f0 03        	beq	$14f6 <printf+0x15d>
    14f3: 4c af 15     	jmp	$15af <printf+0x216>
    14f6: e6 13        	inc	$13                     ; 0x2013 <bassNotes+0x1>
    14f8: 4c af 15     	jmp	$15af <printf+0x216>
    14fb: a5 15        	lda	$15                     ; 0x2015 <bassNotes+0x3>
    14fd: 18           	clc
    14fe: 69 d0        	adc	#$d0
    1500: c9 0a        	cmp	#$a
    1502: 90 03        	bcc	$1507 <printf+0x16e>
    1504: 4c a1 15     	jmp	$15a1 <printf+0x208>
    1507: a6 15        	ldx	$15                     ; 0x2015 <bassNotes+0x3>
    1509: 86 14        	stx	$14                     ; 0x2014 <bassNotes+0x2>
    150b: 64 16        	stz	$16                     ; 0x2016 <bassNotes+0x4>
    150d: 64 15        	stz	$15                     ; 0x2015 <bassNotes+0x3>
    150f: 64 17        	stz	$17                     ; 0x2017 <bassNotes+0x5>
    1511: a0 01        	ldy	#$1
    1513: 06 16        	asl	$16                     ; 0x2016 <bassNotes+0x4>
    1515: 26 17        	rol	$17                     ; 0x2017 <bassNotes+0x5>
    1517: a5 16        	lda	$16                     ; 0x2016 <bassNotes+0x4>
    1519: 0a           	asl
    151a: aa           	tax
    151b: a5 17        	lda	$17                     ; 0x2017 <bassNotes+0x5>
    151d: 2a           	rol
    151e: 86 18        	stx	$18                     ; 0x2018 <bassNotes+0x6>
    1520: 06 18        	asl	$18                     ; 0x2018 <bassNotes+0x6>
    1522: 2a           	rol
    1523: aa           	tax
    1524: a5 18        	lda	$18                     ; 0x2018 <bassNotes+0x6>
    1526: 18           	clc
    1527: 65 16        	adc	$16                     ; 0x2016 <bassNotes+0x4>
    1529: 85 16        	sta	$16                     ; 0x2016 <bassNotes+0x4>
    152b: 8a           	txa
    152c: 65 17        	adc	$17                     ; 0x2017 <bassNotes+0x5>
    152e: 85 17        	sta	$17                     ; 0x2017 <bassNotes+0x5>
    1530: a5 16        	lda	$16                     ; 0x2016 <bassNotes+0x4>
    1532: 18           	clc
    1533: 65 14        	adc	$14                     ; 0x2014 <bassNotes+0x2>
    1535: 85 14        	sta	$14                     ; 0x2014 <bassNotes+0x2>
    1537: a5 17        	lda	$17                     ; 0x2017 <bassNotes+0x5>
    1539: 65 15        	adc	$15                     ; 0x2015 <bassNotes+0x3>
    153b: aa           	tax
    153c: 18           	clc
    153d: a5 14        	lda	$14                     ; 0x2014 <bassNotes+0x2>
    153f: 69 d0        	adc	#$d0
    1541: 85 16        	sta	$16                     ; 0x2016 <bassNotes+0x4>
    1543: 8a           	txa
    1544: 69 ff        	adc	#$ff
    1546: 85 17        	sta	$17                     ; 0x2017 <bassNotes+0x5>
    1548: b1 12        	lda	($12),y                 ; 0x2012 <bassNotes>
    154a: 85 14        	sta	$14                     ; 0x2014 <bassNotes+0x2>
    154c: 18           	clc
    154d: 69 d0        	adc	#$d0
    154f: e6 12        	inc	$12                     ; 0x2012 <bassNotes>
    1551: d0 02        	bne	$1555 <printf+0x1bc>
    1553: e6 13        	inc	$13                     ; 0x2013 <bassNotes+0x1>
    1555: c9 0a        	cmp	#$a
    1557: 64 15        	stz	$15                     ; 0x2015 <bassNotes+0x3>
    1559: 90 b8        	bcc	$1513 <printf+0x17a>
    155b: 80 4a        	bra	$15a7 <printf+0x20e>
    155d: 84 13        	sty	$13                     ; 0x2013 <bassNotes+0x1>
    155f: c5 cd        	cmp	$cd                     ; 0x20cd <__heap_start+0x7b>
    1561: a0 01        	ldy	#$1
    1563: b0 26        	bcs	$158b <printf+0x1f2>
    1565: a6 d9        	ldx	$d9                     ; 0x20d9 <__heap_start+0x87>
    1567: e4 9e        	cpx	$9e                     ; 0x209e <__heap_start+0x4c>
    1569: d0 19        	bne	$1584 <printf+0x1eb>
    156b: a6 d8        	ldx	$d8                     ; 0x20d8 <__heap_start+0x86>
    156d: e4 9d        	cpx	$9d                     ; 0x209d <__heap_start+0x4b>
    156f: d0 13        	bne	$1584 <printf+0x1eb>
    1571: 18           	clc
    1572: aa           	tax
    1573: a5 13        	lda	$13                     ; 0x2013 <bassNotes+0x1>
    1575: 65 d2        	adc	$d2                     ; 0x20d2 <__heap_start+0x80>
    1577: 85 12        	sta	$12                     ; 0x2012 <bassNotes>
    1579: 8a           	txa
    157a: 65 d3        	adc	$d3                     ; 0x20d3 <__heap_start+0x81>
    157c: 85 13        	sta	$13                     ; 0x2013 <bassNotes+0x1>
    157e: a9 25        	lda	#$25
    1580: 92 12        	sta	($12)                   ; 0x2012 <bassNotes>
    1582: 80 07        	bra	$158b <printf+0x1f2>
    1584: a9 25        	lda	#$25
    1586: 20 fc 0f     	jsr	$ffc <__putchar>
    1589: a0 01        	ldy	#$1
    158b: e6 ce        	inc	$ce                     ; 0x20ce <__heap_start+0x7c>
    158d: d0 02        	bne	$1591 <printf+0x1f8>
    158f: e6 cf        	inc	$cf                     ; 0x20cf <__heap_start+0x7d>
    1591: a5 9f        	lda	$9f                     ; 0x209f <__heap_start+0x4d>
    1593: 18           	clc
    1594: 69 02        	adc	#$2
    1596: 85 9b        	sta	$9b                     ; 0x209b <__heap_start+0x49>
    1598: a5 a0        	lda	$a0                     ; 0x20a0 <__heap_start+0x4e>
    159a: 69 00        	adc	#$0
    159c: 85 9c        	sta	$9c                     ; 0x209c <__heap_start+0x4a>
    159e: 4c fe 13     	jmp	$13fe <printf+0x65>
    15a1: 64 16        	stz	$16                     ; 0x2016 <bassNotes+0x4>
    15a3: 64 17        	stz	$17                     ; 0x2017 <bassNotes+0x5>
    15a5: a0 01        	ldy	#$1
    15a7: a6 16        	ldx	$16                     ; 0x2016 <bassNotes+0x4>
    15a9: 86 d4        	stx	$d4                     ; 0x20d4 <__heap_start+0x82>
    15ab: a5 17        	lda	$17                     ; 0x2017 <bassNotes+0x5>
    15ad: 85 d5        	sta	$d5                     ; 0x20d5 <__heap_start+0x83>
    15af: 86 a3        	stx	$a3                     ; 0x20a3 <__heap_start+0x51>
    15b1: 85 a1        	sta	$a1                     ; 0x20a1 <__heap_start+0x4f>
    15b3: b2 12        	lda	($12)                   ; 0x2012 <bassNotes>
    15b5: a2 ff        	ldx	#$ff
    15b7: c9 2e        	cmp	#$2e
    15b9: d0 39        	bne	$15f4 <printf+0x25b>
    15bb: b1 12        	lda	($12),y                 ; 0x2012 <bassNotes>
    15bd: c9 2a        	cmp	#$2a
    15bf: d0 38        	bne	$15f9 <printf+0x260>
    15c1: a5 da        	lda	$da                     ; 0x20da <__heap_start+0x88>
    15c3: a6 db        	ldx	$db                     ; 0x20db <__heap_start+0x89>
    15c5: 85 14        	sta	$14                     ; 0x2014 <bassNotes+0x2>
    15c7: 86 15        	stx	$15                     ; 0x2015 <bassNotes+0x3>
    15c9: 18           	clc
    15ca: 69 02        	adc	#$2
    15cc: 85 16        	sta	$16                     ; 0x2016 <bassNotes+0x4>
    15ce: 8a           	txa
    15cf: 69 00        	adc	#$0
    15d1: a6 16        	ldx	$16                     ; 0x2016 <bassNotes+0x4>
    15d3: 86 da        	stx	$da                     ; 0x20da <__heap_start+0x88>
    15d5: 85 db        	sta	$db                     ; 0x20db <__heap_start+0x89>
    15d7: a5 12        	lda	$12                     ; 0x2012 <bassNotes>
    15d9: 18           	clc
    15da: 69 02        	adc	#$2
    15dc: 85 12        	sta	$12                     ; 0x2012 <bassNotes>
    15de: a5 13        	lda	$13                     ; 0x2013 <bassNotes+0x1>
    15e0: 69 00        	adc	#$0
    15e2: 85 13        	sta	$13                     ; 0x2013 <bassNotes+0x1>
    15e4: b2 14        	lda	($14)                   ; 0x2014 <bassNotes+0x2>
    15e6: aa           	tax
    15e7: b1 14        	lda	($14),y                 ; 0x2014 <bassNotes+0x2>
    15e9: 86 18        	stx	$18                     ; 0x2018 <bassNotes+0x6>
    15eb: 86 d6        	stx	$d6                     ; 0x20d6 <__heap_start+0x84>
    15ed: 85 19        	sta	$19                     ; 0x2019 <bassNotes+0x7>
    15ef: 85 d7        	sta	$d7                     ; 0x20d7 <__heap_start+0x85>
    15f1: 4c a4 16     	jmp	$16a4 <printf+0x30b>
    15f4: 86 18        	stx	$18                     ; 0x2018 <bassNotes+0x6>
    15f6: 4c b4 16     	jmp	$16b4 <printf+0x31b>
    15f9: 85 17        	sta	$17                     ; 0x2017 <bassNotes+0x5>
    15fb: 18           	clc
    15fc: 69 d0        	adc	#$d0
    15fe: c9 0a        	cmp	#$a
    1600: 90 03        	bcc	$1605 <printf+0x26c>
    1602: 4c 96 16     	jmp	$1696 <printf+0x2fd>
    1605: 64 16        	stz	$16                     ; 0x2016 <bassNotes+0x4>
    1607: a2 01        	ldx	#$1
    1609: 64 18        	stz	$18                     ; 0x2018 <bassNotes+0x6>
    160b: 64 19        	stz	$19                     ; 0x2019 <bassNotes+0x7>
    160d: a0 01        	ldy	#$1
    160f: 64 1a        	stz	$1a                     ; 0x201a <bassNotes+0x8>
    1611: 5a           	phy
    1612: a4 1a        	ldy	$1a                     ; 0x201a <bassNotes+0x8>
    1614: 84 14        	sty	$14                     ; 0x2014 <bassNotes+0x2>
    1616: 86 15        	stx	$15                     ; 0x2015 <bassNotes+0x3>
    1618: 06 18        	asl	$18                     ; 0x2018 <bassNotes+0x6>
    161a: 26 19        	rol	$19                     ; 0x2019 <bassNotes+0x7>
    161c: a5 18        	lda	$18                     ; 0x2018 <bassNotes+0x6>
    161e: 0a           	asl
    161f: 85 1d        	sta	$1d                     ; 0x201d <bassNotes+0xb>
    1621: a5 19        	lda	$19                     ; 0x2019 <bassNotes+0x7>
    1623: 2a           	rol
    1624: 06 1d        	asl	$1d                     ; 0x201d <bassNotes+0xb>
    1626: 2a           	rol
    1627: 85 1e        	sta	$1e                     ; 0x201e <bassDelays>
    1629: a5 1d        	lda	$1d                     ; 0x201d <bassNotes+0xb>
    162b: 18           	clc
    162c: 65 18        	adc	$18                     ; 0x2018 <bassNotes+0x6>
    162e: 85 18        	sta	$18                     ; 0x2018 <bassNotes+0x6>
    1630: a5 1e        	lda	$1e                     ; 0x201e <bassDelays>
    1632: 65 19        	adc	$19                     ; 0x2019 <bassNotes+0x7>
    1634: 85 19        	sta	$19                     ; 0x2019 <bassNotes+0x7>
    1636: a5 18        	lda	$18                     ; 0x2018 <bassNotes+0x6>
    1638: 18           	clc
    1639: 65 17        	adc	$17                     ; 0x2017 <bassNotes+0x5>
    163b: 85 17        	sta	$17                     ; 0x2017 <bassNotes+0x5>
    163d: a5 19        	lda	$19                     ; 0x2019 <bassNotes+0x7>
    163f: 65 16        	adc	$16                     ; 0x2016 <bassNotes+0x4>
    1641: 85 16        	sta	$16                     ; 0x2016 <bassNotes+0x4>
    1643: 18           	clc
    1644: a5 17        	lda	$17                     ; 0x2017 <bassNotes+0x5>
    1646: 69 d0        	adc	#$d0
    1648: 85 18        	sta	$18                     ; 0x2018 <bassNotes+0x6>
    164a: a5 16        	lda	$16                     ; 0x2016 <bassNotes+0x4>
    164c: 69 ff        	adc	#$ff
    164e: 85 19        	sta	$19                     ; 0x2019 <bassNotes+0x7>
    1650: e8           	inx
    1651: d0 02        	bne	$1655 <printf+0x2bc>
    1653: e6 1a        	inc	$1a                     ; 0x201a <bassNotes+0x8>
    1655: a5 12        	lda	$12                     ; 0x2012 <bassNotes>
    1657: 18           	clc
    1658: 65 15        	adc	$15                     ; 0x2015 <bassNotes+0x3>
    165a: 85 1d        	sta	$1d                     ; 0x201d <bassNotes+0xb>
    165c: a5 13        	lda	$13                     ; 0x2013 <bassNotes+0x1>
    165e: 65 14        	adc	$14                     ; 0x2014 <bassNotes+0x2>
    1660: a4 1d        	ldy	$1d                     ; 0x201d <bassNotes+0xb>
    1662: 84 16        	sty	$16                     ; 0x2016 <bassNotes+0x4>
    1664: 7a           	ply
    1665: 85 17        	sta	$17                     ; 0x2017 <bassNotes+0x5>
    1667: b1 16        	lda	($16),y                 ; 0x2016 <bassNotes+0x4>
    1669: 85 17        	sta	$17                     ; 0x2017 <bassNotes+0x5>
    166b: 18           	clc
    166c: 69 d0        	adc	#$d0
    166e: c9 0a        	cmp	#$a
    1670: 64 16        	stz	$16                     ; 0x2016 <bassNotes+0x4>
    1672: b0 03        	bcs	$1677 <printf+0x2de>
    1674: 4c 11 16     	jmp	$1611 <printf+0x278>
    1677: a5 12        	lda	$12                     ; 0x2012 <bassNotes>
    1679: 18           	clc
    167a: 65 15        	adc	$15                     ; 0x2015 <bassNotes+0x3>
    167c: 85 12        	sta	$12                     ; 0x2012 <bassNotes>
    167e: a5 13        	lda	$13                     ; 0x2013 <bassNotes+0x1>
    1680: 65 14        	adc	$14                     ; 0x2014 <bassNotes+0x2>
    1682: 85 13        	sta	$13                     ; 0x2013 <bassNotes+0x1>
    1684: e6 12        	inc	$12                     ; 0x2012 <bassNotes>
    1686: d0 02        	bne	$168a <printf+0x2f1>
    1688: e6 13        	inc	$13                     ; 0x2013 <bassNotes+0x1>
    168a: a6 18        	ldx	$18                     ; 0x2018 <bassNotes+0x6>
    168c: 86 d6        	stx	$d6                     ; 0x20d6 <__heap_start+0x84>
    168e: a6 19        	ldx	$19                     ; 0x2019 <bassNotes+0x7>
    1690: 86 d7        	stx	$d7                     ; 0x20d7 <__heap_start+0x85>
    1692: a0 01        	ldy	#$1
    1694: 80 0e        	bra	$16a4 <printf+0x30b>
    1696: e6 12        	inc	$12                     ; 0x2012 <bassNotes>
    1698: d0 02        	bne	$169c <printf+0x303>
    169a: e6 13        	inc	$13                     ; 0x2013 <bassNotes+0x1>
    169c: 64 18        	stz	$18                     ; 0x2018 <bassNotes+0x6>
    169e: 64 d6        	stz	$d6                     ; 0x20d6 <__heap_start+0x84>
    16a0: 64 d7        	stz	$d7                     ; 0x20d7 <__heap_start+0x85>
    16a2: 64 19        	stz	$19                     ; 0x2019 <bassNotes+0x7>
    16a4: a5 9a        	lda	$9a                     ; 0x209a <__heap_start+0x48>
    16a6: 29 ef        	and	#$ef
    16a8: 85 9a        	sta	$9a                     ; 0x209a <__heap_start+0x48>
    16aa: 85 ca        	sta	$ca                     ; 0x20ca <__heap_start+0x78>
    16ac: a2 00        	ldx	#$0
    16ae: 86 cb        	stx	$cb                     ; 0x20cb <__heap_start+0x79>
    16b0: b2 12        	lda	($12)                   ; 0x2012 <bassNotes>
    16b2: a6 19        	ldx	$19                     ; 0x2019 <bassNotes+0x7>
    16b4: 86 15        	stx	$15                     ; 0x2015 <bassNotes+0x3>
    16b6: a6 12        	ldx	$12                     ; 0x2012 <bassNotes>
    16b8: 86 9b        	stx	$9b                     ; 0x209b <__heap_start+0x49>
    16ba: a6 13        	ldx	$13                     ; 0x2013 <bassNotes+0x1>
    16bc: 86 9c        	stx	$9c                     ; 0x209c <__heap_start+0x4a>
    16be: e6 9b        	inc	$9b                     ; 0x209b <__heap_start+0x49>
    16c0: d0 02        	bne	$16c4 <printf+0x32b>
    16c2: e6 9c        	inc	$9c                     ; 0x209c <__heap_start+0x4a>
    16c4: 85 14        	sta	$14                     ; 0x2014 <bassNotes+0x2>
    16c6: 38           	sec
    16c7: e9 6c        	sbc	#$6c
    16c9: 50 02        	bvc	$16cd <printf+0x334>
    16cb: 49 80        	eor	#$80
    16cd: aa           	tax
    16ce: 10 1d        	bpl	$16ed <printf+0x354>
    16d0: a5 14        	lda	$14                     ; 0x2014 <bassNotes+0x2>
    16d2: c9 4c        	cmp	#$4c
    16d4: f0 27        	beq	$16fd <printf+0x364>
    16d6: c9 68        	cmp	#$68
    16d8: d0 03        	bne	$16dd <printf+0x344>
    16da: 4c 64 17     	jmp	$1764 <printf+0x3cb>
    16dd: a2 08        	ldx	#$8
    16df: c9 6a        	cmp	#$6a
    16e1: d0 2e        	bne	$1711 <printf+0x378>
    16e3: a5 9b        	lda	$9b                     ; 0x209b <__heap_start+0x49>
    16e5: 85 12        	sta	$12                     ; 0x2012 <bassNotes>
    16e7: a5 9c        	lda	$9c                     ; 0x209c <__heap_start+0x4a>
    16e9: 85 13        	sta	$13                     ; 0x2013 <bassNotes+0x1>
    16eb: 80 43        	bra	$1730 <printf+0x397>
    16ed: a6 14        	ldx	$14                     ; 0x2014 <bassNotes+0x2>
    16ef: e0 6c        	cpx	#$6c
    16f1: f0 23        	beq	$1716 <printf+0x37d>
    16f3: e0 74        	cpx	#$74
    16f5: f0 12        	beq	$1709 <printf+0x370>
    16f7: e0 7a        	cpx	#$7a
    16f9: f0 0e        	beq	$1709 <printf+0x370>
    16fb: 80 14        	bra	$1711 <printf+0x378>
    16fd: a5 9a        	lda	$9a                     ; 0x209a <__heap_start+0x48>
    16ff: 09 40        	ora	#$40
    1701: 85 9a        	sta	$9a                     ; 0x209a <__heap_start+0x48>
    1703: 85 ca        	sta	$ca                     ; 0x20ca <__heap_start+0x78>
    1705: a2 00        	ldx	#$0
    1707: 86 cb        	stx	$cb                     ; 0x20cb <__heap_start+0x79>
    1709: a6 9b        	ldx	$9b                     ; 0x209b <__heap_start+0x49>
    170b: 86 12        	stx	$12                     ; 0x2012 <bassNotes>
    170d: a6 9c        	ldx	$9c                     ; 0x209c <__heap_start+0x4a>
    170f: 86 13        	stx	$13                     ; 0x2013 <bassNotes+0x1>
    1711: a2 02        	ldx	#$2
    1713: 8a           	txa
    1714: 80 1c        	bra	$1732 <printf+0x399>
    1716: b1 12        	lda	($12),y                 ; 0x2012 <bassNotes>
    1718: a2 04        	ldx	#$4
    171a: c9 6c        	cmp	#$6c
    171c: f0 03        	beq	$1721 <printf+0x388>
    171e: 4c 63 1a     	jmp	$1a63 <printf+0x6ca>
    1721: a5 12        	lda	$12                     ; 0x2012 <bassNotes>
    1723: 18           	clc
    1724: 69 02        	adc	#$2
    1726: 85 12        	sta	$12                     ; 0x2012 <bassNotes>
    1728: a5 13        	lda	$13                     ; 0x2013 <bassNotes+0x1>
    172a: 69 00        	adc	#$0
    172c: 85 13        	sta	$13                     ; 0x2013 <bassNotes+0x1>
    172e: a2 08        	ldx	#$8
    1730: a9 08        	lda	#$8
    1732: 85 e0        	sta	$e0                     ; 0x20e0 <__heap_start+0x8e>
    1734: b2 12        	lda	($12)                   ; 0x2012 <bassNotes>
    1736: 5a           	phy
    1737: a4 12        	ldy	$12                     ; 0x2012 <bassNotes>
    1739: 84 9b        	sty	$9b                     ; 0x209b <__heap_start+0x49>
    173b: a4 13        	ldy	$13                     ; 0x2013 <bassNotes+0x1>
    173d: 84 9c        	sty	$9c                     ; 0x209c <__heap_start+0x4a>
    173f: 7a           	ply
    1740: 86 9d        	stx	$9d                     ; 0x209d <__heap_start+0x4b>
    1742: aa           	tax
    1743: 38           	sec
    1744: e9 63        	sbc	#$63
    1746: c9 16        	cmp	#$16
    1748: b0 39        	bcs	$1783 <printf+0x3ea>
    174a: 0a           	asl
    174b: aa           	tax
    174c: 7c b6 1f     	jmp	($1fb6,x)               ; 0x1fb6 <__set_v+0x21>
    174f: a6 15        	ldx	$15                     ; 0x2015 <bassNotes+0x3>
    1751: 86 de        	stx	$de                     ; 0x20de <__heap_start+0x8c>
    1753: a6 18        	ldx	$18                     ; 0x2018 <bassNotes+0x6>
    1755: 86 e3        	stx	$e3                     ; 0x20e3 <__heap_start+0x91>
    1757: a0 0a        	ldy	#$a
    1759: a2 0a        	ldx	#$a
    175b: 86 df        	stx	$df                     ; 0x20df <__heap_start+0x8d>
    175d: 84 c9        	sty	$c9                     ; 0x20c9 <__heap_start+0x77>
    175f: 64 a4        	stz	$a4                     ; 0x20a4 <__heap_start+0x52>
    1761: 4c 83 18     	jmp	$1883 <printf+0x4ea>
    1764: b1 12        	lda	($12),y                 ; 0x2012 <bassNotes>
    1766: a2 02        	ldx	#$2
    1768: c9 68        	cmp	#$68
    176a: f0 03        	beq	$176f <printf+0x3d6>
    176c: 4c 69 1a     	jmp	$1a69 <printf+0x6d0>
    176f: a5 12        	lda	$12                     ; 0x2012 <bassNotes>
    1771: 18           	clc
    1772: 69 02        	adc	#$2
    1774: 85 12        	sta	$12                     ; 0x2012 <bassNotes>
    1776: a5 13        	lda	$13                     ; 0x2013 <bassNotes+0x1>
    1778: 69 00        	adc	#$0
    177a: 85 13        	sta	$13                     ; 0x2013 <bassNotes+0x1>
    177c: a2 01        	ldx	#$1
    177e: 86 e0        	stx	$e0                     ; 0x20e0 <__heap_start+0x8e>
    1780: e8           	inx
    1781: 80 b1        	bra	$1734 <printf+0x39b>
    1783: e0 58        	cpx	#$58
    1785: f0 03        	beq	$178a <printf+0x3f1>
    1787: 4c 04 1f     	jmp	$1f04 <printf+0xb6b>
    178a: a6 15        	ldx	$15                     ; 0x2015 <bassNotes+0x3>
    178c: 86 de        	stx	$de                     ; 0x20de <__heap_start+0x8c>
    178e: a6 18        	ldx	$18                     ; 0x2018 <bassNotes+0x6>
    1790: 86 e3        	stx	$e3                     ; 0x20e3 <__heap_start+0x91>
    1792: a2 10        	ldx	#$10
    1794: 86 c9        	stx	$c9                     ; 0x20c9 <__heap_start+0x77>
    1796: a9 00        	lda	#$0
    1798: 09 01        	ora	#$1
    179a: a6 9a        	ldx	$9a                     ; 0x209a <__heap_start+0x48>
    179c: 80 29        	bra	$17c7 <printf+0x42e>
    179e: a6 15        	ldx	$15                     ; 0x2015 <bassNotes+0x3>
    17a0: 86 de        	stx	$de                     ; 0x20de <__heap_start+0x8c>
    17a2: a6 18        	ldx	$18                     ; 0x2018 <bassNotes+0x6>
    17a4: 86 e3        	stx	$e3                     ; 0x20e3 <__heap_start+0x91>
    17a6: a2 10        	ldx	#$10
    17a8: 86 c9        	stx	$c9                     ; 0x20c9 <__heap_start+0x77>
    17aa: a5 9a        	lda	$9a                     ; 0x209a <__heap_start+0x48>
    17ac: 09 84        	ora	#$84
    17ae: 80 10        	bra	$17c0 <printf+0x427>
    17b0: a6 15        	ldx	$15                     ; 0x2015 <bassNotes+0x3>
    17b2: 86 de        	stx	$de                     ; 0x20de <__heap_start+0x8c>
    17b4: a6 18        	ldx	$18                     ; 0x2018 <bassNotes+0x6>
    17b6: 86 e3        	stx	$e3                     ; 0x20e3 <__heap_start+0x91>
    17b8: a2 10        	ldx	#$10
    17ba: 86 c9        	stx	$c9                     ; 0x20c9 <__heap_start+0x77>
    17bc: a5 9a        	lda	$9a                     ; 0x209a <__heap_start+0x48>
    17be: 09 80        	ora	#$80
    17c0: aa           	tax
    17c1: a9 00        	lda	#$0
    17c3: 09 01        	ora	#$1
    17c5: 86 9a        	stx	$9a                     ; 0x209a <__heap_start+0x48>
    17c7: 86 ca        	stx	$ca                     ; 0x20ca <__heap_start+0x78>
    17c9: 85 a4        	sta	$a4                     ; 0x20a4 <__heap_start+0x52>
    17cb: 85 cb        	sta	$cb                     ; 0x20cb <__heap_start+0x79>
    17cd: a2 10        	ldx	#$10
    17cf: 86 df        	stx	$df                     ; 0x20df <__heap_start+0x8d>
    17d1: 4c 83 18     	jmp	$1883 <printf+0x4ea>
    17d4: a5 da        	lda	$da                     ; 0x20da <__heap_start+0x88>
    17d6: a6 db        	ldx	$db                     ; 0x20db <__heap_start+0x89>
    17d8: 85 12        	sta	$12                     ; 0x2012 <bassNotes>
    17da: 86 13        	stx	$13                     ; 0x2013 <bassNotes+0x1>
    17dc: 18           	clc
    17dd: 69 02        	adc	#$2
    17df: 85 14        	sta	$14                     ; 0x2014 <bassNotes+0x2>
    17e1: 8a           	txa
    17e2: 69 00        	adc	#$0
    17e4: a6 14        	ldx	$14                     ; 0x2014 <bassNotes+0x2>
    17e6: 86 da        	stx	$da                     ; 0x20da <__heap_start+0x88>
    17e8: 85 db        	sta	$db                     ; 0x20db <__heap_start+0x89>
    17ea: b2 12        	lda	($12)                   ; 0x2012 <bassNotes>
    17ec: aa           	tax
    17ed: b1 12        	lda	($12),y                 ; 0x2012 <bassNotes>
    17ef: 86 12        	stx	$12                     ; 0x2012 <bassNotes>
    17f1: 85 13        	sta	$13                     ; 0x2013 <bassNotes+0x1>
    17f3: a5 ce        	lda	$ce                     ; 0x20ce <__heap_start+0x7c>
    17f5: a6 cf        	ldx	$cf                     ; 0x20cf <__heap_start+0x7d>
    17f7: 92 12        	sta	($12)                   ; 0x2012 <bassNotes>
    17f9: 8a           	txa
    17fa: 91 12        	sta	($12),y                 ; 0x2012 <bassNotes>
    17fc: 4c 5c 18     	jmp	$185c <printf+0x4c3>
    17ff: a5 da        	lda	$da                     ; 0x20da <__heap_start+0x88>
    1801: a6 db        	ldx	$db                     ; 0x20db <__heap_start+0x89>
    1803: 85 12        	sta	$12                     ; 0x2012 <bassNotes>
    1805: 86 13        	stx	$13                     ; 0x2013 <bassNotes+0x1>
    1807: 18           	clc
    1808: 69 02        	adc	#$2
    180a: 85 14        	sta	$14                     ; 0x2014 <bassNotes+0x2>
    180c: 8a           	txa
    180d: 69 00        	adc	#$0
    180f: a6 14        	ldx	$14                     ; 0x2014 <bassNotes+0x2>
    1811: 86 da        	stx	$da                     ; 0x20da <__heap_start+0x88>
    1813: 85 db        	sta	$db                     ; 0x20db <__heap_start+0x89>
    1815: b2 12        	lda	($12)                   ; 0x2012 <bassNotes>
    1817: aa           	tax
    1818: b1 12        	lda	($12),y                 ; 0x2012 <bassNotes>
    181a: 86 12        	stx	$12                     ; 0x2012 <bassNotes>
    181c: 85 13        	sta	$13                     ; 0x2013 <bassNotes+0x1>
    181e: 80 2f        	bra	$184f <printf+0x4b6>
    1820: a6 15        	ldx	$15                     ; 0x2015 <bassNotes+0x3>
    1822: 86 de        	stx	$de                     ; 0x20de <__heap_start+0x8c>
    1824: a6 18        	ldx	$18                     ; 0x2018 <bassNotes+0x6>
    1826: 86 e3        	stx	$e3                     ; 0x20e3 <__heap_start+0x91>
    1828: a0 08        	ldy	#$8
    182a: a2 08        	ldx	#$8
    182c: 80 45        	bra	$1873 <printf+0x4da>
    182e: a5 da        	lda	$da                     ; 0x20da <__heap_start+0x88>
    1830: a6 db        	ldx	$db                     ; 0x20db <__heap_start+0x89>
    1832: 85 12        	sta	$12                     ; 0x2012 <bassNotes>
    1834: 86 13        	stx	$13                     ; 0x2013 <bassNotes+0x1>
    1836: 18           	clc
    1837: 69 02        	adc	#$2
    1839: a8           	tay
    183a: 8a           	txa
    183b: 69 00        	adc	#$0
    183d: 84 da        	sty	$da                     ; 0x20da <__heap_start+0x88>
    183f: 85 db        	sta	$db                     ; 0x20db <__heap_start+0x89>
    1841: b2 12        	lda	($12)                   ; 0x2012 <bassNotes>
    1843: 85 bc        	sta	$bc                     ; 0x20bc <__heap_start+0x6a>
    1845: 64 bd        	stz	$bd                     ; 0x20bd <__heap_start+0x6b>
    1847: a2 bc        	ldx	#$bc
    1849: 86 12        	stx	$12                     ; 0x2012 <bassNotes>
    184b: a2 00        	ldx	#$0
    184d: 86 13        	stx	$13                     ; 0x2013 <bassNotes+0x1>
    184f: a2 c9        	ldx	#$c9
    1851: 86 14        	stx	$14                     ; 0x2014 <bassNotes+0x2>
    1853: a2 00        	ldx	#$0
    1855: 86 15        	stx	$15                     ; 0x2015 <bassNotes+0x3>
    1857: 20 8c 12     	jsr	$128c <_ZN12_GLOBAL__N_112print_stringEPKcP6Status>
    185a: a0 01        	ldy	#$1
    185c: a2 00        	ldx	#$0
    185e: 86 9d        	stx	$9d                     ; 0x209d <__heap_start+0x4b>
    1860: a2 00        	ldx	#$0
    1862: 86 9e        	stx	$9e                     ; 0x209e <__heap_start+0x4c>
    1864: 4c ec 1e     	jmp	$1eec <printf+0xb53>
    1867: a6 15        	ldx	$15                     ; 0x2015 <bassNotes+0x3>
    1869: 86 de        	stx	$de                     ; 0x20de <__heap_start+0x8c>
    186b: a6 18        	ldx	$18                     ; 0x2018 <bassNotes+0x6>
    186d: 86 e3        	stx	$e3                     ; 0x20e3 <__heap_start+0x91>
    186f: a0 0a        	ldy	#$a
    1871: a2 0a        	ldx	#$a
    1873: 86 df        	stx	$df                     ; 0x20df <__heap_start+0x8d>
    1875: 84 c9        	sty	$c9                     ; 0x20c9 <__heap_start+0x77>
    1877: a9 00        	lda	#$0
    1879: 09 01        	ora	#$1
    187b: a6 9a        	ldx	$9a                     ; 0x209a <__heap_start+0x48>
    187d: 86 ca        	stx	$ca                     ; 0x20ca <__heap_start+0x78>
    187f: 85 a4        	sta	$a4                     ; 0x20a4 <__heap_start+0x52>
    1881: 85 cb        	sta	$cb                     ; 0x20cb <__heap_start+0x79>
    1883: a5 e0        	lda	$e0                     ; 0x20e0 <__heap_start+0x8e>
    1885: 85 be        	sta	$be                     ; 0x20be <__heap_start+0x6c>
    1887: a4 da        	ldy	$da                     ; 0x20da <__heap_start+0x88>
    1889: a6 db        	ldx	$db                     ; 0x20db <__heap_start+0x89>
    188b: 86 a2        	stx	$a2                     ; 0x20a2 <__heap_start+0x50>
    188d: 84 14        	sty	$14                     ; 0x2014 <bassNotes+0x2>
    188f: 84 99        	sty	$99                     ; 0x2099 <__heap_start+0x47>
    1891: 86 15        	stx	$15                     ; 0x2015 <bassNotes+0x3>
    1893: a6 e1        	ldx	$e1                     ; 0x20e1 <__heap_start+0x8f>
    1895: 86 12        	stx	$12                     ; 0x2012 <bassNotes>
    1897: a6 e2        	ldx	$e2                     ; 0x20e2 <__heap_start+0x90>
    1899: 86 13        	stx	$13                     ; 0x2013 <bassNotes+0x1>
    189b: a2 00        	ldx	#$0
    189d: 85 9e        	sta	$9e                     ; 0x209e <__heap_start+0x4c>
    189f: 20 49 1f     	jsr	$1f49 <memcpy>
    18a2: 18           	clc
    18a3: a5 99        	lda	$99                     ; 0x2099 <__heap_start+0x47>
    18a5: 65 9d        	adc	$9d                     ; 0x209d <__heap_start+0x4b>
    18a7: aa           	tax
    18a8: a5 a2        	lda	$a2                     ; 0x20a2 <__heap_start+0x50>
    18aa: 69 00        	adc	#$0
    18ac: 86 da        	stx	$da                     ; 0x20da <__heap_start+0x88>
    18ae: 85 db        	sta	$db                     ; 0x20db <__heap_start+0x89>
    18b0: a5 a4        	lda	$a4                     ; 0x20a4 <__heap_start+0x52>
    18b2: 29 01        	and	#$1
    18b4: b8           	clv
    18b5: f0 03        	beq	$18ba <printf+0x521>
    18b7: 4c 0e 19     	jmp	$190e <printf+0x575>
    18ba: a6 9e        	ldx	$9e                     ; 0x209e <__heap_start+0x4c>
    18bc: b5 be        	lda	$be,x                   ; 0x20be <__heap_start+0x6c>
    18be: aa           	tax
    18bf: a0 01        	ldy	#$1
    18c1: a5 a1        	lda	$a1                     ; 0x20a1 <__heap_start+0x4f>
    18c3: 85 1a        	sta	$1a                     ; 0x201a <bassNotes+0x8>
    18c5: a5 e3        	lda	$e3                     ; 0x20e3 <__heap_start+0x91>
    18c7: 85 a1        	sta	$a1                     ; 0x20a1 <__heap_start+0x4f>
    18c9: a9 00        	lda	#$0
    18cb: 85 9d        	sta	$9d                     ; 0x209d <__heap_start+0x4b>
    18cd: a9 00        	lda	#$0
    18cf: 85 9e        	sta	$9e                     ; 0x209e <__heap_start+0x4c>
    18d1: a5 de        	lda	$de                     ; 0x20de <__heap_start+0x8c>
    18d3: 85 a2        	sta	$a2                     ; 0x20a2 <__heap_start+0x50>
    18d5: 8a           	txa
    18d6: 10 4c        	bpl	$1924 <printf+0x58b>
    18d8: a2 00        	ldx	#$0
    18da: 64 12        	stz	$12                     ; 0x2012 <bassNotes>
    18dc: a9 00        	lda	#$0
    18de: 38           	sec
    18df: f5 bf        	sbc	$bf,x                   ; 0x20bf <__heap_start+0x6d>
    18e1: a0 00        	ldy	#$0
    18e3: b0 02        	bcs	$18e7 <printf+0x54e>
    18e5: a0 01        	ldy	#$1
    18e7: 38           	sec
    18e8: e5 12        	sbc	$12                     ; 0x2012 <bassNotes>
    18ea: 85 13        	sta	$13                     ; 0x2013 <bassNotes+0x1>
    18ec: 64 12        	stz	$12                     ; 0x2012 <bassNotes>
    18ee: b0 04        	bcs	$18f4 <printf+0x55b>
    18f0: a9 01        	lda	#$1
    18f2: 85 12        	sta	$12                     ; 0x2012 <bassNotes>
    18f4: 98           	tya
    18f5: 05 12        	ora	$12                     ; 0x2012 <bassNotes>
    18f7: 85 12        	sta	$12                     ; 0x2012 <bassNotes>
    18f9: a5 13        	lda	$13                     ; 0x2013 <bassNotes+0x1>
    18fb: 9d bf 00     	sta	$bf,x                   ; 0xbf <__zp_data_size+0x67>
    18fe: e8           	inx
    18ff: 86 13        	stx	$13                     ; 0x2013 <bassNotes+0x1>
    1901: a4 e0        	ldy	$e0                     ; 0x20e0 <__heap_start+0x8e>
    1903: c4 13        	cpy	$13                     ; 0x2013 <bassNotes+0x1>
    1905: d0 d5        	bne	$18dc <printf+0x543>
    1907: 2c 95 1f     	bit	$1f95                   ; 0x1f95 <__set_v>
    190a: a0 01        	ldy	#$1
    190c: 80 16        	bra	$1924 <printf+0x58b>
    190e: a0 01        	ldy	#$1
    1910: a6 a1        	ldx	$a1                     ; 0x20a1 <__heap_start+0x4f>
    1912: 86 1a        	stx	$1a                     ; 0x201a <bassNotes+0x8>
    1914: a6 e3        	ldx	$e3                     ; 0x20e3 <__heap_start+0x91>
    1916: 86 a1        	stx	$a1                     ; 0x20a1 <__heap_start+0x4f>
    1918: a2 00        	ldx	#$0
    191a: 86 9d        	stx	$9d                     ; 0x209d <__heap_start+0x4b>
    191c: a2 00        	ldx	#$0
    191e: 86 9e        	stx	$9e                     ; 0x209e <__heap_start+0x4c>
    1920: a6 de        	ldx	$de                     ; 0x20de <__heap_start+0x8c>
    1922: 86 a2        	stx	$a2                     ; 0x20a2 <__heap_start+0x50>
    1924: a2 01        	ldx	#$1
    1926: 70 02        	bvs	$192a <printf+0x591>
    1928: a2 00        	ldx	#$0
    192a: 86 16        	stx	$16                     ; 0x2016 <bassNotes+0x4>
    192c: a5 e0        	lda	$e0                     ; 0x20e0 <__heap_start+0x8e>
    192e: 0a           	asl
    192f: 0a           	asl
    1930: 0a           	asl
    1931: 85 12        	sta	$12                     ; 0x2012 <bassNotes>
    1933: a2 00        	ldx	#$0
    1935: 8a           	txa
    1936: 4c ea 19     	jmp	$19ea <printf+0x651>
    1939: da           	phx
    193a: 7a           	ply
    193b: c8           	iny
    193c: 9d a7 00     	sta	$a7,x                   ; 0xa7 <__zp_data_size+0x4f>
    193f: 5a           	phy
    1940: fa           	plx
    1941: c4 99        	cpy	$99                     ; 0x2099 <__heap_start+0x47>
    1943: f0 30        	beq	$1975 <printf+0x5dc>
    1945: b5 a7        	lda	$a7,x                   ; 0x20a7 <__heap_start+0x55>
    1947: 0a           	asl
    1948: a4 de        	ldy	$de                     ; 0x20de <__heap_start+0x8c>
    194a: f0 02        	beq	$194e <printf+0x5b5>
    194c: 09 01        	ora	#$1
    194e: a4 df        	ldy	$df                     ; 0x20df <__heap_start+0x8d>
    1950: 84 14        	sty	$14                     ; 0x2014 <bassNotes+0x2>
    1952: c5 14        	cmp	$14                     ; 0x2014 <bassNotes+0x2>
    1954: a0 01        	ldy	#$1
    1956: b0 02        	bcs	$195a <printf+0x5c1>
    1958: a0 00        	ldy	#$0
    195a: 84 de        	sty	$de                     ; 0x20de <__heap_start+0x8c>
    195c: 90 db        	bcc	$1939 <printf+0x5a0>
    195e: 38           	sec
    195f: e5 14        	sbc	$14                     ; 0x2014 <bassNotes+0x2>
    1961: 9d a7 00     	sta	$a7,x                   ; 0xa7 <__zp_data_size+0x4f>
    1964: e8           	inx
    1965: e4 99        	cpx	$99                     ; 0x2099 <__heap_start+0x47>
    1967: d0 dc        	bne	$1945 <printf+0x5ac>
    1969: a4 99        	ldy	$99                     ; 0x2099 <__heap_start+0x47>
    196b: a6 99        	ldx	$99                     ; 0x2099 <__heap_start+0x47>
    196d: e8           	inx
    196e: a9 01        	lda	#$1
    1970: 99 a7 00     	sta	$a7,y                   ; 0xa7 <__zp_data_size+0x4f>
    1973: 86 99        	stx	$99                     ; 0x2099 <__heap_start+0x47>
    1975: a6 e0        	ldx	$e0                     ; 0x20e0 <__heap_start+0x8e>
    1977: b5 be        	lda	$be,x                   ; 0x20be <__heap_start+0x6c>
    1979: aa           	tax
    197a: 30 0f        	bmi	$198b <printf+0x5f2>
    197c: a0 01        	ldy	#$1
    197e: 80 42        	bra	$19c2 <printf+0x629>
    1980: a6 e0        	ldx	$e0                     ; 0x20e0 <__heap_start+0x8e>
    1982: b5 be        	lda	$be,x                   ; 0x20be <__heap_start+0x6c>
    1984: aa           	tax
    1985: 64 99        	stz	$99                     ; 0x2099 <__heap_start+0x47>
    1987: 10 39        	bpl	$19c2 <printf+0x629>
    1989: 80 2a        	bra	$19b5 <printf+0x61c>
    198b: a5 99        	lda	$99                     ; 0x2099 <__heap_start+0x47>
    198d: f0 24        	beq	$19b3 <printf+0x61a>
    198f: a2 00        	ldx	#$0
    1991: a4 df        	ldy	$df                     ; 0x20df <__heap_start+0x8d>
    1993: 84 14        	sty	$14                     ; 0x2014 <bassNotes+0x2>
    1995: b5 a7        	lda	$a7,x                   ; 0x20a7 <__heap_start+0x55>
    1997: 1a           	inc
    1998: f6 a7        	inc	$a7,x                   ; 0x20a7 <__heap_start+0x55>
    199a: c5 14        	cmp	$14                     ; 0x2014 <bassNotes+0x2>
    199c: 90 de        	bcc	$197c <printf+0x5e3>
    199e: a4 14        	ldy	$14                     ; 0x2014 <bassNotes+0x2>
    19a0: 84 13        	sty	$13                     ; 0x2013 <bassNotes+0x1>
    19a2: 38           	sec
    19a3: e5 13        	sbc	$13                     ; 0x2013 <bassNotes+0x1>
    19a5: 9d a7 00     	sta	$a7,x                   ; 0xa7 <__zp_data_size+0x4f>
    19a8: e8           	inx
    19a9: 86 13        	stx	$13                     ; 0x2013 <bassNotes+0x1>
    19ab: a4 99        	ldy	$99                     ; 0x2099 <__heap_start+0x47>
    19ad: c4 13        	cpy	$13                     ; 0x2013 <bassNotes+0x1>
    19af: d0 e4        	bne	$1995 <printf+0x5fc>
    19b1: 80 02        	bra	$19b5 <printf+0x61c>
    19b3: 64 99        	stz	$99                     ; 0x2099 <__heap_start+0x47>
    19b5: a4 99        	ldy	$99                     ; 0x2099 <__heap_start+0x47>
    19b7: a6 99        	ldx	$99                     ; 0x2099 <__heap_start+0x47>
    19b9: e8           	inx
    19ba: a9 01        	lda	#$1
    19bc: 99 a7 00     	sta	$a7,y                   ; 0xa7 <__zp_data_size+0x4f>
    19bf: a8           	tay
    19c0: 86 99        	stx	$99                     ; 0x2099 <__heap_start+0x47>
    19c2: a2 01        	ldx	#$1
    19c4: 64 13        	stz	$13                     ; 0x2013 <bassNotes+0x1>
    19c6: a5 e0        	lda	$e0                     ; 0x20e0 <__heap_start+0x8e>
    19c8: 85 14        	sta	$14                     ; 0x2014 <bassNotes+0x2>
    19ca: b5 be        	lda	$be,x                   ; 0x20be <__heap_start+0x6c>
    19cc: 0a           	asl
    19cd: 64 15        	stz	$15                     ; 0x2015 <bassNotes+0x3>
    19cf: 26 15        	rol	$15                     ; 0x2015 <bassNotes+0x3>
    19d1: 05 13        	ora	$13                     ; 0x2013 <bassNotes+0x1>
    19d3: 9d be 00     	sta	$be,x                   ; 0xbe <__zp_data_size+0x66>
    19d6: e8           	inx
    19d7: c6 14        	dec	$14                     ; 0x2014 <bassNotes+0x2>
    19d9: a5 15        	lda	$15                     ; 0x2015 <bassNotes+0x3>
    19db: 85 13        	sta	$13                     ; 0x2013 <bassNotes+0x1>
    19dd: a5 14        	lda	$14                     ; 0x2014 <bassNotes+0x2>
    19df: d0 e9        	bne	$19ca <printf+0x631>
    19e1: a5 17        	lda	$17                     ; 0x2017 <bassNotes+0x5>
    19e3: 1a           	inc
    19e4: c5 12        	cmp	$12                     ; 0x2012 <bassNotes>
    19e6: a6 99        	ldx	$99                     ; 0x2099 <__heap_start+0x47>
    19e8: b0 13        	bcs	$19fd <printf+0x664>
    19ea: 85 17        	sta	$17                     ; 0x2017 <bassNotes+0x5>
    19ec: 8a           	txa
    19ed: d0 03        	bne	$19f2 <printf+0x659>
    19ef: 4c 80 19     	jmp	$1980 <printf+0x5e7>
    19f2: 86 99        	stx	$99                     ; 0x2099 <__heap_start+0x47>
    19f4: a2 00        	ldx	#$0
    19f6: 86 de        	stx	$de                     ; 0x20de <__heap_start+0x8c>
    19f8: a2 00        	ldx	#$0
    19fa: 4c 45 19     	jmp	$1945 <printf+0x5ac>
    19fd: a5 9a        	lda	$9a                     ; 0x209a <__heap_start+0x48>
    19ff: e6 a2        	inc	$a2                     ; 0x20a2 <__heap_start+0x50>
    1a01: c6 a2        	dec	$a2                     ; 0x20a2 <__heap_start+0x50>
    1a03: 10 08        	bpl	$1a0d <printf+0x674>
    1a05: a2 01        	ldx	#$1
    1a07: 64 a2        	stz	$a2                     ; 0x20a2 <__heap_start+0x50>
    1a09: 86 a1        	stx	$a1                     ; 0x20a1 <__heap_start+0x4f>
    1a0b: a6 99        	ldx	$99                     ; 0x2099 <__heap_start+0x47>
    1a0d: 29 04        	and	#$4
    1a0f: f0 2b        	beq	$1a3c <printf+0x6a3>
    1a11: a5 df        	lda	$df                     ; 0x20df <__heap_start+0x8d>
    1a13: c9 10        	cmp	#$10
    1a15: f0 14        	beq	$1a2b <printf+0x692>
    1a17: c9 08        	cmp	#$8
    1a19: d0 21        	bne	$1a3c <printf+0x6a3>
    1a1b: a2 00        	ldx	#$0
    1a1d: e4 a2        	cpx	$a2                     ; 0x20a2 <__heap_start+0x50>
    1a1f: f0 03        	beq	$1a24 <printf+0x68b>
    1a21: 4c 11 1f     	jmp	$1f11 <printf+0xb78>
    1a24: a6 99        	ldx	$99                     ; 0x2099 <__heap_start+0x47>
    1a26: e4 a1        	cpx	$a1                     ; 0x20a1 <__heap_start+0x4f>
    1a28: 4c 13 1f     	jmp	$1f13 <printf+0xb7a>
    1a2b: 8a           	txa
    1a2c: f0 0e        	beq	$1a3c <printf+0x6a3>
    1a2e: a5 9a        	lda	$9a                     ; 0x209a <__heap_start+0x48>
    1a30: 29 80        	and	#$80
    1a32: d0 03        	bne	$1a37 <printf+0x69e>
    1a34: 4c 2c 1f     	jmp	$1f2c <printf+0xb93>
    1a37: a2 78        	ldx	#$78
    1a39: 4c 2e 1f     	jmp	$1f2e <printf+0xb95>
    1a3c: a6 9a        	ldx	$9a                     ; 0x209a <__heap_start+0x48>
    1a3e: a9 2d        	lda	#$2d
    1a40: 85 e0        	sta	$e0                     ; 0x20e0 <__heap_start+0x8e>
    1a42: a5 16        	lda	$16                     ; 0x2016 <bassNotes+0x4>
    1a44: d0 32        	bne	$1a78 <printf+0x6df>
    1a46: 86 12        	stx	$12                     ; 0x2012 <bassNotes>
    1a48: 8a           	txa
    1a49: 29 02        	and	#$2
    1a4b: a2 2b        	ldx	#$2b
    1a4d: 86 e0        	stx	$e0                     ; 0x20e0 <__heap_start+0x8e>
    1a4f: aa           	tax
    1a50: d0 26        	bne	$1a78 <printf+0x6df>
    1a52: a5 12        	lda	$12                     ; 0x2012 <bassNotes>
    1a54: 29 08        	and	#$8
    1a56: d0 1c        	bne	$1a74 <printf+0x6db>
    1a58: a2 01        	ldx	#$1
    1a5a: 86 df        	stx	$df                     ; 0x20df <__heap_start+0x8d>
    1a5c: a9 00        	lda	#$0
    1a5e: aa           	tax
    1a5f: 86 de        	stx	$de                     ; 0x20de <__heap_start+0x8c>
    1a61: 80 1c        	bra	$1a7f <printf+0x6e6>
    1a63: 85 12        	sta	$12                     ; 0x2012 <bassNotes>
    1a65: a9 04        	lda	#$4
    1a67: 80 04        	bra	$1a6d <printf+0x6d4>
    1a69: 85 12        	sta	$12                     ; 0x2012 <bassNotes>
    1a6b: a9 02        	lda	#$2
    1a6d: 85 e0        	sta	$e0                     ; 0x20e0 <__heap_start+0x8e>
    1a6f: a5 12        	lda	$12                     ; 0x2012 <bassNotes>
    1a71: 4c 40 17     	jmp	$1740 <printf+0x3a7>
    1a74: a2 20        	ldx	#$20
    1a76: 86 e0        	stx	$e0                     ; 0x20e0 <__heap_start+0x8e>
    1a78: a2 00        	ldx	#$0
    1a7a: 86 df        	stx	$df                     ; 0x20df <__heap_start+0x8d>
    1a7c: 86 de        	stx	$de                     ; 0x20de <__heap_start+0x8c>
    1a7e: 98           	tya
    1a7f: a6 a2        	ldx	$a2                     ; 0x20a2 <__heap_start+0x50>
    1a81: d0 35        	bne	$1ab8 <printf+0x71f>
    1a83: a6 a1        	ldx	$a1                     ; 0x20a1 <__heap_start+0x4f>
    1a85: a4 99        	ldy	$99                     ; 0x2099 <__heap_start+0x47>
    1a87: 84 12        	sty	$12                     ; 0x2012 <bassNotes>
    1a89: e4 12        	cpx	$12                     ; 0x2012 <bassNotes>
    1a8b: a6 a1        	ldx	$a1                     ; 0x20a1 <__heap_start+0x4f>
    1a8d: 86 12        	stx	$12                     ; 0x2012 <bassNotes>
    1a8f: a6 a2        	ldx	$a2                     ; 0x20a2 <__heap_start+0x50>
    1a91: 86 13        	stx	$13                     ; 0x2013 <bassNotes+0x1>
    1a93: b0 04        	bcs	$1a99 <printf+0x700>
    1a95: 84 12        	sty	$12                     ; 0x2012 <bassNotes>
    1a97: 64 13        	stz	$13                     ; 0x2013 <bassNotes+0x1>
    1a99: 85 18        	sta	$18                     ; 0x2018 <bassNotes+0x6>
    1a9b: 18           	clc
    1a9c: 65 12        	adc	$12                     ; 0x2012 <bassNotes>
    1a9e: 85 16        	sta	$16                     ; 0x2016 <bassNotes+0x4>
    1aa0: 85 14        	sta	$14                     ; 0x2014 <bassNotes+0x2>
    1aa2: a5 13        	lda	$13                     ; 0x2013 <bassNotes+0x1>
    1aa4: 69 00        	adc	#$0
    1aa6: 85 15        	sta	$15                     ; 0x2015 <bassNotes+0x3>
    1aa8: c5 1a        	cmp	$1a                     ; 0x201a <bassNotes+0x8>
    1aaa: d0 1e        	bne	$1aca <printf+0x731>
    1aac: a6 1a        	ldx	$1a                     ; 0x201a <bassNotes+0x8>
    1aae: 86 17        	stx	$17                     ; 0x2017 <bassNotes+0x5>
    1ab0: a6 a3        	ldx	$a3                     ; 0x20a3 <__heap_start+0x51>
    1ab2: a5 16        	lda	$16                     ; 0x2016 <bassNotes+0x4>
    1ab4: c5 a3        	cmp	$a3                     ; 0x20a3 <__heap_start+0x51>
    1ab6: 80 1c        	bra	$1ad4 <printf+0x73b>
    1ab8: a6 a2        	ldx	$a2                     ; 0x20a2 <__heap_start+0x50>
    1aba: e0 00        	cpx	#$0
    1abc: a6 a1        	ldx	$a1                     ; 0x20a1 <__heap_start+0x4f>
    1abe: 86 12        	stx	$12                     ; 0x2012 <bassNotes>
    1ac0: a6 a2        	ldx	$a2                     ; 0x20a2 <__heap_start+0x50>
    1ac2: 86 13        	stx	$13                     ; 0x2013 <bassNotes+0x1>
    1ac4: a4 99        	ldy	$99                     ; 0x2099 <__heap_start+0x47>
    1ac6: 90 cd        	bcc	$1a95 <printf+0x6fc>
    1ac8: 80 cf        	bra	$1a99 <printf+0x700>
    1aca: a6 a3        	ldx	$a3                     ; 0x20a3 <__heap_start+0x51>
    1acc: 5a           	phy
    1acd: a4 1a        	ldy	$1a                     ; 0x201a <bassNotes+0x8>
    1acf: 84 17        	sty	$17                     ; 0x2017 <bassNotes+0x5>
    1ad1: 7a           	ply
    1ad2: c5 1a        	cmp	$1a                     ; 0x201a <bassNotes+0x8>
    1ad4: 64 a4        	stz	$a4                     ; 0x20a4 <__heap_start+0x52>
    1ad6: 64 a3        	stz	$a3                     ; 0x20a3 <__heap_start+0x51>
    1ad8: 90 03        	bcc	$1add <printf+0x744>
    1ada: 4c 70 1b     	jmp	$1b70 <printf+0x7d7>
    1add: a5 9a        	lda	$9a                     ; 0x209a <__heap_start+0x48>
    1adf: 29 11        	and	#$11
    1ae1: 86 16        	stx	$16                     ; 0x2016 <bassNotes+0x4>
    1ae3: f0 0f        	beq	$1af4 <printf+0x75b>
    1ae5: 8a           	txa
    1ae6: 38           	sec
    1ae7: e5 14        	sbc	$14                     ; 0x2014 <bassNotes+0x2>
    1ae9: 85 a4        	sta	$a4                     ; 0x20a4 <__heap_start+0x52>
    1aeb: a5 1a        	lda	$1a                     ; 0x201a <bassNotes+0x8>
    1aed: e5 15        	sbc	$15                     ; 0x2015 <bassNotes+0x3>
    1aef: 85 a3        	sta	$a3                     ; 0x20a3 <__heap_start+0x51>
    1af1: 4c 70 1b     	jmp	$1b70 <printf+0x7d7>
    1af4: a6 ce        	ldx	$ce                     ; 0x20ce <__heap_start+0x7c>
    1af6: 86 14        	stx	$14                     ; 0x2014 <bassNotes+0x2>
    1af8: 38           	sec
    1af9: a5 18        	lda	$18                     ; 0x2018 <bassNotes+0x6>
    1afb: e5 16        	sbc	$16                     ; 0x2016 <bassNotes+0x4>
    1afd: aa           	tax
    1afe: a9 00        	lda	#$0
    1b00: e5 17        	sbc	$17                     ; 0x2017 <bassNotes+0x5>
    1b02: a8           	tay
    1b03: 18           	clc
    1b04: 8a           	txa
    1b05: 65 12        	adc	$12                     ; 0x2012 <bassNotes>
    1b07: 85 9a        	sta	$9a                     ; 0x209a <__heap_start+0x48>
    1b09: 98           	tya
    1b0a: 65 13        	adc	$13                     ; 0x2013 <bassNotes+0x1>
    1b0c: a4 cf        	ldy	$cf                     ; 0x20cf <__heap_start+0x7d>
    1b0e: 80 47        	bra	$1b57 <printf+0x7be>
    1b10: c4 cd        	cpy	$cd                     ; 0x20cd <__heap_start+0x7b>
    1b12: b0 25        	bcs	$1b39 <printf+0x7a0>
    1b14: a6 d9        	ldx	$d9                     ; 0x20d9 <__heap_start+0x87>
    1b16: e4 9e        	cpx	$9e                     ; 0x209e <__heap_start+0x4c>
    1b18: d0 18        	bne	$1b32 <printf+0x799>
    1b1a: a6 d8        	ldx	$d8                     ; 0x20d8 <__heap_start+0x86>
    1b1c: e4 9d        	cpx	$9d                     ; 0x209d <__heap_start+0x4b>
    1b1e: d0 12        	bne	$1b32 <printf+0x799>
    1b20: 18           	clc
    1b21: a5 14        	lda	$14                     ; 0x2014 <bassNotes+0x2>
    1b23: 65 d2        	adc	$d2                     ; 0x20d2 <__heap_start+0x80>
    1b25: 85 12        	sta	$12                     ; 0x2012 <bassNotes>
    1b27: 98           	tya
    1b28: 65 d3        	adc	$d3                     ; 0x20d3 <__heap_start+0x81>
    1b2a: 85 13        	sta	$13                     ; 0x2013 <bassNotes+0x1>
    1b2c: a9 20        	lda	#$20
    1b2e: 92 12        	sta	($12)                   ; 0x2012 <bassNotes>
    1b30: 80 05        	bra	$1b37 <printf+0x79e>
    1b32: a9 20        	lda	#$20
    1b34: 20 fc 0f     	jsr	$ffc <__putchar>
    1b37: a5 a3        	lda	$a3                     ; 0x20a3 <__heap_start+0x51>
    1b39: a6 ce        	ldx	$ce                     ; 0x20ce <__heap_start+0x7c>
    1b3b: a4 cf        	ldy	$cf                     ; 0x20cf <__heap_start+0x7d>
    1b3d: e8           	inx
    1b3e: d0 01        	bne	$1b41 <printf+0x7a8>
    1b40: c8           	iny
    1b41: 86 14        	stx	$14                     ; 0x2014 <bassNotes+0x2>
    1b43: 86 ce        	stx	$ce                     ; 0x20ce <__heap_start+0x7c>
    1b45: 84 cf        	sty	$cf                     ; 0x20cf <__heap_start+0x7d>
    1b47: a6 9a        	ldx	$9a                     ; 0x209a <__heap_start+0x48>
    1b49: e8           	inx
    1b4a: d0 01        	bne	$1b4d <printf+0x7b4>
    1b4c: 1a           	inc
    1b4d: 86 9a        	stx	$9a                     ; 0x209a <__heap_start+0x48>
    1b4f: c9 00        	cmp	#$0
    1b51: d0 04        	bne	$1b57 <printf+0x7be>
    1b53: e0 00        	cpx	#$0
    1b55: f0 13        	beq	$1b6a <printf+0x7d1>
    1b57: 85 a3        	sta	$a3                     ; 0x20a3 <__heap_start+0x51>
    1b59: c4 cd        	cpy	$cd                     ; 0x20cd <__heap_start+0x7b>
    1b5b: d0 b3        	bne	$1b10 <printf+0x777>
    1b5d: a6 cc        	ldx	$cc                     ; 0x20cc <__heap_start+0x7a>
    1b5f: 86 12        	stx	$12                     ; 0x2012 <bassNotes>
    1b61: a6 14        	ldx	$14                     ; 0x2014 <bassNotes+0x2>
    1b63: e4 12        	cpx	$12                     ; 0x2012 <bassNotes>
    1b65: b0 d2        	bcs	$1b39 <printf+0x7a0>
    1b67: 4c 14 1b     	jmp	$1b14 <printf+0x77b>
    1b6a: 64 a4        	stz	$a4                     ; 0x20a4 <__heap_start+0x52>
    1b6c: 64 a3        	stz	$a3                     ; 0x20a3 <__heap_start+0x51>
    1b6e: a4 99        	ldy	$99                     ; 0x2099 <__heap_start+0x47>
    1b70: a6 df        	ldx	$df                     ; 0x20df <__heap_start+0x8d>
    1b72: d0 4d        	bne	$1bc1 <printf+0x828>
    1b74: a6 ce        	ldx	$ce                     ; 0x20ce <__heap_start+0x7c>
    1b76: a5 cf        	lda	$cf                     ; 0x20cf <__heap_start+0x7d>
    1b78: c5 cd        	cmp	$cd                     ; 0x20cd <__heap_start+0x7b>
    1b7a: d0 10        	bne	$1b8c <printf+0x7f3>
    1b7c: 86 13        	stx	$13                     ; 0x2013 <bassNotes+0x1>
    1b7e: a6 cc        	ldx	$cc                     ; 0x20cc <__heap_start+0x7a>
    1b80: 86 12        	stx	$12                     ; 0x2012 <bassNotes>
    1b82: a4 99        	ldy	$99                     ; 0x2099 <__heap_start+0x47>
    1b84: a6 13        	ldx	$13                     ; 0x2013 <bassNotes+0x1>
    1b86: e4 12        	cpx	$12                     ; 0x2012 <bassNotes>
    1b88: 90 08        	bcc	$1b92 <printf+0x7f9>
    1b8a: 80 2f        	bra	$1bbb <printf+0x822>
    1b8c: 86 13        	stx	$13                     ; 0x2013 <bassNotes+0x1>
    1b8e: c5 cd        	cmp	$cd                     ; 0x20cd <__heap_start+0x7b>
    1b90: b0 29        	bcs	$1bbb <printf+0x822>
    1b92: a6 d9        	ldx	$d9                     ; 0x20d9 <__heap_start+0x87>
    1b94: e4 9e        	cpx	$9e                     ; 0x209e <__heap_start+0x4c>
    1b96: d0 1c        	bne	$1bb4 <printf+0x81b>
    1b98: a6 d8        	ldx	$d8                     ; 0x20d8 <__heap_start+0x86>
    1b9a: e4 9d        	cpx	$9d                     ; 0x209d <__heap_start+0x4b>
    1b9c: d0 16        	bne	$1bb4 <printf+0x81b>
    1b9e: 18           	clc
    1b9f: 85 12        	sta	$12                     ; 0x2012 <bassNotes>
    1ba1: a5 13        	lda	$13                     ; 0x2013 <bassNotes+0x1>
    1ba3: 65 d2        	adc	$d2                     ; 0x20d2 <__heap_start+0x80>
    1ba5: aa           	tax
    1ba6: a5 12        	lda	$12                     ; 0x2012 <bassNotes>
    1ba8: 65 d3        	adc	$d3                     ; 0x20d3 <__heap_start+0x81>
    1baa: 86 12        	stx	$12                     ; 0x2012 <bassNotes>
    1bac: 85 13        	sta	$13                     ; 0x2013 <bassNotes+0x1>
    1bae: a5 e0        	lda	$e0                     ; 0x20e0 <__heap_start+0x8e>
    1bb0: 92 12        	sta	($12)                   ; 0x2012 <bassNotes>
    1bb2: 80 05        	bra	$1bb9 <printf+0x820>
    1bb4: a5 e0        	lda	$e0                     ; 0x20e0 <__heap_start+0x8e>
    1bb6: 20 fc 0f     	jsr	$ffc <__putchar>
    1bb9: a4 99        	ldy	$99                     ; 0x2099 <__heap_start+0x47>
    1bbb: e6 ce        	inc	$ce                     ; 0x20ce <__heap_start+0x7c>
    1bbd: d0 02        	bne	$1bc1 <printf+0x828>
    1bbf: e6 cf        	inc	$cf                     ; 0x20cf <__heap_start+0x7d>
    1bc1: a6 de        	ldx	$de                     ; 0x20de <__heap_start+0x8c>
    1bc3: f0 4d        	beq	$1c12 <printf+0x879>
    1bc5: a6 ce        	ldx	$ce                     ; 0x20ce <__heap_start+0x7c>
    1bc7: a5 cf        	lda	$cf                     ; 0x20cf <__heap_start+0x7d>
    1bc9: c5 cd        	cmp	$cd                     ; 0x20cd <__heap_start+0x7b>
    1bcb: d0 10        	bne	$1bdd <printf+0x844>
    1bcd: 86 13        	stx	$13                     ; 0x2013 <bassNotes+0x1>
    1bcf: a6 cc        	ldx	$cc                     ; 0x20cc <__heap_start+0x7a>
    1bd1: 86 12        	stx	$12                     ; 0x2012 <bassNotes>
    1bd3: a4 99        	ldy	$99                     ; 0x2099 <__heap_start+0x47>
    1bd5: a6 13        	ldx	$13                     ; 0x2013 <bassNotes+0x1>
    1bd7: e4 12        	cpx	$12                     ; 0x2012 <bassNotes>
    1bd9: 90 08        	bcc	$1be3 <printf+0x84a>
    1bdb: 80 2f        	bra	$1c0c <printf+0x873>
    1bdd: 86 13        	stx	$13                     ; 0x2013 <bassNotes+0x1>
    1bdf: c5 cd        	cmp	$cd                     ; 0x20cd <__heap_start+0x7b>
    1be1: b0 29        	bcs	$1c0c <printf+0x873>
    1be3: a6 d9        	ldx	$d9                     ; 0x20d9 <__heap_start+0x87>
    1be5: e4 9e        	cpx	$9e                     ; 0x209e <__heap_start+0x4c>
    1be7: d0 1c        	bne	$1c05 <printf+0x86c>
    1be9: a6 d8        	ldx	$d8                     ; 0x20d8 <__heap_start+0x86>
    1beb: e4 9d        	cpx	$9d                     ; 0x209d <__heap_start+0x4b>
    1bed: d0 16        	bne	$1c05 <printf+0x86c>
    1bef: 18           	clc
    1bf0: 85 12        	sta	$12                     ; 0x2012 <bassNotes>
    1bf2: a5 13        	lda	$13                     ; 0x2013 <bassNotes+0x1>
    1bf4: 65 d2        	adc	$d2                     ; 0x20d2 <__heap_start+0x80>
    1bf6: aa           	tax
    1bf7: a5 12        	lda	$12                     ; 0x2012 <bassNotes>
    1bf9: 65 d3        	adc	$d3                     ; 0x20d3 <__heap_start+0x81>
    1bfb: 86 12        	stx	$12                     ; 0x2012 <bassNotes>
    1bfd: 85 13        	sta	$13                     ; 0x2013 <bassNotes+0x1>
    1bff: a5 e3        	lda	$e3                     ; 0x20e3 <__heap_start+0x91>
    1c01: 92 12        	sta	($12)                   ; 0x2012 <bassNotes>
    1c03: 80 05        	bra	$1c0a <printf+0x871>
    1c05: a5 e3        	lda	$e3                     ; 0x20e3 <__heap_start+0x91>
    1c07: 20 fc 0f     	jsr	$ffc <__putchar>
    1c0a: a4 99        	ldy	$99                     ; 0x2099 <__heap_start+0x47>
    1c0c: e6 ce        	inc	$ce                     ; 0x20ce <__heap_start+0x7c>
    1c0e: d0 02        	bne	$1c12 <printf+0x879>
    1c10: e6 cf        	inc	$cf                     ; 0x20cf <__heap_start+0x7d>
    1c12: a9 10        	lda	#$10
    1c14: 25 ca        	and	$ca                     ; 0x20ca <__heap_start+0x78>
    1c16: d0 03        	bne	$1c1b <printf+0x882>
    1c18: 4c a3 1c     	jmp	$1ca3 <printf+0x90a>
    1c1b: a5 ca        	lda	$ca                     ; 0x20ca <__heap_start+0x78>
    1c1d: 29 01        	and	#$1
    1c1f: 29 01        	and	#$1
    1c21: f0 03        	beq	$1c26 <printf+0x88d>
    1c23: 4c a3 1c     	jmp	$1ca3 <printf+0x90a>
    1c26: a6 a4        	ldx	$a4                     ; 0x20a4 <__heap_start+0x52>
    1c28: a5 a3        	lda	$a3                     ; 0x20a3 <__heap_start+0x51>
    1c2a: d0 06        	bne	$1c32 <printf+0x899>
    1c2c: 8a           	txa
    1c2d: d0 03        	bne	$1c32 <printf+0x899>
    1c2f: 4c 41 1f     	jmp	$1f41 <printf+0xba8>
    1c32: a6 ce        	ldx	$ce                     ; 0x20ce <__heap_start+0x7c>
    1c34: 86 13        	stx	$13                     ; 0x2013 <bassNotes+0x1>
    1c36: a5 cf        	lda	$cf                     ; 0x20cf <__heap_start+0x7d>
    1c38: 80 4f        	bra	$1c89 <printf+0x8f0>
    1c3a: c5 cd        	cmp	$cd                     ; 0x20cd <__heap_start+0x7b>
    1c3c: b0 24        	bcs	$1c62 <printf+0x8c9>
    1c3e: a6 d9        	ldx	$d9                     ; 0x20d9 <__heap_start+0x87>
    1c40: e4 9e        	cpx	$9e                     ; 0x209e <__heap_start+0x4c>
    1c42: d0 19        	bne	$1c5d <printf+0x8c4>
    1c44: a6 d8        	ldx	$d8                     ; 0x20d8 <__heap_start+0x86>
    1c46: e4 9d        	cpx	$9d                     ; 0x209d <__heap_start+0x4b>
    1c48: d0 13        	bne	$1c5d <printf+0x8c4>
    1c4a: 18           	clc
    1c4b: aa           	tax
    1c4c: a5 13        	lda	$13                     ; 0x2013 <bassNotes+0x1>
    1c4e: 65 d2        	adc	$d2                     ; 0x20d2 <__heap_start+0x80>
    1c50: 85 12        	sta	$12                     ; 0x2012 <bassNotes>
    1c52: 8a           	txa
    1c53: 65 d3        	adc	$d3                     ; 0x20d3 <__heap_start+0x81>
    1c55: 85 13        	sta	$13                     ; 0x2013 <bassNotes+0x1>
    1c57: a9 30        	lda	#$30
    1c59: 92 12        	sta	($12)                   ; 0x2012 <bassNotes>
    1c5b: 80 05        	bra	$1c62 <printf+0x8c9>
    1c5d: a9 30        	lda	#$30
    1c5f: 20 fc 0f     	jsr	$ffc <__putchar>
    1c62: a6 ce        	ldx	$ce                     ; 0x20ce <__heap_start+0x7c>
    1c64: a5 cf        	lda	$cf                     ; 0x20cf <__heap_start+0x7d>
    1c66: e8           	inx
    1c67: d0 01        	bne	$1c6a <printf+0x8d1>
    1c69: 1a           	inc
    1c6a: 86 13        	stx	$13                     ; 0x2013 <bassNotes+0x1>
    1c6c: 86 ce        	stx	$ce                     ; 0x20ce <__heap_start+0x7c>
    1c6e: 85 cf        	sta	$cf                     ; 0x20cf <__heap_start+0x7d>
    1c70: a4 a4        	ldy	$a4                     ; 0x20a4 <__heap_start+0x52>
    1c72: a6 a3        	ldx	$a3                     ; 0x20a3 <__heap_start+0x51>
    1c74: 86 12        	stx	$12                     ; 0x2012 <bassNotes>
    1c76: 88           	dey
    1c77: c0 ff        	cpy	#$ff
    1c79: d0 02        	bne	$1c7d <printf+0x8e4>
    1c7b: c6 12        	dec	$12                     ; 0x2012 <bassNotes>
    1c7d: 84 a4        	sty	$a4                     ; 0x20a4 <__heap_start+0x52>
    1c7f: a6 12        	ldx	$12                     ; 0x2012 <bassNotes>
    1c81: 86 a3        	stx	$a3                     ; 0x20a3 <__heap_start+0x51>
    1c83: d0 04        	bne	$1c89 <printf+0x8f0>
    1c85: c0 00        	cpy	#$0
    1c87: f0 14        	beq	$1c9d <printf+0x904>
    1c89: c5 cd        	cmp	$cd                     ; 0x20cd <__heap_start+0x7b>
    1c8b: f0 03        	beq	$1c90 <printf+0x8f7>
    1c8d: 4c 3a 1c     	jmp	$1c3a <printf+0x8a1>
    1c90: a6 cc        	ldx	$cc                     ; 0x20cc <__heap_start+0x7a>
    1c92: 86 12        	stx	$12                     ; 0x2012 <bassNotes>
    1c94: a6 13        	ldx	$13                     ; 0x2013 <bassNotes+0x1>
    1c96: e4 12        	cpx	$12                     ; 0x2012 <bassNotes>
    1c98: b0 c8        	bcs	$1c62 <printf+0x8c9>
    1c9a: 4c 3e 1c     	jmp	$1c3e <printf+0x8a5>
    1c9d: 64 a4        	stz	$a4                     ; 0x20a4 <__heap_start+0x52>
    1c9f: 64 a3        	stz	$a3                     ; 0x20a3 <__heap_start+0x51>
    1ca1: a4 99        	ldy	$99                     ; 0x2099 <__heap_start+0x47>
    1ca3: a2 00        	ldx	#$0
    1ca5: e4 a2        	cpx	$a2                     ; 0x20a2 <__heap_start+0x50>
    1ca7: d0 07        	bne	$1cb0 <printf+0x917>
    1ca9: c4 a1        	cpy	$a1                     ; 0x20a1 <__heap_start+0x4f>
    1cab: 90 0a        	bcc	$1cb7 <printf+0x91e>
    1cad: 4c 25 1d     	jmp	$1d25 <printf+0x98c>
    1cb0: e4 a2        	cpx	$a2                     ; 0x20a2 <__heap_start+0x50>
    1cb2: 90 03        	bcc	$1cb7 <printf+0x91e>
    1cb4: 4c 25 1d     	jmp	$1d25 <printf+0x98c>
    1cb7: a6 ce        	ldx	$ce                     ; 0x20ce <__heap_start+0x7c>
    1cb9: 86 13        	stx	$13                     ; 0x2013 <bassNotes+0x1>
    1cbb: a5 cf        	lda	$cf                     ; 0x20cf <__heap_start+0x7d>
    1cbd: a2 ff        	ldx	#$ff
    1cbf: c6 a1        	dec	$a1                     ; 0x20a1 <__heap_start+0x4f>
    1cc1: e4 a1        	cpx	$a1                     ; 0x20a1 <__heap_start+0x4f>
    1cc3: d0 02        	bne	$1cc7 <printf+0x92e>
    1cc5: c6 a2        	dec	$a2                     ; 0x20a2 <__heap_start+0x50>
    1cc7: c5 cd        	cmp	$cd                     ; 0x20cd <__heap_start+0x7b>
    1cc9: d0 0c        	bne	$1cd7 <printf+0x93e>
    1ccb: a6 cc        	ldx	$cc                     ; 0x20cc <__heap_start+0x7a>
    1ccd: 86 12        	stx	$12                     ; 0x2012 <bassNotes>
    1ccf: a6 13        	ldx	$13                     ; 0x2013 <bassNotes+0x1>
    1cd1: e4 12        	cpx	$12                     ; 0x2012 <bassNotes>
    1cd3: 90 06        	bcc	$1cdb <printf+0x942>
    1cd5: 80 28        	bra	$1cff <printf+0x966>
    1cd7: c5 cd        	cmp	$cd                     ; 0x20cd <__heap_start+0x7b>
    1cd9: b0 24        	bcs	$1cff <printf+0x966>
    1cdb: a6 d9        	ldx	$d9                     ; 0x20d9 <__heap_start+0x87>
    1cdd: e4 9e        	cpx	$9e                     ; 0x209e <__heap_start+0x4c>
    1cdf: d0 19        	bne	$1cfa <printf+0x961>
    1ce1: a6 d8        	ldx	$d8                     ; 0x20d8 <__heap_start+0x86>
    1ce3: e4 9d        	cpx	$9d                     ; 0x209d <__heap_start+0x4b>
    1ce5: d0 13        	bne	$1cfa <printf+0x961>
    1ce7: 18           	clc
    1ce8: aa           	tax
    1ce9: a5 13        	lda	$13                     ; 0x2013 <bassNotes+0x1>
    1ceb: 65 d2        	adc	$d2                     ; 0x20d2 <__heap_start+0x80>
    1ced: 85 12        	sta	$12                     ; 0x2012 <bassNotes>
    1cef: 8a           	txa
    1cf0: 65 d3        	adc	$d3                     ; 0x20d3 <__heap_start+0x81>
    1cf2: 85 13        	sta	$13                     ; 0x2013 <bassNotes+0x1>
    1cf4: a9 30        	lda	#$30
    1cf6: 92 12        	sta	($12)                   ; 0x2012 <bassNotes>
    1cf8: 80 05        	bra	$1cff <printf+0x966>
    1cfa: a9 30        	lda	#$30
    1cfc: 20 fc 0f     	jsr	$ffc <__putchar>
    1cff: a6 ce        	ldx	$ce                     ; 0x20ce <__heap_start+0x7c>
    1d01: a5 cf        	lda	$cf                     ; 0x20cf <__heap_start+0x7d>
    1d03: e8           	inx
    1d04: d0 01        	bne	$1d07 <printf+0x96e>
    1d06: 1a           	inc
    1d07: 86 13        	stx	$13                     ; 0x2013 <bassNotes+0x1>
    1d09: 86 ce        	stx	$ce                     ; 0x20ce <__heap_start+0x7c>
    1d0b: 85 cf        	sta	$cf                     ; 0x20cf <__heap_start+0x7d>
    1d0d: a2 00        	ldx	#$0
    1d0f: e4 a2        	cpx	$a2                     ; 0x20a2 <__heap_start+0x50>
    1d11: d0 09        	bne	$1d1c <printf+0x983>
    1d13: a4 99        	ldy	$99                     ; 0x2099 <__heap_start+0x47>
    1d15: c4 a1        	cpy	$a1                     ; 0x20a1 <__heap_start+0x4f>
    1d17: b0 0c        	bcs	$1d25 <printf+0x98c>
    1d19: 4c bd 1c     	jmp	$1cbd <printf+0x924>
    1d1c: e4 a2        	cpx	$a2                     ; 0x20a2 <__heap_start+0x50>
    1d1e: a4 99        	ldy	$99                     ; 0x2099 <__heap_start+0x47>
    1d20: b0 03        	bcs	$1d25 <printf+0x98c>
    1d22: 4c bd 1c     	jmp	$1cbd <printf+0x924>
    1d25: 98           	tya
    1d26: d0 03        	bne	$1d2b <printf+0x992>
    1d28: 4c 1a 1e     	jmp	$1e1a <printf+0xa81>
    1d2b: 88           	dey
    1d2c: d0 03        	bne	$1d31 <printf+0x998>
    1d2e: 4c b9 1d     	jmp	$1db9 <printf+0xa20>
    1d31: 84 a1        	sty	$a1                     ; 0x20a1 <__heap_start+0x4f>
    1d33: a6 e4        	ldx	$e4                     ; 0x20e4 <__heap_start+0x92>
    1d35: 8a           	txa
    1d36: 18           	clc
    1d37: 65 a1        	adc	$a1                     ; 0x20a1 <__heap_start+0x4f>
    1d39: 85 99        	sta	$99                     ; 0x2099 <__heap_start+0x47>
    1d3b: a5 e5        	lda	$e5                     ; 0x20e5 <__heap_start+0x93>
    1d3d: 69 00        	adc	#$0
    1d3f: 85 9a        	sta	$9a                     ; 0x209a <__heap_start+0x48>
    1d41: 4c ab 1d     	jmp	$1dab <printf+0xa12>
    1d44: a8           	tay
    1d45: a9 80        	lda	#$80
    1d47: 25 ca        	and	$ca                     ; 0x20ca <__heap_start+0x78>
    1d49: f0 04        	beq	$1d4f <printf+0x9b6>
    1d4b: a2 61        	ldx	#$61
    1d4d: 80 02        	bra	$1d51 <printf+0x9b8>
    1d4f: a2 41        	ldx	#$41
    1d51: 86 12        	stx	$12                     ; 0x2012 <bassNotes>
    1d53: 18           	clc
    1d54: 98           	tya
    1d55: 65 12        	adc	$12                     ; 0x2012 <bassNotes>
    1d57: 18           	clc
    1d58: 69 f6        	adc	#$f6
    1d5a: a4 ce        	ldy	$ce                     ; 0x20ce <__heap_start+0x7c>
    1d5c: a6 cf        	ldx	$cf                     ; 0x20cf <__heap_start+0x7d>
    1d5e: e4 cd        	cpx	$cd                     ; 0x20cd <__heap_start+0x7b>
    1d60: d0 0c        	bne	$1d6e <printf+0x9d5>
    1d62: 86 14        	stx	$14                     ; 0x2014 <bassNotes+0x2>
    1d64: a6 cc        	ldx	$cc                     ; 0x20cc <__heap_start+0x7a>
    1d66: 86 12        	stx	$12                     ; 0x2012 <bassNotes>
    1d68: c4 12        	cpy	$12                     ; 0x2012 <bassNotes>
    1d6a: 90 08        	bcc	$1d74 <printf+0x9db>
    1d6c: 80 27        	bra	$1d95 <printf+0x9fc>
    1d6e: 86 14        	stx	$14                     ; 0x2014 <bassNotes+0x2>
    1d70: e4 cd        	cpx	$cd                     ; 0x20cd <__heap_start+0x7b>
    1d72: b0 21        	bcs	$1d95 <printf+0x9fc>
    1d74: a6 d9        	ldx	$d9                     ; 0x20d9 <__heap_start+0x87>
    1d76: e4 9e        	cpx	$9e                     ; 0x209e <__heap_start+0x4c>
    1d78: d0 18        	bne	$1d92 <printf+0x9f9>
    1d7a: a6 d8        	ldx	$d8                     ; 0x20d8 <__heap_start+0x86>
    1d7c: e4 9d        	cpx	$9d                     ; 0x209d <__heap_start+0x4b>
    1d7e: d0 12        	bne	$1d92 <printf+0x9f9>
    1d80: 18           	clc
    1d81: aa           	tax
    1d82: 98           	tya
    1d83: 65 d2        	adc	$d2                     ; 0x20d2 <__heap_start+0x80>
    1d85: 85 12        	sta	$12                     ; 0x2012 <bassNotes>
    1d87: a5 14        	lda	$14                     ; 0x2014 <bassNotes+0x2>
    1d89: 65 d3        	adc	$d3                     ; 0x20d3 <__heap_start+0x81>
    1d8b: 85 13        	sta	$13                     ; 0x2013 <bassNotes+0x1>
    1d8d: 8a           	txa
    1d8e: 92 12        	sta	($12)                   ; 0x2012 <bassNotes>
    1d90: 80 03        	bra	$1d95 <printf+0x9fc>
    1d92: 20 fc 0f     	jsr	$ffc <__putchar>
    1d95: e6 ce        	inc	$ce                     ; 0x20ce <__heap_start+0x7c>
    1d97: d0 02        	bne	$1d9b <printf+0xa02>
    1d99: e6 cf        	inc	$cf                     ; 0x20cf <__heap_start+0x7d>
    1d9b: c6 a1        	dec	$a1                     ; 0x20a1 <__heap_start+0x4f>
    1d9d: a2 ff        	ldx	#$ff
    1d9f: c6 99        	dec	$99                     ; 0x2099 <__heap_start+0x47>
    1da1: e4 99        	cpx	$99                     ; 0x2099 <__heap_start+0x47>
    1da3: d0 02        	bne	$1da7 <printf+0xa0e>
    1da5: c6 9a        	dec	$9a                     ; 0x209a <__heap_start+0x48>
    1da7: a5 a1        	lda	$a1                     ; 0x20a1 <__heap_start+0x4f>
    1da9: f0 0e        	beq	$1db9 <printf+0xa20>
    1dab: b2 99        	lda	($99)                   ; 0x2099 <__heap_start+0x47>
    1dad: c9 0a        	cmp	#$a
    1daf: 90 03        	bcc	$1db4 <printf+0xa1b>
    1db1: 4c 44 1d     	jmp	$1d44 <printf+0x9ab>
    1db4: 09 30        	ora	#$30
    1db6: 4c 5a 1d     	jmp	$1d5a <printf+0x9c1>
    1db9: a5 a7        	lda	$a7                     ; 0x20a7 <__heap_start+0x55>
    1dbb: c9 0a        	cmp	#$a
    1dbd: b0 04        	bcs	$1dc3 <printf+0xa2a>
    1dbf: 09 30        	ora	#$30
    1dc1: 80 16        	bra	$1dd9 <printf+0xa40>
    1dc3: a8           	tay
    1dc4: a9 80        	lda	#$80
    1dc6: 25 ca        	and	$ca                     ; 0x20ca <__heap_start+0x78>
    1dc8: f0 04        	beq	$1dce <printf+0xa35>
    1dca: a2 61        	ldx	#$61
    1dcc: 80 02        	bra	$1dd0 <printf+0xa37>
    1dce: a2 41        	ldx	#$41
    1dd0: 86 12        	stx	$12                     ; 0x2012 <bassNotes>
    1dd2: 18           	clc
    1dd3: 98           	tya
    1dd4: 65 12        	adc	$12                     ; 0x2012 <bassNotes>
    1dd6: 18           	clc
    1dd7: 69 f6        	adc	#$f6
    1dd9: a4 ce        	ldy	$ce                     ; 0x20ce <__heap_start+0x7c>
    1ddb: a6 cf        	ldx	$cf                     ; 0x20cf <__heap_start+0x7d>
    1ddd: e4 cd        	cpx	$cd                     ; 0x20cd <__heap_start+0x7b>
    1ddf: d0 0c        	bne	$1ded <printf+0xa54>
    1de1: 86 14        	stx	$14                     ; 0x2014 <bassNotes+0x2>
    1de3: a6 cc        	ldx	$cc                     ; 0x20cc <__heap_start+0x7a>
    1de5: 86 12        	stx	$12                     ; 0x2012 <bassNotes>
    1de7: c4 12        	cpy	$12                     ; 0x2012 <bassNotes>
    1de9: 90 08        	bcc	$1df3 <printf+0xa5a>
    1deb: 80 27        	bra	$1e14 <printf+0xa7b>
    1ded: 86 14        	stx	$14                     ; 0x2014 <bassNotes+0x2>
    1def: e4 cd        	cpx	$cd                     ; 0x20cd <__heap_start+0x7b>
    1df1: b0 21        	bcs	$1e14 <printf+0xa7b>
    1df3: a6 d9        	ldx	$d9                     ; 0x20d9 <__heap_start+0x87>
    1df5: e4 9e        	cpx	$9e                     ; 0x209e <__heap_start+0x4c>
    1df7: d0 18        	bne	$1e11 <printf+0xa78>
    1df9: a6 d8        	ldx	$d8                     ; 0x20d8 <__heap_start+0x86>
    1dfb: e4 9d        	cpx	$9d                     ; 0x209d <__heap_start+0x4b>
    1dfd: d0 12        	bne	$1e11 <printf+0xa78>
    1dff: 18           	clc
    1e00: aa           	tax
    1e01: 98           	tya
    1e02: 65 d2        	adc	$d2                     ; 0x20d2 <__heap_start+0x80>
    1e04: 85 12        	sta	$12                     ; 0x2012 <bassNotes>
    1e06: a5 14        	lda	$14                     ; 0x2014 <bassNotes+0x2>
    1e08: 65 d3        	adc	$d3                     ; 0x20d3 <__heap_start+0x81>
    1e0a: 85 13        	sta	$13                     ; 0x2013 <bassNotes+0x1>
    1e0c: 8a           	txa
    1e0d: 92 12        	sta	($12)                   ; 0x2012 <bassNotes>
    1e0f: 80 03        	bra	$1e14 <printf+0xa7b>
    1e11: 20 fc 0f     	jsr	$ffc <__putchar>
    1e14: e6 ce        	inc	$ce                     ; 0x20ce <__heap_start+0x7c>
    1e16: d0 02        	bne	$1e1a <printf+0xa81>
    1e18: e6 cf        	inc	$cf                     ; 0x20cf <__heap_start+0x7d>
    1e1a: a9 01        	lda	#$1
    1e1c: 25 ca        	and	$ca                     ; 0x20ca <__heap_start+0x78>
    1e1e: 29 01        	and	#$1
    1e20: d0 1e        	bne	$1e40 <printf+0xaa7>
    1e22: a6 ce        	ldx	$ce                     ; 0x20ce <__heap_start+0x7c>
    1e24: 86 14        	stx	$14                     ; 0x2014 <bassNotes+0x2>
    1e26: a5 cf        	lda	$cf                     ; 0x20cf <__heap_start+0x7d>
    1e28: a4 cc        	ldy	$cc                     ; 0x20cc <__heap_start+0x7a>
    1e2a: a6 cd        	ldx	$cd                     ; 0x20cd <__heap_start+0x7b>
    1e2c: 86 12        	stx	$12                     ; 0x2012 <bassNotes>
    1e2e: 86 13        	stx	$13                     ; 0x2013 <bassNotes+0x1>
    1e30: c5 12        	cmp	$12                     ; 0x2012 <bassNotes>
    1e32: f0 03        	beq	$1e37 <printf+0xa9e>
    1e34: 4c c3 1e     	jmp	$1ec3 <printf+0xb2a>
    1e37: 84 12        	sty	$12                     ; 0x2012 <bassNotes>
    1e39: a6 14        	ldx	$14                     ; 0x2014 <bassNotes+0x2>
    1e3b: e4 12        	cpx	$12                     ; 0x2012 <bassNotes>
    1e3d: 4c c7 1e     	jmp	$1ec7 <printf+0xb2e>
    1e40: a6 ce        	ldx	$ce                     ; 0x20ce <__heap_start+0x7c>
    1e42: 86 14        	stx	$14                     ; 0x2014 <bassNotes+0x2>
    1e44: a5 cf        	lda	$cf                     ; 0x20cf <__heap_start+0x7d>
    1e46: a6 a4        	ldx	$a4                     ; 0x20a4 <__heap_start+0x52>
    1e48: a4 a3        	ldy	$a3                     ; 0x20a3 <__heap_start+0x51>
    1e4a: f0 03        	beq	$1e4f <printf+0xab6>
    1e4c: 4c af 1e     	jmp	$1eaf <printf+0xb16>
    1e4f: e0 00        	cpx	#$0
    1e51: f0 d5        	beq	$1e28 <printf+0xa8f>
    1e53: 4c af 1e     	jmp	$1eaf <printf+0xb16>
    1e56: c5 cd        	cmp	$cd                     ; 0x20cd <__heap_start+0x7b>
    1e58: b0 24        	bcs	$1e7e <printf+0xae5>
    1e5a: a6 d9        	ldx	$d9                     ; 0x20d9 <__heap_start+0x87>
    1e5c: e4 9e        	cpx	$9e                     ; 0x209e <__heap_start+0x4c>
    1e5e: d0 19        	bne	$1e79 <printf+0xae0>
    1e60: a6 d8        	ldx	$d8                     ; 0x20d8 <__heap_start+0x86>
    1e62: e4 9d        	cpx	$9d                     ; 0x209d <__heap_start+0x4b>
    1e64: d0 13        	bne	$1e79 <printf+0xae0>
    1e66: 18           	clc
    1e67: aa           	tax
    1e68: a5 14        	lda	$14                     ; 0x2014 <bassNotes+0x2>
    1e6a: 65 d2        	adc	$d2                     ; 0x20d2 <__heap_start+0x80>
    1e6c: 85 12        	sta	$12                     ; 0x2012 <bassNotes>
    1e6e: 8a           	txa
    1e6f: 65 d3        	adc	$d3                     ; 0x20d3 <__heap_start+0x81>
    1e71: 85 13        	sta	$13                     ; 0x2013 <bassNotes+0x1>
    1e73: a9 20        	lda	#$20
    1e75: 92 12        	sta	($12)                   ; 0x2012 <bassNotes>
    1e77: 80 05        	bra	$1e7e <printf+0xae5>
    1e79: a9 20        	lda	#$20
    1e7b: 20 fc 0f     	jsr	$ffc <__putchar>
    1e7e: a6 ce        	ldx	$ce                     ; 0x20ce <__heap_start+0x7c>
    1e80: a5 cf        	lda	$cf                     ; 0x20cf <__heap_start+0x7d>
    1e82: e8           	inx
    1e83: d0 01        	bne	$1e86 <printf+0xaed>
    1e85: 1a           	inc
    1e86: 86 14        	stx	$14                     ; 0x2014 <bassNotes+0x2>
    1e88: 86 ce        	stx	$ce                     ; 0x20ce <__heap_start+0x7c>
    1e8a: 85 cf        	sta	$cf                     ; 0x20cf <__heap_start+0x7d>
    1e8c: a6 a4        	ldx	$a4                     ; 0x20a4 <__heap_start+0x52>
    1e8e: 86 12        	stx	$12                     ; 0x2012 <bassNotes>
    1e90: a6 a3        	ldx	$a3                     ; 0x20a3 <__heap_start+0x51>
    1e92: 86 13        	stx	$13                     ; 0x2013 <bassNotes+0x1>
    1e94: a2 ff        	ldx	#$ff
    1e96: c6 12        	dec	$12                     ; 0x2012 <bassNotes>
    1e98: e4 12        	cpx	$12                     ; 0x2012 <bassNotes>
    1e9a: d0 02        	bne	$1e9e <printf+0xb05>
    1e9c: c6 13        	dec	$13                     ; 0x2013 <bassNotes+0x1>
    1e9e: a6 12        	ldx	$12                     ; 0x2012 <bassNotes>
    1ea0: 86 a4        	stx	$a4                     ; 0x20a4 <__heap_start+0x52>
    1ea2: a6 13        	ldx	$13                     ; 0x2013 <bassNotes+0x1>
    1ea4: 86 a3        	stx	$a3                     ; 0x20a3 <__heap_start+0x51>
    1ea6: d0 07        	bne	$1eaf <printf+0xb16>
    1ea8: a6 12        	ldx	$12                     ; 0x2012 <bassNotes>
    1eaa: d0 03        	bne	$1eaf <printf+0xb16>
    1eac: 4c 28 1e     	jmp	$1e28 <printf+0xa8f>
    1eaf: c5 cd        	cmp	$cd                     ; 0x20cd <__heap_start+0x7b>
    1eb1: f0 03        	beq	$1eb6 <printf+0xb1d>
    1eb3: 4c 56 1e     	jmp	$1e56 <printf+0xabd>
    1eb6: a6 cc        	ldx	$cc                     ; 0x20cc <__heap_start+0x7a>
    1eb8: 86 12        	stx	$12                     ; 0x2012 <bassNotes>
    1eba: a6 14        	ldx	$14                     ; 0x2014 <bassNotes+0x2>
    1ebc: e4 12        	cpx	$12                     ; 0x2012 <bassNotes>
    1ebe: b0 be        	bcs	$1e7e <printf+0xae5>
    1ec0: 4c 5a 1e     	jmp	$1e5a <printf+0xac1>
    1ec3: 86 12        	stx	$12                     ; 0x2012 <bassNotes>
    1ec5: c5 12        	cmp	$12                     ; 0x2012 <bassNotes>
    1ec7: 98           	tya
    1ec8: a0 01        	ldy	#$1
    1eca: 90 20        	bcc	$1eec <printf+0xb53>
    1ecc: a6 13        	ldx	$13                     ; 0x2013 <bassNotes+0x1>
    1ece: d0 03        	bne	$1ed3 <printf+0xb3a>
    1ed0: aa           	tax
    1ed1: f0 19        	beq	$1eec <printf+0xb53>
    1ed3: 18           	clc
    1ed4: 65 d2        	adc	$d2                     ; 0x20d2 <__heap_start+0x80>
    1ed6: 85 12        	sta	$12                     ; 0x2012 <bassNotes>
    1ed8: a5 13        	lda	$13                     ; 0x2013 <bassNotes+0x1>
    1eda: 65 d3        	adc	$d3                     ; 0x20d3 <__heap_start+0x81>
    1edc: 85 13        	sta	$13                     ; 0x2013 <bassNotes+0x1>
    1ede: a2 ff        	ldx	#$ff
    1ee0: c6 12        	dec	$12                     ; 0x2012 <bassNotes>
    1ee2: e4 12        	cpx	$12                     ; 0x2012 <bassNotes>
    1ee4: d0 02        	bne	$1ee8 <printf+0xb4f>
    1ee6: c6 13        	dec	$13                     ; 0x2013 <bassNotes+0x1>
    1ee8: a9 00        	lda	#$0
    1eea: 92 12        	sta	($12)                   ; 0x2012 <bassNotes>
    1eec: e6 9b        	inc	$9b                     ; 0x209b <__heap_start+0x49>
    1eee: d0 02        	bne	$1ef2 <printf+0xb59>
    1ef0: e6 9c        	inc	$9c                     ; 0x209c <__heap_start+0x4a>
    1ef2: a6 9c        	ldx	$9c                     ; 0x209c <__heap_start+0x4a>
    1ef4: e4 a0        	cpx	$a0                     ; 0x20a0 <__heap_start+0x4e>
    1ef6: f0 03        	beq	$1efb <printf+0xb62>
    1ef8: 4c fe 13     	jmp	$13fe <printf+0x65>
    1efb: a6 9b        	ldx	$9b                     ; 0x209b <__heap_start+0x49>
    1efd: e4 9f        	cpx	$9f                     ; 0x209f <__heap_start+0x4d>
    1eff: f0 03        	beq	$1f04 <printf+0xb6b>
    1f01: 4c fe 13     	jmp	$13fe <printf+0x65>
    1f04: b2 9f        	lda	($9f)                   ; 0x209f <__heap_start+0x4d>
    1f06: a2 00        	ldx	#$0
    1f08: 86 9d        	stx	$9d                     ; 0x209d <__heap_start+0x4b>
    1f0a: a2 00        	ldx	#$0
    1f0c: 86 9e        	stx	$9e                     ; 0x209e <__heap_start+0x4c>
    1f0e: 4c 12 14     	jmp	$1412 <printf+0x79>
    1f11: e4 a2        	cpx	$a2                     ; 0x20a2 <__heap_start+0x50>
    1f13: a6 9a        	ldx	$9a                     ; 0x209a <__heap_start+0x48>
    1f15: b0 03        	bcs	$1f1a <printf+0xb81>
    1f17: 4c 3e 1a     	jmp	$1a3e <printf+0x6a5>
    1f1a: a5 99        	lda	$99                     ; 0x2099 <__heap_start+0x47>
    1f1c: 85 a1        	sta	$a1                     ; 0x20a1 <__heap_start+0x4f>
    1f1e: 64 a2        	stz	$a2                     ; 0x20a2 <__heap_start+0x50>
    1f20: e6 a1        	inc	$a1                     ; 0x20a1 <__heap_start+0x4f>
    1f22: f0 03        	beq	$1f27 <printf+0xb8e>
    1f24: 4c 3e 1a     	jmp	$1a3e <printf+0x6a5>
    1f27: e6 a2        	inc	$a2                     ; 0x20a2 <__heap_start+0x50>
    1f29: 4c 3e 1a     	jmp	$1a3e <printf+0x6a5>
    1f2c: a2 58        	ldx	#$58
    1f2e: 86 e3        	stx	$e3                     ; 0x20e3 <__heap_start+0x91>
    1f30: a2 01        	ldx	#$1
    1f32: 86 de        	stx	$de                     ; 0x20de <__heap_start+0x8c>
    1f34: a2 30        	ldx	#$30
    1f36: 86 e0        	stx	$e0                     ; 0x20e0 <__heap_start+0x8e>
    1f38: a9 02        	lda	#$2
    1f3a: a2 00        	ldx	#$0
    1f3c: 86 df        	stx	$df                     ; 0x20df <__heap_start+0x8d>
    1f3e: 4c 7f 1a     	jmp	$1a7f <printf+0x6e6>
    1f41: 64 a4        	stz	$a4                     ; 0x20a4 <__heap_start+0x52>
    1f43: 64 a3        	stz	$a3                     ; 0x20a3 <__heap_start+0x51>
    1f45: 4c a3 1c     	jmp	$1ca3 <printf+0x90a>
    1f48: 60           	rts

00001f49 <memcpy>:
    1f49: a8           	tay
    1f4a: 8a           	txa
    1f4b: d0 03        	bne	$1f50 <memcpy+0x7>
    1f4d: 98           	tya
    1f4e: f0 24        	beq	$1f74 <memcpy+0x2b>
    1f50: a5 12        	lda	$12                     ; 0x2012 <bassNotes>
    1f52: 85 16        	sta	$16                     ; 0x2016 <bassNotes+0x4>
    1f54: a5 13        	lda	$13                     ; 0x2013 <bassNotes+0x1>
    1f56: 85 17        	sta	$17                     ; 0x2017 <bassNotes+0x5>
    1f58: b2 14        	lda	($14)                   ; 0x2014 <bassNotes+0x2>
    1f5a: 92 16        	sta	($16)                   ; 0x2016 <bassNotes+0x4>
    1f5c: e6 16        	inc	$16                     ; 0x2016 <bassNotes+0x4>
    1f5e: d0 02        	bne	$1f62 <memcpy+0x19>
    1f60: e6 17        	inc	$17                     ; 0x2017 <bassNotes+0x5>
    1f62: e6 14        	inc	$14                     ; 0x2014 <bassNotes+0x2>
    1f64: d0 02        	bne	$1f68 <memcpy+0x1f>
    1f66: e6 15        	inc	$15                     ; 0x2015 <bassNotes+0x3>
    1f68: 88           	dey
    1f69: c0 ff        	cpy	#$ff
    1f6b: d0 01        	bne	$1f6e <memcpy+0x25>
    1f6d: ca           	dex
    1f6e: 8a           	txa
    1f6f: d0 e7        	bne	$1f58 <memcpy+0xf>
    1f71: 98           	tya
    1f72: d0 e4        	bne	$1f58 <memcpy+0xf>
    1f74: 60           	rts

00001f75 <__memset>:
    1f75: a4 14        	ldy	$14                     ; 0x2014 <bassNotes+0x2>
    1f77: d0 04        	bne	$1f7d <__memset+0x8>
    1f79: e0 00        	cpx	#$0
    1f7b: f0 17        	beq	$1f94 <__memset+0x1f>
    1f7d: 92 12        	sta	($12)                   ; 0x2012 <bassNotes>
    1f7f: e6 12        	inc	$12                     ; 0x2012 <bassNotes>
    1f81: d0 02        	bne	$1f85 <__memset+0x10>
    1f83: e6 13        	inc	$13                     ; 0x2013 <bassNotes+0x1>
    1f85: ca           	dex
    1f86: e0 ff        	cpx	#$ff
    1f88: d0 02        	bne	$1f8c <__memset+0x17>
    1f8a: c6 14        	dec	$14                     ; 0x2014 <bassNotes+0x2>
    1f8c: a4 14        	ldy	$14                     ; 0x2014 <bassNotes+0x2>
    1f8e: d0 ed        	bne	$1f7d <__memset+0x8>
    1f90: e0 00        	cpx	#$0
    1f92: d0 e9        	bne	$1f7d <__memset+0x8>
    1f94: 60           	rts
