
f256amp.elf:	file format elf32-mos

SYMBOL TABLE:
00000000 l    df *ABS*	00000000 zero-bss.c
00000000 l    df *ABS*	00000000 zero-zp-bss.c
00000000 l    df *ABS*	00000000 copy-zp-data.c
00000000 l    df *ABS*	00000000 ld-temp.o
00000057 l     O .zp.bss	00000007 kernelEventData
00000030 l     O .zp.data	00000001 _ccolor
00005ad9 l     O .rodata	00000030 textColors
00000044 l     O .zp.bss	00000001 _col
00000045 l     O .zp.bss	00000001 _row
00000046 l     O .zp.bss	00000004 _BITMAP_BASE.0
0000004a l     O .zp.bss	00000008 _dirStream
00000056 l     O .zp.bss	00000001 kernelError
000054ef l     F .text	00000088 printf
0000271a l     F .text	0000012b writeTopRight
00002845 l     F .text	00000114 fileOpenDir
00005f5c l     O .bss	000011f6 fpr
00007152 l     O .bss	00000040 finalName
00000052 l     O .zp.bss	00000002 __putchar.s
00002aa2 l     F .text	000001e7 textPrint
00005577 l     F .text	000000da sprintf
00000054 l     O .zp.bss	00000002 theMP3file
00002959 l     F .text	00000149 fileRead
00005822 l     F .text	00000190 free
00005651 l     F .text	000001d1 malloc
000044bb l     F .text	00000314 initVS1053Plugin
000040ba l     F .text	00000401 readDirectory
00002d79 l     F .text	0000034c sortFileList
00003d12 l     F .text	000003a8 displayFileList
000030c5 l     F .text	00000c4d pickFile
00002c89 l     F .text	00000011 textGotoXY
00002c9a l     F .text	000000df fileReadDir
00005e5a l     O .bss	00000102 fileReadDir.fileDirEntS
000059fe l     F .text	00000032 __mulhi3
000047d4 l     F .text	00000b34 _ZN12_GLOBAL__N_15printEPKcP6Status
00005308 l     F .text	000000db _ZN12_GLOBAL__N_13putEcP6Status
000053e3 l     F .text	0000010c _ZN12_GLOBAL__N_112print_stringEPKcP6Status
00007192 l     O .bss	00000001 _ZN12_GLOBAL__N_111initializedE
0000032c l     F .text	00000135 _ZN12_GLOBAL__N_19FreeChunk6insertEPvj
0000005e l     O .zp.bss	00000001 _ZN12_GLOBAL__N_19last_freeE
00000061 l     O .zp.bss	00000002 _ZN12_GLOBAL__N_19free_listE
00000462 l     F .text	000000d7 _ZN12_GLOBAL__N_19FreeChunk6removeEv
0000005f l     O .zp.bss	00000002 _ZN12_GLOBAL__N_19free_sizeE
00000576 g     F .text	000021a4 main
00056000 g       .patch	00000000 patch_start
00040d00 g       .mac	00000000 mac_end
00043400 g       .allo	00000000 allo_end
00058476 g       .patch	00000000 patch_end
00059000 g       .saplug	00000000 saplug_start
00020000 g       .mac	00000000 mac_start
00056000 g       .popo	00000000 popo_end
000597d0 g       .saplug	00000000 saplug_end
00043000 g       .allo	00000000 allo_start
00043400 g       .popo	00000000 popo_start
00000328 g       .text	00000000 __after_main
00000314 g       .text	00000000 __do_init_stack
00000322 g       .text	00000000 __do_copy_zp_data
0000055f g     F .text	00000017 __copy_zp_data
0000031c g       .text	00000000 __do_zero_bss
00000539 g     F .text	00000013 __zero_bss
0000031f g       .text	00000000 __do_zero_zp_bss
0000054c g     F .text	00000013 __zero_zp_bss
000047cf g     F .text	00000005 exit
0000032b g       .text	00000000 _fini
00005a30 g       .rodata	00000000 __set_v
000059de  w    F .text	00000020 __memset
00001000  w      *ABS*	00000000 __heap_default_limit
00007194 g       .noinit	00000000 __heap_start
000059b2  w    F .text	0000002c memcpy
00000010 g       *ABS*	00000000 __rc0
00000012 g       *ABS*	00000000 __rc2
00000014 g       *ABS*	00000000 __rc4
00000016 g       *ABS*	00000000 __rc6
00000018 g       *ABS*	00000000 __rc8
0000001a g       *ABS*	00000000 __rc10
0000001c g       *ABS*	00000000 __rc12
0000001e g       *ABS*	00000000 __rc14
00000020 g       *ABS*	00000000 __rc16
00000022 g       *ABS*	00000000 __rc18
00000024 g       *ABS*	00000000 __rc20
00000026 g       *ABS*	00000000 __rc22
00000028 g       *ABS*	00000000 __rc24
0000002a g       *ABS*	00000000 __rc26
0000002c g       *ABS*	00000000 __rc28
0000002e g       *ABS*	00000000 __rc30
0000002f g       *ABS*	00000000 __rc31
00000300 g       *ABS*	00000000 __f256_start
0000c000 g       *ABS*	00000000 __stack
0000c000 g       *ABS*	00000000 __SLOT_ADDR
0800c000 g       *ABS*	00000000 __block8_lma
00002000 g       *ABS*	00000000 __BLOCK_SIZE
0900c000 g       *ABS*	00000000 __block9_lma
0a00c000 g       *ABS*	00000000 __block10_lma
0b00c000 g       *ABS*	00000000 __block11_lma
0c00c000 g       *ABS*	00000000 __block12_lma
0d00c000 g       *ABS*	00000000 __block13_lma
0e00c000 g       *ABS*	00000000 __block14_lma
0f00c000 g       *ABS*	00000000 __block15_lma
1000c000 g       *ABS*	00000000 __block16_lma
1100c000 g       *ABS*	00000000 __block17_lma
1200c000 g       *ABS*	00000000 __block18_lma
1300c000 g       *ABS*	00000000 __block19_lma
1400c000 g       *ABS*	00000000 __block20_lma
1500c000 g       *ABS*	00000000 __block21_lma
1600c000 g       *ABS*	00000000 __block22_lma
1700c000 g       *ABS*	00000000 __block23_lma
00020000 g       *ABS*	00000000 __mac_lma
00020d00 g       *ABS*	00000000 __mac_size
00043000 g       *ABS*	00000000 __allo_lma
00000400 g       *ABS*	00000000 __allo_size
00043400 g       *ABS*	00000000 __popo_lma
00012c00 g       *ABS*	00000000 __popo_size
00056000 g       *ABS*	00000000 __patch_lma
00002476 g       *ABS*	00000000 __patch_size
00059000 g       *ABS*	00000000 __saplug_lma
000007d0 g       *ABS*	00000000 __saplug_size
00005e5a g       .bss	00000000 __bss_start
00040d00 g       .mac	00000000 end_mac
00043400 g       .allo	00000000 end_allo
00056000 g       .popo	00000000 end_popo
00058476 g       .patch	00000000 end_patch
000597d0 g       .saplug	00000000 end_saplug
00000314 g       .text	00000000 _start
0000002d g       *ABS*	00000000 __rc29
0000002b g       *ABS*	00000000 __rc27
00000029 g       *ABS*	00000000 __rc25
00000027 g       *ABS*	00000000 __rc23
00000025 g       *ABS*	00000000 __rc21
00000023 g       *ABS*	00000000 __rc19
00000021 g       *ABS*	00000000 __rc17
0000001f g       *ABS*	00000000 __rc15
0000001d g       *ABS*	00000000 __rc13
0000001b g       *ABS*	00000000 __rc11
00000019 g       *ABS*	00000000 __rc9
00000017 g       *ABS*	00000000 __rc7
00000015 g       *ABS*	00000000 __rc5
00000013 g       *ABS*	00000000 __rc3
00000011 g       *ABS*	00000000 __rc1
00000030 g       .zp.data	00000000 __zp_data_start
00000300 g       *ABS*	00000000 __zp_data_load_start
00000014 g       *ABS*	00000000 __zp_data_size
00000044 g       .zp.bss	00000000 __zp_bss_start
0000001f g       *ABS*	00000000 __zp_bss_size
00000314 g       .text	00000000 _init
00005a30 g       .text	00000000 __init_array_start
00005a30 g       .text	00000000 __init_array_end
00005a30 g       .text	00000000 __fini_array_start
00005a30 g       .text	00000000 __fini_array_end
00005e5a g       .data	00000000 __data_start
00005e5a g       .data	00000000 __data_end
00005e5a g       *ABS*	00000000 __data_load_start
00000000 g       *ABS*	00000000 __data_size
00007193 g       .bss	00000000 __bss_end
00001339 g       *ABS*	00000000 __bss_size
00007193 g       .noinit	00000000 end_block8
00007193 g       .noinit	00000000 end_block9
00007193 g       .noinit	00000000 end_block10
00007193 g       .noinit	00000000 end_block11
00007193 g       .noinit	00000000 end_block12
00007193 g       .noinit	00000000 end_block13
00007193 g       .noinit	00000000 end_block14
00007193 g       .noinit	00000000 end_block15
00007193 g       .noinit	00000000 end_block16
00007193 g       .noinit	00000000 end_block17
00007193 g       .noinit	00000000 end_block18
00007193 g       .noinit	00000000 end_block19
00007193 g       .noinit	00000000 end_block20
00007193 g       .noinit	00000000 end_block21
00007193 g       .noinit	00000000 end_block22
00007193 g       .noinit	00000000 end_block23

Disassembly of section .text:

00000314 <_start>:
     314: a9 00        	lda	#$0
     316: 85 10        	sta	$10                     ; 0x2010 <main+0x1a9a>
     318: a9 c0        	lda	#$c0
     31a: 85 11        	sta	$11                     ; 0x2011 <main+0x1a9b>

0000031c <__do_zero_bss>:
     31c: 20 39 05     	jsr	$539 <__zero_bss>

0000031f <__do_zero_zp_bss>:
     31f: 20 4c 05     	jsr	$54c <__zero_zp_bss>

00000322 <__do_copy_zp_data>:
     322: 20 5f 05     	jsr	$55f <__copy_zp_data>
     325: 20 76 05     	jsr	$576 <main>

00000328 <__after_main>:
     328: 4c cf 47     	jmp	$47cf <exit>

0000032b <_fini>:
     32b: 60           	rts

0000032c <_ZN12_GLOBAL__N_19FreeChunk6insertEPvj>:
     32c: 85 16        	sta	$16                     ; 0x2016 <main+0x1aa0>
     32e: 29 fe        	and	#$fe
     330: 85 14        	sta	$14                     ; 0x2014 <main+0x1a9e>
     332: a0 01        	ldy	#$1
     334: 98           	tya
     335: 32 12        	and	($12)                   ; 0x2012 <main+0x1a9c>
     337: 05 14        	ora	$14                     ; 0x2014 <main+0x1a9e>
     339: 92 12        	sta	($12)                   ; 0x2012 <main+0x1a9c>
     33b: a5 12        	lda	$12                     ; 0x2012 <main+0x1a9c>
     33d: 18           	clc
     33e: 65 14        	adc	$14                     ; 0x2014 <main+0x1a9e>
     340: 85 15        	sta	$15                     ; 0x2015 <main+0x1a9f>
     342: 8a           	txa
     343: 65 13        	adc	$13                     ; 0x2013 <main+0x1a9d>
     345: 85 14        	sta	$14                     ; 0x2014 <main+0x1a9e>
     347: 18           	clc
     348: a5 15        	lda	$15                     ; 0x2015 <main+0x1a9f>
     34a: 69 fe        	adc	#$fe
     34c: 85 17        	sta	$17                     ; 0x2017 <main+0x1aa1>
     34e: a5 14        	lda	$14                     ; 0x2014 <main+0x1a9e>
     350: 69 ff        	adc	#$ff
     352: 85 15        	sta	$15                     ; 0x2015 <main+0x1a9f>
     354: a5 17        	lda	$17                     ; 0x2017 <main+0x1aa1>
     356: 85 14        	sta	$14                     ; 0x2014 <main+0x1a9e>
     358: 8a           	txa
     359: 91 12        	sta	($12),y                 ; 0x2012 <main+0x1a9c>
     35b: a5 16        	lda	$16                     ; 0x2016 <main+0x1aa0>
     35d: 92 14        	sta	($14)                   ; 0x2014 <main+0x1a9e>
     35f: 8a           	txa
     360: 91 14        	sta	($14),y                 ; 0x2014 <main+0x1a9e>
     362: b1 12        	lda	($12),y                 ; 0x2012 <main+0x1a9c>
     364: 85 14        	sta	$14                     ; 0x2014 <main+0x1a9e>
     366: a9 fe        	lda	#$fe
     368: 32 12        	and	($12)                   ; 0x2012 <main+0x1a9c>
     36a: 18           	clc
     36b: 65 5f        	adc	$5f                     ; 0x205f <main+0x1ae9>
     36d: aa           	tax
     36e: a5 14        	lda	$14                     ; 0x2014 <main+0x1a9e>
     370: 65 60        	adc	$60                     ; 0x2060 <main+0x1aea>
     372: a8           	tay
     373: 18           	clc
     374: 8a           	txa
     375: 69 fe        	adc	#$fe
     377: aa           	tax
     378: 98           	tya
     379: 69 ff        	adc	#$ff
     37b: 86 5f        	stx	$5f                     ; 0x205f <main+0x1ae9>
     37d: 85 60        	sta	$60                     ; 0x2060 <main+0x1aea>
     37f: a6 61        	ldx	$61                     ; 0x2061 <main+0x1aeb>
     381: 86 16        	stx	$16                     ; 0x2016 <main+0x1aa0>
     383: a4 62        	ldy	$62                     ; 0x2062 <main+0x1aec>
     385: a2 00        	ldx	#$0
     387: 86 14        	stx	$14                     ; 0x2014 <main+0x1a9e>
     389: a2 00        	ldx	#$0
     38b: 86 15        	stx	$15                     ; 0x2015 <main+0x1a9f>
     38d: c4 15        	cpy	$15                     ; 0x2015 <main+0x1a9f>
     38f: d0 3c        	bne	$3cd <_ZN12_GLOBAL__N_19FreeChunk6insertEPvj+0xa1>
     391: a6 16        	ldx	$16                     ; 0x2016 <main+0x1aa0>
     393: e4 14        	cpx	$14                     ; 0x2014 <main+0x1a9e>
     395: d0 36        	bne	$3cd <_ZN12_GLOBAL__N_19FreeChunk6insertEPvj+0xa1>
     397: a0 04        	ldy	#$4
     399: a5 12        	lda	$12                     ; 0x2012 <main+0x1a9c>
     39b: 18           	clc
     39c: 69 04        	adc	#$4
     39e: 85 14        	sta	$14                     ; 0x2014 <main+0x1a9e>
     3a0: a5 13        	lda	$13                     ; 0x2013 <main+0x1a9d>
     3a2: 69 00        	adc	#$0
     3a4: 18           	clc
     3a5: 85 15        	sta	$15                     ; 0x2015 <main+0x1a9f>
     3a7: a5 12        	lda	$12                     ; 0x2012 <main+0x1a9c>
     3a9: 91 12        	sta	($12),y                 ; 0x2012 <main+0x1a9c>
     3ab: a0 02        	ldy	#$2
     3ad: 85 17        	sta	$17                     ; 0x2017 <main+0x1aa1>
     3af: 69 02        	adc	#$2
     3b1: 85 16        	sta	$16                     ; 0x2016 <main+0x1aa0>
     3b3: a5 17        	lda	$17                     ; 0x2017 <main+0x1aa1>
     3b5: 91 12        	sta	($12),y                 ; 0x2012 <main+0x1a9c>
     3b7: a5 13        	lda	$13                     ; 0x2013 <main+0x1a9d>
     3b9: 69 00        	adc	#$0
     3bb: 85 17        	sta	$17                     ; 0x2017 <main+0x1aa1>
     3bd: 88           	dey
     3be: a5 13        	lda	$13                     ; 0x2013 <main+0x1a9d>
     3c0: 91 14        	sta	($14),y                 ; 0x2014 <main+0x1a9e>
     3c2: 91 16        	sta	($16),y                 ; 0x2016 <main+0x1aa0>
     3c4: a6 12        	ldx	$12                     ; 0x2012 <main+0x1a9c>
     3c6: 86 61        	stx	$61                     ; 0x2061 <main+0x1aeb>
     3c8: a6 13        	ldx	$13                     ; 0x2013 <main+0x1a9d>
     3ca: 86 62        	stx	$62                     ; 0x2062 <main+0x1aec>
     3cc: 60           	rts
     3cd: a6 12        	ldx	$12                     ; 0x2012 <main+0x1a9c>
     3cf: a5 12        	lda	$12                     ; 0x2012 <main+0x1a9c>
     3d1: 18           	clc
     3d2: 69 02        	adc	#$2
     3d4: 85 14        	sta	$14                     ; 0x2014 <main+0x1a9e>
     3d6: 84 18        	sty	$18                     ; 0x2018 <main+0x1aa2>
     3d8: a5 13        	lda	$13                     ; 0x2013 <main+0x1a9d>
     3da: 69 00        	adc	#$0
     3dc: 85 15        	sta	$15                     ; 0x2015 <main+0x1a9f>
     3de: a5 16        	lda	$16                     ; 0x2016 <main+0x1aa0>
     3e0: 84 17        	sty	$17                     ; 0x2017 <main+0x1aa1>
     3e2: a0 02        	ldy	#$2
     3e4: 91 12        	sta	($12),y                 ; 0x2012 <main+0x1a9c>
     3e6: 85 19        	sta	$19                     ; 0x2019 <main+0x1aa3>
     3e8: 88           	dey
     3e9: a5 18        	lda	$18                     ; 0x2018 <main+0x1aa2>
     3eb: 91 14        	sta	($14),y                 ; 0x2014 <main+0x1a9e>
     3ed: 18           	clc
     3ee: a5 19        	lda	$19                     ; 0x2019 <main+0x1aa3>
     3f0: 69 04        	adc	#$4
     3f2: a8           	tay
     3f3: a5 18        	lda	$18                     ; 0x2018 <main+0x1aa2>
     3f5: 69 00        	adc	#$0
     3f7: 85 19        	sta	$19                     ; 0x2019 <main+0x1aa3>
     3f9: 84 18        	sty	$18                     ; 0x2018 <main+0x1aa2>
     3fb: 8a           	txa
     3fc: 18           	clc
     3fd: 69 04        	adc	#$4
     3ff: 85 1a        	sta	$1a                     ; 0x201a <main+0x1aa4>
     401: a5 13        	lda	$13                     ; 0x2013 <main+0x1a9d>
     403: 69 00        	adc	#$0
     405: 85 1b        	sta	$1b                     ; 0x201b <main+0x1aa5>
     407: a0 04        	ldy	#$4
     409: b1 16        	lda	($16),y                 ; 0x2016 <main+0x1aa0>
     40b: 85 16        	sta	$16                     ; 0x2016 <main+0x1aa0>
     40d: 85 1d        	sta	$1d                     ; 0x201d <main+0x1aa7>
     40f: a0 01        	ldy	#$1
     411: b1 18        	lda	($18),y                 ; 0x2018 <main+0x1aa2>
     413: 85 17        	sta	$17                     ; 0x2017 <main+0x1aa1>
     415: 85 19        	sta	$19                     ; 0x2019 <main+0x1aa3>
     417: a0 04        	ldy	#$4
     419: a5 1d        	lda	$1d                     ; 0x201d <main+0x1aa7>
     41b: 91 12        	sta	($12),y                 ; 0x2012 <main+0x1a9c>
     41d: a5 19        	lda	$19                     ; 0x2019 <main+0x1aa3>
     41f: a0 01        	ldy	#$1
     421: 91 1a        	sta	($1a),y                 ; 0x201a <main+0x1aa4>
     423: 18           	clc
     424: a5 1d        	lda	$1d                     ; 0x201d <main+0x1aa7>
     426: 69 02        	adc	#$2
     428: 85 18        	sta	$18                     ; 0x2018 <main+0x1aa2>
     42a: a5 19        	lda	$19                     ; 0x2019 <main+0x1aa3>
     42c: 69 00        	adc	#$0
     42e: 85 19        	sta	$19                     ; 0x2019 <main+0x1aa3>
     430: 8a           	txa
     431: c8           	iny
     432: 91 16        	sta	($16),y                 ; 0x2016 <main+0x1aa0>
     434: a5 13        	lda	$13                     ; 0x2013 <main+0x1a9d>
     436: 88           	dey
     437: 91 18        	sta	($18),y                 ; 0x2018 <main+0x1aa2>
     439: c8           	iny
     43a: b1 12        	lda	($12),y                 ; 0x2012 <main+0x1a9c>
     43c: 85 16        	sta	$16                     ; 0x2016 <main+0x1aa0>
     43e: 85 18        	sta	$18                     ; 0x2018 <main+0x1aa2>
     440: 88           	dey
     441: b1 14        	lda	($14),y                 ; 0x2014 <main+0x1a9e>
     443: 85 17        	sta	$17                     ; 0x2017 <main+0x1aa1>
     445: 85 14        	sta	$14                     ; 0x2014 <main+0x1a9e>
     447: 8a           	txa
     448: a0 04        	ldy	#$4
     44a: 91 16        	sta	($16),y                 ; 0x2016 <main+0x1aa0>
     44c: 18           	clc
     44d: a5 18        	lda	$18                     ; 0x2018 <main+0x1aa2>
     44f: 69 04        	adc	#$4
     451: a8           	tay
     452: a5 14        	lda	$14                     ; 0x2014 <main+0x1a9e>
     454: 69 00        	adc	#$0
     456: 84 14        	sty	$14                     ; 0x2014 <main+0x1a9e>
     458: 85 15        	sta	$15                     ; 0x2015 <main+0x1a9f>
     45a: a5 13        	lda	$13                     ; 0x2013 <main+0x1a9d>
     45c: a0 01        	ldy	#$1
     45e: 91 14        	sta	($14),y                 ; 0x2014 <main+0x1a9e>
     460: 60           	rts
     461: 00           	brk

00000462 <_ZN12_GLOBAL__N_19FreeChunk6removeEv>:
     462: a0 01        	ldy	#$1
     464: a9 fe        	lda	#$fe
     466: 32 12        	and	($12)                   ; 0x2012 <main+0x1a9c>
     468: 85 14        	sta	$14                     ; 0x2014 <main+0x1a9e>
     46a: a5 5f        	lda	$5f                     ; 0x205f <main+0x1ae9>
     46c: a6 60        	ldx	$60                     ; 0x2060 <main+0x1aea>
     46e: 86 15        	stx	$15                     ; 0x2015 <main+0x1a9f>
     470: 38           	sec
     471: e5 14        	sbc	$14                     ; 0x2014 <main+0x1a9e>
     473: aa           	tax
     474: a5 15        	lda	$15                     ; 0x2015 <main+0x1a9f>
     476: f1 12        	sbc	($12),y                 ; 0x2012 <main+0x1a9c>
     478: 85 14        	sta	$14                     ; 0x2014 <main+0x1a9e>
     47a: 18           	clc
     47b: 8a           	txa
     47c: 69 02        	adc	#$2
     47e: 85 15        	sta	$15                     ; 0x2015 <main+0x1a9f>
     480: a5 14        	lda	$14                     ; 0x2014 <main+0x1a9e>
     482: 69 00        	adc	#$0
     484: a6 15        	ldx	$15                     ; 0x2015 <main+0x1a9f>
     486: 86 5f        	stx	$5f                     ; 0x205f <main+0x1ae9>
     488: 85 60        	sta	$60                     ; 0x2060 <main+0x1aea>
     48a: a5 12        	lda	$12                     ; 0x2012 <main+0x1a9c>
     48c: 18           	clc
     48d: 69 02        	adc	#$2
     48f: 85 14        	sta	$14                     ; 0x2014 <main+0x1a9e>
     491: a5 13        	lda	$13                     ; 0x2013 <main+0x1a9d>
     493: 69 00        	adc	#$0
     495: c8           	iny
     496: 85 15        	sta	$15                     ; 0x2015 <main+0x1a9f>
     498: b1 12        	lda	($12),y                 ; 0x2012 <main+0x1a9c>
     49a: aa           	tax
     49b: 88           	dey
     49c: b1 14        	lda	($14),y                 ; 0x2014 <main+0x1a9e>
     49e: 85 19        	sta	$19                     ; 0x2019 <main+0x1aa3>
     4a0: c5 13        	cmp	$13                     ; 0x2013 <main+0x1a9d>
     4a2: d0 0f        	bne	$4b3 <_ZN12_GLOBAL__N_19FreeChunk6removeEv+0x51>
     4a4: e4 12        	cpx	$12                     ; 0x2012 <main+0x1a9c>
     4a6: d0 0b        	bne	$4b3 <_ZN12_GLOBAL__N_19FreeChunk6removeEv+0x51>
     4a8: a2 00        	ldx	#$0
     4aa: 86 14        	stx	$14                     ; 0x2014 <main+0x1a9e>
     4ac: a2 00        	ldx	#$0
     4ae: 86 15        	stx	$15                     ; 0x2015 <main+0x1a9f>
     4b0: 4c 30 05     	jmp	$530 <_ZN12_GLOBAL__N_19FreeChunk6removeEv+0xce>
     4b3: 86 18        	stx	$18                     ; 0x2018 <main+0x1aa2>
     4b5: a6 12        	ldx	$12                     ; 0x2012 <main+0x1a9c>
     4b7: a5 12        	lda	$12                     ; 0x2012 <main+0x1a9c>
     4b9: 86 1b        	stx	$1b                     ; 0x201b <main+0x1aa5>
     4bb: 18           	clc
     4bc: 69 04        	adc	#$4
     4be: 85 14        	sta	$14                     ; 0x2014 <main+0x1a9e>
     4c0: a5 13        	lda	$13                     ; 0x2013 <main+0x1a9d>
     4c2: 69 00        	adc	#$0
     4c4: a0 04        	ldy	#$4
     4c6: 85 15        	sta	$15                     ; 0x2015 <main+0x1a9f>
     4c8: b1 12        	lda	($12),y                 ; 0x2012 <main+0x1a9c>
     4ca: 85 1c        	sta	$1c                     ; 0x201c <main+0x1aa6>
     4cc: 18           	clc
     4cd: 69 02        	adc	#$2
     4cf: 85 16        	sta	$16                     ; 0x2016 <main+0x1aa0>
     4d1: a0 01        	ldy	#$1
     4d3: b1 14        	lda	($14),y                 ; 0x2014 <main+0x1a9e>
     4d5: aa           	tax
     4d6: 69 00        	adc	#$0
     4d8: a4 16        	ldy	$16                     ; 0x2016 <main+0x1aa0>
     4da: 84 14        	sty	$14                     ; 0x2014 <main+0x1a9e>
     4dc: 85 15        	sta	$15                     ; 0x2015 <main+0x1a9f>
     4de: a4 1c        	ldy	$1c                     ; 0x201c <main+0x1aa6>
     4e0: 84 16        	sty	$16                     ; 0x2016 <main+0x1aa0>
     4e2: 86 17        	stx	$17                     ; 0x2017 <main+0x1aa1>
     4e4: a0 02        	ldy	#$2
     4e6: a5 18        	lda	$18                     ; 0x2018 <main+0x1aa2>
     4e8: 91 16        	sta	($16),y                 ; 0x2016 <main+0x1aa0>
     4ea: a5 19        	lda	$19                     ; 0x2019 <main+0x1aa3>
     4ec: 88           	dey
     4ed: 91 14        	sta	($14),y                 ; 0x2014 <main+0x1a9e>
     4ef: 18           	clc
     4f0: a5 1b        	lda	$1b                     ; 0x201b <main+0x1aa5>
     4f2: 69 02        	adc	#$2
     4f4: 85 14        	sta	$14                     ; 0x2014 <main+0x1a9e>
     4f6: a5 13        	lda	$13                     ; 0x2013 <main+0x1a9d>
     4f8: 69 00        	adc	#$0
     4fa: 85 15        	sta	$15                     ; 0x2015 <main+0x1a9f>
     4fc: c8           	iny
     4fd: b1 12        	lda	($12),y                 ; 0x2012 <main+0x1a9c>
     4ff: 85 16        	sta	$16                     ; 0x2016 <main+0x1aa0>
     501: 88           	dey
     502: b1 14        	lda	($14),y                 ; 0x2014 <main+0x1a9e>
     504: a4 16        	ldy	$16                     ; 0x2016 <main+0x1aa0>
     506: 84 14        	sty	$14                     ; 0x2014 <main+0x1a9e>
     508: 85 15        	sta	$15                     ; 0x2015 <main+0x1a9f>
     50a: 85 17        	sta	$17                     ; 0x2017 <main+0x1aa1>
     50c: a0 04        	ldy	#$4
     50e: a5 1c        	lda	$1c                     ; 0x201c <main+0x1aa6>
     510: 91 14        	sta	($14),y                 ; 0x2014 <main+0x1a9e>
     512: 18           	clc
     513: a5 16        	lda	$16                     ; 0x2016 <main+0x1aa0>
     515: 69 04        	adc	#$4
     517: 85 16        	sta	$16                     ; 0x2016 <main+0x1aa0>
     519: a5 17        	lda	$17                     ; 0x2017 <main+0x1aa1>
     51b: 69 00        	adc	#$0
     51d: 85 17        	sta	$17                     ; 0x2017 <main+0x1aa1>
     51f: 8a           	txa
     520: a0 01        	ldy	#$1
     522: 91 16        	sta	($16),y                 ; 0x2016 <main+0x1aa0>
     524: a6 62        	ldx	$62                     ; 0x2062 <main+0x1aec>
     526: e4 13        	cpx	$13                     ; 0x2013 <main+0x1a9d>
     528: d0 0e        	bne	$538 <_ZN12_GLOBAL__N_19FreeChunk6removeEv+0xd6>
     52a: a6 61        	ldx	$61                     ; 0x2061 <main+0x1aeb>
     52c: e4 12        	cpx	$12                     ; 0x2012 <main+0x1a9c>
     52e: d0 08        	bne	$538 <_ZN12_GLOBAL__N_19FreeChunk6removeEv+0xd6>
     530: a6 14        	ldx	$14                     ; 0x2014 <main+0x1a9e>
     532: a4 15        	ldy	$15                     ; 0x2015 <main+0x1a9f>
     534: 86 61        	stx	$61                     ; 0x2061 <main+0x1aeb>
     536: 84 62        	sty	$62                     ; 0x2062 <main+0x1aec>
     538: 60           	rts

00000539 <__zero_bss>:
     539: a2 39        	ldx	#$39
     53b: a0 13        	ldy	#$13
     53d: a9 5a        	lda	#$5a
     53f: 85 12        	sta	$12                     ; 0x2012 <main+0x1a9c>
     541: a9 5e        	lda	#$5e
     543: 85 13        	sta	$13                     ; 0x2013 <main+0x1a9d>
     545: a9 00        	lda	#$0
     547: 84 14        	sty	$14                     ; 0x2014 <main+0x1a9e>
     549: 4c de 59     	jmp	$59de <__memset>

0000054c <__zero_zp_bss>:
     54c: a2 1f        	ldx	#$1f
     54e: a0 00        	ldy	#$0
     550: a9 44        	lda	#$44
     552: 85 12        	sta	$12                     ; 0x2012 <main+0x1a9c>
     554: a9 00        	lda	#$0
     556: 85 13        	sta	$13                     ; 0x2013 <main+0x1a9d>
     558: a9 00        	lda	#$0
     55a: 84 14        	sty	$14                     ; 0x2014 <main+0x1a9e>
     55c: 4c de 59     	jmp	$59de <__memset>

0000055f <__copy_zp_data>:
     55f: a9 14        	lda	#$14
     561: a2 00        	ldx	#$0
     563: a0 30        	ldy	#$30
     565: 84 12        	sty	$12                     ; 0x2012 <main+0x1a9c>
     567: a0 00        	ldy	#$0
     569: 84 13        	sty	$13                     ; 0x2013 <main+0x1a9d>
     56b: a0 00        	ldy	#$0
     56d: 84 14        	sty	$14                     ; 0x2014 <main+0x1a9e>
     56f: a0 03        	ldy	#$3
     571: 84 15        	sty	$15                     ; 0x2015 <main+0x1a9f>
     573: 4c b2 59     	jmp	$59b2 <memcpy>

00000576 <main>:
     576: 18           	clc
     577: a5 10        	lda	$10                     ; 0x2010 <main+0x1a9a>
     579: 69 49        	adc	#$49
     57b: 85 10        	sta	$10                     ; 0x2010 <main+0x1a9a>
     57d: a5 11        	lda	$11                     ; 0x2011 <main+0x1a9b>
     57f: 69 df        	adc	#$df
     581: 85 11        	sta	$11                     ; 0x2011 <main+0x1a9b>
     583: a6 24        	ldx	$24                     ; 0x2024 <main+0x1aae>
     585: da           	phx
     586: a6 25        	ldx	$25                     ; 0x2025 <main+0x1aaf>
     588: da           	phx
     589: a6 26        	ldx	$26                     ; 0x2026 <main+0x1ab0>
     58b: da           	phx
     58c: a6 27        	ldx	$27                     ; 0x2027 <main+0x1ab1>
     58e: da           	phx
     58f: a5 28        	lda	$28                     ; 0x2028 <main+0x1ab2>
     591: a0 0d        	ldy	#$d
     593: 91 10        	sta	($10),y                 ; 0x2010 <main+0x1a9a>
     595: a5 29        	lda	$29                     ; 0x2029 <main+0x1ab3>
     597: 88           	dey
     598: 91 10        	sta	($10),y                 ; 0x2010 <main+0x1a9a>
     59a: a5 2a        	lda	$2a                     ; 0x202a <main+0x1ab4>
     59c: 88           	dey
     59d: 91 10        	sta	($10),y                 ; 0x2010 <main+0x1a9a>
     59f: a5 2b        	lda	$2b                     ; 0x202b <main+0x1ab5>
     5a1: 88           	dey
     5a2: 91 10        	sta	($10),y                 ; 0x2010 <main+0x1a9a>
     5a4: a5 2c        	lda	$2c                     ; 0x202c <main+0x1ab6>
     5a6: 88           	dey
     5a7: 91 10        	sta	($10),y                 ; 0x2010 <main+0x1a9a>
     5a9: a5 2d        	lda	$2d                     ; 0x202d <main+0x1ab7>
     5ab: 88           	dey
     5ac: 91 10        	sta	($10),y                 ; 0x2010 <main+0x1a9a>
     5ae: a5 2e        	lda	$2e                     ; 0x202e <main+0x1ab8>
     5b0: 88           	dey
     5b1: 91 10        	sta	($10),y                 ; 0x2010 <main+0x1a9a>
     5b3: a5 2f        	lda	$2f                     ; 0x202f <main+0x1ab9>
     5b5: 88           	dey
     5b6: 91 10        	sta	($10),y                 ; 0x2010 <main+0x1a9a>
     5b8: 64 1c        	stz	$1c                     ; 0x201c <main+0x1aa6>
     5ba: a2 00        	ldx	#$0
     5bc: 86 1a        	stx	$1a                     ; 0x201a <main+0x1aa4>
     5be: a2 d0        	ldx	#$d0
     5c0: 86 1b        	stx	$1b                     ; 0x201b <main+0x1aa5>
     5c2: a2 00        	ldx	#$0
     5c4: 86 16        	stx	$16                     ; 0x2016 <main+0x1aa0>
     5c6: a2 d8        	ldx	#$d8
     5c8: 86 17        	stx	$17                     ; 0x2017 <main+0x1aa1>
     5ca: a2 00        	ldx	#$0
     5cc: 86 18        	stx	$18                     ; 0x2018 <main+0x1aa2>
     5ce: a2 d4        	ldx	#$d4
     5d0: 86 19        	stx	$19                     ; 0x2019 <main+0x1aa3>
     5d2: a2 00        	ldx	#$0
     5d4: 86 14        	stx	$14                     ; 0x2014 <main+0x1a9e>
     5d6: a2 dc        	ldx	#$dc
     5d8: 86 15        	stx	$15                     ; 0x2015 <main+0x1a9f>
     5da: a2 00        	ldx	#$0
     5dc: 86 12        	stx	$12                     ; 0x2012 <main+0x1a9c>
     5de: a2 c0        	ldx	#$c0
     5e0: 86 13        	stx	$13                     ; 0x2013 <main+0x1a9d>
     5e2: 64 01        	stz	$1                      ; 0x2001 <main+0x1a8b>
     5e4: a2 3f        	ldx	#$3f
     5e6: 8e 00 d0     	stx	$d000                   ; 0xd000 <__heap_start+0x5e6c>
     5e9: a2 b3        	ldx	#$b3
     5eb: 86 00        	stx	$0                      ; 0x2000 <main+0x1a8a>
     5ed: 64 08        	stz	$8                      ; 0x2008 <main+0x1a92>
     5ef: a2 01        	ldx	#$1
     5f1: 86 09        	stx	$9                      ; 0x2009 <main+0x1a93>
     5f3: e8           	inx
     5f4: 86 0a        	stx	$a                      ; 0x200a <main+0x1a94>
     5f6: e8           	inx
     5f7: 86 0b        	stx	$b                      ; 0x200b <main+0x1a95>
     5f9: e8           	inx
     5fa: 86 0c        	stx	$c                      ; 0x200c <main+0x1a96>
     5fc: e8           	inx
     5fd: 86 0d        	stx	$d                      ; 0x200d <main+0x1a97>
     5ff: a2 57        	ldx	#$57
     601: a9 00        	lda	#$0
     603: 86 f0        	stx	$f0                     ; 0x20f0 <main+0x1b7a>
     605: 85 f1        	sta	$f1                     ; 0x20f1 <main+0x1b7b>
     607: a6 01        	ldx	$1                      ; 0x2001 <main+0x1a8b>
     609: a0 01        	ldy	#$1
     60b: 84 01        	sty	$1                      ; 0x2001 <main+0x1a8b>
     60d: a5 1c        	lda	$1c                     ; 0x201c <main+0x1aa6>
     60f: 92 1a        	sta	($1a)                   ; 0x201a <main+0x1aa4>
     611: 91 1a        	sta	($1a),y                 ; 0x201a <main+0x1aa4>
     613: c8           	iny
     614: 91 1a        	sta	($1a),y                 ; 0x201a <main+0x1aa4>
     616: c8           	iny
     617: a9 ff        	lda	#$ff
     619: 91 1a        	sta	($1a),y                 ; 0x201a <main+0x1aa4>
     61b: 86 01        	stx	$1                      ; 0x2001 <main+0x1a8b>
     61d: a5 1a        	lda	$1a                     ; 0x201a <main+0x1aa4>
     61f: 18           	clc
     620: 69 04        	adc	#$4
     622: 85 1a        	sta	$1a                     ; 0x201a <main+0x1aa4>
     624: a5 1b        	lda	$1b                     ; 0x201b <main+0x1aa5>
     626: 69 00        	adc	#$0
     628: e6 1c        	inc	$1c                     ; 0x201c <main+0x1aa6>
     62a: 85 1b        	sta	$1b                     ; 0x201b <main+0x1aa5>
     62c: d0 d9        	bne	$607 <main+0x91>
     62e: a9 00        	lda	#$0
     630: a6 01        	ldx	$1                      ; 0x2001 <main+0x1a8b>
     632: a0 01        	ldy	#$1
     634: 84 01        	sty	$1                      ; 0x2001 <main+0x1a8b>
     636: 92 18        	sta	($18)                   ; 0x2018 <main+0x1aa2>
     638: 91 18        	sta	($18),y                 ; 0x2018 <main+0x1aa2>
     63a: c8           	iny
     63b: 91 18        	sta	($18),y                 ; 0x2018 <main+0x1aa2>
     63d: c8           	iny
     63e: 85 1a        	sta	$1a                     ; 0x201a <main+0x1aa4>
     640: a9 ff        	lda	#$ff
     642: 91 18        	sta	($18),y                 ; 0x2018 <main+0x1aa2>
     644: 86 01        	stx	$1                      ; 0x2001 <main+0x1a8b>
     646: a5 18        	lda	$18                     ; 0x2018 <main+0x1aa2>
     648: 18           	clc
     649: 69 04        	adc	#$4
     64b: 85 18        	sta	$18                     ; 0x2018 <main+0x1aa2>
     64d: a5 19        	lda	$19                     ; 0x2019 <main+0x1aa3>
     64f: 69 00        	adc	#$0
     651: e6 1a        	inc	$1a                     ; 0x201a <main+0x1aa4>
     653: 85 19        	sta	$19                     ; 0x2019 <main+0x1aa3>
     655: a5 1a        	lda	$1a                     ; 0x201a <main+0x1aa4>
     657: d0 d7        	bne	$630 <main+0xba>
     659: a9 00        	lda	#$0
     65b: a6 01        	ldx	$1                      ; 0x2001 <main+0x1a8b>
     65d: a0 01        	ldy	#$1
     65f: 84 01        	sty	$1                      ; 0x2001 <main+0x1a8b>
     661: 92 16        	sta	($16)                   ; 0x2016 <main+0x1aa0>
     663: 91 16        	sta	($16),y                 ; 0x2016 <main+0x1aa0>
     665: c8           	iny
     666: 91 16        	sta	($16),y                 ; 0x2016 <main+0x1aa0>
     668: c8           	iny
     669: 85 18        	sta	$18                     ; 0x2018 <main+0x1aa2>
     66b: a9 ff        	lda	#$ff
     66d: 91 16        	sta	($16),y                 ; 0x2016 <main+0x1aa0>
     66f: 86 01        	stx	$1                      ; 0x2001 <main+0x1a8b>
     671: a5 16        	lda	$16                     ; 0x2016 <main+0x1aa0>
     673: 18           	clc
     674: 69 04        	adc	#$4
     676: 85 16        	sta	$16                     ; 0x2016 <main+0x1aa0>
     678: a5 17        	lda	$17                     ; 0x2017 <main+0x1aa1>
     67a: 69 00        	adc	#$0
     67c: e6 18        	inc	$18                     ; 0x2018 <main+0x1aa2>
     67e: 85 17        	sta	$17                     ; 0x2017 <main+0x1aa1>
     680: a5 18        	lda	$18                     ; 0x2018 <main+0x1aa2>
     682: d0 d7        	bne	$65b <main+0xe5>
     684: a9 00        	lda	#$0
     686: a6 01        	ldx	$1                      ; 0x2001 <main+0x1a8b>
     688: a0 01        	ldy	#$1
     68a: 84 01        	sty	$1                      ; 0x2001 <main+0x1a8b>
     68c: 92 14        	sta	($14)                   ; 0x2014 <main+0x1a9e>
     68e: 91 14        	sta	($14),y                 ; 0x2014 <main+0x1a9e>
     690: c8           	iny
     691: 91 14        	sta	($14),y                 ; 0x2014 <main+0x1a9e>
     693: c8           	iny
     694: 85 16        	sta	$16                     ; 0x2016 <main+0x1aa0>
     696: a9 ff        	lda	#$ff
     698: 91 14        	sta	($14),y                 ; 0x2014 <main+0x1a9e>
     69a: 86 01        	stx	$1                      ; 0x2001 <main+0x1a8b>
     69c: a5 14        	lda	$14                     ; 0x2014 <main+0x1a9e>
     69e: 18           	clc
     69f: 69 04        	adc	#$4
     6a1: 85 14        	sta	$14                     ; 0x2014 <main+0x1a9e>
     6a3: a5 15        	lda	$15                     ; 0x2015 <main+0x1a9f>
     6a5: 69 00        	adc	#$0
     6a7: e6 16        	inc	$16                     ; 0x2016 <main+0x1aa0>
     6a9: 85 15        	sta	$15                     ; 0x2015 <main+0x1a9f>
     6ab: a5 16        	lda	$16                     ; 0x2016 <main+0x1aa0>
     6ad: d0 d7        	bne	$686 <main+0x110>
     6af: ad 02 d0     	lda	$d002                   ; 0xd002 <__heap_start+0x5e6e>
     6b2: a2 f0        	ldx	#$f0
     6b4: 29 f0        	and	#$f0
     6b6: 8d 02 d0     	sta	$d002                   ; 0xd002 <__heap_start+0x5e6e>
     6b9: ad 02 d0     	lda	$d002                   ; 0xd002 <__heap_start+0x5e6e>
     6bc: 29 0f        	and	#$f
     6be: 09 10        	ora	#$10
     6c0: 8d 02 d0     	sta	$d002                   ; 0xd002 <__heap_start+0x5e6e>
     6c3: a0 02        	ldy	#$2
     6c5: 8c 03 d0     	sty	$d003                   ; 0xd003 <__heap_start+0x5e6f>
     6c8: 86 30        	stx	$30                     ; 0x2030 <main+0x1aba>
     6ca: ad 01 d0     	lda	$d001                   ; 0xd001 <__heap_start+0x5e6d>
     6cd: 29 f9        	and	#$f9
     6cf: 09 04        	ora	#$4
     6d1: 8d 01 d0     	sta	$d001                   ; 0xd001 <__heap_start+0x5e6d>
     6d4: 64 14        	stz	$14                     ; 0x2014 <main+0x1a9e>
     6d6: 9c 10 d0     	stz	$d010                   ; 0xd010 <__heap_start+0x5e7c>
     6d9: a2 00        	ldx	#$0
     6db: 64 15        	stz	$15                     ; 0x2015 <main+0x1a9f>
     6dd: 86 18        	stx	$18                     ; 0x2018 <main+0x1aa2>
     6df: a4 18        	ldy	$18                     ; 0x2018 <main+0x1aa2>
     6e1: be d9 5a     	ldx	$5ad9,y                 ; 0x5ad9 <textColors>
     6e4: 86 19        	stx	$19                     ; 0x2019 <main+0x1aa3>
     6e6: be da 5a     	ldx	$5ada,y                 ; 0x5ada <textColors+0x1>
     6e9: 86 1a        	stx	$1a                     ; 0x201a <main+0x1aa4>
     6eb: be db 5a     	ldx	$5adb,y                 ; 0x5adb <textColors+0x2>
     6ee: 86 1b        	stx	$1b                     ; 0x201b <main+0x1aa5>
     6f0: a6 15        	ldx	$15                     ; 0x2015 <main+0x1a9f>
     6f2: 8e 00 de     	stx	$de00                   ; 0xde00 <__heap_start+0x6c6c>
     6f5: 86 17        	stx	$17                     ; 0x2017 <main+0x1aa1>
     6f7: 9c 01 de     	stz	$de01                   ; 0xde01 <__heap_start+0x6c6d>
     6fa: a2 04        	ldx	#$4
     6fc: 8e 02 de     	stx	$de02                   ; 0xde02 <__heap_start+0x6c6e>
     6ff: 9c 03 de     	stz	$de03                   ; 0xde03 <__heap_start+0x6c6f>
     702: ad 10 de     	lda	$de10                   ; 0xde10 <__heap_start+0x6c7c>
     705: ac 11 de     	ldy	$de11                   ; 0xde11 <__heap_start+0x6c7d>
     708: 84 15        	sty	$15                     ; 0x2015 <main+0x1a9f>
     70a: ac 12 de     	ldy	$de12                   ; 0xde12 <__heap_start+0x6c7e>
     70d: ac 13 de     	ldy	$de13                   ; 0xde13 <__heap_start+0x6c7f>
     710: 18           	clc
     711: 65 14        	adc	$14                     ; 0x2014 <main+0x1a9e>
     713: 85 16        	sta	$16                     ; 0x2016 <main+0x1aa0>
     715: a6 17        	ldx	$17                     ; 0x2017 <main+0x1aa1>
     717: a9 d8        	lda	#$d8
     719: 65 15        	adc	$15                     ; 0x2015 <main+0x1a9f>
     71b: 85 17        	sta	$17                     ; 0x2017 <main+0x1aa1>
     71d: a5 1b        	lda	$1b                     ; 0x201b <main+0x1aa5>
     71f: 92 16        	sta	($16)                   ; 0x2016 <main+0x1aa0>
     721: a0 01        	ldy	#$1
     723: a5 1a        	lda	$1a                     ; 0x201a <main+0x1aa4>
     725: 91 16        	sta	($16),y                 ; 0x2016 <main+0x1aa0>
     727: c8           	iny
     728: a5 19        	lda	$19                     ; 0x2019 <main+0x1aa3>
     72a: 91 16        	sta	($16),y                 ; 0x2016 <main+0x1aa0>
     72c: c8           	iny
     72d: a9 ff        	lda	#$ff
     72f: 91 16        	sta	($16),y                 ; 0x2016 <main+0x1aa0>
     731: 8e 00 de     	stx	$de00                   ; 0xde00 <__heap_start+0x6c6c>
     734: 9c 01 de     	stz	$de01                   ; 0xde01 <__heap_start+0x6c6d>
     737: c8           	iny
     738: 8c 02 de     	sty	$de02                   ; 0xde02 <__heap_start+0x6c6e>
     73b: 9c 03 de     	stz	$de03                   ; 0xde03 <__heap_start+0x6c6f>
     73e: ad 10 de     	lda	$de10                   ; 0xde10 <__heap_start+0x6c7c>
     741: 85 15        	sta	$15                     ; 0x2015 <main+0x1a9f>
     743: ad 11 de     	lda	$de11                   ; 0xde11 <__heap_start+0x6c7d>
     746: 85 16        	sta	$16                     ; 0x2016 <main+0x1aa0>
     748: a9 40        	lda	#$40
     74a: 18           	clc
     74b: 65 15        	adc	$15                     ; 0x2015 <main+0x1a9f>
     74d: a8           	tay
     74e: a9 d8        	lda	#$d8
     750: 65 16        	adc	$16                     ; 0x2016 <main+0x1aa0>
     752: 85 17        	sta	$17                     ; 0x2017 <main+0x1aa1>
     754: 84 16        	sty	$16                     ; 0x2016 <main+0x1aa0>
     756: ad 12 de     	lda	$de12                   ; 0xde12 <__heap_start+0x6c7e>
     759: ad 13 de     	lda	$de13                   ; 0xde13 <__heap_start+0x6c7f>
     75c: a5 1b        	lda	$1b                     ; 0x201b <main+0x1aa5>
     75e: 92 16        	sta	($16)                   ; 0x2016 <main+0x1aa0>
     760: a5 1a        	lda	$1a                     ; 0x201a <main+0x1aa4>
     762: a0 01        	ldy	#$1
     764: 91 16        	sta	($16),y                 ; 0x2016 <main+0x1aa0>
     766: a5 19        	lda	$19                     ; 0x2019 <main+0x1aa3>
     768: c8           	iny
     769: 91 16        	sta	($16),y                 ; 0x2016 <main+0x1aa0>
     76b: c8           	iny
     76c: a9 ff        	lda	#$ff
     76e: 91 16        	sta	($16),y                 ; 0x2016 <main+0x1aa0>
     770: e8           	inx
     771: 86 15        	stx	$15                     ; 0x2015 <main+0x1a9f>
     773: 18           	clc
     774: a5 18        	lda	$18                     ; 0x2018 <main+0x1aa2>
     776: 69 03        	adc	#$3
     778: aa           	tax
     779: c9 30        	cmp	#$30
     77b: f0 03        	beq	$780 <main+0x20a>
     77d: 4c dd 06     	jmp	$6dd <main+0x167>
     780: a6 01        	ldx	$1                      ; 0x2001 <main+0x1a8b>
     782: 86 18        	stx	$18                     ; 0x2018 <main+0x1aa2>
     784: a2 50        	ldx	#$50
     786: 8e 00 de     	stx	$de00                   ; 0xde00 <__heap_start+0x6c6c>
     789: 9c 01 de     	stz	$de01                   ; 0xde01 <__heap_start+0x6c6d>
     78c: a2 1e        	ldx	#$1e
     78e: 8e 02 de     	stx	$de02                   ; 0xde02 <__heap_start+0x6c6e>
     791: 9c 03 de     	stz	$de03                   ; 0xde03 <__heap_start+0x6c6f>
     794: ae 10 de     	ldx	$de10                   ; 0xde10 <__heap_start+0x6c7c>
     797: ac 11 de     	ldy	$de11                   ; 0xde11 <__heap_start+0x6c7d>
     79a: ad 12 de     	lda	$de12                   ; 0xde12 <__heap_start+0x6c7e>
     79d: ad 13 de     	lda	$de13                   ; 0xde13 <__heap_start+0x6c7f>
     7a0: a9 02        	lda	#$2
     7a2: 85 01        	sta	$1                      ; 0x2001 <main+0x1a8b>
     7a4: e0 01        	cpx	#$1
     7a6: 98           	tya
     7a7: e9 00        	sbc	#$0
     7a9: 50 02        	bvc	$7ad <main+0x237>
     7ab: 49 80        	eor	#$80
     7ad: c9 00        	cmp	#$0
     7af: 10 03        	bpl	$7b4 <main+0x23e>
     7b1: 4c 08 08     	jmp	$808 <main+0x292>
     7b4: a9 20        	lda	#$20
     7b6: 86 19        	stx	$19                     ; 0x2019 <main+0x1aa3>
     7b8: 86 14        	stx	$14                     ; 0x2014 <main+0x1a9e>
     7ba: 84 15        	sty	$15                     ; 0x2015 <main+0x1a9f>
     7bc: a2 00        	ldx	#$0
     7be: 86 16        	stx	$16                     ; 0x2016 <main+0x1aa0>
     7c0: a2 c0        	ldx	#$c0
     7c2: 86 17        	stx	$17                     ; 0x2017 <main+0x1aa1>
     7c4: 80 04        	bra	$7ca <main+0x254>
     7c6: a6 15        	ldx	$15                     ; 0x2015 <main+0x1a9f>
     7c8: f0 14        	beq	$7de <main+0x268>
     7ca: 92 16        	sta	($16)                   ; 0x2016 <main+0x1aa0>
     7cc: e6 16        	inc	$16                     ; 0x2016 <main+0x1aa0>
     7ce: d0 02        	bne	$7d2 <main+0x25c>
     7d0: e6 17        	inc	$17                     ; 0x2017 <main+0x1aa1>
     7d2: a2 ff        	ldx	#$ff
     7d4: c6 14        	dec	$14                     ; 0x2014 <main+0x1a9e>
     7d6: e4 14        	cpx	$14                     ; 0x2014 <main+0x1a9e>
     7d8: d0 ec        	bne	$7c6 <main+0x250>
     7da: c6 15        	dec	$15                     ; 0x2015 <main+0x1a9f>
     7dc: 80 e8        	bra	$7c6 <main+0x250>
     7de: a6 14        	ldx	$14                     ; 0x2014 <main+0x1a9e>
     7e0: d0 e8        	bne	$7ca <main+0x254>
     7e2: a2 03        	ldx	#$3
     7e4: 86 01        	stx	$1                      ; 0x2001 <main+0x1a8b>
     7e6: a6 30        	ldx	$30                     ; 0x2030 <main+0x1aba>
     7e8: 86 14        	stx	$14                     ; 0x2014 <main+0x1a9e>
     7ea: a6 19        	ldx	$19                     ; 0x2019 <main+0x1aa3>
     7ec: 80 03        	bra	$7f1 <main+0x27b>
     7ee: 98           	tya
     7ef: f0 12        	beq	$803 <main+0x28d>
     7f1: a5 14        	lda	$14                     ; 0x2014 <main+0x1a9e>
     7f3: 92 12        	sta	($12)                   ; 0x2012 <main+0x1a9c>
     7f5: e6 12        	inc	$12                     ; 0x2012 <main+0x1a9c>
     7f7: d0 02        	bne	$7fb <main+0x285>
     7f9: e6 13        	inc	$13                     ; 0x2013 <main+0x1a9d>
     7fb: ca           	dex
     7fc: e0 ff        	cpx	#$ff
     7fe: d0 ee        	bne	$7ee <main+0x278>
     800: 88           	dey
     801: 80 eb        	bra	$7ee <main+0x278>
     803: 8a           	txa
     804: d0 eb        	bne	$7f1 <main+0x27b>
     806: 80 04        	bra	$80c <main+0x296>
     808: a2 03        	ldx	#$3
     80a: 86 01        	stx	$1                      ; 0x2001 <main+0x1a8b>
     80c: a6 18        	ldx	$18                     ; 0x2018 <main+0x1aa2>
     80e: 86 01        	stx	$1                      ; 0x2001 <main+0x1a8b>
     810: 64 44        	stz	$44                     ; 0x2044 <main+0x1ace>
     812: 9c 14 d0     	stz	$d014                   ; 0xd014 <__heap_start+0x5e80>
     815: 9c 15 d0     	stz	$d015                   ; 0xd015 <__heap_start+0x5e81>
     818: 64 45        	stz	$45                     ; 0x2045 <main+0x1acf>
     81a: 9c 16 d0     	stz	$d016                   ; 0xd016 <__heap_start+0x5e82>
     81d: 9c 17 d0     	stz	$d017                   ; 0xd017 <__heap_start+0x5e83>
     820: a2 40        	ldx	#$40
     822: 8e 00 de     	stx	$de00                   ; 0xde00 <__heap_start+0x6c6c>
     825: a2 01        	ldx	#$1
     827: 8e 01 de     	stx	$de01                   ; 0xde01 <__heap_start+0x6c6d>
     82a: a2 f0        	ldx	#$f0
     82c: 8e 02 de     	stx	$de02                   ; 0xde02 <__heap_start+0x6c6e>
     82f: 9c 03 de     	stz	$de03                   ; 0xde03 <__heap_start+0x6c6f>
     832: ae 10 de     	ldx	$de10                   ; 0xde10 <__heap_start+0x6c7c>
     835: 86 17        	stx	$17                     ; 0x2017 <main+0x1aa1>
     837: ae 11 de     	ldx	$de11                   ; 0xde11 <__heap_start+0x6c7d>
     83a: 86 12        	stx	$12                     ; 0x2012 <main+0x1a9c>
     83c: ae 12 de     	ldx	$de12                   ; 0xde12 <__heap_start+0x6c7e>
     83f: 86 13        	stx	$13                     ; 0x2013 <main+0x1a9d>
     841: ae 13 de     	ldx	$de13                   ; 0xde13 <__heap_start+0x6c7f>
     844: 86 14        	stx	$14                     ; 0x2014 <main+0x1a9e>
     846: a4 12        	ldy	$12                     ; 0x2012 <main+0x1a9c>
     848: 84 15        	sty	$15                     ; 0x2015 <main+0x1a9f>
     84a: 06 15        	asl	$15                     ; 0x2015 <main+0x1a9f>
     84c: a5 13        	lda	$13                     ; 0x2013 <main+0x1a9d>
     84e: 2a           	rol
     84f: 86 16        	stx	$16                     ; 0x2016 <main+0x1aa0>
     851: 26 16        	rol	$16                     ; 0x2016 <main+0x1aa0>
     853: 06 15        	asl	$15                     ; 0x2015 <main+0x1a9f>
     855: 2a           	rol
     856: 26 16        	rol	$16                     ; 0x2016 <main+0x1aa0>
     858: 06 15        	asl	$15                     ; 0x2015 <main+0x1a9f>
     85a: 2a           	rol
     85b: 26 16        	rol	$16                     ; 0x2016 <main+0x1aa0>
     85d: 85 15        	sta	$15                     ; 0x2015 <main+0x1a9f>
     85f: 8d 00 de     	sta	$de00                   ; 0xde00 <__heap_start+0x6c6c>
     862: a5 16        	lda	$16                     ; 0x2016 <main+0x1aa0>
     864: 8d 01 de     	sta	$de01                   ; 0xde01 <__heap_start+0x6c6d>
     867: 9c 02 de     	stz	$de02                   ; 0xde02 <__heap_start+0x6c6e>
     86a: a2 20        	ldx	#$20
     86c: 8e 03 de     	stx	$de03                   ; 0xde03 <__heap_start+0x6c6f>
     86f: ae 10 de     	ldx	$de10                   ; 0xde10 <__heap_start+0x6c7c>
     872: 86 16        	stx	$16                     ; 0x2016 <main+0x1aa0>
     874: ae 11 de     	ldx	$de11                   ; 0xde11 <__heap_start+0x6c7d>
     877: 86 18        	stx	$18                     ; 0x2018 <main+0x1aa2>
     879: ac 12 de     	ldy	$de12                   ; 0xde12 <__heap_start+0x6c7e>
     87c: ae 13 de     	ldx	$de13                   ; 0xde13 <__heap_start+0x6c7f>
     87f: e4 14        	cpx	$14                     ; 0x2014 <main+0x1a9e>
     881: d0 14        	bne	$897 <main+0x321>
     883: c4 13        	cpy	$13                     ; 0x2013 <main+0x1a9d>
     885: d0 10        	bne	$897 <main+0x321>
     887: a6 18        	ldx	$18                     ; 0x2018 <main+0x1aa2>
     889: e4 12        	cpx	$12                     ; 0x2012 <main+0x1a9c>
     88b: d0 0a        	bne	$897 <main+0x321>
     88d: a6 16        	ldx	$16                     ; 0x2016 <main+0x1aa0>
     88f: e4 17        	cpx	$17                     ; 0x2017 <main+0x1aa1>
     891: d0 04        	bne	$897 <main+0x321>
     893: a6 15        	ldx	$15                     ; 0x2015 <main+0x1a9f>
     895: 80 06        	bra	$89d <main+0x327>
     897: a6 15        	ldx	$15                     ; 0x2015 <main+0x1a9f>
     899: e8           	inx
     89a: d0 01        	bne	$89d <main+0x327>
     89c: 1a           	inc
     89d: 8e 00 de     	stx	$de00                   ; 0xde00 <__heap_start+0x6c6c>
     8a0: 8d 01 de     	sta	$de01                   ; 0xde01 <__heap_start+0x6c6d>
     8a3: 9c 02 de     	stz	$de02                   ; 0xde02 <__heap_start+0x6c6e>
     8a6: a2 20        	ldx	#$20
     8a8: 8e 03 de     	stx	$de03                   ; 0xde03 <__heap_start+0x6c6f>
     8ab: ae 10 de     	ldx	$de10                   ; 0xde10 <__heap_start+0x6c7c>
     8ae: 86 12        	stx	$12                     ; 0x2012 <main+0x1a9c>
     8b0: ae 11 de     	ldx	$de11                   ; 0xde11 <__heap_start+0x6c7d>
     8b3: 86 13        	stx	$13                     ; 0x2013 <main+0x1a9d>
     8b5: ae 12 de     	ldx	$de12                   ; 0xde12 <__heap_start+0x6c7e>
     8b8: 86 14        	stx	$14                     ; 0x2014 <main+0x1a9e>
     8ba: ae 13 de     	ldx	$de13                   ; 0xde13 <__heap_start+0x6c7f>
     8bd: 86 15        	stx	$15                     ; 0x2015 <main+0x1a9f>
     8bf: a9 00        	lda	#$0
     8c1: 38           	sec
     8c2: e5 12        	sbc	$12                     ; 0x2012 <main+0x1a9c>
     8c4: 85 17        	sta	$17                     ; 0x2017 <main+0x1aa1>
     8c6: a9 00        	lda	#$0
     8c8: e5 13        	sbc	$13                     ; 0x2013 <main+0x1a9d>
     8ca: aa           	tax
     8cb: a9 08        	lda	#$8
     8cd: e5 14        	sbc	$14                     ; 0x2014 <main+0x1a9e>
     8cf: 85 16        	sta	$16                     ; 0x2016 <main+0x1aa0>
     8d1: a9 00        	lda	#$0
     8d3: e5 15        	sbc	$15                     ; 0x2015 <main+0x1a9f>
     8d5: 86 47        	stx	$47                     ; 0x2047 <main+0x1ad1>
     8d7: a4 16        	ldy	$16                     ; 0x2016 <main+0x1aa0>
     8d9: 84 48        	sty	$48                     ; 0x2048 <main+0x1ad2>
     8db: 85 49        	sta	$49                     ; 0x2049 <main+0x1ad3>
     8dd: a5 17        	lda	$17                     ; 0x2017 <main+0x1aa1>
     8df: 38           	sec
     8e0: e5 12        	sbc	$12                     ; 0x2012 <main+0x1a9c>
     8e2: a8           	tay
     8e3: 8a           	txa
     8e4: e5 13        	sbc	$13                     ; 0x2013 <main+0x1a9d>
     8e6: 85 18        	sta	$18                     ; 0x2018 <main+0x1aa2>
     8e8: a5 16        	lda	$16                     ; 0x2016 <main+0x1aa0>
     8ea: e5 14        	sbc	$14                     ; 0x2014 <main+0x1a9e>
     8ec: 85 15        	sta	$15                     ; 0x2015 <main+0x1a9f>
     8ee: 98           	tya
     8ef: 84 16        	sty	$16                     ; 0x2016 <main+0x1aa0>
     8f1: 38           	sec
     8f2: e5 12        	sbc	$12                     ; 0x2012 <main+0x1a9c>
     8f4: 85 12        	sta	$12                     ; 0x2012 <main+0x1a9c>
     8f6: a5 18        	lda	$18                     ; 0x2018 <main+0x1aa2>
     8f8: e5 13        	sbc	$13                     ; 0x2013 <main+0x1a9d>
     8fa: 85 13        	sta	$13                     ; 0x2013 <main+0x1a9d>
     8fc: a4 15        	ldy	$15                     ; 0x2015 <main+0x1a9f>
     8fe: a5 15        	lda	$15                     ; 0x2015 <main+0x1a9f>
     900: e5 14        	sbc	$14                     ; 0x2014 <main+0x1a9e>
     902: a6 17        	ldx	$17                     ; 0x2017 <main+0x1aa1>
     904: 86 46        	stx	$46                     ; 0x2046 <main+0x1ad0>
     906: 8e 01 d1     	stx	$d101                   ; 0xd101 <__heap_start+0x5f6d>
     909: a6 47        	ldx	$47                     ; 0x2047 <main+0x1ad1>
     90b: 8e 02 d1     	stx	$d102                   ; 0xd102 <__heap_start+0x5f6e>
     90e: a6 48        	ldx	$48                     ; 0x2048 <main+0x1ad2>
     910: 8e 03 d1     	stx	$d103                   ; 0xd103 <__heap_start+0x5f6f>
     913: a6 16        	ldx	$16                     ; 0x2016 <main+0x1aa0>
     915: 8e 09 d1     	stx	$d109                   ; 0xd109 <__heap_start+0x5f75>
     918: a6 18        	ldx	$18                     ; 0x2018 <main+0x1aa2>
     91a: 8e 0a d1     	stx	$d10a                   ; 0xd10a <__heap_start+0x5f76>
     91d: 8c 0b d1     	sty	$d10b                   ; 0xd10b <__heap_start+0x5f77>
     920: a6 12        	ldx	$12                     ; 0x2012 <main+0x1a9c>
     922: 8e 11 d1     	stx	$d111                   ; 0xd111 <__heap_start+0x5f7d>
     925: a6 13        	ldx	$13                     ; 0x2013 <main+0x1a9d>
     927: 8e 12 d1     	stx	$d112                   ; 0xd112 <__heap_start+0x5f7e>
     92a: 8d 13 d1     	sta	$d113                   ; 0xd113 <__heap_start+0x5f7f>
     92d: 9c 00 d1     	stz	$d100                   ; 0xd100 <__heap_start+0x5f6c>
     930: 9c 08 d1     	stz	$d108                   ; 0xd108 <__heap_start+0x5f74>
     933: 9c 10 d1     	stz	$d110                   ; 0xd110 <__heap_start+0x5f7c>
     936: a2 10        	ldx	#$10
     938: 8e 00 d2     	stx	$d200                   ; 0xd200 <__heap_start+0x606c>
     93b: 8e 0c d2     	stx	$d20c                   ; 0xd20c <__heap_start+0x6078>
     93e: 8e 18 d2     	stx	$d218                   ; 0xd218 <__heap_start+0x6084>
     941: a0 d9        	ldy	#$d9
     943: a2 40        	ldx	#$40
     945: 64 12        	stz	$12                     ; 0x2012 <main+0x1a9c>
     947: 84 13        	sty	$13                     ; 0x2013 <main+0x1a9d>
     949: a9 00        	lda	#$0
     94b: 92 12        	sta	($12)                   ; 0x2012 <main+0x1a9c>
     94d: ca           	dex
     94e: 18           	clc
     94f: a5 12        	lda	$12                     ; 0x2012 <main+0x1a9c>
     951: 69 08        	adc	#$8
     953: 85 12        	sta	$12                     ; 0x2012 <main+0x1a9c>
     955: 98           	tya
     956: 69 00        	adc	#$0
     958: a8           	tay
     959: 8a           	txa
     95a: d0 eb        	bne	$947 <main+0x3d1>
     95c: 64 4a        	stz	$4a                     ; 0x204a <main+0x1ad4>
     95e: 64 4b        	stz	$4b                     ; 0x204b <main+0x1ad5>
     960: 64 4c        	stz	$4c                     ; 0x204c <main+0x1ad6>
     962: 64 4d        	stz	$4d                     ; 0x204d <main+0x1ad7>
     964: 64 4e        	stz	$4e                     ; 0x204e <main+0x1ad8>
     966: 64 4f        	stz	$4f                     ; 0x204f <main+0x1ad9>
     968: 64 50        	stz	$50                     ; 0x2050 <main+0x1ada>
     96a: 64 51        	stz	$51                     ; 0x2051 <main+0x1adb>
     96c: 18           	clc
     96d: a5 10        	lda	$10                     ; 0x2010 <main+0x1a9a>
     96f: 69 3b        	adc	#$3b
     971: 85 28        	sta	$28                     ; 0x2028 <main+0x1ab2>
     973: a5 11        	lda	$11                     ; 0x2011 <main+0x1a9b>
     975: 69 00        	adc	#$0
     977: 85 29        	sta	$29                     ; 0x2029 <main+0x1ab3>
     979: a6 28        	ldx	$28                     ; 0x2028 <main+0x1ab2>
     97b: 86 fb        	stx	$fb                     ; 0x20fb <main+0x1b85>
     97d: 85 fc        	sta	$fc                     ; 0x20fc <main+0x1b86>
     97f: a2 08        	ldx	#$8
     981: 86 fd        	stx	$fd                     ; 0x20fd <main+0x1b87>
     983: 18           	clc
     984: a5 10        	lda	$10                     ; 0x2010 <main+0x1a9a>
     986: 69 77        	adc	#$77
     988: 85 2a        	sta	$2a                     ; 0x202a <main+0x1ab4>
     98a: a5 11        	lda	$11                     ; 0x2011 <main+0x1a9b>
     98c: 69 20        	adc	#$20
     98e: 85 2b        	sta	$2b                     ; 0x202b <main+0x1ab5>
     990: a2 56        	ldx	#$56
     992: 86 12        	stx	$12                     ; 0x2012 <main+0x1a9c>
     994: a2 00        	ldx	#$0
     996: 86 13        	stx	$13                     ; 0x2013 <main+0x1a9d>
     998: a0 06        	ldy	#$6
     99a: 20 dc ff     	jsr	$ffdc <__heap_start+0x8e48>
     99d: 92 2a        	sta	($2a)                   ; 0x202a <main+0x1ab4>
     99f: a9 00        	lda	#$0
     9a1: 6a           	ror
     9a2: 85 12        	sta	$12                     ; 0x2012 <main+0x1a9c>
     9a4: b1 28        	lda	($28),y                 ; 0x2028 <main+0x1ab2>
     9a6: 85 12        	sta	$12                     ; 0x2012 <main+0x1a9c>
     9a8: c8           	iny
     9a9: b1 28        	lda	($28),y                 ; 0x2028 <main+0x1ab2>
     9ab: a6 12        	ldx	$12                     ; 0x2012 <main+0x1a9c>
     9ad: 8e 00 de     	stx	$de00                   ; 0xde00 <__heap_start+0x6c6c>
     9b0: 9c 01 de     	stz	$de01                   ; 0xde01 <__heap_start+0x6c6d>
     9b3: 8d 02 de     	sta	$de02                   ; 0xde02 <__heap_start+0x6c6e>
     9b6: 9c 03 de     	stz	$de03                   ; 0xde03 <__heap_start+0x6c6f>
     9b9: ae 10 de     	ldx	$de10                   ; 0xde10 <__heap_start+0x6c7c>
     9bc: ac 11 de     	ldy	$de11                   ; 0xde11 <__heap_start+0x6c7d>
     9bf: ad 12 de     	lda	$de12                   ; 0xde12 <__heap_start+0x6c7e>
     9c2: ad 13 de     	lda	$de13                   ; 0xde13 <__heap_start+0x6c7f>
     9c5: 8e a4 d6     	stx	$d6a4                   ; 0xd6a4 <__heap_start+0x6510>
     9c8: 8c a5 d6     	sty	$d6a5                   ; 0xd6a5 <__heap_start+0x6511>
     9cb: a2 03        	ldx	#$3
     9cd: 8e a6 d6     	stx	$d6a6                   ; 0xd6a6 <__heap_start+0x6512>
     9d0: a6 fa        	ldx	$fa                     ; 0x20fa <main+0x1b84>
     9d2: 86 2f        	stx	$2f                     ; 0x202f <main+0x1ab9>
     9d4: a6 f8        	ldx	$f8                     ; 0x20f8 <main+0x1b82>
     9d6: a4 f9        	ldy	$f9                     ; 0x20f9 <main+0x1b83>
     9d8: 86 24        	stx	$24                     ; 0x2024 <main+0x1aae>
     9da: 86 2c        	stx	$2c                     ; 0x202c <main+0x1ab6>
     9dc: 84 2e        	sty	$2e                     ; 0x202e <main+0x1ab8>
     9de: 84 2d        	sty	$2d                     ; 0x202d <main+0x1ab7>
     9e0: a2 00        	ldx	#$0
     9e2: 64 01        	stz	$1                      ; 0x2001 <main+0x1a8b>
     9e4: a0 2f        	ldy	#$2f
     9e6: 8c 00 d0     	sty	$d000                   ; 0xd000 <__heap_start+0x5e6c>
     9e9: a0 04        	ldy	#$4
     9eb: 8c 01 d0     	sty	$d001                   ; 0xd001 <__heap_start+0x5e6d>
     9ee: a0 01        	ldy	#$1
     9f0: 8c 02 d0     	sty	$d002                   ; 0xd002 <__heap_start+0x5e6e>
     9f3: a9 02        	lda	#$2
     9f5: 8d 03 d0     	sta	$d003                   ; 0xd003 <__heap_start+0x5e6f>
     9f8: 9c 0d d0     	stz	$d00d                   ; 0xd00d <__heap_start+0x5e79>
     9fb: 9c 0e d0     	stz	$d00e                   ; 0xd00e <__heap_start+0x5e7a>
     9fe: 9c 0f d0     	stz	$d00f                   ; 0xd00f <__heap_start+0x5e7b>
     a01: 84 01        	sty	$1                      ; 0x2001 <main+0x1a8b>
     a03: a0 f0        	ldy	#$f0
     a05: 80 05        	bra	$a0c <main+0x496>
     a07: c8           	iny
     a08: c0 f3        	cpy	#$f3
     a0a: f0 30        	beq	$a3c <main+0x4c6>
     a0c: 86 12        	stx	$12                     ; 0x2012 <main+0x1a9c>
     a0e: 84 13        	sty	$13                     ; 0x2013 <main+0x1a9d>
     a10: a5 0f        	lda	$f                      ; 0x200f <main+0x1a99>
     a12: 85 15        	sta	$15                     ; 0x2015 <main+0x1a9f>
     a14: 78           	sei
     a15: 86 14        	stx	$14                     ; 0x2014 <main+0x1a9e>
     a17: a2 21        	ldx	#$21
     a19: 86 0f        	stx	$f                      ; 0x200f <main+0x1a99>
     a1b: a6 14        	ldx	$14                     ; 0x2014 <main+0x1a9e>
     a1d: b2 12        	lda	($12)                   ; 0x2012 <main+0x1a9c>
     a1f: 85 14        	sta	$14                     ; 0x2014 <main+0x1a9e>
     a21: a5 15        	lda	$15                     ; 0x2015 <main+0x1a9f>
     a23: 85 0f        	sta	$f                      ; 0x200f <main+0x1a99>
     a25: 18           	clc
     a26: 8a           	txa
     a27: 69 00        	adc	#$0
     a29: 85 12        	sta	$12                     ; 0x2012 <main+0x1a9c>
     a2b: 98           	tya
     a2c: 69 e0        	adc	#$e0
     a2e: 58           	cli
     a2f: 85 13        	sta	$13                     ; 0x2013 <main+0x1a9d>
     a31: a5 14        	lda	$14                     ; 0x2014 <main+0x1a9e>
     a33: 92 12        	sta	($12)                   ; 0x2012 <main+0x1a9c>
     a35: e8           	inx
     a36: f0 cf        	beq	$a07 <main+0x491>
     a38: c0 f3        	cpy	#$f3
     a3a: d0 d0        	bne	$a0c <main+0x496>
     a3c: e0 ff        	cpx	#$ff
     a3e: d0 cc        	bne	$a0c <main+0x496>
     a40: 64 01        	stz	$1                      ; 0x2001 <main+0x1a8b>
     a42: 64 46        	stz	$46                     ; 0x2046 <main+0x1ad0>
     a44: a2 34        	ldx	#$34
     a46: 86 47        	stx	$47                     ; 0x2047 <main+0x1ad1>
     a48: a0 04        	ldy	#$4
     a4a: 84 48        	sty	$48                     ; 0x2048 <main+0x1ad2>
     a4c: 64 49        	stz	$49                     ; 0x2049 <main+0x1ad3>
     a4e: 9c 01 d1     	stz	$d101                   ; 0xd101 <__heap_start+0x5f6d>
     a51: 8e 02 d1     	stx	$d102                   ; 0xd102 <__heap_start+0x5f6e>
     a54: 8c 03 d1     	sty	$d103                   ; 0xd103 <__heap_start+0x5f6f>
     a57: ad 00 d1     	lda	$d100                   ; 0xd100 <__heap_start+0x5f6c>
     a5a: 29 f9        	and	#$f9
     a5c: 8d 00 d1     	sta	$d100                   ; 0xd100 <__heap_start+0x5f6c>
     a5f: a0 00        	ldy	#$0
     a61: a2 01        	ldx	#$1
     a63: 8e 00 d1     	stx	$d100                   ; 0xd100 <__heap_start+0x5f6c>
     a66: 9c 08 d1     	stz	$d108                   ; 0xd108 <__heap_start+0x5f74>
     a69: 9c 10 d1     	stz	$d110                   ; 0xd110 <__heap_start+0x5f7c>
     a6c: 64 01        	stz	$1                      ; 0x2001 <main+0x1a8b>
     a6e: 9c 00 d8     	stz	$d800                   ; 0xd800 <__heap_start+0x666c>
     a71: a9 ff        	lda	#$ff
     a73: 8d 01 d8     	sta	$d801                   ; 0xd801 <__heap_start+0x666d>
     a76: 9c 02 d8     	stz	$d802                   ; 0xd802 <__heap_start+0x666e>
     a79: 9c 04 d8     	stz	$d804                   ; 0xd804 <__heap_start+0x6670>
     a7c: 8d 05 d8     	sta	$d805                   ; 0xd805 <__heap_start+0x6671>
     a7f: a2 20        	ldx	#$20
     a81: 8e 06 d8     	stx	$d806                   ; 0xd806 <__heap_start+0x6672>
     a84: 9c 08 d8     	stz	$d808                   ; 0xd808 <__heap_start+0x6674>
     a87: 8d 09 d8     	sta	$d809                   ; 0xd809 <__heap_start+0x6675>
     a8a: a2 40        	ldx	#$40
     a8c: 8e 0a d8     	stx	$d80a                   ; 0xd80a <__heap_start+0x6676>
     a8f: 9c 0c d8     	stz	$d80c                   ; 0xd80c <__heap_start+0x6678>
     a92: 8d 0d d8     	sta	$d80d                   ; 0xd80d <__heap_start+0x6679>
     a95: a2 60        	ldx	#$60
     a97: 8e 0e d8     	stx	$d80e                   ; 0xd80e <__heap_start+0x667a>
     a9a: 9c 10 d8     	stz	$d810                   ; 0xd810 <__heap_start+0x667c>
     a9d: 8d 11 d8     	sta	$d811                   ; 0xd811 <__heap_start+0x667d>
     aa0: a2 80        	ldx	#$80
     aa2: 8e 12 d8     	stx	$d812                   ; 0xd812 <__heap_start+0x667e>
     aa5: 9c 14 d8     	stz	$d814                   ; 0xd814 <__heap_start+0x6680>
     aa8: 8d 15 d8     	sta	$d815                   ; 0xd815 <__heap_start+0x6681>
     aab: a2 a0        	ldx	#$a0
     aad: 8e 16 d8     	stx	$d816                   ; 0xd816 <__heap_start+0x6682>
     ab0: 9c 18 d8     	stz	$d818                   ; 0xd818 <__heap_start+0x6684>
     ab3: 8d 19 d8     	sta	$d819                   ; 0xd819 <__heap_start+0x6685>
     ab6: a2 c0        	ldx	#$c0
     ab8: 8e 1a d8     	stx	$d81a                   ; 0xd81a <__heap_start+0x6686>
     abb: 9c 1c d8     	stz	$d81c                   ; 0xd81c <__heap_start+0x6688>
     abe: 8d 1d d8     	sta	$d81d                   ; 0xd81d <__heap_start+0x6689>
     ac1: a2 e0        	ldx	#$e0
     ac3: 8e 1e d8     	stx	$d81e                   ; 0xd81e <__heap_start+0x668a>
     ac6: 9c 20 d8     	stz	$d820                   ; 0xd820 <__heap_start+0x668c>
     ac9: 8d 21 d8     	sta	$d821                   ; 0xd821 <__heap_start+0x668d>
     acc: 8d 22 d8     	sta	$d822                   ; 0xd822 <__heap_start+0x668e>
     acf: 9c 24 d8     	stz	$d824                   ; 0xd824 <__heap_start+0x6690>
     ad2: ca           	dex
     ad3: 8e 25 d8     	stx	$d825                   ; 0xd825 <__heap_start+0x6691>
     ad6: 8d 26 d8     	sta	$d826                   ; 0xd826 <__heap_start+0x6692>
     ad9: 9c 28 d8     	stz	$d828                   ; 0xd828 <__heap_start+0x6694>
     adc: a2 bf        	ldx	#$bf
     ade: 8e 29 d8     	stx	$d829                   ; 0xd829 <__heap_start+0x6695>
     ae1: 8d 2a d8     	sta	$d82a                   ; 0xd82a <__heap_start+0x6696>
     ae4: 9c 2c d8     	stz	$d82c                   ; 0xd82c <__heap_start+0x6698>
     ae7: a2 9f        	ldx	#$9f
     ae9: 8e 2d d8     	stx	$d82d                   ; 0xd82d <__heap_start+0x6699>
     aec: 8d 2e d8     	sta	$d82e                   ; 0xd82e <__heap_start+0x669a>
     aef: 9c 30 d8     	stz	$d830                   ; 0xd830 <__heap_start+0x669c>
     af2: a2 7f        	ldx	#$7f
     af4: 8e 31 d8     	stx	$d831                   ; 0xd831 <__heap_start+0x669d>
     af7: 8d 32 d8     	sta	$d832                   ; 0xd832 <__heap_start+0x669e>
     afa: 9c 34 d8     	stz	$d834                   ; 0xd834 <__heap_start+0x66a0>
     afd: a2 5f        	ldx	#$5f
     aff: 8e 35 d8     	stx	$d835                   ; 0xd835 <__heap_start+0x66a1>
     b02: 8d 36 d8     	sta	$d836                   ; 0xd836 <__heap_start+0x66a2>
     b05: 9c 38 d8     	stz	$d838                   ; 0xd838 <__heap_start+0x66a4>
     b08: a2 3f        	ldx	#$3f
     b0a: 8e 39 d8     	stx	$d839                   ; 0xd839 <__heap_start+0x66a5>
     b0d: 8d 3a d8     	sta	$d83a                   ; 0xd83a <__heap_start+0x66a6>
     b10: 9c 3c d8     	stz	$d83c                   ; 0xd83c <__heap_start+0x66a8>
     b13: a2 1f        	ldx	#$1f
     b15: 8e 3d d8     	stx	$d83d                   ; 0xd83d <__heap_start+0x66a9>
     b18: 8d 3e d8     	sta	$d83e                   ; 0xd83e <__heap_start+0x66aa>
     b1b: a2 03        	ldx	#$3
     b1d: 86 01        	stx	$1                      ; 0x2001 <main+0x1a8b>
     b1f: a9 c9        	lda	#$c9
     b21: a2 10        	ldx	#$10
     b23: 48           	pha
     b24: 8a           	txa
     b25: 5a           	phy
     b26: a0 39        	ldy	#$39
     b28: 91 10        	sta	($10),y                 ; 0x2010 <main+0x1a9a>
     b2a: 7a           	ply
     b2b: 68           	pla
     b2c: 64 17        	stz	$17                     ; 0x2017 <main+0x1aa1>
     b2e: 84 14        	sty	$14                     ; 0x2014 <main+0x1a9e>
     b30: 85 13        	sta	$13                     ; 0x2013 <main+0x1a9d>
     b32: 98           	tya
     b33: 0a           	asl
     b34: 0a           	asl
     b35: 85 12        	sta	$12                     ; 0x2012 <main+0x1a9c>
     b37: 0a           	asl
     b38: 18           	clc
     b39: 65 12        	adc	$12                     ; 0x2012 <main+0x1a9c>
     b3b: 18           	clc
     b3c: 69 0f        	adc	#$f
     b3e: a2 50        	ldx	#$50
     b40: 48           	pha
     b41: a0 39        	ldy	#$39
     b43: b1 10        	lda	($10),y                 ; 0x2010 <main+0x1a9a>
     b45: 85 12        	sta	$12                     ; 0x2012 <main+0x1a9c>
     b47: 68           	pla
     b48: a4 12        	ldy	$12                     ; 0x2012 <main+0x1a9c>
     b4a: 84 16        	sty	$16                     ; 0x2016 <main+0x1aa0>
     b4c: a4 13        	ldy	$13                     ; 0x2013 <main+0x1a9d>
     b4e: 84 15        	sty	$15                     ; 0x2015 <main+0x1a9f>
     b50: 92 12        	sta	($12)                   ; 0x2012 <main+0x1a9c>
     b52: ca           	dex
     b53: e6 12        	inc	$12                     ; 0x2012 <main+0x1a9c>
     b55: d0 02        	bne	$b59 <main+0x5e3>
     b57: e6 13        	inc	$13                     ; 0x2013 <main+0x1a9d>
     b59: e0 00        	cpx	#$0
     b5b: d0 f3        	bne	$b50 <main+0x5da>
     b5d: a4 14        	ldy	$14                     ; 0x2014 <main+0x1a9e>
     b5f: c8           	iny
     b60: d0 02        	bne	$b64 <main+0x5ee>
     b62: e6 17        	inc	$17                     ; 0x2017 <main+0x1aa1>
     b64: 18           	clc
     b65: a5 16        	lda	$16                     ; 0x2016 <main+0x1aa0>
     b67: 69 b0        	adc	#$b0
     b69: 5a           	phy
     b6a: a0 39        	ldy	#$39
     b6c: 91 10        	sta	($10),y                 ; 0x2010 <main+0x1a9a>
     b6e: 7a           	ply
     b6f: a5 15        	lda	$15                     ; 0x2015 <main+0x1a9f>
     b71: 69 ff        	adc	#$ff
     b73: a6 17        	ldx	$17                     ; 0x2017 <main+0x1aa1>
     b75: d0 b7        	bne	$b2e <main+0x5b8>
     b77: c0 14        	cpy	#$14
     b79: f0 03        	beq	$b7e <main+0x608>
     b7b: 4c 2e 0b     	jmp	$b2e <main+0x5b8>
     b7e: 64 01        	stz	$1                      ; 0x2001 <main+0x1a8b>
     b80: ad a7 d6     	lda	$d6a7                   ; 0xd6a7 <__heap_start+0x6513>
     b83: 29 3f        	and	#$3f
     b85: c9 02        	cmp	#$2
     b87: d0 03        	bne	$b8c <main+0x616>
     b89: 4c f5 0b     	jmp	$bf5 <main+0x67f>
     b8c: c9 11        	cmp	#$11
     b8e: d0 03        	bne	$b93 <main+0x61d>
     b90: 4c f5 0b     	jmp	$bf5 <main+0x67f>
     b93: c9 22        	cmp	#$22
     b95: d0 03        	bne	$b9a <main+0x624>
     b97: 4c f5 0b     	jmp	$bf5 <main+0x67f>
     b9a: ad a7 d6     	lda	$d6a7                   ; 0xd6a7 <__heap_start+0x6513>
     b9d: 92 10        	sta	($10)                   ; 0x2010 <main+0x1a9a>
     b9f: a0 01        	ldy	#$1
     ba1: a9 00        	lda	#$0
     ba3: 91 10        	sta	($10),y                 ; 0x2010 <main+0x1a9a>
     ba5: a2 29        	ldx	#$29
     ba7: 86 12        	stx	$12                     ; 0x2012 <main+0x1a9c>
     ba9: a2 5d        	ldx	#$5d
     bab: 86 13        	stx	$13                     ; 0x2013 <main+0x1a9d>
     bad: 20 ef 54     	jsr	$54ef <printf>
     bb0: a2 5c        	ldx	#$5c
     bb2: 86 12        	stx	$12                     ; 0x2012 <main+0x1a9c>
     bb4: a2 5b        	ldx	#$5b
     bb6: 86 13        	stx	$13                     ; 0x2013 <main+0x1a9d>
     bb8: 20 ef 54     	jsr	$54ef <printf>
     bbb: a2 76        	ldx	#$76
     bbd: 86 12        	stx	$12                     ; 0x2012 <main+0x1a9c>
     bbf: a2 5c        	ldx	#$5c
     bc1: 86 13        	stx	$13                     ; 0x2013 <main+0x1a9d>
     bc3: 20 ef 54     	jsr	$54ef <printf>
     bc6: a2 d3        	ldx	#$d3
     bc8: 86 12        	stx	$12                     ; 0x2012 <main+0x1a9c>
     bca: a2 5c        	ldx	#$5c
     bcc: 86 13        	stx	$13                     ; 0x2013 <main+0x1a9d>
     bce: 20 ef 54     	jsr	$54ef <printf>
     bd1: a2 56        	ldx	#$56
     bd3: 86 12        	stx	$12                     ; 0x2012 <main+0x1a9c>
     bd5: a2 00        	ldx	#$0
     bd7: 86 13        	stx	$13                     ; 0x2013 <main+0x1a9d>
     bd9: 64 57        	stz	$57                     ; 0x2057 <main+0x1ae1>
     bdb: 20 00 ff     	jsr	$ff00 <__heap_start+0x8d6c>
     bde: 92 28        	sta	($28)                   ; 0x2028 <main+0x1ab2>
     be0: a9 00        	lda	#$0
     be2: 6a           	ror
     be3: 85 12        	sta	$12                     ; 0x2012 <main+0x1a9c>
     be5: a6 57        	ldx	$57                     ; 0x2057 <main+0x1ae1>
     be7: e0 08        	cpx	#$8
     be9: d0 ee        	bne	$bd9 <main+0x663>
     beb: a6 5b        	ldx	$5b                     ; 0x205b <main+0x1ae5>
     bed: e0 20        	cpx	#$20
     bef: f0 04        	beq	$bf5 <main+0x67f>
     bf1: e0 94        	cpx	#$94
     bf3: d0 e4        	bne	$bd9 <main+0x663>
     bf5: ad a7 d6     	lda	$d6a7                   ; 0xd6a7 <__heap_start+0x6513>
     bf8: 29 1f        	and	#$1f
     bfa: a0 30        	ldy	#$30
     bfc: 91 10        	sta	($10),y                 ; 0x2010 <main+0x1a9a>
     bfe: c9 11        	cmp	#$11
     c00: f0 03        	beq	$c05 <main+0x68f>
     c02: 4c 86 0d     	jmp	$d86 <main+0x810>
     c05: a2 2a        	ldx	#$2a
     c07: 8e 40 dd     	stx	$dd40                   ; 0xdd40 <__heap_start+0x6bac>
     c0a: 64 14        	stz	$14                     ; 0x2014 <main+0x1a9e>
     c0c: 9c 41 dd     	stz	$dd41                   ; 0xdd41 <__heap_start+0x6bad>
     c0f: 9c 41 dd     	stz	$dd41                   ; 0xdd41 <__heap_start+0x6bad>
     c12: 9c 41 dd     	stz	$dd41                   ; 0xdd41 <__heap_start+0x6bad>
     c15: a2 ef        	ldx	#$ef
     c17: 8e 41 dd     	stx	$dd41                   ; 0xdd41 <__heap_start+0x6bad>
     c1a: a2 2b        	ldx	#$2b
     c1c: 8e 40 dd     	stx	$dd40                   ; 0xdd40 <__heap_start+0x6bac>
     c1f: 9c 41 dd     	stz	$dd41                   ; 0xdd41 <__heap_start+0x6bad>
     c22: a2 14        	ldx	#$14
     c24: 8e 41 dd     	stx	$dd41                   ; 0xdd41 <__heap_start+0x6bad>
     c27: a2 01        	ldx	#$1
     c29: 8e 41 dd     	stx	$dd41                   ; 0xdd41 <__heap_start+0x6bad>
     c2c: a2 3f        	ldx	#$3f
     c2e: 8e 41 dd     	stx	$dd41                   ; 0xdd41 <__heap_start+0x6bad>
     c31: a2 2c        	ldx	#$2c
     c33: 8e 40 dd     	stx	$dd40                   ; 0xdd40 <__heap_start+0x6bac>
     c36: 64 16        	stz	$16                     ; 0x2016 <main+0x1aa0>
     c38: 64 15        	stz	$15                     ; 0x2015 <main+0x1a9f>
     c3a: a9 00        	lda	#$0
     c3c: aa           	tax
     c3d: a8           	tay
     c3e: 64 12        	stz	$12                     ; 0x2012 <main+0x1a9c>
     c40: 64 13        	stz	$13                     ; 0x2013 <main+0x1a9d>
     c42: 84 18        	sty	$18                     ; 0x2018 <main+0x1aa2>
     c44: 86 17        	stx	$17                     ; 0x2017 <main+0x1aa1>
     c46: a2 f0        	ldx	#$f0
     c48: a4 16        	ldy	$16                     ; 0x2016 <main+0x1aa0>
     c4a: 85 1d        	sta	$1d                     ; 0x201d <main+0x1aa7>
     c4c: a5 15        	lda	$15                     ; 0x2015 <main+0x1a9f>
     c4e: 85 1e        	sta	$1e                     ; 0x201e <main+0x1aa8>
     c50: a5 15        	lda	$15                     ; 0x2015 <main+0x1a9f>
     c52: 85 16        	sta	$16                     ; 0x2016 <main+0x1aa0>
     c54: 84 1f        	sty	$1f                     ; 0x201f <main+0x1aa9>
     c56: 84 1a        	sty	$1a                     ; 0x201a <main+0x1aa4>
     c58: a4 14        	ldy	$14                     ; 0x2014 <main+0x1a9e>
     c5a: 84 1b        	sty	$1b                     ; 0x201b <main+0x1aa5>
     c5c: 84 1c        	sty	$1c                     ; 0x201c <main+0x1aa6>
     c5e: 98           	tya
     c5f: 18           	clc
     c60: 69 00        	adc	#$0
     c62: a5 1a        	lda	$1a                     ; 0x201a <main+0x1aa4>
     c64: 69 00        	adc	#$0
     c66: 85 14        	sta	$14                     ; 0x2014 <main+0x1a9e>
     c68: a5 15        	lda	$15                     ; 0x2015 <main+0x1a9f>
     c6a: 69 02        	adc	#$2
     c6c: 06 14        	asl	$14                     ; 0x2014 <main+0x1a9e>
     c6e: 2a           	rol
     c6f: 06 14        	asl	$14                     ; 0x2014 <main+0x1a9e>
     c71: 2a           	rol
     c72: a4 0f        	ldy	$f                      ; 0x200f <main+0x1a99>
     c74: 78           	sei
     c75: 06 14        	asl	$14                     ; 0x2014 <main+0x1a9e>
     c77: 2a           	rol
     c78: 85 0f        	sta	$f                      ; 0x200f <main+0x1a99>
     c7a: a5 1a        	lda	$1a                     ; 0x201a <main+0x1aa4>
     c7c: 09 e0        	ora	#$e0
     c7e: 5a           	phy
     c7f: a4 1b        	ldy	$1b                     ; 0x201b <main+0x1aa5>
     c81: 84 14        	sty	$14                     ; 0x2014 <main+0x1a9e>
     c83: 7a           	ply
     c84: 85 15        	sta	$15                     ; 0x2015 <main+0x1a9f>
     c86: b2 14        	lda	($14)                   ; 0x2014 <main+0x1a9e>
     c88: 84 0f        	sty	$f                      ; 0x200f <main+0x1a99>
     c8a: 58           	cli
     c8b: 8d 42 dd     	sta	$dd42                   ; 0xdd42 <__heap_start+0x6bae>
     c8e: a5 1b        	lda	$1b                     ; 0x201b <main+0x1aa5>
     c90: 18           	clc
     c91: 69 01        	adc	#$1
     c93: a5 1a        	lda	$1a                     ; 0x201a <main+0x1aa4>
     c95: 69 00        	adc	#$0
     c97: 85 14        	sta	$14                     ; 0x2014 <main+0x1a9e>
     c99: a5 16        	lda	$16                     ; 0x2016 <main+0x1aa0>
     c9b: 69 02        	adc	#$2
     c9d: 06 14        	asl	$14                     ; 0x2014 <main+0x1a9e>
     c9f: 2a           	rol
     ca0: 06 14        	asl	$14                     ; 0x2014 <main+0x1a9e>
     ca2: 2a           	rol
     ca3: a4 1d        	ldy	$1d                     ; 0x201d <main+0x1aa7>
     ca5: 84 22        	sty	$22                     ; 0x2022 <main+0x1aac>
     ca7: 06 14        	asl	$14                     ; 0x2014 <main+0x1a9e>
     ca9: 2a           	rol
     caa: a4 0f        	ldy	$f                      ; 0x200f <main+0x1a99>
     cac: 78           	sei
     cad: 85 0f        	sta	$f                      ; 0x200f <main+0x1a99>
     caf: a5 1a        	lda	$1a                     ; 0x201a <main+0x1aa4>
     cb1: 5a           	phy
     cb2: a4 1b        	ldy	$1b                     ; 0x201b <main+0x1aa5>
     cb4: 84 14        	sty	$14                     ; 0x2014 <main+0x1a9e>
     cb6: 7a           	ply
     cb7: e6 14        	inc	$14                     ; 0x2014 <main+0x1a9e>
     cb9: d0 01        	bne	$cbc <main+0x746>
     cbb: 1a           	inc
     cbc: 09 e0        	ora	#$e0
     cbe: 85 15        	sta	$15                     ; 0x2015 <main+0x1a9f>
     cc0: b2 14        	lda	($14)                   ; 0x2014 <main+0x1a9e>
     cc2: 84 0f        	sty	$f                      ; 0x200f <main+0x1a99>
     cc4: 58           	cli
     cc5: 8d 43 dd     	sta	$dd43                   ; 0xdd43 <__heap_start+0x6baf>
     cc8: a5 1c        	lda	$1c                     ; 0x201c <main+0x1aa6>
     cca: ca           	dex
     ccb: 18           	clc
     ccc: 69 02        	adc	#$2
     cce: 85 14        	sta	$14                     ; 0x2014 <main+0x1a9e>
     cd0: a5 1f        	lda	$1f                     ; 0x201f <main+0x1aa9>
     cd2: 69 00        	adc	#$0
     cd4: a8           	tay
     cd5: a5 1e        	lda	$1e                     ; 0x201e <main+0x1aa8>
     cd7: 69 00        	adc	#$0
     cd9: 85 15        	sta	$15                     ; 0x2015 <main+0x1a9f>
     cdb: a5 1d        	lda	$1d                     ; 0x201d <main+0x1aa7>
     cdd: 69 00        	adc	#$0
     cdf: 85 1d        	sta	$1d                     ; 0x201d <main+0x1aa7>
     ce1: 8a           	txa
     ce2: f0 03        	beq	$ce7 <main+0x771>
     ce4: 4c 4c 0c     	jmp	$c4c <main+0x6d6>
     ce7: a6 16        	ldx	$16                     ; 0x2016 <main+0x1aa0>
     ce9: 86 19        	stx	$19                     ; 0x2019 <main+0x1aa3>
     ceb: 18           	clc
     cec: a5 1b        	lda	$1b                     ; 0x201b <main+0x1aa5>
     cee: 69 02        	adc	#$2
     cf0: 85 14        	sta	$14                     ; 0x2014 <main+0x1a9e>
     cf2: a5 1a        	lda	$1a                     ; 0x201a <main+0x1aa4>
     cf4: 69 00        	adc	#$0
     cf6: 85 16        	sta	$16                     ; 0x2016 <main+0x1aa0>
     cf8: a5 19        	lda	$19                     ; 0x2019 <main+0x1aa3>
     cfa: 69 00        	adc	#$0
     cfc: 85 15        	sta	$15                     ; 0x2015 <main+0x1a9f>
     cfe: a5 22        	lda	$22                     ; 0x2022 <main+0x1aac>
     d00: 69 00        	adc	#$0
     d02: a6 17        	ldx	$17                     ; 0x2017 <main+0x1aa1>
     d04: a4 18        	ldy	$18                     ; 0x2018 <main+0x1aa2>
     d06: e8           	inx
     d07: d0 09        	bne	$d12 <main+0x79c>
     d09: c8           	iny
     d0a: d0 06        	bne	$d12 <main+0x79c>
     d0c: e6 12        	inc	$12                     ; 0x2012 <main+0x1a9c>
     d0e: d0 02        	bne	$d12 <main+0x79c>
     d10: e6 13        	inc	$13                     ; 0x2013 <main+0x1a9d>
     d12: e6 13        	inc	$13                     ; 0x2013 <main+0x1a9d>
     d14: c6 13        	dec	$13                     ; 0x2013 <main+0x1a9d>
     d16: f0 03        	beq	$d1b <main+0x7a5>
     d18: 4c 42 0c     	jmp	$c42 <main+0x6cc>
     d1b: e6 12        	inc	$12                     ; 0x2012 <main+0x1a9c>
     d1d: c6 12        	dec	$12                     ; 0x2012 <main+0x1a9c>
     d1f: f0 03        	beq	$d24 <main+0x7ae>
     d21: 4c 42 0c     	jmp	$c42 <main+0x6cc>
     d24: c0 01        	cpy	#$1
     d26: f0 03        	beq	$d2b <main+0x7b5>
     d28: 4c 42 0c     	jmp	$c42 <main+0x6cc>
     d2b: e0 18        	cpx	#$18
     d2d: f0 03        	beq	$d32 <main+0x7bc>
     d2f: 4c 42 0c     	jmp	$c42 <main+0x6cc>
     d32: a2 80        	ldx	#$80
     d34: 86 f3        	stx	$f3                     ; 0x20f3 <main+0x1b7d>
     d36: a2 56        	ldx	#$56
     d38: 86 12        	stx	$12                     ; 0x2012 <main+0x1a9c>
     d3a: a2 00        	ldx	#$0
     d3c: 86 13        	stx	$13                     ; 0x2013 <main+0x1a9d>
     d3e: 20 f0 ff     	jsr	$fff0 <__heap_start+0x8e5c>
     d41: 92 28        	sta	($28)                   ; 0x2028 <main+0x1ab2>
     d43: a9 00        	lda	#$0
     d45: 6a           	ror
     d46: 85 12        	sta	$12                     ; 0x2012 <main+0x1a9c>
     d48: b2 28        	lda	($28)                   ; 0x2028 <main+0x1ab2>
     d4a: 1a           	inc
     d4b: 64 f3        	stz	$f3                     ; 0x20f3 <main+0x1b7d>
     d4d: 85 f4        	sta	$f4                     ; 0x20f4 <main+0x1b7e>
     d4f: a2 d5        	ldx	#$d5
     d51: 86 f5        	stx	$f5                     ; 0x20f5 <main+0x1b7f>
     d53: 20 f0 ff     	jsr	$fff0 <__heap_start+0x8e5c>
     d56: 92 28        	sta	($28)                   ; 0x2028 <main+0x1ab2>
     d58: a9 00        	lda	#$0
     d5a: 6a           	ror
     d5b: 85 12        	sta	$12                     ; 0x2012 <main+0x1a9c>
     d5d: 64 57        	stz	$57                     ; 0x2057 <main+0x1ae1>
     d5f: 20 00 ff     	jsr	$ff00 <__heap_start+0x8d6c>
     d62: 92 28        	sta	($28)                   ; 0x2028 <main+0x1ab2>
     d64: a9 00        	lda	#$0
     d66: 6a           	ror
     d67: 85 12        	sta	$12                     ; 0x2012 <main+0x1a9c>
     d69: a6 57        	ldx	$57                     ; 0x2057 <main+0x1ae1>
     d6b: e0 52        	cpx	#$52
     d6d: d0 ee        	bne	$d5d <main+0x7e7>
     d6f: a6 5b        	ldx	$5b                     ; 0x205b <main+0x1ae5>
     d71: e0 d5        	cpx	#$d5
     d73: d0 e8        	bne	$d5d <main+0x7e7>
     d75: a2 36        	ldx	#$36
     d77: 8e 40 dd     	stx	$dd40                   ; 0xdd40 <__heap_start+0x6bac>
     d7a: a2 80        	ldx	#$80
     d7c: 8e 41 dd     	stx	$dd41                   ; 0xdd41 <__heap_start+0x6bad>
     d7f: a2 2c        	ldx	#$2c
     d81: 8e 40 dd     	stx	$dd40                   ; 0xdd40 <__heap_start+0x6bac>
     d84: 80 43        	bra	$dc9 <main+0x853>
     d86: a2 80        	ldx	#$80
     d88: 86 f3        	stx	$f3                     ; 0x20f3 <main+0x1b7d>
     d8a: a2 56        	ldx	#$56
     d8c: 86 12        	stx	$12                     ; 0x2012 <main+0x1a9c>
     d8e: a2 00        	ldx	#$0
     d90: 86 13        	stx	$13                     ; 0x2013 <main+0x1a9d>
     d92: 20 f0 ff     	jsr	$fff0 <__heap_start+0x8e5c>
     d95: 92 28        	sta	($28)                   ; 0x2028 <main+0x1ab2>
     d97: a9 00        	lda	#$0
     d99: 6a           	ror
     d9a: 85 12        	sta	$12                     ; 0x2012 <main+0x1a9c>
     d9c: b2 28        	lda	($28)                   ; 0x2028 <main+0x1ab2>
     d9e: 1a           	inc
     d9f: 64 f3        	stz	$f3                     ; 0x20f3 <main+0x1b7d>
     da1: 85 f4        	sta	$f4                     ; 0x20f4 <main+0x1b7e>
     da3: a2 d5        	ldx	#$d5
     da5: 86 f5        	stx	$f5                     ; 0x20f5 <main+0x1b7f>
     da7: 20 f0 ff     	jsr	$fff0 <__heap_start+0x8e5c>
     daa: 92 28        	sta	($28)                   ; 0x2028 <main+0x1ab2>
     dac: a9 00        	lda	#$0
     dae: 6a           	ror
     daf: 85 12        	sta	$12                     ; 0x2012 <main+0x1a9c>
     db1: 64 57        	stz	$57                     ; 0x2057 <main+0x1ae1>
     db3: 20 00 ff     	jsr	$ff00 <__heap_start+0x8d6c>
     db6: 92 28        	sta	($28)                   ; 0x2028 <main+0x1ab2>
     db8: a9 00        	lda	#$0
     dba: 6a           	ror
     dbb: 85 12        	sta	$12                     ; 0x2012 <main+0x1a9c>
     dbd: a6 57        	ldx	$57                     ; 0x2057 <main+0x1ae1>
     dbf: e0 52        	cpx	#$52
     dc1: d0 ee        	bne	$db1 <main+0x83b>
     dc3: a6 5b        	ldx	$5b                     ; 0x205b <main+0x1ae5>
     dc5: e0 d5        	cpx	#$d5
     dc7: d0 e8        	bne	$db1 <main+0x83b>
     dc9: a2 1f        	ldx	#$1f
     dcb: 8e 20 d6     	stx	$d620                   ; 0xd620 <__heap_start+0x648c>
     dce: a2 2a        	ldx	#$2a
     dd0: 8e 21 d6     	stx	$d621                   ; 0xd621 <__heap_start+0x648d>
     dd3: a2 01        	ldx	#$1
     dd5: 8e 22 d6     	stx	$d622                   ; 0xd622 <__heap_start+0x648e>
     dd8: ad 22 d6     	lda	$d622                   ; 0xd622 <__heap_start+0x648e>
     ddb: 29 01        	and	#$1
     ddd: d0 f9        	bne	$dd8 <main+0x862>
     ddf: a2 03        	ldx	#$3
     de1: 8e 01 d7     	stx	$d701                   ; 0xd701 <__heap_start+0x656d>
     de4: 9c 02 d7     	stz	$d702                   ; 0xd702 <__heap_start+0x656e>
     de7: 9c 02 d7     	stz	$d702                   ; 0xd702 <__heap_start+0x656e>
     dea: a2 e0        	ldx	#$e0
     dec: 8e 03 d7     	stx	$d703                   ; 0xd703 <__heap_start+0x656f>
     def: a2 01        	ldx	#$1
     df1: 8e 00 d7     	stx	$d700                   ; 0xd700 <__heap_start+0x656c>
     df4: 9c 00 d7     	stz	$d700                   ; 0xd700 <__heap_start+0x656c>
     df7: ae 00 d7     	ldx	$d700                   ; 0xd700 <__heap_start+0x656c>
     dfa: 30 fb        	bmi	$df7 <main+0x881>
     dfc: a9 00        	lda	#$0
     dfe: 20 1a 27     	jsr	$271a <writeTopRight>
     e01: a2 59        	ldx	#$59
     e03: 86 12        	stx	$12                     ; 0x2012 <main+0x1a9c>
     e05: a2 5c        	ldx	#$5c
     e07: 86 13        	stx	$13                     ; 0x2013 <main+0x1a9d>
     e09: 20 45 28     	jsr	$2845 <fileOpenDir>
     e0c: a6 12        	ldx	$12                     ; 0x2012 <main+0x1a9c>
     e0e: 86 26        	stx	$26                     ; 0x2026 <main+0x1ab0>
     e10: a6 13        	ldx	$13                     ; 0x2013 <main+0x1a9d>
     e12: 86 27        	stx	$27                     ; 0x2027 <main+0x1ab1>
     e14: a2 00        	ldx	#$0
     e16: 86 12        	stx	$12                     ; 0x2012 <main+0x1a9c>
     e18: a2 00        	ldx	#$0
     e1a: 86 13        	stx	$13                     ; 0x2013 <main+0x1a9d>
     e1c: a6 27        	ldx	$27                     ; 0x2027 <main+0x1ab1>
     e1e: e4 13        	cpx	$13                     ; 0x2013 <main+0x1a9d>
     e20: d0 1f        	bne	$e41 <main+0x8cb>
     e22: a6 26        	ldx	$26                     ; 0x2026 <main+0x1ab0>
     e24: e4 12        	cpx	$12                     ; 0x2012 <main+0x1a9c>
     e26: d0 19        	bne	$e41 <main+0x8cb>
     e28: a2 5e        	ldx	#$5e
     e2a: 86 12        	stx	$12                     ; 0x2012 <main+0x1a9c>
     e2c: a2 5f        	ldx	#$5f
     e2e: 86 13        	stx	$13                     ; 0x2013 <main+0x1a9d>
     e30: a2 ee        	ldx	#$ee
     e32: 86 14        	stx	$14                     ; 0x2014 <main+0x1a9e>
     e34: a2 5d        	ldx	#$5d
     e36: 86 15        	stx	$15                     ; 0x2015 <main+0x1a9f>
     e38: a9 20        	lda	#$20
     e3a: a2 00        	ldx	#$0
     e3c: 20 b2 59     	jsr	$59b2 <memcpy>
     e3f: 80 49        	bra	$e8a <main+0x914>
     e41: a2 5e        	ldx	#$5e
     e43: 86 12        	stx	$12                     ; 0x2012 <main+0x1a9c>
     e45: a2 5f        	ldx	#$5f
     e47: 86 13        	stx	$13                     ; 0x2013 <main+0x1a9d>
     e49: a2 0e        	ldx	#$e
     e4b: 86 14        	stx	$14                     ; 0x2014 <main+0x1a9e>
     e4d: a2 5e        	ldx	#$5e
     e4f: 86 15        	stx	$15                     ; 0x2015 <main+0x1a9f>
     e51: a9 20        	lda	#$20
     e53: a2 00        	ldx	#$0
     e55: 20 b2 59     	jsr	$59b2 <memcpy>
     e58: a2 56        	ldx	#$56
     e5a: 86 12        	stx	$12                     ; 0x2012 <main+0x1a9c>
     e5c: a2 00        	ldx	#$0
     e5e: 86 13        	stx	$13                     ; 0x2013 <main+0x1a9d>
     e60: b2 26        	lda	($26)                   ; 0x2026 <main+0x1ab0>
     e62: f0 14        	beq	$e78 <main+0x902>
     e64: 85 f3        	sta	$f3                     ; 0x20f3 <main+0x1b7d>
     e66: 20 80 ff     	jsr	$ff80 <__heap_start+0x8dec>
     e69: 92 28        	sta	($28)                   ; 0x2028 <main+0x1ab2>
     e6b: a9 00        	lda	#$0
     e6d: 6a           	ror
     e6e: 85 12        	sta	$12                     ; 0x2012 <main+0x1a9c>
     e70: a6 56        	ldx	$56                     ; 0x2056 <main+0x1ae0>
     e72: d0 04        	bne	$e78 <main+0x902>
     e74: a9 00        	lda	#$0
     e76: 92 26        	sta	($26)                   ; 0x2026 <main+0x1ab0>
     e78: 64 57        	stz	$57                     ; 0x2057 <main+0x1ae1>
     e7a: 20 00 ff     	jsr	$ff00 <__heap_start+0x8d6c>
     e7d: 92 28        	sta	($28)                   ; 0x2028 <main+0x1ab2>
     e7f: a9 00        	lda	#$0
     e81: 6a           	ror
     e82: 85 12        	sta	$12                     ; 0x2012 <main+0x1a9c>
     e84: a6 57        	ldx	$57                     ; 0x2057 <main+0x1ae1>
     e86: e0 46        	cpx	#$46
     e88: d0 d6        	bne	$e60 <main+0x8ea>
     e8a: a6 2f        	ldx	$2f                     ; 0x202f <main+0x1ab9>
     e8c: e0 04        	cpx	#$4
     e8e: a2 01        	ldx	#$1
     e90: 8a           	txa
     e91: a0 35        	ldy	#$35
     e93: 91 10        	sta	($10),y                 ; 0x2010 <main+0x1a9a>
     e95: b0 03        	bcs	$e9a <main+0x924>
     e97: 4c d2 0f     	jmp	$fd2 <main+0xa5c>
     e9a: a0 02        	ldy	#$2
     e9c: 18           	clc
     e9d: a5 24        	lda	$24                     ; 0x2024 <main+0x1aae>
     e9f: 69 02        	adc	#$2
     ea1: 85 12        	sta	$12                     ; 0x2012 <main+0x1a9c>
     ea3: a5 2e        	lda	$2e                     ; 0x202e <main+0x1ab8>
     ea5: 69 00        	adc	#$0
     ea7: 85 13        	sta	$13                     ; 0x2013 <main+0x1a9d>
     ea9: b1 2c        	lda	($2c),y                 ; 0x202c <main+0x1ab6>
     eab: aa           	tax
     eac: 88           	dey
     ead: b1 12        	lda	($12),y                 ; 0x2012 <main+0x1a9c>
     eaf: 86 16        	stx	$16                     ; 0x2016 <main+0x1aa0>
     eb1: 86 12        	stx	$12                     ; 0x2012 <main+0x1a9c>
     eb3: 85 17        	sta	$17                     ; 0x2017 <main+0x1aa1>
     eb5: 85 13        	sta	$13                     ; 0x2013 <main+0x1a9d>
     eb7: b2 12        	lda	($12)                   ; 0x2012 <main+0x1a9c>
     eb9: a2 01        	ldx	#$1
     ebb: c9 2d        	cmp	#$2d
     ebd: f0 02        	beq	$ec1 <main+0x94b>
     ebf: a2 00        	ldx	#$0
     ec1: e0 00        	cpx	#$0
     ec3: f0 03        	beq	$ec8 <main+0x952>
     ec5: 4c d2 0f     	jmp	$fd2 <main+0xa5c>
     ec8: 64 15        	stz	$15                     ; 0x2015 <main+0x1a9f>
     eca: 64 1b        	stz	$1b                     ; 0x201b <main+0x1aa5>
     ecc: c9 00        	cmp	#$0
     ece: d0 03        	bne	$ed3 <main+0x95d>
     ed0: 4c 2c 0f     	jmp	$f2c <main+0x9b6>
     ed3: 85 1a        	sta	$1a                     ; 0x201a <main+0x1aa4>
     ed5: 64 12        	stz	$12                     ; 0x2012 <main+0x1a9c>
     ed7: 18           	clc
     ed8: a5 10        	lda	$10                     ; 0x2010 <main+0x1a9a>
     eda: 69 3b        	adc	#$3b
     edc: 85 18        	sta	$18                     ; 0x2018 <main+0x1aa2>
     ede: a5 11        	lda	$11                     ; 0x2011 <main+0x1a9b>
     ee0: 69 00        	adc	#$0
     ee2: 85 19        	sta	$19                     ; 0x2019 <main+0x1aa3>
     ee4: 64 13        	stz	$13                     ; 0x2013 <main+0x1a9d>
     ee6: a5 18        	lda	$18                     ; 0x2018 <main+0x1aa2>
     ee8: 18           	clc
     ee9: 65 12        	adc	$12                     ; 0x2012 <main+0x1a9c>
     eeb: 85 14        	sta	$14                     ; 0x2014 <main+0x1a9e>
     eed: a5 19        	lda	$19                     ; 0x2019 <main+0x1aa3>
     eef: 65 13        	adc	$13                     ; 0x2013 <main+0x1a9d>
     ef1: 85 15        	sta	$15                     ; 0x2015 <main+0x1a9f>
     ef3: a5 1a        	lda	$1a                     ; 0x201a <main+0x1aa4>
     ef5: 92 14        	sta	($14)                   ; 0x2014 <main+0x1a9e>
     ef7: a5 12        	lda	$12                     ; 0x2012 <main+0x1a9c>
     ef9: 85 14        	sta	$14                     ; 0x2014 <main+0x1a9e>
     efb: a5 13        	lda	$13                     ; 0x2013 <main+0x1a9d>
     efd: 85 1a        	sta	$1a                     ; 0x201a <main+0x1aa4>
     eff: a5 16        	lda	$16                     ; 0x2016 <main+0x1aa0>
     f01: 18           	clc
     f02: 65 12        	adc	$12                     ; 0x2012 <main+0x1a9c>
     f04: 85 12        	sta	$12                     ; 0x2012 <main+0x1a9c>
     f06: a5 17        	lda	$17                     ; 0x2017 <main+0x1aa1>
     f08: 65 13        	adc	$13                     ; 0x2013 <main+0x1a9d>
     f0a: e6 14        	inc	$14                     ; 0x2014 <main+0x1a9e>
     f0c: d0 02        	bne	$f10 <main+0x99a>
     f0e: e6 1a        	inc	$1a                     ; 0x201a <main+0x1aa4>
     f10: 85 13        	sta	$13                     ; 0x2013 <main+0x1a9d>
     f12: b1 12        	lda	($12),y                 ; 0x2012 <main+0x1a9c>
     f14: 5a           	phy
     f15: a4 14        	ldy	$14                     ; 0x2014 <main+0x1a9e>
     f17: 84 15        	sty	$15                     ; 0x2015 <main+0x1a9f>
     f19: a4 14        	ldy	$14                     ; 0x2014 <main+0x1a9e>
     f1b: 84 12        	sty	$12                     ; 0x2012 <main+0x1a9c>
     f1d: a4 1a        	ldy	$1a                     ; 0x201a <main+0x1aa4>
     f1f: 84 1b        	sty	$1b                     ; 0x201b <main+0x1aa5>
     f21: a4 1a        	ldy	$1a                     ; 0x201a <main+0x1aa4>
     f23: 84 13        	sty	$13                     ; 0x2013 <main+0x1a9d>
     f25: 7a           	ply
     f26: 85 1a        	sta	$1a                     ; 0x201a <main+0x1aa4>
     f28: c9 00        	cmp	#$0
     f2a: d0 ba        	bne	$ee6 <main+0x970>
     f2c: 18           	clc
     f2d: a5 10        	lda	$10                     ; 0x2010 <main+0x1a9a>
     f2f: 69 3b        	adc	#$3b
     f31: 85 12        	sta	$12                     ; 0x2012 <main+0x1a9c>
     f33: a5 11        	lda	$11                     ; 0x2011 <main+0x1a9b>
     f35: 69 00        	adc	#$0
     f37: 85 13        	sta	$13                     ; 0x2013 <main+0x1a9d>
     f39: 18           	clc
     f3a: a5 15        	lda	$15                     ; 0x2015 <main+0x1a9f>
     f3c: 65 12        	adc	$12                     ; 0x2012 <main+0x1a9c>
     f3e: 85 14        	sta	$14                     ; 0x2014 <main+0x1a9e>
     f40: a5 1b        	lda	$1b                     ; 0x201b <main+0x1aa5>
     f42: 65 13        	adc	$13                     ; 0x2013 <main+0x1a9d>
     f44: 85 15        	sta	$15                     ; 0x2015 <main+0x1a9f>
     f46: a9 00        	lda	#$0
     f48: 92 14        	sta	($14)                   ; 0x2014 <main+0x1a9e>
     f4a: b2 12        	lda	($12)                   ; 0x2012 <main+0x1a9c>
     f4c: 85 1b        	sta	$1b                     ; 0x201b <main+0x1aa5>
     f4e: b2 12        	lda	($12)                   ; 0x2012 <main+0x1a9c>
     f50: 8d 52 71     	sta	$7152                   ; 0x7152 <finalName>
     f53: a5 1b        	lda	$1b                     ; 0x201b <main+0x1aa5>
     f55: d0 03        	bne	$f5a <main+0x9e4>
     f57: 4c cf 0f     	jmp	$fcf <main+0xa59>
     f5a: 86 1a        	stx	$1a                     ; 0x201a <main+0x1aa4>
     f5c: a2 53        	ldx	#$53
     f5e: 86 14        	stx	$14                     ; 0x2014 <main+0x1a9e>
     f60: a2 71        	ldx	#$71
     f62: 86 15        	stx	$15                     ; 0x2015 <main+0x1a9f>
     f64: a0 01        	ldy	#$1
     f66: a6 12        	ldx	$12                     ; 0x2012 <main+0x1a9c>
     f68: 86 18        	stx	$18                     ; 0x2018 <main+0x1aa2>
     f6a: a6 13        	ldx	$13                     ; 0x2013 <main+0x1a9d>
     f6c: 86 19        	stx	$19                     ; 0x2019 <main+0x1aa3>
     f6e: a6 12        	ldx	$12                     ; 0x2012 <main+0x1a9c>
     f70: 86 16        	stx	$16                     ; 0x2016 <main+0x1aa0>
     f72: a6 13        	ldx	$13                     ; 0x2013 <main+0x1a9d>
     f74: 86 17        	stx	$17                     ; 0x2017 <main+0x1aa1>
     f76: e6 16        	inc	$16                     ; 0x2016 <main+0x1aa0>
     f78: d0 02        	bne	$f7c <main+0xa06>
     f7a: e6 17        	inc	$17                     ; 0x2017 <main+0x1aa1>
     f7c: b1 18        	lda	($18),y                 ; 0x2018 <main+0x1aa2>
     f7e: aa           	tax
     f7f: b1 18        	lda	($18),y                 ; 0x2018 <main+0x1aa2>
     f81: 92 14        	sta	($14)                   ; 0x2014 <main+0x1a9e>
     f83: e6 14        	inc	$14                     ; 0x2014 <main+0x1a9e>
     f85: d0 02        	bne	$f89 <main+0xa13>
     f87: e6 15        	inc	$15                     ; 0x2015 <main+0x1a9f>
     f89: a5 16        	lda	$16                     ; 0x2016 <main+0x1aa0>
     f8b: 85 18        	sta	$18                     ; 0x2018 <main+0x1aa2>
     f8d: a5 17        	lda	$17                     ; 0x2017 <main+0x1aa1>
     f8f: 85 19        	sta	$19                     ; 0x2019 <main+0x1aa3>
     f91: 8a           	txa
     f92: d0 e2        	bne	$f76 <main+0xa00>
     f94: a6 1b        	ldx	$1b                     ; 0x201b <main+0x1aa5>
     f96: 8e 7e 5f     	stx	$5f7e                   ; 0x5f7e <fpr+0x22>
     f99: a2 7f        	ldx	#$7f
     f9b: 86 14        	stx	$14                     ; 0x2014 <main+0x1a9e>
     f9d: a2 5f        	ldx	#$5f
     f9f: 86 15        	stx	$15                     ; 0x2015 <main+0x1a9f>
     fa1: a0 01        	ldy	#$1
     fa3: a6 12        	ldx	$12                     ; 0x2012 <main+0x1a9c>
     fa5: 86 16        	stx	$16                     ; 0x2016 <main+0x1aa0>
     fa7: a6 13        	ldx	$13                     ; 0x2013 <main+0x1a9d>
     fa9: 86 17        	stx	$17                     ; 0x2017 <main+0x1aa1>
     fab: a6 1a        	ldx	$1a                     ; 0x201a <main+0x1aa4>
     fad: e6 16        	inc	$16                     ; 0x2016 <main+0x1aa0>
     faf: d0 02        	bne	$fb3 <main+0xa3d>
     fb1: e6 17        	inc	$17                     ; 0x2017 <main+0x1aa1>
     fb3: b1 12        	lda	($12),y                 ; 0x2012 <main+0x1a9c>
     fb5: 85 18        	sta	$18                     ; 0x2018 <main+0x1aa2>
     fb7: b1 12        	lda	($12),y                 ; 0x2012 <main+0x1a9c>
     fb9: 92 14        	sta	($14)                   ; 0x2014 <main+0x1a9e>
     fbb: e6 14        	inc	$14                     ; 0x2014 <main+0x1a9e>
     fbd: d0 02        	bne	$fc1 <main+0xa4b>
     fbf: e6 15        	inc	$15                     ; 0x2015 <main+0x1a9f>
     fc1: a5 16        	lda	$16                     ; 0x2016 <main+0x1aa0>
     fc3: 85 12        	sta	$12                     ; 0x2012 <main+0x1a9c>
     fc5: a5 17        	lda	$17                     ; 0x2017 <main+0x1aa1>
     fc7: 85 13        	sta	$13                     ; 0x2013 <main+0x1a9d>
     fc9: a5 18        	lda	$18                     ; 0x2018 <main+0x1aa2>
     fcb: d0 e0        	bne	$fad <main+0xa37>
     fcd: 80 03        	bra	$fd2 <main+0xa5c>
     fcf: 9c 7e 5f     	stz	$5f7e                   ; 0x5f7e <fpr+0x22>
     fd2: 8a           	txa
     fd3: a0 34        	ldy	#$34
     fd5: 91 10        	sta	($10),y                 ; 0x2010 <main+0x1a9a>
     fd7: 18           	clc
     fd8: a5 10        	lda	$10                     ; 0x2010 <main+0x1a9a>
     fda: 69 3b        	adc	#$3b
     fdc: aa           	tax
     fdd: a5 11        	lda	$11                     ; 0x2011 <main+0x1a9b>
     fdf: 69 20        	adc	#$20
     fe1: a8           	tay
     fe2: 8a           	txa
     fe3: 5a           	phy
     fe4: a0 11        	ldy	#$11
     fe6: 91 10        	sta	($10),y                 ; 0x2010 <main+0x1a9a>
     fe8: 7a           	ply
     fe9: 18           	clc
     fea: 69 02        	adc	#$2
     fec: 85 2c        	sta	$2c                     ; 0x202c <main+0x1ab6>
     fee: 98           	tya
     fef: 5a           	phy
     ff0: a0 10        	ldy	#$10
     ff2: 91 10        	sta	($10),y                 ; 0x2010 <main+0x1a9a>
     ff4: 7a           	ply
     ff5: 98           	tya
     ff6: 69 00        	adc	#$0
     ff8: 85 2d        	sta	$2d                     ; 0x202d <main+0x1ab7>
     ffa: 18           	clc
     ffb: a5 10        	lda	$10                     ; 0x2010 <main+0x1a9a>
     ffd: 69 3b        	adc	#$3b
     fff: 48           	pha
    1000: a5 11        	lda	$11                     ; 0x2011 <main+0x1a9b>
    1002: 69 00        	adc	#$0
    1004: a8           	tay
    1005: 68           	pla
    1006: 5a           	phy
    1007: a0 15        	ldy	#$15
    1009: 91 10        	sta	($10),y                 ; 0x2010 <main+0x1a9a>
    100b: 7a           	ply
    100c: 18           	clc
    100d: 69 00        	adc	#$0
    100f: 85 14        	sta	$14                     ; 0x2014 <main+0x1a9e>
    1011: 98           	tya
    1012: 5a           	phy
    1013: a0 14        	ldy	#$14
    1015: 91 10        	sta	($10),y                 ; 0x2010 <main+0x1a9a>
    1017: 7a           	ply
    1018: 98           	tya
    1019: 69 08        	adc	#$8
    101b: 85 15        	sta	$15                     ; 0x2015 <main+0x1a9f>
    101d: a5 14        	lda	$14                     ; 0x2014 <main+0x1a9e>
    101f: a0 0e        	ldy	#$e
    1021: 91 10        	sta	($10),y                 ; 0x2010 <main+0x1a9a>
    1023: a5 15        	lda	$15                     ; 0x2015 <main+0x1a9f>
    1025: c8           	iny
    1026: 91 10        	sta	($10),y                 ; 0x2010 <main+0x1a9a>
    1028: a5 2c        	lda	$2c                     ; 0x202c <main+0x1ab6>
    102a: a0 33        	ldy	#$33
    102c: 91 10        	sta	($10),y                 ; 0x2010 <main+0x1a9a>
    102e: a5 2d        	lda	$2d                     ; 0x202d <main+0x1ab7>
    1030: 88           	dey
    1031: 91 10        	sta	($10),y                 ; 0x2010 <main+0x1a9a>
    1033: a2 00        	ldx	#$0
    1035: 86 28        	stx	$28                     ; 0x2028 <main+0x1ab2>
    1037: a2 00        	ldx	#$0
    1039: 86 29        	stx	$29                     ; 0x2029 <main+0x1ab3>
    103b: a2 5e        	ldx	#$5e
    103d: 8a           	txa
    103e: a0 16        	ldy	#$16
    1040: 91 10        	sta	($10),y                 ; 0x2010 <main+0x1a9a>
    1042: a2 5f        	ldx	#$5f
    1044: 8a           	txa
    1045: a0 2a        	ldy	#$2a
    1047: 91 10        	sta	($10),y                 ; 0x2010 <main+0x1a9a>
    1049: 64 13        	stz	$13                     ; 0x2013 <main+0x1a9d>
    104b: 64 12        	stz	$12                     ; 0x2012 <main+0x1a9c>
    104d: a9 00        	lda	#$0
    104f: a0 2c        	ldy	#$2c
    1051: 91 10        	sta	($10),y                 ; 0x2010 <main+0x1a9a>
    1053: c8           	iny
    1054: 91 10        	sta	($10),y                 ; 0x2010 <main+0x1a9a>
    1056: 4c 7d 1f     	jmp	$1f7d <main+0x1a07>
    1059: ae 5c 5f     	ldx	$5f5c                   ; 0x5f5c <fpr>
    105c: ac 5d 5f     	ldy	$5f5d                   ; 0x5f5d <fpr+0x1>
    105f: 8e 14 d0     	stx	$d014                   ; 0xd014 <__heap_start+0x5e80>
    1062: 64 24        	stz	$24                     ; 0x2024 <main+0x1aae>
    1064: 9c 15 d0     	stz	$d015                   ; 0xd015 <__heap_start+0x5e81>
    1067: 8c 16 d0     	sty	$d016                   ; 0xd016 <__heap_start+0x5e82>
    106a: 9c 17 d0     	stz	$d017                   ; 0xd017 <__heap_start+0x5e83>
    106d: 64 30        	stz	$30                     ; 0x2030 <main+0x1aba>
    106f: 64 44        	stz	$44                     ; 0x2044 <main+0x1ace>
    1071: 9c 14 d0     	stz	$d014                   ; 0xd014 <__heap_start+0x5e80>
    1074: 9c 15 d0     	stz	$d015                   ; 0xd015 <__heap_start+0x5e81>
    1077: 64 45        	stz	$45                     ; 0x2045 <main+0x1acf>
    1079: 9c 16 d0     	stz	$d016                   ; 0xd016 <__heap_start+0x5e82>
    107c: 9c 17 d0     	stz	$d017                   ; 0xd017 <__heap_start+0x5e83>
    107f: a2 0b        	ldx	#$b
    1081: 86 12        	stx	$12                     ; 0x2012 <main+0x1a9c>
    1083: a2 5b        	ldx	#$5b
    1085: 86 13        	stx	$13                     ; 0x2013 <main+0x1a9d>
    1087: a5 12        	lda	$12                     ; 0x2012 <main+0x1a9c>
    1089: a0 35        	ldy	#$35
    108b: 91 10        	sta	($10),y                 ; 0x2010 <main+0x1a9a>
    108d: a5 13        	lda	$13                     ; 0x2013 <main+0x1a9d>
    108f: c8           	iny
    1090: 91 10        	sta	($10),y                 ; 0x2010 <main+0x1a9a>
    1092: 88           	dey
    1093: b1 10        	lda	($10),y                 ; 0x2010 <main+0x1a9a>
    1095: 85 12        	sta	$12                     ; 0x2012 <main+0x1a9c>
    1097: c8           	iny
    1098: b1 10        	lda	($10),y                 ; 0x2010 <main+0x1a9a>
    109a: 85 13        	sta	$13                     ; 0x2013 <main+0x1a9d>
    109c: 20 ef 54     	jsr	$54ef <printf>
    109f: 64 44        	stz	$44                     ; 0x2044 <main+0x1ace>
    10a1: 9c 14 d0     	stz	$d014                   ; 0xd014 <__heap_start+0x5e80>
    10a4: 9c 15 d0     	stz	$d015                   ; 0xd015 <__heap_start+0x5e81>
    10a7: a2 01        	ldx	#$1
    10a9: 86 45        	stx	$45                     ; 0x2045 <main+0x1acf>
    10ab: 8e 16 d0     	stx	$d016                   ; 0xd016 <__heap_start+0x5e82>
    10ae: 9c 17 d0     	stz	$d017                   ; 0xd017 <__heap_start+0x5e83>
    10b1: a0 35        	ldy	#$35
    10b3: b1 10        	lda	($10),y                 ; 0x2010 <main+0x1a9a>
    10b5: 85 12        	sta	$12                     ; 0x2012 <main+0x1a9c>
    10b7: c8           	iny
    10b8: b1 10        	lda	($10),y                 ; 0x2010 <main+0x1a9a>
    10ba: 85 13        	sta	$13                     ; 0x2013 <main+0x1a9d>
    10bc: 20 ef 54     	jsr	$54ef <printf>
    10bf: 64 44        	stz	$44                     ; 0x2044 <main+0x1ace>
    10c1: 9c 14 d0     	stz	$d014                   ; 0xd014 <__heap_start+0x5e80>
    10c4: 9c 15 d0     	stz	$d015                   ; 0xd015 <__heap_start+0x5e81>
    10c7: a2 02        	ldx	#$2
    10c9: 86 45        	stx	$45                     ; 0x2045 <main+0x1acf>
    10cb: 8e 16 d0     	stx	$d016                   ; 0xd016 <__heap_start+0x5e82>
    10ce: 9c 17 d0     	stz	$d017                   ; 0xd017 <__heap_start+0x5e83>
    10d1: a0 35        	ldy	#$35
    10d3: b1 10        	lda	($10),y                 ; 0x2010 <main+0x1a9a>
    10d5: 85 12        	sta	$12                     ; 0x2012 <main+0x1a9c>
    10d7: c8           	iny
    10d8: b1 10        	lda	($10),y                 ; 0x2010 <main+0x1a9a>
    10da: 85 13        	sta	$13                     ; 0x2013 <main+0x1a9d>
    10dc: 20 ef 54     	jsr	$54ef <printf>
    10df: 64 44        	stz	$44                     ; 0x2044 <main+0x1ace>
    10e1: 9c 14 d0     	stz	$d014                   ; 0xd014 <__heap_start+0x5e80>
    10e4: 9c 15 d0     	stz	$d015                   ; 0xd015 <__heap_start+0x5e81>
    10e7: a2 03        	ldx	#$3
    10e9: 86 45        	stx	$45                     ; 0x2045 <main+0x1acf>
    10eb: 8e 16 d0     	stx	$d016                   ; 0xd016 <__heap_start+0x5e82>
    10ee: 9c 17 d0     	stz	$d017                   ; 0xd017 <__heap_start+0x5e83>
    10f1: a0 35        	ldy	#$35
    10f3: b1 10        	lda	($10),y                 ; 0x2010 <main+0x1a9a>
    10f5: 85 12        	sta	$12                     ; 0x2012 <main+0x1a9c>
    10f7: c8           	iny
    10f8: b1 10        	lda	($10),y                 ; 0x2010 <main+0x1a9a>
    10fa: 85 13        	sta	$13                     ; 0x2013 <main+0x1a9d>
    10fc: 20 ef 54     	jsr	$54ef <printf>
    10ff: 64 44        	stz	$44                     ; 0x2044 <main+0x1ace>
    1101: 9c 14 d0     	stz	$d014                   ; 0xd014 <__heap_start+0x5e80>
    1104: 9c 15 d0     	stz	$d015                   ; 0xd015 <__heap_start+0x5e81>
    1107: a2 04        	ldx	#$4
    1109: 86 45        	stx	$45                     ; 0x2045 <main+0x1acf>
    110b: 8e 16 d0     	stx	$d016                   ; 0xd016 <__heap_start+0x5e82>
    110e: 9c 17 d0     	stz	$d017                   ; 0xd017 <__heap_start+0x5e83>
    1111: a0 35        	ldy	#$35
    1113: b1 10        	lda	($10),y                 ; 0x2010 <main+0x1a9a>
    1115: 85 12        	sta	$12                     ; 0x2012 <main+0x1a9c>
    1117: c8           	iny
    1118: b1 10        	lda	($10),y                 ; 0x2010 <main+0x1a9a>
    111a: 85 13        	sta	$13                     ; 0x2013 <main+0x1a9d>
    111c: 20 ef 54     	jsr	$54ef <printf>
    111f: a2 f0        	ldx	#$f0
    1121: 86 30        	stx	$30                     ; 0x2030 <main+0x1aba>
    1123: 80 1e        	bra	$1143 <main+0xbcd>
    1125: e4 12        	cpx	$12                     ; 0x2012 <main+0x1a9c>
    1127: a6 25        	ldx	$25                     ; 0x2025 <main+0x1aaf>
    1129: 90 1b        	bcc	$1146 <main+0xbd0>
    112b: a2 0a        	ldx	#$a
    112d: 86 52        	stx	$52                     ; 0x2052 <main+0x1adc>
    112f: a2 52        	ldx	#$52
    1131: 86 12        	stx	$12                     ; 0x2012 <main+0x1a9c>
    1133: a2 00        	ldx	#$0
    1135: 86 13        	stx	$13                     ; 0x2013 <main+0x1a9d>
    1137: 20 a2 2a     	jsr	$2aa2 <textPrint>
    113a: a6 24        	ldx	$24                     ; 0x2024 <main+0x1aae>
    113c: e8           	inx
    113d: 86 24        	stx	$24                     ; 0x2024 <main+0x1aae>
    113f: e0 0d        	cpx	#$d
    1141: f0 32        	beq	$1175 <main+0xbff>
    1143: ae 5d 5f     	ldx	$5f5d                   ; 0x5f5d <fpr+0x1>
    1146: e8           	inx
    1147: 86 25        	stx	$25                     ; 0x2025 <main+0x1aaf>
    1149: a2 20        	ldx	#$20
    114b: 86 52        	stx	$52                     ; 0x2052 <main+0x1adc>
    114d: a2 52        	ldx	#$52
    114f: 86 12        	stx	$12                     ; 0x2012 <main+0x1a9c>
    1151: a2 00        	ldx	#$0
    1153: 86 13        	stx	$13                     ; 0x2013 <main+0x1a9d>
    1155: 20 a2 2a     	jsr	$2aa2 <textPrint>
    1158: ad 5d 5f     	lda	$5f5d                   ; 0x5f5d <fpr+0x1>
    115b: 18           	clc
    115c: 69 2c        	adc	#$2c
    115e: a8           	tay
    115f: a9 00        	lda	#$0
    1161: 69 00        	adc	#$0
    1163: 85 12        	sta	$12                     ; 0x2012 <main+0x1a9c>
    1165: a2 00        	ldx	#$0
    1167: e4 12        	cpx	$12                     ; 0x2012 <main+0x1a9c>
    1169: d0 ba        	bne	$1125 <main+0xbaf>
    116b: 84 12        	sty	$12                     ; 0x2012 <main+0x1a9c>
    116d: a6 25        	ldx	$25                     ; 0x2025 <main+0x1aaf>
    116f: e4 12        	cpx	$12                     ; 0x2012 <main+0x1a9c>
    1171: 90 d3        	bcc	$1146 <main+0xbd0>
    1173: 80 b6        	bra	$112b <main+0xbb5>
    1175: a9 00        	lda	#$0
    1177: 20 1a 27     	jsr	$271a <writeTopRight>
    117a: 64 44        	stz	$44                     ; 0x2044 <main+0x1ace>
    117c: 9c 14 d0     	stz	$d014                   ; 0xd014 <__heap_start+0x5e80>
    117f: 9c 15 d0     	stz	$d015                   ; 0xd015 <__heap_start+0x5e81>
    1182: 64 45        	stz	$45                     ; 0x2045 <main+0x1acf>
    1184: 9c 16 d0     	stz	$d016                   ; 0xd016 <__heap_start+0x5e82>
    1187: 9c 17 d0     	stz	$d017                   ; 0xd017 <__heap_start+0x5e83>
    118a: a9 7e        	lda	#$7e
    118c: 92 10        	sta	($10)                   ; 0x2010 <main+0x1a9a>
    118e: a0 01        	ldy	#$1
    1190: a9 5f        	lda	#$5f
    1192: 91 10        	sta	($10),y                 ; 0x2010 <main+0x1a9a>
    1194: a2 ba        	ldx	#$ba
    1196: 86 12        	stx	$12                     ; 0x2012 <main+0x1a9c>
    1198: a2 5d        	ldx	#$5d
    119a: 86 13        	stx	$13                     ; 0x2013 <main+0x1a9d>
    119c: 20 ef 54     	jsr	$54ef <printf>
    119f: 64 01        	stz	$1                      ; 0x2001 <main+0x1a8b>
    11a1: a0 39        	ldy	#$39
    11a3: b1 10        	lda	($10),y                 ; 0x2010 <main+0x1a9a>
    11a5: aa           	tax
    11a6: 8d 00 d8     	sta	$d800                   ; 0xd800 <__heap_start+0x666c>
    11a9: a0 29        	ldy	#$29
    11ab: b1 10        	lda	($10),y                 ; 0x2010 <main+0x1a9a>
    11ad: 8d 01 d8     	sta	$d801                   ; 0xd801 <__heap_start+0x666d>
    11b0: 85 14        	sta	$14                     ; 0x2014 <main+0x1a9e>
    11b2: 9c 02 d8     	stz	$d802                   ; 0xd802 <__heap_start+0x666e>
    11b5: 8e 04 d8     	stx	$d804                   ; 0xd804 <__heap_start+0x6670>
    11b8: a0 38        	ldy	#$38
    11ba: b1 10        	lda	($10),y                 ; 0x2010 <main+0x1a9a>
    11bc: 8d 05 d8     	sta	$d805                   ; 0xd805 <__heap_start+0x6671>
    11bf: a0 13        	ldy	#$13
    11c1: b1 10        	lda	($10),y                 ; 0x2010 <main+0x1a9a>
    11c3: 8d 06 d8     	sta	$d806                   ; 0xd806 <__heap_start+0x6672>
    11c6: 8e 08 d8     	stx	$d808                   ; 0xd808 <__heap_start+0x6674>
    11c9: a0 37        	ldy	#$37
    11cb: b1 10        	lda	($10),y                 ; 0x2010 <main+0x1a9a>
    11cd: 8d 09 d8     	sta	$d809                   ; 0xd809 <__heap_start+0x6675>
    11d0: a5 2f        	lda	$2f                     ; 0x202f <main+0x1ab9>
    11d2: 8d 0a d8     	sta	$d80a                   ; 0xd80a <__heap_start+0x6676>
    11d5: 8e 0c d8     	stx	$d80c                   ; 0xd80c <__heap_start+0x6678>
    11d8: a0 2e        	ldy	#$2e
    11da: b1 10        	lda	($10),y                 ; 0x2010 <main+0x1a9a>
    11dc: 8d 0d d8     	sta	$d80d                   ; 0xd80d <__heap_start+0x6679>
    11df: a0 2b        	ldy	#$2b
    11e1: b1 10        	lda	($10),y                 ; 0x2010 <main+0x1a9a>
    11e3: 8d 0e d8     	sta	$d80e                   ; 0xd80e <__heap_start+0x667a>
    11e6: 8e 10 d8     	stx	$d810                   ; 0xd810 <__heap_start+0x667c>
    11e9: a0 2f        	ldy	#$2f
    11eb: b1 10        	lda	($10),y                 ; 0x2010 <main+0x1a9a>
    11ed: 8d 11 d8     	sta	$d811                   ; 0xd811 <__heap_start+0x667d>
    11f0: a5 27        	lda	$27                     ; 0x2027 <main+0x1ab1>
    11f2: 8d 12 d8     	sta	$d812                   ; 0xd812 <__heap_start+0x667e>
    11f5: 8e 14 d8     	stx	$d814                   ; 0xd814 <__heap_start+0x6680>
    11f8: a0 12        	ldy	#$12
    11fa: b1 10        	lda	($10),y                 ; 0x2010 <main+0x1a9a>
    11fc: 8d 15 d8     	sta	$d815                   ; 0xd815 <__heap_start+0x6681>
    11ff: a0 31        	ldy	#$31
    1201: b1 10        	lda	($10),y                 ; 0x2010 <main+0x1a9a>
    1203: 8d 16 d8     	sta	$d816                   ; 0xd816 <__heap_start+0x6682>
    1206: 8e 18 d8     	stx	$d818                   ; 0xd818 <__heap_start+0x6684>
    1209: a0 18        	ldy	#$18
    120b: b1 10        	lda	($10),y                 ; 0x2010 <main+0x1a9a>
    120d: 8d 19 d8     	sta	$d819                   ; 0xd819 <__heap_start+0x6685>
    1210: a0 1a        	ldy	#$1a
    1212: b1 10        	lda	($10),y                 ; 0x2010 <main+0x1a9a>
    1214: 8d 1a d8     	sta	$d81a                   ; 0xd81a <__heap_start+0x6686>
    1217: 8e 1c d8     	stx	$d81c                   ; 0xd81c <__heap_start+0x6688>
    121a: a0 17        	ldy	#$17
    121c: b1 10        	lda	($10),y                 ; 0x2010 <main+0x1a9a>
    121e: 8d 1d d8     	sta	$d81d                   ; 0xd81d <__heap_start+0x6689>
    1221: a0 19        	ldy	#$19
    1223: b1 10        	lda	($10),y                 ; 0x2010 <main+0x1a9a>
    1225: 8d 1e d8     	sta	$d81e                   ; 0xd81e <__heap_start+0x668a>
    1228: a0 00        	ldy	#$0
    122a: 8e 20 d8     	stx	$d820                   ; 0xd820 <__heap_start+0x668c>
    122d: a2 ff        	ldx	#$ff
    122f: 8e 21 d8     	stx	$d821                   ; 0xd821 <__heap_start+0x668d>
    1232: a5 14        	lda	$14                     ; 0x2014 <main+0x1a9e>
    1234: 8d 22 d8     	sta	$d822                   ; 0xd822 <__heap_start+0x668e>
    1237: 84 21        	sty	$21                     ; 0x2021 <main+0x1aab>
    1239: 48           	pha
    123a: a0 22        	ldy	#$22
    123c: b1 10        	lda	($10),y                 ; 0x2010 <main+0x1a9a>
    123e: 8d 24 d8     	sta	$d824                   ; 0xd824 <__heap_start+0x6690>
    1241: a0 28        	ldy	#$28
    1243: b1 10        	lda	($10),y                 ; 0x2010 <main+0x1a9a>
    1245: aa           	tax
    1246: 68           	pla
    1247: 8e 25 d8     	stx	$d825                   ; 0xd825 <__heap_start+0x6691>
    124a: 8d 26 d8     	sta	$d826                   ; 0xd826 <__heap_start+0x6692>
    124d: 48           	pha
    124e: a0 1d        	ldy	#$1d
    1250: b1 10        	lda	($10),y                 ; 0x2010 <main+0x1a9a>
    1252: 8d 28 d8     	sta	$d828                   ; 0xd828 <__heap_start+0x6694>
    1255: a0 1f        	ldy	#$1f
    1257: b1 10        	lda	($10),y                 ; 0x2010 <main+0x1a9a>
    1259: aa           	tax
    125a: 68           	pla
    125b: 8e 29 d8     	stx	$d829                   ; 0xd829 <__heap_start+0x6695>
    125e: 8d 2a d8     	sta	$d82a                   ; 0xd82a <__heap_start+0x6696>
    1261: 48           	pha
    1262: 88           	dey
    1263: b1 10        	lda	($10),y                 ; 0x2010 <main+0x1a9a>
    1265: 8d 2c d8     	sta	$d82c                   ; 0xd82c <__heap_start+0x6698>
    1268: a0 21        	ldy	#$21
    126a: b1 10        	lda	($10),y                 ; 0x2010 <main+0x1a9a>
    126c: aa           	tax
    126d: 68           	pla
    126e: 8e 2d d8     	stx	$d82d                   ; 0xd82d <__heap_start+0x6699>
    1271: 8d 2e d8     	sta	$d82e                   ; 0xd82e <__heap_start+0x669a>
    1274: 48           	pha
    1275: 88           	dey
    1276: b1 10        	lda	($10),y                 ; 0x2010 <main+0x1a9a>
    1278: 8d 30 d8     	sta	$d830                   ; 0xd830 <__heap_start+0x669c>
    127b: a0 24        	ldy	#$24
    127d: b1 10        	lda	($10),y                 ; 0x2010 <main+0x1a9a>
    127f: aa           	tax
    1280: 68           	pla
    1281: 8e 31 d8     	stx	$d831                   ; 0xd831 <__heap_start+0x669d>
    1284: 8d 32 d8     	sta	$d832                   ; 0xd832 <__heap_start+0x669e>
    1287: 48           	pha
    1288: 88           	dey
    1289: b1 10        	lda	($10),y                 ; 0x2010 <main+0x1a9a>
    128b: 8d 34 d8     	sta	$d834                   ; 0xd834 <__heap_start+0x66a0>
    128e: a0 25        	ldy	#$25
    1290: b1 10        	lda	($10),y                 ; 0x2010 <main+0x1a9a>
    1292: aa           	tax
    1293: 68           	pla
    1294: 8e 35 d8     	stx	$d835                   ; 0xd835 <__heap_start+0x66a1>
    1297: 8d 36 d8     	sta	$d836                   ; 0xd836 <__heap_start+0x66a2>
    129a: 48           	pha
    129b: a0 1b        	ldy	#$1b
    129d: b1 10        	lda	($10),y                 ; 0x2010 <main+0x1a9a>
    129f: 8d 38 d8     	sta	$d838                   ; 0xd838 <__heap_start+0x66a4>
    12a2: c8           	iny
    12a3: b1 10        	lda	($10),y                 ; 0x2010 <main+0x1a9a>
    12a5: aa           	tax
    12a6: 68           	pla
    12a7: 8e 39 d8     	stx	$d839                   ; 0xd839 <__heap_start+0x66a5>
    12aa: 8d 3a d8     	sta	$d83a                   ; 0xd83a <__heap_start+0x66a6>
    12ad: 48           	pha
    12ae: a0 26        	ldy	#$26
    12b0: b1 10        	lda	($10),y                 ; 0x2010 <main+0x1a9a>
    12b2: 8d 3c d8     	sta	$d83c                   ; 0xd83c <__heap_start+0x66a8>
    12b5: c8           	iny
    12b6: b1 10        	lda	($10),y                 ; 0x2010 <main+0x1a9a>
    12b8: aa           	tax
    12b9: 68           	pla
    12ba: 8e 3d d8     	stx	$d83d                   ; 0xd83d <__heap_start+0x66a9>
    12bd: 8d 3e d8     	sta	$d83e                   ; 0xd83e <__heap_start+0x66aa>
    12c0: a2 03        	ldx	#$3
    12c2: 86 01        	stx	$1                      ; 0x2001 <main+0x1a8b>
    12c4: a9 c9        	lda	#$c9
    12c6: a2 10        	ldx	#$10
    12c8: 48           	pha
    12c9: 8a           	txa
    12ca: a0 39        	ldy	#$39
    12cc: 91 10        	sta	($10),y                 ; 0x2010 <main+0x1a9a>
    12ce: a4 21        	ldy	$21                     ; 0x2021 <main+0x1aab>
    12d0: 68           	pla
    12d1: a2 00        	ldx	#$0
    12d3: 84 14        	sty	$14                     ; 0x2014 <main+0x1a9e>
    12d5: 85 13        	sta	$13                     ; 0x2013 <main+0x1a9d>
    12d7: 98           	tya
    12d8: 0a           	asl
    12d9: 0a           	asl
    12da: 85 12        	sta	$12                     ; 0x2012 <main+0x1a9c>
    12dc: 0a           	asl
    12dd: 18           	clc
    12de: 65 12        	adc	$12                     ; 0x2012 <main+0x1a9c>
    12e0: 18           	clc
    12e1: 69 0f        	adc	#$f
    12e3: a0 50        	ldy	#$50
    12e5: 48           	pha
    12e6: 5a           	phy
    12e7: a0 39        	ldy	#$39
    12e9: b1 10        	lda	($10),y                 ; 0x2010 <main+0x1a9a>
    12eb: 7a           	ply
    12ec: 85 12        	sta	$12                     ; 0x2012 <main+0x1a9c>
    12ee: 68           	pla
    12ef: 5a           	phy
    12f0: a4 12        	ldy	$12                     ; 0x2012 <main+0x1a9c>
    12f2: 84 16        	sty	$16                     ; 0x2016 <main+0x1aa0>
    12f4: a4 13        	ldy	$13                     ; 0x2013 <main+0x1a9d>
    12f6: 84 15        	sty	$15                     ; 0x2015 <main+0x1a9f>
    12f8: 7a           	ply
    12f9: 92 12        	sta	($12)                   ; 0x2012 <main+0x1a9c>
    12fb: 88           	dey
    12fc: e6 12        	inc	$12                     ; 0x2012 <main+0x1a9c>
    12fe: d0 02        	bne	$1302 <main+0xd8c>
    1300: e6 13        	inc	$13                     ; 0x2013 <main+0x1a9d>
    1302: c0 00        	cpy	#$0
    1304: d0 f3        	bne	$12f9 <main+0xd83>
    1306: a4 14        	ldy	$14                     ; 0x2014 <main+0x1a9e>
    1308: c8           	iny
    1309: d0 01        	bne	$130c <main+0xd96>
    130b: e8           	inx
    130c: 18           	clc
    130d: a5 16        	lda	$16                     ; 0x2016 <main+0x1aa0>
    130f: 69 b0        	adc	#$b0
    1311: 5a           	phy
    1312: a0 39        	ldy	#$39
    1314: 91 10        	sta	($10),y                 ; 0x2010 <main+0x1a9a>
    1316: 7a           	ply
    1317: a5 15        	lda	$15                     ; 0x2015 <main+0x1a9f>
    1319: 69 ff        	adc	#$ff
    131b: e0 00        	cpx	#$0
    131d: f0 03        	beq	$1322 <main+0xdac>
    131f: 4c d3 12     	jmp	$12d3 <main+0xd5d>
    1322: c0 14        	cpy	#$14
    1324: f0 03        	beq	$1329 <main+0xdb3>
    1326: 4c d3 12     	jmp	$12d3 <main+0xd5d>
    1329: 64 01        	stz	$1                      ; 0x2001 <main+0x1a8b>
    132b: a0 34        	ldy	#$34
    132d: b1 10        	lda	($10),y                 ; 0x2010 <main+0x1a9a>
    132f: 85 12        	sta	$12                     ; 0x2012 <main+0x1a9c>
    1331: a5 12        	lda	$12                     ; 0x2012 <main+0x1a9c>
    1333: d0 03        	bne	$1338 <main+0xdc2>
    1335: 4c 8a 13     	jmp	$138a <main+0xe14>
    1338: a6 10        	ldx	$10                     ; 0x2010 <main+0x1a9a>
    133a: a4 11        	ldy	$11                     ; 0x2011 <main+0x1a9b>
    133c: 8a           	txa
    133d: 18           	clc
    133e: 69 02        	adc	#$2
    1340: 85 12        	sta	$12                     ; 0x2012 <main+0x1a9c>
    1342: 98           	tya
    1343: 69 00        	adc	#$0
    1345: 85 13        	sta	$13                     ; 0x2013 <main+0x1a9d>
    1347: 18           	clc
    1348: 8a           	txa
    1349: 69 04        	adc	#$4
    134b: 85 14        	sta	$14                     ; 0x2014 <main+0x1a9e>
    134d: 98           	tya
    134e: 69 00        	adc	#$0
    1350: aa           	tax
    1351: a9 5e        	lda	#$5e
    1353: 92 10        	sta	($10)                   ; 0x2010 <main+0x1a9a>
    1355: a9 5f        	lda	#$5f
    1357: a0 01        	ldy	#$1
    1359: 91 10        	sta	($10),y                 ; 0x2010 <main+0x1a9a>
    135b: c8           	iny
    135c: a9 e1        	lda	#$e1
    135e: 91 10        	sta	($10),y                 ; 0x2010 <main+0x1a9a>
    1360: a9 5b        	lda	#$5b
    1362: 88           	dey
    1363: 91 12        	sta	($12),y                 ; 0x2012 <main+0x1a9c>
    1365: a4 14        	ldy	$14                     ; 0x2014 <main+0x1a9e>
    1367: 84 12        	sty	$12                     ; 0x2012 <main+0x1a9c>
    1369: 86 13        	stx	$13                     ; 0x2013 <main+0x1a9d>
    136b: a0 04        	ldy	#$4
    136d: a9 7e        	lda	#$7e
    136f: 91 10        	sta	($10),y                 ; 0x2010 <main+0x1a9a>
    1371: a9 5f        	lda	#$5f
    1373: a0 01        	ldy	#$1
    1375: 91 12        	sta	($12),y                 ; 0x2012 <main+0x1a9c>
    1377: a2 52        	ldx	#$52
    1379: 86 12        	stx	$12                     ; 0x2012 <main+0x1a9c>
    137b: a2 71        	ldx	#$71
    137d: 86 13        	stx	$13                     ; 0x2013 <main+0x1a9d>
    137f: a2 42        	ldx	#$42
    1381: 86 14        	stx	$14                     ; 0x2014 <main+0x1a9e>
    1383: a2 5d        	ldx	#$5d
    1385: 86 15        	stx	$15                     ; 0x2015 <main+0x1a9f>
    1387: 20 77 55     	jsr	$5577 <sprintf>
    138a: ae 52 71     	ldx	$7152                   ; 0x7152 <finalName>
    138d: 64 18        	stz	$18                     ; 0x2018 <main+0x1aa2>
    138f: a0 52        	ldy	#$52
    1391: 84 12        	sty	$12                     ; 0x2012 <main+0x1a9c>
    1393: a0 71        	ldy	#$71
    1395: 84 13        	sty	$13                     ; 0x2013 <main+0x1a9d>
    1397: 8a           	txa
    1398: d0 03        	bne	$139d <main+0xe27>
    139a: 4c f1 13     	jmp	$13f1 <main+0xe7b>
    139d: 86 14        	stx	$14                     ; 0x2014 <main+0x1a9e>
    139f: 64 12        	stz	$12                     ; 0x2012 <main+0x1a9c>
    13a1: 64 13        	stz	$13                     ; 0x2013 <main+0x1a9d>
    13a3: a4 13        	ldy	$13                     ; 0x2013 <main+0x1a9d>
    13a5: a6 12        	ldx	$12                     ; 0x2012 <main+0x1a9c>
    13a7: e8           	inx
    13a8: d0 01        	bne	$13ab <main+0xe35>
    13aa: c8           	iny
    13ab: a9 53        	lda	#$53
    13ad: 18           	clc
    13ae: 65 12        	adc	$12                     ; 0x2012 <main+0x1a9c>
    13b0: 85 12        	sta	$12                     ; 0x2012 <main+0x1a9c>
    13b2: a9 71        	lda	#$71
    13b4: 65 13        	adc	$13                     ; 0x2013 <main+0x1a9d>
    13b6: 85 13        	sta	$13                     ; 0x2013 <main+0x1a9d>
    13b8: b2 12        	lda	($12)                   ; 0x2012 <main+0x1a9c>
    13ba: 86 12        	stx	$12                     ; 0x2012 <main+0x1a9c>
    13bc: 84 13        	sty	$13                     ; 0x2013 <main+0x1a9d>
    13be: d0 e3        	bne	$13a3 <main+0xe2d>
    13c0: 98           	tya
    13c1: d0 04        	bne	$13c7 <main+0xe51>
    13c3: e0 02        	cpx	#$2
    13c5: 80 02        	bra	$13c9 <main+0xe53>
    13c7: c0 00        	cpy	#$0
    13c9: 64 18        	stz	$18                     ; 0x2018 <main+0x1aa2>
    13cb: a2 52        	ldx	#$52
    13cd: 86 12        	stx	$12                     ; 0x2012 <main+0x1a9c>
    13cf: a2 71        	ldx	#$71
    13d1: 86 13        	stx	$13                     ; 0x2013 <main+0x1a9d>
    13d3: a5 14        	lda	$14                     ; 0x2014 <main+0x1a9e>
    13d5: 90 1a        	bcc	$13f1 <main+0xe7b>
    13d7: ae 53 71     	ldx	$7153                   ; 0x7153 <finalName+0x1>
    13da: e0 3a        	cpx	#$3a
    13dc: d0 13        	bne	$13f1 <main+0xe7b>
    13de: c9 30        	cmp	#$30
    13e0: a2 54        	ldx	#$54
    13e2: 86 12        	stx	$12                     ; 0x2012 <main+0x1a9c>
    13e4: a2 71        	ldx	#$71
    13e6: 86 13        	stx	$13                     ; 0x2013 <main+0x1a9d>
    13e8: 90 07        	bcc	$13f1 <main+0xe7b>
    13ea: c9 38        	cmp	#$38
    13ec: b0 03        	bcs	$13f1 <main+0xe7b>
    13ee: 4c 12 27     	jmp	$2712 <main+0x219c>
    13f1: a2 56        	ldx	#$56
    13f3: 86 14        	stx	$14                     ; 0x2014 <main+0x1a9e>
    13f5: a2 5c        	ldx	#$5c
    13f7: 86 15        	stx	$15                     ; 0x2015 <main+0x1a9f>
    13f9: a2 00        	ldx	#$0
    13fb: 80 0a        	bra	$1407 <main+0xe91>
    13fd: a0 02        	ldy	#$2
    13ff: e6 14        	inc	$14                     ; 0x2014 <main+0x1a9e>
    1401: d0 02        	bne	$1405 <main+0xe8f>
    1403: e6 15        	inc	$15                     ; 0x2015 <main+0x1a9f>
    1405: 5a           	phy
    1406: fa           	plx
    1407: b2 14        	lda	($14)                   ; 0x2014 <main+0x1a9e>
    1409: c9 61        	cmp	#$61
    140b: f0 f0        	beq	$13fd <main+0xe87>
    140d: a0 01        	ldy	#$1
    140f: c9 77        	cmp	#$77
    1411: f0 ec        	beq	$13ff <main+0xe89>
    1413: a8           	tay
    1414: f0 04        	beq	$141a <main+0xea4>
    1416: da           	phx
    1417: 7a           	ply
    1418: 80 e5        	bra	$13ff <main+0xe89>
    141a: a4 12        	ldy	$12                     ; 0x2012 <main+0x1a9c>
    141c: a5 13        	lda	$13                     ; 0x2013 <main+0x1a9d>
    141e: 84 fb        	sty	$fb                     ; 0x20fb <main+0x1b85>
    1420: 85 fc        	sta	$fc                     ; 0x20fc <main+0x1b86>
    1422: b2 12        	lda	($12)                   ; 0x2012 <main+0x1a9c>
    1424: f0 33        	beq	$1459 <main+0xee3>
    1426: 64 15        	stz	$15                     ; 0x2015 <main+0x1a9f>
    1428: a9 00        	lda	#$0
    142a: 64 14        	stz	$14                     ; 0x2014 <main+0x1a9e>
    142c: a0 01        	ldy	#$1
    142e: 5a           	phy
    142f: a4 15        	ldy	$15                     ; 0x2015 <main+0x1a9f>
    1431: 84 16        	sty	$16                     ; 0x2016 <main+0x1aa0>
    1433: 7a           	ply
    1434: e6 15        	inc	$15                     ; 0x2015 <main+0x1a9f>
    1436: d0 02        	bne	$143a <main+0xec4>
    1438: e6 14        	inc	$14                     ; 0x2014 <main+0x1a9e>
    143a: 18           	clc
    143b: 85 17        	sta	$17                     ; 0x2017 <main+0x1aa1>
    143d: a5 16        	lda	$16                     ; 0x2016 <main+0x1aa0>
    143f: 65 12        	adc	$12                     ; 0x2012 <main+0x1a9c>
    1441: 85 16        	sta	$16                     ; 0x2016 <main+0x1aa0>
    1443: a5 17        	lda	$17                     ; 0x2017 <main+0x1aa1>
    1445: 65 13        	adc	$13                     ; 0x2013 <main+0x1a9d>
    1447: 85 17        	sta	$17                     ; 0x2017 <main+0x1aa1>
    1449: b1 16        	lda	($16),y                 ; 0x2016 <main+0x1aa0>
    144b: 85 16        	sta	$16                     ; 0x2016 <main+0x1aa0>
    144d: a5 14        	lda	$14                     ; 0x2014 <main+0x1a9e>
    144f: e6 16        	inc	$16                     ; 0x2016 <main+0x1aa0>
    1451: c6 16        	dec	$16                     ; 0x2016 <main+0x1aa0>
    1453: d0 d9        	bne	$142e <main+0xeb8>
    1455: a4 15        	ldy	$15                     ; 0x2015 <main+0x1a9f>
    1457: 80 02        	bra	$145b <main+0xee5>
    1459: a0 00        	ldy	#$0
    145b: 84 fd        	sty	$fd                     ; 0x20fd <main+0x1b87>
    145d: a4 18        	ldy	$18                     ; 0x2018 <main+0x1aa2>
    145f: 84 f3        	sty	$f3                     ; 0x20f3 <main+0x1b7d>
    1461: 86 f5        	stx	$f5                     ; 0x20f5 <main+0x1b7f>
    1463: a2 56        	ldx	#$56
    1465: 86 12        	stx	$12                     ; 0x2012 <main+0x1a9c>
    1467: a2 00        	ldx	#$0
    1469: 86 13        	stx	$13                     ; 0x2013 <main+0x1a9d>
    146b: 20 5c ff     	jsr	$ff5c <__heap_start+0x8dc8>
    146e: 92 2a        	sta	($2a)                   ; 0x202a <main+0x1ab4>
    1470: a9 00        	lda	#$0
    1472: 6a           	ror
    1473: 85 12        	sta	$12                     ; 0x2012 <main+0x1a9c>
    1475: a6 56        	ldx	$56                     ; 0x2056 <main+0x1ae0>
    1477: d0 03        	bne	$147c <main+0xf06>
    1479: 4c 04 1f     	jmp	$1f04 <main+0x198e>
    147c: a6 28        	ldx	$28                     ; 0x2028 <main+0x1ab2>
    147e: a4 29        	ldy	$29                     ; 0x2029 <main+0x1ab3>
    1480: 86 54        	stx	$54                     ; 0x2054 <main+0x1ade>
    1482: 84 55        	sty	$55                     ; 0x2055 <main+0x1adf>
    1484: a2 63        	ldx	#$63
    1486: 86 12        	stx	$12                     ; 0x2012 <main+0x1a9c>
    1488: a2 5c        	ldx	#$5c
    148a: 86 13        	stx	$13                     ; 0x2013 <main+0x1a9d>
    148c: 20 ef 54     	jsr	$54ef <printf>
    148f: a6 54        	ldx	$54                     ; 0x2054 <main+0x1ade>
    1491: a4 55        	ldy	$55                     ; 0x2055 <main+0x1adf>
    1493: 86 26        	stx	$26                     ; 0x2026 <main+0x1ab0>
    1495: 84 27        	sty	$27                     ; 0x2027 <main+0x1ab1>
    1497: a0 15        	ldy	#$15
    1499: b1 10        	lda	($10),y                 ; 0x2010 <main+0x1a9a>
    149b: 85 28        	sta	$28                     ; 0x2028 <main+0x1ab2>
    149d: 88           	dey
    149e: b1 10        	lda	($10),y                 ; 0x2010 <main+0x1a9a>
    14a0: 85 29        	sta	$29                     ; 0x2029 <main+0x1ab3>
    14a2: a2 40        	ldx	#$40
    14a4: a4 28        	ldy	$28                     ; 0x2028 <main+0x1ab2>
    14a6: 84 12        	sty	$12                     ; 0x2012 <main+0x1a9c>
    14a8: a4 29        	ldy	$29                     ; 0x2029 <main+0x1ab3>
    14aa: 84 13        	sty	$13                     ; 0x2013 <main+0x1a9d>
    14ac: a4 26        	ldy	$26                     ; 0x2026 <main+0x1ab0>
    14ae: 84 14        	sty	$14                     ; 0x2014 <main+0x1a9e>
    14b0: a4 27        	ldy	$27                     ; 0x2027 <main+0x1ab1>
    14b2: 84 15        	sty	$15                     ; 0x2015 <main+0x1a9f>
    14b4: 86 24        	stx	$24                     ; 0x2024 <main+0x1aae>
    14b6: a2 00        	ldx	#$0
    14b8: a9 80        	lda	#$80
    14ba: 20 59 29     	jsr	$2959 <fileRead>
    14bd: a6 24        	ldx	$24                     ; 0x2024 <main+0x1aae>
    14bf: ca           	dex
    14c0: a5 28        	lda	$28                     ; 0x2028 <main+0x1ab2>
    14c2: 18           	clc
    14c3: 69 80        	adc	#$80
    14c5: 85 28        	sta	$28                     ; 0x2028 <main+0x1ab2>
    14c7: a5 29        	lda	$29                     ; 0x2029 <main+0x1ab3>
    14c9: 69 00        	adc	#$0
    14cb: 85 29        	sta	$29                     ; 0x2029 <main+0x1ab3>
    14cd: 8a           	txa
    14ce: d0 d4        	bne	$14a4 <main+0xf2e>
    14d0: a0 15        	ldy	#$15
    14d2: b1 10        	lda	($10),y                 ; 0x2010 <main+0x1a9a>
    14d4: 85 12        	sta	$12                     ; 0x2012 <main+0x1a9c>
    14d6: 88           	dey
    14d7: b1 10        	lda	($10),y                 ; 0x2010 <main+0x1a9a>
    14d9: 85 13        	sta	$13                     ; 0x2013 <main+0x1a9d>
    14db: a0 08        	ldy	#$8
    14dd: a2 00        	ldx	#$0
    14df: 80 03        	bra	$14e4 <main+0xf6e>
    14e1: 98           	tya
    14e2: f0 13        	beq	$14f7 <main+0xf81>
    14e4: b2 12        	lda	($12)                   ; 0x2012 <main+0x1a9c>
    14e6: 8d 07 d7     	sta	$d707                   ; 0xd707 <__heap_start+0x6573>
    14e9: ca           	dex
    14ea: e0 ff        	cpx	#$ff
    14ec: d0 01        	bne	$14ef <main+0xf79>
    14ee: 88           	dey
    14ef: e6 12        	inc	$12                     ; 0x2012 <main+0x1a9c>
    14f1: d0 ee        	bne	$14e1 <main+0xf6b>
    14f3: e6 13        	inc	$13                     ; 0x2013 <main+0x1a9d>
    14f5: 80 ea        	bra	$14e1 <main+0xf6b>
    14f7: 8a           	txa
    14f8: d0 ea        	bne	$14e4 <main+0xf6e>
    14fa: a0 08        	ldy	#$8
    14fc: a2 00        	ldx	#$0
    14fe: 5a           	phy
    14ff: a0 0e        	ldy	#$e
    1501: b1 10        	lda	($10),y                 ; 0x2010 <main+0x1a9a>
    1503: 85 12        	sta	$12                     ; 0x2012 <main+0x1a9c>
    1505: c8           	iny
    1506: b1 10        	lda	($10),y                 ; 0x2010 <main+0x1a9a>
    1508: 7a           	ply
    1509: 85 13        	sta	$13                     ; 0x2013 <main+0x1a9d>
    150b: 80 03        	bra	$1510 <main+0xf9a>
    150d: 98           	tya
    150e: f0 13        	beq	$1523 <main+0xfad>
    1510: b2 12        	lda	($12)                   ; 0x2012 <main+0x1a9c>
    1512: 8d 07 d7     	sta	$d707                   ; 0xd707 <__heap_start+0x6573>
    1515: ca           	dex
    1516: e0 ff        	cpx	#$ff
    1518: d0 01        	bne	$151b <main+0xfa5>
    151a: 88           	dey
    151b: e6 12        	inc	$12                     ; 0x2012 <main+0x1a9c>
    151d: d0 ee        	bne	$150d <main+0xf97>
    151f: e6 13        	inc	$13                     ; 0x2013 <main+0x1a9d>
    1521: 80 ea        	bra	$150d <main+0xf97>
    1523: 8a           	txa
    1524: d0 ea        	bne	$1510 <main+0xf9a>
    1526: 18           	clc
    1527: a9 00        	lda	#$0
    1529: a0 2b        	ldy	#$2b
    152b: 91 10        	sta	($10),y                 ; 0x2010 <main+0x1a9a>
    152d: a2 10        	ldx	#$10
    152f: 8a           	txa
    1530: a0 34        	ldy	#$34
    1532: 91 10        	sta	($10),y                 ; 0x2010 <main+0x1a9a>
    1534: 64 12        	stz	$12                     ; 0x2012 <main+0x1a9c>
    1536: a9 00        	lda	#$0
    1538: a0 31        	ldy	#$31
    153a: 91 10        	sta	($10),y                 ; 0x2010 <main+0x1a9a>
    153c: a0 2e        	ldy	#$2e
    153e: 91 10        	sta	($10),y                 ; 0x2010 <main+0x1a9a>
    1540: c8           	iny
    1541: 91 10        	sta	($10),y                 ; 0x2010 <main+0x1a9a>
    1543: 64 29        	stz	$29                     ; 0x2029 <main+0x1ab3>
    1545: 64 28        	stz	$28                     ; 0x2028 <main+0x1ab2>
    1547: 64 2f        	stz	$2f                     ; 0x202f <main+0x1ab9>
    1549: 4c e7 15     	jmp	$15e7 <main+0x1071>
    154c: 18           	clc
    154d: a6 28        	ldx	$28                     ; 0x2028 <main+0x1ab2>
    154f: 90 03        	bcc	$1554 <main+0xfde>
    1551: 4c 95 1e     	jmp	$1e95 <main+0x191f>
    1554: a0 34        	ldy	#$34
    1556: 91 10        	sta	($10),y                 ; 0x2010 <main+0x1a9a>
    1558: 18           	clc
    1559: a5 10        	lda	$10                     ; 0x2010 <main+0x1a9a>
    155b: 69 3b        	adc	#$3b
    155d: 85 12        	sta	$12                     ; 0x2012 <main+0x1a9c>
    155f: a5 11        	lda	$11                     ; 0x2011 <main+0x1a9b>
    1561: 69 00        	adc	#$0
    1563: 85 13        	sta	$13                     ; 0x2013 <main+0x1a9d>
    1565: a5 29        	lda	$29                     ; 0x2029 <main+0x1ab3>
    1567: 18           	clc
    1568: 65 12        	adc	$12                     ; 0x2012 <main+0x1a9c>
    156a: 85 12        	sta	$12                     ; 0x2012 <main+0x1a9c>
    156c: 8a           	txa
    156d: 86 25        	stx	$25                     ; 0x2025 <main+0x1aaf>
    156f: 65 13        	adc	$13                     ; 0x2013 <main+0x1a9d>
    1571: 85 13        	sta	$13                     ; 0x2013 <main+0x1a9d>
    1573: a6 54        	ldx	$54                     ; 0x2054 <main+0x1ade>
    1575: 86 14        	stx	$14                     ; 0x2014 <main+0x1a9e>
    1577: a6 55        	ldx	$55                     ; 0x2055 <main+0x1adf>
    1579: 86 15        	stx	$15                     ; 0x2015 <main+0x1a9f>
    157b: a2 00        	ldx	#$0
    157d: a9 40        	lda	#$40
    157f: 20 59 29     	jsr	$2959 <fileRead>
    1582: c9 40        	cmp	#$40
    1584: d0 1b        	bne	$15a1 <main+0x102b>
    1586: 18           	clc
    1587: a5 29        	lda	$29                     ; 0x2029 <main+0x1ab3>
    1589: 69 40        	adc	#$40
    158b: 85 29        	sta	$29                     ; 0x2029 <main+0x1ab3>
    158d: a5 25        	lda	$25                     ; 0x2025 <main+0x1aaf>
    158f: 69 00        	adc	#$0
    1591: a4 26        	ldy	$26                     ; 0x2026 <main+0x1ab0>
    1593: c9 20        	cmp	#$20
    1595: d0 22        	bne	$15b9 <main+0x1043>
    1597: a6 29        	ldx	$29                     ; 0x2029 <main+0x1ab3>
    1599: d0 1e        	bne	$15b9 <main+0x1043>
    159b: 64 29        	stz	$29                     ; 0x2029 <main+0x1ab3>
    159d: 64 28        	stz	$28                     ; 0x2028 <main+0x1ab2>
    159f: 80 1a        	bra	$15bb <main+0x1045>
    15a1: a4 26        	ldy	$26                     ; 0x2026 <main+0x1ab0>
    15a3: 18           	clc
    15a4: 65 29        	adc	$29                     ; 0x2029 <main+0x1ab3>
    15a6: 85 29        	sta	$29                     ; 0x2029 <main+0x1ab3>
    15a8: a9 00        	lda	#$0
    15aa: 65 28        	adc	$28                     ; 0x2028 <main+0x1ab2>
    15ac: 85 28        	sta	$28                     ; 0x2028 <main+0x1ab2>
    15ae: a2 01        	ldx	#$1
    15b0: 8a           	txa
    15b1: 5a           	phy
    15b2: a0 31        	ldy	#$31
    15b4: 91 10        	sta	($10),y                 ; 0x2010 <main+0x1a9a>
    15b6: 7a           	ply
    15b7: 80 02        	bra	$15bb <main+0x1045>
    15b9: 85 28        	sta	$28                     ; 0x2028 <main+0x1ab2>
    15bb: a6 27        	ldx	$27                     ; 0x2027 <main+0x1ab1>
    15bd: c8           	iny
    15be: d0 01        	bne	$15c1 <main+0x104b>
    15c0: e8           	inx
    15c1: e4 2c        	cpx	$2c                     ; 0x202c <main+0x1ab6>
    15c3: f0 03        	beq	$15c8 <main+0x1052>
    15c5: 4c f1 1d     	jmp	$1df1 <main+0x187b>
    15c8: c4 2e        	cpy	$2e                     ; 0x202e <main+0x1ab8>
    15ca: f0 03        	beq	$15cf <main+0x1059>
    15cc: 4c f1 1d     	jmp	$1df1 <main+0x187b>
    15cf: a0 31        	ldy	#$31
    15d1: b1 10        	lda	($10),y                 ; 0x2010 <main+0x1a9a>
    15d3: 29 01        	and	#$1
    15d5: 48           	pha
    15d6: a0 39        	ldy	#$39
    15d8: b1 10        	lda	($10),y                 ; 0x2010 <main+0x1a9a>
    15da: 85 2c        	sta	$2c                     ; 0x202c <main+0x1ab6>
    15dc: c8           	iny
    15dd: b1 10        	lda	($10),y                 ; 0x2010 <main+0x1a9a>
    15df: 85 2d        	sta	$2d                     ; 0x202d <main+0x1ab7>
    15e1: 68           	pla
    15e2: f0 03        	beq	$15e7 <main+0x1071>
    15e4: 4c 4e 1f     	jmp	$1f4e <main+0x19d8>
    15e7: 64 15        	stz	$15                     ; 0x2015 <main+0x1a9f>
    15e9: a2 00        	ldx	#$0
    15eb: 64 14        	stz	$14                     ; 0x2014 <main+0x1a9e>
    15ed: 86 1a        	stx	$1a                     ; 0x201a <main+0x1aa4>
    15ef: 8a           	txa
    15f0: 18           	clc
    15f1: 69 14        	adc	#$14
    15f3: aa           	tax
    15f4: a5 14        	lda	$14                     ; 0x2014 <main+0x1a9e>
    15f6: 69 18        	adc	#$18
    15f8: a0 07        	ldy	#$7
    15fa: 8c 01 d7     	sty	$d701                   ; 0xd701 <__heap_start+0x656d>
    15fd: 9c 02 d7     	stz	$d702                   ; 0xd702 <__heap_start+0x656e>
    1600: 8e 02 d7     	stx	$d702                   ; 0xd702 <__heap_start+0x656e>
    1603: 8d 03 d7     	sta	$d703                   ; 0xd703 <__heap_start+0x656f>
    1606: a2 01        	ldx	#$1
    1608: 8e 00 d7     	stx	$d700                   ; 0xd700 <__heap_start+0x656c>
    160b: 9c 00 d7     	stz	$d700                   ; 0xd700 <__heap_start+0x656c>
    160e: ad 00 d7     	lda	$d700                   ; 0xd700 <__heap_start+0x656c>
    1611: 30 fb        	bmi	$160e <main+0x1098>
    1613: a0 06        	ldy	#$6
    1615: 8c 01 d7     	sty	$d701                   ; 0xd701 <__heap_start+0x656d>
    1618: 9c 02 d7     	stz	$d702                   ; 0xd702 <__heap_start+0x656e>
    161b: a0 03        	ldy	#$3
    161d: 8c 00 d7     	sty	$d700                   ; 0xd700 <__heap_start+0x656c>
    1620: 9c 00 d7     	stz	$d700                   ; 0xd700 <__heap_start+0x656c>
    1623: ad 00 d7     	lda	$d700                   ; 0xd700 <__heap_start+0x656c>
    1626: 30 fb        	bmi	$1623 <main+0x10ad>
    1628: ac 02 d7     	ldy	$d702                   ; 0xd702 <__heap_start+0x656e>
    162b: 84 16        	sty	$16                     ; 0x2016 <main+0x1aa0>
    162d: ac 03 d7     	ldy	$d703                   ; 0xd703 <__heap_start+0x656f>
    1630: 84 18        	sty	$18                     ; 0x2018 <main+0x1aa2>
    1632: 18           	clc
    1633: a5 10        	lda	$10                     ; 0x2010 <main+0x1a9a>
    1635: 69 59        	adc	#$59
    1637: 85 12        	sta	$12                     ; 0x2012 <main+0x1a9c>
    1639: a5 11        	lda	$11                     ; 0x2011 <main+0x1a9b>
    163b: 69 20        	adc	#$20
    163d: 85 17        	sta	$17                     ; 0x2017 <main+0x1aa1>
    163f: 85 13        	sta	$13                     ; 0x2013 <main+0x1a9d>
    1641: a5 15        	lda	$15                     ; 0x2015 <main+0x1a9f>
    1643: 18           	clc
    1644: 65 12        	adc	$12                     ; 0x2012 <main+0x1a9c>
    1646: 85 19        	sta	$19                     ; 0x2019 <main+0x1aa3>
    1648: a4 15        	ldy	$15                     ; 0x2015 <main+0x1a9f>
    164a: a5 16        	lda	$16                     ; 0x2016 <main+0x1aa0>
    164c: 91 12        	sta	($12),y                 ; 0x2012 <main+0x1a9c>
    164e: a5 17        	lda	$17                     ; 0x2017 <main+0x1aa1>
    1650: 69 00        	adc	#$0
    1652: a6 19        	ldx	$19                     ; 0x2019 <main+0x1aa3>
    1654: 86 16        	stx	$16                     ; 0x2016 <main+0x1aa0>
    1656: 85 17        	sta	$17                     ; 0x2017 <main+0x1aa1>
    1658: a0 01        	ldy	#$1
    165a: a5 18        	lda	$18                     ; 0x2018 <main+0x1aa2>
    165c: 91 16        	sta	($16),y                 ; 0x2016 <main+0x1aa0>
    165e: a6 1a        	ldx	$1a                     ; 0x201a <main+0x1aa4>
    1660: e8           	inx
    1661: d0 02        	bne	$1665 <main+0x10ef>
    1663: e6 14        	inc	$14                     ; 0x2014 <main+0x1a9e>
    1665: 18           	clc
    1666: a5 15        	lda	$15                     ; 0x2015 <main+0x1a9f>
    1668: 69 02        	adc	#$2
    166a: 85 15        	sta	$15                     ; 0x2015 <main+0x1a9f>
    166c: a5 14        	lda	$14                     ; 0x2014 <main+0x1a9e>
    166e: f0 03        	beq	$1673 <main+0x10fd>
    1670: 4c ed 15     	jmp	$15ed <main+0x1077>
    1673: e0 0f        	cpx	#$f
    1675: f0 03        	beq	$167a <main+0x1104>
    1677: 4c ed 15     	jmp	$15ed <main+0x1077>
    167a: a0 2e        	ldy	#$2e
    167c: b1 10        	lda	($10),y                 ; 0x2010 <main+0x1a9a>
    167e: 29 01        	and	#$1
    1680: d0 14        	bne	$1696 <main+0x1120>
    1682: a9 1f        	lda	#$1f
    1684: a0 04        	ldy	#$4
    1686: 31 12        	and	($12),y                 ; 0x2012 <main+0x1a9c>
    1688: f0 0c        	beq	$1696 <main+0x1120>
    168a: a9 01        	lda	#$1
    168c: 20 1a 27     	jsr	$271a <writeTopRight>
    168f: a2 01        	ldx	#$1
    1691: 8a           	txa
    1692: a0 2e        	ldy	#$2e
    1694: 91 10        	sta	($10),y                 ; 0x2010 <main+0x1a9a>
    1696: 64 57        	stz	$57                     ; 0x2057 <main+0x1ae1>
    1698: a2 56        	ldx	#$56
    169a: 86 12        	stx	$12                     ; 0x2012 <main+0x1a9c>
    169c: a2 00        	ldx	#$0
    169e: 86 13        	stx	$13                     ; 0x2013 <main+0x1a9d>
    16a0: 20 00 ff     	jsr	$ff00 <__heap_start+0x8d6c>
    16a3: 92 2a        	sta	($2a)                   ; 0x202a <main+0x1ab4>
    16a5: a9 00        	lda	#$0
    16a7: 6a           	ror
    16a8: 85 12        	sta	$12                     ; 0x2012 <main+0x1a9c>
    16aa: a6 57        	ldx	$57                     ; 0x2057 <main+0x1ae1>
    16ac: e0 08        	cpx	#$8
    16ae: f0 03        	beq	$16b3 <main+0x113d>
    16b0: 4c 46 18     	jmp	$1846 <main+0x12d0>
    16b3: a6 5b        	ldx	$5b                     ; 0x205b <main+0x1ae5>
    16b5: e0 81        	cpx	#$81
    16b7: f0 16        	beq	$16cf <main+0x1159>
    16b9: e0 83        	cpx	#$83
    16bb: f0 0a        	beq	$16c7 <main+0x1151>
    16bd: e0 92        	cpx	#$92
    16bf: f0 03        	beq	$16c4 <main+0x114e>
    16c1: 4c 46 18     	jmp	$1846 <main+0x12d0>
    16c4: 4c 98 26     	jmp	$2698 <main+0x2122>
    16c7: 38           	sec
    16c8: a9 01        	lda	#$1
    16ca: a0 2b        	ldy	#$2b
    16cc: 4c 44 18     	jmp	$1844 <main+0x12ce>
    16cf: a0 2c        	ldy	#$2c
    16d1: b1 10        	lda	($10),y                 ; 0x2010 <main+0x1a9a>
    16d3: 29 01        	and	#$1
    16d5: 64 01        	stz	$1                      ; 0x2001 <main+0x1a8b>
    16d7: d0 03        	bne	$16dc <main+0x1166>
    16d9: 4c 92 17     	jmp	$1792 <main+0x121c>
    16dc: 64 12        	stz	$12                     ; 0x2012 <main+0x1a9c>
    16de: a9 00        	lda	#$0
    16e0: 91 10        	sta	($10),y                 ; 0x2010 <main+0x1a9a>
    16e2: 9c 00 d8     	stz	$d800                   ; 0xd800 <__heap_start+0x666c>
    16e5: a0 ff        	ldy	#$ff
    16e7: 8c 01 d8     	sty	$d801                   ; 0xd801 <__heap_start+0x666d>
    16ea: 9c 02 d8     	stz	$d802                   ; 0xd802 <__heap_start+0x666e>
    16ed: 9c 04 d8     	stz	$d804                   ; 0xd804 <__heap_start+0x6670>
    16f0: 8c 05 d8     	sty	$d805                   ; 0xd805 <__heap_start+0x6671>
    16f3: a2 20        	ldx	#$20
    16f5: 8e 06 d8     	stx	$d806                   ; 0xd806 <__heap_start+0x6672>
    16f8: 9c 08 d8     	stz	$d808                   ; 0xd808 <__heap_start+0x6674>
    16fb: 8c 09 d8     	sty	$d809                   ; 0xd809 <__heap_start+0x6675>
    16fe: a2 40        	ldx	#$40
    1700: 8e 0a d8     	stx	$d80a                   ; 0xd80a <__heap_start+0x6676>
    1703: 9c 0c d8     	stz	$d80c                   ; 0xd80c <__heap_start+0x6678>
    1706: 8c 0d d8     	sty	$d80d                   ; 0xd80d <__heap_start+0x6679>
    1709: a2 60        	ldx	#$60
    170b: 8e 0e d8     	stx	$d80e                   ; 0xd80e <__heap_start+0x667a>
    170e: 9c 10 d8     	stz	$d810                   ; 0xd810 <__heap_start+0x667c>
    1711: 8c 11 d8     	sty	$d811                   ; 0xd811 <__heap_start+0x667d>
    1714: a2 80        	ldx	#$80
    1716: 8e 12 d8     	stx	$d812                   ; 0xd812 <__heap_start+0x667e>
    1719: 9c 14 d8     	stz	$d814                   ; 0xd814 <__heap_start+0x6680>
    171c: 8c 15 d8     	sty	$d815                   ; 0xd815 <__heap_start+0x6681>
    171f: a2 a0        	ldx	#$a0
    1721: 8e 16 d8     	stx	$d816                   ; 0xd816 <__heap_start+0x6682>
    1724: 9c 18 d8     	stz	$d818                   ; 0xd818 <__heap_start+0x6684>
    1727: 8c 19 d8     	sty	$d819                   ; 0xd819 <__heap_start+0x6685>
    172a: a2 c0        	ldx	#$c0
    172c: 8e 1a d8     	stx	$d81a                   ; 0xd81a <__heap_start+0x6686>
    172f: 9c 1c d8     	stz	$d81c                   ; 0xd81c <__heap_start+0x6688>
    1732: 8c 1d d8     	sty	$d81d                   ; 0xd81d <__heap_start+0x6689>
    1735: a2 e0        	ldx	#$e0
    1737: 8e 1e d8     	stx	$d81e                   ; 0xd81e <__heap_start+0x668a>
    173a: 9c 20 d8     	stz	$d820                   ; 0xd820 <__heap_start+0x668c>
    173d: 8c 21 d8     	sty	$d821                   ; 0xd821 <__heap_start+0x668d>
    1740: 8c 22 d8     	sty	$d822                   ; 0xd822 <__heap_start+0x668e>
    1743: 9c 24 d8     	stz	$d824                   ; 0xd824 <__heap_start+0x6690>
    1746: ca           	dex
    1747: 8e 25 d8     	stx	$d825                   ; 0xd825 <__heap_start+0x6691>
    174a: 8c 26 d8     	sty	$d826                   ; 0xd826 <__heap_start+0x6692>
    174d: 9c 28 d8     	stz	$d828                   ; 0xd828 <__heap_start+0x6694>
    1750: a2 bf        	ldx	#$bf
    1752: 8e 29 d8     	stx	$d829                   ; 0xd829 <__heap_start+0x6695>
    1755: 8c 2a d8     	sty	$d82a                   ; 0xd82a <__heap_start+0x6696>
    1758: 9c 2c d8     	stz	$d82c                   ; 0xd82c <__heap_start+0x6698>
    175b: a2 9f        	ldx	#$9f
    175d: 8e 2d d8     	stx	$d82d                   ; 0xd82d <__heap_start+0x6699>
    1760: 8c 2e d8     	sty	$d82e                   ; 0xd82e <__heap_start+0x669a>
    1763: 9c 30 d8     	stz	$d830                   ; 0xd830 <__heap_start+0x669c>
    1766: a2 7f        	ldx	#$7f
    1768: 8e 31 d8     	stx	$d831                   ; 0xd831 <__heap_start+0x669d>
    176b: 8c 32 d8     	sty	$d832                   ; 0xd832 <__heap_start+0x669e>
    176e: 9c 34 d8     	stz	$d834                   ; 0xd834 <__heap_start+0x66a0>
    1771: a2 5f        	ldx	#$5f
    1773: 8e 35 d8     	stx	$d835                   ; 0xd835 <__heap_start+0x66a1>
    1776: 8c 36 d8     	sty	$d836                   ; 0xd836 <__heap_start+0x66a2>
    1779: 9c 38 d8     	stz	$d838                   ; 0xd838 <__heap_start+0x66a4>
    177c: a2 3f        	ldx	#$3f
    177e: 8e 39 d8     	stx	$d839                   ; 0xd839 <__heap_start+0x66a5>
    1781: 8c 3a d8     	sty	$d83a                   ; 0xd83a <__heap_start+0x66a6>
    1784: 9c 3c d8     	stz	$d83c                   ; 0xd83c <__heap_start+0x66a8>
    1787: a2 1f        	ldx	#$1f
    1789: 8e 3d d8     	stx	$d83d                   ; 0xd83d <__heap_start+0x66a9>
    178c: 8c 3e d8     	sty	$d83e                   ; 0xd83e <__heap_start+0x66aa>
    178f: 4c 46 18     	jmp	$1846 <main+0x12d0>
    1792: a0 ff        	ldy	#$ff
    1794: 8c 00 d8     	sty	$d800                   ; 0xd800 <__heap_start+0x666c>
    1797: 9c 01 d8     	stz	$d801                   ; 0xd801 <__heap_start+0x666d>
    179a: 9c 02 d8     	stz	$d802                   ; 0xd802 <__heap_start+0x666e>
    179d: 8c 04 d8     	sty	$d804                   ; 0xd804 <__heap_start+0x6670>
    17a0: a2 20        	ldx	#$20
    17a2: 8e 05 d8     	stx	$d805                   ; 0xd805 <__heap_start+0x6671>
    17a5: 9c 06 d8     	stz	$d806                   ; 0xd806 <__heap_start+0x6672>
    17a8: 8c 08 d8     	sty	$d808                   ; 0xd808 <__heap_start+0x6674>
    17ab: a2 40        	ldx	#$40
    17ad: 8e 09 d8     	stx	$d809                   ; 0xd809 <__heap_start+0x6675>
    17b0: 9c 0a d8     	stz	$d80a                   ; 0xd80a <__heap_start+0x6676>
    17b3: 8c 0c d8     	sty	$d80c                   ; 0xd80c <__heap_start+0x6678>
    17b6: a2 60        	ldx	#$60
    17b8: 8e 0d d8     	stx	$d80d                   ; 0xd80d <__heap_start+0x6679>
    17bb: 9c 0e d8     	stz	$d80e                   ; 0xd80e <__heap_start+0x667a>
    17be: 8c 10 d8     	sty	$d810                   ; 0xd810 <__heap_start+0x667c>
    17c1: a2 80        	ldx	#$80
    17c3: 8e 11 d8     	stx	$d811                   ; 0xd811 <__heap_start+0x667d>
    17c6: 9c 12 d8     	stz	$d812                   ; 0xd812 <__heap_start+0x667e>
    17c9: 8c 14 d8     	sty	$d814                   ; 0xd814 <__heap_start+0x6680>
    17cc: a2 a0        	ldx	#$a0
    17ce: 8e 15 d8     	stx	$d815                   ; 0xd815 <__heap_start+0x6681>
    17d1: 9c 16 d8     	stz	$d816                   ; 0xd816 <__heap_start+0x6682>
    17d4: 8c 18 d8     	sty	$d818                   ; 0xd818 <__heap_start+0x6684>
    17d7: a2 c0        	ldx	#$c0
    17d9: 8e 19 d8     	stx	$d819                   ; 0xd819 <__heap_start+0x6685>
    17dc: 9c 1a d8     	stz	$d81a                   ; 0xd81a <__heap_start+0x6686>
    17df: 8c 1c d8     	sty	$d81c                   ; 0xd81c <__heap_start+0x6688>
    17e2: a2 e0        	ldx	#$e0
    17e4: 8e 1d d8     	stx	$d81d                   ; 0xd81d <__heap_start+0x6689>
    17e7: 9c 1e d8     	stz	$d81e                   ; 0xd81e <__heap_start+0x668a>
    17ea: 8c 20 d8     	sty	$d820                   ; 0xd820 <__heap_start+0x668c>
    17ed: 8c 21 d8     	sty	$d821                   ; 0xd821 <__heap_start+0x668d>
    17f0: 9c 22 d8     	stz	$d822                   ; 0xd822 <__heap_start+0x668e>
    17f3: ca           	dex
    17f4: 8e 24 d8     	stx	$d824                   ; 0xd824 <__heap_start+0x6690>
    17f7: 8c 25 d8     	sty	$d825                   ; 0xd825 <__heap_start+0x6691>
    17fa: 9c 26 d8     	stz	$d826                   ; 0xd826 <__heap_start+0x6692>
    17fd: a2 bf        	ldx	#$bf
    17ff: 8e 28 d8     	stx	$d828                   ; 0xd828 <__heap_start+0x6694>
    1802: 8c 29 d8     	sty	$d829                   ; 0xd829 <__heap_start+0x6695>
    1805: 9c 2a d8     	stz	$d82a                   ; 0xd82a <__heap_start+0x6696>
    1808: a2 9f        	ldx	#$9f
    180a: 8e 2c d8     	stx	$d82c                   ; 0xd82c <__heap_start+0x6698>
    180d: 8c 2d d8     	sty	$d82d                   ; 0xd82d <__heap_start+0x6699>
    1810: 9c 2e d8     	stz	$d82e                   ; 0xd82e <__heap_start+0x669a>
    1813: a2 7f        	ldx	#$7f
    1815: 8e 30 d8     	stx	$d830                   ; 0xd830 <__heap_start+0x669c>
    1818: 8c 31 d8     	sty	$d831                   ; 0xd831 <__heap_start+0x669d>
    181b: 9c 32 d8     	stz	$d832                   ; 0xd832 <__heap_start+0x669e>
    181e: a2 5f        	ldx	#$5f
    1820: 8e 34 d8     	stx	$d834                   ; 0xd834 <__heap_start+0x66a0>
    1823: 8c 35 d8     	sty	$d835                   ; 0xd835 <__heap_start+0x66a1>
    1826: 9c 36 d8     	stz	$d836                   ; 0xd836 <__heap_start+0x66a2>
    1829: a2 3f        	ldx	#$3f
    182b: 8e 38 d8     	stx	$d838                   ; 0xd838 <__heap_start+0x66a4>
    182e: 8c 39 d8     	sty	$d839                   ; 0xd839 <__heap_start+0x66a5>
    1831: 9c 3a d8     	stz	$d83a                   ; 0xd83a <__heap_start+0x66a6>
    1834: a2 1f        	ldx	#$1f
    1836: 8e 3c d8     	stx	$d83c                   ; 0xd83c <__heap_start+0x66a8>
    1839: 8c 3d d8     	sty	$d83d                   ; 0xd83d <__heap_start+0x66a9>
    183c: 9c 3e d8     	stz	$d83e                   ; 0xd83e <__heap_start+0x66aa>
    183f: a2 01        	ldx	#$1
    1841: 8a           	txa
    1842: a0 2c        	ldy	#$2c
    1844: 91 10        	sta	($10),y                 ; 0x2010 <main+0x1a9a>
    1846: a0 2f        	ldy	#$2f
    1848: b1 10        	lda	($10),y                 ; 0x2010 <main+0x1a9a>
    184a: 29 01        	and	#$1
    184c: d0 03        	bne	$1851 <main+0x12db>
    184e: 4c f3 19     	jmp	$19f3 <main+0x147d>
    1851: a0 2d        	ldy	#$2d
    1853: b1 10        	lda	($10),y                 ; 0x2010 <main+0x1a9a>
    1855: aa           	tax
    1856: c9 81        	cmp	#$81
    1858: f0 16        	beq	$1870 <main+0x12fa>
    185a: e0 83        	cpx	#$83
    185c: f0 0a        	beq	$1868 <main+0x12f2>
    185e: e0 92        	cpx	#$92
    1860: f0 03        	beq	$1865 <main+0x12ef>
    1862: 4c f3 19     	jmp	$19f3 <main+0x147d>
    1865: 4c d5 26     	jmp	$26d5 <main+0x215f>
    1868: 38           	sec
    1869: a9 01        	lda	#$1
    186b: a0 2b        	ldy	#$2b
    186d: 4c f1 19     	jmp	$19f1 <main+0x147b>
    1870: a0 2c        	ldy	#$2c
    1872: b1 10        	lda	($10),y                 ; 0x2010 <main+0x1a9a>
    1874: 29 01        	and	#$1
    1876: 64 01        	stz	$1                      ; 0x2001 <main+0x1a8b>
    1878: d0 03        	bne	$187d <main+0x1307>
    187a: 4c 35 19     	jmp	$1935 <main+0x13bf>
    187d: 64 12        	stz	$12                     ; 0x2012 <main+0x1a9c>
    187f: a9 00        	lda	#$0
    1881: 91 10        	sta	($10),y                 ; 0x2010 <main+0x1a9a>
    1883: 9c 00 d8     	stz	$d800                   ; 0xd800 <__heap_start+0x666c>
    1886: a0 ff        	ldy	#$ff
    1888: 8c 01 d8     	sty	$d801                   ; 0xd801 <__heap_start+0x666d>
    188b: 9c 02 d8     	stz	$d802                   ; 0xd802 <__heap_start+0x666e>
    188e: 9c 04 d8     	stz	$d804                   ; 0xd804 <__heap_start+0x6670>
    1891: 8c 05 d8     	sty	$d805                   ; 0xd805 <__heap_start+0x6671>
    1894: a2 20        	ldx	#$20
    1896: 8e 06 d8     	stx	$d806                   ; 0xd806 <__heap_start+0x6672>
    1899: 9c 08 d8     	stz	$d808                   ; 0xd808 <__heap_start+0x6674>
    189c: 8c 09 d8     	sty	$d809                   ; 0xd809 <__heap_start+0x6675>
    189f: a2 40        	ldx	#$40
    18a1: 8e 0a d8     	stx	$d80a                   ; 0xd80a <__heap_start+0x6676>
    18a4: 9c 0c d8     	stz	$d80c                   ; 0xd80c <__heap_start+0x6678>
    18a7: 8c 0d d8     	sty	$d80d                   ; 0xd80d <__heap_start+0x6679>
    18aa: a2 60        	ldx	#$60
    18ac: 8e 0e d8     	stx	$d80e                   ; 0xd80e <__heap_start+0x667a>
    18af: 9c 10 d8     	stz	$d810                   ; 0xd810 <__heap_start+0x667c>
    18b2: 8c 11 d8     	sty	$d811                   ; 0xd811 <__heap_start+0x667d>
    18b5: a2 80        	ldx	#$80
    18b7: 8e 12 d8     	stx	$d812                   ; 0xd812 <__heap_start+0x667e>
    18ba: 9c 14 d8     	stz	$d814                   ; 0xd814 <__heap_start+0x6680>
    18bd: 8c 15 d8     	sty	$d815                   ; 0xd815 <__heap_start+0x6681>
    18c0: a2 a0        	ldx	#$a0
    18c2: 8e 16 d8     	stx	$d816                   ; 0xd816 <__heap_start+0x6682>
    18c5: 9c 18 d8     	stz	$d818                   ; 0xd818 <__heap_start+0x6684>
    18c8: 8c 19 d8     	sty	$d819                   ; 0xd819 <__heap_start+0x6685>
    18cb: a2 c0        	ldx	#$c0
    18cd: 8e 1a d8     	stx	$d81a                   ; 0xd81a <__heap_start+0x6686>
    18d0: 9c 1c d8     	stz	$d81c                   ; 0xd81c <__heap_start+0x6688>
    18d3: 8c 1d d8     	sty	$d81d                   ; 0xd81d <__heap_start+0x6689>
    18d6: a2 e0        	ldx	#$e0
    18d8: 8e 1e d8     	stx	$d81e                   ; 0xd81e <__heap_start+0x668a>
    18db: 9c 20 d8     	stz	$d820                   ; 0xd820 <__heap_start+0x668c>
    18de: 8c 21 d8     	sty	$d821                   ; 0xd821 <__heap_start+0x668d>
    18e1: 8c 22 d8     	sty	$d822                   ; 0xd822 <__heap_start+0x668e>
    18e4: 9c 24 d8     	stz	$d824                   ; 0xd824 <__heap_start+0x6690>
    18e7: ca           	dex
    18e8: 8e 25 d8     	stx	$d825                   ; 0xd825 <__heap_start+0x6691>
    18eb: 8c 26 d8     	sty	$d826                   ; 0xd826 <__heap_start+0x6692>
    18ee: 9c 28 d8     	stz	$d828                   ; 0xd828 <__heap_start+0x6694>
    18f1: a2 bf        	ldx	#$bf
    18f3: 8e 29 d8     	stx	$d829                   ; 0xd829 <__heap_start+0x6695>
    18f6: 8c 2a d8     	sty	$d82a                   ; 0xd82a <__heap_start+0x6696>
    18f9: 9c 2c d8     	stz	$d82c                   ; 0xd82c <__heap_start+0x6698>
    18fc: a2 9f        	ldx	#$9f
    18fe: 8e 2d d8     	stx	$d82d                   ; 0xd82d <__heap_start+0x6699>
    1901: 8c 2e d8     	sty	$d82e                   ; 0xd82e <__heap_start+0x669a>
    1904: 9c 30 d8     	stz	$d830                   ; 0xd830 <__heap_start+0x669c>
    1907: a2 7f        	ldx	#$7f
    1909: 8e 31 d8     	stx	$d831                   ; 0xd831 <__heap_start+0x669d>
    190c: 8c 32 d8     	sty	$d832                   ; 0xd832 <__heap_start+0x669e>
    190f: 9c 34 d8     	stz	$d834                   ; 0xd834 <__heap_start+0x66a0>
    1912: a2 5f        	ldx	#$5f
    1914: 8e 35 d8     	stx	$d835                   ; 0xd835 <__heap_start+0x66a1>
    1917: 8c 36 d8     	sty	$d836                   ; 0xd836 <__heap_start+0x66a2>
    191a: 9c 38 d8     	stz	$d838                   ; 0xd838 <__heap_start+0x66a4>
    191d: a2 3f        	ldx	#$3f
    191f: 8e 39 d8     	stx	$d839                   ; 0xd839 <__heap_start+0x66a5>
    1922: 8c 3a d8     	sty	$d83a                   ; 0xd83a <__heap_start+0x66a6>
    1925: 9c 3c d8     	stz	$d83c                   ; 0xd83c <__heap_start+0x66a8>
    1928: a2 1f        	ldx	#$1f
    192a: 8e 3d d8     	stx	$d83d                   ; 0xd83d <__heap_start+0x66a9>
    192d: 8c 3e d8     	sty	$d83e                   ; 0xd83e <__heap_start+0x66aa>
    1930: a0 2f        	ldy	#$2f
    1932: 4c f1 19     	jmp	$19f1 <main+0x147b>
    1935: a0 ff        	ldy	#$ff
    1937: 8c 00 d8     	sty	$d800                   ; 0xd800 <__heap_start+0x666c>
    193a: 64 12        	stz	$12                     ; 0x2012 <main+0x1a9c>
    193c: a9 00        	lda	#$0
    193e: 5a           	phy
    193f: a0 2f        	ldy	#$2f
    1941: 91 10        	sta	($10),y                 ; 0x2010 <main+0x1a9a>
    1943: 7a           	ply
    1944: 9c 01 d8     	stz	$d801                   ; 0xd801 <__heap_start+0x666d>
    1947: 9c 02 d8     	stz	$d802                   ; 0xd802 <__heap_start+0x666e>
    194a: 8c 04 d8     	sty	$d804                   ; 0xd804 <__heap_start+0x6670>
    194d: a2 20        	ldx	#$20
    194f: 8e 05 d8     	stx	$d805                   ; 0xd805 <__heap_start+0x6671>
    1952: 9c 06 d8     	stz	$d806                   ; 0xd806 <__heap_start+0x6672>
    1955: 8c 08 d8     	sty	$d808                   ; 0xd808 <__heap_start+0x6674>
    1958: a2 40        	ldx	#$40
    195a: 8e 09 d8     	stx	$d809                   ; 0xd809 <__heap_start+0x6675>
    195d: 9c 0a d8     	stz	$d80a                   ; 0xd80a <__heap_start+0x6676>
    1960: 8c 0c d8     	sty	$d80c                   ; 0xd80c <__heap_start+0x6678>
    1963: a2 60        	ldx	#$60
    1965: 8e 0d d8     	stx	$d80d                   ; 0xd80d <__heap_start+0x6679>
    1968: 9c 0e d8     	stz	$d80e                   ; 0xd80e <__heap_start+0x667a>
    196b: 8c 10 d8     	sty	$d810                   ; 0xd810 <__heap_start+0x667c>
    196e: a2 80        	ldx	#$80
    1970: 8e 11 d8     	stx	$d811                   ; 0xd811 <__heap_start+0x667d>
    1973: 9c 12 d8     	stz	$d812                   ; 0xd812 <__heap_start+0x667e>
    1976: 8c 14 d8     	sty	$d814                   ; 0xd814 <__heap_start+0x6680>
    1979: a2 a0        	ldx	#$a0
    197b: 8e 15 d8     	stx	$d815                   ; 0xd815 <__heap_start+0x6681>
    197e: 9c 16 d8     	stz	$d816                   ; 0xd816 <__heap_start+0x6682>
    1981: 8c 18 d8     	sty	$d818                   ; 0xd818 <__heap_start+0x6684>
    1984: a2 c0        	ldx	#$c0
    1986: 8e 19 d8     	stx	$d819                   ; 0xd819 <__heap_start+0x6685>
    1989: 9c 1a d8     	stz	$d81a                   ; 0xd81a <__heap_start+0x6686>
    198c: 8c 1c d8     	sty	$d81c                   ; 0xd81c <__heap_start+0x6688>
    198f: a2 e0        	ldx	#$e0
    1991: 8e 1d d8     	stx	$d81d                   ; 0xd81d <__heap_start+0x6689>
    1994: 9c 1e d8     	stz	$d81e                   ; 0xd81e <__heap_start+0x668a>
    1997: 8c 20 d8     	sty	$d820                   ; 0xd820 <__heap_start+0x668c>
    199a: 8c 21 d8     	sty	$d821                   ; 0xd821 <__heap_start+0x668d>
    199d: 9c 22 d8     	stz	$d822                   ; 0xd822 <__heap_start+0x668e>
    19a0: ca           	dex
    19a1: 8e 24 d8     	stx	$d824                   ; 0xd824 <__heap_start+0x6690>
    19a4: 8c 25 d8     	sty	$d825                   ; 0xd825 <__heap_start+0x6691>
    19a7: 9c 26 d8     	stz	$d826                   ; 0xd826 <__heap_start+0x6692>
    19aa: a2 bf        	ldx	#$bf
    19ac: 8e 28 d8     	stx	$d828                   ; 0xd828 <__heap_start+0x6694>
    19af: 8c 29 d8     	sty	$d829                   ; 0xd829 <__heap_start+0x6695>
    19b2: 9c 2a d8     	stz	$d82a                   ; 0xd82a <__heap_start+0x6696>
    19b5: a2 9f        	ldx	#$9f
    19b7: 8e 2c d8     	stx	$d82c                   ; 0xd82c <__heap_start+0x6698>
    19ba: 8c 2d d8     	sty	$d82d                   ; 0xd82d <__heap_start+0x6699>
    19bd: 9c 2e d8     	stz	$d82e                   ; 0xd82e <__heap_start+0x669a>
    19c0: a2 7f        	ldx	#$7f
    19c2: 8e 30 d8     	stx	$d830                   ; 0xd830 <__heap_start+0x669c>
    19c5: 8c 31 d8     	sty	$d831                   ; 0xd831 <__heap_start+0x669d>
    19c8: 9c 32 d8     	stz	$d832                   ; 0xd832 <__heap_start+0x669e>
    19cb: a2 5f        	ldx	#$5f
    19cd: 8e 34 d8     	stx	$d834                   ; 0xd834 <__heap_start+0x66a0>
    19d0: 8c 35 d8     	sty	$d835                   ; 0xd835 <__heap_start+0x66a1>
    19d3: 9c 36 d8     	stz	$d836                   ; 0xd836 <__heap_start+0x66a2>
    19d6: a2 3f        	ldx	#$3f
    19d8: 8e 38 d8     	stx	$d838                   ; 0xd838 <__heap_start+0x66a4>
    19db: 8c 39 d8     	sty	$d839                   ; 0xd839 <__heap_start+0x66a5>
    19de: 9c 3a d8     	stz	$d83a                   ; 0xd83a <__heap_start+0x66a6>
    19e1: a2 1f        	ldx	#$1f
    19e3: 8e 3c d8     	stx	$d83c                   ; 0xd83c <__heap_start+0x66a8>
    19e6: 8c 3d d8     	sty	$d83d                   ; 0xd83d <__heap_start+0x66a9>
    19e9: 9c 3e d8     	stz	$d83e                   ; 0xd83e <__heap_start+0x66aa>
    19ec: a2 01        	ldx	#$1
    19ee: 8a           	txa
    19ef: a0 2c        	ldy	#$2c
    19f1: 91 10        	sta	($10),y                 ; 0x2010 <main+0x1a9a>
    19f3: a2 25        	ldx	#$25
    19f5: 8a           	txa
    19f6: a0 39        	ldy	#$39
    19f8: 91 10        	sta	($10),y                 ; 0x2010 <main+0x1a9a>
    19fa: ca           	dex
    19fb: 8a           	txa
    19fc: 88           	dey
    19fd: 91 10        	sta	($10),y                 ; 0x2010 <main+0x1a9a>
    19ff: a2 c9        	ldx	#$c9
    1a01: 8a           	txa
    1a02: 88           	dey
    1a03: 91 10        	sta	($10),y                 ; 0x2010 <main+0x1a9a>
    1a05: a2 01        	ldx	#$1
    1a07: a9 00        	lda	#$0
    1a09: a0 c9        	ldy	#$c9
    1a0b: 48           	pha
    1a0c: 98           	tya
    1a0d: a0 35        	ldy	#$35
    1a0f: 91 10        	sta	($10),y                 ; 0x2010 <main+0x1a9a>
    1a11: 68           	pla
    1a12: 64 18        	stz	$18                     ; 0x2018 <main+0x1aa2>
    1a14: 86 1a        	stx	$1a                     ; 0x201a <main+0x1aa4>
    1a16: 18           	clc
    1a17: 48           	pha
    1a18: a5 10        	lda	$10                     ; 0x2010 <main+0x1a9a>
    1a1a: 69 59        	adc	#$59
    1a1c: 85 12        	sta	$12                     ; 0x2012 <main+0x1a9c>
    1a1e: a5 11        	lda	$11                     ; 0x2011 <main+0x1a9b>
    1a20: 69 20        	adc	#$20
    1a22: 85 13        	sta	$13                     ; 0x2013 <main+0x1a9d>
    1a24: 68           	pla
    1a25: 85 1b        	sta	$1b                     ; 0x201b <main+0x1aa5>
    1a27: 18           	clc
    1a28: 65 12        	adc	$12                     ; 0x2012 <main+0x1a9c>
    1a2a: 85 12        	sta	$12                     ; 0x2012 <main+0x1a9c>
    1a2c: a5 13        	lda	$13                     ; 0x2013 <main+0x1a9d>
    1a2e: 69 00        	adc	#$0
    1a30: 85 13        	sta	$13                     ; 0x2013 <main+0x1a9d>
    1a32: a9 1f        	lda	#$1f
    1a34: a0 02        	ldy	#$2
    1a36: 31 12        	and	($12),y                 ; 0x2012 <main+0x1a9c>
    1a38: 85 1c        	sta	$1c                     ; 0x201c <main+0x1aa6>
    1a3a: 0a           	asl
    1a3b: 64 12        	stz	$12                     ; 0x2012 <main+0x1a9c>
    1a3d: 26 12        	rol	$12                     ; 0x2012 <main+0x1a9c>
    1a3f: 85 13        	sta	$13                     ; 0x2013 <main+0x1a9d>
    1a41: 06 13        	asl	$13                     ; 0x2013 <main+0x1a9d>
    1a43: 26 12        	rol	$12                     ; 0x2012 <main+0x1a9c>
    1a45: 48           	pha
    1a46: a0 30        	ldy	#$30
    1a48: b1 10        	lda	($10),y                 ; 0x2010 <main+0x1a9a>
    1a4a: aa           	tax
    1a4b: 68           	pla
    1a4c: e0 11        	cpx	#$11
    1a4e: f0 03        	beq	$1a53 <main+0x14dd>
    1a50: 4c bd 1b     	jmp	$1bbd <main+0x1647>
    1a53: 85 19        	sta	$19                     ; 0x2019 <main+0x1aa3>
    1a55: a4 1b        	ldy	$1b                     ; 0x201b <main+0x1aa5>
    1a57: 84 14        	sty	$14                     ; 0x2014 <main+0x1a9e>
    1a59: 5a           	phy
    1a5a: a0 33        	ldy	#$33
    1a5c: b1 10        	lda	($10),y                 ; 0x2010 <main+0x1a9a>
    1a5e: 18           	clc
    1a5f: 65 14        	adc	$14                     ; 0x2014 <main+0x1a9e>
    1a61: aa           	tax
    1a62: 88           	dey
    1a63: b1 10        	lda	($10),y                 ; 0x2010 <main+0x1a9a>
    1a65: 7a           	ply
    1a66: 69 00        	adc	#$0
    1a68: 86 14        	stx	$14                     ; 0x2014 <main+0x1a9e>
    1a6a: 85 15        	sta	$15                     ; 0x2015 <main+0x1a9f>
    1a6c: b1 2c        	lda	($2c),y                 ; 0x202c <main+0x1ab6>
    1a6e: 85 1d        	sta	$1d                     ; 0x201d <main+0x1aa7>
    1a70: 85 16        	sta	$16                     ; 0x2016 <main+0x1aa0>
    1a72: a0 01        	ldy	#$1
    1a74: b1 14        	lda	($14),y                 ; 0x2014 <main+0x1a9e>
    1a76: aa           	tax
    1a77: a4 16        	ldy	$16                     ; 0x2016 <main+0x1aa0>
    1a79: 84 15        	sty	$15                     ; 0x2015 <main+0x1a9f>
    1a7b: 06 15        	asl	$15                     ; 0x2015 <main+0x1a9f>
    1a7d: 2a           	rol
    1a7e: a4 15        	ldy	$15                     ; 0x2015 <main+0x1a9f>
    1a80: 84 1e        	sty	$1e                     ; 0x201e <main+0x1aa8>
    1a82: 06 15        	asl	$15                     ; 0x2015 <main+0x1a9f>
    1a84: 2a           	rol
    1a85: 85 14        	sta	$14                     ; 0x2014 <main+0x1a9e>
    1a87: 8a           	txa
    1a88: 86 17        	stx	$17                     ; 0x2017 <main+0x1aa1>
    1a8a: a2 00        	ldx	#$0
    1a8c: e4 17        	cpx	$17                     ; 0x2017 <main+0x1aa1>
    1a8e: d0 1a        	bne	$1aaa <main+0x1534>
    1a90: a6 1c        	ldx	$1c                     ; 0x201c <main+0x1aa6>
    1a92: e4 16        	cpx	$16                     ; 0x2016 <main+0x1aa0>
    1a94: 90 1a        	bcc	$1ab0 <main+0x153a>
    1a96: a0 e0        	ldy	#$e0
    1a98: aa           	tax
    1a99: f0 03        	beq	$1a9e <main+0x1528>
    1a9b: 4c 32 1b     	jmp	$1b32 <main+0x15bc>
    1a9e: a6 1d        	ldx	$1d                     ; 0x201d <main+0x1aa7>
    1aa0: e4 1c        	cpx	$1c                     ; 0x201c <main+0x1aa6>
    1aa2: b0 03        	bcs	$1aa7 <main+0x1531>
    1aa4: 4c 39 1b     	jmp	$1b39 <main+0x15c3>
    1aa7: 4c bd 1b     	jmp	$1bbd <main+0x1647>
    1aaa: 85 17        	sta	$17                     ; 0x2017 <main+0x1aa1>
    1aac: e4 17        	cpx	$17                     ; 0x2017 <main+0x1aa1>
    1aae: b0 e6        	bcs	$1a96 <main+0x1520>
    1ab0: 18           	clc
    1ab1: a5 19        	lda	$19                     ; 0x2019 <main+0x1aa3>
    1ab3: 69 28        	adc	#$28
    1ab5: 85 16        	sta	$16                     ; 0x2016 <main+0x1aa0>
    1ab7: a8           	tay
    1ab8: a5 1a        	lda	$1a                     ; 0x201a <main+0x1aa4>
    1aba: 0a           	asl
    1abb: 0a           	asl
    1abc: 0a           	asl
    1abd: 18           	clc
    1abe: 85 19        	sta	$19                     ; 0x2019 <main+0x1aa3>
    1ac0: 69 3c        	adc	#$3c
    1ac2: 85 1e        	sta	$1e                     ; 0x201e <main+0x1aa8>
    1ac4: 38           	sec
    1ac5: a5 1d        	lda	$1d                     ; 0x201d <main+0x1aa7>
    1ac7: e5 1c        	sbc	$1c                     ; 0x201c <main+0x1aa6>
    1ac9: 85 17        	sta	$17                     ; 0x2017 <main+0x1aa1>
    1acb: a2 2a        	ldx	#$2a
    1acd: 8e 40 dd     	stx	$dd40                   ; 0xdd40 <__heap_start+0x6bac>
    1ad0: 9c 41 dd     	stz	$dd41                   ; 0xdd41 <__heap_start+0x6bad>
    1ad3: a6 1e        	ldx	$1e                     ; 0x201e <main+0x1aa8>
    1ad5: 8e 41 dd     	stx	$dd41                   ; 0xdd41 <__heap_start+0x6bad>
    1ad8: 9c 41 dd     	stz	$dd41                   ; 0xdd41 <__heap_start+0x6bad>
    1adb: 18           	clc
    1adc: a5 19        	lda	$19                     ; 0x2019 <main+0x1aa3>
    1ade: 69 3d        	adc	#$3d
    1ae0: 8d 41 dd     	sta	$dd41                   ; 0xdd41 <__heap_start+0x6bad>
    1ae3: a2 2b        	ldx	#$2b
    1ae5: 8e 40 dd     	stx	$dd40                   ; 0xdd40 <__heap_start+0x6bac>
    1ae8: 9c 41 dd     	stz	$dd41                   ; 0xdd41 <__heap_start+0x6bad>
    1aeb: 18           	clc
    1aec: 98           	tya
    1aed: 69 14        	adc	#$14
    1aef: 8d 41 dd     	sta	$dd41                   ; 0xdd41 <__heap_start+0x6bad>
    1af2: 18           	clc
    1af3: a5 17        	lda	$17                     ; 0x2017 <main+0x1aa1>
    1af5: 65 16        	adc	$16                     ; 0x2016 <main+0x1aa0>
    1af7: 8d 41 dd     	sta	$dd41                   ; 0xdd41 <__heap_start+0x6bad>
    1afa: 29 fe        	and	#$fe
    1afc: 8d 41 dd     	sta	$dd41                   ; 0xdd41 <__heap_start+0x6bad>
    1aff: a5 15        	lda	$15                     ; 0x2015 <main+0x1a9f>
    1b01: 09 01        	ora	#$1
    1b03: 38           	sec
    1b04: e5 13        	sbc	$13                     ; 0x2013 <main+0x1a9d>
    1b06: a8           	tay
    1b07: a5 14        	lda	$14                     ; 0x2014 <main+0x1a9e>
    1b09: e5 12        	sbc	$12                     ; 0x2012 <main+0x1a9c>
    1b0b: e8           	inx
    1b0c: 8e 40 dd     	stx	$dd40                   ; 0xdd40 <__heap_start+0x6bac>
    1b0f: 80 05        	bra	$1b16 <main+0x15a0>
    1b11: a4 14        	ldy	$14                     ; 0x2014 <main+0x1a9e>
    1b13: aa           	tax
    1b14: f0 15        	beq	$1b2b <main+0x15b5>
    1b16: 9c 42 dd     	stz	$dd42                   ; 0xdd42 <__heap_start+0x6bae>
    1b19: a2 f8        	ldx	#$f8
    1b1b: 8e 43 dd     	stx	$dd43                   ; 0xdd43 <__heap_start+0x6baf>
    1b1e: 84 14        	sty	$14                     ; 0x2014 <main+0x1a9e>
    1b20: a2 ff        	ldx	#$ff
    1b22: c6 14        	dec	$14                     ; 0x2014 <main+0x1a9e>
    1b24: e4 14        	cpx	$14                     ; 0x2014 <main+0x1a9e>
    1b26: d0 e9        	bne	$1b11 <main+0x159b>
    1b28: 3a           	dec
    1b29: 80 e6        	bra	$1b11 <main+0x159b>
    1b2b: a6 14        	ldx	$14                     ; 0x2014 <main+0x1a9e>
    1b2d: d0 e7        	bne	$1b16 <main+0x15a0>
    1b2f: 4c bd 1b     	jmp	$1bbd <main+0x1647>
    1b32: c9 00        	cmp	#$0
    1b34: 90 03        	bcc	$1b39 <main+0x15c3>
    1b36: 4c bd 1b     	jmp	$1bbd <main+0x1647>
    1b39: 18           	clc
    1b3a: a5 1e        	lda	$1e                     ; 0x201e <main+0x1aa8>
    1b3c: 69 28        	adc	#$28
    1b3e: 85 17        	sta	$17                     ; 0x2017 <main+0x1aa1>
    1b40: a5 1a        	lda	$1a                     ; 0x201a <main+0x1aa4>
    1b42: 0a           	asl
    1b43: 0a           	asl
    1b44: 0a           	asl
    1b45: 18           	clc
    1b46: 85 1d        	sta	$1d                     ; 0x201d <main+0x1aa7>
    1b48: 69 3c        	adc	#$3c
    1b4a: 85 19        	sta	$19                     ; 0x2019 <main+0x1aa3>
    1b4c: a5 1c        	lda	$1c                     ; 0x201c <main+0x1aa6>
    1b4e: 38           	sec
    1b4f: e5 16        	sbc	$16                     ; 0x2016 <main+0x1aa0>
    1b51: 85 16        	sta	$16                     ; 0x2016 <main+0x1aa0>
    1b53: a2 2a        	ldx	#$2a
    1b55: 8e 40 dd     	stx	$dd40                   ; 0xdd40 <__heap_start+0x6bac>
    1b58: 9c 41 dd     	stz	$dd41                   ; 0xdd41 <__heap_start+0x6bad>
    1b5b: a6 19        	ldx	$19                     ; 0x2019 <main+0x1aa3>
    1b5d: 8e 41 dd     	stx	$dd41                   ; 0xdd41 <__heap_start+0x6bad>
    1b60: 9c 41 dd     	stz	$dd41                   ; 0xdd41 <__heap_start+0x6bad>
    1b63: 18           	clc
    1b64: a5 1d        	lda	$1d                     ; 0x201d <main+0x1aa7>
    1b66: 69 3d        	adc	#$3d
    1b68: 8d 41 dd     	sta	$dd41                   ; 0xdd41 <__heap_start+0x6bad>
    1b6b: a2 2b        	ldx	#$2b
    1b6d: 8e 40 dd     	stx	$dd40                   ; 0xdd40 <__heap_start+0x6bac>
    1b70: 9c 41 dd     	stz	$dd41                   ; 0xdd41 <__heap_start+0x6bad>
    1b73: 18           	clc
    1b74: a5 17        	lda	$17                     ; 0x2017 <main+0x1aa1>
    1b76: 69 14        	adc	#$14
    1b78: 8d 41 dd     	sta	$dd41                   ; 0xdd41 <__heap_start+0x6bad>
    1b7b: 18           	clc
    1b7c: a5 17        	lda	$17                     ; 0x2017 <main+0x1aa1>
    1b7e: 65 16        	adc	$16                     ; 0x2016 <main+0x1aa0>
    1b80: 8d 41 dd     	sta	$dd41                   ; 0xdd41 <__heap_start+0x6bad>
    1b83: 29 fe        	and	#$fe
    1b85: 8d 41 dd     	sta	$dd41                   ; 0xdd41 <__heap_start+0x6bad>
    1b88: a5 13        	lda	$13                     ; 0x2013 <main+0x1a9d>
    1b8a: 09 01        	ora	#$1
    1b8c: 38           	sec
    1b8d: e5 15        	sbc	$15                     ; 0x2015 <main+0x1a9f>
    1b8f: 85 15        	sta	$15                     ; 0x2015 <main+0x1a9f>
    1b91: a5 12        	lda	$12                     ; 0x2012 <main+0x1a9c>
    1b93: e5 14        	sbc	$14                     ; 0x2014 <main+0x1a9e>
    1b95: e8           	inx
    1b96: 8e 40 dd     	stx	$dd40                   ; 0xdd40 <__heap_start+0x6bac>
    1b99: 80 07        	bra	$1ba2 <main+0x162c>
    1b9b: a6 14        	ldx	$14                     ; 0x2014 <main+0x1a9e>
    1b9d: 86 15        	stx	$15                     ; 0x2015 <main+0x1a9f>
    1b9f: aa           	tax
    1ba0: f0 17        	beq	$1bb9 <main+0x1643>
    1ba2: 8c 42 dd     	sty	$dd42                   ; 0xdd42 <__heap_start+0x6bae>
    1ba5: a2 07        	ldx	#$7
    1ba7: 8e 43 dd     	stx	$dd43                   ; 0xdd43 <__heap_start+0x6baf>
    1baa: a6 15        	ldx	$15                     ; 0x2015 <main+0x1a9f>
    1bac: 86 14        	stx	$14                     ; 0x2014 <main+0x1a9e>
    1bae: a2 ff        	ldx	#$ff
    1bb0: c6 14        	dec	$14                     ; 0x2014 <main+0x1a9e>
    1bb2: e4 14        	cpx	$14                     ; 0x2014 <main+0x1a9e>
    1bb4: d0 e5        	bne	$1b9b <main+0x1625>
    1bb6: 3a           	dec
    1bb7: 80 e2        	bra	$1b9b <main+0x1625>
    1bb9: a6 14        	ldx	$14                     ; 0x2014 <main+0x1a9e>
    1bbb: d0 e5        	bne	$1ba2 <main+0x162c>
    1bbd: a6 01        	ldx	$1                      ; 0x2001 <main+0x1a8b>
    1bbf: a0 02        	ldy	#$2
    1bc1: 84 01        	sty	$1                      ; 0x2001 <main+0x1a8b>
    1bc3: a0 33        	ldy	#$33
    1bc5: b1 10        	lda	($10),y                 ; 0x2010 <main+0x1a9a>
    1bc7: 18           	clc
    1bc8: 65 1b        	adc	$1b                     ; 0x201b <main+0x1aa5>
    1bca: a8           	tay
    1bcb: 5a           	phy
    1bcc: a0 32        	ldy	#$32
    1bce: b1 10        	lda	($10),y                 ; 0x2010 <main+0x1a9a>
    1bd0: 7a           	ply
    1bd1: 69 00        	adc	#$0
    1bd3: 84 14        	sty	$14                     ; 0x2014 <main+0x1a9e>
    1bd5: 85 15        	sta	$15                     ; 0x2015 <main+0x1a9f>
    1bd7: a4 1b        	ldy	$1b                     ; 0x201b <main+0x1aa5>
    1bd9: b1 2c        	lda	($2c),y                 ; 0x202c <main+0x1ab6>
    1bdb: 85 1d        	sta	$1d                     ; 0x201d <main+0x1aa7>
    1bdd: 85 17        	sta	$17                     ; 0x2017 <main+0x1aa1>
    1bdf: a0 01        	ldy	#$1
    1be1: b1 14        	lda	($14),y                 ; 0x2014 <main+0x1a9e>
    1be3: 85 16        	sta	$16                     ; 0x2016 <main+0x1aa0>
    1be5: d0 1b        	bne	$1c02 <main+0x168c>
    1be7: a4 1d        	ldy	$1d                     ; 0x201d <main+0x1aa7>
    1be9: c4 1c        	cpy	$1c                     ; 0x201c <main+0x1aa6>
    1beb: 90 19        	bcc	$1c06 <main+0x1690>
    1bed: a0 00        	ldy	#$0
    1bef: c4 16        	cpy	$16                     ; 0x2016 <main+0x1aa0>
    1bf1: f0 03        	beq	$1bf6 <main+0x1680>
    1bf3: 4c 00 1d     	jmp	$1d00 <main+0x178a>
    1bf6: a4 1c        	ldy	$1c                     ; 0x201c <main+0x1aa6>
    1bf8: c4 17        	cpy	$17                     ; 0x2017 <main+0x1aa1>
    1bfa: 90 03        	bcc	$1bff <main+0x1689>
    1bfc: 4c b0 1c     	jmp	$1cb0 <main+0x173a>
    1bff: 4c 07 1d     	jmp	$1d07 <main+0x1791>
    1c02: c9 00        	cmp	#$0
    1c04: b0 e7        	bcs	$1bed <main+0x1677>
    1c06: a5 1c        	lda	$1c                     ; 0x201c <main+0x1aa6>
    1c08: 38           	sec
    1c09: e5 17        	sbc	$17                     ; 0x2017 <main+0x1aa1>
    1c0b: a8           	tay
    1c0c: a9 00        	lda	#$0
    1c0e: e5 16        	sbc	$16                     ; 0x2016 <main+0x1aa0>
    1c10: 85 19        	sta	$19                     ; 0x2019 <main+0x1aa3>
    1c12: a5 17        	lda	$17                     ; 0x2017 <main+0x1aa1>
    1c14: 0a           	asl
    1c15: 26 16        	rol	$16                     ; 0x2016 <main+0x1aa0>
    1c17: 0a           	asl
    1c18: 26 16        	rol	$16                     ; 0x2016 <main+0x1aa0>
    1c1a: 0a           	asl
    1c1b: 26 16        	rol	$16                     ; 0x2016 <main+0x1aa0>
    1c1d: 0a           	asl
    1c1e: 85 12        	sta	$12                     ; 0x2012 <main+0x1a9c>
    1c20: 26 16        	rol	$16                     ; 0x2016 <main+0x1aa0>
    1c22: 0a           	asl
    1c23: 5a           	phy
    1c24: a4 16        	ldy	$16                     ; 0x2016 <main+0x1aa0>
    1c26: 84 13        	sty	$13                     ; 0x2013 <main+0x1a9d>
    1c28: 7a           	ply
    1c29: 26 13        	rol	$13                     ; 0x2013 <main+0x1a9d>
    1c2b: 0a           	asl
    1c2c: 26 13        	rol	$13                     ; 0x2013 <main+0x1a9d>
    1c2e: 18           	clc
    1c2f: 65 12        	adc	$12                     ; 0x2012 <main+0x1a9c>
    1c31: 85 12        	sta	$12                     ; 0x2012 <main+0x1a9c>
    1c33: a5 13        	lda	$13                     ; 0x2013 <main+0x1a9d>
    1c35: 65 16        	adc	$16                     ; 0x2016 <main+0x1aa0>
    1c37: 85 13        	sta	$13                     ; 0x2013 <main+0x1a9d>
    1c39: 5a           	phy
    1c3a: a0 39        	ldy	#$39
    1c3c: b1 10        	lda	($10),y                 ; 0x2010 <main+0x1a9a>
    1c3e: 38           	sec
    1c3f: e5 12        	sbc	$12                     ; 0x2012 <main+0x1a9c>
    1c41: 85 1d        	sta	$1d                     ; 0x201d <main+0x1aa7>
    1c43: a0 35        	ldy	#$35
    1c45: b1 10        	lda	($10),y                 ; 0x2010 <main+0x1a9a>
    1c47: e5 13        	sbc	$13                     ; 0x2013 <main+0x1a9d>
    1c49: 85 1e        	sta	$1e                     ; 0x201e <main+0x1aa8>
    1c4b: 38           	sec
    1c4c: a0 38        	ldy	#$38
    1c4e: b1 10        	lda	($10),y                 ; 0x2010 <main+0x1a9a>
    1c50: e5 12        	sbc	$12                     ; 0x2012 <main+0x1a9c>
    1c52: 85 1f        	sta	$1f                     ; 0x201f <main+0x1aa9>
    1c54: 88           	dey
    1c55: b1 10        	lda	($10),y                 ; 0x2010 <main+0x1a9a>
    1c57: 7a           	ply
    1c58: e5 13        	sbc	$13                     ; 0x2013 <main+0x1a9d>
    1c5a: 85 16        	sta	$16                     ; 0x2016 <main+0x1aa0>
    1c5c: 80 22        	bra	$1c80 <main+0x170a>
    1c5e: 18           	clc
    1c5f: a5 1d        	lda	$1d                     ; 0x201d <main+0x1aa7>
    1c61: 69 b0        	adc	#$b0
    1c63: 85 1d        	sta	$1d                     ; 0x201d <main+0x1aa7>
    1c65: a5 1e        	lda	$1e                     ; 0x201e <main+0x1aa8>
    1c67: 69 ff        	adc	#$ff
    1c69: 85 1e        	sta	$1e                     ; 0x201e <main+0x1aa8>
    1c6b: 18           	clc
    1c6c: a5 1f        	lda	$1f                     ; 0x201f <main+0x1aa9>
    1c6e: 69 b0        	adc	#$b0
    1c70: 85 1f        	sta	$1f                     ; 0x201f <main+0x1aa9>
    1c72: a5 22        	lda	$22                     ; 0x2022 <main+0x1aac>
    1c74: 69 ff        	adc	#$ff
    1c76: 85 16        	sta	$16                     ; 0x2016 <main+0x1aa0>
    1c78: a4 12        	ldy	$12                     ; 0x2012 <main+0x1a9c>
    1c7a: a5 13        	lda	$13                     ; 0x2013 <main+0x1a9d>
    1c7c: 85 19        	sta	$19                     ; 0x2019 <main+0x1aa3>
    1c7e: f0 2c        	beq	$1cac <main+0x1736>
    1c80: a5 1f        	lda	$1f                     ; 0x201f <main+0x1aa9>
    1c82: 85 12        	sta	$12                     ; 0x2012 <main+0x1a9c>
    1c84: a5 16        	lda	$16                     ; 0x2016 <main+0x1aa0>
    1c86: 85 22        	sta	$22                     ; 0x2022 <main+0x1aac>
    1c88: a5 16        	lda	$16                     ; 0x2016 <main+0x1aa0>
    1c8a: 85 13        	sta	$13                     ; 0x2013 <main+0x1a9d>
    1c8c: a5 1d        	lda	$1d                     ; 0x201d <main+0x1aa7>
    1c8e: 85 16        	sta	$16                     ; 0x2016 <main+0x1aa0>
    1c90: a5 1e        	lda	$1e                     ; 0x201e <main+0x1aa8>
    1c92: 85 17        	sta	$17                     ; 0x2017 <main+0x1aa1>
    1c94: a9 15        	lda	#$15
    1c96: 92 12        	sta	($12)                   ; 0x2012 <main+0x1a9c>
    1c98: 92 16        	sta	($16)                   ; 0x2016 <main+0x1aa0>
    1c9a: 84 12        	sty	$12                     ; 0x2012 <main+0x1a9c>
    1c9c: a4 19        	ldy	$19                     ; 0x2019 <main+0x1aa3>
    1c9e: 84 13        	sty	$13                     ; 0x2013 <main+0x1a9d>
    1ca0: a0 ff        	ldy	#$ff
    1ca2: c6 12        	dec	$12                     ; 0x2012 <main+0x1a9c>
    1ca4: c4 12        	cpy	$12                     ; 0x2012 <main+0x1a9c>
    1ca6: d0 b6        	bne	$1c5e <main+0x16e8>
    1ca8: c6 13        	dec	$13                     ; 0x2013 <main+0x1a9d>
    1caa: 80 b2        	bra	$1c5e <main+0x16e8>
    1cac: a5 12        	lda	$12                     ; 0x2012 <main+0x1a9c>
    1cae: d0 d0        	bne	$1c80 <main+0x170a>
    1cb0: 86 01        	stx	$1                      ; 0x2001 <main+0x1a8b>
    1cb2: a4 1b        	ldy	$1b                     ; 0x201b <main+0x1aa5>
    1cb4: a5 1c        	lda	$1c                     ; 0x201c <main+0x1aa6>
    1cb6: 91 2c        	sta	($2c),y                 ; 0x202c <main+0x1ab6>
    1cb8: a9 00        	lda	#$0
    1cba: a0 01        	ldy	#$1
    1cbc: 91 14        	sta	($14),y                 ; 0x2014 <main+0x1a9e>
    1cbe: a6 1a        	ldx	$1a                     ; 0x201a <main+0x1aa4>
    1cc0: e8           	inx
    1cc1: d0 02        	bne	$1cc5 <main+0x174f>
    1cc3: e6 18        	inc	$18                     ; 0x2018 <main+0x1aa2>
    1cc5: 18           	clc
    1cc6: a5 1b        	lda	$1b                     ; 0x201b <main+0x1aa5>
    1cc8: 69 02        	adc	#$2
    1cca: a8           	tay
    1ccb: 18           	clc
    1ccc: 5a           	phy
    1ccd: a0 39        	ldy	#$39
    1ccf: b1 10        	lda	($10),y                 ; 0x2010 <main+0x1a9a>
    1cd1: 69 03        	adc	#$3
    1cd3: 91 10        	sta	($10),y                 ; 0x2010 <main+0x1a9a>
    1cd5: a0 35        	ldy	#$35
    1cd7: b1 10        	lda	($10),y                 ; 0x2010 <main+0x1a9a>
    1cd9: 69 00        	adc	#$0
    1cdb: 91 10        	sta	($10),y                 ; 0x2010 <main+0x1a9a>
    1cdd: 18           	clc
    1cde: a0 38        	ldy	#$38
    1ce0: b1 10        	lda	($10),y                 ; 0x2010 <main+0x1a9a>
    1ce2: 69 03        	adc	#$3
    1ce4: 91 10        	sta	($10),y                 ; 0x2010 <main+0x1a9a>
    1ce6: 88           	dey
    1ce7: b1 10        	lda	($10),y                 ; 0x2010 <main+0x1a9a>
    1ce9: 69 00        	adc	#$0
    1ceb: 91 10        	sta	($10),y                 ; 0x2010 <main+0x1a9a>
    1ced: 7a           	ply
    1cee: 98           	tya
    1cef: a4 18        	ldy	$18                     ; 0x2018 <main+0x1aa2>
    1cf1: f0 03        	beq	$1cf6 <main+0x1780>
    1cf3: 4c 14 1a     	jmp	$1a14 <main+0x149e>
    1cf6: e0 0f        	cpx	#$f
    1cf8: f0 03        	beq	$1cfd <main+0x1787>
    1cfa: 4c 14 1a     	jmp	$1a14 <main+0x149e>
    1cfd: 4c b4 1d     	jmp	$1db4 <main+0x183e>
    1d00: c4 16        	cpy	$16                     ; 0x2016 <main+0x1aa0>
    1d02: 90 03        	bcc	$1d07 <main+0x1791>
    1d04: 4c b0 1c     	jmp	$1cb0 <main+0x173a>
    1d07: a4 1c        	ldy	$1c                     ; 0x201c <main+0x1aa6>
    1d09: c0 18        	cpy	#$18
    1d0b: 90 03        	bcc	$1d10 <main+0x179a>
    1d0d: 4c b0 1c     	jmp	$1cb0 <main+0x173a>
    1d10: a5 1c        	lda	$1c                     ; 0x201c <main+0x1aa6>
    1d12: 18           	clc
    1d13: 69 e8        	adc	#$e8
    1d15: a8           	tay
    1d16: a9 00        	lda	#$0
    1d18: 69 ff        	adc	#$ff
    1d1a: 85 19        	sta	$19                     ; 0x2019 <main+0x1aa3>
    1d1c: 06 13        	asl	$13                     ; 0x2013 <main+0x1a9d>
    1d1e: 26 12        	rol	$12                     ; 0x2012 <main+0x1a9c>
    1d20: 06 13        	asl	$13                     ; 0x2013 <main+0x1a9d>
    1d22: 26 12        	rol	$12                     ; 0x2012 <main+0x1a9c>
    1d24: a5 13        	lda	$13                     ; 0x2013 <main+0x1a9d>
    1d26: 0a           	asl
    1d27: 85 16        	sta	$16                     ; 0x2016 <main+0x1aa0>
    1d29: a5 12        	lda	$12                     ; 0x2012 <main+0x1a9c>
    1d2b: 2a           	rol
    1d2c: 06 16        	asl	$16                     ; 0x2016 <main+0x1aa0>
    1d2e: 2a           	rol
    1d2f: 85 17        	sta	$17                     ; 0x2017 <main+0x1aa1>
    1d31: 18           	clc
    1d32: a5 16        	lda	$16                     ; 0x2016 <main+0x1aa0>
    1d34: 65 13        	adc	$13                     ; 0x2013 <main+0x1a9d>
    1d36: 85 13        	sta	$13                     ; 0x2013 <main+0x1a9d>
    1d38: a5 17        	lda	$17                     ; 0x2017 <main+0x1aa1>
    1d3a: 65 12        	adc	$12                     ; 0x2012 <main+0x1a9c>
    1d3c: 85 12        	sta	$12                     ; 0x2012 <main+0x1a9c>
    1d3e: 5a           	phy
    1d3f: a0 39        	ldy	#$39
    1d41: b1 10        	lda	($10),y                 ; 0x2010 <main+0x1a9a>
    1d43: 38           	sec
    1d44: e5 13        	sbc	$13                     ; 0x2013 <main+0x1a9d>
    1d46: 85 1d        	sta	$1d                     ; 0x201d <main+0x1aa7>
    1d48: a0 35        	ldy	#$35
    1d4a: b1 10        	lda	($10),y                 ; 0x2010 <main+0x1a9a>
    1d4c: e5 12        	sbc	$12                     ; 0x2012 <main+0x1a9c>
    1d4e: 85 1e        	sta	$1e                     ; 0x201e <main+0x1aa8>
    1d50: 38           	sec
    1d51: a0 38        	ldy	#$38
    1d53: b1 10        	lda	($10),y                 ; 0x2010 <main+0x1a9a>
    1d55: e5 13        	sbc	$13                     ; 0x2013 <main+0x1a9d>
    1d57: 85 1f        	sta	$1f                     ; 0x201f <main+0x1aa9>
    1d59: 88           	dey
    1d5a: b1 10        	lda	($10),y                 ; 0x2010 <main+0x1a9a>
    1d5c: 7a           	ply
    1d5d: e5 12        	sbc	$12                     ; 0x2012 <main+0x1a9c>
    1d5f: 85 16        	sta	$16                     ; 0x2016 <main+0x1aa0>
    1d61: 80 22        	bra	$1d85 <main+0x180f>
    1d63: 18           	clc
    1d64: a5 1d        	lda	$1d                     ; 0x201d <main+0x1aa7>
    1d66: 69 b0        	adc	#$b0
    1d68: 85 1d        	sta	$1d                     ; 0x201d <main+0x1aa7>
    1d6a: a5 1e        	lda	$1e                     ; 0x201e <main+0x1aa8>
    1d6c: 69 ff        	adc	#$ff
    1d6e: 85 1e        	sta	$1e                     ; 0x201e <main+0x1aa8>
    1d70: 18           	clc
    1d71: a5 1f        	lda	$1f                     ; 0x201f <main+0x1aa9>
    1d73: 69 b0        	adc	#$b0
    1d75: 85 1f        	sta	$1f                     ; 0x201f <main+0x1aa9>
    1d77: a5 22        	lda	$22                     ; 0x2022 <main+0x1aac>
    1d79: 69 ff        	adc	#$ff
    1d7b: 85 16        	sta	$16                     ; 0x2016 <main+0x1aa0>
    1d7d: a4 12        	ldy	$12                     ; 0x2012 <main+0x1a9c>
    1d7f: a5 13        	lda	$13                     ; 0x2013 <main+0x1a9d>
    1d81: 85 19        	sta	$19                     ; 0x2019 <main+0x1aa3>
    1d83: f0 28        	beq	$1dad <main+0x1837>
    1d85: a5 1f        	lda	$1f                     ; 0x201f <main+0x1aa9>
    1d87: 85 12        	sta	$12                     ; 0x2012 <main+0x1a9c>
    1d89: a5 16        	lda	$16                     ; 0x2016 <main+0x1aa0>
    1d8b: 85 22        	sta	$22                     ; 0x2022 <main+0x1aac>
    1d8d: a5 16        	lda	$16                     ; 0x2016 <main+0x1aa0>
    1d8f: 85 13        	sta	$13                     ; 0x2013 <main+0x1a9d>
    1d91: a5 1d        	lda	$1d                     ; 0x201d <main+0x1aa7>
    1d93: 85 16        	sta	$16                     ; 0x2016 <main+0x1aa0>
    1d95: a5 1e        	lda	$1e                     ; 0x201e <main+0x1aa8>
    1d97: 85 17        	sta	$17                     ; 0x2017 <main+0x1aa1>
    1d99: a9 20        	lda	#$20
    1d9b: 92 12        	sta	($12)                   ; 0x2012 <main+0x1a9c>
    1d9d: 92 16        	sta	($16)                   ; 0x2016 <main+0x1aa0>
    1d9f: 84 12        	sty	$12                     ; 0x2012 <main+0x1a9c>
    1da1: a4 19        	ldy	$19                     ; 0x2019 <main+0x1aa3>
    1da3: 84 13        	sty	$13                     ; 0x2013 <main+0x1a9d>
    1da5: e6 12        	inc	$12                     ; 0x2012 <main+0x1a9c>
    1da7: d0 ba        	bne	$1d63 <main+0x17ed>
    1da9: e6 13        	inc	$13                     ; 0x2013 <main+0x1a9d>
    1dab: 80 b6        	bra	$1d63 <main+0x17ed>
    1dad: a5 12        	lda	$12                     ; 0x2012 <main+0x1a9c>
    1daf: d0 d4        	bne	$1d85 <main+0x180f>
    1db1: 4c b0 1c     	jmp	$1cb0 <main+0x173a>
    1db4: a5 2c        	lda	$2c                     ; 0x202c <main+0x1ab6>
    1db6: a0 39        	ldy	#$39
    1db8: 91 10        	sta	($10),y                 ; 0x2010 <main+0x1a9a>
    1dba: a5 2d        	lda	$2d                     ; 0x202d <main+0x1ab7>
    1dbc: c8           	iny
    1dbd: 91 10        	sta	($10),y                 ; 0x2010 <main+0x1a9a>
    1dbf: ae 04 d7     	ldx	$d704                   ; 0xd704 <__heap_start+0x6570>
    1dc2: 86 12        	stx	$12                     ; 0x2012 <main+0x1a9c>
    1dc4: ad 05 d7     	lda	$d705                   ; 0xd705 <__heap_start+0x6571>
    1dc7: 29 07        	and	#$7
    1dc9: 85 13        	sta	$13                     ; 0x2013 <main+0x1a9d>
    1dcb: 38           	sec
    1dcc: a9 00        	lda	#$0
    1dce: e5 12        	sbc	$12                     ; 0x2012 <main+0x1a9c>
    1dd0: 85 12        	sta	$12                     ; 0x2012 <main+0x1a9c>
    1dd2: a9 08        	lda	#$8
    1dd4: e5 13        	sbc	$13                     ; 0x2013 <main+0x1a9d>
    1dd6: 06 12        	asl	$12                     ; 0x2012 <main+0x1a9c>
    1dd8: 2a           	rol
    1dd9: 64 2c        	stz	$2c                     ; 0x202c <main+0x1ab6>
    1ddb: 26 2c        	rol	$2c                     ; 0x202c <main+0x1ab6>
    1ddd: 06 12        	asl	$12                     ; 0x2012 <main+0x1a9c>
    1ddf: 2a           	rol
    1de0: 85 2e        	sta	$2e                     ; 0x202e <main+0x1ab8>
    1de2: 26 2c        	rol	$2c                     ; 0x202c <main+0x1ab6>
    1de4: d0 07        	bne	$1ded <main+0x1877>
    1de6: a5 2e        	lda	$2e                     ; 0x202e <main+0x1ab8>
    1de8: d0 03        	bne	$1ded <main+0x1877>
    1dea: 4c cf 15     	jmp	$15cf <main+0x1059>
    1ded: a0 00        	ldy	#$0
    1def: a2 00        	ldx	#$0
    1df1: 5a           	phy
    1df2: a0 31        	ldy	#$31
    1df4: b1 10        	lda	($10),y                 ; 0x2010 <main+0x1a9a>
    1df6: 7a           	ply
    1df7: 29 01        	and	#$1
    1df9: f0 03        	beq	$1dfe <main+0x1888>
    1dfb: 4c cf 15     	jmp	$15cf <main+0x1059>
    1dfe: 86 27        	stx	$27                     ; 0x2027 <main+0x1ab1>
    1e00: 5a           	phy
    1e01: a0 2f        	ldy	#$2f
    1e03: b1 10        	lda	($10),y                 ; 0x2010 <main+0x1a9a>
    1e05: 7a           	ply
    1e06: 29 01        	and	#$1
    1e08: d0 33        	bne	$1e3d <main+0x18c7>
    1e0a: 84 26        	sty	$26                     ; 0x2026 <main+0x1ab0>
    1e0c: 64 57        	stz	$57                     ; 0x2057 <main+0x1ae1>
    1e0e: a2 56        	ldx	#$56
    1e10: 86 12        	stx	$12                     ; 0x2012 <main+0x1a9c>
    1e12: a2 00        	ldx	#$0
    1e14: 86 13        	stx	$13                     ; 0x2013 <main+0x1a9d>
    1e16: 20 00 ff     	jsr	$ff00 <__heap_start+0x8d6c>
    1e19: 92 2a        	sta	($2a)                   ; 0x202a <main+0x1ab4>
    1e1b: a9 00        	lda	#$0
    1e1d: 6a           	ror
    1e1e: 85 12        	sta	$12                     ; 0x2012 <main+0x1a9c>
    1e20: a6 57        	ldx	$57                     ; 0x2057 <main+0x1ae1>
    1e22: a0 34        	ldy	#$34
    1e24: b1 10        	lda	($10),y                 ; 0x2010 <main+0x1a9a>
    1e26: a8           	tay
    1e27: e0 08        	cpx	#$8
    1e29: d0 19        	bne	$1e44 <main+0x18ce>
    1e2b: a6 5b        	ldx	$5b                     ; 0x205b <main+0x1ae5>
    1e2d: 5a           	phy
    1e2e: 8a           	txa
    1e2f: a0 2d        	ldy	#$2d
    1e31: 91 10        	sta	($10),y                 ; 0x2010 <main+0x1a9a>
    1e33: a2 01        	ldx	#$1
    1e35: 8a           	txa
    1e36: a0 2f        	ldy	#$2f
    1e38: 91 10        	sta	($10),y                 ; 0x2010 <main+0x1a9a>
    1e3a: 7a           	ply
    1e3b: 80 07        	bra	$1e44 <main+0x18ce>
    1e3d: 84 26        	sty	$26                     ; 0x2026 <main+0x1ab0>
    1e3f: a0 34        	ldy	#$34
    1e41: b1 10        	lda	($10),y                 ; 0x2010 <main+0x1a9a>
    1e43: a8           	tay
    1e44: 18           	clc
    1e45: a5 10        	lda	$10                     ; 0x2010 <main+0x1a9a>
    1e47: 69 3b        	adc	#$3b
    1e49: 85 12        	sta	$12                     ; 0x2012 <main+0x1a9c>
    1e4b: a5 11        	lda	$11                     ; 0x2011 <main+0x1a9b>
    1e4d: 69 00        	adc	#$0
    1e4f: 85 13        	sta	$13                     ; 0x2013 <main+0x1a9d>
    1e51: a5 2f        	lda	$2f                     ; 0x202f <main+0x1ab9>
    1e53: 18           	clc
    1e54: 65 12        	adc	$12                     ; 0x2012 <main+0x1a9c>
    1e56: 85 12        	sta	$12                     ; 0x2012 <main+0x1a9c>
    1e58: 98           	tya
    1e59: 65 13        	adc	$13                     ; 0x2013 <main+0x1a9d>
    1e5b: 85 13        	sta	$13                     ; 0x2013 <main+0x1a9d>
    1e5d: a0 00        	ldy	#$0
    1e5f: b1 12        	lda	($12),y                 ; 0x2012 <main+0x1a9c>
    1e61: 8d 07 d7     	sta	$d707                   ; 0xd707 <__heap_start+0x6573>
    1e64: c8           	iny
    1e65: c0 40        	cpy	#$40
    1e67: d0 f6        	bne	$1e5f <main+0x18e9>
    1e69: 18           	clc
    1e6a: a5 2f        	lda	$2f                     ; 0x202f <main+0x1ab9>
    1e6c: 69 40        	adc	#$40
    1e6e: 85 2f        	sta	$2f                     ; 0x202f <main+0x1ab9>
    1e70: a0 34        	ldy	#$34
    1e72: b1 10        	lda	($10),y                 ; 0x2010 <main+0x1a9a>
    1e74: 69 00        	adc	#$0
    1e76: c9 20        	cmp	#$20
    1e78: f0 03        	beq	$1e7d <main+0x1907>
    1e7a: 4c 4c 15     	jmp	$154c <main+0xfd6>
    1e7d: a6 2f        	ldx	$2f                     ; 0x202f <main+0x1ab9>
    1e7f: f0 03        	beq	$1e84 <main+0x190e>
    1e81: 4c 4c 15     	jmp	$154c <main+0xfd6>
    1e84: 64 2f        	stz	$2f                     ; 0x202f <main+0x1ab9>
    1e86: a0 2b        	ldy	#$2b
    1e88: b1 10        	lda	($10),y                 ; 0x2010 <main+0x1a9a>
    1e8a: c9 01        	cmp	#$1
    1e8c: a9 00        	lda	#$0
    1e8e: a6 28        	ldx	$28                     ; 0x2028 <main+0x1ab2>
    1e90: b0 03        	bcs	$1e95 <main+0x191f>
    1e92: 4c 54 15     	jmp	$1554 <main+0xfde>
    1e95: a2 00        	ldx	#$0
    1e97: 86 28        	stx	$28                     ; 0x2028 <main+0x1ab2>
    1e99: a2 00        	ldx	#$0
    1e9b: 86 29        	stx	$29                     ; 0x2029 <main+0x1ab3>
    1e9d: a0 39        	ldy	#$39
    1e9f: b1 10        	lda	($10),y                 ; 0x2010 <main+0x1a9a>
    1ea1: 85 2c        	sta	$2c                     ; 0x202c <main+0x1ab6>
    1ea3: c8           	iny
    1ea4: b1 10        	lda	($10),y                 ; 0x2010 <main+0x1a9a>
    1ea6: 85 2d        	sta	$2d                     ; 0x202d <main+0x1ab7>
    1ea8: a0 08        	ldy	#$8
    1eaa: a2 00        	ldx	#$0
    1eac: 80 03        	bra	$1eb1 <main+0x193b>
    1eae: 98           	tya
    1eaf: f0 0b        	beq	$1ebc <main+0x1946>
    1eb1: 9c 07 d7     	stz	$d707                   ; 0xd707 <__heap_start+0x6573>
    1eb4: ca           	dex
    1eb5: e0 ff        	cpx	#$ff
    1eb7: d0 f5        	bne	$1eae <main+0x1938>
    1eb9: 88           	dey
    1eba: 80 f2        	bra	$1eae <main+0x1938>
    1ebc: 8a           	txa
    1ebd: d0 f2        	bne	$1eb1 <main+0x193b>
    1ebf: a6 54        	ldx	$54                     ; 0x2054 <main+0x1ade>
    1ec1: a4 55        	ldy	$55                     ; 0x2055 <main+0x1adf>
    1ec3: 86 12        	stx	$12                     ; 0x2012 <main+0x1a9c>
    1ec5: 84 13        	sty	$13                     ; 0x2013 <main+0x1a9d>
    1ec7: b2 12        	lda	($12)                   ; 0x2012 <main+0x1a9c>
    1ec9: 85 f3        	sta	$f3                     ; 0x20f3 <main+0x1b7d>
    1ecb: a2 56        	ldx	#$56
    1ecd: 86 14        	stx	$14                     ; 0x2014 <main+0x1a9e>
    1ecf: a2 00        	ldx	#$0
    1ed1: 86 15        	stx	$15                     ; 0x2015 <main+0x1a9f>
    1ed3: 20 68 ff     	jsr	$ff68 <__heap_start+0x8dd4>
    1ed6: 92 2a        	sta	($2a)                   ; 0x202a <main+0x1ab4>
    1ed8: a9 00        	lda	#$0
    1eda: 6a           	ror
    1edb: 85 14        	sta	$14                     ; 0x2014 <main+0x1a9e>
    1edd: 20 22 58     	jsr	$5822 <free>
    1ee0: 64 57        	stz	$57                     ; 0x2057 <main+0x1ae1>
    1ee2: a2 56        	ldx	#$56
    1ee4: 86 12        	stx	$12                     ; 0x2012 <main+0x1a9c>
    1ee6: a2 00        	ldx	#$0
    1ee8: 86 13        	stx	$13                     ; 0x2013 <main+0x1a9d>
    1eea: 20 00 ff     	jsr	$ff00 <__heap_start+0x8d6c>
    1eed: 92 2a        	sta	($2a)                   ; 0x202a <main+0x1ab4>
    1eef: a9 00        	lda	#$0
    1ef1: 6a           	ror
    1ef2: 85 12        	sta	$12                     ; 0x2012 <main+0x1a9c>
    1ef4: a6 57        	ldx	$57                     ; 0x2057 <main+0x1ae1>
    1ef6: e0 32        	cpx	#$32
    1ef8: d0 03        	bne	$1efd <main+0x1987>
    1efa: 4c 6f 1f     	jmp	$1f6f <main+0x19f9>
    1efd: e0 38        	cpx	#$38
    1eff: d0 df        	bne	$1ee0 <main+0x196a>
    1f01: 4c 6f 1f     	jmp	$1f6f <main+0x19f9>
    1f04: b2 2a        	lda	($2a)                   ; 0x202a <main+0x1ab4>
    1f06: 85 24        	sta	$24                     ; 0x2024 <main+0x1aae>
    1f08: 64 57        	stz	$57                     ; 0x2057 <main+0x1ae1>
    1f0a: a2 56        	ldx	#$56
    1f0c: 86 12        	stx	$12                     ; 0x2012 <main+0x1a9c>
    1f0e: a2 00        	ldx	#$0
    1f10: 86 13        	stx	$13                     ; 0x2013 <main+0x1a9d>
    1f12: 20 00 ff     	jsr	$ff00 <__heap_start+0x8d6c>
    1f15: 92 2a        	sta	($2a)                   ; 0x202a <main+0x1ab4>
    1f17: a9 00        	lda	#$0
    1f19: 6a           	ror
    1f1a: 85 12        	sta	$12                     ; 0x2012 <main+0x1a9c>
    1f1c: a6 57        	ldx	$57                     ; 0x2057 <main+0x1ae1>
    1f1e: e0 28        	cpx	#$28
    1f20: d0 03        	bne	$1f25 <main+0x19af>
    1f22: 4c 7c 14     	jmp	$147c <main+0xf06>
    1f25: e0 38        	cpx	#$38
    1f27: d0 03        	bne	$1f2c <main+0x19b6>
    1f29: 4c 7c 14     	jmp	$147c <main+0xf06>
    1f2c: e0 2a        	cpx	#$2a
    1f2e: d0 d8        	bne	$1f08 <main+0x1992>
    1f30: a2 00        	ldx	#$0
    1f32: a9 01        	lda	#$1
    1f34: 20 51 56     	jsr	$5651 <malloc>
    1f37: a6 12        	ldx	$12                     ; 0x2012 <main+0x1a9c>
    1f39: 86 26        	stx	$26                     ; 0x2026 <main+0x1ab0>
    1f3b: a6 13        	ldx	$13                     ; 0x2013 <main+0x1a9d>
    1f3d: 86 27        	stx	$27                     ; 0x2027 <main+0x1ab1>
    1f3f: a5 24        	lda	$24                     ; 0x2024 <main+0x1aae>
    1f41: 92 12        	sta	($12)                   ; 0x2012 <main+0x1a9c>
    1f43: a6 26        	ldx	$26                     ; 0x2026 <main+0x1ab0>
    1f45: a4 27        	ldy	$27                     ; 0x2027 <main+0x1ab1>
    1f47: 86 54        	stx	$54                     ; 0x2054 <main+0x1ade>
    1f49: 84 55        	sty	$55                     ; 0x2055 <main+0x1adf>
    1f4b: 4c 97 14     	jmp	$1497 <main+0xf21>
    1f4e: a0 34        	ldy	#$34
    1f50: b1 10        	lda	($10),y                 ; 0x2010 <main+0x1a9a>
    1f52: aa           	tax
    1f53: c9 f8        	cmp	#$f8
    1f55: d0 06        	bne	$1f5d <main+0x19e7>
    1f57: a6 2f        	ldx	$2f                     ; 0x202f <main+0x1ab9>
    1f59: e0 00        	cpx	#$0
    1f5b: 80 02        	bra	$1f5f <main+0x19e9>
    1f5d: e0 f8        	cpx	#$f8
    1f5f: a2 00        	ldx	#$0
    1f61: 86 28        	stx	$28                     ; 0x2028 <main+0x1ab2>
    1f63: a2 00        	ldx	#$0
    1f65: 86 29        	stx	$29                     ; 0x2029 <main+0x1ab3>
    1f67: b0 03        	bcs	$1f6c <main+0x19f6>
    1f69: 4c a8 1e     	jmp	$1ea8 <main+0x1932>
    1f6c: 4c bf 1e     	jmp	$1ebf <main+0x1949>
    1f6f: 38           	sec
    1f70: a9 01        	lda	#$1
    1f72: a0 34        	ldy	#$34
    1f74: 91 10        	sta	($10),y                 ; 0x2010 <main+0x1a9a>
    1f76: 18           	clc
    1f77: 3a           	dec
    1f78: c8           	iny
    1f79: 91 10        	sta	($10),y                 ; 0x2010 <main+0x1a9a>
    1f7b: 64 13        	stz	$13                     ; 0x2013 <main+0x1a9d>
    1f7d: a2 05        	ldx	#$5
    1f7f: 86 12        	stx	$12                     ; 0x2012 <main+0x1a9c>
    1f81: a2 3b        	ldx	#$3b
    1f83: 86 14        	stx	$14                     ; 0x2014 <main+0x1a9e>
    1f85: a2 12        	ldx	#$12
    1f87: 86 15        	stx	$15                     ; 0x2015 <main+0x1a9f>
    1f89: a2 60        	ldx	#$60
    1f8b: a9 00        	lda	#$0
    1f8d: 20 bb 44     	jsr	$44bb <initVS1053Plugin>
    1f90: a2 05        	ldx	#$5
    1f92: 86 12        	stx	$12                     ; 0x2012 <main+0x1a9c>
    1f94: 64 13        	stz	$13                     ; 0x2013 <main+0x1a9d>
    1f96: a2 e8        	ldx	#$e8
    1f98: 86 14        	stx	$14                     ; 0x2014 <main+0x1a9e>
    1f9a: a2 03        	ldx	#$3
    1f9c: 86 15        	stx	$15                     ; 0x2015 <main+0x1a9f>
    1f9e: a2 90        	ldx	#$90
    1fa0: a9 00        	lda	#$0
    1fa2: 20 bb 44     	jsr	$44bb <initVS1053Plugin>
    1fa5: a0 2c        	ldy	#$2c
    1fa7: b1 10        	lda	($10),y                 ; 0x2010 <main+0x1a9a>
    1fa9: 29 01        	and	#$1
    1fab: 64 01        	stz	$1                      ; 0x2001 <main+0x1a8b>
    1fad: 85 18        	sta	$18                     ; 0x2018 <main+0x1aa2>
    1faf: 4a           	lsr
    1fb0: 64 12        	stz	$12                     ; 0x2012 <main+0x1a9c>
    1fb2: 66 12        	ror	$12                     ; 0x2012 <main+0x1a9c>
    1fb4: a2 ff        	ldx	#$ff
    1fb6: 8a           	txa
    1fb7: a0 39        	ldy	#$39
    1fb9: 91 10        	sta	($10),y                 ; 0x2010 <main+0x1a9a>
    1fbb: a5 12        	lda	$12                     ; 0x2012 <main+0x1a9c>
    1fbd: 30 06        	bmi	$1fc5 <main+0x1a4f>
    1fbf: 64 13        	stz	$13                     ; 0x2013 <main+0x1a9d>
    1fc1: a9 00        	lda	#$0
    1fc3: 91 10        	sta	($10),y                 ; 0x2010 <main+0x1a9a>
    1fc5: 06 12        	asl	$12                     ; 0x2012 <main+0x1a9c>
    1fc7: a0 01        	ldy	#$1
    1fc9: b0 02        	bcs	$1fcd <main+0x1a57>
    1fcb: a0 00        	ldy	#$0
    1fcd: 84 15        	sty	$15                     ; 0x2015 <main+0x1a9f>
    1fcf: a5 18        	lda	$18                     ; 0x2018 <main+0x1aa2>
    1fd1: 49 01        	eor	#$1
    1fd3: 4a           	lsr
    1fd4: 64 12        	stz	$12                     ; 0x2012 <main+0x1a9c>
    1fd6: 66 12        	ror	$12                     ; 0x2012 <main+0x1a9c>
    1fd8: 30 02        	bmi	$1fdc <main+0x1a66>
    1fda: a2 00        	ldx	#$0
    1fdc: a5 18        	lda	$18                     ; 0x2018 <main+0x1aa2>
    1fde: 29 01        	and	#$1
    1fe0: 06 12        	asl	$12                     ; 0x2012 <main+0x1a9c>
    1fe2: a0 01        	ldy	#$1
    1fe4: b0 02        	bcs	$1fe8 <main+0x1a72>
    1fe6: a0 00        	ldy	#$0
    1fe8: 84 19        	sty	$19                     ; 0x2019 <main+0x1aa3>
    1fea: a0 20        	ldy	#$20
    1fec: 48           	pha
    1fed: 98           	tya
    1fee: a0 38        	ldy	#$38
    1ff0: 91 10        	sta	($10),y                 ; 0x2010 <main+0x1a9a>
    1ff2: 68           	pla
    1ff3: d0 04        	bne	$1ff9 <main+0x1a83>
    1ff5: a9 ff        	lda	#$ff
    1ff7: 91 10        	sta	($10),y                 ; 0x2010 <main+0x1a9a>
    1ff9: a4 18        	ldy	$18                     ; 0x2018 <main+0x1aa2>
    1ffb: 84 14        	sty	$14                     ; 0x2014 <main+0x1a9e>
    1ffd: a5 18        	lda	$18                     ; 0x2018 <main+0x1aa2>
    1fff: 0a           	asl
    2000: a0 40        	ldy	#$40
    2002: 48           	pha
    2003: 98           	tya
    2004: a0 37        	ldy	#$37
    2006: 91 10        	sta	($10),y                 ; 0x2010 <main+0x1a9a>
    2008: 68           	pla
    2009: a4 18        	ldy	$18                     ; 0x2018 <main+0x1aa2>
    200b: d0 09        	bne	$2016 <main+0x1aa0>
    200d: a0 ff        	ldy	#$ff
    200f: 48           	pha
    2010: 98           	tya
    2011: a0 37        	ldy	#$37
    2013: 91 10        	sta	($10),y                 ; 0x2010 <main+0x1a9a>
    2015: 68           	pla
    2016: 0a           	asl
    2017: 0a           	asl
    2018: 0a           	asl
    2019: 0a           	asl
    201a: 85 12        	sta	$12                     ; 0x2012 <main+0x1a9c>
    201c: 06 12        	asl	$12                     ; 0x2012 <main+0x1a9c>
    201e: a4 12        	ldy	$12                     ; 0x2012 <main+0x1a9c>
    2020: e6 14        	inc	$14                     ; 0x2014 <main+0x1a9e>
    2022: c6 14        	dec	$14                     ; 0x2014 <main+0x1a9e>
    2024: f0 16        	beq	$203c <main+0x1ac6>
    2026: 85 14        	sta	$14                     ; 0x2014 <main+0x1a9e>
    2028: a9 80        	lda	#$80
    202a: 5a           	phy
    202b: a0 2f        	ldy	#$2f
    202d: 91 10        	sta	($10),y                 ; 0x2010 <main+0x1a9a>
    202f: a9 60        	lda	#$60
    2031: 88           	dey
    2032: 91 10        	sta	($10),y                 ; 0x2010 <main+0x1a9a>
    2034: 64 12        	stz	$12                     ; 0x2012 <main+0x1a9c>
    2036: a9 00        	lda	#$0
    2038: a0 2b        	ldy	#$2b
    203a: 80 10        	bra	$204c <main+0x1ad6>
    203c: 85 14        	sta	$14                     ; 0x2014 <main+0x1a9e>
    203e: a9 60        	lda	#$60
    2040: 5a           	phy
    2041: a0 2b        	ldy	#$2b
    2043: 91 10        	sta	($10),y                 ; 0x2010 <main+0x1a9a>
    2045: a9 ff        	lda	#$ff
    2047: a0 2e        	ldy	#$2e
    2049: 91 10        	sta	($10),y                 ; 0x2010 <main+0x1a9a>
    204b: c8           	iny
    204c: 91 10        	sta	($10),y                 ; 0x2010 <main+0x1a9a>
    204e: 7a           	ply
    204f: 5a           	phy
    2050: a0 39        	ldy	#$39
    2052: b1 10        	lda	($10),y                 ; 0x2010 <main+0x1a9a>
    2054: 5a           	phy
    2055: a4 15        	ldy	$15                     ; 0x2015 <main+0x1a9f>
    2057: c0 01        	cpy	#$1
    2059: 7a           	ply
    205a: 2a           	rol
    205b: 91 10        	sta	($10),y                 ; 0x2010 <main+0x1a9a>
    205d: 8a           	txa
    205e: a6 19        	ldx	$19                     ; 0x2019 <main+0x1aa3>
    2060: e0 01        	cpx	#$1
    2062: 2a           	rol
    2063: a0 29        	ldy	#$29
    2065: 91 10        	sta	($10),y                 ; 0x2010 <main+0x1a9a>
    2067: a0 2c        	ldy	#$2c
    2069: b1 10        	lda	($10),y                 ; 0x2010 <main+0x1a9a>
    206b: 7a           	ply
    206c: 49 ff        	eor	#$ff
    206e: 4a           	lsr
    206f: 64 27        	stz	$27                     ; 0x2027 <main+0x1ab1>
    2071: 66 27        	ror	$27                     ; 0x2027 <main+0x1ab1>
    2073: a5 14        	lda	$14                     ; 0x2014 <main+0x1a9e>
    2075: 49 20        	eor	#$20
    2077: 85 14        	sta	$14                     ; 0x2014 <main+0x1a9e>
    2079: 98           	tya
    207a: 49 40        	eor	#$40
    207c: 85 2f        	sta	$2f                     ; 0x202f <main+0x1ab9>
    207e: a5 18        	lda	$18                     ; 0x2018 <main+0x1aa2>
    2080: d0 03        	bne	$2085 <main+0x1b0f>
    2082: 4c f8 20     	jmp	$20f8 <main+0x1b82>
    2085: a2 ff        	ldx	#$ff
    2087: 8a           	txa
    2088: a0 28        	ldy	#$28
    208a: 91 10        	sta	($10),y                 ; 0x2010 <main+0x1a9a>
    208c: a2 1f        	ldx	#$1f
    208e: 8a           	txa
    208f: a0 26        	ldy	#$26
    2091: 91 10        	sta	($10),y                 ; 0x2010 <main+0x1a9a>
    2093: a2 5f        	ldx	#$5f
    2095: 8a           	txa
    2096: a0 23        	ldy	#$23
    2098: 91 10        	sta	($10),y                 ; 0x2010 <main+0x1a9a>
    209a: a2 7f        	ldx	#$7f
    209c: 8a           	txa
    209d: a0 20        	ldy	#$20
    209f: 91 10        	sta	($10),y                 ; 0x2010 <main+0x1a9a>
    20a1: a2 9f        	ldx	#$9f
    20a3: 8a           	txa
    20a4: a0 1e        	ldy	#$1e
    20a6: 91 10        	sta	($10),y                 ; 0x2010 <main+0x1a9a>
    20a8: a2 bf        	ldx	#$bf
    20aa: 8a           	txa
    20ab: 88           	dey
    20ac: 91 10        	sta	($10),y                 ; 0x2010 <main+0x1a9a>
    20ae: a2 df        	ldx	#$df
    20b0: 8a           	txa
    20b1: a0 22        	ldy	#$22
    20b3: 91 10        	sta	($10),y                 ; 0x2010 <main+0x1a9a>
    20b5: a2 c0        	ldx	#$c0
    20b7: 8a           	txa
    20b8: a0 18        	ldy	#$18
    20ba: 91 10        	sta	($10),y                 ; 0x2010 <main+0x1a9a>
    20bc: a0 a0        	ldy	#$a0
    20be: a2 e0        	ldx	#$e0
    20c0: 5a           	phy
    20c1: 8a           	txa
    20c2: a0 17        	ldy	#$17
    20c4: 91 10        	sta	($10),y                 ; 0x2010 <main+0x1a9a>
    20c6: a2 3f        	ldx	#$3f
    20c8: 8a           	txa
    20c9: a0 1b        	ldy	#$1b
    20cb: 91 10        	sta	($10),y                 ; 0x2010 <main+0x1a9a>
    20cd: 64 12        	stz	$12                     ; 0x2012 <main+0x1a9c>
    20cf: a9 00        	lda	#$0
    20d1: 88           	dey
    20d2: 91 10        	sta	($10),y                 ; 0x2010 <main+0x1a9a>
    20d4: 88           	dey
    20d5: 91 10        	sta	($10),y                 ; 0x2010 <main+0x1a9a>
    20d7: a2 ff        	ldx	#$ff
    20d9: 8a           	txa
    20da: a0 1f        	ldy	#$1f
    20dc: 91 10        	sta	($10),y                 ; 0x2010 <main+0x1a9a>
    20de: a0 21        	ldy	#$21
    20e0: 91 10        	sta	($10),y                 ; 0x2010 <main+0x1a9a>
    20e2: a0 24        	ldy	#$24
    20e4: 91 10        	sta	($10),y                 ; 0x2010 <main+0x1a9a>
    20e6: c8           	iny
    20e7: 91 10        	sta	($10),y                 ; 0x2010 <main+0x1a9a>
    20e9: a0 1c        	ldy	#$1c
    20eb: 91 10        	sta	($10),y                 ; 0x2010 <main+0x1a9a>
    20ed: a0 27        	ldy	#$27
    20ef: 91 10        	sta	($10),y                 ; 0x2010 <main+0x1a9a>
    20f1: a9 00        	lda	#$0
    20f3: a0 31        	ldy	#$31
    20f5: 4c 69 21     	jmp	$2169 <main+0x1bf3>
    20f8: a2 1f        	ldx	#$1f
    20fa: 8a           	txa
    20fb: a0 27        	ldy	#$27
    20fd: 91 10        	sta	($10),y                 ; 0x2010 <main+0x1a9a>
    20ff: a2 5f        	ldx	#$5f
    2101: 8a           	txa
    2102: a0 25        	ldy	#$25
    2104: 91 10        	sta	($10),y                 ; 0x2010 <main+0x1a9a>
    2106: a2 7f        	ldx	#$7f
    2108: 8a           	txa
    2109: 88           	dey
    210a: 91 10        	sta	($10),y                 ; 0x2010 <main+0x1a9a>
    210c: a2 9f        	ldx	#$9f
    210e: 8a           	txa
    210f: a0 21        	ldy	#$21
    2111: 91 10        	sta	($10),y                 ; 0x2010 <main+0x1a9a>
    2113: a2 bf        	ldx	#$bf
    2115: 8a           	txa
    2116: a0 1f        	ldy	#$1f
    2118: 91 10        	sta	($10),y                 ; 0x2010 <main+0x1a9a>
    211a: a2 df        	ldx	#$df
    211c: 8a           	txa
    211d: a0 28        	ldy	#$28
    211f: 91 10        	sta	($10),y                 ; 0x2010 <main+0x1a9a>
    2121: a2 c0        	ldx	#$c0
    2123: 8a           	txa
    2124: a0 1a        	ldy	#$1a
    2126: 91 10        	sta	($10),y                 ; 0x2010 <main+0x1a9a>
    2128: a2 a0        	ldx	#$a0
    212a: 8a           	txa
    212b: a0 31        	ldy	#$31
    212d: 91 10        	sta	($10),y                 ; 0x2010 <main+0x1a9a>
    212f: a2 e0        	ldx	#$e0
    2131: 8a           	txa
    2132: a0 19        	ldy	#$19
    2134: 91 10        	sta	($10),y                 ; 0x2010 <main+0x1a9a>
    2136: a0 ff        	ldy	#$ff
    2138: a2 3f        	ldx	#$3f
    213a: 5a           	phy
    213b: 8a           	txa
    213c: a0 1c        	ldy	#$1c
    213e: 91 10        	sta	($10),y                 ; 0x2010 <main+0x1a9a>
    2140: 64 12        	stz	$12                     ; 0x2012 <main+0x1a9c>
    2142: a9 00        	lda	#$0
    2144: a0 22        	ldy	#$22
    2146: 91 10        	sta	($10),y                 ; 0x2010 <main+0x1a9a>
    2148: a2 ff        	ldx	#$ff
    214a: 8a           	txa
    214b: a0 18        	ldy	#$18
    214d: 91 10        	sta	($10),y                 ; 0x2010 <main+0x1a9a>
    214f: 88           	dey
    2150: 91 10        	sta	($10),y                 ; 0x2010 <main+0x1a9a>
    2152: a9 00        	lda	#$0
    2154: a0 1d        	ldy	#$1d
    2156: 91 10        	sta	($10),y                 ; 0x2010 <main+0x1a9a>
    2158: c8           	iny
    2159: 91 10        	sta	($10),y                 ; 0x2010 <main+0x1a9a>
    215b: a0 20        	ldy	#$20
    215d: 91 10        	sta	($10),y                 ; 0x2010 <main+0x1a9a>
    215f: a0 23        	ldy	#$23
    2161: 91 10        	sta	($10),y                 ; 0x2010 <main+0x1a9a>
    2163: a0 1b        	ldy	#$1b
    2165: 91 10        	sta	($10),y                 ; 0x2010 <main+0x1a9a>
    2167: a0 26        	ldy	#$26
    2169: 91 10        	sta	($10),y                 ; 0x2010 <main+0x1a9a>
    216b: 7a           	ply
    216c: 5a           	phy
    216d: a0 39        	ldy	#$39
    216f: b1 10        	lda	($10),y                 ; 0x2010 <main+0x1a9a>
    2171: aa           	tax
    2172: 8d 00 d8     	sta	$d800                   ; 0xd800 <__heap_start+0x666c>
    2175: a0 29        	ldy	#$29
    2177: b1 10        	lda	($10),y                 ; 0x2010 <main+0x1a9a>
    2179: 8d 01 d8     	sta	$d801                   ; 0xd801 <__heap_start+0x666d>
    217c: 85 15        	sta	$15                     ; 0x2015 <main+0x1a9f>
    217e: 9c 02 d8     	stz	$d802                   ; 0xd802 <__heap_start+0x666e>
    2181: 8e 04 d8     	stx	$d804                   ; 0xd804 <__heap_start+0x6670>
    2184: a0 38        	ldy	#$38
    2186: b1 10        	lda	($10),y                 ; 0x2010 <main+0x1a9a>
    2188: 8d 05 d8     	sta	$d805                   ; 0xd805 <__heap_start+0x6671>
    218b: a5 14        	lda	$14                     ; 0x2014 <main+0x1a9e>
    218d: a0 13        	ldy	#$13
    218f: 91 10        	sta	($10),y                 ; 0x2010 <main+0x1a9a>
    2191: 8d 06 d8     	sta	$d806                   ; 0xd806 <__heap_start+0x6672>
    2194: 8e 08 d8     	stx	$d808                   ; 0xd808 <__heap_start+0x6674>
    2197: a0 37        	ldy	#$37
    2199: b1 10        	lda	($10),y                 ; 0x2010 <main+0x1a9a>
    219b: 8d 09 d8     	sta	$d809                   ; 0xd809 <__heap_start+0x6675>
    219e: a5 2f        	lda	$2f                     ; 0x202f <main+0x1ab9>
    21a0: 8d 0a d8     	sta	$d80a                   ; 0xd80a <__heap_start+0x6676>
    21a3: 8e 0c d8     	stx	$d80c                   ; 0xd80c <__heap_start+0x6678>
    21a6: a0 2e        	ldy	#$2e
    21a8: b1 10        	lda	($10),y                 ; 0x2010 <main+0x1a9a>
    21aa: 8d 0d d8     	sta	$d80d                   ; 0xd80d <__heap_start+0x6679>
    21ad: a0 2b        	ldy	#$2b
    21af: b1 10        	lda	($10),y                 ; 0x2010 <main+0x1a9a>
    21b1: 8d 0e d8     	sta	$d80e                   ; 0xd80e <__heap_start+0x667a>
    21b4: 8e 10 d8     	stx	$d810                   ; 0xd810 <__heap_start+0x667c>
    21b7: a0 2f        	ldy	#$2f
    21b9: b1 10        	lda	($10),y                 ; 0x2010 <main+0x1a9a>
    21bb: 7a           	ply
    21bc: 8d 11 d8     	sta	$d811                   ; 0xd811 <__heap_start+0x667d>
    21bf: a5 27        	lda	$27                     ; 0x2027 <main+0x1ab1>
    21c1: 8d 12 d8     	sta	$d812                   ; 0xd812 <__heap_start+0x667e>
    21c4: 8e 14 d8     	stx	$d814                   ; 0xd814 <__heap_start+0x6680>
    21c7: 98           	tya
    21c8: 5a           	phy
    21c9: a0 12        	ldy	#$12
    21cb: 91 10        	sta	($10),y                 ; 0x2010 <main+0x1a9a>
    21cd: 7a           	ply
    21ce: 8c 15 d8     	sty	$d815                   ; 0xd815 <__heap_start+0x6681>
    21d1: a0 31        	ldy	#$31
    21d3: b1 10        	lda	($10),y                 ; 0x2010 <main+0x1a9a>
    21d5: 8d 16 d8     	sta	$d816                   ; 0xd816 <__heap_start+0x6682>
    21d8: 8e 18 d8     	stx	$d818                   ; 0xd818 <__heap_start+0x6684>
    21db: a0 18        	ldy	#$18
    21dd: b1 10        	lda	($10),y                 ; 0x2010 <main+0x1a9a>
    21df: 8d 19 d8     	sta	$d819                   ; 0xd819 <__heap_start+0x6685>
    21e2: a0 1a        	ldy	#$1a
    21e4: b1 10        	lda	($10),y                 ; 0x2010 <main+0x1a9a>
    21e6: 8d 1a d8     	sta	$d81a                   ; 0xd81a <__heap_start+0x6686>
    21e9: 8e 1c d8     	stx	$d81c                   ; 0xd81c <__heap_start+0x6688>
    21ec: a0 17        	ldy	#$17
    21ee: b1 10        	lda	($10),y                 ; 0x2010 <main+0x1a9a>
    21f0: 8d 1d d8     	sta	$d81d                   ; 0xd81d <__heap_start+0x6689>
    21f3: a0 19        	ldy	#$19
    21f5: b1 10        	lda	($10),y                 ; 0x2010 <main+0x1a9a>
    21f7: 8d 1e d8     	sta	$d81e                   ; 0xd81e <__heap_start+0x668a>
    21fa: 8e 20 d8     	stx	$d820                   ; 0xd820 <__heap_start+0x668c>
    21fd: a2 ff        	ldx	#$ff
    21ff: 8e 21 d8     	stx	$d821                   ; 0xd821 <__heap_start+0x668d>
    2202: a4 15        	ldy	$15                     ; 0x2015 <main+0x1a9f>
    2204: 8c 22 d8     	sty	$d822                   ; 0xd822 <__heap_start+0x668e>
    2207: 5a           	phy
    2208: a0 22        	ldy	#$22
    220a: b1 10        	lda	($10),y                 ; 0x2010 <main+0x1a9a>
    220c: 8d 24 d8     	sta	$d824                   ; 0xd824 <__heap_start+0x6690>
    220f: a0 28        	ldy	#$28
    2211: b1 10        	lda	($10),y                 ; 0x2010 <main+0x1a9a>
    2213: 7a           	ply
    2214: 8d 25 d8     	sta	$d825                   ; 0xd825 <__heap_start+0x6691>
    2217: 8c 26 d8     	sty	$d826                   ; 0xd826 <__heap_start+0x6692>
    221a: 5a           	phy
    221b: a0 1d        	ldy	#$1d
    221d: b1 10        	lda	($10),y                 ; 0x2010 <main+0x1a9a>
    221f: 8d 28 d8     	sta	$d828                   ; 0xd828 <__heap_start+0x6694>
    2222: a0 1f        	ldy	#$1f
    2224: b1 10        	lda	($10),y                 ; 0x2010 <main+0x1a9a>
    2226: 7a           	ply
    2227: 8d 29 d8     	sta	$d829                   ; 0xd829 <__heap_start+0x6695>
    222a: 8c 2a d8     	sty	$d82a                   ; 0xd82a <__heap_start+0x6696>
    222d: 5a           	phy
    222e: a0 1e        	ldy	#$1e
    2230: b1 10        	lda	($10),y                 ; 0x2010 <main+0x1a9a>
    2232: 8d 2c d8     	sta	$d82c                   ; 0xd82c <__heap_start+0x6698>
    2235: a0 21        	ldy	#$21
    2237: b1 10        	lda	($10),y                 ; 0x2010 <main+0x1a9a>
    2239: 7a           	ply
    223a: 8d 2d d8     	sta	$d82d                   ; 0xd82d <__heap_start+0x6699>
    223d: 8c 2e d8     	sty	$d82e                   ; 0xd82e <__heap_start+0x669a>
    2240: 5a           	phy
    2241: a0 20        	ldy	#$20
    2243: b1 10        	lda	($10),y                 ; 0x2010 <main+0x1a9a>
    2245: 8d 30 d8     	sta	$d830                   ; 0xd830 <__heap_start+0x669c>
    2248: a0 24        	ldy	#$24
    224a: b1 10        	lda	($10),y                 ; 0x2010 <main+0x1a9a>
    224c: 7a           	ply
    224d: 8d 31 d8     	sta	$d831                   ; 0xd831 <__heap_start+0x669d>
    2250: 8c 32 d8     	sty	$d832                   ; 0xd832 <__heap_start+0x669e>
    2253: 5a           	phy
    2254: a0 23        	ldy	#$23
    2256: b1 10        	lda	($10),y                 ; 0x2010 <main+0x1a9a>
    2258: 8d 34 d8     	sta	$d834                   ; 0xd834 <__heap_start+0x66a0>
    225b: a0 25        	ldy	#$25
    225d: b1 10        	lda	($10),y                 ; 0x2010 <main+0x1a9a>
    225f: 7a           	ply
    2260: 8d 35 d8     	sta	$d835                   ; 0xd835 <__heap_start+0x66a1>
    2263: 8c 36 d8     	sty	$d836                   ; 0xd836 <__heap_start+0x66a2>
    2266: 5a           	phy
    2267: a0 1b        	ldy	#$1b
    2269: b1 10        	lda	($10),y                 ; 0x2010 <main+0x1a9a>
    226b: 8d 38 d8     	sta	$d838                   ; 0xd838 <__heap_start+0x66a4>
    226e: c8           	iny
    226f: b1 10        	lda	($10),y                 ; 0x2010 <main+0x1a9a>
    2271: 7a           	ply
    2272: 8d 39 d8     	sta	$d839                   ; 0xd839 <__heap_start+0x66a5>
    2275: 8c 3a d8     	sty	$d83a                   ; 0xd83a <__heap_start+0x66a6>
    2278: 5a           	phy
    2279: a0 26        	ldy	#$26
    227b: b1 10        	lda	($10),y                 ; 0x2010 <main+0x1a9a>
    227d: 8d 3c d8     	sta	$d83c                   ; 0xd83c <__heap_start+0x66a8>
    2280: c8           	iny
    2281: b1 10        	lda	($10),y                 ; 0x2010 <main+0x1a9a>
    2283: 7a           	ply
    2284: 8d 3d d8     	sta	$d83d                   ; 0xd83d <__heap_start+0x66a9>
    2287: 8c 3e d8     	sty	$d83e                   ; 0xd83e <__heap_start+0x66aa>
    228a: a2 03        	ldx	#$3
    228c: 86 01        	stx	$1                      ; 0x2001 <main+0x1a8b>
    228e: a2 00        	ldx	#$0
    2290: a9 c9        	lda	#$c9
    2292: a0 10        	ldy	#$10
    2294: 64 17        	stz	$17                     ; 0x2017 <main+0x1aa1>
    2296: 86 14        	stx	$14                     ; 0x2014 <main+0x1a9e>
    2298: 85 13        	sta	$13                     ; 0x2013 <main+0x1a9d>
    229a: 8a           	txa
    229b: 0a           	asl
    229c: 0a           	asl
    229d: 85 12        	sta	$12                     ; 0x2012 <main+0x1a9c>
    229f: 0a           	asl
    22a0: 18           	clc
    22a1: 65 12        	adc	$12                     ; 0x2012 <main+0x1a9c>
    22a3: 18           	clc
    22a4: 69 0f        	adc	#$f
    22a6: a2 50        	ldx	#$50
    22a8: 84 12        	sty	$12                     ; 0x2012 <main+0x1a9c>
    22aa: 48           	pha
    22ab: a5 13        	lda	$13                     ; 0x2013 <main+0x1a9d>
    22ad: 85 15        	sta	$15                     ; 0x2015 <main+0x1a9f>
    22af: 68           	pla
    22b0: 92 12        	sta	($12)                   ; 0x2012 <main+0x1a9c>
    22b2: ca           	dex
    22b3: e6 12        	inc	$12                     ; 0x2012 <main+0x1a9c>
    22b5: d0 02        	bne	$22b9 <main+0x1d43>
    22b7: e6 13        	inc	$13                     ; 0x2013 <main+0x1a9d>
    22b9: e0 00        	cpx	#$0
    22bb: d0 f3        	bne	$22b0 <main+0x1d3a>
    22bd: a6 14        	ldx	$14                     ; 0x2014 <main+0x1a9e>
    22bf: e8           	inx
    22c0: d0 02        	bne	$22c4 <main+0x1d4e>
    22c2: e6 17        	inc	$17                     ; 0x2017 <main+0x1aa1>
    22c4: 18           	clc
    22c5: 98           	tya
    22c6: 69 b0        	adc	#$b0
    22c8: a8           	tay
    22c9: a5 15        	lda	$15                     ; 0x2015 <main+0x1a9f>
    22cb: 69 ff        	adc	#$ff
    22cd: e6 17        	inc	$17                     ; 0x2017 <main+0x1aa1>
    22cf: c6 17        	dec	$17                     ; 0x2017 <main+0x1aa1>
    22d1: d0 c3        	bne	$2296 <main+0x1d20>
    22d3: e0 14        	cpx	#$14
    22d5: d0 bf        	bne	$2296 <main+0x1d20>
    22d7: 64 01        	stz	$1                      ; 0x2001 <main+0x1a8b>
    22d9: 18           	clc
    22da: a5 10        	lda	$10                     ; 0x2010 <main+0x1a9a>
    22dc: 69 59        	adc	#$59
    22de: 85 12        	sta	$12                     ; 0x2012 <main+0x1a9c>
    22e0: a5 11        	lda	$11                     ; 0x2011 <main+0x1a9b>
    22e2: 69 20        	adc	#$20
    22e4: 85 13        	sta	$13                     ; 0x2013 <main+0x1a9d>
    22e6: 64 14        	stz	$14                     ; 0x2014 <main+0x1a9e>
    22e8: a2 1e        	ldx	#$1e
    22ea: a9 00        	lda	#$0
    22ec: 20 de 59     	jsr	$59de <__memset>
    22ef: a0 11        	ldy	#$11
    22f1: b1 10        	lda	($10),y                 ; 0x2010 <main+0x1a9a>
    22f3: 85 12        	sta	$12                     ; 0x2012 <main+0x1a9c>
    22f5: 88           	dey
    22f6: b1 10        	lda	($10),y                 ; 0x2010 <main+0x1a9a>
    22f8: 85 13        	sta	$13                     ; 0x2013 <main+0x1a9d>
    22fa: 64 14        	stz	$14                     ; 0x2014 <main+0x1a9e>
    22fc: a2 1e        	ldx	#$1e
    22fe: a9 00        	lda	#$0
    2300: 20 de 59     	jsr	$59de <__memset>
    2303: 64 44        	stz	$44                     ; 0x2044 <main+0x1ace>
    2305: 9c 14 d0     	stz	$d014                   ; 0xd014 <__heap_start+0x5e80>
    2308: 9c 15 d0     	stz	$d015                   ; 0xd015 <__heap_start+0x5e81>
    230b: 64 45        	stz	$45                     ; 0x2045 <main+0x1acf>
    230d: 9c 16 d0     	stz	$d016                   ; 0xd016 <__heap_start+0x5e82>
    2310: 9c 17 d0     	stz	$d017                   ; 0xd017 <__heap_start+0x5e83>
    2313: a0 34        	ldy	#$34
    2315: b1 10        	lda	($10),y                 ; 0x2010 <main+0x1a9a>
    2317: 85 12        	sta	$12                     ; 0x2012 <main+0x1a9c>
    2319: a5 12        	lda	$12                     ; 0x2012 <main+0x1a9c>
    231b: d0 03        	bne	$2320 <main+0x1daa>
    231d: 4c 75 11     	jmp	$1175 <main+0xbff>
    2320: a2 7e        	ldx	#$7e
    2322: 86 12        	stx	$12                     ; 0x2012 <main+0x1a9c>
    2324: a2 5f        	ldx	#$5f
    2326: 86 13        	stx	$13                     ; 0x2013 <main+0x1a9d>
    2328: 64 14        	stz	$14                     ; 0x2014 <main+0x1a9e>
    232a: a2 2c        	ldx	#$2c
    232c: a9 00        	lda	#$0
    232e: 20 de 59     	jsr	$59de <__memset>
    2331: a2 d6        	ldx	#$d6
    2333: 86 12        	stx	$12                     ; 0x2012 <main+0x1a9c>
    2335: a2 5f        	ldx	#$5f
    2337: 86 13        	stx	$13                     ; 0x2013 <main+0x1a9d>
    2339: a2 11        	ldx	#$11
    233b: 86 14        	stx	$14                     ; 0x2014 <main+0x1a9e>
    233d: a2 04        	ldx	#$4
    233f: a9 00        	lda	#$0
    2341: 20 de 59     	jsr	$59de <__memset>
    2344: a2 db        	ldx	#$db
    2346: 86 12        	stx	$12                     ; 0x2012 <main+0x1a9c>
    2348: a2 70        	ldx	#$70
    234a: 86 13        	stx	$13                     ; 0x2013 <main+0x1a9d>
    234c: 64 14        	stz	$14                     ; 0x2014 <main+0x1a9e>
    234e: a2 63        	ldx	#$63
    2350: a9 00        	lda	#$0
    2352: 20 de 59     	jsr	$59de <__memset>
    2355: a0 35        	ldy	#$35
    2357: b1 10        	lda	($10),y                 ; 0x2010 <main+0x1a9a>
    2359: 85 12        	sta	$12                     ; 0x2012 <main+0x1a9c>
    235b: a5 12        	lda	$12                     ; 0x2012 <main+0x1a9c>
    235d: f0 18        	beq	$2377 <main+0x1e01>
    235f: 9c 3e 71     	stz	$713e                   ; 0x713e <fpr+0x11e2>
    2362: 9c 3f 71     	stz	$713f                   ; 0x713f <fpr+0x11e3>
    2365: 9c 40 71     	stz	$7140                   ; 0x7140 <fpr+0x11e4>
    2368: 9c 41 71     	stz	$7141                   ; 0x7141 <fpr+0x11e5>
    236b: 9c 42 71     	stz	$7142                   ; 0x7142 <fpr+0x11e6>
    236e: 9c 43 71     	stz	$7143                   ; 0x7143 <fpr+0x11e7>
    2371: 9c 44 71     	stz	$7144                   ; 0x7144 <fpr+0x11e8>
    2374: 9c 45 71     	stz	$7145                   ; 0x7145 <fpr+0x11e9>
    2377: a2 01        	ldx	#$1
    2379: 8e 5c 5f     	stx	$5f5c                   ; 0x5f5c <fpr>
    237c: a2 05        	ldx	#$5
    237e: 8e 5d 5f     	stx	$5f5d                   ; 0x5f5d <fpr+0x1>
    2381: a6 31        	ldx	$31                     ; 0x2031 <main+0x1abb>
    2383: 8e 46 71     	stx	$7146                   ; 0x7146 <fpr+0x11ea>
    2386: a6 32        	ldx	$32                     ; 0x2032 <main+0x1abc>
    2388: 8e 47 71     	stx	$7147                   ; 0x7147 <fpr+0x11eb>
    238b: a6 33        	ldx	$33                     ; 0x2033 <main+0x1abd>
    238d: 8e 48 71     	stx	$7148                   ; 0x7148 <fpr+0x11ec>
    2390: a6 35        	ldx	$35                     ; 0x2035 <main+0x1abf>
    2392: 8e 49 71     	stx	$7149                   ; 0x7149 <fpr+0x11ed>
    2395: a6 36        	ldx	$36                     ; 0x2036 <main+0x1ac0>
    2397: 8e 4a 71     	stx	$714a                   ; 0x714a <fpr+0x11ee>
    239a: a6 37        	ldx	$37                     ; 0x2037 <main+0x1ac1>
    239c: 8e 4b 71     	stx	$714b                   ; 0x714b <fpr+0x11ef>
    239f: a6 39        	ldx	$39                     ; 0x2039 <main+0x1ac3>
    23a1: 8e 4c 71     	stx	$714c                   ; 0x714c <fpr+0x11f0>
    23a4: a6 3a        	ldx	$3a                     ; 0x203a <main+0x1ac4>
    23a6: 8e 4d 71     	stx	$714d                   ; 0x714d <fpr+0x11f1>
    23a9: a6 3b        	ldx	$3b                     ; 0x203b <main+0x1ac5>
    23ab: 8e 4e 71     	stx	$714e                   ; 0x714e <fpr+0x11f2>
    23ae: a6 3d        	ldx	$3d                     ; 0x203d <main+0x1ac7>
    23b0: 8e 4f 71     	stx	$714f                   ; 0x714f <fpr+0x11f3>
    23b3: a6 3e        	ldx	$3e                     ; 0x203e <main+0x1ac8>
    23b5: 8e 50 71     	stx	$7150                   ; 0x7150 <fpr+0x11f4>
    23b8: a6 3f        	ldx	$3f                     ; 0x203f <main+0x1ac9>
    23ba: 8e 51 71     	stx	$7151                   ; 0x7151 <fpr+0x11f5>
    23bd: 20 ba 40     	jsr	$40ba <readDirectory>
    23c0: 20 79 2d     	jsr	$2d79 <sortFileList>
    23c3: a2 35        	ldx	#$35
    23c5: 86 30        	stx	$30                     ; 0x2030 <main+0x1aba>
    23c7: 64 44        	stz	$44                     ; 0x2044 <main+0x1ace>
    23c9: 9c 14 d0     	stz	$d014                   ; 0xd014 <__heap_start+0x5e80>
    23cc: 9c 15 d0     	stz	$d015                   ; 0xd015 <__heap_start+0x5e81>
    23cf: 64 45        	stz	$45                     ; 0x2045 <main+0x1acf>
    23d1: 9c 16 d0     	stz	$d016                   ; 0xd016 <__heap_start+0x5e82>
    23d4: 9c 17 d0     	stz	$d017                   ; 0xd017 <__heap_start+0x5e83>
    23d7: a9 a9        	lda	#$a9
    23d9: 92 10        	sta	($10)                   ; 0x2010 <main+0x1a9a>
    23db: a9 5b        	lda	#$5b
    23dd: a0 01        	ldy	#$1
    23df: 91 10        	sta	($10),y                 ; 0x2010 <main+0x1a9a>
    23e1: a2 53        	ldx	#$53
    23e3: 86 12        	stx	$12                     ; 0x2012 <main+0x1a9c>
    23e5: a2 5c        	ldx	#$5c
    23e7: 86 13        	stx	$13                     ; 0x2013 <main+0x1a9d>
    23e9: a5 12        	lda	$12                     ; 0x2012 <main+0x1a9c>
    23eb: a0 35        	ldy	#$35
    23ed: 91 10        	sta	($10),y                 ; 0x2010 <main+0x1a9a>
    23ef: a5 13        	lda	$13                     ; 0x2013 <main+0x1a9d>
    23f1: c8           	iny
    23f2: 91 10        	sta	($10),y                 ; 0x2010 <main+0x1a9a>
    23f4: 88           	dey
    23f5: b1 10        	lda	($10),y                 ; 0x2010 <main+0x1a9a>
    23f7: 85 12        	sta	$12                     ; 0x2012 <main+0x1a9c>
    23f9: c8           	iny
    23fa: b1 10        	lda	($10),y                 ; 0x2010 <main+0x1a9a>
    23fc: 85 13        	sta	$13                     ; 0x2013 <main+0x1a9d>
    23fe: 20 ef 54     	jsr	$54ef <printf>
    2401: 64 44        	stz	$44                     ; 0x2044 <main+0x1ace>
    2403: 9c 14 d0     	stz	$d014                   ; 0xd014 <__heap_start+0x5e80>
    2406: 9c 15 d0     	stz	$d015                   ; 0xd015 <__heap_start+0x5e81>
    2409: a0 01        	ldy	#$1
    240b: 84 45        	sty	$45                     ; 0x2045 <main+0x1acf>
    240d: 8c 16 d0     	sty	$d016                   ; 0xd016 <__heap_start+0x5e82>
    2410: 9c 17 d0     	stz	$d017                   ; 0xd017 <__heap_start+0x5e83>
    2413: a9 6b        	lda	#$6b
    2415: 92 10        	sta	($10)                   ; 0x2010 <main+0x1a9a>
    2417: a9 5d        	lda	#$5d
    2419: 91 10        	sta	($10),y                 ; 0x2010 <main+0x1a9a>
    241b: a0 35        	ldy	#$35
    241d: b1 10        	lda	($10),y                 ; 0x2010 <main+0x1a9a>
    241f: 85 12        	sta	$12                     ; 0x2012 <main+0x1a9c>
    2421: c8           	iny
    2422: b1 10        	lda	($10),y                 ; 0x2010 <main+0x1a9a>
    2424: 85 13        	sta	$13                     ; 0x2013 <main+0x1a9d>
    2426: 20 ef 54     	jsr	$54ef <printf>
    2429: 64 44        	stz	$44                     ; 0x2044 <main+0x1ace>
    242b: 9c 14 d0     	stz	$d014                   ; 0xd014 <__heap_start+0x5e80>
    242e: 9c 15 d0     	stz	$d015                   ; 0xd015 <__heap_start+0x5e81>
    2431: a2 02        	ldx	#$2
    2433: 86 45        	stx	$45                     ; 0x2045 <main+0x1acf>
    2435: 8e 16 d0     	stx	$d016                   ; 0xd016 <__heap_start+0x5e82>
    2438: 9c 17 d0     	stz	$d017                   ; 0xd017 <__heap_start+0x5e83>
    243b: a9 e3        	lda	#$e3
    243d: 92 10        	sta	($10)                   ; 0x2010 <main+0x1a9a>
    243f: a9 5b        	lda	#$5b
    2441: a0 01        	ldy	#$1
    2443: 91 10        	sta	($10),y                 ; 0x2010 <main+0x1a9a>
    2445: a0 35        	ldy	#$35
    2447: b1 10        	lda	($10),y                 ; 0x2010 <main+0x1a9a>
    2449: 85 12        	sta	$12                     ; 0x2012 <main+0x1a9c>
    244b: c8           	iny
    244c: b1 10        	lda	($10),y                 ; 0x2010 <main+0x1a9a>
    244e: 85 13        	sta	$13                     ; 0x2013 <main+0x1a9d>
    2450: 20 ef 54     	jsr	$54ef <printf>
    2453: 64 44        	stz	$44                     ; 0x2044 <main+0x1ace>
    2455: 9c 14 d0     	stz	$d014                   ; 0xd014 <__heap_start+0x5e80>
    2458: 9c 15 d0     	stz	$d015                   ; 0xd015 <__heap_start+0x5e81>
    245b: a2 03        	ldx	#$3
    245d: 86 45        	stx	$45                     ; 0x2045 <main+0x1acf>
    245f: 8e 16 d0     	stx	$d016                   ; 0xd016 <__heap_start+0x5e82>
    2462: 9c 17 d0     	stz	$d017                   ; 0xd017 <__heap_start+0x5e83>
    2465: a9 1b        	lda	#$1b
    2467: 92 10        	sta	($10)                   ; 0x2010 <main+0x1a9a>
    2469: a9 5c        	lda	#$5c
    246b: a0 01        	ldy	#$1
    246d: 91 10        	sta	($10),y                 ; 0x2010 <main+0x1a9a>
    246f: a0 35        	ldy	#$35
    2471: b1 10        	lda	($10),y                 ; 0x2010 <main+0x1a9a>
    2473: 85 12        	sta	$12                     ; 0x2012 <main+0x1a9c>
    2475: c8           	iny
    2476: b1 10        	lda	($10),y                 ; 0x2010 <main+0x1a9a>
    2478: 85 13        	sta	$13                     ; 0x2013 <main+0x1a9d>
    247a: 20 ef 54     	jsr	$54ef <printf>
    247d: 64 44        	stz	$44                     ; 0x2044 <main+0x1ace>
    247f: 9c 14 d0     	stz	$d014                   ; 0xd014 <__heap_start+0x5e80>
    2482: 9c 15 d0     	stz	$d015                   ; 0xd015 <__heap_start+0x5e81>
    2485: a2 04        	ldx	#$4
    2487: 86 45        	stx	$45                     ; 0x2045 <main+0x1acf>
    2489: 8e 16 d0     	stx	$d016                   ; 0xd016 <__heap_start+0x5e82>
    248c: 9c 17 d0     	stz	$d017                   ; 0xd017 <__heap_start+0x5e83>
    248f: a9 a9        	lda	#$a9
    2491: 92 10        	sta	($10)                   ; 0x2010 <main+0x1a9a>
    2493: a9 5b        	lda	#$5b
    2495: a0 01        	ldy	#$1
    2497: 91 10        	sta	($10),y                 ; 0x2010 <main+0x1a9a>
    2499: a0 35        	ldy	#$35
    249b: b1 10        	lda	($10),y                 ; 0x2010 <main+0x1a9a>
    249d: 85 12        	sta	$12                     ; 0x2012 <main+0x1a9c>
    249f: c8           	iny
    24a0: b1 10        	lda	($10),y                 ; 0x2010 <main+0x1a9a>
    24a2: 85 13        	sta	$13                     ; 0x2013 <main+0x1a9d>
    24a4: 20 ef 54     	jsr	$54ef <printf>
    24a7: a2 70        	ldx	#$70
    24a9: 86 30        	stx	$30                     ; 0x2030 <main+0x1aba>
    24ab: 4c 17 26     	jmp	$2617 <main+0x20a1>
    24ae: ad 5e 5f     	lda	$5f5e                   ; 0x5f5e <fpr+0x2>
    24b1: d0 03        	bne	$24b6 <main+0x1f40>
    24b3: 4c ed 25     	jmp	$25ed <main+0x2077>
    24b6: c9 2f        	cmp	#$2f
    24b8: d0 0c        	bne	$24c6 <main+0x1f50>
    24ba: ae 5f 5f     	ldx	$5f5f                   ; 0x5f5f <fpr+0x3>
    24bd: a9 2f        	lda	#$2f
    24bf: e0 00        	cpx	#$0
    24c1: d0 03        	bne	$24c6 <main+0x1f50>
    24c3: 4c ed 25     	jmp	$25ed <main+0x2077>
    24c6: a2 5e        	ldx	#$5e
    24c8: 86 14        	stx	$14                     ; 0x2014 <main+0x1a9e>
    24ca: a2 5f        	ldx	#$5f
    24cc: 86 15        	stx	$15                     ; 0x2015 <main+0x1a9f>
    24ce: a2 00        	ldx	#$0
    24d0: 86 12        	stx	$12                     ; 0x2012 <main+0x1a9c>
    24d2: a2 00        	ldx	#$0
    24d4: 86 13        	stx	$13                     ; 0x2013 <main+0x1a9d>
    24d6: a0 01        	ldy	#$1
    24d8: c9 2f        	cmp	#$2f
    24da: d0 08        	bne	$24e4 <main+0x1f6e>
    24dc: a6 14        	ldx	$14                     ; 0x2014 <main+0x1a9e>
    24de: 86 12        	stx	$12                     ; 0x2012 <main+0x1a9c>
    24e0: a6 15        	ldx	$15                     ; 0x2015 <main+0x1a9f>
    24e2: 86 13        	stx	$13                     ; 0x2013 <main+0x1a9d>
    24e4: b1 14        	lda	($14),y                 ; 0x2014 <main+0x1a9e>
    24e6: e6 14        	inc	$14                     ; 0x2014 <main+0x1a9e>
    24e8: d0 02        	bne	$24ec <main+0x1f76>
    24ea: e6 15        	inc	$15                     ; 0x2015 <main+0x1a9f>
    24ec: aa           	tax
    24ed: d0 e9        	bne	$24d8 <main+0x1f62>
    24ef: a6 13        	ldx	$13                     ; 0x2013 <main+0x1a9d>
    24f1: e4 29        	cpx	$29                     ; 0x2029 <main+0x1ab3>
    24f3: f0 03        	beq	$24f8 <main+0x1f82>
    24f5: 4c c8 25     	jmp	$25c8 <main+0x2052>
    24f8: a6 12        	ldx	$12                     ; 0x2012 <main+0x1a9c>
    24fa: a9 00        	lda	#$0
    24fc: e4 28        	cpx	$28                     ; 0x2028 <main+0x1ab2>
    24fe: f0 03        	beq	$2503 <main+0x1f8d>
    2500: 4c ca 25     	jmp	$25ca <main+0x2054>
    2503: 4c e6 25     	jmp	$25e6 <main+0x2070>
    2506: a6 10        	ldx	$10                     ; 0x2010 <main+0x1a9a>
    2508: a4 11        	ldy	$11                     ; 0x2011 <main+0x1a9b>
    250a: 8a           	txa
    250b: 18           	clc
    250c: 69 02        	adc	#$2
    250e: 85 12        	sta	$12                     ; 0x2012 <main+0x1a9c>
    2510: 98           	tya
    2511: 69 00        	adc	#$0
    2513: 85 13        	sta	$13                     ; 0x2013 <main+0x1a9d>
    2515: 18           	clc
    2516: 8a           	txa
    2517: 69 04        	adc	#$4
    2519: 85 14        	sta	$14                     ; 0x2014 <main+0x1a9e>
    251b: 98           	tya
    251c: 69 00        	adc	#$0
    251e: aa           	tax
    251f: a9 5e        	lda	#$5e
    2521: 92 10        	sta	($10)                   ; 0x2010 <main+0x1a9a>
    2523: a9 5f        	lda	#$5f
    2525: a0 01        	ldy	#$1
    2527: 91 10        	sta	($10),y                 ; 0x2010 <main+0x1a9a>
    2529: c8           	iny
    252a: a9 e1        	lda	#$e1
    252c: 91 10        	sta	($10),y                 ; 0x2010 <main+0x1a9a>
    252e: a9 5b        	lda	#$5b
    2530: 88           	dey
    2531: 91 12        	sta	($12),y                 ; 0x2012 <main+0x1a9c>
    2533: a4 14        	ldy	$14                     ; 0x2014 <main+0x1a9e>
    2535: 84 12        	sty	$12                     ; 0x2012 <main+0x1a9c>
    2537: 86 13        	stx	$13                     ; 0x2013 <main+0x1a9d>
    2539: a9 7e        	lda	#$7e
    253b: a0 04        	ldy	#$4
    253d: 91 10        	sta	($10),y                 ; 0x2010 <main+0x1a9a>
    253f: a9 5f        	lda	#$5f
    2541: a0 01        	ldy	#$1
    2543: 91 12        	sta	($12),y                 ; 0x2012 <main+0x1a9c>
    2545: a6 2a        	ldx	$2a                     ; 0x202a <main+0x1ab4>
    2547: 86 12        	stx	$12                     ; 0x2012 <main+0x1a9c>
    2549: a6 2b        	ldx	$2b                     ; 0x202b <main+0x1ab5>
    254b: 86 13        	stx	$13                     ; 0x2013 <main+0x1a9d>
    254d: a2 42        	ldx	#$42
    254f: 86 14        	stx	$14                     ; 0x2014 <main+0x1a9e>
    2551: a2 5d        	ldx	#$5d
    2553: 86 15        	stx	$15                     ; 0x2015 <main+0x1a9f>
    2555: 20 77 55     	jsr	$5577 <sprintf>
    2558: a2 d6        	ldx	#$d6
    255a: 86 12        	stx	$12                     ; 0x2012 <main+0x1a9c>
    255c: a2 5f        	ldx	#$5f
    255e: 86 13        	stx	$13                     ; 0x2013 <main+0x1a9d>
    2560: 64 26        	stz	$26                     ; 0x2026 <main+0x1ab0>
    2562: a2 11        	ldx	#$11
    2564: 86 14        	stx	$14                     ; 0x2014 <main+0x1a9e>
    2566: a2 04        	ldx	#$4
    2568: a9 00        	lda	#$0
    256a: 20 de 59     	jsr	$59de <__memset>
    256d: a2 db        	ldx	#$db
    256f: 86 12        	stx	$12                     ; 0x2012 <main+0x1a9c>
    2571: a2 70        	ldx	#$70
    2573: 86 13        	stx	$13                     ; 0x2013 <main+0x1a9d>
    2575: 64 14        	stz	$14                     ; 0x2014 <main+0x1a9e>
    2577: a2 6b        	ldx	#$6b
    2579: a9 00        	lda	#$0
    257b: 20 de 59     	jsr	$59de <__memset>
    257e: a2 20        	ldx	#$20
    2580: 64 14        	stz	$14                     ; 0x2014 <main+0x1a9e>
    2582: 80 06        	bra	$258a <main+0x2014>
    2584: e6 26        	inc	$26                     ; 0x2026 <main+0x1ab0>
    2586: a5 14        	lda	$14                     ; 0x2014 <main+0x1a9e>
    2588: f0 18        	beq	$25a2 <main+0x202c>
    258a: a4 26        	ldy	$26                     ; 0x2026 <main+0x1ab0>
    258c: b1 2a        	lda	($2a),y                 ; 0x202a <main+0x1ab4>
    258e: 85 12        	sta	$12                     ; 0x2012 <main+0x1a9c>
    2590: b1 2a        	lda	($2a),y                 ; 0x202a <main+0x1ab4>
    2592: 99 5e 5f     	sta	$5f5e,y                 ; 0x5f5e <fpr+0x2>
    2595: a5 12        	lda	$12                     ; 0x2012 <main+0x1a9c>
    2597: f0 0f        	beq	$25a8 <main+0x2032>
    2599: ca           	dex
    259a: e0 ff        	cpx	#$ff
    259c: d0 e6        	bne	$2584 <main+0x200e>
    259e: c6 14        	dec	$14                     ; 0x2014 <main+0x1a9e>
    25a0: 80 e2        	bra	$2584 <main+0x200e>
    25a2: 8a           	txa
    25a3: d0 e5        	bne	$258a <main+0x2014>
    25a5: 4c 11 26     	jmp	$2611 <main+0x209b>
    25a8: ca           	dex
    25a9: e0 ff        	cpx	#$ff
    25ab: d0 02        	bne	$25af <main+0x2039>
    25ad: c6 14        	dec	$14                     ; 0x2014 <main+0x1a9e>
    25af: a5 14        	lda	$14                     ; 0x2014 <main+0x1a9e>
    25b1: d0 06        	bne	$25b9 <main+0x2043>
    25b3: 8a           	txa
    25b4: d0 03        	bne	$25b9 <main+0x2043>
    25b6: 4c 11 26     	jmp	$2611 <main+0x209b>
    25b9: a9 5f        	lda	#$5f
    25bb: 18           	clc
    25bc: 65 26        	adc	$26                     ; 0x2026 <main+0x1ab0>
    25be: 85 12        	sta	$12                     ; 0x2012 <main+0x1a9c>
    25c0: a9 5f        	lda	#$5f
    25c2: 69 00        	adc	#$0
    25c4: 85 13        	sta	$13                     ; 0x2013 <main+0x1a9d>
    25c6: 80 44        	bra	$260c <main+0x2096>
    25c8: a9 00        	lda	#$0
    25ca: a6 13        	ldx	$13                     ; 0x2013 <main+0x1a9d>
    25cc: 48           	pha
    25cd: a0 2a        	ldy	#$2a
    25cf: b1 10        	lda	($10),y                 ; 0x2010 <main+0x1a9a>
    25d1: 85 14        	sta	$14                     ; 0x2014 <main+0x1a9e>
    25d3: 68           	pla
    25d4: e4 14        	cpx	$14                     ; 0x2014 <main+0x1a9e>
    25d6: d0 13        	bne	$25eb <main+0x2075>
    25d8: a6 12        	ldx	$12                     ; 0x2012 <main+0x1a9c>
    25da: 48           	pha
    25db: a0 16        	ldy	#$16
    25dd: b1 10        	lda	($10),y                 ; 0x2010 <main+0x1a9a>
    25df: 85 14        	sta	$14                     ; 0x2014 <main+0x1a9e>
    25e1: 68           	pla
    25e2: e4 14        	cpx	$14                     ; 0x2014 <main+0x1a9e>
    25e4: d0 05        	bne	$25eb <main+0x2075>
    25e6: 9c 5e 5f     	stz	$5f5e                   ; 0x5f5e <fpr+0x2>
    25e9: 80 02        	bra	$25ed <main+0x2077>
    25eb: 92 12        	sta	($12)                   ; 0x2012 <main+0x1a9c>
    25ed: a2 d6        	ldx	#$d6
    25ef: 86 12        	stx	$12                     ; 0x2012 <main+0x1a9c>
    25f1: a2 5f        	ldx	#$5f
    25f3: 86 13        	stx	$13                     ; 0x2013 <main+0x1a9d>
    25f5: a2 11        	ldx	#$11
    25f7: 86 14        	stx	$14                     ; 0x2014 <main+0x1a9e>
    25f9: a2 04        	ldx	#$4
    25fb: a9 00        	lda	#$0
    25fd: 20 de 59     	jsr	$59de <__memset>
    2600: a2 db        	ldx	#$db
    2602: 86 12        	stx	$12                     ; 0x2012 <main+0x1a9c>
    2604: a2 70        	ldx	#$70
    2606: 86 13        	stx	$13                     ; 0x2013 <main+0x1a9d>
    2608: 64 14        	stz	$14                     ; 0x2014 <main+0x1a9e>
    260a: a2 6b        	ldx	#$6b
    260c: a9 00        	lda	#$0
    260e: 20 de 59     	jsr	$59de <__memset>
    2611: 20 ba 40     	jsr	$40ba <readDirectory>
    2614: 20 79 2d     	jsr	$2d79 <sortFileList>
    2617: ad 44 71     	lda	$7144                   ; 0x7144 <fpr+0x11e8>
    261a: ae 45 71     	ldx	$7145                   ; 0x7145 <fpr+0x11e9>
    261d: a0 5c        	ldy	#$5c
    261f: 84 12        	sty	$12                     ; 0x2012 <main+0x1a9c>
    2621: a0 5f        	ldy	#$5f
    2623: 84 13        	sty	$13                     ; 0x2013 <main+0x1a9d>
    2625: 20 12 3d     	jsr	$3d12 <displayFileList>
    2628: 20 c5 30     	jsr	$30c5 <pickFile>
    262b: c9 04        	cmp	#$4
    262d: b0 f9        	bcs	$2628 <main+0x20b2>
    262f: 0a           	asl
    2630: aa           	tax
    2631: 7c 31 5a     	jmp	($5a31,x)               ; 0x5a31 <__set_v+0x1>
    2634: 78           	sei
    2635: a2 07        	ldx	#$7
    2637: 86 0f        	stx	$f                      ; 0x200f <main+0x1a99>
    2639: a2 de        	ldx	#$de
    263b: 8e a2 d6     	stx	$d6a2                   ; 0xd6a2 <__heap_start+0x650e>
    263e: a2 ad        	ldx	#$ad
    2640: 8e a3 d6     	stx	$d6a3                   ; 0xd6a3 <__heap_start+0x650f>
    2643: a2 f0        	ldx	#$f0
    2645: 8e a0 d6     	stx	$d6a0                   ; 0xd6a0 <__heap_start+0x650c>
    2648: 9c a0 d6     	stz	$d6a0                   ; 0xd6a0 <__heap_start+0x650c>
    264b: 6c fc ff     	jmp	($fffc)                 ; 0xfffc <__heap_start+0x8e68>
    264e: a2 00        	ldx	#$0
    2650: 8a           	txa
    2651: 85 20        	sta	$20                     ; 0x2020 <main+0x1aaa>
    2653: a0 06        	ldy	#$6
    2655: b1 10        	lda	($10),y                 ; 0x2010 <main+0x1a9a>
    2657: 85 2f        	sta	$2f                     ; 0x202f <main+0x1ab9>
    2659: c8           	iny
    265a: b1 10        	lda	($10),y                 ; 0x2010 <main+0x1a9a>
    265c: 85 2e        	sta	$2e                     ; 0x202e <main+0x1ab8>
    265e: c8           	iny
    265f: b1 10        	lda	($10),y                 ; 0x2010 <main+0x1a9a>
    2661: 85 2d        	sta	$2d                     ; 0x202d <main+0x1ab7>
    2663: c8           	iny
    2664: b1 10        	lda	($10),y                 ; 0x2010 <main+0x1a9a>
    2666: 85 2c        	sta	$2c                     ; 0x202c <main+0x1ab6>
    2668: c8           	iny
    2669: b1 10        	lda	($10),y                 ; 0x2010 <main+0x1a9a>
    266b: 85 2b        	sta	$2b                     ; 0x202b <main+0x1ab5>
    266d: c8           	iny
    266e: b1 10        	lda	($10),y                 ; 0x2010 <main+0x1a9a>
    2670: 85 2a        	sta	$2a                     ; 0x202a <main+0x1ab4>
    2672: c8           	iny
    2673: b1 10        	lda	($10),y                 ; 0x2010 <main+0x1a9a>
    2675: 85 29        	sta	$29                     ; 0x2029 <main+0x1ab3>
    2677: c8           	iny
    2678: b1 10        	lda	($10),y                 ; 0x2010 <main+0x1a9a>
    267a: 85 28        	sta	$28                     ; 0x2028 <main+0x1ab2>
    267c: 7a           	ply
    267d: 84 27        	sty	$27                     ; 0x2027 <main+0x1ab1>
    267f: 7a           	ply
    2680: 84 26        	sty	$26                     ; 0x2026 <main+0x1ab0>
    2682: 7a           	ply
    2683: 84 25        	sty	$25                     ; 0x2025 <main+0x1aaf>
    2685: 7a           	ply
    2686: 84 24        	sty	$24                     ; 0x2024 <main+0x1aae>
    2688: 18           	clc
    2689: a5 10        	lda	$10                     ; 0x2010 <main+0x1a9a>
    268b: 69 b7        	adc	#$b7
    268d: 85 10        	sta	$10                     ; 0x2010 <main+0x1a9a>
    268f: a5 11        	lda	$11                     ; 0x2011 <main+0x1a9b>
    2691: 69 20        	adc	#$20
    2693: 85 11        	sta	$11                     ; 0x2011 <main+0x1a9b>
    2695: a5 20        	lda	$20                     ; 0x2020 <main+0x1aaa>
    2697: 60           	rts
    2698: a6 54        	ldx	$54                     ; 0x2054 <main+0x1ade>
    269a: a4 55        	ldy	$55                     ; 0x2055 <main+0x1adf>
    269c: 86 12        	stx	$12                     ; 0x2012 <main+0x1a9c>
    269e: 84 13        	sty	$13                     ; 0x2013 <main+0x1a9d>
    26a0: b2 12        	lda	($12)                   ; 0x2012 <main+0x1a9c>
    26a2: 85 f3        	sta	$f3                     ; 0x20f3 <main+0x1b7d>
    26a4: a2 56        	ldx	#$56
    26a6: 86 26        	stx	$26                     ; 0x2026 <main+0x1ab0>
    26a8: a2 00        	ldx	#$0
    26aa: 86 27        	stx	$27                     ; 0x2027 <main+0x1ab1>
    26ac: 20 68 ff     	jsr	$ff68 <__heap_start+0x8dd4>
    26af: 92 2a        	sta	($2a)                   ; 0x202a <main+0x1ab4>
    26b1: a9 00        	lda	#$0
    26b3: 6a           	ror
    26b4: 85 26        	sta	$26                     ; 0x2026 <main+0x1ab0>
    26b6: 20 22 58     	jsr	$5822 <free>
    26b9: 64 57        	stz	$57                     ; 0x2057 <main+0x1ae1>
    26bb: 20 00 ff     	jsr	$ff00 <__heap_start+0x8d6c>
    26be: 92 2a        	sta	($2a)                   ; 0x202a <main+0x1ab4>
    26c0: a9 00        	lda	#$0
    26c2: 6a           	ror
    26c3: 85 26        	sta	$26                     ; 0x2026 <main+0x1ab0>
    26c5: a6 57        	ldx	$57                     ; 0x2057 <main+0x1ae1>
    26c7: e0 32        	cpx	#$32
    26c9: d0 03        	bne	$26ce <main+0x2158>
    26cb: 4c 34 26     	jmp	$2634 <main+0x20be>
    26ce: e0 38        	cpx	#$38
    26d0: d0 e7        	bne	$26b9 <main+0x2143>
    26d2: 4c 34 26     	jmp	$2634 <main+0x20be>
    26d5: a6 54        	ldx	$54                     ; 0x2054 <main+0x1ade>
    26d7: a4 55        	ldy	$55                     ; 0x2055 <main+0x1adf>
    26d9: 86 12        	stx	$12                     ; 0x2012 <main+0x1a9c>
    26db: 84 13        	sty	$13                     ; 0x2013 <main+0x1a9d>
    26dd: b2 12        	lda	($12)                   ; 0x2012 <main+0x1a9c>
    26df: 85 f3        	sta	$f3                     ; 0x20f3 <main+0x1b7d>
    26e1: a2 56        	ldx	#$56
    26e3: 86 26        	stx	$26                     ; 0x2026 <main+0x1ab0>
    26e5: a2 00        	ldx	#$0
    26e7: 86 27        	stx	$27                     ; 0x2027 <main+0x1ab1>
    26e9: 20 68 ff     	jsr	$ff68 <__heap_start+0x8dd4>
    26ec: 92 2a        	sta	($2a)                   ; 0x202a <main+0x1ab4>
    26ee: a9 00        	lda	#$0
    26f0: 6a           	ror
    26f1: 85 26        	sta	$26                     ; 0x2026 <main+0x1ab0>
    26f3: 20 22 58     	jsr	$5822 <free>
    26f6: 64 57        	stz	$57                     ; 0x2057 <main+0x1ae1>
    26f8: 20 00 ff     	jsr	$ff00 <__heap_start+0x8d6c>
    26fb: 92 2a        	sta	($2a)                   ; 0x202a <main+0x1ab4>
    26fd: a9 00        	lda	#$0
    26ff: 6a           	ror
    2700: 85 26        	sta	$26                     ; 0x2026 <main+0x1ab0>
    2702: a6 57        	ldx	$57                     ; 0x2057 <main+0x1ae1>
    2704: e0 32        	cpx	#$32
    2706: d0 03        	bne	$270b <main+0x2195>
    2708: 4c 34 26     	jmp	$2634 <main+0x20be>
    270b: e0 38        	cpx	#$38
    270d: d0 e7        	bne	$26f6 <main+0x2180>
    270f: 4c 34 26     	jmp	$2634 <main+0x20be>
    2712: 18           	clc
    2713: 69 d0        	adc	#$d0
    2715: 85 18        	sta	$18                     ; 0x2018 <main+0x1aa2>
    2717: 4c f1 13     	jmp	$13f1 <main+0xe7b>

0000271a <writeTopRight>:
    271a: 48           	pha
    271b: 18           	clc
    271c: a5 10        	lda	$10                     ; 0x2010 <main+0x1a9a>
    271e: 69 fe        	adc	#$fe
    2720: 85 10        	sta	$10                     ; 0x2010 <main+0x1a9a>
    2722: a5 11        	lda	$11                     ; 0x2011 <main+0x1a9b>
    2724: 69 ff        	adc	#$ff
    2726: 85 11        	sta	$11                     ; 0x2011 <main+0x1a9b>
    2728: 68           	pla
    2729: 29 01        	and	#$1
    272b: 85 63        	sta	$63                     ; 0x2063 <main+0x1aed>
    272d: a2 50        	ldx	#$50
    272f: 86 30        	stx	$30                     ; 0x2030 <main+0x1aba>
    2731: a2 42        	ldx	#$42
    2733: 86 44        	stx	$44                     ; 0x2044 <main+0x1ace>
    2735: 8e 14 d0     	stx	$d014                   ; 0xd014 <__heap_start+0x5e80>
    2738: 9c 15 d0     	stz	$d015                   ; 0xd015 <__heap_start+0x5e81>
    273b: a2 01        	ldx	#$1
    273d: 86 45        	stx	$45                     ; 0x2045 <main+0x1acf>
    273f: 8e 16 d0     	stx	$d016                   ; 0xd016 <__heap_start+0x5e82>
    2742: 9c 17 d0     	stz	$d017                   ; 0xd017 <__heap_start+0x5e83>
    2745: a2 49        	ldx	#$49
    2747: 86 12        	stx	$12                     ; 0x2012 <main+0x1a9c>
    2749: a2 5d        	ldx	#$5d
    274b: 86 13        	stx	$13                     ; 0x2013 <main+0x1a9d>
    274d: 20 a2 2a     	jsr	$2aa2 <textPrint>
    2750: a2 43        	ldx	#$43
    2752: 86 44        	stx	$44                     ; 0x2044 <main+0x1ace>
    2754: 8e 14 d0     	stx	$d014                   ; 0xd014 <__heap_start+0x5e80>
    2757: 9c 15 d0     	stz	$d015                   ; 0xd015 <__heap_start+0x5e81>
    275a: a2 02        	ldx	#$2
    275c: 86 45        	stx	$45                     ; 0x2045 <main+0x1acf>
    275e: 8e 16 d0     	stx	$d016                   ; 0xd016 <__heap_start+0x5e82>
    2761: 9c 17 d0     	stz	$d017                   ; 0xd017 <__heap_start+0x5e83>
    2764: a2 f8        	ldx	#$f8
    2766: 86 12        	stx	$12                     ; 0x2012 <main+0x1a9c>
    2768: a2 5c        	ldx	#$5c
    276a: 86 13        	stx	$13                     ; 0x2013 <main+0x1a9d>
    276c: 20 a2 2a     	jsr	$2aa2 <textPrint>
    276f: a2 47        	ldx	#$47
    2771: 86 44        	stx	$44                     ; 0x2044 <main+0x1ace>
    2773: 8e 14 d0     	stx	$d014                   ; 0xd014 <__heap_start+0x5e80>
    2776: 9c 15 d0     	stz	$d015                   ; 0xd015 <__heap_start+0x5e81>
    2779: a2 03        	ldx	#$3
    277b: 86 45        	stx	$45                     ; 0x2045 <main+0x1acf>
    277d: 8e 16 d0     	stx	$d016                   ; 0xd016 <__heap_start+0x5e82>
    2780: 9c 17 d0     	stz	$d017                   ; 0xd017 <__heap_start+0x5e83>
    2783: a2 21        	ldx	#$21
    2785: 86 12        	stx	$12                     ; 0x2012 <main+0x1a9c>
    2787: a2 5d        	ldx	#$5d
    2789: 86 13        	stx	$13                     ; 0x2013 <main+0x1a9d>
    278b: 20 a2 2a     	jsr	$2aa2 <textPrint>
    278e: a2 3e        	ldx	#$3e
    2790: 86 44        	stx	$44                     ; 0x2044 <main+0x1ace>
    2792: 8e 14 d0     	stx	$d014                   ; 0xd014 <__heap_start+0x5e80>
    2795: 9c 15 d0     	stz	$d015                   ; 0xd015 <__heap_start+0x5e81>
    2798: a2 08        	ldx	#$8
    279a: 86 45        	stx	$45                     ; 0x2045 <main+0x1acf>
    279c: 8e 16 d0     	stx	$d016                   ; 0xd016 <__heap_start+0x5e82>
    279f: 9c 17 d0     	stz	$d017                   ; 0xd017 <__heap_start+0x5e83>
    27a2: a2 09        	ldx	#$9
    27a4: 86 12        	stx	$12                     ; 0x2012 <main+0x1a9c>
    27a6: a2 5d        	ldx	#$5d
    27a8: 86 13        	stx	$13                     ; 0x2013 <main+0x1a9d>
    27aa: 20 a2 2a     	jsr	$2aa2 <textPrint>
    27ad: 64 44        	stz	$44                     ; 0x2044 <main+0x1ace>
    27af: 9c 14 d0     	stz	$d014                   ; 0xd014 <__heap_start+0x5e80>
    27b2: 9c 15 d0     	stz	$d015                   ; 0xd015 <__heap_start+0x5e81>
    27b5: 64 45        	stz	$45                     ; 0x2045 <main+0x1acf>
    27b7: 9c 16 d0     	stz	$d016                   ; 0xd016 <__heap_start+0x5e82>
    27ba: 9c 17 d0     	stz	$d017                   ; 0xd017 <__heap_start+0x5e83>
    27bd: a5 63        	lda	$63                     ; 0x2063 <main+0x1aed>
    27bf: f0 25        	beq	$27e6 <writeTopRight+0xcc>
    27c1: a9 7e        	lda	#$7e
    27c3: 92 10        	sta	($10)                   ; 0x2010 <main+0x1a9a>
    27c5: a0 01        	ldy	#$1
    27c7: a9 5f        	lda	#$5f
    27c9: 91 10        	sta	($10),y                 ; 0x2010 <main+0x1a9a>
    27cb: a2 9f        	ldx	#$9f
    27cd: 86 12        	stx	$12                     ; 0x2012 <main+0x1a9c>
    27cf: a2 5c        	ldx	#$5c
    27d1: 86 13        	stx	$13                     ; 0x2013 <main+0x1a9d>
    27d3: 20 ef 54     	jsr	$54ef <printf>
    27d6: a2 13        	ldx	#$13
    27d8: 86 63        	stx	$63                     ; 0x2063 <main+0x1aed>
    27da: a2 5d        	ldx	#$5d
    27dc: 86 64        	stx	$64                     ; 0x2064 <main+0x1aee>
    27de: a2 98        	ldx	#$98
    27e0: 86 12        	stx	$12                     ; 0x2012 <main+0x1a9c>
    27e2: a2 5b        	ldx	#$5b
    27e4: 80 19        	bra	$27ff <writeTopRight+0xe5>
    27e6: a2 0b        	ldx	#$b
    27e8: 86 12        	stx	$12                     ; 0x2012 <main+0x1a9c>
    27ea: a2 5b        	ldx	#$5b
    27ec: 86 13        	stx	$13                     ; 0x2013 <main+0x1a9d>
    27ee: 20 ef 54     	jsr	$54ef <printf>
    27f1: a2 56        	ldx	#$56
    27f3: 86 63        	stx	$63                     ; 0x2063 <main+0x1aed>
    27f5: a2 5d        	ldx	#$5d
    27f7: 86 64        	stx	$64                     ; 0x2064 <main+0x1aee>
    27f9: a2 a9        	ldx	#$a9
    27fb: 86 12        	stx	$12                     ; 0x2012 <main+0x1a9c>
    27fd: a2 5d        	ldx	#$5d
    27ff: 86 13        	stx	$13                     ; 0x2013 <main+0x1a9d>
    2801: a2 3e        	ldx	#$3e
    2803: 86 44        	stx	$44                     ; 0x2044 <main+0x1ace>
    2805: 8e 14 d0     	stx	$d014                   ; 0xd014 <__heap_start+0x5e80>
    2808: 9c 15 d0     	stz	$d015                   ; 0xd015 <__heap_start+0x5e81>
    280b: a2 09        	ldx	#$9
    280d: 86 45        	stx	$45                     ; 0x2045 <main+0x1acf>
    280f: 8e 16 d0     	stx	$d016                   ; 0xd016 <__heap_start+0x5e82>
    2812: 9c 17 d0     	stz	$d017                   ; 0xd017 <__heap_start+0x5e83>
    2815: 20 a2 2a     	jsr	$2aa2 <textPrint>
    2818: a2 3e        	ldx	#$3e
    281a: 86 44        	stx	$44                     ; 0x2044 <main+0x1ace>
    281c: 8e 14 d0     	stx	$d014                   ; 0xd014 <__heap_start+0x5e80>
    281f: 9c 15 d0     	stz	$d015                   ; 0xd015 <__heap_start+0x5e81>
    2822: a2 0a        	ldx	#$a
    2824: 86 45        	stx	$45                     ; 0x2045 <main+0x1acf>
    2826: 8e 16 d0     	stx	$d016                   ; 0xd016 <__heap_start+0x5e82>
    2829: 9c 17 d0     	stz	$d017                   ; 0xd017 <__heap_start+0x5e83>
    282c: a6 63        	ldx	$63                     ; 0x2063 <main+0x1aed>
    282e: 86 12        	stx	$12                     ; 0x2012 <main+0x1a9c>
    2830: a6 64        	ldx	$64                     ; 0x2064 <main+0x1aee>
    2832: 86 13        	stx	$13                     ; 0x2013 <main+0x1a9d>
    2834: 20 a2 2a     	jsr	$2aa2 <textPrint>
    2837: 18           	clc
    2838: a5 10        	lda	$10                     ; 0x2010 <main+0x1a9a>
    283a: 69 02        	adc	#$2
    283c: 85 10        	sta	$10                     ; 0x2010 <main+0x1a9a>
    283e: a5 11        	lda	$11                     ; 0x2011 <main+0x1a9b>
    2840: 69 00        	adc	#$0
    2842: 85 11        	sta	$11                     ; 0x2011 <main+0x1a9b>
    2844: 60           	rts

00002845 <fileOpenDir>:
    2845: b2 12        	lda	($12)                   ; 0x2012 <main+0x1a9c>
    2847: a0 00        	ldy	#$0
    2849: aa           	tax
    284a: d0 03        	bne	$284f <fileOpenDir+0xa>
    284c: 4c a7 28     	jmp	$28a7 <fileOpenDir+0x62>
    284f: 85 16        	sta	$16                     ; 0x2016 <main+0x1aa0>
    2851: a2 00        	ldx	#$0
    2853: 86 14        	stx	$14                     ; 0x2014 <main+0x1a9e>
    2855: 98           	tya
    2856: c8           	iny
    2857: d0 01        	bne	$285a <fileOpenDir+0x15>
    2859: e8           	inx
    285a: 18           	clc
    285b: 65 12        	adc	$12                     ; 0x2012 <main+0x1a9c>
    285d: 85 18        	sta	$18                     ; 0x2018 <main+0x1aa2>
    285f: a5 14        	lda	$14                     ; 0x2014 <main+0x1a9e>
    2861: 65 13        	adc	$13                     ; 0x2013 <main+0x1a9d>
    2863: 84 17        	sty	$17                     ; 0x2017 <main+0x1aa1>
    2865: a4 18        	ldy	$18                     ; 0x2018 <main+0x1aa2>
    2867: 84 14        	sty	$14                     ; 0x2014 <main+0x1a9e>
    2869: 85 15        	sta	$15                     ; 0x2015 <main+0x1a9f>
    286b: a0 01        	ldy	#$1
    286d: b1 14        	lda	($14),y                 ; 0x2014 <main+0x1a9e>
    286f: a4 17        	ldy	$17                     ; 0x2017 <main+0x1aa1>
    2871: c9 00        	cmp	#$0
    2873: d0 de        	bne	$2853 <fileOpenDir+0xe>
    2875: 8a           	txa
    2876: d0 06        	bne	$287e <fileOpenDir+0x39>
    2878: c0 02        	cpy	#$2
    287a: b0 06        	bcs	$2882 <fileOpenDir+0x3d>
    287c: 80 30        	bra	$28ae <fileOpenDir+0x69>
    287e: e0 00        	cpx	#$0
    2880: 90 2c        	bcc	$28ae <fileOpenDir+0x69>
    2882: a0 01        	ldy	#$1
    2884: b1 12        	lda	($12),y                 ; 0x2012 <main+0x1a9c>
    2886: c9 3a        	cmp	#$3a
    2888: d0 24        	bne	$28ae <fileOpenDir+0x69>
    288a: a5 16        	lda	$16                     ; 0x2016 <main+0x1aa0>
    288c: c9 30        	cmp	#$30
    288e: a0 00        	ldy	#$0
    2890: 90 08        	bcc	$289a <fileOpenDir+0x55>
    2892: c9 38        	cmp	#$38
    2894: b0 04        	bcs	$289a <fileOpenDir+0x55>
    2896: 18           	clc
    2897: 69 d0        	adc	#$d0
    2899: a8           	tay
    289a: a5 12        	lda	$12                     ; 0x2012 <main+0x1a9c>
    289c: 18           	clc
    289d: 69 02        	adc	#$2
    289f: 85 12        	sta	$12                     ; 0x2012 <main+0x1a9c>
    28a1: a5 13        	lda	$13                     ; 0x2013 <main+0x1a9d>
    28a3: 69 00        	adc	#$0
    28a5: 85 13        	sta	$13                     ; 0x2013 <main+0x1a9d>
    28a7: b6 4a        	ldx	$4a,y                   ; 0x204a <main+0x1ad4>
    28a9: f0 0c        	beq	$28b7 <fileOpenDir+0x72>
    28ab: 4c 19 29     	jmp	$2919 <fileOpenDir+0xd4>
    28ae: a0 00        	ldy	#$0
    28b0: b6 4a        	ldx	$4a,y                   ; 0x204a <main+0x1ad4>
    28b2: f0 03        	beq	$28b7 <fileOpenDir+0x72>
    28b4: 4c 19 29     	jmp	$2919 <fileOpenDir+0xd4>
    28b7: 84 18        	sty	$18                     ; 0x2018 <main+0x1aa2>
    28b9: 84 f3        	sty	$f3                     ; 0x20f3 <main+0x1b7d>
    28bb: a6 12        	ldx	$12                     ; 0x2012 <main+0x1a9c>
    28bd: a4 13        	ldy	$13                     ; 0x2013 <main+0x1a9d>
    28bf: 86 fb        	stx	$fb                     ; 0x20fb <main+0x1b85>
    28c1: 84 fc        	sty	$fc                     ; 0x20fc <main+0x1b86>
    28c3: b2 12        	lda	($12)                   ; 0x2012 <main+0x1a9c>
    28c5: f0 30        	beq	$28f7 <fileOpenDir+0xb2>
    28c7: 64 14        	stz	$14                     ; 0x2014 <main+0x1a9e>
    28c9: a0 01        	ldy	#$1
    28cb: a9 00        	lda	#$0
    28cd: aa           	tax
    28ce: 5a           	phy
    28cf: a4 14        	ldy	$14                     ; 0x2014 <main+0x1a9e>
    28d1: 84 15        	sty	$15                     ; 0x2015 <main+0x1a9f>
    28d3: 7a           	ply
    28d4: e6 14        	inc	$14                     ; 0x2014 <main+0x1a9e>
    28d6: d0 01        	bne	$28d9 <fileOpenDir+0x94>
    28d8: e8           	inx
    28d9: 18           	clc
    28da: 85 17        	sta	$17                     ; 0x2017 <main+0x1aa1>
    28dc: a5 15        	lda	$15                     ; 0x2015 <main+0x1a9f>
    28de: 65 12        	adc	$12                     ; 0x2012 <main+0x1a9c>
    28e0: 85 16        	sta	$16                     ; 0x2016 <main+0x1aa0>
    28e2: a5 17        	lda	$17                     ; 0x2017 <main+0x1aa1>
    28e4: 65 13        	adc	$13                     ; 0x2013 <main+0x1a9d>
    28e6: 85 17        	sta	$17                     ; 0x2017 <main+0x1aa1>
    28e8: b1 16        	lda	($16),y                 ; 0x2016 <main+0x1aa0>
    28ea: 85 15        	sta	$15                     ; 0x2015 <main+0x1a9f>
    28ec: 8a           	txa
    28ed: e6 15        	inc	$15                     ; 0x2015 <main+0x1a9f>
    28ef: c6 15        	dec	$15                     ; 0x2015 <main+0x1a9f>
    28f1: d0 db        	bne	$28ce <fileOpenDir+0x89>
    28f3: a6 14        	ldx	$14                     ; 0x2014 <main+0x1a9e>
    28f5: 80 02        	bra	$28f9 <fileOpenDir+0xb4>
    28f7: a2 00        	ldx	#$0
    28f9: 86 fd        	stx	$fd                     ; 0x20fd <main+0x1b87>
    28fb: a2 75        	ldx	#$75
    28fd: a0 00        	ldy	#$0
    28ff: 86 12        	stx	$12                     ; 0x2012 <main+0x1a9c>
    2901: 84 13        	sty	$13                     ; 0x2013 <main+0x1a9d>
    2903: a2 56        	ldx	#$56
    2905: 86 14        	stx	$14                     ; 0x2014 <main+0x1a9e>
    2907: a2 00        	ldx	#$0
    2909: 86 15        	stx	$15                     ; 0x2015 <main+0x1a9f>
    290b: 20 78 ff     	jsr	$ff78 <__heap_start+0x8de4>
    290e: 92 12        	sta	($12)                   ; 0x2012 <main+0x1a9c>
    2910: a9 00        	lda	#$0
    2912: 6a           	ror
    2913: 85 14        	sta	$14                     ; 0x2014 <main+0x1a9e>
    2915: a6 56        	ldx	$56                     ; 0x2056 <main+0x1ae0>
    2917: f0 09        	beq	$2922 <fileOpenDir+0xdd>
    2919: a2 00        	ldx	#$0
    291b: 86 12        	stx	$12                     ; 0x2012 <main+0x1a9c>
    291d: a2 00        	ldx	#$0
    291f: 86 13        	stx	$13                     ; 0x2013 <main+0x1a9d>
    2921: 60           	rts
    2922: a9 4a        	lda	#$4a
    2924: 18           	clc
    2925: 65 18        	adc	$18                     ; 0x2018 <main+0x1aa2>
    2927: 85 12        	sta	$12                     ; 0x2012 <main+0x1a9c>
    2929: a9 00        	lda	#$0
    292b: 69 00        	adc	#$0
    292d: 85 13        	sta	$13                     ; 0x2013 <main+0x1a9d>
    292f: a6 75        	ldx	$75                     ; 0x2075 <main+0x1aff>
    2931: 86 19        	stx	$19                     ; 0x2019 <main+0x1aa3>
    2933: a2 76        	ldx	#$76
    2935: a0 00        	ldy	#$0
    2937: 86 16        	stx	$16                     ; 0x2016 <main+0x1aa0>
    2939: 84 17        	sty	$17                     ; 0x2017 <main+0x1aa1>
    293b: 64 57        	stz	$57                     ; 0x2057 <main+0x1ae1>
    293d: 20 00 ff     	jsr	$ff00 <__heap_start+0x8d6c>
    2940: 92 16        	sta	($16)                   ; 0x2016 <main+0x1aa0>
    2942: a9 00        	lda	#$0
    2944: 6a           	ror
    2945: 85 14        	sta	$14                     ; 0x2014 <main+0x1a9e>
    2947: a6 57        	ldx	$57                     ; 0x2057 <main+0x1ae1>
    2949: e0 48        	cpx	#$48
    294b: f0 cc        	beq	$2919 <fileOpenDir+0xd4>
    294d: e0 3c        	cpx	#$3c
    294f: d0 ea        	bne	$293b <fileOpenDir+0xf6>
    2951: a6 18        	ldx	$18                     ; 0x2018 <main+0x1aa2>
    2953: a5 19        	lda	$19                     ; 0x2019 <main+0x1aa3>
    2955: 9d 4a 00     	sta	$4a,x                   ; 0x4a <_dirStream>
    2958: 60           	rts

00002959 <fileRead>:
    2959: 85 16        	sta	$16                     ; 0x2016 <main+0x1aa0>
    295b: 86 17        	stx	$17                     ; 0x2017 <main+0x1aa1>
    295d: 64 18        	stz	$18                     ; 0x2018 <main+0x1aa2>
    295f: a6 12        	ldx	$12                     ; 0x2012 <main+0x1a9c>
    2961: 86 1a        	stx	$1a                     ; 0x201a <main+0x1aa4>
    2963: a6 13        	ldx	$13                     ; 0x2013 <main+0x1a9d>
    2965: 86 1b        	stx	$1b                     ; 0x201b <main+0x1aa5>
    2967: a2 63        	ldx	#$63
    2969: a0 00        	ldy	#$0
    296b: a9 56        	lda	#$56
    296d: 85 12        	sta	$12                     ; 0x2012 <main+0x1a9c>
    296f: a9 00        	lda	#$0
    2971: 85 13        	sta	$13                     ; 0x2013 <main+0x1a9d>
    2973: 64 19        	stz	$19                     ; 0x2019 <main+0x1aa3>
    2975: b2 14        	lda	($14)                   ; 0x2014 <main+0x1a9e>
    2977: 85 1d        	sta	$1d                     ; 0x201d <main+0x1aa7>
    2979: a5 1a        	lda	$1a                     ; 0x201a <main+0x1aa4>
    297b: 85 1e        	sta	$1e                     ; 0x201e <main+0x1aa8>
    297d: a5 1a        	lda	$1a                     ; 0x201a <main+0x1aa4>
    297f: 18           	clc
    2980: 65 18        	adc	$18                     ; 0x2018 <main+0x1aa2>
    2982: 85 1c        	sta	$1c                     ; 0x201c <main+0x1aa6>
    2984: a5 1b        	lda	$1b                     ; 0x201b <main+0x1aa5>
    2986: 85 1f        	sta	$1f                     ; 0x201f <main+0x1aa9>
    2988: a5 1b        	lda	$1b                     ; 0x201b <main+0x1aa5>
    298a: 65 19        	adc	$19                     ; 0x2019 <main+0x1aa3>
    298c: e6 1d        	inc	$1d                     ; 0x201d <main+0x1aa7>
    298e: c6 1d        	dec	$1d                     ; 0x201d <main+0x1aa7>
    2990: d0 03        	bne	$2995 <fileRead+0x3c>
    2992: 4c 12 2a     	jmp	$2a12 <fileRead+0xb9>
    2995: 5a           	phy
    2996: a4 1d        	ldy	$1d                     ; 0x201d <main+0x1aa7>
    2998: 84 1a        	sty	$1a                     ; 0x201a <main+0x1aa4>
    299a: 7a           	ply
    299b: 85 1d        	sta	$1d                     ; 0x201d <main+0x1aa7>
    299d: a5 16        	lda	$16                     ; 0x2016 <main+0x1aa0>
    299f: 38           	sec
    29a0: e5 18        	sbc	$18                     ; 0x2018 <main+0x1aa2>
    29a2: 85 1b        	sta	$1b                     ; 0x201b <main+0x1aa5>
    29a4: a5 1a        	lda	$1a                     ; 0x201a <main+0x1aa4>
    29a6: 85 f3        	sta	$f3                     ; 0x20f3 <main+0x1b7d>
    29a8: a5 1b        	lda	$1b                     ; 0x201b <main+0x1aa5>
    29aa: 85 f4        	sta	$f4                     ; 0x20f4 <main+0x1b7e>
    29ac: a9 65        	lda	#$65
    29ae: 85 1a        	sta	$1a                     ; 0x201a <main+0x1aa4>
    29b0: a9 00        	lda	#$0
    29b2: 85 1b        	sta	$1b                     ; 0x201b <main+0x1aa5>
    29b4: 20 60 ff     	jsr	$ff60 <__heap_start+0x8dcc>
    29b7: 92 1a        	sta	($1a)                   ; 0x201a <main+0x1aa4>
    29b9: a9 00        	lda	#$0
    29bb: 6a           	ror
    29bc: 85 12        	sta	$12                     ; 0x2012 <main+0x1a9c>
    29be: a5 56        	lda	$56                     ; 0x2056 <main+0x1ae0>
    29c0: f0 03        	beq	$29c5 <fileRead+0x6c>
    29c2: 4c 8a 2a     	jmp	$2a8a <fileRead+0x131>
    29c5: 64 57        	stz	$57                     ; 0x2057 <main+0x1ae1>
    29c7: a9 66        	lda	#$66
    29c9: 85 1a        	sta	$1a                     ; 0x201a <main+0x1aa4>
    29cb: a9 00        	lda	#$0
    29cd: 85 1b        	sta	$1b                     ; 0x201b <main+0x1aa5>
    29cf: 20 00 ff     	jsr	$ff00 <__heap_start+0x8d6c>
    29d2: 92 1a        	sta	($1a)                   ; 0x201a <main+0x1aa4>
    29d4: a9 00        	lda	#$0
    29d6: 6a           	ror
    29d7: 85 12        	sta	$12                     ; 0x2012 <main+0x1a9c>
    29d9: a5 57        	lda	$57                     ; 0x2057 <main+0x1ae1>
    29db: c9 38        	cmp	#$38
    29dd: d0 03        	bne	$29e2 <fileRead+0x89>
    29df: 4c 8a 2a     	jmp	$2a8a <fileRead+0x131>
    29e2: c9 30        	cmp	#$30
    29e4: d0 03        	bne	$29e9 <fileRead+0x90>
    29e6: 4c 91 2a     	jmp	$2a91 <fileRead+0x138>
    29e9: c9 2c        	cmp	#$2c
    29eb: d0 d8        	bne	$29c5 <fileRead+0x6c>
    29ed: a5 1c        	lda	$1c                     ; 0x201c <main+0x1aa6>
    29ef: 85 fb        	sta	$fb                     ; 0x20fb <main+0x1b85>
    29f1: a5 1d        	lda	$1d                     ; 0x201d <main+0x1aa7>
    29f3: 85 fc        	sta	$fc                     ; 0x20fc <main+0x1b86>
    29f5: a5 5d        	lda	$5d                     ; 0x205d <main+0x1ae7>
    29f7: 85 fd        	sta	$fd                     ; 0x20fd <main+0x1b87>
    29f9: a9 67        	lda	#$67
    29fb: 85 1a        	sta	$1a                     ; 0x201a <main+0x1aa4>
    29fd: a9 00        	lda	#$0
    29ff: 85 1b        	sta	$1b                     ; 0x201b <main+0x1aa5>
    2a01: 20 04 ff     	jsr	$ff04 <__heap_start+0x8d70>
    2a04: 92 1a        	sta	($1a)                   ; 0x201a <main+0x1aa4>
    2a06: a9 00        	lda	#$0
    2a08: 6a           	ror
    2a09: 85 12        	sta	$12                     ; 0x2012 <main+0x1a9c>
    2a0b: a5 5d        	lda	$5d                     ; 0x205d <main+0x1ae7>
    2a0d: d0 43        	bne	$2a52 <fileRead+0xf9>
    2a0f: 4c 9b 2a     	jmp	$2a9b <fileRead+0x142>
    2a12: 5a           	phy
    2a13: a4 1c        	ldy	$1c                     ; 0x201c <main+0x1aa6>
    2a15: 84 1a        	sty	$1a                     ; 0x201a <main+0x1aa4>
    2a17: 7a           	ply
    2a18: 85 1b        	sta	$1b                     ; 0x201b <main+0x1aa5>
    2a1a: 80 12        	bra	$2a2e <fileRead+0xd5>
    2a1c: a9 64        	lda	#$64
    2a1e: 85 1c        	sta	$1c                     ; 0x201c <main+0x1aa6>
    2a20: a9 00        	lda	#$0
    2a22: 85 1d        	sta	$1d                     ; 0x201d <main+0x1aa7>
    2a24: 20 0c ff     	jsr	$ff0c <__heap_start+0x8d78>
    2a27: 92 1c        	sta	($1c)                   ; 0x201c <main+0x1aa6>
    2a29: a9 00        	lda	#$0
    2a2b: 6a           	ror
    2a2c: 85 12        	sta	$12                     ; 0x2012 <main+0x1a9c>
    2a2e: 64 57        	stz	$57                     ; 0x2057 <main+0x1ae1>
    2a30: 86 1c        	stx	$1c                     ; 0x201c <main+0x1aa6>
    2a32: 84 1d        	sty	$1d                     ; 0x201d <main+0x1aa7>
    2a34: 20 00 ff     	jsr	$ff00 <__heap_start+0x8d6c>
    2a37: 92 1c        	sta	($1c)                   ; 0x201c <main+0x1aa6>
    2a39: a9 00        	lda	#$0
    2a3b: 6a           	ror
    2a3c: 85 12        	sta	$12                     ; 0x2012 <main+0x1a9c>
    2a3e: a5 56        	lda	$56                     ; 0x2056 <main+0x1ae0>
    2a40: d0 da        	bne	$2a1c <fileRead+0xc3>
    2a42: a5 57        	lda	$57                     ; 0x2057 <main+0x1ae1>
    2a44: c9 08        	cmp	#$8
    2a46: d0 e6        	bne	$2a2e <fileRead+0xd5>
    2a48: a5 5d        	lda	$5d                     ; 0x205d <main+0x1ae7>
    2a4a: d0 e2        	bne	$2a2e <fileRead+0xd5>
    2a4c: a5 5c        	lda	$5c                     ; 0x205c <main+0x1ae6>
    2a4e: 92 1a        	sta	($1a)                   ; 0x201a <main+0x1aa4>
    2a50: a9 01        	lda	#$1
    2a52: 85 68        	sta	$68                     ; 0x2068 <main+0x1af2>
    2a54: a9 00        	lda	#$0
    2a56: 85 69        	sta	$69                     ; 0x2069 <main+0x1af3>
    2a58: 18           	clc
    2a59: a5 68        	lda	$68                     ; 0x2068 <main+0x1af2>
    2a5b: 65 18        	adc	$18                     ; 0x2018 <main+0x1aa2>
    2a5d: 85 68        	sta	$68                     ; 0x2068 <main+0x1af2>
    2a5f: a5 69        	lda	$69                     ; 0x2069 <main+0x1af3>
    2a61: 65 19        	adc	$19                     ; 0x2019 <main+0x1aa3>
    2a63: c5 17        	cmp	$17                     ; 0x2017 <main+0x1aa1>
    2a65: d0 0a        	bne	$2a71 <fileRead+0x118>
    2a67: 85 19        	sta	$19                     ; 0x2019 <main+0x1aa3>
    2a69: a5 68        	lda	$68                     ; 0x2068 <main+0x1af2>
    2a6b: 85 18        	sta	$18                     ; 0x2018 <main+0x1aa2>
    2a6d: c5 16        	cmp	$16                     ; 0x2016 <main+0x1aa0>
    2a6f: 80 08        	bra	$2a79 <fileRead+0x120>
    2a71: c5 17        	cmp	$17                     ; 0x2017 <main+0x1aa1>
    2a73: 85 19        	sta	$19                     ; 0x2019 <main+0x1aa3>
    2a75: a5 68        	lda	$68                     ; 0x2068 <main+0x1af2>
    2a77: 85 18        	sta	$18                     ; 0x2018 <main+0x1aa2>
    2a79: a5 19        	lda	$19                     ; 0x2019 <main+0x1aa3>
    2a7b: 5a           	phy
    2a7c: a4 1e        	ldy	$1e                     ; 0x201e <main+0x1aa8>
    2a7e: 84 1a        	sty	$1a                     ; 0x201a <main+0x1aa4>
    2a80: a4 1f        	ldy	$1f                     ; 0x201f <main+0x1aa9>
    2a82: 84 1b        	sty	$1b                     ; 0x201b <main+0x1aa5>
    2a84: 7a           	ply
    2a85: b0 10        	bcs	$2a97 <fileRead+0x13e>
    2a87: 4c 75 29     	jmp	$2975 <fileRead+0x1c>
    2a8a: a9 ff        	lda	#$ff
    2a8c: aa           	tax
    2a8d: 86 68        	stx	$68                     ; 0x2068 <main+0x1af2>
    2a8f: 80 06        	bra	$2a97 <fileRead+0x13e>
    2a91: a6 18        	ldx	$18                     ; 0x2018 <main+0x1aa2>
    2a93: 86 68        	stx	$68                     ; 0x2068 <main+0x1af2>
    2a95: a5 19        	lda	$19                     ; 0x2019 <main+0x1aa3>
    2a97: aa           	tax
    2a98: a5 68        	lda	$68                     ; 0x2068 <main+0x1af2>
    2a9a: 60           	rts
    2a9b: a9 00        	lda	#$0
    2a9d: 85 68        	sta	$68                     ; 0x2068 <main+0x1af2>
    2a9f: 1a           	inc
    2aa0: 80 b4        	bra	$2a56 <fileRead+0xfd>

00002aa2 <textPrint>:
    2aa2: a6 01        	ldx	$1                      ; 0x2001 <main+0x1a8b>
    2aa4: 86 ce        	stx	$ce                     ; 0x20ce <main+0x1b58>
    2aa6: a6 45        	ldx	$45                     ; 0x2045 <main+0x1acf>
    2aa8: a0 50        	ldy	#$50
    2aaa: 8c 00 de     	sty	$de00                   ; 0xde00 <__heap_start+0x6c6c>
    2aad: 9c 01 de     	stz	$de01                   ; 0xde01 <__heap_start+0x6c6d>
    2ab0: 8e 02 de     	stx	$de02                   ; 0xde02 <__heap_start+0x6c6e>
    2ab3: 9c 03 de     	stz	$de03                   ; 0xde03 <__heap_start+0x6c6f>
    2ab6: ae 10 de     	ldx	$de10                   ; 0xde10 <__heap_start+0x6c7c>
    2ab9: ac 11 de     	ldy	$de11                   ; 0xde11 <__heap_start+0x6c7d>
    2abc: 84 15        	sty	$15                     ; 0x2015 <main+0x1a9f>
    2abe: ad 12 de     	lda	$de12                   ; 0xde12 <__heap_start+0x6c7e>
    2ac1: ac 13 de     	ldy	$de13                   ; 0xde13 <__heap_start+0x6c7f>
    2ac4: 84 1c        	sty	$1c                     ; 0x201c <main+0x1aa6>
    2ac6: 9c 08 de     	stz	$de08                   ; 0xde08 <__heap_start+0x6c74>
    2ac9: a0 c0        	ldy	#$c0
    2acb: 8c 09 de     	sty	$de09                   ; 0xde09 <__heap_start+0x6c75>
    2ace: 9c 0a de     	stz	$de0a                   ; 0xde0a <__heap_start+0x6c76>
    2ad1: 9c 0b de     	stz	$de0b                   ; 0xde0b <__heap_start+0x6c77>
    2ad4: 8e 0c de     	stx	$de0c                   ; 0xde0c <__heap_start+0x6c78>
    2ad7: 64 14        	stz	$14                     ; 0x2014 <main+0x1a9e>
    2ad9: a2 00        	ldx	#$0
    2adb: 86 16        	stx	$16                     ; 0x2016 <main+0x1aa0>
    2add: a2 c0        	ldx	#$c0
    2adf: 86 17        	stx	$17                     ; 0x2017 <main+0x1aa1>
    2ae1: a2 11        	ldx	#$11
    2ae3: 86 18        	stx	$18                     ; 0x2018 <main+0x1aa2>
    2ae5: a2 c9        	ldx	#$c9
    2ae7: 86 19        	stx	$19                     ; 0x2019 <main+0x1aa3>
    2ae9: a2 10        	ldx	#$10
    2aeb: 86 1a        	stx	$1a                     ; 0x201a <main+0x1aa4>
    2aed: a2 c9        	ldx	#$c9
    2aef: 86 1b        	stx	$1b                     ; 0x201b <main+0x1aa5>
    2af1: a6 15        	ldx	$15                     ; 0x2015 <main+0x1a9f>
    2af3: 8e 0d de     	stx	$de0d                   ; 0xde0d <__heap_start+0x6c79>
    2af6: 8d 0e de     	sta	$de0e                   ; 0xde0e <__heap_start+0x6c7a>
    2af9: a6 1c        	ldx	$1c                     ; 0x201c <main+0x1aa6>
    2afb: 8e 0f de     	stx	$de0f                   ; 0xde0f <__heap_start+0x6c7b>
    2afe: ac 18 de     	ldy	$de18                   ; 0xde18 <__heap_start+0x6c84>
    2b01: ad 19 de     	lda	$de19                   ; 0xde19 <__heap_start+0x6c85>
    2b04: ae 1a de     	ldx	$de1a                   ; 0xde1a <__heap_start+0x6c86>
    2b07: ae 1b de     	ldx	$de1b                   ; 0xde1b <__heap_start+0x6c87>
    2b0a: 84 1c        	sty	$1c                     ; 0x201c <main+0x1aa6>
    2b0c: 85 1d        	sta	$1d                     ; 0x201d <main+0x1aa7>
    2b0e: 64 15        	stz	$15                     ; 0x2015 <main+0x1a9f>
    2b10: 4c 17 2c     	jmp	$2c17 <textPrint+0x175>
    2b13: 8a           	txa
    2b14: f0 15        	beq	$2b2b <textPrint+0x89>
    2b16: b1 1c        	lda	($1c),y                 ; 0x201c <main+0x1aa6>
    2b18: 92 1c        	sta	($1c)                   ; 0x201c <main+0x1aa6>
    2b1a: a9 ff        	lda	#$ff
    2b1c: c6 1e        	dec	$1e                     ; 0x201e <main+0x1aa8>
    2b1e: c5 1e        	cmp	$1e                     ; 0x201e <main+0x1aa8>
    2b20: d0 01        	bne	$2b23 <textPrint+0x81>
    2b22: ca           	dex
    2b23: e6 1c        	inc	$1c                     ; 0x201c <main+0x1aa6>
    2b25: d0 ec        	bne	$2b13 <textPrint+0x71>
    2b27: e6 1d        	inc	$1d                     ; 0x201d <main+0x1aa7>
    2b29: 80 e8        	bra	$2b13 <textPrint+0x71>
    2b2b: a5 1e        	lda	$1e                     ; 0x201e <main+0x1aa8>
    2b2d: d0 e7        	bne	$2b16 <textPrint+0x74>
    2b2f: a2 02        	ldx	#$2
    2b31: 86 01        	stx	$1                      ; 0x2001 <main+0x1a8b>
    2b33: a2 09        	ldx	#$9
    2b35: a9 10        	lda	#$10
    2b37: 5a           	phy
    2b38: a0 00        	ldy	#$0
    2b3a: 84 1c        	sty	$1c                     ; 0x201c <main+0x1aa6>
    2b3c: a0 c0        	ldy	#$c0
    2b3e: 84 1d        	sty	$1d                     ; 0x201d <main+0x1aa7>
    2b40: 7a           	ply
    2b41: 85 1e        	sta	$1e                     ; 0x201e <main+0x1aa8>
    2b43: 80 03        	bra	$2b48 <textPrint+0xa6>
    2b45: 8a           	txa
    2b46: f0 15        	beq	$2b5d <textPrint+0xbb>
    2b48: b1 1c        	lda	($1c),y                 ; 0x201c <main+0x1aa6>
    2b4a: 92 1c        	sta	($1c)                   ; 0x201c <main+0x1aa6>
    2b4c: a9 ff        	lda	#$ff
    2b4e: c6 1e        	dec	$1e                     ; 0x201e <main+0x1aa8>
    2b50: c5 1e        	cmp	$1e                     ; 0x201e <main+0x1aa8>
    2b52: d0 01        	bne	$2b55 <textPrint+0xb3>
    2b54: ca           	dex
    2b55: e6 1c        	inc	$1c                     ; 0x201c <main+0x1aa6>
    2b57: d0 ec        	bne	$2b45 <textPrint+0xa3>
    2b59: e6 1d        	inc	$1d                     ; 0x201d <main+0x1aa7>
    2b5b: 80 e8        	bra	$2b45 <textPrint+0xa3>
    2b5d: a5 1e        	lda	$1e                     ; 0x201e <main+0x1aa8>
    2b5f: d0 e7        	bne	$2b48 <textPrint+0xa6>
    2b61: a2 02        	ldx	#$2
    2b63: 86 01        	stx	$1                      ; 0x2001 <main+0x1a8b>
    2b65: e8           	inx
    2b66: 86 01        	stx	$1                      ; 0x2001 <main+0x1a8b>
    2b68: a5 30        	lda	$30                     ; 0x2030 <main+0x1aba>
    2b6a: a2 50        	ldx	#$50
    2b6c: a0 11        	ldy	#$11
    2b6e: 84 1c        	sty	$1c                     ; 0x201c <main+0x1aa6>
    2b70: a0 c9        	ldy	#$c9
    2b72: 84 1d        	sty	$1d                     ; 0x201d <main+0x1aa7>
    2b74: a0 10        	ldy	#$10
    2b76: 84 1e        	sty	$1e                     ; 0x201e <main+0x1aa8>
    2b78: a0 c9        	ldy	#$c9
    2b7a: 84 1f        	sty	$1f                     ; 0x201f <main+0x1aa9>
    2b7c: a4 1c        	ldy	$1c                     ; 0x201c <main+0x1aa6>
    2b7e: 84 22        	sty	$22                     ; 0x2022 <main+0x1aac>
    2b80: a4 1d        	ldy	$1d                     ; 0x201d <main+0x1aa7>
    2b82: 84 23        	sty	$23                     ; 0x2023 <main+0x1aad>
    2b84: 92 1e        	sta	($1e)                   ; 0x201e <main+0x1aa8>
    2b86: e6 1c        	inc	$1c                     ; 0x201c <main+0x1aa6>
    2b88: d0 02        	bne	$2b8c <textPrint+0xea>
    2b8a: e6 1d        	inc	$1d                     ; 0x201d <main+0x1aa7>
    2b8c: ca           	dex
    2b8d: a4 22        	ldy	$22                     ; 0x2022 <main+0x1aac>
    2b8f: 84 1e        	sty	$1e                     ; 0x201e <main+0x1aa8>
    2b91: a4 23        	ldy	$23                     ; 0x2023 <main+0x1aad>
    2b93: 84 1f        	sty	$1f                     ; 0x201f <main+0x1aa9>
    2b95: e0 00        	cpx	#$0
    2b97: d0 e3        	bne	$2b7c <textPrint+0xda>
    2b99: a2 02        	ldx	#$2
    2b9b: 86 01        	stx	$1                      ; 0x2001 <main+0x1a8b>
    2b9d: a2 50        	ldx	#$50
    2b9f: a0 11        	ldy	#$11
    2ba1: 84 1c        	sty	$1c                     ; 0x201c <main+0x1aa6>
    2ba3: a0 c9        	ldy	#$c9
    2ba5: 84 1d        	sty	$1d                     ; 0x201d <main+0x1aa7>
    2ba7: a0 10        	ldy	#$10
    2ba9: 84 1e        	sty	$1e                     ; 0x201e <main+0x1aa8>
    2bab: a0 c9        	ldy	#$c9
    2bad: 84 1f        	sty	$1f                     ; 0x201f <main+0x1aa9>
    2baf: a9 20        	lda	#$20
    2bb1: a4 1c        	ldy	$1c                     ; 0x201c <main+0x1aa6>
    2bb3: 84 22        	sty	$22                     ; 0x2022 <main+0x1aac>
    2bb5: a4 1d        	ldy	$1d                     ; 0x201d <main+0x1aa7>
    2bb7: 84 23        	sty	$23                     ; 0x2023 <main+0x1aad>
    2bb9: 92 1e        	sta	($1e)                   ; 0x201e <main+0x1aa8>
    2bbb: e6 1c        	inc	$1c                     ; 0x201c <main+0x1aa6>
    2bbd: d0 02        	bne	$2bc1 <textPrint+0x11f>
    2bbf: e6 1d        	inc	$1d                     ; 0x201d <main+0x1aa7>
    2bc1: ca           	dex
    2bc2: a4 22        	ldy	$22                     ; 0x2022 <main+0x1aac>
    2bc4: 84 1e        	sty	$1e                     ; 0x201e <main+0x1aa8>
    2bc6: a4 23        	ldy	$23                     ; 0x2023 <main+0x1aad>
    2bc8: 84 1f        	sty	$1f                     ; 0x201f <main+0x1aa9>
    2bca: e0 00        	cpx	#$0
    2bcc: d0 e3        	bne	$2bb1 <textPrint+0x10f>
    2bce: c6 45        	dec	$45                     ; 0x2045 <main+0x1acf>
    2bd0: 9c 08 de     	stz	$de08                   ; 0xde08 <__heap_start+0x6c74>
    2bd3: a2 c0        	ldx	#$c0
    2bd5: 8e 09 de     	stx	$de09                   ; 0xde09 <__heap_start+0x6c75>
    2bd8: 9c 0a de     	stz	$de0a                   ; 0xde0a <__heap_start+0x6c76>
    2bdb: 9c 0b de     	stz	$de0b                   ; 0xde0b <__heap_start+0x6c77>
    2bde: a2 1d        	ldx	#$1d
    2be0: 8e 0c de     	stx	$de0c                   ; 0xde0c <__heap_start+0x6c78>
    2be3: 9c 0d de     	stz	$de0d                   ; 0xde0d <__heap_start+0x6c79>
    2be6: 9c 0e de     	stz	$de0e                   ; 0xde0e <__heap_start+0x6c7a>
    2be9: 9c 0f de     	stz	$de0f                   ; 0xde0f <__heap_start+0x6c7b>
    2bec: ae 18 de     	ldx	$de18                   ; 0xde18 <__heap_start+0x6c84>
    2bef: ac 19 de     	ldy	$de19                   ; 0xde19 <__heap_start+0x6c85>
    2bf2: ad 1a de     	lda	$de1a                   ; 0xde1a <__heap_start+0x6c86>
    2bf5: ad 1b de     	lda	$de1b                   ; 0xde1b <__heap_start+0x6c87>
    2bf8: 86 1c        	stx	$1c                     ; 0x201c <main+0x1aa6>
    2bfa: 84 1d        	sty	$1d                     ; 0x201d <main+0x1aa7>
    2bfc: e6 14        	inc	$14                     ; 0x2014 <main+0x1a9e>
    2bfe: d0 02        	bne	$2c02 <textPrint+0x160>
    2c00: e6 15        	inc	$15                     ; 0x2015 <main+0x1a9f>
    2c02: 80 13        	bra	$2c17 <textPrint+0x175>
    2c04: a5 1c        	lda	$1c                     ; 0x201c <main+0x1aa6>
    2c06: 18           	clc
    2c07: 69 50        	adc	#$50
    2c09: 85 1c        	sta	$1c                     ; 0x201c <main+0x1aa6>
    2c0b: a5 1d        	lda	$1d                     ; 0x201d <main+0x1aa7>
    2c0d: 69 00        	adc	#$0
    2c0f: 85 1d        	sta	$1d                     ; 0x201d <main+0x1aa7>
    2c11: e6 14        	inc	$14                     ; 0x2014 <main+0x1a9e>
    2c13: d0 02        	bne	$2c17 <textPrint+0x175>
    2c15: e6 15        	inc	$15                     ; 0x2015 <main+0x1a9f>
    2c17: a5 12        	lda	$12                     ; 0x2012 <main+0x1a9c>
    2c19: 18           	clc
    2c1a: 65 14        	adc	$14                     ; 0x2014 <main+0x1a9e>
    2c1c: 85 1e        	sta	$1e                     ; 0x201e <main+0x1aa8>
    2c1e: a5 13        	lda	$13                     ; 0x2013 <main+0x1a9d>
    2c20: 65 15        	adc	$15                     ; 0x2015 <main+0x1a9f>
    2c22: 85 1f        	sta	$1f                     ; 0x201f <main+0x1aa9>
    2c24: b2 1e        	lda	($1e)                   ; 0x201e <main+0x1aa8>
    2c26: c9 0a        	cmp	#$a
    2c28: f0 23        	beq	$2c4d <textPrint+0x1ab>
    2c2a: c9 0d        	cmp	#$d
    2c2c: f0 1f        	beq	$2c4d <textPrint+0x1ab>
    2c2e: aa           	tax
    2c2f: f0 41        	beq	$2c72 <textPrint+0x1d0>
    2c31: a2 03        	ldx	#$3
    2c33: 86 01        	stx	$1                      ; 0x2001 <main+0x1a8b>
    2c35: a5 30        	lda	$30                     ; 0x2030 <main+0x1aba>
    2c37: a4 44        	ldy	$44                     ; 0x2044 <main+0x1ace>
    2c39: 91 1c        	sta	($1c),y                 ; 0x201c <main+0x1aa6>
    2c3b: ca           	dex
    2c3c: 86 01        	stx	$1                      ; 0x2001 <main+0x1a8b>
    2c3e: b2 1e        	lda	($1e)                   ; 0x201e <main+0x1aa8>
    2c40: a4 44        	ldy	$44                     ; 0x2044 <main+0x1ace>
    2c42: 91 1c        	sta	($1c),y                 ; 0x201c <main+0x1aa6>
    2c44: a6 44        	ldx	$44                     ; 0x2044 <main+0x1ace>
    2c46: e8           	inx
    2c47: e6 44        	inc	$44                     ; 0x2044 <main+0x1ace>
    2c49: e0 50        	cpx	#$50
    2c4b: d0 c4        	bne	$2c11 <textPrint+0x16f>
    2c4d: 64 44        	stz	$44                     ; 0x2044 <main+0x1ace>
    2c4f: a6 45        	ldx	$45                     ; 0x2045 <main+0x1acf>
    2c51: e8           	inx
    2c52: e6 45        	inc	$45                     ; 0x2045 <main+0x1acf>
    2c54: e0 1e        	cpx	#$1e
    2c56: f0 03        	beq	$2c5b <textPrint+0x1b9>
    2c58: 4c 04 2c     	jmp	$2c04 <textPrint+0x162>
    2c5b: a2 03        	ldx	#$3
    2c5d: 86 01        	stx	$1                      ; 0x2001 <main+0x1a8b>
    2c5f: a2 09        	ldx	#$9
    2c61: a9 10        	lda	#$10
    2c63: a0 00        	ldy	#$0
    2c65: 84 1c        	sty	$1c                     ; 0x201c <main+0x1aa6>
    2c67: a0 c0        	ldy	#$c0
    2c69: 84 1d        	sty	$1d                     ; 0x201d <main+0x1aa7>
    2c6b: a0 50        	ldy	#$50
    2c6d: 85 1e        	sta	$1e                     ; 0x201e <main+0x1aa8>
    2c6f: 4c 16 2b     	jmp	$2b16 <textPrint+0x74>
    2c72: a6 ce        	ldx	$ce                     ; 0x20ce <main+0x1b58>
    2c74: 86 01        	stx	$1                      ; 0x2001 <main+0x1a8b>
    2c76: a6 44        	ldx	$44                     ; 0x2044 <main+0x1ace>
    2c78: a4 45        	ldy	$45                     ; 0x2045 <main+0x1acf>
    2c7a: 8e 14 d0     	stx	$d014                   ; 0xd014 <__heap_start+0x5e80>
    2c7d: 9c 15 d0     	stz	$d015                   ; 0xd015 <__heap_start+0x5e81>
    2c80: 84 45        	sty	$45                     ; 0x2045 <main+0x1acf>
    2c82: 8c 16 d0     	sty	$d016                   ; 0xd016 <__heap_start+0x5e82>
    2c85: 9c 17 d0     	stz	$d017                   ; 0xd017 <__heap_start+0x5e83>
    2c88: 60           	rts

00002c89 <textGotoXY>:
    2c89: 85 44        	sta	$44                     ; 0x2044 <main+0x1ace>
    2c8b: 8d 14 d0     	sta	$d014                   ; 0xd014 <__heap_start+0x5e80>
    2c8e: 9c 15 d0     	stz	$d015                   ; 0xd015 <__heap_start+0x5e81>
    2c91: 86 45        	stx	$45                     ; 0x2045 <main+0x1acf>
    2c93: 8e 16 d0     	stx	$d016                   ; 0xd016 <__heap_start+0x5e82>
    2c96: 9c 17 d0     	stz	$d017                   ; 0xd017 <__heap_start+0x5e83>
    2c99: 60           	rts

00002c9a <fileReadDir>:
    2c9a: b2 12        	lda	($12)                   ; 0x2012 <main+0x1a9c>
    2c9c: 85 f3        	sta	$f3                     ; 0x20f3 <main+0x1b7d>
    2c9e: a2 75        	ldx	#$75
    2ca0: a0 00        	ldy	#$0
    2ca2: 86 14        	stx	$14                     ; 0x2014 <main+0x1a9e>
    2ca4: 84 15        	sty	$15                     ; 0x2015 <main+0x1a9f>
    2ca6: a2 56        	ldx	#$56
    2ca8: 86 16        	stx	$16                     ; 0x2016 <main+0x1aa0>
    2caa: a2 00        	ldx	#$0
    2cac: 86 17        	stx	$17                     ; 0x2017 <main+0x1aa1>
    2cae: 20 7c ff     	jsr	$ff7c <__heap_start+0x8de8>
    2cb1: 92 14        	sta	($14)                   ; 0x2014 <main+0x1a9e>
    2cb3: a9 00        	lda	#$0
    2cb5: 6a           	ror
    2cb6: 85 16        	sta	$16                     ; 0x2016 <main+0x1aa0>
    2cb8: a6 56        	ldx	$56                     ; 0x2056 <main+0x1ae0>
    2cba: a0 00        	ldy	#$0
    2cbc: 84 14        	sty	$14                     ; 0x2014 <main+0x1a9e>
    2cbe: a0 00        	ldy	#$0
    2cc0: 84 15        	sty	$15                     ; 0x2015 <main+0x1a9f>
    2cc2: 8a           	txa
    2cc3: f0 09        	beq	$2cce <fileReadDir+0x34>
    2cc5: a6 14        	ldx	$14                     ; 0x2014 <main+0x1a9e>
    2cc7: 86 12        	stx	$12                     ; 0x2012 <main+0x1a9c>
    2cc9: a6 15        	ldx	$15                     ; 0x2015 <main+0x1a9f>
    2ccb: 86 13        	stx	$13                     ; 0x2013 <main+0x1a9d>
    2ccd: 60           	rts
    2cce: a2 76        	ldx	#$76
    2cd0: a0 00        	ldy	#$0
    2cd2: 86 18        	stx	$18                     ; 0x2018 <main+0x1aa2>
    2cd4: 84 19        	sty	$19                     ; 0x2019 <main+0x1aa3>
    2cd6: a0 00        	ldy	#$0
    2cd8: 80 18        	bra	$2cf2 <fileReadDir+0x58>
    2cda: b2 12        	lda	($12)                   ; 0x2012 <main+0x1a9c>
    2cdc: 85 f3        	sta	$f3                     ; 0x20f3 <main+0x1b7d>
    2cde: a2 78        	ldx	#$78
    2ce0: 86 1a        	stx	$1a                     ; 0x201a <main+0x1aa4>
    2ce2: 84 1b        	sty	$1b                     ; 0x201b <main+0x1aa5>
    2ce4: 20 7c ff     	jsr	$ff7c <__heap_start+0x8de8>
    2ce7: 92 1a        	sta	($1a)                   ; 0x201a <main+0x1aa4>
    2ce9: a9 00        	lda	#$0
    2ceb: 6a           	ror
    2cec: 85 16        	sta	$16                     ; 0x2016 <main+0x1aa0>
    2cee: a6 56        	ldx	$56                     ; 0x2056 <main+0x1ae0>
    2cf0: d0 d3        	bne	$2cc5 <fileReadDir+0x2b>
    2cf2: 64 57        	stz	$57                     ; 0x2057 <main+0x1ae1>
    2cf4: 20 00 ff     	jsr	$ff00 <__heap_start+0x8d6c>
    2cf7: 92 18        	sta	($18)                   ; 0x2018 <main+0x1aa2>
    2cf9: a9 00        	lda	#$0
    2cfb: 6a           	ror
    2cfc: 85 16        	sta	$16                     ; 0x2016 <main+0x1aa0>
    2cfe: a9 c2        	lda	#$c2
    2d00: 18           	clc
    2d01: 65 57        	adc	$57                     ; 0x2057 <main+0x1ae1>
    2d03: c9 0b        	cmp	#$b
    2d05: b0 eb        	bcs	$2cf2 <fileReadDir+0x58>
    2d07: 0a           	asl
    2d08: aa           	tax
    2d09: 7c 39 5a     	jmp	($5a39,x)               ; 0x5a39 <__set_v+0x9>
    2d0c: 9c 5a 5e     	stz	$5e5a                   ; 0x5e5a <fileReadDir.fileDirEntS>
    2d0f: a2 02        	ldx	#$2
    2d11: 80 2d        	bra	$2d40 <fileReadDir+0xa6>
    2d13: a2 5a        	ldx	#$5a
    2d15: a0 5e        	ldy	#$5e
    2d17: 86 fb        	stx	$fb                     ; 0x20fb <main+0x1b85>
    2d19: 84 fc        	sty	$fc                     ; 0x20fc <main+0x1b86>
    2d1b: a2 01        	ldx	#$1
    2d1d: 86 fd        	stx	$fd                     ; 0x20fd <main+0x1b87>
    2d1f: a0 77        	ldy	#$77
    2d21: a9 00        	lda	#$0
    2d23: 84 12        	sty	$12                     ; 0x2012 <main+0x1a9c>
    2d25: 85 13        	sta	$13                     ; 0x2013 <main+0x1a9d>
    2d27: a0 56        	ldy	#$56
    2d29: 84 14        	sty	$14                     ; 0x2014 <main+0x1a9e>
    2d2b: a0 00        	ldy	#$0
    2d2d: 84 15        	sty	$15                     ; 0x2015 <main+0x1a9f>
    2d2f: 20 08 ff     	jsr	$ff08 <__heap_start+0x8d74>
    2d32: 92 12        	sta	($12)                   ; 0x2012 <main+0x1a9c>
    2d34: a9 00        	lda	#$0
    2d36: 6a           	ror
    2d37: 85 14        	sta	$14                     ; 0x2014 <main+0x1a9e>
    2d39: ac 5a 5e     	ldy	$5e5a                   ; 0x5e5a <fileReadDir.fileDirEntS>
    2d3c: f0 02        	beq	$2d40 <fileReadDir+0xa6>
    2d3e: a2 00        	ldx	#$0
    2d40: 8e 5b 5e     	stx	$5e5b                   ; 0x5e5b <fileReadDir.fileDirEntS+0x1>
    2d43: a6 5c        	ldx	$5c                     ; 0x205c <main+0x1ae6>
    2d45: f0 24        	beq	$2d6b <fileReadDir+0xd1>
    2d47: a0 5c        	ldy	#$5c
    2d49: a9 5e        	lda	#$5e
    2d4b: 84 fb        	sty	$fb                     ; 0x20fb <main+0x1b85>
    2d4d: 85 fc        	sta	$fc                     ; 0x20fc <main+0x1b86>
    2d4f: 86 fd        	stx	$fd                     ; 0x20fd <main+0x1b87>
    2d51: a0 79        	ldy	#$79
    2d53: a9 00        	lda	#$0
    2d55: 84 12        	sty	$12                     ; 0x2012 <main+0x1a9c>
    2d57: 85 13        	sta	$13                     ; 0x2013 <main+0x1a9d>
    2d59: a0 56        	ldy	#$56
    2d5b: 84 14        	sty	$14                     ; 0x2014 <main+0x1a9e>
    2d5d: a0 00        	ldy	#$0
    2d5f: 84 15        	sty	$15                     ; 0x2015 <main+0x1a9f>
    2d61: 20 04 ff     	jsr	$ff04 <__heap_start+0x8d70>
    2d64: 92 12        	sta	($12)                   ; 0x2012 <main+0x1a9c>
    2d66: a9 00        	lda	#$0
    2d68: 6a           	ror
    2d69: 85 14        	sta	$14                     ; 0x2014 <main+0x1a9e>
    2d6b: 9e 5c 5e     	stz	$5e5c,x                 ; 0x5e5c <fileReadDir.fileDirEntS+0x2>
    2d6e: a2 5a        	ldx	#$5a
    2d70: 86 14        	stx	$14                     ; 0x2014 <main+0x1a9e>
    2d72: a2 5e        	ldx	#$5e
    2d74: 86 15        	stx	$15                     ; 0x2015 <main+0x1a9f>
    2d76: 4c c5 2c     	jmp	$2cc5 <fileReadDir+0x2b>

00002d79 <sortFileList>:
    2d79: a6 41        	ldx	$41                     ; 0x2041 <main+0x1acb>
    2d7b: 8e aa 5f     	stx	$5faa                   ; 0x5faa <fpr+0x4e>
    2d7e: a6 42        	ldx	$42                     ; 0x2042 <main+0x1acc>
    2d80: 8e ab 5f     	stx	$5fab                   ; 0x5fab <fpr+0x4f>
    2d83: a6 43        	ldx	$43                     ; 0x2043 <main+0x1acd>
    2d85: 8e ac 5f     	stx	$5fac                   ; 0x5fac <fpr+0x50>
    2d88: a2 01        	ldx	#$1
    2d8a: 8e da 70     	stx	$70da                   ; 0x70da <fpr+0x117e>
    2d8d: ad 3e 71     	lda	$713e                   ; 0x713e <fpr+0x11e2>
    2d90: ac 3f 71     	ldy	$713f                   ; 0x713f <fpr+0x11e3>
    2d93: 85 9c        	sta	$9c                     ; 0x209c <main+0x1b26>
    2d95: c9 03        	cmp	#$3
    2d97: 98           	tya
    2d98: 84 9d        	sty	$9d                     ; 0x209d <main+0x1b27>
    2d9a: e9 00        	sbc	#$0
    2d9c: 50 02        	bvc	$2da0 <sortFileList+0x27>
    2d9e: 49 80        	eor	#$80
    2da0: aa           	tax
    2da1: 10 03        	bpl	$2da6 <sortFileList+0x2d>
    2da3: 4c c4 30     	jmp	$30c4 <sortFileList+0x34b>
    2da6: a2 6f        	ldx	#$6f
    2da8: a0 00        	ldy	#$0
    2daa: 86 12        	stx	$12                     ; 0x2012 <main+0x1a9c>
    2dac: 84 13        	sty	$13                     ; 0x2013 <main+0x1a9d>
    2dae: e6 12        	inc	$12                     ; 0x2012 <main+0x1a9c>
    2db0: d0 02        	bne	$2db4 <sortFileList+0x3b>
    2db2: e6 13        	inc	$13                     ; 0x2013 <main+0x1a9d>
    2db4: a6 12        	ldx	$12                     ; 0x2012 <main+0x1a9c>
    2db6: 86 a1        	stx	$a1                     ; 0x20a1 <main+0x1b2b>
    2db8: a6 13        	ldx	$13                     ; 0x2013 <main+0x1a9d>
    2dba: 86 a2        	stx	$a2                     ; 0x20a2 <main+0x1b2c>
    2dbc: a2 01        	ldx	#$1
    2dbe: 86 9b        	stx	$9b                     ; 0x209b <main+0x1b25>
    2dc0: 64 18        	stz	$18                     ; 0x2018 <main+0x1aa2>
    2dc2: 4c 88 30     	jmp	$3088 <sortFileList+0x30f>
    2dc5: a2 2c        	ldx	#$2c
    2dc7: a4 64        	ldy	$64                     ; 0x2064 <main+0x1aee>
    2dc9: c4 12        	cpy	$12                     ; 0x2012 <main+0x1a9c>
    2dcb: f0 03        	beq	$2dd0 <sortFileList+0x57>
    2dcd: 4c 7b 2e     	jmp	$2e7b <sortFileList+0x102>
    2dd0: a4 6b        	ldy	$6b                     ; 0x206b <main+0x1af5>
    2dd2: 84 9e        	sty	$9e                     ; 0x209e <main+0x1b28>
    2dd4: a4 6c        	ldy	$6c                     ; 0x206c <main+0x1af6>
    2dd6: 84 9f        	sty	$9f                     ; 0x209f <main+0x1b29>
    2dd8: a4 9b        	ldy	$9b                     ; 0x209b <main+0x1b25>
    2dda: 84 66        	sty	$66                     ; 0x2066 <main+0x1af0>
    2ddc: 86 12        	stx	$12                     ; 0x2012 <main+0x1a9c>
    2dde: 64 13        	stz	$13                     ; 0x2013 <main+0x1a9d>
    2de0: a6 68        	ldx	$68                     ; 0x2068 <main+0x1af2>
    2de2: a5 65        	lda	$65                     ; 0x2065 <main+0x1aef>
    2de4: 20 fe 59     	jsr	$59fe <__mulhi3>
    2de7: 85 12        	sta	$12                     ; 0x2012 <main+0x1a9c>
    2de9: 86 13        	stx	$13                     ; 0x2013 <main+0x1a9d>
    2deb: a9 aa        	lda	#$aa
    2ded: 18           	clc
    2dee: 65 12        	adc	$12                     ; 0x2012 <main+0x1a9c>
    2df0: 85 6b        	sta	$6b                     ; 0x206b <main+0x1af5>
    2df2: a9 5f        	lda	#$5f
    2df4: 65 13        	adc	$13                     ; 0x2013 <main+0x1a9d>
    2df6: 85 6c        	sta	$6c                     ; 0x206c <main+0x1af6>
    2df8: a2 2c        	ldx	#$2c
    2dfa: 86 12        	stx	$12                     ; 0x2012 <main+0x1a9c>
    2dfc: 64 13        	stz	$13                     ; 0x2013 <main+0x1a9d>
    2dfe: a6 63        	ldx	$63                     ; 0x2063 <main+0x1aed>
    2e00: a5 67        	lda	$67                     ; 0x2067 <main+0x1af1>
    2e02: 20 fe 59     	jsr	$59fe <__mulhi3>
    2e05: 85 14        	sta	$14                     ; 0x2014 <main+0x1a9e>
    2e07: b2 6b        	lda	($6b)                   ; 0x206b <main+0x1af5>
    2e09: 64 12        	stz	$12                     ; 0x2012 <main+0x1a9c>
    2e0b: d0 03        	bne	$2e10 <sortFileList+0x97>
    2e0d: 4c 82 2e     	jmp	$2e82 <sortFileList+0x109>
    2e10: a6 69        	ldx	$69                     ; 0x2069 <main+0x1af3>
    2e12: 86 16        	stx	$16                     ; 0x2016 <main+0x1aa0>
    2e14: a6 6a        	ldx	$6a                     ; 0x206a <main+0x1af4>
    2e16: 86 17        	stx	$17                     ; 0x2017 <main+0x1aa1>
    2e18: 85 a0        	sta	$a0                     ; 0x20a0 <main+0x1b2a>
    2e1a: a6 66        	ldx	$66                     ; 0x2066 <main+0x1af0>
    2e1c: 86 9b        	stx	$9b                     ; 0x209b <main+0x1b25>
    2e1e: a6 a3        	ldx	$a3                     ; 0x20a3 <main+0x1b2d>
    2e20: 86 18        	stx	$18                     ; 0x2018 <main+0x1aa2>
    2e22: aa           	tax
    2e23: a4 16        	ldy	$16                     ; 0x2016 <main+0x1aa0>
    2e25: 84 14        	sty	$14                     ; 0x2014 <main+0x1a9e>
    2e27: a4 17        	ldy	$17                     ; 0x2017 <main+0x1aa1>
    2e29: 84 15        	sty	$15                     ; 0x2015 <main+0x1a9f>
    2e2b: a0 2b        	ldy	#$2b
    2e2d: b1 16        	lda	($16),y                 ; 0x2016 <main+0x1aa0>
    2e2f: d0 03        	bne	$2e34 <sortFileList+0xbb>
    2e31: 4c 9d 2e     	jmp	$2e9d <sortFileList+0x124>
    2e34: 85 13        	sta	$13                     ; 0x2013 <main+0x1a9d>
    2e36: e0 41        	cpx	#$41
    2e38: 90 08        	bcc	$2e42 <sortFileList+0xc9>
    2e3a: 8a           	txa
    2e3b: c9 5b        	cmp	#$5b
    2e3d: b0 03        	bcs	$2e42 <sortFileList+0xc9>
    2e3f: 09 20        	ora	#$20
    2e41: aa           	tax
    2e42: a5 13        	lda	$13                     ; 0x2013 <main+0x1a9d>
    2e44: c9 41        	cmp	#$41
    2e46: 90 06        	bcc	$2e4e <sortFileList+0xd5>
    2e48: c9 5b        	cmp	#$5b
    2e4a: b0 02        	bcs	$2e4e <sortFileList+0xd5>
    2e4c: 09 20        	ora	#$20
    2e4e: 85 16        	sta	$16                     ; 0x2016 <main+0x1aa0>
    2e50: 86 13        	stx	$13                     ; 0x2013 <main+0x1a9d>
    2e52: e4 16        	cpx	$16                     ; 0x2016 <main+0x1aa0>
    2e54: f0 03        	beq	$2e59 <sortFileList+0xe0>
    2e56: 4c d5 2e     	jmp	$2ed5 <sortFileList+0x15c>
    2e59: b2 14        	lda	($14)                   ; 0x2014 <main+0x1a9e>
    2e5b: a6 14        	ldx	$14                     ; 0x2014 <main+0x1a9e>
    2e5d: 86 16        	stx	$16                     ; 0x2016 <main+0x1aa0>
    2e5f: a6 15        	ldx	$15                     ; 0x2015 <main+0x1a9f>
    2e61: 86 17        	stx	$17                     ; 0x2017 <main+0x1aa1>
    2e63: e6 16        	inc	$16                     ; 0x2016 <main+0x1aa0>
    2e65: d0 02        	bne	$2e69 <sortFileList+0xf0>
    2e67: e6 17        	inc	$17                     ; 0x2017 <main+0x1aa1>
    2e69: aa           	tax
    2e6a: d0 b6        	bne	$2e22 <sortFileList+0xa9>
    2e6c: a5 14        	lda	$14                     ; 0x2014 <main+0x1a9e>
    2e6e: 18           	clc
    2e6f: 69 2c        	adc	#$2c
    2e71: 85 14        	sta	$14                     ; 0x2014 <main+0x1a9e>
    2e73: a5 15        	lda	$15                     ; 0x2015 <main+0x1a9f>
    2e75: 69 00        	adc	#$0
    2e77: 85 15        	sta	$15                     ; 0x2015 <main+0x1a9f>
    2e79: 80 4a        	bra	$2ec5 <sortFileList+0x14c>
    2e7b: a6 12        	ldx	$12                     ; 0x2012 <main+0x1a9c>
    2e7d: 86 64        	stx	$64                     ; 0x2064 <main+0x1aee>
    2e7f: 4c b8 2f     	jmp	$2fb8 <sortFileList+0x23f>
    2e82: 86 13        	stx	$13                     ; 0x2013 <main+0x1a9d>
    2e84: 85 a0        	sta	$a0                     ; 0x20a0 <main+0x1b2a>
    2e86: a9 aa        	lda	#$aa
    2e88: 18           	clc
    2e89: 65 14        	adc	$14                     ; 0x2014 <main+0x1a9e>
    2e8b: 85 14        	sta	$14                     ; 0x2014 <main+0x1a9e>
    2e8d: a9 5f        	lda	#$5f
    2e8f: 65 13        	adc	$13                     ; 0x2013 <main+0x1a9d>
    2e91: 85 15        	sta	$15                     ; 0x2015 <main+0x1a9f>
    2e93: a6 66        	ldx	$66                     ; 0x2066 <main+0x1af0>
    2e95: 86 9b        	stx	$9b                     ; 0x209b <main+0x1b25>
    2e97: a6 a3        	ldx	$a3                     ; 0x20a3 <main+0x1b2d>
    2e99: 86 18        	stx	$18                     ; 0x2018 <main+0x1aa2>
    2e9b: 80 28        	bra	$2ec5 <sortFileList+0x14c>
    2e9d: e0 41        	cpx	#$41
    2e9f: a0 01        	ldy	#$1
    2ea1: b0 02        	bcs	$2ea5 <sortFileList+0x12c>
    2ea3: a0 00        	ldy	#$0
    2ea5: 84 12        	sty	$12                     ; 0x2012 <main+0x1a9c>
    2ea7: a5 14        	lda	$14                     ; 0x2014 <main+0x1a9e>
    2ea9: 18           	clc
    2eaa: 69 2b        	adc	#$2b
    2eac: 85 14        	sta	$14                     ; 0x2014 <main+0x1a9e>
    2eae: a5 15        	lda	$15                     ; 0x2015 <main+0x1a9f>
    2eb0: 69 00        	adc	#$0
    2eb2: 85 15        	sta	$15                     ; 0x2015 <main+0x1a9f>
    2eb4: a5 12        	lda	$12                     ; 0x2012 <main+0x1a9c>
    2eb6: f0 0b        	beq	$2ec3 <sortFileList+0x14a>
    2eb8: e0 5b        	cpx	#$5b
    2eba: 8a           	txa
    2ebb: b0 02        	bcs	$2ebf <sortFileList+0x146>
    2ebd: 09 20        	ora	#$20
    2ebf: 85 12        	sta	$12                     ; 0x2012 <main+0x1a9c>
    2ec1: 80 02        	bra	$2ec5 <sortFileList+0x14c>
    2ec3: 86 12        	stx	$12                     ; 0x2012 <main+0x1a9c>
    2ec5: b2 14        	lda	($14)                   ; 0x2014 <main+0x1a9e>
    2ec7: c9 41        	cmp	#$41
    2ec9: 90 06        	bcc	$2ed1 <sortFileList+0x158>
    2ecb: c9 5b        	cmp	#$5b
    2ecd: b0 02        	bcs	$2ed1 <sortFileList+0x158>
    2ecf: 09 20        	ora	#$20
    2ed1: a6 12        	ldx	$12                     ; 0x2012 <main+0x1a9c>
    2ed3: 86 13        	stx	$13                     ; 0x2013 <main+0x1a9d>
    2ed5: c5 13        	cmp	$13                     ; 0x2013 <main+0x1a9d>
    2ed7: a6 9e        	ldx	$9e                     ; 0x209e <main+0x1b28>
    2ed9: 86 6b        	stx	$6b                     ; 0x206b <main+0x1af5>
    2edb: a6 9f        	ldx	$9f                     ; 0x209f <main+0x1b29>
    2edd: 86 6c        	stx	$6c                     ; 0x206c <main+0x1af6>
    2edf: 90 03        	bcc	$2ee4 <sortFileList+0x16b>
    2ee1: 4c b8 2f     	jmp	$2fb8 <sortFileList+0x23f>
    2ee4: a2 2c        	ldx	#$2c
    2ee6: 86 12        	stx	$12                     ; 0x2012 <main+0x1a9c>
    2ee8: 64 13        	stz	$13                     ; 0x2013 <main+0x1a9d>
    2eea: a6 68        	ldx	$68                     ; 0x2068 <main+0x1af2>
    2eec: a5 65        	lda	$65                     ; 0x2065 <main+0x1aef>
    2eee: 20 fe 59     	jsr	$59fe <__mulhi3>
    2ef1: 85 12        	sta	$12                     ; 0x2012 <main+0x1a9c>
    2ef3: 86 13        	stx	$13                     ; 0x2013 <main+0x1a9d>
    2ef5: a9 aa        	lda	#$aa
    2ef7: 18           	clc
    2ef8: 65 12        	adc	$12                     ; 0x2012 <main+0x1a9c>
    2efa: 85 65        	sta	$65                     ; 0x2065 <main+0x1aef>
    2efc: a9 5f        	lda	#$5f
    2efe: 65 13        	adc	$13                     ; 0x2013 <main+0x1a9d>
    2f00: 85 66        	sta	$66                     ; 0x2066 <main+0x1af0>
    2f02: a6 a0        	ldx	$a0                     ; 0x20a0 <main+0x1b2a>
    2f04: f0 26        	beq	$2f2c <sortFileList+0x1b3>
    2f06: a6 69        	ldx	$69                     ; 0x2069 <main+0x1af3>
    2f08: 86 12        	stx	$12                     ; 0x2012 <main+0x1a9c>
    2f0a: a6 6a        	ldx	$6a                     ; 0x206a <main+0x1af4>
    2f0c: 86 13        	stx	$13                     ; 0x2013 <main+0x1a9d>
    2f0e: a6 a1        	ldx	$a1                     ; 0x20a1 <main+0x1b2b>
    2f10: 86 14        	stx	$14                     ; 0x2014 <main+0x1a9e>
    2f12: a6 a2        	ldx	$a2                     ; 0x20a2 <main+0x1b2c>
    2f14: 86 15        	stx	$15                     ; 0x2015 <main+0x1a9f>
    2f16: b2 12        	lda	($12)                   ; 0x2012 <main+0x1a9c>
    2f18: aa           	tax
    2f19: b2 12        	lda	($12)                   ; 0x2012 <main+0x1a9c>
    2f1b: 92 14        	sta	($14)                   ; 0x2014 <main+0x1a9e>
    2f1d: e6 14        	inc	$14                     ; 0x2014 <main+0x1a9e>
    2f1f: d0 02        	bne	$2f23 <sortFileList+0x1aa>
    2f21: e6 15        	inc	$15                     ; 0x2015 <main+0x1a9f>
    2f23: e6 12        	inc	$12                     ; 0x2012 <main+0x1a9c>
    2f25: d0 02        	bne	$2f29 <sortFileList+0x1b0>
    2f27: e6 13        	inc	$13                     ; 0x2013 <main+0x1a9d>
    2f29: 8a           	txa
    2f2a: d0 ea        	bne	$2f16 <sortFileList+0x19d>
    2f2c: a2 2c        	ldx	#$2c
    2f2e: 86 12        	stx	$12                     ; 0x2012 <main+0x1a9c>
    2f30: 64 13        	stz	$13                     ; 0x2013 <main+0x1a9d>
    2f32: a6 63        	ldx	$63                     ; 0x2063 <main+0x1aed>
    2f34: a5 67        	lda	$67                     ; 0x2067 <main+0x1af1>
    2f36: 20 fe 59     	jsr	$59fe <__mulhi3>
    2f39: a0 2c        	ldy	#$2c
    2f3b: 85 12        	sta	$12                     ; 0x2012 <main+0x1a9c>
    2f3d: 86 13        	stx	$13                     ; 0x2013 <main+0x1a9d>
    2f3f: a9 aa        	lda	#$aa
    2f41: 18           	clc
    2f42: 65 12        	adc	$12                     ; 0x2012 <main+0x1a9c>
    2f44: 85 12        	sta	$12                     ; 0x2012 <main+0x1a9c>
    2f46: a9 5f        	lda	#$5f
    2f48: 65 13        	adc	$13                     ; 0x2013 <main+0x1a9d>
    2f4a: 85 13        	sta	$13                     ; 0x2013 <main+0x1a9d>
    2f4c: b2 12        	lda	($12)                   ; 0x2012 <main+0x1a9c>
    2f4e: aa           	tax
    2f4f: b2 12        	lda	($12)                   ; 0x2012 <main+0x1a9c>
    2f51: 92 65        	sta	($65)                   ; 0x2065 <main+0x1aef>
    2f53: 8a           	txa
    2f54: f0 18        	beq	$2f6e <sortFileList+0x1f5>
    2f56: a6 69        	ldx	$69                     ; 0x2069 <main+0x1af3>
    2f58: 86 14        	stx	$14                     ; 0x2014 <main+0x1a9e>
    2f5a: a6 6a        	ldx	$6a                     ; 0x206a <main+0x1af4>
    2f5c: 86 15        	stx	$15                     ; 0x2015 <main+0x1a9f>
    2f5e: b1 14        	lda	($14),y                 ; 0x2014 <main+0x1a9e>
    2f60: aa           	tax
    2f61: b1 14        	lda	($14),y                 ; 0x2014 <main+0x1a9e>
    2f63: 92 14        	sta	($14)                   ; 0x2014 <main+0x1a9e>
    2f65: e6 14        	inc	$14                     ; 0x2014 <main+0x1a9e>
    2f67: d0 02        	bne	$2f6b <sortFileList+0x1f2>
    2f69: e6 15        	inc	$15                     ; 0x2015 <main+0x1a9f>
    2f6b: 8a           	txa
    2f6c: d0 f0        	bne	$2f5e <sortFileList+0x1e5>
    2f6e: a6 a0        	ldx	$a0                     ; 0x20a0 <main+0x1b2a>
    2f70: 8a           	txa
    2f71: 92 12        	sta	($12)                   ; 0x2012 <main+0x1a9c>
    2f73: a6 a3        	ldx	$a3                     ; 0x20a3 <main+0x1b2d>
    2f75: 86 18        	stx	$18                     ; 0x2018 <main+0x1aa2>
    2f77: aa           	tax
    2f78: f0 26        	beq	$2fa0 <sortFileList+0x227>
    2f7a: a6 a1        	ldx	$a1                     ; 0x20a1 <main+0x1b2b>
    2f7c: 86 12        	stx	$12                     ; 0x2012 <main+0x1a9c>
    2f7e: a6 a2        	ldx	$a2                     ; 0x20a2 <main+0x1b2c>
    2f80: 86 13        	stx	$13                     ; 0x2013 <main+0x1a9d>
    2f82: a6 6b        	ldx	$6b                     ; 0x206b <main+0x1af5>
    2f84: 86 14        	stx	$14                     ; 0x2014 <main+0x1a9e>
    2f86: a6 6c        	ldx	$6c                     ; 0x206c <main+0x1af6>
    2f88: 86 15        	stx	$15                     ; 0x2015 <main+0x1a9f>
    2f8a: b2 12        	lda	($12)                   ; 0x2012 <main+0x1a9c>
    2f8c: aa           	tax
    2f8d: b2 12        	lda	($12)                   ; 0x2012 <main+0x1a9c>
    2f8f: 92 14        	sta	($14)                   ; 0x2014 <main+0x1a9e>
    2f91: e6 14        	inc	$14                     ; 0x2014 <main+0x1a9e>
    2f93: d0 02        	bne	$2f97 <sortFileList+0x21e>
    2f95: e6 15        	inc	$15                     ; 0x2015 <main+0x1a9f>
    2f97: e6 12        	inc	$12                     ; 0x2012 <main+0x1a9c>
    2f99: d0 02        	bne	$2f9d <sortFileList+0x224>
    2f9b: e6 13        	inc	$13                     ; 0x2013 <main+0x1a9d>
    2f9d: 8a           	txa
    2f9e: d0 ea        	bne	$2f8a <sortFileList+0x211>
    2fa0: b2 6d        	lda	($6d)                   ; 0x206d <main+0x1af7>
    2fa2: aa           	tax
    2fa3: a0 01        	ldy	#$1
    2fa5: b1 6d        	lda	($6d),y                 ; 0x206d <main+0x1af7>
    2fa7: 92 6d        	sta	($6d)                   ; 0x206d <main+0x1af7>
    2fa9: 8a           	txa
    2faa: 86 64        	stx	$64                     ; 0x2064 <main+0x1aee>
    2fac: 91 6d        	sta	($6d),y                 ; 0x206d <main+0x1af7>
    2fae: ae 3e 71     	ldx	$713e                   ; 0x713e <fpr+0x11e2>
    2fb1: 86 9c        	stx	$9c                     ; 0x209c <main+0x1b26>
    2fb3: ae 3f 71     	ldx	$713f                   ; 0x713f <fpr+0x11e3>
    2fb6: 86 9d        	stx	$9d                     ; 0x209d <main+0x1b27>
    2fb8: 38           	sec
    2fb9: a5 9c        	lda	$9c                     ; 0x209c <main+0x1b26>
    2fbb: a6 9b        	ldx	$9b                     ; 0x209b <main+0x1b25>
    2fbd: 86 12        	stx	$12                     ; 0x2012 <main+0x1a9c>
    2fbf: e5 12        	sbc	$12                     ; 0x2012 <main+0x1a9c>
    2fc1: 85 12        	sta	$12                     ; 0x2012 <main+0x1a9c>
    2fc3: a5 9d        	lda	$9d                     ; 0x209d <main+0x1b27>
    2fc5: e5 18        	sbc	$18                     ; 0x2018 <main+0x1aa2>
    2fc7: 85 13        	sta	$13                     ; 0x2013 <main+0x1a9d>
    2fc9: a5 69        	lda	$69                     ; 0x2069 <main+0x1af3>
    2fcb: 18           	clc
    2fcc: 69 2c        	adc	#$2c
    2fce: 85 69        	sta	$69                     ; 0x2069 <main+0x1af3>
    2fd0: a5 6a        	lda	$6a                     ; 0x206a <main+0x1af4>
    2fd2: 69 00        	adc	#$0
    2fd4: 85 6a        	sta	$6a                     ; 0x206a <main+0x1af4>
    2fd6: a5 6b        	lda	$6b                     ; 0x206b <main+0x1af5>
    2fd8: 18           	clc
    2fd9: 69 2c        	adc	#$2c
    2fdb: 85 16        	sta	$16                     ; 0x2016 <main+0x1aa0>
    2fdd: a5 6c        	lda	$6c                     ; 0x206c <main+0x1af6>
    2fdf: 69 00        	adc	#$0
    2fe1: a6 16        	ldx	$16                     ; 0x2016 <main+0x1aa0>
    2fe3: 86 6b        	stx	$6b                     ; 0x206b <main+0x1af5>
    2fe5: 85 6c        	sta	$6c                     ; 0x206c <main+0x1af6>
    2fe7: a6 67        	ldx	$67                     ; 0x2067 <main+0x1af1>
    2fe9: e4 12        	cpx	$12                     ; 0x2012 <main+0x1a9c>
    2feb: a5 63        	lda	$63                     ; 0x2063 <main+0x1aed>
    2fed: e5 13        	sbc	$13                     ; 0x2013 <main+0x1a9d>
    2fef: 50 02        	bvc	$2ff3 <sortFileList+0x27a>
    2ff1: 49 80        	eor	#$80
    2ff3: 86 65        	stx	$65                     ; 0x2065 <main+0x1aef>
    2ff5: a6 63        	ldx	$63                     ; 0x2063 <main+0x1aed>
    2ff7: 86 68        	stx	$68                     ; 0x2068 <main+0x1af2>
    2ff9: aa           	tax
    2ffa: 30 03        	bmi	$2fff <sortFileList+0x286>
    2ffc: 4c 59 30     	jmp	$3059 <sortFileList+0x2e0>
    2fff: a9 da        	lda	#$da
    3001: 18           	clc
    3002: 65 65        	adc	$65                     ; 0x2065 <main+0x1aef>
    3004: 85 6d        	sta	$6d                     ; 0x206d <main+0x1af7>
    3006: a9 70        	lda	#$70
    3008: 65 68        	adc	$68                     ; 0x2068 <main+0x1af2>
    300a: 85 6e        	sta	$6e                     ; 0x206e <main+0x1af8>
    300c: a5 64        	lda	$64                     ; 0x2064 <main+0x1aee>
    300e: 29 01        	and	#$1
    3010: 85 13        	sta	$13                     ; 0x2013 <main+0x1a9d>
    3012: a6 65        	ldx	$65                     ; 0x2065 <main+0x1aef>
    3014: 86 67        	stx	$67                     ; 0x2067 <main+0x1af1>
    3016: a6 68        	ldx	$68                     ; 0x2068 <main+0x1af2>
    3018: 86 63        	stx	$63                     ; 0x2063 <main+0x1aed>
    301a: e6 67        	inc	$67                     ; 0x2067 <main+0x1af1>
    301c: d0 02        	bne	$3020 <sortFileList+0x2a7>
    301e: e6 63        	inc	$63                     ; 0x2063 <main+0x1aed>
    3020: a0 01        	ldy	#$1
    3022: b1 6d        	lda	($6d),y                 ; 0x206d <main+0x1af7>
    3024: 85 12        	sta	$12                     ; 0x2012 <main+0x1a9c>
    3026: a6 13        	ldx	$13                     ; 0x2013 <main+0x1a9d>
    3028: f0 03        	beq	$302d <sortFileList+0x2b4>
    302a: 4c c5 2d     	jmp	$2dc5 <sortFileList+0x4c>
    302d: 29 01        	and	#$1
    302f: d0 03        	bne	$3034 <sortFileList+0x2bb>
    3031: 4c c5 2d     	jmp	$2dc5 <sortFileList+0x4c>
    3034: a2 2c        	ldx	#$2c
    3036: 86 12        	stx	$12                     ; 0x2012 <main+0x1a9c>
    3038: 64 13        	stz	$13                     ; 0x2013 <main+0x1a9d>
    303a: a6 68        	ldx	$68                     ; 0x2068 <main+0x1af2>
    303c: a5 65        	lda	$65                     ; 0x2065 <main+0x1aef>
    303e: 20 fe 59     	jsr	$59fe <__mulhi3>
    3041: 85 12        	sta	$12                     ; 0x2012 <main+0x1a9c>
    3043: 86 13        	stx	$13                     ; 0x2013 <main+0x1a9d>
    3045: a9 aa        	lda	#$aa
    3047: 18           	clc
    3048: 65 12        	adc	$12                     ; 0x2012 <main+0x1a9c>
    304a: 85 12        	sta	$12                     ; 0x2012 <main+0x1a9c>
    304c: a9 5f        	lda	#$5f
    304e: 65 13        	adc	$13                     ; 0x2013 <main+0x1a9d>
    3050: 85 13        	sta	$13                     ; 0x2013 <main+0x1a9d>
    3052: b2 12        	lda	($12)                   ; 0x2012 <main+0x1a9c>
    3054: 85 a0        	sta	$a0                     ; 0x20a0 <main+0x1b2a>
    3056: 4c e4 2e     	jmp	$2ee4 <sortFileList+0x16b>
    3059: a6 18        	ldx	$18                     ; 0x2018 <main+0x1aa2>
    305b: 86 67        	stx	$67                     ; 0x2067 <main+0x1af1>
    305d: a6 9b        	ldx	$9b                     ; 0x209b <main+0x1b25>
    305f: e8           	inx
    3060: d0 02        	bne	$3064 <sortFileList+0x2eb>
    3062: e6 67        	inc	$67                     ; 0x2067 <main+0x1af1>
    3064: a4 9c        	ldy	$9c                     ; 0x209c <main+0x1b26>
    3066: 84 12        	sty	$12                     ; 0x2012 <main+0x1a9c>
    3068: a5 9d        	lda	$9d                     ; 0x209d <main+0x1b27>
    306a: a0 ff        	ldy	#$ff
    306c: c6 12        	dec	$12                     ; 0x2012 <main+0x1a9c>
    306e: c4 12        	cpy	$12                     ; 0x2012 <main+0x1a9c>
    3070: d0 01        	bne	$3073 <sortFileList+0x2fa>
    3072: 3a           	dec
    3073: 85 13        	sta	$13                     ; 0x2013 <main+0x1a9d>
    3075: e4 12        	cpx	$12                     ; 0x2012 <main+0x1a9c>
    3077: a5 67        	lda	$67                     ; 0x2067 <main+0x1af1>
    3079: e5 13        	sbc	$13                     ; 0x2013 <main+0x1a9d>
    307b: 50 02        	bvc	$307f <sortFileList+0x306>
    307d: 49 80        	eor	#$80
    307f: 86 9b        	stx	$9b                     ; 0x209b <main+0x1b25>
    3081: a6 67        	ldx	$67                     ; 0x2067 <main+0x1af1>
    3083: 86 18        	stx	$18                     ; 0x2018 <main+0x1aa2>
    3085: aa           	tax
    3086: 10 3c        	bpl	$30c4 <sortFileList+0x34b>
    3088: a6 9c        	ldx	$9c                     ; 0x209c <main+0x1b26>
    308a: 8a           	txa
    308b: 38           	sec
    308c: a6 9b        	ldx	$9b                     ; 0x209b <main+0x1b25>
    308e: 86 12        	stx	$12                     ; 0x2012 <main+0x1a9c>
    3090: e5 12        	sbc	$12                     ; 0x2012 <main+0x1a9c>
    3092: aa           	tax
    3093: a5 9d        	lda	$9d                     ; 0x209d <main+0x1b27>
    3095: e5 18        	sbc	$18                     ; 0x2018 <main+0x1aa2>
    3097: e0 02        	cpx	#$2
    3099: e9 00        	sbc	#$0
    309b: 50 02        	bvc	$309f <sortFileList+0x326>
    309d: 49 80        	eor	#$80
    309f: aa           	tax
    30a0: 30 b7        	bmi	$3059 <sortFileList+0x2e0>
    30a2: ae db 70     	ldx	$70db                   ; 0x70db <fpr+0x117f>
    30a5: 86 64        	stx	$64                     ; 0x2064 <main+0x1aee>
    30a7: a2 d7        	ldx	#$d7
    30a9: 86 69        	stx	$69                     ; 0x2069 <main+0x1af3>
    30ab: a2 5f        	ldx	#$5f
    30ad: 86 6a        	stx	$6a                     ; 0x206a <main+0x1af4>
    30af: a2 03        	ldx	#$3
    30b1: 86 6b        	stx	$6b                     ; 0x206b <main+0x1af5>
    30b3: a2 60        	ldx	#$60
    30b5: 86 6c        	stx	$6c                     ; 0x206c <main+0x1af6>
    30b7: a2 01        	ldx	#$1
    30b9: 64 68        	stz	$68                     ; 0x2068 <main+0x1af2>
    30bb: 86 65        	stx	$65                     ; 0x2065 <main+0x1aef>
    30bd: a6 18        	ldx	$18                     ; 0x2018 <main+0x1aa2>
    30bf: 86 a3        	stx	$a3                     ; 0x20a3 <main+0x1b2d>
    30c1: 4c ff 2f     	jmp	$2fff <sortFileList+0x286>
    30c4: 60           	rts

000030c5 <pickFile>:
    30c5: 18           	clc
    30c6: a5 10        	lda	$10                     ; 0x2010 <main+0x1a9a>
    30c8: 69 f6        	adc	#$f6
    30ca: 85 10        	sta	$10                     ; 0x2010 <main+0x1a9a>
    30cc: a5 11        	lda	$11                     ; 0x2011 <main+0x1a9b>
    30ce: 69 ff        	adc	#$ff
    30d0: 85 11        	sta	$11                     ; 0x2011 <main+0x1a9b>
    30d2: a6 24        	ldx	$24                     ; 0x2024 <main+0x1aae>
    30d4: da           	phx
    30d5: a6 25        	ldx	$25                     ; 0x2025 <main+0x1aaf>
    30d7: da           	phx
    30d8: a6 26        	ldx	$26                     ; 0x2026 <main+0x1ab0>
    30da: da           	phx
    30db: a6 27        	ldx	$27                     ; 0x2027 <main+0x1ab1>
    30dd: da           	phx
    30de: a5 28        	lda	$28                     ; 0x2028 <main+0x1ab2>
    30e0: a0 03        	ldy	#$3
    30e2: 91 10        	sta	($10),y                 ; 0x2010 <main+0x1a9a>
    30e4: a5 29        	lda	$29                     ; 0x2029 <main+0x1ab3>
    30e6: 88           	dey
    30e7: 91 10        	sta	($10),y                 ; 0x2010 <main+0x1a9a>
    30e9: a2 08        	ldx	#$8
    30eb: 86 26        	stx	$26                     ; 0x2026 <main+0x1ab0>
    30ed: a2 00        	ldx	#$0
    30ef: 86 27        	stx	$27                     ; 0x2027 <main+0x1ab1>
    30f1: a9 5c        	lda	#$5c
    30f3: 18           	clc
    30f4: 48           	pha
    30f5: a5 10        	lda	$10                     ; 0x2010 <main+0x1a9a>
    30f7: 69 07        	adc	#$7
    30f9: 85 12        	sta	$12                     ; 0x2012 <main+0x1a9c>
    30fb: a5 11        	lda	$11                     ; 0x2011 <main+0x1a9b>
    30fd: 69 00        	adc	#$0
    30ff: 85 13        	sta	$13                     ; 0x2013 <main+0x1a9d>
    3101: 68           	pla
    3102: 92 12        	sta	($12)                   ; 0x2012 <main+0x1a9c>
    3104: 88           	dey
    3105: a9 5f        	lda	#$5f
    3107: 91 12        	sta	($12),y                 ; 0x2012 <main+0x1a9c>
    3109: 64 57        	stz	$57                     ; 0x2057 <main+0x1ae1>
    310b: 18           	clc
    310c: a5 10        	lda	$10                     ; 0x2010 <main+0x1a9a>
    310e: 69 05        	adc	#$5
    3110: 85 12        	sta	$12                     ; 0x2012 <main+0x1a9c>
    3112: a5 11        	lda	$11                     ; 0x2011 <main+0x1a9b>
    3114: 69 00        	adc	#$0
    3116: 85 13        	sta	$13                     ; 0x2013 <main+0x1a9d>
    3118: a2 56        	ldx	#$56
    311a: 86 14        	stx	$14                     ; 0x2014 <main+0x1a9e>
    311c: a2 00        	ldx	#$0
    311e: 86 15        	stx	$15                     ; 0x2015 <main+0x1a9f>
    3120: 20 00 ff     	jsr	$ff00 <__heap_start+0x8d6c>
    3123: 92 12        	sta	($12)                   ; 0x2012 <main+0x1a9c>
    3125: a9 00        	lda	#$0
    3127: 6a           	ror
    3128: 85 14        	sta	$14                     ; 0x2014 <main+0x1a9e>
    312a: b2 12        	lda	($12)                   ; 0x2012 <main+0x1a9c>
    312c: 18           	clc
    312d: 48           	pha
    312e: a5 10        	lda	$10                     ; 0x2010 <main+0x1a9a>
    3130: 69 04        	adc	#$4
    3132: 85 12        	sta	$12                     ; 0x2012 <main+0x1a9c>
    3134: a5 11        	lda	$11                     ; 0x2011 <main+0x1a9b>
    3136: 69 00        	adc	#$0
    3138: 85 13        	sta	$13                     ; 0x2013 <main+0x1a9d>
    313a: 68           	pla
    313b: 92 12        	sta	($12)                   ; 0x2012 <main+0x1a9c>
    313d: b2 12        	lda	($12)                   ; 0x2012 <main+0x1a9c>
    313f: 18           	clc
    3140: 48           	pha
    3141: a5 10        	lda	$10                     ; 0x2010 <main+0x1a9a>
    3143: 69 06        	adc	#$6
    3145: 85 12        	sta	$12                     ; 0x2012 <main+0x1a9c>
    3147: a5 11        	lda	$11                     ; 0x2011 <main+0x1a9b>
    3149: 69 00        	adc	#$0
    314b: 85 13        	sta	$13                     ; 0x2013 <main+0x1a9d>
    314d: 68           	pla
    314e: 92 12        	sta	($12)                   ; 0x2012 <main+0x1a9c>
    3150: a6 57        	ldx	$57                     ; 0x2057 <main+0x1ae1>
    3152: a0 00        	ldy	#$0
    3154: c4 27        	cpy	$27                     ; 0x2027 <main+0x1ab1>
    3156: f0 02        	beq	$315a <pickFile+0x95>
    3158: 80 0d        	bra	$3167 <pickFile+0xa2>
    315a: e4 26        	cpx	$26                     ; 0x2026 <main+0x1ab0>
    315c: f0 02        	beq	$3160 <pickFile+0x9b>
    315e: 80 02        	bra	$3162 <pickFile+0x9d>
    3160: 80 03        	bra	$3165 <pickFile+0xa0>
    3162: 4c d7 3c     	jmp	$3cd7 <pickFile+0xc12>
    3165: 80 03        	bra	$316a <pickFile+0xa5>
    3167: 4c d7 3c     	jmp	$3cd7 <pickFile+0xc12>
    316a: 80 00        	bra	$316c <pickFile+0xa7>
    316c: a5 5b        	lda	$5b                     ; 0x205b <main+0x1ae5>
    316e: 18           	clc
    316f: 69 6e        	adc	#$6e
    3171: aa           	tax
    3172: a9 00        	lda	#$0
    3174: 69 ff        	adc	#$ff
    3176: c9 00        	cmp	#$0
    3178: a0 01        	ldy	#$1
    317a: b0 02        	bcs	$317e <pickFile+0xb9>
    317c: a0 00        	ldy	#$0
    317e: 84 12        	sty	$12                     ; 0x2012 <main+0x1a9c>
    3180: a8           	tay
    3181: f0 02        	beq	$3185 <pickFile+0xc0>
    3183: 80 08        	bra	$318d <pickFile+0xc8>
    3185: 8a           	txa
    3186: c9 28        	cmp	#$28
    3188: 90 0b        	bcc	$3195 <pickFile+0xd0>
    318a: 4c d7 3c     	jmp	$3cd7 <pickFile+0xc12>
    318d: 8a           	txa
    318e: a6 12        	ldx	$12                     ; 0x2012 <main+0x1a9c>
    3190: f0 03        	beq	$3195 <pickFile+0xd0>
    3192: 4c d7 3c     	jmp	$3cd7 <pickFile+0xc12>
    3195: 0a           	asl
    3196: aa           	tax
    3197: 7c 4f 5a     	jmp	($5a4f,x)               ; 0x5a4f <__set_v+0x1f>
    319a: 18           	clc
    319b: a5 10        	lda	$10                     ; 0x2010 <main+0x1a9a>
    319d: 69 09        	adc	#$9
    319f: 85 12        	sta	$12                     ; 0x2012 <main+0x1a9c>
    31a1: a5 11        	lda	$11                     ; 0x2011 <main+0x1a9b>
    31a3: 69 00        	adc	#$0
    31a5: 85 13        	sta	$13                     ; 0x2013 <main+0x1a9d>
    31a7: a9 03        	lda	#$3
    31a9: 92 12        	sta	($12)                   ; 0x2012 <main+0x1a9c>
    31ab: 4c da 3c     	jmp	$3cda <pickFile+0xc15>
    31ae: 18           	clc
    31af: a5 10        	lda	$10                     ; 0x2010 <main+0x1a9a>
    31b1: 69 07        	adc	#$7
    31b3: 85 26        	sta	$26                     ; 0x2026 <main+0x1ab0>
    31b5: a5 11        	lda	$11                     ; 0x2011 <main+0x1a9b>
    31b7: 69 00        	adc	#$0
    31b9: 85 27        	sta	$27                     ; 0x2027 <main+0x1ab1>
    31bb: b2 26        	lda	($26)                   ; 0x2026 <main+0x1ab0>
    31bd: 85 12        	sta	$12                     ; 0x2012 <main+0x1a9c>
    31bf: a0 01        	ldy	#$1
    31c1: b1 26        	lda	($26),y                 ; 0x2026 <main+0x1ab0>
    31c3: aa           	tax
    31c4: 64 13        	stz	$13                     ; 0x2013 <main+0x1a9d>
    31c6: 18           	clc
    31c7: a5 12        	lda	$12                     ; 0x2012 <main+0x1a9c>
    31c9: 69 22        	adc	#$22
    31cb: 85 24        	sta	$24                     ; 0x2024 <main+0x1aae>
    31cd: 8a           	txa
    31ce: 69 00        	adc	#$0
    31d0: 85 25        	sta	$25                     ; 0x2025 <main+0x1aaf>
    31d2: b2 26        	lda	($26)                   ; 0x2026 <main+0x1ab0>
    31d4: 85 28        	sta	$28                     ; 0x2028 <main+0x1ab2>
    31d6: b2 26        	lda	($26)                   ; 0x2026 <main+0x1ab0>
    31d8: 85 14        	sta	$14                     ; 0x2014 <main+0x1a9e>
    31da: b1 26        	lda	($26),y                 ; 0x2026 <main+0x1ab0>
    31dc: 85 12        	sta	$12                     ; 0x2012 <main+0x1a9c>
    31de: 18           	clc
    31df: a5 14        	lda	$14                     ; 0x2014 <main+0x1a9e>
    31e1: 69 e4        	adc	#$e4
    31e3: 85 14        	sta	$14                     ; 0x2014 <main+0x1a9e>
    31e5: a5 12        	lda	$12                     ; 0x2012 <main+0x1a9c>
    31e7: 69 11        	adc	#$11
    31e9: 85 15        	sta	$15                     ; 0x2015 <main+0x1a9f>
    31eb: b1 26        	lda	($26),y                 ; 0x2026 <main+0x1ab0>
    31ed: 85 29        	sta	$29                     ; 0x2029 <main+0x1ab3>
    31ef: b2 14        	lda	($14)                   ; 0x2014 <main+0x1a9e>
    31f1: 85 16        	sta	$16                     ; 0x2016 <main+0x1aa0>
    31f3: b1 14        	lda	($14),y                 ; 0x2014 <main+0x1a9e>
    31f5: a2 2c        	ldx	#$2c
    31f7: 86 12        	stx	$12                     ; 0x2012 <main+0x1a9c>
    31f9: aa           	tax
    31fa: a5 16        	lda	$16                     ; 0x2016 <main+0x1aa0>
    31fc: 20 fe 59     	jsr	$59fe <__mulhi3>
    31ff: 85 12        	sta	$12                     ; 0x2012 <main+0x1a9c>
    3201: 86 13        	stx	$13                     ; 0x2013 <main+0x1a9d>
    3203: a5 28        	lda	$28                     ; 0x2028 <main+0x1ab2>
    3205: 18           	clc
    3206: 65 12        	adc	$12                     ; 0x2012 <main+0x1a9c>
    3208: a8           	tay
    3209: a5 29        	lda	$29                     ; 0x2029 <main+0x1ab3>
    320b: 65 13        	adc	$13                     ; 0x2013 <main+0x1a9d>
    320d: aa           	tax
    320e: 18           	clc
    320f: 98           	tya
    3210: 69 4e        	adc	#$4e
    3212: 85 14        	sta	$14                     ; 0x2014 <main+0x1a9e>
    3214: 8a           	txa
    3215: 69 00        	adc	#$0
    3217: 85 15        	sta	$15                     ; 0x2015 <main+0x1a9f>
    3219: a6 24        	ldx	$24                     ; 0x2024 <main+0x1aae>
    321b: 86 12        	stx	$12                     ; 0x2012 <main+0x1a9c>
    321d: a6 25        	ldx	$25                     ; 0x2025 <main+0x1aaf>
    321f: 86 13        	stx	$13                     ; 0x2013 <main+0x1a9d>
    3221: a9 2c        	lda	#$2c
    3223: a2 00        	ldx	#$0
    3225: 20 b2 59     	jsr	$59b2 <memcpy>
    3228: b2 26        	lda	($26)                   ; 0x2026 <main+0x1ab0>
    322a: 85 13        	sta	$13                     ; 0x2013 <main+0x1a9d>
    322c: a0 01        	ldy	#$1
    322e: b1 26        	lda	($26),y                 ; 0x2026 <main+0x1ab0>
    3230: 85 12        	sta	$12                     ; 0x2012 <main+0x1a9c>
    3232: 18           	clc
    3233: a5 13        	lda	$13                     ; 0x2013 <main+0x1a9d>
    3235: 69 e6        	adc	#$e6
    3237: aa           	tax
    3238: a5 12        	lda	$12                     ; 0x2012 <main+0x1a9c>
    323a: 69 11        	adc	#$11
    323c: 86 12        	stx	$12                     ; 0x2012 <main+0x1a9c>
    323e: 85 13        	sta	$13                     ; 0x2013 <main+0x1a9d>
    3240: b2 12        	lda	($12)                   ; 0x2012 <main+0x1a9c>
    3242: 85 14        	sta	$14                     ; 0x2014 <main+0x1a9e>
    3244: b1 12        	lda	($12),y                 ; 0x2012 <main+0x1a9c>
    3246: d0 1c        	bne	$3264 <pickFile+0x19f>
    3248: 80 00        	bra	$324a <pickFile+0x185>
    324a: a5 14        	lda	$14                     ; 0x2014 <main+0x1a9e>
    324c: d0 16        	bne	$3264 <pickFile+0x19f>
    324e: 80 00        	bra	$3250 <pickFile+0x18b>
    3250: 18           	clc
    3251: a5 10        	lda	$10                     ; 0x2010 <main+0x1a9a>
    3253: 69 09        	adc	#$9
    3255: 85 12        	sta	$12                     ; 0x2012 <main+0x1a9c>
    3257: a5 11        	lda	$11                     ; 0x2011 <main+0x1a9b>
    3259: 69 00        	adc	#$0
    325b: 85 13        	sta	$13                     ; 0x2013 <main+0x1a9d>
    325d: a9 00        	lda	#$0
    325f: 92 12        	sta	($12)                   ; 0x2012 <main+0x1a9c>
    3261: 4c da 3c     	jmp	$3cda <pickFile+0xc15>
    3264: 18           	clc
    3265: a5 10        	lda	$10                     ; 0x2010 <main+0x1a9a>
    3267: 69 07        	adc	#$7
    3269: 85 12        	sta	$12                     ; 0x2012 <main+0x1a9c>
    326b: a5 11        	lda	$11                     ; 0x2011 <main+0x1a9b>
    326d: 69 00        	adc	#$0
    326f: 85 13        	sta	$13                     ; 0x2013 <main+0x1a9d>
    3271: a0 01        	ldy	#$1
    3273: b2 12        	lda	($12)                   ; 0x2012 <main+0x1a9c>
    3275: 85 15        	sta	$15                     ; 0x2015 <main+0x1a9f>
    3277: b1 12        	lda	($12),y                 ; 0x2012 <main+0x1a9c>
    3279: 85 14        	sta	$14                     ; 0x2014 <main+0x1a9e>
    327b: 18           	clc
    327c: a5 15        	lda	$15                     ; 0x2015 <main+0x1a9f>
    327e: 69 e4        	adc	#$e4
    3280: aa           	tax
    3281: a5 14        	lda	$14                     ; 0x2014 <main+0x1a9e>
    3283: 69 11        	adc	#$11
    3285: 86 14        	stx	$14                     ; 0x2014 <main+0x1a9e>
    3287: 85 15        	sta	$15                     ; 0x2015 <main+0x1a9f>
    3289: b2 14        	lda	($14)                   ; 0x2014 <main+0x1a9e>
    328b: 85 16        	sta	$16                     ; 0x2016 <main+0x1aa0>
    328d: b1 14        	lda	($14),y                 ; 0x2014 <main+0x1a9e>
    328f: 85 14        	sta	$14                     ; 0x2014 <main+0x1a9e>
    3291: 18           	clc
    3292: a5 16        	lda	$16                     ; 0x2016 <main+0x1aa0>
    3294: 72 12        	adc	($12)                   ; 0x2012 <main+0x1a9c>
    3296: 85 15        	sta	$15                     ; 0x2015 <main+0x1a9f>
    3298: a5 14        	lda	$14                     ; 0x2014 <main+0x1a9e>
    329a: 71 12        	adc	($12),y                 ; 0x2012 <main+0x1a9c>
    329c: 85 12        	sta	$12                     ; 0x2012 <main+0x1a9c>
    329e: 18           	clc
    329f: a5 15        	lda	$15                     ; 0x2015 <main+0x1a9f>
    32a1: 69 7e        	adc	#$7e
    32a3: aa           	tax
    32a4: a5 12        	lda	$12                     ; 0x2012 <main+0x1a9c>
    32a6: 69 11        	adc	#$11
    32a8: 85 13        	sta	$13                     ; 0x2013 <main+0x1a9d>
    32aa: 86 12        	stx	$12                     ; 0x2012 <main+0x1a9c>
    32ac: b2 12        	lda	($12)                   ; 0x2012 <main+0x1a9c>
    32ae: 29 01        	and	#$1
    32b0: f0 16        	beq	$32c8 <pickFile+0x203>
    32b2: 80 00        	bra	$32b4 <pickFile+0x1ef>
    32b4: 18           	clc
    32b5: a5 10        	lda	$10                     ; 0x2010 <main+0x1a9a>
    32b7: 69 09        	adc	#$9
    32b9: 85 12        	sta	$12                     ; 0x2012 <main+0x1a9c>
    32bb: a5 11        	lda	$11                     ; 0x2011 <main+0x1a9b>
    32bd: 69 00        	adc	#$0
    32bf: 85 13        	sta	$13                     ; 0x2013 <main+0x1a9d>
    32c1: a9 01        	lda	#$1
    32c3: 92 12        	sta	($12)                   ; 0x2012 <main+0x1a9c>
    32c5: 4c da 3c     	jmp	$3cda <pickFile+0xc15>
    32c8: 18           	clc
    32c9: a5 10        	lda	$10                     ; 0x2010 <main+0x1a9a>
    32cb: 69 09        	adc	#$9
    32cd: 85 12        	sta	$12                     ; 0x2012 <main+0x1a9c>
    32cf: a5 11        	lda	$11                     ; 0x2011 <main+0x1a9b>
    32d1: 69 00        	adc	#$0
    32d3: 85 13        	sta	$13                     ; 0x2013 <main+0x1a9d>
    32d5: a9 02        	lda	#$2
    32d7: 92 12        	sta	($12)                   ; 0x2012 <main+0x1a9c>
    32d9: 4c da 3c     	jmp	$3cda <pickFile+0xc15>
    32dc: 18           	clc
    32dd: a5 10        	lda	$10                     ; 0x2010 <main+0x1a9a>
    32df: 69 07        	adc	#$7
    32e1: 85 12        	sta	$12                     ; 0x2012 <main+0x1a9c>
    32e3: a5 11        	lda	$11                     ; 0x2011 <main+0x1a9b>
    32e5: 69 00        	adc	#$0
    32e7: 85 13        	sta	$13                     ; 0x2013 <main+0x1a9d>
    32e9: b2 12        	lda	($12)                   ; 0x2012 <main+0x1a9c>
    32eb: 85 14        	sta	$14                     ; 0x2014 <main+0x1a9e>
    32ed: a0 01        	ldy	#$1
    32ef: b1 12        	lda	($12),y                 ; 0x2012 <main+0x1a9c>
    32f1: aa           	tax
    32f2: 18           	clc
    32f3: a5 14        	lda	$14                     ; 0x2014 <main+0x1a9e>
    32f5: 69 e4        	adc	#$e4
    32f7: 85 12        	sta	$12                     ; 0x2012 <main+0x1a9c>
    32f9: 8a           	txa
    32fa: 69 11        	adc	#$11
    32fc: 85 13        	sta	$13                     ; 0x2013 <main+0x1a9d>
    32fe: b2 12        	lda	($12)                   ; 0x2012 <main+0x1a9c>
    3300: 85 14        	sta	$14                     ; 0x2014 <main+0x1a9e>
    3302: b1 12        	lda	($12),y                 ; 0x2012 <main+0x1a9c>
    3304: a6 14        	ldx	$14                     ; 0x2014 <main+0x1a9e>
    3306: e0 01        	cpx	#$1
    3308: e9 00        	sbc	#$0
    330a: 70 02        	bvs	$330e <pickFile+0x249>
    330c: 80 04        	bra	$3312 <pickFile+0x24d>
    330e: 49 80        	eor	#$80
    3310: 80 02        	bra	$3314 <pickFile+0x24f>
    3312: 80 00        	bra	$3314 <pickFile+0x24f>
    3314: aa           	tax
    3315: 10 03        	bpl	$331a <pickFile+0x255>
    3317: 4c cc 35     	jmp	$35cc <pickFile+0x507>
    331a: 18           	clc
    331b: a5 10        	lda	$10                     ; 0x2010 <main+0x1a9a>
    331d: 69 07        	adc	#$7
    331f: 85 12        	sta	$12                     ; 0x2012 <main+0x1a9c>
    3321: a5 11        	lda	$11                     ; 0x2011 <main+0x1a9b>
    3323: 69 00        	adc	#$0
    3325: 85 13        	sta	$13                     ; 0x2013 <main+0x1a9d>
    3327: b2 12        	lda	($12)                   ; 0x2012 <main+0x1a9c>
    3329: 85 14        	sta	$14                     ; 0x2014 <main+0x1a9e>
    332b: a0 01        	ldy	#$1
    332d: b1 12        	lda	($12),y                 ; 0x2012 <main+0x1a9c>
    332f: aa           	tax
    3330: 18           	clc
    3331: a5 14        	lda	$14                     ; 0x2014 <main+0x1a9e>
    3333: 69 e6        	adc	#$e6
    3335: 85 12        	sta	$12                     ; 0x2012 <main+0x1a9c>
    3337: 8a           	txa
    3338: 69 11        	adc	#$11
    333a: 85 13        	sta	$13                     ; 0x2013 <main+0x1a9d>
    333c: b2 12        	lda	($12)                   ; 0x2012 <main+0x1a9c>
    333e: 85 14        	sta	$14                     ; 0x2014 <main+0x1a9e>
    3340: b1 12        	lda	($12),y                 ; 0x2012 <main+0x1a9c>
    3342: a6 14        	ldx	$14                     ; 0x2014 <main+0x1a9e>
    3344: e0 01        	cpx	#$1
    3346: e9 00        	sbc	#$0
    3348: 70 02        	bvs	$334c <pickFile+0x287>
    334a: 80 04        	bra	$3350 <pickFile+0x28b>
    334c: 49 80        	eor	#$80
    334e: 80 02        	bra	$3352 <pickFile+0x28d>
    3350: 80 00        	bra	$3352 <pickFile+0x28d>
    3352: aa           	tax
    3353: 10 03        	bpl	$3358 <pickFile+0x293>
    3355: 4c 6c 34     	jmp	$346c <pickFile+0x3a7>
    3358: 18           	clc
    3359: a5 10        	lda	$10                     ; 0x2010 <main+0x1a9a>
    335b: 69 07        	adc	#$7
    335d: 85 24        	sta	$24                     ; 0x2024 <main+0x1aae>
    335f: a5 11        	lda	$11                     ; 0x2011 <main+0x1a9b>
    3361: 69 00        	adc	#$0
    3363: 85 25        	sta	$25                     ; 0x2025 <main+0x1aaf>
    3365: b2 24        	lda	($24)                   ; 0x2024 <main+0x1aae>
    3367: 85 12        	sta	$12                     ; 0x2012 <main+0x1a9c>
    3369: a0 01        	ldy	#$1
    336b: b1 24        	lda	($24),y                 ; 0x2024 <main+0x1aae>
    336d: 85 13        	sta	$13                     ; 0x2013 <main+0x1a9d>
    336f: b2 12        	lda	($12)                   ; 0x2012 <main+0x1a9c>
    3371: 85 14        	sta	$14                     ; 0x2014 <main+0x1a9e>
    3373: b2 24        	lda	($24)                   ; 0x2024 <main+0x1aae>
    3375: 85 12        	sta	$12                     ; 0x2012 <main+0x1a9c>
    3377: b1 24        	lda	($24),y                 ; 0x2024 <main+0x1aae>
    3379: 85 13        	sta	$13                     ; 0x2013 <main+0x1a9d>
    337b: b2 24        	lda	($24)                   ; 0x2024 <main+0x1aae>
    337d: 85 16        	sta	$16                     ; 0x2016 <main+0x1aa0>
    337f: b1 24        	lda	($24),y                 ; 0x2024 <main+0x1aae>
    3381: 85 15        	sta	$15                     ; 0x2015 <main+0x1a9f>
    3383: 18           	clc
    3384: a5 16        	lda	$16                     ; 0x2016 <main+0x1aa0>
    3386: 69 e6        	adc	#$e6
    3388: aa           	tax
    3389: a5 15        	lda	$15                     ; 0x2015 <main+0x1a9f>
    338b: 69 11        	adc	#$11
    338d: 85 15        	sta	$15                     ; 0x2015 <main+0x1a9f>
    338f: b1 12        	lda	($12),y                 ; 0x2012 <main+0x1a9c>
    3391: 86 12        	stx	$12                     ; 0x2012 <main+0x1a9c>
    3393: a6 15        	ldx	$15                     ; 0x2015 <main+0x1a9f>
    3395: 86 13        	stx	$13                     ; 0x2013 <main+0x1a9d>
    3397: 18           	clc
    3398: 72 12        	adc	($12)                   ; 0x2012 <main+0x1a9c>
    339a: aa           	tax
    339b: a5 14        	lda	$14                     ; 0x2014 <main+0x1a9e>
    339d: 20 89 2c     	jsr	$2c89 <textGotoXY>
    33a0: a9 20        	lda	#$20
    33a2: 92 10        	sta	($10)                   ; 0x2010 <main+0x1a9a>
    33a4: a9 00        	lda	#$0
    33a6: a0 01        	ldy	#$1
    33a8: 91 10        	sta	($10),y                 ; 0x2010 <main+0x1a9a>
    33aa: a2 06        	ldx	#$6
    33ac: 86 12        	stx	$12                     ; 0x2012 <main+0x1a9c>
    33ae: a2 5d        	ldx	#$5d
    33b0: 86 13        	stx	$13                     ; 0x2013 <main+0x1a9d>
    33b2: 20 ef 54     	jsr	$54ef <printf>
    33b5: b2 24        	lda	($24)                   ; 0x2024 <main+0x1aae>
    33b7: 85 13        	sta	$13                     ; 0x2013 <main+0x1a9d>
    33b9: a0 01        	ldy	#$1
    33bb: b1 24        	lda	($24),y                 ; 0x2024 <main+0x1aae>
    33bd: 85 12        	sta	$12                     ; 0x2012 <main+0x1a9c>
    33bf: 18           	clc
    33c0: a5 13        	lda	$13                     ; 0x2013 <main+0x1a9d>
    33c2: 69 e4        	adc	#$e4
    33c4: aa           	tax
    33c5: a5 12        	lda	$12                     ; 0x2012 <main+0x1a9c>
    33c7: 69 11        	adc	#$11
    33c9: 86 12        	stx	$12                     ; 0x2012 <main+0x1a9c>
    33cb: 85 13        	sta	$13                     ; 0x2013 <main+0x1a9d>
    33cd: b2 12        	lda	($12)                   ; 0x2012 <main+0x1a9c>
    33cf: aa           	tax
    33d0: b1 12        	lda	($12),y                 ; 0x2012 <main+0x1a9c>
    33d2: 85 14        	sta	$14                     ; 0x2014 <main+0x1a9e>
    33d4: 8a           	txa
    33d5: 3a           	dec
    33d6: c9 ff        	cmp	#$ff
    33d8: f0 03        	beq	$33dd <pickFile+0x318>
    33da: 4c e2 33     	jmp	$33e2 <pickFile+0x31d>
    33dd: c6 14        	dec	$14                     ; 0x2014 <main+0x1a9e>
    33df: 4c e2 33     	jmp	$33e2 <pickFile+0x31d>
    33e2: 92 12        	sta	($12)                   ; 0x2012 <main+0x1a9c>
    33e4: a5 14        	lda	$14                     ; 0x2014 <main+0x1a9e>
    33e6: 91 12        	sta	($12),y                 ; 0x2012 <main+0x1a9c>
    33e8: b2 24        	lda	($24)                   ; 0x2024 <main+0x1aae>
    33ea: 85 13        	sta	$13                     ; 0x2013 <main+0x1a9d>
    33ec: b1 24        	lda	($24),y                 ; 0x2024 <main+0x1aae>
    33ee: 85 12        	sta	$12                     ; 0x2012 <main+0x1a9c>
    33f0: 18           	clc
    33f1: a5 13        	lda	$13                     ; 0x2013 <main+0x1a9d>
    33f3: 69 e6        	adc	#$e6
    33f5: aa           	tax
    33f6: a5 12        	lda	$12                     ; 0x2012 <main+0x1a9c>
    33f8: 69 11        	adc	#$11
    33fa: 86 12        	stx	$12                     ; 0x2012 <main+0x1a9c>
    33fc: 85 13        	sta	$13                     ; 0x2013 <main+0x1a9d>
    33fe: b2 12        	lda	($12)                   ; 0x2012 <main+0x1a9c>
    3400: aa           	tax
    3401: b1 12        	lda	($12),y                 ; 0x2012 <main+0x1a9c>
    3403: 85 14        	sta	$14                     ; 0x2014 <main+0x1a9e>
    3405: 8a           	txa
    3406: 3a           	dec
    3407: c9 ff        	cmp	#$ff
    3409: f0 03        	beq	$340e <pickFile+0x349>
    340b: 4c 13 34     	jmp	$3413 <pickFile+0x34e>
    340e: c6 14        	dec	$14                     ; 0x2014 <main+0x1a9e>
    3410: 4c 13 34     	jmp	$3413 <pickFile+0x34e>
    3413: 92 12        	sta	($12)                   ; 0x2012 <main+0x1a9c>
    3415: a5 14        	lda	$14                     ; 0x2014 <main+0x1a9e>
    3417: 91 12        	sta	($12),y                 ; 0x2012 <main+0x1a9c>
    3419: b2 24        	lda	($24)                   ; 0x2024 <main+0x1aae>
    341b: 85 12        	sta	$12                     ; 0x2012 <main+0x1a9c>
    341d: b1 24        	lda	($24),y                 ; 0x2024 <main+0x1aae>
    341f: 85 13        	sta	$13                     ; 0x2013 <main+0x1a9d>
    3421: b2 24        	lda	($24)                   ; 0x2024 <main+0x1aae>
    3423: 85 14        	sta	$14                     ; 0x2014 <main+0x1a9e>
    3425: b1 24        	lda	($24),y                 ; 0x2024 <main+0x1aae>
    3427: 85 15        	sta	$15                     ; 0x2015 <main+0x1a9f>
    3429: b2 24        	lda	($24)                   ; 0x2024 <main+0x1aae>
    342b: 85 16        	sta	$16                     ; 0x2016 <main+0x1aa0>
    342d: b1 24        	lda	($24),y                 ; 0x2024 <main+0x1aae>
    342f: 85 18        	sta	$18                     ; 0x2018 <main+0x1aa2>
    3431: a0 01        	ldy	#$1
    3433: 18           	clc
    3434: a5 16        	lda	$16                     ; 0x2016 <main+0x1aa0>
    3436: 69 e6        	adc	#$e6
    3438: 85 17        	sta	$17                     ; 0x2017 <main+0x1aa1>
    343a: a5 18        	lda	$18                     ; 0x2018 <main+0x1aa2>
    343c: 69 11        	adc	#$11
    343e: aa           	tax
    343f: b2 12        	lda	($12)                   ; 0x2012 <main+0x1a9c>
    3441: 85 16        	sta	$16                     ; 0x2016 <main+0x1aa0>
    3443: a5 17        	lda	$17                     ; 0x2017 <main+0x1aa1>
    3445: 85 12        	sta	$12                     ; 0x2012 <main+0x1a9c>
    3447: b1 14        	lda	($14),y                 ; 0x2014 <main+0x1a9e>
    3449: 86 13        	stx	$13                     ; 0x2013 <main+0x1a9d>
    344b: 18           	clc
    344c: 72 12        	adc	($12)                   ; 0x2012 <main+0x1a9c>
    344e: aa           	tax
    344f: a5 16        	lda	$16                     ; 0x2016 <main+0x1aa0>
    3451: 20 89 2c     	jsr	$2c89 <textGotoXY>
    3454: a9 fa        	lda	#$fa
    3456: 92 10        	sta	($10)                   ; 0x2010 <main+0x1a9a>
    3458: a9 00        	lda	#$0
    345a: a0 01        	ldy	#$1
    345c: 91 10        	sta	($10),y                 ; 0x2010 <main+0x1a9a>
    345e: a2 06        	ldx	#$6
    3460: 86 12        	stx	$12                     ; 0x2012 <main+0x1a9c>
    3462: a2 5d        	ldx	#$5d
    3464: 86 13        	stx	$13                     ; 0x2013 <main+0x1a9d>
    3466: 20 ef 54     	jsr	$54ef <printf>
    3469: 4c cc 35     	jmp	$35cc <pickFile+0x507>
    346c: 18           	clc
    346d: a5 10        	lda	$10                     ; 0x2010 <main+0x1a9a>
    346f: 69 07        	adc	#$7
    3471: 85 12        	sta	$12                     ; 0x2012 <main+0x1a9c>
    3473: a5 11        	lda	$11                     ; 0x2011 <main+0x1a9b>
    3475: 69 00        	adc	#$0
    3477: 85 13        	sta	$13                     ; 0x2013 <main+0x1a9d>
    3479: b2 12        	lda	($12)                   ; 0x2012 <main+0x1a9c>
    347b: 85 14        	sta	$14                     ; 0x2014 <main+0x1a9e>
    347d: a0 01        	ldy	#$1
    347f: b1 12        	lda	($12),y                 ; 0x2012 <main+0x1a9c>
    3481: aa           	tax
    3482: 18           	clc
    3483: a5 14        	lda	$14                     ; 0x2014 <main+0x1a9e>
    3485: 69 e6        	adc	#$e6
    3487: 85 12        	sta	$12                     ; 0x2012 <main+0x1a9c>
    3489: 8a           	txa
    348a: 69 11        	adc	#$11
    348c: 85 13        	sta	$13                     ; 0x2013 <main+0x1a9d>
    348e: b2 12        	lda	($12)                   ; 0x2012 <main+0x1a9c>
    3490: 85 14        	sta	$14                     ; 0x2014 <main+0x1a9e>
    3492: b1 12        	lda	($12),y                 ; 0x2012 <main+0x1a9c>
    3494: f0 03        	beq	$3499 <pickFile+0x3d4>
    3496: 4c cc 35     	jmp	$35cc <pickFile+0x507>
    3499: a5 14        	lda	$14                     ; 0x2014 <main+0x1a9e>
    349b: f0 03        	beq	$34a0 <pickFile+0x3db>
    349d: 4c cc 35     	jmp	$35cc <pickFile+0x507>
    34a0: 18           	clc
    34a1: a5 10        	lda	$10                     ; 0x2010 <main+0x1a9a>
    34a3: 69 07        	adc	#$7
    34a5: 85 24        	sta	$24                     ; 0x2024 <main+0x1aae>
    34a7: a5 11        	lda	$11                     ; 0x2011 <main+0x1a9b>
    34a9: 69 00        	adc	#$0
    34ab: 85 25        	sta	$25                     ; 0x2025 <main+0x1aaf>
    34ad: b2 24        	lda	($24)                   ; 0x2024 <main+0x1aae>
    34af: 85 12        	sta	$12                     ; 0x2012 <main+0x1a9c>
    34b1: a0 01        	ldy	#$1
    34b3: b1 24        	lda	($24),y                 ; 0x2024 <main+0x1aae>
    34b5: 85 13        	sta	$13                     ; 0x2013 <main+0x1a9d>
    34b7: b2 12        	lda	($12)                   ; 0x2012 <main+0x1a9c>
    34b9: 85 14        	sta	$14                     ; 0x2014 <main+0x1a9e>
    34bb: b2 24        	lda	($24)                   ; 0x2024 <main+0x1aae>
    34bd: 85 12        	sta	$12                     ; 0x2012 <main+0x1a9c>
    34bf: b1 24        	lda	($24),y                 ; 0x2024 <main+0x1aae>
    34c1: 85 13        	sta	$13                     ; 0x2013 <main+0x1a9d>
    34c3: b2 24        	lda	($24)                   ; 0x2024 <main+0x1aae>
    34c5: 85 16        	sta	$16                     ; 0x2016 <main+0x1aa0>
    34c7: b1 24        	lda	($24),y                 ; 0x2024 <main+0x1aae>
    34c9: 85 15        	sta	$15                     ; 0x2015 <main+0x1a9f>
    34cb: 18           	clc
    34cc: a5 16        	lda	$16                     ; 0x2016 <main+0x1aa0>
    34ce: 69 e6        	adc	#$e6
    34d0: aa           	tax
    34d1: a5 15        	lda	$15                     ; 0x2015 <main+0x1a9f>
    34d3: 69 11        	adc	#$11
    34d5: 85 15        	sta	$15                     ; 0x2015 <main+0x1a9f>
    34d7: b1 12        	lda	($12),y                 ; 0x2012 <main+0x1a9c>
    34d9: 86 12        	stx	$12                     ; 0x2012 <main+0x1a9c>
    34db: a6 15        	ldx	$15                     ; 0x2015 <main+0x1a9f>
    34dd: 86 13        	stx	$13                     ; 0x2013 <main+0x1a9d>
    34df: 18           	clc
    34e0: 72 12        	adc	($12)                   ; 0x2012 <main+0x1a9c>
    34e2: aa           	tax
    34e3: a5 14        	lda	$14                     ; 0x2014 <main+0x1a9e>
    34e5: 20 89 2c     	jsr	$2c89 <textGotoXY>
    34e8: a9 20        	lda	#$20
    34ea: 92 10        	sta	($10)                   ; 0x2010 <main+0x1a9a>
    34ec: a9 00        	lda	#$0
    34ee: a0 01        	ldy	#$1
    34f0: 91 10        	sta	($10),y                 ; 0x2010 <main+0x1a9a>
    34f2: a2 06        	ldx	#$6
    34f4: 86 12        	stx	$12                     ; 0x2012 <main+0x1a9c>
    34f6: a2 5d        	ldx	#$5d
    34f8: 86 13        	stx	$13                     ; 0x2013 <main+0x1a9d>
    34fa: 20 ef 54     	jsr	$54ef <printf>
    34fd: b2 24        	lda	($24)                   ; 0x2024 <main+0x1aae>
    34ff: 85 13        	sta	$13                     ; 0x2013 <main+0x1a9d>
    3501: a0 01        	ldy	#$1
    3503: b1 24        	lda	($24),y                 ; 0x2024 <main+0x1aae>
    3505: 85 12        	sta	$12                     ; 0x2012 <main+0x1a9c>
    3507: 18           	clc
    3508: a5 13        	lda	$13                     ; 0x2013 <main+0x1a9d>
    350a: 69 e6        	adc	#$e6
    350c: aa           	tax
    350d: a5 12        	lda	$12                     ; 0x2012 <main+0x1a9c>
    350f: 69 11        	adc	#$11
    3511: 86 12        	stx	$12                     ; 0x2012 <main+0x1a9c>
    3513: 85 13        	sta	$13                     ; 0x2013 <main+0x1a9d>
    3515: a9 0b        	lda	#$b
    3517: 92 12        	sta	($12)                   ; 0x2012 <main+0x1a9c>
    3519: a9 00        	lda	#$0
    351b: 91 12        	sta	($12),y                 ; 0x2012 <main+0x1a9c>
    351d: b2 24        	lda	($24)                   ; 0x2024 <main+0x1aae>
    351f: 85 13        	sta	$13                     ; 0x2013 <main+0x1a9d>
    3521: b1 24        	lda	($24),y                 ; 0x2024 <main+0x1aae>
    3523: 85 12        	sta	$12                     ; 0x2012 <main+0x1a9c>
    3525: 18           	clc
    3526: a5 13        	lda	$13                     ; 0x2013 <main+0x1a9d>
    3528: 69 e8        	adc	#$e8
    352a: aa           	tax
    352b: a5 12        	lda	$12                     ; 0x2012 <main+0x1a9c>
    352d: 69 11        	adc	#$11
    352f: 86 12        	stx	$12                     ; 0x2012 <main+0x1a9c>
    3531: 85 13        	sta	$13                     ; 0x2013 <main+0x1a9d>
    3533: b2 12        	lda	($12)                   ; 0x2012 <main+0x1a9c>
    3535: 85 15        	sta	$15                     ; 0x2015 <main+0x1a9f>
    3537: b1 12        	lda	($12),y                 ; 0x2012 <main+0x1a9c>
    3539: 85 14        	sta	$14                     ; 0x2014 <main+0x1a9e>
    353b: 18           	clc
    353c: a5 15        	lda	$15                     ; 0x2015 <main+0x1a9f>
    353e: 69 f5        	adc	#$f5
    3540: 85 15        	sta	$15                     ; 0x2015 <main+0x1a9f>
    3542: a5 14        	lda	$14                     ; 0x2014 <main+0x1a9e>
    3544: 69 ff        	adc	#$ff
    3546: aa           	tax
    3547: a5 15        	lda	$15                     ; 0x2015 <main+0x1a9f>
    3549: 92 12        	sta	($12)                   ; 0x2012 <main+0x1a9c>
    354b: 8a           	txa
    354c: 91 12        	sta	($12),y                 ; 0x2012 <main+0x1a9c>
    354e: b2 24        	lda	($24)                   ; 0x2024 <main+0x1aae>
    3550: 85 12        	sta	$12                     ; 0x2012 <main+0x1a9c>
    3552: b1 24        	lda	($24),y                 ; 0x2024 <main+0x1aae>
    3554: 85 13        	sta	$13                     ; 0x2013 <main+0x1a9d>
    3556: b2 24        	lda	($24)                   ; 0x2024 <main+0x1aae>
    3558: 85 15        	sta	$15                     ; 0x2015 <main+0x1a9f>
    355a: b1 24        	lda	($24),y                 ; 0x2024 <main+0x1aae>
    355c: 85 14        	sta	$14                     ; 0x2014 <main+0x1a9e>
    355e: a0 01        	ldy	#$1
    3560: 18           	clc
    3561: a5 15        	lda	$15                     ; 0x2015 <main+0x1a9f>
    3563: 69 e8        	adc	#$e8
    3565: aa           	tax
    3566: a5 14        	lda	$14                     ; 0x2014 <main+0x1a9e>
    3568: 69 11        	adc	#$11
    356a: 86 14        	stx	$14                     ; 0x2014 <main+0x1a9e>
    356c: 85 15        	sta	$15                     ; 0x2015 <main+0x1a9f>
    356e: b2 14        	lda	($14)                   ; 0x2014 <main+0x1a9e>
    3570: 85 16        	sta	$16                     ; 0x2016 <main+0x1aa0>
    3572: b1 14        	lda	($14),y                 ; 0x2014 <main+0x1a9e>
    3574: aa           	tax
    3575: a5 16        	lda	$16                     ; 0x2016 <main+0x1aa0>
    3577: 20 12 3d     	jsr	$3d12 <displayFileList>
    357a: b2 24        	lda	($24)                   ; 0x2024 <main+0x1aae>
    357c: 85 12        	sta	$12                     ; 0x2012 <main+0x1a9c>
    357e: a0 01        	ldy	#$1
    3580: b1 24        	lda	($24),y                 ; 0x2024 <main+0x1aae>
    3582: 85 13        	sta	$13                     ; 0x2013 <main+0x1a9d>
    3584: b2 24        	lda	($24)                   ; 0x2024 <main+0x1aae>
    3586: 85 14        	sta	$14                     ; 0x2014 <main+0x1a9e>
    3588: b1 24        	lda	($24),y                 ; 0x2024 <main+0x1aae>
    358a: 85 15        	sta	$15                     ; 0x2015 <main+0x1a9f>
    358c: b2 24        	lda	($24)                   ; 0x2024 <main+0x1aae>
    358e: 85 16        	sta	$16                     ; 0x2016 <main+0x1aa0>
    3590: b1 24        	lda	($24),y                 ; 0x2024 <main+0x1aae>
    3592: 85 18        	sta	$18                     ; 0x2018 <main+0x1aa2>
    3594: a0 01        	ldy	#$1
    3596: 18           	clc
    3597: a5 16        	lda	$16                     ; 0x2016 <main+0x1aa0>
    3599: 69 e6        	adc	#$e6
    359b: 85 17        	sta	$17                     ; 0x2017 <main+0x1aa1>
    359d: a5 18        	lda	$18                     ; 0x2018 <main+0x1aa2>
    359f: 69 11        	adc	#$11
    35a1: aa           	tax
    35a2: b2 12        	lda	($12)                   ; 0x2012 <main+0x1a9c>
    35a4: 85 16        	sta	$16                     ; 0x2016 <main+0x1aa0>
    35a6: a5 17        	lda	$17                     ; 0x2017 <main+0x1aa1>
    35a8: 85 12        	sta	$12                     ; 0x2012 <main+0x1a9c>
    35aa: b1 14        	lda	($14),y                 ; 0x2014 <main+0x1a9e>
    35ac: 86 13        	stx	$13                     ; 0x2013 <main+0x1a9d>
    35ae: 18           	clc
    35af: 72 12        	adc	($12)                   ; 0x2012 <main+0x1a9c>
    35b1: aa           	tax
    35b2: a5 16        	lda	$16                     ; 0x2016 <main+0x1aa0>
    35b4: 20 89 2c     	jsr	$2c89 <textGotoXY>
    35b7: a9 fa        	lda	#$fa
    35b9: 92 10        	sta	($10)                   ; 0x2010 <main+0x1a9a>
    35bb: a9 00        	lda	#$0
    35bd: a0 01        	ldy	#$1
    35bf: 91 10        	sta	($10),y                 ; 0x2010 <main+0x1a9a>
    35c1: a2 06        	ldx	#$6
    35c3: 86 12        	stx	$12                     ; 0x2012 <main+0x1a9c>
    35c5: a2 5d        	ldx	#$5d
    35c7: 86 13        	stx	$13                     ; 0x2013 <main+0x1a9d>
    35c9: 20 ef 54     	jsr	$54ef <printf>
    35cc: 4c d7 3c     	jmp	$3cd7 <pickFile+0xc12>
    35cf: 18           	clc
    35d0: a5 10        	lda	$10                     ; 0x2010 <main+0x1a9a>
    35d2: 69 07        	adc	#$7
    35d4: 85 12        	sta	$12                     ; 0x2012 <main+0x1a9c>
    35d6: a5 11        	lda	$11                     ; 0x2011 <main+0x1a9b>
    35d8: 69 00        	adc	#$0
    35da: 85 13        	sta	$13                     ; 0x2013 <main+0x1a9d>
    35dc: b2 12        	lda	($12)                   ; 0x2012 <main+0x1a9c>
    35de: 85 14        	sta	$14                     ; 0x2014 <main+0x1a9e>
    35e0: a0 01        	ldy	#$1
    35e2: b1 12        	lda	($12),y                 ; 0x2012 <main+0x1a9c>
    35e4: aa           	tax
    35e5: 18           	clc
    35e6: a5 14        	lda	$14                     ; 0x2014 <main+0x1a9e>
    35e8: 69 e4        	adc	#$e4
    35ea: 85 14        	sta	$14                     ; 0x2014 <main+0x1a9e>
    35ec: 8a           	txa
    35ed: 69 11        	adc	#$11
    35ef: 85 15        	sta	$15                     ; 0x2015 <main+0x1a9f>
    35f1: b2 14        	lda	($14)                   ; 0x2014 <main+0x1a9e>
    35f3: 85 16        	sta	$16                     ; 0x2016 <main+0x1aa0>
    35f5: b2 12        	lda	($12)                   ; 0x2012 <main+0x1a9c>
    35f7: 85 17        	sta	$17                     ; 0x2017 <main+0x1aa1>
    35f9: b1 12        	lda	($12),y                 ; 0x2012 <main+0x1a9c>
    35fb: 85 12        	sta	$12                     ; 0x2012 <main+0x1a9c>
    35fd: 18           	clc
    35fe: a5 17        	lda	$17                     ; 0x2017 <main+0x1aa1>
    3600: 69 e2        	adc	#$e2
    3602: aa           	tax
    3603: a5 12        	lda	$12                     ; 0x2012 <main+0x1a9c>
    3605: 69 11        	adc	#$11
    3607: 85 13        	sta	$13                     ; 0x2013 <main+0x1a9d>
    3609: b1 14        	lda	($14),y                 ; 0x2014 <main+0x1a9e>
    360b: 85 14        	sta	$14                     ; 0x2014 <main+0x1a9e>
    360d: 86 12        	stx	$12                     ; 0x2012 <main+0x1a9c>
    360f: b2 12        	lda	($12)                   ; 0x2012 <main+0x1a9c>
    3611: aa           	tax
    3612: b1 12        	lda	($12),y                 ; 0x2012 <main+0x1a9c>
    3614: 85 12        	sta	$12                     ; 0x2012 <main+0x1a9c>
    3616: a5 14        	lda	$14                     ; 0x2014 <main+0x1a9e>
    3618: 86 13        	stx	$13                     ; 0x2013 <main+0x1a9d>
    361a: a2 ff        	ldx	#$ff
    361c: c6 13        	dec	$13                     ; 0x2013 <main+0x1a9d>
    361e: e4 13        	cpx	$13                     ; 0x2013 <main+0x1a9d>
    3620: f0 03        	beq	$3625 <pickFile+0x560>
    3622: 4c 2a 36     	jmp	$362a <pickFile+0x565>
    3625: c6 12        	dec	$12                     ; 0x2012 <main+0x1a9c>
    3627: 4c 2a 36     	jmp	$362a <pickFile+0x565>
    362a: a6 16        	ldx	$16                     ; 0x2016 <main+0x1aa0>
    362c: e4 13        	cpx	$13                     ; 0x2013 <main+0x1a9d>
    362e: e5 12        	sbc	$12                     ; 0x2012 <main+0x1a9c>
    3630: 70 02        	bvs	$3634 <pickFile+0x56f>
    3632: 80 04        	bra	$3638 <pickFile+0x573>
    3634: 49 80        	eor	#$80
    3636: 80 02        	bra	$363a <pickFile+0x575>
    3638: 80 00        	bra	$363a <pickFile+0x575>
    363a: aa           	tax
    363b: 30 03        	bmi	$3640 <pickFile+0x57b>
    363d: 4c 4c 39     	jmp	$394c <pickFile+0x887>
    3640: 18           	clc
    3641: a5 10        	lda	$10                     ; 0x2010 <main+0x1a9a>
    3643: 69 07        	adc	#$7
    3645: 85 12        	sta	$12                     ; 0x2012 <main+0x1a9c>
    3647: a5 11        	lda	$11                     ; 0x2011 <main+0x1a9b>
    3649: 69 00        	adc	#$0
    364b: 85 13        	sta	$13                     ; 0x2013 <main+0x1a9d>
    364d: b2 12        	lda	($12)                   ; 0x2012 <main+0x1a9c>
    364f: 85 14        	sta	$14                     ; 0x2014 <main+0x1a9e>
    3651: a0 01        	ldy	#$1
    3653: b1 12        	lda	($12),y                 ; 0x2012 <main+0x1a9c>
    3655: aa           	tax
    3656: 18           	clc
    3657: a5 14        	lda	$14                     ; 0x2014 <main+0x1a9e>
    3659: 69 e6        	adc	#$e6
    365b: 85 12        	sta	$12                     ; 0x2012 <main+0x1a9c>
    365d: 8a           	txa
    365e: 69 11        	adc	#$11
    3660: 85 13        	sta	$13                     ; 0x2013 <main+0x1a9d>
    3662: b2 12        	lda	($12)                   ; 0x2012 <main+0x1a9c>
    3664: 85 14        	sta	$14                     ; 0x2014 <main+0x1a9e>
    3666: b1 12        	lda	($12),y                 ; 0x2012 <main+0x1a9c>
    3668: a6 14        	ldx	$14                     ; 0x2014 <main+0x1a9e>
    366a: e0 0b        	cpx	#$b
    366c: e9 00        	sbc	#$0
    366e: 70 02        	bvs	$3672 <pickFile+0x5ad>
    3670: 80 04        	bra	$3676 <pickFile+0x5b1>
    3672: 49 80        	eor	#$80
    3674: 80 02        	bra	$3678 <pickFile+0x5b3>
    3676: 80 00        	bra	$3678 <pickFile+0x5b3>
    3678: aa           	tax
    3679: 30 03        	bmi	$367e <pickFile+0x5b9>
    367b: 4c 8c 37     	jmp	$378c <pickFile+0x6c7>
    367e: 18           	clc
    367f: a5 10        	lda	$10                     ; 0x2010 <main+0x1a9a>
    3681: 69 07        	adc	#$7
    3683: 85 24        	sta	$24                     ; 0x2024 <main+0x1aae>
    3685: a5 11        	lda	$11                     ; 0x2011 <main+0x1a9b>
    3687: 69 00        	adc	#$0
    3689: 85 25        	sta	$25                     ; 0x2025 <main+0x1aaf>
    368b: b2 24        	lda	($24)                   ; 0x2024 <main+0x1aae>
    368d: 85 12        	sta	$12                     ; 0x2012 <main+0x1a9c>
    368f: a0 01        	ldy	#$1
    3691: b1 24        	lda	($24),y                 ; 0x2024 <main+0x1aae>
    3693: 85 13        	sta	$13                     ; 0x2013 <main+0x1a9d>
    3695: b2 12        	lda	($12)                   ; 0x2012 <main+0x1a9c>
    3697: 85 14        	sta	$14                     ; 0x2014 <main+0x1a9e>
    3699: b2 24        	lda	($24)                   ; 0x2024 <main+0x1aae>
    369b: 85 12        	sta	$12                     ; 0x2012 <main+0x1a9c>
    369d: b1 24        	lda	($24),y                 ; 0x2024 <main+0x1aae>
    369f: 85 13        	sta	$13                     ; 0x2013 <main+0x1a9d>
    36a1: b2 24        	lda	($24)                   ; 0x2024 <main+0x1aae>
    36a3: 85 16        	sta	$16                     ; 0x2016 <main+0x1aa0>
    36a5: b1 24        	lda	($24),y                 ; 0x2024 <main+0x1aae>
    36a7: 85 15        	sta	$15                     ; 0x2015 <main+0x1a9f>
    36a9: 18           	clc
    36aa: a5 16        	lda	$16                     ; 0x2016 <main+0x1aa0>
    36ac: 69 e6        	adc	#$e6
    36ae: aa           	tax
    36af: a5 15        	lda	$15                     ; 0x2015 <main+0x1a9f>
    36b1: 69 11        	adc	#$11
    36b3: 85 15        	sta	$15                     ; 0x2015 <main+0x1a9f>
    36b5: b1 12        	lda	($12),y                 ; 0x2012 <main+0x1a9c>
    36b7: 86 12        	stx	$12                     ; 0x2012 <main+0x1a9c>
    36b9: a6 15        	ldx	$15                     ; 0x2015 <main+0x1a9f>
    36bb: 86 13        	stx	$13                     ; 0x2013 <main+0x1a9d>
    36bd: 18           	clc
    36be: 72 12        	adc	($12)                   ; 0x2012 <main+0x1a9c>
    36c0: aa           	tax
    36c1: a5 14        	lda	$14                     ; 0x2014 <main+0x1a9e>
    36c3: 20 89 2c     	jsr	$2c89 <textGotoXY>
    36c6: a9 20        	lda	#$20
    36c8: 92 10        	sta	($10)                   ; 0x2010 <main+0x1a9a>
    36ca: a9 00        	lda	#$0
    36cc: a0 01        	ldy	#$1
    36ce: 91 10        	sta	($10),y                 ; 0x2010 <main+0x1a9a>
    36d0: a2 06        	ldx	#$6
    36d2: 86 12        	stx	$12                     ; 0x2012 <main+0x1a9c>
    36d4: a2 5d        	ldx	#$5d
    36d6: 86 13        	stx	$13                     ; 0x2013 <main+0x1a9d>
    36d8: 20 ef 54     	jsr	$54ef <printf>
    36db: b2 24        	lda	($24)                   ; 0x2024 <main+0x1aae>
    36dd: 85 13        	sta	$13                     ; 0x2013 <main+0x1a9d>
    36df: a0 01        	ldy	#$1
    36e1: b1 24        	lda	($24),y                 ; 0x2024 <main+0x1aae>
    36e3: 85 12        	sta	$12                     ; 0x2012 <main+0x1a9c>
    36e5: 18           	clc
    36e6: a5 13        	lda	$13                     ; 0x2013 <main+0x1a9d>
    36e8: 69 e4        	adc	#$e4
    36ea: aa           	tax
    36eb: a5 12        	lda	$12                     ; 0x2012 <main+0x1a9c>
    36ed: 69 11        	adc	#$11
    36ef: 86 12        	stx	$12                     ; 0x2012 <main+0x1a9c>
    36f1: 85 13        	sta	$13                     ; 0x2013 <main+0x1a9d>
    36f3: b2 12        	lda	($12)                   ; 0x2012 <main+0x1a9c>
    36f5: 85 14        	sta	$14                     ; 0x2014 <main+0x1a9e>
    36f7: b1 12        	lda	($12),y                 ; 0x2012 <main+0x1a9c>
    36f9: aa           	tax
    36fa: a5 14        	lda	$14                     ; 0x2014 <main+0x1a9e>
    36fc: 1a           	inc
    36fd: f0 03        	beq	$3702 <pickFile+0x63d>
    36ff: 4c 06 37     	jmp	$3706 <pickFile+0x641>
    3702: e8           	inx
    3703: 4c 06 37     	jmp	$3706 <pickFile+0x641>
    3706: 92 12        	sta	($12)                   ; 0x2012 <main+0x1a9c>
    3708: 8a           	txa
    3709: 91 12        	sta	($12),y                 ; 0x2012 <main+0x1a9c>
    370b: b2 24        	lda	($24)                   ; 0x2024 <main+0x1aae>
    370d: 85 13        	sta	$13                     ; 0x2013 <main+0x1a9d>
    370f: b1 24        	lda	($24),y                 ; 0x2024 <main+0x1aae>
    3711: 85 12        	sta	$12                     ; 0x2012 <main+0x1a9c>
    3713: 18           	clc
    3714: a5 13        	lda	$13                     ; 0x2013 <main+0x1a9d>
    3716: 69 e6        	adc	#$e6
    3718: aa           	tax
    3719: a5 12        	lda	$12                     ; 0x2012 <main+0x1a9c>
    371b: 69 11        	adc	#$11
    371d: 86 12        	stx	$12                     ; 0x2012 <main+0x1a9c>
    371f: 85 13        	sta	$13                     ; 0x2013 <main+0x1a9d>
    3721: b2 12        	lda	($12)                   ; 0x2012 <main+0x1a9c>
    3723: 85 14        	sta	$14                     ; 0x2014 <main+0x1a9e>
    3725: b1 12        	lda	($12),y                 ; 0x2012 <main+0x1a9c>
    3727: aa           	tax
    3728: a5 14        	lda	$14                     ; 0x2014 <main+0x1a9e>
    372a: 1a           	inc
    372b: f0 03        	beq	$3730 <pickFile+0x66b>
    372d: 4c 34 37     	jmp	$3734 <pickFile+0x66f>
    3730: e8           	inx
    3731: 4c 34 37     	jmp	$3734 <pickFile+0x66f>
    3734: 92 12        	sta	($12)                   ; 0x2012 <main+0x1a9c>
    3736: 8a           	txa
    3737: 91 12        	sta	($12),y                 ; 0x2012 <main+0x1a9c>
    3739: b2 24        	lda	($24)                   ; 0x2024 <main+0x1aae>
    373b: 85 12        	sta	$12                     ; 0x2012 <main+0x1a9c>
    373d: b1 24        	lda	($24),y                 ; 0x2024 <main+0x1aae>
    373f: 85 13        	sta	$13                     ; 0x2013 <main+0x1a9d>
    3741: b2 24        	lda	($24)                   ; 0x2024 <main+0x1aae>
    3743: 85 14        	sta	$14                     ; 0x2014 <main+0x1a9e>
    3745: b1 24        	lda	($24),y                 ; 0x2024 <main+0x1aae>
    3747: 85 15        	sta	$15                     ; 0x2015 <main+0x1a9f>
    3749: b2 24        	lda	($24)                   ; 0x2024 <main+0x1aae>
    374b: 85 16        	sta	$16                     ; 0x2016 <main+0x1aa0>
    374d: b1 24        	lda	($24),y                 ; 0x2024 <main+0x1aae>
    374f: 85 18        	sta	$18                     ; 0x2018 <main+0x1aa2>
    3751: a0 01        	ldy	#$1
    3753: 18           	clc
    3754: a5 16        	lda	$16                     ; 0x2016 <main+0x1aa0>
    3756: 69 e6        	adc	#$e6
    3758: 85 17        	sta	$17                     ; 0x2017 <main+0x1aa1>
    375a: a5 18        	lda	$18                     ; 0x2018 <main+0x1aa2>
    375c: 69 11        	adc	#$11
    375e: aa           	tax
    375f: b2 12        	lda	($12)                   ; 0x2012 <main+0x1a9c>
    3761: 85 16        	sta	$16                     ; 0x2016 <main+0x1aa0>
    3763: a5 17        	lda	$17                     ; 0x2017 <main+0x1aa1>
    3765: 85 12        	sta	$12                     ; 0x2012 <main+0x1a9c>
    3767: b1 14        	lda	($14),y                 ; 0x2014 <main+0x1a9e>
    3769: 86 13        	stx	$13                     ; 0x2013 <main+0x1a9d>
    376b: 18           	clc
    376c: 72 12        	adc	($12)                   ; 0x2012 <main+0x1a9c>
    376e: aa           	tax
    376f: a5 16        	lda	$16                     ; 0x2016 <main+0x1aa0>
    3771: 20 89 2c     	jsr	$2c89 <textGotoXY>
    3774: a9 fa        	lda	#$fa
    3776: 92 10        	sta	($10)                   ; 0x2010 <main+0x1a9a>
    3778: a9 00        	lda	#$0
    377a: a0 01        	ldy	#$1
    377c: 91 10        	sta	($10),y                 ; 0x2010 <main+0x1a9a>
    377e: a2 06        	ldx	#$6
    3780: 86 12        	stx	$12                     ; 0x2012 <main+0x1a9c>
    3782: a2 5d        	ldx	#$5d
    3784: 86 13        	stx	$13                     ; 0x2013 <main+0x1a9d>
    3786: 20 ef 54     	jsr	$54ef <printf>
    3789: 4c 4c 39     	jmp	$394c <pickFile+0x887>
    378c: 18           	clc
    378d: a5 10        	lda	$10                     ; 0x2010 <main+0x1a9a>
    378f: 69 07        	adc	#$7
    3791: 85 12        	sta	$12                     ; 0x2012 <main+0x1a9c>
    3793: a5 11        	lda	$11                     ; 0x2011 <main+0x1a9b>
    3795: 69 00        	adc	#$0
    3797: 85 13        	sta	$13                     ; 0x2013 <main+0x1a9d>
    3799: b2 12        	lda	($12)                   ; 0x2012 <main+0x1a9c>
    379b: 85 14        	sta	$14                     ; 0x2014 <main+0x1a9e>
    379d: a0 01        	ldy	#$1
    379f: b1 12        	lda	($12),y                 ; 0x2012 <main+0x1a9c>
    37a1: aa           	tax
    37a2: 18           	clc
    37a3: a5 14        	lda	$14                     ; 0x2014 <main+0x1a9e>
    37a5: 69 e6        	adc	#$e6
    37a7: 85 12        	sta	$12                     ; 0x2012 <main+0x1a9c>
    37a9: 8a           	txa
    37aa: 69 11        	adc	#$11
    37ac: 85 13        	sta	$13                     ; 0x2013 <main+0x1a9d>
    37ae: b2 12        	lda	($12)                   ; 0x2012 <main+0x1a9c>
    37b0: 85 14        	sta	$14                     ; 0x2014 <main+0x1a9e>
    37b2: b1 12        	lda	($12),y                 ; 0x2012 <main+0x1a9c>
    37b4: f0 02        	beq	$37b8 <pickFile+0x6f3>
    37b6: 80 0f        	bra	$37c7 <pickFile+0x702>
    37b8: a6 14        	ldx	$14                     ; 0x2014 <main+0x1a9e>
    37ba: e0 0b        	cpx	#$b
    37bc: f0 02        	beq	$37c0 <pickFile+0x6fb>
    37be: 80 02        	bra	$37c2 <pickFile+0x6fd>
    37c0: 80 03        	bra	$37c5 <pickFile+0x700>
    37c2: 4c 4c 39     	jmp	$394c <pickFile+0x887>
    37c5: 80 03        	bra	$37ca <pickFile+0x705>
    37c7: 4c 4c 39     	jmp	$394c <pickFile+0x887>
    37ca: 80 00        	bra	$37cc <pickFile+0x707>
    37cc: 18           	clc
    37cd: a5 10        	lda	$10                     ; 0x2010 <main+0x1a9a>
    37cf: 69 07        	adc	#$7
    37d1: 85 12        	sta	$12                     ; 0x2012 <main+0x1a9c>
    37d3: a5 11        	lda	$11                     ; 0x2011 <main+0x1a9b>
    37d5: 69 00        	adc	#$0
    37d7: 85 13        	sta	$13                     ; 0x2013 <main+0x1a9d>
    37d9: b2 12        	lda	($12)                   ; 0x2012 <main+0x1a9c>
    37db: 85 14        	sta	$14                     ; 0x2014 <main+0x1a9e>
    37dd: a0 01        	ldy	#$1
    37df: b1 12        	lda	($12),y                 ; 0x2012 <main+0x1a9c>
    37e1: aa           	tax
    37e2: 18           	clc
    37e3: a5 14        	lda	$14                     ; 0x2014 <main+0x1a9e>
    37e5: 69 e2        	adc	#$e2
    37e7: 85 14        	sta	$14                     ; 0x2014 <main+0x1a9e>
    37e9: 8a           	txa
    37ea: 69 11        	adc	#$11
    37ec: 85 15        	sta	$15                     ; 0x2015 <main+0x1a9f>
    37ee: b2 12        	lda	($12)                   ; 0x2012 <main+0x1a9c>
    37f0: 85 16        	sta	$16                     ; 0x2016 <main+0x1aa0>
    37f2: b1 12        	lda	($12),y                 ; 0x2012 <main+0x1a9c>
    37f4: 85 12        	sta	$12                     ; 0x2012 <main+0x1a9c>
    37f6: 18           	clc
    37f7: a5 16        	lda	$16                     ; 0x2016 <main+0x1aa0>
    37f9: 69 e4        	adc	#$e4
    37fb: aa           	tax
    37fc: a5 12        	lda	$12                     ; 0x2012 <main+0x1a9c>
    37fe: 69 11        	adc	#$11
    3800: 86 12        	stx	$12                     ; 0x2012 <main+0x1a9c>
    3802: 85 13        	sta	$13                     ; 0x2013 <main+0x1a9d>
    3804: b2 12        	lda	($12)                   ; 0x2012 <main+0x1a9c>
    3806: 85 16        	sta	$16                     ; 0x2016 <main+0x1aa0>
    3808: b1 12        	lda	($12),y                 ; 0x2012 <main+0x1a9c>
    380a: aa           	tax
    380b: a5 16        	lda	$16                     ; 0x2016 <main+0x1aa0>
    380d: d2 14        	cmp	($14)                   ; 0x2014 <main+0x1a9e>
    380f: 8a           	txa
    3810: f1 14        	sbc	($14),y                 ; 0x2014 <main+0x1a9e>
    3812: 70 02        	bvs	$3816 <pickFile+0x751>
    3814: 80 04        	bra	$381a <pickFile+0x755>
    3816: 49 80        	eor	#$80
    3818: 80 02        	bra	$381c <pickFile+0x757>
    381a: 80 00        	bra	$381c <pickFile+0x757>
    381c: aa           	tax
    381d: 30 03        	bmi	$3822 <pickFile+0x75d>
    381f: 4c 4c 39     	jmp	$394c <pickFile+0x887>
    3822: 18           	clc
    3823: a5 10        	lda	$10                     ; 0x2010 <main+0x1a9a>
    3825: 69 07        	adc	#$7
    3827: 85 24        	sta	$24                     ; 0x2024 <main+0x1aae>
    3829: a5 11        	lda	$11                     ; 0x2011 <main+0x1a9b>
    382b: 69 00        	adc	#$0
    382d: 85 25        	sta	$25                     ; 0x2025 <main+0x1aaf>
    382f: b2 24        	lda	($24)                   ; 0x2024 <main+0x1aae>
    3831: 85 12        	sta	$12                     ; 0x2012 <main+0x1a9c>
    3833: a0 01        	ldy	#$1
    3835: b1 24        	lda	($24),y                 ; 0x2024 <main+0x1aae>
    3837: 85 13        	sta	$13                     ; 0x2013 <main+0x1a9d>
    3839: b2 12        	lda	($12)                   ; 0x2012 <main+0x1a9c>
    383b: 85 14        	sta	$14                     ; 0x2014 <main+0x1a9e>
    383d: b2 24        	lda	($24)                   ; 0x2024 <main+0x1aae>
    383f: 85 12        	sta	$12                     ; 0x2012 <main+0x1a9c>
    3841: b1 24        	lda	($24),y                 ; 0x2024 <main+0x1aae>
    3843: 85 13        	sta	$13                     ; 0x2013 <main+0x1a9d>
    3845: b2 24        	lda	($24)                   ; 0x2024 <main+0x1aae>
    3847: 85 16        	sta	$16                     ; 0x2016 <main+0x1aa0>
    3849: b1 24        	lda	($24),y                 ; 0x2024 <main+0x1aae>
    384b: 85 15        	sta	$15                     ; 0x2015 <main+0x1a9f>
    384d: 18           	clc
    384e: a5 16        	lda	$16                     ; 0x2016 <main+0x1aa0>
    3850: 69 e6        	adc	#$e6
    3852: aa           	tax
    3853: a5 15        	lda	$15                     ; 0x2015 <main+0x1a9f>
    3855: 69 11        	adc	#$11
    3857: 85 15        	sta	$15                     ; 0x2015 <main+0x1a9f>
    3859: b1 12        	lda	($12),y                 ; 0x2012 <main+0x1a9c>
    385b: 86 12        	stx	$12                     ; 0x2012 <main+0x1a9c>
    385d: a6 15        	ldx	$15                     ; 0x2015 <main+0x1a9f>
    385f: 86 13        	stx	$13                     ; 0x2013 <main+0x1a9d>
    3861: 18           	clc
    3862: 72 12        	adc	($12)                   ; 0x2012 <main+0x1a9c>
    3864: aa           	tax
    3865: a5 14        	lda	$14                     ; 0x2014 <main+0x1a9e>
    3867: 20 89 2c     	jsr	$2c89 <textGotoXY>
    386a: a9 20        	lda	#$20
    386c: 92 10        	sta	($10)                   ; 0x2010 <main+0x1a9a>
    386e: a9 00        	lda	#$0
    3870: a0 01        	ldy	#$1
    3872: 91 10        	sta	($10),y                 ; 0x2010 <main+0x1a9a>
    3874: a2 06        	ldx	#$6
    3876: 86 12        	stx	$12                     ; 0x2012 <main+0x1a9c>
    3878: a2 5d        	ldx	#$5d
    387a: 86 13        	stx	$13                     ; 0x2013 <main+0x1a9d>
    387c: 20 ef 54     	jsr	$54ef <printf>
    387f: b2 24        	lda	($24)                   ; 0x2024 <main+0x1aae>
    3881: 85 13        	sta	$13                     ; 0x2013 <main+0x1a9d>
    3883: a0 01        	ldy	#$1
    3885: b1 24        	lda	($24),y                 ; 0x2024 <main+0x1aae>
    3887: 85 12        	sta	$12                     ; 0x2012 <main+0x1a9c>
    3889: 18           	clc
    388a: a5 13        	lda	$13                     ; 0x2013 <main+0x1a9d>
    388c: 69 e6        	adc	#$e6
    388e: aa           	tax
    388f: a5 12        	lda	$12                     ; 0x2012 <main+0x1a9c>
    3891: 69 11        	adc	#$11
    3893: 86 12        	stx	$12                     ; 0x2012 <main+0x1a9c>
    3895: 85 13        	sta	$13                     ; 0x2013 <main+0x1a9d>
    3897: a9 00        	lda	#$0
    3899: 92 12        	sta	($12)                   ; 0x2012 <main+0x1a9c>
    389b: 91 12        	sta	($12),y                 ; 0x2012 <main+0x1a9c>
    389d: b2 24        	lda	($24)                   ; 0x2024 <main+0x1aae>
    389f: 85 13        	sta	$13                     ; 0x2013 <main+0x1a9d>
    38a1: b1 24        	lda	($24),y                 ; 0x2024 <main+0x1aae>
    38a3: 85 12        	sta	$12                     ; 0x2012 <main+0x1a9c>
    38a5: 18           	clc
    38a6: a5 13        	lda	$13                     ; 0x2013 <main+0x1a9d>
    38a8: 69 e8        	adc	#$e8
    38aa: aa           	tax
    38ab: a5 12        	lda	$12                     ; 0x2012 <main+0x1a9c>
    38ad: 69 11        	adc	#$11
    38af: 86 12        	stx	$12                     ; 0x2012 <main+0x1a9c>
    38b1: 85 13        	sta	$13                     ; 0x2013 <main+0x1a9d>
    38b3: b2 12        	lda	($12)                   ; 0x2012 <main+0x1a9c>
    38b5: 85 15        	sta	$15                     ; 0x2015 <main+0x1a9f>
    38b7: b1 12        	lda	($12),y                 ; 0x2012 <main+0x1a9c>
    38b9: 85 14        	sta	$14                     ; 0x2014 <main+0x1a9e>
    38bb: 18           	clc
    38bc: a5 15        	lda	$15                     ; 0x2015 <main+0x1a9f>
    38be: 69 0b        	adc	#$b
    38c0: 85 15        	sta	$15                     ; 0x2015 <main+0x1a9f>
    38c2: a5 14        	lda	$14                     ; 0x2014 <main+0x1a9e>
    38c4: 69 00        	adc	#$0
    38c6: aa           	tax
    38c7: a5 15        	lda	$15                     ; 0x2015 <main+0x1a9f>
    38c9: 92 12        	sta	($12)                   ; 0x2012 <main+0x1a9c>
    38cb: 8a           	txa
    38cc: 91 12        	sta	($12),y                 ; 0x2012 <main+0x1a9c>
    38ce: b2 24        	lda	($24)                   ; 0x2024 <main+0x1aae>
    38d0: 85 12        	sta	$12                     ; 0x2012 <main+0x1a9c>
    38d2: b1 24        	lda	($24),y                 ; 0x2024 <main+0x1aae>
    38d4: 85 13        	sta	$13                     ; 0x2013 <main+0x1a9d>
    38d6: b2 24        	lda	($24)                   ; 0x2024 <main+0x1aae>
    38d8: 85 15        	sta	$15                     ; 0x2015 <main+0x1a9f>
    38da: b1 24        	lda	($24),y                 ; 0x2024 <main+0x1aae>
    38dc: 85 14        	sta	$14                     ; 0x2014 <main+0x1a9e>
    38de: a0 01        	ldy	#$1
    38e0: 18           	clc
    38e1: a5 15        	lda	$15                     ; 0x2015 <main+0x1a9f>
    38e3: 69 e8        	adc	#$e8
    38e5: aa           	tax
    38e6: a5 14        	lda	$14                     ; 0x2014 <main+0x1a9e>
    38e8: 69 11        	adc	#$11
    38ea: 86 14        	stx	$14                     ; 0x2014 <main+0x1a9e>
    38ec: 85 15        	sta	$15                     ; 0x2015 <main+0x1a9f>
    38ee: b2 14        	lda	($14)                   ; 0x2014 <main+0x1a9e>
    38f0: 85 16        	sta	$16                     ; 0x2016 <main+0x1aa0>
    38f2: b1 14        	lda	($14),y                 ; 0x2014 <main+0x1a9e>
    38f4: aa           	tax
    38f5: a5 16        	lda	$16                     ; 0x2016 <main+0x1aa0>
    38f7: 20 12 3d     	jsr	$3d12 <displayFileList>
    38fa: b2 24        	lda	($24)                   ; 0x2024 <main+0x1aae>
    38fc: 85 12        	sta	$12                     ; 0x2012 <main+0x1a9c>
    38fe: a0 01        	ldy	#$1
    3900: b1 24        	lda	($24),y                 ; 0x2024 <main+0x1aae>
    3902: 85 13        	sta	$13                     ; 0x2013 <main+0x1a9d>
    3904: b2 24        	lda	($24)                   ; 0x2024 <main+0x1aae>
    3906: 85 14        	sta	$14                     ; 0x2014 <main+0x1a9e>
    3908: b1 24        	lda	($24),y                 ; 0x2024 <main+0x1aae>
    390a: 85 15        	sta	$15                     ; 0x2015 <main+0x1a9f>
    390c: b2 24        	lda	($24)                   ; 0x2024 <main+0x1aae>
    390e: 85 16        	sta	$16                     ; 0x2016 <main+0x1aa0>
    3910: b1 24        	lda	($24),y                 ; 0x2024 <main+0x1aae>
    3912: 85 18        	sta	$18                     ; 0x2018 <main+0x1aa2>
    3914: a0 01        	ldy	#$1
    3916: 18           	clc
    3917: a5 16        	lda	$16                     ; 0x2016 <main+0x1aa0>
    3919: 69 e6        	adc	#$e6
    391b: 85 17        	sta	$17                     ; 0x2017 <main+0x1aa1>
    391d: a5 18        	lda	$18                     ; 0x2018 <main+0x1aa2>
    391f: 69 11        	adc	#$11
    3921: aa           	tax
    3922: b2 12        	lda	($12)                   ; 0x2012 <main+0x1a9c>
    3924: 85 16        	sta	$16                     ; 0x2016 <main+0x1aa0>
    3926: a5 17        	lda	$17                     ; 0x2017 <main+0x1aa1>
    3928: 85 12        	sta	$12                     ; 0x2012 <main+0x1a9c>
    392a: b1 14        	lda	($14),y                 ; 0x2014 <main+0x1a9e>
    392c: 86 13        	stx	$13                     ; 0x2013 <main+0x1a9d>
    392e: 18           	clc
    392f: 72 12        	adc	($12)                   ; 0x2012 <main+0x1a9c>
    3931: aa           	tax
    3932: a5 16        	lda	$16                     ; 0x2016 <main+0x1aa0>
    3934: 20 89 2c     	jsr	$2c89 <textGotoXY>
    3937: a9 fa        	lda	#$fa
    3939: 92 10        	sta	($10)                   ; 0x2010 <main+0x1a9a>
    393b: a9 00        	lda	#$0
    393d: a0 01        	ldy	#$1
    393f: 91 10        	sta	($10),y                 ; 0x2010 <main+0x1a9a>
    3941: a2 06        	ldx	#$6
    3943: 86 12        	stx	$12                     ; 0x2012 <main+0x1a9c>
    3945: a2 5d        	ldx	#$5d
    3947: 86 13        	stx	$13                     ; 0x2013 <main+0x1a9d>
    3949: 20 ef 54     	jsr	$54ef <printf>
    394c: 4c d7 3c     	jmp	$3cd7 <pickFile+0xc12>
    394f: 18           	clc
    3950: a5 10        	lda	$10                     ; 0x2010 <main+0x1a9a>
    3952: 69 07        	adc	#$7
    3954: 85 12        	sta	$12                     ; 0x2012 <main+0x1a9c>
    3956: a5 11        	lda	$11                     ; 0x2011 <main+0x1a9b>
    3958: 69 00        	adc	#$0
    395a: 85 13        	sta	$13                     ; 0x2013 <main+0x1a9d>
    395c: b2 12        	lda	($12)                   ; 0x2012 <main+0x1a9c>
    395e: 85 14        	sta	$14                     ; 0x2014 <main+0x1a9e>
    3960: a0 01        	ldy	#$1
    3962: b1 12        	lda	($12),y                 ; 0x2012 <main+0x1a9c>
    3964: aa           	tax
    3965: 18           	clc
    3966: a5 14        	lda	$14                     ; 0x2014 <main+0x1a9e>
    3968: 69 e4        	adc	#$e4
    396a: 85 12        	sta	$12                     ; 0x2012 <main+0x1a9c>
    396c: 8a           	txa
    396d: 69 11        	adc	#$11
    396f: 85 13        	sta	$13                     ; 0x2013 <main+0x1a9d>
    3971: b2 12        	lda	($12)                   ; 0x2012 <main+0x1a9c>
    3973: 85 14        	sta	$14                     ; 0x2014 <main+0x1a9e>
    3975: b1 12        	lda	($12),y                 ; 0x2012 <main+0x1a9c>
    3977: a6 14        	ldx	$14                     ; 0x2014 <main+0x1a9e>
    3979: e0 0b        	cpx	#$b
    397b: e9 00        	sbc	#$0
    397d: 70 02        	bvs	$3981 <pickFile+0x8bc>
    397f: 80 04        	bra	$3985 <pickFile+0x8c0>
    3981: 49 80        	eor	#$80
    3983: 80 02        	bra	$3987 <pickFile+0x8c2>
    3985: 80 00        	bra	$3987 <pickFile+0x8c2>
    3987: aa           	tax
    3988: 10 03        	bpl	$398d <pickFile+0x8c8>
    398a: 4c cc 3a     	jmp	$3acc <pickFile+0xa07>
    398d: 18           	clc
    398e: a5 10        	lda	$10                     ; 0x2010 <main+0x1a9a>
    3990: 69 07        	adc	#$7
    3992: 85 24        	sta	$24                     ; 0x2024 <main+0x1aae>
    3994: a5 11        	lda	$11                     ; 0x2011 <main+0x1a9b>
    3996: 69 00        	adc	#$0
    3998: 85 25        	sta	$25                     ; 0x2025 <main+0x1aaf>
    399a: b2 24        	lda	($24)                   ; 0x2024 <main+0x1aae>
    399c: 85 12        	sta	$12                     ; 0x2012 <main+0x1a9c>
    399e: a0 01        	ldy	#$1
    39a0: b1 24        	lda	($24),y                 ; 0x2024 <main+0x1aae>
    39a2: 85 13        	sta	$13                     ; 0x2013 <main+0x1a9d>
    39a4: b2 12        	lda	($12)                   ; 0x2012 <main+0x1a9c>
    39a6: 85 14        	sta	$14                     ; 0x2014 <main+0x1a9e>
    39a8: b2 24        	lda	($24)                   ; 0x2024 <main+0x1aae>
    39aa: 85 12        	sta	$12                     ; 0x2012 <main+0x1a9c>
    39ac: b1 24        	lda	($24),y                 ; 0x2024 <main+0x1aae>
    39ae: 85 13        	sta	$13                     ; 0x2013 <main+0x1a9d>
    39b0: b2 24        	lda	($24)                   ; 0x2024 <main+0x1aae>
    39b2: 85 16        	sta	$16                     ; 0x2016 <main+0x1aa0>
    39b4: b1 24        	lda	($24),y                 ; 0x2024 <main+0x1aae>
    39b6: 85 15        	sta	$15                     ; 0x2015 <main+0x1a9f>
    39b8: 18           	clc
    39b9: a5 16        	lda	$16                     ; 0x2016 <main+0x1aa0>
    39bb: 69 e6        	adc	#$e6
    39bd: aa           	tax
    39be: a5 15        	lda	$15                     ; 0x2015 <main+0x1a9f>
    39c0: 69 11        	adc	#$11
    39c2: 85 15        	sta	$15                     ; 0x2015 <main+0x1a9f>
    39c4: b1 12        	lda	($12),y                 ; 0x2012 <main+0x1a9c>
    39c6: 86 12        	stx	$12                     ; 0x2012 <main+0x1a9c>
    39c8: a6 15        	ldx	$15                     ; 0x2015 <main+0x1a9f>
    39ca: 86 13        	stx	$13                     ; 0x2013 <main+0x1a9d>
    39cc: 18           	clc
    39cd: 72 12        	adc	($12)                   ; 0x2012 <main+0x1a9c>
    39cf: aa           	tax
    39d0: a5 14        	lda	$14                     ; 0x2014 <main+0x1a9e>
    39d2: 20 89 2c     	jsr	$2c89 <textGotoXY>
    39d5: a9 20        	lda	#$20
    39d7: 92 10        	sta	($10)                   ; 0x2010 <main+0x1a9a>
    39d9: a9 00        	lda	#$0
    39db: a0 01        	ldy	#$1
    39dd: 91 10        	sta	($10),y                 ; 0x2010 <main+0x1a9a>
    39df: a2 06        	ldx	#$6
    39e1: 86 12        	stx	$12                     ; 0x2012 <main+0x1a9c>
    39e3: a2 5d        	ldx	#$5d
    39e5: 86 13        	stx	$13                     ; 0x2013 <main+0x1a9d>
    39e7: 20 ef 54     	jsr	$54ef <printf>
    39ea: b2 24        	lda	($24)                   ; 0x2024 <main+0x1aae>
    39ec: 85 13        	sta	$13                     ; 0x2013 <main+0x1a9d>
    39ee: a0 01        	ldy	#$1
    39f0: b1 24        	lda	($24),y                 ; 0x2024 <main+0x1aae>
    39f2: 85 12        	sta	$12                     ; 0x2012 <main+0x1a9c>
    39f4: 18           	clc
    39f5: a5 13        	lda	$13                     ; 0x2013 <main+0x1a9d>
    39f7: 69 e4        	adc	#$e4
    39f9: aa           	tax
    39fa: a5 12        	lda	$12                     ; 0x2012 <main+0x1a9c>
    39fc: 69 11        	adc	#$11
    39fe: 86 12        	stx	$12                     ; 0x2012 <main+0x1a9c>
    3a00: 85 13        	sta	$13                     ; 0x2013 <main+0x1a9d>
    3a02: b2 12        	lda	($12)                   ; 0x2012 <main+0x1a9c>
    3a04: 85 15        	sta	$15                     ; 0x2015 <main+0x1a9f>
    3a06: b1 12        	lda	($12),y                 ; 0x2012 <main+0x1a9c>
    3a08: 85 14        	sta	$14                     ; 0x2014 <main+0x1a9e>
    3a0a: 18           	clc
    3a0b: a5 15        	lda	$15                     ; 0x2015 <main+0x1a9f>
    3a0d: 69 f5        	adc	#$f5
    3a0f: 85 15        	sta	$15                     ; 0x2015 <main+0x1a9f>
    3a11: a5 14        	lda	$14                     ; 0x2014 <main+0x1a9e>
    3a13: 69 ff        	adc	#$ff
    3a15: aa           	tax
    3a16: a5 15        	lda	$15                     ; 0x2015 <main+0x1a9f>
    3a18: 92 12        	sta	($12)                   ; 0x2012 <main+0x1a9c>
    3a1a: 8a           	txa
    3a1b: 91 12        	sta	($12),y                 ; 0x2012 <main+0x1a9c>
    3a1d: b2 24        	lda	($24)                   ; 0x2024 <main+0x1aae>
    3a1f: 85 13        	sta	$13                     ; 0x2013 <main+0x1a9d>
    3a21: b1 24        	lda	($24),y                 ; 0x2024 <main+0x1aae>
    3a23: 85 12        	sta	$12                     ; 0x2012 <main+0x1a9c>
    3a25: 18           	clc
    3a26: a5 13        	lda	$13                     ; 0x2013 <main+0x1a9d>
    3a28: 69 e8        	adc	#$e8
    3a2a: aa           	tax
    3a2b: a5 12        	lda	$12                     ; 0x2012 <main+0x1a9c>
    3a2d: 69 11        	adc	#$11
    3a2f: 86 12        	stx	$12                     ; 0x2012 <main+0x1a9c>
    3a31: 85 13        	sta	$13                     ; 0x2013 <main+0x1a9d>
    3a33: b2 12        	lda	($12)                   ; 0x2012 <main+0x1a9c>
    3a35: 85 15        	sta	$15                     ; 0x2015 <main+0x1a9f>
    3a37: b1 12        	lda	($12),y                 ; 0x2012 <main+0x1a9c>
    3a39: 85 14        	sta	$14                     ; 0x2014 <main+0x1a9e>
    3a3b: 18           	clc
    3a3c: a5 15        	lda	$15                     ; 0x2015 <main+0x1a9f>
    3a3e: 69 f5        	adc	#$f5
    3a40: 85 15        	sta	$15                     ; 0x2015 <main+0x1a9f>
    3a42: a5 14        	lda	$14                     ; 0x2014 <main+0x1a9e>
    3a44: 69 ff        	adc	#$ff
    3a46: aa           	tax
    3a47: a5 15        	lda	$15                     ; 0x2015 <main+0x1a9f>
    3a49: 92 12        	sta	($12)                   ; 0x2012 <main+0x1a9c>
    3a4b: 8a           	txa
    3a4c: 91 12        	sta	($12),y                 ; 0x2012 <main+0x1a9c>
    3a4e: b2 24        	lda	($24)                   ; 0x2024 <main+0x1aae>
    3a50: 85 12        	sta	$12                     ; 0x2012 <main+0x1a9c>
    3a52: b1 24        	lda	($24),y                 ; 0x2024 <main+0x1aae>
    3a54: 85 13        	sta	$13                     ; 0x2013 <main+0x1a9d>
    3a56: b2 24        	lda	($24)                   ; 0x2024 <main+0x1aae>
    3a58: 85 15        	sta	$15                     ; 0x2015 <main+0x1a9f>
    3a5a: b1 24        	lda	($24),y                 ; 0x2024 <main+0x1aae>
    3a5c: 85 14        	sta	$14                     ; 0x2014 <main+0x1a9e>
    3a5e: a0 01        	ldy	#$1
    3a60: 18           	clc
    3a61: a5 15        	lda	$15                     ; 0x2015 <main+0x1a9f>
    3a63: 69 e8        	adc	#$e8
    3a65: aa           	tax
    3a66: a5 14        	lda	$14                     ; 0x2014 <main+0x1a9e>
    3a68: 69 11        	adc	#$11
    3a6a: 86 14        	stx	$14                     ; 0x2014 <main+0x1a9e>
    3a6c: 85 15        	sta	$15                     ; 0x2015 <main+0x1a9f>
    3a6e: b2 14        	lda	($14)                   ; 0x2014 <main+0x1a9e>
    3a70: 85 16        	sta	$16                     ; 0x2016 <main+0x1aa0>
    3a72: b1 14        	lda	($14),y                 ; 0x2014 <main+0x1a9e>
    3a74: aa           	tax
    3a75: a5 16        	lda	$16                     ; 0x2016 <main+0x1aa0>
    3a77: 20 12 3d     	jsr	$3d12 <displayFileList>
    3a7a: b2 24        	lda	($24)                   ; 0x2024 <main+0x1aae>
    3a7c: 85 12        	sta	$12                     ; 0x2012 <main+0x1a9c>
    3a7e: a0 01        	ldy	#$1
    3a80: b1 24        	lda	($24),y                 ; 0x2024 <main+0x1aae>
    3a82: 85 13        	sta	$13                     ; 0x2013 <main+0x1a9d>
    3a84: b2 24        	lda	($24)                   ; 0x2024 <main+0x1aae>
    3a86: 85 14        	sta	$14                     ; 0x2014 <main+0x1a9e>
    3a88: b1 24        	lda	($24),y                 ; 0x2024 <main+0x1aae>
    3a8a: 85 15        	sta	$15                     ; 0x2015 <main+0x1a9f>
    3a8c: b2 24        	lda	($24)                   ; 0x2024 <main+0x1aae>
    3a8e: 85 16        	sta	$16                     ; 0x2016 <main+0x1aa0>
    3a90: b1 24        	lda	($24),y                 ; 0x2024 <main+0x1aae>
    3a92: 85 18        	sta	$18                     ; 0x2018 <main+0x1aa2>
    3a94: a0 01        	ldy	#$1
    3a96: 18           	clc
    3a97: a5 16        	lda	$16                     ; 0x2016 <main+0x1aa0>
    3a99: 69 e6        	adc	#$e6
    3a9b: 85 17        	sta	$17                     ; 0x2017 <main+0x1aa1>
    3a9d: a5 18        	lda	$18                     ; 0x2018 <main+0x1aa2>
    3a9f: 69 11        	adc	#$11
    3aa1: aa           	tax
    3aa2: b2 12        	lda	($12)                   ; 0x2012 <main+0x1a9c>
    3aa4: 85 16        	sta	$16                     ; 0x2016 <main+0x1aa0>
    3aa6: a5 17        	lda	$17                     ; 0x2017 <main+0x1aa1>
    3aa8: 85 12        	sta	$12                     ; 0x2012 <main+0x1a9c>
    3aaa: b1 14        	lda	($14),y                 ; 0x2014 <main+0x1a9e>
    3aac: 86 13        	stx	$13                     ; 0x2013 <main+0x1a9d>
    3aae: 18           	clc
    3aaf: 72 12        	adc	($12)                   ; 0x2012 <main+0x1a9c>
    3ab1: aa           	tax
    3ab2: a5 16        	lda	$16                     ; 0x2016 <main+0x1aa0>
    3ab4: 20 89 2c     	jsr	$2c89 <textGotoXY>
    3ab7: a9 fa        	lda	#$fa
    3ab9: 92 10        	sta	($10)                   ; 0x2010 <main+0x1a9a>
    3abb: a9 00        	lda	#$0
    3abd: a0 01        	ldy	#$1
    3abf: 91 10        	sta	($10),y                 ; 0x2010 <main+0x1a9a>
    3ac1: a2 06        	ldx	#$6
    3ac3: 86 12        	stx	$12                     ; 0x2012 <main+0x1a9c>
    3ac5: a2 5d        	ldx	#$5d
    3ac7: 86 13        	stx	$13                     ; 0x2013 <main+0x1a9d>
    3ac9: 20 ef 54     	jsr	$54ef <printf>
    3acc: 4c d7 3c     	jmp	$3cd7 <pickFile+0xc12>
    3acf: 18           	clc
    3ad0: a5 10        	lda	$10                     ; 0x2010 <main+0x1a9a>
    3ad2: 69 07        	adc	#$7
    3ad4: 85 14        	sta	$14                     ; 0x2014 <main+0x1a9e>
    3ad6: a5 11        	lda	$11                     ; 0x2011 <main+0x1a9b>
    3ad8: 69 00        	adc	#$0
    3ada: 85 15        	sta	$15                     ; 0x2015 <main+0x1a9f>
    3adc: b2 14        	lda	($14)                   ; 0x2014 <main+0x1a9e>
    3ade: 85 12        	sta	$12                     ; 0x2012 <main+0x1a9c>
    3ae0: a0 01        	ldy	#$1
    3ae2: b1 14        	lda	($14),y                 ; 0x2014 <main+0x1a9e>
    3ae4: aa           	tax
    3ae5: 18           	clc
    3ae6: a5 12        	lda	$12                     ; 0x2012 <main+0x1a9c>
    3ae8: 69 e2        	adc	#$e2
    3aea: 85 12        	sta	$12                     ; 0x2012 <main+0x1a9c>
    3aec: 8a           	txa
    3aed: 69 11        	adc	#$11
    3aef: 85 13        	sta	$13                     ; 0x2013 <main+0x1a9d>
    3af1: b2 14        	lda	($14)                   ; 0x2014 <main+0x1a9e>
    3af3: 85 17        	sta	$17                     ; 0x2017 <main+0x1aa1>
    3af5: b1 14        	lda	($14),y                 ; 0x2014 <main+0x1a9e>
    3af7: 85 16        	sta	$16                     ; 0x2016 <main+0x1aa0>
    3af9: 18           	clc
    3afa: a5 17        	lda	$17                     ; 0x2017 <main+0x1aa1>
    3afc: 69 e4        	adc	#$e4
    3afe: aa           	tax
    3aff: a5 16        	lda	$16                     ; 0x2016 <main+0x1aa0>
    3b01: 69 11        	adc	#$11
    3b03: 86 16        	stx	$16                     ; 0x2016 <main+0x1aa0>
    3b05: 85 17        	sta	$17                     ; 0x2017 <main+0x1aa1>
    3b07: b2 16        	lda	($16)                   ; 0x2016 <main+0x1aa0>
    3b09: 85 18        	sta	$18                     ; 0x2018 <main+0x1aa2>
    3b0b: b2 14        	lda	($14)                   ; 0x2014 <main+0x1a9e>
    3b0d: 85 19        	sta	$19                     ; 0x2019 <main+0x1aa3>
    3b0f: b1 14        	lda	($14),y                 ; 0x2014 <main+0x1a9e>
    3b11: 85 15        	sta	$15                     ; 0x2015 <main+0x1a9f>
    3b13: 18           	clc
    3b14: a5 19        	lda	$19                     ; 0x2019 <main+0x1aa3>
    3b16: 69 e6        	adc	#$e6
    3b18: 85 14        	sta	$14                     ; 0x2014 <main+0x1a9e>
    3b1a: a5 15        	lda	$15                     ; 0x2015 <main+0x1a9f>
    3b1c: 69 11        	adc	#$11
    3b1e: 85 15        	sta	$15                     ; 0x2015 <main+0x1a9f>
    3b20: b1 16        	lda	($16),y                 ; 0x2016 <main+0x1aa0>
    3b22: 85 17        	sta	$17                     ; 0x2017 <main+0x1aa1>
    3b24: 38           	sec
    3b25: a5 18        	lda	$18                     ; 0x2018 <main+0x1aa2>
    3b27: f2 14        	sbc	($14)                   ; 0x2014 <main+0x1a9e>
    3b29: 85 16        	sta	$16                     ; 0x2016 <main+0x1aa0>
    3b2b: a5 17        	lda	$17                     ; 0x2017 <main+0x1aa1>
    3b2d: f1 14        	sbc	($14),y                 ; 0x2014 <main+0x1a9e>
    3b2f: 85 15        	sta	$15                     ; 0x2015 <main+0x1a9f>
    3b31: 18           	clc
    3b32: a5 16        	lda	$16                     ; 0x2016 <main+0x1aa0>
    3b34: 69 0c        	adc	#$c
    3b36: 85 14        	sta	$14                     ; 0x2014 <main+0x1a9e>
    3b38: a5 15        	lda	$15                     ; 0x2015 <main+0x1a9f>
    3b3a: 69 00        	adc	#$0
    3b3c: aa           	tax
    3b3d: a5 14        	lda	$14                     ; 0x2014 <main+0x1a9e>
    3b3f: d2 12        	cmp	($12)                   ; 0x2012 <main+0x1a9c>
    3b41: 8a           	txa
    3b42: f1 12        	sbc	($12),y                 ; 0x2012 <main+0x1a9c>
    3b44: 70 02        	bvs	$3b48 <pickFile+0xa83>
    3b46: 80 04        	bra	$3b4c <pickFile+0xa87>
    3b48: 49 80        	eor	#$80
    3b4a: 80 02        	bra	$3b4e <pickFile+0xa89>
    3b4c: 80 00        	bra	$3b4e <pickFile+0xa89>
    3b4e: aa           	tax
    3b4f: 30 03        	bmi	$3b54 <pickFile+0xa8f>
    3b51: 4c d7 3c     	jmp	$3cd7 <pickFile+0xc12>
    3b54: 18           	clc
    3b55: a5 10        	lda	$10                     ; 0x2010 <main+0x1a9a>
    3b57: 69 07        	adc	#$7
    3b59: 85 24        	sta	$24                     ; 0x2024 <main+0x1aae>
    3b5b: a5 11        	lda	$11                     ; 0x2011 <main+0x1a9b>
    3b5d: 69 00        	adc	#$0
    3b5f: 85 25        	sta	$25                     ; 0x2025 <main+0x1aaf>
    3b61: b2 24        	lda	($24)                   ; 0x2024 <main+0x1aae>
    3b63: 85 12        	sta	$12                     ; 0x2012 <main+0x1a9c>
    3b65: a0 01        	ldy	#$1
    3b67: b1 24        	lda	($24),y                 ; 0x2024 <main+0x1aae>
    3b69: 85 13        	sta	$13                     ; 0x2013 <main+0x1a9d>
    3b6b: b2 12        	lda	($12)                   ; 0x2012 <main+0x1a9c>
    3b6d: 85 14        	sta	$14                     ; 0x2014 <main+0x1a9e>
    3b6f: b2 24        	lda	($24)                   ; 0x2024 <main+0x1aae>
    3b71: 85 12        	sta	$12                     ; 0x2012 <main+0x1a9c>
    3b73: b1 24        	lda	($24),y                 ; 0x2024 <main+0x1aae>
    3b75: 85 13        	sta	$13                     ; 0x2013 <main+0x1a9d>
    3b77: b2 24        	lda	($24)                   ; 0x2024 <main+0x1aae>
    3b79: 85 16        	sta	$16                     ; 0x2016 <main+0x1aa0>
    3b7b: b1 24        	lda	($24),y                 ; 0x2024 <main+0x1aae>
    3b7d: 85 15        	sta	$15                     ; 0x2015 <main+0x1a9f>
    3b7f: 18           	clc
    3b80: a5 16        	lda	$16                     ; 0x2016 <main+0x1aa0>
    3b82: 69 e6        	adc	#$e6
    3b84: aa           	tax
    3b85: a5 15        	lda	$15                     ; 0x2015 <main+0x1a9f>
    3b87: 69 11        	adc	#$11
    3b89: 85 15        	sta	$15                     ; 0x2015 <main+0x1a9f>
    3b8b: b1 12        	lda	($12),y                 ; 0x2012 <main+0x1a9c>
    3b8d: 86 12        	stx	$12                     ; 0x2012 <main+0x1a9c>
    3b8f: a6 15        	ldx	$15                     ; 0x2015 <main+0x1a9f>
    3b91: 86 13        	stx	$13                     ; 0x2013 <main+0x1a9d>
    3b93: 18           	clc
    3b94: 72 12        	adc	($12)                   ; 0x2012 <main+0x1a9c>
    3b96: aa           	tax
    3b97: a5 14        	lda	$14                     ; 0x2014 <main+0x1a9e>
    3b99: 20 89 2c     	jsr	$2c89 <textGotoXY>
    3b9c: a9 20        	lda	#$20
    3b9e: 92 10        	sta	($10)                   ; 0x2010 <main+0x1a9a>
    3ba0: a9 00        	lda	#$0
    3ba2: a0 01        	ldy	#$1
    3ba4: 91 10        	sta	($10),y                 ; 0x2010 <main+0x1a9a>
    3ba6: a2 06        	ldx	#$6
    3ba8: 86 12        	stx	$12                     ; 0x2012 <main+0x1a9c>
    3baa: a2 5d        	ldx	#$5d
    3bac: 86 13        	stx	$13                     ; 0x2013 <main+0x1a9d>
    3bae: 20 ef 54     	jsr	$54ef <printf>
    3bb1: b2 24        	lda	($24)                   ; 0x2024 <main+0x1aae>
    3bb3: 85 13        	sta	$13                     ; 0x2013 <main+0x1a9d>
    3bb5: a0 01        	ldy	#$1
    3bb7: b1 24        	lda	($24),y                 ; 0x2024 <main+0x1aae>
    3bb9: 85 12        	sta	$12                     ; 0x2012 <main+0x1a9c>
    3bbb: 18           	clc
    3bbc: a5 13        	lda	$13                     ; 0x2013 <main+0x1a9d>
    3bbe: 69 e6        	adc	#$e6
    3bc0: aa           	tax
    3bc1: a5 12        	lda	$12                     ; 0x2012 <main+0x1a9c>
    3bc3: 69 11        	adc	#$11
    3bc5: 86 12        	stx	$12                     ; 0x2012 <main+0x1a9c>
    3bc7: 85 13        	sta	$13                     ; 0x2013 <main+0x1a9d>
    3bc9: 38           	sec
    3bca: a9 0b        	lda	#$b
    3bcc: f2 12        	sbc	($12)                   ; 0x2012 <main+0x1a9c>
    3bce: aa           	tax
    3bcf: a9 00        	lda	#$0
    3bd1: f1 12        	sbc	($12),y                 ; 0x2012 <main+0x1a9c>
    3bd3: 85 15        	sta	$15                     ; 0x2015 <main+0x1a9f>
    3bd5: b2 24        	lda	($24)                   ; 0x2024 <main+0x1aae>
    3bd7: 85 13        	sta	$13                     ; 0x2013 <main+0x1a9d>
    3bd9: b1 24        	lda	($24),y                 ; 0x2024 <main+0x1aae>
    3bdb: 85 12        	sta	$12                     ; 0x2012 <main+0x1a9c>
    3bdd: 18           	clc
    3bde: a5 13        	lda	$13                     ; 0x2013 <main+0x1a9d>
    3be0: 69 e4        	adc	#$e4
    3be2: 85 14        	sta	$14                     ; 0x2014 <main+0x1a9e>
    3be4: a5 12        	lda	$12                     ; 0x2012 <main+0x1a9c>
    3be6: 69 11        	adc	#$11
    3be8: 5a           	phy
    3be9: a4 14        	ldy	$14                     ; 0x2014 <main+0x1a9e>
    3beb: 84 12        	sty	$12                     ; 0x2012 <main+0x1a9c>
    3bed: 7a           	ply
    3bee: 85 13        	sta	$13                     ; 0x2013 <main+0x1a9d>
    3bf0: 18           	clc
    3bf1: 8a           	txa
    3bf2: 72 12        	adc	($12)                   ; 0x2012 <main+0x1a9c>
    3bf4: 85 14        	sta	$14                     ; 0x2014 <main+0x1a9e>
    3bf6: a5 15        	lda	$15                     ; 0x2015 <main+0x1a9f>
    3bf8: 71 12        	adc	($12),y                 ; 0x2012 <main+0x1a9c>
    3bfa: 85 15        	sta	$15                     ; 0x2015 <main+0x1a9f>
    3bfc: a5 14        	lda	$14                     ; 0x2014 <main+0x1a9e>
    3bfe: 92 12        	sta	($12)                   ; 0x2012 <main+0x1a9c>
    3c00: a5 15        	lda	$15                     ; 0x2015 <main+0x1a9f>
    3c02: 91 12        	sta	($12),y                 ; 0x2012 <main+0x1a9c>
    3c04: b2 24        	lda	($24)                   ; 0x2024 <main+0x1aae>
    3c06: 85 13        	sta	$13                     ; 0x2013 <main+0x1a9d>
    3c08: b1 24        	lda	($24),y                 ; 0x2024 <main+0x1aae>
    3c0a: 85 12        	sta	$12                     ; 0x2012 <main+0x1a9c>
    3c0c: 18           	clc
    3c0d: a5 13        	lda	$13                     ; 0x2013 <main+0x1a9d>
    3c0f: 69 e6        	adc	#$e6
    3c11: aa           	tax
    3c12: a5 12        	lda	$12                     ; 0x2012 <main+0x1a9c>
    3c14: 69 11        	adc	#$11
    3c16: 86 12        	stx	$12                     ; 0x2012 <main+0x1a9c>
    3c18: 85 13        	sta	$13                     ; 0x2013 <main+0x1a9d>
    3c1a: a9 00        	lda	#$0
    3c1c: 92 12        	sta	($12)                   ; 0x2012 <main+0x1a9c>
    3c1e: 91 12        	sta	($12),y                 ; 0x2012 <main+0x1a9c>
    3c20: b2 24        	lda	($24)                   ; 0x2024 <main+0x1aae>
    3c22: 85 13        	sta	$13                     ; 0x2013 <main+0x1a9d>
    3c24: b1 24        	lda	($24),y                 ; 0x2024 <main+0x1aae>
    3c26: 85 12        	sta	$12                     ; 0x2012 <main+0x1a9c>
    3c28: 18           	clc
    3c29: a5 13        	lda	$13                     ; 0x2013 <main+0x1a9d>
    3c2b: 69 e8        	adc	#$e8
    3c2d: aa           	tax
    3c2e: a5 12        	lda	$12                     ; 0x2012 <main+0x1a9c>
    3c30: 69 11        	adc	#$11
    3c32: 86 12        	stx	$12                     ; 0x2012 <main+0x1a9c>
    3c34: 85 13        	sta	$13                     ; 0x2013 <main+0x1a9d>
    3c36: b2 12        	lda	($12)                   ; 0x2012 <main+0x1a9c>
    3c38: 85 15        	sta	$15                     ; 0x2015 <main+0x1a9f>
    3c3a: b1 12        	lda	($12),y                 ; 0x2012 <main+0x1a9c>
    3c3c: 85 14        	sta	$14                     ; 0x2014 <main+0x1a9e>
    3c3e: 18           	clc
    3c3f: a5 15        	lda	$15                     ; 0x2015 <main+0x1a9f>
    3c41: 69 0b        	adc	#$b
    3c43: 85 15        	sta	$15                     ; 0x2015 <main+0x1a9f>
    3c45: a5 14        	lda	$14                     ; 0x2014 <main+0x1a9e>
    3c47: 69 00        	adc	#$0
    3c49: aa           	tax
    3c4a: a5 15        	lda	$15                     ; 0x2015 <main+0x1a9f>
    3c4c: 92 12        	sta	($12)                   ; 0x2012 <main+0x1a9c>
    3c4e: 8a           	txa
    3c4f: 91 12        	sta	($12),y                 ; 0x2012 <main+0x1a9c>
    3c51: b2 24        	lda	($24)                   ; 0x2024 <main+0x1aae>
    3c53: 85 12        	sta	$12                     ; 0x2012 <main+0x1a9c>
    3c55: b1 24        	lda	($24),y                 ; 0x2024 <main+0x1aae>
    3c57: 85 13        	sta	$13                     ; 0x2013 <main+0x1a9d>
    3c59: b2 24        	lda	($24)                   ; 0x2024 <main+0x1aae>
    3c5b: 85 15        	sta	$15                     ; 0x2015 <main+0x1a9f>
    3c5d: b1 24        	lda	($24),y                 ; 0x2024 <main+0x1aae>
    3c5f: 85 14        	sta	$14                     ; 0x2014 <main+0x1a9e>
    3c61: a0 01        	ldy	#$1
    3c63: 18           	clc
    3c64: a5 15        	lda	$15                     ; 0x2015 <main+0x1a9f>
    3c66: 69 e8        	adc	#$e8
    3c68: aa           	tax
    3c69: a5 14        	lda	$14                     ; 0x2014 <main+0x1a9e>
    3c6b: 69 11        	adc	#$11
    3c6d: 86 14        	stx	$14                     ; 0x2014 <main+0x1a9e>
    3c6f: 85 15        	sta	$15                     ; 0x2015 <main+0x1a9f>
    3c71: b2 14        	lda	($14)                   ; 0x2014 <main+0x1a9e>
    3c73: 85 16        	sta	$16                     ; 0x2016 <main+0x1aa0>
    3c75: b1 14        	lda	($14),y                 ; 0x2014 <main+0x1a9e>
    3c77: aa           	tax
    3c78: a5 16        	lda	$16                     ; 0x2016 <main+0x1aa0>
    3c7a: 20 12 3d     	jsr	$3d12 <displayFileList>
    3c7d: b2 24        	lda	($24)                   ; 0x2024 <main+0x1aae>
    3c7f: 85 12        	sta	$12                     ; 0x2012 <main+0x1a9c>
    3c81: a0 01        	ldy	#$1
    3c83: b1 24        	lda	($24),y                 ; 0x2024 <main+0x1aae>
    3c85: 85 13        	sta	$13                     ; 0x2013 <main+0x1a9d>
    3c87: b2 24        	lda	($24)                   ; 0x2024 <main+0x1aae>
    3c89: 85 14        	sta	$14                     ; 0x2014 <main+0x1a9e>
    3c8b: b1 24        	lda	($24),y                 ; 0x2024 <main+0x1aae>
    3c8d: 85 15        	sta	$15                     ; 0x2015 <main+0x1a9f>
    3c8f: b2 24        	lda	($24)                   ; 0x2024 <main+0x1aae>
    3c91: 85 16        	sta	$16                     ; 0x2016 <main+0x1aa0>
    3c93: b1 24        	lda	($24),y                 ; 0x2024 <main+0x1aae>
    3c95: 85 18        	sta	$18                     ; 0x2018 <main+0x1aa2>
    3c97: a0 01        	ldy	#$1
    3c99: a2 08        	ldx	#$8
    3c9b: 86 26        	stx	$26                     ; 0x2026 <main+0x1ab0>
    3c9d: a2 00        	ldx	#$0
    3c9f: 86 27        	stx	$27                     ; 0x2027 <main+0x1ab1>
    3ca1: 18           	clc
    3ca2: a5 16        	lda	$16                     ; 0x2016 <main+0x1aa0>
    3ca4: 69 e6        	adc	#$e6
    3ca6: 85 17        	sta	$17                     ; 0x2017 <main+0x1aa1>
    3ca8: a5 18        	lda	$18                     ; 0x2018 <main+0x1aa2>
    3caa: 69 11        	adc	#$11
    3cac: aa           	tax
    3cad: b2 12        	lda	($12)                   ; 0x2012 <main+0x1a9c>
    3caf: 85 16        	sta	$16                     ; 0x2016 <main+0x1aa0>
    3cb1: a5 17        	lda	$17                     ; 0x2017 <main+0x1aa1>
    3cb3: 85 12        	sta	$12                     ; 0x2012 <main+0x1a9c>
    3cb5: b1 14        	lda	($14),y                 ; 0x2014 <main+0x1a9e>
    3cb7: 86 13        	stx	$13                     ; 0x2013 <main+0x1a9d>
    3cb9: 18           	clc
    3cba: 72 12        	adc	($12)                   ; 0x2012 <main+0x1a9c>
    3cbc: aa           	tax
    3cbd: a5 16        	lda	$16                     ; 0x2016 <main+0x1aa0>
    3cbf: 20 89 2c     	jsr	$2c89 <textGotoXY>
    3cc2: a9 fa        	lda	#$fa
    3cc4: 92 10        	sta	($10)                   ; 0x2010 <main+0x1a9a>
    3cc6: a9 00        	lda	#$0
    3cc8: a0 01        	ldy	#$1
    3cca: 91 10        	sta	($10),y                 ; 0x2010 <main+0x1a9a>
    3ccc: a2 06        	ldx	#$6
    3cce: 86 12        	stx	$12                     ; 0x2012 <main+0x1a9c>
    3cd0: a2 5d        	ldx	#$5d
    3cd2: 86 13        	stx	$13                     ; 0x2013 <main+0x1a9d>
    3cd4: 20 ef 54     	jsr	$54ef <printf>
    3cd7: 4c 09 31     	jmp	$3109 <pickFile+0x44>
    3cda: 18           	clc
    3cdb: a5 10        	lda	$10                     ; 0x2010 <main+0x1a9a>
    3cdd: 69 09        	adc	#$9
    3cdf: 85 12        	sta	$12                     ; 0x2012 <main+0x1a9c>
    3ce1: a5 11        	lda	$11                     ; 0x2011 <main+0x1a9b>
    3ce3: 69 00        	adc	#$0
    3ce5: 85 13        	sta	$13                     ; 0x2013 <main+0x1a9d>
    3ce7: b2 12        	lda	($12)                   ; 0x2012 <main+0x1a9c>
    3ce9: 85 20        	sta	$20                     ; 0x2020 <main+0x1aaa>
    3ceb: a0 02        	ldy	#$2
    3ced: b1 10        	lda	($10),y                 ; 0x2010 <main+0x1a9a>
    3cef: 85 29        	sta	$29                     ; 0x2029 <main+0x1ab3>
    3cf1: c8           	iny
    3cf2: b1 10        	lda	($10),y                 ; 0x2010 <main+0x1a9a>
    3cf4: 85 28        	sta	$28                     ; 0x2028 <main+0x1ab2>
    3cf6: fa           	plx
    3cf7: 86 27        	stx	$27                     ; 0x2027 <main+0x1ab1>
    3cf9: fa           	plx
    3cfa: 86 26        	stx	$26                     ; 0x2026 <main+0x1ab0>
    3cfc: fa           	plx
    3cfd: 86 25        	stx	$25                     ; 0x2025 <main+0x1aaf>
    3cff: fa           	plx
    3d00: 86 24        	stx	$24                     ; 0x2024 <main+0x1aae>
    3d02: 18           	clc
    3d03: a5 10        	lda	$10                     ; 0x2010 <main+0x1a9a>
    3d05: 69 0a        	adc	#$a
    3d07: 85 10        	sta	$10                     ; 0x2010 <main+0x1a9a>
    3d09: a5 11        	lda	$11                     ; 0x2011 <main+0x1a9b>
    3d0b: 69 00        	adc	#$0
    3d0d: 85 11        	sta	$11                     ; 0x2011 <main+0x1a9b>
    3d0f: a5 20        	lda	$20                     ; 0x2020 <main+0x1aaa>
    3d11: 60           	rts

00003d12 <displayFileList>:
    3d12: 48           	pha
    3d13: 18           	clc
    3d14: a5 10        	lda	$10                     ; 0x2010 <main+0x1a9a>
    3d16: 69 fa        	adc	#$fa
    3d18: 85 10        	sta	$10                     ; 0x2010 <main+0x1a9a>
    3d1a: a5 11        	lda	$11                     ; 0x2011 <main+0x1a9b>
    3d1c: 69 ff        	adc	#$ff
    3d1e: 85 11        	sta	$11                     ; 0x2011 <main+0x1a9b>
    3d20: 68           	pla
    3d21: 86 69        	stx	$69                     ; 0x2069 <main+0x1af3>
    3d23: a6 12        	ldx	$12                     ; 0x2012 <main+0x1a9c>
    3d25: 86 63        	stx	$63                     ; 0x2063 <main+0x1aed>
    3d27: a6 13        	ldx	$13                     ; 0x2013 <main+0x1a9d>
    3d29: 86 64        	stx	$64                     ; 0x2064 <main+0x1aee>
    3d2b: aa           	tax
    3d2c: 18           	clc
    3d2d: 85 75        	sta	$75                     ; 0x2075 <main+0x1aff>
    3d2f: 69 0c        	adc	#$c
    3d31: 85 13        	sta	$13                     ; 0x2013 <main+0x1a9d>
    3d33: a5 69        	lda	$69                     ; 0x2069 <main+0x1af3>
    3d35: 69 00        	adc	#$0
    3d37: 85 14        	sta	$14                     ; 0x2014 <main+0x1a9e>
    3d39: a5 63        	lda	$63                     ; 0x2063 <main+0x1aed>
    3d3b: 18           	clc
    3d3c: 69 e2        	adc	#$e2
    3d3e: 85 67        	sta	$67                     ; 0x2067 <main+0x1af1>
    3d40: a5 64        	lda	$64                     ; 0x2064 <main+0x1aee>
    3d42: 69 11        	adc	#$11
    3d44: a4 69        	ldy	$69                     ; 0x2069 <main+0x1af3>
    3d46: 84 65        	sty	$65                     ; 0x2065 <main+0x1aef>
    3d48: e8           	inx
    3d49: d0 02        	bne	$3d4d <displayFileList+0x3b>
    3d4b: e6 65        	inc	$65                     ; 0x2065 <main+0x1aef>
    3d4d: 85 68        	sta	$68                     ; 0x2068 <main+0x1af2>
    3d4f: a0 01        	ldy	#$1
    3d51: b1 67        	lda	($67),y                 ; 0x2067 <main+0x1af1>
    3d53: 85 12        	sta	$12                     ; 0x2012 <main+0x1a9c>
    3d55: a5 13        	lda	$13                     ; 0x2013 <main+0x1a9d>
    3d57: a4 13        	ldy	$13                     ; 0x2013 <main+0x1a9d>
    3d59: 84 6f        	sty	$6f                     ; 0x206f <main+0x1af9>
    3d5b: d2 67        	cmp	($67)                   ; 0x2067 <main+0x1af1>
    3d5d: a5 14        	lda	$14                     ; 0x2014 <main+0x1a9e>
    3d5f: a4 14        	ldy	$14                     ; 0x2014 <main+0x1a9e>
    3d61: 84 70        	sty	$70                     ; 0x2070 <main+0x1afa>
    3d63: e5 12        	sbc	$12                     ; 0x2012 <main+0x1a9c>
    3d65: 50 02        	bvc	$3d69 <displayFileList+0x57>
    3d67: 49 80        	eor	#$80
    3d69: 86 66        	stx	$66                     ; 0x2066 <main+0x1af0>
    3d6b: aa           	tax
    3d6c: 30 08        	bmi	$3d76 <displayFileList+0x64>
    3d6e: b2 67        	lda	($67)                   ; 0x2067 <main+0x1af1>
    3d70: 85 6f        	sta	$6f                     ; 0x206f <main+0x1af9>
    3d72: a6 12        	ldx	$12                     ; 0x2012 <main+0x1a9c>
    3d74: 86 70        	stx	$70                     ; 0x2070 <main+0x1afa>
    3d76: b2 63        	lda	($63)                   ; 0x2063 <main+0x1aed>
    3d78: 85 12        	sta	$12                     ; 0x2012 <main+0x1a9c>
    3d7a: a0 01        	ldy	#$1
    3d7c: b1 63        	lda	($63),y                 ; 0x2063 <main+0x1aed>
    3d7e: a4 12        	ldy	$12                     ; 0x2012 <main+0x1a9c>
    3d80: 84 44        	sty	$44                     ; 0x2044 <main+0x1ace>
    3d82: 8c 14 d0     	sty	$d014                   ; 0xd014 <__heap_start+0x5e80>
    3d85: 9c 15 d0     	stz	$d015                   ; 0xd015 <__heap_start+0x5e81>
    3d88: 85 45        	sta	$45                     ; 0x2045 <main+0x1acf>
    3d8a: 8d 16 d0     	sta	$d016                   ; 0xd016 <__heap_start+0x5e82>
    3d8d: 9c 17 d0     	stz	$d017                   ; 0xd017 <__heap_start+0x5e83>
    3d90: a2 00        	ldx	#$0
    3d92: 80 1c        	bra	$3db0 <displayFileList+0x9e>
    3d94: e4 12        	cpx	$12                     ; 0x2012 <main+0x1a9c>
    3d96: a5 6b        	lda	$6b                     ; 0x206b <main+0x1af5>
    3d98: 90 1c        	bcc	$3db6 <displayFileList+0xa4>
    3d9a: a2 0a        	ldx	#$a
    3d9c: 86 52        	stx	$52                     ; 0x2052 <main+0x1adc>
    3d9e: a2 52        	ldx	#$52
    3da0: 86 12        	stx	$12                     ; 0x2012 <main+0x1a9c>
    3da2: a2 00        	ldx	#$0
    3da4: 86 13        	stx	$13                     ; 0x2013 <main+0x1a9d>
    3da6: 20 a2 2a     	jsr	$2aa2 <textPrint>
    3da9: a6 6a        	ldx	$6a                     ; 0x206a <main+0x1af4>
    3dab: e8           	inx
    3dac: e0 0d        	cpx	#$d
    3dae: f0 36        	beq	$3de6 <displayFileList+0xd4>
    3db0: 86 6a        	stx	$6a                     ; 0x206a <main+0x1af4>
    3db2: a0 01        	ldy	#$1
    3db4: b1 63        	lda	($63),y                 ; 0x2063 <main+0x1aed>
    3db6: 1a           	inc
    3db7: a2 20        	ldx	#$20
    3db9: 86 52        	stx	$52                     ; 0x2052 <main+0x1adc>
    3dbb: a2 52        	ldx	#$52
    3dbd: 86 12        	stx	$12                     ; 0x2012 <main+0x1a9c>
    3dbf: a2 00        	ldx	#$0
    3dc1: 86 13        	stx	$13                     ; 0x2013 <main+0x1a9d>
    3dc3: 85 6b        	sta	$6b                     ; 0x206b <main+0x1af5>
    3dc5: 20 a2 2a     	jsr	$2aa2 <textPrint>
    3dc8: a0 01        	ldy	#$1
    3dca: b1 63        	lda	($63),y                 ; 0x2063 <main+0x1aed>
    3dcc: 18           	clc
    3dcd: 69 2c        	adc	#$2c
    3dcf: a8           	tay
    3dd0: a9 00        	lda	#$0
    3dd2: 69 00        	adc	#$0
    3dd4: 85 12        	sta	$12                     ; 0x2012 <main+0x1a9c>
    3dd6: a2 00        	ldx	#$0
    3dd8: e4 12        	cpx	$12                     ; 0x2012 <main+0x1a9c>
    3dda: d0 b8        	bne	$3d94 <displayFileList+0x82>
    3ddc: 84 12        	sty	$12                     ; 0x2012 <main+0x1a9c>
    3dde: a5 6b        	lda	$6b                     ; 0x206b <main+0x1af5>
    3de0: c5 12        	cmp	$12                     ; 0x2012 <main+0x1a9c>
    3de2: 90 d2        	bcc	$3db6 <displayFileList+0xa4>
    3de4: 80 b4        	bra	$3d9a <displayFileList+0x88>
    3de6: a6 67        	ldx	$67                     ; 0x2067 <main+0x1af1>
    3de8: 86 12        	stx	$12                     ; 0x2012 <main+0x1a9c>
    3dea: a6 68        	ldx	$68                     ; 0x2068 <main+0x1af2>
    3dec: 86 13        	stx	$13                     ; 0x2013 <main+0x1a9d>
    3dee: a6 12        	ldx	$12                     ; 0x2012 <main+0x1a9c>
    3df0: 86 71        	stx	$71                     ; 0x2071 <main+0x1afb>
    3df2: a6 13        	ldx	$13                     ; 0x2013 <main+0x1a9d>
    3df4: 86 72        	stx	$72                     ; 0x2072 <main+0x1afc>
    3df6: b2 63        	lda	($63)                   ; 0x2063 <main+0x1aed>
    3df8: 85 12        	sta	$12                     ; 0x2012 <main+0x1a9c>
    3dfa: a0 01        	ldy	#$1
    3dfc: b1 63        	lda	($63),y                 ; 0x2063 <main+0x1aed>
    3dfe: aa           	tax
    3dff: a5 12        	lda	$12                     ; 0x2012 <main+0x1a9c>
    3e01: 85 44        	sta	$44                     ; 0x2044 <main+0x1ace>
    3e03: 8d 14 d0     	sta	$d014                   ; 0xd014 <__heap_start+0x5e80>
    3e06: 9c 15 d0     	stz	$d015                   ; 0xd015 <__heap_start+0x5e81>
    3e09: 86 45        	stx	$45                     ; 0x2045 <main+0x1acf>
    3e0b: 8e 16 d0     	stx	$d016                   ; 0xd016 <__heap_start+0x5e82>
    3e0e: a5 63        	lda	$63                     ; 0x2063 <main+0x1aed>
    3e10: 18           	clc
    3e11: 69 e6        	adc	#$e6
    3e13: 85 14        	sta	$14                     ; 0x2014 <main+0x1a9e>
    3e15: a5 64        	lda	$64                     ; 0x2064 <main+0x1aee>
    3e17: 69 11        	adc	#$11
    3e19: 64 16        	stz	$16                     ; 0x2016 <main+0x1aa0>
    3e1b: 9c 17 d0     	stz	$d017                   ; 0xd017 <__heap_start+0x5e83>
    3e1e: 85 15        	sta	$15                     ; 0x2015 <main+0x1a9f>
    3e20: b2 14        	lda	($14)                   ; 0x2014 <main+0x1a9e>
    3e22: 85 17        	sta	$17                     ; 0x2017 <main+0x1aa1>
    3e24: a6 14        	ldx	$14                     ; 0x2014 <main+0x1a9e>
    3e26: 86 12        	stx	$12                     ; 0x2012 <main+0x1a9c>
    3e28: a6 15        	ldx	$15                     ; 0x2015 <main+0x1a9f>
    3e2a: 86 13        	stx	$13                     ; 0x2013 <main+0x1a9d>
    3e2c: a6 12        	ldx	$12                     ; 0x2012 <main+0x1a9c>
    3e2e: 86 73        	stx	$73                     ; 0x2073 <main+0x1afd>
    3e30: a6 13        	ldx	$13                     ; 0x2013 <main+0x1a9d>
    3e32: 86 74        	stx	$74                     ; 0x2074 <main+0x1afe>
    3e34: b1 14        	lda	($14),y                 ; 0x2014 <main+0x1a9e>
    3e36: d0 07        	bne	$3e3f <displayFileList+0x12d>
    3e38: a5 17        	lda	$17                     ; 0x2017 <main+0x1aa1>
    3e3a: d0 03        	bne	$3e3f <displayFileList+0x12d>
    3e3c: 4c b5 40     	jmp	$40b5 <displayFileList+0x3a3>
    3e3f: a0 20        	ldy	#$20
    3e41: a5 63        	lda	$63                     ; 0x2063 <main+0x1aed>
    3e43: 18           	clc
    3e44: 69 4e        	adc	#$4e
    3e46: 85 14        	sta	$14                     ; 0x2014 <main+0x1a9e>
    3e48: a5 64        	lda	$64                     ; 0x2064 <main+0x1aee>
    3e4a: 69 00        	adc	#$0
    3e4c: 85 17        	sta	$17                     ; 0x2017 <main+0x1aa1>
    3e4e: 18           	clc
    3e4f: a5 63        	lda	$63                     ; 0x2063 <main+0x1aed>
    3e51: 69 7e        	adc	#$7e
    3e53: aa           	tax
    3e54: a5 64        	lda	$64                     ; 0x2064 <main+0x1aee>
    3e56: 69 11        	adc	#$11
    3e58: 86 12        	stx	$12                     ; 0x2012 <main+0x1a9c>
    3e5a: 85 13        	sta	$13                     ; 0x2013 <main+0x1a9d>
    3e5c: b2 12        	lda	($12)                   ; 0x2012 <main+0x1a9c>
    3e5e: 29 01        	and	#$1
    3e60: a2 e1        	ldx	#$e1
    3e62: 86 12        	stx	$12                     ; 0x2012 <main+0x1a9c>
    3e64: a2 5b        	ldx	#$5b
    3e66: 86 13        	stx	$13                     ; 0x2013 <main+0x1a9d>
    3e68: aa           	tax
    3e69: d0 08        	bne	$3e73 <displayFileList+0x161>
    3e6b: a2 09        	ldx	#$9
    3e6d: 86 12        	stx	$12                     ; 0x2012 <main+0x1a9c>
    3e6f: a2 5b        	ldx	#$5b
    3e71: 86 13        	stx	$13                     ; 0x2013 <main+0x1a9d>
    3e73: a6 10        	ldx	$10                     ; 0x2010 <main+0x1a9a>
    3e75: 98           	tya
    3e76: 92 10        	sta	($10)                   ; 0x2010 <main+0x1a9a>
    3e78: a0 01        	ldy	#$1
    3e7a: a9 00        	lda	#$0
    3e7c: 91 10        	sta	($10),y                 ; 0x2010 <main+0x1a9a>
    3e7e: c8           	iny
    3e7f: a5 14        	lda	$14                     ; 0x2014 <main+0x1a9e>
    3e81: 91 10        	sta	($10),y                 ; 0x2010 <main+0x1a9a>
    3e83: 8a           	txa
    3e84: 18           	clc
    3e85: 69 02        	adc	#$2
    3e87: 85 14        	sta	$14                     ; 0x2014 <main+0x1a9e>
    3e89: a5 11        	lda	$11                     ; 0x2011 <main+0x1a9b>
    3e8b: 69 00        	adc	#$0
    3e8d: 18           	clc
    3e8e: 85 15        	sta	$15                     ; 0x2015 <main+0x1a9f>
    3e90: a5 17        	lda	$17                     ; 0x2017 <main+0x1aa1>
    3e92: 88           	dey
    3e93: 91 14        	sta	($14),y                 ; 0x2014 <main+0x1a9e>
    3e95: 8a           	txa
    3e96: 69 04        	adc	#$4
    3e98: 85 14        	sta	$14                     ; 0x2014 <main+0x1a9e>
    3e9a: a5 11        	lda	$11                     ; 0x2011 <main+0x1a9b>
    3e9c: 69 00        	adc	#$0
    3e9e: 85 15        	sta	$15                     ; 0x2015 <main+0x1a9f>
    3ea0: a5 12        	lda	$12                     ; 0x2012 <main+0x1a9c>
    3ea2: a0 04        	ldy	#$4
    3ea4: 91 10        	sta	($10),y                 ; 0x2010 <main+0x1a9a>
    3ea6: a0 01        	ldy	#$1
    3ea8: a5 13        	lda	$13                     ; 0x2013 <main+0x1a9d>
    3eaa: 91 14        	sta	($14),y                 ; 0x2014 <main+0x1a9e>
    3eac: a2 64        	ldx	#$64
    3eae: 86 12        	stx	$12                     ; 0x2012 <main+0x1a9c>
    3eb0: a2 5d        	ldx	#$5d
    3eb2: 86 13        	stx	$13                     ; 0x2013 <main+0x1a9d>
    3eb4: 20 ef 54     	jsr	$54ef <printf>
    3eb7: a6 6f        	ldx	$6f                     ; 0x206f <main+0x1af9>
    3eb9: 86 12        	stx	$12                     ; 0x2012 <main+0x1a9c>
    3ebb: a6 66        	ldx	$66                     ; 0x2066 <main+0x1af0>
    3ebd: e4 12        	cpx	$12                     ; 0x2012 <main+0x1a9c>
    3ebf: a6 70        	ldx	$70                     ; 0x2070 <main+0x1afa>
    3ec1: 86 12        	stx	$12                     ; 0x2012 <main+0x1a9c>
    3ec3: a5 65        	lda	$65                     ; 0x2065 <main+0x1aef>
    3ec5: e5 12        	sbc	$12                     ; 0x2012 <main+0x1a9c>
    3ec7: 50 02        	bvc	$3ecb <displayFileList+0x1b9>
    3ec9: 49 80        	eor	#$80
    3ecb: aa           	tax
    3ecc: 30 03        	bmi	$3ed1 <displayFileList+0x1bf>
    3ece: 4c f4 3f     	jmp	$3ff4 <displayFileList+0x2e2>
    3ed1: 18           	clc
    3ed2: a5 63        	lda	$63                     ; 0x2063 <main+0x1aed>
    3ed4: 69 e4        	adc	#$e4
    3ed6: 85 6b        	sta	$6b                     ; 0x206b <main+0x1af5>
    3ed8: a5 64        	lda	$64                     ; 0x2064 <main+0x1aee>
    3eda: 69 11        	adc	#$11
    3edc: 85 6c        	sta	$6c                     ; 0x206c <main+0x1af6>
    3ede: a4 75        	ldy	$75                     ; 0x2075 <main+0x1aff>
    3ee0: 84 12        	sty	$12                     ; 0x2012 <main+0x1a9c>
    3ee2: a5 63        	lda	$63                     ; 0x2063 <main+0x1aed>
    3ee4: 18           	clc
    3ee5: 65 12        	adc	$12                     ; 0x2012 <main+0x1a9c>
    3ee7: aa           	tax
    3ee8: a5 64        	lda	$64                     ; 0x2064 <main+0x1aee>
    3eea: 65 69        	adc	$69                     ; 0x2069 <main+0x1af3>
    3eec: 85 12        	sta	$12                     ; 0x2012 <main+0x1a9c>
    3eee: 18           	clc
    3eef: 8a           	txa
    3ef0: 69 7f        	adc	#$7f
    3ef2: 85 14        	sta	$14                     ; 0x2014 <main+0x1a9e>
    3ef4: a5 12        	lda	$12                     ; 0x2012 <main+0x1a9c>
    3ef6: 69 11        	adc	#$11
    3ef8: 85 15        	sta	$15                     ; 0x2015 <main+0x1a9f>
    3efa: a2 2c        	ldx	#$2c
    3efc: 64 13        	stz	$13                     ; 0x2013 <main+0x1a9d>
    3efe: 86 12        	stx	$12                     ; 0x2012 <main+0x1a9c>
    3f00: a6 69        	ldx	$69                     ; 0x2069 <main+0x1af3>
    3f02: 5a           	phy
    3f03: a4 14        	ldy	$14                     ; 0x2014 <main+0x1a9e>
    3f05: 84 69        	sty	$69                     ; 0x2069 <main+0x1af3>
    3f07: 7a           	ply
    3f08: 85 6a        	sta	$6a                     ; 0x206a <main+0x1af4>
    3f0a: 98           	tya
    3f0b: 20 fe 59     	jsr	$59fe <__mulhi3>
    3f0e: a4 66        	ldy	$66                     ; 0x2066 <main+0x1af0>
    3f10: 18           	clc
    3f11: 65 63        	adc	$63                     ; 0x2063 <main+0x1aed>
    3f13: 85 13        	sta	$13                     ; 0x2013 <main+0x1a9d>
    3f15: 8a           	txa
    3f16: 65 64        	adc	$64                     ; 0x2064 <main+0x1aee>
    3f18: 85 12        	sta	$12                     ; 0x2012 <main+0x1a9c>
    3f1a: 18           	clc
    3f1b: a5 13        	lda	$13                     ; 0x2013 <main+0x1a9d>
    3f1d: 69 7a        	adc	#$7a
    3f1f: 85 6d        	sta	$6d                     ; 0x206d <main+0x1af7>
    3f21: a5 12        	lda	$12                     ; 0x2012 <main+0x1a9c>
    3f23: 69 00        	adc	#$0
    3f25: 85 6e        	sta	$6e                     ; 0x206e <main+0x1af8>
    3f27: a9 01        	lda	#$1
    3f29: 5a           	phy
    3f2a: fa           	plx
    3f2b: 85 67        	sta	$67                     ; 0x2067 <main+0x1af1>
    3f2d: 18           	clc
    3f2e: a0 01        	ldy	#$1
    3f30: 71 63        	adc	($63),y                 ; 0x2063 <main+0x1aed>
    3f32: 85 13        	sta	$13                     ; 0x2013 <main+0x1a9d>
    3f34: b2 63        	lda	($63)                   ; 0x2063 <main+0x1aed>
    3f36: 85 44        	sta	$44                     ; 0x2044 <main+0x1ace>
    3f38: 8d 14 d0     	sta	$d014                   ; 0xd014 <__heap_start+0x5e80>
    3f3b: 9c 15 d0     	stz	$d015                   ; 0xd015 <__heap_start+0x5e81>
    3f3e: a4 13        	ldy	$13                     ; 0x2013 <main+0x1a9d>
    3f40: 84 45        	sty	$45                     ; 0x2045 <main+0x1acf>
    3f42: 8c 16 d0     	sty	$d016                   ; 0xd016 <__heap_start+0x5e82>
    3f45: 9c 17 d0     	stz	$d017                   ; 0xd017 <__heap_start+0x5e83>
    3f48: a5 65        	lda	$65                     ; 0x2065 <main+0x1aef>
    3f4a: a0 01        	ldy	#$1
    3f4c: d1 6b        	cmp	($6b),y                 ; 0x206b <main+0x1af5>
    3f4e: d0 0e        	bne	$3f5e <displayFileList+0x24c>
    3f50: b2 6b        	lda	($6b)                   ; 0x206b <main+0x1af5>
    3f52: 85 12        	sta	$12                     ; 0x2012 <main+0x1a9c>
    3f54: e4 12        	cpx	$12                     ; 0x2012 <main+0x1a9c>
    3f56: d0 06        	bne	$3f5e <displayFileList+0x24c>
    3f58: 86 66        	stx	$66                     ; 0x2066 <main+0x1af0>
    3f5a: a2 fa        	ldx	#$fa
    3f5c: 80 04        	bra	$3f62 <displayFileList+0x250>
    3f5e: 86 66        	stx	$66                     ; 0x2066 <main+0x1af0>
    3f60: a2 20        	ldx	#$20
    3f62: 86 52        	stx	$52                     ; 0x2052 <main+0x1adc>
    3f64: a2 52        	ldx	#$52
    3f66: 86 12        	stx	$12                     ; 0x2012 <main+0x1a9c>
    3f68: a2 00        	ldx	#$0
    3f6a: 86 13        	stx	$13                     ; 0x2013 <main+0x1a9d>
    3f6c: 20 a2 2a     	jsr	$2aa2 <textPrint>
    3f6f: b2 69        	lda	($69)                   ; 0x2069 <main+0x1af3>
    3f71: 29 01        	and	#$1
    3f73: a2 e1        	ldx	#$e1
    3f75: 86 12        	stx	$12                     ; 0x2012 <main+0x1a9c>
    3f77: a2 5b        	ldx	#$5b
    3f79: 86 13        	stx	$13                     ; 0x2013 <main+0x1a9d>
    3f7b: aa           	tax
    3f7c: d0 08        	bne	$3f86 <displayFileList+0x274>
    3f7e: a2 09        	ldx	#$9
    3f80: 86 12        	stx	$12                     ; 0x2012 <main+0x1a9c>
    3f82: a2 5b        	ldx	#$5b
    3f84: 86 13        	stx	$13                     ; 0x2013 <main+0x1a9d>
    3f86: a5 10        	lda	$10                     ; 0x2010 <main+0x1a9a>
    3f88: a6 11        	ldx	$11                     ; 0x2011 <main+0x1a9b>
    3f8a: 18           	clc
    3f8b: 69 02        	adc	#$2
    3f8d: 85 14        	sta	$14                     ; 0x2014 <main+0x1a9e>
    3f8f: 8a           	txa
    3f90: 69 00        	adc	#$0
    3f92: 85 15        	sta	$15                     ; 0x2015 <main+0x1a9f>
    3f94: a5 12        	lda	$12                     ; 0x2012 <main+0x1a9c>
    3f96: a0 02        	ldy	#$2
    3f98: 91 10        	sta	($10),y                 ; 0x2010 <main+0x1a9a>
    3f9a: a5 13        	lda	$13                     ; 0x2013 <main+0x1a9d>
    3f9c: 88           	dey
    3f9d: 91 14        	sta	($14),y                 ; 0x2014 <main+0x1a9e>
    3f9f: a5 6d        	lda	$6d                     ; 0x206d <main+0x1af7>
    3fa1: 92 10        	sta	($10)                   ; 0x2010 <main+0x1a9a>
    3fa3: a5 6e        	lda	$6e                     ; 0x206e <main+0x1af8>
    3fa5: 91 10        	sta	($10),y                 ; 0x2010 <main+0x1a9a>
    3fa7: a2 93        	ldx	#$93
    3fa9: 86 12        	stx	$12                     ; 0x2012 <main+0x1a9c>
    3fab: a2 5b        	ldx	#$5b
    3fad: 86 13        	stx	$13                     ; 0x2013 <main+0x1a9d>
    3faf: 20 ef 54     	jsr	$54ef <printf>
    3fb2: a6 66        	ldx	$66                     ; 0x2066 <main+0x1af0>
    3fb4: 86 12        	stx	$12                     ; 0x2012 <main+0x1a9c>
    3fb6: a6 65        	ldx	$65                     ; 0x2065 <main+0x1aef>
    3fb8: 86 13        	stx	$13                     ; 0x2013 <main+0x1a9d>
    3fba: e6 12        	inc	$12                     ; 0x2012 <main+0x1a9c>
    3fbc: d0 02        	bne	$3fc0 <displayFileList+0x2ae>
    3fbe: e6 13        	inc	$13                     ; 0x2013 <main+0x1a9d>
    3fc0: e6 69        	inc	$69                     ; 0x2069 <main+0x1af3>
    3fc2: d0 02        	bne	$3fc6 <displayFileList+0x2b4>
    3fc4: e6 6a        	inc	$6a                     ; 0x206a <main+0x1af4>
    3fc6: 18           	clc
    3fc7: a5 6d        	lda	$6d                     ; 0x206d <main+0x1af7>
    3fc9: 69 2c        	adc	#$2c
    3fcb: 85 6d        	sta	$6d                     ; 0x206d <main+0x1af7>
    3fcd: a5 6e        	lda	$6e                     ; 0x206e <main+0x1af8>
    3fcf: 69 00        	adc	#$0
    3fd1: 85 6e        	sta	$6e                     ; 0x206e <main+0x1af8>
    3fd3: a5 67        	lda	$67                     ; 0x2067 <main+0x1af1>
    3fd5: 1a           	inc
    3fd6: a4 12        	ldy	$12                     ; 0x2012 <main+0x1a9c>
    3fd8: a6 13        	ldx	$13                     ; 0x2013 <main+0x1a9d>
    3fda: 86 65        	stx	$65                     ; 0x2065 <main+0x1aef>
    3fdc: a6 70        	ldx	$70                     ; 0x2070 <main+0x1afa>
    3fde: e4 13        	cpx	$13                     ; 0x2013 <main+0x1a9d>
    3fe0: f0 03        	beq	$3fe5 <displayFileList+0x2d3>
    3fe2: 4c 29 3f     	jmp	$3f29 <displayFileList+0x217>
    3fe5: a4 12        	ldy	$12                     ; 0x2012 <main+0x1a9c>
    3fe7: a6 13        	ldx	$13                     ; 0x2013 <main+0x1a9d>
    3fe9: 86 65        	stx	$65                     ; 0x2065 <main+0x1aef>
    3feb: a6 6f        	ldx	$6f                     ; 0x206f <main+0x1af9>
    3fed: e4 12        	cpx	$12                     ; 0x2012 <main+0x1a9c>
    3fef: f0 03        	beq	$3ff4 <displayFileList+0x2e2>
    3ff1: 4c 29 3f     	jmp	$3f29 <displayFileList+0x217>
    3ff4: a5 75        	lda	$75                     ; 0x2075 <main+0x1aff>
    3ff6: 49 ff        	eor	#$ff
    3ff8: 85 12        	sta	$12                     ; 0x2012 <main+0x1a9c>
    3ffa: a9 02        	lda	#$2
    3ffc: 18           	clc
    3ffd: 72 63        	adc	($63)                   ; 0x2063 <main+0x1aed>
    3fff: aa           	tax
    4000: a0 01        	ldy	#$1
    4002: 18           	clc
    4003: a5 6f        	lda	$6f                     ; 0x206f <main+0x1af9>
    4005: 65 12        	adc	$12                     ; 0x2012 <main+0x1a9c>
    4007: 18           	clc
    4008: 71 63        	adc	($63),y                 ; 0x2063 <main+0x1aed>
    400a: 1a           	inc
    400b: 86 44        	stx	$44                     ; 0x2044 <main+0x1ace>
    400d: 8e 14 d0     	stx	$d014                   ; 0xd014 <__heap_start+0x5e80>
    4010: 9c 15 d0     	stz	$d015                   ; 0xd015 <__heap_start+0x5e81>
    4013: 85 45        	sta	$45                     ; 0x2045 <main+0x1acf>
    4015: 8d 16 d0     	sta	$d016                   ; 0xd016 <__heap_start+0x5e82>
    4018: 9c 17 d0     	stz	$d017                   ; 0xd017 <__heap_start+0x5e83>
    401b: a5 63        	lda	$63                     ; 0x2063 <main+0x1aed>
    401d: 18           	clc
    401e: 69 e4        	adc	#$e4
    4020: 85 12        	sta	$12                     ; 0x2012 <main+0x1a9c>
    4022: a5 64        	lda	$64                     ; 0x2064 <main+0x1aee>
    4024: 69 11        	adc	#$11
    4026: 85 13        	sta	$13                     ; 0x2013 <main+0x1a9d>
    4028: b2 12        	lda	($12)                   ; 0x2012 <main+0x1a9c>
    402a: 85 14        	sta	$14                     ; 0x2014 <main+0x1a9e>
    402c: b1 12        	lda	($12),y                 ; 0x2012 <main+0x1a9c>
    402e: a4 14        	ldy	$14                     ; 0x2014 <main+0x1a9e>
    4030: 84 12        	sty	$12                     ; 0x2012 <main+0x1a9c>
    4032: c0 0b        	cpy	#$b
    4034: aa           	tax
    4035: e9 00        	sbc	#$0
    4037: 50 02        	bvc	$403b <displayFileList+0x329>
    4039: 49 80        	eor	#$80
    403b: a0 fb        	ldy	#$fb
    403d: 84 6f        	sty	$6f                     ; 0x206f <main+0x1af9>
    403f: 64 14        	stz	$14                     ; 0x2014 <main+0x1a9e>
    4041: a8           	tay
    4042: 10 04        	bpl	$4048 <displayFileList+0x336>
    4044: a0 20        	ldy	#$20
    4046: 84 6f        	sty	$6f                     ; 0x206f <main+0x1af9>
    4048: a0 01        	ldy	#$1
    404a: 18           	clc
    404b: a5 12        	lda	$12                     ; 0x2012 <main+0x1a9c>
    404d: 69 0c        	adc	#$c
    404f: 85 15        	sta	$15                     ; 0x2015 <main+0x1a9f>
    4051: 8a           	txa
    4052: 69 00        	adc	#$0
    4054: 85 16        	sta	$16                     ; 0x2016 <main+0x1aa0>
    4056: 38           	sec
    4057: a6 73        	ldx	$73                     ; 0x2073 <main+0x1afd>
    4059: 86 12        	stx	$12                     ; 0x2012 <main+0x1a9c>
    405b: a6 74        	ldx	$74                     ; 0x2074 <main+0x1afe>
    405d: 86 13        	stx	$13                     ; 0x2013 <main+0x1a9d>
    405f: a5 15        	lda	$15                     ; 0x2015 <main+0x1a9f>
    4061: f2 12        	sbc	($12)                   ; 0x2012 <main+0x1a9c>
    4063: 85 15        	sta	$15                     ; 0x2015 <main+0x1a9f>
    4065: a5 16        	lda	$16                     ; 0x2016 <main+0x1aa0>
    4067: f1 12        	sbc	($12),y                 ; 0x2012 <main+0x1a9c>
    4069: 85 16        	sta	$16                     ; 0x2016 <main+0x1aa0>
    406b: a6 71        	ldx	$71                     ; 0x2071 <main+0x1afb>
    406d: 86 12        	stx	$12                     ; 0x2012 <main+0x1a9c>
    406f: a6 72        	ldx	$72                     ; 0x2072 <main+0x1afc>
    4071: 86 13        	stx	$13                     ; 0x2013 <main+0x1a9d>
    4073: a5 15        	lda	$15                     ; 0x2015 <main+0x1a9f>
    4075: d2 12        	cmp	($12)                   ; 0x2012 <main+0x1a9c>
    4077: a5 16        	lda	$16                     ; 0x2016 <main+0x1aa0>
    4079: f1 12        	sbc	($12),y                 ; 0x2012 <main+0x1a9c>
    407b: 50 02        	bvc	$407f <displayFileList+0x36d>
    407d: 49 80        	eor	#$80
    407f: 64 12        	stz	$12                     ; 0x2012 <main+0x1a9c>
    4081: aa           	tax
    4082: 10 04        	bpl	$4088 <displayFileList+0x376>
    4084: a2 f8        	ldx	#$f8
    4086: 80 02        	bra	$408a <displayFileList+0x378>
    4088: a2 20        	ldx	#$20
    408a: a5 6f        	lda	$6f                     ; 0x206f <main+0x1af9>
    408c: 92 10        	sta	($10)                   ; 0x2010 <main+0x1a9a>
    408e: a9 00        	lda	#$0
    4090: 91 10        	sta	($10),y                 ; 0x2010 <main+0x1a9a>
    4092: a0 02        	ldy	#$2
    4094: 8a           	txa
    4095: 91 10        	sta	($10),y                 ; 0x2010 <main+0x1a9a>
    4097: c8           	iny
    4098: a9 00        	lda	#$0
    409a: 91 10        	sta	($10),y                 ; 0x2010 <main+0x1a9a>
    409c: a2 a3        	ldx	#$a3
    409e: 86 12        	stx	$12                     ; 0x2012 <main+0x1a9c>
    40a0: a2 5d        	ldx	#$5d
    40a2: 86 13        	stx	$13                     ; 0x2013 <main+0x1a9d>
    40a4: 20 ef 54     	jsr	$54ef <printf>
    40a7: 18           	clc
    40a8: a5 10        	lda	$10                     ; 0x2010 <main+0x1a9a>
    40aa: 69 06        	adc	#$6
    40ac: 85 10        	sta	$10                     ; 0x2010 <main+0x1a9a>
    40ae: a5 11        	lda	$11                     ; 0x2011 <main+0x1a9b>
    40b0: 69 00        	adc	#$0
    40b2: 85 11        	sta	$11                     ; 0x2011 <main+0x1a9b>
    40b4: 60           	rts
    40b5: a0 fa        	ldy	#$fa
    40b7: 4c 41 3e     	jmp	$3e41 <displayFileList+0x12f>

000040ba <readDirectory>:
    40ba: a2 5e        	ldx	#$5e
    40bc: 86 12        	stx	$12                     ; 0x2012 <main+0x1a9c>
    40be: a2 5f        	ldx	#$5f
    40c0: 86 13        	stx	$13                     ; 0x2013 <main+0x1a9d>
    40c2: 20 45 28     	jsr	$2845 <fileOpenDir>
    40c5: a6 12        	ldx	$12                     ; 0x2012 <main+0x1a9c>
    40c7: 86 63        	stx	$63                     ; 0x2063 <main+0x1aed>
    40c9: a6 13        	ldx	$13                     ; 0x2013 <main+0x1a9d>
    40cb: 86 64        	stx	$64                     ; 0x2064 <main+0x1aee>
    40cd: a2 00        	ldx	#$0
    40cf: 86 12        	stx	$12                     ; 0x2012 <main+0x1a9c>
    40d1: a2 00        	ldx	#$0
    40d3: 86 13        	stx	$13                     ; 0x2013 <main+0x1a9d>
    40d5: a6 64        	ldx	$64                     ; 0x2064 <main+0x1aee>
    40d7: e4 13        	cpx	$13                     ; 0x2013 <main+0x1a9d>
    40d9: d0 09        	bne	$40e4 <readDirectory+0x2a>
    40db: a6 63        	ldx	$63                     ; 0x2063 <main+0x1aed>
    40dd: e4 12        	cpx	$12                     ; 0x2012 <main+0x1a9c>
    40df: d0 03        	bne	$40e4 <readDirectory+0x2a>
    40e1: 4c b0 44     	jmp	$44b0 <readDirectory+0x3f6>
    40e4: a6 63        	ldx	$63                     ; 0x2063 <main+0x1aed>
    40e6: 86 12        	stx	$12                     ; 0x2012 <main+0x1a9c>
    40e8: a6 64        	ldx	$64                     ; 0x2064 <main+0x1aee>
    40ea: 86 13        	stx	$13                     ; 0x2013 <main+0x1a9d>
    40ec: 20 9a 2c     	jsr	$2c9a <fileReadDir>
    40ef: a2 d6        	ldx	#$d6
    40f1: 86 67        	stx	$67                     ; 0x2067 <main+0x1af1>
    40f3: a2 5f        	ldx	#$5f
    40f5: 86 68        	stx	$68                     ; 0x2068 <main+0x1af2>
    40f7: 64 12        	stz	$12                     ; 0x2012 <main+0x1a9c>
    40f9: a2 00        	ldx	#$0
    40fb: 86 65        	stx	$65                     ; 0x2065 <main+0x1aef>
    40fd: a2 00        	ldx	#$0
    40ff: 86 66        	stx	$66                     ; 0x2066 <main+0x1af0>
    4101: e8           	inx
    4102: 86 70        	stx	$70                     ; 0x2070 <main+0x1afa>
    4104: 64 6a        	stz	$6a                     ; 0x206a <main+0x1af4>
    4106: ca           	dex
    4107: 86 69        	stx	$69                     ; 0x2069 <main+0x1af3>
    4109: a5 6a        	lda	$6a                     ; 0x206a <main+0x1af4>
    410b: d0 0a        	bne	$4117 <readDirectory+0x5d>
    410d: a6 70        	ldx	$70                     ; 0x2070 <main+0x1afa>
    410f: e0 64        	cpx	#$64
    4111: 90 0a        	bcc	$411d <readDirectory+0x63>
    4113: a2 00        	ldx	#$0
    4115: 80 08        	bra	$411f <readDirectory+0x65>
    4117: a6 6a        	ldx	$6a                     ; 0x206a <main+0x1af4>
    4119: e0 00        	cpx	#$0
    411b: b0 f6        	bcs	$4113 <readDirectory+0x59>
    411d: a2 01        	ldx	#$1
    411f: 86 6e        	stx	$6e                     ; 0x206e <main+0x1af8>
    4121: a6 63        	ldx	$63                     ; 0x2063 <main+0x1aed>
    4123: 86 12        	stx	$12                     ; 0x2012 <main+0x1a9c>
    4125: a6 64        	ldx	$64                     ; 0x2064 <main+0x1aee>
    4127: 86 13        	stx	$13                     ; 0x2013 <main+0x1a9d>
    4129: 20 9a 2c     	jsr	$2c9a <fileReadDir>
    412c: a6 13        	ldx	$13                     ; 0x2013 <main+0x1a9d>
    412e: e4 66        	cpx	$66                     ; 0x2066 <main+0x1af0>
    4130: d0 0e        	bne	$4140 <readDirectory+0x86>
    4132: a6 12        	ldx	$12                     ; 0x2012 <main+0x1a9c>
    4134: a0 02        	ldy	#$2
    4136: a5 6e        	lda	$6e                     ; 0x206e <main+0x1af8>
    4138: e4 65        	cpx	$65                     ; 0x2065 <main+0x1aef>
    413a: d0 08        	bne	$4144 <readDirectory+0x8a>
    413c: a9 00        	lda	#$0
    413e: 80 04        	bra	$4144 <readDirectory+0x8a>
    4140: a0 02        	ldy	#$2
    4142: a5 6e        	lda	$6e                     ; 0x206e <main+0x1af8>
    4144: aa           	tax
    4145: d0 03        	bne	$414a <readDirectory+0x90>
    4147: 4c 4d 44     	jmp	$444d <readDirectory+0x393>
    414a: b1 12        	lda	($12),y                 ; 0x2012 <main+0x1a9c>
    414c: a0 03        	ldy	#$3
    414e: 85 1d        	sta	$1d                     ; 0x201d <main+0x1aa7>
    4150: c9 2e        	cmp	#$2e
    4152: d0 11        	bne	$4165 <readDirectory+0xab>
    4154: b1 12        	lda	($12),y                 ; 0x2012 <main+0x1a9c>
    4156: f0 b1        	beq	$4109 <readDirectory+0x4f>
    4158: c9 2e        	cmp	#$2e
    415a: d0 09        	bne	$4165 <readDirectory+0xab>
    415c: a0 04        	ldy	#$4
    415e: b1 12        	lda	($12),y                 ; 0x2012 <main+0x1a9c>
    4160: d0 03        	bne	$4165 <readDirectory+0xab>
    4162: 4c 09 41     	jmp	$4109 <readDirectory+0x4f>
    4165: a5 12        	lda	$12                     ; 0x2012 <main+0x1a9c>
    4167: 18           	clc
    4168: 69 02        	adc	#$2
    416a: 85 14        	sta	$14                     ; 0x2014 <main+0x1a9e>
    416c: a5 13        	lda	$13                     ; 0x2013 <main+0x1a9d>
    416e: 69 00        	adc	#$0
    4170: 85 15        	sta	$15                     ; 0x2015 <main+0x1a9f>
    4172: a9 00        	lda	#$0
    4174: a6 1d        	ldx	$1d                     ; 0x201d <main+0x1aa7>
    4176: 86 18        	stx	$18                     ; 0x2018 <main+0x1aa2>
    4178: aa           	tax
    4179: 64 19        	stz	$19                     ; 0x2019 <main+0x1aa3>
    417b: 86 1f        	stx	$1f                     ; 0x201f <main+0x1aa9>
    417d: aa           	tax
    417e: 48           	pha
    417f: bd 46 71     	lda	$7146,x                 ; 0x7146 <fpr+0x11ea>
    4182: aa           	tax
    4183: 68           	pla
    4184: e0 00        	cpx	#$0
    4186: f0 3d        	beq	$41c5 <readDirectory+0x10b>
    4188: a4 18        	ldy	$18                     ; 0x2018 <main+0x1aa2>
    418a: f0 3e        	beq	$41ca <readDirectory+0x110>
    418c: 86 22        	stx	$22                     ; 0x2022 <main+0x1aac>
    418e: 85 1e        	sta	$1e                     ; 0x201e <main+0x1aa8>
    4190: a0 00        	ldy	#$0
    4192: a2 00        	ldx	#$0
    4194: 86 16        	stx	$16                     ; 0x2016 <main+0x1aa0>
    4196: 98           	tya
    4197: c8           	iny
    4198: d0 01        	bne	$419b <readDirectory+0xe1>
    419a: e8           	inx
    419b: 18           	clc
    419c: 65 12        	adc	$12                     ; 0x2012 <main+0x1a9c>
    419e: 85 1b        	sta	$1b                     ; 0x201b <main+0x1aa5>
    41a0: a5 16        	lda	$16                     ; 0x2016 <main+0x1aa0>
    41a2: 65 13        	adc	$13                     ; 0x2013 <main+0x1a9d>
    41a4: 84 1a        	sty	$1a                     ; 0x201a <main+0x1aa4>
    41a6: a4 1b        	ldy	$1b                     ; 0x201b <main+0x1aa5>
    41a8: 84 16        	sty	$16                     ; 0x2016 <main+0x1aa0>
    41aa: 85 17        	sta	$17                     ; 0x2017 <main+0x1aa1>
    41ac: a0 03        	ldy	#$3
    41ae: b1 16        	lda	($16),y                 ; 0x2016 <main+0x1aa0>
    41b0: a4 1a        	ldy	$1a                     ; 0x201a <main+0x1aa4>
    41b2: c9 00        	cmp	#$0
    41b4: d0 de        	bne	$4194 <readDirectory+0xda>
    41b6: 2c 30 5a     	bit	$5a30                   ; 0x5a30 <__set_v>
    41b9: a5 1d        	lda	$1d                     ; 0x201d <main+0x1aa7>
    41bb: f0 01        	beq	$41be <readDirectory+0x104>
    41bd: b8           	clv
    41be: 8a           	txa
    41bf: d0 10        	bne	$41d1 <readDirectory+0x117>
    41c1: c0 04        	cpy	#$4
    41c3: 80 0e        	bra	$41d3 <readDirectory+0x119>
    41c5: 85 6b        	sta	$6b                     ; 0x206b <main+0x1af5>
    41c7: 4c 78 42     	jmp	$4278 <readDirectory+0x1be>
    41ca: 85 6b        	sta	$6b                     ; 0x206b <main+0x1af5>
    41cc: 64 18        	stz	$18                     ; 0x2018 <main+0x1aa2>
    41ce: 4c 78 42     	jmp	$4278 <readDirectory+0x1be>
    41d1: e0 00        	cpx	#$0
    41d3: a2 01        	ldx	#$1
    41d5: a9 00        	lda	#$0
    41d7: b0 02        	bcs	$41db <readDirectory+0x121>
    41d9: a9 01        	lda	#$1
    41db: 86 16        	stx	$16                     ; 0x2016 <main+0x1aa0>
    41dd: 70 02        	bvs	$41e1 <readDirectory+0x127>
    41df: 64 16        	stz	$16                     ; 0x2016 <main+0x1aa0>
    41e1: aa           	tax
    41e2: 29 01        	and	#$1
    41e4: d0 02        	bne	$41e8 <readDirectory+0x12e>
    41e6: 64 18        	stz	$18                     ; 0x2018 <main+0x1aa2>
    41e8: 8a           	txa
    41e9: 05 16        	ora	$16                     ; 0x2016 <main+0x1aa0>
    41eb: 29 01        	and	#$1
    41ed: a6 1e        	ldx	$1e                     ; 0x201e <main+0x1aa8>
    41ef: 86 6b        	stx	$6b                     ; 0x206b <main+0x1af5>
    41f1: aa           	tax
    41f2: f0 03        	beq	$41f7 <readDirectory+0x13d>
    41f4: 4c 78 42     	jmp	$4278 <readDirectory+0x1be>
    41f7: a2 00        	ldx	#$0
    41f9: 86 16        	stx	$16                     ; 0x2016 <main+0x1aa0>
    41fb: a2 00        	ldx	#$0
    41fd: 86 17        	stx	$17                     ; 0x2017 <main+0x1aa1>
    41ff: a5 1d        	lda	$1d                     ; 0x201d <main+0x1aa7>
    4201: a6 14        	ldx	$14                     ; 0x2014 <main+0x1a9e>
    4203: 86 1a        	stx	$1a                     ; 0x201a <main+0x1aa4>
    4205: a6 15        	ldx	$15                     ; 0x2015 <main+0x1a9f>
    4207: 86 1b        	stx	$1b                     ; 0x201b <main+0x1aa5>
    4209: a0 01        	ldy	#$1
    420b: c9 2e        	cmp	#$2e
    420d: d0 08        	bne	$4217 <readDirectory+0x15d>
    420f: a6 1a        	ldx	$1a                     ; 0x201a <main+0x1aa4>
    4211: 86 16        	stx	$16                     ; 0x2016 <main+0x1aa0>
    4213: a6 1b        	ldx	$1b                     ; 0x201b <main+0x1aa5>
    4215: 86 17        	stx	$17                     ; 0x2017 <main+0x1aa1>
    4217: b1 1a        	lda	($1a),y                 ; 0x201a <main+0x1aa4>
    4219: e6 1a        	inc	$1a                     ; 0x201a <main+0x1aa4>
    421b: d0 02        	bne	$421f <readDirectory+0x165>
    421d: e6 1b        	inc	$1b                     ; 0x201b <main+0x1aa5>
    421f: aa           	tax
    4220: d0 e9        	bne	$420b <readDirectory+0x151>
    4222: a6 17        	ldx	$17                     ; 0x2017 <main+0x1aa1>
    4224: e4 66        	cpx	$66                     ; 0x2066 <main+0x1af0>
    4226: d0 10        	bne	$4238 <readDirectory+0x17e>
    4228: a6 16        	ldx	$16                     ; 0x2016 <main+0x1aa0>
    422a: a4 1d        	ldy	$1d                     ; 0x201d <main+0x1aa7>
    422c: 84 18        	sty	$18                     ; 0x2018 <main+0x1aa2>
    422e: a4 1e        	ldy	$1e                     ; 0x201e <main+0x1aa8>
    4230: 84 6b        	sty	$6b                     ; 0x206b <main+0x1af5>
    4232: e4 65        	cpx	$65                     ; 0x2065 <main+0x1aef>
    4234: d0 06        	bne	$423c <readDirectory+0x182>
    4236: 80 40        	bra	$4278 <readDirectory+0x1be>
    4238: a6 1e        	ldx	$1e                     ; 0x201e <main+0x1aa8>
    423a: 86 6b        	stx	$6b                     ; 0x206b <main+0x1af5>
    423c: a0 01        	ldy	#$1
    423e: b1 16        	lda	($16),y                 ; 0x2016 <main+0x1aa0>
    4240: a6 1d        	ldx	$1d                     ; 0x201d <main+0x1aa7>
    4242: 86 18        	stx	$18                     ; 0x2018 <main+0x1aa2>
    4244: aa           	tax
    4245: f0 31        	beq	$4278 <readDirectory+0x1be>
    4247: 85 23        	sta	$23                     ; 0x2023 <main+0x1aad>
    4249: a2 00        	ldx	#$0
    424b: 64 1c        	stz	$1c                     ; 0x201c <main+0x1aa6>
    424d: a0 02        	ldy	#$2
    424f: 8a           	txa
    4250: 18           	clc
    4251: 65 16        	adc	$16                     ; 0x2016 <main+0x1aa0>
    4253: 85 1a        	sta	$1a                     ; 0x201a <main+0x1aa4>
    4255: a5 1c        	lda	$1c                     ; 0x201c <main+0x1aa6>
    4257: 65 17        	adc	$17                     ; 0x2017 <main+0x1aa1>
    4259: e8           	inx
    425a: d0 02        	bne	$425e <readDirectory+0x1a4>
    425c: e6 1c        	inc	$1c                     ; 0x201c <main+0x1aa6>
    425e: 85 1b        	sta	$1b                     ; 0x201b <main+0x1aa5>
    4260: b1 1a        	lda	($1a),y                 ; 0x201a <main+0x1aa4>
    4262: d0 eb        	bne	$424f <readDirectory+0x195>
    4264: a4 1d        	ldy	$1d                     ; 0x201d <main+0x1aa7>
    4266: 84 18        	sty	$18                     ; 0x2018 <main+0x1aa2>
    4268: a4 1e        	ldy	$1e                     ; 0x201e <main+0x1aa8>
    426a: 84 6b        	sty	$6b                     ; 0x206b <main+0x1af5>
    426c: a5 1c        	lda	$1c                     ; 0x201c <main+0x1aa6>
    426e: d0 08        	bne	$4278 <readDirectory+0x1be>
    4270: a4 1d        	ldy	$1d                     ; 0x201d <main+0x1aa7>
    4272: 84 18        	sty	$18                     ; 0x2018 <main+0x1aa2>
    4274: e0 03        	cpx	#$3
    4276: f0 26        	beq	$429e <readDirectory+0x1e4>
    4278: a6 1f        	ldx	$1f                     ; 0x201f <main+0x1aa9>
    427a: e8           	inx
    427b: d0 02        	bne	$427f <readDirectory+0x1c5>
    427d: e6 19        	inc	$19                     ; 0x2019 <main+0x1aa3>
    427f: 18           	clc
    4280: a5 6b        	lda	$6b                     ; 0x206b <main+0x1af5>
    4282: 69 03        	adc	#$3
    4284: a4 19        	ldy	$19                     ; 0x2019 <main+0x1aa3>
    4286: f0 03        	beq	$428b <readDirectory+0x1d1>
    4288: 4c 7b 41     	jmp	$417b <readDirectory+0xc1>
    428b: e0 04        	cpx	#$4
    428d: f0 03        	beq	$4292 <readDirectory+0x1d8>
    428f: 4c 7b 41     	jmp	$417b <readDirectory+0xc1>
    4292: a0 01        	ldy	#$1
    4294: b1 12        	lda	($12),y                 ; 0x2012 <main+0x1a9c>
    4296: d0 03        	bne	$429b <readDirectory+0x1e1>
    4298: 4c 09 41     	jmp	$4109 <readDirectory+0x4f>
    429b: 4c 35 43     	jmp	$4335 <readDirectory+0x27b>
    429e: a5 23        	lda	$23                     ; 0x2023 <main+0x1aad>
    42a0: c9 41        	cmp	#$41
    42a2: 90 08        	bcc	$42ac <readDirectory+0x1f2>
    42a4: c9 5b        	cmp	#$5b
    42a6: b0 04        	bcs	$42ac <readDirectory+0x1f2>
    42a8: 09 20        	ora	#$20
    42aa: 85 23        	sta	$23                     ; 0x2023 <main+0x1aad>
    42ac: a5 22        	lda	$22                     ; 0x2022 <main+0x1aac>
    42ae: c9 41        	cmp	#$41
    42b0: 90 06        	bcc	$42b8 <readDirectory+0x1fe>
    42b2: c9 5b        	cmp	#$5b
    42b4: b0 02        	bcs	$42b8 <readDirectory+0x1fe>
    42b6: 09 20        	ora	#$20
    42b8: 85 1a        	sta	$1a                     ; 0x201a <main+0x1aa4>
    42ba: a6 1d        	ldx	$1d                     ; 0x201d <main+0x1aa7>
    42bc: 86 18        	stx	$18                     ; 0x2018 <main+0x1aa2>
    42be: a6 23        	ldx	$23                     ; 0x2023 <main+0x1aad>
    42c0: e4 1a        	cpx	$1a                     ; 0x201a <main+0x1aa4>
    42c2: d0 b4        	bne	$4278 <readDirectory+0x1be>
    42c4: a0 02        	ldy	#$2
    42c6: b1 16        	lda	($16),y                 ; 0x2016 <main+0x1aa0>
    42c8: c9 41        	cmp	#$41
    42ca: 90 2c        	bcc	$42f8 <readDirectory+0x23e>
    42cc: c9 5b        	cmp	#$5b
    42ce: a6 1e        	ldx	$1e                     ; 0x201e <main+0x1aa8>
    42d0: b0 03        	bcs	$42d5 <readDirectory+0x21b>
    42d2: 4c 32 44     	jmp	$4432 <readDirectory+0x378>
    42d5: 85 1b        	sta	$1b                     ; 0x201b <main+0x1aa5>
    42d7: a0 03        	ldy	#$3
    42d9: 80 23        	bra	$42fe <readDirectory+0x244>
    42db: bd 48 71     	lda	$7148,x                 ; 0x7148 <fpr+0x11ec>
    42de: c9 41        	cmp	#$41
    42e0: 90 03        	bcc	$42e5 <readDirectory+0x22b>
    42e2: 4c 37 44     	jmp	$4437 <readDirectory+0x37d>
    42e5: 85 16        	sta	$16                     ; 0x2016 <main+0x1aa0>
    42e7: a6 1d        	ldx	$1d                     ; 0x201d <main+0x1aa7>
    42e9: 86 18        	stx	$18                     ; 0x2018 <main+0x1aa2>
    42eb: a6 1e        	ldx	$1e                     ; 0x201e <main+0x1aa8>
    42ed: 86 6b        	stx	$6b                     ; 0x206b <main+0x1af5>
    42ef: a6 17        	ldx	$17                     ; 0x2017 <main+0x1aa1>
    42f1: e4 16        	cpx	$16                     ; 0x2016 <main+0x1aa0>
    42f3: f0 40        	beq	$4335 <readDirectory+0x27b>
    42f5: 4c 78 42     	jmp	$4278 <readDirectory+0x1be>
    42f8: 85 1b        	sta	$1b                     ; 0x201b <main+0x1aa5>
    42fa: a0 03        	ldy	#$3
    42fc: a6 1e        	ldx	$1e                     ; 0x201e <main+0x1aa8>
    42fe: bd 47 71     	lda	$7147,x                 ; 0x7147 <fpr+0x11eb>
    4301: c9 41        	cmp	#$41
    4303: 90 07        	bcc	$430c <readDirectory+0x252>
    4305: c9 5b        	cmp	#$5b
    4307: b0 03        	bcs	$430c <readDirectory+0x252>
    4309: 4c 41 44     	jmp	$4441 <readDirectory+0x387>
    430c: 85 1a        	sta	$1a                     ; 0x201a <main+0x1aa4>
    430e: a6 1d        	ldx	$1d                     ; 0x201d <main+0x1aa7>
    4310: 86 18        	stx	$18                     ; 0x2018 <main+0x1aa2>
    4312: a6 1e        	ldx	$1e                     ; 0x201e <main+0x1aa8>
    4314: 86 6b        	stx	$6b                     ; 0x206b <main+0x1af5>
    4316: a6 1b        	ldx	$1b                     ; 0x201b <main+0x1aa5>
    4318: e4 1a        	cpx	$1a                     ; 0x201a <main+0x1aa4>
    431a: f0 03        	beq	$431f <readDirectory+0x265>
    431c: 4c 78 42     	jmp	$4278 <readDirectory+0x1be>
    431f: b1 16        	lda	($16),y                 ; 0x2016 <main+0x1aa0>
    4321: c9 41        	cmp	#$41
    4323: b0 03        	bcs	$4328 <readDirectory+0x26e>
    4325: 4c 46 44     	jmp	$4446 <readDirectory+0x38c>
    4328: c9 5b        	cmp	#$5b
    432a: a6 1e        	ldx	$1e                     ; 0x201e <main+0x1aa8>
    432c: b0 03        	bcs	$4331 <readDirectory+0x277>
    432e: 4c b1 44     	jmp	$44b1 <readDirectory+0x3f7>
    4331: 85 17        	sta	$17                     ; 0x2017 <main+0x1aa1>
    4333: 80 a6        	bra	$42db <readDirectory+0x221>
    4335: a6 12        	ldx	$12                     ; 0x2012 <main+0x1a9c>
    4337: 86 6e        	stx	$6e                     ; 0x206e <main+0x1af8>
    4339: a6 13        	ldx	$13                     ; 0x2013 <main+0x1a9d>
    433b: 86 6f        	stx	$6f                     ; 0x206f <main+0x1af9>
    433d: a2 2c        	ldx	#$2c
    433f: 86 12        	stx	$12                     ; 0x2012 <main+0x1a9c>
    4341: 64 13        	stz	$13                     ; 0x2013 <main+0x1a9d>
    4343: a6 6a        	ldx	$6a                     ; 0x206a <main+0x1af4>
    4345: a5 70        	lda	$70                     ; 0x2070 <main+0x1afa>
    4347: a4 67        	ldy	$67                     ; 0x2067 <main+0x1af1>
    4349: 84 71        	sty	$71                     ; 0x2071 <main+0x1afb>
    434b: a4 68        	ldy	$68                     ; 0x2068 <main+0x1af2>
    434d: 84 72        	sty	$72                     ; 0x2072 <main+0x1afc>
    434f: a4 14        	ldy	$14                     ; 0x2014 <main+0x1a9e>
    4351: 84 67        	sty	$67                     ; 0x2067 <main+0x1af1>
    4353: a4 15        	ldy	$15                     ; 0x2015 <main+0x1a9f>
    4355: 84 68        	sty	$68                     ; 0x2068 <main+0x1af2>
    4357: 20 fe 59     	jsr	$59fe <__mulhi3>
    435a: a4 67        	ldy	$67                     ; 0x2067 <main+0x1af1>
    435c: 84 16        	sty	$16                     ; 0x2016 <main+0x1aa0>
    435e: a4 68        	ldy	$68                     ; 0x2068 <main+0x1af2>
    4360: 84 17        	sty	$17                     ; 0x2017 <main+0x1aa1>
    4362: a4 71        	ldy	$71                     ; 0x2071 <main+0x1afb>
    4364: 84 67        	sty	$67                     ; 0x2067 <main+0x1af1>
    4366: a4 72        	ldy	$72                     ; 0x2072 <main+0x1afc>
    4368: 84 68        	sty	$68                     ; 0x2068 <main+0x1af2>
    436a: a4 6e        	ldy	$6e                     ; 0x206e <main+0x1af8>
    436c: 84 12        	sty	$12                     ; 0x2012 <main+0x1a9c>
    436e: a4 6f        	ldy	$6f                     ; 0x206f <main+0x1af9>
    4370: 84 13        	sty	$13                     ; 0x2013 <main+0x1a9d>
    4372: 85 14        	sta	$14                     ; 0x2014 <main+0x1a9e>
    4374: 86 15        	stx	$15                     ; 0x2015 <main+0x1a9f>
    4376: a9 aa        	lda	#$aa
    4378: 18           	clc
    4379: 65 14        	adc	$14                     ; 0x2014 <main+0x1a9e>
    437b: aa           	tax
    437c: a9 5f        	lda	#$5f
    437e: 65 15        	adc	$15                     ; 0x2015 <main+0x1a9f>
    4380: 86 1a        	stx	$1a                     ; 0x201a <main+0x1aa4>
    4382: 86 14        	stx	$14                     ; 0x2014 <main+0x1a9e>
    4384: 85 1b        	sta	$1b                     ; 0x201b <main+0x1aa5>
    4386: 85 15        	sta	$15                     ; 0x2015 <main+0x1a9f>
    4388: a2 2b        	ldx	#$2b
    438a: 64 18        	stz	$18                     ; 0x2018 <main+0x1aa2>
    438c: 64 19        	stz	$19                     ; 0x2019 <main+0x1aa3>
    438e: 80 06        	bra	$4396 <readDirectory+0x2dc>
    4390: e6 18        	inc	$18                     ; 0x2018 <main+0x1aa2>
    4392: a5 19        	lda	$19                     ; 0x2019 <main+0x1aa3>
    4394: f0 17        	beq	$43ad <readDirectory+0x2f3>
    4396: a4 18        	ldy	$18                     ; 0x2018 <main+0x1aa2>
    4398: b1 16        	lda	($16),y                 ; 0x2016 <main+0x1aa0>
    439a: 85 1c        	sta	$1c                     ; 0x201c <main+0x1aa6>
    439c: b1 16        	lda	($16),y                 ; 0x2016 <main+0x1aa0>
    439e: 91 67        	sta	($67),y                 ; 0x2067 <main+0x1af1>
    43a0: a5 1c        	lda	$1c                     ; 0x201c <main+0x1aa6>
    43a2: f0 0e        	beq	$43b2 <readDirectory+0x2f8>
    43a4: ca           	dex
    43a5: e0 ff        	cpx	#$ff
    43a7: d0 e7        	bne	$4390 <readDirectory+0x2d6>
    43a9: c6 19        	dec	$19                     ; 0x2019 <main+0x1aa3>
    43ab: 80 e3        	bra	$4390 <readDirectory+0x2d6>
    43ad: 8a           	txa
    43ae: d0 e6        	bne	$4396 <readDirectory+0x2dc>
    43b0: 80 42        	bra	$43f4 <readDirectory+0x33a>
    43b2: ca           	dex
    43b3: e0 ff        	cpx	#$ff
    43b5: d0 02        	bne	$43b9 <readDirectory+0x2ff>
    43b7: c6 19        	dec	$19                     ; 0x2019 <main+0x1aa3>
    43b9: a5 19        	lda	$19                     ; 0x2019 <main+0x1aa3>
    43bb: d0 03        	bne	$43c0 <readDirectory+0x306>
    43bd: 8a           	txa
    43be: f0 34        	beq	$43f4 <readDirectory+0x33a>
    43c0: 18           	clc
    43c1: a5 1a        	lda	$1a                     ; 0x201a <main+0x1aa4>
    43c3: 65 18        	adc	$18                     ; 0x2018 <main+0x1aa2>
    43c5: 85 12        	sta	$12                     ; 0x2012 <main+0x1a9c>
    43c7: a5 1b        	lda	$1b                     ; 0x201b <main+0x1aa5>
    43c9: 69 00        	adc	#$0
    43cb: a4 14        	ldy	$14                     ; 0x2014 <main+0x1a9e>
    43cd: 84 73        	sty	$73                     ; 0x2073 <main+0x1afd>
    43cf: a4 15        	ldy	$15                     ; 0x2015 <main+0x1a9f>
    43d1: 84 74        	sty	$74                     ; 0x2074 <main+0x1afe>
    43d3: 85 13        	sta	$13                     ; 0x2013 <main+0x1a9d>
    43d5: e6 12        	inc	$12                     ; 0x2012 <main+0x1a9c>
    43d7: d0 02        	bne	$43db <readDirectory+0x321>
    43d9: e6 13        	inc	$13                     ; 0x2013 <main+0x1a9d>
    43db: a4 19        	ldy	$19                     ; 0x2019 <main+0x1aa3>
    43dd: 84 14        	sty	$14                     ; 0x2014 <main+0x1a9e>
    43df: a9 00        	lda	#$0
    43e1: 20 de 59     	jsr	$59de <__memset>
    43e4: a6 73        	ldx	$73                     ; 0x2073 <main+0x1afd>
    43e6: 86 14        	stx	$14                     ; 0x2014 <main+0x1a9e>
    43e8: a6 74        	ldx	$74                     ; 0x2074 <main+0x1afe>
    43ea: 86 15        	stx	$15                     ; 0x2015 <main+0x1a9f>
    43ec: a6 6e        	ldx	$6e                     ; 0x206e <main+0x1af8>
    43ee: 86 12        	stx	$12                     ; 0x2012 <main+0x1a9c>
    43f0: a6 6f        	ldx	$6f                     ; 0x206f <main+0x1af9>
    43f2: 86 13        	stx	$13                     ; 0x2013 <main+0x1a9d>
    43f4: a9 00        	lda	#$0
    43f6: a0 2b        	ldy	#$2b
    43f8: 91 14        	sta	($14),y                 ; 0x2014 <main+0x1a9e>
    43fa: a0 01        	ldy	#$1
    43fc: b1 12        	lda	($12),y                 ; 0x2012 <main+0x1a9c>
    43fe: 2c 30 5a     	bit	$5a30                   ; 0x5a30 <__set_v>
    4401: c9 01        	cmp	#$1
    4403: f0 01        	beq	$4406 <readDirectory+0x34c>
    4405: b8           	clv
    4406: 98           	tya
    4407: a6 69        	ldx	$69                     ; 0x2069 <main+0x1af3>
    4409: 70 02        	bvs	$440d <readDirectory+0x353>
    440b: a9 00        	lda	#$0
    440d: 9d db 70     	sta	$70db,x                 ; 0x70db <fpr+0x117f>
    4410: a4 70        	ldy	$70                     ; 0x2070 <main+0x1afa>
    4412: 84 12        	sty	$12                     ; 0x2012 <main+0x1a9c>
    4414: a4 6a        	ldy	$6a                     ; 0x206a <main+0x1af4>
    4416: e6 12        	inc	$12                     ; 0x2012 <main+0x1a9c>
    4418: d0 01        	bne	$441b <readDirectory+0x361>
    441a: c8           	iny
    441b: e8           	inx
    441c: a5 67        	lda	$67                     ; 0x2067 <main+0x1af1>
    441e: 18           	clc
    441f: 69 2c        	adc	#$2c
    4421: 85 67        	sta	$67                     ; 0x2067 <main+0x1af1>
    4423: a5 68        	lda	$68                     ; 0x2068 <main+0x1af2>
    4425: 69 00        	adc	#$0
    4427: 85 68        	sta	$68                     ; 0x2068 <main+0x1af2>
    4429: a5 12        	lda	$12                     ; 0x2012 <main+0x1a9c>
    442b: 85 70        	sta	$70                     ; 0x2070 <main+0x1afa>
    442d: 84 6a        	sty	$6a                     ; 0x206a <main+0x1af4>
    442f: 4c 07 41     	jmp	$4107 <readDirectory+0x4d>
    4432: 09 20        	ora	#$20
    4434: 4c d5 42     	jmp	$42d5 <readDirectory+0x21b>
    4437: c9 5b        	cmp	#$5b
    4439: b0 03        	bcs	$443e <readDirectory+0x384>
    443b: 4c b6 44     	jmp	$44b6 <readDirectory+0x3fc>
    443e: 4c e5 42     	jmp	$42e5 <readDirectory+0x22b>
    4441: 09 20        	ora	#$20
    4443: 4c 0c 43     	jmp	$430c <readDirectory+0x252>
    4446: 85 17        	sta	$17                     ; 0x2017 <main+0x1aa1>
    4448: a6 1e        	ldx	$1e                     ; 0x201e <main+0x1aa8>
    444a: 4c db 42     	jmp	$42db <readDirectory+0x221>
    444d: a6 70        	ldx	$70                     ; 0x2070 <main+0x1afa>
    444f: 8e 3e 71     	stx	$713e                   ; 0x713e <fpr+0x11e2>
    4452: a6 6a        	ldx	$6a                     ; 0x206a <main+0x1af4>
    4454: 8e 3f 71     	stx	$713f                   ; 0x713f <fpr+0x11e3>
    4457: a2 aa        	ldx	#$aa
    4459: 86 12        	stx	$12                     ; 0x2012 <main+0x1a9c>
    445b: a2 5f        	ldx	#$5f
    445d: 86 13        	stx	$13                     ; 0x2013 <main+0x1a9d>
    445f: a2 2e        	ldx	#$2e
    4461: 86 14        	stx	$14                     ; 0x2014 <main+0x1a9e>
    4463: a2 5e        	ldx	#$5e
    4465: 86 15        	stx	$15                     ; 0x2015 <main+0x1a9f>
    4467: a9 2c        	lda	#$2c
    4469: a2 00        	ldx	#$0
    446b: 20 b2 59     	jsr	$59b2 <memcpy>
    446e: a2 6d        	ldx	#$6d
    4470: a0 00        	ldy	#$0
    4472: 86 12        	stx	$12                     ; 0x2012 <main+0x1a9c>
    4474: 84 13        	sty	$13                     ; 0x2013 <main+0x1a9d>
    4476: a2 56        	ldx	#$56
    4478: 86 14        	stx	$14                     ; 0x2014 <main+0x1a9e>
    447a: a2 00        	ldx	#$0
    447c: 86 15        	stx	$15                     ; 0x2015 <main+0x1a9f>
    447e: a2 6c        	ldx	#$6c
    4480: a0 00        	ldy	#$0
    4482: b2 63        	lda	($63)                   ; 0x2063 <main+0x1aed>
    4484: f0 18        	beq	$449e <readDirectory+0x3e4>
    4486: 85 f3        	sta	$f3                     ; 0x20f3 <main+0x1b7d>
    4488: 86 16        	stx	$16                     ; 0x2016 <main+0x1aa0>
    448a: 84 17        	sty	$17                     ; 0x2017 <main+0x1aa1>
    448c: 20 80 ff     	jsr	$ff80 <__heap_start+0x8dec>
    448f: 92 16        	sta	($16)                   ; 0x2016 <main+0x1aa0>
    4491: a9 00        	lda	#$0
    4493: 6a           	ror
    4494: 85 14        	sta	$14                     ; 0x2014 <main+0x1a9e>
    4496: a5 56        	lda	$56                     ; 0x2056 <main+0x1ae0>
    4498: d0 04        	bne	$449e <readDirectory+0x3e4>
    449a: a9 00        	lda	#$0
    449c: 92 63        	sta	($63)                   ; 0x2063 <main+0x1aed>
    449e: 64 57        	stz	$57                     ; 0x2057 <main+0x1ae1>
    44a0: 20 00 ff     	jsr	$ff00 <__heap_start+0x8d6c>
    44a3: 92 12        	sta	($12)                   ; 0x2012 <main+0x1a9c>
    44a5: a9 00        	lda	#$0
    44a7: 6a           	ror
    44a8: 85 14        	sta	$14                     ; 0x2014 <main+0x1a9e>
    44aa: a5 57        	lda	$57                     ; 0x2057 <main+0x1ae1>
    44ac: c9 46        	cmp	#$46
    44ae: d0 d2        	bne	$4482 <readDirectory+0x3c8>
    44b0: 60           	rts
    44b1: 09 20        	ora	#$20
    44b3: 4c 31 43     	jmp	$4331 <readDirectory+0x277>
    44b6: 09 20        	ora	#$20
    44b8: 4c e5 42     	jmp	$42e5 <readDirectory+0x22b>

000044bb <initVS1053Plugin>:
    44bb: a4 24        	ldy	$24                     ; 0x2024 <main+0x1aae>
    44bd: 5a           	phy
    44be: a4 25        	ldy	$25                     ; 0x2025 <main+0x1aaf>
    44c0: 5a           	phy
    44c1: 85 1a        	sta	$1a                     ; 0x201a <main+0x1aa4>
    44c3: 86 16        	stx	$16                     ; 0x2016 <main+0x1aa0>
    44c5: a6 12        	ldx	$12                     ; 0x2012 <main+0x1a9c>
    44c7: 86 17        	stx	$17                     ; 0x2017 <main+0x1aa1>
    44c9: a6 13        	ldx	$13                     ; 0x2013 <main+0x1a9d>
    44cb: 86 19        	stx	$19                     ; 0x2019 <main+0x1aa3>
    44cd: 64 1c        	stz	$1c                     ; 0x201c <main+0x1aa6>
    44cf: 64 18        	stz	$18                     ; 0x2018 <main+0x1aa2>
    44d1: a4 0f        	ldy	$f                      ; 0x200f <main+0x1a99>
    44d3: 78           	sei
    44d4: a6 16        	ldx	$16                     ; 0x2016 <main+0x1aa0>
    44d6: 86 1d        	stx	$1d                     ; 0x201d <main+0x1aa7>
    44d8: a6 16        	ldx	$16                     ; 0x2016 <main+0x1aa0>
    44da: 86 12        	stx	$12                     ; 0x2012 <main+0x1a9c>
    44dc: 06 12        	asl	$12                     ; 0x2012 <main+0x1a9c>
    44de: a6 17        	ldx	$17                     ; 0x2017 <main+0x1aa1>
    44e0: 86 22        	stx	$22                     ; 0x2022 <main+0x1aac>
    44e2: a5 17        	lda	$17                     ; 0x2017 <main+0x1aa1>
    44e4: 2a           	rol
    44e5: 06 12        	asl	$12                     ; 0x2012 <main+0x1a9c>
    44e7: 2a           	rol
    44e8: 06 12        	asl	$12                     ; 0x2012 <main+0x1a9c>
    44ea: 2a           	rol
    44eb: 85 0f        	sta	$f                      ; 0x200f <main+0x1a99>
    44ed: a5 16        	lda	$16                     ; 0x2016 <main+0x1aa0>
    44ef: 09 e0        	ora	#$e0
    44f1: a6 1a        	ldx	$1a                     ; 0x201a <main+0x1aa4>
    44f3: 86 12        	stx	$12                     ; 0x2012 <main+0x1a9c>
    44f5: 85 13        	sta	$13                     ; 0x2013 <main+0x1a9d>
    44f7: b2 12        	lda	($12)                   ; 0x2012 <main+0x1a9c>
    44f9: 85 1e        	sta	$1e                     ; 0x201e <main+0x1aa8>
    44fb: 84 0f        	sty	$f                      ; 0x200f <main+0x1a99>
    44fd: 58           	cli
    44fe: a6 1a        	ldx	$1a                     ; 0x201a <main+0x1aa4>
    4500: a4 16        	ldy	$16                     ; 0x2016 <main+0x1aa0>
    4502: 84 13        	sty	$13                     ; 0x2013 <main+0x1a9d>
    4504: a5 17        	lda	$17                     ; 0x2017 <main+0x1aa1>
    4506: a4 19        	ldy	$19                     ; 0x2019 <main+0x1aa3>
    4508: 84 1b        	sty	$1b                     ; 0x201b <main+0x1aa5>
    450a: a4 19        	ldy	$19                     ; 0x2019 <main+0x1aa3>
    450c: e8           	inx
    450d: d0 08        	bne	$4517 <initVS1053Plugin+0x5c>
    450f: e6 13        	inc	$13                     ; 0x2013 <main+0x1a9d>
    4511: d0 04        	bne	$4517 <initVS1053Plugin+0x5c>
    4513: 1a           	inc
    4514: d0 01        	bne	$4517 <initVS1053Plugin+0x5c>
    4516: c8           	iny
    4517: a4 0f        	ldy	$f                      ; 0x200f <main+0x1a99>
    4519: 78           	sei
    451a: 48           	pha
    451b: a5 13        	lda	$13                     ; 0x2013 <main+0x1a9d>
    451d: 85 12        	sta	$12                     ; 0x2012 <main+0x1a9c>
    451f: 68           	pla
    4520: 06 12        	asl	$12                     ; 0x2012 <main+0x1a9c>
    4522: 2a           	rol
    4523: 06 12        	asl	$12                     ; 0x2012 <main+0x1a9c>
    4525: 2a           	rol
    4526: 06 12        	asl	$12                     ; 0x2012 <main+0x1a9c>
    4528: 2a           	rol
    4529: 85 0f        	sta	$f                      ; 0x200f <main+0x1a99>
    452b: a5 13        	lda	$13                     ; 0x2013 <main+0x1a9d>
    452d: 09 e0        	ora	#$e0
    452f: 86 12        	stx	$12                     ; 0x2012 <main+0x1a9c>
    4531: 85 13        	sta	$13                     ; 0x2013 <main+0x1a9d>
    4533: b2 12        	lda	($12)                   ; 0x2012 <main+0x1a9c>
    4535: 85 1f        	sta	$1f                     ; 0x201f <main+0x1aa9>
    4537: 84 0f        	sty	$f                      ; 0x200f <main+0x1a99>
    4539: 58           	cli
    453a: 18           	clc
    453b: a5 1a        	lda	$1a                     ; 0x201a <main+0x1aa4>
    453d: 69 02        	adc	#$2
    453f: a8           	tay
    4540: a5 16        	lda	$16                     ; 0x2016 <main+0x1aa0>
    4542: 69 00        	adc	#$0
    4544: 85 13        	sta	$13                     ; 0x2013 <main+0x1a9d>
    4546: a5 17        	lda	$17                     ; 0x2017 <main+0x1aa1>
    4548: 69 00        	adc	#$0
    454a: a6 13        	ldx	$13                     ; 0x2013 <main+0x1a9d>
    454c: 86 12        	stx	$12                     ; 0x2012 <main+0x1a9c>
    454e: 06 12        	asl	$12                     ; 0x2012 <main+0x1a9c>
    4550: 2a           	rol
    4551: 06 12        	asl	$12                     ; 0x2012 <main+0x1a9c>
    4553: 2a           	rol
    4554: 06 12        	asl	$12                     ; 0x2012 <main+0x1a9c>
    4556: 2a           	rol
    4557: a6 0f        	ldx	$f                      ; 0x200f <main+0x1a99>
    4559: 78           	sei
    455a: 85 0f        	sta	$f                      ; 0x200f <main+0x1a99>
    455c: a5 13        	lda	$13                     ; 0x2013 <main+0x1a9d>
    455e: 09 e0        	ora	#$e0
    4560: 84 12        	sty	$12                     ; 0x2012 <main+0x1a9c>
    4562: 85 13        	sta	$13                     ; 0x2013 <main+0x1a9d>
    4564: b2 12        	lda	($12)                   ; 0x2012 <main+0x1a9c>
    4566: 85 12        	sta	$12                     ; 0x2012 <main+0x1a9c>
    4568: 86 0f        	stx	$f                      ; 0x200f <main+0x1a99>
    456a: 58           	cli
    456b: 18           	clc
    456c: a5 1a        	lda	$1a                     ; 0x201a <main+0x1aa4>
    456e: 69 03        	adc	#$3
    4570: a8           	tay
    4571: a5 16        	lda	$16                     ; 0x2016 <main+0x1aa0>
    4573: 69 00        	adc	#$0
    4575: 85 17        	sta	$17                     ; 0x2017 <main+0x1aa1>
    4577: a5 22        	lda	$22                     ; 0x2022 <main+0x1aac>
    4579: 69 00        	adc	#$0
    457b: a6 17        	ldx	$17                     ; 0x2017 <main+0x1aa1>
    457d: 86 13        	stx	$13                     ; 0x2013 <main+0x1a9d>
    457f: 06 13        	asl	$13                     ; 0x2013 <main+0x1a9d>
    4581: 2a           	rol
    4582: 06 13        	asl	$13                     ; 0x2013 <main+0x1a9d>
    4584: 2a           	rol
    4585: 06 13        	asl	$13                     ; 0x2013 <main+0x1a9d>
    4587: 2a           	rol
    4588: a6 0f        	ldx	$f                      ; 0x200f <main+0x1a99>
    458a: 78           	sei
    458b: 85 0f        	sta	$f                      ; 0x200f <main+0x1a99>
    458d: a5 17        	lda	$17                     ; 0x2017 <main+0x1aa1>
    458f: 09 e0        	ora	#$e0
    4591: 84 16        	sty	$16                     ; 0x2016 <main+0x1aa0>
    4593: 85 17        	sta	$17                     ; 0x2017 <main+0x1aa1>
    4595: b2 16        	lda	($16)                   ; 0x2016 <main+0x1aa0>
    4597: 85 25        	sta	$25                     ; 0x2025 <main+0x1aaf>
    4599: 85 13        	sta	$13                     ; 0x2013 <main+0x1a9d>
    459b: 86 0f        	stx	$f                      ; 0x200f <main+0x1a99>
    459d: 58           	cli
    459e: 18           	clc
    459f: a5 1a        	lda	$1a                     ; 0x201a <main+0x1aa4>
    45a1: 69 04        	adc	#$4
    45a3: 85 23        	sta	$23                     ; 0x2023 <main+0x1aad>
    45a5: a5 1d        	lda	$1d                     ; 0x201d <main+0x1aa7>
    45a7: 69 00        	adc	#$0
    45a9: 85 17        	sta	$17                     ; 0x2017 <main+0x1aa1>
    45ab: a5 22        	lda	$22                     ; 0x2022 <main+0x1aac>
    45ad: 69 00        	adc	#$0
    45af: a0 01        	ldy	#$1
    45b1: b0 02        	bcs	$45b5 <initVS1053Plugin+0xfa>
    45b3: a0 00        	ldy	#$0
    45b5: 85 24        	sta	$24                     ; 0x2024 <main+0x1aae>
    45b7: a5 13        	lda	$13                     ; 0x2013 <main+0x1a9d>
    45b9: 10 03        	bpl	$45be <initVS1053Plugin+0x103>
    45bb: 4c ed 46     	jmp	$46ed <initVS1053Plugin+0x232>
    45be: a5 19        	lda	$19                     ; 0x2019 <main+0x1aa3>
    45c0: c0 01        	cpy	#$1
    45c2: 69 00        	adc	#$0
    45c4: aa           	tax
    45c5: 18           	clc
    45c6: a5 1c        	lda	$1c                     ; 0x201c <main+0x1aa6>
    45c8: 69 02        	adc	#$2
    45ca: 85 1c        	sta	$1c                     ; 0x201c <main+0x1aa6>
    45cc: a5 18        	lda	$18                     ; 0x2018 <main+0x1aa2>
    45ce: 69 00        	adc	#$0
    45d0: 85 1d        	sta	$1d                     ; 0x201d <main+0x1aa7>
    45d2: a4 12        	ldy	$12                     ; 0x2012 <main+0x1a9c>
    45d4: 48           	pha
    45d5: a5 13        	lda	$13                     ; 0x2013 <main+0x1a9d>
    45d7: 85 16        	sta	$16                     ; 0x2016 <main+0x1aa0>
    45d9: 68           	pla
    45da: 86 19        	stx	$19                     ; 0x2019 <main+0x1aa3>
    45dc: a6 13        	ldx	$13                     ; 0x2013 <main+0x1a9d>
    45de: d0 22        	bne	$4602 <initVS1053Plugin+0x147>
    45e0: a6 12        	ldx	$12                     ; 0x2012 <main+0x1a9c>
    45e2: d0 1e        	bne	$4602 <initVS1053Plugin+0x147>
    45e4: a6 23        	ldx	$23                     ; 0x2023 <main+0x1aad>
    45e6: 86 1a        	stx	$1a                     ; 0x201a <main+0x1aa4>
    45e8: a6 17        	ldx	$17                     ; 0x2017 <main+0x1aa1>
    45ea: 86 16        	stx	$16                     ; 0x2016 <main+0x1aa0>
    45ec: a6 24        	ldx	$24                     ; 0x2024 <main+0x1aae>
    45ee: 86 17        	stx	$17                     ; 0x2017 <main+0x1aa1>
    45f0: aa           	tax
    45f1: e4 15        	cpx	$15                     ; 0x2015 <main+0x1a9f>
    45f3: d0 03        	bne	$45f8 <initVS1053Plugin+0x13d>
    45f5: 4c df 46     	jmp	$46df <initVS1053Plugin+0x224>
    45f8: 4c bf 47     	jmp	$47bf <initVS1053Plugin+0x304>
    45fb: a5 16        	lda	$16                     ; 0x2016 <main+0x1aa0>
    45fd: d0 03        	bne	$4602 <initVS1053Plugin+0x147>
    45ff: 4c af 46     	jmp	$46af <initVS1053Plugin+0x1f4>
    4602: a6 0f        	ldx	$f                      ; 0x200f <main+0x1a99>
    4604: 78           	sei
    4605: 5a           	phy
    4606: a4 17        	ldy	$17                     ; 0x2017 <main+0x1aa1>
    4608: 84 22        	sty	$22                     ; 0x2022 <main+0x1aac>
    460a: 06 17        	asl	$17                     ; 0x2017 <main+0x1aa1>
    460c: a4 19        	ldy	$19                     ; 0x2019 <main+0x1aa3>
    460e: 84 1a        	sty	$1a                     ; 0x201a <main+0x1aa4>
    4610: a5 24        	lda	$24                     ; 0x2024 <main+0x1aae>
    4612: 2a           	rol
    4613: 06 17        	asl	$17                     ; 0x2017 <main+0x1aa1>
    4615: 2a           	rol
    4616: 06 17        	asl	$17                     ; 0x2017 <main+0x1aa1>
    4618: 2a           	rol
    4619: 85 0f        	sta	$f                      ; 0x200f <main+0x1a99>
    461b: a5 22        	lda	$22                     ; 0x2022 <main+0x1aac>
    461d: 09 e0        	ora	#$e0
    461f: a4 23        	ldy	$23                     ; 0x2023 <main+0x1aad>
    4621: 84 17        	sty	$17                     ; 0x2017 <main+0x1aa1>
    4623: a4 23        	ldy	$23                     ; 0x2023 <main+0x1aad>
    4625: 84 18        	sty	$18                     ; 0x2018 <main+0x1aa2>
    4627: 85 19        	sta	$19                     ; 0x2019 <main+0x1aa3>
    4629: b2 18        	lda	($18)                   ; 0x2018 <main+0x1aa2>
    462b: 85 25        	sta	$25                     ; 0x2025 <main+0x1aaf>
    462d: 86 0f        	stx	$f                      ; 0x200f <main+0x1a99>
    462f: 58           	cli
    4630: a5 24        	lda	$24                     ; 0x2024 <main+0x1aae>
    4632: a6 1a        	ldx	$1a                     ; 0x201a <main+0x1aa4>
    4634: 86 1b        	stx	$1b                     ; 0x201b <main+0x1aa5>
    4636: a6 1a        	ldx	$1a                     ; 0x201a <main+0x1aa4>
    4638: a4 22        	ldy	$22                     ; 0x2022 <main+0x1aac>
    463a: 84 1a        	sty	$1a                     ; 0x201a <main+0x1aa4>
    463c: e6 17        	inc	$17                     ; 0x2017 <main+0x1aa1>
    463e: d0 08        	bne	$4648 <initVS1053Plugin+0x18d>
    4640: e6 22        	inc	$22                     ; 0x2022 <main+0x1aac>
    4642: d0 04        	bne	$4648 <initVS1053Plugin+0x18d>
    4644: 1a           	inc
    4645: d0 01        	bne	$4648 <initVS1053Plugin+0x18d>
    4647: e8           	inx
    4648: a6 22        	ldx	$22                     ; 0x2022 <main+0x1aac>
    464a: 86 18        	stx	$18                     ; 0x2018 <main+0x1aa2>
    464c: 06 18        	asl	$18                     ; 0x2018 <main+0x1aa2>
    464e: 2a           	rol
    464f: 06 18        	asl	$18                     ; 0x2018 <main+0x1aa2>
    4651: 2a           	rol
    4652: 06 18        	asl	$18                     ; 0x2018 <main+0x1aa2>
    4654: 2a           	rol
    4655: a6 0f        	ldx	$f                      ; 0x200f <main+0x1a99>
    4657: 78           	sei
    4658: 85 0f        	sta	$f                      ; 0x200f <main+0x1a99>
    465a: a5 22        	lda	$22                     ; 0x2022 <main+0x1aac>
    465c: 09 e0        	ora	#$e0
    465e: a4 17        	ldy	$17                     ; 0x2017 <main+0x1aa1>
    4660: 84 18        	sty	$18                     ; 0x2018 <main+0x1aa2>
    4662: 7a           	ply
    4663: 85 19        	sta	$19                     ; 0x2019 <main+0x1aa3>
    4665: b2 18        	lda	($18)                   ; 0x2018 <main+0x1aa2>
    4667: 86 0f        	stx	$f                      ; 0x200f <main+0x1a99>
    4669: 58           	cli
    466a: a6 1e        	ldx	$1e                     ; 0x201e <main+0x1aa8>
    466c: 8e 01 d7     	stx	$d701                   ; 0xd701 <__heap_start+0x656d>
    466f: a6 1f        	ldx	$1f                     ; 0x201f <main+0x1aa9>
    4671: 8e 02 d7     	stx	$d702                   ; 0xd702 <__heap_start+0x656e>
    4674: a6 25        	ldx	$25                     ; 0x2025 <main+0x1aaf>
    4676: 8e 02 d7     	stx	$d702                   ; 0xd702 <__heap_start+0x656e>
    4679: 8d 03 d7     	sta	$d703                   ; 0xd703 <__heap_start+0x656f>
    467c: a2 01        	ldx	#$1
    467e: 8e 00 d7     	stx	$d700                   ; 0xd700 <__heap_start+0x656c>
    4681: 9c 00 d7     	stz	$d700                   ; 0xd700 <__heap_start+0x656c>
    4684: ae 00 d7     	ldx	$d700                   ; 0xd700 <__heap_start+0x656c>
    4687: 30 fb        	bmi	$4684 <initVS1053Plugin+0x1c9>
    4689: 18           	clc
    468a: a5 23        	lda	$23                     ; 0x2023 <main+0x1aad>
    468c: 69 02        	adc	#$2
    468e: 85 23        	sta	$23                     ; 0x2023 <main+0x1aad>
    4690: a5 1a        	lda	$1a                     ; 0x201a <main+0x1aa4>
    4692: 69 00        	adc	#$0
    4694: 85 17        	sta	$17                     ; 0x2017 <main+0x1aa1>
    4696: a5 24        	lda	$24                     ; 0x2024 <main+0x1aae>
    4698: 69 00        	adc	#$0
    469a: 85 24        	sta	$24                     ; 0x2024 <main+0x1aae>
    469c: a5 1b        	lda	$1b                     ; 0x201b <main+0x1aa5>
    469e: 69 00        	adc	#$0
    46a0: 85 19        	sta	$19                     ; 0x2019 <main+0x1aa3>
    46a2: 88           	dey
    46a3: c0 ff        	cpy	#$ff
    46a5: f0 03        	beq	$46aa <initVS1053Plugin+0x1ef>
    46a7: 4c fb 45     	jmp	$45fb <initVS1053Plugin+0x140>
    46aa: c6 16        	dec	$16                     ; 0x2016 <main+0x1aa0>
    46ac: 4c fb 45     	jmp	$45fb <initVS1053Plugin+0x140>
    46af: 98           	tya
    46b0: f0 03        	beq	$46b5 <initVS1053Plugin+0x1fa>
    46b2: 4c 02 46     	jmp	$4602 <initVS1053Plugin+0x147>
    46b5: 18           	clc
    46b6: a5 1c        	lda	$1c                     ; 0x201c <main+0x1aa6>
    46b8: 69 00        	adc	#$0
    46ba: aa           	tax
    46bb: a5 1d        	lda	$1d                     ; 0x201d <main+0x1aa7>
    46bd: 65 13        	adc	$13                     ; 0x2013 <main+0x1a9d>
    46bf: 85 13        	sta	$13                     ; 0x2013 <main+0x1a9d>
    46c1: 18           	clc
    46c2: 8a           	txa
    46c3: 65 12        	adc	$12                     ; 0x2012 <main+0x1a9c>
    46c5: 85 1c        	sta	$1c                     ; 0x201c <main+0x1aa6>
    46c7: a5 13        	lda	$13                     ; 0x2013 <main+0x1a9d>
    46c9: 69 00        	adc	#$0
    46cb: aa           	tax
    46cc: a4 23        	ldy	$23                     ; 0x2023 <main+0x1aad>
    46ce: 84 1a        	sty	$1a                     ; 0x201a <main+0x1aa4>
    46d0: a4 17        	ldy	$17                     ; 0x2017 <main+0x1aa1>
    46d2: 84 16        	sty	$16                     ; 0x2016 <main+0x1aa0>
    46d4: a4 24        	ldy	$24                     ; 0x2024 <main+0x1aae>
    46d6: 84 17        	sty	$17                     ; 0x2017 <main+0x1aa1>
    46d8: e4 15        	cpx	$15                     ; 0x2015 <main+0x1a9f>
    46da: f0 03        	beq	$46df <initVS1053Plugin+0x224>
    46dc: 4c bf 47     	jmp	$47bf <initVS1053Plugin+0x304>
    46df: 86 18        	stx	$18                     ; 0x2018 <main+0x1aa2>
    46e1: a6 1c        	ldx	$1c                     ; 0x201c <main+0x1aa6>
    46e3: e4 14        	cpx	$14                     ; 0x2014 <main+0x1a9e>
    46e5: b0 03        	bcs	$46ea <initVS1053Plugin+0x22f>
    46e7: 4c d1 44     	jmp	$44d1 <initVS1053Plugin+0x16>
    46ea: 4c c8 47     	jmp	$47c8 <initVS1053Plugin+0x30d>
    46ed: a6 1d        	ldx	$1d                     ; 0x201d <main+0x1aa7>
    46ef: a4 22        	ldy	$22                     ; 0x2022 <main+0x1aac>
    46f1: 84 19        	sty	$19                     ; 0x2019 <main+0x1aa3>
    46f3: a4 0f        	ldy	$f                      ; 0x200f <main+0x1a99>
    46f5: 78           	sei
    46f6: a5 17        	lda	$17                     ; 0x2017 <main+0x1aa1>
    46f8: 85 13        	sta	$13                     ; 0x2013 <main+0x1a9d>
    46fa: 85 16        	sta	$16                     ; 0x2016 <main+0x1aa0>
    46fc: 06 13        	asl	$13                     ; 0x2013 <main+0x1a9d>
    46fe: a5 24        	lda	$24                     ; 0x2024 <main+0x1aae>
    4700: 2a           	rol
    4701: 06 13        	asl	$13                     ; 0x2013 <main+0x1a9d>
    4703: 2a           	rol
    4704: 06 13        	asl	$13                     ; 0x2013 <main+0x1a9d>
    4706: 2a           	rol
    4707: 85 0f        	sta	$f                      ; 0x200f <main+0x1a99>
    4709: a5 16        	lda	$16                     ; 0x2016 <main+0x1aa0>
    470b: 09 e0        	ora	#$e0
    470d: 5a           	phy
    470e: a4 23        	ldy	$23                     ; 0x2023 <main+0x1aad>
    4710: 84 16        	sty	$16                     ; 0x2016 <main+0x1aa0>
    4712: 7a           	ply
    4713: 85 17        	sta	$17                     ; 0x2017 <main+0x1aa1>
    4715: b2 16        	lda	($16)                   ; 0x2016 <main+0x1aa0>
    4717: 85 1d        	sta	$1d                     ; 0x201d <main+0x1aa7>
    4719: 84 0f        	sty	$f                      ; 0x200f <main+0x1a99>
    471b: 58           	cli
    471c: 18           	clc
    471d: a5 1a        	lda	$1a                     ; 0x201a <main+0x1aa4>
    471f: 69 05        	adc	#$5
    4721: 85 16        	sta	$16                     ; 0x2016 <main+0x1aa0>
    4723: 86 22        	stx	$22                     ; 0x2022 <main+0x1aac>
    4725: 8a           	txa
    4726: 69 00        	adc	#$0
    4728: a8           	tay
    4729: a5 19        	lda	$19                     ; 0x2019 <main+0x1aa3>
    472b: 69 00        	adc	#$0
    472d: 84 13        	sty	$13                     ; 0x2013 <main+0x1a9d>
    472f: 06 13        	asl	$13                     ; 0x2013 <main+0x1a9d>
    4731: 2a           	rol
    4732: 06 13        	asl	$13                     ; 0x2013 <main+0x1a9d>
    4734: 2a           	rol
    4735: 06 13        	asl	$13                     ; 0x2013 <main+0x1a9d>
    4737: 2a           	rol
    4738: a6 0f        	ldx	$f                      ; 0x200f <main+0x1a99>
    473a: 78           	sei
    473b: 85 0f        	sta	$f                      ; 0x200f <main+0x1a99>
    473d: a5 25        	lda	$25                     ; 0x2025 <main+0x1aaf>
    473f: 29 7f        	and	#$7f
    4741: 85 23        	sta	$23                     ; 0x2023 <main+0x1aad>
    4743: 98           	tya
    4744: 09 e0        	ora	#$e0
    4746: 85 17        	sta	$17                     ; 0x2017 <main+0x1aa1>
    4748: b2 16        	lda	($16)                   ; 0x2016 <main+0x1aa0>
    474a: 85 13        	sta	$13                     ; 0x2013 <main+0x1a9d>
    474c: 86 0f        	stx	$f                      ; 0x200f <main+0x1a99>
    474e: 58           	cli
    474f: 18           	clc
    4750: a5 1a        	lda	$1a                     ; 0x201a <main+0x1aa4>
    4752: 69 06        	adc	#$6
    4754: 85 1a        	sta	$1a                     ; 0x201a <main+0x1aa4>
    4756: a5 22        	lda	$22                     ; 0x2022 <main+0x1aac>
    4758: 69 00        	adc	#$0
    475a: 85 16        	sta	$16                     ; 0x2016 <main+0x1aa0>
    475c: a5 19        	lda	$19                     ; 0x2019 <main+0x1aa3>
    475e: 69 00        	adc	#$0
    4760: 85 17        	sta	$17                     ; 0x2017 <main+0x1aa1>
    4762: a5 1b        	lda	$1b                     ; 0x201b <main+0x1aa5>
    4764: 69 00        	adc	#$0
    4766: a8           	tay
    4767: 18           	clc
    4768: a5 1c        	lda	$1c                     ; 0x201c <main+0x1aa6>
    476a: 69 03        	adc	#$3
    476c: 85 1c        	sta	$1c                     ; 0x201c <main+0x1aa6>
    476e: a5 18        	lda	$18                     ; 0x2018 <main+0x1aa2>
    4770: 69 00        	adc	#$0
    4772: aa           	tax
    4773: a5 23        	lda	$23                     ; 0x2023 <main+0x1aad>
    4775: d0 06        	bne	$477d <initVS1053Plugin+0x2c2>
    4777: e6 12        	inc	$12                     ; 0x2012 <main+0x1a9c>
    4779: c6 12        	dec	$12                     ; 0x2012 <main+0x1a9c>
    477b: f0 39        	beq	$47b6 <initVS1053Plugin+0x2fb>
    477d: 86 18        	stx	$18                     ; 0x2018 <main+0x1aa2>
    477f: 80 03        	bra	$4784 <initVS1053Plugin+0x2c9>
    4781: aa           	tax
    4782: f0 2c        	beq	$47b0 <initVS1053Plugin+0x2f5>
    4784: a6 1e        	ldx	$1e                     ; 0x201e <main+0x1aa8>
    4786: 8e 01 d7     	stx	$d701                   ; 0xd701 <__heap_start+0x656d>
    4789: a6 1f        	ldx	$1f                     ; 0x201f <main+0x1aa9>
    478b: 8e 02 d7     	stx	$d702                   ; 0xd702 <__heap_start+0x656e>
    478e: a6 1d        	ldx	$1d                     ; 0x201d <main+0x1aa7>
    4790: 8e 02 d7     	stx	$d702                   ; 0xd702 <__heap_start+0x656e>
    4793: a6 13        	ldx	$13                     ; 0x2013 <main+0x1a9d>
    4795: 8e 03 d7     	stx	$d703                   ; 0xd703 <__heap_start+0x656f>
    4798: a2 01        	ldx	#$1
    479a: 8e 00 d7     	stx	$d700                   ; 0xd700 <__heap_start+0x656c>
    479d: 9c 00 d7     	stz	$d700                   ; 0xd700 <__heap_start+0x656c>
    47a0: ae 00 d7     	ldx	$d700                   ; 0xd700 <__heap_start+0x656c>
    47a3: 30 fb        	bmi	$47a0 <initVS1053Plugin+0x2e5>
    47a5: a2 ff        	ldx	#$ff
    47a7: c6 12        	dec	$12                     ; 0x2012 <main+0x1a9c>
    47a9: e4 12        	cpx	$12                     ; 0x2012 <main+0x1a9c>
    47ab: d0 d4        	bne	$4781 <initVS1053Plugin+0x2c6>
    47ad: 3a           	dec
    47ae: 80 d1        	bra	$4781 <initVS1053Plugin+0x2c6>
    47b0: a6 12        	ldx	$12                     ; 0x2012 <main+0x1a9c>
    47b2: d0 d0        	bne	$4784 <initVS1053Plugin+0x2c9>
    47b4: a6 18        	ldx	$18                     ; 0x2018 <main+0x1aa2>
    47b6: 84 19        	sty	$19                     ; 0x2019 <main+0x1aa3>
    47b8: e4 15        	cpx	$15                     ; 0x2015 <main+0x1a9f>
    47ba: d0 03        	bne	$47bf <initVS1053Plugin+0x304>
    47bc: 4c df 46     	jmp	$46df <initVS1053Plugin+0x224>
    47bf: 86 18        	stx	$18                     ; 0x2018 <main+0x1aa2>
    47c1: e4 15        	cpx	$15                     ; 0x2015 <main+0x1a9f>
    47c3: b0 03        	bcs	$47c8 <initVS1053Plugin+0x30d>
    47c5: 4c d1 44     	jmp	$44d1 <initVS1053Plugin+0x16>
    47c8: fa           	plx
    47c9: 86 25        	stx	$25                     ; 0x2025 <main+0x1aaf>
    47cb: fa           	plx
    47cc: 86 24        	stx	$24                     ; 0x2024 <main+0x1aae>
    47ce: 60           	rts

000047cf <exit>:
    47cf: 20 2b 03     	jsr	$32b <_fini>
    47d2: 80 fe        	bra	$47d2 <exit+0x3>

000047d4 <_ZN12_GLOBAL__N_15printEPKcP6Status>:
    47d4: a6 14        	ldx	$14                     ; 0x2014 <main+0x1a9e>
    47d6: 86 8f        	stx	$8f                     ; 0x208f <main+0x1b19>
    47d8: a6 15        	ldx	$15                     ; 0x2015 <main+0x1a9f>
    47da: 86 90        	stx	$90                     ; 0x2090 <main+0x1b1a>
    47dc: a6 12        	ldx	$12                     ; 0x2012 <main+0x1a9c>
    47de: 86 14        	stx	$14                     ; 0x2014 <main+0x1a9e>
    47e0: a6 13        	ldx	$13                     ; 0x2013 <main+0x1a9d>
    47e2: 86 15        	stx	$15                     ; 0x2015 <main+0x1a9f>
    47e4: e6 14        	inc	$14                     ; 0x2014 <main+0x1a9e>
    47e6: d0 02        	bne	$47ea <_ZN12_GLOBAL__N_15printEPKcP6Status+0x16>
    47e8: e6 15        	inc	$15                     ; 0x2015 <main+0x1a9f>
    47ea: a0 01        	ldy	#$1
    47ec: b1 12        	lda	($12),y                 ; 0x2012 <main+0x1a9c>
    47ee: c9 25        	cmp	#$25
    47f0: d0 23        	bne	$4815 <_ZN12_GLOBAL__N_15printEPKcP6Status+0x41>
    47f2: a9 25        	lda	#$25
    47f4: a6 12        	ldx	$12                     ; 0x2012 <main+0x1a9c>
    47f6: 86 91        	stx	$91                     ; 0x2091 <main+0x1b1b>
    47f8: a6 13        	ldx	$13                     ; 0x2013 <main+0x1a9d>
    47fa: 86 92        	stx	$92                     ; 0x2092 <main+0x1b1c>
    47fc: a6 8f        	ldx	$8f                     ; 0x208f <main+0x1b19>
    47fe: 86 12        	stx	$12                     ; 0x2012 <main+0x1a9c>
    4800: a6 90        	ldx	$90                     ; 0x2090 <main+0x1b1a>
    4802: 86 13        	stx	$13                     ; 0x2013 <main+0x1a9d>
    4804: 20 08 53     	jsr	$5308 <_ZN12_GLOBAL__N_13putEcP6Status>
    4807: a5 91        	lda	$91                     ; 0x2091 <main+0x1b1b>
    4809: 18           	clc
    480a: 69 02        	adc	#$2
    480c: 85 12        	sta	$12                     ; 0x2012 <main+0x1a9c>
    480e: a5 92        	lda	$92                     ; 0x2092 <main+0x1b1c>
    4810: 69 00        	adc	#$0
    4812: 85 13        	sta	$13                     ; 0x2013 <main+0x1a9d>
    4814: 60           	rts
    4815: 18           	clc
    4816: a5 8f        	lda	$8f                     ; 0x208f <main+0x1b19>
    4818: 69 0b        	adc	#$b
    481a: 85 18        	sta	$18                     ; 0x2018 <main+0x1aa2>
    481c: a5 90        	lda	$90                     ; 0x2090 <main+0x1b1a>
    481e: 69 00        	adc	#$0
    4820: 85 19        	sta	$19                     ; 0x2019 <main+0x1aa3>
    4822: a2 10        	ldx	#$10
    4824: 86 b8        	stx	$b8                     ; 0x20b8 <main+0x1b42>
    4826: a9 00        	lda	#$0
    4828: a0 0b        	ldy	#$b
    482a: 91 8f        	sta	($8f),y                 ; 0x208f <main+0x1b19>
    482c: 18           	clc
    482d: a5 8f        	lda	$8f                     ; 0x208f <main+0x1b19>
    482f: 69 0d        	adc	#$d
    4831: aa           	tax
    4832: a5 90        	lda	$90                     ; 0x2090 <main+0x1b1a>
    4834: 69 00        	adc	#$0
    4836: 86 16        	stx	$16                     ; 0x2016 <main+0x1aa0>
    4838: a0 0d        	ldy	#$d
    483a: 85 17        	sta	$17                     ; 0x2017 <main+0x1aa1>
    483c: a9 ff        	lda	#$ff
    483e: 91 8f        	sta	($8f),y                 ; 0x208f <main+0x1b19>
    4840: a0 01        	ldy	#$1
    4842: 91 16        	sta	($16),y                 ; 0x2016 <main+0x1aa0>
    4844: a2 00        	ldx	#$0
    4846: 86 bb        	stx	$bb                     ; 0x20bb <main+0x1b45>
    4848: a6 8f        	ldx	$8f                     ; 0x208f <main+0x1b19>
    484a: 86 16        	stx	$16                     ; 0x2016 <main+0x1aa0>
    484c: a6 90        	ldx	$90                     ; 0x2090 <main+0x1b1a>
    484e: 86 17        	stx	$17                     ; 0x2017 <main+0x1aa1>
    4850: e6 16        	inc	$16                     ; 0x2016 <main+0x1aa0>
    4852: d0 02        	bne	$4856 <_ZN12_GLOBAL__N_15printEPKcP6Status+0x82>
    4854: e6 17        	inc	$17                     ; 0x2017 <main+0x1aa1>
    4856: a9 00        	lda	#$0
    4858: 91 8f        	sta	($8f),y                 ; 0x208f <main+0x1b19>
    485a: 91 16        	sta	($16),y                 ; 0x2016 <main+0x1aa0>
    485c: 92 8f        	sta	($8f)                   ; 0x208f <main+0x1b19>
    485e: 91 18        	sta	($18),y                 ; 0x2018 <main+0x1aa2>
    4860: 64 95        	stz	$95                     ; 0x2095 <main+0x1b1f>
    4862: 80 33        	bra	$4897 <_ZN12_GLOBAL__N_15printEPKcP6Status+0xc3>
    4864: a2 02        	ldx	#$2
    4866: 80 15        	bra	$487d <_ZN12_GLOBAL__N_15printEPKcP6Status+0xa9>
    4868: e0 20        	cpx	#$20
    486a: f0 15        	beq	$4881 <_ZN12_GLOBAL__N_15printEPKcP6Status+0xad>
    486c: 86 19        	stx	$19                     ; 0x2019 <main+0x1aa3>
    486e: e0 23        	cpx	#$23
    4870: f0 03        	beq	$4875 <_ZN12_GLOBAL__N_15printEPKcP6Status+0xa1>
    4872: 4c e4 48     	jmp	$48e4 <_ZN12_GLOBAL__N_15printEPKcP6Status+0x110>
    4875: a5 95        	lda	$95                     ; 0x2095 <main+0x1b1f>
    4877: a2 04        	ldx	#$4
    4879: 80 02        	bra	$487d <_ZN12_GLOBAL__N_15printEPKcP6Status+0xa9>
    487b: a2 10        	ldx	#$10
    487d: 86 18        	stx	$18                     ; 0x2018 <main+0x1aa2>
    487f: 80 06        	bra	$4887 <_ZN12_GLOBAL__N_15printEPKcP6Status+0xb3>
    4881: a2 08        	ldx	#$8
    4883: 86 18        	stx	$18                     ; 0x2018 <main+0x1aa2>
    4885: a5 95        	lda	$95                     ; 0x2095 <main+0x1b1f>
    4887: 05 18        	ora	$18                     ; 0x2018 <main+0x1aa2>
    4889: 85 95        	sta	$95                     ; 0x2095 <main+0x1b1f>
    488b: 91 8f        	sta	($8f),y                 ; 0x208f <main+0x1b19>
    488d: a9 00        	lda	#$0
    488f: 91 16        	sta	($16),y                 ; 0x2016 <main+0x1aa0>
    4891: e6 14        	inc	$14                     ; 0x2014 <main+0x1a9e>
    4893: d0 02        	bne	$4897 <_ZN12_GLOBAL__N_15printEPKcP6Status+0xc3>
    4895: e6 15        	inc	$15                     ; 0x2015 <main+0x1a9f>
    4897: b2 14        	lda	($14)                   ; 0x2014 <main+0x1a9e>
    4899: aa           	tax
    489a: 18           	clc
    489b: 69 d6        	adc	#$d6
    489d: c9 07        	cmp	#$7
    489f: b0 c7        	bcs	$4868 <_ZN12_GLOBAL__N_15printEPKcP6Status+0x94>
    48a1: 86 19        	stx	$19                     ; 0x2019 <main+0x1aa3>
    48a3: 0a           	asl
    48a4: aa           	tax
    48a5: a9 01        	lda	#$1
    48a7: 85 18        	sta	$18                     ; 0x2018 <main+0x1aa2>
    48a9: a5 95        	lda	$95                     ; 0x2095 <main+0x1b1f>
    48ab: 7c 9f 5a     	jmp	($5a9f,x)               ; 0x5a9f <__set_v+0x6f>
    48ae: a0 11        	ldy	#$11
    48b0: a5 8f        	lda	$8f                     ; 0x208f <main+0x1b19>
    48b2: 18           	clc
    48b3: 69 11        	adc	#$11
    48b5: 85 16        	sta	$16                     ; 0x2016 <main+0x1aa0>
    48b7: a5 90        	lda	$90                     ; 0x2090 <main+0x1b1a>
    48b9: 69 00        	adc	#$0
    48bb: 85 17        	sta	$17                     ; 0x2017 <main+0x1aa1>
    48bd: b1 8f        	lda	($8f),y                 ; 0x208f <main+0x1b19>
    48bf: 85 18        	sta	$18                     ; 0x2018 <main+0x1aa2>
    48c1: 18           	clc
    48c2: 69 02        	adc	#$2
    48c4: 91 8f        	sta	($8f),y                 ; 0x208f <main+0x1b19>
    48c6: a0 01        	ldy	#$1
    48c8: b1 16        	lda	($16),y                 ; 0x2016 <main+0x1aa0>
    48ca: 85 19        	sta	$19                     ; 0x2019 <main+0x1aa3>
    48cc: 69 00        	adc	#$0
    48ce: 91 16        	sta	($16),y                 ; 0x2016 <main+0x1aa0>
    48d0: b2 18        	lda	($18)                   ; 0x2018 <main+0x1aa2>
    48d2: 85 17        	sta	$17                     ; 0x2017 <main+0x1aa1>
    48d4: b1 18        	lda	($18),y                 ; 0x2018 <main+0x1aa2>
    48d6: 85 16        	sta	$16                     ; 0x2016 <main+0x1aa0>
    48d8: 10 03        	bpl	$48dd <_ZN12_GLOBAL__N_15printEPKcP6Status+0x109>
    48da: 4c 6b 49     	jmp	$496b <_ZN12_GLOBAL__N_15printEPKcP6Status+0x197>
    48dd: a6 17        	ldx	$17                     ; 0x2017 <main+0x1aa1>
    48df: 85 1a        	sta	$1a                     ; 0x201a <main+0x1aa4>
    48e1: 4c 95 49     	jmp	$4995 <_ZN12_GLOBAL__N_15printEPKcP6Status+0x1c1>
    48e4: 18           	clc
    48e5: a5 19        	lda	$19                     ; 0x2019 <main+0x1aa3>
    48e7: 69 d0        	adc	#$d0
    48e9: c9 0a        	cmp	#$a
    48eb: 90 03        	bcc	$48f0 <_ZN12_GLOBAL__N_15printEPKcP6Status+0x11c>
    48ed: 4c 46 49     	jmp	$4946 <_ZN12_GLOBAL__N_15printEPKcP6Status+0x172>
    48f0: a6 19        	ldx	$19                     ; 0x2019 <main+0x1aa3>
    48f2: 86 16        	stx	$16                     ; 0x2016 <main+0x1aa0>
    48f4: 64 18        	stz	$18                     ; 0x2018 <main+0x1aa2>
    48f6: a0 01        	ldy	#$1
    48f8: 64 17        	stz	$17                     ; 0x2017 <main+0x1aa1>
    48fa: 64 19        	stz	$19                     ; 0x2019 <main+0x1aa3>
    48fc: 06 18        	asl	$18                     ; 0x2018 <main+0x1aa2>
    48fe: 26 19        	rol	$19                     ; 0x2019 <main+0x1aa3>
    4900: a5 18        	lda	$18                     ; 0x2018 <main+0x1aa2>
    4902: 0a           	asl
    4903: aa           	tax
    4904: a5 19        	lda	$19                     ; 0x2019 <main+0x1aa3>
    4906: 2a           	rol
    4907: 86 1a        	stx	$1a                     ; 0x201a <main+0x1aa4>
    4909: 06 1a        	asl	$1a                     ; 0x201a <main+0x1aa4>
    490b: 2a           	rol
    490c: aa           	tax
    490d: a5 1a        	lda	$1a                     ; 0x201a <main+0x1aa4>
    490f: 18           	clc
    4910: 65 18        	adc	$18                     ; 0x2018 <main+0x1aa2>
    4912: 85 18        	sta	$18                     ; 0x2018 <main+0x1aa2>
    4914: 8a           	txa
    4915: 65 19        	adc	$19                     ; 0x2019 <main+0x1aa3>
    4917: 85 19        	sta	$19                     ; 0x2019 <main+0x1aa3>
    4919: a5 18        	lda	$18                     ; 0x2018 <main+0x1aa2>
    491b: 18           	clc
    491c: 65 16        	adc	$16                     ; 0x2016 <main+0x1aa0>
    491e: 85 16        	sta	$16                     ; 0x2016 <main+0x1aa0>
    4920: a5 19        	lda	$19                     ; 0x2019 <main+0x1aa3>
    4922: 65 17        	adc	$17                     ; 0x2017 <main+0x1aa1>
    4924: aa           	tax
    4925: 18           	clc
    4926: a5 16        	lda	$16                     ; 0x2016 <main+0x1aa0>
    4928: 69 d0        	adc	#$d0
    492a: 85 18        	sta	$18                     ; 0x2018 <main+0x1aa2>
    492c: 8a           	txa
    492d: 69 ff        	adc	#$ff
    492f: 85 19        	sta	$19                     ; 0x2019 <main+0x1aa3>
    4931: b1 14        	lda	($14),y                 ; 0x2014 <main+0x1a9e>
    4933: 85 16        	sta	$16                     ; 0x2016 <main+0x1aa0>
    4935: 18           	clc
    4936: 69 d0        	adc	#$d0
    4938: e6 14        	inc	$14                     ; 0x2014 <main+0x1a9e>
    493a: d0 02        	bne	$493e <_ZN12_GLOBAL__N_15printEPKcP6Status+0x16a>
    493c: e6 15        	inc	$15                     ; 0x2015 <main+0x1a9f>
    493e: c9 0a        	cmp	#$a
    4940: 64 17        	stz	$17                     ; 0x2017 <main+0x1aa1>
    4942: 90 b8        	bcc	$48fc <_ZN12_GLOBAL__N_15printEPKcP6Status+0x128>
    4944: 80 04        	bra	$494a <_ZN12_GLOBAL__N_15printEPKcP6Status+0x176>
    4946: 64 18        	stz	$18                     ; 0x2018 <main+0x1aa2>
    4948: 64 19        	stz	$19                     ; 0x2019 <main+0x1aa3>
    494a: a5 8f        	lda	$8f                     ; 0x208f <main+0x1b19>
    494c: 18           	clc
    494d: 69 0b        	adc	#$b
    494f: 85 16        	sta	$16                     ; 0x2016 <main+0x1aa0>
    4951: a5 90        	lda	$90                     ; 0x2090 <main+0x1b1a>
    4953: 69 00        	adc	#$0
    4955: 85 17        	sta	$17                     ; 0x2017 <main+0x1aa1>
    4957: a0 0b        	ldy	#$b
    4959: a5 18        	lda	$18                     ; 0x2018 <main+0x1aa2>
    495b: 91 8f        	sta	($8f),y                 ; 0x208f <main+0x1b19>
    495d: a6 18        	ldx	$18                     ; 0x2018 <main+0x1aa2>
    495f: a0 01        	ldy	#$1
    4961: a5 19        	lda	$19                     ; 0x2019 <main+0x1aa3>
    4963: 91 16        	sta	($16),y                 ; 0x2016 <main+0x1aa0>
    4965: 86 16        	stx	$16                     ; 0x2016 <main+0x1aa0>
    4967: 85 17        	sta	$17                     ; 0x2017 <main+0x1aa1>
    4969: 80 4c        	bra	$49b7 <_ZN12_GLOBAL__N_15printEPKcP6Status+0x1e3>
    496b: a5 95        	lda	$95                     ; 0x2095 <main+0x1b1f>
    496d: 09 01        	ora	#$1
    496f: 85 1b        	sta	$1b                     ; 0x201b <main+0x1aa5>
    4971: a6 8f        	ldx	$8f                     ; 0x208f <main+0x1b19>
    4973: 86 18        	stx	$18                     ; 0x2018 <main+0x1aa2>
    4975: a6 90        	ldx	$90                     ; 0x2090 <main+0x1b1a>
    4977: 86 19        	stx	$19                     ; 0x2019 <main+0x1aa3>
    4979: 38           	sec
    497a: a9 00        	lda	#$0
    497c: e5 17        	sbc	$17                     ; 0x2017 <main+0x1aa1>
    497e: aa           	tax
    497f: a9 00        	lda	#$0
    4981: e5 16        	sbc	$16                     ; 0x2016 <main+0x1aa0>
    4983: 85 1a        	sta	$1a                     ; 0x201a <main+0x1aa4>
    4985: e6 18        	inc	$18                     ; 0x2018 <main+0x1aa2>
    4987: d0 02        	bne	$498b <_ZN12_GLOBAL__N_15printEPKcP6Status+0x1b7>
    4989: e6 19        	inc	$19                     ; 0x2019 <main+0x1aa3>
    498b: a5 1b        	lda	$1b                     ; 0x201b <main+0x1aa5>
    498d: 85 95        	sta	$95                     ; 0x2095 <main+0x1b1f>
    498f: 91 8f        	sta	($8f),y                 ; 0x208f <main+0x1b19>
    4991: a9 00        	lda	#$0
    4993: 91 18        	sta	($18),y                 ; 0x2018 <main+0x1aa2>
    4995: a5 8f        	lda	$8f                     ; 0x208f <main+0x1b19>
    4997: 18           	clc
    4998: 69 0b        	adc	#$b
    499a: 85 16        	sta	$16                     ; 0x2016 <main+0x1aa0>
    499c: a5 90        	lda	$90                     ; 0x2090 <main+0x1b1a>
    499e: 69 00        	adc	#$0
    49a0: 85 17        	sta	$17                     ; 0x2017 <main+0x1aa1>
    49a2: a0 0b        	ldy	#$b
    49a4: 8a           	txa
    49a5: 91 8f        	sta	($8f),y                 ; 0x208f <main+0x1b19>
    49a7: a5 1a        	lda	$1a                     ; 0x201a <main+0x1aa4>
    49a9: a0 01        	ldy	#$1
    49ab: 91 16        	sta	($16),y                 ; 0x2016 <main+0x1aa0>
    49ad: 86 16        	stx	$16                     ; 0x2016 <main+0x1aa0>
    49af: 85 17        	sta	$17                     ; 0x2017 <main+0x1aa1>
    49b1: e6 14        	inc	$14                     ; 0x2014 <main+0x1a9e>
    49b3: d0 02        	bne	$49b7 <_ZN12_GLOBAL__N_15printEPKcP6Status+0x1e3>
    49b5: e6 15        	inc	$15                     ; 0x2015 <main+0x1a9f>
    49b7: b2 14        	lda	($14)                   ; 0x2014 <main+0x1a9e>
    49b9: a2 ff        	ldx	#$ff
    49bb: c9 2e        	cmp	#$2e
    49bd: f0 03        	beq	$49c2 <_ZN12_GLOBAL__N_15printEPKcP6Status+0x1ee>
    49bf: 4c 41 4a     	jmp	$4a41 <_ZN12_GLOBAL__N_15printEPKcP6Status+0x26d>
    49c2: a6 14        	ldx	$14                     ; 0x2014 <main+0x1a9e>
    49c4: 86 18        	stx	$18                     ; 0x2018 <main+0x1aa2>
    49c6: a6 15        	ldx	$15                     ; 0x2015 <main+0x1a9f>
    49c8: 86 19        	stx	$19                     ; 0x2019 <main+0x1aa3>
    49ca: e6 18        	inc	$18                     ; 0x2018 <main+0x1aa2>
    49cc: d0 02        	bne	$49d0 <_ZN12_GLOBAL__N_15printEPKcP6Status+0x1fc>
    49ce: e6 19        	inc	$19                     ; 0x2019 <main+0x1aa3>
    49d0: b1 14        	lda	($14),y                 ; 0x2014 <main+0x1a9e>
    49d2: c9 2a        	cmp	#$2a
    49d4: f0 03        	beq	$49d9 <_ZN12_GLOBAL__N_15printEPKcP6Status+0x205>
    49d6: 4c 48 4a     	jmp	$4a48 <_ZN12_GLOBAL__N_15printEPKcP6Status+0x274>
    49d9: a0 11        	ldy	#$11
    49db: b1 8f        	lda	($8f),y                 ; 0x208f <main+0x1b19>
    49dd: 85 18        	sta	$18                     ; 0x2018 <main+0x1aa2>
    49df: 18           	clc
    49e0: 69 02        	adc	#$2
    49e2: a2 01        	ldx	#$1
    49e4: b0 02        	bcs	$49e8 <_ZN12_GLOBAL__N_15printEPKcP6Status+0x214>
    49e6: a2 00        	ldx	#$0
    49e8: 86 1d        	stx	$1d                     ; 0x201d <main+0x1aa7>
    49ea: 91 8f        	sta	($8f),y                 ; 0x208f <main+0x1b19>
    49ec: 18           	clc
    49ed: a5 8f        	lda	$8f                     ; 0x208f <main+0x1b19>
    49ef: 69 11        	adc	#$11
    49f1: 85 1a        	sta	$1a                     ; 0x201a <main+0x1aa4>
    49f3: a5 90        	lda	$90                     ; 0x2090 <main+0x1b1a>
    49f5: 69 00        	adc	#$0
    49f7: 85 1b        	sta	$1b                     ; 0x201b <main+0x1aa5>
    49f9: a0 01        	ldy	#$1
    49fb: b1 1a        	lda	($1a),y                 ; 0x201a <main+0x1aa4>
    49fd: 85 19        	sta	$19                     ; 0x2019 <main+0x1aa3>
    49ff: a6 1d        	ldx	$1d                     ; 0x201d <main+0x1aa7>
    4a01: e0 01        	cpx	#$1
    4a03: 69 00        	adc	#$0
    4a05: 91 1a        	sta	($1a),y                 ; 0x201a <main+0x1aa4>
    4a07: b2 18        	lda	($18)                   ; 0x2018 <main+0x1aa2>
    4a09: 85 1b        	sta	$1b                     ; 0x201b <main+0x1aa5>
    4a0b: 18           	clc
    4a0c: a5 8f        	lda	$8f                     ; 0x208f <main+0x1b19>
    4a0e: 69 0d        	adc	#$d
    4a10: 85 1a        	sta	$1a                     ; 0x201a <main+0x1aa4>
    4a12: a5 90        	lda	$90                     ; 0x2090 <main+0x1b1a>
    4a14: 69 00        	adc	#$0
    4a16: aa           	tax
    4a17: b1 18        	lda	($18),y                 ; 0x2018 <main+0x1aa2>
    4a19: 85 1c        	sta	$1c                     ; 0x201c <main+0x1aa6>
    4a1b: a4 1a        	ldy	$1a                     ; 0x201a <main+0x1aa4>
    4a1d: 84 18        	sty	$18                     ; 0x2018 <main+0x1aa2>
    4a1f: 86 19        	stx	$19                     ; 0x2019 <main+0x1aa3>
    4a21: a5 1b        	lda	$1b                     ; 0x201b <main+0x1aa5>
    4a23: 85 1a        	sta	$1a                     ; 0x201a <main+0x1aa4>
    4a25: a0 0d        	ldy	#$d
    4a27: 91 8f        	sta	($8f),y                 ; 0x208f <main+0x1b19>
    4a29: a5 1c        	lda	$1c                     ; 0x201c <main+0x1aa6>
    4a2b: 85 1e        	sta	$1e                     ; 0x201e <main+0x1aa8>
    4a2d: a0 01        	ldy	#$1
    4a2f: 91 18        	sta	($18),y                 ; 0x2018 <main+0x1aa2>
    4a31: a5 14        	lda	$14                     ; 0x2014 <main+0x1a9e>
    4a33: 18           	clc
    4a34: 69 02        	adc	#$2
    4a36: 85 18        	sta	$18                     ; 0x2018 <main+0x1aa2>
    4a38: a5 15        	lda	$15                     ; 0x2015 <main+0x1a9f>
    4a3a: 69 00        	adc	#$0
    4a3c: 85 19        	sta	$19                     ; 0x2019 <main+0x1aa3>
    4a3e: 4c 0e 4b     	jmp	$4b0e <_ZN12_GLOBAL__N_15printEPKcP6Status+0x33a>
    4a41: 86 1a        	stx	$1a                     ; 0x201a <main+0x1aa4>
    4a43: 86 1b        	stx	$1b                     ; 0x201b <main+0x1aa5>
    4a45: 4c 36 4b     	jmp	$4b36 <_ZN12_GLOBAL__N_15printEPKcP6Status+0x362>
    4a48: 18           	clc
    4a49: 85 1c        	sta	$1c                     ; 0x201c <main+0x1aa6>
    4a4b: 69 d0        	adc	#$d0
    4a4d: c9 0a        	cmp	#$a
    4a4f: 90 03        	bcc	$4a54 <_ZN12_GLOBAL__N_15printEPKcP6Status+0x280>
    4a51: 4c f3 4a     	jmp	$4af3 <_ZN12_GLOBAL__N_15printEPKcP6Status+0x31f>
    4a54: 64 1b        	stz	$1b                     ; 0x201b <main+0x1aa5>
    4a56: 64 1f        	stz	$1f                     ; 0x201f <main+0x1aa9>
    4a58: 64 1e        	stz	$1e                     ; 0x201e <main+0x1aa8>
    4a5a: a2 01        	ldx	#$1
    4a5c: 64 1a        	stz	$1a                     ; 0x201a <main+0x1aa4>
    4a5e: 5a           	phy
    4a5f: a4 1a        	ldy	$1a                     ; 0x201a <main+0x1aa4>
    4a61: 84 18        	sty	$18                     ; 0x2018 <main+0x1aa2>
    4a63: 86 19        	stx	$19                     ; 0x2019 <main+0x1aa3>
    4a65: a5 1f        	lda	$1f                     ; 0x201f <main+0x1aa9>
    4a67: 0a           	asl
    4a68: 85 1d        	sta	$1d                     ; 0x201d <main+0x1aa7>
    4a6a: 26 1e        	rol	$1e                     ; 0x201e <main+0x1aa8>
    4a6c: 0a           	asl
    4a6d: a4 1e        	ldy	$1e                     ; 0x201e <main+0x1aa8>
    4a6f: 84 1f        	sty	$1f                     ; 0x201f <main+0x1aa9>
    4a71: 7a           	ply
    4a72: 26 1f        	rol	$1f                     ; 0x201f <main+0x1aa9>
    4a74: 0a           	asl
    4a75: 26 1f        	rol	$1f                     ; 0x201f <main+0x1aa9>
    4a77: 18           	clc
    4a78: 65 1d        	adc	$1d                     ; 0x201d <main+0x1aa7>
    4a7a: 85 22        	sta	$22                     ; 0x2022 <main+0x1aac>
    4a7c: a5 1f        	lda	$1f                     ; 0x201f <main+0x1aa9>
    4a7e: 65 1e        	adc	$1e                     ; 0x201e <main+0x1aa8>
    4a80: 85 1d        	sta	$1d                     ; 0x201d <main+0x1aa7>
    4a82: 18           	clc
    4a83: a5 22        	lda	$22                     ; 0x2022 <main+0x1aac>
    4a85: 65 1c        	adc	$1c                     ; 0x201c <main+0x1aa6>
    4a87: 85 1c        	sta	$1c                     ; 0x201c <main+0x1aa6>
    4a89: a5 1d        	lda	$1d                     ; 0x201d <main+0x1aa7>
    4a8b: 65 1b        	adc	$1b                     ; 0x201b <main+0x1aa5>
    4a8d: 85 1b        	sta	$1b                     ; 0x201b <main+0x1aa5>
    4a8f: 18           	clc
    4a90: a5 1c        	lda	$1c                     ; 0x201c <main+0x1aa6>
    4a92: 69 d0        	adc	#$d0
    4a94: 85 1c        	sta	$1c                     ; 0x201c <main+0x1aa6>
    4a96: a5 1b        	lda	$1b                     ; 0x201b <main+0x1aa5>
    4a98: 69 ff        	adc	#$ff
    4a9a: 85 1e        	sta	$1e                     ; 0x201e <main+0x1aa8>
    4a9c: a5 1c        	lda	$1c                     ; 0x201c <main+0x1aa6>
    4a9e: 85 1f        	sta	$1f                     ; 0x201f <main+0x1aa9>
    4aa0: e8           	inx
    4aa1: d0 02        	bne	$4aa5 <_ZN12_GLOBAL__N_15printEPKcP6Status+0x2d1>
    4aa3: e6 1a        	inc	$1a                     ; 0x201a <main+0x1aa4>
    4aa5: a5 14        	lda	$14                     ; 0x2014 <main+0x1a9e>
    4aa7: 18           	clc
    4aa8: 65 19        	adc	$19                     ; 0x2019 <main+0x1aa3>
    4aaa: 85 1c        	sta	$1c                     ; 0x201c <main+0x1aa6>
    4aac: a5 15        	lda	$15                     ; 0x2015 <main+0x1a9f>
    4aae: 65 18        	adc	$18                     ; 0x2018 <main+0x1aa2>
    4ab0: 85 1d        	sta	$1d                     ; 0x201d <main+0x1aa7>
    4ab2: b1 1c        	lda	($1c),y                 ; 0x201c <main+0x1aa6>
    4ab4: 85 1c        	sta	$1c                     ; 0x201c <main+0x1aa6>
    4ab6: 18           	clc
    4ab7: 69 d0        	adc	#$d0
    4ab9: c9 0a        	cmp	#$a
    4abb: 64 1b        	stz	$1b                     ; 0x201b <main+0x1aa5>
    4abd: b0 03        	bcs	$4ac2 <_ZN12_GLOBAL__N_15printEPKcP6Status+0x2ee>
    4abf: 4c 5e 4a     	jmp	$4a5e <_ZN12_GLOBAL__N_15printEPKcP6Status+0x28a>
    4ac2: a5 14        	lda	$14                     ; 0x2014 <main+0x1a9e>
    4ac4: 18           	clc
    4ac5: 65 19        	adc	$19                     ; 0x2019 <main+0x1aa3>
    4ac7: aa           	tax
    4ac8: a5 15        	lda	$15                     ; 0x2015 <main+0x1a9f>
    4aca: 65 18        	adc	$18                     ; 0x2018 <main+0x1aa2>
    4acc: 86 18        	stx	$18                     ; 0x2018 <main+0x1aa2>
    4ace: 85 19        	sta	$19                     ; 0x2019 <main+0x1aa3>
    4ad0: a5 8f        	lda	$8f                     ; 0x208f <main+0x1b19>
    4ad2: 18           	clc
    4ad3: 69 0d        	adc	#$d
    4ad5: 85 14        	sta	$14                     ; 0x2014 <main+0x1a9e>
    4ad7: a5 90        	lda	$90                     ; 0x2090 <main+0x1b1a>
    4ad9: 69 00        	adc	#$0
    4adb: a0 0d        	ldy	#$d
    4add: 85 15        	sta	$15                     ; 0x2015 <main+0x1a9f>
    4adf: a5 1f        	lda	$1f                     ; 0x201f <main+0x1aa9>
    4ae1: 85 1a        	sta	$1a                     ; 0x201a <main+0x1aa4>
    4ae3: 91 8f        	sta	($8f),y                 ; 0x208f <main+0x1b19>
    4ae5: a0 01        	ldy	#$1
    4ae7: a5 1e        	lda	$1e                     ; 0x201e <main+0x1aa8>
    4ae9: 91 14        	sta	($14),y                 ; 0x2014 <main+0x1a9e>
    4aeb: e6 18        	inc	$18                     ; 0x2018 <main+0x1aa2>
    4aed: d0 1f        	bne	$4b0e <_ZN12_GLOBAL__N_15printEPKcP6Status+0x33a>
    4aef: e6 19        	inc	$19                     ; 0x2019 <main+0x1aa3>
    4af1: 80 1b        	bra	$4b0e <_ZN12_GLOBAL__N_15printEPKcP6Status+0x33a>
    4af3: a0 0d        	ldy	#$d
    4af5: a5 8f        	lda	$8f                     ; 0x208f <main+0x1b19>
    4af7: 18           	clc
    4af8: 69 0d        	adc	#$d
    4afa: 85 14        	sta	$14                     ; 0x2014 <main+0x1a9e>
    4afc: a5 90        	lda	$90                     ; 0x2090 <main+0x1b1a>
    4afe: 69 00        	adc	#$0
    4b00: 85 15        	sta	$15                     ; 0x2015 <main+0x1a9f>
    4b02: a9 00        	lda	#$0
    4b04: 91 8f        	sta	($8f),y                 ; 0x208f <main+0x1b19>
    4b06: a0 01        	ldy	#$1
    4b08: 64 1a        	stz	$1a                     ; 0x201a <main+0x1aa4>
    4b0a: 91 14        	sta	($14),y                 ; 0x2014 <main+0x1a9e>
    4b0c: 64 1e        	stz	$1e                     ; 0x201e <main+0x1aa8>
    4b0e: a5 95        	lda	$95                     ; 0x2095 <main+0x1b1f>
    4b10: 29 ef        	and	#$ef
    4b12: a6 8f        	ldx	$8f                     ; 0x208f <main+0x1b19>
    4b14: 86 14        	stx	$14                     ; 0x2014 <main+0x1a9e>
    4b16: a6 90        	ldx	$90                     ; 0x2090 <main+0x1b1a>
    4b18: 86 15        	stx	$15                     ; 0x2015 <main+0x1a9f>
    4b1a: e6 14        	inc	$14                     ; 0x2014 <main+0x1a9e>
    4b1c: d0 02        	bne	$4b20 <_ZN12_GLOBAL__N_15printEPKcP6Status+0x34c>
    4b1e: e6 15        	inc	$15                     ; 0x2015 <main+0x1a9f>
    4b20: 85 95        	sta	$95                     ; 0x2095 <main+0x1b1f>
    4b22: 91 8f        	sta	($8f),y                 ; 0x208f <main+0x1b19>
    4b24: a9 00        	lda	#$0
    4b26: 91 14        	sta	($14),y                 ; 0x2014 <main+0x1a9e>
    4b28: b2 18        	lda	($18)                   ; 0x2018 <main+0x1aa2>
    4b2a: a6 1e        	ldx	$1e                     ; 0x201e <main+0x1aa8>
    4b2c: 86 1b        	stx	$1b                     ; 0x201b <main+0x1aa5>
    4b2e: a6 18        	ldx	$18                     ; 0x2018 <main+0x1aa2>
    4b30: 86 14        	stx	$14                     ; 0x2014 <main+0x1a9e>
    4b32: a6 19        	ldx	$19                     ; 0x2019 <main+0x1aa3>
    4b34: 86 15        	stx	$15                     ; 0x2015 <main+0x1a9f>
    4b36: a6 14        	ldx	$14                     ; 0x2014 <main+0x1a9e>
    4b38: 86 18        	stx	$18                     ; 0x2018 <main+0x1aa2>
    4b3a: a6 15        	ldx	$15                     ; 0x2015 <main+0x1a9f>
    4b3c: 86 19        	stx	$19                     ; 0x2019 <main+0x1aa3>
    4b3e: e6 18        	inc	$18                     ; 0x2018 <main+0x1aa2>
    4b40: d0 02        	bne	$4b44 <_ZN12_GLOBAL__N_15printEPKcP6Status+0x370>
    4b42: e6 19        	inc	$19                     ; 0x2019 <main+0x1aa3>
    4b44: 38           	sec
    4b45: aa           	tax
    4b46: e9 6c        	sbc	#$6c
    4b48: 50 02        	bvc	$4b4c <_ZN12_GLOBAL__N_15printEPKcP6Status+0x378>
    4b4a: 49 80        	eor	#$80
    4b4c: c9 00        	cmp	#$0
    4b4e: 10 20        	bpl	$4b70 <_ZN12_GLOBAL__N_15printEPKcP6Status+0x39c>
    4b50: e0 4c        	cpx	#$4c
    4b52: f0 3a        	beq	$4b8e <_ZN12_GLOBAL__N_15printEPKcP6Status+0x3ba>
    4b54: 8a           	txa
    4b55: e0 68        	cpx	#$68
    4b57: d0 03        	bne	$4b5c <_ZN12_GLOBAL__N_15printEPKcP6Status+0x388>
    4b59: 4c 20 4c     	jmp	$4c20 <_ZN12_GLOBAL__N_15printEPKcP6Status+0x44c>
    4b5c: a0 08        	ldy	#$8
    4b5e: a2 02        	ldx	#$2
    4b60: c9 6a        	cmp	#$6a
    4b62: d0 26        	bne	$4b8a <_ZN12_GLOBAL__N_15printEPKcP6Status+0x3b6>
    4b64: a6 18        	ldx	$18                     ; 0x2018 <main+0x1aa2>
    4b66: 86 14        	stx	$14                     ; 0x2014 <main+0x1a9e>
    4b68: a6 19        	ldx	$19                     ; 0x2019 <main+0x1aa3>
    4b6a: 86 15        	stx	$15                     ; 0x2015 <main+0x1a9f>
    4b6c: a2 08        	ldx	#$8
    4b6e: 80 44        	bra	$4bb4 <_ZN12_GLOBAL__N_15printEPKcP6Status+0x3e0>
    4b70: e0 6c        	cpx	#$6c
    4b72: d0 03        	bne	$4b77 <_ZN12_GLOBAL__N_15printEPKcP6Status+0x3a3>
    4b74: 4c 04 4c     	jmp	$4c04 <_ZN12_GLOBAL__N_15printEPKcP6Status+0x430>
    4b77: 8a           	txa
    4b78: e0 74        	cpx	#$74
    4b7a: f0 2c        	beq	$4ba8 <_ZN12_GLOBAL__N_15printEPKcP6Status+0x3d4>
    4b7c: a2 02        	ldx	#$2
    4b7e: c9 7a        	cmp	#$7a
    4b80: d0 08        	bne	$4b8a <_ZN12_GLOBAL__N_15printEPKcP6Status+0x3b6>
    4b82: a4 18        	ldy	$18                     ; 0x2018 <main+0x1aa2>
    4b84: 84 14        	sty	$14                     ; 0x2014 <main+0x1a9e>
    4b86: a4 19        	ldy	$19                     ; 0x2019 <main+0x1aa3>
    4b88: 84 15        	sty	$15                     ; 0x2015 <main+0x1a9f>
    4b8a: a0 02        	ldy	#$2
    4b8c: 80 26        	bra	$4bb4 <_ZN12_GLOBAL__N_15printEPKcP6Status+0x3e0>
    4b8e: a5 95        	lda	$95                     ; 0x2095 <main+0x1b1f>
    4b90: 09 40        	ora	#$40
    4b92: a6 8f        	ldx	$8f                     ; 0x208f <main+0x1b19>
    4b94: 86 14        	stx	$14                     ; 0x2014 <main+0x1a9e>
    4b96: a6 90        	ldx	$90                     ; 0x2090 <main+0x1b1a>
    4b98: 86 15        	stx	$15                     ; 0x2015 <main+0x1a9f>
    4b9a: e6 14        	inc	$14                     ; 0x2014 <main+0x1a9e>
    4b9c: d0 02        	bne	$4ba0 <_ZN12_GLOBAL__N_15printEPKcP6Status+0x3cc>
    4b9e: e6 15        	inc	$15                     ; 0x2015 <main+0x1a9f>
    4ba0: 85 95        	sta	$95                     ; 0x2095 <main+0x1b1f>
    4ba2: 91 8f        	sta	($8f),y                 ; 0x208f <main+0x1b19>
    4ba4: a9 00        	lda	#$0
    4ba6: 91 14        	sta	($14),y                 ; 0x2014 <main+0x1a9e>
    4ba8: a6 18        	ldx	$18                     ; 0x2018 <main+0x1aa2>
    4baa: 86 14        	stx	$14                     ; 0x2014 <main+0x1a9e>
    4bac: a6 19        	ldx	$19                     ; 0x2019 <main+0x1aa3>
    4bae: 86 15        	stx	$15                     ; 0x2015 <main+0x1a9f>
    4bb0: a0 02        	ldy	#$2
    4bb2: a2 02        	ldx	#$2
    4bb4: b2 14        	lda	($14)                   ; 0x2014 <main+0x1a9e>
    4bb6: 5a           	phy
    4bb7: a4 14        	ldy	$14                     ; 0x2014 <main+0x1a9e>
    4bb9: 84 18        	sty	$18                     ; 0x2018 <main+0x1aa2>
    4bbb: a4 15        	ldy	$15                     ; 0x2015 <main+0x1a9f>
    4bbd: 84 19        	sty	$19                     ; 0x2019 <main+0x1aa3>
    4bbf: 7a           	ply
    4bc0: 86 91        	stx	$91                     ; 0x2091 <main+0x1b1b>
    4bc2: 5a           	phy
    4bc3: fa           	plx
    4bc4: 18           	clc
    4bc5: a8           	tay
    4bc6: 69 9d        	adc	#$9d
    4bc8: c9 16        	cmp	#$16
    4bca: 86 96        	stx	$96                     ; 0x2096 <main+0x1b20>
    4bcc: 90 03        	bcc	$4bd1 <_ZN12_GLOBAL__N_15printEPKcP6Status+0x3fd>
    4bce: 4c 3d 4c     	jmp	$4c3d <_ZN12_GLOBAL__N_15printEPKcP6Status+0x469>
    4bd1: 0a           	asl
    4bd2: aa           	tax
    4bd3: 7c ad 5a     	jmp	($5aad,x)               ; 0x5aad <__set_v+0x7d>
    4bd6: a5 1b        	lda	$1b                     ; 0x201b <main+0x1aa5>
    4bd8: 85 bd        	sta	$bd                     ; 0x20bd <main+0x1b47>
    4bda: a4 1a        	ldy	$1a                     ; 0x201a <main+0x1aa4>
    4bdc: 84 be        	sty	$be                     ; 0x20be <main+0x1b48>
    4bde: a6 16        	ldx	$16                     ; 0x2016 <main+0x1aa0>
    4be0: 86 c0        	stx	$c0                     ; 0x20c0 <main+0x1b4a>
    4be2: a6 17        	ldx	$17                     ; 0x2017 <main+0x1aa1>
    4be4: 86 bf        	stx	$bf                     ; 0x20bf <main+0x1b49>
    4be6: a6 18        	ldx	$18                     ; 0x2018 <main+0x1aa2>
    4be8: 86 12        	stx	$12                     ; 0x2012 <main+0x1a9c>
    4bea: a6 19        	ldx	$19                     ; 0x2019 <main+0x1aa3>
    4bec: 86 13        	stx	$13                     ; 0x2013 <main+0x1a9d>
    4bee: a6 12        	ldx	$12                     ; 0x2012 <main+0x1a9c>
    4bf0: 86 b9        	stx	$b9                     ; 0x20b9 <main+0x1b43>
    4bf2: a6 13        	ldx	$13                     ; 0x2013 <main+0x1a9d>
    4bf4: 86 ba        	stx	$ba                     ; 0x20ba <main+0x1b44>
    4bf6: a9 0a        	lda	#$a
    4bf8: aa           	tax
    4bf9: 86 b8        	stx	$b8                     ; 0x20b8 <main+0x1b42>
    4bfb: 92 8f        	sta	($8f)                   ; 0x208f <main+0x1b19>
    4bfd: a2 00        	ldx	#$0
    4bff: 86 c1        	stx	$c1                     ; 0x20c1 <main+0x1b4b>
    4c01: 4c 61 4e     	jmp	$4e61 <_ZN12_GLOBAL__N_15printEPKcP6Status+0x68d>
    4c04: b1 14        	lda	($14),y                 ; 0x2014 <main+0x1a9e>
    4c06: a2 04        	ldx	#$4
    4c08: c9 6c        	cmp	#$6c
    4c0a: d0 2c        	bne	$4c38 <_ZN12_GLOBAL__N_15printEPKcP6Status+0x464>
    4c0c: a5 14        	lda	$14                     ; 0x2014 <main+0x1a9e>
    4c0e: 18           	clc
    4c0f: 69 02        	adc	#$2
    4c11: 85 14        	sta	$14                     ; 0x2014 <main+0x1a9e>
    4c13: a5 15        	lda	$15                     ; 0x2015 <main+0x1a9f>
    4c15: 69 00        	adc	#$0
    4c17: 85 15        	sta	$15                     ; 0x2015 <main+0x1a9f>
    4c19: a2 08        	ldx	#$8
    4c1b: a0 08        	ldy	#$8
    4c1d: 4c b4 4b     	jmp	$4bb4 <_ZN12_GLOBAL__N_15printEPKcP6Status+0x3e0>
    4c20: b1 14        	lda	($14),y                 ; 0x2014 <main+0x1a9e>
    4c22: a2 02        	ldx	#$2
    4c24: c9 68        	cmp	#$68
    4c26: d0 10        	bne	$4c38 <_ZN12_GLOBAL__N_15printEPKcP6Status+0x464>
    4c28: a5 14        	lda	$14                     ; 0x2014 <main+0x1a9e>
    4c2a: 18           	clc
    4c2b: 69 02        	adc	#$2
    4c2d: 85 14        	sta	$14                     ; 0x2014 <main+0x1a9e>
    4c2f: a5 15        	lda	$15                     ; 0x2015 <main+0x1a9f>
    4c31: 69 00        	adc	#$0
    4c33: 85 15        	sta	$15                     ; 0x2015 <main+0x1a9f>
    4c35: 4c b4 4b     	jmp	$4bb4 <_ZN12_GLOBAL__N_15printEPKcP6Status+0x3e0>
    4c38: 86 91        	stx	$91                     ; 0x2091 <main+0x1b1b>
    4c3a: 4c c4 4b     	jmp	$4bc4 <_ZN12_GLOBAL__N_15printEPKcP6Status+0x3f0>
    4c3d: c0 58        	cpy	#$58
    4c3f: f0 03        	beq	$4c44 <_ZN12_GLOBAL__N_15printEPKcP6Status+0x470>
    4c41: 4c 07 53     	jmp	$5307 <_ZN12_GLOBAL__N_15printEPKcP6Status+0xb33>
    4c44: a5 1b        	lda	$1b                     ; 0x201b <main+0x1aa5>
    4c46: 85 bd        	sta	$bd                     ; 0x20bd <main+0x1b47>
    4c48: a4 1a        	ldy	$1a                     ; 0x201a <main+0x1aa4>
    4c4a: 84 be        	sty	$be                     ; 0x20be <main+0x1b48>
    4c4c: a6 16        	ldx	$16                     ; 0x2016 <main+0x1aa0>
    4c4e: 86 c0        	stx	$c0                     ; 0x20c0 <main+0x1b4a>
    4c50: a6 17        	ldx	$17                     ; 0x2017 <main+0x1aa1>
    4c52: 86 bf        	stx	$bf                     ; 0x20bf <main+0x1b49>
    4c54: a6 18        	ldx	$18                     ; 0x2018 <main+0x1aa2>
    4c56: 86 12        	stx	$12                     ; 0x2012 <main+0x1a9c>
    4c58: a6 19        	ldx	$19                     ; 0x2019 <main+0x1aa3>
    4c5a: 86 13        	stx	$13                     ; 0x2013 <main+0x1a9d>
    4c5c: a6 12        	ldx	$12                     ; 0x2012 <main+0x1a9c>
    4c5e: 86 b9        	stx	$b9                     ; 0x20b9 <main+0x1b43>
    4c60: a6 13        	ldx	$13                     ; 0x2013 <main+0x1a9d>
    4c62: 86 ba        	stx	$ba                     ; 0x20ba <main+0x1b44>
    4c64: a9 10        	lda	#$10
    4c66: 4c 41 4e     	jmp	$4e41 <_ZN12_GLOBAL__N_15printEPKcP6Status+0x66d>
    4c69: a5 1b        	lda	$1b                     ; 0x201b <main+0x1aa5>
    4c6b: 85 bd        	sta	$bd                     ; 0x20bd <main+0x1b47>
    4c6d: a4 1a        	ldy	$1a                     ; 0x201a <main+0x1aa4>
    4c6f: 84 be        	sty	$be                     ; 0x20be <main+0x1b48>
    4c71: a6 16        	ldx	$16                     ; 0x2016 <main+0x1aa0>
    4c73: 86 c0        	stx	$c0                     ; 0x20c0 <main+0x1b4a>
    4c75: a6 17        	ldx	$17                     ; 0x2017 <main+0x1aa1>
    4c77: 86 bf        	stx	$bf                     ; 0x20bf <main+0x1b49>
    4c79: a6 18        	ldx	$18                     ; 0x2018 <main+0x1aa2>
    4c7b: 86 12        	stx	$12                     ; 0x2012 <main+0x1a9c>
    4c7d: a6 19        	ldx	$19                     ; 0x2019 <main+0x1aa3>
    4c7f: 86 13        	stx	$13                     ; 0x2013 <main+0x1a9d>
    4c81: a6 12        	ldx	$12                     ; 0x2012 <main+0x1a9c>
    4c83: 86 b9        	stx	$b9                     ; 0x20b9 <main+0x1b43>
    4c85: a6 13        	ldx	$13                     ; 0x2013 <main+0x1a9d>
    4c87: 86 ba        	stx	$ba                     ; 0x20ba <main+0x1b44>
    4c89: a9 10        	lda	#$10
    4c8b: 92 8f        	sta	($8f)                   ; 0x208f <main+0x1b19>
    4c8d: a5 95        	lda	$95                     ; 0x2095 <main+0x1b1f>
    4c8f: 09 84        	ora	#$84
    4c91: aa           	tax
    4c92: a9 00        	lda	#$0
    4c94: 09 01        	ora	#$1
    4c96: 85 14        	sta	$14                     ; 0x2014 <main+0x1a9e>
    4c98: a4 8f        	ldy	$8f                     ; 0x208f <main+0x1b19>
    4c9a: 84 12        	sty	$12                     ; 0x2012 <main+0x1a9c>
    4c9c: a4 90        	ldy	$90                     ; 0x2090 <main+0x1b1a>
    4c9e: 84 13        	sty	$13                     ; 0x2013 <main+0x1a9d>
    4ca0: e6 12        	inc	$12                     ; 0x2012 <main+0x1a9c>
    4ca2: d0 02        	bne	$4ca6 <_ZN12_GLOBAL__N_15printEPKcP6Status+0x4d2>
    4ca4: e6 13        	inc	$13                     ; 0x2013 <main+0x1a9d>
    4ca6: a0 01        	ldy	#$1
    4ca8: 86 95        	stx	$95                     ; 0x2095 <main+0x1b1f>
    4caa: 8a           	txa
    4cab: 91 8f        	sta	($8f),y                 ; 0x208f <main+0x1b19>
    4cad: a5 14        	lda	$14                     ; 0x2014 <main+0x1a9e>
    4caf: a6 14        	ldx	$14                     ; 0x2014 <main+0x1a9e>
    4cb1: 4c 5d 4e     	jmp	$4e5d <_ZN12_GLOBAL__N_15printEPKcP6Status+0x689>
    4cb4: a5 1b        	lda	$1b                     ; 0x201b <main+0x1aa5>
    4cb6: 85 bd        	sta	$bd                     ; 0x20bd <main+0x1b47>
    4cb8: a4 1a        	ldy	$1a                     ; 0x201a <main+0x1aa4>
    4cba: 84 be        	sty	$be                     ; 0x20be <main+0x1b48>
    4cbc: a6 16        	ldx	$16                     ; 0x2016 <main+0x1aa0>
    4cbe: 86 c0        	stx	$c0                     ; 0x20c0 <main+0x1b4a>
    4cc0: a6 17        	ldx	$17                     ; 0x2017 <main+0x1aa1>
    4cc2: 86 bf        	stx	$bf                     ; 0x20bf <main+0x1b49>
    4cc4: a6 18        	ldx	$18                     ; 0x2018 <main+0x1aa2>
    4cc6: 86 12        	stx	$12                     ; 0x2012 <main+0x1a9c>
    4cc8: a6 19        	ldx	$19                     ; 0x2019 <main+0x1aa3>
    4cca: 86 13        	stx	$13                     ; 0x2013 <main+0x1a9d>
    4ccc: a6 12        	ldx	$12                     ; 0x2012 <main+0x1a9c>
    4cce: 86 b9        	stx	$b9                     ; 0x20b9 <main+0x1b43>
    4cd0: a6 13        	ldx	$13                     ; 0x2013 <main+0x1a9d>
    4cd2: 86 ba        	stx	$ba                     ; 0x20ba <main+0x1b44>
    4cd4: a9 10        	lda	#$10
    4cd6: 92 8f        	sta	($8f)                   ; 0x208f <main+0x1b19>
    4cd8: a5 95        	lda	$95                     ; 0x2095 <main+0x1b1f>
    4cda: 09 80        	ora	#$80
    4cdc: 85 14        	sta	$14                     ; 0x2014 <main+0x1a9e>
    4cde: a9 00        	lda	#$0
    4ce0: 09 01        	ora	#$1
    4ce2: aa           	tax
    4ce3: a4 8f        	ldy	$8f                     ; 0x208f <main+0x1b19>
    4ce5: 84 12        	sty	$12                     ; 0x2012 <main+0x1a9c>
    4ce7: a4 90        	ldy	$90                     ; 0x2090 <main+0x1b1a>
    4ce9: 84 13        	sty	$13                     ; 0x2013 <main+0x1a9d>
    4ceb: e6 12        	inc	$12                     ; 0x2012 <main+0x1a9c>
    4ced: d0 02        	bne	$4cf1 <_ZN12_GLOBAL__N_15printEPKcP6Status+0x51d>
    4cef: e6 13        	inc	$13                     ; 0x2013 <main+0x1a9d>
    4cf1: a0 01        	ldy	#$1
    4cf3: a5 14        	lda	$14                     ; 0x2014 <main+0x1a9e>
    4cf5: 85 95        	sta	$95                     ; 0x2095 <main+0x1b1f>
    4cf7: 4c 5a 4e     	jmp	$4e5a <_ZN12_GLOBAL__N_15printEPKcP6Status+0x686>
    4cfa: a4 8f        	ldy	$8f                     ; 0x208f <main+0x1b19>
    4cfc: a5 8f        	lda	$8f                     ; 0x208f <main+0x1b19>
    4cfe: 84 16        	sty	$16                     ; 0x2016 <main+0x1aa0>
    4d00: 18           	clc
    4d01: 69 11        	adc	#$11
    4d03: 85 12        	sta	$12                     ; 0x2012 <main+0x1a9c>
    4d05: a5 90        	lda	$90                     ; 0x2090 <main+0x1b1a>
    4d07: 69 00        	adc	#$0
    4d09: 85 13        	sta	$13                     ; 0x2013 <main+0x1a9d>
    4d0b: a0 11        	ldy	#$11
    4d0d: b1 8f        	lda	($8f),y                 ; 0x208f <main+0x1b19>
    4d0f: 85 14        	sta	$14                     ; 0x2014 <main+0x1a9e>
    4d11: 18           	clc
    4d12: 69 02        	adc	#$2
    4d14: 91 8f        	sta	($8f),y                 ; 0x208f <main+0x1b19>
    4d16: a0 01        	ldy	#$1
    4d18: b1 12        	lda	($12),y                 ; 0x2012 <main+0x1a9c>
    4d1a: 85 15        	sta	$15                     ; 0x2015 <main+0x1a9f>
    4d1c: 69 00        	adc	#$0
    4d1e: 18           	clc
    4d1f: 91 12        	sta	($12),y                 ; 0x2012 <main+0x1a9c>
    4d21: b2 14        	lda	($14)                   ; 0x2014 <main+0x1a9e>
    4d23: 85 12        	sta	$12                     ; 0x2012 <main+0x1a9c>
    4d25: b1 14        	lda	($14),y                 ; 0x2014 <main+0x1a9e>
    4d27: 85 13        	sta	$13                     ; 0x2013 <main+0x1a9d>
    4d29: a5 16        	lda	$16                     ; 0x2016 <main+0x1aa0>
    4d2b: 69 05        	adc	#$5
    4d2d: 85 14        	sta	$14                     ; 0x2014 <main+0x1a9e>
    4d2f: a5 90        	lda	$90                     ; 0x2090 <main+0x1b1a>
    4d31: 69 00        	adc	#$0
    4d33: 85 15        	sta	$15                     ; 0x2015 <main+0x1a9f>
    4d35: a0 05        	ldy	#$5
    4d37: b1 8f        	lda	($8f),y                 ; 0x208f <main+0x1b19>
    4d39: 85 16        	sta	$16                     ; 0x2016 <main+0x1aa0>
    4d3b: a0 01        	ldy	#$1
    4d3d: b1 14        	lda	($14),y                 ; 0x2014 <main+0x1a9e>
    4d3f: 85 14        	sta	$14                     ; 0x2014 <main+0x1a9e>
    4d41: a5 16        	lda	$16                     ; 0x2016 <main+0x1aa0>
    4d43: 92 12        	sta	($12)                   ; 0x2012 <main+0x1a9c>
    4d45: a5 14        	lda	$14                     ; 0x2014 <main+0x1a9e>
    4d47: 91 12        	sta	($12),y                 ; 0x2012 <main+0x1a9c>
    4d49: e6 18        	inc	$18                     ; 0x2018 <main+0x1aa2>
    4d4b: d0 02        	bne	$4d4f <_ZN12_GLOBAL__N_15printEPKcP6Status+0x57b>
    4d4d: e6 19        	inc	$19                     ; 0x2019 <main+0x1aa3>
    4d4f: a6 18        	ldx	$18                     ; 0x2018 <main+0x1aa2>
    4d51: 86 12        	stx	$12                     ; 0x2012 <main+0x1a9c>
    4d53: a6 19        	ldx	$19                     ; 0x2019 <main+0x1aa3>
    4d55: 4c 19 4e     	jmp	$4e19 <_ZN12_GLOBAL__N_15printEPKcP6Status+0x645>
    4d58: a0 11        	ldy	#$11
    4d5a: a5 8f        	lda	$8f                     ; 0x208f <main+0x1b19>
    4d5c: 18           	clc
    4d5d: 69 11        	adc	#$11
    4d5f: 85 12        	sta	$12                     ; 0x2012 <main+0x1a9c>
    4d61: a5 90        	lda	$90                     ; 0x2090 <main+0x1b1a>
    4d63: 69 00        	adc	#$0
    4d65: 85 13        	sta	$13                     ; 0x2013 <main+0x1a9d>
    4d67: b1 8f        	lda	($8f),y                 ; 0x208f <main+0x1b19>
    4d69: aa           	tax
    4d6a: a0 01        	ldy	#$1
    4d6c: b1 12        	lda	($12),y                 ; 0x2012 <main+0x1a9c>
    4d6e: 86 14        	stx	$14                     ; 0x2014 <main+0x1a9e>
    4d70: 85 15        	sta	$15                     ; 0x2015 <main+0x1a9f>
    4d72: a8           	tay
    4d73: 18           	clc
    4d74: 8a           	txa
    4d75: 69 02        	adc	#$2
    4d77: 85 16        	sta	$16                     ; 0x2016 <main+0x1aa0>
    4d79: 98           	tya
    4d7a: 69 00        	adc	#$0
    4d7c: 85 17        	sta	$17                     ; 0x2017 <main+0x1aa1>
    4d7e: a5 16        	lda	$16                     ; 0x2016 <main+0x1aa0>
    4d80: a0 11        	ldy	#$11
    4d82: 91 8f        	sta	($8f),y                 ; 0x208f <main+0x1b19>
    4d84: a0 01        	ldy	#$1
    4d86: a5 17        	lda	$17                     ; 0x2017 <main+0x1aa1>
    4d88: 91 12        	sta	($12),y                 ; 0x2012 <main+0x1a9c>
    4d8a: b2 14        	lda	($14)                   ; 0x2014 <main+0x1a9e>
    4d8c: 85 12        	sta	$12                     ; 0x2012 <main+0x1a9c>
    4d8e: b1 14        	lda	($14),y                 ; 0x2014 <main+0x1a9e>
    4d90: 85 13        	sta	$13                     ; 0x2013 <main+0x1a9d>
    4d92: 4c fa 4d     	jmp	$4dfa <_ZN12_GLOBAL__N_15printEPKcP6Status+0x626>
    4d95: a5 1b        	lda	$1b                     ; 0x201b <main+0x1aa5>
    4d97: 85 bd        	sta	$bd                     ; 0x20bd <main+0x1b47>
    4d99: a4 1a        	ldy	$1a                     ; 0x201a <main+0x1aa4>
    4d9b: 84 be        	sty	$be                     ; 0x20be <main+0x1b48>
    4d9d: a6 16        	ldx	$16                     ; 0x2016 <main+0x1aa0>
    4d9f: 86 c0        	stx	$c0                     ; 0x20c0 <main+0x1b4a>
    4da1: a6 17        	ldx	$17                     ; 0x2017 <main+0x1aa1>
    4da3: 86 bf        	stx	$bf                     ; 0x20bf <main+0x1b49>
    4da5: a6 18        	ldx	$18                     ; 0x2018 <main+0x1aa2>
    4da7: 86 12        	stx	$12                     ; 0x2012 <main+0x1a9c>
    4da9: a6 19        	ldx	$19                     ; 0x2019 <main+0x1aa3>
    4dab: 86 13        	stx	$13                     ; 0x2013 <main+0x1a9d>
    4dad: a6 12        	ldx	$12                     ; 0x2012 <main+0x1a9c>
    4daf: 86 b9        	stx	$b9                     ; 0x20b9 <main+0x1b43>
    4db1: a6 13        	ldx	$13                     ; 0x2013 <main+0x1a9d>
    4db3: 86 ba        	stx	$ba                     ; 0x20ba <main+0x1b44>
    4db5: a9 08        	lda	#$8
    4db7: 4c 3e 4e     	jmp	$4e3e <_ZN12_GLOBAL__N_15printEPKcP6Status+0x66a>
    4dba: a0 11        	ldy	#$11
    4dbc: a5 8f        	lda	$8f                     ; 0x208f <main+0x1b19>
    4dbe: 18           	clc
    4dbf: 69 11        	adc	#$11
    4dc1: 85 12        	sta	$12                     ; 0x2012 <main+0x1a9c>
    4dc3: a5 90        	lda	$90                     ; 0x2090 <main+0x1b1a>
    4dc5: 69 00        	adc	#$0
    4dc7: 85 13        	sta	$13                     ; 0x2013 <main+0x1a9d>
    4dc9: b1 8f        	lda	($8f),y                 ; 0x208f <main+0x1b19>
    4dcb: aa           	tax
    4dcc: a0 01        	ldy	#$1
    4dce: b1 12        	lda	($12),y                 ; 0x2012 <main+0x1a9c>
    4dd0: 86 14        	stx	$14                     ; 0x2014 <main+0x1a9e>
    4dd2: 85 15        	sta	$15                     ; 0x2015 <main+0x1a9f>
    4dd4: a8           	tay
    4dd5: 18           	clc
    4dd6: 8a           	txa
    4dd7: 69 02        	adc	#$2
    4dd9: 85 16        	sta	$16                     ; 0x2016 <main+0x1aa0>
    4ddb: 98           	tya
    4ddc: 69 00        	adc	#$0
    4dde: 85 17        	sta	$17                     ; 0x2017 <main+0x1aa1>
    4de0: a5 16        	lda	$16                     ; 0x2016 <main+0x1aa0>
    4de2: a0 11        	ldy	#$11
    4de4: 91 8f        	sta	($8f),y                 ; 0x208f <main+0x1b19>
    4de6: a0 01        	ldy	#$1
    4de8: a5 17        	lda	$17                     ; 0x2017 <main+0x1aa1>
    4dea: 91 12        	sta	($12),y                 ; 0x2012 <main+0x1a9c>
    4dec: b2 14        	lda	($14)                   ; 0x2014 <main+0x1a9e>
    4dee: 85 98        	sta	$98                     ; 0x2098 <main+0x1b22>
    4df0: 64 99        	stz	$99                     ; 0x2099 <main+0x1b23>
    4df2: a2 98        	ldx	#$98
    4df4: a0 00        	ldy	#$0
    4df6: 86 12        	stx	$12                     ; 0x2012 <main+0x1a9c>
    4df8: 84 13        	sty	$13                     ; 0x2013 <main+0x1a9d>
    4dfa: a6 18        	ldx	$18                     ; 0x2018 <main+0x1aa2>
    4dfc: 86 91        	stx	$91                     ; 0x2091 <main+0x1b1b>
    4dfe: a6 19        	ldx	$19                     ; 0x2019 <main+0x1aa3>
    4e00: 86 92        	stx	$92                     ; 0x2092 <main+0x1b1c>
    4e02: a6 8f        	ldx	$8f                     ; 0x208f <main+0x1b19>
    4e04: 86 14        	stx	$14                     ; 0x2014 <main+0x1a9e>
    4e06: a6 90        	ldx	$90                     ; 0x2090 <main+0x1b1a>
    4e08: 86 15        	stx	$15                     ; 0x2015 <main+0x1a9f>
    4e0a: 20 e3 53     	jsr	$53e3 <_ZN12_GLOBAL__N_112print_stringEPKcP6Status>
    4e0d: e6 91        	inc	$91                     ; 0x2091 <main+0x1b1b>
    4e0f: d0 02        	bne	$4e13 <_ZN12_GLOBAL__N_15printEPKcP6Status+0x63f>
    4e11: e6 92        	inc	$92                     ; 0x2092 <main+0x1b1c>
    4e13: a6 91        	ldx	$91                     ; 0x2091 <main+0x1b1b>
    4e15: 86 12        	stx	$12                     ; 0x2012 <main+0x1a9c>
    4e17: a6 92        	ldx	$92                     ; 0x2092 <main+0x1b1c>
    4e19: 86 13        	stx	$13                     ; 0x2013 <main+0x1a9d>
    4e1b: 60           	rts
    4e1c: a5 1b        	lda	$1b                     ; 0x201b <main+0x1aa5>
    4e1e: 85 bd        	sta	$bd                     ; 0x20bd <main+0x1b47>
    4e20: a4 1a        	ldy	$1a                     ; 0x201a <main+0x1aa4>
    4e22: 84 be        	sty	$be                     ; 0x20be <main+0x1b48>
    4e24: a6 16        	ldx	$16                     ; 0x2016 <main+0x1aa0>
    4e26: 86 c0        	stx	$c0                     ; 0x20c0 <main+0x1b4a>
    4e28: a6 17        	ldx	$17                     ; 0x2017 <main+0x1aa1>
    4e2a: 86 bf        	stx	$bf                     ; 0x20bf <main+0x1b49>
    4e2c: a6 18        	ldx	$18                     ; 0x2018 <main+0x1aa2>
    4e2e: 86 12        	stx	$12                     ; 0x2012 <main+0x1a9c>
    4e30: a6 19        	ldx	$19                     ; 0x2019 <main+0x1aa3>
    4e32: 86 13        	stx	$13                     ; 0x2013 <main+0x1a9d>
    4e34: a6 12        	ldx	$12                     ; 0x2012 <main+0x1a9c>
    4e36: 86 b9        	stx	$b9                     ; 0x20b9 <main+0x1b43>
    4e38: a6 13        	ldx	$13                     ; 0x2013 <main+0x1a9d>
    4e3a: 86 ba        	stx	$ba                     ; 0x20ba <main+0x1b44>
    4e3c: a9 0a        	lda	#$a
    4e3e: aa           	tax
    4e3f: 86 b8        	stx	$b8                     ; 0x20b8 <main+0x1b42>
    4e41: 92 8f        	sta	($8f)                   ; 0x208f <main+0x1b19>
    4e43: a9 00        	lda	#$0
    4e45: 09 01        	ora	#$1
    4e47: aa           	tax
    4e48: a4 8f        	ldy	$8f                     ; 0x208f <main+0x1b19>
    4e4a: 84 12        	sty	$12                     ; 0x2012 <main+0x1a9c>
    4e4c: a4 90        	ldy	$90                     ; 0x2090 <main+0x1b1a>
    4e4e: 84 13        	sty	$13                     ; 0x2013 <main+0x1a9d>
    4e50: e6 12        	inc	$12                     ; 0x2012 <main+0x1a9c>
    4e52: d0 02        	bne	$4e56 <_ZN12_GLOBAL__N_15printEPKcP6Status+0x682>
    4e54: e6 13        	inc	$13                     ; 0x2013 <main+0x1a9d>
    4e56: a0 01        	ldy	#$1
    4e58: a5 95        	lda	$95                     ; 0x2095 <main+0x1b1f>
    4e5a: 91 8f        	sta	($8f),y                 ; 0x208f <main+0x1b19>
    4e5c: 8a           	txa
    4e5d: 86 c1        	stx	$c1                     ; 0x20c1 <main+0x1b4b>
    4e5f: 91 12        	sta	($12),y                 ; 0x2012 <main+0x1a9c>
    4e61: a2 af        	ldx	#$af
    4e63: a0 00        	ldy	#$0
    4e65: 86 12        	stx	$12                     ; 0x2012 <main+0x1a9c>
    4e67: 84 13        	sty	$13                     ; 0x2013 <main+0x1a9d>
    4e69: e6 12        	inc	$12                     ; 0x2012 <main+0x1a9c>
    4e6b: d0 02        	bne	$4e6f <_ZN12_GLOBAL__N_15printEPKcP6Status+0x69b>
    4e6d: e6 13        	inc	$13                     ; 0x2013 <main+0x1a9d>
    4e6f: a0 11        	ldy	#$11
    4e71: a2 00        	ldx	#$0
    4e73: a5 8f        	lda	$8f                     ; 0x208f <main+0x1b19>
    4e75: 18           	clc
    4e76: 69 11        	adc	#$11
    4e78: 85 93        	sta	$93                     ; 0x2093 <main+0x1b1d>
    4e7a: a5 90        	lda	$90                     ; 0x2090 <main+0x1b1a>
    4e7c: 69 00        	adc	#$0
    4e7e: 85 94        	sta	$94                     ; 0x2094 <main+0x1b1e>
    4e80: b1 8f        	lda	($8f),y                 ; 0x208f <main+0x1b19>
    4e82: 85 92        	sta	$92                     ; 0x2092 <main+0x1b1c>
    4e84: a0 01        	ldy	#$1
    4e86: b1 93        	lda	($93),y                 ; 0x2093 <main+0x1b1d>
    4e88: 85 c2        	sta	$c2                     ; 0x20c2 <main+0x1b4c>
    4e8a: a4 92        	ldy	$92                     ; 0x2092 <main+0x1b1c>
    4e8c: 84 14        	sty	$14                     ; 0x2014 <main+0x1a9e>
    4e8e: 85 15        	sta	$15                     ; 0x2015 <main+0x1a9f>
    4e90: 64 97        	stz	$97                     ; 0x2097 <main+0x1b21>
    4e92: a5 96        	lda	$96                     ; 0x2096 <main+0x1b20>
    4e94: a4 96        	ldy	$96                     ; 0x2096 <main+0x1b20>
    4e96: 84 c3        	sty	$c3                     ; 0x20c3 <main+0x1b4d>
    4e98: 20 b2 59     	jsr	$59b2 <memcpy>
    4e9b: a2 00        	ldx	#$0
    4e9d: 86 bc        	stx	$bc                     ; 0x20bc <main+0x1b46>
    4e9f: 18           	clc
    4ea0: a5 92        	lda	$92                     ; 0x2092 <main+0x1b1c>
    4ea2: 65 91        	adc	$91                     ; 0x2091 <main+0x1b1b>
    4ea4: 85 13        	sta	$13                     ; 0x2013 <main+0x1a9d>
    4ea6: a5 c2        	lda	$c2                     ; 0x20c2 <main+0x1b4c>
    4ea8: 69 00        	adc	#$0
    4eaa: 85 12        	sta	$12                     ; 0x2012 <main+0x1a9c>
    4eac: a0 11        	ldy	#$11
    4eae: a5 13        	lda	$13                     ; 0x2013 <main+0x1a9d>
    4eb0: 91 8f        	sta	($8f),y                 ; 0x208f <main+0x1b19>
    4eb2: a0 01        	ldy	#$1
    4eb4: a5 12        	lda	$12                     ; 0x2012 <main+0x1a9c>
    4eb6: 91 93        	sta	($93),y                 ; 0x2093 <main+0x1b1d>
    4eb8: a5 c1        	lda	$c1                     ; 0x20c1 <main+0x1b4b>
    4eba: 29 01        	and	#$1
    4ebc: d0 4c        	bne	$4f0a <_ZN12_GLOBAL__N_15printEPKcP6Status+0x736>
    4ebe: a6 c3        	ldx	$c3                     ; 0x20c3 <main+0x1b4d>
    4ec0: b4 af        	ldy	$af,x                   ; 0x20af <main+0x1b39>
    4ec2: a6 bf        	ldx	$bf                     ; 0x20bf <main+0x1b49>
    4ec4: 86 12        	stx	$12                     ; 0x2012 <main+0x1a9c>
    4ec6: a6 c0        	ldx	$c0                     ; 0x20c0 <main+0x1b4a>
    4ec8: 86 13        	stx	$13                     ; 0x2013 <main+0x1a9d>
    4eca: a6 be        	ldx	$be                     ; 0x20be <main+0x1b48>
    4ecc: 86 91        	stx	$91                     ; 0x2091 <main+0x1b1b>
    4ece: a6 bd        	ldx	$bd                     ; 0x20bd <main+0x1b47>
    4ed0: 86 92        	stx	$92                     ; 0x2092 <main+0x1b1c>
    4ed2: 98           	tya
    4ed3: 10 45        	bpl	$4f1a <_ZN12_GLOBAL__N_15printEPKcP6Status+0x746>
    4ed5: a2 00        	ldx	#$0
    4ed7: 64 14        	stz	$14                     ; 0x2014 <main+0x1a9e>
    4ed9: 38           	sec
    4eda: a9 00        	lda	#$0
    4edc: f5 b0        	sbc	$b0,x                   ; 0x20b0 <main+0x1b3a>
    4ede: a0 00        	ldy	#$0
    4ee0: b0 02        	bcs	$4ee4 <_ZN12_GLOBAL__N_15printEPKcP6Status+0x710>
    4ee2: a0 01        	ldy	#$1
    4ee4: 38           	sec
    4ee5: e5 14        	sbc	$14                     ; 0x2014 <main+0x1a9e>
    4ee7: 85 15        	sta	$15                     ; 0x2015 <main+0x1a9f>
    4ee9: 64 14        	stz	$14                     ; 0x2014 <main+0x1a9e>
    4eeb: b0 04        	bcs	$4ef1 <_ZN12_GLOBAL__N_15printEPKcP6Status+0x71d>
    4eed: a9 01        	lda	#$1
    4eef: 85 14        	sta	$14                     ; 0x2014 <main+0x1a9e>
    4ef1: 98           	tya
    4ef2: 05 14        	ora	$14                     ; 0x2014 <main+0x1a9e>
    4ef4: 85 14        	sta	$14                     ; 0x2014 <main+0x1a9e>
    4ef6: a5 15        	lda	$15                     ; 0x2015 <main+0x1a9f>
    4ef8: 9d b0 00     	sta	$b0,x                   ; 0xb0 <__rc31+0x81>
    4efb: e8           	inx
    4efc: 86 15        	stx	$15                     ; 0x2015 <main+0x1a9f>
    4efe: a4 96        	ldy	$96                     ; 0x2096 <main+0x1b20>
    4f00: c4 15        	cpy	$15                     ; 0x2015 <main+0x1a9f>
    4f02: d0 d5        	bne	$4ed9 <_ZN12_GLOBAL__N_15printEPKcP6Status+0x705>
    4f04: a2 01        	ldx	#$1
    4f06: 86 bc        	stx	$bc                     ; 0x20bc <main+0x1b46>
    4f08: 80 10        	bra	$4f1a <_ZN12_GLOBAL__N_15printEPKcP6Status+0x746>
    4f0a: a6 bf        	ldx	$bf                     ; 0x20bf <main+0x1b49>
    4f0c: 86 12        	stx	$12                     ; 0x2012 <main+0x1a9c>
    4f0e: a6 c0        	ldx	$c0                     ; 0x20c0 <main+0x1b4a>
    4f10: 86 13        	stx	$13                     ; 0x2013 <main+0x1a9d>
    4f12: a6 be        	ldx	$be                     ; 0x20be <main+0x1b48>
    4f14: 86 91        	stx	$91                     ; 0x2091 <main+0x1b1b>
    4f16: a6 bd        	ldx	$bd                     ; 0x20bd <main+0x1b47>
    4f18: 86 92        	stx	$92                     ; 0x2092 <main+0x1b1c>
    4f1a: a5 96        	lda	$96                     ; 0x2096 <main+0x1b20>
    4f1c: 0a           	asl
    4f1d: 0a           	asl
    4f1e: 0a           	asl
    4f1f: 85 14        	sta	$14                     ; 0x2014 <main+0x1a9e>
    4f21: 64 94        	stz	$94                     ; 0x2094 <main+0x1b1e>
    4f23: a5 94        	lda	$94                     ; 0x2094 <main+0x1b1e>
    4f25: f0 50        	beq	$4f77 <_ZN12_GLOBAL__N_15printEPKcP6Status+0x7a3>
    4f27: a6 94        	ldx	$94                     ; 0x2094 <main+0x1b1e>
    4f29: ca           	dex
    4f2a: 86 17        	stx	$17                     ; 0x2017 <main+0x1aa1>
    4f2c: a2 00        	ldx	#$0
    4f2e: 64 15        	stz	$15                     ; 0x2015 <main+0x1a9f>
    4f30: 80 0d        	bra	$4f3f <_ZN12_GLOBAL__N_15printEPKcP6Status+0x76b>
    4f32: a4 15        	ldy	$15                     ; 0x2015 <main+0x1a9f>
    4f34: 99 9a 00     	sta	$9a,y                   ; 0x9a <__rc31+0x6b>
    4f37: a4 17        	ldy	$17                     ; 0x2017 <main+0x1aa1>
    4f39: c4 15        	cpy	$15                     ; 0x2015 <main+0x1a9f>
    4f3b: f0 46        	beq	$4f83 <_ZN12_GLOBAL__N_15printEPKcP6Status+0x7af>
    4f3d: e6 15        	inc	$15                     ; 0x2015 <main+0x1a9f>
    4f3f: a4 15        	ldy	$15                     ; 0x2015 <main+0x1a9f>
    4f41: b9 9a 00     	lda	$9a,y                   ; 0x9a <__rc31+0x6b>
    4f44: 0a           	asl
    4f45: e0 00        	cpx	#$0
    4f47: f0 02        	beq	$4f4b <_ZN12_GLOBAL__N_15printEPKcP6Status+0x777>
    4f49: 09 01        	ora	#$1
    4f4b: a4 b8        	ldy	$b8                     ; 0x20b8 <main+0x1b42>
    4f4d: 84 16        	sty	$16                     ; 0x2016 <main+0x1aa0>
    4f4f: c5 16        	cmp	$16                     ; 0x2016 <main+0x1aa0>
    4f51: a2 01        	ldx	#$1
    4f53: b0 02        	bcs	$4f57 <_ZN12_GLOBAL__N_15printEPKcP6Status+0x783>
    4f55: a2 00        	ldx	#$0
    4f57: 90 d9        	bcc	$4f32 <_ZN12_GLOBAL__N_15printEPKcP6Status+0x75e>
    4f59: 84 16        	sty	$16                     ; 0x2016 <main+0x1aa0>
    4f5b: 38           	sec
    4f5c: e5 16        	sbc	$16                     ; 0x2016 <main+0x1aa0>
    4f5e: a4 15        	ldy	$15                     ; 0x2015 <main+0x1a9f>
    4f60: 99 9a 00     	sta	$9a,y                   ; 0x9a <__rc31+0x6b>
    4f63: a4 17        	ldy	$17                     ; 0x2017 <main+0x1aa1>
    4f65: c4 15        	cpy	$15                     ; 0x2015 <main+0x1a9f>
    4f67: d0 d4        	bne	$4f3d <_ZN12_GLOBAL__N_15printEPKcP6Status+0x769>
    4f69: a4 94        	ldy	$94                     ; 0x2094 <main+0x1b1e>
    4f6b: a6 94        	ldx	$94                     ; 0x2094 <main+0x1b1e>
    4f6d: e8           	inx
    4f6e: a9 01        	lda	#$1
    4f70: 99 9a 00     	sta	$9a,y                   ; 0x9a <__rc31+0x6b>
    4f73: da           	phx
    4f74: 7a           	ply
    4f75: 80 0e        	bra	$4f85 <_ZN12_GLOBAL__N_15printEPKcP6Status+0x7b1>
    4f77: a6 96        	ldx	$96                     ; 0x2096 <main+0x1b20>
    4f79: b5 af        	lda	$af,x                   ; 0x20af <main+0x1b39>
    4f7b: aa           	tax
    4f7c: a0 00        	ldy	#$0
    4f7e: 8a           	txa
    4f7f: 30 36        	bmi	$4fb7 <_ZN12_GLOBAL__N_15printEPKcP6Status+0x7e3>
    4f81: 80 3e        	bra	$4fc1 <_ZN12_GLOBAL__N_15printEPKcP6Status+0x7ed>
    4f83: a4 94        	ldy	$94                     ; 0x2094 <main+0x1b1e>
    4f85: a6 96        	ldx	$96                     ; 0x2096 <main+0x1b20>
    4f87: b5 af        	lda	$af,x                   ; 0x20af <main+0x1b39>
    4f89: aa           	tax
    4f8a: 10 35        	bpl	$4fc1 <_ZN12_GLOBAL__N_15printEPKcP6Status+0x7ed>
    4f8c: 98           	tya
    4f8d: f0 26        	beq	$4fb5 <_ZN12_GLOBAL__N_15printEPKcP6Status+0x7e1>
    4f8f: 84 16        	sty	$16                     ; 0x2016 <main+0x1aa0>
    4f91: a2 00        	ldx	#$0
    4f93: a4 b8        	ldy	$b8                     ; 0x20b8 <main+0x1b42>
    4f95: b5 9a        	lda	$9a,x                   ; 0x209a <main+0x1b24>
    4f97: 1a           	inc
    4f98: f6 9a        	inc	$9a,x                   ; 0x209a <main+0x1b24>
    4f9a: 84 15        	sty	$15                     ; 0x2015 <main+0x1a9f>
    4f9c: c5 15        	cmp	$15                     ; 0x2015 <main+0x1a9f>
    4f9e: 90 4a        	bcc	$4fea <_ZN12_GLOBAL__N_15printEPKcP6Status+0x816>
    4fa0: 84 15        	sty	$15                     ; 0x2015 <main+0x1a9f>
    4fa2: 38           	sec
    4fa3: e5 15        	sbc	$15                     ; 0x2015 <main+0x1a9f>
    4fa5: 9d 9a 00     	sta	$9a,x                   ; 0x9a <__rc31+0x6b>
    4fa8: e8           	inx
    4fa9: 86 15        	stx	$15                     ; 0x2015 <main+0x1a9f>
    4fab: a5 16        	lda	$16                     ; 0x2016 <main+0x1aa0>
    4fad: c5 15        	cmp	$15                     ; 0x2015 <main+0x1a9f>
    4faf: d0 e4        	bne	$4f95 <_ZN12_GLOBAL__N_15printEPKcP6Status+0x7c1>
    4fb1: a4 16        	ldy	$16                     ; 0x2016 <main+0x1aa0>
    4fb3: 80 02        	bra	$4fb7 <_ZN12_GLOBAL__N_15printEPKcP6Status+0x7e3>
    4fb5: a0 00        	ldy	#$0
    4fb7: 5a           	phy
    4fb8: fa           	plx
    4fb9: e8           	inx
    4fba: a9 01        	lda	#$1
    4fbc: 99 9a 00     	sta	$9a,y                   ; 0x9a <__rc31+0x6b>
    4fbf: da           	phx
    4fc0: 7a           	ply
    4fc1: 84 94        	sty	$94                     ; 0x2094 <main+0x1b1e>
    4fc3: a2 01        	ldx	#$1
    4fc5: 64 15        	stz	$15                     ; 0x2015 <main+0x1a9f>
    4fc7: a4 96        	ldy	$96                     ; 0x2096 <main+0x1b20>
    4fc9: b5 af        	lda	$af,x                   ; 0x20af <main+0x1b39>
    4fcb: 0a           	asl
    4fcc: 64 16        	stz	$16                     ; 0x2016 <main+0x1aa0>
    4fce: 26 16        	rol	$16                     ; 0x2016 <main+0x1aa0>
    4fd0: 05 15        	ora	$15                     ; 0x2015 <main+0x1a9f>
    4fd2: 9d af 00     	sta	$af,x                   ; 0xaf <__rc31+0x80>
    4fd5: e8           	inx
    4fd6: 88           	dey
    4fd7: a5 16        	lda	$16                     ; 0x2016 <main+0x1aa0>
    4fd9: 85 15        	sta	$15                     ; 0x2015 <main+0x1a9f>
    4fdb: 98           	tya
    4fdc: d0 eb        	bne	$4fc9 <_ZN12_GLOBAL__N_15printEPKcP6Status+0x7f5>
    4fde: a6 97        	ldx	$97                     ; 0x2097 <main+0x1b21>
    4fe0: e8           	inx
    4fe1: 86 97        	stx	$97                     ; 0x2097 <main+0x1b21>
    4fe3: e4 14        	cpx	$14                     ; 0x2014 <main+0x1a9e>
    4fe5: b0 07        	bcs	$4fee <_ZN12_GLOBAL__N_15printEPKcP6Status+0x81a>
    4fe7: 4c 23 4f     	jmp	$4f23 <_ZN12_GLOBAL__N_15printEPKcP6Status+0x74f>
    4fea: a4 16        	ldy	$16                     ; 0x2016 <main+0x1aa0>
    4fec: 80 d3        	bra	$4fc1 <_ZN12_GLOBAL__N_15printEPKcP6Status+0x7ed>
    4fee: a5 95        	lda	$95                     ; 0x2095 <main+0x1b1f>
    4ff0: a6 92        	ldx	$92                     ; 0x2092 <main+0x1b1c>
    4ff2: 10 06        	bpl	$4ffa <_ZN12_GLOBAL__N_15printEPKcP6Status+0x826>
    4ff4: a2 01        	ldx	#$1
    4ff6: 64 92        	stz	$92                     ; 0x2092 <main+0x1b1c>
    4ff8: 86 91        	stx	$91                     ; 0x2091 <main+0x1b1b>
    4ffa: 29 04        	and	#$4
    4ffc: f0 2c        	beq	$502a <_ZN12_GLOBAL__N_15printEPKcP6Status+0x856>
    4ffe: a6 b8        	ldx	$b8                     ; 0x20b8 <main+0x1b42>
    5000: e0 10        	cpx	#$10
    5002: f0 14        	beq	$5018 <_ZN12_GLOBAL__N_15printEPKcP6Status+0x844>
    5004: e0 08        	cpx	#$8
    5006: d0 22        	bne	$502a <_ZN12_GLOBAL__N_15printEPKcP6Status+0x856>
    5008: a2 00        	ldx	#$0
    500a: e4 92        	cpx	$92                     ; 0x2092 <main+0x1b1c>
    500c: f0 03        	beq	$5011 <_ZN12_GLOBAL__N_15printEPKcP6Status+0x83d>
    500e: 4c 51 51     	jmp	$5151 <_ZN12_GLOBAL__N_15printEPKcP6Status+0x97d>
    5011: a5 94        	lda	$94                     ; 0x2094 <main+0x1b1e>
    5013: c5 91        	cmp	$91                     ; 0x2091 <main+0x1b1b>
    5015: 4c 53 51     	jmp	$5153 <_ZN12_GLOBAL__N_15printEPKcP6Status+0x97f>
    5018: a5 94        	lda	$94                     ; 0x2094 <main+0x1b1e>
    501a: f0 0e        	beq	$502a <_ZN12_GLOBAL__N_15printEPKcP6Status+0x856>
    501c: a5 95        	lda	$95                     ; 0x2095 <main+0x1b1f>
    501e: 29 80        	and	#$80
    5020: d0 03        	bne	$5025 <_ZN12_GLOBAL__N_15printEPKcP6Status+0x851>
    5022: 4c 68 51     	jmp	$5168 <_ZN12_GLOBAL__N_15printEPKcP6Status+0x994>
    5025: a2 78        	ldx	#$78
    5027: 4c 6a 51     	jmp	$516a <_ZN12_GLOBAL__N_15printEPKcP6Status+0x996>
    502a: a5 95        	lda	$95                     ; 0x2095 <main+0x1b1f>
    502c: a2 2d        	ldx	#$2d
    502e: 86 b8        	stx	$b8                     ; 0x20b8 <main+0x1b42>
    5030: a6 bc        	ldx	$bc                     ; 0x20bc <main+0x1b46>
    5032: d0 1b        	bne	$504f <_ZN12_GLOBAL__N_15printEPKcP6Status+0x87b>
    5034: aa           	tax
    5035: 29 02        	and	#$2
    5037: a0 2b        	ldy	#$2b
    5039: 84 b8        	sty	$b8                     ; 0x20b8 <main+0x1b42>
    503b: a8           	tay
    503c: d0 11        	bne	$504f <_ZN12_GLOBAL__N_15printEPKcP6Status+0x87b>
    503e: 8a           	txa
    503f: 29 08        	and	#$8
    5041: d0 08        	bne	$504b <_ZN12_GLOBAL__N_15printEPKcP6Status+0x877>
    5043: a2 01        	ldx	#$1
    5045: 86 bc        	stx	$bc                     ; 0x20bc <main+0x1b46>
    5047: a9 00        	lda	#$0
    5049: 80 0a        	bra	$5055 <_ZN12_GLOBAL__N_15printEPKcP6Status+0x881>
    504b: a2 20        	ldx	#$20
    504d: 86 b8        	stx	$b8                     ; 0x20b8 <main+0x1b42>
    504f: a2 00        	ldx	#$0
    5051: 86 bc        	stx	$bc                     ; 0x20bc <main+0x1b46>
    5053: a9 01        	lda	#$1
    5055: a4 94        	ldy	$94                     ; 0x2094 <main+0x1b1e>
    5057: a6 92        	ldx	$92                     ; 0x2092 <main+0x1b1c>
    5059: d0 08        	bne	$5063 <_ZN12_GLOBAL__N_15printEPKcP6Status+0x88f>
    505b: a6 91        	ldx	$91                     ; 0x2091 <main+0x1b1b>
    505d: 84 14        	sty	$14                     ; 0x2014 <main+0x1a9e>
    505f: e4 14        	cpx	$14                     ; 0x2014 <main+0x1a9e>
    5061: 80 04        	bra	$5067 <_ZN12_GLOBAL__N_15printEPKcP6Status+0x893>
    5063: a6 92        	ldx	$92                     ; 0x2092 <main+0x1b1c>
    5065: e0 00        	cpx	#$0
    5067: a6 91        	ldx	$91                     ; 0x2091 <main+0x1b1b>
    5069: 86 14        	stx	$14                     ; 0x2014 <main+0x1a9e>
    506b: a6 92        	ldx	$92                     ; 0x2092 <main+0x1b1c>
    506d: 86 15        	stx	$15                     ; 0x2015 <main+0x1a9f>
    506f: b0 04        	bcs	$5075 <_ZN12_GLOBAL__N_15printEPKcP6Status+0x8a1>
    5071: 84 14        	sty	$14                     ; 0x2014 <main+0x1a9e>
    5073: 64 15        	stz	$15                     ; 0x2015 <main+0x1a9f>
    5075: 18           	clc
    5076: aa           	tax
    5077: 65 14        	adc	$14                     ; 0x2014 <main+0x1a9e>
    5079: a8           	tay
    507a: 85 16        	sta	$16                     ; 0x2016 <main+0x1aa0>
    507c: a5 15        	lda	$15                     ; 0x2015 <main+0x1a9f>
    507e: 69 00        	adc	#$0
    5080: 85 17        	sta	$17                     ; 0x2017 <main+0x1aa1>
    5082: c5 12        	cmp	$12                     ; 0x2012 <main+0x1a9c>
    5084: d0 04        	bne	$508a <_ZN12_GLOBAL__N_15printEPKcP6Status+0x8b6>
    5086: c4 13        	cpy	$13                     ; 0x2013 <main+0x1a9d>
    5088: 80 02        	bra	$508c <_ZN12_GLOBAL__N_15printEPKcP6Status+0x8b8>
    508a: c5 12        	cmp	$12                     ; 0x2012 <main+0x1a9c>
    508c: 64 93        	stz	$93                     ; 0x2093 <main+0x1b1d>
    508e: 90 04        	bcc	$5094 <_ZN12_GLOBAL__N_15printEPKcP6Status+0x8c0>
    5090: 64 95        	stz	$95                     ; 0x2095 <main+0x1b1f>
    5092: 80 4d        	bra	$50e1 <_ZN12_GLOBAL__N_15printEPKcP6Status+0x90d>
    5094: a5 95        	lda	$95                     ; 0x2095 <main+0x1b1f>
    5096: 29 11        	and	#$11
    5098: f0 0f        	beq	$50a9 <_ZN12_GLOBAL__N_15printEPKcP6Status+0x8d5>
    509a: a5 13        	lda	$13                     ; 0x2013 <main+0x1a9d>
    509c: 38           	sec
    509d: e5 16        	sbc	$16                     ; 0x2016 <main+0x1aa0>
    509f: 85 93        	sta	$93                     ; 0x2093 <main+0x1b1d>
    50a1: a5 12        	lda	$12                     ; 0x2012 <main+0x1a9c>
    50a3: e5 17        	sbc	$17                     ; 0x2017 <main+0x1aa1>
    50a5: 85 95        	sta	$95                     ; 0x2095 <main+0x1b1f>
    50a7: 80 38        	bra	$50e1 <_ZN12_GLOBAL__N_15printEPKcP6Status+0x90d>
    50a9: 8a           	txa
    50aa: 38           	sec
    50ab: e5 13        	sbc	$13                     ; 0x2013 <main+0x1a9d>
    50ad: aa           	tax
    50ae: a9 00        	lda	#$0
    50b0: e5 12        	sbc	$12                     ; 0x2012 <main+0x1a9c>
    50b2: 85 12        	sta	$12                     ; 0x2012 <main+0x1a9c>
    50b4: 18           	clc
    50b5: 8a           	txa
    50b6: 65 14        	adc	$14                     ; 0x2014 <main+0x1a9e>
    50b8: 85 93        	sta	$93                     ; 0x2093 <main+0x1b1d>
    50ba: a5 12        	lda	$12                     ; 0x2012 <main+0x1a9c>
    50bc: 65 15        	adc	$15                     ; 0x2015 <main+0x1a9f>
    50be: 85 95        	sta	$95                     ; 0x2095 <main+0x1b1f>
    50c0: a6 8f        	ldx	$8f                     ; 0x208f <main+0x1b19>
    50c2: 86 12        	stx	$12                     ; 0x2012 <main+0x1a9c>
    50c4: a6 90        	ldx	$90                     ; 0x2090 <main+0x1b1a>
    50c6: 86 13        	stx	$13                     ; 0x2013 <main+0x1a9d>
    50c8: a9 20        	lda	#$20
    50ca: 20 08 53     	jsr	$5308 <_ZN12_GLOBAL__N_13putEcP6Status>
    50cd: a6 95        	ldx	$95                     ; 0x2095 <main+0x1b1f>
    50cf: e6 93        	inc	$93                     ; 0x2093 <main+0x1b1d>
    50d1: d0 01        	bne	$50d4 <_ZN12_GLOBAL__N_15printEPKcP6Status+0x900>
    50d3: e8           	inx
    50d4: 86 95        	stx	$95                     ; 0x2095 <main+0x1b1f>
    50d6: 8a           	txa
    50d7: d0 e7        	bne	$50c0 <_ZN12_GLOBAL__N_15printEPKcP6Status+0x8ec>
    50d9: a5 93        	lda	$93                     ; 0x2093 <main+0x1b1d>
    50db: d0 e3        	bne	$50c0 <_ZN12_GLOBAL__N_15printEPKcP6Status+0x8ec>
    50dd: 64 95        	stz	$95                     ; 0x2095 <main+0x1b1f>
    50df: 64 93        	stz	$93                     ; 0x2093 <main+0x1b1d>
    50e1: a6 bc        	ldx	$bc                     ; 0x20bc <main+0x1b46>
    50e3: d0 0d        	bne	$50f2 <_ZN12_GLOBAL__N_15printEPKcP6Status+0x91e>
    50e5: a6 8f        	ldx	$8f                     ; 0x208f <main+0x1b19>
    50e7: 86 12        	stx	$12                     ; 0x2012 <main+0x1a9c>
    50e9: a6 90        	ldx	$90                     ; 0x2090 <main+0x1b1a>
    50eb: 86 13        	stx	$13                     ; 0x2013 <main+0x1a9d>
    50ed: a5 b8        	lda	$b8                     ; 0x20b8 <main+0x1b42>
    50ef: 20 08 53     	jsr	$5308 <_ZN12_GLOBAL__N_13putEcP6Status>
    50f2: a6 bb        	ldx	$bb                     ; 0x20bb <main+0x1b45>
    50f4: f0 0d        	beq	$5103 <_ZN12_GLOBAL__N_15printEPKcP6Status+0x92f>
    50f6: a6 8f        	ldx	$8f                     ; 0x208f <main+0x1b19>
    50f8: 86 12        	stx	$12                     ; 0x2012 <main+0x1a9c>
    50fa: a6 90        	ldx	$90                     ; 0x2090 <main+0x1b1a>
    50fc: 86 13        	stx	$13                     ; 0x2013 <main+0x1a9d>
    50fe: a5 bd        	lda	$bd                     ; 0x20bd <main+0x1b47>
    5100: 20 08 53     	jsr	$5308 <_ZN12_GLOBAL__N_13putEcP6Status>
    5103: a0 01        	ldy	#$1
    5105: b1 8f        	lda	($8f),y                 ; 0x208f <main+0x1b19>
    5107: aa           	tax
    5108: 29 10        	and	#$10
    510a: f0 36        	beq	$5142 <_ZN12_GLOBAL__N_15printEPKcP6Status+0x96e>
    510c: 8a           	txa
    510d: 29 01        	and	#$1
    510f: a6 94        	ldx	$94                     ; 0x2094 <main+0x1b1e>
    5111: a8           	tay
    5112: d0 30        	bne	$5144 <_ZN12_GLOBAL__N_15printEPKcP6Status+0x970>
    5114: a5 95        	lda	$95                     ; 0x2095 <main+0x1b1f>
    5116: d0 07        	bne	$511f <_ZN12_GLOBAL__N_15printEPKcP6Status+0x94b>
    5118: a5 93        	lda	$93                     ; 0x2093 <main+0x1b1d>
    511a: d0 03        	bne	$511f <_ZN12_GLOBAL__N_15printEPKcP6Status+0x94b>
    511c: 4c 7f 51     	jmp	$517f <_ZN12_GLOBAL__N_15printEPKcP6Status+0x9ab>
    511f: a6 8f        	ldx	$8f                     ; 0x208f <main+0x1b19>
    5121: 86 12        	stx	$12                     ; 0x2012 <main+0x1a9c>
    5123: a6 90        	ldx	$90                     ; 0x2090 <main+0x1b1a>
    5125: 86 13        	stx	$13                     ; 0x2013 <main+0x1a9d>
    5127: a9 30        	lda	#$30
    5129: 20 08 53     	jsr	$5308 <_ZN12_GLOBAL__N_13putEcP6Status>
    512c: a2 ff        	ldx	#$ff
    512e: c6 93        	dec	$93                     ; 0x2093 <main+0x1b1d>
    5130: e4 93        	cpx	$93                     ; 0x2093 <main+0x1b1d>
    5132: d0 02        	bne	$5136 <_ZN12_GLOBAL__N_15printEPKcP6Status+0x962>
    5134: c6 95        	dec	$95                     ; 0x2095 <main+0x1b1f>
    5136: a5 95        	lda	$95                     ; 0x2095 <main+0x1b1f>
    5138: d0 e5        	bne	$511f <_ZN12_GLOBAL__N_15printEPKcP6Status+0x94b>
    513a: a5 93        	lda	$93                     ; 0x2093 <main+0x1b1d>
    513c: d0 e1        	bne	$511f <_ZN12_GLOBAL__N_15printEPKcP6Status+0x94b>
    513e: 64 93        	stz	$93                     ; 0x2093 <main+0x1b1d>
    5140: 64 95        	stz	$95                     ; 0x2095 <main+0x1b1f>
    5142: a6 94        	ldx	$94                     ; 0x2094 <main+0x1b1e>
    5144: a0 00        	ldy	#$0
    5146: c4 92        	cpy	$92                     ; 0x2092 <main+0x1b1c>
    5148: f0 3d        	beq	$5187 <_ZN12_GLOBAL__N_15printEPKcP6Status+0x9b3>
    514a: c4 92        	cpy	$92                     ; 0x2092 <main+0x1b1c>
    514c: 90 3d        	bcc	$518b <_ZN12_GLOBAL__N_15printEPKcP6Status+0x9b7>
    514e: 4c ae 51     	jmp	$51ae <_ZN12_GLOBAL__N_15printEPKcP6Status+0x9da>
    5151: e4 92        	cpx	$92                     ; 0x2092 <main+0x1b1c>
    5153: a5 95        	lda	$95                     ; 0x2095 <main+0x1b1f>
    5155: b0 03        	bcs	$515a <_ZN12_GLOBAL__N_15printEPKcP6Status+0x986>
    5157: 4c 2c 50     	jmp	$502c <_ZN12_GLOBAL__N_15printEPKcP6Status+0x858>
    515a: a4 94        	ldy	$94                     ; 0x2094 <main+0x1b1e>
    515c: 84 91        	sty	$91                     ; 0x2091 <main+0x1b1b>
    515e: e6 91        	inc	$91                     ; 0x2091 <main+0x1b1b>
    5160: d0 01        	bne	$5163 <_ZN12_GLOBAL__N_15printEPKcP6Status+0x98f>
    5162: e8           	inx
    5163: 86 92        	stx	$92                     ; 0x2092 <main+0x1b1c>
    5165: 4c 2c 50     	jmp	$502c <_ZN12_GLOBAL__N_15printEPKcP6Status+0x858>
    5168: a2 58        	ldx	#$58
    516a: 86 bd        	stx	$bd                     ; 0x20bd <main+0x1b47>
    516c: a4 94        	ldy	$94                     ; 0x2094 <main+0x1b1e>
    516e: a2 01        	ldx	#$1
    5170: 86 bb        	stx	$bb                     ; 0x20bb <main+0x1b45>
    5172: a2 30        	ldx	#$30
    5174: 86 b8        	stx	$b8                     ; 0x20b8 <main+0x1b42>
    5176: a9 02        	lda	#$2
    5178: a2 00        	ldx	#$0
    517a: 86 bc        	stx	$bc                     ; 0x20bc <main+0x1b46>
    517c: 4c 57 50     	jmp	$5057 <_ZN12_GLOBAL__N_15printEPKcP6Status+0x883>
    517f: 64 93        	stz	$93                     ; 0x2093 <main+0x1b1d>
    5181: 64 95        	stz	$95                     ; 0x2095 <main+0x1b1f>
    5183: 80 bf        	bra	$5144 <_ZN12_GLOBAL__N_15printEPKcP6Status+0x970>
    5185: a6 94        	ldx	$94                     ; 0x2094 <main+0x1b1e>
    5187: e4 91        	cpx	$91                     ; 0x2091 <main+0x1b1b>
    5189: b0 23        	bcs	$51ae <_ZN12_GLOBAL__N_15printEPKcP6Status+0x9da>
    518b: a2 ff        	ldx	#$ff
    518d: c6 91        	dec	$91                     ; 0x2091 <main+0x1b1b>
    518f: e4 91        	cpx	$91                     ; 0x2091 <main+0x1b1b>
    5191: d0 02        	bne	$5195 <_ZN12_GLOBAL__N_15printEPKcP6Status+0x9c1>
    5193: c6 92        	dec	$92                     ; 0x2092 <main+0x1b1c>
    5195: a6 8f        	ldx	$8f                     ; 0x208f <main+0x1b19>
    5197: 86 12        	stx	$12                     ; 0x2012 <main+0x1a9c>
    5199: a6 90        	ldx	$90                     ; 0x2090 <main+0x1b1a>
    519b: 86 13        	stx	$13                     ; 0x2013 <main+0x1a9d>
    519d: a9 30        	lda	#$30
    519f: 20 08 53     	jsr	$5308 <_ZN12_GLOBAL__N_13putEcP6Status>
    51a2: a2 00        	ldx	#$0
    51a4: e4 92        	cpx	$92                     ; 0x2092 <main+0x1b1c>
    51a6: f0 dd        	beq	$5185 <_ZN12_GLOBAL__N_15printEPKcP6Status+0x9b1>
    51a8: e4 92        	cpx	$92                     ; 0x2092 <main+0x1b1c>
    51aa: a6 94        	ldx	$94                     ; 0x2094 <main+0x1b1e>
    51ac: 90 dd        	bcc	$518b <_ZN12_GLOBAL__N_15printEPKcP6Status+0x9b7>
    51ae: a4 93        	ldy	$93                     ; 0x2093 <main+0x1b1d>
    51b0: 84 94        	sty	$94                     ; 0x2094 <main+0x1b1e>
    51b2: 8a           	txa
    51b3: d0 03        	bne	$51b8 <_ZN12_GLOBAL__N_15printEPKcP6Status+0x9e4>
    51b5: 4c 48 52     	jmp	$5248 <_ZN12_GLOBAL__N_15printEPKcP6Status+0xa74>
    51b8: ca           	dex
    51b9: d0 03        	bne	$51be <_ZN12_GLOBAL__N_15printEPKcP6Status+0x9ea>
    51bb: 4c 19 52     	jmp	$5219 <_ZN12_GLOBAL__N_15printEPKcP6Status+0xa45>
    51be: 86 93        	stx	$93                     ; 0x2093 <main+0x1b1d>
    51c0: a9 98        	lda	#$98
    51c2: 18           	clc
    51c3: 65 93        	adc	$93                     ; 0x2093 <main+0x1b1d>
    51c5: aa           	tax
    51c6: a9 00        	lda	#$0
    51c8: 69 00        	adc	#$0
    51ca: 85 12        	sta	$12                     ; 0x2012 <main+0x1a9c>
    51cc: 18           	clc
    51cd: 8a           	txa
    51ce: 69 02        	adc	#$2
    51d0: 85 91        	sta	$91                     ; 0x2091 <main+0x1b1b>
    51d2: a5 12        	lda	$12                     ; 0x2012 <main+0x1a9c>
    51d4: 69 00        	adc	#$0
    51d6: 85 92        	sta	$92                     ; 0x2092 <main+0x1b1c>
    51d8: 80 35        	bra	$520f <_ZN12_GLOBAL__N_15printEPKcP6Status+0xa3b>
    51da: 85 13        	sta	$13                     ; 0x2013 <main+0x1a9d>
    51dc: a9 80        	lda	#$80
    51de: a0 01        	ldy	#$1
    51e0: 31 8f        	and	($8f),y                 ; 0x208f <main+0x1b19>
    51e2: f0 04        	beq	$51e8 <_ZN12_GLOBAL__N_15printEPKcP6Status+0xa14>
    51e4: a2 61        	ldx	#$61
    51e6: 80 02        	bra	$51ea <_ZN12_GLOBAL__N_15printEPKcP6Status+0xa16>
    51e8: a2 41        	ldx	#$41
    51ea: 86 12        	stx	$12                     ; 0x2012 <main+0x1a9c>
    51ec: 18           	clc
    51ed: a5 13        	lda	$13                     ; 0x2013 <main+0x1a9d>
    51ef: 65 12        	adc	$12                     ; 0x2012 <main+0x1a9c>
    51f1: 18           	clc
    51f2: 69 f6        	adc	#$f6
    51f4: a6 8f        	ldx	$8f                     ; 0x208f <main+0x1b19>
    51f6: 86 12        	stx	$12                     ; 0x2012 <main+0x1a9c>
    51f8: a6 90        	ldx	$90                     ; 0x2090 <main+0x1b1a>
    51fa: 86 13        	stx	$13                     ; 0x2013 <main+0x1a9d>
    51fc: 20 08 53     	jsr	$5308 <_ZN12_GLOBAL__N_13putEcP6Status>
    51ff: c6 93        	dec	$93                     ; 0x2093 <main+0x1b1d>
    5201: a2 ff        	ldx	#$ff
    5203: c6 91        	dec	$91                     ; 0x2091 <main+0x1b1b>
    5205: e4 91        	cpx	$91                     ; 0x2091 <main+0x1b1b>
    5207: d0 02        	bne	$520b <_ZN12_GLOBAL__N_15printEPKcP6Status+0xa37>
    5209: c6 92        	dec	$92                     ; 0x2092 <main+0x1b1c>
    520b: a5 93        	lda	$93                     ; 0x2093 <main+0x1b1d>
    520d: f0 0a        	beq	$5219 <_ZN12_GLOBAL__N_15printEPKcP6Status+0xa45>
    520f: b2 91        	lda	($91)                   ; 0x2091 <main+0x1b1b>
    5211: c9 0a        	cmp	#$a
    5213: b0 c5        	bcs	$51da <_ZN12_GLOBAL__N_15printEPKcP6Status+0xa06>
    5215: 09 30        	ora	#$30
    5217: 80 db        	bra	$51f4 <_ZN12_GLOBAL__N_15printEPKcP6Status+0xa20>
    5219: a5 9a        	lda	$9a                     ; 0x209a <main+0x1b24>
    521b: c9 0a        	cmp	#$a
    521d: b0 04        	bcs	$5223 <_ZN12_GLOBAL__N_15printEPKcP6Status+0xa4f>
    521f: 09 30        	ora	#$30
    5221: 80 1a        	bra	$523d <_ZN12_GLOBAL__N_15printEPKcP6Status+0xa69>
    5223: 85 13        	sta	$13                     ; 0x2013 <main+0x1a9d>
    5225: a0 01        	ldy	#$1
    5227: a9 80        	lda	#$80
    5229: 31 8f        	and	($8f),y                 ; 0x208f <main+0x1b19>
    522b: f0 04        	beq	$5231 <_ZN12_GLOBAL__N_15printEPKcP6Status+0xa5d>
    522d: a2 61        	ldx	#$61
    522f: 80 02        	bra	$5233 <_ZN12_GLOBAL__N_15printEPKcP6Status+0xa5f>
    5231: a2 41        	ldx	#$41
    5233: 86 12        	stx	$12                     ; 0x2012 <main+0x1a9c>
    5235: a5 13        	lda	$13                     ; 0x2013 <main+0x1a9d>
    5237: 18           	clc
    5238: 65 12        	adc	$12                     ; 0x2012 <main+0x1a9c>
    523a: 18           	clc
    523b: 69 f6        	adc	#$f6
    523d: a6 8f        	ldx	$8f                     ; 0x208f <main+0x1b19>
    523f: 86 12        	stx	$12                     ; 0x2012 <main+0x1a9c>
    5241: a6 90        	ldx	$90                     ; 0x2090 <main+0x1b1a>
    5243: 86 13        	stx	$13                     ; 0x2013 <main+0x1a9d>
    5245: 20 08 53     	jsr	$5308 <_ZN12_GLOBAL__N_13putEcP6Status>
    5248: a0 01        	ldy	#$1
    524a: 98           	tya
    524b: 31 8f        	and	($8f),y                 ; 0x208f <main+0x1b19>
    524d: f0 21        	beq	$5270 <_ZN12_GLOBAL__N_15printEPKcP6Status+0xa9c>
    524f: a5 95        	lda	$95                     ; 0x2095 <main+0x1b1f>
    5251: f0 19        	beq	$526c <_ZN12_GLOBAL__N_15printEPKcP6Status+0xa98>
    5253: a6 8f        	ldx	$8f                     ; 0x208f <main+0x1b19>
    5255: 86 12        	stx	$12                     ; 0x2012 <main+0x1a9c>
    5257: a6 90        	ldx	$90                     ; 0x2090 <main+0x1b1a>
    5259: 86 13        	stx	$13                     ; 0x2013 <main+0x1a9d>
    525b: a9 20        	lda	#$20
    525d: 20 08 53     	jsr	$5308 <_ZN12_GLOBAL__N_13putEcP6Status>
    5260: a2 ff        	ldx	#$ff
    5262: c6 94        	dec	$94                     ; 0x2094 <main+0x1b1e>
    5264: e4 94        	cpx	$94                     ; 0x2094 <main+0x1b1e>
    5266: d0 e7        	bne	$524f <_ZN12_GLOBAL__N_15printEPKcP6Status+0xa7b>
    5268: c6 95        	dec	$95                     ; 0x2095 <main+0x1b1f>
    526a: 80 e3        	bra	$524f <_ZN12_GLOBAL__N_15printEPKcP6Status+0xa7b>
    526c: a5 94        	lda	$94                     ; 0x2094 <main+0x1b1e>
    526e: d0 e3        	bne	$5253 <_ZN12_GLOBAL__N_15printEPKcP6Status+0xa7f>
    5270: a4 8f        	ldy	$8f                     ; 0x208f <main+0x1b19>
    5272: a5 8f        	lda	$8f                     ; 0x208f <main+0x1b19>
    5274: 84 14        	sty	$14                     ; 0x2014 <main+0x1a9e>
    5276: 18           	clc
    5277: 69 05        	adc	#$5
    5279: 85 12        	sta	$12                     ; 0x2012 <main+0x1a9c>
    527b: a5 90        	lda	$90                     ; 0x2090 <main+0x1b1a>
    527d: 69 00        	adc	#$0
    527f: 18           	clc
    5280: 85 13        	sta	$13                     ; 0x2013 <main+0x1a9d>
    5282: a0 01        	ldy	#$1
    5284: a5 14        	lda	$14                     ; 0x2014 <main+0x1a9e>
    5286: 69 03        	adc	#$3
    5288: 85 14        	sta	$14                     ; 0x2014 <main+0x1a9e>
    528a: a5 90        	lda	$90                     ; 0x2090 <main+0x1b1a>
    528c: 69 00        	adc	#$0
    528e: aa           	tax
    528f: b1 12        	lda	($12),y                 ; 0x2012 <main+0x1a9c>
    5291: 85 15        	sta	$15                     ; 0x2015 <main+0x1a9f>
    5293: a4 14        	ldy	$14                     ; 0x2014 <main+0x1a9e>
    5295: 84 12        	sty	$12                     ; 0x2012 <main+0x1a9c>
    5297: 86 13        	stx	$13                     ; 0x2013 <main+0x1a9d>
    5299: a0 03        	ldy	#$3
    529b: b1 8f        	lda	($8f),y                 ; 0x208f <main+0x1b19>
    529d: 85 16        	sta	$16                     ; 0x2016 <main+0x1aa0>
    529f: a0 01        	ldy	#$1
    52a1: b1 12        	lda	($12),y                 ; 0x2012 <main+0x1a9c>
    52a3: 85 17        	sta	$17                     ; 0x2017 <main+0x1aa1>
    52a5: 85 12        	sta	$12                     ; 0x2012 <main+0x1a9c>
    52a7: a4 15        	ldy	$15                     ; 0x2015 <main+0x1a9f>
    52a9: c4 12        	cpy	$12                     ; 0x2012 <main+0x1a9c>
    52ab: d0 0c        	bne	$52b9 <_ZN12_GLOBAL__N_15printEPKcP6Status+0xae5>
    52ad: a6 16        	ldx	$16                     ; 0x2016 <main+0x1aa0>
    52af: a0 05        	ldy	#$5
    52b1: b1 8f        	lda	($8f),y                 ; 0x208f <main+0x1b19>
    52b3: 86 12        	stx	$12                     ; 0x2012 <main+0x1a9c>
    52b5: c5 12        	cmp	$12                     ; 0x2012 <main+0x1a9c>
    52b7: 80 08        	bra	$52c1 <_ZN12_GLOBAL__N_15printEPKcP6Status+0xaed>
    52b9: 84 13        	sty	$13                     ; 0x2013 <main+0x1a9d>
    52bb: 85 12        	sta	$12                     ; 0x2012 <main+0x1a9c>
    52bd: a6 13        	ldx	$13                     ; 0x2013 <main+0x1a9d>
    52bf: e4 12        	cpx	$12                     ; 0x2012 <main+0x1a9c>
    52c1: a6 b9        	ldx	$b9                     ; 0x20b9 <main+0x1b43>
    52c3: 86 12        	stx	$12                     ; 0x2012 <main+0x1a9c>
    52c5: a6 ba        	ldx	$ba                     ; 0x20ba <main+0x1b44>
    52c7: 86 13        	stx	$13                     ; 0x2013 <main+0x1a9d>
    52c9: 90 36        	bcc	$5301 <_ZN12_GLOBAL__N_15printEPKcP6Status+0xb2d>
    52cb: a6 16        	ldx	$16                     ; 0x2016 <main+0x1aa0>
    52cd: a5 17        	lda	$17                     ; 0x2017 <main+0x1aa1>
    52cf: d0 03        	bne	$52d4 <_ZN12_GLOBAL__N_15printEPKcP6Status+0xb00>
    52d1: 8a           	txa
    52d2: f0 2d        	beq	$5301 <_ZN12_GLOBAL__N_15printEPKcP6Status+0xb2d>
    52d4: a5 8f        	lda	$8f                     ; 0x208f <main+0x1b19>
    52d6: 18           	clc
    52d7: 69 09        	adc	#$9
    52d9: 85 14        	sta	$14                     ; 0x2014 <main+0x1a9e>
    52db: a5 90        	lda	$90                     ; 0x2090 <main+0x1b1a>
    52dd: 69 00        	adc	#$0
    52df: a0 09        	ldy	#$9
    52e1: 85 15        	sta	$15                     ; 0x2015 <main+0x1a9f>
    52e3: 18           	clc
    52e4: a5 16        	lda	$16                     ; 0x2016 <main+0x1aa0>
    52e6: 71 8f        	adc	($8f),y                 ; 0x208f <main+0x1b19>
    52e8: aa           	tax
    52e9: a0 01        	ldy	#$1
    52eb: a5 17        	lda	$17                     ; 0x2017 <main+0x1aa1>
    52ed: 71 14        	adc	($14),y                 ; 0x2014 <main+0x1a9e>
    52ef: 86 14        	stx	$14                     ; 0x2014 <main+0x1a9e>
    52f1: 85 15        	sta	$15                     ; 0x2015 <main+0x1a9f>
    52f3: a2 ff        	ldx	#$ff
    52f5: c6 14        	dec	$14                     ; 0x2014 <main+0x1a9e>
    52f7: e4 14        	cpx	$14                     ; 0x2014 <main+0x1a9e>
    52f9: d0 02        	bne	$52fd <_ZN12_GLOBAL__N_15printEPKcP6Status+0xb29>
    52fb: c6 15        	dec	$15                     ; 0x2015 <main+0x1a9f>
    52fd: a9 00        	lda	#$0
    52ff: 92 14        	sta	($14)                   ; 0x2014 <main+0x1a9e>
    5301: e6 12        	inc	$12                     ; 0x2012 <main+0x1a9c>
    5303: d0 02        	bne	$5307 <_ZN12_GLOBAL__N_15printEPKcP6Status+0xb33>
    5305: e6 13        	inc	$13                     ; 0x2013 <main+0x1a9d>
    5307: 60           	rts

00005308 <_ZN12_GLOBAL__N_13putEcP6Status>:
    5308: 85 18        	sta	$18                     ; 0x2018 <main+0x1aa2>
    530a: a6 13        	ldx	$13                     ; 0x2013 <main+0x1a9d>
    530c: 18           	clc
    530d: a5 12        	lda	$12                     ; 0x2012 <main+0x1a9c>
    530f: 69 05        	adc	#$5
    5311: a8           	tay
    5312: a5 13        	lda	$13                     ; 0x2013 <main+0x1a9d>
    5314: 86 15        	stx	$15                     ; 0x2015 <main+0x1a9f>
    5316: 69 00        	adc	#$0
    5318: 18           	clc
    5319: 84 16        	sty	$16                     ; 0x2016 <main+0x1aa0>
    531b: a0 05        	ldy	#$5
    531d: 85 17        	sta	$17                     ; 0x2017 <main+0x1aa1>
    531f: b1 12        	lda	($12),y                 ; 0x2012 <main+0x1a9c>
    5321: aa           	tax
    5322: a5 12        	lda	$12                     ; 0x2012 <main+0x1a9c>
    5324: 69 03        	adc	#$3
    5326: 85 14        	sta	$14                     ; 0x2014 <main+0x1a9e>
    5328: a5 15        	lda	$15                     ; 0x2015 <main+0x1a9f>
    532a: 69 00        	adc	#$0
    532c: 85 15        	sta	$15                     ; 0x2015 <main+0x1a9f>
    532e: a0 01        	ldy	#$1
    5330: b1 16        	lda	($16),y                 ; 0x2016 <main+0x1aa0>
    5332: d1 14        	cmp	($14),y                 ; 0x2014 <main+0x1a9e>
    5334: d0 11        	bne	$5347 <_ZN12_GLOBAL__N_13putEcP6Status+0x3f>
    5336: a0 03        	ldy	#$3
    5338: 85 17        	sta	$17                     ; 0x2017 <main+0x1aa1>
    533a: b1 12        	lda	($12),y                 ; 0x2012 <main+0x1a9c>
    533c: 85 14        	sta	$14                     ; 0x2014 <main+0x1a9e>
    533e: 86 16        	stx	$16                     ; 0x2016 <main+0x1aa0>
    5340: e4 14        	cpx	$14                     ; 0x2014 <main+0x1a9e>
    5342: 90 0e        	bcc	$5352 <_ZN12_GLOBAL__N_13putEcP6Status+0x4a>
    5344: 4c bb 53     	jmp	$53bb <_ZN12_GLOBAL__N_13putEcP6Status+0xb3>
    5347: 86 16        	stx	$16                     ; 0x2016 <main+0x1aa0>
    5349: d1 14        	cmp	($14),y                 ; 0x2014 <main+0x1a9e>
    534b: 85 17        	sta	$17                     ; 0x2017 <main+0x1aa1>
    534d: 90 03        	bcc	$5352 <_ZN12_GLOBAL__N_13putEcP6Status+0x4a>
    534f: 4c bb 53     	jmp	$53bb <_ZN12_GLOBAL__N_13putEcP6Status+0xb3>
    5352: a5 12        	lda	$12                     ; 0x2012 <main+0x1a9c>
    5354: 18           	clc
    5355: 69 0f        	adc	#$f
    5357: 85 14        	sta	$14                     ; 0x2014 <main+0x1a9e>
    5359: a5 13        	lda	$13                     ; 0x2013 <main+0x1a9d>
    535b: 69 00        	adc	#$0
    535d: 85 15        	sta	$15                     ; 0x2015 <main+0x1a9f>
    535f: a0 01        	ldy	#$1
    5361: b1 14        	lda	($14),y                 ; 0x2014 <main+0x1a9e>
    5363: a2 00        	ldx	#$0
    5365: 86 14        	stx	$14                     ; 0x2014 <main+0x1a9e>
    5367: a2 00        	ldx	#$0
    5369: 86 15        	stx	$15                     ; 0x2015 <main+0x1a9f>
    536b: c5 15        	cmp	$15                     ; 0x2015 <main+0x1a9f>
    536d: d0 2d        	bne	$539c <_ZN12_GLOBAL__N_13putEcP6Status+0x94>
    536f: a0 0f        	ldy	#$f
    5371: b1 12        	lda	($12),y                 ; 0x2012 <main+0x1a9c>
    5373: c5 14        	cmp	$14                     ; 0x2014 <main+0x1a9e>
    5375: d0 25        	bne	$539c <_ZN12_GLOBAL__N_13putEcP6Status+0x94>
    5377: a5 12        	lda	$12                     ; 0x2012 <main+0x1a9c>
    5379: 18           	clc
    537a: 69 09        	adc	#$9
    537c: 85 14        	sta	$14                     ; 0x2014 <main+0x1a9e>
    537e: a5 13        	lda	$13                     ; 0x2013 <main+0x1a9d>
    5380: 69 00        	adc	#$0
    5382: a0 09        	ldy	#$9
    5384: 85 15        	sta	$15                     ; 0x2015 <main+0x1a9f>
    5386: 18           	clc
    5387: a5 16        	lda	$16                     ; 0x2016 <main+0x1aa0>
    5389: 71 12        	adc	($12),y                 ; 0x2012 <main+0x1a9c>
    538b: aa           	tax
    538c: a0 01        	ldy	#$1
    538e: a5 17        	lda	$17                     ; 0x2017 <main+0x1aa1>
    5390: 71 14        	adc	($14),y                 ; 0x2014 <main+0x1a9e>
    5392: 86 14        	stx	$14                     ; 0x2014 <main+0x1a9e>
    5394: 85 15        	sta	$15                     ; 0x2015 <main+0x1a9f>
    5396: a5 18        	lda	$18                     ; 0x2018 <main+0x1aa2>
    5398: 92 14        	sta	($14)                   ; 0x2014 <main+0x1a9e>
    539a: 80 1f        	bra	$53bb <_ZN12_GLOBAL__N_13putEcP6Status+0xb3>
    539c: a6 12        	ldx	$12                     ; 0x2012 <main+0x1a9c>
    539e: 86 cc        	stx	$cc                     ; 0x20cc <main+0x1b56>
    53a0: a6 13        	ldx	$13                     ; 0x2013 <main+0x1a9d>
    53a2: 86 cd        	stx	$cd                     ; 0x20cd <main+0x1b57>
    53a4: a5 18        	lda	$18                     ; 0x2018 <main+0x1aa2>
    53a6: 85 52        	sta	$52                     ; 0x2052 <main+0x1adc>
    53a8: a2 52        	ldx	#$52
    53aa: 86 12        	stx	$12                     ; 0x2012 <main+0x1a9c>
    53ac: a2 00        	ldx	#$0
    53ae: 86 13        	stx	$13                     ; 0x2013 <main+0x1a9d>
    53b0: 20 a2 2a     	jsr	$2aa2 <textPrint>
    53b3: a6 cc        	ldx	$cc                     ; 0x20cc <main+0x1b56>
    53b5: 86 12        	stx	$12                     ; 0x2012 <main+0x1a9c>
    53b7: a6 cd        	ldx	$cd                     ; 0x20cd <main+0x1b57>
    53b9: 86 13        	stx	$13                     ; 0x2013 <main+0x1a9d>
    53bb: a0 05        	ldy	#$5
    53bd: a5 12        	lda	$12                     ; 0x2012 <main+0x1a9c>
    53bf: 18           	clc
    53c0: 69 05        	adc	#$5
    53c2: 85 14        	sta	$14                     ; 0x2014 <main+0x1a9e>
    53c4: a5 13        	lda	$13                     ; 0x2013 <main+0x1a9d>
    53c6: 69 00        	adc	#$0
    53c8: 85 15        	sta	$15                     ; 0x2015 <main+0x1a9f>
    53ca: b1 12        	lda	($12),y                 ; 0x2012 <main+0x1a9c>
    53cc: aa           	tax
    53cd: a0 01        	ldy	#$1
    53cf: b1 14        	lda	($14),y                 ; 0x2014 <main+0x1a9e>
    53d1: e8           	inx
    53d2: d0 01        	bne	$53d5 <_ZN12_GLOBAL__N_13putEcP6Status+0xcd>
    53d4: 1a           	inc
    53d5: 85 16        	sta	$16                     ; 0x2016 <main+0x1aa0>
    53d7: 8a           	txa
    53d8: a0 05        	ldy	#$5
    53da: 91 12        	sta	($12),y                 ; 0x2012 <main+0x1a9c>
    53dc: a0 01        	ldy	#$1
    53de: a5 16        	lda	$16                     ; 0x2016 <main+0x1aa0>
    53e0: 91 14        	sta	($14),y                 ; 0x2014 <main+0x1a9e>
    53e2: 60           	rts

000053e3 <_ZN12_GLOBAL__N_112print_stringEPKcP6Status>:
    53e3: a6 12        	ldx	$12                     ; 0x2012 <main+0x1a9c>
    53e5: 86 c4        	stx	$c4                     ; 0x20c4 <main+0x1b4e>
    53e7: a6 13        	ldx	$13                     ; 0x2013 <main+0x1a9d>
    53e9: 86 c5        	stx	$c5                     ; 0x20c5 <main+0x1b4f>
    53eb: a6 14        	ldx	$14                     ; 0x2014 <main+0x1a9e>
    53ed: 86 c6        	stx	$c6                     ; 0x20c6 <main+0x1b50>
    53ef: a6 15        	ldx	$15                     ; 0x2015 <main+0x1a9f>
    53f1: 86 c7        	stx	$c7                     ; 0x20c7 <main+0x1b51>
    53f3: a5 c6        	lda	$c6                     ; 0x20c6 <main+0x1b50>
    53f5: 18           	clc
    53f6: 69 0d        	adc	#$d
    53f8: 85 12        	sta	$12                     ; 0x2012 <main+0x1a9c>
    53fa: a5 c7        	lda	$c7                     ; 0x20c7 <main+0x1b51>
    53fc: 69 00        	adc	#$0
    53fe: 85 13        	sta	$13                     ; 0x2013 <main+0x1a9d>
    5400: a0 01        	ldy	#$1
    5402: b1 12        	lda	($12),y                 ; 0x2012 <main+0x1a9c>
    5404: 30 16        	bmi	$541c <_ZN12_GLOBAL__N_112print_stringEPKcP6Status+0x39>
    5406: a0 0d        	ldy	#$d
    5408: 85 12        	sta	$12                     ; 0x2012 <main+0x1a9c>
    540a: b1 c6        	lda	($c6),y                 ; 0x20c6 <main+0x1b50>
    540c: a6 12        	ldx	$12                     ; 0x2012 <main+0x1a9c>
    540e: 86 cb        	stx	$cb                     ; 0x20cb <main+0x1b55>
    5410: d0 0f        	bne	$5421 <_ZN12_GLOBAL__N_112print_stringEPKcP6Status+0x3e>
    5412: aa           	tax
    5413: d0 0c        	bne	$5421 <_ZN12_GLOBAL__N_112print_stringEPKcP6Status+0x3e>
    5415: 64 c8        	stz	$c8                     ; 0x20c8 <main+0x1b52>
    5417: a2 00        	ldx	#$0
    5419: 4c ea 54     	jmp	$54ea <_ZN12_GLOBAL__N_112print_stringEPKcP6Status+0x107>
    541c: a9 ff        	lda	#$ff
    541e: aa           	tax
    541f: 86 cb        	stx	$cb                     ; 0x20cb <main+0x1b55>
    5421: 85 c8        	sta	$c8                     ; 0x20c8 <main+0x1b52>
    5423: 64 12        	stz	$12                     ; 0x2012 <main+0x1a9c>
    5425: a4 c4        	ldy	$c4                     ; 0x20c4 <main+0x1b4e>
    5427: a6 c5        	ldx	$c5                     ; 0x20c5 <main+0x1b4f>
    5429: 86 16        	stx	$16                     ; 0x2016 <main+0x1aa0>
    542b: 64 13        	stz	$13                     ; 0x2013 <main+0x1a9d>
    542d: 98           	tya
    542e: 18           	clc
    542f: 65 12        	adc	$12                     ; 0x2012 <main+0x1a9c>
    5431: 85 14        	sta	$14                     ; 0x2014 <main+0x1a9e>
    5433: a5 c5        	lda	$c5                     ; 0x20c5 <main+0x1b4f>
    5435: 65 13        	adc	$13                     ; 0x2013 <main+0x1a9d>
    5437: 85 15        	sta	$15                     ; 0x2015 <main+0x1a9f>
    5439: b2 14        	lda	($14)                   ; 0x2014 <main+0x1a9e>
    543b: d0 03        	bne	$5440 <_ZN12_GLOBAL__N_112print_stringEPKcP6Status+0x5d>
    543d: 4c e4 54     	jmp	$54e4 <_ZN12_GLOBAL__N_112print_stringEPKcP6Status+0x101>
    5440: e6 12        	inc	$12                     ; 0x2012 <main+0x1a9c>
    5442: d0 02        	bne	$5446 <_ZN12_GLOBAL__N_112print_stringEPKcP6Status+0x63>
    5444: e6 13        	inc	$13                     ; 0x2013 <main+0x1a9d>
    5446: a6 cb        	ldx	$cb                     ; 0x20cb <main+0x1b55>
    5448: e4 13        	cpx	$13                     ; 0x2013 <main+0x1a9d>
    544a: d0 e1        	bne	$542d <_ZN12_GLOBAL__N_112print_stringEPKcP6Status+0x4a>
    544c: a6 c8        	ldx	$c8                     ; 0x20c8 <main+0x1b52>
    544e: e4 12        	cpx	$12                     ; 0x2012 <main+0x1a9c>
    5450: d0 db        	bne	$542d <_ZN12_GLOBAL__N_112print_stringEPKcP6Status+0x4a>
    5452: a0 01        	ldy	#$1
    5454: b1 c6        	lda	($c6),y                 ; 0x20c6 <main+0x1b50>
    5456: 29 01        	and	#$1
    5458: f0 03        	beq	$545d <_ZN12_GLOBAL__N_112print_stringEPKcP6Status+0x7a>
    545a: 4c b5 54     	jmp	$54b5 <_ZN12_GLOBAL__N_112print_stringEPKcP6Status+0xd2>
    545d: a5 c6        	lda	$c6                     ; 0x20c6 <main+0x1b50>
    545f: 18           	clc
    5460: 69 0b        	adc	#$b
    5462: 85 14        	sta	$14                     ; 0x2014 <main+0x1a9e>
    5464: a5 c7        	lda	$c7                     ; 0x20c7 <main+0x1b51>
    5466: 69 00        	adc	#$0
    5468: 85 15        	sta	$15                     ; 0x2015 <main+0x1a9f>
    546a: a0 0b        	ldy	#$b
    546c: b1 c6        	lda	($c6),y                 ; 0x20c6 <main+0x1b50>
    546e: 85 13        	sta	$13                     ; 0x2013 <main+0x1a9d>
    5470: a0 01        	ldy	#$1
    5472: b1 14        	lda	($14),y                 ; 0x2014 <main+0x1a9e>
    5474: 85 12        	sta	$12                     ; 0x2012 <main+0x1a9c>
    5476: a6 cb        	ldx	$cb                     ; 0x20cb <main+0x1b55>
    5478: e4 12        	cpx	$12                     ; 0x2012 <main+0x1a9c>
    547a: d0 08        	bne	$5484 <_ZN12_GLOBAL__N_112print_stringEPKcP6Status+0xa1>
    547c: a6 c8        	ldx	$c8                     ; 0x20c8 <main+0x1b52>
    547e: e4 13        	cpx	$13                     ; 0x2013 <main+0x1a9d>
    5480: 90 06        	bcc	$5488 <_ZN12_GLOBAL__N_112print_stringEPKcP6Status+0xa5>
    5482: 80 31        	bra	$54b5 <_ZN12_GLOBAL__N_112print_stringEPKcP6Status+0xd2>
    5484: e4 12        	cpx	$12                     ; 0x2012 <main+0x1a9c>
    5486: b0 2d        	bcs	$54b5 <_ZN12_GLOBAL__N_112print_stringEPKcP6Status+0xd2>
    5488: 38           	sec
    5489: a5 c8        	lda	$c8                     ; 0x20c8 <main+0x1b52>
    548b: e5 13        	sbc	$13                     ; 0x2013 <main+0x1a9d>
    548d: a8           	tay
    548e: a5 cb        	lda	$cb                     ; 0x20cb <main+0x1b55>
    5490: e5 12        	sbc	$12                     ; 0x2012 <main+0x1a9c>
    5492: 85 ca        	sta	$ca                     ; 0x20ca <main+0x1b54>
    5494: a6 c6        	ldx	$c6                     ; 0x20c6 <main+0x1b50>
    5496: 86 12        	stx	$12                     ; 0x2012 <main+0x1a9c>
    5498: a6 c7        	ldx	$c7                     ; 0x20c7 <main+0x1b51>
    549a: 86 13        	stx	$13                     ; 0x2013 <main+0x1a9d>
    549c: 84 c9        	sty	$c9                     ; 0x20c9 <main+0x1b53>
    549e: a9 20        	lda	#$20
    54a0: 20 08 53     	jsr	$5308 <_ZN12_GLOBAL__N_13putEcP6Status>
    54a3: a6 ca        	ldx	$ca                     ; 0x20ca <main+0x1b54>
    54a5: e6 c9        	inc	$c9                     ; 0x20c9 <main+0x1b53>
    54a7: d0 01        	bne	$54aa <_ZN12_GLOBAL__N_112print_stringEPKcP6Status+0xc7>
    54a9: e8           	inx
    54aa: 86 ca        	stx	$ca                     ; 0x20ca <main+0x1b54>
    54ac: a4 c9        	ldy	$c9                     ; 0x20c9 <main+0x1b53>
    54ae: 8a           	txa
    54af: d0 e3        	bne	$5494 <_ZN12_GLOBAL__N_112print_stringEPKcP6Status+0xb1>
    54b1: a5 c9        	lda	$c9                     ; 0x20c9 <main+0x1b53>
    54b3: d0 df        	bne	$5494 <_ZN12_GLOBAL__N_112print_stringEPKcP6Status+0xb1>
    54b5: a4 cb        	ldy	$cb                     ; 0x20cb <main+0x1b55>
    54b7: d0 04        	bne	$54bd <_ZN12_GLOBAL__N_112print_stringEPKcP6Status+0xda>
    54b9: a5 c8        	lda	$c8                     ; 0x20c8 <main+0x1b52>
    54bb: f0 26        	beq	$54e3 <_ZN12_GLOBAL__N_112print_stringEPKcP6Status+0x100>
    54bd: a2 ff        	ldx	#$ff
    54bf: c6 c8        	dec	$c8                     ; 0x20c8 <main+0x1b52>
    54c1: e4 c8        	cpx	$c8                     ; 0x20c8 <main+0x1b52>
    54c3: d0 01        	bne	$54c6 <_ZN12_GLOBAL__N_112print_stringEPKcP6Status+0xe3>
    54c5: 88           	dey
    54c6: 84 c9        	sty	$c9                     ; 0x20c9 <main+0x1b53>
    54c8: b2 c4        	lda	($c4)                   ; 0x20c4 <main+0x1b4e>
    54ca: e6 c4        	inc	$c4                     ; 0x20c4 <main+0x1b4e>
    54cc: d0 02        	bne	$54d0 <_ZN12_GLOBAL__N_112print_stringEPKcP6Status+0xed>
    54ce: e6 c5        	inc	$c5                     ; 0x20c5 <main+0x1b4f>
    54d0: a6 c6        	ldx	$c6                     ; 0x20c6 <main+0x1b50>
    54d2: 86 12        	stx	$12                     ; 0x2012 <main+0x1a9c>
    54d4: a6 c7        	ldx	$c7                     ; 0x20c7 <main+0x1b51>
    54d6: 86 13        	stx	$13                     ; 0x2013 <main+0x1a9d>
    54d8: 20 08 53     	jsr	$5308 <_ZN12_GLOBAL__N_13putEcP6Status>
    54db: a4 c9        	ldy	$c9                     ; 0x20c9 <main+0x1b53>
    54dd: d0 de        	bne	$54bd <_ZN12_GLOBAL__N_112print_stringEPKcP6Status+0xda>
    54df: a5 c8        	lda	$c8                     ; 0x20c8 <main+0x1b52>
    54e1: d0 da        	bne	$54bd <_ZN12_GLOBAL__N_112print_stringEPKcP6Status+0xda>
    54e3: 60           	rts
    54e4: a6 12        	ldx	$12                     ; 0x2012 <main+0x1a9c>
    54e6: 86 c8        	stx	$c8                     ; 0x20c8 <main+0x1b52>
    54e8: a6 13        	ldx	$13                     ; 0x2013 <main+0x1a9d>
    54ea: 86 cb        	stx	$cb                     ; 0x20cb <main+0x1b55>
    54ec: 4c 52 54     	jmp	$5452 <_ZN12_GLOBAL__N_112print_stringEPKcP6Status+0x6f>

000054ef <printf>:
    54ef: 18           	clc
    54f0: a6 10        	ldx	$10                     ; 0x2010 <main+0x1a9a>
    54f2: a4 11        	ldy	$11                     ; 0x2011 <main+0x1a9b>
    54f4: 86 8d        	stx	$8d                     ; 0x208d <main+0x1b17>
    54f6: 84 8e        	sty	$8e                     ; 0x208e <main+0x1b18>
    54f8: a6 8d        	ldx	$8d                     ; 0x208d <main+0x1b17>
    54fa: a4 8e        	ldy	$8e                     ; 0x208e <main+0x1b18>
    54fc: 86 78        	stx	$78                     ; 0x2078 <main+0x1b02>
    54fe: 84 79        	sty	$79                     ; 0x2079 <main+0x1b03>
    5500: a2 ff        	ldx	#$ff
    5502: 86 7d        	stx	$7d                     ; 0x207d <main+0x1b07>
    5504: 86 7e        	stx	$7e                     ; 0x207e <main+0x1b08>
    5506: 64 7f        	stz	$7f                     ; 0x207f <main+0x1b09>
    5508: 64 80        	stz	$80                     ; 0x2080 <main+0x1b0a>
    550a: e8           	inx
    550b: 86 14        	stx	$14                     ; 0x2014 <main+0x1a9e>
    550d: a2 00        	ldx	#$0
    550f: 86 15        	stx	$15                     ; 0x2015 <main+0x1a9f>
    5511: a6 14        	ldx	$14                     ; 0x2014 <main+0x1a9e>
    5513: a4 15        	ldy	$15                     ; 0x2015 <main+0x1a9f>
    5515: 86 83        	stx	$83                     ; 0x2083 <main+0x1b0d>
    5517: 84 84        	sty	$84                     ; 0x2084 <main+0x1b0e>
    5519: a2 02        	ldx	#$2
    551b: 86 89        	stx	$89                     ; 0x2089 <main+0x1b13>
    551d: 64 8a        	stz	$8a                     ; 0x208a <main+0x1b14>
    551f: a6 78        	ldx	$78                     ; 0x2078 <main+0x1b02>
    5521: a4 79        	ldy	$79                     ; 0x2079 <main+0x1b03>
    5523: 86 8b        	stx	$8b                     ; 0x208b <main+0x1b15>
    5525: 84 8c        	sty	$8c                     ; 0x208c <main+0x1b16>
    5527: a6 12        	ldx	$12                     ; 0x2012 <main+0x1a9c>
    5529: 86 76        	stx	$76                     ; 0x2076 <main+0x1b00>
    552b: a6 13        	ldx	$13                     ; 0x2013 <main+0x1a9d>
    552d: 86 77        	stx	$77                     ; 0x2077 <main+0x1b01>
    552f: b2 12        	lda	($12)                   ; 0x2012 <main+0x1a9c>
    5531: c9 25        	cmp	#$25
    5533: f0 26        	beq	$555b <printf+0x6c>
    5535: aa           	tax
    5536: f0 3e        	beq	$5576 <printf+0x87>
    5538: 85 52        	sta	$52                     ; 0x2052 <main+0x1adc>
    553a: a2 52        	ldx	#$52
    553c: 86 12        	stx	$12                     ; 0x2012 <main+0x1a9c>
    553e: a2 00        	ldx	#$0
    5540: 86 13        	stx	$13                     ; 0x2013 <main+0x1a9d>
    5542: 20 a2 2a     	jsr	$2aa2 <textPrint>
    5545: e6 76        	inc	$76                     ; 0x2076 <main+0x1b00>
    5547: d0 02        	bne	$554b <printf+0x5c>
    5549: e6 77        	inc	$77                     ; 0x2077 <main+0x1b01>
    554b: e6 7f        	inc	$7f                     ; 0x207f <main+0x1b09>
    554d: d0 02        	bne	$5551 <printf+0x62>
    554f: e6 80        	inc	$80                     ; 0x2080 <main+0x1b0a>
    5551: a6 76        	ldx	$76                     ; 0x2076 <main+0x1b00>
    5553: 86 12        	stx	$12                     ; 0x2012 <main+0x1a9c>
    5555: a6 77        	ldx	$77                     ; 0x2077 <main+0x1b01>
    5557: 86 13        	stx	$13                     ; 0x2013 <main+0x1a9d>
    5559: 80 cc        	bra	$5527 <printf+0x38>
    555b: a2 7a        	ldx	#$7a
    555d: 86 14        	stx	$14                     ; 0x2014 <main+0x1a9e>
    555f: a2 00        	ldx	#$0
    5561: 86 15        	stx	$15                     ; 0x2015 <main+0x1a9f>
    5563: 20 d4 47     	jsr	$47d4 <_ZN12_GLOBAL__N_15printEPKcP6Status>
    5566: a6 13        	ldx	$13                     ; 0x2013 <main+0x1a9d>
    5568: e4 77        	cpx	$77                     ; 0x2077 <main+0x1b01>
    556a: d0 bb        	bne	$5527 <printf+0x38>
    556c: a6 12        	ldx	$12                     ; 0x2012 <main+0x1a9c>
    556e: e4 76        	cpx	$76                     ; 0x2076 <main+0x1b00>
    5570: d0 b5        	bne	$5527 <printf+0x38>
    5572: b2 76        	lda	($76)                   ; 0x2076 <main+0x1b00>
    5574: 80 c2        	bra	$5538 <printf+0x49>
    5576: 60           	rts

00005577 <sprintf>:
    5577: a6 12        	ldx	$12                     ; 0x2012 <main+0x1a9c>
    5579: 86 63        	stx	$63                     ; 0x2063 <main+0x1aed>
    557b: a6 13        	ldx	$13                     ; 0x2013 <main+0x1a9d>
    557d: 86 64        	stx	$64                     ; 0x2064 <main+0x1aee>
    557f: a6 14        	ldx	$14                     ; 0x2014 <main+0x1a9e>
    5581: 86 12        	stx	$12                     ; 0x2012 <main+0x1a9c>
    5583: a6 15        	ldx	$15                     ; 0x2015 <main+0x1a9f>
    5585: 86 13        	stx	$13                     ; 0x2013 <main+0x1a9d>
    5587: 18           	clc
    5588: a6 10        	ldx	$10                     ; 0x2010 <main+0x1a9a>
    558a: a4 11        	ldy	$11                     ; 0x2011 <main+0x1a9b>
    558c: 86 7c        	stx	$7c                     ; 0x207c <main+0x1b06>
    558e: 84 7d        	sty	$7d                     ; 0x207d <main+0x1b07>
    5590: a6 7c        	ldx	$7c                     ; 0x207c <main+0x1b06>
    5592: a4 7d        	ldy	$7d                     ; 0x207d <main+0x1b07>
    5594: 86 67        	stx	$67                     ; 0x2067 <main+0x1af1>
    5596: 84 68        	sty	$68                     ; 0x2068 <main+0x1af2>
    5598: a2 ff        	ldx	#$ff
    559a: 86 6c        	stx	$6c                     ; 0x206c <main+0x1af6>
    559c: 86 6d        	stx	$6d                     ; 0x206d <main+0x1af7>
    559e: 64 6e        	stz	$6e                     ; 0x206e <main+0x1af8>
    55a0: 64 6f        	stz	$6f                     ; 0x206f <main+0x1af9>
    55a2: a6 63        	ldx	$63                     ; 0x2063 <main+0x1aed>
    55a4: a4 64        	ldy	$64                     ; 0x2064 <main+0x1aee>
    55a6: 86 72        	stx	$72                     ; 0x2072 <main+0x1afc>
    55a8: 84 73        	sty	$73                     ; 0x2073 <main+0x1afd>
    55aa: a2 00        	ldx	#$0
    55ac: 86 14        	stx	$14                     ; 0x2014 <main+0x1a9e>
    55ae: a2 00        	ldx	#$0
    55b0: 86 15        	stx	$15                     ; 0x2015 <main+0x1a9f>
    55b2: a6 14        	ldx	$14                     ; 0x2014 <main+0x1a9e>
    55b4: a4 15        	ldy	$15                     ; 0x2015 <main+0x1a9f>
    55b6: 86 78        	stx	$78                     ; 0x2078 <main+0x1b02>
    55b8: 84 79        	sty	$79                     ; 0x2079 <main+0x1b03>
    55ba: a6 67        	ldx	$67                     ; 0x2067 <main+0x1af1>
    55bc: a4 68        	ldy	$68                     ; 0x2068 <main+0x1af2>
    55be: 86 7a        	stx	$7a                     ; 0x207a <main+0x1b04>
    55c0: 84 7b        	sty	$7b                     ; 0x207b <main+0x1b05>
    55c2: 80 17        	bra	$55db <sprintf+0x64>
    55c4: a2 69        	ldx	#$69
    55c6: 86 14        	stx	$14                     ; 0x2014 <main+0x1a9e>
    55c8: a2 00        	ldx	#$0
    55ca: 86 15        	stx	$15                     ; 0x2015 <main+0x1a9f>
    55cc: 20 d4 47     	jsr	$47d4 <_ZN12_GLOBAL__N_15printEPKcP6Status>
    55cf: a6 13        	ldx	$13                     ; 0x2013 <main+0x1a9d>
    55d1: e4 66        	cpx	$66                     ; 0x2066 <main+0x1af0>
    55d3: d0 06        	bne	$55db <sprintf+0x64>
    55d5: a6 12        	ldx	$12                     ; 0x2012 <main+0x1a9c>
    55d7: e4 65        	cpx	$65                     ; 0x2065 <main+0x1aef>
    55d9: f0 11        	beq	$55ec <sprintf+0x75>
    55db: a6 12        	ldx	$12                     ; 0x2012 <main+0x1a9c>
    55dd: 86 65        	stx	$65                     ; 0x2065 <main+0x1aef>
    55df: a6 13        	ldx	$13                     ; 0x2013 <main+0x1a9d>
    55e1: 86 66        	stx	$66                     ; 0x2066 <main+0x1af0>
    55e3: b2 12        	lda	($12)                   ; 0x2012 <main+0x1a9c>
    55e5: c9 25        	cmp	#$25
    55e7: f0 db        	beq	$55c4 <sprintf+0x4d>
    55e9: aa           	tax
    55ea: f0 43        	beq	$562f <sprintf+0xb8>
    55ec: a6 6e        	ldx	$6e                     ; 0x206e <main+0x1af8>
    55ee: 86 12        	stx	$12                     ; 0x2012 <main+0x1a9c>
    55f0: a4 6f        	ldy	$6f                     ; 0x206f <main+0x1af9>
    55f2: 84 13        	sty	$13                     ; 0x2013 <main+0x1a9d>
    55f4: c0 ff        	cpy	#$ff
    55f6: d0 04        	bne	$55fc <sprintf+0x85>
    55f8: e0 ff        	cpx	#$ff
    55fa: f0 15        	beq	$5611 <sprintf+0x9a>
    55fc: b2 65        	lda	($65)                   ; 0x2065 <main+0x1aef>
    55fe: 85 16        	sta	$16                     ; 0x2016 <main+0x1aa0>
    5600: a5 63        	lda	$63                     ; 0x2063 <main+0x1aed>
    5602: 18           	clc
    5603: 65 12        	adc	$12                     ; 0x2012 <main+0x1a9c>
    5605: 85 14        	sta	$14                     ; 0x2014 <main+0x1a9e>
    5607: a5 64        	lda	$64                     ; 0x2064 <main+0x1aee>
    5609: 65 13        	adc	$13                     ; 0x2013 <main+0x1a9d>
    560b: 85 15        	sta	$15                     ; 0x2015 <main+0x1a9f>
    560d: a5 16        	lda	$16                     ; 0x2016 <main+0x1aa0>
    560f: 92 14        	sta	($14)                   ; 0x2014 <main+0x1a9e>
    5611: e6 12        	inc	$12                     ; 0x2012 <main+0x1a9c>
    5613: d0 02        	bne	$5617 <sprintf+0xa0>
    5615: e6 13        	inc	$13                     ; 0x2013 <main+0x1a9d>
    5617: a6 12        	ldx	$12                     ; 0x2012 <main+0x1a9c>
    5619: a4 13        	ldy	$13                     ; 0x2013 <main+0x1a9d>
    561b: 86 6e        	stx	$6e                     ; 0x206e <main+0x1af8>
    561d: 84 6f        	sty	$6f                     ; 0x206f <main+0x1af9>
    561f: e6 65        	inc	$65                     ; 0x2065 <main+0x1aef>
    5621: d0 02        	bne	$5625 <sprintf+0xae>
    5623: e6 66        	inc	$66                     ; 0x2066 <main+0x1af0>
    5625: a6 65        	ldx	$65                     ; 0x2065 <main+0x1aef>
    5627: 86 12        	stx	$12                     ; 0x2012 <main+0x1a9c>
    5629: a6 66        	ldx	$66                     ; 0x2066 <main+0x1af0>
    562b: 86 13        	stx	$13                     ; 0x2013 <main+0x1a9d>
    562d: 80 ac        	bra	$55db <sprintf+0x64>
    562f: a6 6e        	ldx	$6e                     ; 0x206e <main+0x1af8>
    5631: 86 12        	stx	$12                     ; 0x2012 <main+0x1a9c>
    5633: a4 6f        	ldy	$6f                     ; 0x206f <main+0x1af9>
    5635: 84 13        	sty	$13                     ; 0x2013 <main+0x1a9d>
    5637: c0 ff        	cpy	#$ff
    5639: d0 04        	bne	$563f <sprintf+0xc8>
    563b: e0 ff        	cpx	#$ff
    563d: f0 11        	beq	$5650 <sprintf+0xd9>
    563f: a5 63        	lda	$63                     ; 0x2063 <main+0x1aed>
    5641: 18           	clc
    5642: 65 12        	adc	$12                     ; 0x2012 <main+0x1a9c>
    5644: 85 12        	sta	$12                     ; 0x2012 <main+0x1a9c>
    5646: a5 64        	lda	$64                     ; 0x2064 <main+0x1aee>
    5648: 65 13        	adc	$13                     ; 0x2013 <main+0x1a9d>
    564a: 85 13        	sta	$13                     ; 0x2013 <main+0x1a9d>
    564c: a9 00        	lda	#$0
    564e: 92 12        	sta	($12)                   ; 0x2012 <main+0x1a9c>
    5650: 60           	rts

00005651 <malloc>:
    5651: a8           	tay
    5652: 8a           	txa
    5653: a2 00        	ldx	#$0
    5655: 86 12        	stx	$12                     ; 0x2012 <main+0x1a9c>
    5657: a2 00        	ldx	#$0
    5659: 86 13        	stx	$13                     ; 0x2013 <main+0x1a9d>
    565b: aa           	tax
    565c: d0 07        	bne	$5665 <malloc+0x14>
    565e: c0 00        	cpy	#$0
    5660: d0 03        	bne	$5665 <malloc+0x14>
    5662: 4c 54 57     	jmp	$5754 <malloc+0x103>
    5665: 84 16        	sty	$16                     ; 0x2016 <main+0x1aa0>
    5667: aa           	tax
    5668: d0 0e        	bne	$5678 <malloc+0x27>
    566a: a6 16        	ldx	$16                     ; 0x2016 <main+0x1aa0>
    566c: e0 07        	cpx	#$7
    566e: b0 0c        	bcs	$567c <malloc+0x2b>
    5670: a2 08        	ldx	#$8
    5672: 86 64        	stx	$64                     ; 0x2064 <main+0x1aee>
    5674: a9 00        	lda	#$0
    5676: 80 2f        	bra	$56a7 <malloc+0x56>
    5678: c9 00        	cmp	#$0
    567a: 90 f4        	bcc	$5670 <malloc+0x1f>
    567c: a8           	tay
    567d: a5 16        	lda	$16                     ; 0x2016 <main+0x1aa0>
    567f: 29 01        	and	#$1
    5681: a2 02        	ldx	#$2
    5683: 64 14        	stz	$14                     ; 0x2014 <main+0x1a9e>
    5685: c9 00        	cmp	#$0
    5687: f0 02        	beq	$568b <malloc+0x3a>
    5689: a2 03        	ldx	#$3
    568b: 86 15        	stx	$15                     ; 0x2015 <main+0x1a9f>
    568d: 18           	clc
    568e: a5 16        	lda	$16                     ; 0x2016 <main+0x1aa0>
    5690: 65 15        	adc	$15                     ; 0x2015 <main+0x1a9f>
    5692: aa           	tax
    5693: 98           	tya
    5694: 65 14        	adc	$14                     ; 0x2014 <main+0x1a9e>
    5696: 90 03        	bcc	$569b <malloc+0x4a>
    5698: 4c 54 57     	jmp	$5754 <malloc+0x103>
    569b: 86 64        	stx	$64                     ; 0x2064 <main+0x1aee>
    569d: a8           	tay
    569e: d0 07        	bne	$56a7 <malloc+0x56>
    56a0: e0 00        	cpx	#$0
    56a2: d0 03        	bne	$56a7 <malloc+0x56>
    56a4: 4c 54 57     	jmp	$5754 <malloc+0x103>
    56a7: 85 63        	sta	$63                     ; 0x2063 <main+0x1aed>
    56a9: ad 92 71     	lda	$7192                   ; 0x7192 <_ZN12_GLOBAL__N_111initializedE>
    56ac: 29 01        	and	#$1
    56ae: d0 2c        	bne	$56dc <malloc+0x8b>
    56b0: a9 00        	lda	#$0
    56b2: a2 10        	ldx	#$10
    56b4: a0 94        	ldy	#$94
    56b6: 84 12        	sty	$12                     ; 0x2012 <main+0x1a9c>
    56b8: a0 71        	ldy	#$71
    56ba: 84 13        	sty	$13                     ; 0x2013 <main+0x1a9d>
    56bc: 20 2c 03     	jsr	$32c <_ZN12_GLOBAL__N_19FreeChunk6insertEPvj>
    56bf: a2 00        	ldx	#$0
    56c1: 86 12        	stx	$12                     ; 0x2012 <main+0x1a9c>
    56c3: a2 00        	ldx	#$0
    56c5: 86 13        	stx	$13                     ; 0x2013 <main+0x1a9d>
    56c7: ae 95 71     	ldx	$7195                   ; 0x7195 <__heap_start+0x1>
    56ca: a9 fe        	lda	#$fe
    56cc: 2d 94 71     	and	$7194                   ; 0x7194 <__heap_start>
    56cf: 8d 94 71     	sta	$7194                   ; 0x7194 <__heap_start>
    56d2: 8e 95 71     	stx	$7195                   ; 0x7195 <__heap_start+0x1>
    56d5: a2 01        	ldx	#$1
    56d7: 86 5e        	stx	$5e                     ; 0x205e <main+0x1ae8>
    56d9: 8e 92 71     	stx	$7192                   ; 0x7192 <_ZN12_GLOBAL__N_111initializedE>
    56dc: a6 61        	ldx	$61                     ; 0x2061 <main+0x1aeb>
    56de: 86 16        	stx	$16                     ; 0x2016 <main+0x1aa0>
    56e0: a4 62        	ldy	$62                     ; 0x2062 <main+0x1aec>
    56e2: 84 17        	sty	$17                     ; 0x2017 <main+0x1aa1>
    56e4: a9 00        	lda	#$0
    56e6: 85 14        	sta	$14                     ; 0x2014 <main+0x1a9e>
    56e8: a9 00        	lda	#$0
    56ea: 85 15        	sta	$15                     ; 0x2015 <main+0x1a9f>
    56ec: c4 15        	cpy	$15                     ; 0x2015 <main+0x1a9f>
    56ee: d0 07        	bne	$56f7 <malloc+0xa6>
    56f0: e4 14        	cpx	$14                     ; 0x2014 <main+0x1a9e>
    56f2: d0 03        	bne	$56f7 <malloc+0xa6>
    56f4: 4c 54 57     	jmp	$5754 <malloc+0x103>
    56f7: a2 00        	ldx	#$0
    56f9: a0 10        	ldy	#$10
    56fb: 86 14        	stx	$14                     ; 0x2014 <main+0x1a9e>
    56fd: 84 15        	sty	$15                     ; 0x2015 <main+0x1a9f>
    56ff: 18           	clc
    5700: a9 94        	lda	#$94
    5702: 65 14        	adc	$14                     ; 0x2014 <main+0x1a9e>
    5704: 85 18        	sta	$18                     ; 0x2018 <main+0x1aa2>
    5706: a9 71        	lda	#$71
    5708: 65 15        	adc	$15                     ; 0x2015 <main+0x1a9f>
    570a: 85 67        	sta	$67                     ; 0x2067 <main+0x1af1>
    570c: a0 01        	ldy	#$1
    570e: a6 63        	ldx	$63                     ; 0x2063 <main+0x1aed>
    5710: 86 19        	stx	$19                     ; 0x2019 <main+0x1aa3>
    5712: a6 16        	ldx	$16                     ; 0x2016 <main+0x1aa0>
    5714: 86 14        	stx	$14                     ; 0x2014 <main+0x1a9e>
    5716: a6 17        	ldx	$17                     ; 0x2017 <main+0x1aa1>
    5718: 86 15        	stx	$15                     ; 0x2015 <main+0x1a9f>
    571a: b1 14        	lda	($14),y                 ; 0x2014 <main+0x1a9e>
    571c: c5 19        	cmp	$19                     ; 0x2019 <main+0x1aa3>
    571e: d0 0e        	bne	$572e <malloc+0xdd>
    5720: b2 14        	lda	($14)                   ; 0x2014 <main+0x1a9e>
    5722: 29 fe        	and	#$fe
    5724: a6 64        	ldx	$64                     ; 0x2064 <main+0x1aee>
    5726: 86 1a        	stx	$1a                     ; 0x201a <main+0x1aa4>
    5728: c5 1a        	cmp	$1a                     ; 0x201a <main+0x1aa4>
    572a: b0 29        	bcs	$5755 <malloc+0x104>
    572c: 80 04        	bra	$5732 <malloc+0xe1>
    572e: c5 19        	cmp	$19                     ; 0x2019 <main+0x1aa3>
    5730: b0 23        	bcs	$5755 <malloc+0x104>
    5732: a5 14        	lda	$14                     ; 0x2014 <main+0x1a9e>
    5734: 18           	clc
    5735: 69 02        	adc	#$2
    5737: 85 1a        	sta	$1a                     ; 0x201a <main+0x1aa4>
    5739: a5 15        	lda	$15                     ; 0x2015 <main+0x1a9f>
    573b: 69 00        	adc	#$0
    573d: 85 1b        	sta	$1b                     ; 0x201b <main+0x1aa5>
    573f: a0 02        	ldy	#$2
    5741: b1 14        	lda	($14),y                 ; 0x2014 <main+0x1a9e>
    5743: 85 14        	sta	$14                     ; 0x2014 <main+0x1a9e>
    5745: 88           	dey
    5746: b1 1a        	lda	($1a),y                 ; 0x201a <main+0x1aa4>
    5748: 85 15        	sta	$15                     ; 0x2015 <main+0x1a9f>
    574a: c5 17        	cmp	$17                     ; 0x2017 <main+0x1aa1>
    574c: d0 cc        	bne	$571a <malloc+0xc9>
    574e: a5 14        	lda	$14                     ; 0x2014 <main+0x1a9e>
    5750: c5 16        	cmp	$16                     ; 0x2016 <main+0x1aa0>
    5752: d0 c6        	bne	$571a <malloc+0xc9>
    5754: 60           	rts
    5755: a6 18        	ldx	$18                     ; 0x2018 <main+0x1aa2>
    5757: 86 68        	stx	$68                     ; 0x2068 <main+0x1af2>
    5759: a6 14        	ldx	$14                     ; 0x2014 <main+0x1a9e>
    575b: 86 12        	stx	$12                     ; 0x2012 <main+0x1a9c>
    575d: a6 15        	ldx	$15                     ; 0x2015 <main+0x1a9f>
    575f: 86 13        	stx	$13                     ; 0x2013 <main+0x1a9d>
    5761: a6 14        	ldx	$14                     ; 0x2014 <main+0x1a9e>
    5763: 86 65        	stx	$65                     ; 0x2065 <main+0x1aef>
    5765: a6 15        	ldx	$15                     ; 0x2015 <main+0x1a9f>
    5767: 86 66        	stx	$66                     ; 0x2066 <main+0x1af0>
    5769: 20 62 04     	jsr	$462 <_ZN12_GLOBAL__N_19FreeChunk6removeEv>
    576c: a6 65        	ldx	$65                     ; 0x2065 <main+0x1aef>
    576e: 86 12        	stx	$12                     ; 0x2012 <main+0x1a9c>
    5770: a6 66        	ldx	$66                     ; 0x2066 <main+0x1af0>
    5772: 86 13        	stx	$13                     ; 0x2013 <main+0x1a9d>
    5774: a0 01        	ldy	#$1
    5776: b1 12        	lda	($12),y                 ; 0x2012 <main+0x1a9c>
    5778: 85 15        	sta	$15                     ; 0x2015 <main+0x1a9f>
    577a: a9 fe        	lda	#$fe
    577c: 32 12        	and	($12)                   ; 0x2012 <main+0x1a9c>
    577e: 38           	sec
    577f: a6 64        	ldx	$64                     ; 0x2064 <main+0x1aee>
    5781: 86 14        	stx	$14                     ; 0x2014 <main+0x1a9e>
    5783: 85 17        	sta	$17                     ; 0x2017 <main+0x1aa1>
    5785: e5 14        	sbc	$14                     ; 0x2014 <main+0x1a9e>
    5787: a8           	tay
    5788: a6 63        	ldx	$63                     ; 0x2063 <main+0x1aed>
    578a: 86 14        	stx	$14                     ; 0x2014 <main+0x1a9e>
    578c: a5 15        	lda	$15                     ; 0x2015 <main+0x1a9f>
    578e: 85 16        	sta	$16                     ; 0x2016 <main+0x1aa0>
    5790: e5 14        	sbc	$14                     ; 0x2014 <main+0x1a9e>
    5792: d0 06        	bne	$579a <malloc+0x149>
    5794: 85 18        	sta	$18                     ; 0x2018 <main+0x1aa2>
    5796: c0 08        	cpy	#$8
    5798: 80 04        	bra	$579e <malloc+0x14d>
    579a: 85 18        	sta	$18                     ; 0x2018 <main+0x1aa2>
    579c: c9 00        	cmp	#$0
    579e: a6 68        	ldx	$68                     ; 0x2068 <main+0x1af2>
    57a0: 86 14        	stx	$14                     ; 0x2014 <main+0x1a9e>
    57a2: a6 67        	ldx	$67                     ; 0x2067 <main+0x1af1>
    57a4: 86 15        	stx	$15                     ; 0x2015 <main+0x1a9f>
    57a6: a5 17        	lda	$17                     ; 0x2017 <main+0x1aa1>
    57a8: 90 42        	bcc	$57ec <malloc+0x19b>
    57aa: 18           	clc
    57ab: a5 64        	lda	$64                     ; 0x2064 <main+0x1aee>
    57ad: 85 64        	sta	$64                     ; 0x2064 <main+0x1aee>
    57af: 65 12        	adc	$12                     ; 0x2012 <main+0x1a9c>
    57b1: 85 12        	sta	$12                     ; 0x2012 <main+0x1a9c>
    57b3: a6 63        	ldx	$63                     ; 0x2063 <main+0x1aed>
    57b5: 86 63        	stx	$63                     ; 0x2063 <main+0x1aed>
    57b7: a5 63        	lda	$63                     ; 0x2063 <main+0x1aed>
    57b9: 65 13        	adc	$13                     ; 0x2013 <main+0x1a9d>
    57bb: 85 13        	sta	$13                     ; 0x2013 <main+0x1a9d>
    57bd: a6 18        	ldx	$18                     ; 0x2018 <main+0x1aa2>
    57bf: 98           	tya
    57c0: 20 2c 03     	jsr	$32c <_ZN12_GLOBAL__N_19FreeChunk6insertEPvj>
    57c3: a6 65        	ldx	$65                     ; 0x2065 <main+0x1aef>
    57c5: 86 12        	stx	$12                     ; 0x2012 <main+0x1a9c>
    57c7: a6 66        	ldx	$66                     ; 0x2066 <main+0x1af0>
    57c9: 86 13        	stx	$13                     ; 0x2013 <main+0x1a9d>
    57cb: a5 64        	lda	$64                     ; 0x2064 <main+0x1aee>
    57cd: 29 fe        	and	#$fe
    57cf: 85 14        	sta	$14                     ; 0x2014 <main+0x1a9e>
    57d1: a0 01        	ldy	#$1
    57d3: 98           	tya
    57d4: 32 12        	and	($12)                   ; 0x2012 <main+0x1a9c>
    57d6: 05 14        	ora	$14                     ; 0x2014 <main+0x1a9e>
    57d8: 92 12        	sta	($12)                   ; 0x2012 <main+0x1a9c>
    57da: a5 63        	lda	$63                     ; 0x2063 <main+0x1aed>
    57dc: 91 12        	sta	($12),y                 ; 0x2012 <main+0x1a9c>
    57de: a5 14        	lda	$14                     ; 0x2014 <main+0x1a9e>
    57e0: a6 63        	ldx	$63                     ; 0x2063 <main+0x1aed>
    57e2: 86 16        	stx	$16                     ; 0x2016 <main+0x1aa0>
    57e4: a6 68        	ldx	$68                     ; 0x2068 <main+0x1af2>
    57e6: 86 14        	stx	$14                     ; 0x2014 <main+0x1a9e>
    57e8: a6 67        	ldx	$67                     ; 0x2067 <main+0x1af1>
    57ea: 86 15        	stx	$15                     ; 0x2015 <main+0x1a9f>
    57ec: 18           	clc
    57ed: 65 12        	adc	$12                     ; 0x2012 <main+0x1a9c>
    57ef: a8           	tay
    57f0: a5 16        	lda	$16                     ; 0x2016 <main+0x1aa0>
    57f2: 65 13        	adc	$13                     ; 0x2013 <main+0x1a9d>
    57f4: c5 15        	cmp	$15                     ; 0x2015 <main+0x1a9f>
    57f6: d0 08        	bne	$5800 <malloc+0x1af>
    57f8: c4 14        	cpy	$14                     ; 0x2014 <main+0x1a9e>
    57fa: d0 04        	bne	$5800 <malloc+0x1af>
    57fc: 64 5e        	stz	$5e                     ; 0x205e <main+0x1ae8>
    57fe: 80 14        	bra	$5814 <malloc+0x1c3>
    5800: 84 14        	sty	$14                     ; 0x2014 <main+0x1a9e>
    5802: 85 15        	sta	$15                     ; 0x2015 <main+0x1a9f>
    5804: a0 01        	ldy	#$1
    5806: b1 14        	lda	($14),y                 ; 0x2014 <main+0x1a9e>
    5808: 85 16        	sta	$16                     ; 0x2016 <main+0x1aa0>
    580a: a9 fe        	lda	#$fe
    580c: 32 14        	and	($14)                   ; 0x2014 <main+0x1a9e>
    580e: 92 14        	sta	($14)                   ; 0x2014 <main+0x1a9e>
    5810: a5 16        	lda	$16                     ; 0x2016 <main+0x1aa0>
    5812: 91 14        	sta	($14),y                 ; 0x2014 <main+0x1a9e>
    5814: a5 12        	lda	$12                     ; 0x2012 <main+0x1a9c>
    5816: 18           	clc
    5817: 69 02        	adc	#$2
    5819: 85 12        	sta	$12                     ; 0x2012 <main+0x1a9c>
    581b: a5 13        	lda	$13                     ; 0x2013 <main+0x1a9d>
    581d: 69 00        	adc	#$0
    581f: 85 13        	sta	$13                     ; 0x2013 <main+0x1a9d>
    5821: 60           	rts

00005822 <free>:
    5822: a6 12        	ldx	$12                     ; 0x2012 <main+0x1a9c>
    5824: 86 14        	stx	$14                     ; 0x2014 <main+0x1a9e>
    5826: a6 13        	ldx	$13                     ; 0x2013 <main+0x1a9d>
    5828: 86 15        	stx	$15                     ; 0x2015 <main+0x1a9f>
    582a: a2 00        	ldx	#$0
    582c: 86 12        	stx	$12                     ; 0x2012 <main+0x1a9c>
    582e: a2 00        	ldx	#$0
    5830: 86 13        	stx	$13                     ; 0x2013 <main+0x1a9d>
    5832: a6 15        	ldx	$15                     ; 0x2015 <main+0x1a9f>
    5834: e4 13        	cpx	$13                     ; 0x2013 <main+0x1a9d>
    5836: d0 09        	bne	$5841 <free+0x1f>
    5838: a6 14        	ldx	$14                     ; 0x2014 <main+0x1a9e>
    583a: e4 12        	cpx	$12                     ; 0x2012 <main+0x1a9c>
    583c: d0 03        	bne	$5841 <free+0x1f>
    583e: 4c a3 59     	jmp	$59a3 <free+0x181>
    5841: a2 00        	ldx	#$0
    5843: a0 10        	ldy	#$10
    5845: a9 94        	lda	#$94
    5847: 86 12        	stx	$12                     ; 0x2012 <main+0x1a9c>
    5849: 84 13        	sty	$13                     ; 0x2013 <main+0x1a9d>
    584b: 18           	clc
    584c: 65 12        	adc	$12                     ; 0x2012 <main+0x1a9c>
    584e: 85 18        	sta	$18                     ; 0x2018 <main+0x1aa2>
    5850: a9 71        	lda	#$71
    5852: 65 13        	adc	$13                     ; 0x2013 <main+0x1a9d>
    5854: 85 19        	sta	$19                     ; 0x2019 <main+0x1aa3>
    5856: a5 14        	lda	$14                     ; 0x2014 <main+0x1a9e>
    5858: 18           	clc
    5859: 69 fe        	adc	#$fe
    585b: 85 12        	sta	$12                     ; 0x2012 <main+0x1a9c>
    585d: a5 15        	lda	$15                     ; 0x2015 <main+0x1a9f>
    585f: 69 ff        	adc	#$ff
    5861: a6 12        	ldx	$12                     ; 0x2012 <main+0x1a9c>
    5863: 86 63        	stx	$63                     ; 0x2063 <main+0x1aed>
    5865: aa           	tax
    5866: 85 64        	sta	$64                     ; 0x2064 <main+0x1aee>
    5868: b2 63        	lda	($63)                   ; 0x2063 <main+0x1aed>
    586a: 85 1a        	sta	$1a                     ; 0x201a <main+0x1aa4>
    586c: a0 01        	ldy	#$1
    586e: b1 63        	lda	($63),y                 ; 0x2063 <main+0x1aed>
    5870: 85 16        	sta	$16                     ; 0x2016 <main+0x1aa0>
    5872: a9 fe        	lda	#$fe
    5874: 32 63        	and	($63)                   ; 0x2063 <main+0x1aed>
    5876: 85 17        	sta	$17                     ; 0x2017 <main+0x1aa1>
    5878: a4 12        	ldy	$12                     ; 0x2012 <main+0x1a9c>
    587a: 84 1b        	sty	$1b                     ; 0x201b <main+0x1aa5>
    587c: a5 12        	lda	$12                     ; 0x2012 <main+0x1a9c>
    587e: 18           	clc
    587f: 65 17        	adc	$17                     ; 0x2017 <main+0x1aa1>
    5881: 85 12        	sta	$12                     ; 0x2012 <main+0x1a9c>
    5883: 8a           	txa
    5884: 86 1c        	stx	$1c                     ; 0x201c <main+0x1aa6>
    5886: 65 16        	adc	$16                     ; 0x2016 <main+0x1aa0>
    5888: c5 19        	cmp	$19                     ; 0x2019 <main+0x1aa3>
    588a: d0 10        	bne	$589c <free+0x7a>
    588c: a6 12        	ldx	$12                     ; 0x2012 <main+0x1a9c>
    588e: e4 18        	cpx	$18                     ; 0x2018 <main+0x1aa2>
    5890: d0 0a        	bne	$589c <free+0x7a>
    5892: a2 00        	ldx	#$0
    5894: 86 12        	stx	$12                     ; 0x2012 <main+0x1a9c>
    5896: a2 00        	ldx	#$0
    5898: 86 13        	stx	$13                     ; 0x2013 <main+0x1a9d>
    589a: 80 02        	bra	$589e <free+0x7c>
    589c: 85 13        	sta	$13                     ; 0x2013 <main+0x1a9d>
    589e: a5 1a        	lda	$1a                     ; 0x201a <main+0x1aa4>
    58a0: 29 01        	and	#$1
    58a2: d0 03        	bne	$58a7 <free+0x85>
    58a4: 4c 22 59     	jmp	$5922 <free+0x100>
    58a7: a5 14        	lda	$14                     ; 0x2014 <main+0x1a9e>
    58a9: 18           	clc
    58aa: 69 fc        	adc	#$fc
    58ac: 85 14        	sta	$14                     ; 0x2014 <main+0x1a9e>
    58ae: a5 15        	lda	$15                     ; 0x2015 <main+0x1a9f>
    58b0: 69 ff        	adc	#$ff
    58b2: 85 15        	sta	$15                     ; 0x2015 <main+0x1a9f>
    58b4: a0 01        	ldy	#$1
    58b6: 38           	sec
    58b7: a9 00        	lda	#$0
    58b9: f2 14        	sbc	($14)                   ; 0x2014 <main+0x1a9e>
    58bb: 85 1a        	sta	$1a                     ; 0x201a <main+0x1aa4>
    58bd: a9 00        	lda	#$0
    58bf: f1 14        	sbc	($14),y                 ; 0x2014 <main+0x1a9e>
    58c1: 85 14        	sta	$14                     ; 0x2014 <main+0x1a9e>
    58c3: a5 1b        	lda	$1b                     ; 0x201b <main+0x1aa5>
    58c5: 18           	clc
    58c6: 65 1a        	adc	$1a                     ; 0x201a <main+0x1aa4>
    58c8: 85 63        	sta	$63                     ; 0x2063 <main+0x1aed>
    58ca: a5 1c        	lda	$1c                     ; 0x201c <main+0x1aa6>
    58cc: 65 14        	adc	$14                     ; 0x2014 <main+0x1a9e>
    58ce: 85 64        	sta	$64                     ; 0x2064 <main+0x1aee>
    58d0: b1 63        	lda	($63),y                 ; 0x2063 <main+0x1aed>
    58d2: 85 6b        	sta	$6b                     ; 0x206b <main+0x1af5>
    58d4: a9 fe        	lda	#$fe
    58d6: 32 63        	and	($63)                   ; 0x2063 <main+0x1aed>
    58d8: 85 6c        	sta	$6c                     ; 0x206c <main+0x1af6>
    58da: a6 12        	ldx	$12                     ; 0x2012 <main+0x1a9c>
    58dc: 86 65        	stx	$65                     ; 0x2065 <main+0x1aef>
    58de: a6 13        	ldx	$13                     ; 0x2013 <main+0x1a9d>
    58e0: 86 66        	stx	$66                     ; 0x2066 <main+0x1af0>
    58e2: a6 63        	ldx	$63                     ; 0x2063 <main+0x1aed>
    58e4: 86 12        	stx	$12                     ; 0x2012 <main+0x1a9c>
    58e6: a6 64        	ldx	$64                     ; 0x2064 <main+0x1aee>
    58e8: 86 13        	stx	$13                     ; 0x2013 <main+0x1a9d>
    58ea: a6 16        	ldx	$16                     ; 0x2016 <main+0x1aa0>
    58ec: 86 67        	stx	$67                     ; 0x2067 <main+0x1af1>
    58ee: a6 17        	ldx	$17                     ; 0x2017 <main+0x1aa1>
    58f0: 86 68        	stx	$68                     ; 0x2068 <main+0x1af2>
    58f2: a6 18        	ldx	$18                     ; 0x2018 <main+0x1aa2>
    58f4: 86 69        	stx	$69                     ; 0x2069 <main+0x1af3>
    58f6: a6 19        	ldx	$19                     ; 0x2019 <main+0x1aa3>
    58f8: 86 6a        	stx	$6a                     ; 0x206a <main+0x1af4>
    58fa: 20 62 04     	jsr	$462 <_ZN12_GLOBAL__N_19FreeChunk6removeEv>
    58fd: a6 6a        	ldx	$6a                     ; 0x206a <main+0x1af4>
    58ff: 86 19        	stx	$19                     ; 0x2019 <main+0x1aa3>
    5901: a6 69        	ldx	$69                     ; 0x2069 <main+0x1af3>
    5903: 86 18        	stx	$18                     ; 0x2018 <main+0x1aa2>
    5905: a6 65        	ldx	$65                     ; 0x2065 <main+0x1aef>
    5907: 86 12        	stx	$12                     ; 0x2012 <main+0x1a9c>
    5909: a6 66        	ldx	$66                     ; 0x2066 <main+0x1af0>
    590b: 86 13        	stx	$13                     ; 0x2013 <main+0x1a9d>
    590d: 18           	clc
    590e: a5 6c        	lda	$6c                     ; 0x206c <main+0x1af6>
    5910: a6 68        	ldx	$68                     ; 0x2068 <main+0x1af2>
    5912: 86 14        	stx	$14                     ; 0x2014 <main+0x1a9e>
    5914: 65 14        	adc	$14                     ; 0x2014 <main+0x1a9e>
    5916: 85 17        	sta	$17                     ; 0x2017 <main+0x1aa1>
    5918: a5 6b        	lda	$6b                     ; 0x206b <main+0x1af5>
    591a: a6 67        	ldx	$67                     ; 0x2067 <main+0x1af1>
    591c: 86 14        	stx	$14                     ; 0x2014 <main+0x1a9e>
    591e: 65 14        	adc	$14                     ; 0x2014 <main+0x1a9e>
    5920: 85 16        	sta	$16                     ; 0x2016 <main+0x1aa0>
    5922: a2 00        	ldx	#$0
    5924: 86 14        	stx	$14                     ; 0x2014 <main+0x1a9e>
    5926: a2 00        	ldx	#$0
    5928: 86 15        	stx	$15                     ; 0x2015 <main+0x1a9f>
    592a: a6 13        	ldx	$13                     ; 0x2013 <main+0x1a9d>
    592c: e4 15        	cpx	$15                     ; 0x2015 <main+0x1a9f>
    592e: d0 0d        	bne	$593d <free+0x11b>
    5930: a6 12        	ldx	$12                     ; 0x2012 <main+0x1a9c>
    5932: e4 14        	cpx	$14                     ; 0x2014 <main+0x1a9e>
    5934: d0 07        	bne	$593d <free+0x11b>
    5936: a2 01        	ldx	#$1
    5938: 86 5e        	stx	$5e                     ; 0x205e <main+0x1ae8>
    593a: 4c 94 59     	jmp	$5994 <free+0x172>
    593d: a0 01        	ldy	#$1
    593f: b1 12        	lda	($12),y                 ; 0x2012 <main+0x1a9c>
    5941: a8           	tay
    5942: a9 fe        	lda	#$fe
    5944: 32 12        	and	($12)                   ; 0x2012 <main+0x1a9c>
    5946: 18           	clc
    5947: 85 69        	sta	$69                     ; 0x2069 <main+0x1af3>
    5949: 65 12        	adc	$12                     ; 0x2012 <main+0x1a9c>
    594b: 85 14        	sta	$14                     ; 0x2014 <main+0x1a9e>
    594d: 98           	tya
    594e: 85 65        	sta	$65                     ; 0x2065 <main+0x1aef>
    5950: 65 13        	adc	$13                     ; 0x2013 <main+0x1a9d>
    5952: c5 19        	cmp	$19                     ; 0x2019 <main+0x1aa3>
    5954: d0 0e        	bne	$5964 <free+0x142>
    5956: a6 14        	ldx	$14                     ; 0x2014 <main+0x1a9e>
    5958: e4 18        	cpx	$18                     ; 0x2018 <main+0x1aa2>
    595a: d0 08        	bne	$5964 <free+0x142>
    595c: a9 01        	lda	#$1
    595e: 64 14        	stz	$14                     ; 0x2014 <main+0x1a9e>
    5960: 25 5e        	and	$5e                     ; 0x205e <main+0x1ae8>
    5962: 80 08        	bra	$596c <free+0x14a>
    5964: 85 15        	sta	$15                     ; 0x2015 <main+0x1a9f>
    5966: a9 01        	lda	#$1
    5968: 32 14        	and	($14)                   ; 0x2014 <main+0x1a9e>
    596a: 64 14        	stz	$14                     ; 0x2014 <main+0x1a9e>
    596c: a6 14        	ldx	$14                     ; 0x2014 <main+0x1a9e>
    596e: d0 03        	bne	$5973 <free+0x151>
    5970: aa           	tax
    5971: f0 31        	beq	$59a4 <free+0x182>
    5973: a6 16        	ldx	$16                     ; 0x2016 <main+0x1aa0>
    5975: 86 67        	stx	$67                     ; 0x2067 <main+0x1af1>
    5977: a6 17        	ldx	$17                     ; 0x2017 <main+0x1aa1>
    5979: 86 68        	stx	$68                     ; 0x2068 <main+0x1af2>
    597b: 20 62 04     	jsr	$462 <_ZN12_GLOBAL__N_19FreeChunk6removeEv>
    597e: 18           	clc
    597f: a6 69        	ldx	$69                     ; 0x2069 <main+0x1af3>
    5981: 8a           	txa
    5982: a6 68        	ldx	$68                     ; 0x2068 <main+0x1af2>
    5984: 86 12        	stx	$12                     ; 0x2012 <main+0x1a9c>
    5986: 65 12        	adc	$12                     ; 0x2012 <main+0x1a9c>
    5988: 85 17        	sta	$17                     ; 0x2017 <main+0x1aa1>
    598a: a5 65        	lda	$65                     ; 0x2065 <main+0x1aef>
    598c: a6 67        	ldx	$67                     ; 0x2067 <main+0x1af1>
    598e: 86 12        	stx	$12                     ; 0x2012 <main+0x1a9c>
    5990: 65 12        	adc	$12                     ; 0x2012 <main+0x1a9c>
    5992: 85 16        	sta	$16                     ; 0x2016 <main+0x1aa0>
    5994: a6 63        	ldx	$63                     ; 0x2063 <main+0x1aed>
    5996: 86 12        	stx	$12                     ; 0x2012 <main+0x1a9c>
    5998: a6 64        	ldx	$64                     ; 0x2064 <main+0x1aee>
    599a: 86 13        	stx	$13                     ; 0x2013 <main+0x1a9d>
    599c: a6 16        	ldx	$16                     ; 0x2016 <main+0x1aa0>
    599e: a5 17        	lda	$17                     ; 0x2017 <main+0x1aa1>
    59a0: 20 2c 03     	jsr	$32c <_ZN12_GLOBAL__N_19FreeChunk6insertEPvj>
    59a3: 60           	rts
    59a4: b2 12        	lda	($12)                   ; 0x2012 <main+0x1a9c>
    59a6: 09 01        	ora	#$1
    59a8: 92 12        	sta	($12)                   ; 0x2012 <main+0x1a9c>
    59aa: a0 01        	ldy	#$1
    59ac: a5 65        	lda	$65                     ; 0x2065 <main+0x1aef>
    59ae: 91 12        	sta	($12),y                 ; 0x2012 <main+0x1a9c>
    59b0: 80 e2        	bra	$5994 <free+0x172>

000059b2 <memcpy>:
    59b2: a8           	tay
    59b3: 8a           	txa
    59b4: d0 03        	bne	$59b9 <memcpy+0x7>
    59b6: 98           	tya
    59b7: f0 24        	beq	$59dd <memcpy+0x2b>
    59b9: a5 12        	lda	$12                     ; 0x2012 <main+0x1a9c>
    59bb: 85 16        	sta	$16                     ; 0x2016 <main+0x1aa0>
    59bd: a5 13        	lda	$13                     ; 0x2013 <main+0x1a9d>
    59bf: 85 17        	sta	$17                     ; 0x2017 <main+0x1aa1>
    59c1: b2 14        	lda	($14)                   ; 0x2014 <main+0x1a9e>
    59c3: 92 16        	sta	($16)                   ; 0x2016 <main+0x1aa0>
    59c5: e6 16        	inc	$16                     ; 0x2016 <main+0x1aa0>
    59c7: d0 02        	bne	$59cb <memcpy+0x19>
    59c9: e6 17        	inc	$17                     ; 0x2017 <main+0x1aa1>
    59cb: e6 14        	inc	$14                     ; 0x2014 <main+0x1a9e>
    59cd: d0 02        	bne	$59d1 <memcpy+0x1f>
    59cf: e6 15        	inc	$15                     ; 0x2015 <main+0x1a9f>
    59d1: 88           	dey
    59d2: c0 ff        	cpy	#$ff
    59d4: d0 01        	bne	$59d7 <memcpy+0x25>
    59d6: ca           	dex
    59d7: 8a           	txa
    59d8: d0 e7        	bne	$59c1 <memcpy+0xf>
    59da: 98           	tya
    59db: d0 e4        	bne	$59c1 <memcpy+0xf>
    59dd: 60           	rts

000059de <__memset>:
    59de: a4 14        	ldy	$14                     ; 0x2014 <main+0x1a9e>
    59e0: d0 04        	bne	$59e6 <__memset+0x8>
    59e2: e0 00        	cpx	#$0
    59e4: f0 17        	beq	$59fd <__memset+0x1f>
    59e6: 92 12        	sta	($12)                   ; 0x2012 <main+0x1a9c>
    59e8: e6 12        	inc	$12                     ; 0x2012 <main+0x1a9c>
    59ea: d0 02        	bne	$59ee <__memset+0x10>
    59ec: e6 13        	inc	$13                     ; 0x2013 <main+0x1a9d>
    59ee: ca           	dex
    59ef: e0 ff        	cpx	#$ff
    59f1: d0 02        	bne	$59f5 <__memset+0x17>
    59f3: c6 14        	dec	$14                     ; 0x2014 <main+0x1a9e>
    59f5: a4 14        	ldy	$14                     ; 0x2014 <main+0x1a9e>
    59f7: d0 ed        	bne	$59e6 <__memset+0x8>
    59f9: e0 00        	cpx	#$0
    59fb: d0 e9        	bne	$59e6 <__memset+0x8>
    59fd: 60           	rts

000059fe <__mulhi3>:
    59fe: a4 13        	ldy	$13                     ; 0x2013 <main+0x1a9d>
    5a00: d0 04        	bne	$5a06 <__mulhi3+0x8>
    5a02: a4 12        	ldy	$12                     ; 0x2012 <main+0x1a9c>
    5a04: f0 25        	beq	$5a2b <__mulhi3+0x2d>
    5a06: 85 14        	sta	$14                     ; 0x2014 <main+0x1a9e>
    5a08: 86 15        	stx	$15                     ; 0x2015 <main+0x1a9f>
    5a0a: a0 00        	ldy	#$0
    5a0c: 98           	tya
    5a0d: 46 13        	lsr	$13                     ; 0x2013 <main+0x1a9d>
    5a0f: 66 12        	ror	$12                     ; 0x2012 <main+0x1a9c>
    5a11: 90 09        	bcc	$5a1c <__mulhi3+0x1e>
    5a13: aa           	tax
    5a14: 98           	tya
    5a15: 18           	clc
    5a16: 65 14        	adc	$14                     ; 0x2014 <main+0x1a9e>
    5a18: a8           	tay
    5a19: 8a           	txa
    5a1a: 65 15        	adc	$15                     ; 0x2015 <main+0x1a9f>
    5a1c: 06 14        	asl	$14                     ; 0x2014 <main+0x1a9e>
    5a1e: 26 15        	rol	$15                     ; 0x2015 <main+0x1a9f>
    5a20: a6 13        	ldx	$13                     ; 0x2013 <main+0x1a9d>
    5a22: d0 e9        	bne	$5a0d <__mulhi3+0xf>
    5a24: a6 12        	ldx	$12                     ; 0x2012 <main+0x1a9c>
    5a26: d0 e5        	bne	$5a0d <__mulhi3+0xf>
    5a28: aa           	tax
    5a29: 98           	tya
    5a2a: 60           	rts
    5a2b: a0 00        	ldy	#$0
    5a2d: 98           	tya
    5a2e: 80 f8        	bra	$5a28 <__mulhi3+0x2a>
