
f256amp.elf:	file format elf32-mos

SYMBOL TABLE:
00000000 l    df *ABS*	00000000 zero-bss.c
00000000 l    df *ABS*	00000000 zero-zp-bss.c
00000000 l    df *ABS*	00000000 copy-zp-data.c
00000000 l    df *ABS*	00000000 ld-temp.o
0000005f l     O .zp.bss	00000007 kernelEventData
00000030 l     O .zp.data	00000001 _ccolor
00007c34 l     O .rodata	00000030 textColors
00000044 l     O .zp.bss	00000001 _col
00000045 l     O .zp.bss	00000001 _row
00000046 l     O .zp.bss	00000004 _BITMAP_BASE.0
0000004a l     O .zp.bss	00000004 _BITMAP_BASE.1
0000004e l     O .zp.bss	00000004 _BITMAP_BASE.2
00000052 l     O .zp.bss	00000008 _dirStream
0000005e l     O .zp.bss	00000001 kernelError
000046ee l     F .text	0000025f colMatrixSetup
000079ab l     F .text	00000088 printf
000045c3 l     F .text	0000012b writeTopRight
00008098 l     O .bss	000011f6 fpr
0000928e l     O .bss	00000040 finalName
00007a33 l     F .text	000000da sprintf
00006114 l     F .text	0000085a readDirectory
00007b59 l     F .text	00000032 __mulhi3
00005d57 l     F .text	000003bd wipeArea
0000005c l     O .zp.bss	00000002 theMP3file
00000067 l     O .zp.bss	00000002 _ZN12_GLOBAL__N_19free_sizeE
000092ce l     O .bss	00000001 _ZN12_GLOBAL__N_111initializedE
00000069 l     O .zp.bss	00000002 _ZN12_GLOBAL__N_19free_listE
00000066 l     O .zp.bss	00000001 _ZN12_GLOBAL__N_19last_freeE
0000696e l     F .text	0000031d initVS1053Plugin
000059f9 l     F .text	0000035e displayFileList
00004dac l     F .text	00000c4d pickFile
0000494d l     F .text	0000036f textPrint
00004cbc l     F .text	00000011 textGotoXY
00004ccd l     F .text	000000df fileReadDir
00007f96 l     O .bss	00000102 fileReadDir.fileDirEntS
0000005a l     O .zp.bss	00000002 __putchar.s
00006c90 l     F .text	00000b34 _ZN12_GLOBAL__N_15printEPKcP6Status
000077c4 l     F .text	000000db _ZN12_GLOBAL__N_13putEcP6Status
0000789f l     F .text	0000010c _ZN12_GLOBAL__N_112print_stringEPKcP6Status
00000369 g     F .text	0000425a main
00056000 g       .patch	00000000 patch_start
00040d00 g       .mac	00000000 mac_end
00043400 g       .allo	00000000 allo_end
00058476 g       .patch	00000000 patch_end
00059000 g       .saplug	00000000 saplug_start
00020000 g       .mac	00000000 mac_start
00056000 g       .popo	00000000 popo_end
000597d0 g       .saplug	00000000 saplug_end
00043000 g       .allo	00000000 allo_start
00043400 g       .popo	00000000 popo_start
00000328 g       .text	00000000 __after_main
00000314 g       .text	00000000 __do_init_stack
00000322 g       .text	00000000 __do_copy_zp_data
00000352 g     F .text	00000017 __copy_zp_data
0000031c g       .text	00000000 __do_zero_bss
0000032c g     F .text	00000013 __zero_bss
0000031f g       .text	00000000 __do_zero_zp_bss
0000033f g     F .text	00000013 __zero_zp_bss
00006c8b g     F .text	00000005 exit
0000032b g       .text	00000000 _fini
00007b8b g       .rodata	00000000 __set_v
00007b39  w    F .text	00000020 __memset
00001000  w      *ABS*	00000000 __heap_default_limit
000092d0 g       .noinit	00000000 __heap_start
00007b0d  w    F .text	0000002c memcpy
00000010 g       *ABS*	00000000 __rc0
00000012 g       *ABS*	00000000 __rc2
00000014 g       *ABS*	00000000 __rc4
00000016 g       *ABS*	00000000 __rc6
00000018 g       *ABS*	00000000 __rc8
0000001a g       *ABS*	00000000 __rc10
0000001c g       *ABS*	00000000 __rc12
0000001e g       *ABS*	00000000 __rc14
00000020 g       *ABS*	00000000 __rc16
00000022 g       *ABS*	00000000 __rc18
00000024 g       *ABS*	00000000 __rc20
00000026 g       *ABS*	00000000 __rc22
00000028 g       *ABS*	00000000 __rc24
0000002a g       *ABS*	00000000 __rc26
0000002c g       *ABS*	00000000 __rc28
0000002e g       *ABS*	00000000 __rc30
0000002f g       *ABS*	00000000 __rc31
00000300 g       *ABS*	00000000 __f256_start
0000c000 g       *ABS*	00000000 __stack
0000c000 g       *ABS*	00000000 __SLOT_ADDR
0800c000 g       *ABS*	00000000 __block8_lma
00002000 g       *ABS*	00000000 __BLOCK_SIZE
0900c000 g       *ABS*	00000000 __block9_lma
0a00c000 g       *ABS*	00000000 __block10_lma
0b00c000 g       *ABS*	00000000 __block11_lma
0c00c000 g       *ABS*	00000000 __block12_lma
0d00c000 g       *ABS*	00000000 __block13_lma
0e00c000 g       *ABS*	00000000 __block14_lma
0f00c000 g       *ABS*	00000000 __block15_lma
1000c000 g       *ABS*	00000000 __block16_lma
1100c000 g       *ABS*	00000000 __block17_lma
1200c000 g       *ABS*	00000000 __block18_lma
1300c000 g       *ABS*	00000000 __block19_lma
1400c000 g       *ABS*	00000000 __block20_lma
1500c000 g       *ABS*	00000000 __block21_lma
1600c000 g       *ABS*	00000000 __block22_lma
1700c000 g       *ABS*	00000000 __block23_lma
00020000 g       *ABS*	00000000 __mac_lma
00020d00 g       *ABS*	00000000 __mac_size
00043000 g       *ABS*	00000000 __allo_lma
00000400 g       *ABS*	00000000 __allo_size
00043400 g       *ABS*	00000000 __popo_lma
00012c00 g       *ABS*	00000000 __popo_size
00056000 g       *ABS*	00000000 __patch_lma
00002476 g       *ABS*	00000000 __patch_size
00059000 g       *ABS*	00000000 __saplug_lma
000007d0 g       *ABS*	00000000 __saplug_size
00007f96 g       .bss	00000000 __bss_start
00040d00 g       .mac	00000000 end_mac
00043400 g       .allo	00000000 end_allo
00056000 g       .popo	00000000 end_popo
00058476 g       .patch	00000000 end_patch
000597d0 g       .saplug	00000000 end_saplug
00000314 g       .text	00000000 _start
0000002d g       *ABS*	00000000 __rc29
0000002b g       *ABS*	00000000 __rc27
00000029 g       *ABS*	00000000 __rc25
00000027 g       *ABS*	00000000 __rc23
00000025 g       *ABS*	00000000 __rc21
00000023 g       *ABS*	00000000 __rc19
00000021 g       *ABS*	00000000 __rc17
0000001f g       *ABS*	00000000 __rc15
0000001d g       *ABS*	00000000 __rc13
0000001b g       *ABS*	00000000 __rc11
00000019 g       *ABS*	00000000 __rc9
00000017 g       *ABS*	00000000 __rc7
00000015 g       *ABS*	00000000 __rc5
00000013 g       *ABS*	00000000 __rc3
00000011 g       *ABS*	00000000 __rc1
00000030 g       .zp.data	00000000 __zp_data_start
00000300 g       *ABS*	00000000 __zp_data_load_start
00000014 g       *ABS*	00000000 __zp_data_size
00000044 g       .zp.bss	00000000 __zp_bss_start
00000027 g       *ABS*	00000000 __zp_bss_size
00000314 g       .text	00000000 _init
00007b8b g       .text	00000000 __init_array_start
00007b8b g       .text	00000000 __init_array_end
00007b8b g       .text	00000000 __fini_array_start
00007b8b g       .text	00000000 __fini_array_end
00007f96 g       .data	00000000 __data_start
00007f96 g       .data	00000000 __data_end
00007f96 g       *ABS*	00000000 __data_load_start
00000000 g       *ABS*	00000000 __data_size
000092cf g       .bss	00000000 __bss_end
00001339 g       *ABS*	00000000 __bss_size
000092cf g       .noinit	00000000 end_block8
000092cf g       .noinit	00000000 end_block9
000092cf g       .noinit	00000000 end_block10
000092cf g       .noinit	00000000 end_block11
000092cf g       .noinit	00000000 end_block12
000092cf g       .noinit	00000000 end_block13
000092cf g       .noinit	00000000 end_block14
000092cf g       .noinit	00000000 end_block15
000092cf g       .noinit	00000000 end_block16
000092cf g       .noinit	00000000 end_block17
000092cf g       .noinit	00000000 end_block18
000092cf g       .noinit	00000000 end_block19
000092cf g       .noinit	00000000 end_block20
000092cf g       .noinit	00000000 end_block21
000092cf g       .noinit	00000000 end_block22
000092cf g       .noinit	00000000 end_block23

Disassembly of section .text:

00000314 <_start>:
     314: a9 00        	lda	#$0
     316: 85 10        	sta	$10                     ; 0x2010 <main+0x1ca7>
     318: a9 c0        	lda	#$c0
     31a: 85 11        	sta	$11                     ; 0x2011 <main+0x1ca8>

0000031c <__do_zero_bss>:
     31c: 20 2c 03     	jsr	$32c <__zero_bss>

0000031f <__do_zero_zp_bss>:
     31f: 20 3f 03     	jsr	$33f <__zero_zp_bss>

00000322 <__do_copy_zp_data>:
     322: 20 52 03     	jsr	$352 <__copy_zp_data>
     325: 20 69 03     	jsr	$369 <main>

00000328 <__after_main>:
     328: 4c 8b 6c     	jmp	$6c8b <exit>

0000032b <_fini>:
     32b: 60           	rts

0000032c <__zero_bss>:
     32c: a2 39        	ldx	#$39
     32e: a0 13        	ldy	#$13
     330: a9 96        	lda	#$96
     332: 85 12        	sta	$12                     ; 0x2012 <main+0x1ca9>
     334: a9 7f        	lda	#$7f
     336: 85 13        	sta	$13                     ; 0x2013 <main+0x1caa>
     338: a9 00        	lda	#$0
     33a: 84 14        	sty	$14                     ; 0x2014 <main+0x1cab>
     33c: 4c 39 7b     	jmp	$7b39 <__memset>

0000033f <__zero_zp_bss>:
     33f: a2 27        	ldx	#$27
     341: a0 00        	ldy	#$0
     343: a9 44        	lda	#$44
     345: 85 12        	sta	$12                     ; 0x2012 <main+0x1ca9>
     347: a9 00        	lda	#$0
     349: 85 13        	sta	$13                     ; 0x2013 <main+0x1caa>
     34b: a9 00        	lda	#$0
     34d: 84 14        	sty	$14                     ; 0x2014 <main+0x1cab>
     34f: 4c 39 7b     	jmp	$7b39 <__memset>

00000352 <__copy_zp_data>:
     352: a9 14        	lda	#$14
     354: a2 00        	ldx	#$0
     356: a0 30        	ldy	#$30
     358: 84 12        	sty	$12                     ; 0x2012 <main+0x1ca9>
     35a: a0 00        	ldy	#$0
     35c: 84 13        	sty	$13                     ; 0x2013 <main+0x1caa>
     35e: a0 00        	ldy	#$0
     360: 84 14        	sty	$14                     ; 0x2014 <main+0x1cab>
     362: a0 03        	ldy	#$3
     364: 84 15        	sty	$15                     ; 0x2015 <main+0x1cac>
     366: 4c 0d 7b     	jmp	$7b0d <memcpy>

00000369 <main>:
     369: 18           	clc
     36a: a5 10        	lda	$10                     ; 0x2010 <main+0x1ca7>
     36c: 69 08        	adc	#$8
     36e: 85 10        	sta	$10                     ; 0x2010 <main+0x1ca7>
     370: a5 11        	lda	$11                     ; 0x2011 <main+0x1ca8>
     372: 69 df        	adc	#$df
     374: 85 11        	sta	$11                     ; 0x2011 <main+0x1ca8>
     376: a6 24        	ldx	$24                     ; 0x2024 <main+0x1cbb>
     378: da           	phx
     379: a6 25        	ldx	$25                     ; 0x2025 <main+0x1cbc>
     37b: da           	phx
     37c: a6 26        	ldx	$26                     ; 0x2026 <main+0x1cbd>
     37e: da           	phx
     37f: a6 27        	ldx	$27                     ; 0x2027 <main+0x1cbe>
     381: da           	phx
     382: a5 28        	lda	$28                     ; 0x2028 <main+0x1cbf>
     384: a0 0d        	ldy	#$d
     386: 91 10        	sta	($10),y                 ; 0x2010 <main+0x1ca7>
     388: a5 29        	lda	$29                     ; 0x2029 <main+0x1cc0>
     38a: 88           	dey
     38b: 91 10        	sta	($10),y                 ; 0x2010 <main+0x1ca7>
     38d: a5 2a        	lda	$2a                     ; 0x202a <main+0x1cc1>
     38f: 88           	dey
     390: 91 10        	sta	($10),y                 ; 0x2010 <main+0x1ca7>
     392: a5 2b        	lda	$2b                     ; 0x202b <main+0x1cc2>
     394: 88           	dey
     395: 91 10        	sta	($10),y                 ; 0x2010 <main+0x1ca7>
     397: a5 2c        	lda	$2c                     ; 0x202c <main+0x1cc3>
     399: 88           	dey
     39a: 91 10        	sta	($10),y                 ; 0x2010 <main+0x1ca7>
     39c: a5 2d        	lda	$2d                     ; 0x202d <main+0x1cc4>
     39e: 88           	dey
     39f: 91 10        	sta	($10),y                 ; 0x2010 <main+0x1ca7>
     3a1: a5 2e        	lda	$2e                     ; 0x202e <main+0x1cc5>
     3a3: 88           	dey
     3a4: 91 10        	sta	($10),y                 ; 0x2010 <main+0x1ca7>
     3a6: a5 2f        	lda	$2f                     ; 0x202f <main+0x1cc6>
     3a8: 88           	dey
     3a9: 91 10        	sta	($10),y                 ; 0x2010 <main+0x1ca7>
     3ab: a2 00        	ldx	#$0
     3ad: 86 18        	stx	$18                     ; 0x2018 <main+0x1caf>
     3af: a2 d0        	ldx	#$d0
     3b1: 86 19        	stx	$19                     ; 0x2019 <main+0x1cb0>
     3b3: a2 00        	ldx	#$0
     3b5: 86 14        	stx	$14                     ; 0x2014 <main+0x1cab>
     3b7: a2 d8        	ldx	#$d8
     3b9: 86 15        	stx	$15                     ; 0x2015 <main+0x1cac>
     3bb: a2 00        	ldx	#$0
     3bd: a0 10        	ldy	#$10
     3bf: a9 d0        	lda	#$d0
     3c1: 86 12        	stx	$12                     ; 0x2012 <main+0x1ca9>
     3c3: 84 13        	sty	$13                     ; 0x2013 <main+0x1caa>
     3c5: 18           	clc
     3c6: 65 12        	adc	$12                     ; 0x2012 <main+0x1ca9>
     3c8: a0 13        	ldy	#$13
     3ca: 91 10        	sta	($10),y                 ; 0x2010 <main+0x1ca7>
     3cc: a9 92        	lda	#$92
     3ce: 65 13        	adc	$13                     ; 0x2013 <main+0x1caa>
     3d0: a0 18        	ldy	#$18
     3d2: 91 10        	sta	($10),y                 ; 0x2010 <main+0x1ca7>
     3d4: 64 01        	stz	$1                      ; 0x2001 <main+0x1c98>
     3d6: a2 3f        	ldx	#$3f
     3d8: 8e 00 d0     	stx	$d000                   ; 0xd000 <__heap_start+0x3d30>
     3db: a2 b3        	ldx	#$b3
     3dd: 86 00        	stx	$0                      ; 0x2000 <main+0x1c97>
     3df: 64 08        	stz	$8                      ; 0x2008 <main+0x1c9f>
     3e1: a2 01        	ldx	#$1
     3e3: 86 09        	stx	$9                      ; 0x2009 <main+0x1ca0>
     3e5: e8           	inx
     3e6: 86 0a        	stx	$a                      ; 0x200a <main+0x1ca1>
     3e8: e8           	inx
     3e9: 86 0b        	stx	$b                      ; 0x200b <main+0x1ca2>
     3eb: e8           	inx
     3ec: 86 0c        	stx	$c                      ; 0x200c <main+0x1ca3>
     3ee: e8           	inx
     3ef: 86 0d        	stx	$d                      ; 0x200d <main+0x1ca4>
     3f1: a2 5f        	ldx	#$5f
     3f3: 86 f0        	stx	$f0                     ; 0x20f0 <main+0x1d87>
     3f5: a2 00        	ldx	#$0
     3f7: 86 f1        	stx	$f1                     ; 0x20f1 <main+0x1d88>
     3f9: a2 00        	ldx	#$0
     3fb: 86 1a        	stx	$1a                     ; 0x201a <main+0x1cb1>
     3fd: a2 d4        	ldx	#$d4
     3ff: 86 1b        	stx	$1b                     ; 0x201b <main+0x1cb2>
     401: a2 00        	ldx	#$0
     403: 86 16        	stx	$16                     ; 0x2016 <main+0x1cad>
     405: a2 dc        	ldx	#$dc
     407: 86 17        	stx	$17                     ; 0x2017 <main+0x1cae>
     409: a2 00        	ldx	#$0
     40b: 86 12        	stx	$12                     ; 0x2012 <main+0x1ca9>
     40d: a2 c0        	ldx	#$c0
     40f: 86 13        	stx	$13                     ; 0x2013 <main+0x1caa>
     411: 64 1c        	stz	$1c                     ; 0x201c <main+0x1cb3>
     413: a9 00        	lda	#$0
     415: a0 3c        	ldy	#$3c
     417: 91 10        	sta	($10),y                 ; 0x2010 <main+0x1ca7>
     419: a9 00        	lda	#$0
     41b: a6 01        	ldx	$1                      ; 0x2001 <main+0x1c98>
     41d: a0 01        	ldy	#$1
     41f: 84 01        	sty	$1                      ; 0x2001 <main+0x1c98>
     421: 92 18        	sta	($18)                   ; 0x2018 <main+0x1caf>
     423: 91 18        	sta	($18),y                 ; 0x2018 <main+0x1caf>
     425: c8           	iny
     426: 91 18        	sta	($18),y                 ; 0x2018 <main+0x1caf>
     428: c8           	iny
     429: 85 1c        	sta	$1c                     ; 0x201c <main+0x1cb3>
     42b: a9 ff        	lda	#$ff
     42d: 91 18        	sta	($18),y                 ; 0x2018 <main+0x1caf>
     42f: 86 01        	stx	$1                      ; 0x2001 <main+0x1c98>
     431: a5 18        	lda	$18                     ; 0x2018 <main+0x1caf>
     433: 18           	clc
     434: 69 04        	adc	#$4
     436: 85 18        	sta	$18                     ; 0x2018 <main+0x1caf>
     438: a5 19        	lda	$19                     ; 0x2019 <main+0x1cb0>
     43a: 69 00        	adc	#$0
     43c: e6 1c        	inc	$1c                     ; 0x201c <main+0x1cb3>
     43e: 85 19        	sta	$19                     ; 0x2019 <main+0x1cb0>
     440: a5 1c        	lda	$1c                     ; 0x201c <main+0x1cb3>
     442: d0 d7        	bne	$41b <main+0xb2>
     444: a9 00        	lda	#$0
     446: a6 01        	ldx	$1                      ; 0x2001 <main+0x1c98>
     448: a0 01        	ldy	#$1
     44a: 84 01        	sty	$1                      ; 0x2001 <main+0x1c98>
     44c: 92 1a        	sta	($1a)                   ; 0x201a <main+0x1cb1>
     44e: 91 1a        	sta	($1a),y                 ; 0x201a <main+0x1cb1>
     450: c8           	iny
     451: 91 1a        	sta	($1a),y                 ; 0x201a <main+0x1cb1>
     453: c8           	iny
     454: 85 18        	sta	$18                     ; 0x2018 <main+0x1caf>
     456: a9 ff        	lda	#$ff
     458: 91 1a        	sta	($1a),y                 ; 0x201a <main+0x1cb1>
     45a: 86 01        	stx	$1                      ; 0x2001 <main+0x1c98>
     45c: a5 1a        	lda	$1a                     ; 0x201a <main+0x1cb1>
     45e: 18           	clc
     45f: 69 04        	adc	#$4
     461: 85 1a        	sta	$1a                     ; 0x201a <main+0x1cb1>
     463: a5 1b        	lda	$1b                     ; 0x201b <main+0x1cb2>
     465: 69 00        	adc	#$0
     467: e6 18        	inc	$18                     ; 0x2018 <main+0x1caf>
     469: 85 1b        	sta	$1b                     ; 0x201b <main+0x1cb2>
     46b: a5 18        	lda	$18                     ; 0x2018 <main+0x1caf>
     46d: d0 d7        	bne	$446 <main+0xdd>
     46f: a9 00        	lda	#$0
     471: a6 01        	ldx	$1                      ; 0x2001 <main+0x1c98>
     473: a0 01        	ldy	#$1
     475: 84 01        	sty	$1                      ; 0x2001 <main+0x1c98>
     477: 92 14        	sta	($14)                   ; 0x2014 <main+0x1cab>
     479: 91 14        	sta	($14),y                 ; 0x2014 <main+0x1cab>
     47b: c8           	iny
     47c: 91 14        	sta	($14),y                 ; 0x2014 <main+0x1cab>
     47e: c8           	iny
     47f: 85 18        	sta	$18                     ; 0x2018 <main+0x1caf>
     481: a9 ff        	lda	#$ff
     483: 91 14        	sta	($14),y                 ; 0x2014 <main+0x1cab>
     485: 86 01        	stx	$1                      ; 0x2001 <main+0x1c98>
     487: a5 14        	lda	$14                     ; 0x2014 <main+0x1cab>
     489: 18           	clc
     48a: 69 04        	adc	#$4
     48c: 85 14        	sta	$14                     ; 0x2014 <main+0x1cab>
     48e: a5 15        	lda	$15                     ; 0x2015 <main+0x1cac>
     490: 69 00        	adc	#$0
     492: e6 18        	inc	$18                     ; 0x2018 <main+0x1caf>
     494: 85 15        	sta	$15                     ; 0x2015 <main+0x1cac>
     496: a5 18        	lda	$18                     ; 0x2018 <main+0x1caf>
     498: d0 d7        	bne	$471 <main+0x108>
     49a: a9 00        	lda	#$0
     49c: a6 01        	ldx	$1                      ; 0x2001 <main+0x1c98>
     49e: a0 01        	ldy	#$1
     4a0: 84 01        	sty	$1                      ; 0x2001 <main+0x1c98>
     4a2: 92 16        	sta	($16)                   ; 0x2016 <main+0x1cad>
     4a4: 91 16        	sta	($16),y                 ; 0x2016 <main+0x1cad>
     4a6: c8           	iny
     4a7: 91 16        	sta	($16),y                 ; 0x2016 <main+0x1cad>
     4a9: c8           	iny
     4aa: 85 14        	sta	$14                     ; 0x2014 <main+0x1cab>
     4ac: a9 ff        	lda	#$ff
     4ae: 91 16        	sta	($16),y                 ; 0x2016 <main+0x1cad>
     4b0: 86 01        	stx	$1                      ; 0x2001 <main+0x1c98>
     4b2: a5 16        	lda	$16                     ; 0x2016 <main+0x1cad>
     4b4: 18           	clc
     4b5: 69 04        	adc	#$4
     4b7: 85 16        	sta	$16                     ; 0x2016 <main+0x1cad>
     4b9: a5 17        	lda	$17                     ; 0x2017 <main+0x1cae>
     4bb: 69 00        	adc	#$0
     4bd: e6 14        	inc	$14                     ; 0x2014 <main+0x1cab>
     4bf: 85 17        	sta	$17                     ; 0x2017 <main+0x1cae>
     4c1: a5 14        	lda	$14                     ; 0x2014 <main+0x1cab>
     4c3: d0 d7        	bne	$49c <main+0x133>
     4c5: ad 02 d0     	lda	$d002                   ; 0xd002 <__heap_start+0x3d32>
     4c8: a2 f0        	ldx	#$f0
     4ca: 29 f0        	and	#$f0
     4cc: 8d 02 d0     	sta	$d002                   ; 0xd002 <__heap_start+0x3d32>
     4cf: ad 02 d0     	lda	$d002                   ; 0xd002 <__heap_start+0x3d32>
     4d2: 29 0f        	and	#$f
     4d4: 09 10        	ora	#$10
     4d6: 8d 02 d0     	sta	$d002                   ; 0xd002 <__heap_start+0x3d32>
     4d9: a0 02        	ldy	#$2
     4db: 8c 03 d0     	sty	$d003                   ; 0xd003 <__heap_start+0x3d33>
     4de: 86 30        	stx	$30                     ; 0x2030 <main+0x1cc7>
     4e0: ad 01 d0     	lda	$d001                   ; 0xd001 <__heap_start+0x3d31>
     4e3: 29 f9        	and	#$f9
     4e5: 09 04        	ora	#$4
     4e7: 8d 01 d0     	sta	$d001                   ; 0xd001 <__heap_start+0x3d31>
     4ea: 64 14        	stz	$14                     ; 0x2014 <main+0x1cab>
     4ec: 9c 10 d0     	stz	$d010                   ; 0xd010 <__heap_start+0x3d40>
     4ef: a2 00        	ldx	#$0
     4f1: 64 15        	stz	$15                     ; 0x2015 <main+0x1cac>
     4f3: 86 18        	stx	$18                     ; 0x2018 <main+0x1caf>
     4f5: a4 18        	ldy	$18                     ; 0x2018 <main+0x1caf>
     4f7: be 34 7c     	ldx	$7c34,y                 ; 0x7c34 <textColors>
     4fa: 86 19        	stx	$19                     ; 0x2019 <main+0x1cb0>
     4fc: be 35 7c     	ldx	$7c35,y                 ; 0x7c35 <textColors+0x1>
     4ff: 86 1a        	stx	$1a                     ; 0x201a <main+0x1cb1>
     501: be 36 7c     	ldx	$7c36,y                 ; 0x7c36 <textColors+0x2>
     504: 86 1b        	stx	$1b                     ; 0x201b <main+0x1cb2>
     506: a6 15        	ldx	$15                     ; 0x2015 <main+0x1cac>
     508: 8e 00 de     	stx	$de00                   ; 0xde00 <__heap_start+0x4b30>
     50b: 86 17        	stx	$17                     ; 0x2017 <main+0x1cae>
     50d: 9c 01 de     	stz	$de01                   ; 0xde01 <__heap_start+0x4b31>
     510: a2 04        	ldx	#$4
     512: 8e 02 de     	stx	$de02                   ; 0xde02 <__heap_start+0x4b32>
     515: 9c 03 de     	stz	$de03                   ; 0xde03 <__heap_start+0x4b33>
     518: ad 10 de     	lda	$de10                   ; 0xde10 <__heap_start+0x4b40>
     51b: ac 11 de     	ldy	$de11                   ; 0xde11 <__heap_start+0x4b41>
     51e: 84 15        	sty	$15                     ; 0x2015 <main+0x1cac>
     520: ac 12 de     	ldy	$de12                   ; 0xde12 <__heap_start+0x4b42>
     523: ac 13 de     	ldy	$de13                   ; 0xde13 <__heap_start+0x4b43>
     526: 18           	clc
     527: 65 14        	adc	$14                     ; 0x2014 <main+0x1cab>
     529: 85 16        	sta	$16                     ; 0x2016 <main+0x1cad>
     52b: a6 17        	ldx	$17                     ; 0x2017 <main+0x1cae>
     52d: a9 d8        	lda	#$d8
     52f: 65 15        	adc	$15                     ; 0x2015 <main+0x1cac>
     531: 85 17        	sta	$17                     ; 0x2017 <main+0x1cae>
     533: a5 1b        	lda	$1b                     ; 0x201b <main+0x1cb2>
     535: 92 16        	sta	($16)                   ; 0x2016 <main+0x1cad>
     537: a0 01        	ldy	#$1
     539: a5 1a        	lda	$1a                     ; 0x201a <main+0x1cb1>
     53b: 91 16        	sta	($16),y                 ; 0x2016 <main+0x1cad>
     53d: c8           	iny
     53e: a5 19        	lda	$19                     ; 0x2019 <main+0x1cb0>
     540: 91 16        	sta	($16),y                 ; 0x2016 <main+0x1cad>
     542: c8           	iny
     543: a9 ff        	lda	#$ff
     545: 91 16        	sta	($16),y                 ; 0x2016 <main+0x1cad>
     547: 8e 00 de     	stx	$de00                   ; 0xde00 <__heap_start+0x4b30>
     54a: 9c 01 de     	stz	$de01                   ; 0xde01 <__heap_start+0x4b31>
     54d: c8           	iny
     54e: 8c 02 de     	sty	$de02                   ; 0xde02 <__heap_start+0x4b32>
     551: 9c 03 de     	stz	$de03                   ; 0xde03 <__heap_start+0x4b33>
     554: ad 10 de     	lda	$de10                   ; 0xde10 <__heap_start+0x4b40>
     557: 85 15        	sta	$15                     ; 0x2015 <main+0x1cac>
     559: ad 11 de     	lda	$de11                   ; 0xde11 <__heap_start+0x4b41>
     55c: 85 16        	sta	$16                     ; 0x2016 <main+0x1cad>
     55e: a9 40        	lda	#$40
     560: 18           	clc
     561: 65 15        	adc	$15                     ; 0x2015 <main+0x1cac>
     563: a8           	tay
     564: a9 d8        	lda	#$d8
     566: 65 16        	adc	$16                     ; 0x2016 <main+0x1cad>
     568: 85 17        	sta	$17                     ; 0x2017 <main+0x1cae>
     56a: 84 16        	sty	$16                     ; 0x2016 <main+0x1cad>
     56c: ad 12 de     	lda	$de12                   ; 0xde12 <__heap_start+0x4b42>
     56f: ad 13 de     	lda	$de13                   ; 0xde13 <__heap_start+0x4b43>
     572: a5 1b        	lda	$1b                     ; 0x201b <main+0x1cb2>
     574: 92 16        	sta	($16)                   ; 0x2016 <main+0x1cad>
     576: a5 1a        	lda	$1a                     ; 0x201a <main+0x1cb1>
     578: a0 01        	ldy	#$1
     57a: 91 16        	sta	($16),y                 ; 0x2016 <main+0x1cad>
     57c: a5 19        	lda	$19                     ; 0x2019 <main+0x1cb0>
     57e: c8           	iny
     57f: 91 16        	sta	($16),y                 ; 0x2016 <main+0x1cad>
     581: c8           	iny
     582: a9 ff        	lda	#$ff
     584: 91 16        	sta	($16),y                 ; 0x2016 <main+0x1cad>
     586: e8           	inx
     587: 86 15        	stx	$15                     ; 0x2015 <main+0x1cac>
     589: 18           	clc
     58a: a5 18        	lda	$18                     ; 0x2018 <main+0x1caf>
     58c: 69 03        	adc	#$3
     58e: aa           	tax
     58f: c9 30        	cmp	#$30
     591: f0 03        	beq	$596 <main+0x22d>
     593: 4c f3 04     	jmp	$4f3 <main+0x18a>
     596: a6 01        	ldx	$1                      ; 0x2001 <main+0x1c98>
     598: 86 18        	stx	$18                     ; 0x2018 <main+0x1caf>
     59a: a2 50        	ldx	#$50
     59c: 8e 00 de     	stx	$de00                   ; 0xde00 <__heap_start+0x4b30>
     59f: 9c 01 de     	stz	$de01                   ; 0xde01 <__heap_start+0x4b31>
     5a2: a2 1e        	ldx	#$1e
     5a4: 8e 02 de     	stx	$de02                   ; 0xde02 <__heap_start+0x4b32>
     5a7: 9c 03 de     	stz	$de03                   ; 0xde03 <__heap_start+0x4b33>
     5aa: ae 10 de     	ldx	$de10                   ; 0xde10 <__heap_start+0x4b40>
     5ad: ac 11 de     	ldy	$de11                   ; 0xde11 <__heap_start+0x4b41>
     5b0: ad 12 de     	lda	$de12                   ; 0xde12 <__heap_start+0x4b42>
     5b3: ad 13 de     	lda	$de13                   ; 0xde13 <__heap_start+0x4b43>
     5b6: a9 02        	lda	#$2
     5b8: 85 01        	sta	$1                      ; 0x2001 <main+0x1c98>
     5ba: e0 01        	cpx	#$1
     5bc: 98           	tya
     5bd: e9 00        	sbc	#$0
     5bf: 50 02        	bvc	$5c3 <main+0x25a>
     5c1: 49 80        	eor	#$80
     5c3: c9 00        	cmp	#$0
     5c5: 10 03        	bpl	$5ca <main+0x261>
     5c7: 4c 25 06     	jmp	$625 <main+0x2bc>
     5ca: a9 20        	lda	#$20
     5cc: 86 19        	stx	$19                     ; 0x2019 <main+0x1cb0>
     5ce: 86 14        	stx	$14                     ; 0x2014 <main+0x1cab>
     5d0: 84 15        	sty	$15                     ; 0x2015 <main+0x1cac>
     5d2: a2 00        	ldx	#$0
     5d4: 86 16        	stx	$16                     ; 0x2016 <main+0x1cad>
     5d6: a2 c0        	ldx	#$c0
     5d8: 86 17        	stx	$17                     ; 0x2017 <main+0x1cae>
     5da: 80 04        	bra	$5e0 <main+0x277>
     5dc: a6 15        	ldx	$15                     ; 0x2015 <main+0x1cac>
     5de: f0 14        	beq	$5f4 <main+0x28b>
     5e0: 92 16        	sta	($16)                   ; 0x2016 <main+0x1cad>
     5e2: e6 16        	inc	$16                     ; 0x2016 <main+0x1cad>
     5e4: d0 02        	bne	$5e8 <main+0x27f>
     5e6: e6 17        	inc	$17                     ; 0x2017 <main+0x1cae>
     5e8: a2 ff        	ldx	#$ff
     5ea: c6 14        	dec	$14                     ; 0x2014 <main+0x1cab>
     5ec: e4 14        	cpx	$14                     ; 0x2014 <main+0x1cab>
     5ee: d0 ec        	bne	$5dc <main+0x273>
     5f0: c6 15        	dec	$15                     ; 0x2015 <main+0x1cac>
     5f2: 80 e8        	bra	$5dc <main+0x273>
     5f4: a6 14        	ldx	$14                     ; 0x2014 <main+0x1cab>
     5f6: d0 e8        	bne	$5e0 <main+0x277>
     5f8: a2 03        	ldx	#$3
     5fa: 86 01        	stx	$1                      ; 0x2001 <main+0x1c98>
     5fc: a6 30        	ldx	$30                     ; 0x2030 <main+0x1cc7>
     5fe: 86 14        	stx	$14                     ; 0x2014 <main+0x1cab>
     600: a6 19        	ldx	$19                     ; 0x2019 <main+0x1cb0>
     602: 80 03        	bra	$607 <main+0x29e>
     604: 98           	tya
     605: f0 19        	beq	$620 <main+0x2b7>
     607: a5 14        	lda	$14                     ; 0x2014 <main+0x1cab>
     609: 92 12        	sta	($12)                   ; 0x2012 <main+0x1ca9>
     60b: e6 12        	inc	$12                     ; 0x2012 <main+0x1ca9>
     60d: f0 07        	beq	$616 <main+0x2ad>
     60f: ca           	dex
     610: e0 ff        	cpx	#$ff
     612: d0 f0        	bne	$604 <main+0x29b>
     614: 80 07        	bra	$61d <main+0x2b4>
     616: e6 13        	inc	$13                     ; 0x2013 <main+0x1caa>
     618: ca           	dex
     619: e0 ff        	cpx	#$ff
     61b: d0 e7        	bne	$604 <main+0x29b>
     61d: 88           	dey
     61e: 80 e4        	bra	$604 <main+0x29b>
     620: 8a           	txa
     621: d0 e4        	bne	$607 <main+0x29e>
     623: 80 04        	bra	$629 <main+0x2c0>
     625: a2 03        	ldx	#$3
     627: 86 01        	stx	$1                      ; 0x2001 <main+0x1c98>
     629: a6 18        	ldx	$18                     ; 0x2018 <main+0x1caf>
     62b: 86 01        	stx	$1                      ; 0x2001 <main+0x1c98>
     62d: 64 44        	stz	$44                     ; 0x2044 <main+0x1cdb>
     62f: 9c 14 d0     	stz	$d014                   ; 0xd014 <__heap_start+0x3d44>
     632: 9c 15 d0     	stz	$d015                   ; 0xd015 <__heap_start+0x3d45>
     635: 64 45        	stz	$45                     ; 0x2045 <main+0x1cdc>
     637: 9c 16 d0     	stz	$d016                   ; 0xd016 <__heap_start+0x3d46>
     63a: 9c 17 d0     	stz	$d017                   ; 0xd017 <__heap_start+0x3d47>
     63d: a2 40        	ldx	#$40
     63f: 8e 00 de     	stx	$de00                   ; 0xde00 <__heap_start+0x4b30>
     642: a2 01        	ldx	#$1
     644: 8e 01 de     	stx	$de01                   ; 0xde01 <__heap_start+0x4b31>
     647: a2 f0        	ldx	#$f0
     649: 8e 02 de     	stx	$de02                   ; 0xde02 <__heap_start+0x4b32>
     64c: 9c 03 de     	stz	$de03                   ; 0xde03 <__heap_start+0x4b33>
     64f: ae 10 de     	ldx	$de10                   ; 0xde10 <__heap_start+0x4b40>
     652: 86 17        	stx	$17                     ; 0x2017 <main+0x1cae>
     654: ae 11 de     	ldx	$de11                   ; 0xde11 <__heap_start+0x4b41>
     657: 86 12        	stx	$12                     ; 0x2012 <main+0x1ca9>
     659: ae 12 de     	ldx	$de12                   ; 0xde12 <__heap_start+0x4b42>
     65c: 86 13        	stx	$13                     ; 0x2013 <main+0x1caa>
     65e: ae 13 de     	ldx	$de13                   ; 0xde13 <__heap_start+0x4b43>
     661: 86 14        	stx	$14                     ; 0x2014 <main+0x1cab>
     663: a4 12        	ldy	$12                     ; 0x2012 <main+0x1ca9>
     665: 84 15        	sty	$15                     ; 0x2015 <main+0x1cac>
     667: 06 15        	asl	$15                     ; 0x2015 <main+0x1cac>
     669: a5 13        	lda	$13                     ; 0x2013 <main+0x1caa>
     66b: 2a           	rol
     66c: 86 16        	stx	$16                     ; 0x2016 <main+0x1cad>
     66e: 26 16        	rol	$16                     ; 0x2016 <main+0x1cad>
     670: 06 15        	asl	$15                     ; 0x2015 <main+0x1cac>
     672: 2a           	rol
     673: 26 16        	rol	$16                     ; 0x2016 <main+0x1cad>
     675: 06 15        	asl	$15                     ; 0x2015 <main+0x1cac>
     677: 2a           	rol
     678: 26 16        	rol	$16                     ; 0x2016 <main+0x1cad>
     67a: 85 15        	sta	$15                     ; 0x2015 <main+0x1cac>
     67c: 8d 00 de     	sta	$de00                   ; 0xde00 <__heap_start+0x4b30>
     67f: a5 16        	lda	$16                     ; 0x2016 <main+0x1cad>
     681: 8d 01 de     	sta	$de01                   ; 0xde01 <__heap_start+0x4b31>
     684: 9c 02 de     	stz	$de02                   ; 0xde02 <__heap_start+0x4b32>
     687: a2 20        	ldx	#$20
     689: 8e 03 de     	stx	$de03                   ; 0xde03 <__heap_start+0x4b33>
     68c: ae 10 de     	ldx	$de10                   ; 0xde10 <__heap_start+0x4b40>
     68f: 86 16        	stx	$16                     ; 0x2016 <main+0x1cad>
     691: ae 11 de     	ldx	$de11                   ; 0xde11 <__heap_start+0x4b41>
     694: 86 18        	stx	$18                     ; 0x2018 <main+0x1caf>
     696: ac 12 de     	ldy	$de12                   ; 0xde12 <__heap_start+0x4b42>
     699: ae 13 de     	ldx	$de13                   ; 0xde13 <__heap_start+0x4b43>
     69c: e4 14        	cpx	$14                     ; 0x2014 <main+0x1cab>
     69e: d0 14        	bne	$6b4 <main+0x34b>
     6a0: c4 13        	cpy	$13                     ; 0x2013 <main+0x1caa>
     6a2: d0 10        	bne	$6b4 <main+0x34b>
     6a4: a6 18        	ldx	$18                     ; 0x2018 <main+0x1caf>
     6a6: e4 12        	cpx	$12                     ; 0x2012 <main+0x1ca9>
     6a8: d0 0a        	bne	$6b4 <main+0x34b>
     6aa: a6 16        	ldx	$16                     ; 0x2016 <main+0x1cad>
     6ac: e4 17        	cpx	$17                     ; 0x2017 <main+0x1cae>
     6ae: d0 04        	bne	$6b4 <main+0x34b>
     6b0: a6 15        	ldx	$15                     ; 0x2015 <main+0x1cac>
     6b2: 80 06        	bra	$6ba <main+0x351>
     6b4: a6 15        	ldx	$15                     ; 0x2015 <main+0x1cac>
     6b6: e8           	inx
     6b7: d0 01        	bne	$6ba <main+0x351>
     6b9: 1a           	inc
     6ba: 8e 00 de     	stx	$de00                   ; 0xde00 <__heap_start+0x4b30>
     6bd: 8d 01 de     	sta	$de01                   ; 0xde01 <__heap_start+0x4b31>
     6c0: 9c 02 de     	stz	$de02                   ; 0xde02 <__heap_start+0x4b32>
     6c3: a2 20        	ldx	#$20
     6c5: 8e 03 de     	stx	$de03                   ; 0xde03 <__heap_start+0x4b33>
     6c8: ae 10 de     	ldx	$de10                   ; 0xde10 <__heap_start+0x4b40>
     6cb: 86 12        	stx	$12                     ; 0x2012 <main+0x1ca9>
     6cd: ae 11 de     	ldx	$de11                   ; 0xde11 <__heap_start+0x4b41>
     6d0: 86 13        	stx	$13                     ; 0x2013 <main+0x1caa>
     6d2: ae 12 de     	ldx	$de12                   ; 0xde12 <__heap_start+0x4b42>
     6d5: 86 14        	stx	$14                     ; 0x2014 <main+0x1cab>
     6d7: ae 13 de     	ldx	$de13                   ; 0xde13 <__heap_start+0x4b43>
     6da: 86 15        	stx	$15                     ; 0x2015 <main+0x1cac>
     6dc: a9 00        	lda	#$0
     6de: 38           	sec
     6df: e5 12        	sbc	$12                     ; 0x2012 <main+0x1ca9>
     6e1: 85 19        	sta	$19                     ; 0x2019 <main+0x1cb0>
     6e3: a9 00        	lda	#$0
     6e5: e5 13        	sbc	$13                     ; 0x2013 <main+0x1caa>
     6e7: aa           	tax
     6e8: a9 08        	lda	#$8
     6ea: e5 14        	sbc	$14                     ; 0x2014 <main+0x1cab>
     6ec: 85 16        	sta	$16                     ; 0x2016 <main+0x1cad>
     6ee: a9 00        	lda	#$0
     6f0: e5 15        	sbc	$15                     ; 0x2015 <main+0x1cac>
     6f2: 86 47        	stx	$47                     ; 0x2047 <main+0x1cde>
     6f4: a4 16        	ldy	$16                     ; 0x2016 <main+0x1cad>
     6f6: 84 48        	sty	$48                     ; 0x2048 <main+0x1cdf>
     6f8: 85 49        	sta	$49                     ; 0x2049 <main+0x1ce0>
     6fa: a8           	tay
     6fb: a5 19        	lda	$19                     ; 0x2019 <main+0x1cb0>
     6fd: 38           	sec
     6fe: e5 12        	sbc	$12                     ; 0x2012 <main+0x1ca9>
     700: 85 18        	sta	$18                     ; 0x2018 <main+0x1caf>
     702: 8a           	txa
     703: e5 13        	sbc	$13                     ; 0x2013 <main+0x1caa>
     705: 85 1a        	sta	$1a                     ; 0x201a <main+0x1cb1>
     707: a5 16        	lda	$16                     ; 0x2016 <main+0x1cad>
     709: e5 14        	sbc	$14                     ; 0x2014 <main+0x1cab>
     70b: 85 16        	sta	$16                     ; 0x2016 <main+0x1cad>
     70d: 98           	tya
     70e: e5 15        	sbc	$15                     ; 0x2015 <main+0x1cac>
     710: 85 17        	sta	$17                     ; 0x2017 <main+0x1cae>
     712: 38           	sec
     713: a4 18        	ldy	$18                     ; 0x2018 <main+0x1caf>
     715: 84 4a        	sty	$4a                     ; 0x204a <main+0x1ce1>
     717: a6 1a        	ldx	$1a                     ; 0x201a <main+0x1cb1>
     719: 86 4b        	stx	$4b                     ; 0x204b <main+0x1ce2>
     71b: a4 16        	ldy	$16                     ; 0x2016 <main+0x1cad>
     71d: 84 4c        	sty	$4c                     ; 0x204c <main+0x1ce3>
     71f: 85 4d        	sta	$4d                     ; 0x204d <main+0x1ce4>
     721: a5 18        	lda	$18                     ; 0x2018 <main+0x1caf>
     723: e5 12        	sbc	$12                     ; 0x2012 <main+0x1ca9>
     725: 85 18        	sta	$18                     ; 0x2018 <main+0x1caf>
     727: a5 1a        	lda	$1a                     ; 0x201a <main+0x1cb1>
     729: e5 13        	sbc	$13                     ; 0x2013 <main+0x1caa>
     72b: a8           	tay
     72c: a5 16        	lda	$16                     ; 0x2016 <main+0x1cad>
     72e: e5 14        	sbc	$14                     ; 0x2014 <main+0x1cab>
     730: 85 12        	sta	$12                     ; 0x2012 <main+0x1ca9>
     732: a5 17        	lda	$17                     ; 0x2017 <main+0x1cae>
     734: e5 15        	sbc	$15                     ; 0x2015 <main+0x1cac>
     736: a6 18        	ldx	$18                     ; 0x2018 <main+0x1caf>
     738: 86 4e        	stx	$4e                     ; 0x204e <main+0x1ce5>
     73a: 84 4f        	sty	$4f                     ; 0x204f <main+0x1ce6>
     73c: a6 19        	ldx	$19                     ; 0x2019 <main+0x1cb0>
     73e: 86 46        	stx	$46                     ; 0x2046 <main+0x1cdd>
     740: a4 12        	ldy	$12                     ; 0x2012 <main+0x1ca9>
     742: 84 50        	sty	$50                     ; 0x2050 <main+0x1ce7>
     744: 85 51        	sta	$51                     ; 0x2051 <main+0x1ce8>
     746: 8e 01 d1     	stx	$d101                   ; 0xd101 <__heap_start+0x3e31>
     749: a6 47        	ldx	$47                     ; 0x2047 <main+0x1cde>
     74b: 8e 02 d1     	stx	$d102                   ; 0xd102 <__heap_start+0x3e32>
     74e: a6 48        	ldx	$48                     ; 0x2048 <main+0x1cdf>
     750: 8e 03 d1     	stx	$d103                   ; 0xd103 <__heap_start+0x3e33>
     753: a6 4a        	ldx	$4a                     ; 0x204a <main+0x1ce1>
     755: 8e 09 d1     	stx	$d109                   ; 0xd109 <__heap_start+0x3e39>
     758: a6 4b        	ldx	$4b                     ; 0x204b <main+0x1ce2>
     75a: 8e 0a d1     	stx	$d10a                   ; 0xd10a <__heap_start+0x3e3a>
     75d: a6 4c        	ldx	$4c                     ; 0x204c <main+0x1ce3>
     75f: 8e 0b d1     	stx	$d10b                   ; 0xd10b <__heap_start+0x3e3b>
     762: a6 4e        	ldx	$4e                     ; 0x204e <main+0x1ce5>
     764: 8e 11 d1     	stx	$d111                   ; 0xd111 <__heap_start+0x3e41>
     767: a6 4f        	ldx	$4f                     ; 0x204f <main+0x1ce6>
     769: 8e 12 d1     	stx	$d112                   ; 0xd112 <__heap_start+0x3e42>
     76c: a6 50        	ldx	$50                     ; 0x2050 <main+0x1ce7>
     76e: 8e 13 d1     	stx	$d113                   ; 0xd113 <__heap_start+0x3e43>
     771: 9c 00 d1     	stz	$d100                   ; 0xd100 <__heap_start+0x3e30>
     774: 9c 08 d1     	stz	$d108                   ; 0xd108 <__heap_start+0x3e38>
     777: 9c 10 d1     	stz	$d110                   ; 0xd110 <__heap_start+0x3e40>
     77a: a2 10        	ldx	#$10
     77c: 8e 00 d2     	stx	$d200                   ; 0xd200 <__heap_start+0x3f30>
     77f: 8e 0c d2     	stx	$d20c                   ; 0xd20c <__heap_start+0x3f3c>
     782: 8e 18 d2     	stx	$d218                   ; 0xd218 <__heap_start+0x3f48>
     785: a0 d9        	ldy	#$d9
     787: a2 40        	ldx	#$40
     789: 64 12        	stz	$12                     ; 0x2012 <main+0x1ca9>
     78b: 84 13        	sty	$13                     ; 0x2013 <main+0x1caa>
     78d: a9 00        	lda	#$0
     78f: 92 12        	sta	($12)                   ; 0x2012 <main+0x1ca9>
     791: ca           	dex
     792: 18           	clc
     793: a5 12        	lda	$12                     ; 0x2012 <main+0x1ca9>
     795: 69 08        	adc	#$8
     797: 85 12        	sta	$12                     ; 0x2012 <main+0x1ca9>
     799: 98           	tya
     79a: 69 00        	adc	#$0
     79c: a8           	tay
     79d: 8a           	txa
     79e: d0 eb        	bne	$78b <main+0x422>
     7a0: 64 52        	stz	$52                     ; 0x2052 <main+0x1ce9>
     7a2: 64 53        	stz	$53                     ; 0x2053 <main+0x1cea>
     7a4: 64 54        	stz	$54                     ; 0x2054 <main+0x1ceb>
     7a6: 64 55        	stz	$55                     ; 0x2055 <main+0x1cec>
     7a8: 64 56        	stz	$56                     ; 0x2056 <main+0x1ced>
     7aa: 64 57        	stz	$57                     ; 0x2057 <main+0x1cee>
     7ac: 64 58        	stz	$58                     ; 0x2058 <main+0x1cef>
     7ae: 64 59        	stz	$59                     ; 0x2059 <main+0x1cf0>
     7b0: 18           	clc
     7b1: a5 10        	lda	$10                     ; 0x2010 <main+0x1ca7>
     7b3: 69 50        	adc	#$50
     7b5: 85 28        	sta	$28                     ; 0x2028 <main+0x1cbf>
     7b7: a5 11        	lda	$11                     ; 0x2011 <main+0x1ca8>
     7b9: 69 00        	adc	#$0
     7bb: 85 29        	sta	$29                     ; 0x2029 <main+0x1cc0>
     7bd: a6 28        	ldx	$28                     ; 0x2028 <main+0x1cbf>
     7bf: 86 fb        	stx	$fb                     ; 0x20fb <main+0x1d92>
     7c1: 85 fc        	sta	$fc                     ; 0x20fc <main+0x1d93>
     7c3: a2 08        	ldx	#$8
     7c5: 86 fd        	stx	$fd                     ; 0x20fd <main+0x1d94>
     7c7: 18           	clc
     7c8: a5 10        	lda	$10                     ; 0x2010 <main+0x1ca7>
     7ca: 69 8c        	adc	#$8c
     7cc: 85 26        	sta	$26                     ; 0x2026 <main+0x1cbd>
     7ce: a5 11        	lda	$11                     ; 0x2011 <main+0x1ca8>
     7d0: 69 20        	adc	#$20
     7d2: 85 27        	sta	$27                     ; 0x2027 <main+0x1cbe>
     7d4: a2 5e        	ldx	#$5e
     7d6: 86 12        	stx	$12                     ; 0x2012 <main+0x1ca9>
     7d8: a2 00        	ldx	#$0
     7da: 86 13        	stx	$13                     ; 0x2013 <main+0x1caa>
     7dc: a0 06        	ldy	#$6
     7de: 20 dc ff     	jsr	$ffdc <__heap_start+0x6d0c>
     7e1: 92 26        	sta	($26)                   ; 0x2026 <main+0x1cbd>
     7e3: a9 00        	lda	#$0
     7e5: 6a           	ror
     7e6: 85 12        	sta	$12                     ; 0x2012 <main+0x1ca9>
     7e8: b1 28        	lda	($28),y                 ; 0x2028 <main+0x1cbf>
     7ea: 85 12        	sta	$12                     ; 0x2012 <main+0x1ca9>
     7ec: c8           	iny
     7ed: b1 28        	lda	($28),y                 ; 0x2028 <main+0x1cbf>
     7ef: a6 12        	ldx	$12                     ; 0x2012 <main+0x1ca9>
     7f1: 8e 00 de     	stx	$de00                   ; 0xde00 <__heap_start+0x4b30>
     7f4: 9c 01 de     	stz	$de01                   ; 0xde01 <__heap_start+0x4b31>
     7f7: 8d 02 de     	sta	$de02                   ; 0xde02 <__heap_start+0x4b32>
     7fa: 9c 03 de     	stz	$de03                   ; 0xde03 <__heap_start+0x4b33>
     7fd: ae 10 de     	ldx	$de10                   ; 0xde10 <__heap_start+0x4b40>
     800: ac 11 de     	ldy	$de11                   ; 0xde11 <__heap_start+0x4b41>
     803: ad 12 de     	lda	$de12                   ; 0xde12 <__heap_start+0x4b42>
     806: ad 13 de     	lda	$de13                   ; 0xde13 <__heap_start+0x4b43>
     809: 8e a4 d6     	stx	$d6a4                   ; 0xd6a4 <__heap_start+0x43d4>
     80c: 8c a5 d6     	sty	$d6a5                   ; 0xd6a5 <__heap_start+0x43d5>
     80f: a2 03        	ldx	#$3
     811: 8e a6 d6     	stx	$d6a6                   ; 0xd6a6 <__heap_start+0x43d6>
     814: a6 fa        	ldx	$fa                     ; 0x20fa <main+0x1d91>
     816: 86 2c        	stx	$2c                     ; 0x202c <main+0x1cc3>
     818: a6 f8        	ldx	$f8                     ; 0x20f8 <main+0x1d8f>
     81a: a4 f9        	ldy	$f9                     ; 0x20f9 <main+0x1d90>
     81c: 86 24        	stx	$24                     ; 0x2024 <main+0x1cbb>
     81e: 86 2a        	stx	$2a                     ; 0x202a <main+0x1cc1>
     820: 84 25        	sty	$25                     ; 0x2025 <main+0x1cbc>
     822: 84 2b        	sty	$2b                     ; 0x202b <main+0x1cc2>
     824: a2 00        	ldx	#$0
     826: 64 01        	stz	$1                      ; 0x2001 <main+0x1c98>
     828: a0 2f        	ldy	#$2f
     82a: 8c 00 d0     	sty	$d000                   ; 0xd000 <__heap_start+0x3d30>
     82d: a0 04        	ldy	#$4
     82f: 8c 01 d0     	sty	$d001                   ; 0xd001 <__heap_start+0x3d31>
     832: a0 01        	ldy	#$1
     834: 8c 02 d0     	sty	$d002                   ; 0xd002 <__heap_start+0x3d32>
     837: a9 02        	lda	#$2
     839: 8d 03 d0     	sta	$d003                   ; 0xd003 <__heap_start+0x3d33>
     83c: 9c 0d d0     	stz	$d00d                   ; 0xd00d <__heap_start+0x3d3d>
     83f: 9c 0e d0     	stz	$d00e                   ; 0xd00e <__heap_start+0x3d3e>
     842: 9c 0f d0     	stz	$d00f                   ; 0xd00f <__heap_start+0x3d3f>
     845: 84 01        	sty	$1                      ; 0x2001 <main+0x1c98>
     847: a0 f0        	ldy	#$f0
     849: 86 12        	stx	$12                     ; 0x2012 <main+0x1ca9>
     84b: 84 13        	sty	$13                     ; 0x2013 <main+0x1caa>
     84d: a5 0f        	lda	$f                      ; 0x200f <main+0x1ca6>
     84f: 85 15        	sta	$15                     ; 0x2015 <main+0x1cac>
     851: 78           	sei
     852: 86 14        	stx	$14                     ; 0x2014 <main+0x1cab>
     854: a2 21        	ldx	#$21
     856: 86 0f        	stx	$f                      ; 0x200f <main+0x1ca6>
     858: a6 14        	ldx	$14                     ; 0x2014 <main+0x1cab>
     85a: b2 12        	lda	($12)                   ; 0x2012 <main+0x1ca9>
     85c: 85 14        	sta	$14                     ; 0x2014 <main+0x1cab>
     85e: a5 15        	lda	$15                     ; 0x2015 <main+0x1cac>
     860: 85 0f        	sta	$f                      ; 0x200f <main+0x1ca6>
     862: 18           	clc
     863: 8a           	txa
     864: 69 00        	adc	#$0
     866: 85 15        	sta	$15                     ; 0x2015 <main+0x1cac>
     868: 98           	tya
     869: 69 e0        	adc	#$e0
     86b: 5a           	phy
     86c: a4 15        	ldy	$15                     ; 0x2015 <main+0x1cac>
     86e: 84 12        	sty	$12                     ; 0x2012 <main+0x1ca9>
     870: 7a           	ply
     871: 58           	cli
     872: 85 13        	sta	$13                     ; 0x2013 <main+0x1caa>
     874: a5 14        	lda	$14                     ; 0x2014 <main+0x1cab>
     876: 92 12        	sta	($12)                   ; 0x2012 <main+0x1ca9>
     878: e8           	inx
     879: f0 06        	beq	$881 <main+0x518>
     87b: c0 f3        	cpy	#$f3
     87d: d0 ca        	bne	$849 <main+0x4e0>
     87f: 80 05        	bra	$886 <main+0x51d>
     881: c8           	iny
     882: c0 f3        	cpy	#$f3
     884: d0 c3        	bne	$849 <main+0x4e0>
     886: e0 ff        	cpx	#$ff
     888: d0 bf        	bne	$849 <main+0x4e0>
     88a: 64 01        	stz	$1                      ; 0x2001 <main+0x1c98>
     88c: 64 46        	stz	$46                     ; 0x2046 <main+0x1cdd>
     88e: a2 34        	ldx	#$34
     890: 86 47        	stx	$47                     ; 0x2047 <main+0x1cde>
     892: a0 04        	ldy	#$4
     894: 84 48        	sty	$48                     ; 0x2048 <main+0x1cdf>
     896: 64 49        	stz	$49                     ; 0x2049 <main+0x1ce0>
     898: 9c 01 d1     	stz	$d101                   ; 0xd101 <__heap_start+0x3e31>
     89b: 8e 02 d1     	stx	$d102                   ; 0xd102 <__heap_start+0x3e32>
     89e: 8c 03 d1     	sty	$d103                   ; 0xd103 <__heap_start+0x3e33>
     8a1: ad 00 d1     	lda	$d100                   ; 0xd100 <__heap_start+0x3e30>
     8a4: 29 f9        	and	#$f9
     8a6: 8d 00 d1     	sta	$d100                   ; 0xd100 <__heap_start+0x3e30>
     8a9: a2 01        	ldx	#$1
     8ab: 8e 00 d1     	stx	$d100                   ; 0xd100 <__heap_start+0x3e30>
     8ae: 9c 08 d1     	stz	$d108                   ; 0xd108 <__heap_start+0x3e38>
     8b1: 9c 10 d1     	stz	$d110                   ; 0xd110 <__heap_start+0x3e40>
     8b4: 64 01        	stz	$1                      ; 0x2001 <main+0x1c98>
     8b6: 9c 00 d8     	stz	$d800                   ; 0xd800 <__heap_start+0x4530>
     8b9: a2 ff        	ldx	#$ff
     8bb: 8e 01 d8     	stx	$d801                   ; 0xd801 <__heap_start+0x4531>
     8be: 9c 02 d8     	stz	$d802                   ; 0xd802 <__heap_start+0x4532>
     8c1: 9c 04 d8     	stz	$d804                   ; 0xd804 <__heap_start+0x4534>
     8c4: 8e 05 d8     	stx	$d805                   ; 0xd805 <__heap_start+0x4535>
     8c7: a0 20        	ldy	#$20
     8c9: 8c 06 d8     	sty	$d806                   ; 0xd806 <__heap_start+0x4536>
     8cc: 9c 08 d8     	stz	$d808                   ; 0xd808 <__heap_start+0x4538>
     8cf: 8e 09 d8     	stx	$d809                   ; 0xd809 <__heap_start+0x4539>
     8d2: a0 40        	ldy	#$40
     8d4: 8c 0a d8     	sty	$d80a                   ; 0xd80a <__heap_start+0x453a>
     8d7: 9c 0c d8     	stz	$d80c                   ; 0xd80c <__heap_start+0x453c>
     8da: 8e 0d d8     	stx	$d80d                   ; 0xd80d <__heap_start+0x453d>
     8dd: a0 60        	ldy	#$60
     8df: 8c 0e d8     	sty	$d80e                   ; 0xd80e <__heap_start+0x453e>
     8e2: 9c 10 d8     	stz	$d810                   ; 0xd810 <__heap_start+0x4540>
     8e5: 8e 11 d8     	stx	$d811                   ; 0xd811 <__heap_start+0x4541>
     8e8: a0 80        	ldy	#$80
     8ea: 8c 12 d8     	sty	$d812                   ; 0xd812 <__heap_start+0x4542>
     8ed: 9c 14 d8     	stz	$d814                   ; 0xd814 <__heap_start+0x4544>
     8f0: 8e 15 d8     	stx	$d815                   ; 0xd815 <__heap_start+0x4545>
     8f3: a0 a0        	ldy	#$a0
     8f5: 8c 16 d8     	sty	$d816                   ; 0xd816 <__heap_start+0x4546>
     8f8: 9c 18 d8     	stz	$d818                   ; 0xd818 <__heap_start+0x4548>
     8fb: 8e 19 d8     	stx	$d819                   ; 0xd819 <__heap_start+0x4549>
     8fe: a0 c0        	ldy	#$c0
     900: 8c 1a d8     	sty	$d81a                   ; 0xd81a <__heap_start+0x454a>
     903: 9c 1c d8     	stz	$d81c                   ; 0xd81c <__heap_start+0x454c>
     906: 8e 1d d8     	stx	$d81d                   ; 0xd81d <__heap_start+0x454d>
     909: a0 e0        	ldy	#$e0
     90b: 8c 1e d8     	sty	$d81e                   ; 0xd81e <__heap_start+0x454e>
     90e: 9c 20 d8     	stz	$d820                   ; 0xd820 <__heap_start+0x4550>
     911: 8e 21 d8     	stx	$d821                   ; 0xd821 <__heap_start+0x4551>
     914: 8e 22 d8     	stx	$d822                   ; 0xd822 <__heap_start+0x4552>
     917: 9c 24 d8     	stz	$d824                   ; 0xd824 <__heap_start+0x4554>
     91a: 88           	dey
     91b: 8c 25 d8     	sty	$d825                   ; 0xd825 <__heap_start+0x4555>
     91e: 8e 26 d8     	stx	$d826                   ; 0xd826 <__heap_start+0x4556>
     921: 9c 28 d8     	stz	$d828                   ; 0xd828 <__heap_start+0x4558>
     924: a0 bf        	ldy	#$bf
     926: 8c 29 d8     	sty	$d829                   ; 0xd829 <__heap_start+0x4559>
     929: 8e 2a d8     	stx	$d82a                   ; 0xd82a <__heap_start+0x455a>
     92c: 9c 2c d8     	stz	$d82c                   ; 0xd82c <__heap_start+0x455c>
     92f: a0 9f        	ldy	#$9f
     931: 8c 2d d8     	sty	$d82d                   ; 0xd82d <__heap_start+0x455d>
     934: 8e 2e d8     	stx	$d82e                   ; 0xd82e <__heap_start+0x455e>
     937: 9c 30 d8     	stz	$d830                   ; 0xd830 <__heap_start+0x4560>
     93a: a0 7f        	ldy	#$7f
     93c: 8c 31 d8     	sty	$d831                   ; 0xd831 <__heap_start+0x4561>
     93f: 8e 32 d8     	stx	$d832                   ; 0xd832 <__heap_start+0x4562>
     942: 9c 34 d8     	stz	$d834                   ; 0xd834 <__heap_start+0x4564>
     945: a0 5f        	ldy	#$5f
     947: 8c 35 d8     	sty	$d835                   ; 0xd835 <__heap_start+0x4565>
     94a: 8e 36 d8     	stx	$d836                   ; 0xd836 <__heap_start+0x4566>
     94d: 9c 38 d8     	stz	$d838                   ; 0xd838 <__heap_start+0x4568>
     950: a0 3f        	ldy	#$3f
     952: 8c 39 d8     	sty	$d839                   ; 0xd839 <__heap_start+0x4569>
     955: 8e 3a d8     	stx	$d83a                   ; 0xd83a <__heap_start+0x456a>
     958: 9c 3c d8     	stz	$d83c                   ; 0xd83c <__heap_start+0x456c>
     95b: a0 1f        	ldy	#$1f
     95d: 8c 3d d8     	sty	$d83d                   ; 0xd83d <__heap_start+0x456d>
     960: 8e 3e d8     	stx	$d83e                   ; 0xd83e <__heap_start+0x456e>
     963: 20 ee 46     	jsr	$46ee <colMatrixSetup>
     966: ad a7 d6     	lda	$d6a7                   ; 0xd6a7 <__heap_start+0x43d7>
     969: 29 3f        	and	#$3f
     96b: 92 10        	sta	($10)                   ; 0x2010 <main+0x1ca7>
     96d: a0 01        	ldy	#$1
     96f: a9 00        	lda	#$0
     971: 91 10        	sta	($10),y                 ; 0x2010 <main+0x1ca7>
     973: a2 7b        	ldx	#$7b
     975: 86 12        	stx	$12                     ; 0x2012 <main+0x1ca9>
     977: a2 7e        	ldx	#$7e
     979: 86 13        	stx	$13                     ; 0x2013 <main+0x1caa>
     97b: 20 ab 79     	jsr	$79ab <printf>
     97e: a2 cd        	ldx	#$cd
     980: 86 12        	stx	$12                     ; 0x2012 <main+0x1ca9>
     982: a2 7c        	ldx	#$7c
     984: 86 13        	stx	$13                     ; 0x2013 <main+0x1caa>
     986: 20 ab 79     	jsr	$79ab <printf>
     989: a2 b2        	ldx	#$b2
     98b: 86 12        	stx	$12                     ; 0x2012 <main+0x1ca9>
     98d: a2 7d        	ldx	#$7d
     98f: 86 13        	stx	$13                     ; 0x2013 <main+0x1caa>
     991: 20 ab 79     	jsr	$79ab <printf>
     994: a2 64        	ldx	#$64
     996: 86 12        	stx	$12                     ; 0x2012 <main+0x1ca9>
     998: a2 7c        	ldx	#$7c
     99a: 86 13        	stx	$13                     ; 0x2013 <main+0x1caa>
     99c: 20 ab 79     	jsr	$79ab <printf>
     99f: a2 5e        	ldx	#$5e
     9a1: 86 12        	stx	$12                     ; 0x2012 <main+0x1ca9>
     9a3: a2 00        	ldx	#$0
     9a5: 86 13        	stx	$13                     ; 0x2013 <main+0x1caa>
     9a7: 64 5f        	stz	$5f                     ; 0x205f <main+0x1cf6>
     9a9: 20 00 ff     	jsr	$ff00 <__heap_start+0x6c30>
     9ac: 92 28        	sta	($28)                   ; 0x2028 <main+0x1cbf>
     9ae: a9 00        	lda	#$0
     9b0: 6a           	ror
     9b1: 85 12        	sta	$12                     ; 0x2012 <main+0x1ca9>
     9b3: a6 5f        	ldx	$5f                     ; 0x205f <main+0x1cf6>
     9b5: e0 08        	cpx	#$8
     9b7: d0 ee        	bne	$9a7 <main+0x63e>
     9b9: a6 63        	ldx	$63                     ; 0x2063 <main+0x1cfa>
     9bb: e0 20        	cpx	#$20
     9bd: f0 04        	beq	$9c3 <main+0x65a>
     9bf: e0 94        	cpx	#$94
     9c1: d0 e4        	bne	$9a7 <main+0x63e>
     9c3: ad a7 d6     	lda	$d6a7                   ; 0xd6a7 <__heap_start+0x43d7>
     9c6: 29 1f        	and	#$1f
     9c8: a0 3f        	ldy	#$3f
     9ca: 91 10        	sta	($10),y                 ; 0x2010 <main+0x1ca7>
     9cc: c9 11        	cmp	#$11
     9ce: f0 03        	beq	$9d3 <main+0x66a>
     9d0: 4c 16 0b     	jmp	$b16 <main+0x7ad>
     9d3: a2 2a        	ldx	#$2a
     9d5: 8e 40 dd     	stx	$dd40                   ; 0xdd40 <__heap_start+0x4a70>
     9d8: 64 14        	stz	$14                     ; 0x2014 <main+0x1cab>
     9da: 9c 41 dd     	stz	$dd41                   ; 0xdd41 <__heap_start+0x4a71>
     9dd: 9c 41 dd     	stz	$dd41                   ; 0xdd41 <__heap_start+0x4a71>
     9e0: 9c 41 dd     	stz	$dd41                   ; 0xdd41 <__heap_start+0x4a71>
     9e3: a2 ef        	ldx	#$ef
     9e5: 8e 41 dd     	stx	$dd41                   ; 0xdd41 <__heap_start+0x4a71>
     9e8: a2 2b        	ldx	#$2b
     9ea: 8e 40 dd     	stx	$dd40                   ; 0xdd40 <__heap_start+0x4a70>
     9ed: 9c 41 dd     	stz	$dd41                   ; 0xdd41 <__heap_start+0x4a71>
     9f0: a2 14        	ldx	#$14
     9f2: 8e 41 dd     	stx	$dd41                   ; 0xdd41 <__heap_start+0x4a71>
     9f5: a2 01        	ldx	#$1
     9f7: 8e 41 dd     	stx	$dd41                   ; 0xdd41 <__heap_start+0x4a71>
     9fa: a2 3f        	ldx	#$3f
     9fc: 8e 41 dd     	stx	$dd41                   ; 0xdd41 <__heap_start+0x4a71>
     9ff: a2 2c        	ldx	#$2c
     a01: 8e 40 dd     	stx	$dd40                   ; 0xdd40 <__heap_start+0x4a70>
     a04: 64 16        	stz	$16                     ; 0x2016 <main+0x1cad>
     a06: 64 15        	stz	$15                     ; 0x2015 <main+0x1cac>
     a08: a9 00        	lda	#$0
     a0a: aa           	tax
     a0b: a8           	tay
     a0c: 64 12        	stz	$12                     ; 0x2012 <main+0x1ca9>
     a0e: 64 13        	stz	$13                     ; 0x2013 <main+0x1caa>
     a10: 84 18        	sty	$18                     ; 0x2018 <main+0x1caf>
     a12: 86 17        	stx	$17                     ; 0x2017 <main+0x1cae>
     a14: a2 f0        	ldx	#$f0
     a16: a4 16        	ldy	$16                     ; 0x2016 <main+0x1cad>
     a18: 85 1e        	sta	$1e                     ; 0x201e <main+0x1cb5>
     a1a: a5 15        	lda	$15                     ; 0x2015 <main+0x1cac>
     a1c: 85 1f        	sta	$1f                     ; 0x201f <main+0x1cb6>
     a1e: a5 15        	lda	$15                     ; 0x2015 <main+0x1cac>
     a20: 85 16        	sta	$16                     ; 0x2016 <main+0x1cad>
     a22: 84 22        	sty	$22                     ; 0x2022 <main+0x1cb9>
     a24: 84 1a        	sty	$1a                     ; 0x201a <main+0x1cb1>
     a26: a4 14        	ldy	$14                     ; 0x2014 <main+0x1cab>
     a28: 84 1b        	sty	$1b                     ; 0x201b <main+0x1cb2>
     a2a: 18           	clc
     a2b: 84 1d        	sty	$1d                     ; 0x201d <main+0x1cb4>
     a2d: 98           	tya
     a2e: 69 00        	adc	#$0
     a30: a5 1a        	lda	$1a                     ; 0x201a <main+0x1cb1>
     a32: 69 00        	adc	#$0
     a34: 85 14        	sta	$14                     ; 0x2014 <main+0x1cab>
     a36: a5 15        	lda	$15                     ; 0x2015 <main+0x1cac>
     a38: 69 02        	adc	#$2
     a3a: 06 14        	asl	$14                     ; 0x2014 <main+0x1cab>
     a3c: 2a           	rol
     a3d: 06 14        	asl	$14                     ; 0x2014 <main+0x1cab>
     a3f: 2a           	rol
     a40: a4 0f        	ldy	$f                      ; 0x200f <main+0x1ca6>
     a42: 78           	sei
     a43: 06 14        	asl	$14                     ; 0x2014 <main+0x1cab>
     a45: 2a           	rol
     a46: 85 0f        	sta	$f                      ; 0x200f <main+0x1ca6>
     a48: a5 1a        	lda	$1a                     ; 0x201a <main+0x1cb1>
     a4a: 09 e0        	ora	#$e0
     a4c: 5a           	phy
     a4d: a4 1b        	ldy	$1b                     ; 0x201b <main+0x1cb2>
     a4f: 84 14        	sty	$14                     ; 0x2014 <main+0x1cab>
     a51: 7a           	ply
     a52: 85 15        	sta	$15                     ; 0x2015 <main+0x1cac>
     a54: b2 14        	lda	($14)                   ; 0x2014 <main+0x1cab>
     a56: 84 0f        	sty	$f                      ; 0x200f <main+0x1ca6>
     a58: 58           	cli
     a59: 8d 42 dd     	sta	$dd42                   ; 0xdd42 <__heap_start+0x4a72>
     a5c: 18           	clc
     a5d: a5 1b        	lda	$1b                     ; 0x201b <main+0x1cb2>
     a5f: 69 01        	adc	#$1
     a61: a5 1a        	lda	$1a                     ; 0x201a <main+0x1cb1>
     a63: 69 00        	adc	#$0
     a65: 85 14        	sta	$14                     ; 0x2014 <main+0x1cab>
     a67: a5 16        	lda	$16                     ; 0x2016 <main+0x1cad>
     a69: 69 02        	adc	#$2
     a6b: 06 14        	asl	$14                     ; 0x2014 <main+0x1cab>
     a6d: 2a           	rol
     a6e: 06 14        	asl	$14                     ; 0x2014 <main+0x1cab>
     a70: 2a           	rol
     a71: a4 1e        	ldy	$1e                     ; 0x201e <main+0x1cb5>
     a73: 84 23        	sty	$23                     ; 0x2023 <main+0x1cba>
     a75: 06 14        	asl	$14                     ; 0x2014 <main+0x1cab>
     a77: 2a           	rol
     a78: a4 0f        	ldy	$f                      ; 0x200f <main+0x1ca6>
     a7a: 78           	sei
     a7b: 85 0f        	sta	$f                      ; 0x200f <main+0x1ca6>
     a7d: a5 1b        	lda	$1b                     ; 0x201b <main+0x1cb2>
     a7f: 85 14        	sta	$14                     ; 0x2014 <main+0x1cab>
     a81: a5 1a        	lda	$1a                     ; 0x201a <main+0x1cb1>
     a83: e6 14        	inc	$14                     ; 0x2014 <main+0x1cab>
     a85: d0 01        	bne	$a88 <main+0x71f>
     a87: 1a           	inc
     a88: 09 e0        	ora	#$e0
     a8a: 85 15        	sta	$15                     ; 0x2015 <main+0x1cac>
     a8c: b2 14        	lda	($14)                   ; 0x2014 <main+0x1cab>
     a8e: 84 0f        	sty	$f                      ; 0x200f <main+0x1ca6>
     a90: 58           	cli
     a91: 8d 43 dd     	sta	$dd43                   ; 0xdd43 <__heap_start+0x4a73>
     a94: a5 1d        	lda	$1d                     ; 0x201d <main+0x1cb4>
     a96: ca           	dex
     a97: 18           	clc
     a98: 69 02        	adc	#$2
     a9a: 85 14        	sta	$14                     ; 0x2014 <main+0x1cab>
     a9c: a5 22        	lda	$22                     ; 0x2022 <main+0x1cb9>
     a9e: 69 00        	adc	#$0
     aa0: a8           	tay
     aa1: a5 1f        	lda	$1f                     ; 0x201f <main+0x1cb6>
     aa3: 69 00        	adc	#$0
     aa5: 85 15        	sta	$15                     ; 0x2015 <main+0x1cac>
     aa7: a5 1e        	lda	$1e                     ; 0x201e <main+0x1cb5>
     aa9: 69 00        	adc	#$0
     aab: 85 1e        	sta	$1e                     ; 0x201e <main+0x1cb5>
     aad: 8a           	txa
     aae: f0 03        	beq	$ab3 <main+0x74a>
     ab0: 4c 1a 0a     	jmp	$a1a <main+0x6b1>
     ab3: a6 16        	ldx	$16                     ; 0x2016 <main+0x1cad>
     ab5: 86 19        	stx	$19                     ; 0x2019 <main+0x1cb0>
     ab7: 18           	clc
     ab8: a5 1b        	lda	$1b                     ; 0x201b <main+0x1cb2>
     aba: 69 02        	adc	#$2
     abc: 85 14        	sta	$14                     ; 0x2014 <main+0x1cab>
     abe: a5 1a        	lda	$1a                     ; 0x201a <main+0x1cb1>
     ac0: 69 00        	adc	#$0
     ac2: 85 16        	sta	$16                     ; 0x2016 <main+0x1cad>
     ac4: a5 19        	lda	$19                     ; 0x2019 <main+0x1cb0>
     ac6: 69 00        	adc	#$0
     ac8: 85 15        	sta	$15                     ; 0x2015 <main+0x1cac>
     aca: a5 23        	lda	$23                     ; 0x2023 <main+0x1cba>
     acc: 69 00        	adc	#$0
     ace: a6 17        	ldx	$17                     ; 0x2017 <main+0x1cae>
     ad0: a4 18        	ldy	$18                     ; 0x2018 <main+0x1caf>
     ad2: e8           	inx
     ad3: f0 09        	beq	$ade <main+0x775>
     ad5: e6 13        	inc	$13                     ; 0x2013 <main+0x1caa>
     ad7: c6 13        	dec	$13                     ; 0x2013 <main+0x1caa>
     ad9: f0 15        	beq	$af0 <main+0x787>
     adb: 4c 10 0a     	jmp	$a10 <main+0x6a7>
     ade: c8           	iny
     adf: d0 06        	bne	$ae7 <main+0x77e>
     ae1: e6 12        	inc	$12                     ; 0x2012 <main+0x1ca9>
     ae3: d0 02        	bne	$ae7 <main+0x77e>
     ae5: e6 13        	inc	$13                     ; 0x2013 <main+0x1caa>
     ae7: e6 13        	inc	$13                     ; 0x2013 <main+0x1caa>
     ae9: c6 13        	dec	$13                     ; 0x2013 <main+0x1caa>
     aeb: f0 03        	beq	$af0 <main+0x787>
     aed: 4c 10 0a     	jmp	$a10 <main+0x6a7>
     af0: e6 12        	inc	$12                     ; 0x2012 <main+0x1ca9>
     af2: c6 12        	dec	$12                     ; 0x2012 <main+0x1ca9>
     af4: f0 03        	beq	$af9 <main+0x790>
     af6: 4c 10 0a     	jmp	$a10 <main+0x6a7>
     af9: c0 01        	cpy	#$1
     afb: f0 03        	beq	$b00 <main+0x797>
     afd: 4c 10 0a     	jmp	$a10 <main+0x6a7>
     b00: e0 18        	cpx	#$18
     b02: f0 03        	beq	$b07 <main+0x79e>
     b04: 4c 10 0a     	jmp	$a10 <main+0x6a7>
     b07: a2 36        	ldx	#$36
     b09: 8e 40 dd     	stx	$dd40                   ; 0xdd40 <__heap_start+0x4a70>
     b0c: a2 80        	ldx	#$80
     b0e: 8e 41 dd     	stx	$dd41                   ; 0xdd41 <__heap_start+0x4a71>
     b11: a2 2c        	ldx	#$2c
     b13: 8e 40 dd     	stx	$dd40                   ; 0xdd40 <__heap_start+0x4a70>
     b16: a2 1f        	ldx	#$1f
     b18: 8e 20 d6     	stx	$d620                   ; 0xd620 <__heap_start+0x4350>
     b1b: a2 2a        	ldx	#$2a
     b1d: 8e 21 d6     	stx	$d621                   ; 0xd621 <__heap_start+0x4351>
     b20: a2 01        	ldx	#$1
     b22: 8e 22 d6     	stx	$d622                   ; 0xd622 <__heap_start+0x4352>
     b25: ad 22 d6     	lda	$d622                   ; 0xd622 <__heap_start+0x4352>
     b28: 29 01        	and	#$1
     b2a: d0 f9        	bne	$b25 <main+0x7bc>
     b2c: a2 03        	ldx	#$3
     b2e: 8e 01 d7     	stx	$d701                   ; 0xd701 <__heap_start+0x4431>
     b31: 9c 02 d7     	stz	$d702                   ; 0xd702 <__heap_start+0x4432>
     b34: 9c 02 d7     	stz	$d702                   ; 0xd702 <__heap_start+0x4432>
     b37: a2 e0        	ldx	#$e0
     b39: 8e 03 d7     	stx	$d703                   ; 0xd703 <__heap_start+0x4433>
     b3c: a2 01        	ldx	#$1
     b3e: 8e 00 d7     	stx	$d700                   ; 0xd700 <__heap_start+0x4430>
     b41: 9c 00 d7     	stz	$d700                   ; 0xd700 <__heap_start+0x4430>
     b44: ae 00 d7     	ldx	$d700                   ; 0xd700 <__heap_start+0x4430>
     b47: 30 fb        	bmi	$b44 <main+0x7db>
     b49: a9 00        	lda	#$0
     b4b: 20 c3 45     	jsr	$45c3 <writeTopRight>
     b4e: a6 52        	ldx	$52                     ; 0x2052 <main+0x1ce9>
     b50: d0 27        	bne	$b79 <main+0x810>
     b52: 64 f3        	stz	$f3                     ; 0x20f3 <main+0x1d8a>
     b54: a2 31        	ldx	#$31
     b56: a0 00        	ldy	#$0
     b58: 86 fb        	stx	$fb                     ; 0x20fb <main+0x1d92>
     b5a: 84 fc        	sty	$fc                     ; 0x20fc <main+0x1d93>
     b5c: a2 03        	ldx	#$3
     b5e: 86 fd        	stx	$fd                     ; 0x20fd <main+0x1d94>
     b60: a2 5e        	ldx	#$5e
     b62: 86 12        	stx	$12                     ; 0x2012 <main+0x1ca9>
     b64: a2 00        	ldx	#$0
     b66: 86 13        	stx	$13                     ; 0x2013 <main+0x1caa>
     b68: 20 78 ff     	jsr	$ff78 <__heap_start+0x6ca8>
     b6b: 92 28        	sta	($28)                   ; 0x2028 <main+0x1cbf>
     b6d: a9 00        	lda	#$0
     b6f: 6a           	ror
     b70: 85 12        	sta	$12                     ; 0x2012 <main+0x1ca9>
     b72: a6 5e        	ldx	$5e                     ; 0x205e <main+0x1cf5>
     b74: d0 03        	bne	$b79 <main+0x810>
     b76: 4c d6 0c     	jmp	$cd6 <main+0x96d>
     b79: a2 9a        	ldx	#$9a
     b7b: 86 12        	stx	$12                     ; 0x2012 <main+0x1ca9>
     b7d: a2 80        	ldx	#$80
     b7f: 86 13        	stx	$13                     ; 0x2013 <main+0x1caa>
     b81: a2 2a        	ldx	#$2a
     b83: 86 14        	stx	$14                     ; 0x2014 <main+0x1cab>
     b85: a2 7f        	ldx	#$7f
     b87: 86 15        	stx	$15                     ; 0x2015 <main+0x1cac>
     b89: a9 20        	lda	#$20
     b8b: a2 00        	ldx	#$0
     b8d: 20 0d 7b     	jsr	$7b0d <memcpy>
     b90: a6 2c        	ldx	$2c                     ; 0x202c <main+0x1cc3>
     b92: e0 04        	cpx	#$4
     b94: a2 01        	ldx	#$1
     b96: 8a           	txa
     b97: a0 4e        	ldy	#$4e
     b99: 91 10        	sta	($10),y                 ; 0x2010 <main+0x1ca7>
     b9b: b0 03        	bcs	$ba0 <main+0x837>
     b9d: 4c 4b 0d     	jmp	$d4b <main+0x9e2>
     ba0: a0 02        	ldy	#$2
     ba2: 18           	clc
     ba3: a5 24        	lda	$24                     ; 0x2024 <main+0x1cbb>
     ba5: 69 02        	adc	#$2
     ba7: 85 12        	sta	$12                     ; 0x2012 <main+0x1ca9>
     ba9: a5 25        	lda	$25                     ; 0x2025 <main+0x1cbc>
     bab: 69 00        	adc	#$0
     bad: 85 13        	sta	$13                     ; 0x2013 <main+0x1caa>
     baf: b1 2a        	lda	($2a),y                 ; 0x202a <main+0x1cc1>
     bb1: aa           	tax
     bb2: 88           	dey
     bb3: b1 12        	lda	($12),y                 ; 0x2012 <main+0x1ca9>
     bb5: 86 16        	stx	$16                     ; 0x2016 <main+0x1cad>
     bb7: 86 12        	stx	$12                     ; 0x2012 <main+0x1ca9>
     bb9: 85 17        	sta	$17                     ; 0x2017 <main+0x1cae>
     bbb: 85 13        	sta	$13                     ; 0x2013 <main+0x1caa>
     bbd: b2 12        	lda	($12)                   ; 0x2012 <main+0x1ca9>
     bbf: a2 01        	ldx	#$1
     bc1: c9 2d        	cmp	#$2d
     bc3: f0 02        	beq	$bc7 <main+0x85e>
     bc5: a2 00        	ldx	#$0
     bc7: e0 00        	cpx	#$0
     bc9: f0 03        	beq	$bce <main+0x865>
     bcb: 4c 4b 0d     	jmp	$d4b <main+0x9e2>
     bce: 64 15        	stz	$15                     ; 0x2015 <main+0x1cac>
     bd0: 64 1b        	stz	$1b                     ; 0x201b <main+0x1cb2>
     bd2: c9 00        	cmp	#$0
     bd4: d0 03        	bne	$bd9 <main+0x870>
     bd6: 4c 32 0c     	jmp	$c32 <main+0x8c9>
     bd9: 85 1a        	sta	$1a                     ; 0x201a <main+0x1cb1>
     bdb: 64 12        	stz	$12                     ; 0x2012 <main+0x1ca9>
     bdd: 18           	clc
     bde: a5 10        	lda	$10                     ; 0x2010 <main+0x1ca7>
     be0: 69 50        	adc	#$50
     be2: 85 18        	sta	$18                     ; 0x2018 <main+0x1caf>
     be4: a5 11        	lda	$11                     ; 0x2011 <main+0x1ca8>
     be6: 69 00        	adc	#$0
     be8: 85 19        	sta	$19                     ; 0x2019 <main+0x1cb0>
     bea: 64 13        	stz	$13                     ; 0x2013 <main+0x1caa>
     bec: a5 18        	lda	$18                     ; 0x2018 <main+0x1caf>
     bee: 18           	clc
     bef: 65 12        	adc	$12                     ; 0x2012 <main+0x1ca9>
     bf1: 85 14        	sta	$14                     ; 0x2014 <main+0x1cab>
     bf3: a5 19        	lda	$19                     ; 0x2019 <main+0x1cb0>
     bf5: 65 13        	adc	$13                     ; 0x2013 <main+0x1caa>
     bf7: 85 15        	sta	$15                     ; 0x2015 <main+0x1cac>
     bf9: a5 1a        	lda	$1a                     ; 0x201a <main+0x1cb1>
     bfb: 92 14        	sta	($14)                   ; 0x2014 <main+0x1cab>
     bfd: a5 12        	lda	$12                     ; 0x2012 <main+0x1ca9>
     bff: 85 14        	sta	$14                     ; 0x2014 <main+0x1cab>
     c01: a5 13        	lda	$13                     ; 0x2013 <main+0x1caa>
     c03: 85 1a        	sta	$1a                     ; 0x201a <main+0x1cb1>
     c05: a5 16        	lda	$16                     ; 0x2016 <main+0x1cad>
     c07: 18           	clc
     c08: 65 12        	adc	$12                     ; 0x2012 <main+0x1ca9>
     c0a: 85 12        	sta	$12                     ; 0x2012 <main+0x1ca9>
     c0c: a5 17        	lda	$17                     ; 0x2017 <main+0x1cae>
     c0e: 65 13        	adc	$13                     ; 0x2013 <main+0x1caa>
     c10: e6 14        	inc	$14                     ; 0x2014 <main+0x1cab>
     c12: d0 02        	bne	$c16 <main+0x8ad>
     c14: e6 1a        	inc	$1a                     ; 0x201a <main+0x1cb1>
     c16: 85 13        	sta	$13                     ; 0x2013 <main+0x1caa>
     c18: b1 12        	lda	($12),y                 ; 0x2012 <main+0x1ca9>
     c1a: 5a           	phy
     c1b: a4 14        	ldy	$14                     ; 0x2014 <main+0x1cab>
     c1d: 84 15        	sty	$15                     ; 0x2015 <main+0x1cac>
     c1f: a4 14        	ldy	$14                     ; 0x2014 <main+0x1cab>
     c21: 84 12        	sty	$12                     ; 0x2012 <main+0x1ca9>
     c23: a4 1a        	ldy	$1a                     ; 0x201a <main+0x1cb1>
     c25: 84 1b        	sty	$1b                     ; 0x201b <main+0x1cb2>
     c27: a4 1a        	ldy	$1a                     ; 0x201a <main+0x1cb1>
     c29: 84 13        	sty	$13                     ; 0x2013 <main+0x1caa>
     c2b: 7a           	ply
     c2c: 85 1a        	sta	$1a                     ; 0x201a <main+0x1cb1>
     c2e: c9 00        	cmp	#$0
     c30: d0 ba        	bne	$bec <main+0x883>
     c32: 18           	clc
     c33: a5 10        	lda	$10                     ; 0x2010 <main+0x1ca7>
     c35: 69 50        	adc	#$50
     c37: 85 12        	sta	$12                     ; 0x2012 <main+0x1ca9>
     c39: a5 11        	lda	$11                     ; 0x2011 <main+0x1ca8>
     c3b: 69 00        	adc	#$0
     c3d: 85 13        	sta	$13                     ; 0x2013 <main+0x1caa>
     c3f: 18           	clc
     c40: a5 15        	lda	$15                     ; 0x2015 <main+0x1cac>
     c42: 65 12        	adc	$12                     ; 0x2012 <main+0x1ca9>
     c44: 85 14        	sta	$14                     ; 0x2014 <main+0x1cab>
     c46: a5 1b        	lda	$1b                     ; 0x201b <main+0x1cb2>
     c48: 65 13        	adc	$13                     ; 0x2013 <main+0x1caa>
     c4a: 85 15        	sta	$15                     ; 0x2015 <main+0x1cac>
     c4c: a9 00        	lda	#$0
     c4e: 92 14        	sta	($14)                   ; 0x2014 <main+0x1cab>
     c50: b2 12        	lda	($12)                   ; 0x2012 <main+0x1ca9>
     c52: 85 1b        	sta	$1b                     ; 0x201b <main+0x1cb2>
     c54: b2 12        	lda	($12)                   ; 0x2012 <main+0x1ca9>
     c56: 8d 8e 92     	sta	$928e                   ; 0x928e <finalName>
     c59: a5 1b        	lda	$1b                     ; 0x201b <main+0x1cb2>
     c5b: d0 03        	bne	$c60 <main+0x8f7>
     c5d: 4c 48 0d     	jmp	$d48 <main+0x9df>
     c60: 86 1a        	stx	$1a                     ; 0x201a <main+0x1cb1>
     c62: a2 8f        	ldx	#$8f
     c64: 86 14        	stx	$14                     ; 0x2014 <main+0x1cab>
     c66: a2 92        	ldx	#$92
     c68: 86 15        	stx	$15                     ; 0x2015 <main+0x1cac>
     c6a: a0 01        	ldy	#$1
     c6c: a6 12        	ldx	$12                     ; 0x2012 <main+0x1ca9>
     c6e: 86 18        	stx	$18                     ; 0x2018 <main+0x1caf>
     c70: a6 13        	ldx	$13                     ; 0x2013 <main+0x1caa>
     c72: 86 19        	stx	$19                     ; 0x2019 <main+0x1cb0>
     c74: a6 12        	ldx	$12                     ; 0x2012 <main+0x1ca9>
     c76: 86 16        	stx	$16                     ; 0x2016 <main+0x1cad>
     c78: a6 13        	ldx	$13                     ; 0x2013 <main+0x1caa>
     c7a: 86 17        	stx	$17                     ; 0x2017 <main+0x1cae>
     c7c: e6 16        	inc	$16                     ; 0x2016 <main+0x1cad>
     c7e: d0 02        	bne	$c82 <main+0x919>
     c80: e6 17        	inc	$17                     ; 0x2017 <main+0x1cae>
     c82: b1 18        	lda	($18),y                 ; 0x2018 <main+0x1caf>
     c84: aa           	tax
     c85: b1 18        	lda	($18),y                 ; 0x2018 <main+0x1caf>
     c87: 92 14        	sta	($14)                   ; 0x2014 <main+0x1cab>
     c89: e6 14        	inc	$14                     ; 0x2014 <main+0x1cab>
     c8b: d0 02        	bne	$c8f <main+0x926>
     c8d: e6 15        	inc	$15                     ; 0x2015 <main+0x1cac>
     c8f: a5 16        	lda	$16                     ; 0x2016 <main+0x1cad>
     c91: 85 18        	sta	$18                     ; 0x2018 <main+0x1caf>
     c93: a5 17        	lda	$17                     ; 0x2017 <main+0x1cae>
     c95: 85 19        	sta	$19                     ; 0x2019 <main+0x1cb0>
     c97: 8a           	txa
     c98: d0 e2        	bne	$c7c <main+0x913>
     c9a: a6 1b        	ldx	$1b                     ; 0x201b <main+0x1cb2>
     c9c: 8e ba 80     	stx	$80ba                   ; 0x80ba <fpr+0x22>
     c9f: a2 bb        	ldx	#$bb
     ca1: 86 14        	stx	$14                     ; 0x2014 <main+0x1cab>
     ca3: a2 80        	ldx	#$80
     ca5: 86 15        	stx	$15                     ; 0x2015 <main+0x1cac>
     ca7: a0 01        	ldy	#$1
     ca9: a6 12        	ldx	$12                     ; 0x2012 <main+0x1ca9>
     cab: 86 16        	stx	$16                     ; 0x2016 <main+0x1cad>
     cad: a6 13        	ldx	$13                     ; 0x2013 <main+0x1caa>
     caf: 86 17        	stx	$17                     ; 0x2017 <main+0x1cae>
     cb1: a6 1a        	ldx	$1a                     ; 0x201a <main+0x1cb1>
     cb3: e6 16        	inc	$16                     ; 0x2016 <main+0x1cad>
     cb5: d0 02        	bne	$cb9 <main+0x950>
     cb7: e6 17        	inc	$17                     ; 0x2017 <main+0x1cae>
     cb9: b1 12        	lda	($12),y                 ; 0x2012 <main+0x1ca9>
     cbb: 85 18        	sta	$18                     ; 0x2018 <main+0x1caf>
     cbd: b1 12        	lda	($12),y                 ; 0x2012 <main+0x1ca9>
     cbf: 92 14        	sta	($14)                   ; 0x2014 <main+0x1cab>
     cc1: e6 14        	inc	$14                     ; 0x2014 <main+0x1cab>
     cc3: d0 02        	bne	$cc7 <main+0x95e>
     cc5: e6 15        	inc	$15                     ; 0x2015 <main+0x1cac>
     cc7: a5 16        	lda	$16                     ; 0x2016 <main+0x1cad>
     cc9: 85 12        	sta	$12                     ; 0x2012 <main+0x1ca9>
     ccb: a5 17        	lda	$17                     ; 0x2017 <main+0x1cae>
     ccd: 85 13        	sta	$13                     ; 0x2013 <main+0x1caa>
     ccf: a5 18        	lda	$18                     ; 0x2018 <main+0x1caf>
     cd1: d0 e0        	bne	$cb3 <main+0x94a>
     cd3: 4c 4b 0d     	jmp	$d4b <main+0x9e2>
     cd6: b2 28        	lda	($28)                   ; 0x2028 <main+0x1cbf>
     cd8: 85 14        	sta	$14                     ; 0x2014 <main+0x1cab>
     cda: 64 5f        	stz	$5f                     ; 0x205f <main+0x1cf6>
     cdc: 20 00 ff     	jsr	$ff00 <__heap_start+0x6c30>
     cdf: 92 28        	sta	($28)                   ; 0x2028 <main+0x1cbf>
     ce1: a9 00        	lda	#$0
     ce3: 6a           	ror
     ce4: 85 12        	sta	$12                     ; 0x2012 <main+0x1ca9>
     ce6: a6 5f        	ldx	$5f                     ; 0x205f <main+0x1cf6>
     ce8: e0 48        	cpx	#$48
     cea: d0 03        	bne	$cef <main+0x986>
     cec: 4c 79 0b     	jmp	$b79 <main+0x810>
     cef: e0 3c        	cpx	#$3c
     cf1: d0 e7        	bne	$cda <main+0x971>
     cf3: a6 14        	ldx	$14                     ; 0x2014 <main+0x1cab>
     cf5: 86 52        	stx	$52                     ; 0x2052 <main+0x1ce9>
     cf7: 86 2d        	stx	$2d                     ; 0x202d <main+0x1cc4>
     cf9: a2 9a        	ldx	#$9a
     cfb: 86 12        	stx	$12                     ; 0x2012 <main+0x1ca9>
     cfd: a2 80        	ldx	#$80
     cff: 86 13        	stx	$13                     ; 0x2013 <main+0x1caa>
     d01: a2 4a        	ldx	#$4a
     d03: 86 14        	stx	$14                     ; 0x2014 <main+0x1cab>
     d05: a2 7f        	ldx	#$7f
     d07: 86 15        	stx	$15                     ; 0x2015 <main+0x1cac>
     d09: a9 20        	lda	#$20
     d0b: a2 00        	ldx	#$0
     d0d: 20 0d 7b     	jsr	$7b0d <memcpy>
     d10: a4 2d        	ldy	$2d                     ; 0x202d <main+0x1cc4>
     d12: a2 5e        	ldx	#$5e
     d14: 86 12        	stx	$12                     ; 0x2012 <main+0x1ca9>
     d16: a2 00        	ldx	#$0
     d18: 86 13        	stx	$13                     ; 0x2013 <main+0x1caa>
     d1a: 80 02        	bra	$d1e <main+0x9b5>
     d1c: a4 52        	ldy	$52                     ; 0x2052 <main+0x1ce9>
     d1e: 98           	tya
     d1f: f0 12        	beq	$d33 <main+0x9ca>
     d21: 84 f3        	sty	$f3                     ; 0x20f3 <main+0x1d8a>
     d23: 20 80 ff     	jsr	$ff80 <__heap_start+0x6cb0>
     d26: 92 28        	sta	($28)                   ; 0x2028 <main+0x1cbf>
     d28: a9 00        	lda	#$0
     d2a: 6a           	ror
     d2b: 85 12        	sta	$12                     ; 0x2012 <main+0x1ca9>
     d2d: a6 5e        	ldx	$5e                     ; 0x205e <main+0x1cf5>
     d2f: d0 02        	bne	$d33 <main+0x9ca>
     d31: 64 52        	stz	$52                     ; 0x2052 <main+0x1ce9>
     d33: 64 5f        	stz	$5f                     ; 0x205f <main+0x1cf6>
     d35: 20 00 ff     	jsr	$ff00 <__heap_start+0x6c30>
     d38: 92 28        	sta	($28)                   ; 0x2028 <main+0x1cbf>
     d3a: a9 00        	lda	#$0
     d3c: 6a           	ror
     d3d: 85 12        	sta	$12                     ; 0x2012 <main+0x1ca9>
     d3f: a6 5f        	ldx	$5f                     ; 0x205f <main+0x1cf6>
     d41: e0 46        	cpx	#$46
     d43: d0 d7        	bne	$d1c <main+0x9b3>
     d45: 4c 90 0b     	jmp	$b90 <main+0x827>
     d48: 9c ba 80     	stz	$80ba                   ; 0x80ba <fpr+0x22>
     d4b: 8a           	txa
     d4c: a0 20        	ldy	#$20
     d4e: 91 10        	sta	($10),y                 ; 0x2010 <main+0x1ca7>
     d50: 18           	clc
     d51: a5 10        	lda	$10                     ; 0x2010 <main+0x1ca7>
     d53: 69 50        	adc	#$50
     d55: 85 14        	sta	$14                     ; 0x2014 <main+0x1cab>
     d57: a5 11        	lda	$11                     ; 0x2011 <main+0x1ca8>
     d59: 69 20        	adc	#$20
     d5b: 85 15        	sta	$15                     ; 0x2015 <main+0x1cac>
     d5d: 18           	clc
     d5e: a5 14        	lda	$14                     ; 0x2014 <main+0x1cab>
     d60: a0 17        	ldy	#$17
     d62: 91 10        	sta	($10),y                 ; 0x2010 <main+0x1ca7>
     d64: 69 02        	adc	#$2
     d66: 85 18        	sta	$18                     ; 0x2018 <main+0x1caf>
     d68: a5 15        	lda	$15                     ; 0x2015 <main+0x1cac>
     d6a: 88           	dey
     d6b: 91 10        	sta	($10),y                 ; 0x2010 <main+0x1ca7>
     d6d: 69 00        	adc	#$0
     d6f: 85 19        	sta	$19                     ; 0x2019 <main+0x1cb0>
     d71: 18           	clc
     d72: a9 00        	lda	#$0
     d74: 29 fe        	and	#$fe
     d76: 85 13        	sta	$13                     ; 0x2013 <main+0x1caa>
     d78: a9 d0        	lda	#$d0
     d7a: a2 10        	ldx	#$10
     d7c: 86 12        	stx	$12                     ; 0x2012 <main+0x1ca9>
     d7e: 48           	pha
     d7f: a5 13        	lda	$13                     ; 0x2013 <main+0x1caa>
     d81: a0 10        	ldy	#$10
     d83: 91 10        	sta	($10),y                 ; 0x2010 <main+0x1ca7>
     d85: 68           	pla
     d86: 65 13        	adc	$13                     ; 0x2013 <main+0x1caa>
     d88: aa           	tax
     d89: a9 92        	lda	#$92
     d8b: 65 12        	adc	$12                     ; 0x2012 <main+0x1ca9>
     d8d: a8           	tay
     d8e: 18           	clc
     d8f: 8a           	txa
     d90: 69 fe        	adc	#$fe
     d92: 85 14        	sta	$14                     ; 0x2014 <main+0x1cab>
     d94: 98           	tya
     d95: 69 ff        	adc	#$ff
     d97: 85 15        	sta	$15                     ; 0x2015 <main+0x1cac>
     d99: a5 14        	lda	$14                     ; 0x2014 <main+0x1cab>
     d9b: a0 0e        	ldy	#$e
     d9d: 91 10        	sta	($10),y                 ; 0x2010 <main+0x1ca7>
     d9f: a5 15        	lda	$15                     ; 0x2015 <main+0x1cac>
     da1: c8           	iny
     da2: 91 10        	sta	($10),y                 ; 0x2010 <main+0x1ca7>
     da4: 18           	clc
     da5: a5 10        	lda	$10                     ; 0x2010 <main+0x1ca7>
     da7: 69 cc        	adc	#$cc
     da9: 85 14        	sta	$14                     ; 0x2014 <main+0x1cab>
     dab: a5 11        	lda	$11                     ; 0x2011 <main+0x1ca8>
     dad: 69 20        	adc	#$20
     daf: 85 15        	sta	$15                     ; 0x2015 <main+0x1cac>
     db1: 18           	clc
     db2: a5 10        	lda	$10                     ; 0x2010 <main+0x1ca7>
     db4: 69 50        	adc	#$50
     db6: 48           	pha
     db7: a5 11        	lda	$11                     ; 0x2011 <main+0x1ca8>
     db9: 69 00        	adc	#$0
     dbb: 85 12        	sta	$12                     ; 0x2012 <main+0x1ca9>
     dbd: 68           	pla
     dbe: 18           	clc
     dbf: 69 00        	adc	#$0
     dc1: 85 16        	sta	$16                     ; 0x2016 <main+0x1cad>
     dc3: a5 12        	lda	$12                     ; 0x2012 <main+0x1ca9>
     dc5: 69 08        	adc	#$8
     dc7: 48           	pha
     dc8: a5 18        	lda	$18                     ; 0x2018 <main+0x1caf>
     dca: a0 41        	ldy	#$41
     dcc: 91 10        	sta	($10),y                 ; 0x2010 <main+0x1ca7>
     dce: a5 19        	lda	$19                     ; 0x2019 <main+0x1cb0>
     dd0: 88           	dey
     dd1: 91 10        	sta	($10),y                 ; 0x2010 <main+0x1ca7>
     dd3: a5 18        	lda	$18                     ; 0x2018 <main+0x1caf>
     dd5: a0 35        	ldy	#$35
     dd7: 91 10        	sta	($10),y                 ; 0x2010 <main+0x1ca7>
     dd9: a5 19        	lda	$19                     ; 0x2019 <main+0x1cb0>
     ddb: c8           	iny
     ddc: 91 10        	sta	($10),y                 ; 0x2010 <main+0x1ca7>
     dde: a6 26        	ldx	$26                     ; 0x2026 <main+0x1cbd>
     de0: 86 12        	stx	$12                     ; 0x2012 <main+0x1ca9>
     de2: a6 27        	ldx	$27                     ; 0x2027 <main+0x1cbe>
     de4: 86 13        	stx	$13                     ; 0x2013 <main+0x1caa>
     de6: e6 12        	inc	$12                     ; 0x2012 <main+0x1ca9>
     de8: d0 02        	bne	$dec <main+0xa83>
     dea: e6 13        	inc	$13                     ; 0x2013 <main+0x1caa>
     dec: a5 12        	lda	$12                     ; 0x2012 <main+0x1ca9>
     dee: a0 42        	ldy	#$42
     df0: 91 10        	sta	($10),y                 ; 0x2010 <main+0x1ca7>
     df2: a5 13        	lda	$13                     ; 0x2013 <main+0x1caa>
     df4: c8           	iny
     df5: 91 10        	sta	($10),y                 ; 0x2010 <main+0x1ca7>
     df7: e6 14        	inc	$14                     ; 0x2014 <main+0x1cab>
     df9: d0 02        	bne	$dfd <main+0xa94>
     dfb: e6 15        	inc	$15                     ; 0x2015 <main+0x1cac>
     dfd: a5 14        	lda	$14                     ; 0x2014 <main+0x1cab>
     dff: a0 47        	ldy	#$47
     e01: 91 10        	sta	($10),y                 ; 0x2010 <main+0x1ca7>
     e03: a5 15        	lda	$15                     ; 0x2015 <main+0x1cac>
     e05: c8           	iny
     e06: 91 10        	sta	($10),y                 ; 0x2010 <main+0x1ca7>
     e08: a6 26        	ldx	$26                     ; 0x2026 <main+0x1cbd>
     e0a: 86 12        	stx	$12                     ; 0x2012 <main+0x1ca9>
     e0c: a6 27        	ldx	$27                     ; 0x2027 <main+0x1cbe>
     e0e: 86 13        	stx	$13                     ; 0x2013 <main+0x1caa>
     e10: e6 12        	inc	$12                     ; 0x2012 <main+0x1ca9>
     e12: d0 02        	bne	$e16 <main+0xaad>
     e14: e6 13        	inc	$13                     ; 0x2013 <main+0x1caa>
     e16: a5 12        	lda	$12                     ; 0x2012 <main+0x1ca9>
     e18: a0 45        	ldy	#$45
     e1a: 91 10        	sta	($10),y                 ; 0x2010 <main+0x1ca7>
     e1c: a5 13        	lda	$13                     ; 0x2013 <main+0x1caa>
     e1e: c8           	iny
     e1f: 91 10        	sta	($10),y                 ; 0x2010 <main+0x1ca7>
     e21: 68           	pla
     e22: 85 17        	sta	$17                     ; 0x2017 <main+0x1cae>
     e24: a5 16        	lda	$16                     ; 0x2016 <main+0x1cad>
     e26: a0 14        	ldy	#$14
     e28: 91 10        	sta	($10),y                 ; 0x2010 <main+0x1ca7>
     e2a: a5 17        	lda	$17                     ; 0x2017 <main+0x1cae>
     e2c: c8           	iny
     e2d: 91 10        	sta	($10),y                 ; 0x2010 <main+0x1ca7>
     e2f: a2 9a        	ldx	#$9a
     e31: 8a           	txa
     e32: a0 19        	ldy	#$19
     e34: 91 10        	sta	($10),y                 ; 0x2010 <main+0x1ca7>
     e36: a2 80        	ldx	#$80
     e38: 8a           	txa
     e39: a0 37        	ldy	#$37
     e3b: 91 10        	sta	($10),y                 ; 0x2010 <main+0x1ca7>
     e3d: 64 13        	stz	$13                     ; 0x2013 <main+0x1caa>
     e3f: 64 12        	stz	$12                     ; 0x2012 <main+0x1ca9>
     e41: a9 00        	lda	#$0
     e43: a0 39        	ldy	#$39
     e45: 91 10        	sta	($10),y                 ; 0x2010 <main+0x1ca7>
     e47: c8           	iny
     e48: 91 10        	sta	($10),y                 ; 0x2010 <main+0x1ca7>
     e4a: 4c fe 2e     	jmp	$2efe <main+0x2b95>
     e4d: ad 9a 80     	lda	$809a                   ; 0x809a <fpr+0x2>
     e50: d0 03        	bne	$e55 <main+0xaec>
     e52: 4c f6 0f     	jmp	$ff6 <main+0xc8d>
     e55: c9 2f        	cmp	#$2f
     e57: d0 0c        	bne	$e65 <main+0xafc>
     e59: ae 9b 80     	ldx	$809b                   ; 0x809b <fpr+0x3>
     e5c: a9 2f        	lda	#$2f
     e5e: e0 00        	cpx	#$0
     e60: d0 03        	bne	$e65 <main+0xafc>
     e62: 4c f6 0f     	jmp	$ff6 <main+0xc8d>
     e65: a2 9a        	ldx	#$9a
     e67: 86 14        	stx	$14                     ; 0x2014 <main+0x1cab>
     e69: a2 80        	ldx	#$80
     e6b: 86 15        	stx	$15                     ; 0x2015 <main+0x1cac>
     e6d: a2 00        	ldx	#$0
     e6f: 86 12        	stx	$12                     ; 0x2012 <main+0x1ca9>
     e71: a2 00        	ldx	#$0
     e73: 86 13        	stx	$13                     ; 0x2013 <main+0x1caa>
     e75: a2 00        	ldx	#$0
     e77: 86 16        	stx	$16                     ; 0x2016 <main+0x1cad>
     e79: a2 00        	ldx	#$0
     e7b: 86 17        	stx	$17                     ; 0x2017 <main+0x1cae>
     e7d: a0 01        	ldy	#$1
     e7f: 80 0e        	bra	$e8f <main+0xb26>
     e81: b1 14        	lda	($14),y                 ; 0x2014 <main+0x1cab>
     e83: e6 14        	inc	$14                     ; 0x2014 <main+0x1cab>
     e85: d0 02        	bne	$e89 <main+0xb20>
     e87: e6 15        	inc	$15                     ; 0x2015 <main+0x1cac>
     e89: aa           	tax
     e8a: d0 03        	bne	$e8f <main+0xb26>
     e8c: 4c bc 0f     	jmp	$fbc <main+0xc53>
     e8f: c9 2f        	cmp	#$2f
     e91: d0 ee        	bne	$e81 <main+0xb18>
     e93: a6 14        	ldx	$14                     ; 0x2014 <main+0x1cab>
     e95: 86 12        	stx	$12                     ; 0x2012 <main+0x1ca9>
     e97: a6 15        	ldx	$15                     ; 0x2015 <main+0x1cac>
     e99: 86 13        	stx	$13                     ; 0x2013 <main+0x1caa>
     e9b: b1 14        	lda	($14),y                 ; 0x2014 <main+0x1cab>
     e9d: e6 14        	inc	$14                     ; 0x2014 <main+0x1cab>
     e9f: d0 e8        	bne	$e89 <main+0xb20>
     ea1: 80 e4        	bra	$e87 <main+0xb1e>
     ea3: a6 10        	ldx	$10                     ; 0x2010 <main+0x1ca7>
     ea5: a4 11        	ldy	$11                     ; 0x2011 <main+0x1ca8>
     ea7: 18           	clc
     ea8: 8a           	txa
     ea9: 69 02        	adc	#$2
     eab: 85 12        	sta	$12                     ; 0x2012 <main+0x1ca9>
     ead: 98           	tya
     eae: 69 00        	adc	#$0
     eb0: 85 13        	sta	$13                     ; 0x2013 <main+0x1caa>
     eb2: 18           	clc
     eb3: 8a           	txa
     eb4: 69 04        	adc	#$4
     eb6: 85 14        	sta	$14                     ; 0x2014 <main+0x1cab>
     eb8: 98           	tya
     eb9: 69 00        	adc	#$0
     ebb: aa           	tax
     ebc: a9 9a        	lda	#$9a
     ebe: 92 10        	sta	($10)                   ; 0x2010 <main+0x1ca7>
     ec0: a9 80        	lda	#$80
     ec2: a0 01        	ldy	#$1
     ec4: 91 10        	sta	($10),y                 ; 0x2010 <main+0x1ca7>
     ec6: a9 52        	lda	#$52
     ec8: c8           	iny
     ec9: 91 10        	sta	($10),y                 ; 0x2010 <main+0x1ca7>
     ecb: a9 7d        	lda	#$7d
     ecd: 88           	dey
     ece: 91 12        	sta	($12),y                 ; 0x2012 <main+0x1ca9>
     ed0: a4 14        	ldy	$14                     ; 0x2014 <main+0x1cab>
     ed2: 84 12        	sty	$12                     ; 0x2012 <main+0x1ca9>
     ed4: 86 13        	stx	$13                     ; 0x2013 <main+0x1caa>
     ed6: a9 ba        	lda	#$ba
     ed8: a0 04        	ldy	#$4
     eda: 91 10        	sta	($10),y                 ; 0x2010 <main+0x1ca7>
     edc: a9 80        	lda	#$80
     ede: a0 01        	ldy	#$1
     ee0: 91 12        	sta	($12),y                 ; 0x2012 <main+0x1ca9>
     ee2: a6 26        	ldx	$26                     ; 0x2026 <main+0x1cbd>
     ee4: 86 12        	stx	$12                     ; 0x2012 <main+0x1ca9>
     ee6: a6 27        	ldx	$27                     ; 0x2027 <main+0x1cbe>
     ee8: 86 13        	stx	$13                     ; 0x2013 <main+0x1caa>
     eea: a2 74        	ldx	#$74
     eec: 86 14        	stx	$14                     ; 0x2014 <main+0x1cab>
     eee: a2 7e        	ldx	#$7e
     ef0: 86 15        	stx	$15                     ; 0x2015 <main+0x1cac>
     ef2: 20 33 7a     	jsr	$7a33 <sprintf>
     ef5: a2 12        	ldx	#$12
     ef7: 86 12        	stx	$12                     ; 0x2012 <main+0x1ca9>
     ef9: a2 81        	ldx	#$81
     efb: 86 13        	stx	$13                     ; 0x2013 <main+0x1caa>
     efd: 64 24        	stz	$24                     ; 0x2024 <main+0x1cbb>
     eff: a2 11        	ldx	#$11
     f01: 86 14        	stx	$14                     ; 0x2014 <main+0x1cab>
     f03: a2 04        	ldx	#$4
     f05: a9 00        	lda	#$0
     f07: 20 39 7b     	jsr	$7b39 <__memset>
     f0a: a2 17        	ldx	#$17
     f0c: 86 12        	stx	$12                     ; 0x2012 <main+0x1ca9>
     f0e: a2 92        	ldx	#$92
     f10: 86 13        	stx	$13                     ; 0x2013 <main+0x1caa>
     f12: 64 14        	stz	$14                     ; 0x2014 <main+0x1cab>
     f14: a2 6b        	ldx	#$6b
     f16: a9 00        	lda	#$0
     f18: 20 39 7b     	jsr	$7b39 <__memset>
     f1b: b2 26        	lda	($26)                   ; 0x2026 <main+0x1cbd>
     f1d: aa           	tax
     f1e: b2 26        	lda	($26)                   ; 0x2026 <main+0x1cbd>
     f20: 8d 9a 80     	sta	$809a                   ; 0x809a <fpr+0x2>
     f23: 8a           	txa
     f24: d0 03        	bne	$f29 <main+0xbc0>
     f26: 4c cc 0f     	jmp	$fcc <main+0xc63>
     f29: a0 01        	ldy	#$1
     f2b: b1 26        	lda	($26),y                 ; 0x2026 <main+0x1cbd>
     f2d: aa           	tax
     f2e: b1 26        	lda	($26),y                 ; 0x2026 <main+0x1cbd>
     f30: 8d 9b 80     	sta	$809b                   ; 0x809b <fpr+0x3>
     f33: 8a           	txa
     f34: d0 03        	bne	$f39 <main+0xbd0>
     f36: 4c a2 13     	jmp	$13a2 <main+0x1039>
     f39: a0 02        	ldy	#$2
     f3b: b1 26        	lda	($26),y                 ; 0x2026 <main+0x1cbd>
     f3d: aa           	tax
     f3e: b1 26        	lda	($26),y                 ; 0x2026 <main+0x1cbd>
     f40: 8d 9c 80     	sta	$809c                   ; 0x809c <fpr+0x4>
     f43: 8a           	txa
     f44: d0 03        	bne	$f49 <main+0xbe0>
     f46: 4c a6 13     	jmp	$13a6 <main+0x103d>
     f49: a0 03        	ldy	#$3
     f4b: b1 26        	lda	($26),y                 ; 0x2026 <main+0x1cbd>
     f4d: aa           	tax
     f4e: b1 26        	lda	($26),y                 ; 0x2026 <main+0x1cbd>
     f50: 8d 9d 80     	sta	$809d                   ; 0x809d <fpr+0x5>
     f53: 8a           	txa
     f54: d0 03        	bne	$f59 <main+0xbf0>
     f56: 4c aa 13     	jmp	$13aa <main+0x1041>
     f59: a0 04        	ldy	#$4
     f5b: b1 26        	lda	($26),y                 ; 0x2026 <main+0x1cbd>
     f5d: aa           	tax
     f5e: b1 26        	lda	($26),y                 ; 0x2026 <main+0x1cbd>
     f60: 8d 9e 80     	sta	$809e                   ; 0x809e <fpr+0x6>
     f63: 8a           	txa
     f64: d0 03        	bne	$f69 <main+0xc00>
     f66: 4c ae 13     	jmp	$13ae <main+0x1045>
     f69: a0 05        	ldy	#$5
     f6b: b1 26        	lda	($26),y                 ; 0x2026 <main+0x1cbd>
     f6d: aa           	tax
     f6e: b1 26        	lda	($26),y                 ; 0x2026 <main+0x1cbd>
     f70: 8d 9f 80     	sta	$809f                   ; 0x809f <fpr+0x7>
     f73: 8a           	txa
     f74: d0 03        	bne	$f79 <main+0xc10>
     f76: 4c b2 13     	jmp	$13b2 <main+0x1049>
     f79: a0 06        	ldy	#$6
     f7b: b1 26        	lda	($26),y                 ; 0x2026 <main+0x1cbd>
     f7d: aa           	tax
     f7e: b1 26        	lda	($26),y                 ; 0x2026 <main+0x1cbd>
     f80: 8d a0 80     	sta	$80a0                   ; 0x80a0 <fpr+0x8>
     f83: 8a           	txa
     f84: d0 03        	bne	$f89 <main+0xc20>
     f86: 4c b6 13     	jmp	$13b6 <main+0x104d>
     f89: a0 07        	ldy	#$7
     f8b: b1 26        	lda	($26),y                 ; 0x2026 <main+0x1cbd>
     f8d: aa           	tax
     f8e: b1 26        	lda	($26),y                 ; 0x2026 <main+0x1cbd>
     f90: 8d a1 80     	sta	$80a1                   ; 0x80a1 <fpr+0x9>
     f93: 8a           	txa
     f94: d0 03        	bne	$f99 <main+0xc30>
     f96: 4c ba 13     	jmp	$13ba <main+0x1051>
     f99: a0 08        	ldy	#$8
     f9b: b1 26        	lda	($26),y                 ; 0x2026 <main+0x1cbd>
     f9d: aa           	tax
     f9e: b1 26        	lda	($26),y                 ; 0x2026 <main+0x1cbd>
     fa0: 8d a2 80     	sta	$80a2                   ; 0x80a2 <fpr+0xa>
     fa3: 8a           	txa
     fa4: d0 03        	bne	$fa9 <main+0xc40>
     fa6: 4c ea 2e     	jmp	$2eea <main+0x2b81>
     fa9: a0 09        	ldy	#$9
     fab: b1 26        	lda	($26),y                 ; 0x2026 <main+0x1cbd>
     fad: aa           	tax
     fae: b1 26        	lda	($26),y                 ; 0x2026 <main+0x1cbd>
     fb0: 8d a3 80     	sta	$80a3                   ; 0x80a3 <fpr+0xb>
     fb3: 8a           	txa
     fb4: f0 03        	beq	$fb9 <main+0xc50>
     fb6: 4c d7 2e     	jmp	$2ed7 <main+0x2b6e>
     fb9: 4c 4b 3b     	jmp	$3b4b <main+0x37e2>
     fbc: a6 13        	ldx	$13                     ; 0x2013 <main+0x1caa>
     fbe: e4 17        	cpx	$17                     ; 0x2017 <main+0x1cae>
     fc0: d0 0f        	bne	$fd1 <main+0xc68>
     fc2: a6 12        	ldx	$12                     ; 0x2012 <main+0x1ca9>
     fc4: a9 00        	lda	#$0
     fc6: e4 16        	cpx	$16                     ; 0x2016 <main+0x1cad>
     fc8: d0 09        	bne	$fd3 <main+0xc6a>
     fca: 80 23        	bra	$fef <main+0xc86>
     fcc: a2 1f        	ldx	#$1f
     fce: 4c be 13     	jmp	$13be <main+0x1055>
     fd1: a9 00        	lda	#$0
     fd3: a6 13        	ldx	$13                     ; 0x2013 <main+0x1caa>
     fd5: 48           	pha
     fd6: a0 37        	ldy	#$37
     fd8: b1 10        	lda	($10),y                 ; 0x2010 <main+0x1ca7>
     fda: 85 14        	sta	$14                     ; 0x2014 <main+0x1cab>
     fdc: 68           	pla
     fdd: e4 14        	cpx	$14                     ; 0x2014 <main+0x1cab>
     fdf: d0 13        	bne	$ff4 <main+0xc8b>
     fe1: a6 12        	ldx	$12                     ; 0x2012 <main+0x1ca9>
     fe3: 48           	pha
     fe4: a0 19        	ldy	#$19
     fe6: b1 10        	lda	($10),y                 ; 0x2010 <main+0x1ca7>
     fe8: 85 14        	sta	$14                     ; 0x2014 <main+0x1cab>
     fea: 68           	pla
     feb: e4 14        	cpx	$14                     ; 0x2014 <main+0x1cab>
     fed: d0 05        	bne	$ff4 <main+0xc8b>
     fef: 9c 9a 80     	stz	$809a                   ; 0x809a <fpr+0x2>
     ff2: 80 02        	bra	$ff6 <main+0xc8d>
     ff4: 92 12        	sta	($12)                   ; 0x2012 <main+0x1ca9>
     ff6: a2 12        	ldx	#$12
     ff8: 86 12        	stx	$12                     ; 0x2012 <main+0x1ca9>
     ffa: a2 81        	ldx	#$81
     ffc: 86 13        	stx	$13                     ; 0x2013 <main+0x1caa>
     ffe: a2 11        	ldx	#$11
    1000: 86 14        	stx	$14                     ; 0x2014 <main+0x1cab>
    1002: a2 04        	ldx	#$4
    1004: a9 00        	lda	#$0
    1006: 20 39 7b     	jsr	$7b39 <__memset>
    1009: a2 17        	ldx	#$17
    100b: 86 12        	stx	$12                     ; 0x2012 <main+0x1ca9>
    100d: a2 92        	ldx	#$92
    100f: 86 13        	stx	$13                     ; 0x2013 <main+0x1caa>
    1011: 64 14        	stz	$14                     ; 0x2014 <main+0x1cab>
    1013: a2 6b        	ldx	#$6b
    1015: a9 00        	lda	#$0
    1017: 20 39 7b     	jsr	$7b39 <__memset>
    101a: 20 14 61     	jsr	$6114 <readDirectory>
    101d: a6 41        	ldx	$41                     ; 0x2041 <main+0x1cd8>
    101f: 8e e6 80     	stx	$80e6                   ; 0x80e6 <fpr+0x4e>
    1022: a6 42        	ldx	$42                     ; 0x2042 <main+0x1cd9>
    1024: 8e e7 80     	stx	$80e7                   ; 0x80e7 <fpr+0x4f>
    1027: a6 43        	ldx	$43                     ; 0x2043 <main+0x1cda>
    1029: 8e e8 80     	stx	$80e8                   ; 0x80e8 <fpr+0x50>
    102c: a2 01        	ldx	#$1
    102e: 8e 16 92     	stx	$9216                   ; 0x9216 <fpr+0x117e>
    1031: ae 7a 92     	ldx	$927a                   ; 0x927a <fpr+0x11e2>
    1034: ad 7b 92     	lda	$927b                   ; 0x927b <fpr+0x11e3>
    1037: 48           	pha
    1038: 8a           	txa
    1039: a0 4e        	ldy	#$4e
    103b: 91 10        	sta	($10),y                 ; 0x2010 <main+0x1ca7>
    103d: 68           	pla
    103e: e0 03        	cpx	#$3
    1040: 88           	dey
    1041: 91 10        	sta	($10),y                 ; 0x2010 <main+0x1ca7>
    1043: e9 00        	sbc	#$0
    1045: 50 02        	bvc	$1049 <main+0xce0>
    1047: 49 80        	eor	#$80
    1049: aa           	tax
    104a: 10 03        	bpl	$104f <main+0xce6>
    104c: 4c ad 37     	jmp	$37ad <main+0x3444>
    104f: a2 01        	ldx	#$1
    1051: 64 15        	stz	$15                     ; 0x2015 <main+0x1cac>
    1053: 86 14        	stx	$14                     ; 0x2014 <main+0x1cab>
    1055: 4c 61 13     	jmp	$1361 <main+0xff8>
    1058: a2 2c        	ldx	#$2c
    105a: a4 25        	ldy	$25                     ; 0x2025 <main+0x1cbc>
    105c: c4 12        	cpy	$12                     ; 0x2012 <main+0x1ca9>
    105e: f0 03        	beq	$1063 <main+0xcfa>
    1060: 4c 0b 11     	jmp	$110b <main+0xda2>
    1063: a5 2a        	lda	$2a                     ; 0x202a <main+0x1cc1>
    1065: a0 49        	ldy	#$49
    1067: 91 10        	sta	($10),y                 ; 0x2010 <main+0x1ca7>
    1069: a5 2b        	lda	$2b                     ; 0x202b <main+0x1cc2>
    106b: c8           	iny
    106c: 91 10        	sta	($10),y                 ; 0x2010 <main+0x1ca7>
    106e: 86 12        	stx	$12                     ; 0x2012 <main+0x1ca9>
    1070: 64 13        	stz	$13                     ; 0x2013 <main+0x1caa>
    1072: a6 2d        	ldx	$2d                     ; 0x202d <main+0x1cc4>
    1074: a5 24        	lda	$24                     ; 0x2024 <main+0x1cbb>
    1076: 20 59 7b     	jsr	$7b59 <__mulhi3>
    1079: 85 12        	sta	$12                     ; 0x2012 <main+0x1ca9>
    107b: 86 13        	stx	$13                     ; 0x2013 <main+0x1caa>
    107d: a9 e6        	lda	#$e6
    107f: 18           	clc
    1080: 65 12        	adc	$12                     ; 0x2012 <main+0x1ca9>
    1082: 85 2a        	sta	$2a                     ; 0x202a <main+0x1cc1>
    1084: a9 80        	lda	#$80
    1086: 65 13        	adc	$13                     ; 0x2013 <main+0x1caa>
    1088: 85 2b        	sta	$2b                     ; 0x202b <main+0x1cc2>
    108a: a2 2c        	ldx	#$2c
    108c: 86 12        	stx	$12                     ; 0x2012 <main+0x1ca9>
    108e: 64 13        	stz	$13                     ; 0x2013 <main+0x1caa>
    1090: a6 27        	ldx	$27                     ; 0x2027 <main+0x1cbe>
    1092: a5 26        	lda	$26                     ; 0x2026 <main+0x1cbd>
    1094: 20 59 7b     	jsr	$7b59 <__mulhi3>
    1097: 85 14        	sta	$14                     ; 0x2014 <main+0x1cab>
    1099: b2 2a        	lda	($2a)                   ; 0x202a <main+0x1cc1>
    109b: 64 12        	stz	$12                     ; 0x2012 <main+0x1ca9>
    109d: d0 03        	bne	$10a2 <main+0xd39>
    109f: 4c 12 11     	jmp	$1112 <main+0xda9>
    10a2: a6 2e        	ldx	$2e                     ; 0x202e <main+0x1cc5>
    10a4: 86 16        	stx	$16                     ; 0x2016 <main+0x1cad>
    10a6: a6 2f        	ldx	$2f                     ; 0x202f <main+0x1cc6>
    10a8: 86 17        	stx	$17                     ; 0x2017 <main+0x1cae>
    10aa: 85 2c        	sta	$2c                     ; 0x202c <main+0x1cc3>
    10ac: 48           	pha
    10ad: a0 49        	ldy	#$49
    10af: b1 10        	lda	($10),y                 ; 0x2010 <main+0x1ca7>
    10b1: 85 2a        	sta	$2a                     ; 0x202a <main+0x1cc1>
    10b3: c8           	iny
    10b4: b1 10        	lda	($10),y                 ; 0x2010 <main+0x1ca7>
    10b6: 85 2b        	sta	$2b                     ; 0x202b <main+0x1cc2>
    10b8: 68           	pla
    10b9: 80 2f        	bra	$10ea <main+0xd81>
    10bb: a0 2c        	ldy	#$2c
    10bd: a5 13        	lda	$13                     ; 0x2013 <main+0x1caa>
    10bf: c9 41        	cmp	#$41
    10c1: 90 06        	bcc	$10c9 <main+0xd60>
    10c3: c9 5b        	cmp	#$5b
    10c5: b0 02        	bcs	$10c9 <main+0xd60>
    10c7: 09 20        	ora	#$20
    10c9: 85 16        	sta	$16                     ; 0x2016 <main+0x1cad>
    10cb: 86 13        	stx	$13                     ; 0x2013 <main+0x1caa>
    10cd: e4 16        	cpx	$16                     ; 0x2016 <main+0x1cad>
    10cf: f0 03        	beq	$10d4 <main+0xd6b>
    10d1: 4c 92 11     	jmp	$1192 <main+0xe29>
    10d4: b2 14        	lda	($14)                   ; 0x2014 <main+0x1cab>
    10d6: a6 14        	ldx	$14                     ; 0x2014 <main+0x1cab>
    10d8: 86 16        	stx	$16                     ; 0x2016 <main+0x1cad>
    10da: a6 15        	ldx	$15                     ; 0x2015 <main+0x1cac>
    10dc: 86 17        	stx	$17                     ; 0x2017 <main+0x1cae>
    10de: e6 16        	inc	$16                     ; 0x2016 <main+0x1cad>
    10e0: d0 02        	bne	$10e4 <main+0xd7b>
    10e2: e6 17        	inc	$17                     ; 0x2017 <main+0x1cae>
    10e4: aa           	tax
    10e5: d0 03        	bne	$10ea <main+0xd81>
    10e7: 4c 69 11     	jmp	$1169 <main+0xe00>
    10ea: aa           	tax
    10eb: a4 16        	ldy	$16                     ; 0x2016 <main+0x1cad>
    10ed: 84 14        	sty	$14                     ; 0x2014 <main+0x1cab>
    10ef: a4 17        	ldy	$17                     ; 0x2017 <main+0x1cae>
    10f1: 84 15        	sty	$15                     ; 0x2015 <main+0x1cac>
    10f3: a0 2b        	ldy	#$2b
    10f5: b1 16        	lda	($16),y                 ; 0x2016 <main+0x1cad>
    10f7: f0 42        	beq	$113b <main+0xdd2>
    10f9: 85 13        	sta	$13                     ; 0x2013 <main+0x1caa>
    10fb: e0 41        	cpx	#$41
    10fd: 90 bc        	bcc	$10bb <main+0xd52>
    10ff: 8a           	txa
    1100: c9 5b        	cmp	#$5b
    1102: a0 2c        	ldy	#$2c
    1104: b0 b7        	bcs	$10bd <main+0xd54>
    1106: 09 20        	ora	#$20
    1108: aa           	tax
    1109: 80 b2        	bra	$10bd <main+0xd54>
    110b: a6 12        	ldx	$12                     ; 0x2012 <main+0x1ca9>
    110d: 86 25        	stx	$25                     ; 0x2025 <main+0x1cbc>
    110f: 4c 80 12     	jmp	$1280 <main+0xf17>
    1112: 86 13        	stx	$13                     ; 0x2013 <main+0x1caa>
    1114: 85 2c        	sta	$2c                     ; 0x202c <main+0x1cc3>
    1116: a9 e6        	lda	#$e6
    1118: 18           	clc
    1119: 65 14        	adc	$14                     ; 0x2014 <main+0x1cab>
    111b: 85 14        	sta	$14                     ; 0x2014 <main+0x1cab>
    111d: a9 80        	lda	#$80
    111f: 65 13        	adc	$13                     ; 0x2013 <main+0x1caa>
    1121: 85 15        	sta	$15                     ; 0x2015 <main+0x1cac>
    1123: a0 2c        	ldy	#$2c
    1125: 5a           	phy
    1126: a0 49        	ldy	#$49
    1128: b1 10        	lda	($10),y                 ; 0x2010 <main+0x1ca7>
    112a: 85 2a        	sta	$2a                     ; 0x202a <main+0x1cc1>
    112c: c8           	iny
    112d: b1 10        	lda	($10),y                 ; 0x2010 <main+0x1ca7>
    112f: 7a           	ply
    1130: 85 2b        	sta	$2b                     ; 0x202b <main+0x1cc2>
    1132: b2 14        	lda	($14)                   ; 0x2014 <main+0x1cab>
    1134: c9 41        	cmp	#$41
    1136: b0 50        	bcs	$1188 <main+0xe1f>
    1138: 4c 8e 11     	jmp	$118e <main+0xe25>
    113b: e0 41        	cpx	#$41
    113d: a0 01        	ldy	#$1
    113f: b0 02        	bcs	$1143 <main+0xdda>
    1141: a0 00        	ldy	#$0
    1143: 84 12        	sty	$12                     ; 0x2012 <main+0x1ca9>
    1145: a5 14        	lda	$14                     ; 0x2014 <main+0x1cab>
    1147: 18           	clc
    1148: 69 2b        	adc	#$2b
    114a: 85 14        	sta	$14                     ; 0x2014 <main+0x1cab>
    114c: a5 15        	lda	$15                     ; 0x2015 <main+0x1cac>
    114e: 69 00        	adc	#$0
    1150: 85 15        	sta	$15                     ; 0x2015 <main+0x1cac>
    1152: a5 12        	lda	$12                     ; 0x2012 <main+0x1ca9>
    1154: f0 28        	beq	$117e <main+0xe15>
    1156: e0 5b        	cpx	#$5b
    1158: a0 2c        	ldy	#$2c
    115a: 8a           	txa
    115b: b0 02        	bcs	$115f <main+0xdf6>
    115d: 09 20        	ora	#$20
    115f: 85 12        	sta	$12                     ; 0x2012 <main+0x1ca9>
    1161: b2 14        	lda	($14)                   ; 0x2014 <main+0x1cab>
    1163: c9 41        	cmp	#$41
    1165: b0 21        	bcs	$1188 <main+0xe1f>
    1167: 80 25        	bra	$118e <main+0xe25>
    1169: a5 14        	lda	$14                     ; 0x2014 <main+0x1cab>
    116b: 18           	clc
    116c: 69 2c        	adc	#$2c
    116e: 85 14        	sta	$14                     ; 0x2014 <main+0x1cab>
    1170: a5 15        	lda	$15                     ; 0x2015 <main+0x1cac>
    1172: 69 00        	adc	#$0
    1174: 85 15        	sta	$15                     ; 0x2015 <main+0x1cac>
    1176: b2 14        	lda	($14)                   ; 0x2014 <main+0x1cab>
    1178: c9 41        	cmp	#$41
    117a: b0 0c        	bcs	$1188 <main+0xe1f>
    117c: 80 10        	bra	$118e <main+0xe25>
    117e: 86 12        	stx	$12                     ; 0x2012 <main+0x1ca9>
    1180: a0 2c        	ldy	#$2c
    1182: b2 14        	lda	($14)                   ; 0x2014 <main+0x1cab>
    1184: c9 41        	cmp	#$41
    1186: 90 06        	bcc	$118e <main+0xe25>
    1188: c9 5b        	cmp	#$5b
    118a: b0 02        	bcs	$118e <main+0xe25>
    118c: 09 20        	ora	#$20
    118e: a6 12        	ldx	$12                     ; 0x2012 <main+0x1ca9>
    1190: 86 13        	stx	$13                     ; 0x2013 <main+0x1caa>
    1192: c5 13        	cmp	$13                     ; 0x2013 <main+0x1caa>
    1194: 90 03        	bcc	$1199 <main+0xe30>
    1196: 4c 80 12     	jmp	$1280 <main+0xf17>
    1199: 84 12        	sty	$12                     ; 0x2012 <main+0x1ca9>
    119b: 64 13        	stz	$13                     ; 0x2013 <main+0x1caa>
    119d: a6 2d        	ldx	$2d                     ; 0x202d <main+0x1cc4>
    119f: a5 24        	lda	$24                     ; 0x2024 <main+0x1cbb>
    11a1: 20 59 7b     	jsr	$7b59 <__mulhi3>
    11a4: 85 12        	sta	$12                     ; 0x2012 <main+0x1ca9>
    11a6: 86 13        	stx	$13                     ; 0x2013 <main+0x1caa>
    11a8: a9 e6        	lda	#$e6
    11aa: 18           	clc
    11ab: 65 12        	adc	$12                     ; 0x2012 <main+0x1ca9>
    11ad: 85 24        	sta	$24                     ; 0x2024 <main+0x1cbb>
    11af: a9 80        	lda	#$80
    11b1: 65 13        	adc	$13                     ; 0x2013 <main+0x1caa>
    11b3: 85 25        	sta	$25                     ; 0x2025 <main+0x1cbc>
    11b5: a5 2c        	lda	$2c                     ; 0x202c <main+0x1cc3>
    11b7: f0 31        	beq	$11ea <main+0xe81>
    11b9: a6 2e        	ldx	$2e                     ; 0x202e <main+0x1cc5>
    11bb: 86 12        	stx	$12                     ; 0x2012 <main+0x1ca9>
    11bd: a6 2f        	ldx	$2f                     ; 0x202f <main+0x1cc6>
    11bf: 86 13        	stx	$13                     ; 0x2013 <main+0x1caa>
    11c1: a0 45        	ldy	#$45
    11c3: b1 10        	lda	($10),y                 ; 0x2010 <main+0x1ca7>
    11c5: 85 14        	sta	$14                     ; 0x2014 <main+0x1cab>
    11c7: c8           	iny
    11c8: b1 10        	lda	($10),y                 ; 0x2010 <main+0x1ca7>
    11ca: 85 15        	sta	$15                     ; 0x2015 <main+0x1cac>
    11cc: 80 0b        	bra	$11d9 <main+0xe70>
    11ce: e6 15        	inc	$15                     ; 0x2015 <main+0x1cac>
    11d0: e6 12        	inc	$12                     ; 0x2012 <main+0x1ca9>
    11d2: d0 02        	bne	$11d6 <main+0xe6d>
    11d4: e6 13        	inc	$13                     ; 0x2013 <main+0x1caa>
    11d6: 8a           	txa
    11d7: f0 11        	beq	$11ea <main+0xe81>
    11d9: b2 12        	lda	($12)                   ; 0x2012 <main+0x1ca9>
    11db: aa           	tax
    11dc: b2 12        	lda	($12)                   ; 0x2012 <main+0x1ca9>
    11de: 92 14        	sta	($14)                   ; 0x2014 <main+0x1cab>
    11e0: e6 14        	inc	$14                     ; 0x2014 <main+0x1cab>
    11e2: f0 ea        	beq	$11ce <main+0xe65>
    11e4: e6 12        	inc	$12                     ; 0x2012 <main+0x1ca9>
    11e6: f0 ec        	beq	$11d4 <main+0xe6b>
    11e8: 80 ec        	bra	$11d6 <main+0xe6d>
    11ea: a2 2c        	ldx	#$2c
    11ec: 86 12        	stx	$12                     ; 0x2012 <main+0x1ca9>
    11ee: 64 13        	stz	$13                     ; 0x2013 <main+0x1caa>
    11f0: a6 27        	ldx	$27                     ; 0x2027 <main+0x1cbe>
    11f2: a5 26        	lda	$26                     ; 0x2026 <main+0x1cbd>
    11f4: 20 59 7b     	jsr	$7b59 <__mulhi3>
    11f7: a0 2c        	ldy	#$2c
    11f9: 85 12        	sta	$12                     ; 0x2012 <main+0x1ca9>
    11fb: 86 13        	stx	$13                     ; 0x2013 <main+0x1caa>
    11fd: a9 e6        	lda	#$e6
    11ff: 18           	clc
    1200: 65 12        	adc	$12                     ; 0x2012 <main+0x1ca9>
    1202: 85 12        	sta	$12                     ; 0x2012 <main+0x1ca9>
    1204: a9 80        	lda	#$80
    1206: 65 13        	adc	$13                     ; 0x2013 <main+0x1caa>
    1208: 85 13        	sta	$13                     ; 0x2013 <main+0x1caa>
    120a: b2 12        	lda	($12)                   ; 0x2012 <main+0x1ca9>
    120c: aa           	tax
    120d: b2 12        	lda	($12)                   ; 0x2012 <main+0x1ca9>
    120f: 92 24        	sta	($24)                   ; 0x2024 <main+0x1cbb>
    1211: 8a           	txa
    1212: f0 18        	beq	$122c <main+0xec3>
    1214: a6 2e        	ldx	$2e                     ; 0x202e <main+0x1cc5>
    1216: 86 14        	stx	$14                     ; 0x2014 <main+0x1cab>
    1218: a6 2f        	ldx	$2f                     ; 0x202f <main+0x1cc6>
    121a: 86 15        	stx	$15                     ; 0x2015 <main+0x1cac>
    121c: b1 14        	lda	($14),y                 ; 0x2014 <main+0x1cab>
    121e: aa           	tax
    121f: b1 14        	lda	($14),y                 ; 0x2014 <main+0x1cab>
    1221: 92 14        	sta	($14)                   ; 0x2014 <main+0x1cab>
    1223: e6 14        	inc	$14                     ; 0x2014 <main+0x1cab>
    1225: d0 02        	bne	$1229 <main+0xec0>
    1227: e6 15        	inc	$15                     ; 0x2015 <main+0x1cac>
    1229: 8a           	txa
    122a: d0 f0        	bne	$121c <main+0xeb3>
    122c: a5 2c        	lda	$2c                     ; 0x202c <main+0x1cc3>
    122e: 92 12        	sta	($12)                   ; 0x2012 <main+0x1ca9>
    1230: f0 31        	beq	$1263 <main+0xefa>
    1232: a0 45        	ldy	#$45
    1234: b1 10        	lda	($10),y                 ; 0x2010 <main+0x1ca7>
    1236: 85 12        	sta	$12                     ; 0x2012 <main+0x1ca9>
    1238: c8           	iny
    1239: b1 10        	lda	($10),y                 ; 0x2010 <main+0x1ca7>
    123b: 85 13        	sta	$13                     ; 0x2013 <main+0x1caa>
    123d: a6 2a        	ldx	$2a                     ; 0x202a <main+0x1cc1>
    123f: 86 14        	stx	$14                     ; 0x2014 <main+0x1cab>
    1241: a6 2b        	ldx	$2b                     ; 0x202b <main+0x1cc2>
    1243: 86 15        	stx	$15                     ; 0x2015 <main+0x1cac>
    1245: 80 0b        	bra	$1252 <main+0xee9>
    1247: e6 15        	inc	$15                     ; 0x2015 <main+0x1cac>
    1249: e6 12        	inc	$12                     ; 0x2012 <main+0x1ca9>
    124b: d0 02        	bne	$124f <main+0xee6>
    124d: e6 13        	inc	$13                     ; 0x2013 <main+0x1caa>
    124f: 8a           	txa
    1250: f0 11        	beq	$1263 <main+0xefa>
    1252: b2 12        	lda	($12)                   ; 0x2012 <main+0x1ca9>
    1254: aa           	tax
    1255: b2 12        	lda	($12)                   ; 0x2012 <main+0x1ca9>
    1257: 92 14        	sta	($14)                   ; 0x2014 <main+0x1cab>
    1259: e6 14        	inc	$14                     ; 0x2014 <main+0x1cab>
    125b: f0 ea        	beq	$1247 <main+0xede>
    125d: e6 12        	inc	$12                     ; 0x2012 <main+0x1ca9>
    125f: f0 ec        	beq	$124d <main+0xee4>
    1261: 80 ec        	bra	$124f <main+0xee6>
    1263: b2 28        	lda	($28)                   ; 0x2028 <main+0x1cbf>
    1265: aa           	tax
    1266: a0 01        	ldy	#$1
    1268: b1 28        	lda	($28),y                 ; 0x2028 <main+0x1cbf>
    126a: 92 28        	sta	($28)                   ; 0x2028 <main+0x1cbf>
    126c: 8a           	txa
    126d: 86 25        	stx	$25                     ; 0x2025 <main+0x1cbc>
    126f: 91 28        	sta	($28),y                 ; 0x2028 <main+0x1cbf>
    1271: ae 7a 92     	ldx	$927a                   ; 0x927a <fpr+0x11e2>
    1274: 8a           	txa
    1275: a0 4e        	ldy	#$4e
    1277: 91 10        	sta	($10),y                 ; 0x2010 <main+0x1ca7>
    1279: ae 7b 92     	ldx	$927b                   ; 0x927b <fpr+0x11e3>
    127c: 8a           	txa
    127d: 88           	dey
    127e: 91 10        	sta	($10),y                 ; 0x2010 <main+0x1ca7>
    1280: a0 4e        	ldy	#$4e
    1282: b1 10        	lda	($10),y                 ; 0x2010 <main+0x1ca7>
    1284: 38           	sec
    1285: 48           	pha
    1286: a0 4c        	ldy	#$4c
    1288: b1 10        	lda	($10),y                 ; 0x2010 <main+0x1ca7>
    128a: 85 14        	sta	$14                     ; 0x2014 <main+0x1cab>
    128c: 68           	pla
    128d: e5 14        	sbc	$14                     ; 0x2014 <main+0x1cab>
    128f: 85 12        	sta	$12                     ; 0x2012 <main+0x1ca9>
    1291: c8           	iny
    1292: b1 10        	lda	($10),y                 ; 0x2010 <main+0x1ca7>
    1294: 48           	pha
    1295: a0 4b        	ldy	#$4b
    1297: b1 10        	lda	($10),y                 ; 0x2010 <main+0x1ca7>
    1299: 85 15        	sta	$15                     ; 0x2015 <main+0x1cac>
    129b: 68           	pla
    129c: e5 15        	sbc	$15                     ; 0x2015 <main+0x1cac>
    129e: 85 13        	sta	$13                     ; 0x2013 <main+0x1caa>
    12a0: a5 2e        	lda	$2e                     ; 0x202e <main+0x1cc5>
    12a2: 18           	clc
    12a3: 69 2c        	adc	#$2c
    12a5: 85 2e        	sta	$2e                     ; 0x202e <main+0x1cc5>
    12a7: a5 2f        	lda	$2f                     ; 0x202f <main+0x1cc6>
    12a9: 69 00        	adc	#$0
    12ab: 85 2f        	sta	$2f                     ; 0x202f <main+0x1cc6>
    12ad: a5 2a        	lda	$2a                     ; 0x202a <main+0x1cc1>
    12af: 18           	clc
    12b0: 69 2c        	adc	#$2c
    12b2: 85 2a        	sta	$2a                     ; 0x202a <main+0x1cc1>
    12b4: a5 2b        	lda	$2b                     ; 0x202b <main+0x1cc2>
    12b6: 69 00        	adc	#$0
    12b8: 85 2b        	sta	$2b                     ; 0x202b <main+0x1cc2>
    12ba: a6 26        	ldx	$26                     ; 0x2026 <main+0x1cbd>
    12bc: e4 12        	cpx	$12                     ; 0x2012 <main+0x1ca9>
    12be: a5 27        	lda	$27                     ; 0x2027 <main+0x1cbe>
    12c0: e5 13        	sbc	$13                     ; 0x2013 <main+0x1caa>
    12c2: 50 02        	bvc	$12c6 <main+0xf5d>
    12c4: 49 80        	eor	#$80
    12c6: 86 24        	stx	$24                     ; 0x2024 <main+0x1cbb>
    12c8: a4 27        	ldy	$27                     ; 0x2027 <main+0x1cbe>
    12ca: 84 2d        	sty	$2d                     ; 0x202d <main+0x1cc4>
    12cc: a8           	tay
    12cd: 30 03        	bmi	$12d2 <main+0xf69>
    12cf: 4c 2c 13     	jmp	$132c <main+0xfc3>
    12d2: a9 16        	lda	#$16
    12d4: 18           	clc
    12d5: 65 24        	adc	$24                     ; 0x2024 <main+0x1cbb>
    12d7: 85 28        	sta	$28                     ; 0x2028 <main+0x1cbf>
    12d9: a9 92        	lda	#$92
    12db: 65 2d        	adc	$2d                     ; 0x202d <main+0x1cc4>
    12dd: 85 29        	sta	$29                     ; 0x2029 <main+0x1cc0>
    12df: a5 25        	lda	$25                     ; 0x2025 <main+0x1cbc>
    12e1: 29 01        	and	#$1
    12e3: 85 13        	sta	$13                     ; 0x2013 <main+0x1caa>
    12e5: 86 26        	stx	$26                     ; 0x2026 <main+0x1cbd>
    12e7: a6 2d        	ldx	$2d                     ; 0x202d <main+0x1cc4>
    12e9: 86 27        	stx	$27                     ; 0x2027 <main+0x1cbe>
    12eb: e6 26        	inc	$26                     ; 0x2026 <main+0x1cbd>
    12ed: d0 02        	bne	$12f1 <main+0xf88>
    12ef: e6 27        	inc	$27                     ; 0x2027 <main+0x1cbe>
    12f1: a0 01        	ldy	#$1
    12f3: b1 28        	lda	($28),y                 ; 0x2028 <main+0x1cbf>
    12f5: 85 12        	sta	$12                     ; 0x2012 <main+0x1ca9>
    12f7: a6 13        	ldx	$13                     ; 0x2013 <main+0x1caa>
    12f9: f0 03        	beq	$12fe <main+0xf95>
    12fb: 4c 58 10     	jmp	$1058 <main+0xcef>
    12fe: 29 01        	and	#$1
    1300: d0 03        	bne	$1305 <main+0xf9c>
    1302: 4c 58 10     	jmp	$1058 <main+0xcef>
    1305: a2 2c        	ldx	#$2c
    1307: 86 12        	stx	$12                     ; 0x2012 <main+0x1ca9>
    1309: 64 13        	stz	$13                     ; 0x2013 <main+0x1caa>
    130b: a6 2d        	ldx	$2d                     ; 0x202d <main+0x1cc4>
    130d: a5 24        	lda	$24                     ; 0x2024 <main+0x1cbb>
    130f: 20 59 7b     	jsr	$7b59 <__mulhi3>
    1312: a0 2c        	ldy	#$2c
    1314: 85 12        	sta	$12                     ; 0x2012 <main+0x1ca9>
    1316: 86 13        	stx	$13                     ; 0x2013 <main+0x1caa>
    1318: a9 e6        	lda	#$e6
    131a: 18           	clc
    131b: 65 12        	adc	$12                     ; 0x2012 <main+0x1ca9>
    131d: 85 12        	sta	$12                     ; 0x2012 <main+0x1ca9>
    131f: a9 80        	lda	#$80
    1321: 65 13        	adc	$13                     ; 0x2013 <main+0x1caa>
    1323: 85 13        	sta	$13                     ; 0x2013 <main+0x1caa>
    1325: b2 12        	lda	($12)                   ; 0x2012 <main+0x1ca9>
    1327: 85 2c        	sta	$2c                     ; 0x202c <main+0x1cc3>
    1329: 4c 99 11     	jmp	$1199 <main+0xe30>
    132c: a6 14        	ldx	$14                     ; 0x2014 <main+0x1cab>
    132e: a4 15        	ldy	$15                     ; 0x2015 <main+0x1cac>
    1330: 84 26        	sty	$26                     ; 0x2026 <main+0x1cbd>
    1332: e8           	inx
    1333: d0 02        	bne	$1337 <main+0xfce>
    1335: e6 26        	inc	$26                     ; 0x2026 <main+0x1cbd>
    1337: a0 4e        	ldy	#$4e
    1339: b1 10        	lda	($10),y                 ; 0x2010 <main+0x1ca7>
    133b: 85 12        	sta	$12                     ; 0x2012 <main+0x1ca9>
    133d: 88           	dey
    133e: b1 10        	lda	($10),y                 ; 0x2010 <main+0x1ca7>
    1340: a0 ff        	ldy	#$ff
    1342: c6 12        	dec	$12                     ; 0x2012 <main+0x1ca9>
    1344: c4 12        	cpy	$12                     ; 0x2012 <main+0x1ca9>
    1346: d0 01        	bne	$1349 <main+0xfe0>
    1348: 3a           	dec
    1349: 85 13        	sta	$13                     ; 0x2013 <main+0x1caa>
    134b: e4 12        	cpx	$12                     ; 0x2012 <main+0x1ca9>
    134d: a5 26        	lda	$26                     ; 0x2026 <main+0x1cbd>
    134f: e5 13        	sbc	$13                     ; 0x2013 <main+0x1caa>
    1351: 50 02        	bvc	$1355 <main+0xfec>
    1353: 49 80        	eor	#$80
    1355: 86 14        	stx	$14                     ; 0x2014 <main+0x1cab>
    1357: a6 26        	ldx	$26                     ; 0x2026 <main+0x1cbd>
    1359: 86 15        	stx	$15                     ; 0x2015 <main+0x1cac>
    135b: aa           	tax
    135c: 30 03        	bmi	$1361 <main+0xff8>
    135e: 4c ad 37     	jmp	$37ad <main+0x3444>
    1361: 38           	sec
    1362: a0 4e        	ldy	#$4e
    1364: b1 10        	lda	($10),y                 ; 0x2010 <main+0x1ca7>
    1366: e5 14        	sbc	$14                     ; 0x2014 <main+0x1cab>
    1368: aa           	tax
    1369: 88           	dey
    136a: b1 10        	lda	($10),y                 ; 0x2010 <main+0x1ca7>
    136c: e5 15        	sbc	$15                     ; 0x2015 <main+0x1cac>
    136e: e0 02        	cpx	#$2
    1370: e9 00        	sbc	#$0
    1372: 50 02        	bvc	$1376 <main+0x100d>
    1374: 49 80        	eor	#$80
    1376: aa           	tax
    1377: 30 b3        	bmi	$132c <main+0xfc3>
    1379: ae 17 92     	ldx	$9217                   ; 0x9217 <fpr+0x117f>
    137c: 86 25        	stx	$25                     ; 0x2025 <main+0x1cbc>
    137e: a2 13        	ldx	#$13
    1380: 86 2e        	stx	$2e                     ; 0x202e <main+0x1cc5>
    1382: a2 81        	ldx	#$81
    1384: 86 2f        	stx	$2f                     ; 0x202f <main+0x1cc6>
    1386: a2 3f        	ldx	#$3f
    1388: 86 2a        	stx	$2a                     ; 0x202a <main+0x1cc1>
    138a: a2 81        	ldx	#$81
    138c: 86 2b        	stx	$2b                     ; 0x202b <main+0x1cc2>
    138e: a2 01        	ldx	#$1
    1390: 64 2d        	stz	$2d                     ; 0x202d <main+0x1cc4>
    1392: 86 24        	stx	$24                     ; 0x2024 <main+0x1cbb>
    1394: a5 14        	lda	$14                     ; 0x2014 <main+0x1cab>
    1396: a0 4c        	ldy	#$4c
    1398: 91 10        	sta	($10),y                 ; 0x2010 <main+0x1ca7>
    139a: a5 15        	lda	$15                     ; 0x2015 <main+0x1cac>
    139c: 88           	dey
    139d: 91 10        	sta	($10),y                 ; 0x2010 <main+0x1ca7>
    139f: 4c d2 12     	jmp	$12d2 <main+0xf69>
    13a2: a2 1e        	ldx	#$1e
    13a4: 80 16        	bra	$13bc <main+0x1053>
    13a6: a2 1d        	ldx	#$1d
    13a8: 80 12        	bra	$13bc <main+0x1053>
    13aa: a2 1c        	ldx	#$1c
    13ac: 80 0e        	bra	$13bc <main+0x1053>
    13ae: a2 1b        	ldx	#$1b
    13b0: 80 0a        	bra	$13bc <main+0x1053>
    13b2: a2 1a        	ldx	#$1a
    13b4: 80 06        	bra	$13bc <main+0x1053>
    13b6: a2 19        	ldx	#$19
    13b8: 80 02        	bra	$13bc <main+0x1053>
    13ba: a2 18        	ldx	#$18
    13bc: 84 24        	sty	$24                     ; 0x2024 <main+0x1cbb>
    13be: a9 9b        	lda	#$9b
    13c0: 18           	clc
    13c1: 65 24        	adc	$24                     ; 0x2024 <main+0x1cbb>
    13c3: a8           	tay
    13c4: a9 80        	lda	#$80
    13c6: 48           	pha
    13c7: 5a           	phy
    13c8: a0 3c        	ldy	#$3c
    13ca: b1 10        	lda	($10),y                 ; 0x2010 <main+0x1ca7>
    13cc: 7a           	ply
    13cd: 85 14        	sta	$14                     ; 0x2014 <main+0x1cab>
    13cf: 68           	pla
    13d0: 65 14        	adc	$14                     ; 0x2014 <main+0x1cab>
    13d2: 84 12        	sty	$12                     ; 0x2012 <main+0x1ca9>
    13d4: 85 13        	sta	$13                     ; 0x2013 <main+0x1caa>
    13d6: a9 00        	lda	#$0
    13d8: 20 39 7b     	jsr	$7b39 <__memset>
    13db: 20 14 61     	jsr	$6114 <readDirectory>
    13de: a6 41        	ldx	$41                     ; 0x2041 <main+0x1cd8>
    13e0: 8e e6 80     	stx	$80e6                   ; 0x80e6 <fpr+0x4e>
    13e3: a6 42        	ldx	$42                     ; 0x2042 <main+0x1cd9>
    13e5: 8e e7 80     	stx	$80e7                   ; 0x80e7 <fpr+0x4f>
    13e8: a6 43        	ldx	$43                     ; 0x2043 <main+0x1cda>
    13ea: 8e e8 80     	stx	$80e8                   ; 0x80e8 <fpr+0x50>
    13ed: a2 01        	ldx	#$1
    13ef: 8e 16 92     	stx	$9216                   ; 0x9216 <fpr+0x117e>
    13f2: ae 7a 92     	ldx	$927a                   ; 0x927a <fpr+0x11e2>
    13f5: ad 7b 92     	lda	$927b                   ; 0x927b <fpr+0x11e3>
    13f8: 48           	pha
    13f9: 8a           	txa
    13fa: a0 4e        	ldy	#$4e
    13fc: 91 10        	sta	($10),y                 ; 0x2010 <main+0x1ca7>
    13fe: 68           	pla
    13ff: e0 03        	cpx	#$3
    1401: 88           	dey
    1402: 91 10        	sta	($10),y                 ; 0x2010 <main+0x1ca7>
    1404: e9 00        	sbc	#$0
    1406: 50 02        	bvc	$140a <main+0x10a1>
    1408: 49 80        	eor	#$80
    140a: aa           	tax
    140b: 10 03        	bpl	$1410 <main+0x10a7>
    140d: 4c ad 37     	jmp	$37ad <main+0x3444>
    1410: a2 01        	ldx	#$1
    1412: 64 2c        	stz	$2c                     ; 0x202c <main+0x1cc3>
    1414: 86 14        	stx	$14                     ; 0x2014 <main+0x1cab>
    1416: 4c 1a 17     	jmp	$171a <main+0x13b1>
    1419: a2 2c        	ldx	#$2c
    141b: a4 25        	ldy	$25                     ; 0x2025 <main+0x1cbc>
    141d: c4 12        	cpy	$12                     ; 0x2012 <main+0x1ca9>
    141f: f0 03        	beq	$1424 <main+0x10bb>
    1421: 4c cc 14     	jmp	$14cc <main+0x1163>
    1424: a5 2a        	lda	$2a                     ; 0x202a <main+0x1cc1>
    1426: a0 49        	ldy	#$49
    1428: 91 10        	sta	($10),y                 ; 0x2010 <main+0x1ca7>
    142a: a5 2b        	lda	$2b                     ; 0x202b <main+0x1cc2>
    142c: c8           	iny
    142d: 91 10        	sta	($10),y                 ; 0x2010 <main+0x1ca7>
    142f: 86 12        	stx	$12                     ; 0x2012 <main+0x1ca9>
    1431: 64 13        	stz	$13                     ; 0x2013 <main+0x1caa>
    1433: a6 2d        	ldx	$2d                     ; 0x202d <main+0x1cc4>
    1435: a5 24        	lda	$24                     ; 0x2024 <main+0x1cbb>
    1437: 20 59 7b     	jsr	$7b59 <__mulhi3>
    143a: 85 12        	sta	$12                     ; 0x2012 <main+0x1ca9>
    143c: 86 13        	stx	$13                     ; 0x2013 <main+0x1caa>
    143e: a9 e6        	lda	#$e6
    1440: 18           	clc
    1441: 65 12        	adc	$12                     ; 0x2012 <main+0x1ca9>
    1443: 85 2a        	sta	$2a                     ; 0x202a <main+0x1cc1>
    1445: a9 80        	lda	#$80
    1447: 65 13        	adc	$13                     ; 0x2013 <main+0x1caa>
    1449: 85 2b        	sta	$2b                     ; 0x202b <main+0x1cc2>
    144b: a2 2c        	ldx	#$2c
    144d: 86 12        	stx	$12                     ; 0x2012 <main+0x1ca9>
    144f: 64 13        	stz	$13                     ; 0x2013 <main+0x1caa>
    1451: a6 27        	ldx	$27                     ; 0x2027 <main+0x1cbe>
    1453: a5 26        	lda	$26                     ; 0x2026 <main+0x1cbd>
    1455: 20 59 7b     	jsr	$7b59 <__mulhi3>
    1458: 85 14        	sta	$14                     ; 0x2014 <main+0x1cab>
    145a: b2 2a        	lda	($2a)                   ; 0x202a <main+0x1cc1>
    145c: 64 12        	stz	$12                     ; 0x2012 <main+0x1ca9>
    145e: d0 03        	bne	$1463 <main+0x10fa>
    1460: 4c d3 14     	jmp	$14d3 <main+0x116a>
    1463: a6 2e        	ldx	$2e                     ; 0x202e <main+0x1cc5>
    1465: 86 16        	stx	$16                     ; 0x2016 <main+0x1cad>
    1467: a6 2f        	ldx	$2f                     ; 0x202f <main+0x1cc6>
    1469: 86 17        	stx	$17                     ; 0x2017 <main+0x1cae>
    146b: 85 2c        	sta	$2c                     ; 0x202c <main+0x1cc3>
    146d: 48           	pha
    146e: a0 49        	ldy	#$49
    1470: b1 10        	lda	($10),y                 ; 0x2010 <main+0x1ca7>
    1472: 85 2a        	sta	$2a                     ; 0x202a <main+0x1cc1>
    1474: c8           	iny
    1475: b1 10        	lda	($10),y                 ; 0x2010 <main+0x1ca7>
    1477: 85 2b        	sta	$2b                     ; 0x202b <main+0x1cc2>
    1479: 68           	pla
    147a: 80 2f        	bra	$14ab <main+0x1142>
    147c: a0 2c        	ldy	#$2c
    147e: a5 13        	lda	$13                     ; 0x2013 <main+0x1caa>
    1480: c9 41        	cmp	#$41
    1482: 90 06        	bcc	$148a <main+0x1121>
    1484: c9 5b        	cmp	#$5b
    1486: b0 02        	bcs	$148a <main+0x1121>
    1488: 09 20        	ora	#$20
    148a: 85 16        	sta	$16                     ; 0x2016 <main+0x1cad>
    148c: 86 13        	stx	$13                     ; 0x2013 <main+0x1caa>
    148e: e4 16        	cpx	$16                     ; 0x2016 <main+0x1cad>
    1490: f0 03        	beq	$1495 <main+0x112c>
    1492: 4c 53 15     	jmp	$1553 <main+0x11ea>
    1495: b2 14        	lda	($14)                   ; 0x2014 <main+0x1cab>
    1497: a6 14        	ldx	$14                     ; 0x2014 <main+0x1cab>
    1499: 86 16        	stx	$16                     ; 0x2016 <main+0x1cad>
    149b: a6 15        	ldx	$15                     ; 0x2015 <main+0x1cac>
    149d: 86 17        	stx	$17                     ; 0x2017 <main+0x1cae>
    149f: e6 16        	inc	$16                     ; 0x2016 <main+0x1cad>
    14a1: d0 02        	bne	$14a5 <main+0x113c>
    14a3: e6 17        	inc	$17                     ; 0x2017 <main+0x1cae>
    14a5: aa           	tax
    14a6: d0 03        	bne	$14ab <main+0x1142>
    14a8: 4c 2a 15     	jmp	$152a <main+0x11c1>
    14ab: aa           	tax
    14ac: a4 16        	ldy	$16                     ; 0x2016 <main+0x1cad>
    14ae: 84 14        	sty	$14                     ; 0x2014 <main+0x1cab>
    14b0: a4 17        	ldy	$17                     ; 0x2017 <main+0x1cae>
    14b2: 84 15        	sty	$15                     ; 0x2015 <main+0x1cac>
    14b4: a0 2b        	ldy	#$2b
    14b6: b1 16        	lda	($16),y                 ; 0x2016 <main+0x1cad>
    14b8: f0 42        	beq	$14fc <main+0x1193>
    14ba: 85 13        	sta	$13                     ; 0x2013 <main+0x1caa>
    14bc: e0 41        	cpx	#$41
    14be: 90 bc        	bcc	$147c <main+0x1113>
    14c0: 8a           	txa
    14c1: c9 5b        	cmp	#$5b
    14c3: a0 2c        	ldy	#$2c
    14c5: b0 b7        	bcs	$147e <main+0x1115>
    14c7: 09 20        	ora	#$20
    14c9: aa           	tax
    14ca: 80 b2        	bra	$147e <main+0x1115>
    14cc: a6 12        	ldx	$12                     ; 0x2012 <main+0x1ca9>
    14ce: 86 25        	stx	$25                     ; 0x2025 <main+0x1cbc>
    14d0: 4c 41 16     	jmp	$1641 <main+0x12d8>
    14d3: 86 13        	stx	$13                     ; 0x2013 <main+0x1caa>
    14d5: 85 2c        	sta	$2c                     ; 0x202c <main+0x1cc3>
    14d7: a9 e6        	lda	#$e6
    14d9: 18           	clc
    14da: 65 14        	adc	$14                     ; 0x2014 <main+0x1cab>
    14dc: 85 14        	sta	$14                     ; 0x2014 <main+0x1cab>
    14de: a9 80        	lda	#$80
    14e0: 65 13        	adc	$13                     ; 0x2013 <main+0x1caa>
    14e2: 85 15        	sta	$15                     ; 0x2015 <main+0x1cac>
    14e4: a0 2c        	ldy	#$2c
    14e6: 5a           	phy
    14e7: a0 49        	ldy	#$49
    14e9: b1 10        	lda	($10),y                 ; 0x2010 <main+0x1ca7>
    14eb: 85 2a        	sta	$2a                     ; 0x202a <main+0x1cc1>
    14ed: c8           	iny
    14ee: b1 10        	lda	($10),y                 ; 0x2010 <main+0x1ca7>
    14f0: 7a           	ply
    14f1: 85 2b        	sta	$2b                     ; 0x202b <main+0x1cc2>
    14f3: b2 14        	lda	($14)                   ; 0x2014 <main+0x1cab>
    14f5: c9 41        	cmp	#$41
    14f7: b0 50        	bcs	$1549 <main+0x11e0>
    14f9: 4c 4f 15     	jmp	$154f <main+0x11e6>
    14fc: e0 41        	cpx	#$41
    14fe: a0 01        	ldy	#$1
    1500: b0 02        	bcs	$1504 <main+0x119b>
    1502: a0 00        	ldy	#$0
    1504: 84 12        	sty	$12                     ; 0x2012 <main+0x1ca9>
    1506: a5 14        	lda	$14                     ; 0x2014 <main+0x1cab>
    1508: 18           	clc
    1509: 69 2b        	adc	#$2b
    150b: 85 14        	sta	$14                     ; 0x2014 <main+0x1cab>
    150d: a5 15        	lda	$15                     ; 0x2015 <main+0x1cac>
    150f: 69 00        	adc	#$0
    1511: 85 15        	sta	$15                     ; 0x2015 <main+0x1cac>
    1513: a5 12        	lda	$12                     ; 0x2012 <main+0x1ca9>
    1515: f0 28        	beq	$153f <main+0x11d6>
    1517: e0 5b        	cpx	#$5b
    1519: a0 2c        	ldy	#$2c
    151b: 8a           	txa
    151c: b0 02        	bcs	$1520 <main+0x11b7>
    151e: 09 20        	ora	#$20
    1520: 85 12        	sta	$12                     ; 0x2012 <main+0x1ca9>
    1522: b2 14        	lda	($14)                   ; 0x2014 <main+0x1cab>
    1524: c9 41        	cmp	#$41
    1526: b0 21        	bcs	$1549 <main+0x11e0>
    1528: 80 25        	bra	$154f <main+0x11e6>
    152a: a5 14        	lda	$14                     ; 0x2014 <main+0x1cab>
    152c: 18           	clc
    152d: 69 2c        	adc	#$2c
    152f: 85 14        	sta	$14                     ; 0x2014 <main+0x1cab>
    1531: a5 15        	lda	$15                     ; 0x2015 <main+0x1cac>
    1533: 69 00        	adc	#$0
    1535: 85 15        	sta	$15                     ; 0x2015 <main+0x1cac>
    1537: b2 14        	lda	($14)                   ; 0x2014 <main+0x1cab>
    1539: c9 41        	cmp	#$41
    153b: b0 0c        	bcs	$1549 <main+0x11e0>
    153d: 80 10        	bra	$154f <main+0x11e6>
    153f: 86 12        	stx	$12                     ; 0x2012 <main+0x1ca9>
    1541: a0 2c        	ldy	#$2c
    1543: b2 14        	lda	($14)                   ; 0x2014 <main+0x1cab>
    1545: c9 41        	cmp	#$41
    1547: 90 06        	bcc	$154f <main+0x11e6>
    1549: c9 5b        	cmp	#$5b
    154b: b0 02        	bcs	$154f <main+0x11e6>
    154d: 09 20        	ora	#$20
    154f: a6 12        	ldx	$12                     ; 0x2012 <main+0x1ca9>
    1551: 86 13        	stx	$13                     ; 0x2013 <main+0x1caa>
    1553: c5 13        	cmp	$13                     ; 0x2013 <main+0x1caa>
    1555: 90 03        	bcc	$155a <main+0x11f1>
    1557: 4c 41 16     	jmp	$1641 <main+0x12d8>
    155a: 84 12        	sty	$12                     ; 0x2012 <main+0x1ca9>
    155c: 64 13        	stz	$13                     ; 0x2013 <main+0x1caa>
    155e: a6 2d        	ldx	$2d                     ; 0x202d <main+0x1cc4>
    1560: a5 24        	lda	$24                     ; 0x2024 <main+0x1cbb>
    1562: 20 59 7b     	jsr	$7b59 <__mulhi3>
    1565: 85 12        	sta	$12                     ; 0x2012 <main+0x1ca9>
    1567: 86 13        	stx	$13                     ; 0x2013 <main+0x1caa>
    1569: a9 e6        	lda	#$e6
    156b: 18           	clc
    156c: 65 12        	adc	$12                     ; 0x2012 <main+0x1ca9>
    156e: 85 24        	sta	$24                     ; 0x2024 <main+0x1cbb>
    1570: a9 80        	lda	#$80
    1572: 65 13        	adc	$13                     ; 0x2013 <main+0x1caa>
    1574: 85 25        	sta	$25                     ; 0x2025 <main+0x1cbc>
    1576: a5 2c        	lda	$2c                     ; 0x202c <main+0x1cc3>
    1578: f0 31        	beq	$15ab <main+0x1242>
    157a: a6 2e        	ldx	$2e                     ; 0x202e <main+0x1cc5>
    157c: 86 12        	stx	$12                     ; 0x2012 <main+0x1ca9>
    157e: a6 2f        	ldx	$2f                     ; 0x202f <main+0x1cc6>
    1580: 86 13        	stx	$13                     ; 0x2013 <main+0x1caa>
    1582: a0 47        	ldy	#$47
    1584: b1 10        	lda	($10),y                 ; 0x2010 <main+0x1ca7>
    1586: 85 14        	sta	$14                     ; 0x2014 <main+0x1cab>
    1588: c8           	iny
    1589: b1 10        	lda	($10),y                 ; 0x2010 <main+0x1ca7>
    158b: 85 15        	sta	$15                     ; 0x2015 <main+0x1cac>
    158d: 80 0b        	bra	$159a <main+0x1231>
    158f: e6 15        	inc	$15                     ; 0x2015 <main+0x1cac>
    1591: e6 12        	inc	$12                     ; 0x2012 <main+0x1ca9>
    1593: d0 02        	bne	$1597 <main+0x122e>
    1595: e6 13        	inc	$13                     ; 0x2013 <main+0x1caa>
    1597: 8a           	txa
    1598: f0 11        	beq	$15ab <main+0x1242>
    159a: b2 12        	lda	($12)                   ; 0x2012 <main+0x1ca9>
    159c: aa           	tax
    159d: b2 12        	lda	($12)                   ; 0x2012 <main+0x1ca9>
    159f: 92 14        	sta	($14)                   ; 0x2014 <main+0x1cab>
    15a1: e6 14        	inc	$14                     ; 0x2014 <main+0x1cab>
    15a3: f0 ea        	beq	$158f <main+0x1226>
    15a5: e6 12        	inc	$12                     ; 0x2012 <main+0x1ca9>
    15a7: f0 ec        	beq	$1595 <main+0x122c>
    15a9: 80 ec        	bra	$1597 <main+0x122e>
    15ab: a2 2c        	ldx	#$2c
    15ad: 86 12        	stx	$12                     ; 0x2012 <main+0x1ca9>
    15af: 64 13        	stz	$13                     ; 0x2013 <main+0x1caa>
    15b1: a6 27        	ldx	$27                     ; 0x2027 <main+0x1cbe>
    15b3: a5 26        	lda	$26                     ; 0x2026 <main+0x1cbd>
    15b5: 20 59 7b     	jsr	$7b59 <__mulhi3>
    15b8: a0 2c        	ldy	#$2c
    15ba: 85 12        	sta	$12                     ; 0x2012 <main+0x1ca9>
    15bc: 86 13        	stx	$13                     ; 0x2013 <main+0x1caa>
    15be: a9 e6        	lda	#$e6
    15c0: 18           	clc
    15c1: 65 12        	adc	$12                     ; 0x2012 <main+0x1ca9>
    15c3: 85 12        	sta	$12                     ; 0x2012 <main+0x1ca9>
    15c5: a9 80        	lda	#$80
    15c7: 65 13        	adc	$13                     ; 0x2013 <main+0x1caa>
    15c9: 85 13        	sta	$13                     ; 0x2013 <main+0x1caa>
    15cb: b2 12        	lda	($12)                   ; 0x2012 <main+0x1ca9>
    15cd: aa           	tax
    15ce: b2 12        	lda	($12)                   ; 0x2012 <main+0x1ca9>
    15d0: 92 24        	sta	($24)                   ; 0x2024 <main+0x1cbb>
    15d2: 8a           	txa
    15d3: f0 18        	beq	$15ed <main+0x1284>
    15d5: a6 2e        	ldx	$2e                     ; 0x202e <main+0x1cc5>
    15d7: 86 14        	stx	$14                     ; 0x2014 <main+0x1cab>
    15d9: a6 2f        	ldx	$2f                     ; 0x202f <main+0x1cc6>
    15db: 86 15        	stx	$15                     ; 0x2015 <main+0x1cac>
    15dd: b1 14        	lda	($14),y                 ; 0x2014 <main+0x1cab>
    15df: aa           	tax
    15e0: b1 14        	lda	($14),y                 ; 0x2014 <main+0x1cab>
    15e2: 92 14        	sta	($14)                   ; 0x2014 <main+0x1cab>
    15e4: e6 14        	inc	$14                     ; 0x2014 <main+0x1cab>
    15e6: d0 02        	bne	$15ea <main+0x1281>
    15e8: e6 15        	inc	$15                     ; 0x2015 <main+0x1cac>
    15ea: 8a           	txa
    15eb: d0 f0        	bne	$15dd <main+0x1274>
    15ed: a5 2c        	lda	$2c                     ; 0x202c <main+0x1cc3>
    15ef: 92 12        	sta	($12)                   ; 0x2012 <main+0x1ca9>
    15f1: f0 31        	beq	$1624 <main+0x12bb>
    15f3: a0 47        	ldy	#$47
    15f5: b1 10        	lda	($10),y                 ; 0x2010 <main+0x1ca7>
    15f7: 85 12        	sta	$12                     ; 0x2012 <main+0x1ca9>
    15f9: c8           	iny
    15fa: b1 10        	lda	($10),y                 ; 0x2010 <main+0x1ca7>
    15fc: 85 13        	sta	$13                     ; 0x2013 <main+0x1caa>
    15fe: a6 2a        	ldx	$2a                     ; 0x202a <main+0x1cc1>
    1600: 86 14        	stx	$14                     ; 0x2014 <main+0x1cab>
    1602: a6 2b        	ldx	$2b                     ; 0x202b <main+0x1cc2>
    1604: 86 15        	stx	$15                     ; 0x2015 <main+0x1cac>
    1606: 80 0b        	bra	$1613 <main+0x12aa>
    1608: e6 15        	inc	$15                     ; 0x2015 <main+0x1cac>
    160a: e6 12        	inc	$12                     ; 0x2012 <main+0x1ca9>
    160c: d0 02        	bne	$1610 <main+0x12a7>
    160e: e6 13        	inc	$13                     ; 0x2013 <main+0x1caa>
    1610: 8a           	txa
    1611: f0 11        	beq	$1624 <main+0x12bb>
    1613: b2 12        	lda	($12)                   ; 0x2012 <main+0x1ca9>
    1615: aa           	tax
    1616: b2 12        	lda	($12)                   ; 0x2012 <main+0x1ca9>
    1618: 92 14        	sta	($14)                   ; 0x2014 <main+0x1cab>
    161a: e6 14        	inc	$14                     ; 0x2014 <main+0x1cab>
    161c: f0 ea        	beq	$1608 <main+0x129f>
    161e: e6 12        	inc	$12                     ; 0x2012 <main+0x1ca9>
    1620: f0 ec        	beq	$160e <main+0x12a5>
    1622: 80 ec        	bra	$1610 <main+0x12a7>
    1624: b2 28        	lda	($28)                   ; 0x2028 <main+0x1cbf>
    1626: aa           	tax
    1627: a0 01        	ldy	#$1
    1629: b1 28        	lda	($28),y                 ; 0x2028 <main+0x1cbf>
    162b: 92 28        	sta	($28)                   ; 0x2028 <main+0x1cbf>
    162d: 8a           	txa
    162e: 86 25        	stx	$25                     ; 0x2025 <main+0x1cbc>
    1630: 91 28        	sta	($28),y                 ; 0x2028 <main+0x1cbf>
    1632: ae 7a 92     	ldx	$927a                   ; 0x927a <fpr+0x11e2>
    1635: 8a           	txa
    1636: a0 4e        	ldy	#$4e
    1638: 91 10        	sta	($10),y                 ; 0x2010 <main+0x1ca7>
    163a: ae 7b 92     	ldx	$927b                   ; 0x927b <fpr+0x11e3>
    163d: 8a           	txa
    163e: 88           	dey
    163f: 91 10        	sta	($10),y                 ; 0x2010 <main+0x1ca7>
    1641: a0 4e        	ldy	#$4e
    1643: b1 10        	lda	($10),y                 ; 0x2010 <main+0x1ca7>
    1645: 38           	sec
    1646: 48           	pha
    1647: a0 4c        	ldy	#$4c
    1649: b1 10        	lda	($10),y                 ; 0x2010 <main+0x1ca7>
    164b: 85 14        	sta	$14                     ; 0x2014 <main+0x1cab>
    164d: 68           	pla
    164e: e5 14        	sbc	$14                     ; 0x2014 <main+0x1cab>
    1650: 85 12        	sta	$12                     ; 0x2012 <main+0x1ca9>
    1652: c8           	iny
    1653: b1 10        	lda	($10),y                 ; 0x2010 <main+0x1ca7>
    1655: 48           	pha
    1656: a0 4b        	ldy	#$4b
    1658: b1 10        	lda	($10),y                 ; 0x2010 <main+0x1ca7>
    165a: 85 2c        	sta	$2c                     ; 0x202c <main+0x1cc3>
    165c: 68           	pla
    165d: e5 2c        	sbc	$2c                     ; 0x202c <main+0x1cc3>
    165f: 85 13        	sta	$13                     ; 0x2013 <main+0x1caa>
    1661: a5 2e        	lda	$2e                     ; 0x202e <main+0x1cc5>
    1663: 18           	clc
    1664: 69 2c        	adc	#$2c
    1666: 85 2e        	sta	$2e                     ; 0x202e <main+0x1cc5>
    1668: a5 2f        	lda	$2f                     ; 0x202f <main+0x1cc6>
    166a: 69 00        	adc	#$0
    166c: 85 2f        	sta	$2f                     ; 0x202f <main+0x1cc6>
    166e: a5 2a        	lda	$2a                     ; 0x202a <main+0x1cc1>
    1670: 18           	clc
    1671: 69 2c        	adc	#$2c
    1673: 85 2a        	sta	$2a                     ; 0x202a <main+0x1cc1>
    1675: a5 2b        	lda	$2b                     ; 0x202b <main+0x1cc2>
    1677: 69 00        	adc	#$0
    1679: 85 2b        	sta	$2b                     ; 0x202b <main+0x1cc2>
    167b: a6 26        	ldx	$26                     ; 0x2026 <main+0x1cbd>
    167d: e4 12        	cpx	$12                     ; 0x2012 <main+0x1ca9>
    167f: a5 27        	lda	$27                     ; 0x2027 <main+0x1cbe>
    1681: e5 13        	sbc	$13                     ; 0x2013 <main+0x1caa>
    1683: 50 02        	bvc	$1687 <main+0x131e>
    1685: 49 80        	eor	#$80
    1687: 86 24        	stx	$24                     ; 0x2024 <main+0x1cbb>
    1689: a4 27        	ldy	$27                     ; 0x2027 <main+0x1cbe>
    168b: 84 2d        	sty	$2d                     ; 0x202d <main+0x1cc4>
    168d: a8           	tay
    168e: 30 03        	bmi	$1693 <main+0x132a>
    1690: 4c ed 16     	jmp	$16ed <main+0x1384>
    1693: a9 16        	lda	#$16
    1695: 18           	clc
    1696: 65 24        	adc	$24                     ; 0x2024 <main+0x1cbb>
    1698: 85 28        	sta	$28                     ; 0x2028 <main+0x1cbf>
    169a: a9 92        	lda	#$92
    169c: 65 2d        	adc	$2d                     ; 0x202d <main+0x1cc4>
    169e: 85 29        	sta	$29                     ; 0x2029 <main+0x1cc0>
    16a0: a5 25        	lda	$25                     ; 0x2025 <main+0x1cbc>
    16a2: 29 01        	and	#$1
    16a4: 85 13        	sta	$13                     ; 0x2013 <main+0x1caa>
    16a6: 86 26        	stx	$26                     ; 0x2026 <main+0x1cbd>
    16a8: a6 2d        	ldx	$2d                     ; 0x202d <main+0x1cc4>
    16aa: 86 27        	stx	$27                     ; 0x2027 <main+0x1cbe>
    16ac: e6 26        	inc	$26                     ; 0x2026 <main+0x1cbd>
    16ae: d0 02        	bne	$16b2 <main+0x1349>
    16b0: e6 27        	inc	$27                     ; 0x2027 <main+0x1cbe>
    16b2: a0 01        	ldy	#$1
    16b4: b1 28        	lda	($28),y                 ; 0x2028 <main+0x1cbf>
    16b6: 85 12        	sta	$12                     ; 0x2012 <main+0x1ca9>
    16b8: a6 13        	ldx	$13                     ; 0x2013 <main+0x1caa>
    16ba: f0 03        	beq	$16bf <main+0x1356>
    16bc: 4c 19 14     	jmp	$1419 <main+0x10b0>
    16bf: 29 01        	and	#$1
    16c1: d0 03        	bne	$16c6 <main+0x135d>
    16c3: 4c 19 14     	jmp	$1419 <main+0x10b0>
    16c6: a2 2c        	ldx	#$2c
    16c8: 86 12        	stx	$12                     ; 0x2012 <main+0x1ca9>
    16ca: 64 13        	stz	$13                     ; 0x2013 <main+0x1caa>
    16cc: a6 2d        	ldx	$2d                     ; 0x202d <main+0x1cc4>
    16ce: a5 24        	lda	$24                     ; 0x2024 <main+0x1cbb>
    16d0: 20 59 7b     	jsr	$7b59 <__mulhi3>
    16d3: a0 2c        	ldy	#$2c
    16d5: 85 12        	sta	$12                     ; 0x2012 <main+0x1ca9>
    16d7: 86 13        	stx	$13                     ; 0x2013 <main+0x1caa>
    16d9: a9 e6        	lda	#$e6
    16db: 18           	clc
    16dc: 65 12        	adc	$12                     ; 0x2012 <main+0x1ca9>
    16de: 85 12        	sta	$12                     ; 0x2012 <main+0x1ca9>
    16e0: a9 80        	lda	#$80
    16e2: 65 13        	adc	$13                     ; 0x2013 <main+0x1caa>
    16e4: 85 13        	sta	$13                     ; 0x2013 <main+0x1caa>
    16e6: b2 12        	lda	($12)                   ; 0x2012 <main+0x1ca9>
    16e8: 85 2c        	sta	$2c                     ; 0x202c <main+0x1cc3>
    16ea: 4c 5a 15     	jmp	$155a <main+0x11f1>
    16ed: a6 14        	ldx	$14                     ; 0x2014 <main+0x1cab>
    16ef: e8           	inx
    16f0: d0 02        	bne	$16f4 <main+0x138b>
    16f2: e6 2c        	inc	$2c                     ; 0x202c <main+0x1cc3>
    16f4: a0 4e        	ldy	#$4e
    16f6: b1 10        	lda	($10),y                 ; 0x2010 <main+0x1ca7>
    16f8: 85 12        	sta	$12                     ; 0x2012 <main+0x1ca9>
    16fa: 88           	dey
    16fb: b1 10        	lda	($10),y                 ; 0x2010 <main+0x1ca7>
    16fd: a0 ff        	ldy	#$ff
    16ff: c6 12        	dec	$12                     ; 0x2012 <main+0x1ca9>
    1701: c4 12        	cpy	$12                     ; 0x2012 <main+0x1ca9>
    1703: d0 01        	bne	$1706 <main+0x139d>
    1705: 3a           	dec
    1706: 85 13        	sta	$13                     ; 0x2013 <main+0x1caa>
    1708: e4 12        	cpx	$12                     ; 0x2012 <main+0x1ca9>
    170a: a5 2c        	lda	$2c                     ; 0x202c <main+0x1cc3>
    170c: e5 13        	sbc	$13                     ; 0x2013 <main+0x1caa>
    170e: 50 02        	bvc	$1712 <main+0x13a9>
    1710: 49 80        	eor	#$80
    1712: 86 14        	stx	$14                     ; 0x2014 <main+0x1cab>
    1714: aa           	tax
    1715: 30 03        	bmi	$171a <main+0x13b1>
    1717: 4c ad 37     	jmp	$37ad <main+0x3444>
    171a: 38           	sec
    171b: a0 4e        	ldy	#$4e
    171d: b1 10        	lda	($10),y                 ; 0x2010 <main+0x1ca7>
    171f: e5 14        	sbc	$14                     ; 0x2014 <main+0x1cab>
    1721: aa           	tax
    1722: 88           	dey
    1723: b1 10        	lda	($10),y                 ; 0x2010 <main+0x1ca7>
    1725: e5 2c        	sbc	$2c                     ; 0x202c <main+0x1cc3>
    1727: e0 02        	cpx	#$2
    1729: e9 00        	sbc	#$0
    172b: 50 02        	bvc	$172f <main+0x13c6>
    172d: 49 80        	eor	#$80
    172f: aa           	tax
    1730: 30 bb        	bmi	$16ed <main+0x1384>
    1732: ae 17 92     	ldx	$9217                   ; 0x9217 <fpr+0x117f>
    1735: 86 25        	stx	$25                     ; 0x2025 <main+0x1cbc>
    1737: a2 13        	ldx	#$13
    1739: 86 2e        	stx	$2e                     ; 0x202e <main+0x1cc5>
    173b: a2 81        	ldx	#$81
    173d: 86 2f        	stx	$2f                     ; 0x202f <main+0x1cc6>
    173f: a2 3f        	ldx	#$3f
    1741: 86 2a        	stx	$2a                     ; 0x202a <main+0x1cc1>
    1743: a2 81        	ldx	#$81
    1745: 86 2b        	stx	$2b                     ; 0x202b <main+0x1cc2>
    1747: a2 01        	ldx	#$1
    1749: 64 2d        	stz	$2d                     ; 0x202d <main+0x1cc4>
    174b: 86 24        	stx	$24                     ; 0x2024 <main+0x1cbb>
    174d: a5 14        	lda	$14                     ; 0x2014 <main+0x1cab>
    174f: a0 4c        	ldy	#$4c
    1751: 91 10        	sta	($10),y                 ; 0x2010 <main+0x1ca7>
    1753: a5 2c        	lda	$2c                     ; 0x202c <main+0x1cc3>
    1755: 88           	dey
    1756: 91 10        	sta	($10),y                 ; 0x2010 <main+0x1ca7>
    1758: 4c 93 16     	jmp	$1693 <main+0x132a>
    175b: ae 98 80     	ldx	$8098                   ; 0x8098 <fpr>
    175e: ac 99 80     	ldy	$8099                   ; 0x8099 <fpr+0x1>
    1761: 8e 14 d0     	stx	$d014                   ; 0xd014 <__heap_start+0x3d44>
    1764: 9c 15 d0     	stz	$d015                   ; 0xd015 <__heap_start+0x3d45>
    1767: 8c 16 d0     	sty	$d016                   ; 0xd016 <__heap_start+0x3d46>
    176a: 9c 17 d0     	stz	$d017                   ; 0xd017 <__heap_start+0x3d47>
    176d: 64 30        	stz	$30                     ; 0x2030 <main+0x1cc7>
    176f: 64 44        	stz	$44                     ; 0x2044 <main+0x1cdb>
    1771: 9c 14 d0     	stz	$d014                   ; 0xd014 <__heap_start+0x3d44>
    1774: 9c 15 d0     	stz	$d015                   ; 0xd015 <__heap_start+0x3d45>
    1777: 64 45        	stz	$45                     ; 0x2045 <main+0x1cdc>
    1779: 9c 16 d0     	stz	$d016                   ; 0xd016 <__heap_start+0x3d46>
    177c: 9c 17 d0     	stz	$d017                   ; 0xd017 <__heap_start+0x3d47>
    177f: a2 7c        	ldx	#$7c
    1781: 86 12        	stx	$12                     ; 0x2012 <main+0x1ca9>
    1783: a2 7c        	ldx	#$7c
    1785: 86 13        	stx	$13                     ; 0x2013 <main+0x1caa>
    1787: a5 12        	lda	$12                     ; 0x2012 <main+0x1ca9>
    1789: a0 4e        	ldy	#$4e
    178b: 91 10        	sta	($10),y                 ; 0x2010 <main+0x1ca7>
    178d: a5 13        	lda	$13                     ; 0x2013 <main+0x1caa>
    178f: c8           	iny
    1790: 91 10        	sta	($10),y                 ; 0x2010 <main+0x1ca7>
    1792: 88           	dey
    1793: b1 10        	lda	($10),y                 ; 0x2010 <main+0x1ca7>
    1795: 85 12        	sta	$12                     ; 0x2012 <main+0x1ca9>
    1797: c8           	iny
    1798: b1 10        	lda	($10),y                 ; 0x2010 <main+0x1ca7>
    179a: 85 13        	sta	$13                     ; 0x2013 <main+0x1caa>
    179c: 20 ab 79     	jsr	$79ab <printf>
    179f: 64 44        	stz	$44                     ; 0x2044 <main+0x1cdb>
    17a1: 9c 14 d0     	stz	$d014                   ; 0xd014 <__heap_start+0x3d44>
    17a4: 9c 15 d0     	stz	$d015                   ; 0xd015 <__heap_start+0x3d45>
    17a7: a2 01        	ldx	#$1
    17a9: 86 45        	stx	$45                     ; 0x2045 <main+0x1cdc>
    17ab: 8e 16 d0     	stx	$d016                   ; 0xd016 <__heap_start+0x3d46>
    17ae: 9c 17 d0     	stz	$d017                   ; 0xd017 <__heap_start+0x3d47>
    17b1: a0 4e        	ldy	#$4e
    17b3: b1 10        	lda	($10),y                 ; 0x2010 <main+0x1ca7>
    17b5: 85 12        	sta	$12                     ; 0x2012 <main+0x1ca9>
    17b7: c8           	iny
    17b8: b1 10        	lda	($10),y                 ; 0x2010 <main+0x1ca7>
    17ba: 85 13        	sta	$13                     ; 0x2013 <main+0x1caa>
    17bc: 20 ab 79     	jsr	$79ab <printf>
    17bf: 64 44        	stz	$44                     ; 0x2044 <main+0x1cdb>
    17c1: 9c 14 d0     	stz	$d014                   ; 0xd014 <__heap_start+0x3d44>
    17c4: 9c 15 d0     	stz	$d015                   ; 0xd015 <__heap_start+0x3d45>
    17c7: a2 02        	ldx	#$2
    17c9: 86 45        	stx	$45                     ; 0x2045 <main+0x1cdc>
    17cb: 8e 16 d0     	stx	$d016                   ; 0xd016 <__heap_start+0x3d46>
    17ce: 9c 17 d0     	stz	$d017                   ; 0xd017 <__heap_start+0x3d47>
    17d1: a0 4e        	ldy	#$4e
    17d3: b1 10        	lda	($10),y                 ; 0x2010 <main+0x1ca7>
    17d5: 85 12        	sta	$12                     ; 0x2012 <main+0x1ca9>
    17d7: c8           	iny
    17d8: b1 10        	lda	($10),y                 ; 0x2010 <main+0x1ca7>
    17da: 85 13        	sta	$13                     ; 0x2013 <main+0x1caa>
    17dc: 20 ab 79     	jsr	$79ab <printf>
    17df: 64 44        	stz	$44                     ; 0x2044 <main+0x1cdb>
    17e1: 9c 14 d0     	stz	$d014                   ; 0xd014 <__heap_start+0x3d44>
    17e4: 9c 15 d0     	stz	$d015                   ; 0xd015 <__heap_start+0x3d45>
    17e7: a2 03        	ldx	#$3
    17e9: 86 45        	stx	$45                     ; 0x2045 <main+0x1cdc>
    17eb: 8e 16 d0     	stx	$d016                   ; 0xd016 <__heap_start+0x3d46>
    17ee: 9c 17 d0     	stz	$d017                   ; 0xd017 <__heap_start+0x3d47>
    17f1: a0 4e        	ldy	#$4e
    17f3: b1 10        	lda	($10),y                 ; 0x2010 <main+0x1ca7>
    17f5: 85 12        	sta	$12                     ; 0x2012 <main+0x1ca9>
    17f7: c8           	iny
    17f8: b1 10        	lda	($10),y                 ; 0x2010 <main+0x1ca7>
    17fa: 85 13        	sta	$13                     ; 0x2013 <main+0x1caa>
    17fc: 20 ab 79     	jsr	$79ab <printf>
    17ff: 64 44        	stz	$44                     ; 0x2044 <main+0x1cdb>
    1801: 9c 14 d0     	stz	$d014                   ; 0xd014 <__heap_start+0x3d44>
    1804: 9c 15 d0     	stz	$d015                   ; 0xd015 <__heap_start+0x3d45>
    1807: a2 04        	ldx	#$4
    1809: 86 45        	stx	$45                     ; 0x2045 <main+0x1cdc>
    180b: 8e 16 d0     	stx	$d016                   ; 0xd016 <__heap_start+0x3d46>
    180e: 9c 17 d0     	stz	$d017                   ; 0xd017 <__heap_start+0x3d47>
    1811: a0 4e        	ldy	#$4e
    1813: b1 10        	lda	($10),y                 ; 0x2010 <main+0x1ca7>
    1815: 85 12        	sta	$12                     ; 0x2012 <main+0x1ca9>
    1817: c8           	iny
    1818: b1 10        	lda	($10),y                 ; 0x2010 <main+0x1ca7>
    181a: 85 13        	sta	$13                     ; 0x2013 <main+0x1caa>
    181c: 20 ab 79     	jsr	$79ab <printf>
    181f: a2 f0        	ldx	#$f0
    1821: 86 30        	stx	$30                     ; 0x2030 <main+0x1cc7>
    1823: a2 98        	ldx	#$98
    1825: 86 12        	stx	$12                     ; 0x2012 <main+0x1ca9>
    1827: a2 80        	ldx	#$80
    1829: 86 13        	stx	$13                     ; 0x2013 <main+0x1caa>
    182b: 20 57 5d     	jsr	$5d57 <wipeArea>
    182e: 64 24        	stz	$24                     ; 0x2024 <main+0x1cbb>
    1830: a0 20        	ldy	#$20
    1832: b1 10        	lda	($10),y                 ; 0x2010 <main+0x1ca7>
    1834: 85 25        	sta	$25                     ; 0x2025 <main+0x1cbc>
    1836: 88           	dey
    1837: b1 10        	lda	($10),y                 ; 0x2010 <main+0x1ca7>
    1839: 85 28        	sta	$28                     ; 0x2028 <main+0x1cbf>
    183b: 88           	dey
    183c: b1 10        	lda	($10),y                 ; 0x2010 <main+0x1ca7>
    183e: 85 29        	sta	$29                     ; 0x2029 <main+0x1cc0>
    1840: a0 12        	ldy	#$12
    1842: b1 10        	lda	($10),y                 ; 0x2010 <main+0x1ca7>
    1844: 85 2a        	sta	$2a                     ; 0x202a <main+0x1cc1>
    1846: 88           	dey
    1847: b1 10        	lda	($10),y                 ; 0x2010 <main+0x1ca7>
    1849: 85 2b        	sta	$2b                     ; 0x202b <main+0x1cc2>
    184b: a0 1d        	ldy	#$1d
    184d: b1 10        	lda	($10),y                 ; 0x2010 <main+0x1ca7>
    184f: 85 2f        	sta	$2f                     ; 0x202f <main+0x1cc6>
    1851: 88           	dey
    1852: b1 10        	lda	($10),y                 ; 0x2010 <main+0x1ca7>
    1854: 85 2c        	sta	$2c                     ; 0x202c <main+0x1cc3>
    1856: 88           	dey
    1857: b1 10        	lda	($10),y                 ; 0x2010 <main+0x1ca7>
    1859: 85 2d        	sta	$2d                     ; 0x202d <main+0x1cc4>
    185b: 88           	dey
    185c: b1 10        	lda	($10),y                 ; 0x2010 <main+0x1ca7>
    185e: 85 2e        	sta	$2e                     ; 0x202e <main+0x1cc5>
    1860: a9 00        	lda	#$0
    1862: 20 c3 45     	jsr	$45c3 <writeTopRight>
    1865: 64 44        	stz	$44                     ; 0x2044 <main+0x1cdb>
    1867: 9c 14 d0     	stz	$d014                   ; 0xd014 <__heap_start+0x3d44>
    186a: 9c 15 d0     	stz	$d015                   ; 0xd015 <__heap_start+0x3d45>
    186d: 64 45        	stz	$45                     ; 0x2045 <main+0x1cdc>
    186f: 9c 16 d0     	stz	$d016                   ; 0xd016 <__heap_start+0x3d46>
    1872: 9c 17 d0     	stz	$d017                   ; 0xd017 <__heap_start+0x3d47>
    1875: a9 ba        	lda	#$ba
    1877: 92 10        	sta	($10)                   ; 0x2010 <main+0x1ca7>
    1879: a9 80        	lda	#$80
    187b: a0 01        	ldy	#$1
    187d: 91 10        	sta	($10),y                 ; 0x2010 <main+0x1ca7>
    187f: a2 f6        	ldx	#$f6
    1881: 86 12        	stx	$12                     ; 0x2012 <main+0x1ca9>
    1883: a2 7e        	ldx	#$7e
    1885: 86 13        	stx	$13                     ; 0x2013 <main+0x1caa>
    1887: 20 ab 79     	jsr	$79ab <printf>
    188a: 64 01        	stz	$1                      ; 0x2001 <main+0x1c98>
    188c: a5 29        	lda	$29                     ; 0x2029 <main+0x1cc0>
    188e: 8d 00 d8     	sta	$d800                   ; 0xd800 <__heap_start+0x4530>
    1891: a4 28        	ldy	$28                     ; 0x2028 <main+0x1cbf>
    1893: 8c 01 d8     	sty	$d801                   ; 0xd801 <__heap_start+0x4531>
    1896: 9c 02 d8     	stz	$d802                   ; 0xd802 <__heap_start+0x4532>
    1899: 8d 04 d8     	sta	$d804                   ; 0xd804 <__heap_start+0x4534>
    189c: a6 2a        	ldx	$2a                     ; 0x202a <main+0x1cc1>
    189e: 8e 05 d8     	stx	$d805                   ; 0xd805 <__heap_start+0x4535>
    18a1: a6 2b        	ldx	$2b                     ; 0x202b <main+0x1cc2>
    18a3: 8e 06 d8     	stx	$d806                   ; 0xd806 <__heap_start+0x4536>
    18a6: 8d 08 d8     	sta	$d808                   ; 0xd808 <__heap_start+0x4538>
    18a9: 84 21        	sty	$21                     ; 0x2021 <main+0x1cb8>
    18ab: 48           	pha
    18ac: a0 3b        	ldy	#$3b
    18ae: b1 10        	lda	($10),y                 ; 0x2010 <main+0x1ca7>
    18b0: 8d 09 d8     	sta	$d809                   ; 0xd809 <__heap_start+0x4539>
    18b3: a0 34        	ldy	#$34
    18b5: b1 10        	lda	($10),y                 ; 0x2010 <main+0x1ca7>
    18b7: aa           	tax
    18b8: 68           	pla
    18b9: 8e 0a d8     	stx	$d80a                   ; 0xd80a <__heap_start+0x453a>
    18bc: 8d 0c d8     	sta	$d80c                   ; 0xd80c <__heap_start+0x453c>
    18bf: a6 2c        	ldx	$2c                     ; 0x202c <main+0x1cc3>
    18c1: 8e 0d d8     	stx	$d80d                   ; 0xd80d <__heap_start+0x453d>
    18c4: a6 2d        	ldx	$2d                     ; 0x202d <main+0x1cc4>
    18c6: 8e 0e d8     	stx	$d80e                   ; 0xd80e <__heap_start+0x453e>
    18c9: 8d 10 d8     	sta	$d810                   ; 0xd810 <__heap_start+0x4540>
    18cc: a6 2f        	ldx	$2f                     ; 0x202f <main+0x1cc6>
    18ce: 8e 11 d8     	stx	$d811                   ; 0xd811 <__heap_start+0x4541>
    18d1: a6 2e        	ldx	$2e                     ; 0x202e <main+0x1cc5>
    18d3: 8e 12 d8     	stx	$d812                   ; 0xd812 <__heap_start+0x4542>
    18d6: 8d 14 d8     	sta	$d814                   ; 0xd814 <__heap_start+0x4544>
    18d9: 48           	pha
    18da: a0 24        	ldy	#$24
    18dc: b1 10        	lda	($10),y                 ; 0x2010 <main+0x1ca7>
    18de: 8d 15 d8     	sta	$d815                   ; 0xd815 <__heap_start+0x4545>
    18e1: a0 38        	ldy	#$38
    18e3: b1 10        	lda	($10),y                 ; 0x2010 <main+0x1ca7>
    18e5: aa           	tax
    18e6: 68           	pla
    18e7: 8e 16 d8     	stx	$d816                   ; 0xd816 <__heap_start+0x4546>
    18ea: 8d 18 d8     	sta	$d818                   ; 0xd818 <__heap_start+0x4548>
    18ed: 48           	pha
    18ee: a0 22        	ldy	#$22
    18f0: b1 10        	lda	($10),y                 ; 0x2010 <main+0x1ca7>
    18f2: 8d 19 d8     	sta	$d819                   ; 0xd819 <__heap_start+0x4549>
    18f5: a0 25        	ldy	#$25
    18f7: b1 10        	lda	($10),y                 ; 0x2010 <main+0x1ca7>
    18f9: aa           	tax
    18fa: 68           	pla
    18fb: 8e 1a d8     	stx	$d81a                   ; 0xd81a <__heap_start+0x454a>
    18fe: 8d 1c d8     	sta	$d81c                   ; 0xd81c <__heap_start+0x454c>
    1901: 48           	pha
    1902: a0 21        	ldy	#$21
    1904: b1 10        	lda	($10),y                 ; 0x2010 <main+0x1ca7>
    1906: 8d 1d d8     	sta	$d81d                   ; 0xd81d <__heap_start+0x454d>
    1909: a0 23        	ldy	#$23
    190b: b1 10        	lda	($10),y                 ; 0x2010 <main+0x1ca7>
    190d: a4 21        	ldy	$21                     ; 0x2021 <main+0x1cb8>
    190f: aa           	tax
    1910: 68           	pla
    1911: 8e 1e d8     	stx	$d81e                   ; 0xd81e <__heap_start+0x454e>
    1914: 8d 20 d8     	sta	$d820                   ; 0xd820 <__heap_start+0x4550>
    1917: a2 ff        	ldx	#$ff
    1919: 8e 21 d8     	stx	$d821                   ; 0xd821 <__heap_start+0x4551>
    191c: 8c 22 d8     	sty	$d822                   ; 0xd822 <__heap_start+0x4552>
    191f: 5a           	phy
    1920: a0 2d        	ldy	#$2d
    1922: b1 10        	lda	($10),y                 ; 0x2010 <main+0x1ca7>
    1924: 8d 24 d8     	sta	$d824                   ; 0xd824 <__heap_start+0x4554>
    1927: a0 33        	ldy	#$33
    1929: b1 10        	lda	($10),y                 ; 0x2010 <main+0x1ca7>
    192b: 7a           	ply
    192c: 8d 25 d8     	sta	$d825                   ; 0xd825 <__heap_start+0x4555>
    192f: 8c 26 d8     	sty	$d826                   ; 0xd826 <__heap_start+0x4556>
    1932: 5a           	phy
    1933: a0 28        	ldy	#$28
    1935: b1 10        	lda	($10),y                 ; 0x2010 <main+0x1ca7>
    1937: 8d 28 d8     	sta	$d828                   ; 0xd828 <__heap_start+0x4558>
    193a: a0 2a        	ldy	#$2a
    193c: b1 10        	lda	($10),y                 ; 0x2010 <main+0x1ca7>
    193e: 7a           	ply
    193f: 8d 29 d8     	sta	$d829                   ; 0xd829 <__heap_start+0x4559>
    1942: 8c 2a d8     	sty	$d82a                   ; 0xd82a <__heap_start+0x455a>
    1945: 5a           	phy
    1946: a0 29        	ldy	#$29
    1948: b1 10        	lda	($10),y                 ; 0x2010 <main+0x1ca7>
    194a: 8d 2c d8     	sta	$d82c                   ; 0xd82c <__heap_start+0x455c>
    194d: a0 2c        	ldy	#$2c
    194f: b1 10        	lda	($10),y                 ; 0x2010 <main+0x1ca7>
    1951: 7a           	ply
    1952: 8d 2d d8     	sta	$d82d                   ; 0xd82d <__heap_start+0x455d>
    1955: 8c 2e d8     	sty	$d82e                   ; 0xd82e <__heap_start+0x455e>
    1958: 5a           	phy
    1959: a0 2b        	ldy	#$2b
    195b: b1 10        	lda	($10),y                 ; 0x2010 <main+0x1ca7>
    195d: 8d 30 d8     	sta	$d830                   ; 0xd830 <__heap_start+0x4560>
    1960: a0 2f        	ldy	#$2f
    1962: b1 10        	lda	($10),y                 ; 0x2010 <main+0x1ca7>
    1964: 7a           	ply
    1965: 8d 31 d8     	sta	$d831                   ; 0xd831 <__heap_start+0x4561>
    1968: 8c 32 d8     	sty	$d832                   ; 0xd832 <__heap_start+0x4562>
    196b: 5a           	phy
    196c: a0 2e        	ldy	#$2e
    196e: b1 10        	lda	($10),y                 ; 0x2010 <main+0x1ca7>
    1970: 8d 34 d8     	sta	$d834                   ; 0xd834 <__heap_start+0x4564>
    1973: a0 30        	ldy	#$30
    1975: b1 10        	lda	($10),y                 ; 0x2010 <main+0x1ca7>
    1977: 7a           	ply
    1978: 8d 35 d8     	sta	$d835                   ; 0xd835 <__heap_start+0x4565>
    197b: 8c 36 d8     	sty	$d836                   ; 0xd836 <__heap_start+0x4566>
    197e: 5a           	phy
    197f: a0 26        	ldy	#$26
    1981: b1 10        	lda	($10),y                 ; 0x2010 <main+0x1ca7>
    1983: 8d 38 d8     	sta	$d838                   ; 0xd838 <__heap_start+0x4568>
    1986: c8           	iny
    1987: b1 10        	lda	($10),y                 ; 0x2010 <main+0x1ca7>
    1989: 7a           	ply
    198a: 8d 39 d8     	sta	$d839                   ; 0xd839 <__heap_start+0x4569>
    198d: 8c 3a d8     	sty	$d83a                   ; 0xd83a <__heap_start+0x456a>
    1990: 5a           	phy
    1991: a0 31        	ldy	#$31
    1993: b1 10        	lda	($10),y                 ; 0x2010 <main+0x1ca7>
    1995: 8d 3c d8     	sta	$d83c                   ; 0xd83c <__heap_start+0x456c>
    1998: c8           	iny
    1999: b1 10        	lda	($10),y                 ; 0x2010 <main+0x1ca7>
    199b: 7a           	ply
    199c: 8d 3d d8     	sta	$d83d                   ; 0xd83d <__heap_start+0x456d>
    199f: 8c 3e d8     	sty	$d83e                   ; 0xd83e <__heap_start+0x456e>
    19a2: 20 ee 46     	jsr	$46ee <colMatrixSetup>
    19a5: a5 25        	lda	$25                     ; 0x2025 <main+0x1cbc>
    19a7: d0 03        	bne	$19ac <main+0x1643>
    19a9: 4c fe 19     	jmp	$19fe <main+0x1695>
    19ac: a6 10        	ldx	$10                     ; 0x2010 <main+0x1ca7>
    19ae: a4 11        	ldy	$11                     ; 0x2011 <main+0x1ca8>
    19b0: 18           	clc
    19b1: 8a           	txa
    19b2: 69 02        	adc	#$2
    19b4: 85 12        	sta	$12                     ; 0x2012 <main+0x1ca9>
    19b6: 98           	tya
    19b7: 69 00        	adc	#$0
    19b9: 85 13        	sta	$13                     ; 0x2013 <main+0x1caa>
    19bb: 18           	clc
    19bc: 8a           	txa
    19bd: 69 04        	adc	#$4
    19bf: 85 14        	sta	$14                     ; 0x2014 <main+0x1cab>
    19c1: 98           	tya
    19c2: 69 00        	adc	#$0
    19c4: aa           	tax
    19c5: a9 9a        	lda	#$9a
    19c7: 92 10        	sta	($10)                   ; 0x2010 <main+0x1ca7>
    19c9: a9 80        	lda	#$80
    19cb: a0 01        	ldy	#$1
    19cd: 91 10        	sta	($10),y                 ; 0x2010 <main+0x1ca7>
    19cf: a9 52        	lda	#$52
    19d1: c8           	iny
    19d2: 91 10        	sta	($10),y                 ; 0x2010 <main+0x1ca7>
    19d4: a9 7d        	lda	#$7d
    19d6: 88           	dey
    19d7: 91 12        	sta	($12),y                 ; 0x2012 <main+0x1ca9>
    19d9: a4 14        	ldy	$14                     ; 0x2014 <main+0x1cab>
    19db: 84 12        	sty	$12                     ; 0x2012 <main+0x1ca9>
    19dd: 86 13        	stx	$13                     ; 0x2013 <main+0x1caa>
    19df: a9 ba        	lda	#$ba
    19e1: a0 04        	ldy	#$4
    19e3: 91 10        	sta	($10),y                 ; 0x2010 <main+0x1ca7>
    19e5: a9 80        	lda	#$80
    19e7: a0 01        	ldy	#$1
    19e9: 91 12        	sta	($12),y                 ; 0x2012 <main+0x1ca9>
    19eb: a2 8e        	ldx	#$8e
    19ed: 86 12        	stx	$12                     ; 0x2012 <main+0x1ca9>
    19ef: a2 92        	ldx	#$92
    19f1: 86 13        	stx	$13                     ; 0x2013 <main+0x1caa>
    19f3: a2 74        	ldx	#$74
    19f5: 86 14        	stx	$14                     ; 0x2014 <main+0x1cab>
    19f7: a2 7e        	ldx	#$7e
    19f9: 86 15        	stx	$15                     ; 0x2015 <main+0x1cac>
    19fb: 20 33 7a     	jsr	$7a33 <sprintf>
    19fe: ae 8e 92     	ldx	$928e                   ; 0x928e <finalName>
    1a01: a0 3c        	ldy	#$3c
    1a03: b1 10        	lda	($10),y                 ; 0x2010 <main+0x1ca7>
    1a05: 85 1a        	sta	$1a                     ; 0x201a <main+0x1cb1>
    1a07: a0 8e        	ldy	#$8e
    1a09: 84 12        	sty	$12                     ; 0x2012 <main+0x1ca9>
    1a0b: a0 92        	ldy	#$92
    1a0d: 84 13        	sty	$13                     ; 0x2013 <main+0x1caa>
    1a0f: a0 00        	ldy	#$0
    1a11: 84 18        	sty	$18                     ; 0x2018 <main+0x1caf>
    1a13: a0 00        	ldy	#$0
    1a15: 84 19        	sty	$19                     ; 0x2019 <main+0x1cb0>
    1a17: a0 5e        	ldy	#$5e
    1a19: 84 22        	sty	$22                     ; 0x2022 <main+0x1cb9>
    1a1b: a0 00        	ldy	#$0
    1a1d: 84 23        	sty	$23                     ; 0x2023 <main+0x1cba>
    1a1f: 8a           	txa
    1a20: d0 03        	bne	$1a25 <main+0x16bc>
    1a22: 4c 8f 1a     	jmp	$1a8f <main+0x1726>
    1a25: 86 14        	stx	$14                     ; 0x2014 <main+0x1cab>
    1a27: 64 12        	stz	$12                     ; 0x2012 <main+0x1ca9>
    1a29: 64 13        	stz	$13                     ; 0x2013 <main+0x1caa>
    1a2b: a6 12        	ldx	$12                     ; 0x2012 <main+0x1ca9>
    1a2d: a4 13        	ldy	$13                     ; 0x2013 <main+0x1caa>
    1a2f: e8           	inx
    1a30: d0 01        	bne	$1a33 <main+0x16ca>
    1a32: c8           	iny
    1a33: a9 8f        	lda	#$8f
    1a35: 18           	clc
    1a36: 65 12        	adc	$12                     ; 0x2012 <main+0x1ca9>
    1a38: 85 12        	sta	$12                     ; 0x2012 <main+0x1ca9>
    1a3a: a9 92        	lda	#$92
    1a3c: 65 13        	adc	$13                     ; 0x2013 <main+0x1caa>
    1a3e: 85 13        	sta	$13                     ; 0x2013 <main+0x1caa>
    1a40: b2 12        	lda	($12)                   ; 0x2012 <main+0x1ca9>
    1a42: 86 12        	stx	$12                     ; 0x2012 <main+0x1ca9>
    1a44: 84 13        	sty	$13                     ; 0x2013 <main+0x1caa>
    1a46: d0 e3        	bne	$1a2b <main+0x16c2>
    1a48: 98           	tya
    1a49: d0 04        	bne	$1a4f <main+0x16e6>
    1a4b: e0 02        	cpx	#$2
    1a4d: 80 02        	bra	$1a51 <main+0x16e8>
    1a4f: c0 00        	cpy	#$0
    1a51: a0 3c        	ldy	#$3c
    1a53: b1 10        	lda	($10),y                 ; 0x2010 <main+0x1ca7>
    1a55: 85 1a        	sta	$1a                     ; 0x201a <main+0x1cb1>
    1a57: a2 8e        	ldx	#$8e
    1a59: 86 12        	stx	$12                     ; 0x2012 <main+0x1ca9>
    1a5b: a2 92        	ldx	#$92
    1a5d: 86 13        	stx	$13                     ; 0x2013 <main+0x1caa>
    1a5f: a5 14        	lda	$14                     ; 0x2014 <main+0x1cab>
    1a61: 90 2c        	bcc	$1a8f <main+0x1726>
    1a63: ae 8f 92     	ldx	$928f                   ; 0x928f <finalName+0x1>
    1a66: 48           	pha
    1a67: b1 10        	lda	($10),y                 ; 0x2010 <main+0x1ca7>
    1a69: 85 1a        	sta	$1a                     ; 0x201a <main+0x1cb1>
    1a6b: 68           	pla
    1a6c: e0 3a        	cpx	#$3a
    1a6e: d0 1f        	bne	$1a8f <main+0x1726>
    1a70: c9 30        	cmp	#$30
    1a72: 48           	pha
    1a73: b1 10        	lda	($10),y                 ; 0x2010 <main+0x1ca7>
    1a75: 85 1a        	sta	$1a                     ; 0x201a <main+0x1cb1>
    1a77: 68           	pla
    1a78: a2 90        	ldx	#$90
    1a7a: 86 12        	stx	$12                     ; 0x2012 <main+0x1ca9>
    1a7c: a2 92        	ldx	#$92
    1a7e: 86 13        	stx	$13                     ; 0x2013 <main+0x1caa>
    1a80: 90 0d        	bcc	$1a8f <main+0x1726>
    1a82: c9 38        	cmp	#$38
    1a84: 48           	pha
    1a85: b1 10        	lda	($10),y                 ; 0x2010 <main+0x1ca7>
    1a87: 85 1a        	sta	$1a                     ; 0x201a <main+0x1cb1>
    1a89: 68           	pla
    1a8a: b0 03        	bcs	$1a8f <main+0x1726>
    1a8c: 4c 94 3d     	jmp	$3d94 <main+0x3a2b>
    1a8f: a2 9c        	ldx	#$9c
    1a91: 86 14        	stx	$14                     ; 0x2014 <main+0x1cab>
    1a93: a2 7d        	ldx	#$7d
    1a95: 86 15        	stx	$15                     ; 0x2015 <main+0x1cac>
    1a97: a2 00        	ldx	#$0
    1a99: 80 0a        	bra	$1aa5 <main+0x173c>
    1a9b: a0 02        	ldy	#$2
    1a9d: e6 14        	inc	$14                     ; 0x2014 <main+0x1cab>
    1a9f: d0 02        	bne	$1aa3 <main+0x173a>
    1aa1: e6 15        	inc	$15                     ; 0x2015 <main+0x1cac>
    1aa3: 5a           	phy
    1aa4: fa           	plx
    1aa5: b2 14        	lda	($14)                   ; 0x2014 <main+0x1cab>
    1aa7: c9 61        	cmp	#$61
    1aa9: f0 f0        	beq	$1a9b <main+0x1732>
    1aab: a0 01        	ldy	#$1
    1aad: c9 77        	cmp	#$77
    1aaf: f0 05        	beq	$1ab6 <main+0x174d>
    1ab1: a8           	tay
    1ab2: f0 08        	beq	$1abc <main+0x1753>
    1ab4: da           	phx
    1ab5: 7a           	ply
    1ab6: e6 14        	inc	$14                     ; 0x2014 <main+0x1cab>
    1ab8: f0 e7        	beq	$1aa1 <main+0x1738>
    1aba: 80 e7        	bra	$1aa3 <main+0x173a>
    1abc: a4 12        	ldy	$12                     ; 0x2012 <main+0x1ca9>
    1abe: a5 13        	lda	$13                     ; 0x2013 <main+0x1caa>
    1ac0: 84 fb        	sty	$fb                     ; 0x20fb <main+0x1d92>
    1ac2: 85 fc        	sta	$fc                     ; 0x20fc <main+0x1d93>
    1ac4: b2 12        	lda	($12)                   ; 0x2012 <main+0x1ca9>
    1ac6: f0 33        	beq	$1afb <main+0x1792>
    1ac8: 64 15        	stz	$15                     ; 0x2015 <main+0x1cac>
    1aca: a9 00        	lda	#$0
    1acc: 64 14        	stz	$14                     ; 0x2014 <main+0x1cab>
    1ace: a0 01        	ldy	#$1
    1ad0: 5a           	phy
    1ad1: a4 15        	ldy	$15                     ; 0x2015 <main+0x1cac>
    1ad3: 84 16        	sty	$16                     ; 0x2016 <main+0x1cad>
    1ad5: 7a           	ply
    1ad6: e6 15        	inc	$15                     ; 0x2015 <main+0x1cac>
    1ad8: d0 02        	bne	$1adc <main+0x1773>
    1ada: e6 14        	inc	$14                     ; 0x2014 <main+0x1cab>
    1adc: 18           	clc
    1add: 85 17        	sta	$17                     ; 0x2017 <main+0x1cae>
    1adf: a5 16        	lda	$16                     ; 0x2016 <main+0x1cad>
    1ae1: 65 12        	adc	$12                     ; 0x2012 <main+0x1ca9>
    1ae3: 85 16        	sta	$16                     ; 0x2016 <main+0x1cad>
    1ae5: a5 17        	lda	$17                     ; 0x2017 <main+0x1cae>
    1ae7: 65 13        	adc	$13                     ; 0x2013 <main+0x1caa>
    1ae9: 85 17        	sta	$17                     ; 0x2017 <main+0x1cae>
    1aeb: b1 16        	lda	($16),y                 ; 0x2016 <main+0x1cad>
    1aed: 85 16        	sta	$16                     ; 0x2016 <main+0x1cad>
    1aef: a5 14        	lda	$14                     ; 0x2014 <main+0x1cab>
    1af1: e6 16        	inc	$16                     ; 0x2016 <main+0x1cad>
    1af3: c6 16        	dec	$16                     ; 0x2016 <main+0x1cad>
    1af5: d0 d9        	bne	$1ad0 <main+0x1767>
    1af7: a4 15        	ldy	$15                     ; 0x2015 <main+0x1cac>
    1af9: 80 02        	bra	$1afd <main+0x1794>
    1afb: a0 00        	ldy	#$0
    1afd: 84 fd        	sty	$fd                     ; 0x20fd <main+0x1d94>
    1aff: a4 1a        	ldy	$1a                     ; 0x201a <main+0x1cb1>
    1b01: 84 f3        	sty	$f3                     ; 0x20f3 <main+0x1d8a>
    1b03: 86 f5        	stx	$f5                     ; 0x20f5 <main+0x1d8c>
    1b05: 20 5c ff     	jsr	$ff5c <__heap_start+0x6c8c>
    1b08: 92 26        	sta	($26)                   ; 0x2026 <main+0x1cbd>
    1b0a: a9 00        	lda	#$0
    1b0c: 6a           	ror
    1b0d: 85 22        	sta	$22                     ; 0x2022 <main+0x1cb9>
    1b0f: a6 5e        	ldx	$5e                     ; 0x205e <main+0x1cf5>
    1b11: a0 01        	ldy	#$1
    1b13: 8a           	txa
    1b14: d0 03        	bne	$1b19 <main+0x17b0>
    1b16: 4c de 29     	jmp	$29de <main+0x2675>
    1b19: a6 18        	ldx	$18                     ; 0x2018 <main+0x1caf>
    1b1b: a4 19        	ldy	$19                     ; 0x2019 <main+0x1cb0>
    1b1d: 86 5c        	stx	$5c                     ; 0x205c <main+0x1cf3>
    1b1f: 84 5d        	sty	$5d                     ; 0x205d <main+0x1cf4>
    1b21: a2 9f        	ldx	#$9f
    1b23: 86 12        	stx	$12                     ; 0x2012 <main+0x1ca9>
    1b25: a2 7d        	ldx	#$7d
    1b27: 86 13        	stx	$13                     ; 0x2013 <main+0x1caa>
    1b29: 20 ab 79     	jsr	$79ab <printf>
    1b2c: a2 5e        	ldx	#$5e
    1b2e: 86 22        	stx	$22                     ; 0x2022 <main+0x1cb9>
    1b30: a2 00        	ldx	#$0
    1b32: 86 23        	stx	$23                     ; 0x2023 <main+0x1cba>
    1b34: a6 5c        	ldx	$5c                     ; 0x205c <main+0x1cf3>
    1b36: a4 5d        	ldy	$5d                     ; 0x205d <main+0x1cf4>
    1b38: 86 12        	stx	$12                     ; 0x2012 <main+0x1ca9>
    1b3a: 84 13        	sty	$13                     ; 0x2013 <main+0x1caa>
    1b3c: a0 35        	ldy	#$35
    1b3e: b1 10        	lda	($10),y                 ; 0x2010 <main+0x1ca7>
    1b40: 85 1c        	sta	$1c                     ; 0x201c <main+0x1cb3>
    1b42: c8           	iny
    1b43: b1 10        	lda	($10),y                 ; 0x2010 <main+0x1ca7>
    1b45: 85 1d        	sta	$1d                     ; 0x201d <main+0x1cb4>
    1b47: a2 00        	ldx	#$0
    1b49: 64 1f        	stz	$1f                     ; 0x201f <main+0x1cb6>
    1b4b: a5 1f        	lda	$1f                     ; 0x201f <main+0x1cb6>
    1b4d: 4a           	lsr
    1b4e: 8a           	txa
    1b4f: 6a           	ror
    1b50: a8           	tay
    1b51: a9 00        	lda	#$0
    1b53: 6a           	ror
    1b54: 18           	clc
    1b55: 48           	pha
    1b56: a5 10        	lda	$10                     ; 0x2010 <main+0x1ca7>
    1b58: 69 50        	adc	#$50
    1b5a: 85 14        	sta	$14                     ; 0x2014 <main+0x1cab>
    1b5c: a5 11        	lda	$11                     ; 0x2011 <main+0x1ca8>
    1b5e: 69 00        	adc	#$0
    1b60: 85 15        	sta	$15                     ; 0x2015 <main+0x1cac>
    1b62: 68           	pla
    1b63: 18           	clc
    1b64: 65 14        	adc	$14                     ; 0x2014 <main+0x1cab>
    1b66: 85 16        	sta	$16                     ; 0x2016 <main+0x1cad>
    1b68: 98           	tya
    1b69: 65 15        	adc	$15                     ; 0x2015 <main+0x1cac>
    1b6b: a4 16        	ldy	$16                     ; 0x2016 <main+0x1cad>
    1b6d: 85 1a        	sta	$1a                     ; 0x201a <main+0x1cb1>
    1b6f: 64 16        	stz	$16                     ; 0x2016 <main+0x1cad>
    1b71: 64 17        	stz	$17                     ; 0x2017 <main+0x1cae>
    1b73: b2 12        	lda	($12)                   ; 0x2012 <main+0x1ca9>
    1b75: 85 19        	sta	$19                     ; 0x2019 <main+0x1cb0>
    1b77: 84 1b        	sty	$1b                     ; 0x201b <main+0x1cb2>
    1b79: 98           	tya
    1b7a: 18           	clc
    1b7b: 65 16        	adc	$16                     ; 0x2016 <main+0x1cad>
    1b7d: 85 18        	sta	$18                     ; 0x2018 <main+0x1caf>
    1b7f: a5 1a        	lda	$1a                     ; 0x201a <main+0x1cb1>
    1b81: 65 17        	adc	$17                     ; 0x2017 <main+0x1cae>
    1b83: a4 19        	ldy	$19                     ; 0x2019 <main+0x1cb0>
    1b85: d0 03        	bne	$1b8a <main+0x1821>
    1b87: 4c e7 1b     	jmp	$1be7 <main+0x187e>
    1b8a: a4 19        	ldy	$19                     ; 0x2019 <main+0x1cb0>
    1b8c: 85 19        	sta	$19                     ; 0x2019 <main+0x1cb0>
    1b8e: a9 80        	lda	#$80
    1b90: 38           	sec
    1b91: e5 16        	sbc	$16                     ; 0x2016 <main+0x1cad>
    1b93: 84 f3        	sty	$f3                     ; 0x20f3 <main+0x1d8a>
    1b95: 85 f4        	sta	$f4                     ; 0x20f4 <main+0x1d8b>
    1b97: 20 60 ff     	jsr	$ff60 <__heap_start+0x6c90>
    1b9a: 92 26        	sta	($26)                   ; 0x2026 <main+0x1cbd>
    1b9c: a9 00        	lda	#$0
    1b9e: 6a           	ror
    1b9f: 85 22        	sta	$22                     ; 0x2022 <main+0x1cb9>
    1ba1: a5 5e        	lda	$5e                     ; 0x205e <main+0x1cf5>
    1ba3: f0 03        	beq	$1ba8 <main+0x183f>
    1ba5: 4c 35 1c     	jmp	$1c35 <main+0x18cc>
    1ba8: 64 5f        	stz	$5f                     ; 0x205f <main+0x1cf6>
    1baa: 20 00 ff     	jsr	$ff00 <__heap_start+0x6c30>
    1bad: 92 26        	sta	($26)                   ; 0x2026 <main+0x1cbd>
    1baf: a9 00        	lda	#$0
    1bb1: 6a           	ror
    1bb2: 85 22        	sta	$22                     ; 0x2022 <main+0x1cb9>
    1bb4: a5 5f        	lda	$5f                     ; 0x205f <main+0x1cf6>
    1bb6: c9 38        	cmp	#$38
    1bb8: d0 03        	bne	$1bbd <main+0x1854>
    1bba: 4c 35 1c     	jmp	$1c35 <main+0x18cc>
    1bbd: c9 30        	cmp	#$30
    1bbf: d0 03        	bne	$1bc4 <main+0x185b>
    1bc1: 4c 35 1c     	jmp	$1c35 <main+0x18cc>
    1bc4: c9 2c        	cmp	#$2c
    1bc6: d0 e0        	bne	$1ba8 <main+0x183f>
    1bc8: 86 1e        	stx	$1e                     ; 0x201e <main+0x1cb5>
    1bca: a5 18        	lda	$18                     ; 0x2018 <main+0x1caf>
    1bcc: 85 fb        	sta	$fb                     ; 0x20fb <main+0x1d92>
    1bce: a5 19        	lda	$19                     ; 0x2019 <main+0x1cb0>
    1bd0: 85 fc        	sta	$fc                     ; 0x20fc <main+0x1d93>
    1bd2: a5 65        	lda	$65                     ; 0x2065 <main+0x1cfc>
    1bd4: 85 fd        	sta	$fd                     ; 0x20fd <main+0x1d94>
    1bd6: 20 04 ff     	jsr	$ff04 <__heap_start+0x6c34>
    1bd9: 92 26        	sta	($26)                   ; 0x2026 <main+0x1cbd>
    1bdb: a9 00        	lda	#$0
    1bdd: 6a           	ror
    1bde: 85 22        	sta	$22                     ; 0x2022 <main+0x1cb9>
    1be0: a5 65        	lda	$65                     ; 0x2065 <main+0x1cfc>
    1be2: d0 33        	bne	$1c17 <main+0x18ae>
    1be4: 4c 4f 1c     	jmp	$1c4f <main+0x18e6>
    1be7: 85 19        	sta	$19                     ; 0x2019 <main+0x1cb0>
    1be9: 80 0a        	bra	$1bf5 <main+0x188c>
    1beb: 20 0c ff     	jsr	$ff0c <__heap_start+0x6c3c>
    1bee: 92 26        	sta	($26)                   ; 0x2026 <main+0x1cbd>
    1bf0: a9 00        	lda	#$0
    1bf2: 6a           	ror
    1bf3: 85 22        	sta	$22                     ; 0x2022 <main+0x1cb9>
    1bf5: 64 5f        	stz	$5f                     ; 0x205f <main+0x1cf6>
    1bf7: 20 00 ff     	jsr	$ff00 <__heap_start+0x6c30>
    1bfa: 92 26        	sta	($26)                   ; 0x2026 <main+0x1cbd>
    1bfc: a9 00        	lda	#$0
    1bfe: 6a           	ror
    1bff: 85 22        	sta	$22                     ; 0x2022 <main+0x1cb9>
    1c01: a5 5e        	lda	$5e                     ; 0x205e <main+0x1cf5>
    1c03: d0 e6        	bne	$1beb <main+0x1882>
    1c05: a5 5f        	lda	$5f                     ; 0x205f <main+0x1cf6>
    1c07: c9 08        	cmp	#$8
    1c09: d0 ea        	bne	$1bf5 <main+0x188c>
    1c0b: a5 65        	lda	$65                     ; 0x2065 <main+0x1cfc>
    1c0d: d0 e6        	bne	$1bf5 <main+0x188c>
    1c0f: 86 1e        	stx	$1e                     ; 0x201e <main+0x1cb5>
    1c11: a5 64        	lda	$64                     ; 0x2064 <main+0x1cfb>
    1c13: 92 18        	sta	($18)                   ; 0x2018 <main+0x1caf>
    1c15: a9 01        	lda	#$1
    1c17: a0 00        	ldy	#$0
    1c19: 18           	clc
    1c1a: 65 16        	adc	$16                     ; 0x2016 <main+0x1cad>
    1c1c: aa           	tax
    1c1d: 98           	tya
    1c1e: 65 17        	adc	$17                     ; 0x2017 <main+0x1cae>
    1c20: d0 04        	bne	$1c26 <main+0x18bd>
    1c22: e0 80        	cpx	#$80
    1c24: 80 02        	bra	$1c28 <main+0x18bf>
    1c26: c9 00        	cmp	#$0
    1c28: 86 16        	stx	$16                     ; 0x2016 <main+0x1cad>
    1c2a: 85 17        	sta	$17                     ; 0x2017 <main+0x1cae>
    1c2c: a4 1b        	ldy	$1b                     ; 0x201b <main+0x1cb2>
    1c2e: a6 1e        	ldx	$1e                     ; 0x201e <main+0x1cb5>
    1c30: b0 03        	bcs	$1c35 <main+0x18cc>
    1c32: 4c 73 1b     	jmp	$1b73 <main+0x180a>
    1c35: e8           	inx
    1c36: f0 07        	beq	$1c3f <main+0x18d6>
    1c38: a5 1f        	lda	$1f                     ; 0x201f <main+0x1cb6>
    1c3a: f0 0c        	beq	$1c48 <main+0x18df>
    1c3c: 4c 4b 1b     	jmp	$1b4b <main+0x17e2>
    1c3f: e6 1f        	inc	$1f                     ; 0x201f <main+0x1cb6>
    1c41: a5 1f        	lda	$1f                     ; 0x201f <main+0x1cb6>
    1c43: f0 03        	beq	$1c48 <main+0x18df>
    1c45: 4c 4b 1b     	jmp	$1b4b <main+0x17e2>
    1c48: e0 40        	cpx	#$40
    1c4a: f0 09        	beq	$1c55 <main+0x18ec>
    1c4c: 4c 4b 1b     	jmp	$1b4b <main+0x17e2>
    1c4f: a9 00        	lda	#$0
    1c51: a0 01        	ldy	#$1
    1c53: 80 c4        	bra	$1c19 <main+0x18b0>
    1c55: a2 03        	ldx	#$3
    1c57: 8e 01 d7     	stx	$d701                   ; 0xd701 <__heap_start+0x4431>
    1c5a: 9c 02 d7     	stz	$d702                   ; 0xd702 <__heap_start+0x4432>
    1c5d: 8e 00 d7     	stx	$d700                   ; 0xd700 <__heap_start+0x4430>
    1c60: 9c 00 d7     	stz	$d700                   ; 0xd700 <__heap_start+0x4430>
    1c63: ae 00 d7     	ldx	$d700                   ; 0xd700 <__heap_start+0x4430>
    1c66: 30 fb        	bmi	$1c63 <main+0x18fa>
    1c68: ae 02 d7     	ldx	$d702                   ; 0xd702 <__heap_start+0x4432>
    1c6b: ae 03 d7     	ldx	$d703                   ; 0xd703 <__heap_start+0x4433>
    1c6e: a0 08        	ldy	#$8
    1c70: a2 00        	ldx	#$0
    1c72: 80 03        	bra	$1c77 <main+0x190e>
    1c74: 98           	tya
    1c75: f0 19        	beq	$1c90 <main+0x1927>
    1c77: b2 14        	lda	($14)                   ; 0x2014 <main+0x1cab>
    1c79: 8d 07 d7     	sta	$d707                   ; 0xd707 <__heap_start+0x4437>
    1c7c: ca           	dex
    1c7d: e0 ff        	cpx	#$ff
    1c7f: f0 06        	beq	$1c87 <main+0x191e>
    1c81: e6 14        	inc	$14                     ; 0x2014 <main+0x1cab>
    1c83: d0 ef        	bne	$1c74 <main+0x190b>
    1c85: 80 05        	bra	$1c8c <main+0x1923>
    1c87: 88           	dey
    1c88: e6 14        	inc	$14                     ; 0x2014 <main+0x1cab>
    1c8a: d0 e8        	bne	$1c74 <main+0x190b>
    1c8c: e6 15        	inc	$15                     ; 0x2015 <main+0x1cac>
    1c8e: 80 e4        	bra	$1c74 <main+0x190b>
    1c90: 8a           	txa
    1c91: d0 e4        	bne	$1c77 <main+0x190e>
    1c93: a0 08        	ldy	#$8
    1c95: a2 00        	ldx	#$0
    1c97: 5a           	phy
    1c98: a0 14        	ldy	#$14
    1c9a: b1 10        	lda	($10),y                 ; 0x2010 <main+0x1ca7>
    1c9c: 85 12        	sta	$12                     ; 0x2012 <main+0x1ca9>
    1c9e: c8           	iny
    1c9f: b1 10        	lda	($10),y                 ; 0x2010 <main+0x1ca7>
    1ca1: 7a           	ply
    1ca2: 85 13        	sta	$13                     ; 0x2013 <main+0x1caa>
    1ca4: 80 03        	bra	$1ca9 <main+0x1940>
    1ca6: 98           	tya
    1ca7: f0 19        	beq	$1cc2 <main+0x1959>
    1ca9: b2 12        	lda	($12)                   ; 0x2012 <main+0x1ca9>
    1cab: 8d 07 d7     	sta	$d707                   ; 0xd707 <__heap_start+0x4437>
    1cae: ca           	dex
    1caf: e0 ff        	cpx	#$ff
    1cb1: f0 06        	beq	$1cb9 <main+0x1950>
    1cb3: e6 12        	inc	$12                     ; 0x2012 <main+0x1ca9>
    1cb5: d0 ef        	bne	$1ca6 <main+0x193d>
    1cb7: 80 05        	bra	$1cbe <main+0x1955>
    1cb9: 88           	dey
    1cba: e6 12        	inc	$12                     ; 0x2012 <main+0x1ca9>
    1cbc: d0 e8        	bne	$1ca6 <main+0x193d>
    1cbe: e6 13        	inc	$13                     ; 0x2013 <main+0x1caa>
    1cc0: 80 e4        	bra	$1ca6 <main+0x193d>
    1cc2: 8a           	txa
    1cc3: d0 e4        	bne	$1ca9 <main+0x1940>
    1cc5: 18           	clc
    1cc6: a9 00        	lda	#$0
    1cc8: a0 38        	ldy	#$38
    1cca: 91 10        	sta	($10),y                 ; 0x2010 <main+0x1ca7>
    1ccc: a2 10        	ldx	#$10
    1cce: 8a           	txa
    1ccf: a0 44        	ldy	#$44
    1cd1: 91 10        	sta	($10),y                 ; 0x2010 <main+0x1ca7>
    1cd3: 64 12        	stz	$12                     ; 0x2012 <main+0x1ca9>
    1cd5: a9 00        	lda	#$0
    1cd7: a0 49        	ldy	#$49
    1cd9: 91 10        	sta	($10),y                 ; 0x2010 <main+0x1ca7>
    1cdb: a0 3b        	ldy	#$3b
    1cdd: 91 10        	sta	($10),y                 ; 0x2010 <main+0x1ca7>
    1cdf: a0 3d        	ldy	#$3d
    1ce1: 91 10        	sta	($10),y                 ; 0x2010 <main+0x1ca7>
    1ce3: 64 25        	stz	$25                     ; 0x2025 <main+0x1cbc>
    1ce5: 64 28        	stz	$28                     ; 0x2028 <main+0x1cbf>
    1ce7: 64 24        	stz	$24                     ; 0x2024 <main+0x1cbb>
    1ce9: 4c 6d 1e     	jmp	$1e6d <main+0x1b04>
    1cec: 84 24        	sty	$24                     ; 0x2024 <main+0x1cbb>
    1cee: 18           	clc
    1cef: 90 03        	bcc	$1cf4 <main+0x198b>
    1cf1: 4c 8f 28     	jmp	$288f <main+0x2526>
    1cf4: a0 44        	ldy	#$44
    1cf6: 91 10        	sta	($10),y                 ; 0x2010 <main+0x1ca7>
    1cf8: 18           	clc
    1cf9: a5 10        	lda	$10                     ; 0x2010 <main+0x1ca7>
    1cfb: 69 50        	adc	#$50
    1cfd: 85 14        	sta	$14                     ; 0x2014 <main+0x1cab>
    1cff: a5 11        	lda	$11                     ; 0x2011 <main+0x1ca8>
    1d01: 69 00        	adc	#$0
    1d03: 85 15        	sta	$15                     ; 0x2015 <main+0x1cac>
    1d05: a5 25        	lda	$25                     ; 0x2025 <main+0x1cbc>
    1d07: 18           	clc
    1d08: 65 14        	adc	$14                     ; 0x2014 <main+0x1cab>
    1d0a: 85 16        	sta	$16                     ; 0x2016 <main+0x1cad>
    1d0c: a5 28        	lda	$28                     ; 0x2028 <main+0x1cbf>
    1d0e: 65 15        	adc	$15                     ; 0x2015 <main+0x1cac>
    1d10: 85 1e        	sta	$1e                     ; 0x201e <main+0x1cb5>
    1d12: a5 5c        	lda	$5c                     ; 0x205c <main+0x1cf3>
    1d14: 85 14        	sta	$14                     ; 0x2014 <main+0x1cab>
    1d16: a5 5d        	lda	$5d                     ; 0x205d <main+0x1cf4>
    1d18: 85 15        	sta	$15                     ; 0x2015 <main+0x1cac>
    1d1a: a4 16        	ldy	$16                     ; 0x2016 <main+0x1cad>
    1d1c: 84 18        	sty	$18                     ; 0x2018 <main+0x1caf>
    1d1e: 64 16        	stz	$16                     ; 0x2016 <main+0x1cad>
    1d20: 64 17        	stz	$17                     ; 0x2017 <main+0x1cae>
    1d22: b2 14        	lda	($14)                   ; 0x2014 <main+0x1cab>
    1d24: a8           	tay
    1d25: a5 18        	lda	$18                     ; 0x2018 <main+0x1caf>
    1d27: 85 1b        	sta	$1b                     ; 0x201b <main+0x1cb2>
    1d29: a5 18        	lda	$18                     ; 0x2018 <main+0x1caf>
    1d2b: 18           	clc
    1d2c: 65 16        	adc	$16                     ; 0x2016 <main+0x1cad>
    1d2e: 85 18        	sta	$18                     ; 0x2018 <main+0x1caf>
    1d30: a5 1e        	lda	$1e                     ; 0x201e <main+0x1cb5>
    1d32: 65 17        	adc	$17                     ; 0x2017 <main+0x1cae>
    1d34: c0 00        	cpy	#$0
    1d36: d0 03        	bne	$1d3b <main+0x19d2>
    1d38: 4c 96 1d     	jmp	$1d96 <main+0x1a2d>
    1d3b: 85 19        	sta	$19                     ; 0x2019 <main+0x1cb0>
    1d3d: 38           	sec
    1d3e: a9 40        	lda	#$40
    1d40: e5 16        	sbc	$16                     ; 0x2016 <main+0x1cad>
    1d42: 84 f3        	sty	$f3                     ; 0x20f3 <main+0x1d8a>
    1d44: 85 f4        	sta	$f4                     ; 0x20f4 <main+0x1d8b>
    1d46: 20 60 ff     	jsr	$ff60 <__heap_start+0x6c90>
    1d49: 92 26        	sta	($26)                   ; 0x2026 <main+0x1cbd>
    1d4b: a9 00        	lda	#$0
    1d4d: 6a           	ror
    1d4e: 85 22        	sta	$22                     ; 0x2022 <main+0x1cb9>
    1d50: a5 5e        	lda	$5e                     ; 0x205e <main+0x1cf5>
    1d52: f0 03        	beq	$1d57 <main+0x19ee>
    1d54: 4c ec 1d     	jmp	$1dec <main+0x1a83>
    1d57: 64 5f        	stz	$5f                     ; 0x205f <main+0x1cf6>
    1d59: 20 00 ff     	jsr	$ff00 <__heap_start+0x6c30>
    1d5c: 92 26        	sta	($26)                   ; 0x2026 <main+0x1cbd>
    1d5e: a9 00        	lda	#$0
    1d60: 6a           	ror
    1d61: 85 22        	sta	$22                     ; 0x2022 <main+0x1cb9>
    1d63: a5 5f        	lda	$5f                     ; 0x205f <main+0x1cf6>
    1d65: c9 38        	cmp	#$38
    1d67: d0 03        	bne	$1d6c <main+0x1a03>
    1d69: 4c ec 1d     	jmp	$1dec <main+0x1a83>
    1d6c: c9 30        	cmp	#$30
    1d6e: d0 03        	bne	$1d73 <main+0x1a0a>
    1d70: 4c f0 1d     	jmp	$1df0 <main+0x1a87>
    1d73: c9 2c        	cmp	#$2c
    1d75: d0 e0        	bne	$1d57 <main+0x19ee>
    1d77: 86 1f        	stx	$1f                     ; 0x201f <main+0x1cb6>
    1d79: a4 18        	ldy	$18                     ; 0x2018 <main+0x1caf>
    1d7b: 84 fb        	sty	$fb                     ; 0x20fb <main+0x1d92>
    1d7d: a4 19        	ldy	$19                     ; 0x2019 <main+0x1cb0>
    1d7f: 84 fc        	sty	$fc                     ; 0x20fc <main+0x1d93>
    1d81: a5 65        	lda	$65                     ; 0x2065 <main+0x1cfc>
    1d83: 85 fd        	sta	$fd                     ; 0x20fd <main+0x1d94>
    1d85: 20 04 ff     	jsr	$ff04 <__heap_start+0x6c34>
    1d88: 92 26        	sta	($26)                   ; 0x2026 <main+0x1cbd>
    1d8a: a9 00        	lda	#$0
    1d8c: 6a           	ror
    1d8d: 85 22        	sta	$22                     ; 0x2022 <main+0x1cb9>
    1d8f: a5 65        	lda	$65                     ; 0x2065 <main+0x1cfc>
    1d91: d0 33        	bne	$1dc6 <main+0x1a5d>
    1d93: 4c 59 1e     	jmp	$1e59 <main+0x1af0>
    1d96: 85 19        	sta	$19                     ; 0x2019 <main+0x1cb0>
    1d98: 80 0a        	bra	$1da4 <main+0x1a3b>
    1d9a: 20 0c ff     	jsr	$ff0c <__heap_start+0x6c3c>
    1d9d: 92 26        	sta	($26)                   ; 0x2026 <main+0x1cbd>
    1d9f: a9 00        	lda	#$0
    1da1: 6a           	ror
    1da2: 85 22        	sta	$22                     ; 0x2022 <main+0x1cb9>
    1da4: 64 5f        	stz	$5f                     ; 0x205f <main+0x1cf6>
    1da6: 20 00 ff     	jsr	$ff00 <__heap_start+0x6c30>
    1da9: 92 26        	sta	($26)                   ; 0x2026 <main+0x1cbd>
    1dab: a9 00        	lda	#$0
    1dad: 6a           	ror
    1dae: 85 22        	sta	$22                     ; 0x2022 <main+0x1cb9>
    1db0: a5 5e        	lda	$5e                     ; 0x205e <main+0x1cf5>
    1db2: d0 e6        	bne	$1d9a <main+0x1a31>
    1db4: a5 5f        	lda	$5f                     ; 0x205f <main+0x1cf6>
    1db6: c9 08        	cmp	#$8
    1db8: d0 ea        	bne	$1da4 <main+0x1a3b>
    1dba: a5 65        	lda	$65                     ; 0x2065 <main+0x1cfc>
    1dbc: d0 e6        	bne	$1da4 <main+0x1a3b>
    1dbe: 86 1f        	stx	$1f                     ; 0x201f <main+0x1cb6>
    1dc0: a5 64        	lda	$64                     ; 0x2064 <main+0x1cfb>
    1dc2: 92 18        	sta	($18)                   ; 0x2018 <main+0x1caf>
    1dc4: a9 01        	lda	#$1
    1dc6: a2 00        	ldx	#$0
    1dc8: 18           	clc
    1dc9: 65 16        	adc	$16                     ; 0x2016 <main+0x1cad>
    1dcb: a8           	tay
    1dcc: 8a           	txa
    1dcd: 65 17        	adc	$17                     ; 0x2017 <main+0x1cae>
    1dcf: d0 04        	bne	$1dd5 <main+0x1a6c>
    1dd1: c0 40        	cpy	#$40
    1dd3: 80 02        	bra	$1dd7 <main+0x1a6e>
    1dd5: c9 00        	cmp	#$0
    1dd7: 84 16        	sty	$16                     ; 0x2016 <main+0x1cad>
    1dd9: 85 17        	sta	$17                     ; 0x2017 <main+0x1cae>
    1ddb: a6 1b        	ldx	$1b                     ; 0x201b <main+0x1cb2>
    1ddd: 86 18        	stx	$18                     ; 0x2018 <main+0x1caf>
    1ddf: a6 1f        	ldx	$1f                     ; 0x201f <main+0x1cb6>
    1de1: b0 03        	bcs	$1de6 <main+0x1a7d>
    1de3: 4c 22 1d     	jmp	$1d22 <main+0x19b9>
    1de6: c0 40        	cpy	#$40
    1de8: f0 0c        	beq	$1df6 <main+0x1a8d>
    1dea: 80 2a        	bra	$1e16 <main+0x1aad>
    1dec: a0 ff        	ldy	#$ff
    1dee: 80 26        	bra	$1e16 <main+0x1aad>
    1df0: a4 16        	ldy	$16                     ; 0x2016 <main+0x1cad>
    1df2: c0 40        	cpy	#$40
    1df4: d0 20        	bne	$1e16 <main+0x1aad>
    1df6: 18           	clc
    1df7: a5 25        	lda	$25                     ; 0x2025 <main+0x1cbc>
    1df9: 69 40        	adc	#$40
    1dfb: a8           	tay
    1dfc: a5 28        	lda	$28                     ; 0x2028 <main+0x1cbf>
    1dfe: 69 00        	adc	#$0
    1e00: 85 28        	sta	$28                     ; 0x2028 <main+0x1cbf>
    1e02: c9 20        	cmp	#$20
    1e04: d0 49        	bne	$1e4f <main+0x1ae6>
    1e06: 98           	tya
    1e07: d0 46        	bne	$1e4f <main+0x1ae6>
    1e09: a9 00        	lda	#$0
    1e0b: 64 28        	stz	$28                     ; 0x2028 <main+0x1cbf>
    1e0d: 85 25        	sta	$25                     ; 0x2025 <main+0x1cbc>
    1e0f: a4 1a        	ldy	$1a                     ; 0x201a <main+0x1cb1>
    1e11: c8           	iny
    1e12: d0 2a        	bne	$1e3e <main+0x1ad5>
    1e14: 80 27        	bra	$1e3d <main+0x1ad4>
    1e16: 84 14        	sty	$14                     ; 0x2014 <main+0x1cab>
    1e18: 18           	clc
    1e19: a5 25        	lda	$25                     ; 0x2025 <main+0x1cbc>
    1e1b: 65 14        	adc	$14                     ; 0x2014 <main+0x1cab>
    1e1d: a8           	tay
    1e1e: 5a           	phy
    1e1f: a0 3c        	ldy	#$3c
    1e21: b1 10        	lda	($10),y                 ; 0x2010 <main+0x1ca7>
    1e23: 7a           	ply
    1e24: 85 14        	sta	$14                     ; 0x2014 <main+0x1cab>
    1e26: a5 28        	lda	$28                     ; 0x2028 <main+0x1cbf>
    1e28: 65 14        	adc	$14                     ; 0x2014 <main+0x1cab>
    1e2a: 85 28        	sta	$28                     ; 0x2028 <main+0x1cbf>
    1e2c: 98           	tya
    1e2d: a0 01        	ldy	#$1
    1e2f: 48           	pha
    1e30: 98           	tya
    1e31: a0 49        	ldy	#$49
    1e33: 91 10        	sta	($10),y                 ; 0x2010 <main+0x1ca7>
    1e35: 68           	pla
    1e36: 85 25        	sta	$25                     ; 0x2025 <main+0x1cbc>
    1e38: a4 1a        	ldy	$1a                     ; 0x201a <main+0x1cb1>
    1e3a: c8           	iny
    1e3b: d0 01        	bne	$1e3e <main+0x1ad5>
    1e3d: e8           	inx
    1e3e: 98           	tya
    1e3f: a0 01        	ldy	#$1
    1e41: e4 13        	cpx	$13                     ; 0x2013 <main+0x1caa>
    1e43: f0 03        	beq	$1e48 <main+0x1adf>
    1e45: 4c 8c 26     	jmp	$268c <main+0x2323>
    1e48: c5 12        	cmp	$12                     ; 0x2012 <main+0x1ca9>
    1e4a: f0 14        	beq	$1e60 <main+0x1af7>
    1e4c: 4c 8c 26     	jmp	$268c <main+0x2323>
    1e4f: 98           	tya
    1e50: 85 25        	sta	$25                     ; 0x2025 <main+0x1cbc>
    1e52: a4 1a        	ldy	$1a                     ; 0x201a <main+0x1cb1>
    1e54: c8           	iny
    1e55: d0 e7        	bne	$1e3e <main+0x1ad5>
    1e57: 80 e4        	bra	$1e3d <main+0x1ad4>
    1e59: a9 00        	lda	#$0
    1e5b: a2 01        	ldx	#$1
    1e5d: 4c c8 1d     	jmp	$1dc8 <main+0x1a5f>
    1e60: 5a           	phy
    1e61: a0 49        	ldy	#$49
    1e63: b1 10        	lda	($10),y                 ; 0x2010 <main+0x1ca7>
    1e65: 7a           	ply
    1e66: 29 01        	and	#$1
    1e68: f0 03        	beq	$1e6d <main+0x1b04>
    1e6a: 4c 02 2c     	jmp	$2c02 <main+0x2899>
    1e6d: 64 15        	stz	$15                     ; 0x2015 <main+0x1cac>
    1e6f: a2 00        	ldx	#$0
    1e71: 64 14        	stz	$14                     ; 0x2014 <main+0x1cab>
    1e73: 18           	clc
    1e74: 86 1a        	stx	$1a                     ; 0x201a <main+0x1cb1>
    1e76: 8a           	txa
    1e77: 69 14        	adc	#$14
    1e79: aa           	tax
    1e7a: a5 14        	lda	$14                     ; 0x2014 <main+0x1cab>
    1e7c: 69 18        	adc	#$18
    1e7e: a0 07        	ldy	#$7
    1e80: 8c 01 d7     	sty	$d701                   ; 0xd701 <__heap_start+0x4431>
    1e83: 9c 02 d7     	stz	$d702                   ; 0xd702 <__heap_start+0x4432>
    1e86: 8e 02 d7     	stx	$d702                   ; 0xd702 <__heap_start+0x4432>
    1e89: 8d 03 d7     	sta	$d703                   ; 0xd703 <__heap_start+0x4433>
    1e8c: a2 01        	ldx	#$1
    1e8e: 8e 00 d7     	stx	$d700                   ; 0xd700 <__heap_start+0x4430>
    1e91: 9c 00 d7     	stz	$d700                   ; 0xd700 <__heap_start+0x4430>
    1e94: ad 00 d7     	lda	$d700                   ; 0xd700 <__heap_start+0x4430>
    1e97: 30 fb        	bmi	$1e94 <main+0x1b2b>
    1e99: a0 06        	ldy	#$6
    1e9b: 8c 01 d7     	sty	$d701                   ; 0xd701 <__heap_start+0x4431>
    1e9e: 9c 02 d7     	stz	$d702                   ; 0xd702 <__heap_start+0x4432>
    1ea1: a0 03        	ldy	#$3
    1ea3: 8c 00 d7     	sty	$d700                   ; 0xd700 <__heap_start+0x4430>
    1ea6: 9c 00 d7     	stz	$d700                   ; 0xd700 <__heap_start+0x4430>
    1ea9: ad 00 d7     	lda	$d700                   ; 0xd700 <__heap_start+0x4430>
    1eac: 30 fb        	bmi	$1ea9 <main+0x1b40>
    1eae: ac 02 d7     	ldy	$d702                   ; 0xd702 <__heap_start+0x4432>
    1eb1: 84 16        	sty	$16                     ; 0x2016 <main+0x1cad>
    1eb3: ac 03 d7     	ldy	$d703                   ; 0xd703 <__heap_start+0x4433>
    1eb6: 84 18        	sty	$18                     ; 0x2018 <main+0x1caf>
    1eb8: 18           	clc
    1eb9: a5 10        	lda	$10                     ; 0x2010 <main+0x1ca7>
    1ebb: 69 6e        	adc	#$6e
    1ebd: 85 12        	sta	$12                     ; 0x2012 <main+0x1ca9>
    1ebf: a5 11        	lda	$11                     ; 0x2011 <main+0x1ca8>
    1ec1: 69 20        	adc	#$20
    1ec3: 85 17        	sta	$17                     ; 0x2017 <main+0x1cae>
    1ec5: 85 13        	sta	$13                     ; 0x2013 <main+0x1caa>
    1ec7: a5 15        	lda	$15                     ; 0x2015 <main+0x1cac>
    1ec9: 18           	clc
    1eca: 65 12        	adc	$12                     ; 0x2012 <main+0x1ca9>
    1ecc: 85 19        	sta	$19                     ; 0x2019 <main+0x1cb0>
    1ece: a4 15        	ldy	$15                     ; 0x2015 <main+0x1cac>
    1ed0: a5 16        	lda	$16                     ; 0x2016 <main+0x1cad>
    1ed2: 91 12        	sta	($12),y                 ; 0x2012 <main+0x1ca9>
    1ed4: a5 17        	lda	$17                     ; 0x2017 <main+0x1cae>
    1ed6: 69 00        	adc	#$0
    1ed8: a6 19        	ldx	$19                     ; 0x2019 <main+0x1cb0>
    1eda: 86 16        	stx	$16                     ; 0x2016 <main+0x1cad>
    1edc: 85 17        	sta	$17                     ; 0x2017 <main+0x1cae>
    1ede: a0 01        	ldy	#$1
    1ee0: a5 18        	lda	$18                     ; 0x2018 <main+0x1caf>
    1ee2: 91 16        	sta	($16),y                 ; 0x2016 <main+0x1cad>
    1ee4: a6 1a        	ldx	$1a                     ; 0x201a <main+0x1cb1>
    1ee6: e8           	inx
    1ee7: d0 02        	bne	$1eeb <main+0x1b82>
    1ee9: e6 14        	inc	$14                     ; 0x2014 <main+0x1cab>
    1eeb: 18           	clc
    1eec: a5 15        	lda	$15                     ; 0x2015 <main+0x1cac>
    1eee: 69 02        	adc	#$2
    1ef0: 85 15        	sta	$15                     ; 0x2015 <main+0x1cac>
    1ef2: a5 14        	lda	$14                     ; 0x2014 <main+0x1cab>
    1ef4: f0 03        	beq	$1ef9 <main+0x1b90>
    1ef6: 4c 73 1e     	jmp	$1e73 <main+0x1b0a>
    1ef9: e0 0f        	cpx	#$f
    1efb: f0 03        	beq	$1f00 <main+0x1b97>
    1efd: 4c 73 1e     	jmp	$1e73 <main+0x1b0a>
    1f00: a0 3b        	ldy	#$3b
    1f02: b1 10        	lda	($10),y                 ; 0x2010 <main+0x1ca7>
    1f04: 29 01        	and	#$1
    1f06: d0 27        	bne	$1f2f <main+0x1bc6>
    1f08: a9 1f        	lda	#$1f
    1f0a: a0 04        	ldy	#$4
    1f0c: 31 12        	and	($12),y                 ; 0x2012 <main+0x1ca9>
    1f0e: f0 1f        	beq	$1f2f <main+0x1bc6>
    1f10: a9 01        	lda	#$1
    1f12: 20 c3 45     	jsr	$45c3 <writeTopRight>
    1f15: a2 5e        	ldx	#$5e
    1f17: 86 22        	stx	$22                     ; 0x2022 <main+0x1cb9>
    1f19: a2 00        	ldx	#$0
    1f1b: 86 23        	stx	$23                     ; 0x2023 <main+0x1cba>
    1f1d: a0 35        	ldy	#$35
    1f1f: b1 10        	lda	($10),y                 ; 0x2010 <main+0x1ca7>
    1f21: 85 1c        	sta	$1c                     ; 0x201c <main+0x1cb3>
    1f23: c8           	iny
    1f24: b1 10        	lda	($10),y                 ; 0x2010 <main+0x1ca7>
    1f26: 85 1d        	sta	$1d                     ; 0x201d <main+0x1cb4>
    1f28: a2 01        	ldx	#$1
    1f2a: 8a           	txa
    1f2b: a0 3b        	ldy	#$3b
    1f2d: 91 10        	sta	($10),y                 ; 0x2010 <main+0x1ca7>
    1f2f: 64 5f        	stz	$5f                     ; 0x205f <main+0x1cf6>
    1f31: 20 00 ff     	jsr	$ff00 <__heap_start+0x6c30>
    1f34: 92 26        	sta	($26)                   ; 0x2026 <main+0x1cbd>
    1f36: a9 00        	lda	#$0
    1f38: 6a           	ror
    1f39: 85 22        	sta	$22                     ; 0x2022 <main+0x1cb9>
    1f3b: a6 5f        	ldx	$5f                     ; 0x205f <main+0x1cf6>
    1f3d: e0 08        	cpx	#$8
    1f3f: d0 11        	bne	$1f52 <main+0x1be9>
    1f41: a6 63        	ldx	$63                     ; 0x2063 <main+0x1cfa>
    1f43: e0 81        	cpx	#$81
    1f45: f0 3b        	beq	$1f82 <main+0x1c19>
    1f47: e0 83        	cpx	#$83
    1f49: f0 2f        	beq	$1f7a <main+0x1c11>
    1f4b: e0 92        	cpx	#$92
    1f4d: d0 03        	bne	$1f52 <main+0x1be9>
    1f4f: 4c 92 3c     	jmp	$3c92 <main+0x3929>
    1f52: a0 3d        	ldy	#$3d
    1f54: b1 10        	lda	($10),y                 ; 0x2010 <main+0x1ca7>
    1f56: 29 01        	and	#$1
    1f58: d0 03        	bne	$1f5d <main+0x1bf4>
    1f5a: 4c 9d 22     	jmp	$229d <main+0x1f34>
    1f5d: a0 3a        	ldy	#$3a
    1f5f: b1 10        	lda	($10),y                 ; 0x2010 <main+0x1ca7>
    1f61: aa           	tax
    1f62: c9 81        	cmp	#$81
    1f64: d0 03        	bne	$1f69 <main+0x1c00>
    1f66: 4c 58 20     	jmp	$2058 <main+0x1cef>
    1f69: e0 83        	cpx	#$83
    1f6b: d0 03        	bne	$1f70 <main+0x1c07>
    1f6d: 4c 50 20     	jmp	$2050 <main+0x1ce7>
    1f70: e0 92        	cpx	#$92
    1f72: f0 03        	beq	$1f77 <main+0x1c0e>
    1f74: 4c 9d 22     	jmp	$229d <main+0x1f34>
    1f77: 4c 13 3d     	jmp	$3d13 <main+0x39aa>
    1f7a: 38           	sec
    1f7b: a9 01        	lda	#$1
    1f7d: a0 38        	ldy	#$38
    1f7f: 4c cf 21     	jmp	$21cf <main+0x1e66>
    1f82: a0 39        	ldy	#$39
    1f84: b1 10        	lda	($10),y                 ; 0x2010 <main+0x1ca7>
    1f86: 29 01        	and	#$1
    1f88: 64 01        	stz	$1                      ; 0x2001 <main+0x1c98>
    1f8a: d0 03        	bne	$1f8f <main+0x1c26>
    1f8c: 4c 1d 21     	jmp	$211d <main+0x1db4>
    1f8f: 64 12        	stz	$12                     ; 0x2012 <main+0x1ca9>
    1f91: a9 00        	lda	#$0
    1f93: 91 10        	sta	($10),y                 ; 0x2010 <main+0x1ca7>
    1f95: 9c 00 d8     	stz	$d800                   ; 0xd800 <__heap_start+0x4530>
    1f98: a0 ff        	ldy	#$ff
    1f9a: 8c 01 d8     	sty	$d801                   ; 0xd801 <__heap_start+0x4531>
    1f9d: 9c 02 d8     	stz	$d802                   ; 0xd802 <__heap_start+0x4532>
    1fa0: 9c 04 d8     	stz	$d804                   ; 0xd804 <__heap_start+0x4534>
    1fa3: 8c 05 d8     	sty	$d805                   ; 0xd805 <__heap_start+0x4535>
    1fa6: a2 20        	ldx	#$20
    1fa8: 8e 06 d8     	stx	$d806                   ; 0xd806 <__heap_start+0x4536>
    1fab: 9c 08 d8     	stz	$d808                   ; 0xd808 <__heap_start+0x4538>
    1fae: 8c 09 d8     	sty	$d809                   ; 0xd809 <__heap_start+0x4539>
    1fb1: a2 40        	ldx	#$40
    1fb3: 8e 0a d8     	stx	$d80a                   ; 0xd80a <__heap_start+0x453a>
    1fb6: 9c 0c d8     	stz	$d80c                   ; 0xd80c <__heap_start+0x453c>
    1fb9: 8c 0d d8     	sty	$d80d                   ; 0xd80d <__heap_start+0x453d>
    1fbc: a2 60        	ldx	#$60
    1fbe: 8e 0e d8     	stx	$d80e                   ; 0xd80e <__heap_start+0x453e>
    1fc1: 9c 10 d8     	stz	$d810                   ; 0xd810 <__heap_start+0x4540>
    1fc4: 8c 11 d8     	sty	$d811                   ; 0xd811 <__heap_start+0x4541>
    1fc7: a2 80        	ldx	#$80
    1fc9: 8e 12 d8     	stx	$d812                   ; 0xd812 <__heap_start+0x4542>
    1fcc: 9c 14 d8     	stz	$d814                   ; 0xd814 <__heap_start+0x4544>
    1fcf: 8c 15 d8     	sty	$d815                   ; 0xd815 <__heap_start+0x4545>
    1fd2: a2 a0        	ldx	#$a0
    1fd4: 8e 16 d8     	stx	$d816                   ; 0xd816 <__heap_start+0x4546>
    1fd7: 9c 18 d8     	stz	$d818                   ; 0xd818 <__heap_start+0x4548>
    1fda: 8c 19 d8     	sty	$d819                   ; 0xd819 <__heap_start+0x4549>
    1fdd: a2 c0        	ldx	#$c0
    1fdf: 8e 1a d8     	stx	$d81a                   ; 0xd81a <__heap_start+0x454a>
    1fe2: 9c 1c d8     	stz	$d81c                   ; 0xd81c <__heap_start+0x454c>
    1fe5: 8c 1d d8     	sty	$d81d                   ; 0xd81d <__heap_start+0x454d>
    1fe8: a2 e0        	ldx	#$e0
    1fea: 8e 1e d8     	stx	$d81e                   ; 0xd81e <__heap_start+0x454e>
    1fed: 9c 20 d8     	stz	$d820                   ; 0xd820 <__heap_start+0x4550>
    1ff0: 8c 21 d8     	sty	$d821                   ; 0xd821 <__heap_start+0x4551>
    1ff3: 8c 22 d8     	sty	$d822                   ; 0xd822 <__heap_start+0x4552>
    1ff6: 9c 24 d8     	stz	$d824                   ; 0xd824 <__heap_start+0x4554>
    1ff9: ca           	dex
    1ffa: 8e 25 d8     	stx	$d825                   ; 0xd825 <__heap_start+0x4555>
    1ffd: 8c 26 d8     	sty	$d826                   ; 0xd826 <__heap_start+0x4556>
    2000: 9c 28 d8     	stz	$d828                   ; 0xd828 <__heap_start+0x4558>
    2003: a2 bf        	ldx	#$bf
    2005: 8e 29 d8     	stx	$d829                   ; 0xd829 <__heap_start+0x4559>
    2008: 8c 2a d8     	sty	$d82a                   ; 0xd82a <__heap_start+0x455a>
    200b: 9c 2c d8     	stz	$d82c                   ; 0xd82c <__heap_start+0x455c>
    200e: a2 9f        	ldx	#$9f
    2010: 8e 2d d8     	stx	$d82d                   ; 0xd82d <__heap_start+0x455d>
    2013: 8c 2e d8     	sty	$d82e                   ; 0xd82e <__heap_start+0x455e>
    2016: 9c 30 d8     	stz	$d830                   ; 0xd830 <__heap_start+0x4560>
    2019: a2 7f        	ldx	#$7f
    201b: 8e 31 d8     	stx	$d831                   ; 0xd831 <__heap_start+0x4561>
    201e: 8c 32 d8     	sty	$d832                   ; 0xd832 <__heap_start+0x4562>
    2021: 9c 34 d8     	stz	$d834                   ; 0xd834 <__heap_start+0x4564>
    2024: a2 5f        	ldx	#$5f
    2026: 8e 35 d8     	stx	$d835                   ; 0xd835 <__heap_start+0x4565>
    2029: 8c 36 d8     	sty	$d836                   ; 0xd836 <__heap_start+0x4566>
    202c: 9c 38 d8     	stz	$d838                   ; 0xd838 <__heap_start+0x4568>
    202f: a2 3f        	ldx	#$3f
    2031: 8e 39 d8     	stx	$d839                   ; 0xd839 <__heap_start+0x4569>
    2034: 8c 3a d8     	sty	$d83a                   ; 0xd83a <__heap_start+0x456a>
    2037: 9c 3c d8     	stz	$d83c                   ; 0xd83c <__heap_start+0x456c>
    203a: a2 1f        	ldx	#$1f
    203c: 8e 3d d8     	stx	$d83d                   ; 0xd83d <__heap_start+0x456d>
    203f: 8c 3e d8     	sty	$d83e                   ; 0xd83e <__heap_start+0x456e>
    2042: a0 3d        	ldy	#$3d
    2044: b1 10        	lda	($10),y                 ; 0x2010 <main+0x1ca7>
    2046: 29 01        	and	#$1
    2048: d0 03        	bne	$204d <main+0x1ce4>
    204a: 4c 9d 22     	jmp	$229d <main+0x1f34>
    204d: 4c 5d 1f     	jmp	$1f5d <main+0x1bf4>
    2050: 38           	sec
    2051: a9 01        	lda	#$1
    2053: a0 38        	ldy	#$38
    2055: 4c 9b 22     	jmp	$229b <main+0x1f32>
    2058: a0 39        	ldy	#$39
    205a: b1 10        	lda	($10),y                 ; 0x2010 <main+0x1ca7>
    205c: 29 01        	and	#$1
    205e: 64 01        	stz	$1                      ; 0x2001 <main+0x1c98>
    2060: d0 03        	bne	$2065 <main+0x1cfc>
    2062: 4c df 21     	jmp	$21df <main+0x1e76>
    2065: 64 12        	stz	$12                     ; 0x2012 <main+0x1ca9>
    2067: a9 00        	lda	#$0
    2069: 91 10        	sta	($10),y                 ; 0x2010 <main+0x1ca7>
    206b: 9c 00 d8     	stz	$d800                   ; 0xd800 <__heap_start+0x4530>
    206e: a0 ff        	ldy	#$ff
    2070: 8c 01 d8     	sty	$d801                   ; 0xd801 <__heap_start+0x4531>
    2073: 9c 02 d8     	stz	$d802                   ; 0xd802 <__heap_start+0x4532>
    2076: 9c 04 d8     	stz	$d804                   ; 0xd804 <__heap_start+0x4534>
    2079: 8c 05 d8     	sty	$d805                   ; 0xd805 <__heap_start+0x4535>
    207c: a2 20        	ldx	#$20
    207e: 8e 06 d8     	stx	$d806                   ; 0xd806 <__heap_start+0x4536>
    2081: 9c 08 d8     	stz	$d808                   ; 0xd808 <__heap_start+0x4538>
    2084: 8c 09 d8     	sty	$d809                   ; 0xd809 <__heap_start+0x4539>
    2087: a2 40        	ldx	#$40
    2089: 8e 0a d8     	stx	$d80a                   ; 0xd80a <__heap_start+0x453a>
    208c: 9c 0c d8     	stz	$d80c                   ; 0xd80c <__heap_start+0x453c>
    208f: 8c 0d d8     	sty	$d80d                   ; 0xd80d <__heap_start+0x453d>
    2092: a2 60        	ldx	#$60
    2094: 8e 0e d8     	stx	$d80e                   ; 0xd80e <__heap_start+0x453e>
    2097: 9c 10 d8     	stz	$d810                   ; 0xd810 <__heap_start+0x4540>
    209a: 8c 11 d8     	sty	$d811                   ; 0xd811 <__heap_start+0x4541>
    209d: a2 80        	ldx	#$80
    209f: 8e 12 d8     	stx	$d812                   ; 0xd812 <__heap_start+0x4542>
    20a2: 9c 14 d8     	stz	$d814                   ; 0xd814 <__heap_start+0x4544>
    20a5: 8c 15 d8     	sty	$d815                   ; 0xd815 <__heap_start+0x4545>
    20a8: a2 a0        	ldx	#$a0
    20aa: 8e 16 d8     	stx	$d816                   ; 0xd816 <__heap_start+0x4546>
    20ad: 9c 18 d8     	stz	$d818                   ; 0xd818 <__heap_start+0x4548>
    20b0: 8c 19 d8     	sty	$d819                   ; 0xd819 <__heap_start+0x4549>
    20b3: a2 c0        	ldx	#$c0
    20b5: 8e 1a d8     	stx	$d81a                   ; 0xd81a <__heap_start+0x454a>
    20b8: 9c 1c d8     	stz	$d81c                   ; 0xd81c <__heap_start+0x454c>
    20bb: 8c 1d d8     	sty	$d81d                   ; 0xd81d <__heap_start+0x454d>
    20be: a2 e0        	ldx	#$e0
    20c0: 8e 1e d8     	stx	$d81e                   ; 0xd81e <__heap_start+0x454e>
    20c3: 9c 20 d8     	stz	$d820                   ; 0xd820 <__heap_start+0x4550>
    20c6: 8c 21 d8     	sty	$d821                   ; 0xd821 <__heap_start+0x4551>
    20c9: 8c 22 d8     	sty	$d822                   ; 0xd822 <__heap_start+0x4552>
    20cc: 9c 24 d8     	stz	$d824                   ; 0xd824 <__heap_start+0x4554>
    20cf: ca           	dex
    20d0: 8e 25 d8     	stx	$d825                   ; 0xd825 <__heap_start+0x4555>
    20d3: 8c 26 d8     	sty	$d826                   ; 0xd826 <__heap_start+0x4556>
    20d6: 9c 28 d8     	stz	$d828                   ; 0xd828 <__heap_start+0x4558>
    20d9: a2 bf        	ldx	#$bf
    20db: 8e 29 d8     	stx	$d829                   ; 0xd829 <__heap_start+0x4559>
    20de: 8c 2a d8     	sty	$d82a                   ; 0xd82a <__heap_start+0x455a>
    20e1: 9c 2c d8     	stz	$d82c                   ; 0xd82c <__heap_start+0x455c>
    20e4: a2 9f        	ldx	#$9f
    20e6: 8e 2d d8     	stx	$d82d                   ; 0xd82d <__heap_start+0x455d>
    20e9: 8c 2e d8     	sty	$d82e                   ; 0xd82e <__heap_start+0x455e>
    20ec: 9c 30 d8     	stz	$d830                   ; 0xd830 <__heap_start+0x4560>
    20ef: a2 7f        	ldx	#$7f
    20f1: 8e 31 d8     	stx	$d831                   ; 0xd831 <__heap_start+0x4561>
    20f4: 8c 32 d8     	sty	$d832                   ; 0xd832 <__heap_start+0x4562>
    20f7: 9c 34 d8     	stz	$d834                   ; 0xd834 <__heap_start+0x4564>
    20fa: a2 5f        	ldx	#$5f
    20fc: 8e 35 d8     	stx	$d835                   ; 0xd835 <__heap_start+0x4565>
    20ff: 8c 36 d8     	sty	$d836                   ; 0xd836 <__heap_start+0x4566>
    2102: 9c 38 d8     	stz	$d838                   ; 0xd838 <__heap_start+0x4568>
    2105: a2 3f        	ldx	#$3f
    2107: 8e 39 d8     	stx	$d839                   ; 0xd839 <__heap_start+0x4569>
    210a: 8c 3a d8     	sty	$d83a                   ; 0xd83a <__heap_start+0x456a>
    210d: 9c 3c d8     	stz	$d83c                   ; 0xd83c <__heap_start+0x456c>
    2110: a2 1f        	ldx	#$1f
    2112: 8e 3d d8     	stx	$d83d                   ; 0xd83d <__heap_start+0x456d>
    2115: 8c 3e d8     	sty	$d83e                   ; 0xd83e <__heap_start+0x456e>
    2118: a0 3d        	ldy	#$3d
    211a: 4c 9b 22     	jmp	$229b <main+0x1f32>
    211d: a0 ff        	ldy	#$ff
    211f: 8c 00 d8     	sty	$d800                   ; 0xd800 <__heap_start+0x4530>
    2122: 9c 01 d8     	stz	$d801                   ; 0xd801 <__heap_start+0x4531>
    2125: 9c 02 d8     	stz	$d802                   ; 0xd802 <__heap_start+0x4532>
    2128: 8c 04 d8     	sty	$d804                   ; 0xd804 <__heap_start+0x4534>
    212b: a2 20        	ldx	#$20
    212d: 8e 05 d8     	stx	$d805                   ; 0xd805 <__heap_start+0x4535>
    2130: 9c 06 d8     	stz	$d806                   ; 0xd806 <__heap_start+0x4536>
    2133: 8c 08 d8     	sty	$d808                   ; 0xd808 <__heap_start+0x4538>
    2136: a2 40        	ldx	#$40
    2138: 8e 09 d8     	stx	$d809                   ; 0xd809 <__heap_start+0x4539>
    213b: 9c 0a d8     	stz	$d80a                   ; 0xd80a <__heap_start+0x453a>
    213e: 8c 0c d8     	sty	$d80c                   ; 0xd80c <__heap_start+0x453c>
    2141: a2 60        	ldx	#$60
    2143: 8e 0d d8     	stx	$d80d                   ; 0xd80d <__heap_start+0x453d>
    2146: 9c 0e d8     	stz	$d80e                   ; 0xd80e <__heap_start+0x453e>
    2149: 8c 10 d8     	sty	$d810                   ; 0xd810 <__heap_start+0x4540>
    214c: a2 80        	ldx	#$80
    214e: 8e 11 d8     	stx	$d811                   ; 0xd811 <__heap_start+0x4541>
    2151: 9c 12 d8     	stz	$d812                   ; 0xd812 <__heap_start+0x4542>
    2154: 8c 14 d8     	sty	$d814                   ; 0xd814 <__heap_start+0x4544>
    2157: a2 a0        	ldx	#$a0
    2159: 8e 15 d8     	stx	$d815                   ; 0xd815 <__heap_start+0x4545>
    215c: 9c 16 d8     	stz	$d816                   ; 0xd816 <__heap_start+0x4546>
    215f: 8c 18 d8     	sty	$d818                   ; 0xd818 <__heap_start+0x4548>
    2162: a2 c0        	ldx	#$c0
    2164: 8e 19 d8     	stx	$d819                   ; 0xd819 <__heap_start+0x4549>
    2167: 9c 1a d8     	stz	$d81a                   ; 0xd81a <__heap_start+0x454a>
    216a: 8c 1c d8     	sty	$d81c                   ; 0xd81c <__heap_start+0x454c>
    216d: a2 e0        	ldx	#$e0
    216f: 8e 1d d8     	stx	$d81d                   ; 0xd81d <__heap_start+0x454d>
    2172: 9c 1e d8     	stz	$d81e                   ; 0xd81e <__heap_start+0x454e>
    2175: 8c 20 d8     	sty	$d820                   ; 0xd820 <__heap_start+0x4550>
    2178: 8c 21 d8     	sty	$d821                   ; 0xd821 <__heap_start+0x4551>
    217b: 9c 22 d8     	stz	$d822                   ; 0xd822 <__heap_start+0x4552>
    217e: ca           	dex
    217f: 8e 24 d8     	stx	$d824                   ; 0xd824 <__heap_start+0x4554>
    2182: 8c 25 d8     	sty	$d825                   ; 0xd825 <__heap_start+0x4555>
    2185: 9c 26 d8     	stz	$d826                   ; 0xd826 <__heap_start+0x4556>
    2188: a2 bf        	ldx	#$bf
    218a: 8e 28 d8     	stx	$d828                   ; 0xd828 <__heap_start+0x4558>
    218d: 8c 29 d8     	sty	$d829                   ; 0xd829 <__heap_start+0x4559>
    2190: 9c 2a d8     	stz	$d82a                   ; 0xd82a <__heap_start+0x455a>
    2193: a2 9f        	ldx	#$9f
    2195: 8e 2c d8     	stx	$d82c                   ; 0xd82c <__heap_start+0x455c>
    2198: 8c 2d d8     	sty	$d82d                   ; 0xd82d <__heap_start+0x455d>
    219b: 9c 2e d8     	stz	$d82e                   ; 0xd82e <__heap_start+0x455e>
    219e: a2 7f        	ldx	#$7f
    21a0: 8e 30 d8     	stx	$d830                   ; 0xd830 <__heap_start+0x4560>
    21a3: 8c 31 d8     	sty	$d831                   ; 0xd831 <__heap_start+0x4561>
    21a6: 9c 32 d8     	stz	$d832                   ; 0xd832 <__heap_start+0x4562>
    21a9: a2 5f        	ldx	#$5f
    21ab: 8e 34 d8     	stx	$d834                   ; 0xd834 <__heap_start+0x4564>
    21ae: 8c 35 d8     	sty	$d835                   ; 0xd835 <__heap_start+0x4565>
    21b1: 9c 36 d8     	stz	$d836                   ; 0xd836 <__heap_start+0x4566>
    21b4: a2 3f        	ldx	#$3f
    21b6: 8e 38 d8     	stx	$d838                   ; 0xd838 <__heap_start+0x4568>
    21b9: 8c 39 d8     	sty	$d839                   ; 0xd839 <__heap_start+0x4569>
    21bc: 9c 3a d8     	stz	$d83a                   ; 0xd83a <__heap_start+0x456a>
    21bf: a2 1f        	ldx	#$1f
    21c1: 8e 3c d8     	stx	$d83c                   ; 0xd83c <__heap_start+0x456c>
    21c4: 8c 3d d8     	sty	$d83d                   ; 0xd83d <__heap_start+0x456d>
    21c7: 9c 3e d8     	stz	$d83e                   ; 0xd83e <__heap_start+0x456e>
    21ca: a2 01        	ldx	#$1
    21cc: 8a           	txa
    21cd: a0 39        	ldy	#$39
    21cf: 91 10        	sta	($10),y                 ; 0x2010 <main+0x1ca7>
    21d1: a0 3d        	ldy	#$3d
    21d3: b1 10        	lda	($10),y                 ; 0x2010 <main+0x1ca7>
    21d5: 29 01        	and	#$1
    21d7: f0 03        	beq	$21dc <main+0x1e73>
    21d9: 4c 5d 1f     	jmp	$1f5d <main+0x1bf4>
    21dc: 4c 9d 22     	jmp	$229d <main+0x1f34>
    21df: a0 ff        	ldy	#$ff
    21e1: 8c 00 d8     	sty	$d800                   ; 0xd800 <__heap_start+0x4530>
    21e4: 64 12        	stz	$12                     ; 0x2012 <main+0x1ca9>
    21e6: a9 00        	lda	#$0
    21e8: 5a           	phy
    21e9: a0 3d        	ldy	#$3d
    21eb: 91 10        	sta	($10),y                 ; 0x2010 <main+0x1ca7>
    21ed: 7a           	ply
    21ee: 9c 01 d8     	stz	$d801                   ; 0xd801 <__heap_start+0x4531>
    21f1: 9c 02 d8     	stz	$d802                   ; 0xd802 <__heap_start+0x4532>
    21f4: 8c 04 d8     	sty	$d804                   ; 0xd804 <__heap_start+0x4534>
    21f7: a2 20        	ldx	#$20
    21f9: 8e 05 d8     	stx	$d805                   ; 0xd805 <__heap_start+0x4535>
    21fc: 9c 06 d8     	stz	$d806                   ; 0xd806 <__heap_start+0x4536>
    21ff: 8c 08 d8     	sty	$d808                   ; 0xd808 <__heap_start+0x4538>
    2202: a2 40        	ldx	#$40
    2204: 8e 09 d8     	stx	$d809                   ; 0xd809 <__heap_start+0x4539>
    2207: 9c 0a d8     	stz	$d80a                   ; 0xd80a <__heap_start+0x453a>
    220a: 8c 0c d8     	sty	$d80c                   ; 0xd80c <__heap_start+0x453c>
    220d: a2 60        	ldx	#$60
    220f: 8e 0d d8     	stx	$d80d                   ; 0xd80d <__heap_start+0x453d>
    2212: 9c 0e d8     	stz	$d80e                   ; 0xd80e <__heap_start+0x453e>
    2215: 8c 10 d8     	sty	$d810                   ; 0xd810 <__heap_start+0x4540>
    2218: a2 80        	ldx	#$80
    221a: 8e 11 d8     	stx	$d811                   ; 0xd811 <__heap_start+0x4541>
    221d: 9c 12 d8     	stz	$d812                   ; 0xd812 <__heap_start+0x4542>
    2220: 8c 14 d8     	sty	$d814                   ; 0xd814 <__heap_start+0x4544>
    2223: a2 a0        	ldx	#$a0
    2225: 8e 15 d8     	stx	$d815                   ; 0xd815 <__heap_start+0x4545>
    2228: 9c 16 d8     	stz	$d816                   ; 0xd816 <__heap_start+0x4546>
    222b: 8c 18 d8     	sty	$d818                   ; 0xd818 <__heap_start+0x4548>
    222e: a2 c0        	ldx	#$c0
    2230: 8e 19 d8     	stx	$d819                   ; 0xd819 <__heap_start+0x4549>
    2233: 9c 1a d8     	stz	$d81a                   ; 0xd81a <__heap_start+0x454a>
    2236: 8c 1c d8     	sty	$d81c                   ; 0xd81c <__heap_start+0x454c>
    2239: a2 e0        	ldx	#$e0
    223b: 8e 1d d8     	stx	$d81d                   ; 0xd81d <__heap_start+0x454d>
    223e: 9c 1e d8     	stz	$d81e                   ; 0xd81e <__heap_start+0x454e>
    2241: 8c 20 d8     	sty	$d820                   ; 0xd820 <__heap_start+0x4550>
    2244: 8c 21 d8     	sty	$d821                   ; 0xd821 <__heap_start+0x4551>
    2247: 9c 22 d8     	stz	$d822                   ; 0xd822 <__heap_start+0x4552>
    224a: ca           	dex
    224b: 8e 24 d8     	stx	$d824                   ; 0xd824 <__heap_start+0x4554>
    224e: 8c 25 d8     	sty	$d825                   ; 0xd825 <__heap_start+0x4555>
    2251: 9c 26 d8     	stz	$d826                   ; 0xd826 <__heap_start+0x4556>
    2254: a2 bf        	ldx	#$bf
    2256: 8e 28 d8     	stx	$d828                   ; 0xd828 <__heap_start+0x4558>
    2259: 8c 29 d8     	sty	$d829                   ; 0xd829 <__heap_start+0x4559>
    225c: 9c 2a d8     	stz	$d82a                   ; 0xd82a <__heap_start+0x455a>
    225f: a2 9f        	ldx	#$9f
    2261: 8e 2c d8     	stx	$d82c                   ; 0xd82c <__heap_start+0x455c>
    2264: 8c 2d d8     	sty	$d82d                   ; 0xd82d <__heap_start+0x455d>
    2267: 9c 2e d8     	stz	$d82e                   ; 0xd82e <__heap_start+0x455e>
    226a: a2 7f        	ldx	#$7f
    226c: 8e 30 d8     	stx	$d830                   ; 0xd830 <__heap_start+0x4560>
    226f: 8c 31 d8     	sty	$d831                   ; 0xd831 <__heap_start+0x4561>
    2272: 9c 32 d8     	stz	$d832                   ; 0xd832 <__heap_start+0x4562>
    2275: a2 5f        	ldx	#$5f
    2277: 8e 34 d8     	stx	$d834                   ; 0xd834 <__heap_start+0x4564>
    227a: 8c 35 d8     	sty	$d835                   ; 0xd835 <__heap_start+0x4565>
    227d: 9c 36 d8     	stz	$d836                   ; 0xd836 <__heap_start+0x4566>
    2280: a2 3f        	ldx	#$3f
    2282: 8e 38 d8     	stx	$d838                   ; 0xd838 <__heap_start+0x4568>
    2285: 8c 39 d8     	sty	$d839                   ; 0xd839 <__heap_start+0x4569>
    2288: 9c 3a d8     	stz	$d83a                   ; 0xd83a <__heap_start+0x456a>
    228b: a2 1f        	ldx	#$1f
    228d: 8e 3c d8     	stx	$d83c                   ; 0xd83c <__heap_start+0x456c>
    2290: 8c 3d d8     	sty	$d83d                   ; 0xd83d <__heap_start+0x456d>
    2293: 9c 3e d8     	stz	$d83e                   ; 0xd83e <__heap_start+0x456e>
    2296: a2 01        	ldx	#$1
    2298: 8a           	txa
    2299: a0 39        	ldy	#$39
    229b: 91 10        	sta	($10),y                 ; 0x2010 <main+0x1ca7>
    229d: a2 25        	ldx	#$25
    229f: 8a           	txa
    22a0: a0 4e        	ldy	#$4e
    22a2: 91 10        	sta	($10),y                 ; 0x2010 <main+0x1ca7>
    22a4: a2 c9        	ldx	#$c9
    22a6: 8a           	txa
    22a7: 88           	dey
    22a8: 91 10        	sta	($10),y                 ; 0x2010 <main+0x1ca7>
    22aa: a2 24        	ldx	#$24
    22ac: 8a           	txa
    22ad: 88           	dey
    22ae: 91 10        	sta	($10),y                 ; 0x2010 <main+0x1ca7>
    22b0: a2 01        	ldx	#$1
    22b2: a9 00        	lda	#$0
    22b4: a0 c9        	ldy	#$c9
    22b6: 48           	pha
    22b7: 98           	tya
    22b8: a0 4b        	ldy	#$4b
    22ba: 91 10        	sta	($10),y                 ; 0x2010 <main+0x1ca7>
    22bc: 68           	pla
    22bd: 64 12        	stz	$12                     ; 0x2012 <main+0x1ca9>
    22bf: 86 1a        	stx	$1a                     ; 0x201a <main+0x1cb1>
    22c1: 18           	clc
    22c2: 48           	pha
    22c3: a5 10        	lda	$10                     ; 0x2010 <main+0x1ca7>
    22c5: 69 6e        	adc	#$6e
    22c7: 85 13        	sta	$13                     ; 0x2013 <main+0x1caa>
    22c9: a5 11        	lda	$11                     ; 0x2011 <main+0x1ca8>
    22cb: 69 20        	adc	#$20
    22cd: 85 14        	sta	$14                     ; 0x2014 <main+0x1cab>
    22cf: 68           	pla
    22d0: 85 1b        	sta	$1b                     ; 0x201b <main+0x1cb2>
    22d2: 18           	clc
    22d3: 65 13        	adc	$13                     ; 0x2013 <main+0x1caa>
    22d5: aa           	tax
    22d6: a5 14        	lda	$14                     ; 0x2014 <main+0x1cab>
    22d8: 69 00        	adc	#$0
    22da: 86 14        	stx	$14                     ; 0x2014 <main+0x1cab>
    22dc: 85 15        	sta	$15                     ; 0x2015 <main+0x1cac>
    22de: a9 1f        	lda	#$1f
    22e0: a0 02        	ldy	#$2
    22e2: 31 14        	and	($14),y                 ; 0x2014 <main+0x1cab>
    22e4: 85 1e        	sta	$1e                     ; 0x201e <main+0x1cb5>
    22e6: 0a           	asl
    22e7: 64 13        	stz	$13                     ; 0x2013 <main+0x1caa>
    22e9: 26 13        	rol	$13                     ; 0x2013 <main+0x1caa>
    22eb: 85 14        	sta	$14                     ; 0x2014 <main+0x1cab>
    22ed: 06 14        	asl	$14                     ; 0x2014 <main+0x1cab>
    22ef: 26 13        	rol	$13                     ; 0x2013 <main+0x1caa>
    22f1: 48           	pha
    22f2: a0 3f        	ldy	#$3f
    22f4: b1 10        	lda	($10),y                 ; 0x2010 <main+0x1ca7>
    22f6: aa           	tax
    22f7: 68           	pla
    22f8: e0 11        	cpx	#$11
    22fa: f0 03        	beq	$22ff <main+0x1f96>
    22fc: 4c 6b 24     	jmp	$246b <main+0x2102>
    22ff: 85 1f        	sta	$1f                     ; 0x201f <main+0x1cb6>
    2301: a4 1b        	ldy	$1b                     ; 0x201b <main+0x1cb2>
    2303: 84 15        	sty	$15                     ; 0x2015 <main+0x1cac>
    2305: 5a           	phy
    2306: a0 41        	ldy	#$41
    2308: b1 10        	lda	($10),y                 ; 0x2010 <main+0x1ca7>
    230a: 18           	clc
    230b: 65 15        	adc	$15                     ; 0x2015 <main+0x1cac>
    230d: 85 18        	sta	$18                     ; 0x2018 <main+0x1caf>
    230f: 88           	dey
    2310: b1 10        	lda	($10),y                 ; 0x2010 <main+0x1ca7>
    2312: 7a           	ply
    2313: 69 00        	adc	#$0
    2315: 85 19        	sta	$19                     ; 0x2019 <main+0x1cb0>
    2317: b1 1c        	lda	($1c),y                 ; 0x201c <main+0x1cb3>
    2319: 85 29        	sta	$29                     ; 0x2029 <main+0x1cc0>
    231b: 85 17        	sta	$17                     ; 0x2017 <main+0x1cae>
    231d: a0 01        	ldy	#$1
    231f: b1 18        	lda	($18),y                 ; 0x2018 <main+0x1caf>
    2321: aa           	tax
    2322: a4 17        	ldy	$17                     ; 0x2017 <main+0x1cae>
    2324: 84 16        	sty	$16                     ; 0x2016 <main+0x1cad>
    2326: 06 16        	asl	$16                     ; 0x2016 <main+0x1cad>
    2328: 2a           	rol
    2329: a4 16        	ldy	$16                     ; 0x2016 <main+0x1cad>
    232b: 84 19        	sty	$19                     ; 0x2019 <main+0x1cb0>
    232d: 06 16        	asl	$16                     ; 0x2016 <main+0x1cad>
    232f: 2a           	rol
    2330: 85 15        	sta	$15                     ; 0x2015 <main+0x1cac>
    2332: 8a           	txa
    2333: 86 18        	stx	$18                     ; 0x2018 <main+0x1caf>
    2335: a2 00        	ldx	#$0
    2337: e4 18        	cpx	$18                     ; 0x2018 <main+0x1caf>
    2339: d0 1a        	bne	$2355 <main+0x1fec>
    233b: a6 1e        	ldx	$1e                     ; 0x201e <main+0x1cb5>
    233d: e4 17        	cpx	$17                     ; 0x2017 <main+0x1cae>
    233f: 90 1a        	bcc	$235b <main+0x1ff2>
    2341: a0 e0        	ldy	#$e0
    2343: aa           	tax
    2344: f0 03        	beq	$2349 <main+0x1fe0>
    2346: 4c e0 23     	jmp	$23e0 <main+0x2077>
    2349: a6 29        	ldx	$29                     ; 0x2029 <main+0x1cc0>
    234b: e4 1e        	cpx	$1e                     ; 0x201e <main+0x1cb5>
    234d: b0 03        	bcs	$2352 <main+0x1fe9>
    234f: 4c e7 23     	jmp	$23e7 <main+0x207e>
    2352: 4c 6b 24     	jmp	$246b <main+0x2102>
    2355: 85 18        	sta	$18                     ; 0x2018 <main+0x1caf>
    2357: e4 18        	cpx	$18                     ; 0x2018 <main+0x1caf>
    2359: b0 e6        	bcs	$2341 <main+0x1fd8>
    235b: a2 2c        	ldx	#$2c
    235d: 18           	clc
    235e: a5 1f        	lda	$1f                     ; 0x201f <main+0x1cb6>
    2360: 69 28        	adc	#$28
    2362: 85 17        	sta	$17                     ; 0x2017 <main+0x1cae>
    2364: 85 19        	sta	$19                     ; 0x2019 <main+0x1cb0>
    2366: a5 1a        	lda	$1a                     ; 0x201a <main+0x1cb1>
    2368: 0a           	asl
    2369: 0a           	asl
    236a: 0a           	asl
    236b: 18           	clc
    236c: 85 1f        	sta	$1f                     ; 0x201f <main+0x1cb6>
    236e: 69 3c        	adc	#$3c
    2370: 85 2a        	sta	$2a                     ; 0x202a <main+0x1cc1>
    2372: 38           	sec
    2373: a5 29        	lda	$29                     ; 0x2029 <main+0x1cc0>
    2375: e5 1e        	sbc	$1e                     ; 0x201e <main+0x1cb5>
    2377: 85 18        	sta	$18                     ; 0x2018 <main+0x1caf>
    2379: a0 2a        	ldy	#$2a
    237b: 8c 40 dd     	sty	$dd40                   ; 0xdd40 <__heap_start+0x4a70>
    237e: 9c 41 dd     	stz	$dd41                   ; 0xdd41 <__heap_start+0x4a71>
    2381: a4 2a        	ldy	$2a                     ; 0x202a <main+0x1cc1>
    2383: 8c 41 dd     	sty	$dd41                   ; 0xdd41 <__heap_start+0x4a71>
    2386: 9c 41 dd     	stz	$dd41                   ; 0xdd41 <__heap_start+0x4a71>
    2389: 18           	clc
    238a: a5 1f        	lda	$1f                     ; 0x201f <main+0x1cb6>
    238c: 69 3d        	adc	#$3d
    238e: 8d 41 dd     	sta	$dd41                   ; 0xdd41 <__heap_start+0x4a71>
    2391: a0 2b        	ldy	#$2b
    2393: 8c 40 dd     	sty	$dd40                   ; 0xdd40 <__heap_start+0x4a70>
    2396: 9c 41 dd     	stz	$dd41                   ; 0xdd41 <__heap_start+0x4a71>
    2399: 18           	clc
    239a: a5 19        	lda	$19                     ; 0x2019 <main+0x1cb0>
    239c: 69 14        	adc	#$14
    239e: 8d 41 dd     	sta	$dd41                   ; 0xdd41 <__heap_start+0x4a71>
    23a1: 18           	clc
    23a2: a5 18        	lda	$18                     ; 0x2018 <main+0x1caf>
    23a4: 65 17        	adc	$17                     ; 0x2017 <main+0x1cae>
    23a6: 8d 41 dd     	sta	$dd41                   ; 0xdd41 <__heap_start+0x4a71>
    23a9: 29 fe        	and	#$fe
    23ab: 8d 41 dd     	sta	$dd41                   ; 0xdd41 <__heap_start+0x4a71>
    23ae: a5 16        	lda	$16                     ; 0x2016 <main+0x1cad>
    23b0: 09 01        	ora	#$1
    23b2: 38           	sec
    23b3: e5 14        	sbc	$14                     ; 0x2014 <main+0x1cab>
    23b5: a8           	tay
    23b6: a5 15        	lda	$15                     ; 0x2015 <main+0x1cac>
    23b8: e5 13        	sbc	$13                     ; 0x2013 <main+0x1caa>
    23ba: 8e 40 dd     	stx	$dd40                   ; 0xdd40 <__heap_start+0x4a70>
    23bd: 80 05        	bra	$23c4 <main+0x205b>
    23bf: a4 15        	ldy	$15                     ; 0x2015 <main+0x1cac>
    23c1: aa           	tax
    23c2: f0 15        	beq	$23d9 <main+0x2070>
    23c4: 9c 42 dd     	stz	$dd42                   ; 0xdd42 <__heap_start+0x4a72>
    23c7: a2 f8        	ldx	#$f8
    23c9: 8e 43 dd     	stx	$dd43                   ; 0xdd43 <__heap_start+0x4a73>
    23cc: 84 15        	sty	$15                     ; 0x2015 <main+0x1cac>
    23ce: a2 ff        	ldx	#$ff
    23d0: c6 15        	dec	$15                     ; 0x2015 <main+0x1cac>
    23d2: e4 15        	cpx	$15                     ; 0x2015 <main+0x1cac>
    23d4: d0 e9        	bne	$23bf <main+0x2056>
    23d6: 3a           	dec
    23d7: 80 e6        	bra	$23bf <main+0x2056>
    23d9: a6 15        	ldx	$15                     ; 0x2015 <main+0x1cac>
    23db: d0 e7        	bne	$23c4 <main+0x205b>
    23dd: 4c 6b 24     	jmp	$246b <main+0x2102>
    23e0: c9 00        	cmp	#$0
    23e2: 90 03        	bcc	$23e7 <main+0x207e>
    23e4: 4c 6b 24     	jmp	$246b <main+0x2102>
    23e7: 18           	clc
    23e8: a5 19        	lda	$19                     ; 0x2019 <main+0x1cb0>
    23ea: 69 28        	adc	#$28
    23ec: 85 18        	sta	$18                     ; 0x2018 <main+0x1caf>
    23ee: a5 1a        	lda	$1a                     ; 0x201a <main+0x1cb1>
    23f0: 0a           	asl
    23f1: 0a           	asl
    23f2: 0a           	asl
    23f3: 18           	clc
    23f4: 85 19        	sta	$19                     ; 0x2019 <main+0x1cb0>
    23f6: 69 3c        	adc	#$3c
    23f8: 85 1f        	sta	$1f                     ; 0x201f <main+0x1cb6>
    23fa: 38           	sec
    23fb: a5 1e        	lda	$1e                     ; 0x201e <main+0x1cb5>
    23fd: e5 17        	sbc	$17                     ; 0x2017 <main+0x1cae>
    23ff: 85 17        	sta	$17                     ; 0x2017 <main+0x1cae>
    2401: a2 2a        	ldx	#$2a
    2403: 8e 40 dd     	stx	$dd40                   ; 0xdd40 <__heap_start+0x4a70>
    2406: 9c 41 dd     	stz	$dd41                   ; 0xdd41 <__heap_start+0x4a71>
    2409: a6 1f        	ldx	$1f                     ; 0x201f <main+0x1cb6>
    240b: 8e 41 dd     	stx	$dd41                   ; 0xdd41 <__heap_start+0x4a71>
    240e: 9c 41 dd     	stz	$dd41                   ; 0xdd41 <__heap_start+0x4a71>
    2411: 18           	clc
    2412: a5 19        	lda	$19                     ; 0x2019 <main+0x1cb0>
    2414: 69 3d        	adc	#$3d
    2416: 8d 41 dd     	sta	$dd41                   ; 0xdd41 <__heap_start+0x4a71>
    2419: a2 2b        	ldx	#$2b
    241b: 8e 40 dd     	stx	$dd40                   ; 0xdd40 <__heap_start+0x4a70>
    241e: 9c 41 dd     	stz	$dd41                   ; 0xdd41 <__heap_start+0x4a71>
    2421: 18           	clc
    2422: a5 18        	lda	$18                     ; 0x2018 <main+0x1caf>
    2424: 69 14        	adc	#$14
    2426: 8d 41 dd     	sta	$dd41                   ; 0xdd41 <__heap_start+0x4a71>
    2429: 18           	clc
    242a: a5 18        	lda	$18                     ; 0x2018 <main+0x1caf>
    242c: 65 17        	adc	$17                     ; 0x2017 <main+0x1cae>
    242e: 8d 41 dd     	sta	$dd41                   ; 0xdd41 <__heap_start+0x4a71>
    2431: 29 fe        	and	#$fe
    2433: 8d 41 dd     	sta	$dd41                   ; 0xdd41 <__heap_start+0x4a71>
    2436: a5 14        	lda	$14                     ; 0x2014 <main+0x1cab>
    2438: 09 01        	ora	#$1
    243a: 38           	sec
    243b: e5 16        	sbc	$16                     ; 0x2016 <main+0x1cad>
    243d: 85 16        	sta	$16                     ; 0x2016 <main+0x1cad>
    243f: a5 13        	lda	$13                     ; 0x2013 <main+0x1caa>
    2441: e5 15        	sbc	$15                     ; 0x2015 <main+0x1cac>
    2443: e8           	inx
    2444: 8e 40 dd     	stx	$dd40                   ; 0xdd40 <__heap_start+0x4a70>
    2447: 80 07        	bra	$2450 <main+0x20e7>
    2449: a6 15        	ldx	$15                     ; 0x2015 <main+0x1cac>
    244b: 86 16        	stx	$16                     ; 0x2016 <main+0x1cad>
    244d: aa           	tax
    244e: f0 17        	beq	$2467 <main+0x20fe>
    2450: 8c 42 dd     	sty	$dd42                   ; 0xdd42 <__heap_start+0x4a72>
    2453: a2 07        	ldx	#$7
    2455: 8e 43 dd     	stx	$dd43                   ; 0xdd43 <__heap_start+0x4a73>
    2458: a6 16        	ldx	$16                     ; 0x2016 <main+0x1cad>
    245a: 86 15        	stx	$15                     ; 0x2015 <main+0x1cac>
    245c: a2 ff        	ldx	#$ff
    245e: c6 15        	dec	$15                     ; 0x2015 <main+0x1cac>
    2460: e4 15        	cpx	$15                     ; 0x2015 <main+0x1cac>
    2462: d0 e5        	bne	$2449 <main+0x20e0>
    2464: 3a           	dec
    2465: 80 e2        	bra	$2449 <main+0x20e0>
    2467: a6 15        	ldx	$15                     ; 0x2015 <main+0x1cac>
    2469: d0 e5        	bne	$2450 <main+0x20e7>
    246b: a6 01        	ldx	$1                      ; 0x2001 <main+0x1c98>
    246d: a0 02        	ldy	#$2
    246f: 84 01        	sty	$1                      ; 0x2001 <main+0x1c98>
    2471: a4 1b        	ldy	$1b                     ; 0x201b <main+0x1cb2>
    2473: 84 15        	sty	$15                     ; 0x2015 <main+0x1cac>
    2475: 5a           	phy
    2476: a0 41        	ldy	#$41
    2478: b1 10        	lda	($10),y                 ; 0x2010 <main+0x1ca7>
    247a: 18           	clc
    247b: 65 15        	adc	$15                     ; 0x2015 <main+0x1cac>
    247d: 85 15        	sta	$15                     ; 0x2015 <main+0x1cac>
    247f: 88           	dey
    2480: b1 10        	lda	($10),y                 ; 0x2010 <main+0x1ca7>
    2482: 7a           	ply
    2483: 69 00        	adc	#$0
    2485: 5a           	phy
    2486: a4 15        	ldy	$15                     ; 0x2015 <main+0x1cac>
    2488: 84 16        	sty	$16                     ; 0x2016 <main+0x1cad>
    248a: 7a           	ply
    248b: 85 17        	sta	$17                     ; 0x2017 <main+0x1cae>
    248d: b1 1c        	lda	($1c),y                 ; 0x201c <main+0x1cb3>
    248f: 85 1f        	sta	$1f                     ; 0x201f <main+0x1cb6>
    2491: 85 18        	sta	$18                     ; 0x2018 <main+0x1caf>
    2493: a0 01        	ldy	#$1
    2495: b1 16        	lda	($16),y                 ; 0x2016 <main+0x1cad>
    2497: 85 15        	sta	$15                     ; 0x2015 <main+0x1cac>
    2499: d0 1b        	bne	$24b6 <main+0x214d>
    249b: a4 1f        	ldy	$1f                     ; 0x201f <main+0x1cb6>
    249d: c4 1e        	cpy	$1e                     ; 0x201e <main+0x1cb5>
    249f: 90 19        	bcc	$24ba <main+0x2151>
    24a1: a0 00        	ldy	#$0
    24a3: c4 15        	cpy	$15                     ; 0x2015 <main+0x1cac>
    24a5: f0 03        	beq	$24aa <main+0x2141>
    24a7: 4c ae 25     	jmp	$25ae <main+0x2245>
    24aa: a4 1e        	ldy	$1e                     ; 0x201e <main+0x1cb5>
    24ac: c4 18        	cpy	$18                     ; 0x2018 <main+0x1caf>
    24ae: 90 03        	bcc	$24b3 <main+0x214a>
    24b0: 4c 5b 25     	jmp	$255b <main+0x21f2>
    24b3: 4c b5 25     	jmp	$25b5 <main+0x224c>
    24b6: c9 00        	cmp	#$0
    24b8: b0 e7        	bcs	$24a1 <main+0x2138>
    24ba: 38           	sec
    24bb: a5 1e        	lda	$1e                     ; 0x201e <main+0x1cb5>
    24bd: e5 18        	sbc	$18                     ; 0x2018 <main+0x1caf>
    24bf: a8           	tay
    24c0: a9 00        	lda	#$0
    24c2: e5 15        	sbc	$15                     ; 0x2015 <main+0x1cac>
    24c4: 85 1f        	sta	$1f                     ; 0x201f <main+0x1cb6>
    24c6: a5 18        	lda	$18                     ; 0x2018 <main+0x1caf>
    24c8: 0a           	asl
    24c9: 26 15        	rol	$15                     ; 0x2015 <main+0x1cac>
    24cb: 0a           	asl
    24cc: 26 15        	rol	$15                     ; 0x2015 <main+0x1cac>
    24ce: 0a           	asl
    24cf: 26 15        	rol	$15                     ; 0x2015 <main+0x1cac>
    24d1: 0a           	asl
    24d2: 85 13        	sta	$13                     ; 0x2013 <main+0x1caa>
    24d4: 26 15        	rol	$15                     ; 0x2015 <main+0x1cac>
    24d6: 0a           	asl
    24d7: 5a           	phy
    24d8: a4 15        	ldy	$15                     ; 0x2015 <main+0x1cac>
    24da: 84 14        	sty	$14                     ; 0x2014 <main+0x1cab>
    24dc: 7a           	ply
    24dd: 26 14        	rol	$14                     ; 0x2014 <main+0x1cab>
    24df: 0a           	asl
    24e0: 26 14        	rol	$14                     ; 0x2014 <main+0x1cab>
    24e2: 18           	clc
    24e3: 65 13        	adc	$13                     ; 0x2013 <main+0x1caa>
    24e5: 85 13        	sta	$13                     ; 0x2013 <main+0x1caa>
    24e7: a5 14        	lda	$14                     ; 0x2014 <main+0x1cab>
    24e9: 65 15        	adc	$15                     ; 0x2015 <main+0x1cac>
    24eb: 85 14        	sta	$14                     ; 0x2014 <main+0x1cab>
    24ed: 38           	sec
    24ee: 5a           	phy
    24ef: a0 4e        	ldy	#$4e
    24f1: b1 10        	lda	($10),y                 ; 0x2010 <main+0x1ca7>
    24f3: e5 13        	sbc	$13                     ; 0x2013 <main+0x1caa>
    24f5: 85 29        	sta	$29                     ; 0x2029 <main+0x1cc0>
    24f7: a0 4b        	ldy	#$4b
    24f9: b1 10        	lda	($10),y                 ; 0x2010 <main+0x1ca7>
    24fb: e5 14        	sbc	$14                     ; 0x2014 <main+0x1cab>
    24fd: 85 2a        	sta	$2a                     ; 0x202a <main+0x1cc1>
    24ff: c8           	iny
    2500: b1 10        	lda	($10),y                 ; 0x2010 <main+0x1ca7>
    2502: 38           	sec
    2503: e5 13        	sbc	$13                     ; 0x2013 <main+0x1caa>
    2505: 85 2b        	sta	$2b                     ; 0x202b <main+0x1cc2>
    2507: c8           	iny
    2508: b1 10        	lda	($10),y                 ; 0x2010 <main+0x1ca7>
    250a: 7a           	ply
    250b: e5 14        	sbc	$14                     ; 0x2014 <main+0x1cab>
    250d: 85 15        	sta	$15                     ; 0x2015 <main+0x1cac>
    250f: 80 22        	bra	$2533 <main+0x21ca>
    2511: 18           	clc
    2512: a5 29        	lda	$29                     ; 0x2029 <main+0x1cc0>
    2514: 69 b0        	adc	#$b0
    2516: 85 29        	sta	$29                     ; 0x2029 <main+0x1cc0>
    2518: a5 2a        	lda	$2a                     ; 0x202a <main+0x1cc1>
    251a: 69 ff        	adc	#$ff
    251c: 85 2a        	sta	$2a                     ; 0x202a <main+0x1cc1>
    251e: 18           	clc
    251f: a5 2b        	lda	$2b                     ; 0x202b <main+0x1cc2>
    2521: 69 b0        	adc	#$b0
    2523: 85 2b        	sta	$2b                     ; 0x202b <main+0x1cc2>
    2525: a5 15        	lda	$15                     ; 0x2015 <main+0x1cac>
    2527: 69 ff        	adc	#$ff
    2529: 85 15        	sta	$15                     ; 0x2015 <main+0x1cac>
    252b: a4 13        	ldy	$13                     ; 0x2013 <main+0x1caa>
    252d: a5 14        	lda	$14                     ; 0x2014 <main+0x1cab>
    252f: 85 1f        	sta	$1f                     ; 0x201f <main+0x1cb6>
    2531: f0 24        	beq	$2557 <main+0x21ee>
    2533: a5 2b        	lda	$2b                     ; 0x202b <main+0x1cc2>
    2535: 85 14        	sta	$14                     ; 0x2014 <main+0x1cab>
    2537: a5 29        	lda	$29                     ; 0x2029 <main+0x1cc0>
    2539: 85 18        	sta	$18                     ; 0x2018 <main+0x1caf>
    253b: a5 2a        	lda	$2a                     ; 0x202a <main+0x1cc1>
    253d: 85 19        	sta	$19                     ; 0x2019 <main+0x1cb0>
    253f: a9 15        	lda	#$15
    2541: 92 14        	sta	($14)                   ; 0x2014 <main+0x1cab>
    2543: 92 18        	sta	($18)                   ; 0x2018 <main+0x1caf>
    2545: 84 13        	sty	$13                     ; 0x2013 <main+0x1caa>
    2547: a4 1f        	ldy	$1f                     ; 0x201f <main+0x1cb6>
    2549: 84 14        	sty	$14                     ; 0x2014 <main+0x1cab>
    254b: a0 ff        	ldy	#$ff
    254d: c6 13        	dec	$13                     ; 0x2013 <main+0x1caa>
    254f: c4 13        	cpy	$13                     ; 0x2013 <main+0x1caa>
    2551: d0 be        	bne	$2511 <main+0x21a8>
    2553: c6 14        	dec	$14                     ; 0x2014 <main+0x1cab>
    2555: 80 ba        	bra	$2511 <main+0x21a8>
    2557: a5 13        	lda	$13                     ; 0x2013 <main+0x1caa>
    2559: d0 d8        	bne	$2533 <main+0x21ca>
    255b: 86 01        	stx	$1                      ; 0x2001 <main+0x1c98>
    255d: a4 1b        	ldy	$1b                     ; 0x201b <main+0x1cb2>
    255f: a5 1e        	lda	$1e                     ; 0x201e <main+0x1cb5>
    2561: 91 1c        	sta	($1c),y                 ; 0x201c <main+0x1cb3>
    2563: a9 00        	lda	#$0
    2565: a0 01        	ldy	#$1
    2567: 91 16        	sta	($16),y                 ; 0x2016 <main+0x1cad>
    2569: a6 1a        	ldx	$1a                     ; 0x201a <main+0x1cb1>
    256b: e8           	inx
    256c: d0 02        	bne	$2570 <main+0x2207>
    256e: e6 12        	inc	$12                     ; 0x2012 <main+0x1ca9>
    2570: 18           	clc
    2571: a5 1b        	lda	$1b                     ; 0x201b <main+0x1cb2>
    2573: 69 02        	adc	#$2
    2575: 85 13        	sta	$13                     ; 0x2013 <main+0x1caa>
    2577: 18           	clc
    2578: 5a           	phy
    2579: a0 4e        	ldy	#$4e
    257b: b1 10        	lda	($10),y                 ; 0x2010 <main+0x1ca7>
    257d: 69 03        	adc	#$3
    257f: 91 10        	sta	($10),y                 ; 0x2010 <main+0x1ca7>
    2581: a0 4b        	ldy	#$4b
    2583: b1 10        	lda	($10),y                 ; 0x2010 <main+0x1ca7>
    2585: 69 00        	adc	#$0
    2587: 91 10        	sta	($10),y                 ; 0x2010 <main+0x1ca7>
    2589: 18           	clc
    258a: c8           	iny
    258b: b1 10        	lda	($10),y                 ; 0x2010 <main+0x1ca7>
    258d: 69 03        	adc	#$3
    258f: 91 10        	sta	($10),y                 ; 0x2010 <main+0x1ca7>
    2591: c8           	iny
    2592: b1 10        	lda	($10),y                 ; 0x2010 <main+0x1ca7>
    2594: 69 00        	adc	#$0
    2596: 91 10        	sta	($10),y                 ; 0x2010 <main+0x1ca7>
    2598: 7a           	ply
    2599: a5 13        	lda	$13                     ; 0x2013 <main+0x1caa>
    259b: e6 12        	inc	$12                     ; 0x2012 <main+0x1ca9>
    259d: c6 12        	dec	$12                     ; 0x2012 <main+0x1ca9>
    259f: f0 03        	beq	$25a4 <main+0x223b>
    25a1: 4c bf 22     	jmp	$22bf <main+0x1f56>
    25a4: e0 0f        	cpx	#$f
    25a6: f0 03        	beq	$25ab <main+0x2242>
    25a8: 4c bf 22     	jmp	$22bf <main+0x1f56>
    25ab: 4c 5b 26     	jmp	$265b <main+0x22f2>
    25ae: c4 15        	cpy	$15                     ; 0x2015 <main+0x1cac>
    25b0: 90 03        	bcc	$25b5 <main+0x224c>
    25b2: 4c 5b 25     	jmp	$255b <main+0x21f2>
    25b5: a4 1e        	ldy	$1e                     ; 0x201e <main+0x1cb5>
    25b7: c0 18        	cpy	#$18
    25b9: 90 03        	bcc	$25be <main+0x2255>
    25bb: 4c 5b 25     	jmp	$255b <main+0x21f2>
    25be: 18           	clc
    25bf: a5 1e        	lda	$1e                     ; 0x201e <main+0x1cb5>
    25c1: 69 e8        	adc	#$e8
    25c3: a8           	tay
    25c4: a9 00        	lda	#$0
    25c6: 69 ff        	adc	#$ff
    25c8: 85 1f        	sta	$1f                     ; 0x201f <main+0x1cb6>
    25ca: 06 14        	asl	$14                     ; 0x2014 <main+0x1cab>
    25cc: 26 13        	rol	$13                     ; 0x2013 <main+0x1caa>
    25ce: 06 14        	asl	$14                     ; 0x2014 <main+0x1cab>
    25d0: 26 13        	rol	$13                     ; 0x2013 <main+0x1caa>
    25d2: a5 14        	lda	$14                     ; 0x2014 <main+0x1cab>
    25d4: 0a           	asl
    25d5: 85 15        	sta	$15                     ; 0x2015 <main+0x1cac>
    25d7: a5 13        	lda	$13                     ; 0x2013 <main+0x1caa>
    25d9: 2a           	rol
    25da: 06 15        	asl	$15                     ; 0x2015 <main+0x1cac>
    25dc: 2a           	rol
    25dd: 85 18        	sta	$18                     ; 0x2018 <main+0x1caf>
    25df: 18           	clc
    25e0: a5 15        	lda	$15                     ; 0x2015 <main+0x1cac>
    25e2: 65 14        	adc	$14                     ; 0x2014 <main+0x1cab>
    25e4: 85 14        	sta	$14                     ; 0x2014 <main+0x1cab>
    25e6: a5 18        	lda	$18                     ; 0x2018 <main+0x1caf>
    25e8: 65 13        	adc	$13                     ; 0x2013 <main+0x1caa>
    25ea: 85 13        	sta	$13                     ; 0x2013 <main+0x1caa>
    25ec: 38           	sec
    25ed: 5a           	phy
    25ee: a0 4e        	ldy	#$4e
    25f0: b1 10        	lda	($10),y                 ; 0x2010 <main+0x1ca7>
    25f2: e5 14        	sbc	$14                     ; 0x2014 <main+0x1cab>
    25f4: 85 29        	sta	$29                     ; 0x2029 <main+0x1cc0>
    25f6: a0 4b        	ldy	#$4b
    25f8: b1 10        	lda	($10),y                 ; 0x2010 <main+0x1ca7>
    25fa: e5 13        	sbc	$13                     ; 0x2013 <main+0x1caa>
    25fc: 85 2a        	sta	$2a                     ; 0x202a <main+0x1cc1>
    25fe: c8           	iny
    25ff: b1 10        	lda	($10),y                 ; 0x2010 <main+0x1ca7>
    2601: 38           	sec
    2602: e5 14        	sbc	$14                     ; 0x2014 <main+0x1cab>
    2604: 85 18        	sta	$18                     ; 0x2018 <main+0x1caf>
    2606: c8           	iny
    2607: b1 10        	lda	($10),y                 ; 0x2010 <main+0x1ca7>
    2609: 7a           	ply
    260a: e5 13        	sbc	$13                     ; 0x2013 <main+0x1caa>
    260c: 85 15        	sta	$15                     ; 0x2015 <main+0x1cac>
    260e: 80 22        	bra	$2632 <main+0x22c9>
    2610: 18           	clc
    2611: a5 29        	lda	$29                     ; 0x2029 <main+0x1cc0>
    2613: 69 b0        	adc	#$b0
    2615: 85 29        	sta	$29                     ; 0x2029 <main+0x1cc0>
    2617: a5 2a        	lda	$2a                     ; 0x202a <main+0x1cc1>
    2619: 69 ff        	adc	#$ff
    261b: 85 2a        	sta	$2a                     ; 0x202a <main+0x1cc1>
    261d: 18           	clc
    261e: a5 2b        	lda	$2b                     ; 0x202b <main+0x1cc2>
    2620: 69 b0        	adc	#$b0
    2622: 85 18        	sta	$18                     ; 0x2018 <main+0x1caf>
    2624: a5 15        	lda	$15                     ; 0x2015 <main+0x1cac>
    2626: 69 ff        	adc	#$ff
    2628: 85 15        	sta	$15                     ; 0x2015 <main+0x1cac>
    262a: a4 13        	ldy	$13                     ; 0x2013 <main+0x1caa>
    262c: a5 14        	lda	$14                     ; 0x2014 <main+0x1cab>
    262e: 85 1f        	sta	$1f                     ; 0x201f <main+0x1cb6>
    2630: f0 22        	beq	$2654 <main+0x22eb>
    2632: a5 18        	lda	$18                     ; 0x2018 <main+0x1caf>
    2634: 85 14        	sta	$14                     ; 0x2014 <main+0x1cab>
    2636: 85 2b        	sta	$2b                     ; 0x202b <main+0x1cc2>
    2638: a5 29        	lda	$29                     ; 0x2029 <main+0x1cc0>
    263a: 85 18        	sta	$18                     ; 0x2018 <main+0x1caf>
    263c: a5 2a        	lda	$2a                     ; 0x202a <main+0x1cc1>
    263e: 85 19        	sta	$19                     ; 0x2019 <main+0x1cb0>
    2640: a9 20        	lda	#$20
    2642: 92 14        	sta	($14)                   ; 0x2014 <main+0x1cab>
    2644: 92 18        	sta	($18)                   ; 0x2018 <main+0x1caf>
    2646: 84 13        	sty	$13                     ; 0x2013 <main+0x1caa>
    2648: a4 1f        	ldy	$1f                     ; 0x201f <main+0x1cb6>
    264a: 84 14        	sty	$14                     ; 0x2014 <main+0x1cab>
    264c: e6 13        	inc	$13                     ; 0x2013 <main+0x1caa>
    264e: d0 c0        	bne	$2610 <main+0x22a7>
    2650: e6 14        	inc	$14                     ; 0x2014 <main+0x1cab>
    2652: 80 bc        	bra	$2610 <main+0x22a7>
    2654: a5 13        	lda	$13                     ; 0x2013 <main+0x1caa>
    2656: d0 da        	bne	$2632 <main+0x22c9>
    2658: 4c 5b 25     	jmp	$255b <main+0x21f2>
    265b: ae 04 d7     	ldx	$d704                   ; 0xd704 <__heap_start+0x4434>
    265e: 86 12        	stx	$12                     ; 0x2012 <main+0x1ca9>
    2660: ad 05 d7     	lda	$d705                   ; 0xd705 <__heap_start+0x4435>
    2663: 29 07        	and	#$7
    2665: 85 13        	sta	$13                     ; 0x2013 <main+0x1caa>
    2667: a9 00        	lda	#$0
    2669: 38           	sec
    266a: e5 12        	sbc	$12                     ; 0x2012 <main+0x1ca9>
    266c: 85 12        	sta	$12                     ; 0x2012 <main+0x1ca9>
    266e: a9 08        	lda	#$8
    2670: e5 13        	sbc	$13                     ; 0x2013 <main+0x1caa>
    2672: 06 12        	asl	$12                     ; 0x2012 <main+0x1ca9>
    2674: 2a           	rol
    2675: 64 13        	stz	$13                     ; 0x2013 <main+0x1caa>
    2677: 26 13        	rol	$13                     ; 0x2013 <main+0x1caa>
    2679: 06 12        	asl	$12                     ; 0x2012 <main+0x1ca9>
    267b: 2a           	rol
    267c: 85 12        	sta	$12                     ; 0x2012 <main+0x1ca9>
    267e: 26 13        	rol	$13                     ; 0x2013 <main+0x1caa>
    2680: d0 07        	bne	$2689 <main+0x2320>
    2682: a5 12        	lda	$12                     ; 0x2012 <main+0x1ca9>
    2684: d0 03        	bne	$2689 <main+0x2320>
    2686: 4c 60 1e     	jmp	$1e60 <main+0x1af7>
    2689: a9 00        	lda	#$0
    268b: aa           	tax
    268c: 85 1a        	sta	$1a                     ; 0x201a <main+0x1cb1>
    268e: 5a           	phy
    268f: a0 49        	ldy	#$49
    2691: b1 10        	lda	($10),y                 ; 0x2010 <main+0x1ca7>
    2693: 7a           	ply
    2694: 29 01        	and	#$1
    2696: f0 03        	beq	$269b <main+0x2332>
    2698: 4c 60 1e     	jmp	$1e60 <main+0x1af7>
    269b: 5a           	phy
    269c: a0 3d        	ldy	#$3d
    269e: b1 10        	lda	($10),y                 ; 0x2010 <main+0x1ca7>
    26a0: 7a           	ply
    26a1: 29 01        	and	#$1
    26a3: d0 22        	bne	$26c7 <main+0x235e>
    26a5: 64 5f        	stz	$5f                     ; 0x205f <main+0x1cf6>
    26a7: 20 00 ff     	jsr	$ff00 <__heap_start+0x6c30>
    26aa: 92 26        	sta	($26)                   ; 0x2026 <main+0x1cbd>
    26ac: a9 00        	lda	#$0
    26ae: 6a           	ror
    26af: 85 22        	sta	$22                     ; 0x2022 <main+0x1cb9>
    26b1: a5 5f        	lda	$5f                     ; 0x205f <main+0x1cf6>
    26b3: c9 08        	cmp	#$8
    26b5: d0 10        	bne	$26c7 <main+0x235e>
    26b7: a4 63        	ldy	$63                     ; 0x2063 <main+0x1cfa>
    26b9: 98           	tya
    26ba: a0 3a        	ldy	#$3a
    26bc: 91 10        	sta	($10),y                 ; 0x2010 <main+0x1ca7>
    26be: a0 01        	ldy	#$1
    26c0: 98           	tya
    26c1: a0 3d        	ldy	#$3d
    26c3: 91 10        	sta	($10),y                 ; 0x2010 <main+0x1ca7>
    26c5: a0 01        	ldy	#$1
    26c7: 18           	clc
    26c8: 5a           	phy
    26c9: a5 10        	lda	$10                     ; 0x2010 <main+0x1ca7>
    26cb: 69 50        	adc	#$50
    26cd: 85 14        	sta	$14                     ; 0x2014 <main+0x1cab>
    26cf: a5 11        	lda	$11                     ; 0x2011 <main+0x1ca8>
    26d1: 69 00        	adc	#$0
    26d3: 85 15        	sta	$15                     ; 0x2015 <main+0x1cac>
    26d5: a5 24        	lda	$24                     ; 0x2024 <main+0x1cbb>
    26d7: 18           	clc
    26d8: 65 14        	adc	$14                     ; 0x2014 <main+0x1cab>
    26da: 85 14        	sta	$14                     ; 0x2014 <main+0x1cab>
    26dc: a0 44        	ldy	#$44
    26de: b1 10        	lda	($10),y                 ; 0x2010 <main+0x1ca7>
    26e0: 7a           	ply
    26e1: 85 16        	sta	$16                     ; 0x2016 <main+0x1cad>
    26e3: 65 15        	adc	$15                     ; 0x2015 <main+0x1cac>
    26e5: 85 15        	sta	$15                     ; 0x2015 <main+0x1cac>
    26e7: b2 14        	lda	($14)                   ; 0x2014 <main+0x1cab>
    26e9: 8d 07 d7     	sta	$d707                   ; 0xd707 <__heap_start+0x4437>
    26ec: b1 14        	lda	($14),y                 ; 0x2014 <main+0x1cab>
    26ee: 8d 07 d7     	sta	$d707                   ; 0xd707 <__heap_start+0x4437>
    26f1: a0 02        	ldy	#$2
    26f3: b1 14        	lda	($14),y                 ; 0x2014 <main+0x1cab>
    26f5: 8d 07 d7     	sta	$d707                   ; 0xd707 <__heap_start+0x4437>
    26f8: c8           	iny
    26f9: b1 14        	lda	($14),y                 ; 0x2014 <main+0x1cab>
    26fb: 8d 07 d7     	sta	$d707                   ; 0xd707 <__heap_start+0x4437>
    26fe: c8           	iny
    26ff: b1 14        	lda	($14),y                 ; 0x2014 <main+0x1cab>
    2701: 8d 07 d7     	sta	$d707                   ; 0xd707 <__heap_start+0x4437>
    2704: c8           	iny
    2705: b1 14        	lda	($14),y                 ; 0x2014 <main+0x1cab>
    2707: 8d 07 d7     	sta	$d707                   ; 0xd707 <__heap_start+0x4437>
    270a: c8           	iny
    270b: b1 14        	lda	($14),y                 ; 0x2014 <main+0x1cab>
    270d: 8d 07 d7     	sta	$d707                   ; 0xd707 <__heap_start+0x4437>
    2710: c8           	iny
    2711: b1 14        	lda	($14),y                 ; 0x2014 <main+0x1cab>
    2713: 8d 07 d7     	sta	$d707                   ; 0xd707 <__heap_start+0x4437>
    2716: c8           	iny
    2717: b1 14        	lda	($14),y                 ; 0x2014 <main+0x1cab>
    2719: 8d 07 d7     	sta	$d707                   ; 0xd707 <__heap_start+0x4437>
    271c: c8           	iny
    271d: b1 14        	lda	($14),y                 ; 0x2014 <main+0x1cab>
    271f: 8d 07 d7     	sta	$d707                   ; 0xd707 <__heap_start+0x4437>
    2722: c8           	iny
    2723: b1 14        	lda	($14),y                 ; 0x2014 <main+0x1cab>
    2725: 8d 07 d7     	sta	$d707                   ; 0xd707 <__heap_start+0x4437>
    2728: c8           	iny
    2729: b1 14        	lda	($14),y                 ; 0x2014 <main+0x1cab>
    272b: 8d 07 d7     	sta	$d707                   ; 0xd707 <__heap_start+0x4437>
    272e: c8           	iny
    272f: b1 14        	lda	($14),y                 ; 0x2014 <main+0x1cab>
    2731: 8d 07 d7     	sta	$d707                   ; 0xd707 <__heap_start+0x4437>
    2734: c8           	iny
    2735: b1 14        	lda	($14),y                 ; 0x2014 <main+0x1cab>
    2737: 8d 07 d7     	sta	$d707                   ; 0xd707 <__heap_start+0x4437>
    273a: c8           	iny
    273b: b1 14        	lda	($14),y                 ; 0x2014 <main+0x1cab>
    273d: 8d 07 d7     	sta	$d707                   ; 0xd707 <__heap_start+0x4437>
    2740: c8           	iny
    2741: b1 14        	lda	($14),y                 ; 0x2014 <main+0x1cab>
    2743: 8d 07 d7     	sta	$d707                   ; 0xd707 <__heap_start+0x4437>
    2746: c8           	iny
    2747: b1 14        	lda	($14),y                 ; 0x2014 <main+0x1cab>
    2749: 8d 07 d7     	sta	$d707                   ; 0xd707 <__heap_start+0x4437>
    274c: c8           	iny
    274d: b1 14        	lda	($14),y                 ; 0x2014 <main+0x1cab>
    274f: 8d 07 d7     	sta	$d707                   ; 0xd707 <__heap_start+0x4437>
    2752: c8           	iny
    2753: b1 14        	lda	($14),y                 ; 0x2014 <main+0x1cab>
    2755: 8d 07 d7     	sta	$d707                   ; 0xd707 <__heap_start+0x4437>
    2758: c8           	iny
    2759: b1 14        	lda	($14),y                 ; 0x2014 <main+0x1cab>
    275b: 8d 07 d7     	sta	$d707                   ; 0xd707 <__heap_start+0x4437>
    275e: c8           	iny
    275f: b1 14        	lda	($14),y                 ; 0x2014 <main+0x1cab>
    2761: 8d 07 d7     	sta	$d707                   ; 0xd707 <__heap_start+0x4437>
    2764: c8           	iny
    2765: b1 14        	lda	($14),y                 ; 0x2014 <main+0x1cab>
    2767: 8d 07 d7     	sta	$d707                   ; 0xd707 <__heap_start+0x4437>
    276a: c8           	iny
    276b: b1 14        	lda	($14),y                 ; 0x2014 <main+0x1cab>
    276d: 8d 07 d7     	sta	$d707                   ; 0xd707 <__heap_start+0x4437>
    2770: c8           	iny
    2771: b1 14        	lda	($14),y                 ; 0x2014 <main+0x1cab>
    2773: 8d 07 d7     	sta	$d707                   ; 0xd707 <__heap_start+0x4437>
    2776: c8           	iny
    2777: b1 14        	lda	($14),y                 ; 0x2014 <main+0x1cab>
    2779: 8d 07 d7     	sta	$d707                   ; 0xd707 <__heap_start+0x4437>
    277c: c8           	iny
    277d: b1 14        	lda	($14),y                 ; 0x2014 <main+0x1cab>
    277f: 8d 07 d7     	sta	$d707                   ; 0xd707 <__heap_start+0x4437>
    2782: c8           	iny
    2783: b1 14        	lda	($14),y                 ; 0x2014 <main+0x1cab>
    2785: 8d 07 d7     	sta	$d707                   ; 0xd707 <__heap_start+0x4437>
    2788: c8           	iny
    2789: b1 14        	lda	($14),y                 ; 0x2014 <main+0x1cab>
    278b: 8d 07 d7     	sta	$d707                   ; 0xd707 <__heap_start+0x4437>
    278e: c8           	iny
    278f: b1 14        	lda	($14),y                 ; 0x2014 <main+0x1cab>
    2791: 8d 07 d7     	sta	$d707                   ; 0xd707 <__heap_start+0x4437>
    2794: c8           	iny
    2795: b1 14        	lda	($14),y                 ; 0x2014 <main+0x1cab>
    2797: 8d 07 d7     	sta	$d707                   ; 0xd707 <__heap_start+0x4437>
    279a: c8           	iny
    279b: b1 14        	lda	($14),y                 ; 0x2014 <main+0x1cab>
    279d: 8d 07 d7     	sta	$d707                   ; 0xd707 <__heap_start+0x4437>
    27a0: c8           	iny
    27a1: b1 14        	lda	($14),y                 ; 0x2014 <main+0x1cab>
    27a3: 8d 07 d7     	sta	$d707                   ; 0xd707 <__heap_start+0x4437>
    27a6: c8           	iny
    27a7: b1 14        	lda	($14),y                 ; 0x2014 <main+0x1cab>
    27a9: 8d 07 d7     	sta	$d707                   ; 0xd707 <__heap_start+0x4437>
    27ac: c8           	iny
    27ad: b1 14        	lda	($14),y                 ; 0x2014 <main+0x1cab>
    27af: 8d 07 d7     	sta	$d707                   ; 0xd707 <__heap_start+0x4437>
    27b2: c8           	iny
    27b3: b1 14        	lda	($14),y                 ; 0x2014 <main+0x1cab>
    27b5: 8d 07 d7     	sta	$d707                   ; 0xd707 <__heap_start+0x4437>
    27b8: c8           	iny
    27b9: b1 14        	lda	($14),y                 ; 0x2014 <main+0x1cab>
    27bb: 8d 07 d7     	sta	$d707                   ; 0xd707 <__heap_start+0x4437>
    27be: c8           	iny
    27bf: b1 14        	lda	($14),y                 ; 0x2014 <main+0x1cab>
    27c1: 8d 07 d7     	sta	$d707                   ; 0xd707 <__heap_start+0x4437>
    27c4: c8           	iny
    27c5: b1 14        	lda	($14),y                 ; 0x2014 <main+0x1cab>
    27c7: 8d 07 d7     	sta	$d707                   ; 0xd707 <__heap_start+0x4437>
    27ca: c8           	iny
    27cb: b1 14        	lda	($14),y                 ; 0x2014 <main+0x1cab>
    27cd: 8d 07 d7     	sta	$d707                   ; 0xd707 <__heap_start+0x4437>
    27d0: c8           	iny
    27d1: b1 14        	lda	($14),y                 ; 0x2014 <main+0x1cab>
    27d3: 8d 07 d7     	sta	$d707                   ; 0xd707 <__heap_start+0x4437>
    27d6: c8           	iny
    27d7: b1 14        	lda	($14),y                 ; 0x2014 <main+0x1cab>
    27d9: 8d 07 d7     	sta	$d707                   ; 0xd707 <__heap_start+0x4437>
    27dc: c8           	iny
    27dd: b1 14        	lda	($14),y                 ; 0x2014 <main+0x1cab>
    27df: 8d 07 d7     	sta	$d707                   ; 0xd707 <__heap_start+0x4437>
    27e2: c8           	iny
    27e3: b1 14        	lda	($14),y                 ; 0x2014 <main+0x1cab>
    27e5: 8d 07 d7     	sta	$d707                   ; 0xd707 <__heap_start+0x4437>
    27e8: c8           	iny
    27e9: b1 14        	lda	($14),y                 ; 0x2014 <main+0x1cab>
    27eb: 8d 07 d7     	sta	$d707                   ; 0xd707 <__heap_start+0x4437>
    27ee: c8           	iny
    27ef: b1 14        	lda	($14),y                 ; 0x2014 <main+0x1cab>
    27f1: 8d 07 d7     	sta	$d707                   ; 0xd707 <__heap_start+0x4437>
    27f4: c8           	iny
    27f5: b1 14        	lda	($14),y                 ; 0x2014 <main+0x1cab>
    27f7: 8d 07 d7     	sta	$d707                   ; 0xd707 <__heap_start+0x4437>
    27fa: c8           	iny
    27fb: b1 14        	lda	($14),y                 ; 0x2014 <main+0x1cab>
    27fd: 8d 07 d7     	sta	$d707                   ; 0xd707 <__heap_start+0x4437>
    2800: c8           	iny
    2801: b1 14        	lda	($14),y                 ; 0x2014 <main+0x1cab>
    2803: 8d 07 d7     	sta	$d707                   ; 0xd707 <__heap_start+0x4437>
    2806: c8           	iny
    2807: b1 14        	lda	($14),y                 ; 0x2014 <main+0x1cab>
    2809: 8d 07 d7     	sta	$d707                   ; 0xd707 <__heap_start+0x4437>
    280c: c8           	iny
    280d: b1 14        	lda	($14),y                 ; 0x2014 <main+0x1cab>
    280f: 8d 07 d7     	sta	$d707                   ; 0xd707 <__heap_start+0x4437>
    2812: c8           	iny
    2813: b1 14        	lda	($14),y                 ; 0x2014 <main+0x1cab>
    2815: 8d 07 d7     	sta	$d707                   ; 0xd707 <__heap_start+0x4437>
    2818: c8           	iny
    2819: b1 14        	lda	($14),y                 ; 0x2014 <main+0x1cab>
    281b: 8d 07 d7     	sta	$d707                   ; 0xd707 <__heap_start+0x4437>
    281e: c8           	iny
    281f: b1 14        	lda	($14),y                 ; 0x2014 <main+0x1cab>
    2821: 8d 07 d7     	sta	$d707                   ; 0xd707 <__heap_start+0x4437>
    2824: c8           	iny
    2825: b1 14        	lda	($14),y                 ; 0x2014 <main+0x1cab>
    2827: 8d 07 d7     	sta	$d707                   ; 0xd707 <__heap_start+0x4437>
    282a: c8           	iny
    282b: b1 14        	lda	($14),y                 ; 0x2014 <main+0x1cab>
    282d: 8d 07 d7     	sta	$d707                   ; 0xd707 <__heap_start+0x4437>
    2830: c8           	iny
    2831: b1 14        	lda	($14),y                 ; 0x2014 <main+0x1cab>
    2833: 8d 07 d7     	sta	$d707                   ; 0xd707 <__heap_start+0x4437>
    2836: c8           	iny
    2837: b1 14        	lda	($14),y                 ; 0x2014 <main+0x1cab>
    2839: 8d 07 d7     	sta	$d707                   ; 0xd707 <__heap_start+0x4437>
    283c: c8           	iny
    283d: b1 14        	lda	($14),y                 ; 0x2014 <main+0x1cab>
    283f: 8d 07 d7     	sta	$d707                   ; 0xd707 <__heap_start+0x4437>
    2842: c8           	iny
    2843: b1 14        	lda	($14),y                 ; 0x2014 <main+0x1cab>
    2845: 8d 07 d7     	sta	$d707                   ; 0xd707 <__heap_start+0x4437>
    2848: c8           	iny
    2849: b1 14        	lda	($14),y                 ; 0x2014 <main+0x1cab>
    284b: 8d 07 d7     	sta	$d707                   ; 0xd707 <__heap_start+0x4437>
    284e: c8           	iny
    284f: b1 14        	lda	($14),y                 ; 0x2014 <main+0x1cab>
    2851: 8d 07 d7     	sta	$d707                   ; 0xd707 <__heap_start+0x4437>
    2854: c8           	iny
    2855: b1 14        	lda	($14),y                 ; 0x2014 <main+0x1cab>
    2857: 8d 07 d7     	sta	$d707                   ; 0xd707 <__heap_start+0x4437>
    285a: c8           	iny
    285b: b1 14        	lda	($14),y                 ; 0x2014 <main+0x1cab>
    285d: 8d 07 d7     	sta	$d707                   ; 0xd707 <__heap_start+0x4437>
    2860: c8           	iny
    2861: b1 14        	lda	($14),y                 ; 0x2014 <main+0x1cab>
    2863: 8d 07 d7     	sta	$d707                   ; 0xd707 <__heap_start+0x4437>
    2866: 18           	clc
    2867: a5 24        	lda	$24                     ; 0x2024 <main+0x1cbb>
    2869: 69 40        	adc	#$40
    286b: a8           	tay
    286c: a5 16        	lda	$16                     ; 0x2016 <main+0x1cad>
    286e: 69 00        	adc	#$0
    2870: c9 20        	cmp	#$20
    2872: f0 03        	beq	$2877 <main+0x250e>
    2874: 4c ec 1c     	jmp	$1cec <main+0x1983>
    2877: 84 24        	sty	$24                     ; 0x2024 <main+0x1cbb>
    2879: c0 00        	cpy	#$0
    287b: f0 03        	beq	$2880 <main+0x2517>
    287d: 4c ee 1c     	jmp	$1cee <main+0x1985>
    2880: 64 24        	stz	$24                     ; 0x2024 <main+0x1cbb>
    2882: a0 38        	ldy	#$38
    2884: b1 10        	lda	($10),y                 ; 0x2010 <main+0x1ca7>
    2886: c9 01        	cmp	#$1
    2888: a9 00        	lda	#$0
    288a: b0 03        	bcs	$288f <main+0x2526>
    288c: 4c f4 1c     	jmp	$1cf4 <main+0x198b>
    288f: a2 00        	ldx	#$0
    2891: 86 1c        	stx	$1c                     ; 0x201c <main+0x1cb3>
    2893: a2 00        	ldx	#$0
    2895: 86 1d        	stx	$1d                     ; 0x201d <main+0x1cb4>
    2897: a0 08        	ldy	#$8
    2899: a2 00        	ldx	#$0
    289b: 80 03        	bra	$28a0 <main+0x2537>
    289d: 98           	tya
    289e: f0 0b        	beq	$28ab <main+0x2542>
    28a0: 9c 07 d7     	stz	$d707                   ; 0xd707 <__heap_start+0x4437>
    28a3: ca           	dex
    28a4: e0 ff        	cpx	#$ff
    28a6: d0 f5        	bne	$289d <main+0x2534>
    28a8: 88           	dey
    28a9: 80 f2        	bra	$289d <main+0x2534>
    28ab: 8a           	txa
    28ac: d0 f2        	bne	$28a0 <main+0x2537>
    28ae: a0 01        	ldy	#$1
    28b0: a6 5c        	ldx	$5c                     ; 0x205c <main+0x1cf3>
    28b2: a5 5d        	lda	$5d                     ; 0x205d <main+0x1cf4>
    28b4: 86 12        	stx	$12                     ; 0x2012 <main+0x1ca9>
    28b6: 85 13        	sta	$13                     ; 0x2013 <main+0x1caa>
    28b8: 85 14        	sta	$14                     ; 0x2014 <main+0x1cab>
    28ba: b2 12        	lda	($12)                   ; 0x2012 <main+0x1ca9>
    28bc: 85 f3        	sta	$f3                     ; 0x20f3 <main+0x1d8a>
    28be: 18           	clc
    28bf: 86 1e        	stx	$1e                     ; 0x201e <main+0x1cb5>
    28c1: 8a           	txa
    28c2: 69 fe        	adc	#$fe
    28c4: aa           	tax
    28c5: a5 14        	lda	$14                     ; 0x2014 <main+0x1cab>
    28c7: 85 1f        	sta	$1f                     ; 0x201f <main+0x1cb6>
    28c9: 69 ff        	adc	#$ff
    28cb: 85 16        	sta	$16                     ; 0x2016 <main+0x1cad>
    28cd: 86 12        	stx	$12                     ; 0x2012 <main+0x1ca9>
    28cf: 85 13        	sta	$13                     ; 0x2013 <main+0x1caa>
    28d1: 20 68 ff     	jsr	$ff68 <__heap_start+0x6c98>
    28d4: 92 26        	sta	($26)                   ; 0x2026 <main+0x1cbd>
    28d6: a9 00        	lda	#$0
    28d8: 6a           	ror
    28d9: 85 22        	sta	$22                     ; 0x2022 <main+0x1cb9>
    28db: b1 12        	lda	($12),y                 ; 0x2012 <main+0x1ca9>
    28dd: 85 14        	sta	$14                     ; 0x2014 <main+0x1cab>
    28df: a9 fe        	lda	#$fe
    28e1: 32 12        	and	($12)                   ; 0x2012 <main+0x1ca9>
    28e3: 85 15        	sta	$15                     ; 0x2015 <main+0x1cac>
    28e5: 86 1a        	stx	$1a                     ; 0x201a <main+0x1cb1>
    28e7: 8a           	txa
    28e8: 18           	clc
    28e9: 65 15        	adc	$15                     ; 0x2015 <main+0x1cac>
    28eb: 85 17        	sta	$17                     ; 0x2017 <main+0x1cae>
    28ed: a6 16        	ldx	$16                     ; 0x2016 <main+0x1cad>
    28ef: 86 1b        	stx	$1b                     ; 0x201b <main+0x1cb2>
    28f1: a5 16        	lda	$16                     ; 0x2016 <main+0x1cad>
    28f3: 65 14        	adc	$14                     ; 0x2014 <main+0x1cab>
    28f5: aa           	tax
    28f6: b2 12        	lda	($12)                   ; 0x2012 <main+0x1ca9>
    28f8: 85 24        	sta	$24                     ; 0x2024 <main+0x1cbb>
    28fa: 8a           	txa
    28fb: 48           	pha
    28fc: 5a           	phy
    28fd: a0 18        	ldy	#$18
    28ff: b1 10        	lda	($10),y                 ; 0x2010 <main+0x1ca7>
    2901: 7a           	ply
    2902: 85 16        	sta	$16                     ; 0x2016 <main+0x1cad>
    2904: 68           	pla
    2905: e4 16        	cpx	$16                     ; 0x2016 <main+0x1cad>
    2907: f0 03        	beq	$290c <main+0x25a3>
    2909: 4c c3 29     	jmp	$29c3 <main+0x265a>
    290c: 48           	pha
    290d: 5a           	phy
    290e: a0 13        	ldy	#$13
    2910: b1 10        	lda	($10),y                 ; 0x2010 <main+0x1ca7>
    2912: 7a           	ply
    2913: 85 16        	sta	$16                     ; 0x2016 <main+0x1cad>
    2915: 68           	pla
    2916: a6 17        	ldx	$17                     ; 0x2017 <main+0x1cae>
    2918: e4 16        	cpx	$16                     ; 0x2016 <main+0x1cad>
    291a: f0 03        	beq	$291f <main+0x25b6>
    291c: 4c c5 29     	jmp	$29c5 <main+0x265c>
    291f: a2 00        	ldx	#$0
    2921: 86 16        	stx	$16                     ; 0x2016 <main+0x1cad>
    2923: a2 00        	ldx	#$0
    2925: 86 17        	stx	$17                     ; 0x2017 <main+0x1cae>
    2927: a5 24        	lda	$24                     ; 0x2024 <main+0x1cbb>
    2929: 29 01        	and	#$1
    292b: d0 03        	bne	$2930 <main+0x25c7>
    292d: 4c d2 29     	jmp	$29d2 <main+0x2669>
    2930: 18           	clc
    2931: a5 1e        	lda	$1e                     ; 0x201e <main+0x1cb5>
    2933: 69 fc        	adc	#$fc
    2935: 85 12        	sta	$12                     ; 0x2012 <main+0x1ca9>
    2937: a5 1f        	lda	$1f                     ; 0x201f <main+0x1cb6>
    2939: 69 ff        	adc	#$ff
    293b: 85 13        	sta	$13                     ; 0x2013 <main+0x1caa>
    293d: a9 00        	lda	#$0
    293f: 38           	sec
    2940: f2 12        	sbc	($12)                   ; 0x2012 <main+0x1ca9>
    2942: 85 18        	sta	$18                     ; 0x2018 <main+0x1caf>
    2944: a9 00        	lda	#$0
    2946: f1 12        	sbc	($12),y                 ; 0x2012 <main+0x1ca9>
    2948: 85 13        	sta	$13                     ; 0x2013 <main+0x1caa>
    294a: 18           	clc
    294b: a5 1a        	lda	$1a                     ; 0x201a <main+0x1cb1>
    294d: 65 18        	adc	$18                     ; 0x2018 <main+0x1caf>
    294f: 85 12        	sta	$12                     ; 0x2012 <main+0x1ca9>
    2951: 85 19        	sta	$19                     ; 0x2019 <main+0x1cb0>
    2953: a5 1b        	lda	$1b                     ; 0x201b <main+0x1cb2>
    2955: 65 13        	adc	$13                     ; 0x2013 <main+0x1caa>
    2957: 85 13        	sta	$13                     ; 0x2013 <main+0x1caa>
    2959: 85 24        	sta	$24                     ; 0x2024 <main+0x1cbb>
    295b: b1 12        	lda	($12),y                 ; 0x2012 <main+0x1ca9>
    295d: 85 1b        	sta	$1b                     ; 0x201b <main+0x1cb2>
    295f: a9 fe        	lda	#$fe
    2961: 32 12        	and	($12)                   ; 0x2012 <main+0x1ca9>
    2963: a4 67        	ldy	$67                     ; 0x2067 <main+0x1cfe>
    2965: a6 68        	ldx	$68                     ; 0x2068 <main+0x1cff>
    2967: 86 1a        	stx	$1a                     ; 0x201a <main+0x1cb1>
    2969: 85 1f        	sta	$1f                     ; 0x201f <main+0x1cb6>
    296b: 85 18        	sta	$18                     ; 0x2018 <main+0x1caf>
    296d: 38           	sec
    296e: 98           	tya
    296f: e5 18        	sbc	$18                     ; 0x2018 <main+0x1caf>
    2971: a8           	tay
    2972: a6 1b        	ldx	$1b                     ; 0x201b <main+0x1cb2>
    2974: 86 1e        	stx	$1e                     ; 0x201e <main+0x1cb5>
    2976: 86 18        	stx	$18                     ; 0x2018 <main+0x1caf>
    2978: a5 1a        	lda	$1a                     ; 0x201a <main+0x1cb1>
    297a: e5 18        	sbc	$18                     ; 0x2018 <main+0x1caf>
    297c: 85 18        	sta	$18                     ; 0x2018 <main+0x1caf>
    297e: 18           	clc
    297f: 98           	tya
    2980: 69 02        	adc	#$2
    2982: a8           	tay
    2983: a5 18        	lda	$18                     ; 0x2018 <main+0x1caf>
    2985: 69 00        	adc	#$0
    2987: 84 67        	sty	$67                     ; 0x2067 <main+0x1cfe>
    2989: 85 68        	sta	$68                     ; 0x2068 <main+0x1cff>
    298b: 18           	clc
    298c: a6 19        	ldx	$19                     ; 0x2019 <main+0x1cb0>
    298e: 86 1a        	stx	$1a                     ; 0x201a <main+0x1cb1>
    2990: a5 19        	lda	$19                     ; 0x2019 <main+0x1cb0>
    2992: 69 02        	adc	#$2
    2994: 85 18        	sta	$18                     ; 0x2018 <main+0x1caf>
    2996: a6 24        	ldx	$24                     ; 0x2024 <main+0x1cbb>
    2998: 86 1b        	stx	$1b                     ; 0x201b <main+0x1cb2>
    299a: a5 24        	lda	$24                     ; 0x2024 <main+0x1cbb>
    299c: 69 00        	adc	#$0
    299e: 85 19        	sta	$19                     ; 0x2019 <main+0x1cb0>
    29a0: a0 02        	ldy	#$2
    29a2: b1 12        	lda	($12),y                 ; 0x2012 <main+0x1ca9>
    29a4: aa           	tax
    29a5: 88           	dey
    29a6: b1 18        	lda	($18),y                 ; 0x2018 <main+0x1caf>
    29a8: 85 24        	sta	$24                     ; 0x2024 <main+0x1cbb>
    29aa: c5 13        	cmp	$13                     ; 0x2013 <main+0x1caa>
    29ac: f0 03        	beq	$29b1 <main+0x2648>
    29ae: 4c 2b 2a     	jmp	$2a2b <main+0x26c2>
    29b1: e4 12        	cpx	$12                     ; 0x2012 <main+0x1ca9>
    29b3: f0 03        	beq	$29b8 <main+0x264f>
    29b5: 4c 2b 2a     	jmp	$2a2b <main+0x26c2>
    29b8: a2 00        	ldx	#$0
    29ba: 86 18        	stx	$18                     ; 0x2018 <main+0x1caf>
    29bc: a2 00        	ldx	#$0
    29be: 86 19        	stx	$19                     ; 0x2019 <main+0x1cb0>
    29c0: 4c a9 2a     	jmp	$2aa9 <main+0x2740>
    29c3: a6 17        	ldx	$17                     ; 0x2017 <main+0x1cae>
    29c5: 86 16        	stx	$16                     ; 0x2016 <main+0x1cad>
    29c7: 85 17        	sta	$17                     ; 0x2017 <main+0x1cae>
    29c9: a5 24        	lda	$24                     ; 0x2024 <main+0x1cbb>
    29cb: 29 01        	and	#$1
    29cd: f0 03        	beq	$29d2 <main+0x2669>
    29cf: 4c 30 29     	jmp	$2930 <main+0x25c7>
    29d2: a6 17        	ldx	$17                     ; 0x2017 <main+0x1cae>
    29d4: e4 1d        	cpx	$1d                     ; 0x201d <main+0x1cb4>
    29d6: d0 03        	bne	$29db <main+0x2672>
    29d8: 4c c6 2a     	jmp	$2ac6 <main+0x275d>
    29db: 4c d1 2a     	jmp	$2ad1 <main+0x2768>
    29de: b2 26        	lda	($26)                   ; 0x2026 <main+0x1cbd>
    29e0: 85 24        	sta	$24                     ; 0x2024 <main+0x1cbb>
    29e2: 64 5f        	stz	$5f                     ; 0x205f <main+0x1cf6>
    29e4: 20 00 ff     	jsr	$ff00 <__heap_start+0x6c30>
    29e7: 92 26        	sta	($26)                   ; 0x2026 <main+0x1cbd>
    29e9: a9 00        	lda	#$0
    29eb: 6a           	ror
    29ec: 85 22        	sta	$22                     ; 0x2022 <main+0x1cb9>
    29ee: a6 5f        	ldx	$5f                     ; 0x205f <main+0x1cf6>
    29f0: e0 28        	cpx	#$28
    29f2: d0 03        	bne	$29f7 <main+0x268e>
    29f4: 4c 19 1b     	jmp	$1b19 <main+0x17b0>
    29f7: e0 38        	cpx	#$38
    29f9: d0 03        	bne	$29fe <main+0x2695>
    29fb: 4c 19 1b     	jmp	$1b19 <main+0x17b0>
    29fe: e0 2a        	cpx	#$2a
    2a00: d0 e0        	bne	$29e2 <main+0x2679>
    2a02: a2 00        	ldx	#$0
    2a04: 86 1e        	stx	$1e                     ; 0x201e <main+0x1cb5>
    2a06: a2 00        	ldx	#$0
    2a08: 86 1f        	stx	$1f                     ; 0x201f <main+0x1cb6>
    2a0a: ad ce 92     	lda	$92ce                   ; 0x92ce <_ZN12_GLOBAL__N_111initializedE>
    2a0d: 29 01        	and	#$1
    2a0f: a6 69        	ldx	$69                     ; 0x2069 <main+0x1d00>
    2a11: 86 13        	stx	$13                     ; 0x2013 <main+0x1caa>
    2a13: a6 6a        	ldx	$6a                     ; 0x206a <main+0x1d01>
    2a15: 86 12        	stx	$12                     ; 0x2012 <main+0x1ca9>
    2a17: a6 13        	ldx	$13                     ; 0x2013 <main+0x1caa>
    2a19: 86 19        	stx	$19                     ; 0x2019 <main+0x1cb0>
    2a1b: 86 16        	stx	$16                     ; 0x2016 <main+0x1cad>
    2a1d: a6 12        	ldx	$12                     ; 0x2012 <main+0x1ca9>
    2a1f: 86 17        	stx	$17                     ; 0x2017 <main+0x1cae>
    2a21: c9 00        	cmp	#$0
    2a23: d0 03        	bne	$2a28 <main+0x26bf>
    2a25: 4c 49 38     	jmp	$3849 <main+0x34e0>
    2a28: 4c 39 38     	jmp	$3839 <main+0x34d0>
    2a2b: 18           	clc
    2a2c: a5 1a        	lda	$1a                     ; 0x201a <main+0x1cb1>
    2a2e: a4 1a        	ldy	$1a                     ; 0x201a <main+0x1cb1>
    2a30: 84 29        	sty	$29                     ; 0x2029 <main+0x1cc0>
    2a32: 69 04        	adc	#$4
    2a34: 85 18        	sta	$18                     ; 0x2018 <main+0x1caf>
    2a36: a4 1b        	ldy	$1b                     ; 0x201b <main+0x1cb2>
    2a38: 84 2a        	sty	$2a                     ; 0x202a <main+0x1cc1>
    2a3a: a5 1b        	lda	$1b                     ; 0x201b <main+0x1cb2>
    2a3c: 69 00        	adc	#$0
    2a3e: 85 19        	sta	$19                     ; 0x2019 <main+0x1cb0>
    2a40: a0 04        	ldy	#$4
    2a42: b1 12        	lda	($12),y                 ; 0x2012 <main+0x1ca9>
    2a44: 85 25        	sta	$25                     ; 0x2025 <main+0x1cbc>
    2a46: 18           	clc
    2a47: 69 02        	adc	#$2
    2a49: 85 1a        	sta	$1a                     ; 0x201a <main+0x1cb1>
    2a4b: a0 01        	ldy	#$1
    2a4d: b1 18        	lda	($18),y                 ; 0x2018 <main+0x1caf>
    2a4f: 85 28        	sta	$28                     ; 0x2028 <main+0x1cbf>
    2a51: 69 00        	adc	#$0
    2a53: a4 1a        	ldy	$1a                     ; 0x201a <main+0x1cb1>
    2a55: 84 18        	sty	$18                     ; 0x2018 <main+0x1caf>
    2a57: 85 19        	sta	$19                     ; 0x2019 <main+0x1cb0>
    2a59: a4 25        	ldy	$25                     ; 0x2025 <main+0x1cbc>
    2a5b: 84 1a        	sty	$1a                     ; 0x201a <main+0x1cb1>
    2a5d: a4 28        	ldy	$28                     ; 0x2028 <main+0x1cbf>
    2a5f: 84 1b        	sty	$1b                     ; 0x201b <main+0x1cb2>
    2a61: 8a           	txa
    2a62: a0 02        	ldy	#$2
    2a64: 91 1a        	sta	($1a),y                 ; 0x201a <main+0x1cb1>
    2a66: a5 24        	lda	$24                     ; 0x2024 <main+0x1cbb>
    2a68: 88           	dey
    2a69: 91 18        	sta	($18),y                 ; 0x2018 <main+0x1caf>
    2a6b: 18           	clc
    2a6c: a5 29        	lda	$29                     ; 0x2029 <main+0x1cc0>
    2a6e: 69 02        	adc	#$2
    2a70: 85 18        	sta	$18                     ; 0x2018 <main+0x1caf>
    2a72: a5 2a        	lda	$2a                     ; 0x202a <main+0x1cc1>
    2a74: 69 00        	adc	#$0
    2a76: 85 19        	sta	$19                     ; 0x2019 <main+0x1cb0>
    2a78: c8           	iny
    2a79: b1 12        	lda	($12),y                 ; 0x2012 <main+0x1ca9>
    2a7b: 85 1a        	sta	$1a                     ; 0x201a <main+0x1cb1>
    2a7d: 88           	dey
    2a7e: b1 18        	lda	($18),y                 ; 0x2018 <main+0x1caf>
    2a80: aa           	tax
    2a81: a5 1a        	lda	$1a                     ; 0x201a <main+0x1cb1>
    2a83: 85 18        	sta	$18                     ; 0x2018 <main+0x1caf>
    2a85: 86 19        	stx	$19                     ; 0x2019 <main+0x1cb0>
    2a87: 18           	clc
    2a88: 69 04        	adc	#$4
    2a8a: 85 1a        	sta	$1a                     ; 0x201a <main+0x1cb1>
    2a8c: 8a           	txa
    2a8d: 69 00        	adc	#$0
    2a8f: 85 1b        	sta	$1b                     ; 0x201b <main+0x1cb2>
    2a91: a0 04        	ldy	#$4
    2a93: a5 25        	lda	$25                     ; 0x2025 <main+0x1cbc>
    2a95: 91 18        	sta	($18),y                 ; 0x2018 <main+0x1caf>
    2a97: a0 01        	ldy	#$1
    2a99: a5 28        	lda	$28                     ; 0x2028 <main+0x1cbf>
    2a9b: 91 1a        	sta	($1a),y                 ; 0x201a <main+0x1cb1>
    2a9d: a6 6a        	ldx	$6a                     ; 0x206a <main+0x1d01>
    2a9f: e4 13        	cpx	$13                     ; 0x2013 <main+0x1caa>
    2aa1: d0 10        	bne	$2ab3 <main+0x274a>
    2aa3: a6 69        	ldx	$69                     ; 0x2069 <main+0x1d00>
    2aa5: e4 12        	cpx	$12                     ; 0x2012 <main+0x1ca9>
    2aa7: d0 0a        	bne	$2ab3 <main+0x274a>
    2aa9: a6 18        	ldx	$18                     ; 0x2018 <main+0x1caf>
    2aab: a4 19        	ldy	$19                     ; 0x2019 <main+0x1cb0>
    2aad: 86 69        	stx	$69                     ; 0x2069 <main+0x1d00>
    2aaf: 84 6a        	sty	$6a                     ; 0x206a <main+0x1d01>
    2ab1: a0 01        	ldy	#$1
    2ab3: 18           	clc
    2ab4: a5 1f        	lda	$1f                     ; 0x201f <main+0x1cb6>
    2ab6: 65 15        	adc	$15                     ; 0x2015 <main+0x1cac>
    2ab8: 85 15        	sta	$15                     ; 0x2015 <main+0x1cac>
    2aba: a5 1e        	lda	$1e                     ; 0x201e <main+0x1cb5>
    2abc: 65 14        	adc	$14                     ; 0x2014 <main+0x1cab>
    2abe: 85 14        	sta	$14                     ; 0x2014 <main+0x1cab>
    2ac0: a6 17        	ldx	$17                     ; 0x2017 <main+0x1cae>
    2ac2: e4 1d        	cpx	$1d                     ; 0x201d <main+0x1cb4>
    2ac4: d0 0b        	bne	$2ad1 <main+0x2768>
    2ac6: a6 16        	ldx	$16                     ; 0x2016 <main+0x1cad>
    2ac8: e4 1c        	cpx	$1c                     ; 0x201c <main+0x1cb3>
    2aca: d0 05        	bne	$2ad1 <main+0x2768>
    2acc: 84 66        	sty	$66                     ; 0x2066 <main+0x1cfd>
    2ace: 4c 7e 2d     	jmp	$2d7e <main+0x2a15>
    2ad1: b1 16        	lda	($16),y                 ; 0x2016 <main+0x1cad>
    2ad3: aa           	tax
    2ad4: a9 fe        	lda	#$fe
    2ad6: 32 16        	and	($16)                   ; 0x2016 <main+0x1cad>
    2ad8: 85 1f        	sta	$1f                     ; 0x201f <main+0x1cb6>
    2ada: 18           	clc
    2adb: 65 16        	adc	$16                     ; 0x2016 <main+0x1cad>
    2add: 85 19        	sta	$19                     ; 0x2019 <main+0x1cb0>
    2adf: 8a           	txa
    2ae0: 86 1e        	stx	$1e                     ; 0x201e <main+0x1cb5>
    2ae2: 65 17        	adc	$17                     ; 0x2017 <main+0x1cae>
    2ae4: 48           	pha
    2ae5: 5a           	phy
    2ae6: a0 18        	ldy	#$18
    2ae8: b1 10        	lda	($10),y                 ; 0x2010 <main+0x1ca7>
    2aea: 7a           	ply
    2aeb: 85 18        	sta	$18                     ; 0x2018 <main+0x1caf>
    2aed: 68           	pla
    2aee: c5 18        	cmp	$18                     ; 0x2018 <main+0x1caf>
    2af0: d0 1c        	bne	$2b0e <main+0x27a5>
    2af2: 48           	pha
    2af3: 5a           	phy
    2af4: a0 13        	ldy	#$13
    2af6: b1 10        	lda	($10),y                 ; 0x2010 <main+0x1ca7>
    2af8: 7a           	ply
    2af9: 85 18        	sta	$18                     ; 0x2018 <main+0x1caf>
    2afb: 68           	pla
    2afc: a6 19        	ldx	$19                     ; 0x2019 <main+0x1cb0>
    2afe: e4 18        	cpx	$18                     ; 0x2018 <main+0x1caf>
    2b00: d0 0c        	bne	$2b0e <main+0x27a5>
    2b02: 64 18        	stz	$18                     ; 0x2018 <main+0x1caf>
    2b04: a9 01        	lda	#$1
    2b06: 25 66        	and	$66                     ; 0x2066 <main+0x1cfd>
    2b08: a6 18        	ldx	$18                     ; 0x2018 <main+0x1caf>
    2b0a: d0 18        	bne	$2b24 <main+0x27bb>
    2b0c: 80 10        	bra	$2b1e <main+0x27b5>
    2b0e: a6 19        	ldx	$19                     ; 0x2019 <main+0x1cb0>
    2b10: 86 18        	stx	$18                     ; 0x2018 <main+0x1caf>
    2b12: 85 19        	sta	$19                     ; 0x2019 <main+0x1cb0>
    2b14: a9 01        	lda	#$1
    2b16: 32 18        	and	($18)                   ; 0x2018 <main+0x1caf>
    2b18: 64 18        	stz	$18                     ; 0x2018 <main+0x1caf>
    2b1a: a6 18        	ldx	$18                     ; 0x2018 <main+0x1caf>
    2b1c: d0 06        	bne	$2b24 <main+0x27bb>
    2b1e: aa           	tax
    2b1f: d0 03        	bne	$2b24 <main+0x27bb>
    2b21: 4c 74 2d     	jmp	$2d74 <main+0x2a0b>
    2b24: a5 67        	lda	$67                     ; 0x2067 <main+0x1cfe>
    2b26: a6 68        	ldx	$68                     ; 0x2068 <main+0x1cff>
    2b28: 86 19        	stx	$19                     ; 0x2019 <main+0x1cb0>
    2b2a: 38           	sec
    2b2b: e5 1f        	sbc	$1f                     ; 0x201f <main+0x1cb6>
    2b2d: aa           	tax
    2b2e: a5 19        	lda	$19                     ; 0x2019 <main+0x1cb0>
    2b30: e5 1e        	sbc	$1e                     ; 0x201e <main+0x1cb5>
    2b32: 85 18        	sta	$18                     ; 0x2018 <main+0x1caf>
    2b34: 18           	clc
    2b35: 8a           	txa
    2b36: 69 02        	adc	#$2
    2b38: 85 19        	sta	$19                     ; 0x2019 <main+0x1cb0>
    2b3a: a5 18        	lda	$18                     ; 0x2018 <main+0x1caf>
    2b3c: 69 00        	adc	#$0
    2b3e: a6 19        	ldx	$19                     ; 0x2019 <main+0x1cb0>
    2b40: 86 67        	stx	$67                     ; 0x2067 <main+0x1cfe>
    2b42: 85 68        	sta	$68                     ; 0x2068 <main+0x1cff>
    2b44: a5 16        	lda	$16                     ; 0x2016 <main+0x1cad>
    2b46: 18           	clc
    2b47: 69 02        	adc	#$2
    2b49: 85 18        	sta	$18                     ; 0x2018 <main+0x1caf>
    2b4b: a5 17        	lda	$17                     ; 0x2017 <main+0x1cae>
    2b4d: 69 00        	adc	#$0
    2b4f: 85 19        	sta	$19                     ; 0x2019 <main+0x1cb0>
    2b51: a0 02        	ldy	#$2
    2b53: b1 16        	lda	($16),y                 ; 0x2016 <main+0x1cad>
    2b55: aa           	tax
    2b56: 88           	dey
    2b57: b1 18        	lda	($18),y                 ; 0x2018 <main+0x1caf>
    2b59: 85 24        	sta	$24                     ; 0x2024 <main+0x1cbb>
    2b5b: c5 17        	cmp	$17                     ; 0x2017 <main+0x1cae>
    2b5d: d0 0f        	bne	$2b6e <main+0x2805>
    2b5f: e4 16        	cpx	$16                     ; 0x2016 <main+0x1cad>
    2b61: d0 0b        	bne	$2b6e <main+0x2805>
    2b63: a2 00        	ldx	#$0
    2b65: 86 18        	stx	$18                     ; 0x2018 <main+0x1caf>
    2b67: a2 00        	ldx	#$0
    2b69: 86 19        	stx	$19                     ; 0x2019 <main+0x1cb0>
    2b6b: 4c e8 2b     	jmp	$2be8 <main+0x287f>
    2b6e: a4 16        	ldy	$16                     ; 0x2016 <main+0x1cad>
    2b70: 18           	clc
    2b71: a5 16        	lda	$16                     ; 0x2016 <main+0x1cad>
    2b73: 84 2a        	sty	$2a                     ; 0x202a <main+0x1cc1>
    2b75: 69 04        	adc	#$4
    2b77: 85 18        	sta	$18                     ; 0x2018 <main+0x1caf>
    2b79: a5 17        	lda	$17                     ; 0x2017 <main+0x1cae>
    2b7b: 69 00        	adc	#$0
    2b7d: 85 19        	sta	$19                     ; 0x2019 <main+0x1cb0>
    2b7f: a0 04        	ldy	#$4
    2b81: b1 16        	lda	($16),y                 ; 0x2016 <main+0x1cad>
    2b83: 85 28        	sta	$28                     ; 0x2028 <main+0x1cbf>
    2b85: 18           	clc
    2b86: 69 02        	adc	#$2
    2b88: 85 1a        	sta	$1a                     ; 0x201a <main+0x1cb1>
    2b8a: a0 01        	ldy	#$1
    2b8c: b1 18        	lda	($18),y                 ; 0x2018 <main+0x1caf>
    2b8e: 85 29        	sta	$29                     ; 0x2029 <main+0x1cc0>
    2b90: 69 00        	adc	#$0
    2b92: a4 1a        	ldy	$1a                     ; 0x201a <main+0x1cb1>
    2b94: 84 18        	sty	$18                     ; 0x2018 <main+0x1caf>
    2b96: 85 19        	sta	$19                     ; 0x2019 <main+0x1cb0>
    2b98: a4 28        	ldy	$28                     ; 0x2028 <main+0x1cbf>
    2b9a: 84 1a        	sty	$1a                     ; 0x201a <main+0x1cb1>
    2b9c: a4 29        	ldy	$29                     ; 0x2029 <main+0x1cc0>
    2b9e: 84 1b        	sty	$1b                     ; 0x201b <main+0x1cb2>
    2ba0: 8a           	txa
    2ba1: a0 02        	ldy	#$2
    2ba3: 91 1a        	sta	($1a),y                 ; 0x201a <main+0x1cb1>
    2ba5: a5 24        	lda	$24                     ; 0x2024 <main+0x1cbb>
    2ba7: 88           	dey
    2ba8: 91 18        	sta	($18),y                 ; 0x2018 <main+0x1caf>
    2baa: 18           	clc
    2bab: a5 2a        	lda	$2a                     ; 0x202a <main+0x1cc1>
    2bad: 69 02        	adc	#$2
    2baf: 85 18        	sta	$18                     ; 0x2018 <main+0x1caf>
    2bb1: a5 17        	lda	$17                     ; 0x2017 <main+0x1cae>
    2bb3: 69 00        	adc	#$0
    2bb5: 85 19        	sta	$19                     ; 0x2019 <main+0x1cb0>
    2bb7: c8           	iny
    2bb8: b1 16        	lda	($16),y                 ; 0x2016 <main+0x1cad>
    2bba: 85 1a        	sta	$1a                     ; 0x201a <main+0x1cb1>
    2bbc: 88           	dey
    2bbd: b1 18        	lda	($18),y                 ; 0x2018 <main+0x1caf>
    2bbf: aa           	tax
    2bc0: a5 1a        	lda	$1a                     ; 0x201a <main+0x1cb1>
    2bc2: 85 18        	sta	$18                     ; 0x2018 <main+0x1caf>
    2bc4: 86 19        	stx	$19                     ; 0x2019 <main+0x1cb0>
    2bc6: 18           	clc
    2bc7: 69 04        	adc	#$4
    2bc9: 85 1a        	sta	$1a                     ; 0x201a <main+0x1cb1>
    2bcb: 8a           	txa
    2bcc: 69 00        	adc	#$0
    2bce: 85 1b        	sta	$1b                     ; 0x201b <main+0x1cb2>
    2bd0: a0 04        	ldy	#$4
    2bd2: a5 28        	lda	$28                     ; 0x2028 <main+0x1cbf>
    2bd4: 91 18        	sta	($18),y                 ; 0x2018 <main+0x1caf>
    2bd6: a0 01        	ldy	#$1
    2bd8: a5 29        	lda	$29                     ; 0x2029 <main+0x1cc0>
    2bda: 91 1a        	sta	($1a),y                 ; 0x201a <main+0x1cb1>
    2bdc: a6 6a        	ldx	$6a                     ; 0x206a <main+0x1d01>
    2bde: e4 17        	cpx	$17                     ; 0x2017 <main+0x1cae>
    2be0: d0 10        	bne	$2bf2 <main+0x2889>
    2be2: a6 69        	ldx	$69                     ; 0x2069 <main+0x1d00>
    2be4: e4 16        	cpx	$16                     ; 0x2016 <main+0x1cad>
    2be6: d0 0a        	bne	$2bf2 <main+0x2889>
    2be8: a6 18        	ldx	$18                     ; 0x2018 <main+0x1caf>
    2bea: a4 19        	ldy	$19                     ; 0x2019 <main+0x1cb0>
    2bec: 86 69        	stx	$69                     ; 0x2069 <main+0x1d00>
    2bee: 84 6a        	sty	$6a                     ; 0x206a <main+0x1d01>
    2bf0: a0 01        	ldy	#$1
    2bf2: 18           	clc
    2bf3: a5 1f        	lda	$1f                     ; 0x201f <main+0x1cb6>
    2bf5: 65 15        	adc	$15                     ; 0x2015 <main+0x1cac>
    2bf7: 85 15        	sta	$15                     ; 0x2015 <main+0x1cac>
    2bf9: a5 1e        	lda	$1e                     ; 0x201e <main+0x1cb5>
    2bfb: 65 14        	adc	$14                     ; 0x2014 <main+0x1cab>
    2bfd: 18           	clc
    2bfe: aa           	tax
    2bff: 4c 81 2d     	jmp	$2d81 <main+0x2a18>
    2c02: 5a           	phy
    2c03: a0 44        	ldy	#$44
    2c05: b1 10        	lda	($10),y                 ; 0x2010 <main+0x1ca7>
    2c07: 7a           	ply
    2c08: aa           	tax
    2c09: c9 f8        	cmp	#$f8
    2c0b: f0 03        	beq	$2c10 <main+0x28a7>
    2c0d: 4c 62 2d     	jmp	$2d62 <main+0x29f9>
    2c10: a6 24        	ldx	$24                     ; 0x2024 <main+0x1cbb>
    2c12: e0 00        	cpx	#$0
    2c14: 4c 64 2d     	jmp	$2d64 <main+0x29fb>
    2c17: a6 16        	ldx	$16                     ; 0x2016 <main+0x1cad>
    2c19: 86 14        	stx	$14                     ; 0x2014 <main+0x1cab>
    2c1b: a6 17        	ldx	$17                     ; 0x2017 <main+0x1cae>
    2c1d: 86 15        	stx	$15                     ; 0x2015 <main+0x1cac>
    2c1f: 4c 7c 2c     	jmp	$2c7c <main+0x2913>
    2c22: 18           	clc
    2c23: 8a           	txa
    2c24: 65 14        	adc	$14                     ; 0x2014 <main+0x1cab>
    2c26: aa           	tax
    2c27: a5 19        	lda	$19                     ; 0x2019 <main+0x1cb0>
    2c29: 65 15        	adc	$15                     ; 0x2015 <main+0x1cac>
    2c2b: 48           	pha
    2c2c: 5a           	phy
    2c2d: a0 18        	ldy	#$18
    2c2f: b1 10        	lda	($10),y                 ; 0x2010 <main+0x1ca7>
    2c31: 7a           	ply
    2c32: 85 16        	sta	$16                     ; 0x2016 <main+0x1cad>
    2c34: 68           	pla
    2c35: 85 17        	sta	$17                     ; 0x2017 <main+0x1cae>
    2c37: c5 16        	cmp	$16                     ; 0x2016 <main+0x1cad>
    2c39: d0 03        	bne	$2c3e <main+0x28d5>
    2c3b: 4c e4 38     	jmp	$38e4 <main+0x357b>
    2c3e: 86 16        	stx	$16                     ; 0x2016 <main+0x1cad>
    2c40: b1 16        	lda	($16),y                 ; 0x2016 <main+0x1cad>
    2c42: 85 18        	sta	$18                     ; 0x2018 <main+0x1caf>
    2c44: a9 fe        	lda	#$fe
    2c46: 32 16        	and	($16)                   ; 0x2016 <main+0x1cad>
    2c48: 92 16        	sta	($16)                   ; 0x2016 <main+0x1cad>
    2c4a: a5 18        	lda	$18                     ; 0x2018 <main+0x1caf>
    2c4c: 91 16        	sta	($16),y                 ; 0x2016 <main+0x1cad>
    2c4e: a0 02        	ldy	#$2
    2c50: a5 24        	lda	$24                     ; 0x2024 <main+0x1cbb>
    2c52: 91 14        	sta	($14),y                 ; 0x2014 <main+0x1cab>
    2c54: a6 25        	ldx	$25                     ; 0x2025 <main+0x1cbc>
    2c56: 86 5c        	stx	$5c                     ; 0x205c <main+0x1cf3>
    2c58: a6 28        	ldx	$28                     ; 0x2028 <main+0x1cbf>
    2c5a: 86 5d        	stx	$5d                     ; 0x205d <main+0x1cf4>
    2c5c: 4c 47 1b     	jmp	$1b47 <main+0x17de>
    2c5f: c9 00        	cmp	#$0
    2c61: 8a           	txa
    2c62: b0 26        	bcs	$2c8a <main+0x2921>
    2c64: a5 14        	lda	$14                     ; 0x2014 <main+0x1cab>
    2c66: 18           	clc
    2c67: 69 02        	adc	#$2
    2c69: 85 12        	sta	$12                     ; 0x2012 <main+0x1ca9>
    2c6b: a5 15        	lda	$15                     ; 0x2015 <main+0x1cac>
    2c6d: 69 00        	adc	#$0
    2c6f: 85 13        	sta	$13                     ; 0x2013 <main+0x1caa>
    2c71: a0 02        	ldy	#$2
    2c73: b1 14        	lda	($14),y                 ; 0x2014 <main+0x1cab>
    2c75: 85 14        	sta	$14                     ; 0x2014 <main+0x1cab>
    2c77: 88           	dey
    2c78: b1 12        	lda	($12),y                 ; 0x2012 <main+0x1ca9>
    2c7a: 85 15        	sta	$15                     ; 0x2015 <main+0x1cac>
    2c7c: b2 14        	lda	($14)                   ; 0x2014 <main+0x1cab>
    2c7e: aa           	tax
    2c7f: b1 14        	lda	($14),y                 ; 0x2014 <main+0x1cab>
    2c81: 85 12        	sta	$12                     ; 0x2012 <main+0x1ca9>
    2c83: d0 da        	bne	$2c5f <main+0x28f6>
    2c85: 8a           	txa
    2c86: e0 08        	cpx	#$8
    2c88: 90 da        	bcc	$2c64 <main+0x28fb>
    2c8a: 29 fe        	and	#$fe
    2c8c: 85 13        	sta	$13                     ; 0x2013 <main+0x1caa>
    2c8e: a5 67        	lda	$67                     ; 0x2067 <main+0x1cfe>
    2c90: a6 68        	ldx	$68                     ; 0x2068 <main+0x1cff>
    2c92: 86 18        	stx	$18                     ; 0x2018 <main+0x1caf>
    2c94: 38           	sec
    2c95: e5 13        	sbc	$13                     ; 0x2013 <main+0x1caa>
    2c97: aa           	tax
    2c98: a5 18        	lda	$18                     ; 0x2018 <main+0x1caf>
    2c9a: e5 12        	sbc	$12                     ; 0x2012 <main+0x1ca9>
    2c9c: 85 12        	sta	$12                     ; 0x2012 <main+0x1ca9>
    2c9e: 18           	clc
    2c9f: 8a           	txa
    2ca0: 69 02        	adc	#$2
    2ca2: 85 13        	sta	$13                     ; 0x2013 <main+0x1caa>
    2ca4: a5 12        	lda	$12                     ; 0x2012 <main+0x1ca9>
    2ca6: 69 00        	adc	#$0
    2ca8: a6 13        	ldx	$13                     ; 0x2013 <main+0x1caa>
    2caa: 86 67        	stx	$67                     ; 0x2067 <main+0x1cfe>
    2cac: 85 68        	sta	$68                     ; 0x2068 <main+0x1cff>
    2cae: a5 14        	lda	$14                     ; 0x2014 <main+0x1cab>
    2cb0: 18           	clc
    2cb1: 69 02        	adc	#$2
    2cb3: a8           	tay
    2cb4: a5 15        	lda	$15                     ; 0x2015 <main+0x1cac>
    2cb6: 69 00        	adc	#$0
    2cb8: 84 25        	sty	$25                     ; 0x2025 <main+0x1cbc>
    2cba: 84 12        	sty	$12                     ; 0x2012 <main+0x1ca9>
    2cbc: 85 28        	sta	$28                     ; 0x2028 <main+0x1cbf>
    2cbe: 85 13        	sta	$13                     ; 0x2013 <main+0x1caa>
    2cc0: a0 02        	ldy	#$2
    2cc2: b1 14        	lda	($14),y                 ; 0x2014 <main+0x1cab>
    2cc4: aa           	tax
    2cc5: 88           	dey
    2cc6: b1 12        	lda	($12),y                 ; 0x2012 <main+0x1ca9>
    2cc8: 85 29        	sta	$29                     ; 0x2029 <main+0x1cc0>
    2cca: c5 15        	cmp	$15                     ; 0x2015 <main+0x1cac>
    2ccc: d0 03        	bne	$2cd1 <main+0x2968>
    2cce: 4c f8 38     	jmp	$38f8 <main+0x358f>
    2cd1: a4 14        	ldy	$14                     ; 0x2014 <main+0x1cab>
    2cd3: 18           	clc
    2cd4: a5 14        	lda	$14                     ; 0x2014 <main+0x1cab>
    2cd6: 84 2d        	sty	$2d                     ; 0x202d <main+0x1cc4>
    2cd8: 69 04        	adc	#$4
    2cda: 85 18        	sta	$18                     ; 0x2018 <main+0x1caf>
    2cdc: a5 15        	lda	$15                     ; 0x2015 <main+0x1cac>
    2cde: 69 00        	adc	#$0
    2ce0: 85 19        	sta	$19                     ; 0x2019 <main+0x1cb0>
    2ce2: a0 04        	ldy	#$4
    2ce4: b1 14        	lda	($14),y                 ; 0x2014 <main+0x1cab>
    2ce6: 85 2b        	sta	$2b                     ; 0x202b <main+0x1cc2>
    2ce8: 18           	clc
    2ce9: 69 02        	adc	#$2
    2ceb: 85 1a        	sta	$1a                     ; 0x201a <main+0x1cb1>
    2ced: a0 01        	ldy	#$1
    2cef: b1 18        	lda	($18),y                 ; 0x2018 <main+0x1caf>
    2cf1: 85 2c        	sta	$2c                     ; 0x202c <main+0x1cc3>
    2cf3: 69 00        	adc	#$0
    2cf5: a4 1a        	ldy	$1a                     ; 0x201a <main+0x1cb1>
    2cf7: 84 18        	sty	$18                     ; 0x2018 <main+0x1caf>
    2cf9: 85 19        	sta	$19                     ; 0x2019 <main+0x1cb0>
    2cfb: a4 2b        	ldy	$2b                     ; 0x202b <main+0x1cc2>
    2cfd: 84 1a        	sty	$1a                     ; 0x201a <main+0x1cb1>
    2cff: a4 2c        	ldy	$2c                     ; 0x202c <main+0x1cc3>
    2d01: 84 1b        	sty	$1b                     ; 0x201b <main+0x1cb2>
    2d03: 8a           	txa
    2d04: a0 02        	ldy	#$2
    2d06: 91 1a        	sta	($1a),y                 ; 0x201a <main+0x1cb1>
    2d08: a5 29        	lda	$29                     ; 0x2029 <main+0x1cc0>
    2d0a: 88           	dey
    2d0b: 91 18        	sta	($18),y                 ; 0x2018 <main+0x1caf>
    2d0d: 18           	clc
    2d0e: a5 2d        	lda	$2d                     ; 0x202d <main+0x1cc4>
    2d10: 69 02        	adc	#$2
    2d12: 85 18        	sta	$18                     ; 0x2018 <main+0x1caf>
    2d14: a5 15        	lda	$15                     ; 0x2015 <main+0x1cac>
    2d16: 69 00        	adc	#$0
    2d18: 85 19        	sta	$19                     ; 0x2019 <main+0x1cb0>
    2d1a: c8           	iny
    2d1b: b1 14        	lda	($14),y                 ; 0x2014 <main+0x1cab>
    2d1d: 85 1a        	sta	$1a                     ; 0x201a <main+0x1cb1>
    2d1f: 88           	dey
    2d20: b1 18        	lda	($18),y                 ; 0x2018 <main+0x1caf>
    2d22: aa           	tax
    2d23: a5 1a        	lda	$1a                     ; 0x201a <main+0x1cb1>
    2d25: 85 18        	sta	$18                     ; 0x2018 <main+0x1caf>
    2d27: 86 19        	stx	$19                     ; 0x2019 <main+0x1cb0>
    2d29: 18           	clc
    2d2a: 69 04        	adc	#$4
    2d2c: 85 1a        	sta	$1a                     ; 0x201a <main+0x1cb1>
    2d2e: 8a           	txa
    2d2f: 69 00        	adc	#$0
    2d31: 85 1b        	sta	$1b                     ; 0x201b <main+0x1cb2>
    2d33: a0 04        	ldy	#$4
    2d35: a5 2b        	lda	$2b                     ; 0x202b <main+0x1cc2>
    2d37: 91 18        	sta	($18),y                 ; 0x2018 <main+0x1caf>
    2d39: a0 01        	ldy	#$1
    2d3b: a5 2c        	lda	$2c                     ; 0x202c <main+0x1cc3>
    2d3d: 91 1a        	sta	($1a),y                 ; 0x201a <main+0x1cb1>
    2d3f: a6 17        	ldx	$17                     ; 0x2017 <main+0x1cae>
    2d41: e4 15        	cpx	$15                     ; 0x2015 <main+0x1cac>
    2d43: d0 03        	bne	$2d48 <main+0x29df>
    2d45: 4c 50 3b     	jmp	$3b50 <main+0x37e7>
    2d48: b1 14        	lda	($14),y                 ; 0x2014 <main+0x1cab>
    2d4a: 85 19        	sta	$19                     ; 0x2019 <main+0x1cb0>
    2d4c: a9 fe        	lda	#$fe
    2d4e: 32 14        	and	($14)                   ; 0x2014 <main+0x1cab>
    2d50: 18           	clc
    2d51: aa           	tax
    2d52: 69 f8        	adc	#$f8
    2d54: 85 18        	sta	$18                     ; 0x2018 <main+0x1caf>
    2d56: a5 19        	lda	$19                     ; 0x2019 <main+0x1cb0>
    2d58: 69 ff        	adc	#$ff
    2d5a: f0 03        	beq	$2d5f <main+0x29f6>
    2d5c: 4c 15 39     	jmp	$3915 <main+0x35ac>
    2d5f: 4c 0a 39     	jmp	$390a <main+0x35a1>
    2d62: e0 f8        	cpx	#$f8
    2d64: a2 00        	ldx	#$0
    2d66: 86 1c        	stx	$1c                     ; 0x201c <main+0x1cb3>
    2d68: a2 00        	ldx	#$0
    2d6a: 86 1d        	stx	$1d                     ; 0x201d <main+0x1cb4>
    2d6c: b0 03        	bcs	$2d71 <main+0x2a08>
    2d6e: 4c 97 28     	jmp	$2897 <main+0x252e>
    2d71: 4c b0 28     	jmp	$28b0 <main+0x2547>
    2d74: b2 16        	lda	($16)                   ; 0x2016 <main+0x1cad>
    2d76: 09 01        	ora	#$1
    2d78: 92 16        	sta	($16)                   ; 0x2016 <main+0x1cad>
    2d7a: a5 1e        	lda	$1e                     ; 0x201e <main+0x1cb5>
    2d7c: 91 16        	sta	($16),y                 ; 0x2016 <main+0x1cad>
    2d7e: a6 14        	ldx	$14                     ; 0x2014 <main+0x1cab>
    2d80: 18           	clc
    2d81: a9 01        	lda	#$1
    2d83: 32 12        	and	($12)                   ; 0x2012 <main+0x1ca9>
    2d85: 5a           	phy
    2d86: a4 15        	ldy	$15                     ; 0x2015 <main+0x1cac>
    2d88: 84 16        	sty	$16                     ; 0x2016 <main+0x1cad>
    2d8a: 7a           	ply
    2d8b: 05 15        	ora	$15                     ; 0x2015 <main+0x1cac>
    2d8d: 92 12        	sta	($12)                   ; 0x2012 <main+0x1ca9>
    2d8f: a5 12        	lda	$12                     ; 0x2012 <main+0x1ca9>
    2d91: 65 15        	adc	$15                     ; 0x2015 <main+0x1cac>
    2d93: 85 17        	sta	$17                     ; 0x2017 <main+0x1cae>
    2d95: 8a           	txa
    2d96: 65 13        	adc	$13                     ; 0x2013 <main+0x1caa>
    2d98: 85 15        	sta	$15                     ; 0x2015 <main+0x1cac>
    2d9a: 18           	clc
    2d9b: a5 17        	lda	$17                     ; 0x2017 <main+0x1cae>
    2d9d: 69 fe        	adc	#$fe
    2d9f: 85 14        	sta	$14                     ; 0x2014 <main+0x1cab>
    2da1: a5 15        	lda	$15                     ; 0x2015 <main+0x1cac>
    2da3: 69 ff        	adc	#$ff
    2da5: 85 15        	sta	$15                     ; 0x2015 <main+0x1cac>
    2da7: 8a           	txa
    2da8: 91 12        	sta	($12),y                 ; 0x2012 <main+0x1ca9>
    2daa: a5 16        	lda	$16                     ; 0x2016 <main+0x1cad>
    2dac: 92 14        	sta	($14)                   ; 0x2014 <main+0x1cab>
    2dae: 8a           	txa
    2daf: 91 14        	sta	($14),y                 ; 0x2014 <main+0x1cab>
    2db1: b1 12        	lda	($12),y                 ; 0x2012 <main+0x1ca9>
    2db3: 85 14        	sta	$14                     ; 0x2014 <main+0x1cab>
    2db5: a9 fe        	lda	#$fe
    2db7: 32 12        	and	($12)                   ; 0x2012 <main+0x1ca9>
    2db9: 18           	clc
    2dba: 65 67        	adc	$67                     ; 0x2067 <main+0x1cfe>
    2dbc: aa           	tax
    2dbd: a5 14        	lda	$14                     ; 0x2014 <main+0x1cab>
    2dbf: 65 68        	adc	$68                     ; 0x2068 <main+0x1cff>
    2dc1: 85 14        	sta	$14                     ; 0x2014 <main+0x1cab>
    2dc3: 18           	clc
    2dc4: 8a           	txa
    2dc5: 69 fe        	adc	#$fe
    2dc7: 85 15        	sta	$15                     ; 0x2015 <main+0x1cac>
    2dc9: a5 14        	lda	$14                     ; 0x2014 <main+0x1cab>
    2dcb: 69 ff        	adc	#$ff
    2dcd: a6 15        	ldx	$15                     ; 0x2015 <main+0x1cac>
    2dcf: 86 67        	stx	$67                     ; 0x2067 <main+0x1cfe>
    2dd1: 85 68        	sta	$68                     ; 0x2068 <main+0x1cff>
    2dd3: a6 69        	ldx	$69                     ; 0x2069 <main+0x1d00>
    2dd5: 86 14        	stx	$14                     ; 0x2014 <main+0x1cab>
    2dd7: a4 6a        	ldy	$6a                     ; 0x206a <main+0x1d01>
    2dd9: c4 1d        	cpy	$1d                     ; 0x201d <main+0x1cb4>
    2ddb: d0 3a        	bne	$2e17 <main+0x2aae>
    2ddd: e4 1c        	cpx	$1c                     ; 0x201c <main+0x1cb3>
    2ddf: d0 36        	bne	$2e17 <main+0x2aae>
    2de1: 18           	clc
    2de2: a5 12        	lda	$12                     ; 0x2012 <main+0x1ca9>
    2de4: 69 04        	adc	#$4
    2de6: 85 14        	sta	$14                     ; 0x2014 <main+0x1cab>
    2de8: a5 13        	lda	$13                     ; 0x2013 <main+0x1caa>
    2dea: 69 00        	adc	#$0
    2dec: 85 15        	sta	$15                     ; 0x2015 <main+0x1cac>
    2dee: 18           	clc
    2def: a5 12        	lda	$12                     ; 0x2012 <main+0x1ca9>
    2df1: 69 02        	adc	#$2
    2df3: 85 16        	sta	$16                     ; 0x2016 <main+0x1cad>
    2df5: a5 13        	lda	$13                     ; 0x2013 <main+0x1caa>
    2df7: 69 00        	adc	#$0
    2df9: 85 17        	sta	$17                     ; 0x2017 <main+0x1cae>
    2dfb: a0 04        	ldy	#$4
    2dfd: a5 12        	lda	$12                     ; 0x2012 <main+0x1ca9>
    2dff: 91 12        	sta	($12),y                 ; 0x2012 <main+0x1ca9>
    2e01: a0 02        	ldy	#$2
    2e03: 91 12        	sta	($12),y                 ; 0x2012 <main+0x1ca9>
    2e05: 88           	dey
    2e06: a5 13        	lda	$13                     ; 0x2013 <main+0x1caa>
    2e08: 91 14        	sta	($14),y                 ; 0x2014 <main+0x1cab>
    2e0a: 91 16        	sta	($16),y                 ; 0x2016 <main+0x1cad>
    2e0c: a6 12        	ldx	$12                     ; 0x2012 <main+0x1ca9>
    2e0e: 86 69        	stx	$69                     ; 0x2069 <main+0x1d00>
    2e10: a6 13        	ldx	$13                     ; 0x2013 <main+0x1caa>
    2e12: 86 6a        	stx	$6a                     ; 0x206a <main+0x1d01>
    2e14: 4c bf 2e     	jmp	$2ebf <main+0x2b56>
    2e17: a6 12        	ldx	$12                     ; 0x2012 <main+0x1ca9>
    2e19: a5 13        	lda	$13                     ; 0x2013 <main+0x1caa>
    2e1b: 85 1a        	sta	$1a                     ; 0x201a <main+0x1cb1>
    2e1d: 18           	clc
    2e1e: a5 12        	lda	$12                     ; 0x2012 <main+0x1ca9>
    2e20: 69 02        	adc	#$2
    2e22: 85 15        	sta	$15                     ; 0x2015 <main+0x1cac>
    2e24: a5 13        	lda	$13                     ; 0x2013 <main+0x1caa>
    2e26: 69 00        	adc	#$0
    2e28: 85 19        	sta	$19                     ; 0x2019 <main+0x1cb0>
    2e2a: 84 18        	sty	$18                     ; 0x2018 <main+0x1caf>
    2e2c: a5 14        	lda	$14                     ; 0x2014 <main+0x1cab>
    2e2e: 85 16        	sta	$16                     ; 0x2016 <main+0x1cad>
    2e30: 84 17        	sty	$17                     ; 0x2017 <main+0x1cae>
    2e32: a4 15        	ldy	$15                     ; 0x2015 <main+0x1cac>
    2e34: 84 14        	sty	$14                     ; 0x2014 <main+0x1cab>
    2e36: a4 19        	ldy	$19                     ; 0x2019 <main+0x1cb0>
    2e38: 84 15        	sty	$15                     ; 0x2015 <main+0x1cac>
    2e3a: a0 02        	ldy	#$2
    2e3c: 91 12        	sta	($12),y                 ; 0x2012 <main+0x1ca9>
    2e3e: 85 19        	sta	$19                     ; 0x2019 <main+0x1cb0>
    2e40: a5 18        	lda	$18                     ; 0x2018 <main+0x1caf>
    2e42: 88           	dey
    2e43: 91 14        	sta	($14),y                 ; 0x2014 <main+0x1cab>
    2e45: 18           	clc
    2e46: a5 19        	lda	$19                     ; 0x2019 <main+0x1cb0>
    2e48: 69 04        	adc	#$4
    2e4a: a8           	tay
    2e4b: a5 18        	lda	$18                     ; 0x2018 <main+0x1caf>
    2e4d: 69 00        	adc	#$0
    2e4f: 84 18        	sty	$18                     ; 0x2018 <main+0x1caf>
    2e51: 85 19        	sta	$19                     ; 0x2019 <main+0x1cb0>
    2e53: a0 04        	ldy	#$4
    2e55: b1 16        	lda	($16),y                 ; 0x2016 <main+0x1cad>
    2e57: 85 1b        	sta	$1b                     ; 0x201b <main+0x1cb2>
    2e59: 18           	clc
    2e5a: a5 12        	lda	$12                     ; 0x2012 <main+0x1ca9>
    2e5c: 69 04        	adc	#$4
    2e5e: 85 1e        	sta	$1e                     ; 0x201e <main+0x1cb5>
    2e60: a5 13        	lda	$13                     ; 0x2013 <main+0x1caa>
    2e62: 69 00        	adc	#$0
    2e64: 85 1d        	sta	$1d                     ; 0x201d <main+0x1cb4>
    2e66: a0 01        	ldy	#$1
    2e68: b1 18        	lda	($18),y                 ; 0x2018 <main+0x1caf>
    2e6a: a4 1b        	ldy	$1b                     ; 0x201b <main+0x1cb2>
    2e6c: 84 16        	sty	$16                     ; 0x2016 <main+0x1cad>
    2e6e: 85 17        	sta	$17                     ; 0x2017 <main+0x1cae>
    2e70: 85 1c        	sta	$1c                     ; 0x201c <main+0x1cb3>
    2e72: a4 1e        	ldy	$1e                     ; 0x201e <main+0x1cb5>
    2e74: 84 18        	sty	$18                     ; 0x2018 <main+0x1caf>
    2e76: a4 1d        	ldy	$1d                     ; 0x201d <main+0x1cb4>
    2e78: 84 19        	sty	$19                     ; 0x2019 <main+0x1cb0>
    2e7a: a0 04        	ldy	#$4
    2e7c: a5 1b        	lda	$1b                     ; 0x201b <main+0x1cb2>
    2e7e: 91 12        	sta	($12),y                 ; 0x2012 <main+0x1ca9>
    2e80: a5 1c        	lda	$1c                     ; 0x201c <main+0x1cb3>
    2e82: a0 01        	ldy	#$1
    2e84: 91 18        	sta	($18),y                 ; 0x2018 <main+0x1caf>
    2e86: 18           	clc
    2e87: a5 1b        	lda	$1b                     ; 0x201b <main+0x1cb2>
    2e89: 69 02        	adc	#$2
    2e8b: 85 18        	sta	$18                     ; 0x2018 <main+0x1caf>
    2e8d: a5 1c        	lda	$1c                     ; 0x201c <main+0x1cb3>
    2e8f: 69 00        	adc	#$0
    2e91: 85 19        	sta	$19                     ; 0x2019 <main+0x1cb0>
    2e93: a5 12        	lda	$12                     ; 0x2012 <main+0x1ca9>
    2e95: c8           	iny
    2e96: 91 16        	sta	($16),y                 ; 0x2016 <main+0x1cad>
    2e98: a5 13        	lda	$13                     ; 0x2013 <main+0x1caa>
    2e9a: 88           	dey
    2e9b: 91 18        	sta	($18),y                 ; 0x2018 <main+0x1caf>
    2e9d: c8           	iny
    2e9e: b1 12        	lda	($12),y                 ; 0x2012 <main+0x1ca9>
    2ea0: 85 12        	sta	$12                     ; 0x2012 <main+0x1ca9>
    2ea2: 88           	dey
    2ea3: b1 14        	lda	($14),y                 ; 0x2014 <main+0x1cab>
    2ea5: a8           	tay
    2ea6: a5 12        	lda	$12                     ; 0x2012 <main+0x1ca9>
    2ea8: 84 13        	sty	$13                     ; 0x2013 <main+0x1caa>
    2eaa: 18           	clc
    2eab: 69 04        	adc	#$4
    2ead: 85 14        	sta	$14                     ; 0x2014 <main+0x1cab>
    2eaf: 98           	tya
    2eb0: 69 00        	adc	#$0
    2eb2: 85 15        	sta	$15                     ; 0x2015 <main+0x1cac>
    2eb4: 8a           	txa
    2eb5: a0 04        	ldy	#$4
    2eb7: 91 12        	sta	($12),y                 ; 0x2012 <main+0x1ca9>
    2eb9: a0 01        	ldy	#$1
    2ebb: a5 1a        	lda	$1a                     ; 0x201a <main+0x1cb1>
    2ebd: 91 14        	sta	($14),y                 ; 0x2014 <main+0x1cab>
    2ebf: 64 5f        	stz	$5f                     ; 0x205f <main+0x1cf6>
    2ec1: 20 00 ff     	jsr	$ff00 <__heap_start+0x6c30>
    2ec4: 92 26        	sta	($26)                   ; 0x2026 <main+0x1cbd>
    2ec6: a9 00        	lda	#$0
    2ec8: 6a           	ror
    2ec9: 85 22        	sta	$22                     ; 0x2022 <main+0x1cb9>
    2ecb: a6 5f        	ldx	$5f                     ; 0x205f <main+0x1cf6>
    2ecd: e0 32        	cpx	#$32
    2ecf: f0 1e        	beq	$2eef <main+0x2b86>
    2ed1: e0 38        	cpx	#$38
    2ed3: d0 ea        	bne	$2ebf <main+0x2b56>
    2ed5: 80 18        	bra	$2eef <main+0x2b86>
    2ed7: a0 0a        	ldy	#$a
    2ed9: b1 26        	lda	($26),y                 ; 0x2026 <main+0x1cbd>
    2edb: aa           	tax
    2edc: b1 26        	lda	($26),y                 ; 0x2026 <main+0x1cbd>
    2ede: 8d a4 80     	sta	$80a4                   ; 0x80a4 <fpr+0xc>
    2ee1: 8a           	txa
    2ee2: f0 03        	beq	$2ee7 <main+0x2b7e>
    2ee4: 4c e0 39     	jmp	$39e0 <main+0x3677>
    2ee7: 4c 9c 3d     	jmp	$3d9c <main+0x3a33>
    2eea: a2 17        	ldx	#$17
    2eec: 4c bc 13     	jmp	$13bc <main+0x1053>
    2eef: 38           	sec
    2ef0: a9 01        	lda	#$1
    2ef2: a0 20        	ldy	#$20
    2ef4: 91 10        	sta	($10),y                 ; 0x2010 <main+0x1ca7>
    2ef6: 18           	clc
    2ef7: 3a           	dec
    2ef8: a0 4e        	ldy	#$4e
    2efa: 91 10        	sta	($10),y                 ; 0x2010 <main+0x1ca7>
    2efc: 64 13        	stz	$13                     ; 0x2013 <main+0x1caa>
    2efe: a2 05        	ldx	#$5
    2f00: 86 12        	stx	$12                     ; 0x2012 <main+0x1ca9>
    2f02: a2 3b        	ldx	#$3b
    2f04: 86 14        	stx	$14                     ; 0x2014 <main+0x1cab>
    2f06: a2 12        	ldx	#$12
    2f08: 86 15        	stx	$15                     ; 0x2015 <main+0x1cac>
    2f0a: a2 60        	ldx	#$60
    2f0c: a9 00        	lda	#$0
    2f0e: 20 6e 69     	jsr	$696e <initVS1053Plugin>
    2f11: a2 05        	ldx	#$5
    2f13: 86 12        	stx	$12                     ; 0x2012 <main+0x1ca9>
    2f15: 64 13        	stz	$13                     ; 0x2013 <main+0x1caa>
    2f17: a2 e8        	ldx	#$e8
    2f19: 86 14        	stx	$14                     ; 0x2014 <main+0x1cab>
    2f1b: a2 03        	ldx	#$3
    2f1d: 86 15        	stx	$15                     ; 0x2015 <main+0x1cac>
    2f1f: a2 90        	ldx	#$90
    2f21: a9 00        	lda	#$0
    2f23: 20 6e 69     	jsr	$696e <initVS1053Plugin>
    2f26: a0 39        	ldy	#$39
    2f28: b1 10        	lda	($10),y                 ; 0x2010 <main+0x1ca7>
    2f2a: 29 01        	and	#$1
    2f2c: 64 01        	stz	$1                      ; 0x2001 <main+0x1c98>
    2f2e: 85 19        	sta	$19                     ; 0x2019 <main+0x1cb0>
    2f30: 4a           	lsr
    2f31: 64 12        	stz	$12                     ; 0x2012 <main+0x1ca9>
    2f33: 66 12        	ror	$12                     ; 0x2012 <main+0x1ca9>
    2f35: a2 ff        	ldx	#$ff
    2f37: a5 12        	lda	$12                     ; 0x2012 <main+0x1ca9>
    2f39: 30 02        	bmi	$2f3d <main+0x2bd4>
    2f3b: a2 00        	ldx	#$0
    2f3d: 86 14        	stx	$14                     ; 0x2014 <main+0x1cab>
    2f3f: 06 12        	asl	$12                     ; 0x2012 <main+0x1ca9>
    2f41: a2 01        	ldx	#$1
    2f43: b0 02        	bcs	$2f47 <main+0x2bde>
    2f45: a2 00        	ldx	#$0
    2f47: 86 1a        	stx	$1a                     ; 0x201a <main+0x1cb1>
    2f49: a5 19        	lda	$19                     ; 0x2019 <main+0x1cb0>
    2f4b: 49 01        	eor	#$1
    2f4d: 4a           	lsr
    2f4e: 64 12        	stz	$12                     ; 0x2012 <main+0x1ca9>
    2f50: 66 12        	ror	$12                     ; 0x2012 <main+0x1ca9>
    2f52: a2 ff        	ldx	#$ff
    2f54: a5 12        	lda	$12                     ; 0x2012 <main+0x1ca9>
    2f56: 30 02        	bmi	$2f5a <main+0x2bf1>
    2f58: a2 00        	ldx	#$0
    2f5a: 86 13        	stx	$13                     ; 0x2013 <main+0x1caa>
    2f5c: a5 19        	lda	$19                     ; 0x2019 <main+0x1cb0>
    2f5e: 29 01        	and	#$1
    2f60: 06 12        	asl	$12                     ; 0x2012 <main+0x1ca9>
    2f62: a2 01        	ldx	#$1
    2f64: b0 02        	bcs	$2f68 <main+0x2bff>
    2f66: a2 00        	ldx	#$0
    2f68: 86 1b        	stx	$1b                     ; 0x201b <main+0x1cb2>
    2f6a: a0 20        	ldy	#$20
    2f6c: aa           	tax
    2f6d: d0 02        	bne	$2f71 <main+0x2c08>
    2f6f: a0 ff        	ldy	#$ff
    2f71: a6 19        	ldx	$19                     ; 0x2019 <main+0x1cb0>
    2f73: 86 15        	stx	$15                     ; 0x2015 <main+0x1cac>
    2f75: a5 19        	lda	$19                     ; 0x2019 <main+0x1cb0>
    2f77: 0a           	asl
    2f78: a2 40        	ldx	#$40
    2f7a: e6 19        	inc	$19                     ; 0x2019 <main+0x1cb0>
    2f7c: c6 19        	dec	$19                     ; 0x2019 <main+0x1cb0>
    2f7e: d0 02        	bne	$2f82 <main+0x2c19>
    2f80: a2 ff        	ldx	#$ff
    2f82: 48           	pha
    2f83: 8a           	txa
    2f84: 5a           	phy
    2f85: a0 3b        	ldy	#$3b
    2f87: 91 10        	sta	($10),y                 ; 0x2010 <main+0x1ca7>
    2f89: 7a           	ply
    2f8a: 68           	pla
    2f8b: 0a           	asl
    2f8c: 0a           	asl
    2f8d: 0a           	asl
    2f8e: 0a           	asl
    2f8f: 85 12        	sta	$12                     ; 0x2012 <main+0x1ca9>
    2f91: 06 12        	asl	$12                     ; 0x2012 <main+0x1ca9>
    2f93: a6 12        	ldx	$12                     ; 0x2012 <main+0x1ca9>
    2f95: 86 18        	stx	$18                     ; 0x2018 <main+0x1caf>
    2f97: aa           	tax
    2f98: a5 15        	lda	$15                     ; 0x2015 <main+0x1cac>
    2f9a: f0 13        	beq	$2faf <main+0x2c46>
    2f9c: a9 80        	lda	#$80
    2f9e: 5a           	phy
    2f9f: a0 1d        	ldy	#$1d
    2fa1: 91 10        	sta	($10),y                 ; 0x2010 <main+0x1ca7>
    2fa3: a9 60        	lda	#$60
    2fa5: 88           	dey
    2fa6: 91 10        	sta	($10),y                 ; 0x2010 <main+0x1ca7>
    2fa8: 64 12        	stz	$12                     ; 0x2012 <main+0x1ca9>
    2faa: a9 00        	lda	#$0
    2fac: 88           	dey
    2fad: 80 0d        	bra	$2fbc <main+0x2c53>
    2faf: a9 60        	lda	#$60
    2fb1: 5a           	phy
    2fb2: a0 1b        	ldy	#$1b
    2fb4: 91 10        	sta	($10),y                 ; 0x2010 <main+0x1ca7>
    2fb6: a9 ff        	lda	#$ff
    2fb8: c8           	iny
    2fb9: 91 10        	sta	($10),y                 ; 0x2010 <main+0x1ca7>
    2fbb: c8           	iny
    2fbc: 91 10        	sta	($10),y                 ; 0x2010 <main+0x1ca7>
    2fbe: 7a           	ply
    2fbf: a5 1a        	lda	$1a                     ; 0x201a <main+0x1cb1>
    2fc1: c9 01        	cmp	#$1
    2fc3: 26 14        	rol	$14                     ; 0x2014 <main+0x1cab>
    2fc5: 5a           	phy
    2fc6: a5 14        	lda	$14                     ; 0x2014 <main+0x1cab>
    2fc8: a0 1e        	ldy	#$1e
    2fca: 91 10        	sta	($10),y                 ; 0x2010 <main+0x1ca7>
    2fcc: a4 1b        	ldy	$1b                     ; 0x201b <main+0x1cb2>
    2fce: c0 01        	cpy	#$1
    2fd0: 26 13        	rol	$13                     ; 0x2013 <main+0x1caa>
    2fd2: a5 13        	lda	$13                     ; 0x2013 <main+0x1caa>
    2fd4: a0 1f        	ldy	#$1f
    2fd6: 91 10        	sta	($10),y                 ; 0x2010 <main+0x1ca7>
    2fd8: a0 39        	ldy	#$39
    2fda: b1 10        	lda	($10),y                 ; 0x2010 <main+0x1ca7>
    2fdc: 49 ff        	eor	#$ff
    2fde: 4a           	lsr
    2fdf: a9 00        	lda	#$0
    2fe1: 6a           	ror
    2fe2: a0 1a        	ldy	#$1a
    2fe4: 91 10        	sta	($10),y                 ; 0x2010 <main+0x1ca7>
    2fe6: 8a           	txa
    2fe7: 49 20        	eor	#$20
    2fe9: 85 16        	sta	$16                     ; 0x2016 <main+0x1cad>
    2feb: a5 18        	lda	$18                     ; 0x2018 <main+0x1caf>
    2fed: 49 40        	eor	#$40
    2fef: a0 34        	ldy	#$34
    2ff1: 91 10        	sta	($10),y                 ; 0x2010 <main+0x1ca7>
    2ff3: 7a           	ply
    2ff4: a5 19        	lda	$19                     ; 0x2019 <main+0x1cb0>
    2ff6: d0 03        	bne	$2ffb <main+0x2c92>
    2ff8: 4c 74 30     	jmp	$3074 <main+0x2d0b>
    2ffb: a2 ff        	ldx	#$ff
    2ffd: 5a           	phy
    2ffe: 8a           	txa
    2fff: a0 33        	ldy	#$33
    3001: 91 10        	sta	($10),y                 ; 0x2010 <main+0x1ca7>
    3003: a2 1f        	ldx	#$1f
    3005: 8a           	txa
    3006: a0 31        	ldy	#$31
    3008: 91 10        	sta	($10),y                 ; 0x2010 <main+0x1ca7>
    300a: a2 5f        	ldx	#$5f
    300c: 8a           	txa
    300d: a0 2e        	ldy	#$2e
    300f: 91 10        	sta	($10),y                 ; 0x2010 <main+0x1ca7>
    3011: a2 7f        	ldx	#$7f
    3013: 8a           	txa
    3014: a0 2b        	ldy	#$2b
    3016: 91 10        	sta	($10),y                 ; 0x2010 <main+0x1ca7>
    3018: a2 9f        	ldx	#$9f
    301a: 8a           	txa
    301b: a0 29        	ldy	#$29
    301d: 91 10        	sta	($10),y                 ; 0x2010 <main+0x1ca7>
    301f: a2 bf        	ldx	#$bf
    3021: 8a           	txa
    3022: 88           	dey
    3023: 91 10        	sta	($10),y                 ; 0x2010 <main+0x1ca7>
    3025: a2 df        	ldx	#$df
    3027: 8a           	txa
    3028: a0 2d        	ldy	#$2d
    302a: 91 10        	sta	($10),y                 ; 0x2010 <main+0x1ca7>
    302c: a2 c0        	ldx	#$c0
    302e: 8a           	txa
    302f: a0 22        	ldy	#$22
    3031: 91 10        	sta	($10),y                 ; 0x2010 <main+0x1ca7>
    3033: a2 a0        	ldx	#$a0
    3035: 8a           	txa
    3036: a0 24        	ldy	#$24
    3038: 91 10        	sta	($10),y                 ; 0x2010 <main+0x1ca7>
    303a: a2 e0        	ldx	#$e0
    303c: 8a           	txa
    303d: a0 21        	ldy	#$21
    303f: 91 10        	sta	($10),y                 ; 0x2010 <main+0x1ca7>
    3041: a2 3f        	ldx	#$3f
    3043: 8a           	txa
    3044: a0 26        	ldy	#$26
    3046: 91 10        	sta	($10),y                 ; 0x2010 <main+0x1ca7>
    3048: 64 12        	stz	$12                     ; 0x2012 <main+0x1ca9>
    304a: a9 00        	lda	#$0
    304c: 88           	dey
    304d: 91 10        	sta	($10),y                 ; 0x2010 <main+0x1ca7>
    304f: a0 23        	ldy	#$23
    3051: 91 10        	sta	($10),y                 ; 0x2010 <main+0x1ca7>
    3053: a2 ff        	ldx	#$ff
    3055: 8a           	txa
    3056: a0 2a        	ldy	#$2a
    3058: 91 10        	sta	($10),y                 ; 0x2010 <main+0x1ca7>
    305a: a0 2c        	ldy	#$2c
    305c: 91 10        	sta	($10),y                 ; 0x2010 <main+0x1ca7>
    305e: a0 2f        	ldy	#$2f
    3060: 91 10        	sta	($10),y                 ; 0x2010 <main+0x1ca7>
    3062: c8           	iny
    3063: 91 10        	sta	($10),y                 ; 0x2010 <main+0x1ca7>
    3065: a0 27        	ldy	#$27
    3067: 91 10        	sta	($10),y                 ; 0x2010 <main+0x1ca7>
    3069: a0 32        	ldy	#$32
    306b: 91 10        	sta	($10),y                 ; 0x2010 <main+0x1ca7>
    306d: a9 00        	lda	#$0
    306f: a0 38        	ldy	#$38
    3071: 4c e9 30     	jmp	$30e9 <main+0x2d80>
    3074: a2 1f        	ldx	#$1f
    3076: 5a           	phy
    3077: 8a           	txa
    3078: a0 32        	ldy	#$32
    307a: 91 10        	sta	($10),y                 ; 0x2010 <main+0x1ca7>
    307c: a2 5f        	ldx	#$5f
    307e: 8a           	txa
    307f: a0 30        	ldy	#$30
    3081: 91 10        	sta	($10),y                 ; 0x2010 <main+0x1ca7>
    3083: a2 7f        	ldx	#$7f
    3085: 8a           	txa
    3086: 88           	dey
    3087: 91 10        	sta	($10),y                 ; 0x2010 <main+0x1ca7>
    3089: a2 9f        	ldx	#$9f
    308b: 8a           	txa
    308c: a0 2c        	ldy	#$2c
    308e: 91 10        	sta	($10),y                 ; 0x2010 <main+0x1ca7>
    3090: a2 bf        	ldx	#$bf
    3092: 8a           	txa
    3093: a0 2a        	ldy	#$2a
    3095: 91 10        	sta	($10),y                 ; 0x2010 <main+0x1ca7>
    3097: a2 df        	ldx	#$df
    3099: 8a           	txa
    309a: a0 33        	ldy	#$33
    309c: 91 10        	sta	($10),y                 ; 0x2010 <main+0x1ca7>
    309e: a2 c0        	ldx	#$c0
    30a0: 8a           	txa
    30a1: a0 25        	ldy	#$25
    30a3: 91 10        	sta	($10),y                 ; 0x2010 <main+0x1ca7>
    30a5: a2 a0        	ldx	#$a0
    30a7: 8a           	txa
    30a8: a0 38        	ldy	#$38
    30aa: 91 10        	sta	($10),y                 ; 0x2010 <main+0x1ca7>
    30ac: a2 e0        	ldx	#$e0
    30ae: 8a           	txa
    30af: a0 23        	ldy	#$23
    30b1: 91 10        	sta	($10),y                 ; 0x2010 <main+0x1ca7>
    30b3: a2 ff        	ldx	#$ff
    30b5: 8a           	txa
    30b6: c8           	iny
    30b7: 91 10        	sta	($10),y                 ; 0x2010 <main+0x1ca7>
    30b9: a2 3f        	ldx	#$3f
    30bb: 8a           	txa
    30bc: a0 27        	ldy	#$27
    30be: 91 10        	sta	($10),y                 ; 0x2010 <main+0x1ca7>
    30c0: 64 12        	stz	$12                     ; 0x2012 <main+0x1ca9>
    30c2: a9 00        	lda	#$0
    30c4: a0 2d        	ldy	#$2d
    30c6: 91 10        	sta	($10),y                 ; 0x2010 <main+0x1ca7>
    30c8: a2 ff        	ldx	#$ff
    30ca: 8a           	txa
    30cb: a0 22        	ldy	#$22
    30cd: 91 10        	sta	($10),y                 ; 0x2010 <main+0x1ca7>
    30cf: 88           	dey
    30d0: 91 10        	sta	($10),y                 ; 0x2010 <main+0x1ca7>
    30d2: a9 00        	lda	#$0
    30d4: a0 28        	ldy	#$28
    30d6: 91 10        	sta	($10),y                 ; 0x2010 <main+0x1ca7>
    30d8: c8           	iny
    30d9: 91 10        	sta	($10),y                 ; 0x2010 <main+0x1ca7>
    30db: a0 2b        	ldy	#$2b
    30dd: 91 10        	sta	($10),y                 ; 0x2010 <main+0x1ca7>
    30df: a0 2e        	ldy	#$2e
    30e1: 91 10        	sta	($10),y                 ; 0x2010 <main+0x1ca7>
    30e3: a0 26        	ldy	#$26
    30e5: 91 10        	sta	($10),y                 ; 0x2010 <main+0x1ca7>
    30e7: a0 31        	ldy	#$31
    30e9: 91 10        	sta	($10),y                 ; 0x2010 <main+0x1ca7>
    30eb: a0 1d        	ldy	#$1d
    30ed: b1 10        	lda	($10),y                 ; 0x2010 <main+0x1ca7>
    30ef: 7a           	ply
    30f0: 85 14        	sta	$14                     ; 0x2014 <main+0x1cab>
    30f2: 84 21        	sty	$21                     ; 0x2021 <main+0x1cb8>
    30f4: a0 1e        	ldy	#$1e
    30f6: b1 10        	lda	($10),y                 ; 0x2010 <main+0x1ca7>
    30f8: 8d 00 d8     	sta	$d800                   ; 0xd800 <__heap_start+0x4530>
    30fb: 48           	pha
    30fc: c8           	iny
    30fd: b1 10        	lda	($10),y                 ; 0x2010 <main+0x1ca7>
    30ff: a4 21        	ldy	$21                     ; 0x2021 <main+0x1cb8>
    3101: aa           	tax
    3102: 68           	pla
    3103: 8e 01 d8     	stx	$d801                   ; 0xd801 <__heap_start+0x4531>
    3106: 86 15        	stx	$15                     ; 0x2015 <main+0x1cac>
    3108: 9c 02 d8     	stz	$d802                   ; 0xd802 <__heap_start+0x4532>
    310b: 8d 04 d8     	sta	$d804                   ; 0xd804 <__heap_start+0x4534>
    310e: 5a           	phy
    310f: fa           	plx
    3110: 8c 05 d8     	sty	$d805                   ; 0xd805 <__heap_start+0x4535>
    3113: a4 16        	ldy	$16                     ; 0x2016 <main+0x1cad>
    3115: 8c 06 d8     	sty	$d806                   ; 0xd806 <__heap_start+0x4536>
    3118: 84 2b        	sty	$2b                     ; 0x202b <main+0x1cc2>
    311a: 8d 08 d8     	sta	$d808                   ; 0xd808 <__heap_start+0x4538>
    311d: 48           	pha
    311e: a0 3b        	ldy	#$3b
    3120: b1 10        	lda	($10),y                 ; 0x2010 <main+0x1ca7>
    3122: 8d 09 d8     	sta	$d809                   ; 0xd809 <__heap_start+0x4539>
    3125: a0 34        	ldy	#$34
    3127: b1 10        	lda	($10),y                 ; 0x2010 <main+0x1ca7>
    3129: a8           	tay
    312a: 68           	pla
    312b: 8c 0a d8     	sty	$d80a                   ; 0xd80a <__heap_start+0x453a>
    312e: 8d 0c d8     	sta	$d80c                   ; 0xd80c <__heap_start+0x453c>
    3131: 48           	pha
    3132: a0 1c        	ldy	#$1c
    3134: b1 10        	lda	($10),y                 ; 0x2010 <main+0x1ca7>
    3136: 85 2c        	sta	$2c                     ; 0x202c <main+0x1cc3>
    3138: 8d 0d d8     	sta	$d80d                   ; 0xd80d <__heap_start+0x453d>
    313b: 88           	dey
    313c: b1 10        	lda	($10),y                 ; 0x2010 <main+0x1ca7>
    313e: a8           	tay
    313f: 68           	pla
    3140: 84 2d        	sty	$2d                     ; 0x202d <main+0x1cc4>
    3142: 8c 0e d8     	sty	$d80e                   ; 0xd80e <__heap_start+0x453e>
    3145: 8d 10 d8     	sta	$d810                   ; 0xd810 <__heap_start+0x4540>
    3148: a4 14        	ldy	$14                     ; 0x2014 <main+0x1cab>
    314a: 8c 11 d8     	sty	$d811                   ; 0xd811 <__heap_start+0x4541>
    314d: 84 2f        	sty	$2f                     ; 0x202f <main+0x1cc6>
    314f: 48           	pha
    3150: a0 1a        	ldy	#$1a
    3152: b1 10        	lda	($10),y                 ; 0x2010 <main+0x1ca7>
    3154: a8           	tay
    3155: 68           	pla
    3156: 84 2e        	sty	$2e                     ; 0x202e <main+0x1cc5>
    3158: 8c 12 d8     	sty	$d812                   ; 0xd812 <__heap_start+0x4542>
    315b: 8d 14 d8     	sta	$d814                   ; 0xd814 <__heap_start+0x4544>
    315e: 48           	pha
    315f: a0 24        	ldy	#$24
    3161: b1 10        	lda	($10),y                 ; 0x2010 <main+0x1ca7>
    3163: 8d 15 d8     	sta	$d815                   ; 0xd815 <__heap_start+0x4545>
    3166: a0 38        	ldy	#$38
    3168: b1 10        	lda	($10),y                 ; 0x2010 <main+0x1ca7>
    316a: a8           	tay
    316b: 68           	pla
    316c: 8c 16 d8     	sty	$d816                   ; 0xd816 <__heap_start+0x4546>
    316f: 8d 18 d8     	sta	$d818                   ; 0xd818 <__heap_start+0x4548>
    3172: 48           	pha
    3173: a0 22        	ldy	#$22
    3175: b1 10        	lda	($10),y                 ; 0x2010 <main+0x1ca7>
    3177: 8d 19 d8     	sta	$d819                   ; 0xd819 <__heap_start+0x4549>
    317a: 86 2a        	stx	$2a                     ; 0x202a <main+0x1cc1>
    317c: a0 25        	ldy	#$25
    317e: b1 10        	lda	($10),y                 ; 0x2010 <main+0x1ca7>
    3180: a8           	tay
    3181: 68           	pla
    3182: 8c 1a d8     	sty	$d81a                   ; 0xd81a <__heap_start+0x454a>
    3185: 8d 1c d8     	sta	$d81c                   ; 0xd81c <__heap_start+0x454c>
    3188: 48           	pha
    3189: a0 21        	ldy	#$21
    318b: b1 10        	lda	($10),y                 ; 0x2010 <main+0x1ca7>
    318d: 8d 1d d8     	sta	$d81d                   ; 0xd81d <__heap_start+0x454d>
    3190: a0 23        	ldy	#$23
    3192: b1 10        	lda	($10),y                 ; 0x2010 <main+0x1ca7>
    3194: aa           	tax
    3195: 68           	pla
    3196: 8e 1e d8     	stx	$d81e                   ; 0xd81e <__heap_start+0x454e>
    3199: 85 29        	sta	$29                     ; 0x2029 <main+0x1cc0>
    319b: 8d 20 d8     	sta	$d820                   ; 0xd820 <__heap_start+0x4550>
    319e: a2 ff        	ldx	#$ff
    31a0: 8e 21 d8     	stx	$d821                   ; 0xd821 <__heap_start+0x4551>
    31a3: a4 15        	ldy	$15                     ; 0x2015 <main+0x1cac>
    31a5: 8c 22 d8     	sty	$d822                   ; 0xd822 <__heap_start+0x4552>
    31a8: 5a           	phy
    31a9: a0 2d        	ldy	#$2d
    31ab: b1 10        	lda	($10),y                 ; 0x2010 <main+0x1ca7>
    31ad: 8d 24 d8     	sta	$d824                   ; 0xd824 <__heap_start+0x4554>
    31b0: a0 33        	ldy	#$33
    31b2: b1 10        	lda	($10),y                 ; 0x2010 <main+0x1ca7>
    31b4: 7a           	ply
    31b5: 8d 25 d8     	sta	$d825                   ; 0xd825 <__heap_start+0x4555>
    31b8: 8c 26 d8     	sty	$d826                   ; 0xd826 <__heap_start+0x4556>
    31bb: 5a           	phy
    31bc: a0 28        	ldy	#$28
    31be: b1 10        	lda	($10),y                 ; 0x2010 <main+0x1ca7>
    31c0: 8d 28 d8     	sta	$d828                   ; 0xd828 <__heap_start+0x4558>
    31c3: a0 2a        	ldy	#$2a
    31c5: b1 10        	lda	($10),y                 ; 0x2010 <main+0x1ca7>
    31c7: 7a           	ply
    31c8: 8d 29 d8     	sta	$d829                   ; 0xd829 <__heap_start+0x4559>
    31cb: 8c 2a d8     	sty	$d82a                   ; 0xd82a <__heap_start+0x455a>
    31ce: 5a           	phy
    31cf: a0 29        	ldy	#$29
    31d1: b1 10        	lda	($10),y                 ; 0x2010 <main+0x1ca7>
    31d3: 8d 2c d8     	sta	$d82c                   ; 0xd82c <__heap_start+0x455c>
    31d6: a0 2c        	ldy	#$2c
    31d8: b1 10        	lda	($10),y                 ; 0x2010 <main+0x1ca7>
    31da: 7a           	ply
    31db: 8d 2d d8     	sta	$d82d                   ; 0xd82d <__heap_start+0x455d>
    31de: 8c 2e d8     	sty	$d82e                   ; 0xd82e <__heap_start+0x455e>
    31e1: 5a           	phy
    31e2: a0 2b        	ldy	#$2b
    31e4: b1 10        	lda	($10),y                 ; 0x2010 <main+0x1ca7>
    31e6: 8d 30 d8     	sta	$d830                   ; 0xd830 <__heap_start+0x4560>
    31e9: a0 2f        	ldy	#$2f
    31eb: b1 10        	lda	($10),y                 ; 0x2010 <main+0x1ca7>
    31ed: 7a           	ply
    31ee: 8d 31 d8     	sta	$d831                   ; 0xd831 <__heap_start+0x4561>
    31f1: 8c 32 d8     	sty	$d832                   ; 0xd832 <__heap_start+0x4562>
    31f4: 5a           	phy
    31f5: a0 2e        	ldy	#$2e
    31f7: b1 10        	lda	($10),y                 ; 0x2010 <main+0x1ca7>
    31f9: 8d 34 d8     	sta	$d834                   ; 0xd834 <__heap_start+0x4564>
    31fc: a0 30        	ldy	#$30
    31fe: b1 10        	lda	($10),y                 ; 0x2010 <main+0x1ca7>
    3200: 7a           	ply
    3201: 8d 35 d8     	sta	$d835                   ; 0xd835 <__heap_start+0x4565>
    3204: 8c 36 d8     	sty	$d836                   ; 0xd836 <__heap_start+0x4566>
    3207: 5a           	phy
    3208: a0 26        	ldy	#$26
    320a: b1 10        	lda	($10),y                 ; 0x2010 <main+0x1ca7>
    320c: 8d 38 d8     	sta	$d838                   ; 0xd838 <__heap_start+0x4568>
    320f: c8           	iny
    3210: b1 10        	lda	($10),y                 ; 0x2010 <main+0x1ca7>
    3212: 7a           	ply
    3213: 8d 39 d8     	sta	$d839                   ; 0xd839 <__heap_start+0x4569>
    3216: 8c 3a d8     	sty	$d83a                   ; 0xd83a <__heap_start+0x456a>
    3219: 5a           	phy
    321a: a0 31        	ldy	#$31
    321c: b1 10        	lda	($10),y                 ; 0x2010 <main+0x1ca7>
    321e: 8d 3c d8     	sta	$d83c                   ; 0xd83c <__heap_start+0x456c>
    3221: c8           	iny
    3222: b1 10        	lda	($10),y                 ; 0x2010 <main+0x1ca7>
    3224: 7a           	ply
    3225: 8d 3d d8     	sta	$d83d                   ; 0xd83d <__heap_start+0x456d>
    3228: 84 28        	sty	$28                     ; 0x2028 <main+0x1cbf>
    322a: 8c 3e d8     	sty	$d83e                   ; 0xd83e <__heap_start+0x456e>
    322d: 20 ee 46     	jsr	$46ee <colMatrixSetup>
    3230: 18           	clc
    3231: a5 10        	lda	$10                     ; 0x2010 <main+0x1ca7>
    3233: 69 6e        	adc	#$6e
    3235: 85 12        	sta	$12                     ; 0x2012 <main+0x1ca9>
    3237: a5 11        	lda	$11                     ; 0x2011 <main+0x1ca8>
    3239: 69 20        	adc	#$20
    323b: 85 13        	sta	$13                     ; 0x2013 <main+0x1caa>
    323d: 64 24        	stz	$24                     ; 0x2024 <main+0x1cbb>
    323f: 64 14        	stz	$14                     ; 0x2014 <main+0x1cab>
    3241: a2 1e        	ldx	#$1e
    3243: a9 00        	lda	#$0
    3245: 20 39 7b     	jsr	$7b39 <__memset>
    3248: a0 17        	ldy	#$17
    324a: b1 10        	lda	($10),y                 ; 0x2010 <main+0x1ca7>
    324c: 85 12        	sta	$12                     ; 0x2012 <main+0x1ca9>
    324e: 88           	dey
    324f: b1 10        	lda	($10),y                 ; 0x2010 <main+0x1ca7>
    3251: 85 13        	sta	$13                     ; 0x2013 <main+0x1caa>
    3253: 64 14        	stz	$14                     ; 0x2014 <main+0x1cab>
    3255: a2 1e        	ldx	#$1e
    3257: a9 00        	lda	#$0
    3259: 20 39 7b     	jsr	$7b39 <__memset>
    325c: 64 44        	stz	$44                     ; 0x2044 <main+0x1cdb>
    325e: 9c 14 d0     	stz	$d014                   ; 0xd014 <__heap_start+0x3d44>
    3261: 9c 15 d0     	stz	$d015                   ; 0xd015 <__heap_start+0x3d45>
    3264: 64 45        	stz	$45                     ; 0x2045 <main+0x1cdc>
    3266: 9c 16 d0     	stz	$d016                   ; 0xd016 <__heap_start+0x3d46>
    3269: 9c 17 d0     	stz	$d017                   ; 0xd017 <__heap_start+0x3d47>
    326c: a0 20        	ldy	#$20
    326e: b1 10        	lda	($10),y                 ; 0x2010 <main+0x1ca7>
    3270: 85 25        	sta	$25                     ; 0x2025 <main+0x1cbc>
    3272: a5 25        	lda	$25                     ; 0x2025 <main+0x1cbc>
    3274: d0 03        	bne	$3279 <main+0x2f10>
    3276: 4c 60 18     	jmp	$1860 <main+0x14f7>
    3279: a5 2b        	lda	$2b                     ; 0x202b <main+0x1cc2>
    327b: a0 11        	ldy	#$11
    327d: 91 10        	sta	($10),y                 ; 0x2010 <main+0x1ca7>
    327f: a5 2a        	lda	$2a                     ; 0x202a <main+0x1cc1>
    3281: c8           	iny
    3282: 91 10        	sta	($10),y                 ; 0x2010 <main+0x1ca7>
    3284: a2 ba        	ldx	#$ba
    3286: 86 12        	stx	$12                     ; 0x2012 <main+0x1ca9>
    3288: a2 80        	ldx	#$80
    328a: 86 13        	stx	$13                     ; 0x2013 <main+0x1caa>
    328c: 64 14        	stz	$14                     ; 0x2014 <main+0x1cab>
    328e: a2 2c        	ldx	#$2c
    3290: a9 00        	lda	#$0
    3292: 20 39 7b     	jsr	$7b39 <__memset>
    3295: a2 12        	ldx	#$12
    3297: 86 12        	stx	$12                     ; 0x2012 <main+0x1ca9>
    3299: a2 81        	ldx	#$81
    329b: 86 13        	stx	$13                     ; 0x2013 <main+0x1caa>
    329d: a2 11        	ldx	#$11
    329f: 86 14        	stx	$14                     ; 0x2014 <main+0x1cab>
    32a1: a2 04        	ldx	#$4
    32a3: a9 00        	lda	#$0
    32a5: 20 39 7b     	jsr	$7b39 <__memset>
    32a8: a2 17        	ldx	#$17
    32aa: 86 12        	stx	$12                     ; 0x2012 <main+0x1ca9>
    32ac: a2 92        	ldx	#$92
    32ae: 86 13        	stx	$13                     ; 0x2013 <main+0x1caa>
    32b0: 64 14        	stz	$14                     ; 0x2014 <main+0x1cab>
    32b2: a2 63        	ldx	#$63
    32b4: a9 00        	lda	#$0
    32b6: 20 39 7b     	jsr	$7b39 <__memset>
    32b9: a0 4e        	ldy	#$4e
    32bb: b1 10        	lda	($10),y                 ; 0x2010 <main+0x1ca7>
    32bd: 85 12        	sta	$12                     ; 0x2012 <main+0x1ca9>
    32bf: a5 12        	lda	$12                     ; 0x2012 <main+0x1ca9>
    32c1: f0 18        	beq	$32db <main+0x2f72>
    32c3: 9c 7a 92     	stz	$927a                   ; 0x927a <fpr+0x11e2>
    32c6: 9c 7b 92     	stz	$927b                   ; 0x927b <fpr+0x11e3>
    32c9: 9c 7c 92     	stz	$927c                   ; 0x927c <fpr+0x11e4>
    32cc: 9c 7d 92     	stz	$927d                   ; 0x927d <fpr+0x11e5>
    32cf: 9c 7e 92     	stz	$927e                   ; 0x927e <fpr+0x11e6>
    32d2: 9c 7f 92     	stz	$927f                   ; 0x927f <fpr+0x11e7>
    32d5: 9c 80 92     	stz	$9280                   ; 0x9280 <fpr+0x11e8>
    32d8: 9c 81 92     	stz	$9281                   ; 0x9281 <fpr+0x11e9>
    32db: a2 01        	ldx	#$1
    32dd: 8e 98 80     	stx	$8098                   ; 0x8098 <fpr>
    32e0: a2 05        	ldx	#$5
    32e2: 8e 99 80     	stx	$8099                   ; 0x8099 <fpr+0x1>
    32e5: a6 31        	ldx	$31                     ; 0x2031 <main+0x1cc8>
    32e7: 8e 82 92     	stx	$9282                   ; 0x9282 <fpr+0x11ea>
    32ea: a6 32        	ldx	$32                     ; 0x2032 <main+0x1cc9>
    32ec: 8e 83 92     	stx	$9283                   ; 0x9283 <fpr+0x11eb>
    32ef: a6 33        	ldx	$33                     ; 0x2033 <main+0x1cca>
    32f1: 8e 84 92     	stx	$9284                   ; 0x9284 <fpr+0x11ec>
    32f4: a6 35        	ldx	$35                     ; 0x2035 <main+0x1ccc>
    32f6: 8e 85 92     	stx	$9285                   ; 0x9285 <fpr+0x11ed>
    32f9: a6 36        	ldx	$36                     ; 0x2036 <main+0x1ccd>
    32fb: 8e 86 92     	stx	$9286                   ; 0x9286 <fpr+0x11ee>
    32fe: a6 37        	ldx	$37                     ; 0x2037 <main+0x1cce>
    3300: 8e 87 92     	stx	$9287                   ; 0x9287 <fpr+0x11ef>
    3303: a6 39        	ldx	$39                     ; 0x2039 <main+0x1cd0>
    3305: 8e 88 92     	stx	$9288                   ; 0x9288 <fpr+0x11f0>
    3308: a6 3a        	ldx	$3a                     ; 0x203a <main+0x1cd1>
    330a: 8e 89 92     	stx	$9289                   ; 0x9289 <fpr+0x11f1>
    330d: a6 3b        	ldx	$3b                     ; 0x203b <main+0x1cd2>
    330f: 8e 8a 92     	stx	$928a                   ; 0x928a <fpr+0x11f2>
    3312: a6 3d        	ldx	$3d                     ; 0x203d <main+0x1cd4>
    3314: 8e 8b 92     	stx	$928b                   ; 0x928b <fpr+0x11f3>
    3317: a6 3e        	ldx	$3e                     ; 0x203e <main+0x1cd5>
    3319: 8e 8c 92     	stx	$928c                   ; 0x928c <fpr+0x11f4>
    331c: a6 3f        	ldx	$3f                     ; 0x203f <main+0x1cd6>
    331e: 8e 8d 92     	stx	$928d                   ; 0x928d <fpr+0x11f5>
    3321: 20 14 61     	jsr	$6114 <readDirectory>
    3324: a2 01        	ldx	#$1
    3326: a4 41        	ldy	$41                     ; 0x2041 <main+0x1cd8>
    3328: 8c e6 80     	sty	$80e6                   ; 0x80e6 <fpr+0x4e>
    332b: a4 42        	ldy	$42                     ; 0x2042 <main+0x1cd9>
    332d: 8c e7 80     	sty	$80e7                   ; 0x80e7 <fpr+0x4f>
    3330: a4 43        	ldy	$43                     ; 0x2043 <main+0x1cda>
    3332: 8c e8 80     	sty	$80e8                   ; 0x80e8 <fpr+0x50>
    3335: 8e 16 92     	stx	$9216                   ; 0x9216 <fpr+0x117e>
    3338: ae 7a 92     	ldx	$927a                   ; 0x927a <fpr+0x11e2>
    333b: ad 7b 92     	lda	$927b                   ; 0x927b <fpr+0x11e3>
    333e: 48           	pha
    333f: 8a           	txa
    3340: a0 4d        	ldy	#$4d
    3342: 91 10        	sta	($10),y                 ; 0x2010 <main+0x1ca7>
    3344: 68           	pla
    3345: e0 03        	cpx	#$3
    3347: 88           	dey
    3348: 91 10        	sta	($10),y                 ; 0x2010 <main+0x1ca7>
    334a: e9 00        	sbc	#$0
    334c: 48           	pha
    334d: a5 26        	lda	$26                     ; 0x2026 <main+0x1cbd>
    334f: a0 3d        	ldy	#$3d
    3351: 91 10        	sta	($10),y                 ; 0x2010 <main+0x1ca7>
    3353: a5 27        	lda	$27                     ; 0x2027 <main+0x1cbe>
    3355: c8           	iny
    3356: 91 10        	sta	($10),y                 ; 0x2010 <main+0x1ca7>
    3358: 68           	pla
    3359: 50 02        	bvc	$335d <main+0x2ff4>
    335b: 49 80        	eor	#$80
    335d: aa           	tax
    335e: 10 03        	bpl	$3363 <main+0x2ffa>
    3360: 4c c5 36     	jmp	$36c5 <main+0x335c>
    3363: a2 01        	ldx	#$1
    3365: 64 18        	stz	$18                     ; 0x2018 <main+0x1caf>
    3367: 86 19        	stx	$19                     ; 0x2019 <main+0x1cb0>
    3369: 4c 80 36     	jmp	$3680 <main+0x3317>
    336c: a2 2c        	ldx	#$2c
    336e: a4 2c        	ldy	$2c                     ; 0x202c <main+0x1cc3>
    3370: c4 12        	cpy	$12                     ; 0x2012 <main+0x1ca9>
    3372: f0 03        	beq	$3377 <main+0x300e>
    3374: 4c 19 34     	jmp	$3419 <main+0x30b0>
    3377: 86 12        	stx	$12                     ; 0x2012 <main+0x1ca9>
    3379: 64 13        	stz	$13                     ; 0x2013 <main+0x1caa>
    337b: a6 2d        	ldx	$2d                     ; 0x202d <main+0x1cc4>
    337d: a5 26        	lda	$26                     ; 0x2026 <main+0x1cbd>
    337f: 20 59 7b     	jsr	$7b59 <__mulhi3>
    3382: 85 12        	sta	$12                     ; 0x2012 <main+0x1ca9>
    3384: 86 13        	stx	$13                     ; 0x2013 <main+0x1caa>
    3386: a9 e6        	lda	#$e6
    3388: 18           	clc
    3389: 65 12        	adc	$12                     ; 0x2012 <main+0x1ca9>
    338b: 85 24        	sta	$24                     ; 0x2024 <main+0x1cbb>
    338d: a9 80        	lda	#$80
    338f: 65 13        	adc	$13                     ; 0x2013 <main+0x1caa>
    3391: 85 25        	sta	$25                     ; 0x2025 <main+0x1cbc>
    3393: a2 2c        	ldx	#$2c
    3395: 86 12        	stx	$12                     ; 0x2012 <main+0x1ca9>
    3397: 64 13        	stz	$13                     ; 0x2013 <main+0x1caa>
    3399: a6 27        	ldx	$27                     ; 0x2027 <main+0x1cbe>
    339b: a0 4e        	ldy	#$4e
    339d: b1 10        	lda	($10),y                 ; 0x2010 <main+0x1ca7>
    339f: 20 59 7b     	jsr	$7b59 <__mulhi3>
    33a2: 85 14        	sta	$14                     ; 0x2014 <main+0x1cab>
    33a4: b2 24        	lda	($24)                   ; 0x2024 <main+0x1cbb>
    33a6: 64 12        	stz	$12                     ; 0x2012 <main+0x1ca9>
    33a8: d0 03        	bne	$33ad <main+0x3044>
    33aa: 4c 20 34     	jmp	$3420 <main+0x30b7>
    33ad: a6 2e        	ldx	$2e                     ; 0x202e <main+0x1cc5>
    33af: 86 16        	stx	$16                     ; 0x2016 <main+0x1cad>
    33b1: a6 2f        	ldx	$2f                     ; 0x202f <main+0x1cc6>
    33b3: 86 17        	stx	$17                     ; 0x2017 <main+0x1cae>
    33b5: a0 4b        	ldy	#$4b
    33b7: 91 10        	sta	($10),y                 ; 0x2010 <main+0x1ca7>
    33b9: 48           	pha
    33ba: a0 49        	ldy	#$49
    33bc: b1 10        	lda	($10),y                 ; 0x2010 <main+0x1ca7>
    33be: 85 18        	sta	$18                     ; 0x2018 <main+0x1caf>
    33c0: a0 44        	ldy	#$44
    33c2: b1 10        	lda	($10),y                 ; 0x2010 <main+0x1ca7>
    33c4: 85 19        	sta	$19                     ; 0x2019 <main+0x1cb0>
    33c6: 68           	pla
    33c7: 80 2f        	bra	$33f8 <main+0x308f>
    33c9: a0 2c        	ldy	#$2c
    33cb: a5 13        	lda	$13                     ; 0x2013 <main+0x1caa>
    33cd: c9 41        	cmp	#$41
    33cf: 90 06        	bcc	$33d7 <main+0x306e>
    33d1: c9 5b        	cmp	#$5b
    33d3: b0 02        	bcs	$33d7 <main+0x306e>
    33d5: 09 20        	ora	#$20
    33d7: 85 16        	sta	$16                     ; 0x2016 <main+0x1cad>
    33d9: 86 13        	stx	$13                     ; 0x2013 <main+0x1caa>
    33db: e4 16        	cpx	$16                     ; 0x2016 <main+0x1cad>
    33dd: f0 03        	beq	$33e2 <main+0x3079>
    33df: 4c a3 34     	jmp	$34a3 <main+0x313a>
    33e2: b2 14        	lda	($14)                   ; 0x2014 <main+0x1cab>
    33e4: a6 14        	ldx	$14                     ; 0x2014 <main+0x1cab>
    33e6: 86 16        	stx	$16                     ; 0x2016 <main+0x1cad>
    33e8: a6 15        	ldx	$15                     ; 0x2015 <main+0x1cac>
    33ea: 86 17        	stx	$17                     ; 0x2017 <main+0x1cae>
    33ec: e6 16        	inc	$16                     ; 0x2016 <main+0x1cad>
    33ee: d0 02        	bne	$33f2 <main+0x3089>
    33f0: e6 17        	inc	$17                     ; 0x2017 <main+0x1cae>
    33f2: aa           	tax
    33f3: d0 03        	bne	$33f8 <main+0x308f>
    33f5: 4c 7a 34     	jmp	$347a <main+0x3111>
    33f8: aa           	tax
    33f9: a4 16        	ldy	$16                     ; 0x2016 <main+0x1cad>
    33fb: 84 14        	sty	$14                     ; 0x2014 <main+0x1cab>
    33fd: a4 17        	ldy	$17                     ; 0x2017 <main+0x1cae>
    33ff: 84 15        	sty	$15                     ; 0x2015 <main+0x1cac>
    3401: a0 2b        	ldy	#$2b
    3403: b1 16        	lda	($16),y                 ; 0x2016 <main+0x1cad>
    3405: f0 45        	beq	$344c <main+0x30e3>
    3407: 85 13        	sta	$13                     ; 0x2013 <main+0x1caa>
    3409: e0 41        	cpx	#$41
    340b: 90 bc        	bcc	$33c9 <main+0x3060>
    340d: 8a           	txa
    340e: c9 5b        	cmp	#$5b
    3410: a0 2c        	ldy	#$2c
    3412: b0 b7        	bcs	$33cb <main+0x3062>
    3414: 09 20        	ora	#$20
    3416: aa           	tax
    3417: 80 b2        	bra	$33cb <main+0x3062>
    3419: a6 12        	ldx	$12                     ; 0x2012 <main+0x1ca9>
    341b: 86 2c        	stx	$2c                     ; 0x202c <main+0x1cc3>
    341d: 4c a5 35     	jmp	$35a5 <main+0x323c>
    3420: 86 13        	stx	$13                     ; 0x2013 <main+0x1caa>
    3422: a0 4b        	ldy	#$4b
    3424: 91 10        	sta	($10),y                 ; 0x2010 <main+0x1ca7>
    3426: a9 e6        	lda	#$e6
    3428: 18           	clc
    3429: 65 14        	adc	$14                     ; 0x2014 <main+0x1cab>
    342b: 85 14        	sta	$14                     ; 0x2014 <main+0x1cab>
    342d: a9 80        	lda	#$80
    342f: 65 13        	adc	$13                     ; 0x2013 <main+0x1caa>
    3431: 85 15        	sta	$15                     ; 0x2015 <main+0x1cac>
    3433: a0 2c        	ldy	#$2c
    3435: 5a           	phy
    3436: a0 49        	ldy	#$49
    3438: b1 10        	lda	($10),y                 ; 0x2010 <main+0x1ca7>
    343a: 85 18        	sta	$18                     ; 0x2018 <main+0x1caf>
    343c: a0 44        	ldy	#$44
    343e: b1 10        	lda	($10),y                 ; 0x2010 <main+0x1ca7>
    3440: 7a           	ply
    3441: 85 19        	sta	$19                     ; 0x2019 <main+0x1cb0>
    3443: b2 14        	lda	($14)                   ; 0x2014 <main+0x1cab>
    3445: c9 41        	cmp	#$41
    3447: b0 50        	bcs	$3499 <main+0x3130>
    3449: 4c 9f 34     	jmp	$349f <main+0x3136>
    344c: e0 41        	cpx	#$41
    344e: a0 01        	ldy	#$1
    3450: b0 02        	bcs	$3454 <main+0x30eb>
    3452: a0 00        	ldy	#$0
    3454: 84 12        	sty	$12                     ; 0x2012 <main+0x1ca9>
    3456: a5 14        	lda	$14                     ; 0x2014 <main+0x1cab>
    3458: 18           	clc
    3459: 69 2b        	adc	#$2b
    345b: 85 14        	sta	$14                     ; 0x2014 <main+0x1cab>
    345d: a5 15        	lda	$15                     ; 0x2015 <main+0x1cac>
    345f: 69 00        	adc	#$0
    3461: 85 15        	sta	$15                     ; 0x2015 <main+0x1cac>
    3463: a5 12        	lda	$12                     ; 0x2012 <main+0x1ca9>
    3465: f0 28        	beq	$348f <main+0x3126>
    3467: e0 5b        	cpx	#$5b
    3469: a0 2c        	ldy	#$2c
    346b: 8a           	txa
    346c: b0 02        	bcs	$3470 <main+0x3107>
    346e: 09 20        	ora	#$20
    3470: 85 12        	sta	$12                     ; 0x2012 <main+0x1ca9>
    3472: b2 14        	lda	($14)                   ; 0x2014 <main+0x1cab>
    3474: c9 41        	cmp	#$41
    3476: b0 21        	bcs	$3499 <main+0x3130>
    3478: 80 25        	bra	$349f <main+0x3136>
    347a: a5 14        	lda	$14                     ; 0x2014 <main+0x1cab>
    347c: 18           	clc
    347d: 69 2c        	adc	#$2c
    347f: 85 14        	sta	$14                     ; 0x2014 <main+0x1cab>
    3481: a5 15        	lda	$15                     ; 0x2015 <main+0x1cac>
    3483: 69 00        	adc	#$0
    3485: 85 15        	sta	$15                     ; 0x2015 <main+0x1cac>
    3487: b2 14        	lda	($14)                   ; 0x2014 <main+0x1cab>
    3489: c9 41        	cmp	#$41
    348b: b0 0c        	bcs	$3499 <main+0x3130>
    348d: 80 10        	bra	$349f <main+0x3136>
    348f: 86 12        	stx	$12                     ; 0x2012 <main+0x1ca9>
    3491: a0 2c        	ldy	#$2c
    3493: b2 14        	lda	($14)                   ; 0x2014 <main+0x1cab>
    3495: c9 41        	cmp	#$41
    3497: 90 06        	bcc	$349f <main+0x3136>
    3499: c9 5b        	cmp	#$5b
    349b: b0 02        	bcs	$349f <main+0x3136>
    349d: 09 20        	ora	#$20
    349f: a6 12        	ldx	$12                     ; 0x2012 <main+0x1ca9>
    34a1: 86 13        	stx	$13                     ; 0x2013 <main+0x1caa>
    34a3: c5 13        	cmp	$13                     ; 0x2013 <main+0x1caa>
    34a5: 90 03        	bcc	$34aa <main+0x3141>
    34a7: 4c a5 35     	jmp	$35a5 <main+0x323c>
    34aa: 84 12        	sty	$12                     ; 0x2012 <main+0x1ca9>
    34ac: 64 13        	stz	$13                     ; 0x2013 <main+0x1caa>
    34ae: a6 2d        	ldx	$2d                     ; 0x202d <main+0x1cc4>
    34b0: a5 26        	lda	$26                     ; 0x2026 <main+0x1cbd>
    34b2: 20 59 7b     	jsr	$7b59 <__mulhi3>
    34b5: 85 12        	sta	$12                     ; 0x2012 <main+0x1ca9>
    34b7: 86 13        	stx	$13                     ; 0x2013 <main+0x1caa>
    34b9: a9 e6        	lda	#$e6
    34bb: 18           	clc
    34bc: 65 12        	adc	$12                     ; 0x2012 <main+0x1ca9>
    34be: 85 24        	sta	$24                     ; 0x2024 <main+0x1cbb>
    34c0: a9 80        	lda	#$80
    34c2: 65 13        	adc	$13                     ; 0x2013 <main+0x1caa>
    34c4: 85 25        	sta	$25                     ; 0x2025 <main+0x1cbc>
    34c6: a0 4b        	ldy	#$4b
    34c8: b1 10        	lda	($10),y                 ; 0x2010 <main+0x1ca7>
    34ca: f0 31        	beq	$34fd <main+0x3194>
    34cc: a6 2e        	ldx	$2e                     ; 0x202e <main+0x1cc5>
    34ce: 86 12        	stx	$12                     ; 0x2012 <main+0x1ca9>
    34d0: a6 2f        	ldx	$2f                     ; 0x202f <main+0x1cc6>
    34d2: 86 13        	stx	$13                     ; 0x2013 <main+0x1caa>
    34d4: a0 42        	ldy	#$42
    34d6: b1 10        	lda	($10),y                 ; 0x2010 <main+0x1ca7>
    34d8: 85 14        	sta	$14                     ; 0x2014 <main+0x1cab>
    34da: c8           	iny
    34db: b1 10        	lda	($10),y                 ; 0x2010 <main+0x1ca7>
    34dd: 85 15        	sta	$15                     ; 0x2015 <main+0x1cac>
    34df: 80 0b        	bra	$34ec <main+0x3183>
    34e1: e6 15        	inc	$15                     ; 0x2015 <main+0x1cac>
    34e3: e6 12        	inc	$12                     ; 0x2012 <main+0x1ca9>
    34e5: d0 02        	bne	$34e9 <main+0x3180>
    34e7: e6 13        	inc	$13                     ; 0x2013 <main+0x1caa>
    34e9: 8a           	txa
    34ea: f0 11        	beq	$34fd <main+0x3194>
    34ec: b2 12        	lda	($12)                   ; 0x2012 <main+0x1ca9>
    34ee: aa           	tax
    34ef: b2 12        	lda	($12)                   ; 0x2012 <main+0x1ca9>
    34f1: 92 14        	sta	($14)                   ; 0x2014 <main+0x1cab>
    34f3: e6 14        	inc	$14                     ; 0x2014 <main+0x1cab>
    34f5: f0 ea        	beq	$34e1 <main+0x3178>
    34f7: e6 12        	inc	$12                     ; 0x2012 <main+0x1ca9>
    34f9: f0 ec        	beq	$34e7 <main+0x317e>
    34fb: 80 ec        	bra	$34e9 <main+0x3180>
    34fd: a2 2c        	ldx	#$2c
    34ff: 86 12        	stx	$12                     ; 0x2012 <main+0x1ca9>
    3501: 64 13        	stz	$13                     ; 0x2013 <main+0x1caa>
    3503: a6 27        	ldx	$27                     ; 0x2027 <main+0x1cbe>
    3505: a0 4e        	ldy	#$4e
    3507: b1 10        	lda	($10),y                 ; 0x2010 <main+0x1ca7>
    3509: 20 59 7b     	jsr	$7b59 <__mulhi3>
    350c: a0 2c        	ldy	#$2c
    350e: 85 12        	sta	$12                     ; 0x2012 <main+0x1ca9>
    3510: 86 13        	stx	$13                     ; 0x2013 <main+0x1caa>
    3512: a9 e6        	lda	#$e6
    3514: 18           	clc
    3515: 65 12        	adc	$12                     ; 0x2012 <main+0x1ca9>
    3517: 85 12        	sta	$12                     ; 0x2012 <main+0x1ca9>
    3519: a9 80        	lda	#$80
    351b: 65 13        	adc	$13                     ; 0x2013 <main+0x1caa>
    351d: 85 13        	sta	$13                     ; 0x2013 <main+0x1caa>
    351f: b2 12        	lda	($12)                   ; 0x2012 <main+0x1ca9>
    3521: aa           	tax
    3522: b2 12        	lda	($12)                   ; 0x2012 <main+0x1ca9>
    3524: 92 24        	sta	($24)                   ; 0x2024 <main+0x1cbb>
    3526: 8a           	txa
    3527: f0 18        	beq	$3541 <main+0x31d8>
    3529: a6 2e        	ldx	$2e                     ; 0x202e <main+0x1cc5>
    352b: 86 14        	stx	$14                     ; 0x2014 <main+0x1cab>
    352d: a6 2f        	ldx	$2f                     ; 0x202f <main+0x1cc6>
    352f: 86 15        	stx	$15                     ; 0x2015 <main+0x1cac>
    3531: b1 14        	lda	($14),y                 ; 0x2014 <main+0x1cab>
    3533: aa           	tax
    3534: b1 14        	lda	($14),y                 ; 0x2014 <main+0x1cab>
    3536: 92 14        	sta	($14)                   ; 0x2014 <main+0x1cab>
    3538: e6 14        	inc	$14                     ; 0x2014 <main+0x1cab>
    353a: d0 02        	bne	$353e <main+0x31d5>
    353c: e6 15        	inc	$15                     ; 0x2015 <main+0x1cac>
    353e: 8a           	txa
    353f: d0 f0        	bne	$3531 <main+0x31c8>
    3541: a0 4b        	ldy	#$4b
    3543: b1 10        	lda	($10),y                 ; 0x2010 <main+0x1ca7>
    3545: 92 12        	sta	($12)                   ; 0x2012 <main+0x1ca9>
    3547: 48           	pha
    3548: a0 49        	ldy	#$49
    354a: b1 10        	lda	($10),y                 ; 0x2010 <main+0x1ca7>
    354c: 85 18        	sta	$18                     ; 0x2018 <main+0x1caf>
    354e: a0 44        	ldy	#$44
    3550: b1 10        	lda	($10),y                 ; 0x2010 <main+0x1ca7>
    3552: 85 19        	sta	$19                     ; 0x2019 <main+0x1cb0>
    3554: 68           	pla
    3555: f0 31        	beq	$3588 <main+0x321f>
    3557: a0 42        	ldy	#$42
    3559: b1 10        	lda	($10),y                 ; 0x2010 <main+0x1ca7>
    355b: 85 12        	sta	$12                     ; 0x2012 <main+0x1ca9>
    355d: c8           	iny
    355e: b1 10        	lda	($10),y                 ; 0x2010 <main+0x1ca7>
    3560: 85 13        	sta	$13                     ; 0x2013 <main+0x1caa>
    3562: a6 2a        	ldx	$2a                     ; 0x202a <main+0x1cc1>
    3564: 86 14        	stx	$14                     ; 0x2014 <main+0x1cab>
    3566: a6 2b        	ldx	$2b                     ; 0x202b <main+0x1cc2>
    3568: 86 15        	stx	$15                     ; 0x2015 <main+0x1cac>
    356a: 80 0b        	bra	$3577 <main+0x320e>
    356c: e6 15        	inc	$15                     ; 0x2015 <main+0x1cac>
    356e: e6 12        	inc	$12                     ; 0x2012 <main+0x1ca9>
    3570: d0 02        	bne	$3574 <main+0x320b>
    3572: e6 13        	inc	$13                     ; 0x2013 <main+0x1caa>
    3574: 8a           	txa
    3575: f0 11        	beq	$3588 <main+0x321f>
    3577: b2 12        	lda	($12)                   ; 0x2012 <main+0x1ca9>
    3579: aa           	tax
    357a: b2 12        	lda	($12)                   ; 0x2012 <main+0x1ca9>
    357c: 92 14        	sta	($14)                   ; 0x2014 <main+0x1cab>
    357e: e6 14        	inc	$14                     ; 0x2014 <main+0x1cab>
    3580: f0 ea        	beq	$356c <main+0x3203>
    3582: e6 12        	inc	$12                     ; 0x2012 <main+0x1ca9>
    3584: f0 ec        	beq	$3572 <main+0x3209>
    3586: 80 ec        	bra	$3574 <main+0x320b>
    3588: b2 28        	lda	($28)                   ; 0x2028 <main+0x1cbf>
    358a: aa           	tax
    358b: a0 01        	ldy	#$1
    358d: b1 28        	lda	($28),y                 ; 0x2028 <main+0x1cbf>
    358f: 92 28        	sta	($28)                   ; 0x2028 <main+0x1cbf>
    3591: 8a           	txa
    3592: 86 2c        	stx	$2c                     ; 0x202c <main+0x1cc3>
    3594: 91 28        	sta	($28),y                 ; 0x2028 <main+0x1cbf>
    3596: ae 7a 92     	ldx	$927a                   ; 0x927a <fpr+0x11e2>
    3599: 8a           	txa
    359a: a0 4d        	ldy	#$4d
    359c: 91 10        	sta	($10),y                 ; 0x2010 <main+0x1ca7>
    359e: ae 7b 92     	ldx	$927b                   ; 0x927b <fpr+0x11e3>
    35a1: 8a           	txa
    35a2: 88           	dey
    35a3: 91 10        	sta	($10),y                 ; 0x2010 <main+0x1ca7>
    35a5: a0 4d        	ldy	#$4d
    35a7: b1 10        	lda	($10),y                 ; 0x2010 <main+0x1ca7>
    35a9: 38           	sec
    35aa: e5 19        	sbc	$19                     ; 0x2019 <main+0x1cb0>
    35ac: 85 12        	sta	$12                     ; 0x2012 <main+0x1ca9>
    35ae: 88           	dey
    35af: b1 10        	lda	($10),y                 ; 0x2010 <main+0x1ca7>
    35b1: e5 18        	sbc	$18                     ; 0x2018 <main+0x1caf>
    35b3: 85 13        	sta	$13                     ; 0x2013 <main+0x1caa>
    35b5: a5 2e        	lda	$2e                     ; 0x202e <main+0x1cc5>
    35b7: 18           	clc
    35b8: 69 2c        	adc	#$2c
    35ba: 85 2e        	sta	$2e                     ; 0x202e <main+0x1cc5>
    35bc: a5 2f        	lda	$2f                     ; 0x202f <main+0x1cc6>
    35be: 69 00        	adc	#$0
    35c0: 85 2f        	sta	$2f                     ; 0x202f <main+0x1cc6>
    35c2: a5 2a        	lda	$2a                     ; 0x202a <main+0x1cc1>
    35c4: 18           	clc
    35c5: 69 2c        	adc	#$2c
    35c7: 85 2a        	sta	$2a                     ; 0x202a <main+0x1cc1>
    35c9: a5 2b        	lda	$2b                     ; 0x202b <main+0x1cc2>
    35cb: 69 00        	adc	#$0
    35cd: 85 2b        	sta	$2b                     ; 0x202b <main+0x1cc2>
    35cf: a0 4e        	ldy	#$4e
    35d1: b1 10        	lda	($10),y                 ; 0x2010 <main+0x1ca7>
    35d3: aa           	tax
    35d4: c5 12        	cmp	$12                     ; 0x2012 <main+0x1ca9>
    35d6: a5 27        	lda	$27                     ; 0x2027 <main+0x1cbe>
    35d8: e5 13        	sbc	$13                     ; 0x2013 <main+0x1caa>
    35da: 50 02        	bvc	$35de <main+0x3275>
    35dc: 49 80        	eor	#$80
    35de: 86 26        	stx	$26                     ; 0x2026 <main+0x1cbd>
    35e0: a4 27        	ldy	$27                     ; 0x2027 <main+0x1cbe>
    35e2: 84 2d        	sty	$2d                     ; 0x202d <main+0x1cc4>
    35e4: a8           	tay
    35e5: 30 03        	bmi	$35ea <main+0x3281>
    35e7: 4c 4a 36     	jmp	$364a <main+0x32e1>
    35ea: a9 16        	lda	#$16
    35ec: 18           	clc
    35ed: 65 26        	adc	$26                     ; 0x2026 <main+0x1cbd>
    35ef: 85 28        	sta	$28                     ; 0x2028 <main+0x1cbf>
    35f1: a9 92        	lda	#$92
    35f3: 65 2d        	adc	$2d                     ; 0x202d <main+0x1cc4>
    35f5: 85 29        	sta	$29                     ; 0x2029 <main+0x1cc0>
    35f7: a5 2c        	lda	$2c                     ; 0x202c <main+0x1cc3>
    35f9: 29 01        	and	#$1
    35fb: 85 14        	sta	$14                     ; 0x2014 <main+0x1cab>
    35fd: a4 2d        	ldy	$2d                     ; 0x202d <main+0x1cc4>
    35ff: 84 27        	sty	$27                     ; 0x2027 <main+0x1cbe>
    3601: e8           	inx
    3602: d0 02        	bne	$3606 <main+0x329d>
    3604: e6 27        	inc	$27                     ; 0x2027 <main+0x1cbe>
    3606: 8a           	txa
    3607: a0 4e        	ldy	#$4e
    3609: 91 10        	sta	($10),y                 ; 0x2010 <main+0x1ca7>
    360b: a0 01        	ldy	#$1
    360d: b1 28        	lda	($28),y                 ; 0x2028 <main+0x1cbf>
    360f: 85 12        	sta	$12                     ; 0x2012 <main+0x1ca9>
    3611: a6 14        	ldx	$14                     ; 0x2014 <main+0x1cab>
    3613: f0 03        	beq	$3618 <main+0x32af>
    3615: 4c 6c 33     	jmp	$336c <main+0x3003>
    3618: 29 01        	and	#$1
    361a: d0 03        	bne	$361f <main+0x32b6>
    361c: 4c 6c 33     	jmp	$336c <main+0x3003>
    361f: a2 2c        	ldx	#$2c
    3621: 86 12        	stx	$12                     ; 0x2012 <main+0x1ca9>
    3623: 64 13        	stz	$13                     ; 0x2013 <main+0x1caa>
    3625: a6 2d        	ldx	$2d                     ; 0x202d <main+0x1cc4>
    3627: a5 26        	lda	$26                     ; 0x2026 <main+0x1cbd>
    3629: 20 59 7b     	jsr	$7b59 <__mulhi3>
    362c: a0 2c        	ldy	#$2c
    362e: 85 12        	sta	$12                     ; 0x2012 <main+0x1ca9>
    3630: 86 13        	stx	$13                     ; 0x2013 <main+0x1caa>
    3632: a9 e6        	lda	#$e6
    3634: 18           	clc
    3635: 65 12        	adc	$12                     ; 0x2012 <main+0x1ca9>
    3637: 85 12        	sta	$12                     ; 0x2012 <main+0x1ca9>
    3639: a9 80        	lda	#$80
    363b: 65 13        	adc	$13                     ; 0x2013 <main+0x1caa>
    363d: 85 13        	sta	$13                     ; 0x2013 <main+0x1caa>
    363f: b2 12        	lda	($12)                   ; 0x2012 <main+0x1ca9>
    3641: 5a           	phy
    3642: a0 4b        	ldy	#$4b
    3644: 91 10        	sta	($10),y                 ; 0x2010 <main+0x1ca7>
    3646: 7a           	ply
    3647: 4c aa 34     	jmp	$34aa <main+0x3141>
    364a: a4 19        	ldy	$19                     ; 0x2019 <main+0x1cb0>
    364c: a6 18        	ldx	$18                     ; 0x2018 <main+0x1caf>
    364e: 86 13        	stx	$13                     ; 0x2013 <main+0x1caa>
    3650: c8           	iny
    3651: d0 02        	bne	$3655 <main+0x32ec>
    3653: e6 13        	inc	$13                     ; 0x2013 <main+0x1caa>
    3655: 84 21        	sty	$21                     ; 0x2021 <main+0x1cb8>
    3657: a0 4d        	ldy	#$4d
    3659: b1 10        	lda	($10),y                 ; 0x2010 <main+0x1ca7>
    365b: 48           	pha
    365c: 88           	dey
    365d: b1 10        	lda	($10),y                 ; 0x2010 <main+0x1ca7>
    365f: a4 21        	ldy	$21                     ; 0x2021 <main+0x1cb8>
    3661: 85 12        	sta	$12                     ; 0x2012 <main+0x1ca9>
    3663: 68           	pla
    3664: 3a           	dec
    3665: c9 ff        	cmp	#$ff
    3667: d0 02        	bne	$366b <main+0x3302>
    3669: c6 12        	dec	$12                     ; 0x2012 <main+0x1ca9>
    366b: 85 14        	sta	$14                     ; 0x2014 <main+0x1cab>
    366d: c4 14        	cpy	$14                     ; 0x2014 <main+0x1cab>
    366f: a5 13        	lda	$13                     ; 0x2013 <main+0x1caa>
    3671: e5 12        	sbc	$12                     ; 0x2012 <main+0x1ca9>
    3673: 50 02        	bvc	$3677 <main+0x330e>
    3675: 49 80        	eor	#$80
    3677: 84 19        	sty	$19                     ; 0x2019 <main+0x1cb0>
    3679: a6 13        	ldx	$13                     ; 0x2013 <main+0x1caa>
    367b: 86 18        	stx	$18                     ; 0x2018 <main+0x1caf>
    367d: aa           	tax
    367e: 10 45        	bpl	$36c5 <main+0x335c>
    3680: 38           	sec
    3681: a0 4d        	ldy	#$4d
    3683: b1 10        	lda	($10),y                 ; 0x2010 <main+0x1ca7>
    3685: e5 19        	sbc	$19                     ; 0x2019 <main+0x1cb0>
    3687: aa           	tax
    3688: 88           	dey
    3689: b1 10        	lda	($10),y                 ; 0x2010 <main+0x1ca7>
    368b: e5 18        	sbc	$18                     ; 0x2018 <main+0x1caf>
    368d: e0 02        	cpx	#$2
    368f: e9 00        	sbc	#$0
    3691: 50 02        	bvc	$3695 <main+0x332c>
    3693: 49 80        	eor	#$80
    3695: aa           	tax
    3696: 10 03        	bpl	$369b <main+0x3332>
    3698: 4c 4a 36     	jmp	$364a <main+0x32e1>
    369b: ae 17 92     	ldx	$9217                   ; 0x9217 <fpr+0x117f>
    369e: 86 2c        	stx	$2c                     ; 0x202c <main+0x1cc3>
    36a0: a2 13        	ldx	#$13
    36a2: 86 2e        	stx	$2e                     ; 0x202e <main+0x1cc5>
    36a4: a2 81        	ldx	#$81
    36a6: 86 2f        	stx	$2f                     ; 0x202f <main+0x1cc6>
    36a8: a2 3f        	ldx	#$3f
    36aa: 86 2a        	stx	$2a                     ; 0x202a <main+0x1cc1>
    36ac: a2 81        	ldx	#$81
    36ae: 86 2b        	stx	$2b                     ; 0x202b <main+0x1cc2>
    36b0: a2 01        	ldx	#$1
    36b2: 64 2d        	stz	$2d                     ; 0x202d <main+0x1cc4>
    36b4: 86 26        	stx	$26                     ; 0x2026 <main+0x1cbd>
    36b6: a5 18        	lda	$18                     ; 0x2018 <main+0x1caf>
    36b8: a0 49        	ldy	#$49
    36ba: 91 10        	sta	($10),y                 ; 0x2010 <main+0x1ca7>
    36bc: a5 19        	lda	$19                     ; 0x2019 <main+0x1cb0>
    36be: a0 44        	ldy	#$44
    36c0: 91 10        	sta	($10),y                 ; 0x2010 <main+0x1ca7>
    36c2: 4c ea 35     	jmp	$35ea <main+0x3281>
    36c5: a2 35        	ldx	#$35
    36c7: 86 30        	stx	$30                     ; 0x2030 <main+0x1cc7>
    36c9: 64 44        	stz	$44                     ; 0x2044 <main+0x1cdb>
    36cb: 9c 14 d0     	stz	$d014                   ; 0xd014 <__heap_start+0x3d44>
    36ce: 9c 15 d0     	stz	$d015                   ; 0xd015 <__heap_start+0x3d45>
    36d1: 64 45        	stz	$45                     ; 0x2045 <main+0x1cdc>
    36d3: 9c 16 d0     	stz	$d016                   ; 0xd016 <__heap_start+0x3d46>
    36d6: 9c 17 d0     	stz	$d017                   ; 0xd017 <__heap_start+0x3d47>
    36d9: a9 1a        	lda	#$1a
    36db: 92 10        	sta	($10)                   ; 0x2010 <main+0x1ca7>
    36dd: a9 7d        	lda	#$7d
    36df: a0 01        	ldy	#$1
    36e1: 91 10        	sta	($10),y                 ; 0x2010 <main+0x1ca7>
    36e3: a2 99        	ldx	#$99
    36e5: 86 12        	stx	$12                     ; 0x2012 <main+0x1ca9>
    36e7: a2 7d        	ldx	#$7d
    36e9: 86 13        	stx	$13                     ; 0x2013 <main+0x1caa>
    36eb: a5 12        	lda	$12                     ; 0x2012 <main+0x1ca9>
    36ed: a0 4e        	ldy	#$4e
    36ef: 91 10        	sta	($10),y                 ; 0x2010 <main+0x1ca7>
    36f1: a5 13        	lda	$13                     ; 0x2013 <main+0x1caa>
    36f3: c8           	iny
    36f4: 91 10        	sta	($10),y                 ; 0x2010 <main+0x1ca7>
    36f6: 88           	dey
    36f7: b1 10        	lda	($10),y                 ; 0x2010 <main+0x1ca7>
    36f9: 85 12        	sta	$12                     ; 0x2012 <main+0x1ca9>
    36fb: c8           	iny
    36fc: b1 10        	lda	($10),y                 ; 0x2010 <main+0x1ca7>
    36fe: 85 13        	sta	$13                     ; 0x2013 <main+0x1caa>
    3700: 20 ab 79     	jsr	$79ab <printf>
    3703: 64 44        	stz	$44                     ; 0x2044 <main+0x1cdb>
    3705: 9c 14 d0     	stz	$d014                   ; 0xd014 <__heap_start+0x3d44>
    3708: 9c 15 d0     	stz	$d015                   ; 0xd015 <__heap_start+0x3d45>
    370b: a0 01        	ldy	#$1
    370d: 84 45        	sty	$45                     ; 0x2045 <main+0x1cdc>
    370f: 8c 16 d0     	sty	$d016                   ; 0xd016 <__heap_start+0x3d46>
    3712: 9c 17 d0     	stz	$d017                   ; 0xd017 <__heap_start+0x3d47>
    3715: a9 a7        	lda	#$a7
    3717: 92 10        	sta	($10)                   ; 0x2010 <main+0x1ca7>
    3719: a9 7e        	lda	#$7e
    371b: 91 10        	sta	($10),y                 ; 0x2010 <main+0x1ca7>
    371d: a0 4e        	ldy	#$4e
    371f: b1 10        	lda	($10),y                 ; 0x2010 <main+0x1ca7>
    3721: 85 12        	sta	$12                     ; 0x2012 <main+0x1ca9>
    3723: c8           	iny
    3724: b1 10        	lda	($10),y                 ; 0x2010 <main+0x1ca7>
    3726: 85 13        	sta	$13                     ; 0x2013 <main+0x1caa>
    3728: 20 ab 79     	jsr	$79ab <printf>
    372b: 64 44        	stz	$44                     ; 0x2044 <main+0x1cdb>
    372d: 9c 14 d0     	stz	$d014                   ; 0xd014 <__heap_start+0x3d44>
    3730: 9c 15 d0     	stz	$d015                   ; 0xd015 <__heap_start+0x3d45>
    3733: a2 02        	ldx	#$2
    3735: 86 45        	stx	$45                     ; 0x2045 <main+0x1cdc>
    3737: 8e 16 d0     	stx	$d016                   ; 0xd016 <__heap_start+0x3d46>
    373a: 9c 17 d0     	stz	$d017                   ; 0xd017 <__heap_start+0x3d47>
    373d: a9 54        	lda	#$54
    373f: 92 10        	sta	($10)                   ; 0x2010 <main+0x1ca7>
    3741: a9 7d        	lda	#$7d
    3743: a0 01        	ldy	#$1
    3745: 91 10        	sta	($10),y                 ; 0x2010 <main+0x1ca7>
    3747: a0 4e        	ldy	#$4e
    3749: b1 10        	lda	($10),y                 ; 0x2010 <main+0x1ca7>
    374b: 85 12        	sta	$12                     ; 0x2012 <main+0x1ca9>
    374d: c8           	iny
    374e: b1 10        	lda	($10),y                 ; 0x2010 <main+0x1ca7>
    3750: 85 13        	sta	$13                     ; 0x2013 <main+0x1caa>
    3752: 20 ab 79     	jsr	$79ab <printf>
    3755: 64 44        	stz	$44                     ; 0x2044 <main+0x1cdb>
    3757: 9c 14 d0     	stz	$d014                   ; 0xd014 <__heap_start+0x3d44>
    375a: 9c 15 d0     	stz	$d015                   ; 0xd015 <__heap_start+0x3d45>
    375d: a2 03        	ldx	#$3
    375f: 86 45        	stx	$45                     ; 0x2045 <main+0x1cdc>
    3761: 8e 16 d0     	stx	$d016                   ; 0xd016 <__heap_start+0x3d46>
    3764: 9c 17 d0     	stz	$d017                   ; 0xd017 <__heap_start+0x3d47>
    3767: a9 12        	lda	#$12
    3769: 92 10        	sta	($10)                   ; 0x2010 <main+0x1ca7>
    376b: a9 7e        	lda	#$7e
    376d: a0 01        	ldy	#$1
    376f: 91 10        	sta	($10),y                 ; 0x2010 <main+0x1ca7>
    3771: a0 4e        	ldy	#$4e
    3773: b1 10        	lda	($10),y                 ; 0x2010 <main+0x1ca7>
    3775: 85 12        	sta	$12                     ; 0x2012 <main+0x1ca9>
    3777: c8           	iny
    3778: b1 10        	lda	($10),y                 ; 0x2010 <main+0x1ca7>
    377a: 85 13        	sta	$13                     ; 0x2013 <main+0x1caa>
    377c: 20 ab 79     	jsr	$79ab <printf>
    377f: 64 44        	stz	$44                     ; 0x2044 <main+0x1cdb>
    3781: 9c 14 d0     	stz	$d014                   ; 0xd014 <__heap_start+0x3d44>
    3784: 9c 15 d0     	stz	$d015                   ; 0xd015 <__heap_start+0x3d45>
    3787: a2 04        	ldx	#$4
    3789: 86 45        	stx	$45                     ; 0x2045 <main+0x1cdc>
    378b: 8e 16 d0     	stx	$d016                   ; 0xd016 <__heap_start+0x3d46>
    378e: 9c 17 d0     	stz	$d017                   ; 0xd017 <__heap_start+0x3d47>
    3791: a9 1a        	lda	#$1a
    3793: 92 10        	sta	($10)                   ; 0x2010 <main+0x1ca7>
    3795: a9 7d        	lda	#$7d
    3797: a0 01        	ldy	#$1
    3799: 91 10        	sta	($10),y                 ; 0x2010 <main+0x1ca7>
    379b: a0 4e        	ldy	#$4e
    379d: b1 10        	lda	($10),y                 ; 0x2010 <main+0x1ca7>
    379f: 85 12        	sta	$12                     ; 0x2012 <main+0x1ca9>
    37a1: c8           	iny
    37a2: b1 10        	lda	($10),y                 ; 0x2010 <main+0x1ca7>
    37a4: 85 13        	sta	$13                     ; 0x2013 <main+0x1caa>
    37a6: 20 ab 79     	jsr	$79ab <printf>
    37a9: a2 70        	ldx	#$70
    37ab: 86 30        	stx	$30                     ; 0x2030 <main+0x1cc7>
    37ad: ad 80 92     	lda	$9280                   ; 0x9280 <fpr+0x11e8>
    37b0: ae 81 92     	ldx	$9281                   ; 0x9281 <fpr+0x11e9>
    37b3: a0 98        	ldy	#$98
    37b5: 84 12        	sty	$12                     ; 0x2012 <main+0x1ca9>
    37b7: a0 80        	ldy	#$80
    37b9: 84 13        	sty	$13                     ; 0x2013 <main+0x1caa>
    37bb: 20 f9 59     	jsr	$59f9 <displayFileList>
    37be: 20 ac 4d     	jsr	$4dac <pickFile>
    37c1: c9 04        	cmp	#$4
    37c3: b0 f9        	bcs	$37be <main+0x3455>
    37c5: 0a           	asl
    37c6: aa           	tax
    37c7: a0 3d        	ldy	#$3d
    37c9: b1 10        	lda	($10),y                 ; 0x2010 <main+0x1ca7>
    37cb: 85 26        	sta	$26                     ; 0x2026 <main+0x1cbd>
    37cd: c8           	iny
    37ce: b1 10        	lda	($10),y                 ; 0x2010 <main+0x1ca7>
    37d0: 85 27        	sta	$27                     ; 0x2027 <main+0x1cbe>
    37d2: 7c 8c 7b     	jmp	($7b8c,x)               ; 0x7b8c <__set_v+0x1>
    37d5: 78           	sei
    37d6: a2 07        	ldx	#$7
    37d8: 86 0f        	stx	$f                      ; 0x200f <main+0x1ca6>
    37da: a2 de        	ldx	#$de
    37dc: 8e a2 d6     	stx	$d6a2                   ; 0xd6a2 <__heap_start+0x43d2>
    37df: a2 ad        	ldx	#$ad
    37e1: 8e a3 d6     	stx	$d6a3                   ; 0xd6a3 <__heap_start+0x43d3>
    37e4: a2 f0        	ldx	#$f0
    37e6: 8e a0 d6     	stx	$d6a0                   ; 0xd6a0 <__heap_start+0x43d0>
    37e9: 9c a0 d6     	stz	$d6a0                   ; 0xd6a0 <__heap_start+0x43d0>
    37ec: 6c fc ff     	jmp	($fffc)                 ; 0xfffc <__heap_start+0x6d2c>
    37ef: a2 00        	ldx	#$0
    37f1: 8a           	txa
    37f2: 85 20        	sta	$20                     ; 0x2020 <main+0x1cb7>
    37f4: a0 06        	ldy	#$6
    37f6: b1 10        	lda	($10),y                 ; 0x2010 <main+0x1ca7>
    37f8: 85 2f        	sta	$2f                     ; 0x202f <main+0x1cc6>
    37fa: c8           	iny
    37fb: b1 10        	lda	($10),y                 ; 0x2010 <main+0x1ca7>
    37fd: 85 2e        	sta	$2e                     ; 0x202e <main+0x1cc5>
    37ff: c8           	iny
    3800: b1 10        	lda	($10),y                 ; 0x2010 <main+0x1ca7>
    3802: 85 2d        	sta	$2d                     ; 0x202d <main+0x1cc4>
    3804: c8           	iny
    3805: b1 10        	lda	($10),y                 ; 0x2010 <main+0x1ca7>
    3807: 85 2c        	sta	$2c                     ; 0x202c <main+0x1cc3>
    3809: c8           	iny
    380a: b1 10        	lda	($10),y                 ; 0x2010 <main+0x1ca7>
    380c: 85 2b        	sta	$2b                     ; 0x202b <main+0x1cc2>
    380e: c8           	iny
    380f: b1 10        	lda	($10),y                 ; 0x2010 <main+0x1ca7>
    3811: 85 2a        	sta	$2a                     ; 0x202a <main+0x1cc1>
    3813: c8           	iny
    3814: b1 10        	lda	($10),y                 ; 0x2010 <main+0x1ca7>
    3816: 85 29        	sta	$29                     ; 0x2029 <main+0x1cc0>
    3818: c8           	iny
    3819: b1 10        	lda	($10),y                 ; 0x2010 <main+0x1ca7>
    381b: 85 28        	sta	$28                     ; 0x2028 <main+0x1cbf>
    381d: 7a           	ply
    381e: 84 27        	sty	$27                     ; 0x2027 <main+0x1cbe>
    3820: 7a           	ply
    3821: 84 26        	sty	$26                     ; 0x2026 <main+0x1cbd>
    3823: 7a           	ply
    3824: 84 25        	sty	$25                     ; 0x2025 <main+0x1cbc>
    3826: 7a           	ply
    3827: 84 24        	sty	$24                     ; 0x2024 <main+0x1cbb>
    3829: 18           	clc
    382a: a5 10        	lda	$10                     ; 0x2010 <main+0x1ca7>
    382c: 69 f8        	adc	#$f8
    382e: 85 10        	sta	$10                     ; 0x2010 <main+0x1ca7>
    3830: a5 11        	lda	$11                     ; 0x2011 <main+0x1ca8>
    3832: 69 20        	adc	#$20
    3834: 85 11        	sta	$11                     ; 0x2011 <main+0x1ca8>
    3836: a5 20        	lda	$20                     ; 0x2020 <main+0x1cb7>
    3838: 60           	rts
    3839: 5a           	phy
    383a: a0 35        	ldy	#$35
    383c: b1 10        	lda	($10),y                 ; 0x2010 <main+0x1ca7>
    383e: 85 1c        	sta	$1c                     ; 0x201c <main+0x1cb3>
    3840: c8           	iny
    3841: b1 10        	lda	($10),y                 ; 0x2010 <main+0x1ca7>
    3843: 7a           	ply
    3844: 85 1d        	sta	$1d                     ; 0x201d <main+0x1cb4>
    3846: 4c 17 2c     	jmp	$2c17 <main+0x28ae>
    3849: 86 1a        	stx	$1a                     ; 0x201a <main+0x1cb1>
    384b: a9 01        	lda	#$1
    384d: 2d d0 92     	and	$92d0                   ; 0x92d0 <__heap_start>
    3850: 84 21        	sty	$21                     ; 0x2021 <main+0x1cb8>
    3852: 48           	pha
    3853: a0 10        	ldy	#$10
    3855: b1 10        	lda	($10),y                 ; 0x2010 <main+0x1ca7>
    3857: 85 12        	sta	$12                     ; 0x2012 <main+0x1ca9>
    3859: 68           	pla
    385a: 05 12        	ora	$12                     ; 0x2012 <main+0x1ca9>
    385c: 8d d0 92     	sta	$92d0                   ; 0x92d0 <__heap_start>
    385f: a2 10        	ldx	#$10
    3861: 8e d1 92     	stx	$92d1                   ; 0x92d1 <__heap_start+0x1>
    3864: a9 00        	lda	#$0
    3866: 48           	pha
    3867: a0 0e        	ldy	#$e
    3869: b1 10        	lda	($10),y                 ; 0x2010 <main+0x1ca7>
    386b: 85 14        	sta	$14                     ; 0x2014 <main+0x1cab>
    386d: c8           	iny
    386e: b1 10        	lda	($10),y                 ; 0x2010 <main+0x1ca7>
    3870: a4 21        	ldy	$21                     ; 0x2021 <main+0x1cb8>
    3872: 85 15        	sta	$15                     ; 0x2015 <main+0x1cac>
    3874: 68           	pla
    3875: 92 14        	sta	($14)                   ; 0x2014 <main+0x1cab>
    3877: a9 10        	lda	#$10
    3879: 91 14        	sta	($14),y                 ; 0x2014 <main+0x1cab>
    387b: ae d1 92     	ldx	$92d1                   ; 0x92d1 <__heap_start+0x1>
    387e: a9 fe        	lda	#$fe
    3880: 2d d0 92     	and	$92d0                   ; 0x92d0 <__heap_start>
    3883: a4 68        	ldy	$68                     ; 0x2068 <main+0x1cff>
    3885: 84 12        	sty	$12                     ; 0x2012 <main+0x1ca9>
    3887: 18           	clc
    3888: 85 18        	sta	$18                     ; 0x2018 <main+0x1caf>
    388a: 65 67        	adc	$67                     ; 0x2067 <main+0x1cfe>
    388c: a8           	tay
    388d: a5 12        	lda	$12                     ; 0x2012 <main+0x1ca9>
    388f: 6d d1 92     	adc	$92d1                   ; 0x92d1 <__heap_start+0x1>
    3892: 85 12        	sta	$12                     ; 0x2012 <main+0x1ca9>
    3894: 18           	clc
    3895: 98           	tya
    3896: 69 fe        	adc	#$fe
    3898: 85 13        	sta	$13                     ; 0x2013 <main+0x1caa>
    389a: a5 12        	lda	$12                     ; 0x2012 <main+0x1ca9>
    389c: 69 ff        	adc	#$ff
    389e: a4 13        	ldy	$13                     ; 0x2013 <main+0x1caa>
    38a0: 84 67        	sty	$67                     ; 0x2067 <main+0x1cfe>
    38a2: 85 68        	sta	$68                     ; 0x2068 <main+0x1cff>
    38a4: a0 35        	ldy	#$35
    38a6: b1 10        	lda	($10),y                 ; 0x2010 <main+0x1ca7>
    38a8: 85 1c        	sta	$1c                     ; 0x201c <main+0x1cb3>
    38aa: c8           	iny
    38ab: b1 10        	lda	($10),y                 ; 0x2010 <main+0x1ca7>
    38ad: 85 1d        	sta	$1d                     ; 0x201d <main+0x1cb4>
    38af: a4 1a        	ldy	$1a                     ; 0x201a <main+0x1cb1>
    38b1: a5 1a        	lda	$1a                     ; 0x201a <main+0x1cb1>
    38b3: c4 1f        	cpy	$1f                     ; 0x201f <main+0x1cb6>
    38b5: f0 03        	beq	$38ba <main+0x3551>
    38b7: 4c 6e 3b     	jmp	$3b6e <main+0x3805>
    38ba: a4 19        	ldy	$19                     ; 0x2019 <main+0x1cb0>
    38bc: c4 1e        	cpy	$1e                     ; 0x201e <main+0x1cb5>
    38be: f0 03        	beq	$38c3 <main+0x355a>
    38c0: 4c 6e 3b     	jmp	$3b6e <main+0x3805>
    38c3: a0 d0        	ldy	#$d0
    38c5: 84 16        	sty	$16                     ; 0x2016 <main+0x1cad>
    38c7: a0 92        	ldy	#$92
    38c9: 84 17        	sty	$17                     ; 0x2017 <main+0x1cae>
    38cb: a0 d0        	ldy	#$d0
    38cd: 8c d4 92     	sty	$92d4                   ; 0x92d4 <__heap_start+0x4>
    38d0: a9 92        	lda	#$92
    38d2: 8d d5 92     	sta	$92d5                   ; 0x92d5 <__heap_start+0x5>
    38d5: 8c d2 92     	sty	$92d2                   ; 0x92d2 <__heap_start+0x2>
    38d8: 8d d3 92     	sta	$92d3                   ; 0x92d3 <__heap_start+0x3>
    38db: 84 69        	sty	$69                     ; 0x2069 <main+0x1d00>
    38dd: 85 6a        	sta	$6a                     ; 0x206a <main+0x1d01>
    38df: a0 01        	ldy	#$1
    38e1: 4c d8 3b     	jmp	$3bd8 <main+0x386f>
    38e4: 5a           	phy
    38e5: a0 13        	ldy	#$13
    38e7: b1 10        	lda	($10),y                 ; 0x2010 <main+0x1ca7>
    38e9: 7a           	ply
    38ea: 85 16        	sta	$16                     ; 0x2016 <main+0x1cad>
    38ec: e4 16        	cpx	$16                     ; 0x2016 <main+0x1cad>
    38ee: f0 03        	beq	$38f3 <main+0x358a>
    38f0: 4c 3e 2c     	jmp	$2c3e <main+0x28d5>
    38f3: 64 66        	stz	$66                     ; 0x2066 <main+0x1cfd>
    38f5: 4c 4e 2c     	jmp	$2c4e <main+0x28e5>
    38f8: e4 14        	cpx	$14                     ; 0x2014 <main+0x1cab>
    38fa: f0 03        	beq	$38ff <main+0x3596>
    38fc: 4c d1 2c     	jmp	$2cd1 <main+0x2968>
    38ff: a2 00        	ldx	#$0
    3901: 86 18        	stx	$18                     ; 0x2018 <main+0x1caf>
    3903: a2 00        	ldx	#$0
    3905: 86 19        	stx	$19                     ; 0x2019 <main+0x1cb0>
    3907: 4c 59 3b     	jmp	$3b59 <main+0x37f0>
    390a: 85 1a        	sta	$1a                     ; 0x201a <main+0x1cb1>
    390c: a5 18        	lda	$18                     ; 0x2018 <main+0x1caf>
    390e: c9 08        	cmp	#$8
    3910: b0 0c        	bcs	$391e <main+0x35b5>
    3912: 4c 22 2c     	jmp	$2c22 <main+0x28b9>
    3915: 85 1a        	sta	$1a                     ; 0x201a <main+0x1cb1>
    3917: c9 00        	cmp	#$0
    3919: b0 03        	bcs	$391e <main+0x35b5>
    391b: 4c 22 2c     	jmp	$2c22 <main+0x28b9>
    391e: 18           	clc
    391f: a5 14        	lda	$14                     ; 0x2014 <main+0x1cab>
    3921: 69 08        	adc	#$8
    3923: 85 1b        	sta	$1b                     ; 0x201b <main+0x1cb2>
    3925: a5 15        	lda	$15                     ; 0x2015 <main+0x1cac>
    3927: 69 00        	adc	#$0
    3929: 85 2b        	sta	$2b                     ; 0x202b <main+0x1cc2>
    392b: a9 01        	lda	#$1
    392d: a0 08        	ldy	#$8
    392f: 31 14        	and	($14),y                 ; 0x2014 <main+0x1cab>
    3931: 5a           	phy
    3932: a4 18        	ldy	$18                     ; 0x2018 <main+0x1caf>
    3934: 84 2c        	sty	$2c                     ; 0x202c <main+0x1cc3>
    3936: 7a           	ply
    3937: 05 18        	ora	$18                     ; 0x2018 <main+0x1caf>
    3939: 91 14        	sta	($14),y                 ; 0x2014 <main+0x1cab>
    393b: 18           	clc
    393c: 8a           	txa
    393d: 65 14        	adc	$14                     ; 0x2014 <main+0x1cab>
    393f: aa           	tax
    3940: a5 19        	lda	$19                     ; 0x2019 <main+0x1cb0>
    3942: 65 15        	adc	$15                     ; 0x2015 <main+0x1cac>
    3944: a8           	tay
    3945: 18           	clc
    3946: 8a           	txa
    3947: 69 fe        	adc	#$fe
    3949: aa           	tax
    394a: 98           	tya
    394b: 69 ff        	adc	#$ff
    394d: 85 2d        	sta	$2d                     ; 0x202d <main+0x1cc4>
    394f: a4 1b        	ldy	$1b                     ; 0x201b <main+0x1cb2>
    3951: 84 2a        	sty	$2a                     ; 0x202a <main+0x1cc1>
    3953: a4 1b        	ldy	$1b                     ; 0x201b <main+0x1cb2>
    3955: 84 18        	sty	$18                     ; 0x2018 <main+0x1caf>
    3957: a4 2b        	ldy	$2b                     ; 0x202b <main+0x1cc2>
    3959: 84 29        	sty	$29                     ; 0x2029 <main+0x1cc0>
    395b: a4 2b        	ldy	$2b                     ; 0x202b <main+0x1cc2>
    395d: 84 19        	sty	$19                     ; 0x2019 <main+0x1cb0>
    395f: a4 1a        	ldy	$1a                     ; 0x201a <main+0x1cb1>
    3961: 84 2b        	sty	$2b                     ; 0x202b <main+0x1cc2>
    3963: a0 01        	ldy	#$1
    3965: a5 1a        	lda	$1a                     ; 0x201a <main+0x1cb1>
    3967: 91 18        	sta	($18),y                 ; 0x2018 <main+0x1caf>
    3969: 86 1a        	stx	$1a                     ; 0x201a <main+0x1cb1>
    396b: a6 2d        	ldx	$2d                     ; 0x202d <main+0x1cc4>
    396d: 86 1b        	stx	$1b                     ; 0x201b <main+0x1cb2>
    396f: a5 2c        	lda	$2c                     ; 0x202c <main+0x1cc3>
    3971: 92 1a        	sta	($1a)                   ; 0x201a <main+0x1cb1>
    3973: a5 2b        	lda	$2b                     ; 0x202b <main+0x1cc2>
    3975: 91 1a        	sta	($1a),y                 ; 0x201a <main+0x1cb1>
    3977: b1 18        	lda	($18),y                 ; 0x2018 <main+0x1caf>
    3979: 85 18        	sta	$18                     ; 0x2018 <main+0x1caf>
    397b: a9 fe        	lda	#$fe
    397d: a0 08        	ldy	#$8
    397f: 31 14        	and	($14),y                 ; 0x2014 <main+0x1cab>
    3981: 18           	clc
    3982: 65 67        	adc	$67                     ; 0x2067 <main+0x1cfe>
    3984: aa           	tax
    3985: a5 18        	lda	$18                     ; 0x2018 <main+0x1caf>
    3987: 65 68        	adc	$68                     ; 0x2068 <main+0x1cff>
    3989: 85 18        	sta	$18                     ; 0x2018 <main+0x1caf>
    398b: 18           	clc
    398c: 8a           	txa
    398d: 69 fe        	adc	#$fe
    398f: 85 19        	sta	$19                     ; 0x2019 <main+0x1cb0>
    3991: a5 18        	lda	$18                     ; 0x2018 <main+0x1caf>
    3993: 69 ff        	adc	#$ff
    3995: a6 19        	ldx	$19                     ; 0x2019 <main+0x1cb0>
    3997: 86 67        	stx	$67                     ; 0x2067 <main+0x1cfe>
    3999: 85 68        	sta	$68                     ; 0x2068 <main+0x1cff>
    399b: a6 17        	ldx	$17                     ; 0x2017 <main+0x1cae>
    399d: e4 1f        	cpx	$1f                     ; 0x201f <main+0x1cb6>
    399f: f0 03        	beq	$39a4 <main+0x363b>
    39a1: 4c e8 3b     	jmp	$3be8 <main+0x387f>
    39a4: a6 16        	ldx	$16                     ; 0x2016 <main+0x1cad>
    39a6: e4 1e        	cpx	$1e                     ; 0x201e <main+0x1cb5>
    39a8: f0 03        	beq	$39ad <main+0x3644>
    39aa: 4c e8 3b     	jmp	$3be8 <main+0x387f>
    39ad: 18           	clc
    39ae: a5 14        	lda	$14                     ; 0x2014 <main+0x1cab>
    39b0: 69 0c        	adc	#$c
    39b2: 85 16        	sta	$16                     ; 0x2016 <main+0x1cad>
    39b4: a5 15        	lda	$15                     ; 0x2015 <main+0x1cac>
    39b6: 69 00        	adc	#$0
    39b8: 85 17        	sta	$17                     ; 0x2017 <main+0x1cae>
    39ba: 18           	clc
    39bb: a5 14        	lda	$14                     ; 0x2014 <main+0x1cab>
    39bd: 69 0a        	adc	#$a
    39bf: 85 18        	sta	$18                     ; 0x2018 <main+0x1caf>
    39c1: a5 15        	lda	$15                     ; 0x2015 <main+0x1cac>
    39c3: 69 00        	adc	#$0
    39c5: 85 19        	sta	$19                     ; 0x2019 <main+0x1cb0>
    39c7: a0 0c        	ldy	#$c
    39c9: a5 2a        	lda	$2a                     ; 0x202a <main+0x1cc1>
    39cb: 91 14        	sta	($14),y                 ; 0x2014 <main+0x1cab>
    39cd: a0 0a        	ldy	#$a
    39cf: 91 14        	sta	($14),y                 ; 0x2014 <main+0x1cab>
    39d1: 85 69        	sta	$69                     ; 0x2069 <main+0x1d00>
    39d3: a0 01        	ldy	#$1
    39d5: a5 29        	lda	$29                     ; 0x2029 <main+0x1cc0>
    39d7: 91 16        	sta	($16),y                 ; 0x2016 <main+0x1cad>
    39d9: 91 18        	sta	($18),y                 ; 0x2018 <main+0x1caf>
    39db: 85 6a        	sta	$6a                     ; 0x206a <main+0x1d01>
    39dd: 4c 7f 3c     	jmp	$3c7f <main+0x3916>
    39e0: a0 0b        	ldy	#$b
    39e2: b1 26        	lda	($26),y                 ; 0x2026 <main+0x1cbd>
    39e4: aa           	tax
    39e5: b1 26        	lda	($26),y                 ; 0x2026 <main+0x1cbd>
    39e7: 8d a5 80     	sta	$80a5                   ; 0x80a5 <fpr+0xd>
    39ea: 8a           	txa
    39eb: d0 03        	bne	$39f0 <main+0x3687>
    39ed: 4c a1 3d     	jmp	$3da1 <main+0x3a38>
    39f0: a0 0c        	ldy	#$c
    39f2: b1 26        	lda	($26),y                 ; 0x2026 <main+0x1cbd>
    39f4: aa           	tax
    39f5: b1 26        	lda	($26),y                 ; 0x2026 <main+0x1cbd>
    39f7: 8d a6 80     	sta	$80a6                   ; 0x80a6 <fpr+0xe>
    39fa: 8a           	txa
    39fb: d0 03        	bne	$3a00 <main+0x3697>
    39fd: 4c 88 42     	jmp	$4288 <main+0x3f1f>
    3a00: a0 0d        	ldy	#$d
    3a02: b1 26        	lda	($26),y                 ; 0x2026 <main+0x1cbd>
    3a04: aa           	tax
    3a05: b1 26        	lda	($26),y                 ; 0x2026 <main+0x1cbd>
    3a07: 8d a7 80     	sta	$80a7                   ; 0x80a7 <fpr+0xf>
    3a0a: 8a           	txa
    3a0b: d0 03        	bne	$3a10 <main+0x36a7>
    3a0d: 4c 8d 42     	jmp	$428d <main+0x3f24>
    3a10: a0 0e        	ldy	#$e
    3a12: b1 26        	lda	($26),y                 ; 0x2026 <main+0x1cbd>
    3a14: aa           	tax
    3a15: b1 26        	lda	($26),y                 ; 0x2026 <main+0x1cbd>
    3a17: 8d a8 80     	sta	$80a8                   ; 0x80a8 <fpr+0x10>
    3a1a: 8a           	txa
    3a1b: d0 03        	bne	$3a20 <main+0x36b7>
    3a1d: 4c 92 42     	jmp	$4292 <main+0x3f29>
    3a20: a0 0f        	ldy	#$f
    3a22: b1 26        	lda	($26),y                 ; 0x2026 <main+0x1cbd>
    3a24: aa           	tax
    3a25: b1 26        	lda	($26),y                 ; 0x2026 <main+0x1cbd>
    3a27: 8d a9 80     	sta	$80a9                   ; 0x80a9 <fpr+0x11>
    3a2a: 8a           	txa
    3a2b: d0 03        	bne	$3a30 <main+0x36c7>
    3a2d: 4c 73 45     	jmp	$4573 <main+0x420a>
    3a30: a0 10        	ldy	#$10
    3a32: b1 26        	lda	($26),y                 ; 0x2026 <main+0x1cbd>
    3a34: aa           	tax
    3a35: b1 26        	lda	($26),y                 ; 0x2026 <main+0x1cbd>
    3a37: 8d aa 80     	sta	$80aa                   ; 0x80aa <fpr+0x12>
    3a3a: 8a           	txa
    3a3b: d0 03        	bne	$3a40 <main+0x36d7>
    3a3d: 4c 78 45     	jmp	$4578 <main+0x420f>
    3a40: a0 11        	ldy	#$11
    3a42: b1 26        	lda	($26),y                 ; 0x2026 <main+0x1cbd>
    3a44: aa           	tax
    3a45: b1 26        	lda	($26),y                 ; 0x2026 <main+0x1cbd>
    3a47: 8d ab 80     	sta	$80ab                   ; 0x80ab <fpr+0x13>
    3a4a: 8a           	txa
    3a4b: d0 03        	bne	$3a50 <main+0x36e7>
    3a4d: 4c 7d 45     	jmp	$457d <main+0x4214>
    3a50: a0 12        	ldy	#$12
    3a52: b1 26        	lda	($26),y                 ; 0x2026 <main+0x1cbd>
    3a54: aa           	tax
    3a55: b1 26        	lda	($26),y                 ; 0x2026 <main+0x1cbd>
    3a57: 8d ac 80     	sta	$80ac                   ; 0x80ac <fpr+0x14>
    3a5a: 8a           	txa
    3a5b: d0 03        	bne	$3a60 <main+0x36f7>
    3a5d: 4c 82 45     	jmp	$4582 <main+0x4219>
    3a60: a0 13        	ldy	#$13
    3a62: b1 26        	lda	($26),y                 ; 0x2026 <main+0x1cbd>
    3a64: aa           	tax
    3a65: b1 26        	lda	($26),y                 ; 0x2026 <main+0x1cbd>
    3a67: 8d ad 80     	sta	$80ad                   ; 0x80ad <fpr+0x15>
    3a6a: 8a           	txa
    3a6b: d0 03        	bne	$3a70 <main+0x3707>
    3a6d: 4c 87 45     	jmp	$4587 <main+0x421e>
    3a70: a0 14        	ldy	#$14
    3a72: b1 26        	lda	($26),y                 ; 0x2026 <main+0x1cbd>
    3a74: aa           	tax
    3a75: b1 26        	lda	($26),y                 ; 0x2026 <main+0x1cbd>
    3a77: 8d ae 80     	sta	$80ae                   ; 0x80ae <fpr+0x16>
    3a7a: 8a           	txa
    3a7b: d0 03        	bne	$3a80 <main+0x3717>
    3a7d: 4c 8c 45     	jmp	$458c <main+0x4223>
    3a80: a0 15        	ldy	#$15
    3a82: b1 26        	lda	($26),y                 ; 0x2026 <main+0x1cbd>
    3a84: aa           	tax
    3a85: b1 26        	lda	($26),y                 ; 0x2026 <main+0x1cbd>
    3a87: 8d af 80     	sta	$80af                   ; 0x80af <fpr+0x17>
    3a8a: 8a           	txa
    3a8b: d0 03        	bne	$3a90 <main+0x3727>
    3a8d: 4c 91 45     	jmp	$4591 <main+0x4228>
    3a90: a0 16        	ldy	#$16
    3a92: b1 26        	lda	($26),y                 ; 0x2026 <main+0x1cbd>
    3a94: aa           	tax
    3a95: b1 26        	lda	($26),y                 ; 0x2026 <main+0x1cbd>
    3a97: 8d b0 80     	sta	$80b0                   ; 0x80b0 <fpr+0x18>
    3a9a: 8a           	txa
    3a9b: d0 03        	bne	$3aa0 <main+0x3737>
    3a9d: 4c 96 45     	jmp	$4596 <main+0x422d>
    3aa0: a0 17        	ldy	#$17
    3aa2: b1 26        	lda	($26),y                 ; 0x2026 <main+0x1cbd>
    3aa4: aa           	tax
    3aa5: b1 26        	lda	($26),y                 ; 0x2026 <main+0x1cbd>
    3aa7: 8d b1 80     	sta	$80b1                   ; 0x80b1 <fpr+0x19>
    3aaa: 8a           	txa
    3aab: d0 03        	bne	$3ab0 <main+0x3747>
    3aad: 4c 9b 45     	jmp	$459b <main+0x4232>
    3ab0: a0 18        	ldy	#$18
    3ab2: b1 26        	lda	($26),y                 ; 0x2026 <main+0x1cbd>
    3ab4: aa           	tax
    3ab5: b1 26        	lda	($26),y                 ; 0x2026 <main+0x1cbd>
    3ab7: 8d b2 80     	sta	$80b2                   ; 0x80b2 <fpr+0x1a>
    3aba: 8a           	txa
    3abb: d0 03        	bne	$3ac0 <main+0x3757>
    3abd: 4c a0 45     	jmp	$45a0 <main+0x4237>
    3ac0: a0 19        	ldy	#$19
    3ac2: b1 26        	lda	($26),y                 ; 0x2026 <main+0x1cbd>
    3ac4: aa           	tax
    3ac5: b1 26        	lda	($26),y                 ; 0x2026 <main+0x1cbd>
    3ac7: 8d b3 80     	sta	$80b3                   ; 0x80b3 <fpr+0x1b>
    3aca: 8a           	txa
    3acb: d0 03        	bne	$3ad0 <main+0x3767>
    3acd: 4c a5 45     	jmp	$45a5 <main+0x423c>
    3ad0: a0 1a        	ldy	#$1a
    3ad2: b1 26        	lda	($26),y                 ; 0x2026 <main+0x1cbd>
    3ad4: aa           	tax
    3ad5: b1 26        	lda	($26),y                 ; 0x2026 <main+0x1cbd>
    3ad7: 8d b4 80     	sta	$80b4                   ; 0x80b4 <fpr+0x1c>
    3ada: 8a           	txa
    3adb: d0 03        	bne	$3ae0 <main+0x3777>
    3add: 4c aa 45     	jmp	$45aa <main+0x4241>
    3ae0: a0 1b        	ldy	#$1b
    3ae2: b1 26        	lda	($26),y                 ; 0x2026 <main+0x1cbd>
    3ae4: aa           	tax
    3ae5: b1 26        	lda	($26),y                 ; 0x2026 <main+0x1cbd>
    3ae7: 8d b5 80     	sta	$80b5                   ; 0x80b5 <fpr+0x1d>
    3aea: 8a           	txa
    3aeb: d0 03        	bne	$3af0 <main+0x3787>
    3aed: 4c af 45     	jmp	$45af <main+0x4246>
    3af0: a0 1c        	ldy	#$1c
    3af2: b1 26        	lda	($26),y                 ; 0x2026 <main+0x1cbd>
    3af4: aa           	tax
    3af5: b1 26        	lda	($26),y                 ; 0x2026 <main+0x1cbd>
    3af7: 8d b6 80     	sta	$80b6                   ; 0x80b6 <fpr+0x1e>
    3afa: 8a           	txa
    3afb: d0 03        	bne	$3b00 <main+0x3797>
    3afd: 4c b4 45     	jmp	$45b4 <main+0x424b>
    3b00: a0 3d        	ldy	#$3d
    3b02: b1 10        	lda	($10),y                 ; 0x2010 <main+0x1ca7>
    3b04: 85 14        	sta	$14                     ; 0x2014 <main+0x1cab>
    3b06: c8           	iny
    3b07: b1 10        	lda	($10),y                 ; 0x2010 <main+0x1ca7>
    3b09: 85 15        	sta	$15                     ; 0x2015 <main+0x1cac>
    3b0b: a0 1d        	ldy	#$1d
    3b0d: b1 14        	lda	($14),y                 ; 0x2014 <main+0x1cab>
    3b0f: aa           	tax
    3b10: b1 14        	lda	($14),y                 ; 0x2014 <main+0x1cab>
    3b12: 8d b7 80     	sta	$80b7                   ; 0x80b7 <fpr+0x1f>
    3b15: 8a           	txa
    3b16: d0 03        	bne	$3b1b <main+0x37b2>
    3b18: 4c b9 45     	jmp	$45b9 <main+0x4250>
    3b1b: a0 3d        	ldy	#$3d
    3b1d: b1 10        	lda	($10),y                 ; 0x2010 <main+0x1ca7>
    3b1f: 85 14        	sta	$14                     ; 0x2014 <main+0x1cab>
    3b21: c8           	iny
    3b22: b1 10        	lda	($10),y                 ; 0x2010 <main+0x1ca7>
    3b24: 85 15        	sta	$15                     ; 0x2015 <main+0x1cac>
    3b26: a0 1e        	ldy	#$1e
    3b28: b1 14        	lda	($14),y                 ; 0x2014 <main+0x1cab>
    3b2a: aa           	tax
    3b2b: b1 14        	lda	($14),y                 ; 0x2014 <main+0x1cab>
    3b2d: 8d b8 80     	sta	$80b8                   ; 0x80b8 <fpr+0x20>
    3b30: 8a           	txa
    3b31: d0 03        	bne	$3b36 <main+0x37cd>
    3b33: 4c be 45     	jmp	$45be <main+0x4255>
    3b36: a0 3d        	ldy	#$3d
    3b38: b1 10        	lda	($10),y                 ; 0x2010 <main+0x1ca7>
    3b3a: 85 12        	sta	$12                     ; 0x2012 <main+0x1ca9>
    3b3c: c8           	iny
    3b3d: b1 10        	lda	($10),y                 ; 0x2010 <main+0x1ca7>
    3b3f: 85 13        	sta	$13                     ; 0x2013 <main+0x1caa>
    3b41: a0 1f        	ldy	#$1f
    3b43: b1 12        	lda	($12),y                 ; 0x2012 <main+0x1ca9>
    3b45: 8d b9 80     	sta	$80b9                   ; 0x80b9 <fpr+0x21>
    3b48: 4c db 13     	jmp	$13db <main+0x1072>
    3b4b: a2 16        	ldx	#$16
    3b4d: 4c bc 13     	jmp	$13bc <main+0x1053>
    3b50: a6 16        	ldx	$16                     ; 0x2016 <main+0x1cad>
    3b52: e4 14        	cpx	$14                     ; 0x2014 <main+0x1cab>
    3b54: f0 03        	beq	$3b59 <main+0x37f0>
    3b56: 4c 48 2d     	jmp	$2d48 <main+0x29df>
    3b59: a6 18        	ldx	$18                     ; 0x2018 <main+0x1caf>
    3b5b: a4 19        	ldy	$19                     ; 0x2019 <main+0x1cb0>
    3b5d: 86 69        	stx	$69                     ; 0x2069 <main+0x1d00>
    3b5f: 84 6a        	sty	$6a                     ; 0x206a <main+0x1d01>
    3b61: a6 18        	ldx	$18                     ; 0x2018 <main+0x1caf>
    3b63: 86 16        	stx	$16                     ; 0x2016 <main+0x1cad>
    3b65: a6 19        	ldx	$19                     ; 0x2019 <main+0x1cb0>
    3b67: 86 17        	stx	$17                     ; 0x2017 <main+0x1cae>
    3b69: a0 01        	ldy	#$1
    3b6b: 4c 48 2d     	jmp	$2d48 <main+0x29df>
    3b6e: a4 19        	ldy	$19                     ; 0x2019 <main+0x1cb0>
    3b70: 8c d2 92     	sty	$92d2                   ; 0x92d2 <__heap_start+0x2>
    3b73: 8d d3 92     	sta	$92d3                   ; 0x92d3 <__heap_start+0x3>
    3b76: 85 13        	sta	$13                     ; 0x2013 <main+0x1caa>
    3b78: 18           	clc
    3b79: a5 19        	lda	$19                     ; 0x2019 <main+0x1cb0>
    3b7b: 69 04        	adc	#$4
    3b7d: 85 12        	sta	$12                     ; 0x2012 <main+0x1ca9>
    3b7f: a5 13        	lda	$13                     ; 0x2013 <main+0x1caa>
    3b81: 69 00        	adc	#$0
    3b83: 85 13        	sta	$13                     ; 0x2013 <main+0x1caa>
    3b85: a0 04        	ldy	#$4
    3b87: b1 16        	lda	($16),y                 ; 0x2016 <main+0x1cad>
    3b89: 85 15        	sta	$15                     ; 0x2015 <main+0x1cac>
    3b8b: a0 01        	ldy	#$1
    3b8d: b1 12        	lda	($12),y                 ; 0x2012 <main+0x1ca9>
    3b8f: 85 14        	sta	$14                     ; 0x2014 <main+0x1cab>
    3b91: a5 15        	lda	$15                     ; 0x2015 <main+0x1cac>
    3b93: 85 12        	sta	$12                     ; 0x2012 <main+0x1ca9>
    3b95: a4 14        	ldy	$14                     ; 0x2014 <main+0x1cab>
    3b97: 84 13        	sty	$13                     ; 0x2013 <main+0x1caa>
    3b99: 8d d4 92     	sta	$92d4                   ; 0x92d4 <__heap_start+0x4>
    3b9c: a4 14        	ldy	$14                     ; 0x2014 <main+0x1cab>
    3b9e: 8c d5 92     	sty	$92d5                   ; 0x92d5 <__heap_start+0x5>
    3ba1: 18           	clc
    3ba2: 69 02        	adc	#$2
    3ba4: a8           	tay
    3ba5: a5 14        	lda	$14                     ; 0x2014 <main+0x1cab>
    3ba7: 69 00        	adc	#$0
    3ba9: 84 14        	sty	$14                     ; 0x2014 <main+0x1cab>
    3bab: 85 15        	sta	$15                     ; 0x2015 <main+0x1cac>
    3bad: a9 d0        	lda	#$d0
    3baf: a0 02        	ldy	#$2
    3bb1: 91 12        	sta	($12),y                 ; 0x2012 <main+0x1ca9>
    3bb3: a9 92        	lda	#$92
    3bb5: 88           	dey
    3bb6: 91 14        	sta	($14),y                 ; 0x2014 <main+0x1cab>
    3bb8: ad d2 92     	lda	$92d2                   ; 0x92d2 <__heap_start+0x2>
    3bbb: ac d3 92     	ldy	$92d3                   ; 0x92d3 <__heap_start+0x3>
    3bbe: 85 12        	sta	$12                     ; 0x2012 <main+0x1ca9>
    3bc0: 84 13        	sty	$13                     ; 0x2013 <main+0x1caa>
    3bc2: 18           	clc
    3bc3: 69 04        	adc	#$4
    3bc5: 85 14        	sta	$14                     ; 0x2014 <main+0x1cab>
    3bc7: 98           	tya
    3bc8: 69 00        	adc	#$0
    3bca: 85 15        	sta	$15                     ; 0x2015 <main+0x1cac>
    3bcc: a0 04        	ldy	#$4
    3bce: a9 d0        	lda	#$d0
    3bd0: 91 12        	sta	($12),y                 ; 0x2012 <main+0x1ca9>
    3bd2: a0 01        	ldy	#$1
    3bd4: a9 92        	lda	#$92
    3bd6: 91 14        	sta	($14),y                 ; 0x2014 <main+0x1cab>
    3bd8: a5 18        	lda	$18                     ; 0x2018 <main+0x1caf>
    3bda: 8d d0 92     	sta	$92d0                   ; 0x92d0 <__heap_start>
    3bdd: 8e d1 92     	stx	$92d1                   ; 0x92d1 <__heap_start+0x1>
    3be0: 84 66        	sty	$66                     ; 0x2066 <main+0x1cfd>
    3be2: 8c ce 92     	sty	$92ce                   ; 0x92ce <_ZN12_GLOBAL__N_111initializedE>
    3be5: 4c 17 2c     	jmp	$2c17 <main+0x28ae>
    3be8: 18           	clc
    3be9: a5 14        	lda	$14                     ; 0x2014 <main+0x1cab>
    3beb: 69 0a        	adc	#$a
    3bed: 85 18        	sta	$18                     ; 0x2018 <main+0x1caf>
    3bef: a5 15        	lda	$15                     ; 0x2015 <main+0x1cac>
    3bf1: 69 00        	adc	#$0
    3bf3: 85 19        	sta	$19                     ; 0x2019 <main+0x1cb0>
    3bf5: a5 16        	lda	$16                     ; 0x2016 <main+0x1cad>
    3bf7: a0 0a        	ldy	#$a
    3bf9: 91 14        	sta	($14),y                 ; 0x2014 <main+0x1cab>
    3bfb: 85 1b        	sta	$1b                     ; 0x201b <main+0x1cb2>
    3bfd: a5 17        	lda	$17                     ; 0x2017 <main+0x1cae>
    3bff: a0 01        	ldy	#$1
    3c01: 91 18        	sta	($18),y                 ; 0x2018 <main+0x1caf>
    3c03: 18           	clc
    3c04: a5 1b        	lda	$1b                     ; 0x201b <main+0x1cb2>
    3c06: 69 04        	adc	#$4
    3c08: a8           	tay
    3c09: a5 17        	lda	$17                     ; 0x2017 <main+0x1cae>
    3c0b: 69 00        	adc	#$0
    3c0d: 84 1a        	sty	$1a                     ; 0x201a <main+0x1cb1>
    3c0f: 85 1b        	sta	$1b                     ; 0x201b <main+0x1cb2>
    3c11: a0 04        	ldy	#$4
    3c13: b1 16        	lda	($16),y                 ; 0x2016 <main+0x1cad>
    3c15: 85 1f        	sta	$1f                     ; 0x201f <main+0x1cb6>
    3c17: 18           	clc
    3c18: a5 14        	lda	$14                     ; 0x2014 <main+0x1cab>
    3c1a: 69 0c        	adc	#$c
    3c1c: 85 2b        	sta	$2b                     ; 0x202b <main+0x1cc2>
    3c1e: a5 15        	lda	$15                     ; 0x2015 <main+0x1cac>
    3c20: 69 00        	adc	#$0
    3c22: aa           	tax
    3c23: a0 01        	ldy	#$1
    3c25: b1 1a        	lda	($1a),y                 ; 0x201a <main+0x1cb1>
    3c27: a4 1f        	ldy	$1f                     ; 0x201f <main+0x1cb6>
    3c29: 84 16        	sty	$16                     ; 0x2016 <main+0x1cad>
    3c2b: 85 17        	sta	$17                     ; 0x2017 <main+0x1cae>
    3c2d: 85 1e        	sta	$1e                     ; 0x201e <main+0x1cb5>
    3c2f: a4 2b        	ldy	$2b                     ; 0x202b <main+0x1cc2>
    3c31: 84 1a        	sty	$1a                     ; 0x201a <main+0x1cb1>
    3c33: 86 1b        	stx	$1b                     ; 0x201b <main+0x1cb2>
    3c35: a0 0c        	ldy	#$c
    3c37: a5 1f        	lda	$1f                     ; 0x201f <main+0x1cb6>
    3c39: 91 14        	sta	($14),y                 ; 0x2014 <main+0x1cab>
    3c3b: a0 01        	ldy	#$1
    3c3d: a5 1e        	lda	$1e                     ; 0x201e <main+0x1cb5>
    3c3f: 91 1a        	sta	($1a),y                 ; 0x201a <main+0x1cb1>
    3c41: 18           	clc
    3c42: a5 1f        	lda	$1f                     ; 0x201f <main+0x1cb6>
    3c44: 69 02        	adc	#$2
    3c46: 85 1a        	sta	$1a                     ; 0x201a <main+0x1cb1>
    3c48: a5 1e        	lda	$1e                     ; 0x201e <main+0x1cb5>
    3c4a: 69 00        	adc	#$0
    3c4c: 85 1b        	sta	$1b                     ; 0x201b <main+0x1cb2>
    3c4e: c8           	iny
    3c4f: a5 2a        	lda	$2a                     ; 0x202a <main+0x1cc1>
    3c51: 91 16        	sta	($16),y                 ; 0x2016 <main+0x1cad>
    3c53: 88           	dey
    3c54: a5 29        	lda	$29                     ; 0x2029 <main+0x1cc0>
    3c56: 91 1a        	sta	($1a),y                 ; 0x201a <main+0x1cb1>
    3c58: 85 1a        	sta	$1a                     ; 0x201a <main+0x1cb1>
    3c5a: a0 0a        	ldy	#$a
    3c5c: b1 14        	lda	($14),y                 ; 0x2014 <main+0x1cab>
    3c5e: 85 16        	sta	$16                     ; 0x2016 <main+0x1cad>
    3c60: a0 01        	ldy	#$1
    3c62: b1 18        	lda	($18),y                 ; 0x2018 <main+0x1caf>
    3c64: a8           	tay
    3c65: a5 16        	lda	$16                     ; 0x2016 <main+0x1cad>
    3c67: 84 17        	sty	$17                     ; 0x2017 <main+0x1cae>
    3c69: 18           	clc
    3c6a: 69 04        	adc	#$4
    3c6c: 85 18        	sta	$18                     ; 0x2018 <main+0x1caf>
    3c6e: 98           	tya
    3c6f: 69 00        	adc	#$0
    3c71: 85 19        	sta	$19                     ; 0x2019 <main+0x1cb0>
    3c73: a0 04        	ldy	#$4
    3c75: a5 2a        	lda	$2a                     ; 0x202a <main+0x1cc1>
    3c77: 91 16        	sta	($16),y                 ; 0x2016 <main+0x1cad>
    3c79: a0 01        	ldy	#$1
    3c7b: a5 1a        	lda	$1a                     ; 0x201a <main+0x1cb1>
    3c7d: 91 18        	sta	($18),y                 ; 0x2018 <main+0x1caf>
    3c7f: a9 01        	lda	#$1
    3c81: 32 14        	and	($14)                   ; 0x2014 <main+0x1cab>
    3c83: 09 08        	ora	#$8
    3c85: 92 14        	sta	($14)                   ; 0x2014 <main+0x1cab>
    3c87: a2 08        	ldx	#$8
    3c89: a9 00        	lda	#$0
    3c8b: 64 19        	stz	$19                     ; 0x2019 <main+0x1cb0>
    3c8d: 91 14        	sta	($14),y                 ; 0x2014 <main+0x1cab>
    3c8f: 4c 22 2c     	jmp	$2c22 <main+0x28b9>
    3c92: a4 5c        	ldy	$5c                     ; 0x205c <main+0x1cf3>
    3c94: a6 5d        	ldx	$5d                     ; 0x205d <main+0x1cf4>
    3c96: 84 12        	sty	$12                     ; 0x2012 <main+0x1ca9>
    3c98: 86 13        	stx	$13                     ; 0x2013 <main+0x1caa>
    3c9a: 86 16        	stx	$16                     ; 0x2016 <main+0x1cad>
    3c9c: b2 12        	lda	($12)                   ; 0x2012 <main+0x1ca9>
    3c9e: 85 f3        	sta	$f3                     ; 0x20f3 <main+0x1d8a>
    3ca0: a2 5e        	ldx	#$5e
    3ca2: 86 14        	stx	$14                     ; 0x2014 <main+0x1cab>
    3ca4: a2 00        	ldx	#$0
    3ca6: 86 15        	stx	$15                     ; 0x2015 <main+0x1cac>
    3ca8: 84 1c        	sty	$1c                     ; 0x201c <main+0x1cb3>
    3caa: 98           	tya
    3cab: 18           	clc
    3cac: 69 fe        	adc	#$fe
    3cae: aa           	tax
    3caf: a5 16        	lda	$16                     ; 0x2016 <main+0x1cad>
    3cb1: 85 1d        	sta	$1d                     ; 0x201d <main+0x1cb4>
    3cb3: 69 ff        	adc	#$ff
    3cb5: 85 16        	sta	$16                     ; 0x2016 <main+0x1cad>
    3cb7: 86 12        	stx	$12                     ; 0x2012 <main+0x1ca9>
    3cb9: 85 13        	sta	$13                     ; 0x2013 <main+0x1caa>
    3cbb: a0 01        	ldy	#$1
    3cbd: 20 68 ff     	jsr	$ff68 <__heap_start+0x6c98>
    3cc0: 92 26        	sta	($26)                   ; 0x2026 <main+0x1cbd>
    3cc2: a9 00        	lda	#$0
    3cc4: 6a           	ror
    3cc5: 85 14        	sta	$14                     ; 0x2014 <main+0x1cab>
    3cc7: b1 12        	lda	($12),y                 ; 0x2012 <main+0x1ca9>
    3cc9: 85 14        	sta	$14                     ; 0x2014 <main+0x1cab>
    3ccb: a9 fe        	lda	#$fe
    3ccd: 32 12        	and	($12)                   ; 0x2012 <main+0x1ca9>
    3ccf: 85 15        	sta	$15                     ; 0x2015 <main+0x1cac>
    3cd1: 86 1a        	stx	$1a                     ; 0x201a <main+0x1cb1>
    3cd3: 8a           	txa
    3cd4: 18           	clc
    3cd5: 65 15        	adc	$15                     ; 0x2015 <main+0x1cac>
    3cd7: 85 17        	sta	$17                     ; 0x2017 <main+0x1cae>
    3cd9: a6 16        	ldx	$16                     ; 0x2016 <main+0x1cad>
    3cdb: 86 1b        	stx	$1b                     ; 0x201b <main+0x1cb2>
    3cdd: a5 16        	lda	$16                     ; 0x2016 <main+0x1cad>
    3cdf: 65 14        	adc	$14                     ; 0x2014 <main+0x1cab>
    3ce1: a8           	tay
    3ce2: b2 12        	lda	($12)                   ; 0x2012 <main+0x1ca9>
    3ce4: 48           	pha
    3ce5: 5a           	phy
    3ce6: a0 18        	ldy	#$18
    3ce8: b1 10        	lda	($10),y                 ; 0x2010 <main+0x1ca7>
    3cea: 7a           	ply
    3ceb: 85 16        	sta	$16                     ; 0x2016 <main+0x1cad>
    3ced: 68           	pla
    3cee: c4 16        	cpy	$16                     ; 0x2016 <main+0x1cad>
    3cf0: f0 03        	beq	$3cf5 <main+0x398c>
    3cf2: 4c a6 3d     	jmp	$3da6 <main+0x3a3d>
    3cf5: 48           	pha
    3cf6: 5a           	phy
    3cf7: a0 13        	ldy	#$13
    3cf9: b1 10        	lda	($10),y                 ; 0x2010 <main+0x1ca7>
    3cfb: 7a           	ply
    3cfc: 85 16        	sta	$16                     ; 0x2016 <main+0x1cad>
    3cfe: 68           	pla
    3cff: a6 17        	ldx	$17                     ; 0x2017 <main+0x1cae>
    3d01: e4 16        	cpx	$16                     ; 0x2016 <main+0x1cad>
    3d03: f0 03        	beq	$3d08 <main+0x399f>
    3d05: 4c a8 3d     	jmp	$3da8 <main+0x3a3f>
    3d08: a2 00        	ldx	#$0
    3d0a: 86 16        	stx	$16                     ; 0x2016 <main+0x1cad>
    3d0c: a2 00        	ldx	#$0
    3d0e: 86 17        	stx	$17                     ; 0x2017 <main+0x1cae>
    3d10: 4c ac 3d     	jmp	$3dac <main+0x3a43>
    3d13: a4 5c        	ldy	$5c                     ; 0x205c <main+0x1cf3>
    3d15: a6 5d        	ldx	$5d                     ; 0x205d <main+0x1cf4>
    3d17: 84 12        	sty	$12                     ; 0x2012 <main+0x1ca9>
    3d19: 86 13        	stx	$13                     ; 0x2013 <main+0x1caa>
    3d1b: 86 16        	stx	$16                     ; 0x2016 <main+0x1cad>
    3d1d: b2 12        	lda	($12)                   ; 0x2012 <main+0x1ca9>
    3d1f: 85 f3        	sta	$f3                     ; 0x20f3 <main+0x1d8a>
    3d21: a2 5e        	ldx	#$5e
    3d23: 86 14        	stx	$14                     ; 0x2014 <main+0x1cab>
    3d25: a2 00        	ldx	#$0
    3d27: 86 15        	stx	$15                     ; 0x2015 <main+0x1cac>
    3d29: 84 1c        	sty	$1c                     ; 0x201c <main+0x1cb3>
    3d2b: 98           	tya
    3d2c: 18           	clc
    3d2d: 69 fe        	adc	#$fe
    3d2f: aa           	tax
    3d30: a5 16        	lda	$16                     ; 0x2016 <main+0x1cad>
    3d32: 85 1d        	sta	$1d                     ; 0x201d <main+0x1cb4>
    3d34: 69 ff        	adc	#$ff
    3d36: 85 16        	sta	$16                     ; 0x2016 <main+0x1cad>
    3d38: 86 12        	stx	$12                     ; 0x2012 <main+0x1ca9>
    3d3a: 85 13        	sta	$13                     ; 0x2013 <main+0x1caa>
    3d3c: a0 01        	ldy	#$1
    3d3e: 20 68 ff     	jsr	$ff68 <__heap_start+0x6c98>
    3d41: 92 26        	sta	($26)                   ; 0x2026 <main+0x1cbd>
    3d43: a9 00        	lda	#$0
    3d45: 6a           	ror
    3d46: 85 14        	sta	$14                     ; 0x2014 <main+0x1cab>
    3d48: b1 12        	lda	($12),y                 ; 0x2012 <main+0x1ca9>
    3d4a: 85 14        	sta	$14                     ; 0x2014 <main+0x1cab>
    3d4c: a9 fe        	lda	#$fe
    3d4e: 32 12        	and	($12)                   ; 0x2012 <main+0x1ca9>
    3d50: 85 15        	sta	$15                     ; 0x2015 <main+0x1cac>
    3d52: 86 1a        	stx	$1a                     ; 0x201a <main+0x1cb1>
    3d54: 8a           	txa
    3d55: 18           	clc
    3d56: 65 15        	adc	$15                     ; 0x2015 <main+0x1cac>
    3d58: 85 17        	sta	$17                     ; 0x2017 <main+0x1cae>
    3d5a: a6 16        	ldx	$16                     ; 0x2016 <main+0x1cad>
    3d5c: 86 1b        	stx	$1b                     ; 0x201b <main+0x1cb2>
    3d5e: a5 16        	lda	$16                     ; 0x2016 <main+0x1cad>
    3d60: 65 14        	adc	$14                     ; 0x2014 <main+0x1cab>
    3d62: a8           	tay
    3d63: b2 12        	lda	($12)                   ; 0x2012 <main+0x1ca9>
    3d65: 48           	pha
    3d66: 5a           	phy
    3d67: a0 18        	ldy	#$18
    3d69: b1 10        	lda	($10),y                 ; 0x2010 <main+0x1ca7>
    3d6b: 7a           	ply
    3d6c: 85 16        	sta	$16                     ; 0x2016 <main+0x1cad>
    3d6e: 68           	pla
    3d6f: c4 16        	cpy	$16                     ; 0x2016 <main+0x1cad>
    3d71: f0 03        	beq	$3d76 <main+0x3a0d>
    3d73: 4c 43 3e     	jmp	$3e43 <main+0x3ada>
    3d76: 48           	pha
    3d77: 5a           	phy
    3d78: a0 13        	ldy	#$13
    3d7a: b1 10        	lda	($10),y                 ; 0x2010 <main+0x1ca7>
    3d7c: 7a           	ply
    3d7d: 85 16        	sta	$16                     ; 0x2016 <main+0x1cad>
    3d7f: 68           	pla
    3d80: a6 17        	ldx	$17                     ; 0x2017 <main+0x1cae>
    3d82: e4 16        	cpx	$16                     ; 0x2016 <main+0x1cad>
    3d84: f0 03        	beq	$3d89 <main+0x3a20>
    3d86: 4c 45 3e     	jmp	$3e45 <main+0x3adc>
    3d89: a2 00        	ldx	#$0
    3d8b: 86 16        	stx	$16                     ; 0x2016 <main+0x1cad>
    3d8d: a2 00        	ldx	#$0
    3d8f: 86 17        	stx	$17                     ; 0x2017 <main+0x1cae>
    3d91: 4c 49 3e     	jmp	$3e49 <main+0x3ae0>
    3d94: 18           	clc
    3d95: 69 d0        	adc	#$d0
    3d97: 85 1a        	sta	$1a                     ; 0x201a <main+0x1cb1>
    3d99: 4c 8f 1a     	jmp	$1a8f <main+0x1726>
    3d9c: a2 15        	ldx	#$15
    3d9e: 4c bc 13     	jmp	$13bc <main+0x1053>
    3da1: a2 14        	ldx	#$14
    3da3: 4c bc 13     	jmp	$13bc <main+0x1053>
    3da6: a6 17        	ldx	$17                     ; 0x2017 <main+0x1cae>
    3da8: 86 16        	stx	$16                     ; 0x2016 <main+0x1cad>
    3daa: 84 17        	sty	$17                     ; 0x2017 <main+0x1cae>
    3dac: 29 01        	and	#$1
    3dae: d0 03        	bne	$3db3 <main+0x3a4a>
    3db0: 4c 76 3f     	jmp	$3f76 <main+0x3c0d>
    3db3: 18           	clc
    3db4: a5 1c        	lda	$1c                     ; 0x201c <main+0x1cb3>
    3db6: 69 fc        	adc	#$fc
    3db8: 85 12        	sta	$12                     ; 0x2012 <main+0x1ca9>
    3dba: a5 1d        	lda	$1d                     ; 0x201d <main+0x1cb4>
    3dbc: 69 ff        	adc	#$ff
    3dbe: 85 13        	sta	$13                     ; 0x2013 <main+0x1caa>
    3dc0: a0 01        	ldy	#$1
    3dc2: a9 00        	lda	#$0
    3dc4: 38           	sec
    3dc5: f2 12        	sbc	($12)                   ; 0x2012 <main+0x1ca9>
    3dc7: 85 18        	sta	$18                     ; 0x2018 <main+0x1caf>
    3dc9: a9 00        	lda	#$0
    3dcb: f1 12        	sbc	($12),y                 ; 0x2012 <main+0x1ca9>
    3dcd: 85 13        	sta	$13                     ; 0x2013 <main+0x1caa>
    3dcf: a5 1a        	lda	$1a                     ; 0x201a <main+0x1cb1>
    3dd1: 18           	clc
    3dd2: 65 18        	adc	$18                     ; 0x2018 <main+0x1caf>
    3dd4: 85 12        	sta	$12                     ; 0x2012 <main+0x1ca9>
    3dd6: 85 19        	sta	$19                     ; 0x2019 <main+0x1cb0>
    3dd8: a5 1b        	lda	$1b                     ; 0x201b <main+0x1cb2>
    3dda: 65 13        	adc	$13                     ; 0x2013 <main+0x1caa>
    3ddc: 85 13        	sta	$13                     ; 0x2013 <main+0x1caa>
    3dde: aa           	tax
    3ddf: b1 12        	lda	($12),y                 ; 0x2012 <main+0x1ca9>
    3de1: 85 1b        	sta	$1b                     ; 0x201b <main+0x1cb2>
    3de3: a9 fe        	lda	#$fe
    3de5: 32 12        	and	($12)                   ; 0x2012 <main+0x1ca9>
    3de7: a4 67        	ldy	$67                     ; 0x2067 <main+0x1cfe>
    3de9: 85 1d        	sta	$1d                     ; 0x201d <main+0x1cb4>
    3deb: 85 18        	sta	$18                     ; 0x2018 <main+0x1caf>
    3ded: 38           	sec
    3dee: 98           	tya
    3def: e5 18        	sbc	$18                     ; 0x2018 <main+0x1caf>
    3df1: 85 1a        	sta	$1a                     ; 0x201a <main+0x1cb1>
    3df3: a4 1b        	ldy	$1b                     ; 0x201b <main+0x1cb2>
    3df5: 84 1c        	sty	$1c                     ; 0x201c <main+0x1cb3>
    3df7: 84 18        	sty	$18                     ; 0x2018 <main+0x1caf>
    3df9: a5 68        	lda	$68                     ; 0x2068 <main+0x1cff>
    3dfb: e5 18        	sbc	$18                     ; 0x2018 <main+0x1caf>
    3dfd: a8           	tay
    3dfe: 18           	clc
    3dff: a5 1a        	lda	$1a                     ; 0x201a <main+0x1cb1>
    3e01: 69 02        	adc	#$2
    3e03: 85 18        	sta	$18                     ; 0x2018 <main+0x1caf>
    3e05: 98           	tya
    3e06: 69 00        	adc	#$0
    3e08: a4 18        	ldy	$18                     ; 0x2018 <main+0x1caf>
    3e0a: 84 67        	sty	$67                     ; 0x2067 <main+0x1cfe>
    3e0c: 85 68        	sta	$68                     ; 0x2068 <main+0x1cff>
    3e0e: a4 19        	ldy	$19                     ; 0x2019 <main+0x1cb0>
    3e10: 84 1a        	sty	$1a                     ; 0x201a <main+0x1cb1>
    3e12: a5 19        	lda	$19                     ; 0x2019 <main+0x1cb0>
    3e14: 18           	clc
    3e15: 69 02        	adc	#$2
    3e17: 85 18        	sta	$18                     ; 0x2018 <main+0x1caf>
    3e19: 86 1b        	stx	$1b                     ; 0x201b <main+0x1cb2>
    3e1b: 8a           	txa
    3e1c: 69 00        	adc	#$0
    3e1e: a0 02        	ldy	#$2
    3e20: 85 19        	sta	$19                     ; 0x2019 <main+0x1cb0>
    3e22: b1 12        	lda	($12),y                 ; 0x2012 <main+0x1ca9>
    3e24: aa           	tax
    3e25: 88           	dey
    3e26: b1 18        	lda	($18),y                 ; 0x2018 <main+0x1caf>
    3e28: 85 1f        	sta	$1f                     ; 0x201f <main+0x1cb6>
    3e2a: c5 13        	cmp	$13                     ; 0x2013 <main+0x1caa>
    3e2c: f0 03        	beq	$3e31 <main+0x3ac8>
    3e2e: 4c e0 3e     	jmp	$3ee0 <main+0x3b77>
    3e31: e4 12        	cpx	$12                     ; 0x2012 <main+0x1ca9>
    3e33: f0 03        	beq	$3e38 <main+0x3acf>
    3e35: 4c e0 3e     	jmp	$3ee0 <main+0x3b77>
    3e38: a2 00        	ldx	#$0
    3e3a: 86 18        	stx	$18                     ; 0x2018 <main+0x1caf>
    3e3c: a2 00        	ldx	#$0
    3e3e: 86 19        	stx	$19                     ; 0x2019 <main+0x1cb0>
    3e40: 4c 61 3f     	jmp	$3f61 <main+0x3bf8>
    3e43: a6 17        	ldx	$17                     ; 0x2017 <main+0x1cae>
    3e45: 86 16        	stx	$16                     ; 0x2016 <main+0x1cad>
    3e47: 84 17        	sty	$17                     ; 0x2017 <main+0x1cae>
    3e49: 29 01        	and	#$1
    3e4b: d0 03        	bne	$3e50 <main+0x3ae7>
    3e4d: 4c 47 41     	jmp	$4147 <main+0x3dde>
    3e50: 18           	clc
    3e51: a5 1c        	lda	$1c                     ; 0x201c <main+0x1cb3>
    3e53: 69 fc        	adc	#$fc
    3e55: 85 12        	sta	$12                     ; 0x2012 <main+0x1ca9>
    3e57: a5 1d        	lda	$1d                     ; 0x201d <main+0x1cb4>
    3e59: 69 ff        	adc	#$ff
    3e5b: 85 13        	sta	$13                     ; 0x2013 <main+0x1caa>
    3e5d: a0 01        	ldy	#$1
    3e5f: 38           	sec
    3e60: a9 00        	lda	#$0
    3e62: f2 12        	sbc	($12)                   ; 0x2012 <main+0x1ca9>
    3e64: 85 18        	sta	$18                     ; 0x2018 <main+0x1caf>
    3e66: a9 00        	lda	#$0
    3e68: f1 12        	sbc	($12),y                 ; 0x2012 <main+0x1ca9>
    3e6a: 85 13        	sta	$13                     ; 0x2013 <main+0x1caa>
    3e6c: a5 1a        	lda	$1a                     ; 0x201a <main+0x1cb1>
    3e6e: 18           	clc
    3e6f: 65 18        	adc	$18                     ; 0x2018 <main+0x1caf>
    3e71: 85 12        	sta	$12                     ; 0x2012 <main+0x1ca9>
    3e73: aa           	tax
    3e74: a5 1b        	lda	$1b                     ; 0x201b <main+0x1cb2>
    3e76: 65 13        	adc	$13                     ; 0x2013 <main+0x1caa>
    3e78: 85 13        	sta	$13                     ; 0x2013 <main+0x1caa>
    3e7a: 85 19        	sta	$19                     ; 0x2019 <main+0x1cb0>
    3e7c: b1 12        	lda	($12),y                 ; 0x2012 <main+0x1ca9>
    3e7e: 85 1b        	sta	$1b                     ; 0x201b <main+0x1cb2>
    3e80: a9 fe        	lda	#$fe
    3e82: 32 12        	and	($12)                   ; 0x2012 <main+0x1ca9>
    3e84: a4 67        	ldy	$67                     ; 0x2067 <main+0x1cfe>
    3e86: 85 1d        	sta	$1d                     ; 0x201d <main+0x1cb4>
    3e88: 85 18        	sta	$18                     ; 0x2018 <main+0x1caf>
    3e8a: 38           	sec
    3e8b: 98           	tya
    3e8c: e5 18        	sbc	$18                     ; 0x2018 <main+0x1caf>
    3e8e: 85 1a        	sta	$1a                     ; 0x201a <main+0x1cb1>
    3e90: a4 1b        	ldy	$1b                     ; 0x201b <main+0x1cb2>
    3e92: 84 1c        	sty	$1c                     ; 0x201c <main+0x1cb3>
    3e94: 84 18        	sty	$18                     ; 0x2018 <main+0x1caf>
    3e96: a5 68        	lda	$68                     ; 0x2068 <main+0x1cff>
    3e98: e5 18        	sbc	$18                     ; 0x2018 <main+0x1caf>
    3e9a: a8           	tay
    3e9b: 18           	clc
    3e9c: a5 1a        	lda	$1a                     ; 0x201a <main+0x1cb1>
    3e9e: 69 02        	adc	#$2
    3ea0: 85 18        	sta	$18                     ; 0x2018 <main+0x1caf>
    3ea2: 98           	tya
    3ea3: 69 00        	adc	#$0
    3ea5: a4 18        	ldy	$18                     ; 0x2018 <main+0x1caf>
    3ea7: 84 67        	sty	$67                     ; 0x2067 <main+0x1cfe>
    3ea9: 85 68        	sta	$68                     ; 0x2068 <main+0x1cff>
    3eab: 86 1a        	stx	$1a                     ; 0x201a <main+0x1cb1>
    3ead: 8a           	txa
    3eae: 18           	clc
    3eaf: 69 02        	adc	#$2
    3eb1: 85 18        	sta	$18                     ; 0x2018 <main+0x1caf>
    3eb3: a6 19        	ldx	$19                     ; 0x2019 <main+0x1cb0>
    3eb5: 86 1b        	stx	$1b                     ; 0x201b <main+0x1cb2>
    3eb7: a5 19        	lda	$19                     ; 0x2019 <main+0x1cb0>
    3eb9: 69 00        	adc	#$0
    3ebb: a0 02        	ldy	#$2
    3ebd: 85 19        	sta	$19                     ; 0x2019 <main+0x1cb0>
    3ebf: b1 12        	lda	($12),y                 ; 0x2012 <main+0x1ca9>
    3ec1: aa           	tax
    3ec2: 88           	dey
    3ec3: b1 18        	lda	($18),y                 ; 0x2018 <main+0x1caf>
    3ec5: 85 1f        	sta	$1f                     ; 0x201f <main+0x1cb6>
    3ec7: c5 13        	cmp	$13                     ; 0x2013 <main+0x1caa>
    3ec9: f0 03        	beq	$3ece <main+0x3b65>
    3ecb: 4c b1 40     	jmp	$40b1 <main+0x3d48>
    3ece: e4 12        	cpx	$12                     ; 0x2012 <main+0x1ca9>
    3ed0: f0 03        	beq	$3ed5 <main+0x3b6c>
    3ed2: 4c b1 40     	jmp	$40b1 <main+0x3d48>
    3ed5: a2 00        	ldx	#$0
    3ed7: 86 18        	stx	$18                     ; 0x2018 <main+0x1caf>
    3ed9: a2 00        	ldx	#$0
    3edb: 86 19        	stx	$19                     ; 0x2019 <main+0x1cb0>
    3edd: 4c 32 41     	jmp	$4132 <main+0x3dc9>
    3ee0: 86 1e        	stx	$1e                     ; 0x201e <main+0x1cb5>
    3ee2: a5 1a        	lda	$1a                     ; 0x201a <main+0x1cb1>
    3ee4: a6 1a        	ldx	$1a                     ; 0x201a <main+0x1cb1>
    3ee6: 86 22        	stx	$22                     ; 0x2022 <main+0x1cb9>
    3ee8: 18           	clc
    3ee9: 69 04        	adc	#$4
    3eeb: 85 18        	sta	$18                     ; 0x2018 <main+0x1caf>
    3eed: a6 1b        	ldx	$1b                     ; 0x201b <main+0x1cb2>
    3eef: 86 24        	stx	$24                     ; 0x2024 <main+0x1cbb>
    3ef1: a5 1b        	lda	$1b                     ; 0x201b <main+0x1cb2>
    3ef3: 69 00        	adc	#$0
    3ef5: a0 04        	ldy	#$4
    3ef7: 85 19        	sta	$19                     ; 0x2019 <main+0x1cb0>
    3ef9: b1 12        	lda	($12),y                 ; 0x2012 <main+0x1ca9>
    3efb: 85 23        	sta	$23                     ; 0x2023 <main+0x1cba>
    3efd: 18           	clc
    3efe: 69 02        	adc	#$2
    3f00: 85 1a        	sta	$1a                     ; 0x201a <main+0x1cb1>
    3f02: a0 01        	ldy	#$1
    3f04: b1 18        	lda	($18),y                 ; 0x2018 <main+0x1caf>
    3f06: aa           	tax
    3f07: 69 00        	adc	#$0
    3f09: a4 1a        	ldy	$1a                     ; 0x201a <main+0x1cb1>
    3f0b: 84 18        	sty	$18                     ; 0x2018 <main+0x1caf>
    3f0d: 85 19        	sta	$19                     ; 0x2019 <main+0x1cb0>
    3f0f: a4 23        	ldy	$23                     ; 0x2023 <main+0x1cba>
    3f11: 84 1a        	sty	$1a                     ; 0x201a <main+0x1cb1>
    3f13: 86 1b        	stx	$1b                     ; 0x201b <main+0x1cb2>
    3f15: a0 02        	ldy	#$2
    3f17: a5 1e        	lda	$1e                     ; 0x201e <main+0x1cb5>
    3f19: 91 1a        	sta	($1a),y                 ; 0x201a <main+0x1cb1>
    3f1b: a5 1f        	lda	$1f                     ; 0x201f <main+0x1cb6>
    3f1d: 88           	dey
    3f1e: 91 18        	sta	($18),y                 ; 0x2018 <main+0x1caf>
    3f20: 18           	clc
    3f21: a5 22        	lda	$22                     ; 0x2022 <main+0x1cb9>
    3f23: 69 02        	adc	#$2
    3f25: 85 18        	sta	$18                     ; 0x2018 <main+0x1caf>
    3f27: a5 24        	lda	$24                     ; 0x2024 <main+0x1cbb>
    3f29: 69 00        	adc	#$0
    3f2b: 85 19        	sta	$19                     ; 0x2019 <main+0x1cb0>
    3f2d: c8           	iny
    3f2e: b1 12        	lda	($12),y                 ; 0x2012 <main+0x1ca9>
    3f30: 85 1a        	sta	$1a                     ; 0x201a <main+0x1cb1>
    3f32: 88           	dey
    3f33: b1 18        	lda	($18),y                 ; 0x2018 <main+0x1caf>
    3f35: a4 1a        	ldy	$1a                     ; 0x201a <main+0x1cb1>
    3f37: 84 18        	sty	$18                     ; 0x2018 <main+0x1caf>
    3f39: 85 19        	sta	$19                     ; 0x2019 <main+0x1cb0>
    3f3b: 85 1b        	sta	$1b                     ; 0x201b <main+0x1cb2>
    3f3d: a0 04        	ldy	#$4
    3f3f: a5 23        	lda	$23                     ; 0x2023 <main+0x1cba>
    3f41: 91 18        	sta	($18),y                 ; 0x2018 <main+0x1caf>
    3f43: 18           	clc
    3f44: a5 1a        	lda	$1a                     ; 0x201a <main+0x1cb1>
    3f46: 69 04        	adc	#$4
    3f48: 85 1a        	sta	$1a                     ; 0x201a <main+0x1cb1>
    3f4a: a5 1b        	lda	$1b                     ; 0x201b <main+0x1cb2>
    3f4c: 69 00        	adc	#$0
    3f4e: 85 1b        	sta	$1b                     ; 0x201b <main+0x1cb2>
    3f50: 8a           	txa
    3f51: a0 01        	ldy	#$1
    3f53: 91 1a        	sta	($1a),y                 ; 0x201a <main+0x1cb1>
    3f55: a6 6a        	ldx	$6a                     ; 0x206a <main+0x1d01>
    3f57: e4 13        	cpx	$13                     ; 0x2013 <main+0x1caa>
    3f59: d0 0e        	bne	$3f69 <main+0x3c00>
    3f5b: a6 69        	ldx	$69                     ; 0x2069 <main+0x1d00>
    3f5d: e4 12        	cpx	$12                     ; 0x2012 <main+0x1ca9>
    3f5f: d0 08        	bne	$3f69 <main+0x3c00>
    3f61: a6 18        	ldx	$18                     ; 0x2018 <main+0x1caf>
    3f63: a4 19        	ldy	$19                     ; 0x2019 <main+0x1cb0>
    3f65: 86 69        	stx	$69                     ; 0x2069 <main+0x1d00>
    3f67: 84 6a        	sty	$6a                     ; 0x206a <main+0x1d01>
    3f69: 18           	clc
    3f6a: a5 1d        	lda	$1d                     ; 0x201d <main+0x1cb4>
    3f6c: 65 15        	adc	$15                     ; 0x2015 <main+0x1cac>
    3f6e: 85 15        	sta	$15                     ; 0x2015 <main+0x1cac>
    3f70: a5 1c        	lda	$1c                     ; 0x201c <main+0x1cb3>
    3f72: 65 14        	adc	$14                     ; 0x2014 <main+0x1cab>
    3f74: 85 14        	sta	$14                     ; 0x2014 <main+0x1cab>
    3f76: a2 00        	ldx	#$0
    3f78: 86 18        	stx	$18                     ; 0x2018 <main+0x1caf>
    3f7a: a2 00        	ldx	#$0
    3f7c: 86 19        	stx	$19                     ; 0x2019 <main+0x1cb0>
    3f7e: a6 17        	ldx	$17                     ; 0x2017 <main+0x1cae>
    3f80: e4 19        	cpx	$19                     ; 0x2019 <main+0x1cb0>
    3f82: d0 0d        	bne	$3f91 <main+0x3c28>
    3f84: a6 16        	ldx	$16                     ; 0x2016 <main+0x1cad>
    3f86: e4 18        	cpx	$18                     ; 0x2018 <main+0x1caf>
    3f88: d0 07        	bne	$3f91 <main+0x3c28>
    3f8a: a2 01        	ldx	#$1
    3f8c: 86 66        	stx	$66                     ; 0x2066 <main+0x1cfd>
    3f8e: 4c a3 42     	jmp	$42a3 <main+0x3f3a>
    3f91: a0 01        	ldy	#$1
    3f93: b1 16        	lda	($16),y                 ; 0x2016 <main+0x1cad>
    3f95: a8           	tay
    3f96: a9 fe        	lda	#$fe
    3f98: 32 16        	and	($16)                   ; 0x2016 <main+0x1cad>
    3f9a: 18           	clc
    3f9b: 85 1d        	sta	$1d                     ; 0x201d <main+0x1cb4>
    3f9d: 65 16        	adc	$16                     ; 0x2016 <main+0x1cad>
    3f9f: aa           	tax
    3fa0: 98           	tya
    3fa1: 84 1c        	sty	$1c                     ; 0x201c <main+0x1cb3>
    3fa3: 65 17        	adc	$17                     ; 0x2017 <main+0x1cae>
    3fa5: 48           	pha
    3fa6: a0 18        	ldy	#$18
    3fa8: b1 10        	lda	($10),y                 ; 0x2010 <main+0x1ca7>
    3faa: 85 18        	sta	$18                     ; 0x2018 <main+0x1caf>
    3fac: 68           	pla
    3fad: c5 18        	cmp	$18                     ; 0x2018 <main+0x1caf>
    3faf: d0 14        	bne	$3fc5 <main+0x3c5c>
    3fb1: 48           	pha
    3fb2: a0 13        	ldy	#$13
    3fb4: b1 10        	lda	($10),y                 ; 0x2010 <main+0x1ca7>
    3fb6: 85 18        	sta	$18                     ; 0x2018 <main+0x1caf>
    3fb8: 68           	pla
    3fb9: e4 18        	cpx	$18                     ; 0x2018 <main+0x1caf>
    3fbb: d0 08        	bne	$3fc5 <main+0x3c5c>
    3fbd: a9 01        	lda	#$1
    3fbf: 64 18        	stz	$18                     ; 0x2018 <main+0x1caf>
    3fc1: 25 66        	and	$66                     ; 0x2066 <main+0x1cfd>
    3fc3: 80 0a        	bra	$3fcf <main+0x3c66>
    3fc5: 86 18        	stx	$18                     ; 0x2018 <main+0x1caf>
    3fc7: 85 19        	sta	$19                     ; 0x2019 <main+0x1cb0>
    3fc9: a9 01        	lda	#$1
    3fcb: 32 18        	and	($18)                   ; 0x2018 <main+0x1caf>
    3fcd: 64 18        	stz	$18                     ; 0x2018 <main+0x1caf>
    3fcf: a6 18        	ldx	$18                     ; 0x2018 <main+0x1caf>
    3fd1: d0 06        	bne	$3fd9 <main+0x3c70>
    3fd3: aa           	tax
    3fd4: d0 03        	bne	$3fd9 <main+0x3c70>
    3fd6: 4c 97 42     	jmp	$4297 <main+0x3f2e>
    3fd9: a5 67        	lda	$67                     ; 0x2067 <main+0x1cfe>
    3fdb: a6 68        	ldx	$68                     ; 0x2068 <main+0x1cff>
    3fdd: 86 19        	stx	$19                     ; 0x2019 <main+0x1cb0>
    3fdf: 38           	sec
    3fe0: e5 1d        	sbc	$1d                     ; 0x201d <main+0x1cb4>
    3fe2: aa           	tax
    3fe3: a5 19        	lda	$19                     ; 0x2019 <main+0x1cb0>
    3fe5: e5 1c        	sbc	$1c                     ; 0x201c <main+0x1cb3>
    3fe7: 85 18        	sta	$18                     ; 0x2018 <main+0x1caf>
    3fe9: 18           	clc
    3fea: 8a           	txa
    3feb: 69 02        	adc	#$2
    3fed: 85 19        	sta	$19                     ; 0x2019 <main+0x1cb0>
    3fef: a5 18        	lda	$18                     ; 0x2018 <main+0x1caf>
    3ff1: 69 00        	adc	#$0
    3ff3: a6 19        	ldx	$19                     ; 0x2019 <main+0x1cb0>
    3ff5: 86 67        	stx	$67                     ; 0x2067 <main+0x1cfe>
    3ff7: 85 68        	sta	$68                     ; 0x2068 <main+0x1cff>
    3ff9: a5 16        	lda	$16                     ; 0x2016 <main+0x1cad>
    3ffb: 18           	clc
    3ffc: 69 02        	adc	#$2
    3ffe: 85 18        	sta	$18                     ; 0x2018 <main+0x1caf>
    4000: a5 17        	lda	$17                     ; 0x2017 <main+0x1cae>
    4002: 69 00        	adc	#$0
    4004: a0 02        	ldy	#$2
    4006: 85 19        	sta	$19                     ; 0x2019 <main+0x1cb0>
    4008: b1 16        	lda	($16),y                 ; 0x2016 <main+0x1cad>
    400a: aa           	tax
    400b: 88           	dey
    400c: b1 18        	lda	($18),y                 ; 0x2018 <main+0x1caf>
    400e: 85 1f        	sta	$1f                     ; 0x201f <main+0x1cb6>
    4010: c5 17        	cmp	$17                     ; 0x2017 <main+0x1cae>
    4012: d0 0f        	bne	$4023 <main+0x3cba>
    4014: e4 16        	cpx	$16                     ; 0x2016 <main+0x1cad>
    4016: d0 0b        	bne	$4023 <main+0x3cba>
    4018: a2 00        	ldx	#$0
    401a: 86 18        	stx	$18                     ; 0x2018 <main+0x1caf>
    401c: a2 00        	ldx	#$0
    401e: 86 19        	stx	$19                     ; 0x2019 <main+0x1cb0>
    4020: 4c 9a 40     	jmp	$409a <main+0x3d31>
    4023: 18           	clc
    4024: a5 16        	lda	$16                     ; 0x2016 <main+0x1cad>
    4026: 69 04        	adc	#$4
    4028: 85 18        	sta	$18                     ; 0x2018 <main+0x1caf>
    402a: a5 17        	lda	$17                     ; 0x2017 <main+0x1cae>
    402c: 69 00        	adc	#$0
    402e: a0 04        	ldy	#$4
    4030: 85 19        	sta	$19                     ; 0x2019 <main+0x1cb0>
    4032: b1 16        	lda	($16),y                 ; 0x2016 <main+0x1cad>
    4034: 85 24        	sta	$24                     ; 0x2024 <main+0x1cbb>
    4036: 18           	clc
    4037: 69 02        	adc	#$2
    4039: 85 1a        	sta	$1a                     ; 0x201a <main+0x1cb1>
    403b: a0 01        	ldy	#$1
    403d: b1 18        	lda	($18),y                 ; 0x2018 <main+0x1caf>
    403f: 85 23        	sta	$23                     ; 0x2023 <main+0x1cba>
    4041: 69 00        	adc	#$0
    4043: a4 1a        	ldy	$1a                     ; 0x201a <main+0x1cb1>
    4045: 84 18        	sty	$18                     ; 0x2018 <main+0x1caf>
    4047: 85 19        	sta	$19                     ; 0x2019 <main+0x1cb0>
    4049: a4 24        	ldy	$24                     ; 0x2024 <main+0x1cbb>
    404b: 84 1a        	sty	$1a                     ; 0x201a <main+0x1cb1>
    404d: a4 23        	ldy	$23                     ; 0x2023 <main+0x1cba>
    404f: 84 1b        	sty	$1b                     ; 0x201b <main+0x1cb2>
    4051: a0 02        	ldy	#$2
    4053: 8a           	txa
    4054: 91 1a        	sta	($1a),y                 ; 0x201a <main+0x1cb1>
    4056: a5 1f        	lda	$1f                     ; 0x201f <main+0x1cb6>
    4058: 88           	dey
    4059: 91 18        	sta	($18),y                 ; 0x2018 <main+0x1caf>
    405b: 18           	clc
    405c: a5 16        	lda	$16                     ; 0x2016 <main+0x1cad>
    405e: 69 02        	adc	#$2
    4060: 85 18        	sta	$18                     ; 0x2018 <main+0x1caf>
    4062: a5 17        	lda	$17                     ; 0x2017 <main+0x1cae>
    4064: 69 00        	adc	#$0
    4066: 85 19        	sta	$19                     ; 0x2019 <main+0x1cb0>
    4068: c8           	iny
    4069: b1 16        	lda	($16),y                 ; 0x2016 <main+0x1cad>
    406b: aa           	tax
    406c: 88           	dey
    406d: b1 18        	lda	($18),y                 ; 0x2018 <main+0x1caf>
    406f: 86 18        	stx	$18                     ; 0x2018 <main+0x1caf>
    4071: 85 19        	sta	$19                     ; 0x2019 <main+0x1cb0>
    4073: 85 1a        	sta	$1a                     ; 0x201a <main+0x1cb1>
    4075: a0 04        	ldy	#$4
    4077: a5 24        	lda	$24                     ; 0x2024 <main+0x1cbb>
    4079: 91 18        	sta	($18),y                 ; 0x2018 <main+0x1caf>
    407b: 18           	clc
    407c: 8a           	txa
    407d: 69 04        	adc	#$4
    407f: aa           	tax
    4080: a5 1a        	lda	$1a                     ; 0x201a <main+0x1cb1>
    4082: 69 00        	adc	#$0
    4084: 86 1a        	stx	$1a                     ; 0x201a <main+0x1cb1>
    4086: 85 1b        	sta	$1b                     ; 0x201b <main+0x1cb2>
    4088: a5 23        	lda	$23                     ; 0x2023 <main+0x1cba>
    408a: a0 01        	ldy	#$1
    408c: 91 1a        	sta	($1a),y                 ; 0x201a <main+0x1cb1>
    408e: a6 6a        	ldx	$6a                     ; 0x206a <main+0x1d01>
    4090: e4 17        	cpx	$17                     ; 0x2017 <main+0x1cae>
    4092: d0 0e        	bne	$40a2 <main+0x3d39>
    4094: a6 69        	ldx	$69                     ; 0x2069 <main+0x1d00>
    4096: e4 16        	cpx	$16                     ; 0x2016 <main+0x1cad>
    4098: d0 08        	bne	$40a2 <main+0x3d39>
    409a: a6 18        	ldx	$18                     ; 0x2018 <main+0x1caf>
    409c: a4 19        	ldy	$19                     ; 0x2019 <main+0x1cb0>
    409e: 86 69        	stx	$69                     ; 0x2069 <main+0x1d00>
    40a0: 84 6a        	sty	$6a                     ; 0x206a <main+0x1d01>
    40a2: 18           	clc
    40a3: a5 1d        	lda	$1d                     ; 0x201d <main+0x1cb4>
    40a5: 65 15        	adc	$15                     ; 0x2015 <main+0x1cac>
    40a7: 85 15        	sta	$15                     ; 0x2015 <main+0x1cac>
    40a9: a5 1c        	lda	$1c                     ; 0x201c <main+0x1cb3>
    40ab: 65 14        	adc	$14                     ; 0x2014 <main+0x1cab>
    40ad: aa           	tax
    40ae: 4c a5 42     	jmp	$42a5 <main+0x3f3c>
    40b1: 86 1e        	stx	$1e                     ; 0x201e <main+0x1cb5>
    40b3: a5 1a        	lda	$1a                     ; 0x201a <main+0x1cb1>
    40b5: a6 1a        	ldx	$1a                     ; 0x201a <main+0x1cb1>
    40b7: 86 22        	stx	$22                     ; 0x2022 <main+0x1cb9>
    40b9: 18           	clc
    40ba: 69 04        	adc	#$4
    40bc: 85 18        	sta	$18                     ; 0x2018 <main+0x1caf>
    40be: a6 1b        	ldx	$1b                     ; 0x201b <main+0x1cb2>
    40c0: 86 24        	stx	$24                     ; 0x2024 <main+0x1cbb>
    40c2: a5 1b        	lda	$1b                     ; 0x201b <main+0x1cb2>
    40c4: 69 00        	adc	#$0
    40c6: a0 04        	ldy	#$4
    40c8: 85 19        	sta	$19                     ; 0x2019 <main+0x1cb0>
    40ca: b1 12        	lda	($12),y                 ; 0x2012 <main+0x1ca9>
    40cc: 85 23        	sta	$23                     ; 0x2023 <main+0x1cba>
    40ce: 18           	clc
    40cf: 69 02        	adc	#$2
    40d1: 85 1a        	sta	$1a                     ; 0x201a <main+0x1cb1>
    40d3: a0 01        	ldy	#$1
    40d5: b1 18        	lda	($18),y                 ; 0x2018 <main+0x1caf>
    40d7: aa           	tax
    40d8: 69 00        	adc	#$0
    40da: a4 1a        	ldy	$1a                     ; 0x201a <main+0x1cb1>
    40dc: 84 18        	sty	$18                     ; 0x2018 <main+0x1caf>
    40de: 85 19        	sta	$19                     ; 0x2019 <main+0x1cb0>
    40e0: a4 23        	ldy	$23                     ; 0x2023 <main+0x1cba>
    40e2: 84 1a        	sty	$1a                     ; 0x201a <main+0x1cb1>
    40e4: 86 1b        	stx	$1b                     ; 0x201b <main+0x1cb2>
    40e6: a0 02        	ldy	#$2
    40e8: a5 1e        	lda	$1e                     ; 0x201e <main+0x1cb5>
    40ea: 91 1a        	sta	($1a),y                 ; 0x201a <main+0x1cb1>
    40ec: a5 1f        	lda	$1f                     ; 0x201f <main+0x1cb6>
    40ee: 88           	dey
    40ef: 91 18        	sta	($18),y                 ; 0x2018 <main+0x1caf>
    40f1: 18           	clc
    40f2: a5 22        	lda	$22                     ; 0x2022 <main+0x1cb9>
    40f4: 69 02        	adc	#$2
    40f6: 85 18        	sta	$18                     ; 0x2018 <main+0x1caf>
    40f8: a5 24        	lda	$24                     ; 0x2024 <main+0x1cbb>
    40fa: 69 00        	adc	#$0
    40fc: 85 19        	sta	$19                     ; 0x2019 <main+0x1cb0>
    40fe: c8           	iny
    40ff: b1 12        	lda	($12),y                 ; 0x2012 <main+0x1ca9>
    4101: 85 1a        	sta	$1a                     ; 0x201a <main+0x1cb1>
    4103: 88           	dey
    4104: b1 18        	lda	($18),y                 ; 0x2018 <main+0x1caf>
    4106: a4 1a        	ldy	$1a                     ; 0x201a <main+0x1cb1>
    4108: 84 18        	sty	$18                     ; 0x2018 <main+0x1caf>
    410a: 85 19        	sta	$19                     ; 0x2019 <main+0x1cb0>
    410c: 85 1b        	sta	$1b                     ; 0x201b <main+0x1cb2>
    410e: a0 04        	ldy	#$4
    4110: a5 23        	lda	$23                     ; 0x2023 <main+0x1cba>
    4112: 91 18        	sta	($18),y                 ; 0x2018 <main+0x1caf>
    4114: 18           	clc
    4115: a5 1a        	lda	$1a                     ; 0x201a <main+0x1cb1>
    4117: 69 04        	adc	#$4
    4119: 85 1a        	sta	$1a                     ; 0x201a <main+0x1cb1>
    411b: a5 1b        	lda	$1b                     ; 0x201b <main+0x1cb2>
    411d: 69 00        	adc	#$0
    411f: 85 1b        	sta	$1b                     ; 0x201b <main+0x1cb2>
    4121: 8a           	txa
    4122: a0 01        	ldy	#$1
    4124: 91 1a        	sta	($1a),y                 ; 0x201a <main+0x1cb1>
    4126: a6 6a        	ldx	$6a                     ; 0x206a <main+0x1d01>
    4128: e4 13        	cpx	$13                     ; 0x2013 <main+0x1caa>
    412a: d0 0e        	bne	$413a <main+0x3dd1>
    412c: a6 69        	ldx	$69                     ; 0x2069 <main+0x1d00>
    412e: e4 12        	cpx	$12                     ; 0x2012 <main+0x1ca9>
    4130: d0 08        	bne	$413a <main+0x3dd1>
    4132: a6 18        	ldx	$18                     ; 0x2018 <main+0x1caf>
    4134: a4 19        	ldy	$19                     ; 0x2019 <main+0x1cb0>
    4136: 86 69        	stx	$69                     ; 0x2069 <main+0x1d00>
    4138: 84 6a        	sty	$6a                     ; 0x206a <main+0x1d01>
    413a: 18           	clc
    413b: a5 1d        	lda	$1d                     ; 0x201d <main+0x1cb4>
    413d: 65 15        	adc	$15                     ; 0x2015 <main+0x1cac>
    413f: 85 15        	sta	$15                     ; 0x2015 <main+0x1cac>
    4141: a5 1c        	lda	$1c                     ; 0x201c <main+0x1cb3>
    4143: 65 14        	adc	$14                     ; 0x2014 <main+0x1cab>
    4145: 85 14        	sta	$14                     ; 0x2014 <main+0x1cab>
    4147: a2 00        	ldx	#$0
    4149: 86 18        	stx	$18                     ; 0x2018 <main+0x1caf>
    414b: a2 00        	ldx	#$0
    414d: 86 19        	stx	$19                     ; 0x2019 <main+0x1cb0>
    414f: a6 17        	ldx	$17                     ; 0x2017 <main+0x1cae>
    4151: e4 19        	cpx	$19                     ; 0x2019 <main+0x1cb0>
    4153: d0 0d        	bne	$4162 <main+0x3df9>
    4155: a6 16        	ldx	$16                     ; 0x2016 <main+0x1cad>
    4157: e4 18        	cpx	$18                     ; 0x2018 <main+0x1caf>
    4159: d0 07        	bne	$4162 <main+0x3df9>
    415b: a2 01        	ldx	#$1
    415d: 86 66        	stx	$66                     ; 0x2066 <main+0x1cfd>
    415f: 4c 14 44     	jmp	$4414 <main+0x40ab>
    4162: a0 01        	ldy	#$1
    4164: b1 16        	lda	($16),y                 ; 0x2016 <main+0x1cad>
    4166: a8           	tay
    4167: a9 fe        	lda	#$fe
    4169: 32 16        	and	($16)                   ; 0x2016 <main+0x1cad>
    416b: 18           	clc
    416c: 85 1d        	sta	$1d                     ; 0x201d <main+0x1cb4>
    416e: 65 16        	adc	$16                     ; 0x2016 <main+0x1cad>
    4170: aa           	tax
    4171: 98           	tya
    4172: 84 1c        	sty	$1c                     ; 0x201c <main+0x1cb3>
    4174: 65 17        	adc	$17                     ; 0x2017 <main+0x1cae>
    4176: 48           	pha
    4177: a0 18        	ldy	#$18
    4179: b1 10        	lda	($10),y                 ; 0x2010 <main+0x1ca7>
    417b: 85 18        	sta	$18                     ; 0x2018 <main+0x1caf>
    417d: 68           	pla
    417e: c5 18        	cmp	$18                     ; 0x2018 <main+0x1caf>
    4180: d0 14        	bne	$4196 <main+0x3e2d>
    4182: 48           	pha
    4183: a0 13        	ldy	#$13
    4185: b1 10        	lda	($10),y                 ; 0x2010 <main+0x1ca7>
    4187: 85 18        	sta	$18                     ; 0x2018 <main+0x1caf>
    4189: 68           	pla
    418a: e4 18        	cpx	$18                     ; 0x2018 <main+0x1caf>
    418c: d0 08        	bne	$4196 <main+0x3e2d>
    418e: a9 01        	lda	#$1
    4190: 64 18        	stz	$18                     ; 0x2018 <main+0x1caf>
    4192: 25 66        	and	$66                     ; 0x2066 <main+0x1cfd>
    4194: 80 0a        	bra	$41a0 <main+0x3e37>
    4196: 86 18        	stx	$18                     ; 0x2018 <main+0x1caf>
    4198: 85 19        	sta	$19                     ; 0x2019 <main+0x1cb0>
    419a: a9 01        	lda	#$1
    419c: 32 18        	and	($18)                   ; 0x2018 <main+0x1caf>
    419e: 64 18        	stz	$18                     ; 0x2018 <main+0x1caf>
    41a0: a6 18        	ldx	$18                     ; 0x2018 <main+0x1caf>
    41a2: d0 06        	bne	$41aa <main+0x3e41>
    41a4: aa           	tax
    41a5: d0 03        	bne	$41aa <main+0x3e41>
    41a7: 4c 08 44     	jmp	$4408 <main+0x409f>
    41aa: a5 67        	lda	$67                     ; 0x2067 <main+0x1cfe>
    41ac: a6 68        	ldx	$68                     ; 0x2068 <main+0x1cff>
    41ae: 86 19        	stx	$19                     ; 0x2019 <main+0x1cb0>
    41b0: 38           	sec
    41b1: e5 1d        	sbc	$1d                     ; 0x201d <main+0x1cb4>
    41b3: aa           	tax
    41b4: a5 19        	lda	$19                     ; 0x2019 <main+0x1cb0>
    41b6: e5 1c        	sbc	$1c                     ; 0x201c <main+0x1cb3>
    41b8: 85 18        	sta	$18                     ; 0x2018 <main+0x1caf>
    41ba: 18           	clc
    41bb: 8a           	txa
    41bc: 69 02        	adc	#$2
    41be: 85 19        	sta	$19                     ; 0x2019 <main+0x1cb0>
    41c0: a5 18        	lda	$18                     ; 0x2018 <main+0x1caf>
    41c2: 69 00        	adc	#$0
    41c4: a6 19        	ldx	$19                     ; 0x2019 <main+0x1cb0>
    41c6: 86 67        	stx	$67                     ; 0x2067 <main+0x1cfe>
    41c8: 85 68        	sta	$68                     ; 0x2068 <main+0x1cff>
    41ca: a5 16        	lda	$16                     ; 0x2016 <main+0x1cad>
    41cc: 18           	clc
    41cd: 69 02        	adc	#$2
    41cf: 85 18        	sta	$18                     ; 0x2018 <main+0x1caf>
    41d1: a5 17        	lda	$17                     ; 0x2017 <main+0x1cae>
    41d3: 69 00        	adc	#$0
    41d5: a0 02        	ldy	#$2
    41d7: 85 19        	sta	$19                     ; 0x2019 <main+0x1cb0>
    41d9: b1 16        	lda	($16),y                 ; 0x2016 <main+0x1cad>
    41db: aa           	tax
    41dc: 88           	dey
    41dd: b1 18        	lda	($18),y                 ; 0x2018 <main+0x1caf>
    41df: 85 1f        	sta	$1f                     ; 0x201f <main+0x1cb6>
    41e1: c5 17        	cmp	$17                     ; 0x2017 <main+0x1cae>
    41e3: d0 0f        	bne	$41f4 <main+0x3e8b>
    41e5: e4 16        	cpx	$16                     ; 0x2016 <main+0x1cad>
    41e7: d0 0b        	bne	$41f4 <main+0x3e8b>
    41e9: a2 00        	ldx	#$0
    41eb: 86 18        	stx	$18                     ; 0x2018 <main+0x1caf>
    41ed: a2 00        	ldx	#$0
    41ef: 86 19        	stx	$19                     ; 0x2019 <main+0x1cb0>
    41f1: 4c 71 42     	jmp	$4271 <main+0x3f08>
    41f4: 86 1e        	stx	$1e                     ; 0x201e <main+0x1cb5>
    41f6: a6 16        	ldx	$16                     ; 0x2016 <main+0x1cad>
    41f8: a5 16        	lda	$16                     ; 0x2016 <main+0x1cad>
    41fa: 86 23        	stx	$23                     ; 0x2023 <main+0x1cba>
    41fc: 18           	clc
    41fd: 69 04        	adc	#$4
    41ff: 85 18        	sta	$18                     ; 0x2018 <main+0x1caf>
    4201: a5 17        	lda	$17                     ; 0x2017 <main+0x1cae>
    4203: 69 00        	adc	#$0
    4205: a0 04        	ldy	#$4
    4207: 85 19        	sta	$19                     ; 0x2019 <main+0x1cb0>
    4209: b1 16        	lda	($16),y                 ; 0x2016 <main+0x1cad>
    420b: 85 24        	sta	$24                     ; 0x2024 <main+0x1cbb>
    420d: 18           	clc
    420e: 69 02        	adc	#$2
    4210: 85 1a        	sta	$1a                     ; 0x201a <main+0x1cb1>
    4212: a0 01        	ldy	#$1
    4214: b1 18        	lda	($18),y                 ; 0x2018 <main+0x1caf>
    4216: aa           	tax
    4217: 69 00        	adc	#$0
    4219: a4 1a        	ldy	$1a                     ; 0x201a <main+0x1cb1>
    421b: 84 18        	sty	$18                     ; 0x2018 <main+0x1caf>
    421d: 85 19        	sta	$19                     ; 0x2019 <main+0x1cb0>
    421f: a4 24        	ldy	$24                     ; 0x2024 <main+0x1cbb>
    4221: 84 1a        	sty	$1a                     ; 0x201a <main+0x1cb1>
    4223: 86 1b        	stx	$1b                     ; 0x201b <main+0x1cb2>
    4225: a0 02        	ldy	#$2
    4227: a5 1e        	lda	$1e                     ; 0x201e <main+0x1cb5>
    4229: 91 1a        	sta	($1a),y                 ; 0x201a <main+0x1cb1>
    422b: a5 1f        	lda	$1f                     ; 0x201f <main+0x1cb6>
    422d: 88           	dey
    422e: 91 18        	sta	($18),y                 ; 0x2018 <main+0x1caf>
    4230: 18           	clc
    4231: a5 23        	lda	$23                     ; 0x2023 <main+0x1cba>
    4233: 69 02        	adc	#$2
    4235: 85 18        	sta	$18                     ; 0x2018 <main+0x1caf>
    4237: a5 17        	lda	$17                     ; 0x2017 <main+0x1cae>
    4239: 69 00        	adc	#$0
    423b: 85 19        	sta	$19                     ; 0x2019 <main+0x1cb0>
    423d: c8           	iny
    423e: b1 16        	lda	($16),y                 ; 0x2016 <main+0x1cad>
    4240: 85 1a        	sta	$1a                     ; 0x201a <main+0x1cb1>
    4242: 88           	dey
    4243: b1 18        	lda	($18),y                 ; 0x2018 <main+0x1caf>
    4245: a4 1a        	ldy	$1a                     ; 0x201a <main+0x1cb1>
    4247: 84 18        	sty	$18                     ; 0x2018 <main+0x1caf>
    4249: 85 19        	sta	$19                     ; 0x2019 <main+0x1cb0>
    424b: 85 1b        	sta	$1b                     ; 0x201b <main+0x1cb2>
    424d: a0 04        	ldy	#$4
    424f: a5 24        	lda	$24                     ; 0x2024 <main+0x1cbb>
    4251: 91 18        	sta	($18),y                 ; 0x2018 <main+0x1caf>
    4253: 18           	clc
    4254: a5 1a        	lda	$1a                     ; 0x201a <main+0x1cb1>
    4256: 69 04        	adc	#$4
    4258: 85 1a        	sta	$1a                     ; 0x201a <main+0x1cb1>
    425a: a5 1b        	lda	$1b                     ; 0x201b <main+0x1cb2>
    425c: 69 00        	adc	#$0
    425e: 85 1b        	sta	$1b                     ; 0x201b <main+0x1cb2>
    4260: 8a           	txa
    4261: a0 01        	ldy	#$1
    4263: 91 1a        	sta	($1a),y                 ; 0x201a <main+0x1cb1>
    4265: a6 6a        	ldx	$6a                     ; 0x206a <main+0x1d01>
    4267: e4 17        	cpx	$17                     ; 0x2017 <main+0x1cae>
    4269: d0 0e        	bne	$4279 <main+0x3f10>
    426b: a6 69        	ldx	$69                     ; 0x2069 <main+0x1d00>
    426d: e4 16        	cpx	$16                     ; 0x2016 <main+0x1cad>
    426f: d0 08        	bne	$4279 <main+0x3f10>
    4271: a6 18        	ldx	$18                     ; 0x2018 <main+0x1caf>
    4273: a4 19        	ldy	$19                     ; 0x2019 <main+0x1cb0>
    4275: 86 69        	stx	$69                     ; 0x2069 <main+0x1d00>
    4277: 84 6a        	sty	$6a                     ; 0x206a <main+0x1d01>
    4279: 18           	clc
    427a: a5 1d        	lda	$1d                     ; 0x201d <main+0x1cb4>
    427c: 65 15        	adc	$15                     ; 0x2015 <main+0x1cac>
    427e: 85 15        	sta	$15                     ; 0x2015 <main+0x1cac>
    4280: a5 1c        	lda	$1c                     ; 0x201c <main+0x1cb3>
    4282: 65 14        	adc	$14                     ; 0x2014 <main+0x1cab>
    4284: aa           	tax
    4285: 4c 16 44     	jmp	$4416 <main+0x40ad>
    4288: a2 13        	ldx	#$13
    428a: 4c bc 13     	jmp	$13bc <main+0x1053>
    428d: a2 12        	ldx	#$12
    428f: 4c bc 13     	jmp	$13bc <main+0x1053>
    4292: a2 11        	ldx	#$11
    4294: 4c bc 13     	jmp	$13bc <main+0x1053>
    4297: b2 16        	lda	($16)                   ; 0x2016 <main+0x1cad>
    4299: 09 01        	ora	#$1
    429b: 92 16        	sta	($16)                   ; 0x2016 <main+0x1cad>
    429d: a0 01        	ldy	#$1
    429f: a5 1c        	lda	$1c                     ; 0x201c <main+0x1cb3>
    42a1: 91 16        	sta	($16),y                 ; 0x2016 <main+0x1cad>
    42a3: a6 14        	ldx	$14                     ; 0x2014 <main+0x1cab>
    42a5: a9 01        	lda	#$1
    42a7: 32 12        	and	($12)                   ; 0x2012 <main+0x1ca9>
    42a9: a4 15        	ldy	$15                     ; 0x2015 <main+0x1cac>
    42ab: 84 16        	sty	$16                     ; 0x2016 <main+0x1cad>
    42ad: 05 15        	ora	$15                     ; 0x2015 <main+0x1cac>
    42af: 92 12        	sta	($12)                   ; 0x2012 <main+0x1ca9>
    42b1: a5 12        	lda	$12                     ; 0x2012 <main+0x1ca9>
    42b3: 18           	clc
    42b4: 65 15        	adc	$15                     ; 0x2015 <main+0x1cac>
    42b6: a8           	tay
    42b7: 8a           	txa
    42b8: 65 13        	adc	$13                     ; 0x2013 <main+0x1caa>
    42ba: 85 15        	sta	$15                     ; 0x2015 <main+0x1cac>
    42bc: 18           	clc
    42bd: 98           	tya
    42be: 69 fe        	adc	#$fe
    42c0: 85 14        	sta	$14                     ; 0x2014 <main+0x1cab>
    42c2: a5 15        	lda	$15                     ; 0x2015 <main+0x1cac>
    42c4: 69 ff        	adc	#$ff
    42c6: 85 15        	sta	$15                     ; 0x2015 <main+0x1cac>
    42c8: a0 01        	ldy	#$1
    42ca: 8a           	txa
    42cb: 91 12        	sta	($12),y                 ; 0x2012 <main+0x1ca9>
    42cd: a5 16        	lda	$16                     ; 0x2016 <main+0x1cad>
    42cf: 92 14        	sta	($14)                   ; 0x2014 <main+0x1cab>
    42d1: 8a           	txa
    42d2: 91 14        	sta	($14),y                 ; 0x2014 <main+0x1cab>
    42d4: b1 12        	lda	($12),y                 ; 0x2012 <main+0x1ca9>
    42d6: 85 14        	sta	$14                     ; 0x2014 <main+0x1cab>
    42d8: a9 fe        	lda	#$fe
    42da: 32 12        	and	($12)                   ; 0x2012 <main+0x1ca9>
    42dc: 18           	clc
    42dd: 65 67        	adc	$67                     ; 0x2067 <main+0x1cfe>
    42df: aa           	tax
    42e0: a5 14        	lda	$14                     ; 0x2014 <main+0x1cab>
    42e2: 65 68        	adc	$68                     ; 0x2068 <main+0x1cff>
    42e4: 85 14        	sta	$14                     ; 0x2014 <main+0x1cab>
    42e6: 18           	clc
    42e7: 8a           	txa
    42e8: 69 fe        	adc	#$fe
    42ea: 85 15        	sta	$15                     ; 0x2015 <main+0x1cac>
    42ec: a5 14        	lda	$14                     ; 0x2014 <main+0x1cab>
    42ee: 69 ff        	adc	#$ff
    42f0: a6 15        	ldx	$15                     ; 0x2015 <main+0x1cac>
    42f2: 86 67        	stx	$67                     ; 0x2067 <main+0x1cfe>
    42f4: 85 68        	sta	$68                     ; 0x2068 <main+0x1cff>
    42f6: a4 69        	ldy	$69                     ; 0x2069 <main+0x1d00>
    42f8: a5 6a        	lda	$6a                     ; 0x206a <main+0x1d01>
    42fa: a2 00        	ldx	#$0
    42fc: 86 14        	stx	$14                     ; 0x2014 <main+0x1cab>
    42fe: a2 00        	ldx	#$0
    4300: 86 15        	stx	$15                     ; 0x2015 <main+0x1cac>
    4302: c5 15        	cmp	$15                     ; 0x2015 <main+0x1cac>
    4304: d0 3c        	bne	$4342 <main+0x3fd9>
    4306: c4 14        	cpy	$14                     ; 0x2014 <main+0x1cab>
    4308: d0 38        	bne	$4342 <main+0x3fd9>
    430a: a0 04        	ldy	#$4
    430c: a5 12        	lda	$12                     ; 0x2012 <main+0x1ca9>
    430e: 18           	clc
    430f: 69 04        	adc	#$4
    4311: 85 14        	sta	$14                     ; 0x2014 <main+0x1cab>
    4313: a5 13        	lda	$13                     ; 0x2013 <main+0x1caa>
    4315: 69 00        	adc	#$0
    4317: 18           	clc
    4318: 85 15        	sta	$15                     ; 0x2015 <main+0x1cac>
    431a: a5 12        	lda	$12                     ; 0x2012 <main+0x1ca9>
    431c: 91 12        	sta	($12),y                 ; 0x2012 <main+0x1ca9>
    431e: a0 02        	ldy	#$2
    4320: 85 17        	sta	$17                     ; 0x2017 <main+0x1cae>
    4322: 69 02        	adc	#$2
    4324: 85 16        	sta	$16                     ; 0x2016 <main+0x1cad>
    4326: a5 17        	lda	$17                     ; 0x2017 <main+0x1cae>
    4328: 91 12        	sta	($12),y                 ; 0x2012 <main+0x1ca9>
    432a: a5 13        	lda	$13                     ; 0x2013 <main+0x1caa>
    432c: 69 00        	adc	#$0
    432e: 85 17        	sta	$17                     ; 0x2017 <main+0x1cae>
    4330: 88           	dey
    4331: a5 13        	lda	$13                     ; 0x2013 <main+0x1caa>
    4333: 91 14        	sta	($14),y                 ; 0x2014 <main+0x1cab>
    4335: 91 16        	sta	($16),y                 ; 0x2016 <main+0x1cad>
    4337: a6 12        	ldx	$12                     ; 0x2012 <main+0x1ca9>
    4339: 86 69        	stx	$69                     ; 0x2069 <main+0x1d00>
    433b: a6 13        	ldx	$13                     ; 0x2013 <main+0x1caa>
    433d: 86 6a        	stx	$6a                     ; 0x206a <main+0x1d01>
    433f: 4c e4 43     	jmp	$43e4 <main+0x407b>
    4342: a6 12        	ldx	$12                     ; 0x2012 <main+0x1ca9>
    4344: 18           	clc
    4345: 84 18        	sty	$18                     ; 0x2018 <main+0x1caf>
    4347: a8           	tay
    4348: a5 12        	lda	$12                     ; 0x2012 <main+0x1ca9>
    434a: 69 02        	adc	#$2
    434c: 85 16        	sta	$16                     ; 0x2016 <main+0x1cad>
    434e: 5a           	phy
    434f: a4 13        	ldy	$13                     ; 0x2013 <main+0x1caa>
    4351: 84 1c        	sty	$1c                     ; 0x201c <main+0x1cb3>
    4353: a5 13        	lda	$13                     ; 0x2013 <main+0x1caa>
    4355: 69 00        	adc	#$0
    4357: a4 16        	ldy	$16                     ; 0x2016 <main+0x1cad>
    4359: 84 14        	sty	$14                     ; 0x2014 <main+0x1cab>
    435b: a4 18        	ldy	$18                     ; 0x2018 <main+0x1caf>
    435d: 84 16        	sty	$16                     ; 0x2016 <main+0x1cad>
    435f: 7a           	ply
    4360: 84 19        	sty	$19                     ; 0x2019 <main+0x1cb0>
    4362: 84 17        	sty	$17                     ; 0x2017 <main+0x1cae>
    4364: 85 15        	sta	$15                     ; 0x2015 <main+0x1cac>
    4366: a0 02        	ldy	#$2
    4368: a5 18        	lda	$18                     ; 0x2018 <main+0x1caf>
    436a: 91 12        	sta	($12),y                 ; 0x2012 <main+0x1ca9>
    436c: 88           	dey
    436d: a5 19        	lda	$19                     ; 0x2019 <main+0x1cb0>
    436f: 91 14        	sta	($14),y                 ; 0x2014 <main+0x1cab>
    4371: 18           	clc
    4372: a5 18        	lda	$18                     ; 0x2018 <main+0x1caf>
    4374: 69 04        	adc	#$4
    4376: 85 18        	sta	$18                     ; 0x2018 <main+0x1caf>
    4378: a5 19        	lda	$19                     ; 0x2019 <main+0x1cb0>
    437a: 69 00        	adc	#$0
    437c: 85 19        	sta	$19                     ; 0x2019 <main+0x1cb0>
    437e: 18           	clc
    437f: a5 12        	lda	$12                     ; 0x2012 <main+0x1ca9>
    4381: 69 04        	adc	#$4
    4383: 85 1a        	sta	$1a                     ; 0x201a <main+0x1cb1>
    4385: a5 13        	lda	$13                     ; 0x2013 <main+0x1caa>
    4387: 69 00        	adc	#$0
    4389: 85 1b        	sta	$1b                     ; 0x201b <main+0x1cb2>
    438b: a0 04        	ldy	#$4
    438d: b1 16        	lda	($16),y                 ; 0x2016 <main+0x1cad>
    438f: 85 16        	sta	$16                     ; 0x2016 <main+0x1cad>
    4391: 85 1d        	sta	$1d                     ; 0x201d <main+0x1cb4>
    4393: a0 01        	ldy	#$1
    4395: b1 18        	lda	($18),y                 ; 0x2018 <main+0x1caf>
    4397: 85 17        	sta	$17                     ; 0x2017 <main+0x1cae>
    4399: 85 19        	sta	$19                     ; 0x2019 <main+0x1cb0>
    439b: a0 04        	ldy	#$4
    439d: a5 1d        	lda	$1d                     ; 0x201d <main+0x1cb4>
    439f: 91 12        	sta	($12),y                 ; 0x2012 <main+0x1ca9>
    43a1: a5 19        	lda	$19                     ; 0x2019 <main+0x1cb0>
    43a3: a0 01        	ldy	#$1
    43a5: 91 1a        	sta	($1a),y                 ; 0x201a <main+0x1cb1>
    43a7: 18           	clc
    43a8: a5 1d        	lda	$1d                     ; 0x201d <main+0x1cb4>
    43aa: 69 02        	adc	#$2
    43ac: 85 18        	sta	$18                     ; 0x2018 <main+0x1caf>
    43ae: a5 19        	lda	$19                     ; 0x2019 <main+0x1cb0>
    43b0: 69 00        	adc	#$0
    43b2: 85 19        	sta	$19                     ; 0x2019 <main+0x1cb0>
    43b4: a5 12        	lda	$12                     ; 0x2012 <main+0x1ca9>
    43b6: c8           	iny
    43b7: 91 16        	sta	($16),y                 ; 0x2016 <main+0x1cad>
    43b9: a5 13        	lda	$13                     ; 0x2013 <main+0x1caa>
    43bb: 88           	dey
    43bc: 91 18        	sta	($18),y                 ; 0x2018 <main+0x1caf>
    43be: c8           	iny
    43bf: b1 12        	lda	($12),y                 ; 0x2012 <main+0x1ca9>
    43c1: 85 12        	sta	$12                     ; 0x2012 <main+0x1ca9>
    43c3: 85 16        	sta	$16                     ; 0x2016 <main+0x1cad>
    43c5: 88           	dey
    43c6: b1 14        	lda	($14),y                 ; 0x2014 <main+0x1cab>
    43c8: 85 13        	sta	$13                     ; 0x2013 <main+0x1caa>
    43ca: 85 14        	sta	$14                     ; 0x2014 <main+0x1cab>
    43cc: 8a           	txa
    43cd: a0 04        	ldy	#$4
    43cf: 91 12        	sta	($12),y                 ; 0x2012 <main+0x1ca9>
    43d1: 18           	clc
    43d2: a5 16        	lda	$16                     ; 0x2016 <main+0x1cad>
    43d4: 69 04        	adc	#$4
    43d6: 85 12        	sta	$12                     ; 0x2012 <main+0x1ca9>
    43d8: a5 14        	lda	$14                     ; 0x2014 <main+0x1cab>
    43da: 69 00        	adc	#$0
    43dc: 85 13        	sta	$13                     ; 0x2013 <main+0x1caa>
    43de: a5 1c        	lda	$1c                     ; 0x201c <main+0x1cb3>
    43e0: a0 01        	ldy	#$1
    43e2: 91 12        	sta	($12),y                 ; 0x2012 <main+0x1ca9>
    43e4: a2 5e        	ldx	#$5e
    43e6: 86 12        	stx	$12                     ; 0x2012 <main+0x1ca9>
    43e8: a2 00        	ldx	#$0
    43ea: 86 13        	stx	$13                     ; 0x2013 <main+0x1caa>
    43ec: 64 5f        	stz	$5f                     ; 0x205f <main+0x1cf6>
    43ee: 20 00 ff     	jsr	$ff00 <__heap_start+0x6c30>
    43f1: 92 26        	sta	($26)                   ; 0x2026 <main+0x1cbd>
    43f3: a9 00        	lda	#$0
    43f5: 6a           	ror
    43f6: 85 12        	sta	$12                     ; 0x2012 <main+0x1ca9>
    43f8: a6 5f        	ldx	$5f                     ; 0x205f <main+0x1cf6>
    43fa: e0 32        	cpx	#$32
    43fc: d0 03        	bne	$4401 <main+0x4098>
    43fe: 4c d5 37     	jmp	$37d5 <main+0x346c>
    4401: e0 38        	cpx	#$38
    4403: d0 e7        	bne	$43ec <main+0x4083>
    4405: 4c d5 37     	jmp	$37d5 <main+0x346c>
    4408: b2 16        	lda	($16)                   ; 0x2016 <main+0x1cad>
    440a: 09 01        	ora	#$1
    440c: 92 16        	sta	($16)                   ; 0x2016 <main+0x1cad>
    440e: a0 01        	ldy	#$1
    4410: a5 1c        	lda	$1c                     ; 0x201c <main+0x1cb3>
    4412: 91 16        	sta	($16),y                 ; 0x2016 <main+0x1cad>
    4414: a6 14        	ldx	$14                     ; 0x2014 <main+0x1cab>
    4416: a9 01        	lda	#$1
    4418: 32 12        	and	($12)                   ; 0x2012 <main+0x1ca9>
    441a: a4 15        	ldy	$15                     ; 0x2015 <main+0x1cac>
    441c: 84 16        	sty	$16                     ; 0x2016 <main+0x1cad>
    441e: 05 15        	ora	$15                     ; 0x2015 <main+0x1cac>
    4420: 92 12        	sta	($12)                   ; 0x2012 <main+0x1ca9>
    4422: a5 12        	lda	$12                     ; 0x2012 <main+0x1ca9>
    4424: 18           	clc
    4425: 65 15        	adc	$15                     ; 0x2015 <main+0x1cac>
    4427: a8           	tay
    4428: 8a           	txa
    4429: 65 13        	adc	$13                     ; 0x2013 <main+0x1caa>
    442b: 85 15        	sta	$15                     ; 0x2015 <main+0x1cac>
    442d: 18           	clc
    442e: 98           	tya
    442f: 69 fe        	adc	#$fe
    4431: 85 14        	sta	$14                     ; 0x2014 <main+0x1cab>
    4433: a5 15        	lda	$15                     ; 0x2015 <main+0x1cac>
    4435: 69 ff        	adc	#$ff
    4437: 85 15        	sta	$15                     ; 0x2015 <main+0x1cac>
    4439: a0 01        	ldy	#$1
    443b: 8a           	txa
    443c: 91 12        	sta	($12),y                 ; 0x2012 <main+0x1ca9>
    443e: a5 16        	lda	$16                     ; 0x2016 <main+0x1cad>
    4440: 92 14        	sta	($14)                   ; 0x2014 <main+0x1cab>
    4442: 8a           	txa
    4443: 91 14        	sta	($14),y                 ; 0x2014 <main+0x1cab>
    4445: b1 12        	lda	($12),y                 ; 0x2012 <main+0x1ca9>
    4447: 85 14        	sta	$14                     ; 0x2014 <main+0x1cab>
    4449: a9 fe        	lda	#$fe
    444b: 32 12        	and	($12)                   ; 0x2012 <main+0x1ca9>
    444d: 18           	clc
    444e: 65 67        	adc	$67                     ; 0x2067 <main+0x1cfe>
    4450: aa           	tax
    4451: a5 14        	lda	$14                     ; 0x2014 <main+0x1cab>
    4453: 65 68        	adc	$68                     ; 0x2068 <main+0x1cff>
    4455: 85 14        	sta	$14                     ; 0x2014 <main+0x1cab>
    4457: 18           	clc
    4458: 8a           	txa
    4459: 69 fe        	adc	#$fe
    445b: 85 15        	sta	$15                     ; 0x2015 <main+0x1cac>
    445d: a5 14        	lda	$14                     ; 0x2014 <main+0x1cab>
    445f: 69 ff        	adc	#$ff
    4461: a6 15        	ldx	$15                     ; 0x2015 <main+0x1cac>
    4463: 86 67        	stx	$67                     ; 0x2067 <main+0x1cfe>
    4465: 85 68        	sta	$68                     ; 0x2068 <main+0x1cff>
    4467: a6 69        	ldx	$69                     ; 0x2069 <main+0x1d00>
    4469: 86 16        	stx	$16                     ; 0x2016 <main+0x1cad>
    446b: a4 6a        	ldy	$6a                     ; 0x206a <main+0x1d01>
    446d: a2 00        	ldx	#$0
    446f: 86 14        	stx	$14                     ; 0x2014 <main+0x1cab>
    4471: a2 00        	ldx	#$0
    4473: 86 15        	stx	$15                     ; 0x2015 <main+0x1cac>
    4475: c4 15        	cpy	$15                     ; 0x2015 <main+0x1cac>
    4477: d0 3e        	bne	$44b7 <main+0x414e>
    4479: a6 16        	ldx	$16                     ; 0x2016 <main+0x1cad>
    447b: e4 14        	cpx	$14                     ; 0x2014 <main+0x1cab>
    447d: d0 38        	bne	$44b7 <main+0x414e>
    447f: a0 04        	ldy	#$4
    4481: a5 12        	lda	$12                     ; 0x2012 <main+0x1ca9>
    4483: 18           	clc
    4484: 69 04        	adc	#$4
    4486: 85 14        	sta	$14                     ; 0x2014 <main+0x1cab>
    4488: a5 13        	lda	$13                     ; 0x2013 <main+0x1caa>
    448a: 69 00        	adc	#$0
    448c: 18           	clc
    448d: 85 15        	sta	$15                     ; 0x2015 <main+0x1cac>
    448f: a5 12        	lda	$12                     ; 0x2012 <main+0x1ca9>
    4491: 91 12        	sta	($12),y                 ; 0x2012 <main+0x1ca9>
    4493: a0 02        	ldy	#$2
    4495: 85 17        	sta	$17                     ; 0x2017 <main+0x1cae>
    4497: 69 02        	adc	#$2
    4499: 85 16        	sta	$16                     ; 0x2016 <main+0x1cad>
    449b: a5 17        	lda	$17                     ; 0x2017 <main+0x1cae>
    449d: 91 12        	sta	($12),y                 ; 0x2012 <main+0x1ca9>
    449f: a5 13        	lda	$13                     ; 0x2013 <main+0x1caa>
    44a1: 69 00        	adc	#$0
    44a3: 85 17        	sta	$17                     ; 0x2017 <main+0x1cae>
    44a5: 88           	dey
    44a6: a5 13        	lda	$13                     ; 0x2013 <main+0x1caa>
    44a8: 91 14        	sta	($14),y                 ; 0x2014 <main+0x1cab>
    44aa: 91 16        	sta	($16),y                 ; 0x2016 <main+0x1cad>
    44ac: a6 12        	ldx	$12                     ; 0x2012 <main+0x1ca9>
    44ae: 86 69        	stx	$69                     ; 0x2069 <main+0x1d00>
    44b0: a6 13        	ldx	$13                     ; 0x2013 <main+0x1caa>
    44b2: 86 6a        	stx	$6a                     ; 0x206a <main+0x1d01>
    44b4: 4c 4f 45     	jmp	$454f <main+0x41e6>
    44b7: a6 12        	ldx	$12                     ; 0x2012 <main+0x1ca9>
    44b9: 18           	clc
    44ba: a5 12        	lda	$12                     ; 0x2012 <main+0x1ca9>
    44bc: 86 1c        	stx	$1c                     ; 0x201c <main+0x1cb3>
    44be: 69 02        	adc	#$2
    44c0: 85 14        	sta	$14                     ; 0x2014 <main+0x1cab>
    44c2: a6 13        	ldx	$13                     ; 0x2013 <main+0x1caa>
    44c4: 84 18        	sty	$18                     ; 0x2018 <main+0x1caf>
    44c6: a5 13        	lda	$13                     ; 0x2013 <main+0x1caa>
    44c8: 69 00        	adc	#$0
    44ca: 85 15        	sta	$15                     ; 0x2015 <main+0x1cac>
    44cc: a5 16        	lda	$16                     ; 0x2016 <main+0x1cad>
    44ce: 84 17        	sty	$17                     ; 0x2017 <main+0x1cae>
    44d0: a0 02        	ldy	#$2
    44d2: 91 12        	sta	($12),y                 ; 0x2012 <main+0x1ca9>
    44d4: 85 19        	sta	$19                     ; 0x2019 <main+0x1cb0>
    44d6: 88           	dey
    44d7: a5 18        	lda	$18                     ; 0x2018 <main+0x1caf>
    44d9: 91 14        	sta	($14),y                 ; 0x2014 <main+0x1cab>
    44db: 18           	clc
    44dc: a5 19        	lda	$19                     ; 0x2019 <main+0x1cb0>
    44de: 69 04        	adc	#$4
    44e0: a8           	tay
    44e1: a5 18        	lda	$18                     ; 0x2018 <main+0x1caf>
    44e3: 69 00        	adc	#$0
    44e5: 84 18        	sty	$18                     ; 0x2018 <main+0x1caf>
    44e7: 85 19        	sta	$19                     ; 0x2019 <main+0x1cb0>
    44e9: 18           	clc
    44ea: a5 1c        	lda	$1c                     ; 0x201c <main+0x1cb3>
    44ec: 69 04        	adc	#$4
    44ee: 85 1a        	sta	$1a                     ; 0x201a <main+0x1cb1>
    44f0: a5 13        	lda	$13                     ; 0x2013 <main+0x1caa>
    44f2: 69 00        	adc	#$0
    44f4: 85 1b        	sta	$1b                     ; 0x201b <main+0x1cb2>
    44f6: a0 04        	ldy	#$4
    44f8: b1 16        	lda	($16),y                 ; 0x2016 <main+0x1cad>
    44fa: 85 16        	sta	$16                     ; 0x2016 <main+0x1cad>
    44fc: 85 1d        	sta	$1d                     ; 0x201d <main+0x1cb4>
    44fe: a0 01        	ldy	#$1
    4500: b1 18        	lda	($18),y                 ; 0x2018 <main+0x1caf>
    4502: 85 17        	sta	$17                     ; 0x2017 <main+0x1cae>
    4504: 85 19        	sta	$19                     ; 0x2019 <main+0x1cb0>
    4506: a0 04        	ldy	#$4
    4508: a5 1d        	lda	$1d                     ; 0x201d <main+0x1cb4>
    450a: 91 12        	sta	($12),y                 ; 0x2012 <main+0x1ca9>
    450c: a5 19        	lda	$19                     ; 0x2019 <main+0x1cb0>
    450e: a0 01        	ldy	#$1
    4510: 91 1a        	sta	($1a),y                 ; 0x201a <main+0x1cb1>
    4512: 18           	clc
    4513: a5 1d        	lda	$1d                     ; 0x201d <main+0x1cb4>
    4515: 69 02        	adc	#$2
    4517: 85 18        	sta	$18                     ; 0x2018 <main+0x1caf>
    4519: a5 19        	lda	$19                     ; 0x2019 <main+0x1cb0>
    451b: 69 00        	adc	#$0
    451d: 85 19        	sta	$19                     ; 0x2019 <main+0x1cb0>
    451f: a5 1c        	lda	$1c                     ; 0x201c <main+0x1cb3>
    4521: c8           	iny
    4522: 91 16        	sta	($16),y                 ; 0x2016 <main+0x1cad>
    4524: a5 13        	lda	$13                     ; 0x2013 <main+0x1caa>
    4526: 88           	dey
    4527: 91 18        	sta	($18),y                 ; 0x2018 <main+0x1caf>
    4529: c8           	iny
    452a: b1 12        	lda	($12),y                 ; 0x2012 <main+0x1ca9>
    452c: 85 12        	sta	$12                     ; 0x2012 <main+0x1ca9>
    452e: 85 16        	sta	$16                     ; 0x2016 <main+0x1cad>
    4530: 88           	dey
    4531: b1 14        	lda	($14),y                 ; 0x2014 <main+0x1cab>
    4533: 85 13        	sta	$13                     ; 0x2013 <main+0x1caa>
    4535: 85 14        	sta	$14                     ; 0x2014 <main+0x1cab>
    4537: a5 1c        	lda	$1c                     ; 0x201c <main+0x1cb3>
    4539: a0 04        	ldy	#$4
    453b: 91 12        	sta	($12),y                 ; 0x2012 <main+0x1ca9>
    453d: 18           	clc
    453e: a5 16        	lda	$16                     ; 0x2016 <main+0x1cad>
    4540: 69 04        	adc	#$4
    4542: 85 12        	sta	$12                     ; 0x2012 <main+0x1ca9>
    4544: a5 14        	lda	$14                     ; 0x2014 <main+0x1cab>
    4546: 69 00        	adc	#$0
    4548: 85 13        	sta	$13                     ; 0x2013 <main+0x1caa>
    454a: 8a           	txa
    454b: a0 01        	ldy	#$1
    454d: 91 12        	sta	($12),y                 ; 0x2012 <main+0x1ca9>
    454f: a2 5e        	ldx	#$5e
    4551: 86 12        	stx	$12                     ; 0x2012 <main+0x1ca9>
    4553: a2 00        	ldx	#$0
    4555: 86 13        	stx	$13                     ; 0x2013 <main+0x1caa>
    4557: 64 5f        	stz	$5f                     ; 0x205f <main+0x1cf6>
    4559: 20 00 ff     	jsr	$ff00 <__heap_start+0x6c30>
    455c: 92 26        	sta	($26)                   ; 0x2026 <main+0x1cbd>
    455e: a9 00        	lda	#$0
    4560: 6a           	ror
    4561: 85 12        	sta	$12                     ; 0x2012 <main+0x1ca9>
    4563: a6 5f        	ldx	$5f                     ; 0x205f <main+0x1cf6>
    4565: e0 32        	cpx	#$32
    4567: d0 03        	bne	$456c <main+0x4203>
    4569: 4c d5 37     	jmp	$37d5 <main+0x346c>
    456c: e0 38        	cpx	#$38
    456e: d0 e7        	bne	$4557 <main+0x41ee>
    4570: 4c d5 37     	jmp	$37d5 <main+0x346c>
    4573: a2 10        	ldx	#$10
    4575: 4c bc 13     	jmp	$13bc <main+0x1053>
    4578: a2 0f        	ldx	#$f
    457a: 4c bc 13     	jmp	$13bc <main+0x1053>
    457d: a2 0e        	ldx	#$e
    457f: 4c bc 13     	jmp	$13bc <main+0x1053>
    4582: a2 0d        	ldx	#$d
    4584: 4c bc 13     	jmp	$13bc <main+0x1053>
    4587: a2 0c        	ldx	#$c
    4589: 4c bc 13     	jmp	$13bc <main+0x1053>
    458c: a2 0b        	ldx	#$b
    458e: 4c bc 13     	jmp	$13bc <main+0x1053>
    4591: a2 0a        	ldx	#$a
    4593: 4c bc 13     	jmp	$13bc <main+0x1053>
    4596: a2 09        	ldx	#$9
    4598: 4c bc 13     	jmp	$13bc <main+0x1053>
    459b: a2 08        	ldx	#$8
    459d: 4c bc 13     	jmp	$13bc <main+0x1053>
    45a0: a2 07        	ldx	#$7
    45a2: 4c bc 13     	jmp	$13bc <main+0x1053>
    45a5: a2 06        	ldx	#$6
    45a7: 4c bc 13     	jmp	$13bc <main+0x1053>
    45aa: a2 05        	ldx	#$5
    45ac: 4c bc 13     	jmp	$13bc <main+0x1053>
    45af: a2 04        	ldx	#$4
    45b1: 4c bc 13     	jmp	$13bc <main+0x1053>
    45b4: a2 03        	ldx	#$3
    45b6: 4c bc 13     	jmp	$13bc <main+0x1053>
    45b9: a2 02        	ldx	#$2
    45bb: 4c bc 13     	jmp	$13bc <main+0x1053>
    45be: a2 01        	ldx	#$1
    45c0: 4c bc 13     	jmp	$13bc <main+0x1053>

000045c3 <writeTopRight>:
    45c3: 48           	pha
    45c4: 18           	clc
    45c5: a5 10        	lda	$10                     ; 0x2010 <main+0x1ca7>
    45c7: 69 fe        	adc	#$fe
    45c9: 85 10        	sta	$10                     ; 0x2010 <main+0x1ca7>
    45cb: a5 11        	lda	$11                     ; 0x2011 <main+0x1ca8>
    45cd: 69 ff        	adc	#$ff
    45cf: 85 11        	sta	$11                     ; 0x2011 <main+0x1ca8>
    45d1: 68           	pla
    45d2: 29 01        	and	#$1
    45d4: 85 6b        	sta	$6b                     ; 0x206b <main+0x1d02>
    45d6: a2 50        	ldx	#$50
    45d8: 86 30        	stx	$30                     ; 0x2030 <main+0x1cc7>
    45da: a2 42        	ldx	#$42
    45dc: 86 44        	stx	$44                     ; 0x2044 <main+0x1cdb>
    45de: 8e 14 d0     	stx	$d014                   ; 0xd014 <__heap_start+0x3d44>
    45e1: 9c 15 d0     	stz	$d015                   ; 0xd015 <__heap_start+0x3d45>
    45e4: a2 01        	ldx	#$1
    45e6: 86 45        	stx	$45                     ; 0x2045 <main+0x1cdc>
    45e8: 8e 16 d0     	stx	$d016                   ; 0xd016 <__heap_start+0x3d46>
    45eb: 9c 17 d0     	stz	$d017                   ; 0xd017 <__heap_start+0x3d47>
    45ee: a2 8c        	ldx	#$8c
    45f0: 86 12        	stx	$12                     ; 0x2012 <main+0x1ca9>
    45f2: a2 7d        	ldx	#$7d
    45f4: 86 13        	stx	$13                     ; 0x2013 <main+0x1caa>
    45f6: 20 4d 49     	jsr	$494d <textPrint>
    45f9: a2 44        	ldx	#$44
    45fb: 86 44        	stx	$44                     ; 0x2044 <main+0x1cdb>
    45fd: 8e 14 d0     	stx	$d014                   ; 0xd014 <__heap_start+0x3d44>
    4600: 9c 15 d0     	stz	$d015                   ; 0xd015 <__heap_start+0x3d45>
    4603: a2 02        	ldx	#$2
    4605: 86 45        	stx	$45                     ; 0x2045 <main+0x1cdc>
    4607: 8e 16 d0     	stx	$d016                   ; 0xd016 <__heap_start+0x3d46>
    460a: 9c 17 d0     	stz	$d017                   ; 0xd017 <__heap_start+0x3d47>
    460d: a2 4a        	ldx	#$4a
    460f: 86 12        	stx	$12                     ; 0x2012 <main+0x1ca9>
    4611: a2 7e        	ldx	#$7e
    4613: 86 13        	stx	$13                     ; 0x2013 <main+0x1caa>
    4615: 20 4d 49     	jsr	$494d <textPrint>
    4618: a2 47        	ldx	#$47
    461a: 86 44        	stx	$44                     ; 0x2044 <main+0x1cdb>
    461c: 8e 14 d0     	stx	$d014                   ; 0xd014 <__heap_start+0x3d44>
    461f: 9c 15 d0     	stz	$d015                   ; 0xd015 <__heap_start+0x3d45>
    4622: a2 03        	ldx	#$3
    4624: 86 45        	stx	$45                     ; 0x2045 <main+0x1cdc>
    4626: 8e 16 d0     	stx	$d016                   ; 0xd016 <__heap_start+0x3d46>
    4629: 9c 17 d0     	stz	$d017                   ; 0xd017 <__heap_start+0x3d47>
    462c: a2 6c        	ldx	#$6c
    462e: 86 12        	stx	$12                     ; 0x2012 <main+0x1ca9>
    4630: a2 7e        	ldx	#$7e
    4632: 86 13        	stx	$13                     ; 0x2013 <main+0x1caa>
    4634: 20 4d 49     	jsr	$494d <textPrint>
    4637: a2 3e        	ldx	#$3e
    4639: 86 44        	stx	$44                     ; 0x2044 <main+0x1cdb>
    463b: 8e 14 d0     	stx	$d014                   ; 0xd014 <__heap_start+0x3d44>
    463e: 9c 15 d0     	stz	$d015                   ; 0xd015 <__heap_start+0x3d45>
    4641: a2 08        	ldx	#$8
    4643: 86 45        	stx	$45                     ; 0x2045 <main+0x1cdc>
    4645: 8e 16 d0     	stx	$d016                   ; 0xd016 <__heap_start+0x3d46>
    4648: 9c 17 d0     	stz	$d017                   ; 0xd017 <__heap_start+0x3d47>
    464b: a2 54        	ldx	#$54
    464d: 86 12        	stx	$12                     ; 0x2012 <main+0x1ca9>
    464f: a2 7e        	ldx	#$7e
    4651: 86 13        	stx	$13                     ; 0x2013 <main+0x1caa>
    4653: 20 4d 49     	jsr	$494d <textPrint>
    4656: 64 44        	stz	$44                     ; 0x2044 <main+0x1cdb>
    4658: 9c 14 d0     	stz	$d014                   ; 0xd014 <__heap_start+0x3d44>
    465b: 9c 15 d0     	stz	$d015                   ; 0xd015 <__heap_start+0x3d45>
    465e: 64 45        	stz	$45                     ; 0x2045 <main+0x1cdc>
    4660: 9c 16 d0     	stz	$d016                   ; 0xd016 <__heap_start+0x3d46>
    4663: 9c 17 d0     	stz	$d017                   ; 0xd017 <__heap_start+0x3d47>
    4666: a5 6b        	lda	$6b                     ; 0x206b <main+0x1d02>
    4668: f0 25        	beq	$468f <writeTopRight+0xcc>
    466a: a9 ba        	lda	#$ba
    466c: 92 10        	sta	($10)                   ; 0x2010 <main+0x1ca7>
    466e: a0 01        	ldy	#$1
    4670: a9 80        	lda	#$80
    4672: 91 10        	sta	($10),y                 ; 0x2010 <main+0x1ca7>
    4674: a2 db        	ldx	#$db
    4676: 86 12        	stx	$12                     ; 0x2012 <main+0x1ca9>
    4678: a2 7d        	ldx	#$7d
    467a: 86 13        	stx	$13                     ; 0x2013 <main+0x1caa>
    467c: 20 ab 79     	jsr	$79ab <printf>
    467f: a2 5e        	ldx	#$5e
    4681: 86 6b        	stx	$6b                     ; 0x206b <main+0x1d02>
    4683: a2 7e        	ldx	#$7e
    4685: 86 6c        	stx	$6c                     ; 0x206c <main+0x1d03>
    4687: a2 09        	ldx	#$9
    4689: 86 12        	stx	$12                     ; 0x2012 <main+0x1ca9>
    468b: a2 7d        	ldx	#$7d
    468d: 80 19        	bra	$46a8 <writeTopRight+0xe5>
    468f: a2 7c        	ldx	#$7c
    4691: 86 12        	stx	$12                     ; 0x2012 <main+0x1ca9>
    4693: a2 7c        	ldx	#$7c
    4695: 86 13        	stx	$13                     ; 0x2013 <main+0x1caa>
    4697: 20 ab 79     	jsr	$79ab <printf>
    469a: a2 92        	ldx	#$92
    469c: 86 6b        	stx	$6b                     ; 0x206b <main+0x1d02>
    469e: a2 7e        	ldx	#$7e
    46a0: 86 6c        	stx	$6c                     ; 0x206c <main+0x1d03>
    46a2: a2 e5        	ldx	#$e5
    46a4: 86 12        	stx	$12                     ; 0x2012 <main+0x1ca9>
    46a6: a2 7e        	ldx	#$7e
    46a8: 86 13        	stx	$13                     ; 0x2013 <main+0x1caa>
    46aa: a2 3e        	ldx	#$3e
    46ac: 86 44        	stx	$44                     ; 0x2044 <main+0x1cdb>
    46ae: 8e 14 d0     	stx	$d014                   ; 0xd014 <__heap_start+0x3d44>
    46b1: 9c 15 d0     	stz	$d015                   ; 0xd015 <__heap_start+0x3d45>
    46b4: a2 09        	ldx	#$9
    46b6: 86 45        	stx	$45                     ; 0x2045 <main+0x1cdc>
    46b8: 8e 16 d0     	stx	$d016                   ; 0xd016 <__heap_start+0x3d46>
    46bb: 9c 17 d0     	stz	$d017                   ; 0xd017 <__heap_start+0x3d47>
    46be: 20 4d 49     	jsr	$494d <textPrint>
    46c1: a2 3e        	ldx	#$3e
    46c3: 86 44        	stx	$44                     ; 0x2044 <main+0x1cdb>
    46c5: 8e 14 d0     	stx	$d014                   ; 0xd014 <__heap_start+0x3d44>
    46c8: 9c 15 d0     	stz	$d015                   ; 0xd015 <__heap_start+0x3d45>
    46cb: a2 0a        	ldx	#$a
    46cd: 86 45        	stx	$45                     ; 0x2045 <main+0x1cdc>
    46cf: 8e 16 d0     	stx	$d016                   ; 0xd016 <__heap_start+0x3d46>
    46d2: 9c 17 d0     	stz	$d017                   ; 0xd017 <__heap_start+0x3d47>
    46d5: a6 6b        	ldx	$6b                     ; 0x206b <main+0x1d02>
    46d7: 86 12        	stx	$12                     ; 0x2012 <main+0x1ca9>
    46d9: a6 6c        	ldx	$6c                     ; 0x206c <main+0x1d03>
    46db: 86 13        	stx	$13                     ; 0x2013 <main+0x1caa>
    46dd: 20 4d 49     	jsr	$494d <textPrint>
    46e0: 18           	clc
    46e1: a5 10        	lda	$10                     ; 0x2010 <main+0x1ca7>
    46e3: 69 02        	adc	#$2
    46e5: 85 10        	sta	$10                     ; 0x2010 <main+0x1ca7>
    46e7: a5 11        	lda	$11                     ; 0x2011 <main+0x1ca8>
    46e9: 69 00        	adc	#$0
    46eb: 85 11        	sta	$11                     ; 0x2011 <main+0x1ca8>
    46ed: 60           	rts

000046ee <colMatrixSetup>:
    46ee: a2 03        	ldx	#$3
    46f0: 86 01        	stx	$1                      ; 0x2001 <main+0x1c98>
    46f2: a2 10        	ldx	#$10
    46f4: a0 c9        	ldy	#$c9
    46f6: a9 0f        	lda	#$f
    46f8: 80 05        	bra	$46ff <colMatrixSetup+0x11>
    46fa: c8           	iny
    46fb: c0 c9        	cpy	#$c9
    46fd: f0 0d        	beq	$470c <colMatrixSetup+0x1e>
    46ff: 86 12        	stx	$12                     ; 0x2012 <main+0x1ca9>
    4701: 84 13        	sty	$13                     ; 0x2013 <main+0x1caa>
    4703: 92 12        	sta	($12)                   ; 0x2012 <main+0x1ca9>
    4705: e8           	inx
    4706: f0 f2        	beq	$46fa <colMatrixSetup+0xc>
    4708: c0 c9        	cpy	#$c9
    470a: d0 f3        	bne	$46ff <colMatrixSetup+0x11>
    470c: e0 60        	cpx	#$60
    470e: d0 ef        	bne	$46ff <colMatrixSetup+0x11>
    4710: a2 c8        	ldx	#$c8
    4712: a0 c0        	ldy	#$c0
    4714: a9 1b        	lda	#$1b
    4716: 80 05        	bra	$471d <colMatrixSetup+0x2f>
    4718: e8           	inx
    4719: e0 c9        	cpx	#$c9
    471b: f0 0d        	beq	$472a <colMatrixSetup+0x3c>
    471d: 84 12        	sty	$12                     ; 0x2012 <main+0x1ca9>
    471f: 86 13        	stx	$13                     ; 0x2013 <main+0x1caa>
    4721: 92 12        	sta	($12)                   ; 0x2012 <main+0x1ca9>
    4723: c8           	iny
    4724: f0 f2        	beq	$4718 <colMatrixSetup+0x2a>
    4726: e0 c9        	cpx	#$c9
    4728: d0 f3        	bne	$471d <colMatrixSetup+0x2f>
    472a: c0 10        	cpy	#$10
    472c: d0 ef        	bne	$471d <colMatrixSetup+0x2f>
    472e: a2 70        	ldx	#$70
    4730: a0 c8        	ldy	#$c8
    4732: a9 27        	lda	#$27
    4734: 80 05        	bra	$473b <colMatrixSetup+0x4d>
    4736: c8           	iny
    4737: c0 c8        	cpy	#$c8
    4739: f0 0d        	beq	$4748 <colMatrixSetup+0x5a>
    473b: 86 12        	stx	$12                     ; 0x2012 <main+0x1ca9>
    473d: 84 13        	sty	$13                     ; 0x2013 <main+0x1caa>
    473f: 92 12        	sta	($12)                   ; 0x2012 <main+0x1ca9>
    4741: e8           	inx
    4742: f0 f2        	beq	$4736 <colMatrixSetup+0x48>
    4744: c0 c8        	cpy	#$c8
    4746: d0 f3        	bne	$473b <colMatrixSetup+0x4d>
    4748: e0 c0        	cpx	#$c0
    474a: d0 ef        	bne	$473b <colMatrixSetup+0x4d>
    474c: a2 20        	ldx	#$20
    474e: a0 c8        	ldy	#$c8
    4750: a9 33        	lda	#$33
    4752: 80 05        	bra	$4759 <colMatrixSetup+0x6b>
    4754: c8           	iny
    4755: c0 c8        	cpy	#$c8
    4757: f0 0d        	beq	$4766 <colMatrixSetup+0x78>
    4759: 86 12        	stx	$12                     ; 0x2012 <main+0x1ca9>
    475b: 84 13        	sty	$13                     ; 0x2013 <main+0x1caa>
    475d: 92 12        	sta	($12)                   ; 0x2012 <main+0x1ca9>
    475f: e8           	inx
    4760: f0 f2        	beq	$4754 <colMatrixSetup+0x66>
    4762: c0 c8        	cpy	#$c8
    4764: d0 f3        	bne	$4759 <colMatrixSetup+0x6b>
    4766: e0 70        	cpx	#$70
    4768: d0 ef        	bne	$4759 <colMatrixSetup+0x6b>
    476a: a0 c7        	ldy	#$c7
    476c: a2 d0        	ldx	#$d0
    476e: a9 3f        	lda	#$3f
    4770: 80 05        	bra	$4777 <colMatrixSetup+0x89>
    4772: c8           	iny
    4773: c0 c8        	cpy	#$c8
    4775: f0 0d        	beq	$4784 <colMatrixSetup+0x96>
    4777: 86 12        	stx	$12                     ; 0x2012 <main+0x1ca9>
    4779: 84 13        	sty	$13                     ; 0x2013 <main+0x1caa>
    477b: 92 12        	sta	($12)                   ; 0x2012 <main+0x1ca9>
    477d: e8           	inx
    477e: f0 f2        	beq	$4772 <colMatrixSetup+0x84>
    4780: c0 c8        	cpy	#$c8
    4782: d0 f3        	bne	$4777 <colMatrixSetup+0x89>
    4784: e0 20        	cpx	#$20
    4786: d0 ef        	bne	$4777 <colMatrixSetup+0x89>
    4788: a2 80        	ldx	#$80
    478a: a0 c7        	ldy	#$c7
    478c: a9 4b        	lda	#$4b
    478e: 80 05        	bra	$4795 <colMatrixSetup+0xa7>
    4790: c8           	iny
    4791: c0 c7        	cpy	#$c7
    4793: f0 0d        	beq	$47a2 <colMatrixSetup+0xb4>
    4795: 86 12        	stx	$12                     ; 0x2012 <main+0x1ca9>
    4797: 84 13        	sty	$13                     ; 0x2013 <main+0x1caa>
    4799: 92 12        	sta	($12)                   ; 0x2012 <main+0x1ca9>
    479b: e8           	inx
    479c: f0 f2        	beq	$4790 <colMatrixSetup+0xa2>
    479e: c0 c7        	cpy	#$c7
    47a0: d0 f3        	bne	$4795 <colMatrixSetup+0xa7>
    47a2: e0 d0        	cpx	#$d0
    47a4: d0 ef        	bne	$4795 <colMatrixSetup+0xa7>
    47a6: a2 30        	ldx	#$30
    47a8: a0 c7        	ldy	#$c7
    47aa: a9 57        	lda	#$57
    47ac: 80 05        	bra	$47b3 <colMatrixSetup+0xc5>
    47ae: c8           	iny
    47af: c0 c7        	cpy	#$c7
    47b1: f0 0d        	beq	$47c0 <colMatrixSetup+0xd2>
    47b3: 86 12        	stx	$12                     ; 0x2012 <main+0x1ca9>
    47b5: 84 13        	sty	$13                     ; 0x2013 <main+0x1caa>
    47b7: 92 12        	sta	($12)                   ; 0x2012 <main+0x1ca9>
    47b9: e8           	inx
    47ba: f0 f2        	beq	$47ae <colMatrixSetup+0xc0>
    47bc: c0 c7        	cpy	#$c7
    47be: d0 f3        	bne	$47b3 <colMatrixSetup+0xc5>
    47c0: e0 80        	cpx	#$80
    47c2: d0 ef        	bne	$47b3 <colMatrixSetup+0xc5>
    47c4: a2 c6        	ldx	#$c6
    47c6: a0 e0        	ldy	#$e0
    47c8: a9 63        	lda	#$63
    47ca: 80 05        	bra	$47d1 <colMatrixSetup+0xe3>
    47cc: e8           	inx
    47cd: e0 c7        	cpx	#$c7
    47cf: f0 0d        	beq	$47de <colMatrixSetup+0xf0>
    47d1: 84 12        	sty	$12                     ; 0x2012 <main+0x1ca9>
    47d3: 86 13        	stx	$13                     ; 0x2013 <main+0x1caa>
    47d5: 92 12        	sta	($12)                   ; 0x2012 <main+0x1ca9>
    47d7: c8           	iny
    47d8: f0 f2        	beq	$47cc <colMatrixSetup+0xde>
    47da: e0 c7        	cpx	#$c7
    47dc: d0 f3        	bne	$47d1 <colMatrixSetup+0xe3>
    47de: c0 30        	cpy	#$30
    47e0: d0 ef        	bne	$47d1 <colMatrixSetup+0xe3>
    47e2: a2 90        	ldx	#$90
    47e4: a0 c6        	ldy	#$c6
    47e6: a9 6f        	lda	#$6f
    47e8: 80 05        	bra	$47ef <colMatrixSetup+0x101>
    47ea: c8           	iny
    47eb: c0 c6        	cpy	#$c6
    47ed: f0 0d        	beq	$47fc <colMatrixSetup+0x10e>
    47ef: 86 12        	stx	$12                     ; 0x2012 <main+0x1ca9>
    47f1: 84 13        	sty	$13                     ; 0x2013 <main+0x1caa>
    47f3: 92 12        	sta	($12)                   ; 0x2012 <main+0x1ca9>
    47f5: e8           	inx
    47f6: f0 f2        	beq	$47ea <colMatrixSetup+0xfc>
    47f8: c0 c6        	cpy	#$c6
    47fa: d0 f3        	bne	$47ef <colMatrixSetup+0x101>
    47fc: e0 e0        	cpx	#$e0
    47fe: d0 ef        	bne	$47ef <colMatrixSetup+0x101>
    4800: a2 40        	ldx	#$40
    4802: a0 c6        	ldy	#$c6
    4804: a9 7b        	lda	#$7b
    4806: 80 05        	bra	$480d <colMatrixSetup+0x11f>
    4808: c8           	iny
    4809: c0 c6        	cpy	#$c6
    480b: f0 0d        	beq	$481a <colMatrixSetup+0x12c>
    480d: 86 12        	stx	$12                     ; 0x2012 <main+0x1ca9>
    480f: 84 13        	sty	$13                     ; 0x2013 <main+0x1caa>
    4811: 92 12        	sta	($12)                   ; 0x2012 <main+0x1ca9>
    4813: e8           	inx
    4814: f0 f2        	beq	$4808 <colMatrixSetup+0x11a>
    4816: c0 c6        	cpy	#$c6
    4818: d0 f3        	bne	$480d <colMatrixSetup+0x11f>
    481a: e0 90        	cpx	#$90
    481c: d0 ef        	bne	$480d <colMatrixSetup+0x11f>
    481e: a2 c5        	ldx	#$c5
    4820: a0 f0        	ldy	#$f0
    4822: a9 87        	lda	#$87
    4824: 80 05        	bra	$482b <colMatrixSetup+0x13d>
    4826: e8           	inx
    4827: e0 c6        	cpx	#$c6
    4829: f0 0d        	beq	$4838 <colMatrixSetup+0x14a>
    482b: 84 12        	sty	$12                     ; 0x2012 <main+0x1ca9>
    482d: 86 13        	stx	$13                     ; 0x2013 <main+0x1caa>
    482f: 92 12        	sta	($12)                   ; 0x2012 <main+0x1ca9>
    4831: c8           	iny
    4832: f0 f2        	beq	$4826 <colMatrixSetup+0x138>
    4834: e0 c6        	cpx	#$c6
    4836: d0 f3        	bne	$482b <colMatrixSetup+0x13d>
    4838: c0 40        	cpy	#$40
    483a: d0 ef        	bne	$482b <colMatrixSetup+0x13d>
    483c: a2 a0        	ldx	#$a0
    483e: a0 c5        	ldy	#$c5
    4840: a9 93        	lda	#$93
    4842: 80 05        	bra	$4849 <colMatrixSetup+0x15b>
    4844: c8           	iny
    4845: c0 c5        	cpy	#$c5
    4847: f0 0d        	beq	$4856 <colMatrixSetup+0x168>
    4849: 86 12        	stx	$12                     ; 0x2012 <main+0x1ca9>
    484b: 84 13        	sty	$13                     ; 0x2013 <main+0x1caa>
    484d: 92 12        	sta	($12)                   ; 0x2012 <main+0x1ca9>
    484f: e8           	inx
    4850: f0 f2        	beq	$4844 <colMatrixSetup+0x156>
    4852: c0 c5        	cpy	#$c5
    4854: d0 f3        	bne	$4849 <colMatrixSetup+0x15b>
    4856: e0 f0        	cpx	#$f0
    4858: d0 ef        	bne	$4849 <colMatrixSetup+0x15b>
    485a: a2 50        	ldx	#$50
    485c: a0 c5        	ldy	#$c5
    485e: a9 9f        	lda	#$9f
    4860: 80 05        	bra	$4867 <colMatrixSetup+0x179>
    4862: c8           	iny
    4863: c0 c5        	cpy	#$c5
    4865: f0 0d        	beq	$4874 <colMatrixSetup+0x186>
    4867: 86 12        	stx	$12                     ; 0x2012 <main+0x1ca9>
    4869: 84 13        	sty	$13                     ; 0x2013 <main+0x1caa>
    486b: 92 12        	sta	($12)                   ; 0x2012 <main+0x1ca9>
    486d: e8           	inx
    486e: f0 f2        	beq	$4862 <colMatrixSetup+0x174>
    4870: c0 c5        	cpy	#$c5
    4872: d0 f3        	bne	$4867 <colMatrixSetup+0x179>
    4874: e0 a0        	cpx	#$a0
    4876: d0 ef        	bne	$4867 <colMatrixSetup+0x179>
    4878: a2 00        	ldx	#$0
    487a: a0 c5        	ldy	#$c5
    487c: a9 ab        	lda	#$ab
    487e: 80 05        	bra	$4885 <colMatrixSetup+0x197>
    4880: c8           	iny
    4881: c0 c5        	cpy	#$c5
    4883: f0 0d        	beq	$4892 <colMatrixSetup+0x1a4>
    4885: 86 12        	stx	$12                     ; 0x2012 <main+0x1ca9>
    4887: 84 13        	sty	$13                     ; 0x2013 <main+0x1caa>
    4889: 92 12        	sta	($12)                   ; 0x2012 <main+0x1ca9>
    488b: e8           	inx
    488c: f0 f2        	beq	$4880 <colMatrixSetup+0x192>
    488e: c0 c5        	cpy	#$c5
    4890: d0 f3        	bne	$4885 <colMatrixSetup+0x197>
    4892: e0 50        	cpx	#$50
    4894: d0 ef        	bne	$4885 <colMatrixSetup+0x197>
    4896: a2 c4        	ldx	#$c4
    4898: a0 b0        	ldy	#$b0
    489a: a9 b7        	lda	#$b7
    489c: 80 05        	bra	$48a3 <colMatrixSetup+0x1b5>
    489e: e8           	inx
    489f: e0 c5        	cpx	#$c5
    48a1: f0 0d        	beq	$48b0 <colMatrixSetup+0x1c2>
    48a3: 84 12        	sty	$12                     ; 0x2012 <main+0x1ca9>
    48a5: 86 13        	stx	$13                     ; 0x2013 <main+0x1caa>
    48a7: 92 12        	sta	($12)                   ; 0x2012 <main+0x1ca9>
    48a9: c8           	iny
    48aa: f0 f2        	beq	$489e <colMatrixSetup+0x1b0>
    48ac: e0 c5        	cpx	#$c5
    48ae: d0 f3        	bne	$48a3 <colMatrixSetup+0x1b5>
    48b0: c0 00        	cpy	#$0
    48b2: d0 ef        	bne	$48a3 <colMatrixSetup+0x1b5>
    48b4: a2 c4        	ldx	#$c4
    48b6: a0 60        	ldy	#$60
    48b8: a9 c3        	lda	#$c3
    48ba: 80 05        	bra	$48c1 <colMatrixSetup+0x1d3>
    48bc: e8           	inx
    48bd: e0 c4        	cpx	#$c4
    48bf: f0 0d        	beq	$48ce <colMatrixSetup+0x1e0>
    48c1: 84 12        	sty	$12                     ; 0x2012 <main+0x1ca9>
    48c3: 86 13        	stx	$13                     ; 0x2013 <main+0x1caa>
    48c5: 92 12        	sta	($12)                   ; 0x2012 <main+0x1ca9>
    48c7: c8           	iny
    48c8: f0 f2        	beq	$48bc <colMatrixSetup+0x1ce>
    48ca: e0 c4        	cpx	#$c4
    48cc: d0 f3        	bne	$48c1 <colMatrixSetup+0x1d3>
    48ce: c0 b0        	cpy	#$b0
    48d0: d0 ef        	bne	$48c1 <colMatrixSetup+0x1d3>
    48d2: a0 c4        	ldy	#$c4
    48d4: a2 10        	ldx	#$10
    48d6: a9 cf        	lda	#$cf
    48d8: 80 05        	bra	$48df <colMatrixSetup+0x1f1>
    48da: c8           	iny
    48db: c0 c4        	cpy	#$c4
    48dd: f0 0d        	beq	$48ec <colMatrixSetup+0x1fe>
    48df: 86 12        	stx	$12                     ; 0x2012 <main+0x1ca9>
    48e1: 84 13        	sty	$13                     ; 0x2013 <main+0x1caa>
    48e3: 92 12        	sta	($12)                   ; 0x2012 <main+0x1ca9>
    48e5: e8           	inx
    48e6: f0 f2        	beq	$48da <colMatrixSetup+0x1ec>
    48e8: c0 c4        	cpy	#$c4
    48ea: d0 f3        	bne	$48df <colMatrixSetup+0x1f1>
    48ec: e0 60        	cpx	#$60
    48ee: d0 ef        	bne	$48df <colMatrixSetup+0x1f1>
    48f0: a2 c3        	ldx	#$c3
    48f2: a0 c0        	ldy	#$c0
    48f4: a9 db        	lda	#$db
    48f6: 80 05        	bra	$48fd <colMatrixSetup+0x20f>
    48f8: e8           	inx
    48f9: e0 c4        	cpx	#$c4
    48fb: f0 0d        	beq	$490a <colMatrixSetup+0x21c>
    48fd: 84 12        	sty	$12                     ; 0x2012 <main+0x1ca9>
    48ff: 86 13        	stx	$13                     ; 0x2013 <main+0x1caa>
    4901: 92 12        	sta	($12)                   ; 0x2012 <main+0x1ca9>
    4903: c8           	iny
    4904: f0 f2        	beq	$48f8 <colMatrixSetup+0x20a>
    4906: e0 c4        	cpx	#$c4
    4908: d0 f3        	bne	$48fd <colMatrixSetup+0x20f>
    490a: c0 10        	cpy	#$10
    490c: d0 ef        	bne	$48fd <colMatrixSetup+0x20f>
    490e: a2 c3        	ldx	#$c3
    4910: a0 70        	ldy	#$70
    4912: a9 e7        	lda	#$e7
    4914: 80 05        	bra	$491b <colMatrixSetup+0x22d>
    4916: e8           	inx
    4917: e0 c3        	cpx	#$c3
    4919: f0 0d        	beq	$4928 <colMatrixSetup+0x23a>
    491b: 84 12        	sty	$12                     ; 0x2012 <main+0x1ca9>
    491d: 86 13        	stx	$13                     ; 0x2013 <main+0x1caa>
    491f: 92 12        	sta	($12)                   ; 0x2012 <main+0x1ca9>
    4921: c8           	iny
    4922: f0 f2        	beq	$4916 <colMatrixSetup+0x228>
    4924: e0 c3        	cpx	#$c3
    4926: d0 f3        	bne	$491b <colMatrixSetup+0x22d>
    4928: c0 c0        	cpy	#$c0
    492a: d0 ef        	bne	$491b <colMatrixSetup+0x22d>
    492c: a2 c3        	ldx	#$c3
    492e: a0 20        	ldy	#$20
    4930: a9 f3        	lda	#$f3
    4932: 80 05        	bra	$4939 <colMatrixSetup+0x24b>
    4934: e8           	inx
    4935: e0 c3        	cpx	#$c3
    4937: f0 0d        	beq	$4946 <colMatrixSetup+0x258>
    4939: 84 12        	sty	$12                     ; 0x2012 <main+0x1ca9>
    493b: 86 13        	stx	$13                     ; 0x2013 <main+0x1caa>
    493d: 92 12        	sta	($12)                   ; 0x2012 <main+0x1ca9>
    493f: c8           	iny
    4940: f0 f2        	beq	$4934 <colMatrixSetup+0x246>
    4942: e0 c3        	cpx	#$c3
    4944: d0 f3        	bne	$4939 <colMatrixSetup+0x24b>
    4946: c0 70        	cpy	#$70
    4948: d0 ef        	bne	$4939 <colMatrixSetup+0x24b>
    494a: 64 01        	stz	$1                      ; 0x2001 <main+0x1c98>
    494c: 60           	rts

0000494d <textPrint>:
    494d: a6 01        	ldx	$1                      ; 0x2001 <main+0x1c98>
    494f: 86 1c        	stx	$1c                     ; 0x201c <main+0x1cb3>
    4951: a6 45        	ldx	$45                     ; 0x2045 <main+0x1cdc>
    4953: a0 50        	ldy	#$50
    4955: 8c 00 de     	sty	$de00                   ; 0xde00 <__heap_start+0x4b30>
    4958: 9c 01 de     	stz	$de01                   ; 0xde01 <__heap_start+0x4b31>
    495b: 8e 02 de     	stx	$de02                   ; 0xde02 <__heap_start+0x4b32>
    495e: 9c 03 de     	stz	$de03                   ; 0xde03 <__heap_start+0x4b33>
    4961: ae 10 de     	ldx	$de10                   ; 0xde10 <__heap_start+0x4b40>
    4964: ac 11 de     	ldy	$de11                   ; 0xde11 <__heap_start+0x4b41>
    4967: 84 15        	sty	$15                     ; 0x2015 <main+0x1cac>
    4969: ad 12 de     	lda	$de12                   ; 0xde12 <__heap_start+0x4b42>
    496c: ac 13 de     	ldy	$de13                   ; 0xde13 <__heap_start+0x4b43>
    496f: 84 18        	sty	$18                     ; 0x2018 <main+0x1caf>
    4971: 9c 08 de     	stz	$de08                   ; 0xde08 <__heap_start+0x4b38>
    4974: a0 c0        	ldy	#$c0
    4976: 8c 09 de     	sty	$de09                   ; 0xde09 <__heap_start+0x4b39>
    4979: 9c 0a de     	stz	$de0a                   ; 0xde0a <__heap_start+0x4b3a>
    497c: 9c 0b de     	stz	$de0b                   ; 0xde0b <__heap_start+0x4b3b>
    497f: 8e 0c de     	stx	$de0c                   ; 0xde0c <__heap_start+0x4b3c>
    4982: 64 14        	stz	$14                     ; 0x2014 <main+0x1cab>
    4984: a2 00        	ldx	#$0
    4986: 86 16        	stx	$16                     ; 0x2016 <main+0x1cad>
    4988: a2 c0        	ldx	#$c0
    498a: 86 17        	stx	$17                     ; 0x2017 <main+0x1cae>
    498c: a6 15        	ldx	$15                     ; 0x2015 <main+0x1cac>
    498e: 8e 0d de     	stx	$de0d                   ; 0xde0d <__heap_start+0x4b3d>
    4991: 8d 0e de     	sta	$de0e                   ; 0xde0e <__heap_start+0x4b3e>
    4994: a6 18        	ldx	$18                     ; 0x2018 <main+0x1caf>
    4996: 8e 0f de     	stx	$de0f                   ; 0xde0f <__heap_start+0x4b3f>
    4999: ac 18 de     	ldy	$de18                   ; 0xde18 <__heap_start+0x4b48>
    499c: ad 19 de     	lda	$de19                   ; 0xde19 <__heap_start+0x4b49>
    499f: ae 1a de     	ldx	$de1a                   ; 0xde1a <__heap_start+0x4b4a>
    49a2: ae 1b de     	ldx	$de1b                   ; 0xde1b <__heap_start+0x4b4b>
    49a5: 84 18        	sty	$18                     ; 0x2018 <main+0x1caf>
    49a7: 85 19        	sta	$19                     ; 0x2019 <main+0x1cb0>
    49a9: 64 15        	stz	$15                     ; 0x2015 <main+0x1cac>
    49ab: a2 20        	ldx	#$20
    49ad: 4c 45 4c     	jmp	$4c45 <textPrint+0x2f8>
    49b0: a5 1a        	lda	$1a                     ; 0x201a <main+0x1cb1>
    49b2: f0 1c        	beq	$49d0 <textPrint+0x83>
    49b4: b1 18        	lda	($18),y                 ; 0x2018 <main+0x1caf>
    49b6: 92 18        	sta	($18)                   ; 0x2018 <main+0x1caf>
    49b8: a9 ff        	lda	#$ff
    49ba: c6 1b        	dec	$1b                     ; 0x201b <main+0x1cb2>
    49bc: c5 1b        	cmp	$1b                     ; 0x201b <main+0x1cb2>
    49be: f0 06        	beq	$49c6 <textPrint+0x79>
    49c0: e6 18        	inc	$18                     ; 0x2018 <main+0x1caf>
    49c2: d0 ec        	bne	$49b0 <textPrint+0x63>
    49c4: 80 06        	bra	$49cc <textPrint+0x7f>
    49c6: c6 1a        	dec	$1a                     ; 0x201a <main+0x1cb1>
    49c8: e6 18        	inc	$18                     ; 0x2018 <main+0x1caf>
    49ca: d0 e4        	bne	$49b0 <textPrint+0x63>
    49cc: e6 19        	inc	$19                     ; 0x2019 <main+0x1cb0>
    49ce: 80 e0        	bra	$49b0 <textPrint+0x63>
    49d0: a5 1b        	lda	$1b                     ; 0x201b <main+0x1cb2>
    49d2: d0 e0        	bne	$49b4 <textPrint+0x67>
    49d4: a9 02        	lda	#$2
    49d6: 85 01        	sta	$1                      ; 0x2001 <main+0x1c98>
    49d8: a9 10        	lda	#$10
    49da: 5a           	phy
    49db: a0 00        	ldy	#$0
    49dd: 84 18        	sty	$18                     ; 0x2018 <main+0x1caf>
    49df: a0 c0        	ldy	#$c0
    49e1: 84 19        	sty	$19                     ; 0x2019 <main+0x1cb0>
    49e3: 7a           	ply
    49e4: 85 1b        	sta	$1b                     ; 0x201b <main+0x1cb2>
    49e6: a9 09        	lda	#$9
    49e8: 85 1a        	sta	$1a                     ; 0x201a <main+0x1cb1>
    49ea: 80 04        	bra	$49f0 <textPrint+0xa3>
    49ec: a5 1a        	lda	$1a                     ; 0x201a <main+0x1cb1>
    49ee: f0 1c        	beq	$4a0c <textPrint+0xbf>
    49f0: b1 18        	lda	($18),y                 ; 0x2018 <main+0x1caf>
    49f2: 92 18        	sta	($18)                   ; 0x2018 <main+0x1caf>
    49f4: a9 ff        	lda	#$ff
    49f6: c6 1b        	dec	$1b                     ; 0x201b <main+0x1cb2>
    49f8: c5 1b        	cmp	$1b                     ; 0x201b <main+0x1cb2>
    49fa: f0 06        	beq	$4a02 <textPrint+0xb5>
    49fc: e6 18        	inc	$18                     ; 0x2018 <main+0x1caf>
    49fe: d0 ec        	bne	$49ec <textPrint+0x9f>
    4a00: 80 06        	bra	$4a08 <textPrint+0xbb>
    4a02: c6 1a        	dec	$1a                     ; 0x201a <main+0x1cb1>
    4a04: e6 18        	inc	$18                     ; 0x2018 <main+0x1caf>
    4a06: d0 e4        	bne	$49ec <textPrint+0x9f>
    4a08: e6 19        	inc	$19                     ; 0x2019 <main+0x1cb0>
    4a0a: 80 e0        	bra	$49ec <textPrint+0x9f>
    4a0c: a5 1b        	lda	$1b                     ; 0x201b <main+0x1cb2>
    4a0e: d0 e0        	bne	$49f0 <textPrint+0xa3>
    4a10: a0 02        	ldy	#$2
    4a12: 84 01        	sty	$1                      ; 0x2001 <main+0x1c98>
    4a14: c8           	iny
    4a15: 84 01        	sty	$1                      ; 0x2001 <main+0x1c98>
    4a17: a5 30        	lda	$30                     ; 0x2030 <main+0x1cc7>
    4a19: 8d 10 c9     	sta	$c910                   ; 0xc910 <__heap_start+0x3640>
    4a1c: 8d 11 c9     	sta	$c911                   ; 0xc911 <__heap_start+0x3641>
    4a1f: 8d 12 c9     	sta	$c912                   ; 0xc912 <__heap_start+0x3642>
    4a22: 8d 13 c9     	sta	$c913                   ; 0xc913 <__heap_start+0x3643>
    4a25: 8d 14 c9     	sta	$c914                   ; 0xc914 <__heap_start+0x3644>
    4a28: 8d 15 c9     	sta	$c915                   ; 0xc915 <__heap_start+0x3645>
    4a2b: 8d 16 c9     	sta	$c916                   ; 0xc916 <__heap_start+0x3646>
    4a2e: 8d 17 c9     	sta	$c917                   ; 0xc917 <__heap_start+0x3647>
    4a31: 8d 18 c9     	sta	$c918                   ; 0xc918 <__heap_start+0x3648>
    4a34: 8d 19 c9     	sta	$c919                   ; 0xc919 <__heap_start+0x3649>
    4a37: 8d 1a c9     	sta	$c91a                   ; 0xc91a <__heap_start+0x364a>
    4a3a: 8d 1b c9     	sta	$c91b                   ; 0xc91b <__heap_start+0x364b>
    4a3d: 8d 1c c9     	sta	$c91c                   ; 0xc91c <__heap_start+0x364c>
    4a40: 8d 1d c9     	sta	$c91d                   ; 0xc91d <__heap_start+0x364d>
    4a43: 8d 1e c9     	sta	$c91e                   ; 0xc91e <__heap_start+0x364e>
    4a46: 8d 1f c9     	sta	$c91f                   ; 0xc91f <__heap_start+0x364f>
    4a49: 8d 20 c9     	sta	$c920                   ; 0xc920 <__heap_start+0x3650>
    4a4c: 8d 21 c9     	sta	$c921                   ; 0xc921 <__heap_start+0x3651>
    4a4f: 8d 22 c9     	sta	$c922                   ; 0xc922 <__heap_start+0x3652>
    4a52: 8d 23 c9     	sta	$c923                   ; 0xc923 <__heap_start+0x3653>
    4a55: 8d 24 c9     	sta	$c924                   ; 0xc924 <__heap_start+0x3654>
    4a58: 8d 25 c9     	sta	$c925                   ; 0xc925 <__heap_start+0x3655>
    4a5b: 8d 26 c9     	sta	$c926                   ; 0xc926 <__heap_start+0x3656>
    4a5e: 8d 27 c9     	sta	$c927                   ; 0xc927 <__heap_start+0x3657>
    4a61: 8d 28 c9     	sta	$c928                   ; 0xc928 <__heap_start+0x3658>
    4a64: 8d 29 c9     	sta	$c929                   ; 0xc929 <__heap_start+0x3659>
    4a67: 8d 2a c9     	sta	$c92a                   ; 0xc92a <__heap_start+0x365a>
    4a6a: 8d 2b c9     	sta	$c92b                   ; 0xc92b <__heap_start+0x365b>
    4a6d: 8d 2c c9     	sta	$c92c                   ; 0xc92c <__heap_start+0x365c>
    4a70: 8d 2d c9     	sta	$c92d                   ; 0xc92d <__heap_start+0x365d>
    4a73: 8d 2e c9     	sta	$c92e                   ; 0xc92e <__heap_start+0x365e>
    4a76: 8d 2f c9     	sta	$c92f                   ; 0xc92f <__heap_start+0x365f>
    4a79: 8d 30 c9     	sta	$c930                   ; 0xc930 <__heap_start+0x3660>
    4a7c: 8d 31 c9     	sta	$c931                   ; 0xc931 <__heap_start+0x3661>
    4a7f: 8d 32 c9     	sta	$c932                   ; 0xc932 <__heap_start+0x3662>
    4a82: 8d 33 c9     	sta	$c933                   ; 0xc933 <__heap_start+0x3663>
    4a85: 8d 34 c9     	sta	$c934                   ; 0xc934 <__heap_start+0x3664>
    4a88: 8d 35 c9     	sta	$c935                   ; 0xc935 <__heap_start+0x3665>
    4a8b: 8d 36 c9     	sta	$c936                   ; 0xc936 <__heap_start+0x3666>
    4a8e: 8d 37 c9     	sta	$c937                   ; 0xc937 <__heap_start+0x3667>
    4a91: 8d 38 c9     	sta	$c938                   ; 0xc938 <__heap_start+0x3668>
    4a94: 8d 39 c9     	sta	$c939                   ; 0xc939 <__heap_start+0x3669>
    4a97: 8d 3a c9     	sta	$c93a                   ; 0xc93a <__heap_start+0x366a>
    4a9a: 8d 3b c9     	sta	$c93b                   ; 0xc93b <__heap_start+0x366b>
    4a9d: 8d 3c c9     	sta	$c93c                   ; 0xc93c <__heap_start+0x366c>
    4aa0: 8d 3d c9     	sta	$c93d                   ; 0xc93d <__heap_start+0x366d>
    4aa3: 8d 3e c9     	sta	$c93e                   ; 0xc93e <__heap_start+0x366e>
    4aa6: 8d 3f c9     	sta	$c93f                   ; 0xc93f <__heap_start+0x366f>
    4aa9: 8d 40 c9     	sta	$c940                   ; 0xc940 <__heap_start+0x3670>
    4aac: 8d 41 c9     	sta	$c941                   ; 0xc941 <__heap_start+0x3671>
    4aaf: 8d 42 c9     	sta	$c942                   ; 0xc942 <__heap_start+0x3672>
    4ab2: 8d 43 c9     	sta	$c943                   ; 0xc943 <__heap_start+0x3673>
    4ab5: 8d 44 c9     	sta	$c944                   ; 0xc944 <__heap_start+0x3674>
    4ab8: 8d 45 c9     	sta	$c945                   ; 0xc945 <__heap_start+0x3675>
    4abb: 8d 46 c9     	sta	$c946                   ; 0xc946 <__heap_start+0x3676>
    4abe: 8d 47 c9     	sta	$c947                   ; 0xc947 <__heap_start+0x3677>
    4ac1: 8d 48 c9     	sta	$c948                   ; 0xc948 <__heap_start+0x3678>
    4ac4: 8d 49 c9     	sta	$c949                   ; 0xc949 <__heap_start+0x3679>
    4ac7: 8d 4a c9     	sta	$c94a                   ; 0xc94a <__heap_start+0x367a>
    4aca: 8d 4b c9     	sta	$c94b                   ; 0xc94b <__heap_start+0x367b>
    4acd: 8d 4c c9     	sta	$c94c                   ; 0xc94c <__heap_start+0x367c>
    4ad0: 8d 4d c9     	sta	$c94d                   ; 0xc94d <__heap_start+0x367d>
    4ad3: 8d 4e c9     	sta	$c94e                   ; 0xc94e <__heap_start+0x367e>
    4ad6: 8d 4f c9     	sta	$c94f                   ; 0xc94f <__heap_start+0x367f>
    4ad9: 8d 50 c9     	sta	$c950                   ; 0xc950 <__heap_start+0x3680>
    4adc: 8d 51 c9     	sta	$c951                   ; 0xc951 <__heap_start+0x3681>
    4adf: 8d 52 c9     	sta	$c952                   ; 0xc952 <__heap_start+0x3682>
    4ae2: 8d 53 c9     	sta	$c953                   ; 0xc953 <__heap_start+0x3683>
    4ae5: 8d 54 c9     	sta	$c954                   ; 0xc954 <__heap_start+0x3684>
    4ae8: 8d 55 c9     	sta	$c955                   ; 0xc955 <__heap_start+0x3685>
    4aeb: 8d 56 c9     	sta	$c956                   ; 0xc956 <__heap_start+0x3686>
    4aee: 8d 57 c9     	sta	$c957                   ; 0xc957 <__heap_start+0x3687>
    4af1: 8d 58 c9     	sta	$c958                   ; 0xc958 <__heap_start+0x3688>
    4af4: 8d 59 c9     	sta	$c959                   ; 0xc959 <__heap_start+0x3689>
    4af7: 8d 5a c9     	sta	$c95a                   ; 0xc95a <__heap_start+0x368a>
    4afa: 8d 5b c9     	sta	$c95b                   ; 0xc95b <__heap_start+0x368b>
    4afd: 8d 5c c9     	sta	$c95c                   ; 0xc95c <__heap_start+0x368c>
    4b00: 8d 5d c9     	sta	$c95d                   ; 0xc95d <__heap_start+0x368d>
    4b03: 8d 5e c9     	sta	$c95e                   ; 0xc95e <__heap_start+0x368e>
    4b06: 8d 5f c9     	sta	$c95f                   ; 0xc95f <__heap_start+0x368f>
    4b09: 88           	dey
    4b0a: 84 01        	sty	$1                      ; 0x2001 <main+0x1c98>
    4b0c: 8e 10 c9     	stx	$c910                   ; 0xc910 <__heap_start+0x3640>
    4b0f: 8e 11 c9     	stx	$c911                   ; 0xc911 <__heap_start+0x3641>
    4b12: 8e 12 c9     	stx	$c912                   ; 0xc912 <__heap_start+0x3642>
    4b15: 8e 13 c9     	stx	$c913                   ; 0xc913 <__heap_start+0x3643>
    4b18: 8e 14 c9     	stx	$c914                   ; 0xc914 <__heap_start+0x3644>
    4b1b: 8e 15 c9     	stx	$c915                   ; 0xc915 <__heap_start+0x3645>
    4b1e: 8e 16 c9     	stx	$c916                   ; 0xc916 <__heap_start+0x3646>
    4b21: 8e 17 c9     	stx	$c917                   ; 0xc917 <__heap_start+0x3647>
    4b24: 8e 18 c9     	stx	$c918                   ; 0xc918 <__heap_start+0x3648>
    4b27: 8e 19 c9     	stx	$c919                   ; 0xc919 <__heap_start+0x3649>
    4b2a: 8e 1a c9     	stx	$c91a                   ; 0xc91a <__heap_start+0x364a>
    4b2d: 8e 1b c9     	stx	$c91b                   ; 0xc91b <__heap_start+0x364b>
    4b30: 8e 1c c9     	stx	$c91c                   ; 0xc91c <__heap_start+0x364c>
    4b33: 8e 1d c9     	stx	$c91d                   ; 0xc91d <__heap_start+0x364d>
    4b36: 8e 1e c9     	stx	$c91e                   ; 0xc91e <__heap_start+0x364e>
    4b39: 8e 1f c9     	stx	$c91f                   ; 0xc91f <__heap_start+0x364f>
    4b3c: 8e 20 c9     	stx	$c920                   ; 0xc920 <__heap_start+0x3650>
    4b3f: 8e 21 c9     	stx	$c921                   ; 0xc921 <__heap_start+0x3651>
    4b42: 8e 22 c9     	stx	$c922                   ; 0xc922 <__heap_start+0x3652>
    4b45: 8e 23 c9     	stx	$c923                   ; 0xc923 <__heap_start+0x3653>
    4b48: 8e 24 c9     	stx	$c924                   ; 0xc924 <__heap_start+0x3654>
    4b4b: 8e 25 c9     	stx	$c925                   ; 0xc925 <__heap_start+0x3655>
    4b4e: 8e 26 c9     	stx	$c926                   ; 0xc926 <__heap_start+0x3656>
    4b51: 8e 27 c9     	stx	$c927                   ; 0xc927 <__heap_start+0x3657>
    4b54: 8e 28 c9     	stx	$c928                   ; 0xc928 <__heap_start+0x3658>
    4b57: 8e 29 c9     	stx	$c929                   ; 0xc929 <__heap_start+0x3659>
    4b5a: 8e 2a c9     	stx	$c92a                   ; 0xc92a <__heap_start+0x365a>
    4b5d: 8e 2b c9     	stx	$c92b                   ; 0xc92b <__heap_start+0x365b>
    4b60: 8e 2c c9     	stx	$c92c                   ; 0xc92c <__heap_start+0x365c>
    4b63: 8e 2d c9     	stx	$c92d                   ; 0xc92d <__heap_start+0x365d>
    4b66: 8e 2e c9     	stx	$c92e                   ; 0xc92e <__heap_start+0x365e>
    4b69: 8e 2f c9     	stx	$c92f                   ; 0xc92f <__heap_start+0x365f>
    4b6c: 8e 30 c9     	stx	$c930                   ; 0xc930 <__heap_start+0x3660>
    4b6f: 8e 31 c9     	stx	$c931                   ; 0xc931 <__heap_start+0x3661>
    4b72: 8e 32 c9     	stx	$c932                   ; 0xc932 <__heap_start+0x3662>
    4b75: 8e 33 c9     	stx	$c933                   ; 0xc933 <__heap_start+0x3663>
    4b78: 8e 34 c9     	stx	$c934                   ; 0xc934 <__heap_start+0x3664>
    4b7b: 8e 35 c9     	stx	$c935                   ; 0xc935 <__heap_start+0x3665>
    4b7e: 8e 36 c9     	stx	$c936                   ; 0xc936 <__heap_start+0x3666>
    4b81: 8e 37 c9     	stx	$c937                   ; 0xc937 <__heap_start+0x3667>
    4b84: 8e 38 c9     	stx	$c938                   ; 0xc938 <__heap_start+0x3668>
    4b87: 8e 39 c9     	stx	$c939                   ; 0xc939 <__heap_start+0x3669>
    4b8a: 8e 3a c9     	stx	$c93a                   ; 0xc93a <__heap_start+0x366a>
    4b8d: 8e 3b c9     	stx	$c93b                   ; 0xc93b <__heap_start+0x366b>
    4b90: 8e 3c c9     	stx	$c93c                   ; 0xc93c <__heap_start+0x366c>
    4b93: 8e 3d c9     	stx	$c93d                   ; 0xc93d <__heap_start+0x366d>
    4b96: 8e 3e c9     	stx	$c93e                   ; 0xc93e <__heap_start+0x366e>
    4b99: 8e 3f c9     	stx	$c93f                   ; 0xc93f <__heap_start+0x366f>
    4b9c: 8e 40 c9     	stx	$c940                   ; 0xc940 <__heap_start+0x3670>
    4b9f: 8e 41 c9     	stx	$c941                   ; 0xc941 <__heap_start+0x3671>
    4ba2: 8e 42 c9     	stx	$c942                   ; 0xc942 <__heap_start+0x3672>
    4ba5: 8e 43 c9     	stx	$c943                   ; 0xc943 <__heap_start+0x3673>
    4ba8: 8e 44 c9     	stx	$c944                   ; 0xc944 <__heap_start+0x3674>
    4bab: 8e 45 c9     	stx	$c945                   ; 0xc945 <__heap_start+0x3675>
    4bae: 8e 46 c9     	stx	$c946                   ; 0xc946 <__heap_start+0x3676>
    4bb1: 8e 47 c9     	stx	$c947                   ; 0xc947 <__heap_start+0x3677>
    4bb4: 8e 48 c9     	stx	$c948                   ; 0xc948 <__heap_start+0x3678>
    4bb7: 8e 49 c9     	stx	$c949                   ; 0xc949 <__heap_start+0x3679>
    4bba: 8e 4a c9     	stx	$c94a                   ; 0xc94a <__heap_start+0x367a>
    4bbd: 8e 4b c9     	stx	$c94b                   ; 0xc94b <__heap_start+0x367b>
    4bc0: 8e 4c c9     	stx	$c94c                   ; 0xc94c <__heap_start+0x367c>
    4bc3: 8e 4d c9     	stx	$c94d                   ; 0xc94d <__heap_start+0x367d>
    4bc6: 8e 4e c9     	stx	$c94e                   ; 0xc94e <__heap_start+0x367e>
    4bc9: 8e 4f c9     	stx	$c94f                   ; 0xc94f <__heap_start+0x367f>
    4bcc: 8e 50 c9     	stx	$c950                   ; 0xc950 <__heap_start+0x3680>
    4bcf: 8e 51 c9     	stx	$c951                   ; 0xc951 <__heap_start+0x3681>
    4bd2: 8e 52 c9     	stx	$c952                   ; 0xc952 <__heap_start+0x3682>
    4bd5: 8e 53 c9     	stx	$c953                   ; 0xc953 <__heap_start+0x3683>
    4bd8: 8e 54 c9     	stx	$c954                   ; 0xc954 <__heap_start+0x3684>
    4bdb: 8e 55 c9     	stx	$c955                   ; 0xc955 <__heap_start+0x3685>
    4bde: 8e 56 c9     	stx	$c956                   ; 0xc956 <__heap_start+0x3686>
    4be1: 8e 57 c9     	stx	$c957                   ; 0xc957 <__heap_start+0x3687>
    4be4: 8e 58 c9     	stx	$c958                   ; 0xc958 <__heap_start+0x3688>
    4be7: 8e 59 c9     	stx	$c959                   ; 0xc959 <__heap_start+0x3689>
    4bea: 8e 5a c9     	stx	$c95a                   ; 0xc95a <__heap_start+0x368a>
    4bed: 8e 5b c9     	stx	$c95b                   ; 0xc95b <__heap_start+0x368b>
    4bf0: 8e 5c c9     	stx	$c95c                   ; 0xc95c <__heap_start+0x368c>
    4bf3: 8e 5d c9     	stx	$c95d                   ; 0xc95d <__heap_start+0x368d>
    4bf6: 8e 5e c9     	stx	$c95e                   ; 0xc95e <__heap_start+0x368e>
    4bf9: 8e 5f c9     	stx	$c95f                   ; 0xc95f <__heap_start+0x368f>
    4bfc: c6 45        	dec	$45                     ; 0x2045 <main+0x1cdc>
    4bfe: 9c 08 de     	stz	$de08                   ; 0xde08 <__heap_start+0x4b38>
    4c01: a0 c0        	ldy	#$c0
    4c03: 8c 09 de     	sty	$de09                   ; 0xde09 <__heap_start+0x4b39>
    4c06: 9c 0a de     	stz	$de0a                   ; 0xde0a <__heap_start+0x4b3a>
    4c09: 9c 0b de     	stz	$de0b                   ; 0xde0b <__heap_start+0x4b3b>
    4c0c: a0 1d        	ldy	#$1d
    4c0e: 8c 0c de     	sty	$de0c                   ; 0xde0c <__heap_start+0x4b3c>
    4c11: 9c 0d de     	stz	$de0d                   ; 0xde0d <__heap_start+0x4b3d>
    4c14: 9c 0e de     	stz	$de0e                   ; 0xde0e <__heap_start+0x4b3e>
    4c17: 9c 0f de     	stz	$de0f                   ; 0xde0f <__heap_start+0x4b3f>
    4c1a: ac 18 de     	ldy	$de18                   ; 0xde18 <__heap_start+0x4b48>
    4c1d: ad 19 de     	lda	$de19                   ; 0xde19 <__heap_start+0x4b49>
    4c20: 85 19        	sta	$19                     ; 0x2019 <main+0x1cb0>
    4c22: ad 1a de     	lda	$de1a                   ; 0xde1a <__heap_start+0x4b4a>
    4c25: 84 18        	sty	$18                     ; 0x2018 <main+0x1caf>
    4c27: ac 1b de     	ldy	$de1b                   ; 0xde1b <__heap_start+0x4b4b>
    4c2a: e6 14        	inc	$14                     ; 0x2014 <main+0x1cab>
    4c2c: d0 02        	bne	$4c30 <textPrint+0x2e3>
    4c2e: e6 15        	inc	$15                     ; 0x2015 <main+0x1cac>
    4c30: 80 13        	bra	$4c45 <textPrint+0x2f8>
    4c32: a5 18        	lda	$18                     ; 0x2018 <main+0x1caf>
    4c34: 18           	clc
    4c35: 69 50        	adc	#$50
    4c37: 85 18        	sta	$18                     ; 0x2018 <main+0x1caf>
    4c39: a5 19        	lda	$19                     ; 0x2019 <main+0x1cb0>
    4c3b: 69 00        	adc	#$0
    4c3d: 85 19        	sta	$19                     ; 0x2019 <main+0x1cb0>
    4c3f: e6 14        	inc	$14                     ; 0x2014 <main+0x1cab>
    4c41: d0 02        	bne	$4c45 <textPrint+0x2f8>
    4c43: e6 15        	inc	$15                     ; 0x2015 <main+0x1cac>
    4c45: a5 12        	lda	$12                     ; 0x2012 <main+0x1ca9>
    4c47: 18           	clc
    4c48: 65 14        	adc	$14                     ; 0x2014 <main+0x1cab>
    4c4a: 85 1a        	sta	$1a                     ; 0x201a <main+0x1cb1>
    4c4c: a5 13        	lda	$13                     ; 0x2013 <main+0x1caa>
    4c4e: 65 15        	adc	$15                     ; 0x2015 <main+0x1cac>
    4c50: 85 1b        	sta	$1b                     ; 0x201b <main+0x1cb2>
    4c52: b2 1a        	lda	($1a)                   ; 0x201a <main+0x1cb1>
    4c54: c9 0a        	cmp	#$a
    4c56: f0 24        	beq	$4c7c <textPrint+0x32f>
    4c58: c9 0d        	cmp	#$d
    4c5a: f0 20        	beq	$4c7c <textPrint+0x32f>
    4c5c: a8           	tay
    4c5d: f0 46        	beq	$4ca5 <textPrint+0x358>
    4c5f: a0 03        	ldy	#$3
    4c61: 84 01        	sty	$1                      ; 0x2001 <main+0x1c98>
    4c63: a5 30        	lda	$30                     ; 0x2030 <main+0x1cc7>
    4c65: a4 44        	ldy	$44                     ; 0x2044 <main+0x1cdb>
    4c67: 91 18        	sta	($18),y                 ; 0x2018 <main+0x1caf>
    4c69: a0 02        	ldy	#$2
    4c6b: 84 01        	sty	$1                      ; 0x2001 <main+0x1c98>
    4c6d: b2 1a        	lda	($1a)                   ; 0x201a <main+0x1cb1>
    4c6f: a4 44        	ldy	$44                     ; 0x2044 <main+0x1cdb>
    4c71: 91 18        	sta	($18),y                 ; 0x2018 <main+0x1caf>
    4c73: a4 44        	ldy	$44                     ; 0x2044 <main+0x1cdb>
    4c75: c8           	iny
    4c76: e6 44        	inc	$44                     ; 0x2044 <main+0x1cdb>
    4c78: c0 50        	cpy	#$50
    4c7a: d0 c3        	bne	$4c3f <textPrint+0x2f2>
    4c7c: 64 44        	stz	$44                     ; 0x2044 <main+0x1cdb>
    4c7e: a4 45        	ldy	$45                     ; 0x2045 <main+0x1cdc>
    4c80: c8           	iny
    4c81: e6 45        	inc	$45                     ; 0x2045 <main+0x1cdc>
    4c83: c0 1e        	cpy	#$1e
    4c85: f0 03        	beq	$4c8a <textPrint+0x33d>
    4c87: 4c 32 4c     	jmp	$4c32 <textPrint+0x2e5>
    4c8a: a0 03        	ldy	#$3
    4c8c: 84 01        	sty	$1                      ; 0x2001 <main+0x1c98>
    4c8e: a0 09        	ldy	#$9
    4c90: a9 10        	lda	#$10
    4c92: 5a           	phy
    4c93: a0 00        	ldy	#$0
    4c95: 84 18        	sty	$18                     ; 0x2018 <main+0x1caf>
    4c97: a0 c0        	ldy	#$c0
    4c99: 84 19        	sty	$19                     ; 0x2019 <main+0x1cb0>
    4c9b: 7a           	ply
    4c9c: 85 1b        	sta	$1b                     ; 0x201b <main+0x1cb2>
    4c9e: 84 1a        	sty	$1a                     ; 0x201a <main+0x1cb1>
    4ca0: a0 50        	ldy	#$50
    4ca2: 4c b4 49     	jmp	$49b4 <textPrint+0x67>
    4ca5: a6 1c        	ldx	$1c                     ; 0x201c <main+0x1cb3>
    4ca7: 86 01        	stx	$1                      ; 0x2001 <main+0x1c98>
    4ca9: a6 44        	ldx	$44                     ; 0x2044 <main+0x1cdb>
    4cab: a4 45        	ldy	$45                     ; 0x2045 <main+0x1cdc>
    4cad: 8e 14 d0     	stx	$d014                   ; 0xd014 <__heap_start+0x3d44>
    4cb0: 9c 15 d0     	stz	$d015                   ; 0xd015 <__heap_start+0x3d45>
    4cb3: 84 45        	sty	$45                     ; 0x2045 <main+0x1cdc>
    4cb5: 8c 16 d0     	sty	$d016                   ; 0xd016 <__heap_start+0x3d46>
    4cb8: 9c 17 d0     	stz	$d017                   ; 0xd017 <__heap_start+0x3d47>
    4cbb: 60           	rts

00004cbc <textGotoXY>:
    4cbc: 85 44        	sta	$44                     ; 0x2044 <main+0x1cdb>
    4cbe: 8d 14 d0     	sta	$d014                   ; 0xd014 <__heap_start+0x3d44>
    4cc1: 9c 15 d0     	stz	$d015                   ; 0xd015 <__heap_start+0x3d45>
    4cc4: 86 45        	stx	$45                     ; 0x2045 <main+0x1cdc>
    4cc6: 8e 16 d0     	stx	$d016                   ; 0xd016 <__heap_start+0x3d46>
    4cc9: 9c 17 d0     	stz	$d017                   ; 0xd017 <__heap_start+0x3d47>
    4ccc: 60           	rts

00004ccd <fileReadDir>:
    4ccd: b2 12        	lda	($12)                   ; 0x2012 <main+0x1ca9>
    4ccf: 85 f3        	sta	$f3                     ; 0x20f3 <main+0x1d8a>
    4cd1: a2 7b        	ldx	#$7b
    4cd3: a0 00        	ldy	#$0
    4cd5: 86 14        	stx	$14                     ; 0x2014 <main+0x1cab>
    4cd7: 84 15        	sty	$15                     ; 0x2015 <main+0x1cac>
    4cd9: a2 5e        	ldx	#$5e
    4cdb: 86 16        	stx	$16                     ; 0x2016 <main+0x1cad>
    4cdd: a2 00        	ldx	#$0
    4cdf: 86 17        	stx	$17                     ; 0x2017 <main+0x1cae>
    4ce1: 20 7c ff     	jsr	$ff7c <__heap_start+0x6cac>
    4ce4: 92 14        	sta	($14)                   ; 0x2014 <main+0x1cab>
    4ce6: a9 00        	lda	#$0
    4ce8: 6a           	ror
    4ce9: 85 16        	sta	$16                     ; 0x2016 <main+0x1cad>
    4ceb: a6 5e        	ldx	$5e                     ; 0x205e <main+0x1cf5>
    4ced: a0 00        	ldy	#$0
    4cef: 84 14        	sty	$14                     ; 0x2014 <main+0x1cab>
    4cf1: a0 00        	ldy	#$0
    4cf3: 84 15        	sty	$15                     ; 0x2015 <main+0x1cac>
    4cf5: 8a           	txa
    4cf6: f0 09        	beq	$4d01 <fileReadDir+0x34>
    4cf8: a6 14        	ldx	$14                     ; 0x2014 <main+0x1cab>
    4cfa: 86 12        	stx	$12                     ; 0x2012 <main+0x1ca9>
    4cfc: a6 15        	ldx	$15                     ; 0x2015 <main+0x1cac>
    4cfe: 86 13        	stx	$13                     ; 0x2013 <main+0x1caa>
    4d00: 60           	rts
    4d01: a2 7c        	ldx	#$7c
    4d03: a0 00        	ldy	#$0
    4d05: 86 18        	stx	$18                     ; 0x2018 <main+0x1caf>
    4d07: 84 19        	sty	$19                     ; 0x2019 <main+0x1cb0>
    4d09: a0 00        	ldy	#$0
    4d0b: 80 18        	bra	$4d25 <fileReadDir+0x58>
    4d0d: b2 12        	lda	($12)                   ; 0x2012 <main+0x1ca9>
    4d0f: 85 f3        	sta	$f3                     ; 0x20f3 <main+0x1d8a>
    4d11: a2 7e        	ldx	#$7e
    4d13: 86 1a        	stx	$1a                     ; 0x201a <main+0x1cb1>
    4d15: 84 1b        	sty	$1b                     ; 0x201b <main+0x1cb2>
    4d17: 20 7c ff     	jsr	$ff7c <__heap_start+0x6cac>
    4d1a: 92 1a        	sta	($1a)                   ; 0x201a <main+0x1cb1>
    4d1c: a9 00        	lda	#$0
    4d1e: 6a           	ror
    4d1f: 85 16        	sta	$16                     ; 0x2016 <main+0x1cad>
    4d21: a6 5e        	ldx	$5e                     ; 0x205e <main+0x1cf5>
    4d23: d0 d3        	bne	$4cf8 <fileReadDir+0x2b>
    4d25: 64 5f        	stz	$5f                     ; 0x205f <main+0x1cf6>
    4d27: 20 00 ff     	jsr	$ff00 <__heap_start+0x6c30>
    4d2a: 92 18        	sta	($18)                   ; 0x2018 <main+0x1caf>
    4d2c: a9 00        	lda	#$0
    4d2e: 6a           	ror
    4d2f: 85 16        	sta	$16                     ; 0x2016 <main+0x1cad>
    4d31: a9 c2        	lda	#$c2
    4d33: 18           	clc
    4d34: 65 5f        	adc	$5f                     ; 0x205f <main+0x1cf6>
    4d36: c9 0b        	cmp	#$b
    4d38: b0 eb        	bcs	$4d25 <fileReadDir+0x58>
    4d3a: 0a           	asl
    4d3b: aa           	tax
    4d3c: 7c 94 7b     	jmp	($7b94,x)               ; 0x7b94 <__set_v+0x9>
    4d3f: 9c 96 7f     	stz	$7f96                   ; 0x7f96 <fileReadDir.fileDirEntS>
    4d42: a2 02        	ldx	#$2
    4d44: 80 2d        	bra	$4d73 <fileReadDir+0xa6>
    4d46: a2 96        	ldx	#$96
    4d48: a0 7f        	ldy	#$7f
    4d4a: 86 fb        	stx	$fb                     ; 0x20fb <main+0x1d92>
    4d4c: 84 fc        	sty	$fc                     ; 0x20fc <main+0x1d93>
    4d4e: a2 01        	ldx	#$1
    4d50: 86 fd        	stx	$fd                     ; 0x20fd <main+0x1d94>
    4d52: a0 7d        	ldy	#$7d
    4d54: a9 00        	lda	#$0
    4d56: 84 12        	sty	$12                     ; 0x2012 <main+0x1ca9>
    4d58: 85 13        	sta	$13                     ; 0x2013 <main+0x1caa>
    4d5a: a0 5e        	ldy	#$5e
    4d5c: 84 14        	sty	$14                     ; 0x2014 <main+0x1cab>
    4d5e: a0 00        	ldy	#$0
    4d60: 84 15        	sty	$15                     ; 0x2015 <main+0x1cac>
    4d62: 20 08 ff     	jsr	$ff08 <__heap_start+0x6c38>
    4d65: 92 12        	sta	($12)                   ; 0x2012 <main+0x1ca9>
    4d67: a9 00        	lda	#$0
    4d69: 6a           	ror
    4d6a: 85 14        	sta	$14                     ; 0x2014 <main+0x1cab>
    4d6c: ac 96 7f     	ldy	$7f96                   ; 0x7f96 <fileReadDir.fileDirEntS>
    4d6f: f0 02        	beq	$4d73 <fileReadDir+0xa6>
    4d71: a2 00        	ldx	#$0
    4d73: 8e 97 7f     	stx	$7f97                   ; 0x7f97 <fileReadDir.fileDirEntS+0x1>
    4d76: a6 64        	ldx	$64                     ; 0x2064 <main+0x1cfb>
    4d78: f0 24        	beq	$4d9e <fileReadDir+0xd1>
    4d7a: a0 98        	ldy	#$98
    4d7c: a9 7f        	lda	#$7f
    4d7e: 84 fb        	sty	$fb                     ; 0x20fb <main+0x1d92>
    4d80: 85 fc        	sta	$fc                     ; 0x20fc <main+0x1d93>
    4d82: 86 fd        	stx	$fd                     ; 0x20fd <main+0x1d94>
    4d84: a0 7f        	ldy	#$7f
    4d86: a9 00        	lda	#$0
    4d88: 84 12        	sty	$12                     ; 0x2012 <main+0x1ca9>
    4d8a: 85 13        	sta	$13                     ; 0x2013 <main+0x1caa>
    4d8c: a0 5e        	ldy	#$5e
    4d8e: 84 14        	sty	$14                     ; 0x2014 <main+0x1cab>
    4d90: a0 00        	ldy	#$0
    4d92: 84 15        	sty	$15                     ; 0x2015 <main+0x1cac>
    4d94: 20 04 ff     	jsr	$ff04 <__heap_start+0x6c34>
    4d97: 92 12        	sta	($12)                   ; 0x2012 <main+0x1ca9>
    4d99: a9 00        	lda	#$0
    4d9b: 6a           	ror
    4d9c: 85 14        	sta	$14                     ; 0x2014 <main+0x1cab>
    4d9e: 9e 98 7f     	stz	$7f98,x                 ; 0x7f98 <fileReadDir.fileDirEntS+0x2>
    4da1: a2 96        	ldx	#$96
    4da3: 86 14        	stx	$14                     ; 0x2014 <main+0x1cab>
    4da5: a2 7f        	ldx	#$7f
    4da7: 86 15        	stx	$15                     ; 0x2015 <main+0x1cac>
    4da9: 4c f8 4c     	jmp	$4cf8 <fileReadDir+0x2b>

00004dac <pickFile>:
    4dac: 18           	clc
    4dad: a5 10        	lda	$10                     ; 0x2010 <main+0x1ca7>
    4daf: 69 f6        	adc	#$f6
    4db1: 85 10        	sta	$10                     ; 0x2010 <main+0x1ca7>
    4db3: a5 11        	lda	$11                     ; 0x2011 <main+0x1ca8>
    4db5: 69 ff        	adc	#$ff
    4db7: 85 11        	sta	$11                     ; 0x2011 <main+0x1ca8>
    4db9: a6 24        	ldx	$24                     ; 0x2024 <main+0x1cbb>
    4dbb: da           	phx
    4dbc: a6 25        	ldx	$25                     ; 0x2025 <main+0x1cbc>
    4dbe: da           	phx
    4dbf: a6 26        	ldx	$26                     ; 0x2026 <main+0x1cbd>
    4dc1: da           	phx
    4dc2: a6 27        	ldx	$27                     ; 0x2027 <main+0x1cbe>
    4dc4: da           	phx
    4dc5: a5 28        	lda	$28                     ; 0x2028 <main+0x1cbf>
    4dc7: a0 03        	ldy	#$3
    4dc9: 91 10        	sta	($10),y                 ; 0x2010 <main+0x1ca7>
    4dcb: a5 29        	lda	$29                     ; 0x2029 <main+0x1cc0>
    4dcd: 88           	dey
    4dce: 91 10        	sta	($10),y                 ; 0x2010 <main+0x1ca7>
    4dd0: a2 08        	ldx	#$8
    4dd2: 86 26        	stx	$26                     ; 0x2026 <main+0x1cbd>
    4dd4: a2 00        	ldx	#$0
    4dd6: 86 27        	stx	$27                     ; 0x2027 <main+0x1cbe>
    4dd8: a9 98        	lda	#$98
    4dda: 18           	clc
    4ddb: 48           	pha
    4ddc: a5 10        	lda	$10                     ; 0x2010 <main+0x1ca7>
    4dde: 69 07        	adc	#$7
    4de0: 85 12        	sta	$12                     ; 0x2012 <main+0x1ca9>
    4de2: a5 11        	lda	$11                     ; 0x2011 <main+0x1ca8>
    4de4: 69 00        	adc	#$0
    4de6: 85 13        	sta	$13                     ; 0x2013 <main+0x1caa>
    4de8: 68           	pla
    4de9: 92 12        	sta	($12)                   ; 0x2012 <main+0x1ca9>
    4deb: 88           	dey
    4dec: a9 80        	lda	#$80
    4dee: 91 12        	sta	($12),y                 ; 0x2012 <main+0x1ca9>
    4df0: 64 5f        	stz	$5f                     ; 0x205f <main+0x1cf6>
    4df2: 18           	clc
    4df3: a5 10        	lda	$10                     ; 0x2010 <main+0x1ca7>
    4df5: 69 05        	adc	#$5
    4df7: 85 12        	sta	$12                     ; 0x2012 <main+0x1ca9>
    4df9: a5 11        	lda	$11                     ; 0x2011 <main+0x1ca8>
    4dfb: 69 00        	adc	#$0
    4dfd: 85 13        	sta	$13                     ; 0x2013 <main+0x1caa>
    4dff: a2 5e        	ldx	#$5e
    4e01: 86 14        	stx	$14                     ; 0x2014 <main+0x1cab>
    4e03: a2 00        	ldx	#$0
    4e05: 86 15        	stx	$15                     ; 0x2015 <main+0x1cac>
    4e07: 20 00 ff     	jsr	$ff00 <__heap_start+0x6c30>
    4e0a: 92 12        	sta	($12)                   ; 0x2012 <main+0x1ca9>
    4e0c: a9 00        	lda	#$0
    4e0e: 6a           	ror
    4e0f: 85 14        	sta	$14                     ; 0x2014 <main+0x1cab>
    4e11: b2 12        	lda	($12)                   ; 0x2012 <main+0x1ca9>
    4e13: 18           	clc
    4e14: 48           	pha
    4e15: a5 10        	lda	$10                     ; 0x2010 <main+0x1ca7>
    4e17: 69 04        	adc	#$4
    4e19: 85 12        	sta	$12                     ; 0x2012 <main+0x1ca9>
    4e1b: a5 11        	lda	$11                     ; 0x2011 <main+0x1ca8>
    4e1d: 69 00        	adc	#$0
    4e1f: 85 13        	sta	$13                     ; 0x2013 <main+0x1caa>
    4e21: 68           	pla
    4e22: 92 12        	sta	($12)                   ; 0x2012 <main+0x1ca9>
    4e24: b2 12        	lda	($12)                   ; 0x2012 <main+0x1ca9>
    4e26: 18           	clc
    4e27: 48           	pha
    4e28: a5 10        	lda	$10                     ; 0x2010 <main+0x1ca7>
    4e2a: 69 06        	adc	#$6
    4e2c: 85 12        	sta	$12                     ; 0x2012 <main+0x1ca9>
    4e2e: a5 11        	lda	$11                     ; 0x2011 <main+0x1ca8>
    4e30: 69 00        	adc	#$0
    4e32: 85 13        	sta	$13                     ; 0x2013 <main+0x1caa>
    4e34: 68           	pla
    4e35: 92 12        	sta	($12)                   ; 0x2012 <main+0x1ca9>
    4e37: a6 5f        	ldx	$5f                     ; 0x205f <main+0x1cf6>
    4e39: a0 00        	ldy	#$0
    4e3b: c4 27        	cpy	$27                     ; 0x2027 <main+0x1cbe>
    4e3d: f0 02        	beq	$4e41 <pickFile+0x95>
    4e3f: 80 0d        	bra	$4e4e <pickFile+0xa2>
    4e41: e4 26        	cpx	$26                     ; 0x2026 <main+0x1cbd>
    4e43: f0 02        	beq	$4e47 <pickFile+0x9b>
    4e45: 80 02        	bra	$4e49 <pickFile+0x9d>
    4e47: 80 03        	bra	$4e4c <pickFile+0xa0>
    4e49: 4c be 59     	jmp	$59be <pickFile+0xc12>
    4e4c: 80 03        	bra	$4e51 <pickFile+0xa5>
    4e4e: 4c be 59     	jmp	$59be <pickFile+0xc12>
    4e51: 80 00        	bra	$4e53 <pickFile+0xa7>
    4e53: a5 63        	lda	$63                     ; 0x2063 <main+0x1cfa>
    4e55: 18           	clc
    4e56: 69 6e        	adc	#$6e
    4e58: aa           	tax
    4e59: a9 00        	lda	#$0
    4e5b: 69 ff        	adc	#$ff
    4e5d: c9 00        	cmp	#$0
    4e5f: a0 01        	ldy	#$1
    4e61: b0 02        	bcs	$4e65 <pickFile+0xb9>
    4e63: a0 00        	ldy	#$0
    4e65: 84 12        	sty	$12                     ; 0x2012 <main+0x1ca9>
    4e67: a8           	tay
    4e68: f0 02        	beq	$4e6c <pickFile+0xc0>
    4e6a: 80 08        	bra	$4e74 <pickFile+0xc8>
    4e6c: 8a           	txa
    4e6d: c9 28        	cmp	#$28
    4e6f: 90 0b        	bcc	$4e7c <pickFile+0xd0>
    4e71: 4c be 59     	jmp	$59be <pickFile+0xc12>
    4e74: 8a           	txa
    4e75: a6 12        	ldx	$12                     ; 0x2012 <main+0x1ca9>
    4e77: f0 03        	beq	$4e7c <pickFile+0xd0>
    4e79: 4c be 59     	jmp	$59be <pickFile+0xc12>
    4e7c: 0a           	asl
    4e7d: aa           	tax
    4e7e: 7c aa 7b     	jmp	($7baa,x)               ; 0x7baa <__set_v+0x1f>
    4e81: 18           	clc
    4e82: a5 10        	lda	$10                     ; 0x2010 <main+0x1ca7>
    4e84: 69 09        	adc	#$9
    4e86: 85 12        	sta	$12                     ; 0x2012 <main+0x1ca9>
    4e88: a5 11        	lda	$11                     ; 0x2011 <main+0x1ca8>
    4e8a: 69 00        	adc	#$0
    4e8c: 85 13        	sta	$13                     ; 0x2013 <main+0x1caa>
    4e8e: a9 03        	lda	#$3
    4e90: 92 12        	sta	($12)                   ; 0x2012 <main+0x1ca9>
    4e92: 4c c1 59     	jmp	$59c1 <pickFile+0xc15>
    4e95: 18           	clc
    4e96: a5 10        	lda	$10                     ; 0x2010 <main+0x1ca7>
    4e98: 69 07        	adc	#$7
    4e9a: 85 26        	sta	$26                     ; 0x2026 <main+0x1cbd>
    4e9c: a5 11        	lda	$11                     ; 0x2011 <main+0x1ca8>
    4e9e: 69 00        	adc	#$0
    4ea0: 85 27        	sta	$27                     ; 0x2027 <main+0x1cbe>
    4ea2: b2 26        	lda	($26)                   ; 0x2026 <main+0x1cbd>
    4ea4: 85 12        	sta	$12                     ; 0x2012 <main+0x1ca9>
    4ea6: a0 01        	ldy	#$1
    4ea8: b1 26        	lda	($26),y                 ; 0x2026 <main+0x1cbd>
    4eaa: aa           	tax
    4eab: 64 13        	stz	$13                     ; 0x2013 <main+0x1caa>
    4ead: 18           	clc
    4eae: a5 12        	lda	$12                     ; 0x2012 <main+0x1ca9>
    4eb0: 69 22        	adc	#$22
    4eb2: 85 24        	sta	$24                     ; 0x2024 <main+0x1cbb>
    4eb4: 8a           	txa
    4eb5: 69 00        	adc	#$0
    4eb7: 85 25        	sta	$25                     ; 0x2025 <main+0x1cbc>
    4eb9: b2 26        	lda	($26)                   ; 0x2026 <main+0x1cbd>
    4ebb: 85 28        	sta	$28                     ; 0x2028 <main+0x1cbf>
    4ebd: b2 26        	lda	($26)                   ; 0x2026 <main+0x1cbd>
    4ebf: 85 14        	sta	$14                     ; 0x2014 <main+0x1cab>
    4ec1: b1 26        	lda	($26),y                 ; 0x2026 <main+0x1cbd>
    4ec3: 85 12        	sta	$12                     ; 0x2012 <main+0x1ca9>
    4ec5: 18           	clc
    4ec6: a5 14        	lda	$14                     ; 0x2014 <main+0x1cab>
    4ec8: 69 e4        	adc	#$e4
    4eca: 85 14        	sta	$14                     ; 0x2014 <main+0x1cab>
    4ecc: a5 12        	lda	$12                     ; 0x2012 <main+0x1ca9>
    4ece: 69 11        	adc	#$11
    4ed0: 85 15        	sta	$15                     ; 0x2015 <main+0x1cac>
    4ed2: b1 26        	lda	($26),y                 ; 0x2026 <main+0x1cbd>
    4ed4: 85 29        	sta	$29                     ; 0x2029 <main+0x1cc0>
    4ed6: b2 14        	lda	($14)                   ; 0x2014 <main+0x1cab>
    4ed8: 85 16        	sta	$16                     ; 0x2016 <main+0x1cad>
    4eda: b1 14        	lda	($14),y                 ; 0x2014 <main+0x1cab>
    4edc: a2 2c        	ldx	#$2c
    4ede: 86 12        	stx	$12                     ; 0x2012 <main+0x1ca9>
    4ee0: aa           	tax
    4ee1: a5 16        	lda	$16                     ; 0x2016 <main+0x1cad>
    4ee3: 20 59 7b     	jsr	$7b59 <__mulhi3>
    4ee6: 85 12        	sta	$12                     ; 0x2012 <main+0x1ca9>
    4ee8: 86 13        	stx	$13                     ; 0x2013 <main+0x1caa>
    4eea: a5 28        	lda	$28                     ; 0x2028 <main+0x1cbf>
    4eec: 18           	clc
    4eed: 65 12        	adc	$12                     ; 0x2012 <main+0x1ca9>
    4eef: a8           	tay
    4ef0: a5 29        	lda	$29                     ; 0x2029 <main+0x1cc0>
    4ef2: 65 13        	adc	$13                     ; 0x2013 <main+0x1caa>
    4ef4: aa           	tax
    4ef5: 18           	clc
    4ef6: 98           	tya
    4ef7: 69 4e        	adc	#$4e
    4ef9: 85 14        	sta	$14                     ; 0x2014 <main+0x1cab>
    4efb: 8a           	txa
    4efc: 69 00        	adc	#$0
    4efe: 85 15        	sta	$15                     ; 0x2015 <main+0x1cac>
    4f00: a6 24        	ldx	$24                     ; 0x2024 <main+0x1cbb>
    4f02: 86 12        	stx	$12                     ; 0x2012 <main+0x1ca9>
    4f04: a6 25        	ldx	$25                     ; 0x2025 <main+0x1cbc>
    4f06: 86 13        	stx	$13                     ; 0x2013 <main+0x1caa>
    4f08: a9 2c        	lda	#$2c
    4f0a: a2 00        	ldx	#$0
    4f0c: 20 0d 7b     	jsr	$7b0d <memcpy>
    4f0f: b2 26        	lda	($26)                   ; 0x2026 <main+0x1cbd>
    4f11: 85 13        	sta	$13                     ; 0x2013 <main+0x1caa>
    4f13: a0 01        	ldy	#$1
    4f15: b1 26        	lda	($26),y                 ; 0x2026 <main+0x1cbd>
    4f17: 85 12        	sta	$12                     ; 0x2012 <main+0x1ca9>
    4f19: 18           	clc
    4f1a: a5 13        	lda	$13                     ; 0x2013 <main+0x1caa>
    4f1c: 69 e6        	adc	#$e6
    4f1e: aa           	tax
    4f1f: a5 12        	lda	$12                     ; 0x2012 <main+0x1ca9>
    4f21: 69 11        	adc	#$11
    4f23: 86 12        	stx	$12                     ; 0x2012 <main+0x1ca9>
    4f25: 85 13        	sta	$13                     ; 0x2013 <main+0x1caa>
    4f27: b2 12        	lda	($12)                   ; 0x2012 <main+0x1ca9>
    4f29: 85 14        	sta	$14                     ; 0x2014 <main+0x1cab>
    4f2b: b1 12        	lda	($12),y                 ; 0x2012 <main+0x1ca9>
    4f2d: d0 1c        	bne	$4f4b <pickFile+0x19f>
    4f2f: 80 00        	bra	$4f31 <pickFile+0x185>
    4f31: a5 14        	lda	$14                     ; 0x2014 <main+0x1cab>
    4f33: d0 16        	bne	$4f4b <pickFile+0x19f>
    4f35: 80 00        	bra	$4f37 <pickFile+0x18b>
    4f37: 18           	clc
    4f38: a5 10        	lda	$10                     ; 0x2010 <main+0x1ca7>
    4f3a: 69 09        	adc	#$9
    4f3c: 85 12        	sta	$12                     ; 0x2012 <main+0x1ca9>
    4f3e: a5 11        	lda	$11                     ; 0x2011 <main+0x1ca8>
    4f40: 69 00        	adc	#$0
    4f42: 85 13        	sta	$13                     ; 0x2013 <main+0x1caa>
    4f44: a9 00        	lda	#$0
    4f46: 92 12        	sta	($12)                   ; 0x2012 <main+0x1ca9>
    4f48: 4c c1 59     	jmp	$59c1 <pickFile+0xc15>
    4f4b: 18           	clc
    4f4c: a5 10        	lda	$10                     ; 0x2010 <main+0x1ca7>
    4f4e: 69 07        	adc	#$7
    4f50: 85 12        	sta	$12                     ; 0x2012 <main+0x1ca9>
    4f52: a5 11        	lda	$11                     ; 0x2011 <main+0x1ca8>
    4f54: 69 00        	adc	#$0
    4f56: 85 13        	sta	$13                     ; 0x2013 <main+0x1caa>
    4f58: a0 01        	ldy	#$1
    4f5a: b2 12        	lda	($12)                   ; 0x2012 <main+0x1ca9>
    4f5c: 85 15        	sta	$15                     ; 0x2015 <main+0x1cac>
    4f5e: b1 12        	lda	($12),y                 ; 0x2012 <main+0x1ca9>
    4f60: 85 14        	sta	$14                     ; 0x2014 <main+0x1cab>
    4f62: 18           	clc
    4f63: a5 15        	lda	$15                     ; 0x2015 <main+0x1cac>
    4f65: 69 e4        	adc	#$e4
    4f67: aa           	tax
    4f68: a5 14        	lda	$14                     ; 0x2014 <main+0x1cab>
    4f6a: 69 11        	adc	#$11
    4f6c: 86 14        	stx	$14                     ; 0x2014 <main+0x1cab>
    4f6e: 85 15        	sta	$15                     ; 0x2015 <main+0x1cac>
    4f70: b2 14        	lda	($14)                   ; 0x2014 <main+0x1cab>
    4f72: 85 16        	sta	$16                     ; 0x2016 <main+0x1cad>
    4f74: b1 14        	lda	($14),y                 ; 0x2014 <main+0x1cab>
    4f76: 85 14        	sta	$14                     ; 0x2014 <main+0x1cab>
    4f78: 18           	clc
    4f79: a5 16        	lda	$16                     ; 0x2016 <main+0x1cad>
    4f7b: 72 12        	adc	($12)                   ; 0x2012 <main+0x1ca9>
    4f7d: 85 15        	sta	$15                     ; 0x2015 <main+0x1cac>
    4f7f: a5 14        	lda	$14                     ; 0x2014 <main+0x1cab>
    4f81: 71 12        	adc	($12),y                 ; 0x2012 <main+0x1ca9>
    4f83: 85 12        	sta	$12                     ; 0x2012 <main+0x1ca9>
    4f85: 18           	clc
    4f86: a5 15        	lda	$15                     ; 0x2015 <main+0x1cac>
    4f88: 69 7e        	adc	#$7e
    4f8a: aa           	tax
    4f8b: a5 12        	lda	$12                     ; 0x2012 <main+0x1ca9>
    4f8d: 69 11        	adc	#$11
    4f8f: 85 13        	sta	$13                     ; 0x2013 <main+0x1caa>
    4f91: 86 12        	stx	$12                     ; 0x2012 <main+0x1ca9>
    4f93: b2 12        	lda	($12)                   ; 0x2012 <main+0x1ca9>
    4f95: 29 01        	and	#$1
    4f97: f0 16        	beq	$4faf <pickFile+0x203>
    4f99: 80 00        	bra	$4f9b <pickFile+0x1ef>
    4f9b: 18           	clc
    4f9c: a5 10        	lda	$10                     ; 0x2010 <main+0x1ca7>
    4f9e: 69 09        	adc	#$9
    4fa0: 85 12        	sta	$12                     ; 0x2012 <main+0x1ca9>
    4fa2: a5 11        	lda	$11                     ; 0x2011 <main+0x1ca8>
    4fa4: 69 00        	adc	#$0
    4fa6: 85 13        	sta	$13                     ; 0x2013 <main+0x1caa>
    4fa8: a9 01        	lda	#$1
    4faa: 92 12        	sta	($12)                   ; 0x2012 <main+0x1ca9>
    4fac: 4c c1 59     	jmp	$59c1 <pickFile+0xc15>
    4faf: 18           	clc
    4fb0: a5 10        	lda	$10                     ; 0x2010 <main+0x1ca7>
    4fb2: 69 09        	adc	#$9
    4fb4: 85 12        	sta	$12                     ; 0x2012 <main+0x1ca9>
    4fb6: a5 11        	lda	$11                     ; 0x2011 <main+0x1ca8>
    4fb8: 69 00        	adc	#$0
    4fba: 85 13        	sta	$13                     ; 0x2013 <main+0x1caa>
    4fbc: a9 02        	lda	#$2
    4fbe: 92 12        	sta	($12)                   ; 0x2012 <main+0x1ca9>
    4fc0: 4c c1 59     	jmp	$59c1 <pickFile+0xc15>
    4fc3: 18           	clc
    4fc4: a5 10        	lda	$10                     ; 0x2010 <main+0x1ca7>
    4fc6: 69 07        	adc	#$7
    4fc8: 85 12        	sta	$12                     ; 0x2012 <main+0x1ca9>
    4fca: a5 11        	lda	$11                     ; 0x2011 <main+0x1ca8>
    4fcc: 69 00        	adc	#$0
    4fce: 85 13        	sta	$13                     ; 0x2013 <main+0x1caa>
    4fd0: b2 12        	lda	($12)                   ; 0x2012 <main+0x1ca9>
    4fd2: 85 14        	sta	$14                     ; 0x2014 <main+0x1cab>
    4fd4: a0 01        	ldy	#$1
    4fd6: b1 12        	lda	($12),y                 ; 0x2012 <main+0x1ca9>
    4fd8: aa           	tax
    4fd9: 18           	clc
    4fda: a5 14        	lda	$14                     ; 0x2014 <main+0x1cab>
    4fdc: 69 e4        	adc	#$e4
    4fde: 85 12        	sta	$12                     ; 0x2012 <main+0x1ca9>
    4fe0: 8a           	txa
    4fe1: 69 11        	adc	#$11
    4fe3: 85 13        	sta	$13                     ; 0x2013 <main+0x1caa>
    4fe5: b2 12        	lda	($12)                   ; 0x2012 <main+0x1ca9>
    4fe7: 85 14        	sta	$14                     ; 0x2014 <main+0x1cab>
    4fe9: b1 12        	lda	($12),y                 ; 0x2012 <main+0x1ca9>
    4feb: a6 14        	ldx	$14                     ; 0x2014 <main+0x1cab>
    4fed: e0 01        	cpx	#$1
    4fef: e9 00        	sbc	#$0
    4ff1: 70 02        	bvs	$4ff5 <pickFile+0x249>
    4ff3: 80 04        	bra	$4ff9 <pickFile+0x24d>
    4ff5: 49 80        	eor	#$80
    4ff7: 80 02        	bra	$4ffb <pickFile+0x24f>
    4ff9: 80 00        	bra	$4ffb <pickFile+0x24f>
    4ffb: aa           	tax
    4ffc: 10 03        	bpl	$5001 <pickFile+0x255>
    4ffe: 4c b3 52     	jmp	$52b3 <pickFile+0x507>
    5001: 18           	clc
    5002: a5 10        	lda	$10                     ; 0x2010 <main+0x1ca7>
    5004: 69 07        	adc	#$7
    5006: 85 12        	sta	$12                     ; 0x2012 <main+0x1ca9>
    5008: a5 11        	lda	$11                     ; 0x2011 <main+0x1ca8>
    500a: 69 00        	adc	#$0
    500c: 85 13        	sta	$13                     ; 0x2013 <main+0x1caa>
    500e: b2 12        	lda	($12)                   ; 0x2012 <main+0x1ca9>
    5010: 85 14        	sta	$14                     ; 0x2014 <main+0x1cab>
    5012: a0 01        	ldy	#$1
    5014: b1 12        	lda	($12),y                 ; 0x2012 <main+0x1ca9>
    5016: aa           	tax
    5017: 18           	clc
    5018: a5 14        	lda	$14                     ; 0x2014 <main+0x1cab>
    501a: 69 e6        	adc	#$e6
    501c: 85 12        	sta	$12                     ; 0x2012 <main+0x1ca9>
    501e: 8a           	txa
    501f: 69 11        	adc	#$11
    5021: 85 13        	sta	$13                     ; 0x2013 <main+0x1caa>
    5023: b2 12        	lda	($12)                   ; 0x2012 <main+0x1ca9>
    5025: 85 14        	sta	$14                     ; 0x2014 <main+0x1cab>
    5027: b1 12        	lda	($12),y                 ; 0x2012 <main+0x1ca9>
    5029: a6 14        	ldx	$14                     ; 0x2014 <main+0x1cab>
    502b: e0 01        	cpx	#$1
    502d: e9 00        	sbc	#$0
    502f: 70 02        	bvs	$5033 <pickFile+0x287>
    5031: 80 04        	bra	$5037 <pickFile+0x28b>
    5033: 49 80        	eor	#$80
    5035: 80 02        	bra	$5039 <pickFile+0x28d>
    5037: 80 00        	bra	$5039 <pickFile+0x28d>
    5039: aa           	tax
    503a: 10 03        	bpl	$503f <pickFile+0x293>
    503c: 4c 53 51     	jmp	$5153 <pickFile+0x3a7>
    503f: 18           	clc
    5040: a5 10        	lda	$10                     ; 0x2010 <main+0x1ca7>
    5042: 69 07        	adc	#$7
    5044: 85 24        	sta	$24                     ; 0x2024 <main+0x1cbb>
    5046: a5 11        	lda	$11                     ; 0x2011 <main+0x1ca8>
    5048: 69 00        	adc	#$0
    504a: 85 25        	sta	$25                     ; 0x2025 <main+0x1cbc>
    504c: b2 24        	lda	($24)                   ; 0x2024 <main+0x1cbb>
    504e: 85 12        	sta	$12                     ; 0x2012 <main+0x1ca9>
    5050: a0 01        	ldy	#$1
    5052: b1 24        	lda	($24),y                 ; 0x2024 <main+0x1cbb>
    5054: 85 13        	sta	$13                     ; 0x2013 <main+0x1caa>
    5056: b2 12        	lda	($12)                   ; 0x2012 <main+0x1ca9>
    5058: 85 14        	sta	$14                     ; 0x2014 <main+0x1cab>
    505a: b2 24        	lda	($24)                   ; 0x2024 <main+0x1cbb>
    505c: 85 12        	sta	$12                     ; 0x2012 <main+0x1ca9>
    505e: b1 24        	lda	($24),y                 ; 0x2024 <main+0x1cbb>
    5060: 85 13        	sta	$13                     ; 0x2013 <main+0x1caa>
    5062: b2 24        	lda	($24)                   ; 0x2024 <main+0x1cbb>
    5064: 85 16        	sta	$16                     ; 0x2016 <main+0x1cad>
    5066: b1 24        	lda	($24),y                 ; 0x2024 <main+0x1cbb>
    5068: 85 15        	sta	$15                     ; 0x2015 <main+0x1cac>
    506a: 18           	clc
    506b: a5 16        	lda	$16                     ; 0x2016 <main+0x1cad>
    506d: 69 e6        	adc	#$e6
    506f: aa           	tax
    5070: a5 15        	lda	$15                     ; 0x2015 <main+0x1cac>
    5072: 69 11        	adc	#$11
    5074: 85 15        	sta	$15                     ; 0x2015 <main+0x1cac>
    5076: b1 12        	lda	($12),y                 ; 0x2012 <main+0x1ca9>
    5078: 86 12        	stx	$12                     ; 0x2012 <main+0x1ca9>
    507a: a6 15        	ldx	$15                     ; 0x2015 <main+0x1cac>
    507c: 86 13        	stx	$13                     ; 0x2013 <main+0x1caa>
    507e: 18           	clc
    507f: 72 12        	adc	($12)                   ; 0x2012 <main+0x1ca9>
    5081: aa           	tax
    5082: a5 14        	lda	$14                     ; 0x2014 <main+0x1cab>
    5084: 20 bc 4c     	jsr	$4cbc <textGotoXY>
    5087: a9 20        	lda	#$20
    5089: 92 10        	sta	($10)                   ; 0x2010 <main+0x1ca7>
    508b: a9 00        	lda	#$0
    508d: a0 01        	ldy	#$1
    508f: 91 10        	sta	($10),y                 ; 0x2010 <main+0x1ca7>
    5091: a2 0f        	ldx	#$f
    5093: 86 12        	stx	$12                     ; 0x2012 <main+0x1ca9>
    5095: a2 7e        	ldx	#$7e
    5097: 86 13        	stx	$13                     ; 0x2013 <main+0x1caa>
    5099: 20 ab 79     	jsr	$79ab <printf>
    509c: b2 24        	lda	($24)                   ; 0x2024 <main+0x1cbb>
    509e: 85 13        	sta	$13                     ; 0x2013 <main+0x1caa>
    50a0: a0 01        	ldy	#$1
    50a2: b1 24        	lda	($24),y                 ; 0x2024 <main+0x1cbb>
    50a4: 85 12        	sta	$12                     ; 0x2012 <main+0x1ca9>
    50a6: 18           	clc
    50a7: a5 13        	lda	$13                     ; 0x2013 <main+0x1caa>
    50a9: 69 e4        	adc	#$e4
    50ab: aa           	tax
    50ac: a5 12        	lda	$12                     ; 0x2012 <main+0x1ca9>
    50ae: 69 11        	adc	#$11
    50b0: 86 12        	stx	$12                     ; 0x2012 <main+0x1ca9>
    50b2: 85 13        	sta	$13                     ; 0x2013 <main+0x1caa>
    50b4: b2 12        	lda	($12)                   ; 0x2012 <main+0x1ca9>
    50b6: aa           	tax
    50b7: b1 12        	lda	($12),y                 ; 0x2012 <main+0x1ca9>
    50b9: 85 14        	sta	$14                     ; 0x2014 <main+0x1cab>
    50bb: 8a           	txa
    50bc: 3a           	dec
    50bd: c9 ff        	cmp	#$ff
    50bf: f0 03        	beq	$50c4 <pickFile+0x318>
    50c1: 4c c9 50     	jmp	$50c9 <pickFile+0x31d>
    50c4: c6 14        	dec	$14                     ; 0x2014 <main+0x1cab>
    50c6: 4c c9 50     	jmp	$50c9 <pickFile+0x31d>
    50c9: 92 12        	sta	($12)                   ; 0x2012 <main+0x1ca9>
    50cb: a5 14        	lda	$14                     ; 0x2014 <main+0x1cab>
    50cd: 91 12        	sta	($12),y                 ; 0x2012 <main+0x1ca9>
    50cf: b2 24        	lda	($24)                   ; 0x2024 <main+0x1cbb>
    50d1: 85 13        	sta	$13                     ; 0x2013 <main+0x1caa>
    50d3: b1 24        	lda	($24),y                 ; 0x2024 <main+0x1cbb>
    50d5: 85 12        	sta	$12                     ; 0x2012 <main+0x1ca9>
    50d7: 18           	clc
    50d8: a5 13        	lda	$13                     ; 0x2013 <main+0x1caa>
    50da: 69 e6        	adc	#$e6
    50dc: aa           	tax
    50dd: a5 12        	lda	$12                     ; 0x2012 <main+0x1ca9>
    50df: 69 11        	adc	#$11
    50e1: 86 12        	stx	$12                     ; 0x2012 <main+0x1ca9>
    50e3: 85 13        	sta	$13                     ; 0x2013 <main+0x1caa>
    50e5: b2 12        	lda	($12)                   ; 0x2012 <main+0x1ca9>
    50e7: aa           	tax
    50e8: b1 12        	lda	($12),y                 ; 0x2012 <main+0x1ca9>
    50ea: 85 14        	sta	$14                     ; 0x2014 <main+0x1cab>
    50ec: 8a           	txa
    50ed: 3a           	dec
    50ee: c9 ff        	cmp	#$ff
    50f0: f0 03        	beq	$50f5 <pickFile+0x349>
    50f2: 4c fa 50     	jmp	$50fa <pickFile+0x34e>
    50f5: c6 14        	dec	$14                     ; 0x2014 <main+0x1cab>
    50f7: 4c fa 50     	jmp	$50fa <pickFile+0x34e>
    50fa: 92 12        	sta	($12)                   ; 0x2012 <main+0x1ca9>
    50fc: a5 14        	lda	$14                     ; 0x2014 <main+0x1cab>
    50fe: 91 12        	sta	($12),y                 ; 0x2012 <main+0x1ca9>
    5100: b2 24        	lda	($24)                   ; 0x2024 <main+0x1cbb>
    5102: 85 12        	sta	$12                     ; 0x2012 <main+0x1ca9>
    5104: b1 24        	lda	($24),y                 ; 0x2024 <main+0x1cbb>
    5106: 85 13        	sta	$13                     ; 0x2013 <main+0x1caa>
    5108: b2 24        	lda	($24)                   ; 0x2024 <main+0x1cbb>
    510a: 85 14        	sta	$14                     ; 0x2014 <main+0x1cab>
    510c: b1 24        	lda	($24),y                 ; 0x2024 <main+0x1cbb>
    510e: 85 15        	sta	$15                     ; 0x2015 <main+0x1cac>
    5110: b2 24        	lda	($24)                   ; 0x2024 <main+0x1cbb>
    5112: 85 16        	sta	$16                     ; 0x2016 <main+0x1cad>
    5114: b1 24        	lda	($24),y                 ; 0x2024 <main+0x1cbb>
    5116: 85 18        	sta	$18                     ; 0x2018 <main+0x1caf>
    5118: a0 01        	ldy	#$1
    511a: 18           	clc
    511b: a5 16        	lda	$16                     ; 0x2016 <main+0x1cad>
    511d: 69 e6        	adc	#$e6
    511f: 85 17        	sta	$17                     ; 0x2017 <main+0x1cae>
    5121: a5 18        	lda	$18                     ; 0x2018 <main+0x1caf>
    5123: 69 11        	adc	#$11
    5125: aa           	tax
    5126: b2 12        	lda	($12)                   ; 0x2012 <main+0x1ca9>
    5128: 85 16        	sta	$16                     ; 0x2016 <main+0x1cad>
    512a: a5 17        	lda	$17                     ; 0x2017 <main+0x1cae>
    512c: 85 12        	sta	$12                     ; 0x2012 <main+0x1ca9>
    512e: b1 14        	lda	($14),y                 ; 0x2014 <main+0x1cab>
    5130: 86 13        	stx	$13                     ; 0x2013 <main+0x1caa>
    5132: 18           	clc
    5133: 72 12        	adc	($12)                   ; 0x2012 <main+0x1ca9>
    5135: aa           	tax
    5136: a5 16        	lda	$16                     ; 0x2016 <main+0x1cad>
    5138: 20 bc 4c     	jsr	$4cbc <textGotoXY>
    513b: a9 fa        	lda	#$fa
    513d: 92 10        	sta	($10)                   ; 0x2010 <main+0x1ca7>
    513f: a9 00        	lda	#$0
    5141: a0 01        	ldy	#$1
    5143: 91 10        	sta	($10),y                 ; 0x2010 <main+0x1ca7>
    5145: a2 0f        	ldx	#$f
    5147: 86 12        	stx	$12                     ; 0x2012 <main+0x1ca9>
    5149: a2 7e        	ldx	#$7e
    514b: 86 13        	stx	$13                     ; 0x2013 <main+0x1caa>
    514d: 20 ab 79     	jsr	$79ab <printf>
    5150: 4c b3 52     	jmp	$52b3 <pickFile+0x507>
    5153: 18           	clc
    5154: a5 10        	lda	$10                     ; 0x2010 <main+0x1ca7>
    5156: 69 07        	adc	#$7
    5158: 85 12        	sta	$12                     ; 0x2012 <main+0x1ca9>
    515a: a5 11        	lda	$11                     ; 0x2011 <main+0x1ca8>
    515c: 69 00        	adc	#$0
    515e: 85 13        	sta	$13                     ; 0x2013 <main+0x1caa>
    5160: b2 12        	lda	($12)                   ; 0x2012 <main+0x1ca9>
    5162: 85 14        	sta	$14                     ; 0x2014 <main+0x1cab>
    5164: a0 01        	ldy	#$1
    5166: b1 12        	lda	($12),y                 ; 0x2012 <main+0x1ca9>
    5168: aa           	tax
    5169: 18           	clc
    516a: a5 14        	lda	$14                     ; 0x2014 <main+0x1cab>
    516c: 69 e6        	adc	#$e6
    516e: 85 12        	sta	$12                     ; 0x2012 <main+0x1ca9>
    5170: 8a           	txa
    5171: 69 11        	adc	#$11
    5173: 85 13        	sta	$13                     ; 0x2013 <main+0x1caa>
    5175: b2 12        	lda	($12)                   ; 0x2012 <main+0x1ca9>
    5177: 85 14        	sta	$14                     ; 0x2014 <main+0x1cab>
    5179: b1 12        	lda	($12),y                 ; 0x2012 <main+0x1ca9>
    517b: f0 03        	beq	$5180 <pickFile+0x3d4>
    517d: 4c b3 52     	jmp	$52b3 <pickFile+0x507>
    5180: a5 14        	lda	$14                     ; 0x2014 <main+0x1cab>
    5182: f0 03        	beq	$5187 <pickFile+0x3db>
    5184: 4c b3 52     	jmp	$52b3 <pickFile+0x507>
    5187: 18           	clc
    5188: a5 10        	lda	$10                     ; 0x2010 <main+0x1ca7>
    518a: 69 07        	adc	#$7
    518c: 85 24        	sta	$24                     ; 0x2024 <main+0x1cbb>
    518e: a5 11        	lda	$11                     ; 0x2011 <main+0x1ca8>
    5190: 69 00        	adc	#$0
    5192: 85 25        	sta	$25                     ; 0x2025 <main+0x1cbc>
    5194: b2 24        	lda	($24)                   ; 0x2024 <main+0x1cbb>
    5196: 85 12        	sta	$12                     ; 0x2012 <main+0x1ca9>
    5198: a0 01        	ldy	#$1
    519a: b1 24        	lda	($24),y                 ; 0x2024 <main+0x1cbb>
    519c: 85 13        	sta	$13                     ; 0x2013 <main+0x1caa>
    519e: b2 12        	lda	($12)                   ; 0x2012 <main+0x1ca9>
    51a0: 85 14        	sta	$14                     ; 0x2014 <main+0x1cab>
    51a2: b2 24        	lda	($24)                   ; 0x2024 <main+0x1cbb>
    51a4: 85 12        	sta	$12                     ; 0x2012 <main+0x1ca9>
    51a6: b1 24        	lda	($24),y                 ; 0x2024 <main+0x1cbb>
    51a8: 85 13        	sta	$13                     ; 0x2013 <main+0x1caa>
    51aa: b2 24        	lda	($24)                   ; 0x2024 <main+0x1cbb>
    51ac: 85 16        	sta	$16                     ; 0x2016 <main+0x1cad>
    51ae: b1 24        	lda	($24),y                 ; 0x2024 <main+0x1cbb>
    51b0: 85 15        	sta	$15                     ; 0x2015 <main+0x1cac>
    51b2: 18           	clc
    51b3: a5 16        	lda	$16                     ; 0x2016 <main+0x1cad>
    51b5: 69 e6        	adc	#$e6
    51b7: aa           	tax
    51b8: a5 15        	lda	$15                     ; 0x2015 <main+0x1cac>
    51ba: 69 11        	adc	#$11
    51bc: 85 15        	sta	$15                     ; 0x2015 <main+0x1cac>
    51be: b1 12        	lda	($12),y                 ; 0x2012 <main+0x1ca9>
    51c0: 86 12        	stx	$12                     ; 0x2012 <main+0x1ca9>
    51c2: a6 15        	ldx	$15                     ; 0x2015 <main+0x1cac>
    51c4: 86 13        	stx	$13                     ; 0x2013 <main+0x1caa>
    51c6: 18           	clc
    51c7: 72 12        	adc	($12)                   ; 0x2012 <main+0x1ca9>
    51c9: aa           	tax
    51ca: a5 14        	lda	$14                     ; 0x2014 <main+0x1cab>
    51cc: 20 bc 4c     	jsr	$4cbc <textGotoXY>
    51cf: a9 20        	lda	#$20
    51d1: 92 10        	sta	($10)                   ; 0x2010 <main+0x1ca7>
    51d3: a9 00        	lda	#$0
    51d5: a0 01        	ldy	#$1
    51d7: 91 10        	sta	($10),y                 ; 0x2010 <main+0x1ca7>
    51d9: a2 0f        	ldx	#$f
    51db: 86 12        	stx	$12                     ; 0x2012 <main+0x1ca9>
    51dd: a2 7e        	ldx	#$7e
    51df: 86 13        	stx	$13                     ; 0x2013 <main+0x1caa>
    51e1: 20 ab 79     	jsr	$79ab <printf>
    51e4: b2 24        	lda	($24)                   ; 0x2024 <main+0x1cbb>
    51e6: 85 13        	sta	$13                     ; 0x2013 <main+0x1caa>
    51e8: a0 01        	ldy	#$1
    51ea: b1 24        	lda	($24),y                 ; 0x2024 <main+0x1cbb>
    51ec: 85 12        	sta	$12                     ; 0x2012 <main+0x1ca9>
    51ee: 18           	clc
    51ef: a5 13        	lda	$13                     ; 0x2013 <main+0x1caa>
    51f1: 69 e6        	adc	#$e6
    51f3: aa           	tax
    51f4: a5 12        	lda	$12                     ; 0x2012 <main+0x1ca9>
    51f6: 69 11        	adc	#$11
    51f8: 86 12        	stx	$12                     ; 0x2012 <main+0x1ca9>
    51fa: 85 13        	sta	$13                     ; 0x2013 <main+0x1caa>
    51fc: a9 0b        	lda	#$b
    51fe: 92 12        	sta	($12)                   ; 0x2012 <main+0x1ca9>
    5200: a9 00        	lda	#$0
    5202: 91 12        	sta	($12),y                 ; 0x2012 <main+0x1ca9>
    5204: b2 24        	lda	($24)                   ; 0x2024 <main+0x1cbb>
    5206: 85 13        	sta	$13                     ; 0x2013 <main+0x1caa>
    5208: b1 24        	lda	($24),y                 ; 0x2024 <main+0x1cbb>
    520a: 85 12        	sta	$12                     ; 0x2012 <main+0x1ca9>
    520c: 18           	clc
    520d: a5 13        	lda	$13                     ; 0x2013 <main+0x1caa>
    520f: 69 e8        	adc	#$e8
    5211: aa           	tax
    5212: a5 12        	lda	$12                     ; 0x2012 <main+0x1ca9>
    5214: 69 11        	adc	#$11
    5216: 86 12        	stx	$12                     ; 0x2012 <main+0x1ca9>
    5218: 85 13        	sta	$13                     ; 0x2013 <main+0x1caa>
    521a: b2 12        	lda	($12)                   ; 0x2012 <main+0x1ca9>
    521c: 85 15        	sta	$15                     ; 0x2015 <main+0x1cac>
    521e: b1 12        	lda	($12),y                 ; 0x2012 <main+0x1ca9>
    5220: 85 14        	sta	$14                     ; 0x2014 <main+0x1cab>
    5222: 18           	clc
    5223: a5 15        	lda	$15                     ; 0x2015 <main+0x1cac>
    5225: 69 f5        	adc	#$f5
    5227: 85 15        	sta	$15                     ; 0x2015 <main+0x1cac>
    5229: a5 14        	lda	$14                     ; 0x2014 <main+0x1cab>
    522b: 69 ff        	adc	#$ff
    522d: aa           	tax
    522e: a5 15        	lda	$15                     ; 0x2015 <main+0x1cac>
    5230: 92 12        	sta	($12)                   ; 0x2012 <main+0x1ca9>
    5232: 8a           	txa
    5233: 91 12        	sta	($12),y                 ; 0x2012 <main+0x1ca9>
    5235: b2 24        	lda	($24)                   ; 0x2024 <main+0x1cbb>
    5237: 85 12        	sta	$12                     ; 0x2012 <main+0x1ca9>
    5239: b1 24        	lda	($24),y                 ; 0x2024 <main+0x1cbb>
    523b: 85 13        	sta	$13                     ; 0x2013 <main+0x1caa>
    523d: b2 24        	lda	($24)                   ; 0x2024 <main+0x1cbb>
    523f: 85 15        	sta	$15                     ; 0x2015 <main+0x1cac>
    5241: b1 24        	lda	($24),y                 ; 0x2024 <main+0x1cbb>
    5243: 85 14        	sta	$14                     ; 0x2014 <main+0x1cab>
    5245: a0 01        	ldy	#$1
    5247: 18           	clc
    5248: a5 15        	lda	$15                     ; 0x2015 <main+0x1cac>
    524a: 69 e8        	adc	#$e8
    524c: aa           	tax
    524d: a5 14        	lda	$14                     ; 0x2014 <main+0x1cab>
    524f: 69 11        	adc	#$11
    5251: 86 14        	stx	$14                     ; 0x2014 <main+0x1cab>
    5253: 85 15        	sta	$15                     ; 0x2015 <main+0x1cac>
    5255: b2 14        	lda	($14)                   ; 0x2014 <main+0x1cab>
    5257: 85 16        	sta	$16                     ; 0x2016 <main+0x1cad>
    5259: b1 14        	lda	($14),y                 ; 0x2014 <main+0x1cab>
    525b: aa           	tax
    525c: a5 16        	lda	$16                     ; 0x2016 <main+0x1cad>
    525e: 20 f9 59     	jsr	$59f9 <displayFileList>
    5261: b2 24        	lda	($24)                   ; 0x2024 <main+0x1cbb>
    5263: 85 12        	sta	$12                     ; 0x2012 <main+0x1ca9>
    5265: a0 01        	ldy	#$1
    5267: b1 24        	lda	($24),y                 ; 0x2024 <main+0x1cbb>
    5269: 85 13        	sta	$13                     ; 0x2013 <main+0x1caa>
    526b: b2 24        	lda	($24)                   ; 0x2024 <main+0x1cbb>
    526d: 85 14        	sta	$14                     ; 0x2014 <main+0x1cab>
    526f: b1 24        	lda	($24),y                 ; 0x2024 <main+0x1cbb>
    5271: 85 15        	sta	$15                     ; 0x2015 <main+0x1cac>
    5273: b2 24        	lda	($24)                   ; 0x2024 <main+0x1cbb>
    5275: 85 16        	sta	$16                     ; 0x2016 <main+0x1cad>
    5277: b1 24        	lda	($24),y                 ; 0x2024 <main+0x1cbb>
    5279: 85 18        	sta	$18                     ; 0x2018 <main+0x1caf>
    527b: a0 01        	ldy	#$1
    527d: 18           	clc
    527e: a5 16        	lda	$16                     ; 0x2016 <main+0x1cad>
    5280: 69 e6        	adc	#$e6
    5282: 85 17        	sta	$17                     ; 0x2017 <main+0x1cae>
    5284: a5 18        	lda	$18                     ; 0x2018 <main+0x1caf>
    5286: 69 11        	adc	#$11
    5288: aa           	tax
    5289: b2 12        	lda	($12)                   ; 0x2012 <main+0x1ca9>
    528b: 85 16        	sta	$16                     ; 0x2016 <main+0x1cad>
    528d: a5 17        	lda	$17                     ; 0x2017 <main+0x1cae>
    528f: 85 12        	sta	$12                     ; 0x2012 <main+0x1ca9>
    5291: b1 14        	lda	($14),y                 ; 0x2014 <main+0x1cab>
    5293: 86 13        	stx	$13                     ; 0x2013 <main+0x1caa>
    5295: 18           	clc
    5296: 72 12        	adc	($12)                   ; 0x2012 <main+0x1ca9>
    5298: aa           	tax
    5299: a5 16        	lda	$16                     ; 0x2016 <main+0x1cad>
    529b: 20 bc 4c     	jsr	$4cbc <textGotoXY>
    529e: a9 fa        	lda	#$fa
    52a0: 92 10        	sta	($10)                   ; 0x2010 <main+0x1ca7>
    52a2: a9 00        	lda	#$0
    52a4: a0 01        	ldy	#$1
    52a6: 91 10        	sta	($10),y                 ; 0x2010 <main+0x1ca7>
    52a8: a2 0f        	ldx	#$f
    52aa: 86 12        	stx	$12                     ; 0x2012 <main+0x1ca9>
    52ac: a2 7e        	ldx	#$7e
    52ae: 86 13        	stx	$13                     ; 0x2013 <main+0x1caa>
    52b0: 20 ab 79     	jsr	$79ab <printf>
    52b3: 4c be 59     	jmp	$59be <pickFile+0xc12>
    52b6: 18           	clc
    52b7: a5 10        	lda	$10                     ; 0x2010 <main+0x1ca7>
    52b9: 69 07        	adc	#$7
    52bb: 85 12        	sta	$12                     ; 0x2012 <main+0x1ca9>
    52bd: a5 11        	lda	$11                     ; 0x2011 <main+0x1ca8>
    52bf: 69 00        	adc	#$0
    52c1: 85 13        	sta	$13                     ; 0x2013 <main+0x1caa>
    52c3: b2 12        	lda	($12)                   ; 0x2012 <main+0x1ca9>
    52c5: 85 14        	sta	$14                     ; 0x2014 <main+0x1cab>
    52c7: a0 01        	ldy	#$1
    52c9: b1 12        	lda	($12),y                 ; 0x2012 <main+0x1ca9>
    52cb: aa           	tax
    52cc: 18           	clc
    52cd: a5 14        	lda	$14                     ; 0x2014 <main+0x1cab>
    52cf: 69 e4        	adc	#$e4
    52d1: 85 14        	sta	$14                     ; 0x2014 <main+0x1cab>
    52d3: 8a           	txa
    52d4: 69 11        	adc	#$11
    52d6: 85 15        	sta	$15                     ; 0x2015 <main+0x1cac>
    52d8: b2 14        	lda	($14)                   ; 0x2014 <main+0x1cab>
    52da: 85 16        	sta	$16                     ; 0x2016 <main+0x1cad>
    52dc: b2 12        	lda	($12)                   ; 0x2012 <main+0x1ca9>
    52de: 85 17        	sta	$17                     ; 0x2017 <main+0x1cae>
    52e0: b1 12        	lda	($12),y                 ; 0x2012 <main+0x1ca9>
    52e2: 85 12        	sta	$12                     ; 0x2012 <main+0x1ca9>
    52e4: 18           	clc
    52e5: a5 17        	lda	$17                     ; 0x2017 <main+0x1cae>
    52e7: 69 e2        	adc	#$e2
    52e9: aa           	tax
    52ea: a5 12        	lda	$12                     ; 0x2012 <main+0x1ca9>
    52ec: 69 11        	adc	#$11
    52ee: 85 13        	sta	$13                     ; 0x2013 <main+0x1caa>
    52f0: b1 14        	lda	($14),y                 ; 0x2014 <main+0x1cab>
    52f2: 85 14        	sta	$14                     ; 0x2014 <main+0x1cab>
    52f4: 86 12        	stx	$12                     ; 0x2012 <main+0x1ca9>
    52f6: b2 12        	lda	($12)                   ; 0x2012 <main+0x1ca9>
    52f8: aa           	tax
    52f9: b1 12        	lda	($12),y                 ; 0x2012 <main+0x1ca9>
    52fb: 85 12        	sta	$12                     ; 0x2012 <main+0x1ca9>
    52fd: a5 14        	lda	$14                     ; 0x2014 <main+0x1cab>
    52ff: 86 13        	stx	$13                     ; 0x2013 <main+0x1caa>
    5301: a2 ff        	ldx	#$ff
    5303: c6 13        	dec	$13                     ; 0x2013 <main+0x1caa>
    5305: e4 13        	cpx	$13                     ; 0x2013 <main+0x1caa>
    5307: f0 03        	beq	$530c <pickFile+0x560>
    5309: 4c 11 53     	jmp	$5311 <pickFile+0x565>
    530c: c6 12        	dec	$12                     ; 0x2012 <main+0x1ca9>
    530e: 4c 11 53     	jmp	$5311 <pickFile+0x565>
    5311: a6 16        	ldx	$16                     ; 0x2016 <main+0x1cad>
    5313: e4 13        	cpx	$13                     ; 0x2013 <main+0x1caa>
    5315: e5 12        	sbc	$12                     ; 0x2012 <main+0x1ca9>
    5317: 70 02        	bvs	$531b <pickFile+0x56f>
    5319: 80 04        	bra	$531f <pickFile+0x573>
    531b: 49 80        	eor	#$80
    531d: 80 02        	bra	$5321 <pickFile+0x575>
    531f: 80 00        	bra	$5321 <pickFile+0x575>
    5321: aa           	tax
    5322: 30 03        	bmi	$5327 <pickFile+0x57b>
    5324: 4c 33 56     	jmp	$5633 <pickFile+0x887>
    5327: 18           	clc
    5328: a5 10        	lda	$10                     ; 0x2010 <main+0x1ca7>
    532a: 69 07        	adc	#$7
    532c: 85 12        	sta	$12                     ; 0x2012 <main+0x1ca9>
    532e: a5 11        	lda	$11                     ; 0x2011 <main+0x1ca8>
    5330: 69 00        	adc	#$0
    5332: 85 13        	sta	$13                     ; 0x2013 <main+0x1caa>
    5334: b2 12        	lda	($12)                   ; 0x2012 <main+0x1ca9>
    5336: 85 14        	sta	$14                     ; 0x2014 <main+0x1cab>
    5338: a0 01        	ldy	#$1
    533a: b1 12        	lda	($12),y                 ; 0x2012 <main+0x1ca9>
    533c: aa           	tax
    533d: 18           	clc
    533e: a5 14        	lda	$14                     ; 0x2014 <main+0x1cab>
    5340: 69 e6        	adc	#$e6
    5342: 85 12        	sta	$12                     ; 0x2012 <main+0x1ca9>
    5344: 8a           	txa
    5345: 69 11        	adc	#$11
    5347: 85 13        	sta	$13                     ; 0x2013 <main+0x1caa>
    5349: b2 12        	lda	($12)                   ; 0x2012 <main+0x1ca9>
    534b: 85 14        	sta	$14                     ; 0x2014 <main+0x1cab>
    534d: b1 12        	lda	($12),y                 ; 0x2012 <main+0x1ca9>
    534f: a6 14        	ldx	$14                     ; 0x2014 <main+0x1cab>
    5351: e0 0b        	cpx	#$b
    5353: e9 00        	sbc	#$0
    5355: 70 02        	bvs	$5359 <pickFile+0x5ad>
    5357: 80 04        	bra	$535d <pickFile+0x5b1>
    5359: 49 80        	eor	#$80
    535b: 80 02        	bra	$535f <pickFile+0x5b3>
    535d: 80 00        	bra	$535f <pickFile+0x5b3>
    535f: aa           	tax
    5360: 30 03        	bmi	$5365 <pickFile+0x5b9>
    5362: 4c 73 54     	jmp	$5473 <pickFile+0x6c7>
    5365: 18           	clc
    5366: a5 10        	lda	$10                     ; 0x2010 <main+0x1ca7>
    5368: 69 07        	adc	#$7
    536a: 85 24        	sta	$24                     ; 0x2024 <main+0x1cbb>
    536c: a5 11        	lda	$11                     ; 0x2011 <main+0x1ca8>
    536e: 69 00        	adc	#$0
    5370: 85 25        	sta	$25                     ; 0x2025 <main+0x1cbc>
    5372: b2 24        	lda	($24)                   ; 0x2024 <main+0x1cbb>
    5374: 85 12        	sta	$12                     ; 0x2012 <main+0x1ca9>
    5376: a0 01        	ldy	#$1
    5378: b1 24        	lda	($24),y                 ; 0x2024 <main+0x1cbb>
    537a: 85 13        	sta	$13                     ; 0x2013 <main+0x1caa>
    537c: b2 12        	lda	($12)                   ; 0x2012 <main+0x1ca9>
    537e: 85 14        	sta	$14                     ; 0x2014 <main+0x1cab>
    5380: b2 24        	lda	($24)                   ; 0x2024 <main+0x1cbb>
    5382: 85 12        	sta	$12                     ; 0x2012 <main+0x1ca9>
    5384: b1 24        	lda	($24),y                 ; 0x2024 <main+0x1cbb>
    5386: 85 13        	sta	$13                     ; 0x2013 <main+0x1caa>
    5388: b2 24        	lda	($24)                   ; 0x2024 <main+0x1cbb>
    538a: 85 16        	sta	$16                     ; 0x2016 <main+0x1cad>
    538c: b1 24        	lda	($24),y                 ; 0x2024 <main+0x1cbb>
    538e: 85 15        	sta	$15                     ; 0x2015 <main+0x1cac>
    5390: 18           	clc
    5391: a5 16        	lda	$16                     ; 0x2016 <main+0x1cad>
    5393: 69 e6        	adc	#$e6
    5395: aa           	tax
    5396: a5 15        	lda	$15                     ; 0x2015 <main+0x1cac>
    5398: 69 11        	adc	#$11
    539a: 85 15        	sta	$15                     ; 0x2015 <main+0x1cac>
    539c: b1 12        	lda	($12),y                 ; 0x2012 <main+0x1ca9>
    539e: 86 12        	stx	$12                     ; 0x2012 <main+0x1ca9>
    53a0: a6 15        	ldx	$15                     ; 0x2015 <main+0x1cac>
    53a2: 86 13        	stx	$13                     ; 0x2013 <main+0x1caa>
    53a4: 18           	clc
    53a5: 72 12        	adc	($12)                   ; 0x2012 <main+0x1ca9>
    53a7: aa           	tax
    53a8: a5 14        	lda	$14                     ; 0x2014 <main+0x1cab>
    53aa: 20 bc 4c     	jsr	$4cbc <textGotoXY>
    53ad: a9 20        	lda	#$20
    53af: 92 10        	sta	($10)                   ; 0x2010 <main+0x1ca7>
    53b1: a9 00        	lda	#$0
    53b3: a0 01        	ldy	#$1
    53b5: 91 10        	sta	($10),y                 ; 0x2010 <main+0x1ca7>
    53b7: a2 0f        	ldx	#$f
    53b9: 86 12        	stx	$12                     ; 0x2012 <main+0x1ca9>
    53bb: a2 7e        	ldx	#$7e
    53bd: 86 13        	stx	$13                     ; 0x2013 <main+0x1caa>
    53bf: 20 ab 79     	jsr	$79ab <printf>
    53c2: b2 24        	lda	($24)                   ; 0x2024 <main+0x1cbb>
    53c4: 85 13        	sta	$13                     ; 0x2013 <main+0x1caa>
    53c6: a0 01        	ldy	#$1
    53c8: b1 24        	lda	($24),y                 ; 0x2024 <main+0x1cbb>
    53ca: 85 12        	sta	$12                     ; 0x2012 <main+0x1ca9>
    53cc: 18           	clc
    53cd: a5 13        	lda	$13                     ; 0x2013 <main+0x1caa>
    53cf: 69 e4        	adc	#$e4
    53d1: aa           	tax
    53d2: a5 12        	lda	$12                     ; 0x2012 <main+0x1ca9>
    53d4: 69 11        	adc	#$11
    53d6: 86 12        	stx	$12                     ; 0x2012 <main+0x1ca9>
    53d8: 85 13        	sta	$13                     ; 0x2013 <main+0x1caa>
    53da: b2 12        	lda	($12)                   ; 0x2012 <main+0x1ca9>
    53dc: 85 14        	sta	$14                     ; 0x2014 <main+0x1cab>
    53de: b1 12        	lda	($12),y                 ; 0x2012 <main+0x1ca9>
    53e0: aa           	tax
    53e1: a5 14        	lda	$14                     ; 0x2014 <main+0x1cab>
    53e3: 1a           	inc
    53e4: f0 03        	beq	$53e9 <pickFile+0x63d>
    53e6: 4c ed 53     	jmp	$53ed <pickFile+0x641>
    53e9: e8           	inx
    53ea: 4c ed 53     	jmp	$53ed <pickFile+0x641>
    53ed: 92 12        	sta	($12)                   ; 0x2012 <main+0x1ca9>
    53ef: 8a           	txa
    53f0: 91 12        	sta	($12),y                 ; 0x2012 <main+0x1ca9>
    53f2: b2 24        	lda	($24)                   ; 0x2024 <main+0x1cbb>
    53f4: 85 13        	sta	$13                     ; 0x2013 <main+0x1caa>
    53f6: b1 24        	lda	($24),y                 ; 0x2024 <main+0x1cbb>
    53f8: 85 12        	sta	$12                     ; 0x2012 <main+0x1ca9>
    53fa: 18           	clc
    53fb: a5 13        	lda	$13                     ; 0x2013 <main+0x1caa>
    53fd: 69 e6        	adc	#$e6
    53ff: aa           	tax
    5400: a5 12        	lda	$12                     ; 0x2012 <main+0x1ca9>
    5402: 69 11        	adc	#$11
    5404: 86 12        	stx	$12                     ; 0x2012 <main+0x1ca9>
    5406: 85 13        	sta	$13                     ; 0x2013 <main+0x1caa>
    5408: b2 12        	lda	($12)                   ; 0x2012 <main+0x1ca9>
    540a: 85 14        	sta	$14                     ; 0x2014 <main+0x1cab>
    540c: b1 12        	lda	($12),y                 ; 0x2012 <main+0x1ca9>
    540e: aa           	tax
    540f: a5 14        	lda	$14                     ; 0x2014 <main+0x1cab>
    5411: 1a           	inc
    5412: f0 03        	beq	$5417 <pickFile+0x66b>
    5414: 4c 1b 54     	jmp	$541b <pickFile+0x66f>
    5417: e8           	inx
    5418: 4c 1b 54     	jmp	$541b <pickFile+0x66f>
    541b: 92 12        	sta	($12)                   ; 0x2012 <main+0x1ca9>
    541d: 8a           	txa
    541e: 91 12        	sta	($12),y                 ; 0x2012 <main+0x1ca9>
    5420: b2 24        	lda	($24)                   ; 0x2024 <main+0x1cbb>
    5422: 85 12        	sta	$12                     ; 0x2012 <main+0x1ca9>
    5424: b1 24        	lda	($24),y                 ; 0x2024 <main+0x1cbb>
    5426: 85 13        	sta	$13                     ; 0x2013 <main+0x1caa>
    5428: b2 24        	lda	($24)                   ; 0x2024 <main+0x1cbb>
    542a: 85 14        	sta	$14                     ; 0x2014 <main+0x1cab>
    542c: b1 24        	lda	($24),y                 ; 0x2024 <main+0x1cbb>
    542e: 85 15        	sta	$15                     ; 0x2015 <main+0x1cac>
    5430: b2 24        	lda	($24)                   ; 0x2024 <main+0x1cbb>
    5432: 85 16        	sta	$16                     ; 0x2016 <main+0x1cad>
    5434: b1 24        	lda	($24),y                 ; 0x2024 <main+0x1cbb>
    5436: 85 18        	sta	$18                     ; 0x2018 <main+0x1caf>
    5438: a0 01        	ldy	#$1
    543a: 18           	clc
    543b: a5 16        	lda	$16                     ; 0x2016 <main+0x1cad>
    543d: 69 e6        	adc	#$e6
    543f: 85 17        	sta	$17                     ; 0x2017 <main+0x1cae>
    5441: a5 18        	lda	$18                     ; 0x2018 <main+0x1caf>
    5443: 69 11        	adc	#$11
    5445: aa           	tax
    5446: b2 12        	lda	($12)                   ; 0x2012 <main+0x1ca9>
    5448: 85 16        	sta	$16                     ; 0x2016 <main+0x1cad>
    544a: a5 17        	lda	$17                     ; 0x2017 <main+0x1cae>
    544c: 85 12        	sta	$12                     ; 0x2012 <main+0x1ca9>
    544e: b1 14        	lda	($14),y                 ; 0x2014 <main+0x1cab>
    5450: 86 13        	stx	$13                     ; 0x2013 <main+0x1caa>
    5452: 18           	clc
    5453: 72 12        	adc	($12)                   ; 0x2012 <main+0x1ca9>
    5455: aa           	tax
    5456: a5 16        	lda	$16                     ; 0x2016 <main+0x1cad>
    5458: 20 bc 4c     	jsr	$4cbc <textGotoXY>
    545b: a9 fa        	lda	#$fa
    545d: 92 10        	sta	($10)                   ; 0x2010 <main+0x1ca7>
    545f: a9 00        	lda	#$0
    5461: a0 01        	ldy	#$1
    5463: 91 10        	sta	($10),y                 ; 0x2010 <main+0x1ca7>
    5465: a2 0f        	ldx	#$f
    5467: 86 12        	stx	$12                     ; 0x2012 <main+0x1ca9>
    5469: a2 7e        	ldx	#$7e
    546b: 86 13        	stx	$13                     ; 0x2013 <main+0x1caa>
    546d: 20 ab 79     	jsr	$79ab <printf>
    5470: 4c 33 56     	jmp	$5633 <pickFile+0x887>
    5473: 18           	clc
    5474: a5 10        	lda	$10                     ; 0x2010 <main+0x1ca7>
    5476: 69 07        	adc	#$7
    5478: 85 12        	sta	$12                     ; 0x2012 <main+0x1ca9>
    547a: a5 11        	lda	$11                     ; 0x2011 <main+0x1ca8>
    547c: 69 00        	adc	#$0
    547e: 85 13        	sta	$13                     ; 0x2013 <main+0x1caa>
    5480: b2 12        	lda	($12)                   ; 0x2012 <main+0x1ca9>
    5482: 85 14        	sta	$14                     ; 0x2014 <main+0x1cab>
    5484: a0 01        	ldy	#$1
    5486: b1 12        	lda	($12),y                 ; 0x2012 <main+0x1ca9>
    5488: aa           	tax
    5489: 18           	clc
    548a: a5 14        	lda	$14                     ; 0x2014 <main+0x1cab>
    548c: 69 e6        	adc	#$e6
    548e: 85 12        	sta	$12                     ; 0x2012 <main+0x1ca9>
    5490: 8a           	txa
    5491: 69 11        	adc	#$11
    5493: 85 13        	sta	$13                     ; 0x2013 <main+0x1caa>
    5495: b2 12        	lda	($12)                   ; 0x2012 <main+0x1ca9>
    5497: 85 14        	sta	$14                     ; 0x2014 <main+0x1cab>
    5499: b1 12        	lda	($12),y                 ; 0x2012 <main+0x1ca9>
    549b: f0 02        	beq	$549f <pickFile+0x6f3>
    549d: 80 0f        	bra	$54ae <pickFile+0x702>
    549f: a6 14        	ldx	$14                     ; 0x2014 <main+0x1cab>
    54a1: e0 0b        	cpx	#$b
    54a3: f0 02        	beq	$54a7 <pickFile+0x6fb>
    54a5: 80 02        	bra	$54a9 <pickFile+0x6fd>
    54a7: 80 03        	bra	$54ac <pickFile+0x700>
    54a9: 4c 33 56     	jmp	$5633 <pickFile+0x887>
    54ac: 80 03        	bra	$54b1 <pickFile+0x705>
    54ae: 4c 33 56     	jmp	$5633 <pickFile+0x887>
    54b1: 80 00        	bra	$54b3 <pickFile+0x707>
    54b3: 18           	clc
    54b4: a5 10        	lda	$10                     ; 0x2010 <main+0x1ca7>
    54b6: 69 07        	adc	#$7
    54b8: 85 12        	sta	$12                     ; 0x2012 <main+0x1ca9>
    54ba: a5 11        	lda	$11                     ; 0x2011 <main+0x1ca8>
    54bc: 69 00        	adc	#$0
    54be: 85 13        	sta	$13                     ; 0x2013 <main+0x1caa>
    54c0: b2 12        	lda	($12)                   ; 0x2012 <main+0x1ca9>
    54c2: 85 14        	sta	$14                     ; 0x2014 <main+0x1cab>
    54c4: a0 01        	ldy	#$1
    54c6: b1 12        	lda	($12),y                 ; 0x2012 <main+0x1ca9>
    54c8: aa           	tax
    54c9: 18           	clc
    54ca: a5 14        	lda	$14                     ; 0x2014 <main+0x1cab>
    54cc: 69 e2        	adc	#$e2
    54ce: 85 14        	sta	$14                     ; 0x2014 <main+0x1cab>
    54d0: 8a           	txa
    54d1: 69 11        	adc	#$11
    54d3: 85 15        	sta	$15                     ; 0x2015 <main+0x1cac>
    54d5: b2 12        	lda	($12)                   ; 0x2012 <main+0x1ca9>
    54d7: 85 16        	sta	$16                     ; 0x2016 <main+0x1cad>
    54d9: b1 12        	lda	($12),y                 ; 0x2012 <main+0x1ca9>
    54db: 85 12        	sta	$12                     ; 0x2012 <main+0x1ca9>
    54dd: 18           	clc
    54de: a5 16        	lda	$16                     ; 0x2016 <main+0x1cad>
    54e0: 69 e4        	adc	#$e4
    54e2: aa           	tax
    54e3: a5 12        	lda	$12                     ; 0x2012 <main+0x1ca9>
    54e5: 69 11        	adc	#$11
    54e7: 86 12        	stx	$12                     ; 0x2012 <main+0x1ca9>
    54e9: 85 13        	sta	$13                     ; 0x2013 <main+0x1caa>
    54eb: b2 12        	lda	($12)                   ; 0x2012 <main+0x1ca9>
    54ed: 85 16        	sta	$16                     ; 0x2016 <main+0x1cad>
    54ef: b1 12        	lda	($12),y                 ; 0x2012 <main+0x1ca9>
    54f1: aa           	tax
    54f2: a5 16        	lda	$16                     ; 0x2016 <main+0x1cad>
    54f4: d2 14        	cmp	($14)                   ; 0x2014 <main+0x1cab>
    54f6: 8a           	txa
    54f7: f1 14        	sbc	($14),y                 ; 0x2014 <main+0x1cab>
    54f9: 70 02        	bvs	$54fd <pickFile+0x751>
    54fb: 80 04        	bra	$5501 <pickFile+0x755>
    54fd: 49 80        	eor	#$80
    54ff: 80 02        	bra	$5503 <pickFile+0x757>
    5501: 80 00        	bra	$5503 <pickFile+0x757>
    5503: aa           	tax
    5504: 30 03        	bmi	$5509 <pickFile+0x75d>
    5506: 4c 33 56     	jmp	$5633 <pickFile+0x887>
    5509: 18           	clc
    550a: a5 10        	lda	$10                     ; 0x2010 <main+0x1ca7>
    550c: 69 07        	adc	#$7
    550e: 85 24        	sta	$24                     ; 0x2024 <main+0x1cbb>
    5510: a5 11        	lda	$11                     ; 0x2011 <main+0x1ca8>
    5512: 69 00        	adc	#$0
    5514: 85 25        	sta	$25                     ; 0x2025 <main+0x1cbc>
    5516: b2 24        	lda	($24)                   ; 0x2024 <main+0x1cbb>
    5518: 85 12        	sta	$12                     ; 0x2012 <main+0x1ca9>
    551a: a0 01        	ldy	#$1
    551c: b1 24        	lda	($24),y                 ; 0x2024 <main+0x1cbb>
    551e: 85 13        	sta	$13                     ; 0x2013 <main+0x1caa>
    5520: b2 12        	lda	($12)                   ; 0x2012 <main+0x1ca9>
    5522: 85 14        	sta	$14                     ; 0x2014 <main+0x1cab>
    5524: b2 24        	lda	($24)                   ; 0x2024 <main+0x1cbb>
    5526: 85 12        	sta	$12                     ; 0x2012 <main+0x1ca9>
    5528: b1 24        	lda	($24),y                 ; 0x2024 <main+0x1cbb>
    552a: 85 13        	sta	$13                     ; 0x2013 <main+0x1caa>
    552c: b2 24        	lda	($24)                   ; 0x2024 <main+0x1cbb>
    552e: 85 16        	sta	$16                     ; 0x2016 <main+0x1cad>
    5530: b1 24        	lda	($24),y                 ; 0x2024 <main+0x1cbb>
    5532: 85 15        	sta	$15                     ; 0x2015 <main+0x1cac>
    5534: 18           	clc
    5535: a5 16        	lda	$16                     ; 0x2016 <main+0x1cad>
    5537: 69 e6        	adc	#$e6
    5539: aa           	tax
    553a: a5 15        	lda	$15                     ; 0x2015 <main+0x1cac>
    553c: 69 11        	adc	#$11
    553e: 85 15        	sta	$15                     ; 0x2015 <main+0x1cac>
    5540: b1 12        	lda	($12),y                 ; 0x2012 <main+0x1ca9>
    5542: 86 12        	stx	$12                     ; 0x2012 <main+0x1ca9>
    5544: a6 15        	ldx	$15                     ; 0x2015 <main+0x1cac>
    5546: 86 13        	stx	$13                     ; 0x2013 <main+0x1caa>
    5548: 18           	clc
    5549: 72 12        	adc	($12)                   ; 0x2012 <main+0x1ca9>
    554b: aa           	tax
    554c: a5 14        	lda	$14                     ; 0x2014 <main+0x1cab>
    554e: 20 bc 4c     	jsr	$4cbc <textGotoXY>
    5551: a9 20        	lda	#$20
    5553: 92 10        	sta	($10)                   ; 0x2010 <main+0x1ca7>
    5555: a9 00        	lda	#$0
    5557: a0 01        	ldy	#$1
    5559: 91 10        	sta	($10),y                 ; 0x2010 <main+0x1ca7>
    555b: a2 0f        	ldx	#$f
    555d: 86 12        	stx	$12                     ; 0x2012 <main+0x1ca9>
    555f: a2 7e        	ldx	#$7e
    5561: 86 13        	stx	$13                     ; 0x2013 <main+0x1caa>
    5563: 20 ab 79     	jsr	$79ab <printf>
    5566: b2 24        	lda	($24)                   ; 0x2024 <main+0x1cbb>
    5568: 85 13        	sta	$13                     ; 0x2013 <main+0x1caa>
    556a: a0 01        	ldy	#$1
    556c: b1 24        	lda	($24),y                 ; 0x2024 <main+0x1cbb>
    556e: 85 12        	sta	$12                     ; 0x2012 <main+0x1ca9>
    5570: 18           	clc
    5571: a5 13        	lda	$13                     ; 0x2013 <main+0x1caa>
    5573: 69 e6        	adc	#$e6
    5575: aa           	tax
    5576: a5 12        	lda	$12                     ; 0x2012 <main+0x1ca9>
    5578: 69 11        	adc	#$11
    557a: 86 12        	stx	$12                     ; 0x2012 <main+0x1ca9>
    557c: 85 13        	sta	$13                     ; 0x2013 <main+0x1caa>
    557e: a9 00        	lda	#$0
    5580: 92 12        	sta	($12)                   ; 0x2012 <main+0x1ca9>
    5582: 91 12        	sta	($12),y                 ; 0x2012 <main+0x1ca9>
    5584: b2 24        	lda	($24)                   ; 0x2024 <main+0x1cbb>
    5586: 85 13        	sta	$13                     ; 0x2013 <main+0x1caa>
    5588: b1 24        	lda	($24),y                 ; 0x2024 <main+0x1cbb>
    558a: 85 12        	sta	$12                     ; 0x2012 <main+0x1ca9>
    558c: 18           	clc
    558d: a5 13        	lda	$13                     ; 0x2013 <main+0x1caa>
    558f: 69 e8        	adc	#$e8
    5591: aa           	tax
    5592: a5 12        	lda	$12                     ; 0x2012 <main+0x1ca9>
    5594: 69 11        	adc	#$11
    5596: 86 12        	stx	$12                     ; 0x2012 <main+0x1ca9>
    5598: 85 13        	sta	$13                     ; 0x2013 <main+0x1caa>
    559a: b2 12        	lda	($12)                   ; 0x2012 <main+0x1ca9>
    559c: 85 15        	sta	$15                     ; 0x2015 <main+0x1cac>
    559e: b1 12        	lda	($12),y                 ; 0x2012 <main+0x1ca9>
    55a0: 85 14        	sta	$14                     ; 0x2014 <main+0x1cab>
    55a2: 18           	clc
    55a3: a5 15        	lda	$15                     ; 0x2015 <main+0x1cac>
    55a5: 69 0b        	adc	#$b
    55a7: 85 15        	sta	$15                     ; 0x2015 <main+0x1cac>
    55a9: a5 14        	lda	$14                     ; 0x2014 <main+0x1cab>
    55ab: 69 00        	adc	#$0
    55ad: aa           	tax
    55ae: a5 15        	lda	$15                     ; 0x2015 <main+0x1cac>
    55b0: 92 12        	sta	($12)                   ; 0x2012 <main+0x1ca9>
    55b2: 8a           	txa
    55b3: 91 12        	sta	($12),y                 ; 0x2012 <main+0x1ca9>
    55b5: b2 24        	lda	($24)                   ; 0x2024 <main+0x1cbb>
    55b7: 85 12        	sta	$12                     ; 0x2012 <main+0x1ca9>
    55b9: b1 24        	lda	($24),y                 ; 0x2024 <main+0x1cbb>
    55bb: 85 13        	sta	$13                     ; 0x2013 <main+0x1caa>
    55bd: b2 24        	lda	($24)                   ; 0x2024 <main+0x1cbb>
    55bf: 85 15        	sta	$15                     ; 0x2015 <main+0x1cac>
    55c1: b1 24        	lda	($24),y                 ; 0x2024 <main+0x1cbb>
    55c3: 85 14        	sta	$14                     ; 0x2014 <main+0x1cab>
    55c5: a0 01        	ldy	#$1
    55c7: 18           	clc
    55c8: a5 15        	lda	$15                     ; 0x2015 <main+0x1cac>
    55ca: 69 e8        	adc	#$e8
    55cc: aa           	tax
    55cd: a5 14        	lda	$14                     ; 0x2014 <main+0x1cab>
    55cf: 69 11        	adc	#$11
    55d1: 86 14        	stx	$14                     ; 0x2014 <main+0x1cab>
    55d3: 85 15        	sta	$15                     ; 0x2015 <main+0x1cac>
    55d5: b2 14        	lda	($14)                   ; 0x2014 <main+0x1cab>
    55d7: 85 16        	sta	$16                     ; 0x2016 <main+0x1cad>
    55d9: b1 14        	lda	($14),y                 ; 0x2014 <main+0x1cab>
    55db: aa           	tax
    55dc: a5 16        	lda	$16                     ; 0x2016 <main+0x1cad>
    55de: 20 f9 59     	jsr	$59f9 <displayFileList>
    55e1: b2 24        	lda	($24)                   ; 0x2024 <main+0x1cbb>
    55e3: 85 12        	sta	$12                     ; 0x2012 <main+0x1ca9>
    55e5: a0 01        	ldy	#$1
    55e7: b1 24        	lda	($24),y                 ; 0x2024 <main+0x1cbb>
    55e9: 85 13        	sta	$13                     ; 0x2013 <main+0x1caa>
    55eb: b2 24        	lda	($24)                   ; 0x2024 <main+0x1cbb>
    55ed: 85 14        	sta	$14                     ; 0x2014 <main+0x1cab>
    55ef: b1 24        	lda	($24),y                 ; 0x2024 <main+0x1cbb>
    55f1: 85 15        	sta	$15                     ; 0x2015 <main+0x1cac>
    55f3: b2 24        	lda	($24)                   ; 0x2024 <main+0x1cbb>
    55f5: 85 16        	sta	$16                     ; 0x2016 <main+0x1cad>
    55f7: b1 24        	lda	($24),y                 ; 0x2024 <main+0x1cbb>
    55f9: 85 18        	sta	$18                     ; 0x2018 <main+0x1caf>
    55fb: a0 01        	ldy	#$1
    55fd: 18           	clc
    55fe: a5 16        	lda	$16                     ; 0x2016 <main+0x1cad>
    5600: 69 e6        	adc	#$e6
    5602: 85 17        	sta	$17                     ; 0x2017 <main+0x1cae>
    5604: a5 18        	lda	$18                     ; 0x2018 <main+0x1caf>
    5606: 69 11        	adc	#$11
    5608: aa           	tax
    5609: b2 12        	lda	($12)                   ; 0x2012 <main+0x1ca9>
    560b: 85 16        	sta	$16                     ; 0x2016 <main+0x1cad>
    560d: a5 17        	lda	$17                     ; 0x2017 <main+0x1cae>
    560f: 85 12        	sta	$12                     ; 0x2012 <main+0x1ca9>
    5611: b1 14        	lda	($14),y                 ; 0x2014 <main+0x1cab>
    5613: 86 13        	stx	$13                     ; 0x2013 <main+0x1caa>
    5615: 18           	clc
    5616: 72 12        	adc	($12)                   ; 0x2012 <main+0x1ca9>
    5618: aa           	tax
    5619: a5 16        	lda	$16                     ; 0x2016 <main+0x1cad>
    561b: 20 bc 4c     	jsr	$4cbc <textGotoXY>
    561e: a9 fa        	lda	#$fa
    5620: 92 10        	sta	($10)                   ; 0x2010 <main+0x1ca7>
    5622: a9 00        	lda	#$0
    5624: a0 01        	ldy	#$1
    5626: 91 10        	sta	($10),y                 ; 0x2010 <main+0x1ca7>
    5628: a2 0f        	ldx	#$f
    562a: 86 12        	stx	$12                     ; 0x2012 <main+0x1ca9>
    562c: a2 7e        	ldx	#$7e
    562e: 86 13        	stx	$13                     ; 0x2013 <main+0x1caa>
    5630: 20 ab 79     	jsr	$79ab <printf>
    5633: 4c be 59     	jmp	$59be <pickFile+0xc12>
    5636: 18           	clc
    5637: a5 10        	lda	$10                     ; 0x2010 <main+0x1ca7>
    5639: 69 07        	adc	#$7
    563b: 85 12        	sta	$12                     ; 0x2012 <main+0x1ca9>
    563d: a5 11        	lda	$11                     ; 0x2011 <main+0x1ca8>
    563f: 69 00        	adc	#$0
    5641: 85 13        	sta	$13                     ; 0x2013 <main+0x1caa>
    5643: b2 12        	lda	($12)                   ; 0x2012 <main+0x1ca9>
    5645: 85 14        	sta	$14                     ; 0x2014 <main+0x1cab>
    5647: a0 01        	ldy	#$1
    5649: b1 12        	lda	($12),y                 ; 0x2012 <main+0x1ca9>
    564b: aa           	tax
    564c: 18           	clc
    564d: a5 14        	lda	$14                     ; 0x2014 <main+0x1cab>
    564f: 69 e4        	adc	#$e4
    5651: 85 12        	sta	$12                     ; 0x2012 <main+0x1ca9>
    5653: 8a           	txa
    5654: 69 11        	adc	#$11
    5656: 85 13        	sta	$13                     ; 0x2013 <main+0x1caa>
    5658: b2 12        	lda	($12)                   ; 0x2012 <main+0x1ca9>
    565a: 85 14        	sta	$14                     ; 0x2014 <main+0x1cab>
    565c: b1 12        	lda	($12),y                 ; 0x2012 <main+0x1ca9>
    565e: a6 14        	ldx	$14                     ; 0x2014 <main+0x1cab>
    5660: e0 0b        	cpx	#$b
    5662: e9 00        	sbc	#$0
    5664: 70 02        	bvs	$5668 <pickFile+0x8bc>
    5666: 80 04        	bra	$566c <pickFile+0x8c0>
    5668: 49 80        	eor	#$80
    566a: 80 02        	bra	$566e <pickFile+0x8c2>
    566c: 80 00        	bra	$566e <pickFile+0x8c2>
    566e: aa           	tax
    566f: 10 03        	bpl	$5674 <pickFile+0x8c8>
    5671: 4c b3 57     	jmp	$57b3 <pickFile+0xa07>
    5674: 18           	clc
    5675: a5 10        	lda	$10                     ; 0x2010 <main+0x1ca7>
    5677: 69 07        	adc	#$7
    5679: 85 24        	sta	$24                     ; 0x2024 <main+0x1cbb>
    567b: a5 11        	lda	$11                     ; 0x2011 <main+0x1ca8>
    567d: 69 00        	adc	#$0
    567f: 85 25        	sta	$25                     ; 0x2025 <main+0x1cbc>
    5681: b2 24        	lda	($24)                   ; 0x2024 <main+0x1cbb>
    5683: 85 12        	sta	$12                     ; 0x2012 <main+0x1ca9>
    5685: a0 01        	ldy	#$1
    5687: b1 24        	lda	($24),y                 ; 0x2024 <main+0x1cbb>
    5689: 85 13        	sta	$13                     ; 0x2013 <main+0x1caa>
    568b: b2 12        	lda	($12)                   ; 0x2012 <main+0x1ca9>
    568d: 85 14        	sta	$14                     ; 0x2014 <main+0x1cab>
    568f: b2 24        	lda	($24)                   ; 0x2024 <main+0x1cbb>
    5691: 85 12        	sta	$12                     ; 0x2012 <main+0x1ca9>
    5693: b1 24        	lda	($24),y                 ; 0x2024 <main+0x1cbb>
    5695: 85 13        	sta	$13                     ; 0x2013 <main+0x1caa>
    5697: b2 24        	lda	($24)                   ; 0x2024 <main+0x1cbb>
    5699: 85 16        	sta	$16                     ; 0x2016 <main+0x1cad>
    569b: b1 24        	lda	($24),y                 ; 0x2024 <main+0x1cbb>
    569d: 85 15        	sta	$15                     ; 0x2015 <main+0x1cac>
    569f: 18           	clc
    56a0: a5 16        	lda	$16                     ; 0x2016 <main+0x1cad>
    56a2: 69 e6        	adc	#$e6
    56a4: aa           	tax
    56a5: a5 15        	lda	$15                     ; 0x2015 <main+0x1cac>
    56a7: 69 11        	adc	#$11
    56a9: 85 15        	sta	$15                     ; 0x2015 <main+0x1cac>
    56ab: b1 12        	lda	($12),y                 ; 0x2012 <main+0x1ca9>
    56ad: 86 12        	stx	$12                     ; 0x2012 <main+0x1ca9>
    56af: a6 15        	ldx	$15                     ; 0x2015 <main+0x1cac>
    56b1: 86 13        	stx	$13                     ; 0x2013 <main+0x1caa>
    56b3: 18           	clc
    56b4: 72 12        	adc	($12)                   ; 0x2012 <main+0x1ca9>
    56b6: aa           	tax
    56b7: a5 14        	lda	$14                     ; 0x2014 <main+0x1cab>
    56b9: 20 bc 4c     	jsr	$4cbc <textGotoXY>
    56bc: a9 20        	lda	#$20
    56be: 92 10        	sta	($10)                   ; 0x2010 <main+0x1ca7>
    56c0: a9 00        	lda	#$0
    56c2: a0 01        	ldy	#$1
    56c4: 91 10        	sta	($10),y                 ; 0x2010 <main+0x1ca7>
    56c6: a2 0f        	ldx	#$f
    56c8: 86 12        	stx	$12                     ; 0x2012 <main+0x1ca9>
    56ca: a2 7e        	ldx	#$7e
    56cc: 86 13        	stx	$13                     ; 0x2013 <main+0x1caa>
    56ce: 20 ab 79     	jsr	$79ab <printf>
    56d1: b2 24        	lda	($24)                   ; 0x2024 <main+0x1cbb>
    56d3: 85 13        	sta	$13                     ; 0x2013 <main+0x1caa>
    56d5: a0 01        	ldy	#$1
    56d7: b1 24        	lda	($24),y                 ; 0x2024 <main+0x1cbb>
    56d9: 85 12        	sta	$12                     ; 0x2012 <main+0x1ca9>
    56db: 18           	clc
    56dc: a5 13        	lda	$13                     ; 0x2013 <main+0x1caa>
    56de: 69 e4        	adc	#$e4
    56e0: aa           	tax
    56e1: a5 12        	lda	$12                     ; 0x2012 <main+0x1ca9>
    56e3: 69 11        	adc	#$11
    56e5: 86 12        	stx	$12                     ; 0x2012 <main+0x1ca9>
    56e7: 85 13        	sta	$13                     ; 0x2013 <main+0x1caa>
    56e9: b2 12        	lda	($12)                   ; 0x2012 <main+0x1ca9>
    56eb: 85 15        	sta	$15                     ; 0x2015 <main+0x1cac>
    56ed: b1 12        	lda	($12),y                 ; 0x2012 <main+0x1ca9>
    56ef: 85 14        	sta	$14                     ; 0x2014 <main+0x1cab>
    56f1: 18           	clc
    56f2: a5 15        	lda	$15                     ; 0x2015 <main+0x1cac>
    56f4: 69 f5        	adc	#$f5
    56f6: 85 15        	sta	$15                     ; 0x2015 <main+0x1cac>
    56f8: a5 14        	lda	$14                     ; 0x2014 <main+0x1cab>
    56fa: 69 ff        	adc	#$ff
    56fc: aa           	tax
    56fd: a5 15        	lda	$15                     ; 0x2015 <main+0x1cac>
    56ff: 92 12        	sta	($12)                   ; 0x2012 <main+0x1ca9>
    5701: 8a           	txa
    5702: 91 12        	sta	($12),y                 ; 0x2012 <main+0x1ca9>
    5704: b2 24        	lda	($24)                   ; 0x2024 <main+0x1cbb>
    5706: 85 13        	sta	$13                     ; 0x2013 <main+0x1caa>
    5708: b1 24        	lda	($24),y                 ; 0x2024 <main+0x1cbb>
    570a: 85 12        	sta	$12                     ; 0x2012 <main+0x1ca9>
    570c: 18           	clc
    570d: a5 13        	lda	$13                     ; 0x2013 <main+0x1caa>
    570f: 69 e8        	adc	#$e8
    5711: aa           	tax
    5712: a5 12        	lda	$12                     ; 0x2012 <main+0x1ca9>
    5714: 69 11        	adc	#$11
    5716: 86 12        	stx	$12                     ; 0x2012 <main+0x1ca9>
    5718: 85 13        	sta	$13                     ; 0x2013 <main+0x1caa>
    571a: b2 12        	lda	($12)                   ; 0x2012 <main+0x1ca9>
    571c: 85 15        	sta	$15                     ; 0x2015 <main+0x1cac>
    571e: b1 12        	lda	($12),y                 ; 0x2012 <main+0x1ca9>
    5720: 85 14        	sta	$14                     ; 0x2014 <main+0x1cab>
    5722: 18           	clc
    5723: a5 15        	lda	$15                     ; 0x2015 <main+0x1cac>
    5725: 69 f5        	adc	#$f5
    5727: 85 15        	sta	$15                     ; 0x2015 <main+0x1cac>
    5729: a5 14        	lda	$14                     ; 0x2014 <main+0x1cab>
    572b: 69 ff        	adc	#$ff
    572d: aa           	tax
    572e: a5 15        	lda	$15                     ; 0x2015 <main+0x1cac>
    5730: 92 12        	sta	($12)                   ; 0x2012 <main+0x1ca9>
    5732: 8a           	txa
    5733: 91 12        	sta	($12),y                 ; 0x2012 <main+0x1ca9>
    5735: b2 24        	lda	($24)                   ; 0x2024 <main+0x1cbb>
    5737: 85 12        	sta	$12                     ; 0x2012 <main+0x1ca9>
    5739: b1 24        	lda	($24),y                 ; 0x2024 <main+0x1cbb>
    573b: 85 13        	sta	$13                     ; 0x2013 <main+0x1caa>
    573d: b2 24        	lda	($24)                   ; 0x2024 <main+0x1cbb>
    573f: 85 15        	sta	$15                     ; 0x2015 <main+0x1cac>
    5741: b1 24        	lda	($24),y                 ; 0x2024 <main+0x1cbb>
    5743: 85 14        	sta	$14                     ; 0x2014 <main+0x1cab>
    5745: a0 01        	ldy	#$1
    5747: 18           	clc
    5748: a5 15        	lda	$15                     ; 0x2015 <main+0x1cac>
    574a: 69 e8        	adc	#$e8
    574c: aa           	tax
    574d: a5 14        	lda	$14                     ; 0x2014 <main+0x1cab>
    574f: 69 11        	adc	#$11
    5751: 86 14        	stx	$14                     ; 0x2014 <main+0x1cab>
    5753: 85 15        	sta	$15                     ; 0x2015 <main+0x1cac>
    5755: b2 14        	lda	($14)                   ; 0x2014 <main+0x1cab>
    5757: 85 16        	sta	$16                     ; 0x2016 <main+0x1cad>
    5759: b1 14        	lda	($14),y                 ; 0x2014 <main+0x1cab>
    575b: aa           	tax
    575c: a5 16        	lda	$16                     ; 0x2016 <main+0x1cad>
    575e: 20 f9 59     	jsr	$59f9 <displayFileList>
    5761: b2 24        	lda	($24)                   ; 0x2024 <main+0x1cbb>
    5763: 85 12        	sta	$12                     ; 0x2012 <main+0x1ca9>
    5765: a0 01        	ldy	#$1
    5767: b1 24        	lda	($24),y                 ; 0x2024 <main+0x1cbb>
    5769: 85 13        	sta	$13                     ; 0x2013 <main+0x1caa>
    576b: b2 24        	lda	($24)                   ; 0x2024 <main+0x1cbb>
    576d: 85 14        	sta	$14                     ; 0x2014 <main+0x1cab>
    576f: b1 24        	lda	($24),y                 ; 0x2024 <main+0x1cbb>
    5771: 85 15        	sta	$15                     ; 0x2015 <main+0x1cac>
    5773: b2 24        	lda	($24)                   ; 0x2024 <main+0x1cbb>
    5775: 85 16        	sta	$16                     ; 0x2016 <main+0x1cad>
    5777: b1 24        	lda	($24),y                 ; 0x2024 <main+0x1cbb>
    5779: 85 18        	sta	$18                     ; 0x2018 <main+0x1caf>
    577b: a0 01        	ldy	#$1
    577d: 18           	clc
    577e: a5 16        	lda	$16                     ; 0x2016 <main+0x1cad>
    5780: 69 e6        	adc	#$e6
    5782: 85 17        	sta	$17                     ; 0x2017 <main+0x1cae>
    5784: a5 18        	lda	$18                     ; 0x2018 <main+0x1caf>
    5786: 69 11        	adc	#$11
    5788: aa           	tax
    5789: b2 12        	lda	($12)                   ; 0x2012 <main+0x1ca9>
    578b: 85 16        	sta	$16                     ; 0x2016 <main+0x1cad>
    578d: a5 17        	lda	$17                     ; 0x2017 <main+0x1cae>
    578f: 85 12        	sta	$12                     ; 0x2012 <main+0x1ca9>
    5791: b1 14        	lda	($14),y                 ; 0x2014 <main+0x1cab>
    5793: 86 13        	stx	$13                     ; 0x2013 <main+0x1caa>
    5795: 18           	clc
    5796: 72 12        	adc	($12)                   ; 0x2012 <main+0x1ca9>
    5798: aa           	tax
    5799: a5 16        	lda	$16                     ; 0x2016 <main+0x1cad>
    579b: 20 bc 4c     	jsr	$4cbc <textGotoXY>
    579e: a9 fa        	lda	#$fa
    57a0: 92 10        	sta	($10)                   ; 0x2010 <main+0x1ca7>
    57a2: a9 00        	lda	#$0
    57a4: a0 01        	ldy	#$1
    57a6: 91 10        	sta	($10),y                 ; 0x2010 <main+0x1ca7>
    57a8: a2 0f        	ldx	#$f
    57aa: 86 12        	stx	$12                     ; 0x2012 <main+0x1ca9>
    57ac: a2 7e        	ldx	#$7e
    57ae: 86 13        	stx	$13                     ; 0x2013 <main+0x1caa>
    57b0: 20 ab 79     	jsr	$79ab <printf>
    57b3: 4c be 59     	jmp	$59be <pickFile+0xc12>
    57b6: 18           	clc
    57b7: a5 10        	lda	$10                     ; 0x2010 <main+0x1ca7>
    57b9: 69 07        	adc	#$7
    57bb: 85 14        	sta	$14                     ; 0x2014 <main+0x1cab>
    57bd: a5 11        	lda	$11                     ; 0x2011 <main+0x1ca8>
    57bf: 69 00        	adc	#$0
    57c1: 85 15        	sta	$15                     ; 0x2015 <main+0x1cac>
    57c3: b2 14        	lda	($14)                   ; 0x2014 <main+0x1cab>
    57c5: 85 12        	sta	$12                     ; 0x2012 <main+0x1ca9>
    57c7: a0 01        	ldy	#$1
    57c9: b1 14        	lda	($14),y                 ; 0x2014 <main+0x1cab>
    57cb: aa           	tax
    57cc: 18           	clc
    57cd: a5 12        	lda	$12                     ; 0x2012 <main+0x1ca9>
    57cf: 69 e2        	adc	#$e2
    57d1: 85 12        	sta	$12                     ; 0x2012 <main+0x1ca9>
    57d3: 8a           	txa
    57d4: 69 11        	adc	#$11
    57d6: 85 13        	sta	$13                     ; 0x2013 <main+0x1caa>
    57d8: b2 14        	lda	($14)                   ; 0x2014 <main+0x1cab>
    57da: 85 17        	sta	$17                     ; 0x2017 <main+0x1cae>
    57dc: b1 14        	lda	($14),y                 ; 0x2014 <main+0x1cab>
    57de: 85 16        	sta	$16                     ; 0x2016 <main+0x1cad>
    57e0: 18           	clc
    57e1: a5 17        	lda	$17                     ; 0x2017 <main+0x1cae>
    57e3: 69 e4        	adc	#$e4
    57e5: aa           	tax
    57e6: a5 16        	lda	$16                     ; 0x2016 <main+0x1cad>
    57e8: 69 11        	adc	#$11
    57ea: 86 16        	stx	$16                     ; 0x2016 <main+0x1cad>
    57ec: 85 17        	sta	$17                     ; 0x2017 <main+0x1cae>
    57ee: b2 16        	lda	($16)                   ; 0x2016 <main+0x1cad>
    57f0: 85 18        	sta	$18                     ; 0x2018 <main+0x1caf>
    57f2: b2 14        	lda	($14)                   ; 0x2014 <main+0x1cab>
    57f4: 85 19        	sta	$19                     ; 0x2019 <main+0x1cb0>
    57f6: b1 14        	lda	($14),y                 ; 0x2014 <main+0x1cab>
    57f8: 85 15        	sta	$15                     ; 0x2015 <main+0x1cac>
    57fa: 18           	clc
    57fb: a5 19        	lda	$19                     ; 0x2019 <main+0x1cb0>
    57fd: 69 e6        	adc	#$e6
    57ff: 85 14        	sta	$14                     ; 0x2014 <main+0x1cab>
    5801: a5 15        	lda	$15                     ; 0x2015 <main+0x1cac>
    5803: 69 11        	adc	#$11
    5805: 85 15        	sta	$15                     ; 0x2015 <main+0x1cac>
    5807: b1 16        	lda	($16),y                 ; 0x2016 <main+0x1cad>
    5809: 85 17        	sta	$17                     ; 0x2017 <main+0x1cae>
    580b: 38           	sec
    580c: a5 18        	lda	$18                     ; 0x2018 <main+0x1caf>
    580e: f2 14        	sbc	($14)                   ; 0x2014 <main+0x1cab>
    5810: 85 16        	sta	$16                     ; 0x2016 <main+0x1cad>
    5812: a5 17        	lda	$17                     ; 0x2017 <main+0x1cae>
    5814: f1 14        	sbc	($14),y                 ; 0x2014 <main+0x1cab>
    5816: 85 15        	sta	$15                     ; 0x2015 <main+0x1cac>
    5818: 18           	clc
    5819: a5 16        	lda	$16                     ; 0x2016 <main+0x1cad>
    581b: 69 0c        	adc	#$c
    581d: 85 14        	sta	$14                     ; 0x2014 <main+0x1cab>
    581f: a5 15        	lda	$15                     ; 0x2015 <main+0x1cac>
    5821: 69 00        	adc	#$0
    5823: aa           	tax
    5824: a5 14        	lda	$14                     ; 0x2014 <main+0x1cab>
    5826: d2 12        	cmp	($12)                   ; 0x2012 <main+0x1ca9>
    5828: 8a           	txa
    5829: f1 12        	sbc	($12),y                 ; 0x2012 <main+0x1ca9>
    582b: 70 02        	bvs	$582f <pickFile+0xa83>
    582d: 80 04        	bra	$5833 <pickFile+0xa87>
    582f: 49 80        	eor	#$80
    5831: 80 02        	bra	$5835 <pickFile+0xa89>
    5833: 80 00        	bra	$5835 <pickFile+0xa89>
    5835: aa           	tax
    5836: 30 03        	bmi	$583b <pickFile+0xa8f>
    5838: 4c be 59     	jmp	$59be <pickFile+0xc12>
    583b: 18           	clc
    583c: a5 10        	lda	$10                     ; 0x2010 <main+0x1ca7>
    583e: 69 07        	adc	#$7
    5840: 85 24        	sta	$24                     ; 0x2024 <main+0x1cbb>
    5842: a5 11        	lda	$11                     ; 0x2011 <main+0x1ca8>
    5844: 69 00        	adc	#$0
    5846: 85 25        	sta	$25                     ; 0x2025 <main+0x1cbc>
    5848: b2 24        	lda	($24)                   ; 0x2024 <main+0x1cbb>
    584a: 85 12        	sta	$12                     ; 0x2012 <main+0x1ca9>
    584c: a0 01        	ldy	#$1
    584e: b1 24        	lda	($24),y                 ; 0x2024 <main+0x1cbb>
    5850: 85 13        	sta	$13                     ; 0x2013 <main+0x1caa>
    5852: b2 12        	lda	($12)                   ; 0x2012 <main+0x1ca9>
    5854: 85 14        	sta	$14                     ; 0x2014 <main+0x1cab>
    5856: b2 24        	lda	($24)                   ; 0x2024 <main+0x1cbb>
    5858: 85 12        	sta	$12                     ; 0x2012 <main+0x1ca9>
    585a: b1 24        	lda	($24),y                 ; 0x2024 <main+0x1cbb>
    585c: 85 13        	sta	$13                     ; 0x2013 <main+0x1caa>
    585e: b2 24        	lda	($24)                   ; 0x2024 <main+0x1cbb>
    5860: 85 16        	sta	$16                     ; 0x2016 <main+0x1cad>
    5862: b1 24        	lda	($24),y                 ; 0x2024 <main+0x1cbb>
    5864: 85 15        	sta	$15                     ; 0x2015 <main+0x1cac>
    5866: 18           	clc
    5867: a5 16        	lda	$16                     ; 0x2016 <main+0x1cad>
    5869: 69 e6        	adc	#$e6
    586b: aa           	tax
    586c: a5 15        	lda	$15                     ; 0x2015 <main+0x1cac>
    586e: 69 11        	adc	#$11
    5870: 85 15        	sta	$15                     ; 0x2015 <main+0x1cac>
    5872: b1 12        	lda	($12),y                 ; 0x2012 <main+0x1ca9>
    5874: 86 12        	stx	$12                     ; 0x2012 <main+0x1ca9>
    5876: a6 15        	ldx	$15                     ; 0x2015 <main+0x1cac>
    5878: 86 13        	stx	$13                     ; 0x2013 <main+0x1caa>
    587a: 18           	clc
    587b: 72 12        	adc	($12)                   ; 0x2012 <main+0x1ca9>
    587d: aa           	tax
    587e: a5 14        	lda	$14                     ; 0x2014 <main+0x1cab>
    5880: 20 bc 4c     	jsr	$4cbc <textGotoXY>
    5883: a9 20        	lda	#$20
    5885: 92 10        	sta	($10)                   ; 0x2010 <main+0x1ca7>
    5887: a9 00        	lda	#$0
    5889: a0 01        	ldy	#$1
    588b: 91 10        	sta	($10),y                 ; 0x2010 <main+0x1ca7>
    588d: a2 0f        	ldx	#$f
    588f: 86 12        	stx	$12                     ; 0x2012 <main+0x1ca9>
    5891: a2 7e        	ldx	#$7e
    5893: 86 13        	stx	$13                     ; 0x2013 <main+0x1caa>
    5895: 20 ab 79     	jsr	$79ab <printf>
    5898: b2 24        	lda	($24)                   ; 0x2024 <main+0x1cbb>
    589a: 85 13        	sta	$13                     ; 0x2013 <main+0x1caa>
    589c: a0 01        	ldy	#$1
    589e: b1 24        	lda	($24),y                 ; 0x2024 <main+0x1cbb>
    58a0: 85 12        	sta	$12                     ; 0x2012 <main+0x1ca9>
    58a2: 18           	clc
    58a3: a5 13        	lda	$13                     ; 0x2013 <main+0x1caa>
    58a5: 69 e6        	adc	#$e6
    58a7: aa           	tax
    58a8: a5 12        	lda	$12                     ; 0x2012 <main+0x1ca9>
    58aa: 69 11        	adc	#$11
    58ac: 86 12        	stx	$12                     ; 0x2012 <main+0x1ca9>
    58ae: 85 13        	sta	$13                     ; 0x2013 <main+0x1caa>
    58b0: 38           	sec
    58b1: a9 0b        	lda	#$b
    58b3: f2 12        	sbc	($12)                   ; 0x2012 <main+0x1ca9>
    58b5: aa           	tax
    58b6: a9 00        	lda	#$0
    58b8: f1 12        	sbc	($12),y                 ; 0x2012 <main+0x1ca9>
    58ba: 85 15        	sta	$15                     ; 0x2015 <main+0x1cac>
    58bc: b2 24        	lda	($24)                   ; 0x2024 <main+0x1cbb>
    58be: 85 13        	sta	$13                     ; 0x2013 <main+0x1caa>
    58c0: b1 24        	lda	($24),y                 ; 0x2024 <main+0x1cbb>
    58c2: 85 12        	sta	$12                     ; 0x2012 <main+0x1ca9>
    58c4: 18           	clc
    58c5: a5 13        	lda	$13                     ; 0x2013 <main+0x1caa>
    58c7: 69 e4        	adc	#$e4
    58c9: 85 14        	sta	$14                     ; 0x2014 <main+0x1cab>
    58cb: a5 12        	lda	$12                     ; 0x2012 <main+0x1ca9>
    58cd: 69 11        	adc	#$11
    58cf: 5a           	phy
    58d0: a4 14        	ldy	$14                     ; 0x2014 <main+0x1cab>
    58d2: 84 12        	sty	$12                     ; 0x2012 <main+0x1ca9>
    58d4: 7a           	ply
    58d5: 85 13        	sta	$13                     ; 0x2013 <main+0x1caa>
    58d7: 18           	clc
    58d8: 8a           	txa
    58d9: 72 12        	adc	($12)                   ; 0x2012 <main+0x1ca9>
    58db: 85 14        	sta	$14                     ; 0x2014 <main+0x1cab>
    58dd: a5 15        	lda	$15                     ; 0x2015 <main+0x1cac>
    58df: 71 12        	adc	($12),y                 ; 0x2012 <main+0x1ca9>
    58e1: 85 15        	sta	$15                     ; 0x2015 <main+0x1cac>
    58e3: a5 14        	lda	$14                     ; 0x2014 <main+0x1cab>
    58e5: 92 12        	sta	($12)                   ; 0x2012 <main+0x1ca9>
    58e7: a5 15        	lda	$15                     ; 0x2015 <main+0x1cac>
    58e9: 91 12        	sta	($12),y                 ; 0x2012 <main+0x1ca9>
    58eb: b2 24        	lda	($24)                   ; 0x2024 <main+0x1cbb>
    58ed: 85 13        	sta	$13                     ; 0x2013 <main+0x1caa>
    58ef: b1 24        	lda	($24),y                 ; 0x2024 <main+0x1cbb>
    58f1: 85 12        	sta	$12                     ; 0x2012 <main+0x1ca9>
    58f3: 18           	clc
    58f4: a5 13        	lda	$13                     ; 0x2013 <main+0x1caa>
    58f6: 69 e6        	adc	#$e6
    58f8: aa           	tax
    58f9: a5 12        	lda	$12                     ; 0x2012 <main+0x1ca9>
    58fb: 69 11        	adc	#$11
    58fd: 86 12        	stx	$12                     ; 0x2012 <main+0x1ca9>
    58ff: 85 13        	sta	$13                     ; 0x2013 <main+0x1caa>
    5901: a9 00        	lda	#$0
    5903: 92 12        	sta	($12)                   ; 0x2012 <main+0x1ca9>
    5905: 91 12        	sta	($12),y                 ; 0x2012 <main+0x1ca9>
    5907: b2 24        	lda	($24)                   ; 0x2024 <main+0x1cbb>
    5909: 85 13        	sta	$13                     ; 0x2013 <main+0x1caa>
    590b: b1 24        	lda	($24),y                 ; 0x2024 <main+0x1cbb>
    590d: 85 12        	sta	$12                     ; 0x2012 <main+0x1ca9>
    590f: 18           	clc
    5910: a5 13        	lda	$13                     ; 0x2013 <main+0x1caa>
    5912: 69 e8        	adc	#$e8
    5914: aa           	tax
    5915: a5 12        	lda	$12                     ; 0x2012 <main+0x1ca9>
    5917: 69 11        	adc	#$11
    5919: 86 12        	stx	$12                     ; 0x2012 <main+0x1ca9>
    591b: 85 13        	sta	$13                     ; 0x2013 <main+0x1caa>
    591d: b2 12        	lda	($12)                   ; 0x2012 <main+0x1ca9>
    591f: 85 15        	sta	$15                     ; 0x2015 <main+0x1cac>
    5921: b1 12        	lda	($12),y                 ; 0x2012 <main+0x1ca9>
    5923: 85 14        	sta	$14                     ; 0x2014 <main+0x1cab>
    5925: 18           	clc
    5926: a5 15        	lda	$15                     ; 0x2015 <main+0x1cac>
    5928: 69 0b        	adc	#$b
    592a: 85 15        	sta	$15                     ; 0x2015 <main+0x1cac>
    592c: a5 14        	lda	$14                     ; 0x2014 <main+0x1cab>
    592e: 69 00        	adc	#$0
    5930: aa           	tax
    5931: a5 15        	lda	$15                     ; 0x2015 <main+0x1cac>
    5933: 92 12        	sta	($12)                   ; 0x2012 <main+0x1ca9>
    5935: 8a           	txa
    5936: 91 12        	sta	($12),y                 ; 0x2012 <main+0x1ca9>
    5938: b2 24        	lda	($24)                   ; 0x2024 <main+0x1cbb>
    593a: 85 12        	sta	$12                     ; 0x2012 <main+0x1ca9>
    593c: b1 24        	lda	($24),y                 ; 0x2024 <main+0x1cbb>
    593e: 85 13        	sta	$13                     ; 0x2013 <main+0x1caa>
    5940: b2 24        	lda	($24)                   ; 0x2024 <main+0x1cbb>
    5942: 85 15        	sta	$15                     ; 0x2015 <main+0x1cac>
    5944: b1 24        	lda	($24),y                 ; 0x2024 <main+0x1cbb>
    5946: 85 14        	sta	$14                     ; 0x2014 <main+0x1cab>
    5948: a0 01        	ldy	#$1
    594a: 18           	clc
    594b: a5 15        	lda	$15                     ; 0x2015 <main+0x1cac>
    594d: 69 e8        	adc	#$e8
    594f: aa           	tax
    5950: a5 14        	lda	$14                     ; 0x2014 <main+0x1cab>
    5952: 69 11        	adc	#$11
    5954: 86 14        	stx	$14                     ; 0x2014 <main+0x1cab>
    5956: 85 15        	sta	$15                     ; 0x2015 <main+0x1cac>
    5958: b2 14        	lda	($14)                   ; 0x2014 <main+0x1cab>
    595a: 85 16        	sta	$16                     ; 0x2016 <main+0x1cad>
    595c: b1 14        	lda	($14),y                 ; 0x2014 <main+0x1cab>
    595e: aa           	tax
    595f: a5 16        	lda	$16                     ; 0x2016 <main+0x1cad>
    5961: 20 f9 59     	jsr	$59f9 <displayFileList>
    5964: b2 24        	lda	($24)                   ; 0x2024 <main+0x1cbb>
    5966: 85 12        	sta	$12                     ; 0x2012 <main+0x1ca9>
    5968: a0 01        	ldy	#$1
    596a: b1 24        	lda	($24),y                 ; 0x2024 <main+0x1cbb>
    596c: 85 13        	sta	$13                     ; 0x2013 <main+0x1caa>
    596e: b2 24        	lda	($24)                   ; 0x2024 <main+0x1cbb>
    5970: 85 14        	sta	$14                     ; 0x2014 <main+0x1cab>
    5972: b1 24        	lda	($24),y                 ; 0x2024 <main+0x1cbb>
    5974: 85 15        	sta	$15                     ; 0x2015 <main+0x1cac>
    5976: b2 24        	lda	($24)                   ; 0x2024 <main+0x1cbb>
    5978: 85 16        	sta	$16                     ; 0x2016 <main+0x1cad>
    597a: b1 24        	lda	($24),y                 ; 0x2024 <main+0x1cbb>
    597c: 85 18        	sta	$18                     ; 0x2018 <main+0x1caf>
    597e: a0 01        	ldy	#$1
    5980: a2 08        	ldx	#$8
    5982: 86 26        	stx	$26                     ; 0x2026 <main+0x1cbd>
    5984: a2 00        	ldx	#$0
    5986: 86 27        	stx	$27                     ; 0x2027 <main+0x1cbe>
    5988: 18           	clc
    5989: a5 16        	lda	$16                     ; 0x2016 <main+0x1cad>
    598b: 69 e6        	adc	#$e6
    598d: 85 17        	sta	$17                     ; 0x2017 <main+0x1cae>
    598f: a5 18        	lda	$18                     ; 0x2018 <main+0x1caf>
    5991: 69 11        	adc	#$11
    5993: aa           	tax
    5994: b2 12        	lda	($12)                   ; 0x2012 <main+0x1ca9>
    5996: 85 16        	sta	$16                     ; 0x2016 <main+0x1cad>
    5998: a5 17        	lda	$17                     ; 0x2017 <main+0x1cae>
    599a: 85 12        	sta	$12                     ; 0x2012 <main+0x1ca9>
    599c: b1 14        	lda	($14),y                 ; 0x2014 <main+0x1cab>
    599e: 86 13        	stx	$13                     ; 0x2013 <main+0x1caa>
    59a0: 18           	clc
    59a1: 72 12        	adc	($12)                   ; 0x2012 <main+0x1ca9>
    59a3: aa           	tax
    59a4: a5 16        	lda	$16                     ; 0x2016 <main+0x1cad>
    59a6: 20 bc 4c     	jsr	$4cbc <textGotoXY>
    59a9: a9 fa        	lda	#$fa
    59ab: 92 10        	sta	($10)                   ; 0x2010 <main+0x1ca7>
    59ad: a9 00        	lda	#$0
    59af: a0 01        	ldy	#$1
    59b1: 91 10        	sta	($10),y                 ; 0x2010 <main+0x1ca7>
    59b3: a2 0f        	ldx	#$f
    59b5: 86 12        	stx	$12                     ; 0x2012 <main+0x1ca9>
    59b7: a2 7e        	ldx	#$7e
    59b9: 86 13        	stx	$13                     ; 0x2013 <main+0x1caa>
    59bb: 20 ab 79     	jsr	$79ab <printf>
    59be: 4c f0 4d     	jmp	$4df0 <pickFile+0x44>
    59c1: 18           	clc
    59c2: a5 10        	lda	$10                     ; 0x2010 <main+0x1ca7>
    59c4: 69 09        	adc	#$9
    59c6: 85 12        	sta	$12                     ; 0x2012 <main+0x1ca9>
    59c8: a5 11        	lda	$11                     ; 0x2011 <main+0x1ca8>
    59ca: 69 00        	adc	#$0
    59cc: 85 13        	sta	$13                     ; 0x2013 <main+0x1caa>
    59ce: b2 12        	lda	($12)                   ; 0x2012 <main+0x1ca9>
    59d0: 85 20        	sta	$20                     ; 0x2020 <main+0x1cb7>
    59d2: a0 02        	ldy	#$2
    59d4: b1 10        	lda	($10),y                 ; 0x2010 <main+0x1ca7>
    59d6: 85 29        	sta	$29                     ; 0x2029 <main+0x1cc0>
    59d8: c8           	iny
    59d9: b1 10        	lda	($10),y                 ; 0x2010 <main+0x1ca7>
    59db: 85 28        	sta	$28                     ; 0x2028 <main+0x1cbf>
    59dd: fa           	plx
    59de: 86 27        	stx	$27                     ; 0x2027 <main+0x1cbe>
    59e0: fa           	plx
    59e1: 86 26        	stx	$26                     ; 0x2026 <main+0x1cbd>
    59e3: fa           	plx
    59e4: 86 25        	stx	$25                     ; 0x2025 <main+0x1cbc>
    59e6: fa           	plx
    59e7: 86 24        	stx	$24                     ; 0x2024 <main+0x1cbb>
    59e9: 18           	clc
    59ea: a5 10        	lda	$10                     ; 0x2010 <main+0x1ca7>
    59ec: 69 0a        	adc	#$a
    59ee: 85 10        	sta	$10                     ; 0x2010 <main+0x1ca7>
    59f0: a5 11        	lda	$11                     ; 0x2011 <main+0x1ca8>
    59f2: 69 00        	adc	#$0
    59f4: 85 11        	sta	$11                     ; 0x2011 <main+0x1ca8>
    59f6: a5 20        	lda	$20                     ; 0x2020 <main+0x1cb7>
    59f8: 60           	rts

000059f9 <displayFileList>:
    59f9: 48           	pha
    59fa: 18           	clc
    59fb: a5 10        	lda	$10                     ; 0x2010 <main+0x1ca7>
    59fd: 69 fa        	adc	#$fa
    59ff: 85 10        	sta	$10                     ; 0x2010 <main+0x1ca7>
    5a01: a5 11        	lda	$11                     ; 0x2011 <main+0x1ca8>
    5a03: 69 ff        	adc	#$ff
    5a05: 85 11        	sta	$11                     ; 0x2011 <main+0x1ca8>
    5a07: 68           	pla
    5a08: 85 14        	sta	$14                     ; 0x2014 <main+0x1cab>
    5a0a: 86 70        	stx	$70                     ; 0x2070 <main+0x1d07>
    5a0c: a4 12        	ldy	$12                     ; 0x2012 <main+0x1ca9>
    5a0e: 84 6b        	sty	$6b                     ; 0x206b <main+0x1d02>
    5a10: a4 13        	ldy	$13                     ; 0x2013 <main+0x1caa>
    5a12: 84 6c        	sty	$6c                     ; 0x206c <main+0x1d03>
    5a14: 18           	clc
    5a15: 69 0c        	adc	#$c
    5a17: 85 13        	sta	$13                     ; 0x2013 <main+0x1caa>
    5a19: 8a           	txa
    5a1a: 69 00        	adc	#$0
    5a1c: 85 16        	sta	$16                     ; 0x2016 <main+0x1cad>
    5a1e: a5 6b        	lda	$6b                     ; 0x206b <main+0x1d02>
    5a20: 18           	clc
    5a21: 69 e2        	adc	#$e2
    5a23: 85 12        	sta	$12                     ; 0x2012 <main+0x1ca9>
    5a25: a5 6c        	lda	$6c                     ; 0x206c <main+0x1d03>
    5a27: 69 11        	adc	#$11
    5a29: 86 6d        	stx	$6d                     ; 0x206d <main+0x1d04>
    5a2b: a6 14        	ldx	$14                     ; 0x2014 <main+0x1cab>
    5a2d: 86 7c        	stx	$7c                     ; 0x207c <main+0x1d13>
    5a2f: e8           	inx
    5a30: d0 02        	bne	$5a34 <displayFileList+0x3b>
    5a32: e6 6d        	inc	$6d                     ; 0x206d <main+0x1d04>
    5a34: a4 12        	ldy	$12                     ; 0x2012 <main+0x1ca9>
    5a36: 84 14        	sty	$14                     ; 0x2014 <main+0x1cab>
    5a38: 85 15        	sta	$15                     ; 0x2015 <main+0x1cac>
    5a3a: a0 01        	ldy	#$1
    5a3c: b1 14        	lda	($14),y                 ; 0x2014 <main+0x1cab>
    5a3e: 85 12        	sta	$12                     ; 0x2012 <main+0x1ca9>
    5a40: a5 13        	lda	$13                     ; 0x2013 <main+0x1caa>
    5a42: a4 13        	ldy	$13                     ; 0x2013 <main+0x1caa>
    5a44: 84 76        	sty	$76                     ; 0x2076 <main+0x1d0d>
    5a46: d2 14        	cmp	($14)                   ; 0x2014 <main+0x1cab>
    5a48: a5 16        	lda	$16                     ; 0x2016 <main+0x1cad>
    5a4a: a4 16        	ldy	$16                     ; 0x2016 <main+0x1cad>
    5a4c: 84 77        	sty	$77                     ; 0x2077 <main+0x1d0e>
    5a4e: e5 12        	sbc	$12                     ; 0x2012 <main+0x1ca9>
    5a50: 50 02        	bvc	$5a54 <displayFileList+0x5b>
    5a52: 49 80        	eor	#$80
    5a54: 86 6e        	stx	$6e                     ; 0x206e <main+0x1d05>
    5a56: aa           	tax
    5a57: 30 08        	bmi	$5a61 <displayFileList+0x68>
    5a59: b2 14        	lda	($14)                   ; 0x2014 <main+0x1cab>
    5a5b: 85 76        	sta	$76                     ; 0x2076 <main+0x1d0d>
    5a5d: a6 12        	ldx	$12                     ; 0x2012 <main+0x1ca9>
    5a5f: 86 77        	stx	$77                     ; 0x2077 <main+0x1d0e>
    5a61: a6 14        	ldx	$14                     ; 0x2014 <main+0x1cab>
    5a63: 86 12        	stx	$12                     ; 0x2012 <main+0x1ca9>
    5a65: a6 15        	ldx	$15                     ; 0x2015 <main+0x1cac>
    5a67: 86 13        	stx	$13                     ; 0x2013 <main+0x1caa>
    5a69: a6 12        	ldx	$12                     ; 0x2012 <main+0x1ca9>
    5a6b: 86 78        	stx	$78                     ; 0x2078 <main+0x1d0f>
    5a6d: a6 13        	ldx	$13                     ; 0x2013 <main+0x1caa>
    5a6f: 86 79        	stx	$79                     ; 0x2079 <main+0x1d10>
    5a71: b2 6b        	lda	($6b)                   ; 0x206b <main+0x1d02>
    5a73: 85 12        	sta	$12                     ; 0x2012 <main+0x1ca9>
    5a75: a0 01        	ldy	#$1
    5a77: b1 6b        	lda	($6b),y                 ; 0x206b <main+0x1d02>
    5a79: a4 12        	ldy	$12                     ; 0x2012 <main+0x1ca9>
    5a7b: 84 44        	sty	$44                     ; 0x2044 <main+0x1cdb>
    5a7d: 8c 14 d0     	sty	$d014                   ; 0xd014 <__heap_start+0x3d44>
    5a80: 64 6f        	stz	$6f                     ; 0x206f <main+0x1d06>
    5a82: 9c 15 d0     	stz	$d015                   ; 0xd015 <__heap_start+0x3d45>
    5a85: 85 45        	sta	$45                     ; 0x2045 <main+0x1cdc>
    5a87: 8d 16 d0     	sta	$d016                   ; 0xd016 <__heap_start+0x3d46>
    5a8a: 9c 17 d0     	stz	$d017                   ; 0xd017 <__heap_start+0x3d47>
    5a8d: a6 6b        	ldx	$6b                     ; 0x206b <main+0x1d02>
    5a8f: 86 12        	stx	$12                     ; 0x2012 <main+0x1ca9>
    5a91: a6 6c        	ldx	$6c                     ; 0x206c <main+0x1d03>
    5a93: 86 13        	stx	$13                     ; 0x2013 <main+0x1caa>
    5a95: 20 57 5d     	jsr	$5d57 <wipeArea>
    5a98: b2 6b        	lda	($6b)                   ; 0x206b <main+0x1d02>
    5a9a: 85 12        	sta	$12                     ; 0x2012 <main+0x1ca9>
    5a9c: a0 01        	ldy	#$1
    5a9e: b1 6b        	lda	($6b),y                 ; 0x206b <main+0x1d02>
    5aa0: aa           	tax
    5aa1: a5 12        	lda	$12                     ; 0x2012 <main+0x1ca9>
    5aa3: 85 44        	sta	$44                     ; 0x2044 <main+0x1cdb>
    5aa5: 8d 14 d0     	sta	$d014                   ; 0xd014 <__heap_start+0x3d44>
    5aa8: 9c 15 d0     	stz	$d015                   ; 0xd015 <__heap_start+0x3d45>
    5aab: 86 45        	stx	$45                     ; 0x2045 <main+0x1cdc>
    5aad: 8e 16 d0     	stx	$d016                   ; 0xd016 <__heap_start+0x3d46>
    5ab0: 9c 17 d0     	stz	$d017                   ; 0xd017 <__heap_start+0x3d47>
    5ab3: a5 6b        	lda	$6b                     ; 0x206b <main+0x1d02>
    5ab5: 18           	clc
    5ab6: 69 e6        	adc	#$e6
    5ab8: 85 14        	sta	$14                     ; 0x2014 <main+0x1cab>
    5aba: a5 6c        	lda	$6c                     ; 0x206c <main+0x1d03>
    5abc: 69 11        	adc	#$11
    5abe: 85 15        	sta	$15                     ; 0x2015 <main+0x1cac>
    5ac0: b2 14        	lda	($14)                   ; 0x2014 <main+0x1cab>
    5ac2: 85 16        	sta	$16                     ; 0x2016 <main+0x1cad>
    5ac4: a6 14        	ldx	$14                     ; 0x2014 <main+0x1cab>
    5ac6: 86 12        	stx	$12                     ; 0x2012 <main+0x1ca9>
    5ac8: a6 15        	ldx	$15                     ; 0x2015 <main+0x1cac>
    5aca: 86 13        	stx	$13                     ; 0x2013 <main+0x1caa>
    5acc: a6 12        	ldx	$12                     ; 0x2012 <main+0x1ca9>
    5ace: 86 7a        	stx	$7a                     ; 0x207a <main+0x1d11>
    5ad0: a6 13        	ldx	$13                     ; 0x2013 <main+0x1caa>
    5ad2: 86 7b        	stx	$7b                     ; 0x207b <main+0x1d12>
    5ad4: b1 14        	lda	($14),y                 ; 0x2014 <main+0x1cab>
    5ad6: d0 07        	bne	$5adf <displayFileList+0xe6>
    5ad8: a5 16        	lda	$16                     ; 0x2016 <main+0x1cad>
    5ada: d0 03        	bne	$5adf <displayFileList+0xe6>
    5adc: 4c 52 5d     	jmp	$5d52 <displayFileList+0x359>
    5adf: a0 20        	ldy	#$20
    5ae1: a5 6b        	lda	$6b                     ; 0x206b <main+0x1d02>
    5ae3: 18           	clc
    5ae4: 69 4e        	adc	#$4e
    5ae6: 85 14        	sta	$14                     ; 0x2014 <main+0x1cab>
    5ae8: a5 6c        	lda	$6c                     ; 0x206c <main+0x1d03>
    5aea: 69 00        	adc	#$0
    5aec: 85 16        	sta	$16                     ; 0x2016 <main+0x1cad>
    5aee: 18           	clc
    5aef: a5 6b        	lda	$6b                     ; 0x206b <main+0x1d02>
    5af1: 69 7e        	adc	#$7e
    5af3: aa           	tax
    5af4: a5 6c        	lda	$6c                     ; 0x206c <main+0x1d03>
    5af6: 69 11        	adc	#$11
    5af8: 86 12        	stx	$12                     ; 0x2012 <main+0x1ca9>
    5afa: 85 13        	sta	$13                     ; 0x2013 <main+0x1caa>
    5afc: b2 12        	lda	($12)                   ; 0x2012 <main+0x1ca9>
    5afe: 29 01        	and	#$1
    5b00: a2 52        	ldx	#$52
    5b02: 86 12        	stx	$12                     ; 0x2012 <main+0x1ca9>
    5b04: a2 7d        	ldx	#$7d
    5b06: 86 13        	stx	$13                     ; 0x2013 <main+0x1caa>
    5b08: aa           	tax
    5b09: d0 08        	bne	$5b13 <displayFileList+0x11a>
    5b0b: a2 7a        	ldx	#$7a
    5b0d: 86 12        	stx	$12                     ; 0x2012 <main+0x1ca9>
    5b0f: a2 7c        	ldx	#$7c
    5b11: 86 13        	stx	$13                     ; 0x2013 <main+0x1caa>
    5b13: a6 10        	ldx	$10                     ; 0x2010 <main+0x1ca7>
    5b15: 98           	tya
    5b16: 92 10        	sta	($10)                   ; 0x2010 <main+0x1ca7>
    5b18: a0 01        	ldy	#$1
    5b1a: a9 00        	lda	#$0
    5b1c: 91 10        	sta	($10),y                 ; 0x2010 <main+0x1ca7>
    5b1e: c8           	iny
    5b1f: a5 14        	lda	$14                     ; 0x2014 <main+0x1cab>
    5b21: 91 10        	sta	($10),y                 ; 0x2010 <main+0x1ca7>
    5b23: 18           	clc
    5b24: 8a           	txa
    5b25: 69 02        	adc	#$2
    5b27: 85 14        	sta	$14                     ; 0x2014 <main+0x1cab>
    5b29: a5 11        	lda	$11                     ; 0x2011 <main+0x1ca8>
    5b2b: 69 00        	adc	#$0
    5b2d: 18           	clc
    5b2e: 85 15        	sta	$15                     ; 0x2015 <main+0x1cac>
    5b30: a5 16        	lda	$16                     ; 0x2016 <main+0x1cad>
    5b32: 88           	dey
    5b33: 91 14        	sta	($14),y                 ; 0x2014 <main+0x1cab>
    5b35: 8a           	txa
    5b36: 69 04        	adc	#$4
    5b38: 85 14        	sta	$14                     ; 0x2014 <main+0x1cab>
    5b3a: a5 11        	lda	$11                     ; 0x2011 <main+0x1ca8>
    5b3c: 69 00        	adc	#$0
    5b3e: 85 15        	sta	$15                     ; 0x2015 <main+0x1cac>
    5b40: a5 12        	lda	$12                     ; 0x2012 <main+0x1ca9>
    5b42: a0 04        	ldy	#$4
    5b44: 91 10        	sta	($10),y                 ; 0x2010 <main+0x1ca7>
    5b46: a0 01        	ldy	#$1
    5b48: a5 13        	lda	$13                     ; 0x2013 <main+0x1caa>
    5b4a: 91 14        	sta	($14),y                 ; 0x2014 <main+0x1cab>
    5b4c: a2 a0        	ldx	#$a0
    5b4e: 86 12        	stx	$12                     ; 0x2012 <main+0x1ca9>
    5b50: a2 7e        	ldx	#$7e
    5b52: 86 13        	stx	$13                     ; 0x2013 <main+0x1caa>
    5b54: 20 ab 79     	jsr	$79ab <printf>
    5b57: a6 76        	ldx	$76                     ; 0x2076 <main+0x1d0d>
    5b59: 86 12        	stx	$12                     ; 0x2012 <main+0x1ca9>
    5b5b: a6 6e        	ldx	$6e                     ; 0x206e <main+0x1d05>
    5b5d: e4 12        	cpx	$12                     ; 0x2012 <main+0x1ca9>
    5b5f: a6 77        	ldx	$77                     ; 0x2077 <main+0x1d0e>
    5b61: 86 12        	stx	$12                     ; 0x2012 <main+0x1ca9>
    5b63: a5 6d        	lda	$6d                     ; 0x206d <main+0x1d04>
    5b65: e5 12        	sbc	$12                     ; 0x2012 <main+0x1ca9>
    5b67: 50 02        	bvc	$5b6b <displayFileList+0x172>
    5b69: 49 80        	eor	#$80
    5b6b: aa           	tax
    5b6c: 30 03        	bmi	$5b71 <displayFileList+0x178>
    5b6e: 4c 94 5c     	jmp	$5c94 <displayFileList+0x29b>
    5b71: a5 6b        	lda	$6b                     ; 0x206b <main+0x1d02>
    5b73: 18           	clc
    5b74: 69 e4        	adc	#$e4
    5b76: 85 72        	sta	$72                     ; 0x2072 <main+0x1d09>
    5b78: a5 6c        	lda	$6c                     ; 0x206c <main+0x1d03>
    5b7a: 69 11        	adc	#$11
    5b7c: 85 73        	sta	$73                     ; 0x2073 <main+0x1d0a>
    5b7e: a4 7c        	ldy	$7c                     ; 0x207c <main+0x1d13>
    5b80: 84 12        	sty	$12                     ; 0x2012 <main+0x1ca9>
    5b82: a5 6b        	lda	$6b                     ; 0x206b <main+0x1d02>
    5b84: 18           	clc
    5b85: 65 12        	adc	$12                     ; 0x2012 <main+0x1ca9>
    5b87: aa           	tax
    5b88: a5 6c        	lda	$6c                     ; 0x206c <main+0x1d03>
    5b8a: 65 70        	adc	$70                     ; 0x2070 <main+0x1d07>
    5b8c: 85 12        	sta	$12                     ; 0x2012 <main+0x1ca9>
    5b8e: 18           	clc
    5b8f: 8a           	txa
    5b90: 69 7f        	adc	#$7f
    5b92: 85 14        	sta	$14                     ; 0x2014 <main+0x1cab>
    5b94: a5 12        	lda	$12                     ; 0x2012 <main+0x1ca9>
    5b96: 69 11        	adc	#$11
    5b98: 85 15        	sta	$15                     ; 0x2015 <main+0x1cac>
    5b9a: a2 2c        	ldx	#$2c
    5b9c: 64 13        	stz	$13                     ; 0x2013 <main+0x1caa>
    5b9e: 86 12        	stx	$12                     ; 0x2012 <main+0x1ca9>
    5ba0: a6 70        	ldx	$70                     ; 0x2070 <main+0x1d07>
    5ba2: 5a           	phy
    5ba3: a4 14        	ldy	$14                     ; 0x2014 <main+0x1cab>
    5ba5: 84 70        	sty	$70                     ; 0x2070 <main+0x1d07>
    5ba7: 7a           	ply
    5ba8: 85 71        	sta	$71                     ; 0x2071 <main+0x1d08>
    5baa: 98           	tya
    5bab: 20 59 7b     	jsr	$7b59 <__mulhi3>
    5bae: a4 6e        	ldy	$6e                     ; 0x206e <main+0x1d05>
    5bb0: 18           	clc
    5bb1: 65 6b        	adc	$6b                     ; 0x206b <main+0x1d02>
    5bb3: 85 13        	sta	$13                     ; 0x2013 <main+0x1caa>
    5bb5: 8a           	txa
    5bb6: 65 6c        	adc	$6c                     ; 0x206c <main+0x1d03>
    5bb8: 85 12        	sta	$12                     ; 0x2012 <main+0x1ca9>
    5bba: 18           	clc
    5bbb: a5 13        	lda	$13                     ; 0x2013 <main+0x1caa>
    5bbd: 69 7a        	adc	#$7a
    5bbf: 85 74        	sta	$74                     ; 0x2074 <main+0x1d0b>
    5bc1: a5 12        	lda	$12                     ; 0x2012 <main+0x1ca9>
    5bc3: 69 00        	adc	#$0
    5bc5: 85 75        	sta	$75                     ; 0x2075 <main+0x1d0c>
    5bc7: a9 01        	lda	#$1
    5bc9: 5a           	phy
    5bca: fa           	plx
    5bcb: 85 6f        	sta	$6f                     ; 0x206f <main+0x1d06>
    5bcd: 18           	clc
    5bce: a0 01        	ldy	#$1
    5bd0: 71 6b        	adc	($6b),y                 ; 0x206b <main+0x1d02>
    5bd2: 85 13        	sta	$13                     ; 0x2013 <main+0x1caa>
    5bd4: b2 6b        	lda	($6b)                   ; 0x206b <main+0x1d02>
    5bd6: 85 44        	sta	$44                     ; 0x2044 <main+0x1cdb>
    5bd8: 8d 14 d0     	sta	$d014                   ; 0xd014 <__heap_start+0x3d44>
    5bdb: 9c 15 d0     	stz	$d015                   ; 0xd015 <__heap_start+0x3d45>
    5bde: a4 13        	ldy	$13                     ; 0x2013 <main+0x1caa>
    5be0: 84 45        	sty	$45                     ; 0x2045 <main+0x1cdc>
    5be2: 8c 16 d0     	sty	$d016                   ; 0xd016 <__heap_start+0x3d46>
    5be5: 9c 17 d0     	stz	$d017                   ; 0xd017 <__heap_start+0x3d47>
    5be8: a5 6d        	lda	$6d                     ; 0x206d <main+0x1d04>
    5bea: a0 01        	ldy	#$1
    5bec: d1 72        	cmp	($72),y                 ; 0x2072 <main+0x1d09>
    5bee: d0 0e        	bne	$5bfe <displayFileList+0x205>
    5bf0: b2 72        	lda	($72)                   ; 0x2072 <main+0x1d09>
    5bf2: 85 12        	sta	$12                     ; 0x2012 <main+0x1ca9>
    5bf4: e4 12        	cpx	$12                     ; 0x2012 <main+0x1ca9>
    5bf6: d0 06        	bne	$5bfe <displayFileList+0x205>
    5bf8: 86 6e        	stx	$6e                     ; 0x206e <main+0x1d05>
    5bfa: a2 fa        	ldx	#$fa
    5bfc: 80 04        	bra	$5c02 <displayFileList+0x209>
    5bfe: 86 6e        	stx	$6e                     ; 0x206e <main+0x1d05>
    5c00: a2 20        	ldx	#$20
    5c02: 86 5a        	stx	$5a                     ; 0x205a <main+0x1cf1>
    5c04: a2 5a        	ldx	#$5a
    5c06: 86 12        	stx	$12                     ; 0x2012 <main+0x1ca9>
    5c08: a2 00        	ldx	#$0
    5c0a: 86 13        	stx	$13                     ; 0x2013 <main+0x1caa>
    5c0c: 20 4d 49     	jsr	$494d <textPrint>
    5c0f: b2 70        	lda	($70)                   ; 0x2070 <main+0x1d07>
    5c11: 29 01        	and	#$1
    5c13: a2 52        	ldx	#$52
    5c15: 86 12        	stx	$12                     ; 0x2012 <main+0x1ca9>
    5c17: a2 7d        	ldx	#$7d
    5c19: 86 13        	stx	$13                     ; 0x2013 <main+0x1caa>
    5c1b: aa           	tax
    5c1c: d0 08        	bne	$5c26 <displayFileList+0x22d>
    5c1e: a2 7a        	ldx	#$7a
    5c20: 86 12        	stx	$12                     ; 0x2012 <main+0x1ca9>
    5c22: a2 7c        	ldx	#$7c
    5c24: 86 13        	stx	$13                     ; 0x2013 <main+0x1caa>
    5c26: a5 10        	lda	$10                     ; 0x2010 <main+0x1ca7>
    5c28: a6 11        	ldx	$11                     ; 0x2011 <main+0x1ca8>
    5c2a: 18           	clc
    5c2b: 69 02        	adc	#$2
    5c2d: 85 14        	sta	$14                     ; 0x2014 <main+0x1cab>
    5c2f: 8a           	txa
    5c30: 69 00        	adc	#$0
    5c32: 85 15        	sta	$15                     ; 0x2015 <main+0x1cac>
    5c34: a5 12        	lda	$12                     ; 0x2012 <main+0x1ca9>
    5c36: a0 02        	ldy	#$2
    5c38: 91 10        	sta	($10),y                 ; 0x2010 <main+0x1ca7>
    5c3a: a5 13        	lda	$13                     ; 0x2013 <main+0x1caa>
    5c3c: 88           	dey
    5c3d: 91 14        	sta	($14),y                 ; 0x2014 <main+0x1cab>
    5c3f: a5 74        	lda	$74                     ; 0x2074 <main+0x1d0b>
    5c41: 92 10        	sta	($10)                   ; 0x2010 <main+0x1ca7>
    5c43: a5 75        	lda	$75                     ; 0x2075 <main+0x1d0c>
    5c45: 91 10        	sta	($10),y                 ; 0x2010 <main+0x1ca7>
    5c47: a2 04        	ldx	#$4
    5c49: 86 12        	stx	$12                     ; 0x2012 <main+0x1ca9>
    5c4b: a2 7d        	ldx	#$7d
    5c4d: 86 13        	stx	$13                     ; 0x2013 <main+0x1caa>
    5c4f: 20 ab 79     	jsr	$79ab <printf>
    5c52: a6 6e        	ldx	$6e                     ; 0x206e <main+0x1d05>
    5c54: 86 12        	stx	$12                     ; 0x2012 <main+0x1ca9>
    5c56: a6 6d        	ldx	$6d                     ; 0x206d <main+0x1d04>
    5c58: 86 13        	stx	$13                     ; 0x2013 <main+0x1caa>
    5c5a: e6 12        	inc	$12                     ; 0x2012 <main+0x1ca9>
    5c5c: d0 02        	bne	$5c60 <displayFileList+0x267>
    5c5e: e6 13        	inc	$13                     ; 0x2013 <main+0x1caa>
    5c60: e6 70        	inc	$70                     ; 0x2070 <main+0x1d07>
    5c62: d0 02        	bne	$5c66 <displayFileList+0x26d>
    5c64: e6 71        	inc	$71                     ; 0x2071 <main+0x1d08>
    5c66: 18           	clc
    5c67: a5 74        	lda	$74                     ; 0x2074 <main+0x1d0b>
    5c69: 69 2c        	adc	#$2c
    5c6b: 85 74        	sta	$74                     ; 0x2074 <main+0x1d0b>
    5c6d: a5 75        	lda	$75                     ; 0x2075 <main+0x1d0c>
    5c6f: 69 00        	adc	#$0
    5c71: 85 75        	sta	$75                     ; 0x2075 <main+0x1d0c>
    5c73: a5 6f        	lda	$6f                     ; 0x206f <main+0x1d06>
    5c75: 1a           	inc
    5c76: a4 12        	ldy	$12                     ; 0x2012 <main+0x1ca9>
    5c78: a6 13        	ldx	$13                     ; 0x2013 <main+0x1caa>
    5c7a: 86 6d        	stx	$6d                     ; 0x206d <main+0x1d04>
    5c7c: a6 77        	ldx	$77                     ; 0x2077 <main+0x1d0e>
    5c7e: e4 13        	cpx	$13                     ; 0x2013 <main+0x1caa>
    5c80: f0 03        	beq	$5c85 <displayFileList+0x28c>
    5c82: 4c c9 5b     	jmp	$5bc9 <displayFileList+0x1d0>
    5c85: a4 12        	ldy	$12                     ; 0x2012 <main+0x1ca9>
    5c87: a6 13        	ldx	$13                     ; 0x2013 <main+0x1caa>
    5c89: 86 6d        	stx	$6d                     ; 0x206d <main+0x1d04>
    5c8b: a6 76        	ldx	$76                     ; 0x2076 <main+0x1d0d>
    5c8d: e4 12        	cpx	$12                     ; 0x2012 <main+0x1ca9>
    5c8f: f0 03        	beq	$5c94 <displayFileList+0x29b>
    5c91: 4c c9 5b     	jmp	$5bc9 <displayFileList+0x1d0>
    5c94: a5 7c        	lda	$7c                     ; 0x207c <main+0x1d13>
    5c96: 49 ff        	eor	#$ff
    5c98: 85 12        	sta	$12                     ; 0x2012 <main+0x1ca9>
    5c9a: a9 02        	lda	#$2
    5c9c: 18           	clc
    5c9d: 72 6b        	adc	($6b)                   ; 0x206b <main+0x1d02>
    5c9f: aa           	tax
    5ca0: a0 01        	ldy	#$1
    5ca2: 18           	clc
    5ca3: a5 76        	lda	$76                     ; 0x2076 <main+0x1d0d>
    5ca5: 65 12        	adc	$12                     ; 0x2012 <main+0x1ca9>
    5ca7: 18           	clc
    5ca8: 71 6b        	adc	($6b),y                 ; 0x206b <main+0x1d02>
    5caa: 1a           	inc
    5cab: 86 44        	stx	$44                     ; 0x2044 <main+0x1cdb>
    5cad: 8e 14 d0     	stx	$d014                   ; 0xd014 <__heap_start+0x3d44>
    5cb0: 9c 15 d0     	stz	$d015                   ; 0xd015 <__heap_start+0x3d45>
    5cb3: 85 45        	sta	$45                     ; 0x2045 <main+0x1cdc>
    5cb5: 8d 16 d0     	sta	$d016                   ; 0xd016 <__heap_start+0x3d46>
    5cb8: 9c 17 d0     	stz	$d017                   ; 0xd017 <__heap_start+0x3d47>
    5cbb: a5 6b        	lda	$6b                     ; 0x206b <main+0x1d02>
    5cbd: 18           	clc
    5cbe: 69 e4        	adc	#$e4
    5cc0: 85 12        	sta	$12                     ; 0x2012 <main+0x1ca9>
    5cc2: a5 6c        	lda	$6c                     ; 0x206c <main+0x1d03>
    5cc4: 69 11        	adc	#$11
    5cc6: 85 13        	sta	$13                     ; 0x2013 <main+0x1caa>
    5cc8: b2 12        	lda	($12)                   ; 0x2012 <main+0x1ca9>
    5cca: aa           	tax
    5ccb: b1 12        	lda	($12),y                 ; 0x2012 <main+0x1ca9>
    5ccd: 86 12        	stx	$12                     ; 0x2012 <main+0x1ca9>
    5ccf: e0 0b        	cpx	#$b
    5cd1: aa           	tax
    5cd2: e9 00        	sbc	#$0
    5cd4: 50 02        	bvc	$5cd8 <displayFileList+0x2df>
    5cd6: 49 80        	eor	#$80
    5cd8: a0 fb        	ldy	#$fb
    5cda: 84 76        	sty	$76                     ; 0x2076 <main+0x1d0d>
    5cdc: 64 14        	stz	$14                     ; 0x2014 <main+0x1cab>
    5cde: a8           	tay
    5cdf: 10 04        	bpl	$5ce5 <displayFileList+0x2ec>
    5ce1: a0 20        	ldy	#$20
    5ce3: 84 76        	sty	$76                     ; 0x2076 <main+0x1d0d>
    5ce5: a0 01        	ldy	#$1
    5ce7: 18           	clc
    5ce8: a5 12        	lda	$12                     ; 0x2012 <main+0x1ca9>
    5cea: 69 0c        	adc	#$c
    5cec: 85 15        	sta	$15                     ; 0x2015 <main+0x1cac>
    5cee: 8a           	txa
    5cef: 69 00        	adc	#$0
    5cf1: 85 16        	sta	$16                     ; 0x2016 <main+0x1cad>
    5cf3: 38           	sec
    5cf4: a6 7a        	ldx	$7a                     ; 0x207a <main+0x1d11>
    5cf6: 86 12        	stx	$12                     ; 0x2012 <main+0x1ca9>
    5cf8: a6 7b        	ldx	$7b                     ; 0x207b <main+0x1d12>
    5cfa: 86 13        	stx	$13                     ; 0x2013 <main+0x1caa>
    5cfc: a5 15        	lda	$15                     ; 0x2015 <main+0x1cac>
    5cfe: f2 12        	sbc	($12)                   ; 0x2012 <main+0x1ca9>
    5d00: 85 15        	sta	$15                     ; 0x2015 <main+0x1cac>
    5d02: a5 16        	lda	$16                     ; 0x2016 <main+0x1cad>
    5d04: f1 12        	sbc	($12),y                 ; 0x2012 <main+0x1ca9>
    5d06: 85 16        	sta	$16                     ; 0x2016 <main+0x1cad>
    5d08: a6 78        	ldx	$78                     ; 0x2078 <main+0x1d0f>
    5d0a: 86 12        	stx	$12                     ; 0x2012 <main+0x1ca9>
    5d0c: a6 79        	ldx	$79                     ; 0x2079 <main+0x1d10>
    5d0e: 86 13        	stx	$13                     ; 0x2013 <main+0x1caa>
    5d10: a5 15        	lda	$15                     ; 0x2015 <main+0x1cac>
    5d12: d2 12        	cmp	($12)                   ; 0x2012 <main+0x1ca9>
    5d14: a5 16        	lda	$16                     ; 0x2016 <main+0x1cad>
    5d16: f1 12        	sbc	($12),y                 ; 0x2012 <main+0x1ca9>
    5d18: 50 02        	bvc	$5d1c <displayFileList+0x323>
    5d1a: 49 80        	eor	#$80
    5d1c: 64 12        	stz	$12                     ; 0x2012 <main+0x1ca9>
    5d1e: aa           	tax
    5d1f: 10 04        	bpl	$5d25 <displayFileList+0x32c>
    5d21: a2 f8        	ldx	#$f8
    5d23: 80 02        	bra	$5d27 <displayFileList+0x32e>
    5d25: a2 20        	ldx	#$20
    5d27: a5 76        	lda	$76                     ; 0x2076 <main+0x1d0d>
    5d29: 92 10        	sta	($10)                   ; 0x2010 <main+0x1ca7>
    5d2b: a9 00        	lda	#$0
    5d2d: 91 10        	sta	($10),y                 ; 0x2010 <main+0x1ca7>
    5d2f: a0 02        	ldy	#$2
    5d31: 8a           	txa
    5d32: 91 10        	sta	($10),y                 ; 0x2010 <main+0x1ca7>
    5d34: c8           	iny
    5d35: a9 00        	lda	#$0
    5d37: 91 10        	sta	($10),y                 ; 0x2010 <main+0x1ca7>
    5d39: a2 df        	ldx	#$df
    5d3b: 86 12        	stx	$12                     ; 0x2012 <main+0x1ca9>
    5d3d: a2 7e        	ldx	#$7e
    5d3f: 86 13        	stx	$13                     ; 0x2013 <main+0x1caa>
    5d41: 20 ab 79     	jsr	$79ab <printf>
    5d44: 18           	clc
    5d45: a5 10        	lda	$10                     ; 0x2010 <main+0x1ca7>
    5d47: 69 06        	adc	#$6
    5d49: 85 10        	sta	$10                     ; 0x2010 <main+0x1ca7>
    5d4b: a5 11        	lda	$11                     ; 0x2011 <main+0x1ca8>
    5d4d: 69 00        	adc	#$0
    5d4f: 85 11        	sta	$11                     ; 0x2011 <main+0x1ca8>
    5d51: 60           	rts
    5d52: a0 fa        	ldy	#$fa
    5d54: 4c e1 5a     	jmp	$5ae1 <displayFileList+0xe8>

00005d57 <wipeArea>:
    5d57: a6 12        	ldx	$12                     ; 0x2012 <main+0x1ca9>
    5d59: 86 7d        	stx	$7d                     ; 0x207d <main+0x1d14>
    5d5b: a6 13        	ldx	$13                     ; 0x2013 <main+0x1caa>
    5d5d: 86 7e        	stx	$7e                     ; 0x207e <main+0x1d15>
    5d5f: a0 01        	ldy	#$1
    5d61: b1 12        	lda	($12),y                 ; 0x2012 <main+0x1ca9>
    5d63: 1a           	inc
    5d64: a2 20        	ldx	#$20
    5d66: 86 5a        	stx	$5a                     ; 0x205a <main+0x1cf1>
    5d68: a2 5a        	ldx	#$5a
    5d6a: 86 12        	stx	$12                     ; 0x2012 <main+0x1ca9>
    5d6c: a2 00        	ldx	#$0
    5d6e: 86 13        	stx	$13                     ; 0x2013 <main+0x1caa>
    5d70: 85 7f        	sta	$7f                     ; 0x207f <main+0x1d16>
    5d72: 20 4d 49     	jsr	$494d <textPrint>
    5d75: a0 01        	ldy	#$1
    5d77: b1 7d        	lda	($7d),y                 ; 0x207d <main+0x1d14>
    5d79: 18           	clc
    5d7a: 69 2c        	adc	#$2c
    5d7c: a8           	tay
    5d7d: a9 00        	lda	#$0
    5d7f: 69 00        	adc	#$0
    5d81: 85 12        	sta	$12                     ; 0x2012 <main+0x1ca9>
    5d83: a2 00        	ldx	#$0
    5d85: e4 12        	cpx	$12                     ; 0x2012 <main+0x1ca9>
    5d87: d0 0a        	bne	$5d93 <wipeArea+0x3c>
    5d89: 84 12        	sty	$12                     ; 0x2012 <main+0x1ca9>
    5d8b: a5 7f        	lda	$7f                     ; 0x207f <main+0x1d16>
    5d8d: c5 12        	cmp	$12                     ; 0x2012 <main+0x1ca9>
    5d8f: b0 08        	bcs	$5d99 <wipeArea+0x42>
    5d91: 80 d0        	bra	$5d63 <wipeArea+0xc>
    5d93: e4 12        	cpx	$12                     ; 0x2012 <main+0x1ca9>
    5d95: a5 7f        	lda	$7f                     ; 0x207f <main+0x1d16>
    5d97: 90 ca        	bcc	$5d63 <wipeArea+0xc>
    5d99: a2 0a        	ldx	#$a
    5d9b: 86 5a        	stx	$5a                     ; 0x205a <main+0x1cf1>
    5d9d: a2 5a        	ldx	#$5a
    5d9f: 86 12        	stx	$12                     ; 0x2012 <main+0x1ca9>
    5da1: a2 00        	ldx	#$0
    5da3: 86 13        	stx	$13                     ; 0x2013 <main+0x1caa>
    5da5: 20 4d 49     	jsr	$494d <textPrint>
    5da8: a0 01        	ldy	#$1
    5daa: b1 7d        	lda	($7d),y                 ; 0x207d <main+0x1d14>
    5dac: 1a           	inc
    5dad: a2 20        	ldx	#$20
    5daf: 86 5a        	stx	$5a                     ; 0x205a <main+0x1cf1>
    5db1: a2 5a        	ldx	#$5a
    5db3: 86 12        	stx	$12                     ; 0x2012 <main+0x1ca9>
    5db5: a2 00        	ldx	#$0
    5db7: 86 13        	stx	$13                     ; 0x2013 <main+0x1caa>
    5db9: 85 7f        	sta	$7f                     ; 0x207f <main+0x1d16>
    5dbb: 20 4d 49     	jsr	$494d <textPrint>
    5dbe: a0 01        	ldy	#$1
    5dc0: b1 7d        	lda	($7d),y                 ; 0x207d <main+0x1d14>
    5dc2: 18           	clc
    5dc3: 69 2c        	adc	#$2c
    5dc5: a8           	tay
    5dc6: a9 00        	lda	#$0
    5dc8: 69 00        	adc	#$0
    5dca: 85 12        	sta	$12                     ; 0x2012 <main+0x1ca9>
    5dcc: a2 00        	ldx	#$0
    5dce: e4 12        	cpx	$12                     ; 0x2012 <main+0x1ca9>
    5dd0: d0 0a        	bne	$5ddc <wipeArea+0x85>
    5dd2: 84 12        	sty	$12                     ; 0x2012 <main+0x1ca9>
    5dd4: a5 7f        	lda	$7f                     ; 0x207f <main+0x1d16>
    5dd6: c5 12        	cmp	$12                     ; 0x2012 <main+0x1ca9>
    5dd8: 90 d2        	bcc	$5dac <wipeArea+0x55>
    5dda: 80 06        	bra	$5de2 <wipeArea+0x8b>
    5ddc: e4 12        	cpx	$12                     ; 0x2012 <main+0x1ca9>
    5dde: a5 7f        	lda	$7f                     ; 0x207f <main+0x1d16>
    5de0: 90 ca        	bcc	$5dac <wipeArea+0x55>
    5de2: a2 0a        	ldx	#$a
    5de4: 86 5a        	stx	$5a                     ; 0x205a <main+0x1cf1>
    5de6: a2 5a        	ldx	#$5a
    5de8: 86 12        	stx	$12                     ; 0x2012 <main+0x1ca9>
    5dea: a2 00        	ldx	#$0
    5dec: 86 13        	stx	$13                     ; 0x2013 <main+0x1caa>
    5dee: 20 4d 49     	jsr	$494d <textPrint>
    5df1: a0 01        	ldy	#$1
    5df3: b1 7d        	lda	($7d),y                 ; 0x207d <main+0x1d14>
    5df5: 1a           	inc
    5df6: a2 20        	ldx	#$20
    5df8: 86 5a        	stx	$5a                     ; 0x205a <main+0x1cf1>
    5dfa: a2 5a        	ldx	#$5a
    5dfc: 86 12        	stx	$12                     ; 0x2012 <main+0x1ca9>
    5dfe: a2 00        	ldx	#$0
    5e00: 86 13        	stx	$13                     ; 0x2013 <main+0x1caa>
    5e02: 85 7f        	sta	$7f                     ; 0x207f <main+0x1d16>
    5e04: 20 4d 49     	jsr	$494d <textPrint>
    5e07: a0 01        	ldy	#$1
    5e09: b1 7d        	lda	($7d),y                 ; 0x207d <main+0x1d14>
    5e0b: 18           	clc
    5e0c: 69 2c        	adc	#$2c
    5e0e: a8           	tay
    5e0f: a9 00        	lda	#$0
    5e11: 69 00        	adc	#$0
    5e13: 85 12        	sta	$12                     ; 0x2012 <main+0x1ca9>
    5e15: a2 00        	ldx	#$0
    5e17: e4 12        	cpx	$12                     ; 0x2012 <main+0x1ca9>
    5e19: d0 0a        	bne	$5e25 <wipeArea+0xce>
    5e1b: 84 12        	sty	$12                     ; 0x2012 <main+0x1ca9>
    5e1d: a5 7f        	lda	$7f                     ; 0x207f <main+0x1d16>
    5e1f: c5 12        	cmp	$12                     ; 0x2012 <main+0x1ca9>
    5e21: 90 d2        	bcc	$5df5 <wipeArea+0x9e>
    5e23: 80 06        	bra	$5e2b <wipeArea+0xd4>
    5e25: e4 12        	cpx	$12                     ; 0x2012 <main+0x1ca9>
    5e27: a5 7f        	lda	$7f                     ; 0x207f <main+0x1d16>
    5e29: 90 ca        	bcc	$5df5 <wipeArea+0x9e>
    5e2b: a2 0a        	ldx	#$a
    5e2d: 86 5a        	stx	$5a                     ; 0x205a <main+0x1cf1>
    5e2f: a2 5a        	ldx	#$5a
    5e31: 86 12        	stx	$12                     ; 0x2012 <main+0x1ca9>
    5e33: a2 00        	ldx	#$0
    5e35: 86 13        	stx	$13                     ; 0x2013 <main+0x1caa>
    5e37: 20 4d 49     	jsr	$494d <textPrint>
    5e3a: a0 01        	ldy	#$1
    5e3c: b1 7d        	lda	($7d),y                 ; 0x207d <main+0x1d14>
    5e3e: 1a           	inc
    5e3f: a2 20        	ldx	#$20
    5e41: 86 5a        	stx	$5a                     ; 0x205a <main+0x1cf1>
    5e43: a2 5a        	ldx	#$5a
    5e45: 86 12        	stx	$12                     ; 0x2012 <main+0x1ca9>
    5e47: a2 00        	ldx	#$0
    5e49: 86 13        	stx	$13                     ; 0x2013 <main+0x1caa>
    5e4b: 85 7f        	sta	$7f                     ; 0x207f <main+0x1d16>
    5e4d: 20 4d 49     	jsr	$494d <textPrint>
    5e50: a0 01        	ldy	#$1
    5e52: b1 7d        	lda	($7d),y                 ; 0x207d <main+0x1d14>
    5e54: 18           	clc
    5e55: 69 2c        	adc	#$2c
    5e57: a8           	tay
    5e58: a9 00        	lda	#$0
    5e5a: 69 00        	adc	#$0
    5e5c: 85 12        	sta	$12                     ; 0x2012 <main+0x1ca9>
    5e5e: a2 00        	ldx	#$0
    5e60: e4 12        	cpx	$12                     ; 0x2012 <main+0x1ca9>
    5e62: d0 0a        	bne	$5e6e <wipeArea+0x117>
    5e64: 84 12        	sty	$12                     ; 0x2012 <main+0x1ca9>
    5e66: a5 7f        	lda	$7f                     ; 0x207f <main+0x1d16>
    5e68: c5 12        	cmp	$12                     ; 0x2012 <main+0x1ca9>
    5e6a: 90 d2        	bcc	$5e3e <wipeArea+0xe7>
    5e6c: 80 06        	bra	$5e74 <wipeArea+0x11d>
    5e6e: e4 12        	cpx	$12                     ; 0x2012 <main+0x1ca9>
    5e70: a5 7f        	lda	$7f                     ; 0x207f <main+0x1d16>
    5e72: 90 ca        	bcc	$5e3e <wipeArea+0xe7>
    5e74: a2 0a        	ldx	#$a
    5e76: 86 5a        	stx	$5a                     ; 0x205a <main+0x1cf1>
    5e78: a2 5a        	ldx	#$5a
    5e7a: 86 12        	stx	$12                     ; 0x2012 <main+0x1ca9>
    5e7c: a2 00        	ldx	#$0
    5e7e: 86 13        	stx	$13                     ; 0x2013 <main+0x1caa>
    5e80: 20 4d 49     	jsr	$494d <textPrint>
    5e83: a0 01        	ldy	#$1
    5e85: b1 7d        	lda	($7d),y                 ; 0x207d <main+0x1d14>
    5e87: 1a           	inc
    5e88: a2 20        	ldx	#$20
    5e8a: 86 5a        	stx	$5a                     ; 0x205a <main+0x1cf1>
    5e8c: a2 5a        	ldx	#$5a
    5e8e: 86 12        	stx	$12                     ; 0x2012 <main+0x1ca9>
    5e90: a2 00        	ldx	#$0
    5e92: 86 13        	stx	$13                     ; 0x2013 <main+0x1caa>
    5e94: 85 7f        	sta	$7f                     ; 0x207f <main+0x1d16>
    5e96: 20 4d 49     	jsr	$494d <textPrint>
    5e99: a0 01        	ldy	#$1
    5e9b: b1 7d        	lda	($7d),y                 ; 0x207d <main+0x1d14>
    5e9d: 18           	clc
    5e9e: 69 2c        	adc	#$2c
    5ea0: a8           	tay
    5ea1: a9 00        	lda	#$0
    5ea3: 69 00        	adc	#$0
    5ea5: 85 12        	sta	$12                     ; 0x2012 <main+0x1ca9>
    5ea7: a2 00        	ldx	#$0
    5ea9: e4 12        	cpx	$12                     ; 0x2012 <main+0x1ca9>
    5eab: d0 0a        	bne	$5eb7 <wipeArea+0x160>
    5ead: 84 12        	sty	$12                     ; 0x2012 <main+0x1ca9>
    5eaf: a5 7f        	lda	$7f                     ; 0x207f <main+0x1d16>
    5eb1: c5 12        	cmp	$12                     ; 0x2012 <main+0x1ca9>
    5eb3: 90 d2        	bcc	$5e87 <wipeArea+0x130>
    5eb5: 80 06        	bra	$5ebd <wipeArea+0x166>
    5eb7: e4 12        	cpx	$12                     ; 0x2012 <main+0x1ca9>
    5eb9: a5 7f        	lda	$7f                     ; 0x207f <main+0x1d16>
    5ebb: 90 ca        	bcc	$5e87 <wipeArea+0x130>
    5ebd: a2 0a        	ldx	#$a
    5ebf: 86 5a        	stx	$5a                     ; 0x205a <main+0x1cf1>
    5ec1: a2 5a        	ldx	#$5a
    5ec3: 86 12        	stx	$12                     ; 0x2012 <main+0x1ca9>
    5ec5: a2 00        	ldx	#$0
    5ec7: 86 13        	stx	$13                     ; 0x2013 <main+0x1caa>
    5ec9: 20 4d 49     	jsr	$494d <textPrint>
    5ecc: a0 01        	ldy	#$1
    5ece: b1 7d        	lda	($7d),y                 ; 0x207d <main+0x1d14>
    5ed0: 1a           	inc
    5ed1: a2 20        	ldx	#$20
    5ed3: 86 5a        	stx	$5a                     ; 0x205a <main+0x1cf1>
    5ed5: a2 5a        	ldx	#$5a
    5ed7: 86 12        	stx	$12                     ; 0x2012 <main+0x1ca9>
    5ed9: a2 00        	ldx	#$0
    5edb: 86 13        	stx	$13                     ; 0x2013 <main+0x1caa>
    5edd: 85 7f        	sta	$7f                     ; 0x207f <main+0x1d16>
    5edf: 20 4d 49     	jsr	$494d <textPrint>
    5ee2: a0 01        	ldy	#$1
    5ee4: b1 7d        	lda	($7d),y                 ; 0x207d <main+0x1d14>
    5ee6: 18           	clc
    5ee7: 69 2c        	adc	#$2c
    5ee9: a8           	tay
    5eea: a9 00        	lda	#$0
    5eec: 69 00        	adc	#$0
    5eee: 85 12        	sta	$12                     ; 0x2012 <main+0x1ca9>
    5ef0: a2 00        	ldx	#$0
    5ef2: e4 12        	cpx	$12                     ; 0x2012 <main+0x1ca9>
    5ef4: d0 0a        	bne	$5f00 <wipeArea+0x1a9>
    5ef6: 84 12        	sty	$12                     ; 0x2012 <main+0x1ca9>
    5ef8: a5 7f        	lda	$7f                     ; 0x207f <main+0x1d16>
    5efa: c5 12        	cmp	$12                     ; 0x2012 <main+0x1ca9>
    5efc: 90 d2        	bcc	$5ed0 <wipeArea+0x179>
    5efe: 80 06        	bra	$5f06 <wipeArea+0x1af>
    5f00: e4 12        	cpx	$12                     ; 0x2012 <main+0x1ca9>
    5f02: a5 7f        	lda	$7f                     ; 0x207f <main+0x1d16>
    5f04: 90 ca        	bcc	$5ed0 <wipeArea+0x179>
    5f06: a2 0a        	ldx	#$a
    5f08: 86 5a        	stx	$5a                     ; 0x205a <main+0x1cf1>
    5f0a: a2 5a        	ldx	#$5a
    5f0c: 86 12        	stx	$12                     ; 0x2012 <main+0x1ca9>
    5f0e: a2 00        	ldx	#$0
    5f10: 86 13        	stx	$13                     ; 0x2013 <main+0x1caa>
    5f12: 20 4d 49     	jsr	$494d <textPrint>
    5f15: a0 01        	ldy	#$1
    5f17: b1 7d        	lda	($7d),y                 ; 0x207d <main+0x1d14>
    5f19: 1a           	inc
    5f1a: a2 20        	ldx	#$20
    5f1c: 86 5a        	stx	$5a                     ; 0x205a <main+0x1cf1>
    5f1e: a2 5a        	ldx	#$5a
    5f20: 86 12        	stx	$12                     ; 0x2012 <main+0x1ca9>
    5f22: a2 00        	ldx	#$0
    5f24: 86 13        	stx	$13                     ; 0x2013 <main+0x1caa>
    5f26: 85 7f        	sta	$7f                     ; 0x207f <main+0x1d16>
    5f28: 20 4d 49     	jsr	$494d <textPrint>
    5f2b: a0 01        	ldy	#$1
    5f2d: b1 7d        	lda	($7d),y                 ; 0x207d <main+0x1d14>
    5f2f: 18           	clc
    5f30: 69 2c        	adc	#$2c
    5f32: a8           	tay
    5f33: a9 00        	lda	#$0
    5f35: 69 00        	adc	#$0
    5f37: 85 12        	sta	$12                     ; 0x2012 <main+0x1ca9>
    5f39: a2 00        	ldx	#$0
    5f3b: e4 12        	cpx	$12                     ; 0x2012 <main+0x1ca9>
    5f3d: d0 0a        	bne	$5f49 <wipeArea+0x1f2>
    5f3f: 84 12        	sty	$12                     ; 0x2012 <main+0x1ca9>
    5f41: a5 7f        	lda	$7f                     ; 0x207f <main+0x1d16>
    5f43: c5 12        	cmp	$12                     ; 0x2012 <main+0x1ca9>
    5f45: 90 d2        	bcc	$5f19 <wipeArea+0x1c2>
    5f47: 80 06        	bra	$5f4f <wipeArea+0x1f8>
    5f49: e4 12        	cpx	$12                     ; 0x2012 <main+0x1ca9>
    5f4b: a5 7f        	lda	$7f                     ; 0x207f <main+0x1d16>
    5f4d: 90 ca        	bcc	$5f19 <wipeArea+0x1c2>
    5f4f: a2 0a        	ldx	#$a
    5f51: 86 5a        	stx	$5a                     ; 0x205a <main+0x1cf1>
    5f53: a2 5a        	ldx	#$5a
    5f55: 86 12        	stx	$12                     ; 0x2012 <main+0x1ca9>
    5f57: a2 00        	ldx	#$0
    5f59: 86 13        	stx	$13                     ; 0x2013 <main+0x1caa>
    5f5b: 20 4d 49     	jsr	$494d <textPrint>
    5f5e: a0 01        	ldy	#$1
    5f60: b1 7d        	lda	($7d),y                 ; 0x207d <main+0x1d14>
    5f62: 1a           	inc
    5f63: a2 20        	ldx	#$20
    5f65: 86 5a        	stx	$5a                     ; 0x205a <main+0x1cf1>
    5f67: a2 5a        	ldx	#$5a
    5f69: 86 12        	stx	$12                     ; 0x2012 <main+0x1ca9>
    5f6b: a2 00        	ldx	#$0
    5f6d: 86 13        	stx	$13                     ; 0x2013 <main+0x1caa>
    5f6f: 85 7f        	sta	$7f                     ; 0x207f <main+0x1d16>
    5f71: 20 4d 49     	jsr	$494d <textPrint>
    5f74: a0 01        	ldy	#$1
    5f76: b1 7d        	lda	($7d),y                 ; 0x207d <main+0x1d14>
    5f78: 18           	clc
    5f79: 69 2c        	adc	#$2c
    5f7b: a8           	tay
    5f7c: a9 00        	lda	#$0
    5f7e: 69 00        	adc	#$0
    5f80: 85 12        	sta	$12                     ; 0x2012 <main+0x1ca9>
    5f82: a2 00        	ldx	#$0
    5f84: e4 12        	cpx	$12                     ; 0x2012 <main+0x1ca9>
    5f86: d0 0a        	bne	$5f92 <wipeArea+0x23b>
    5f88: 84 12        	sty	$12                     ; 0x2012 <main+0x1ca9>
    5f8a: a5 7f        	lda	$7f                     ; 0x207f <main+0x1d16>
    5f8c: c5 12        	cmp	$12                     ; 0x2012 <main+0x1ca9>
    5f8e: 90 d2        	bcc	$5f62 <wipeArea+0x20b>
    5f90: 80 06        	bra	$5f98 <wipeArea+0x241>
    5f92: e4 12        	cpx	$12                     ; 0x2012 <main+0x1ca9>
    5f94: a5 7f        	lda	$7f                     ; 0x207f <main+0x1d16>
    5f96: 90 ca        	bcc	$5f62 <wipeArea+0x20b>
    5f98: a2 0a        	ldx	#$a
    5f9a: 86 5a        	stx	$5a                     ; 0x205a <main+0x1cf1>
    5f9c: a2 5a        	ldx	#$5a
    5f9e: 86 12        	stx	$12                     ; 0x2012 <main+0x1ca9>
    5fa0: a2 00        	ldx	#$0
    5fa2: 86 13        	stx	$13                     ; 0x2013 <main+0x1caa>
    5fa4: 20 4d 49     	jsr	$494d <textPrint>
    5fa7: a0 01        	ldy	#$1
    5fa9: b1 7d        	lda	($7d),y                 ; 0x207d <main+0x1d14>
    5fab: 1a           	inc
    5fac: a2 20        	ldx	#$20
    5fae: 86 5a        	stx	$5a                     ; 0x205a <main+0x1cf1>
    5fb0: a2 5a        	ldx	#$5a
    5fb2: 86 12        	stx	$12                     ; 0x2012 <main+0x1ca9>
    5fb4: a2 00        	ldx	#$0
    5fb6: 86 13        	stx	$13                     ; 0x2013 <main+0x1caa>
    5fb8: 85 7f        	sta	$7f                     ; 0x207f <main+0x1d16>
    5fba: 20 4d 49     	jsr	$494d <textPrint>
    5fbd: a0 01        	ldy	#$1
    5fbf: b1 7d        	lda	($7d),y                 ; 0x207d <main+0x1d14>
    5fc1: 18           	clc
    5fc2: 69 2c        	adc	#$2c
    5fc4: a8           	tay
    5fc5: a9 00        	lda	#$0
    5fc7: 69 00        	adc	#$0
    5fc9: 85 12        	sta	$12                     ; 0x2012 <main+0x1ca9>
    5fcb: a2 00        	ldx	#$0
    5fcd: e4 12        	cpx	$12                     ; 0x2012 <main+0x1ca9>
    5fcf: d0 0a        	bne	$5fdb <wipeArea+0x284>
    5fd1: 84 12        	sty	$12                     ; 0x2012 <main+0x1ca9>
    5fd3: a5 7f        	lda	$7f                     ; 0x207f <main+0x1d16>
    5fd5: c5 12        	cmp	$12                     ; 0x2012 <main+0x1ca9>
    5fd7: 90 d2        	bcc	$5fab <wipeArea+0x254>
    5fd9: 80 06        	bra	$5fe1 <wipeArea+0x28a>
    5fdb: e4 12        	cpx	$12                     ; 0x2012 <main+0x1ca9>
    5fdd: a5 7f        	lda	$7f                     ; 0x207f <main+0x1d16>
    5fdf: 90 ca        	bcc	$5fab <wipeArea+0x254>
    5fe1: a2 0a        	ldx	#$a
    5fe3: 86 5a        	stx	$5a                     ; 0x205a <main+0x1cf1>
    5fe5: a2 5a        	ldx	#$5a
    5fe7: 86 12        	stx	$12                     ; 0x2012 <main+0x1ca9>
    5fe9: a2 00        	ldx	#$0
    5feb: 86 13        	stx	$13                     ; 0x2013 <main+0x1caa>
    5fed: 20 4d 49     	jsr	$494d <textPrint>
    5ff0: a0 01        	ldy	#$1
    5ff2: b1 7d        	lda	($7d),y                 ; 0x207d <main+0x1d14>
    5ff4: 1a           	inc
    5ff5: a2 20        	ldx	#$20
    5ff7: 86 5a        	stx	$5a                     ; 0x205a <main+0x1cf1>
    5ff9: a2 5a        	ldx	#$5a
    5ffb: 86 12        	stx	$12                     ; 0x2012 <main+0x1ca9>
    5ffd: a2 00        	ldx	#$0
    5fff: 86 13        	stx	$13                     ; 0x2013 <main+0x1caa>
    6001: 85 7f        	sta	$7f                     ; 0x207f <main+0x1d16>
    6003: 20 4d 49     	jsr	$494d <textPrint>
    6006: a0 01        	ldy	#$1
    6008: b1 7d        	lda	($7d),y                 ; 0x207d <main+0x1d14>
    600a: 18           	clc
    600b: 69 2c        	adc	#$2c
    600d: a8           	tay
    600e: a9 00        	lda	#$0
    6010: 69 00        	adc	#$0
    6012: 85 12        	sta	$12                     ; 0x2012 <main+0x1ca9>
    6014: a2 00        	ldx	#$0
    6016: e4 12        	cpx	$12                     ; 0x2012 <main+0x1ca9>
    6018: d0 0a        	bne	$6024 <wipeArea+0x2cd>
    601a: 84 12        	sty	$12                     ; 0x2012 <main+0x1ca9>
    601c: a5 7f        	lda	$7f                     ; 0x207f <main+0x1d16>
    601e: c5 12        	cmp	$12                     ; 0x2012 <main+0x1ca9>
    6020: 90 d2        	bcc	$5ff4 <wipeArea+0x29d>
    6022: 80 06        	bra	$602a <wipeArea+0x2d3>
    6024: e4 12        	cpx	$12                     ; 0x2012 <main+0x1ca9>
    6026: a5 7f        	lda	$7f                     ; 0x207f <main+0x1d16>
    6028: 90 ca        	bcc	$5ff4 <wipeArea+0x29d>
    602a: a2 0a        	ldx	#$a
    602c: 86 5a        	stx	$5a                     ; 0x205a <main+0x1cf1>
    602e: a2 5a        	ldx	#$5a
    6030: 86 12        	stx	$12                     ; 0x2012 <main+0x1ca9>
    6032: a2 00        	ldx	#$0
    6034: 86 13        	stx	$13                     ; 0x2013 <main+0x1caa>
    6036: 20 4d 49     	jsr	$494d <textPrint>
    6039: a0 01        	ldy	#$1
    603b: b1 7d        	lda	($7d),y                 ; 0x207d <main+0x1d14>
    603d: 1a           	inc
    603e: a2 20        	ldx	#$20
    6040: 86 5a        	stx	$5a                     ; 0x205a <main+0x1cf1>
    6042: a2 5a        	ldx	#$5a
    6044: 86 12        	stx	$12                     ; 0x2012 <main+0x1ca9>
    6046: a2 00        	ldx	#$0
    6048: 86 13        	stx	$13                     ; 0x2013 <main+0x1caa>
    604a: 85 7f        	sta	$7f                     ; 0x207f <main+0x1d16>
    604c: 20 4d 49     	jsr	$494d <textPrint>
    604f: a0 01        	ldy	#$1
    6051: b1 7d        	lda	($7d),y                 ; 0x207d <main+0x1d14>
    6053: 18           	clc
    6054: 69 2c        	adc	#$2c
    6056: a8           	tay
    6057: a9 00        	lda	#$0
    6059: 69 00        	adc	#$0
    605b: 85 12        	sta	$12                     ; 0x2012 <main+0x1ca9>
    605d: a2 00        	ldx	#$0
    605f: e4 12        	cpx	$12                     ; 0x2012 <main+0x1ca9>
    6061: d0 0a        	bne	$606d <wipeArea+0x316>
    6063: 84 12        	sty	$12                     ; 0x2012 <main+0x1ca9>
    6065: a5 7f        	lda	$7f                     ; 0x207f <main+0x1d16>
    6067: c5 12        	cmp	$12                     ; 0x2012 <main+0x1ca9>
    6069: 90 d2        	bcc	$603d <wipeArea+0x2e6>
    606b: 80 06        	bra	$6073 <wipeArea+0x31c>
    606d: e4 12        	cpx	$12                     ; 0x2012 <main+0x1ca9>
    606f: a5 7f        	lda	$7f                     ; 0x207f <main+0x1d16>
    6071: 90 ca        	bcc	$603d <wipeArea+0x2e6>
    6073: a2 0a        	ldx	#$a
    6075: 86 5a        	stx	$5a                     ; 0x205a <main+0x1cf1>
    6077: a2 5a        	ldx	#$5a
    6079: 86 12        	stx	$12                     ; 0x2012 <main+0x1ca9>
    607b: a2 00        	ldx	#$0
    607d: 86 13        	stx	$13                     ; 0x2013 <main+0x1caa>
    607f: 20 4d 49     	jsr	$494d <textPrint>
    6082: a0 01        	ldy	#$1
    6084: b1 7d        	lda	($7d),y                 ; 0x207d <main+0x1d14>
    6086: 1a           	inc
    6087: a2 20        	ldx	#$20
    6089: 86 5a        	stx	$5a                     ; 0x205a <main+0x1cf1>
    608b: a2 5a        	ldx	#$5a
    608d: 86 12        	stx	$12                     ; 0x2012 <main+0x1ca9>
    608f: a2 00        	ldx	#$0
    6091: 86 13        	stx	$13                     ; 0x2013 <main+0x1caa>
    6093: 85 7f        	sta	$7f                     ; 0x207f <main+0x1d16>
    6095: 20 4d 49     	jsr	$494d <textPrint>
    6098: a0 01        	ldy	#$1
    609a: b1 7d        	lda	($7d),y                 ; 0x207d <main+0x1d14>
    609c: 18           	clc
    609d: 69 2c        	adc	#$2c
    609f: a8           	tay
    60a0: a9 00        	lda	#$0
    60a2: 69 00        	adc	#$0
    60a4: 85 12        	sta	$12                     ; 0x2012 <main+0x1ca9>
    60a6: a2 00        	ldx	#$0
    60a8: e4 12        	cpx	$12                     ; 0x2012 <main+0x1ca9>
    60aa: d0 0a        	bne	$60b6 <wipeArea+0x35f>
    60ac: 84 12        	sty	$12                     ; 0x2012 <main+0x1ca9>
    60ae: a5 7f        	lda	$7f                     ; 0x207f <main+0x1d16>
    60b0: c5 12        	cmp	$12                     ; 0x2012 <main+0x1ca9>
    60b2: 90 d2        	bcc	$6086 <wipeArea+0x32f>
    60b4: 80 06        	bra	$60bc <wipeArea+0x365>
    60b6: e4 12        	cpx	$12                     ; 0x2012 <main+0x1ca9>
    60b8: a5 7f        	lda	$7f                     ; 0x207f <main+0x1d16>
    60ba: 90 ca        	bcc	$6086 <wipeArea+0x32f>
    60bc: a2 0a        	ldx	#$a
    60be: 86 5a        	stx	$5a                     ; 0x205a <main+0x1cf1>
    60c0: a2 5a        	ldx	#$5a
    60c2: 86 12        	stx	$12                     ; 0x2012 <main+0x1ca9>
    60c4: a2 00        	ldx	#$0
    60c6: 86 13        	stx	$13                     ; 0x2013 <main+0x1caa>
    60c8: 20 4d 49     	jsr	$494d <textPrint>
    60cb: a0 01        	ldy	#$1
    60cd: b1 7d        	lda	($7d),y                 ; 0x207d <main+0x1d14>
    60cf: 1a           	inc
    60d0: a2 20        	ldx	#$20
    60d2: 86 5a        	stx	$5a                     ; 0x205a <main+0x1cf1>
    60d4: a2 5a        	ldx	#$5a
    60d6: 86 12        	stx	$12                     ; 0x2012 <main+0x1ca9>
    60d8: a2 00        	ldx	#$0
    60da: 86 13        	stx	$13                     ; 0x2013 <main+0x1caa>
    60dc: 85 7f        	sta	$7f                     ; 0x207f <main+0x1d16>
    60de: 20 4d 49     	jsr	$494d <textPrint>
    60e1: a0 01        	ldy	#$1
    60e3: b1 7d        	lda	($7d),y                 ; 0x207d <main+0x1d14>
    60e5: 18           	clc
    60e6: 69 2c        	adc	#$2c
    60e8: a8           	tay
    60e9: a9 00        	lda	#$0
    60eb: 69 00        	adc	#$0
    60ed: 85 12        	sta	$12                     ; 0x2012 <main+0x1ca9>
    60ef: a2 00        	ldx	#$0
    60f1: e4 12        	cpx	$12                     ; 0x2012 <main+0x1ca9>
    60f3: d0 0a        	bne	$60ff <wipeArea+0x3a8>
    60f5: 84 12        	sty	$12                     ; 0x2012 <main+0x1ca9>
    60f7: a5 7f        	lda	$7f                     ; 0x207f <main+0x1d16>
    60f9: c5 12        	cmp	$12                     ; 0x2012 <main+0x1ca9>
    60fb: 90 d2        	bcc	$60cf <wipeArea+0x378>
    60fd: 80 06        	bra	$6105 <wipeArea+0x3ae>
    60ff: e4 12        	cpx	$12                     ; 0x2012 <main+0x1ca9>
    6101: a5 7f        	lda	$7f                     ; 0x207f <main+0x1d16>
    6103: 90 ca        	bcc	$60cf <wipeArea+0x378>
    6105: a2 0a        	ldx	#$a
    6107: 86 5a        	stx	$5a                     ; 0x205a <main+0x1cf1>
    6109: a2 5a        	ldx	#$5a
    610b: 86 12        	stx	$12                     ; 0x2012 <main+0x1ca9>
    610d: a2 00        	ldx	#$0
    610f: 86 13        	stx	$13                     ; 0x2013 <main+0x1caa>
    6111: 4c 4d 49     	jmp	$494d <textPrint>

00006114 <readDirectory>:
    6114: ac 9a 80     	ldy	$809a                   ; 0x809a <fpr+0x2>
    6117: 64 6b        	stz	$6b                     ; 0x206b <main+0x1d02>
    6119: a2 9a        	ldx	#$9a
    611b: 86 12        	stx	$12                     ; 0x2012 <main+0x1ca9>
    611d: a2 80        	ldx	#$80
    611f: 86 13        	stx	$13                     ; 0x2013 <main+0x1caa>
    6121: 98           	tya
    6122: d0 03        	bne	$6127 <readDirectory+0x13>
    6124: 4c 7f 61     	jmp	$617f <readDirectory+0x6b>
    6127: 84 16        	sty	$16                     ; 0x2016 <main+0x1cad>
    6129: a2 9c        	ldx	#$9c
    612b: 86 12        	stx	$12                     ; 0x2012 <main+0x1ca9>
    612d: a2 80        	ldx	#$80
    612f: 86 13        	stx	$13                     ; 0x2013 <main+0x1caa>
    6131: 64 14        	stz	$14                     ; 0x2014 <main+0x1cab>
    6133: 64 15        	stz	$15                     ; 0x2015 <main+0x1cac>
    6135: a4 15        	ldy	$15                     ; 0x2015 <main+0x1cac>
    6137: a6 14        	ldx	$14                     ; 0x2014 <main+0x1cab>
    6139: e8           	inx
    613a: d0 01        	bne	$613d <readDirectory+0x29>
    613c: c8           	iny
    613d: a9 9b        	lda	#$9b
    613f: 18           	clc
    6140: 65 14        	adc	$14                     ; 0x2014 <main+0x1cab>
    6142: 85 14        	sta	$14                     ; 0x2014 <main+0x1cab>
    6144: a9 80        	lda	#$80
    6146: 65 15        	adc	$15                     ; 0x2015 <main+0x1cac>
    6148: 85 15        	sta	$15                     ; 0x2015 <main+0x1cac>
    614a: b2 14        	lda	($14)                   ; 0x2014 <main+0x1cab>
    614c: 86 14        	stx	$14                     ; 0x2014 <main+0x1cab>
    614e: 84 15        	sty	$15                     ; 0x2015 <main+0x1cac>
    6150: d0 e3        	bne	$6135 <readDirectory+0x21>
    6152: 98           	tya
    6153: d0 06        	bne	$615b <readDirectory+0x47>
    6155: e0 02        	cpx	#$2
    6157: b0 06        	bcs	$615f <readDirectory+0x4b>
    6159: 80 1c        	bra	$6177 <readDirectory+0x63>
    615b: c0 00        	cpy	#$0
    615d: 90 18        	bcc	$6177 <readDirectory+0x63>
    615f: ae 9b 80     	ldx	$809b                   ; 0x809b <fpr+0x3>
    6162: e0 3a        	cpx	#$3a
    6164: d0 11        	bne	$6177 <readDirectory+0x63>
    6166: a5 16        	lda	$16                     ; 0x2016 <main+0x1cad>
    6168: c9 30        	cmp	#$30
    616a: 90 13        	bcc	$617f <readDirectory+0x6b>
    616c: c9 38        	cmp	#$38
    616e: b0 0f        	bcs	$617f <readDirectory+0x6b>
    6170: 18           	clc
    6171: 69 d0        	adc	#$d0
    6173: 85 6b        	sta	$6b                     ; 0x206b <main+0x1d02>
    6175: 80 08        	bra	$617f <readDirectory+0x6b>
    6177: a2 9a        	ldx	#$9a
    6179: 86 12        	stx	$12                     ; 0x2012 <main+0x1ca9>
    617b: a2 80        	ldx	#$80
    617d: 86 13        	stx	$13                     ; 0x2013 <main+0x1caa>
    617f: a6 6b        	ldx	$6b                     ; 0x206b <main+0x1d02>
    6181: b5 52        	lda	$52,x                   ; 0x2052 <main+0x1ce9>
    6183: aa           	tax
    6184: f0 03        	beq	$6189 <readDirectory+0x75>
    6186: 4c 51 66     	jmp	$6651 <readDirectory+0x53d>
    6189: a6 6b        	ldx	$6b                     ; 0x206b <main+0x1d02>
    618b: 86 f3        	stx	$f3                     ; 0x20f3 <main+0x1d8a>
    618d: a6 12        	ldx	$12                     ; 0x2012 <main+0x1ca9>
    618f: a4 13        	ldy	$13                     ; 0x2013 <main+0x1caa>
    6191: 86 fb        	stx	$fb                     ; 0x20fb <main+0x1d92>
    6193: 84 fc        	sty	$fc                     ; 0x20fc <main+0x1d93>
    6195: b2 12        	lda	($12)                   ; 0x2012 <main+0x1ca9>
    6197: f0 2b        	beq	$61c4 <readDirectory+0xb0>
    6199: a2 00        	ldx	#$0
    619b: a0 01        	ldy	#$1
    619d: 8a           	txa
    619e: 64 14        	stz	$14                     ; 0x2014 <main+0x1cab>
    61a0: 86 15        	stx	$15                     ; 0x2015 <main+0x1cac>
    61a2: e8           	inx
    61a3: d0 02        	bne	$61a7 <readDirectory+0x93>
    61a5: e6 14        	inc	$14                     ; 0x2014 <main+0x1cab>
    61a7: 18           	clc
    61a8: 85 17        	sta	$17                     ; 0x2017 <main+0x1cae>
    61aa: a5 15        	lda	$15                     ; 0x2015 <main+0x1cac>
    61ac: 65 12        	adc	$12                     ; 0x2012 <main+0x1ca9>
    61ae: 85 16        	sta	$16                     ; 0x2016 <main+0x1cad>
    61b0: a5 17        	lda	$17                     ; 0x2017 <main+0x1cae>
    61b2: 65 13        	adc	$13                     ; 0x2013 <main+0x1caa>
    61b4: 85 17        	sta	$17                     ; 0x2017 <main+0x1cae>
    61b6: b1 16        	lda	($16),y                 ; 0x2016 <main+0x1cad>
    61b8: 85 15        	sta	$15                     ; 0x2015 <main+0x1cac>
    61ba: a5 14        	lda	$14                     ; 0x2014 <main+0x1cab>
    61bc: e6 15        	inc	$15                     ; 0x2015 <main+0x1cac>
    61be: c6 15        	dec	$15                     ; 0x2015 <main+0x1cac>
    61c0: d0 de        	bne	$61a0 <readDirectory+0x8c>
    61c2: 80 02        	bra	$61c6 <readDirectory+0xb2>
    61c4: a2 00        	ldx	#$0
    61c6: 86 fd        	stx	$fd                     ; 0x20fd <main+0x1d94>
    61c8: a2 6e        	ldx	#$6e
    61ca: a0 00        	ldy	#$0
    61cc: 86 14        	stx	$14                     ; 0x2014 <main+0x1cab>
    61ce: 84 15        	sty	$15                     ; 0x2015 <main+0x1cac>
    61d0: a2 5e        	ldx	#$5e
    61d2: 86 12        	stx	$12                     ; 0x2012 <main+0x1ca9>
    61d4: a2 00        	ldx	#$0
    61d6: 86 13        	stx	$13                     ; 0x2013 <main+0x1caa>
    61d8: 20 78 ff     	jsr	$ff78 <__heap_start+0x6ca8>
    61db: 92 14        	sta	($14)                   ; 0x2014 <main+0x1cab>
    61dd: a9 00        	lda	#$0
    61df: 6a           	ror
    61e0: 85 12        	sta	$12                     ; 0x2012 <main+0x1ca9>
    61e2: a6 5e        	ldx	$5e                     ; 0x205e <main+0x1cf5>
    61e4: f0 03        	beq	$61e9 <readDirectory+0xd5>
    61e6: 4c 51 66     	jmp	$6651 <readDirectory+0x53d>
    61e9: a9 52        	lda	#$52
    61eb: 18           	clc
    61ec: 65 6b        	adc	$6b                     ; 0x206b <main+0x1d02>
    61ee: 85 14        	sta	$14                     ; 0x2014 <main+0x1cab>
    61f0: a9 00        	lda	#$0
    61f2: 69 00        	adc	#$0
    61f4: 85 15        	sta	$15                     ; 0x2015 <main+0x1cac>
    61f6: a6 6e        	ldx	$6e                     ; 0x206e <main+0x1d05>
    61f8: 86 18        	stx	$18                     ; 0x2018 <main+0x1caf>
    61fa: a2 6f        	ldx	#$6f
    61fc: a0 00        	ldy	#$0
    61fe: 86 16        	stx	$16                     ; 0x2016 <main+0x1cad>
    6200: 84 17        	sty	$17                     ; 0x2017 <main+0x1cae>
    6202: 64 5f        	stz	$5f                     ; 0x205f <main+0x1cf6>
    6204: 20 00 ff     	jsr	$ff00 <__heap_start+0x6c30>
    6207: 92 16        	sta	($16)                   ; 0x2016 <main+0x1cad>
    6209: a9 00        	lda	#$0
    620b: 6a           	ror
    620c: 85 12        	sta	$12                     ; 0x2012 <main+0x1ca9>
    620e: a6 5f        	ldx	$5f                     ; 0x205f <main+0x1cf6>
    6210: e0 48        	cpx	#$48
    6212: d0 03        	bne	$6217 <readDirectory+0x103>
    6214: 4c 51 66     	jmp	$6651 <readDirectory+0x53d>
    6217: e0 3c        	cpx	#$3c
    6219: d0 e7        	bne	$6202 <readDirectory+0xee>
    621b: a6 6b        	ldx	$6b                     ; 0x206b <main+0x1d02>
    621d: a5 18        	lda	$18                     ; 0x2018 <main+0x1caf>
    621f: 9d 52 00     	sta	$52,x                   ; 0x52 <_dirStream>
    6222: a6 14        	ldx	$14                     ; 0x2014 <main+0x1cab>
    6224: 86 12        	stx	$12                     ; 0x2012 <main+0x1ca9>
    6226: a6 15        	ldx	$15                     ; 0x2015 <main+0x1cac>
    6228: 86 13        	stx	$13                     ; 0x2013 <main+0x1caa>
    622a: a6 12        	ldx	$12                     ; 0x2012 <main+0x1ca9>
    622c: 86 70        	stx	$70                     ; 0x2070 <main+0x1d07>
    622e: a6 13        	ldx	$13                     ; 0x2013 <main+0x1caa>
    6230: 86 71        	stx	$71                     ; 0x2071 <main+0x1d08>
    6232: a6 70        	ldx	$70                     ; 0x2070 <main+0x1d07>
    6234: 86 12        	stx	$12                     ; 0x2012 <main+0x1ca9>
    6236: a6 71        	ldx	$71                     ; 0x2071 <main+0x1d08>
    6238: 86 13        	stx	$13                     ; 0x2013 <main+0x1caa>
    623a: 20 cd 4c     	jsr	$4ccd <fileReadDir>
    623d: a6 70        	ldx	$70                     ; 0x2070 <main+0x1d07>
    623f: 86 12        	stx	$12                     ; 0x2012 <main+0x1ca9>
    6241: a6 71        	ldx	$71                     ; 0x2071 <main+0x1d08>
    6243: 86 13        	stx	$13                     ; 0x2013 <main+0x1caa>
    6245: a2 12        	ldx	#$12
    6247: 86 14        	stx	$14                     ; 0x2014 <main+0x1cab>
    6249: a2 81        	ldx	#$81
    624b: 86 15        	stx	$15                     ; 0x2015 <main+0x1cac>
    624d: 64 16        	stz	$16                     ; 0x2016 <main+0x1cad>
    624f: 64 1e        	stz	$1e                     ; 0x201e <main+0x1cb5>
    6251: a2 01        	ldx	#$1
    6253: a4 16        	ldy	$16                     ; 0x2016 <main+0x1cad>
    6255: 84 76        	sty	$76                     ; 0x2076 <main+0x1d0d>
    6257: 86 75        	stx	$75                     ; 0x2075 <main+0x1d0c>
    6259: a6 14        	ldx	$14                     ; 0x2014 <main+0x1cab>
    625b: 86 73        	stx	$73                     ; 0x2073 <main+0x1d0a>
    625d: a6 15        	ldx	$15                     ; 0x2015 <main+0x1cac>
    625f: 86 74        	stx	$74                     ; 0x2074 <main+0x1d0b>
    6261: 4c ad 65     	jmp	$65ad <readDirectory+0x499>
    6264: e6 1a        	inc	$1a                     ; 0x201a <main+0x1cb1>
    6266: a5 14        	lda	$14                     ; 0x2014 <main+0x1cab>
    6268: f0 1a        	beq	$6284 <readDirectory+0x170>
    626a: a4 1a        	ldy	$1a                     ; 0x201a <main+0x1cb1>
    626c: b1 18        	lda	($18),y                 ; 0x2018 <main+0x1caf>
    626e: 85 1e        	sta	$1e                     ; 0x201e <main+0x1cb5>
    6270: b1 18        	lda	($18),y                 ; 0x2018 <main+0x1caf>
    6272: 91 1c        	sta	($1c),y                 ; 0x201c <main+0x1cb3>
    6274: a5 1e        	lda	$1e                     ; 0x201e <main+0x1cb5>
    6276: d0 03        	bne	$627b <readDirectory+0x167>
    6278: 4c cb 68     	jmp	$68cb <readDirectory+0x7b7>
    627b: ca           	dex
    627c: e0 ff        	cpx	#$ff
    627e: d0 e4        	bne	$6264 <readDirectory+0x150>
    6280: c6 14        	dec	$14                     ; 0x2014 <main+0x1cab>
    6282: 80 e0        	bra	$6264 <readDirectory+0x150>
    6284: 8a           	txa
    6285: d0 e3        	bne	$626a <readDirectory+0x156>
    6287: 4c 17 69     	jmp	$6917 <readDirectory+0x803>
    628a: 8a           	txa
    628b: 18           	clc
    628c: 65 18        	adc	$18                     ; 0x2018 <main+0x1caf>
    628e: 85 23        	sta	$23                     ; 0x2023 <main+0x1cba>
    6290: a5 1c        	lda	$1c                     ; 0x201c <main+0x1cb3>
    6292: 65 19        	adc	$19                     ; 0x2019 <main+0x1cb0>
    6294: e8           	inx
    6295: d0 02        	bne	$6299 <readDirectory+0x185>
    6297: e6 1c        	inc	$1c                     ; 0x201c <main+0x1cb3>
    6299: 5a           	phy
    629a: a4 23        	ldy	$23                     ; 0x2023 <main+0x1cba>
    629c: 84 1a        	sty	$1a                     ; 0x201a <main+0x1cb1>
    629e: 7a           	ply
    629f: 85 1b        	sta	$1b                     ; 0x201b <main+0x1cb2>
    62a1: b1 1a        	lda	($1a),y                 ; 0x201a <main+0x1cb1>
    62a3: d0 e5        	bne	$628a <readDirectory+0x176>
    62a5: 4c 52 66     	jmp	$6652 <readDirectory+0x53e>
    62a8: 8a           	txa
    62a9: 18           	clc
    62aa: 65 18        	adc	$18                     ; 0x2018 <main+0x1caf>
    62ac: 85 1f        	sta	$1f                     ; 0x201f <main+0x1cb6>
    62ae: a5 1c        	lda	$1c                     ; 0x201c <main+0x1cb3>
    62b0: 65 19        	adc	$19                     ; 0x2019 <main+0x1cb0>
    62b2: e8           	inx
    62b3: d0 02        	bne	$62b7 <readDirectory+0x1a3>
    62b5: e6 1c        	inc	$1c                     ; 0x201c <main+0x1cb3>
    62b7: 5a           	phy
    62b8: a4 1f        	ldy	$1f                     ; 0x201f <main+0x1cb6>
    62ba: 84 1a        	sty	$1a                     ; 0x201a <main+0x1cb1>
    62bc: 7a           	ply
    62bd: 85 1b        	sta	$1b                     ; 0x201b <main+0x1cb2>
    62bf: b1 1a        	lda	($1a),y                 ; 0x201a <main+0x1cb1>
    62c1: d0 e5        	bne	$62a8 <readDirectory+0x194>
    62c3: 4c e5 66     	jmp	$66e5 <readDirectory+0x5d1>
    62c6: a6 72        	ldx	$72                     ; 0x2072 <main+0x1d09>
    62c8: 86 1e        	stx	$1e                     ; 0x201e <main+0x1cb5>
    62ca: a0 02        	ldy	#$2
    62cc: b1 14        	lda	($14),y                 ; 0x2014 <main+0x1cab>
    62ce: a6 70        	ldx	$70                     ; 0x2070 <main+0x1d07>
    62d0: 86 12        	stx	$12                     ; 0x2012 <main+0x1ca9>
    62d2: a6 71        	ldx	$71                     ; 0x2071 <main+0x1d08>
    62d4: 86 13        	stx	$13                     ; 0x2013 <main+0x1caa>
    62d6: 85 1f        	sta	$1f                     ; 0x201f <main+0x1cb6>
    62d8: c9 2e        	cmp	#$2e
    62da: d0 16        	bne	$62f2 <readDirectory+0x1de>
    62dc: a0 03        	ldy	#$3
    62de: b1 14        	lda	($14),y                 ; 0x2014 <main+0x1cab>
    62e0: d0 03        	bne	$62e5 <readDirectory+0x1d1>
    62e2: 4c ad 65     	jmp	$65ad <readDirectory+0x499>
    62e5: c9 2e        	cmp	#$2e
    62e7: d0 09        	bne	$62f2 <readDirectory+0x1de>
    62e9: a0 04        	ldy	#$4
    62eb: b1 14        	lda	($14),y                 ; 0x2014 <main+0x1cab>
    62ed: d0 03        	bne	$62f2 <readDirectory+0x1de>
    62ef: 4c ad 65     	jmp	$65ad <readDirectory+0x499>
    62f2: a5 14        	lda	$14                     ; 0x2014 <main+0x1cab>
    62f4: 18           	clc
    62f5: 69 02        	adc	#$2
    62f7: 85 16        	sta	$16                     ; 0x2016 <main+0x1cad>
    62f9: a5 15        	lda	$15                     ; 0x2015 <main+0x1cac>
    62fb: 69 00        	adc	#$0
    62fd: 85 17        	sta	$17                     ; 0x2017 <main+0x1cae>
    62ff: ae 82 92     	ldx	$9282                   ; 0x9282 <fpr+0x11ea>
    6302: d0 03        	bne	$6307 <readDirectory+0x1f3>
    6304: 4c c0 63     	jmp	$63c0 <readDirectory+0x2ac>
    6307: a5 1f        	lda	$1f                     ; 0x201f <main+0x1cb6>
    6309: d0 03        	bne	$630e <readDirectory+0x1fa>
    630b: 4c 53 64     	jmp	$6453 <readDirectory+0x33f>
    630e: 86 22        	stx	$22                     ; 0x2022 <main+0x1cb9>
    6310: a0 00        	ldy	#$0
    6312: a2 00        	ldx	#$0
    6314: 86 18        	stx	$18                     ; 0x2018 <main+0x1caf>
    6316: 98           	tya
    6317: c8           	iny
    6318: d0 01        	bne	$631b <readDirectory+0x207>
    631a: e8           	inx
    631b: 18           	clc
    631c: 65 14        	adc	$14                     ; 0x2014 <main+0x1cab>
    631e: 85 1b        	sta	$1b                     ; 0x201b <main+0x1cb2>
    6320: a5 18        	lda	$18                     ; 0x2018 <main+0x1caf>
    6322: 65 15        	adc	$15                     ; 0x2015 <main+0x1cac>
    6324: 84 1a        	sty	$1a                     ; 0x201a <main+0x1cb1>
    6326: a4 1b        	ldy	$1b                     ; 0x201b <main+0x1cb2>
    6328: 84 18        	sty	$18                     ; 0x2018 <main+0x1caf>
    632a: 85 19        	sta	$19                     ; 0x2019 <main+0x1cb0>
    632c: a0 03        	ldy	#$3
    632e: b1 18        	lda	($18),y                 ; 0x2018 <main+0x1caf>
    6330: a4 1a        	ldy	$1a                     ; 0x201a <main+0x1cb1>
    6332: c9 00        	cmp	#$0
    6334: d0 de        	bne	$6314 <readDirectory+0x200>
    6336: 8a           	txa
    6337: d0 07        	bne	$6340 <readDirectory+0x22c>
    6339: c0 04        	cpy	#$4
    633b: b0 0a        	bcs	$6347 <readDirectory+0x233>
    633d: 4c c0 63     	jmp	$63c0 <readDirectory+0x2ac>
    6340: e0 00        	cpx	#$0
    6342: b0 03        	bcs	$6347 <readDirectory+0x233>
    6344: 4c c0 63     	jmp	$63c0 <readDirectory+0x2ac>
    6347: a2 00        	ldx	#$0
    6349: 86 18        	stx	$18                     ; 0x2018 <main+0x1caf>
    634b: a2 00        	ldx	#$0
    634d: 86 19        	stx	$19                     ; 0x2019 <main+0x1cb0>
    634f: a5 1f        	lda	$1f                     ; 0x201f <main+0x1cb6>
    6351: a6 16        	ldx	$16                     ; 0x2016 <main+0x1cad>
    6353: 86 1c        	stx	$1c                     ; 0x201c <main+0x1cb3>
    6355: a6 17        	ldx	$17                     ; 0x2017 <main+0x1cae>
    6357: 86 1d        	stx	$1d                     ; 0x201d <main+0x1cb4>
    6359: a2 00        	ldx	#$0
    635b: 86 1a        	stx	$1a                     ; 0x201a <main+0x1cb1>
    635d: a2 00        	ldx	#$0
    635f: 86 1b        	stx	$1b                     ; 0x201b <main+0x1cb2>
    6361: a0 01        	ldy	#$1
    6363: 80 0b        	bra	$6370 <readDirectory+0x25c>
    6365: b1 1c        	lda	($1c),y                 ; 0x201c <main+0x1cb3>
    6367: e6 1c        	inc	$1c                     ; 0x201c <main+0x1cb3>
    6369: d0 02        	bne	$636d <readDirectory+0x259>
    636b: e6 1d        	inc	$1d                     ; 0x201d <main+0x1cb4>
    636d: aa           	tax
    636e: f0 14        	beq	$6384 <readDirectory+0x270>
    6370: c9 2e        	cmp	#$2e
    6372: d0 f1        	bne	$6365 <readDirectory+0x251>
    6374: a6 1c        	ldx	$1c                     ; 0x201c <main+0x1cb3>
    6376: 86 18        	stx	$18                     ; 0x2018 <main+0x1caf>
    6378: a6 1d        	ldx	$1d                     ; 0x201d <main+0x1cb4>
    637a: 86 19        	stx	$19                     ; 0x2019 <main+0x1cb0>
    637c: b1 1c        	lda	($1c),y                 ; 0x201c <main+0x1cb3>
    637e: e6 1c        	inc	$1c                     ; 0x201c <main+0x1cb3>
    6380: d0 eb        	bne	$636d <readDirectory+0x259>
    6382: 80 e7        	bra	$636b <readDirectory+0x257>
    6384: a6 19        	ldx	$19                     ; 0x2019 <main+0x1cb0>
    6386: e4 1b        	cpx	$1b                     ; 0x201b <main+0x1cb2>
    6388: d0 06        	bne	$6390 <readDirectory+0x27c>
    638a: a6 18        	ldx	$18                     ; 0x2018 <main+0x1caf>
    638c: e4 1a        	cpx	$1a                     ; 0x201a <main+0x1cb1>
    638e: f0 30        	beq	$63c0 <readDirectory+0x2ac>
    6390: a0 01        	ldy	#$1
    6392: b1 18        	lda	($18),y                 ; 0x2018 <main+0x1caf>
    6394: f0 2a        	beq	$63c0 <readDirectory+0x2ac>
    6396: 85 1d        	sta	$1d                     ; 0x201d <main+0x1cb4>
    6398: a2 00        	ldx	#$0
    639a: 64 1c        	stz	$1c                     ; 0x201c <main+0x1cb3>
    639c: a0 02        	ldy	#$2
    639e: 8a           	txa
    639f: 18           	clc
    63a0: 65 18        	adc	$18                     ; 0x2018 <main+0x1caf>
    63a2: 85 23        	sta	$23                     ; 0x2023 <main+0x1cba>
    63a4: a5 1c        	lda	$1c                     ; 0x201c <main+0x1cb3>
    63a6: 65 19        	adc	$19                     ; 0x2019 <main+0x1cb0>
    63a8: e8           	inx
    63a9: d0 02        	bne	$63ad <readDirectory+0x299>
    63ab: e6 1c        	inc	$1c                     ; 0x201c <main+0x1cb3>
    63ad: 5a           	phy
    63ae: a4 23        	ldy	$23                     ; 0x2023 <main+0x1cba>
    63b0: 84 1a        	sty	$1a                     ; 0x201a <main+0x1cb1>
    63b2: 7a           	ply
    63b3: 85 1b        	sta	$1b                     ; 0x201b <main+0x1cb2>
    63b5: b1 1a        	lda	($1a),y                 ; 0x201a <main+0x1cb1>
    63b7: d0 e5        	bne	$639e <readDirectory+0x28a>
    63b9: a5 1c        	lda	$1c                     ; 0x201c <main+0x1cb3>
    63bb: d0 03        	bne	$63c0 <readDirectory+0x2ac>
    63bd: 4c 78 67     	jmp	$6778 <readDirectory+0x664>
    63c0: ae 85 92     	ldx	$9285                   ; 0x9285 <fpr+0x11ed>
    63c3: d0 03        	bne	$63c8 <readDirectory+0x2b4>
    63c5: 4c 53 64     	jmp	$6453 <readDirectory+0x33f>
    63c8: a5 1f        	lda	$1f                     ; 0x201f <main+0x1cb6>
    63ca: d0 03        	bne	$63cf <readDirectory+0x2bb>
    63cc: 4c 53 64     	jmp	$6453 <readDirectory+0x33f>
    63cf: 86 22        	stx	$22                     ; 0x2022 <main+0x1cb9>
    63d1: a0 00        	ldy	#$0
    63d3: a2 00        	ldx	#$0
    63d5: 86 18        	stx	$18                     ; 0x2018 <main+0x1caf>
    63d7: 98           	tya
    63d8: c8           	iny
    63d9: d0 01        	bne	$63dc <readDirectory+0x2c8>
    63db: e8           	inx
    63dc: 18           	clc
    63dd: 65 14        	adc	$14                     ; 0x2014 <main+0x1cab>
    63df: 85 1b        	sta	$1b                     ; 0x201b <main+0x1cb2>
    63e1: a5 18        	lda	$18                     ; 0x2018 <main+0x1caf>
    63e3: 65 15        	adc	$15                     ; 0x2015 <main+0x1cac>
    63e5: 84 1a        	sty	$1a                     ; 0x201a <main+0x1cb1>
    63e7: a4 1b        	ldy	$1b                     ; 0x201b <main+0x1cb2>
    63e9: 84 18        	sty	$18                     ; 0x2018 <main+0x1caf>
    63eb: 85 19        	sta	$19                     ; 0x2019 <main+0x1cb0>
    63ed: a0 03        	ldy	#$3
    63ef: b1 18        	lda	($18),y                 ; 0x2018 <main+0x1caf>
    63f1: a4 1a        	ldy	$1a                     ; 0x201a <main+0x1cb1>
    63f3: c9 00        	cmp	#$0
    63f5: d0 de        	bne	$63d5 <readDirectory+0x2c1>
    63f7: 8a           	txa
    63f8: d0 06        	bne	$6400 <readDirectory+0x2ec>
    63fa: c0 04        	cpy	#$4
    63fc: b0 06        	bcs	$6404 <readDirectory+0x2f0>
    63fe: 80 53        	bra	$6453 <readDirectory+0x33f>
    6400: e0 00        	cpx	#$0
    6402: 90 4f        	bcc	$6453 <readDirectory+0x33f>
    6404: a2 00        	ldx	#$0
    6406: 86 18        	stx	$18                     ; 0x2018 <main+0x1caf>
    6408: a2 00        	ldx	#$0
    640a: 86 19        	stx	$19                     ; 0x2019 <main+0x1cb0>
    640c: a5 1f        	lda	$1f                     ; 0x201f <main+0x1cb6>
    640e: a6 16        	ldx	$16                     ; 0x2016 <main+0x1cad>
    6410: 86 1c        	stx	$1c                     ; 0x201c <main+0x1cb3>
    6412: a6 17        	ldx	$17                     ; 0x2017 <main+0x1cae>
    6414: 86 1d        	stx	$1d                     ; 0x201d <main+0x1cb4>
    6416: a2 00        	ldx	#$0
    6418: 86 1a        	stx	$1a                     ; 0x201a <main+0x1cb1>
    641a: a2 00        	ldx	#$0
    641c: 86 1b        	stx	$1b                     ; 0x201b <main+0x1cb2>
    641e: a0 01        	ldy	#$1
    6420: 80 0b        	bra	$642d <readDirectory+0x319>
    6422: b1 1c        	lda	($1c),y                 ; 0x201c <main+0x1cb3>
    6424: e6 1c        	inc	$1c                     ; 0x201c <main+0x1cb3>
    6426: d0 02        	bne	$642a <readDirectory+0x316>
    6428: e6 1d        	inc	$1d                     ; 0x201d <main+0x1cb4>
    642a: aa           	tax
    642b: f0 14        	beq	$6441 <readDirectory+0x32d>
    642d: c9 2e        	cmp	#$2e
    642f: d0 f1        	bne	$6422 <readDirectory+0x30e>
    6431: a6 1c        	ldx	$1c                     ; 0x201c <main+0x1cb3>
    6433: 86 18        	stx	$18                     ; 0x2018 <main+0x1caf>
    6435: a6 1d        	ldx	$1d                     ; 0x201d <main+0x1cb4>
    6437: 86 19        	stx	$19                     ; 0x2019 <main+0x1cb0>
    6439: b1 1c        	lda	($1c),y                 ; 0x201c <main+0x1cb3>
    643b: e6 1c        	inc	$1c                     ; 0x201c <main+0x1cb3>
    643d: d0 eb        	bne	$642a <readDirectory+0x316>
    643f: 80 e7        	bra	$6428 <readDirectory+0x314>
    6441: a6 19        	ldx	$19                     ; 0x2019 <main+0x1cb0>
    6443: e4 1b        	cpx	$1b                     ; 0x201b <main+0x1cb2>
    6445: d0 03        	bne	$644a <readDirectory+0x336>
    6447: 4c da 65     	jmp	$65da <readDirectory+0x4c6>
    644a: a0 01        	ldy	#$1
    644c: b1 18        	lda	($18),y                 ; 0x2018 <main+0x1caf>
    644e: f0 03        	beq	$6453 <readDirectory+0x33f>
    6450: 4c da 66     	jmp	$66da <readDirectory+0x5c6>
    6453: ae 88 92     	ldx	$9288                   ; 0x9288 <fpr+0x11f0>
    6456: d0 03        	bne	$645b <readDirectory+0x347>
    6458: 4c 14 65     	jmp	$6514 <readDirectory+0x400>
    645b: a5 1f        	lda	$1f                     ; 0x201f <main+0x1cb6>
    645d: d0 03        	bne	$6462 <readDirectory+0x34e>
    645f: 4c a4 65     	jmp	$65a4 <readDirectory+0x490>
    6462: 86 22        	stx	$22                     ; 0x2022 <main+0x1cb9>
    6464: a0 00        	ldy	#$0
    6466: a2 00        	ldx	#$0
    6468: 86 18        	stx	$18                     ; 0x2018 <main+0x1caf>
    646a: 98           	tya
    646b: c8           	iny
    646c: d0 01        	bne	$646f <readDirectory+0x35b>
    646e: e8           	inx
    646f: 18           	clc
    6470: 65 14        	adc	$14                     ; 0x2014 <main+0x1cab>
    6472: 85 1b        	sta	$1b                     ; 0x201b <main+0x1cb2>
    6474: a5 18        	lda	$18                     ; 0x2018 <main+0x1caf>
    6476: 65 15        	adc	$15                     ; 0x2015 <main+0x1cac>
    6478: 84 1a        	sty	$1a                     ; 0x201a <main+0x1cb1>
    647a: a4 1b        	ldy	$1b                     ; 0x201b <main+0x1cb2>
    647c: 84 18        	sty	$18                     ; 0x2018 <main+0x1caf>
    647e: 85 19        	sta	$19                     ; 0x2019 <main+0x1cb0>
    6480: a0 03        	ldy	#$3
    6482: b1 18        	lda	($18),y                 ; 0x2018 <main+0x1caf>
    6484: a4 1a        	ldy	$1a                     ; 0x201a <main+0x1cb1>
    6486: c9 00        	cmp	#$0
    6488: d0 de        	bne	$6468 <readDirectory+0x354>
    648a: 8a           	txa
    648b: d0 07        	bne	$6494 <readDirectory+0x380>
    648d: c0 04        	cpy	#$4
    648f: b0 0a        	bcs	$649b <readDirectory+0x387>
    6491: 4c 14 65     	jmp	$6514 <readDirectory+0x400>
    6494: e0 00        	cpx	#$0
    6496: b0 03        	bcs	$649b <readDirectory+0x387>
    6498: 4c 14 65     	jmp	$6514 <readDirectory+0x400>
    649b: a2 00        	ldx	#$0
    649d: 86 18        	stx	$18                     ; 0x2018 <main+0x1caf>
    649f: a2 00        	ldx	#$0
    64a1: 86 19        	stx	$19                     ; 0x2019 <main+0x1cb0>
    64a3: a5 1f        	lda	$1f                     ; 0x201f <main+0x1cb6>
    64a5: a6 16        	ldx	$16                     ; 0x2016 <main+0x1cad>
    64a7: 86 1c        	stx	$1c                     ; 0x201c <main+0x1cb3>
    64a9: a6 17        	ldx	$17                     ; 0x2017 <main+0x1cae>
    64ab: 86 1d        	stx	$1d                     ; 0x201d <main+0x1cb4>
    64ad: a2 00        	ldx	#$0
    64af: 86 1a        	stx	$1a                     ; 0x201a <main+0x1cb1>
    64b1: a2 00        	ldx	#$0
    64b3: 86 1b        	stx	$1b                     ; 0x201b <main+0x1cb2>
    64b5: a0 01        	ldy	#$1
    64b7: 80 0b        	bra	$64c4 <readDirectory+0x3b0>
    64b9: b1 1c        	lda	($1c),y                 ; 0x201c <main+0x1cb3>
    64bb: e6 1c        	inc	$1c                     ; 0x201c <main+0x1cb3>
    64bd: d0 02        	bne	$64c1 <readDirectory+0x3ad>
    64bf: e6 1d        	inc	$1d                     ; 0x201d <main+0x1cb4>
    64c1: aa           	tax
    64c2: f0 14        	beq	$64d8 <readDirectory+0x3c4>
    64c4: c9 2e        	cmp	#$2e
    64c6: d0 f1        	bne	$64b9 <readDirectory+0x3a5>
    64c8: a6 1c        	ldx	$1c                     ; 0x201c <main+0x1cb3>
    64ca: 86 18        	stx	$18                     ; 0x2018 <main+0x1caf>
    64cc: a6 1d        	ldx	$1d                     ; 0x201d <main+0x1cb4>
    64ce: 86 19        	stx	$19                     ; 0x2019 <main+0x1cb0>
    64d0: b1 1c        	lda	($1c),y                 ; 0x201c <main+0x1cb3>
    64d2: e6 1c        	inc	$1c                     ; 0x201c <main+0x1cb3>
    64d4: d0 eb        	bne	$64c1 <readDirectory+0x3ad>
    64d6: 80 e7        	bra	$64bf <readDirectory+0x3ab>
    64d8: a6 19        	ldx	$19                     ; 0x2019 <main+0x1cb0>
    64da: e4 1b        	cpx	$1b                     ; 0x201b <main+0x1cb2>
    64dc: d0 06        	bne	$64e4 <readDirectory+0x3d0>
    64de: a6 18        	ldx	$18                     ; 0x2018 <main+0x1caf>
    64e0: e4 1a        	cpx	$1a                     ; 0x201a <main+0x1cb1>
    64e2: f0 30        	beq	$6514 <readDirectory+0x400>
    64e4: a0 01        	ldy	#$1
    64e6: b1 18        	lda	($18),y                 ; 0x2018 <main+0x1caf>
    64e8: f0 2a        	beq	$6514 <readDirectory+0x400>
    64ea: 85 1d        	sta	$1d                     ; 0x201d <main+0x1cb4>
    64ec: a2 00        	ldx	#$0
    64ee: 64 1c        	stz	$1c                     ; 0x201c <main+0x1cb3>
    64f0: a0 02        	ldy	#$2
    64f2: 8a           	txa
    64f3: 18           	clc
    64f4: 65 18        	adc	$18                     ; 0x2018 <main+0x1caf>
    64f6: 85 23        	sta	$23                     ; 0x2023 <main+0x1cba>
    64f8: a5 1c        	lda	$1c                     ; 0x201c <main+0x1cb3>
    64fa: 65 19        	adc	$19                     ; 0x2019 <main+0x1cb0>
    64fc: e8           	inx
    64fd: d0 02        	bne	$6501 <readDirectory+0x3ed>
    64ff: e6 1c        	inc	$1c                     ; 0x201c <main+0x1cb3>
    6501: 5a           	phy
    6502: a4 23        	ldy	$23                     ; 0x2023 <main+0x1cba>
    6504: 84 1a        	sty	$1a                     ; 0x201a <main+0x1cb1>
    6506: 7a           	ply
    6507: 85 1b        	sta	$1b                     ; 0x201b <main+0x1cb2>
    6509: b1 1a        	lda	($1a),y                 ; 0x201a <main+0x1cb1>
    650b: d0 e5        	bne	$64f2 <readDirectory+0x3de>
    650d: a5 1c        	lda	$1c                     ; 0x201c <main+0x1cb3>
    650f: d0 03        	bne	$6514 <readDirectory+0x400>
    6511: 4c f9 67     	jmp	$67f9 <readDirectory+0x6e5>
    6514: ae 8b 92     	ldx	$928b                   ; 0x928b <fpr+0x11f3>
    6517: d0 03        	bne	$651c <readDirectory+0x408>
    6519: 4c a4 65     	jmp	$65a4 <readDirectory+0x490>
    651c: a5 1f        	lda	$1f                     ; 0x201f <main+0x1cb6>
    651e: d0 03        	bne	$6523 <readDirectory+0x40f>
    6520: 4c a4 65     	jmp	$65a4 <readDirectory+0x490>
    6523: 86 22        	stx	$22                     ; 0x2022 <main+0x1cb9>
    6525: a0 00        	ldy	#$0
    6527: a2 00        	ldx	#$0
    6529: 86 18        	stx	$18                     ; 0x2018 <main+0x1caf>
    652b: 98           	tya
    652c: c8           	iny
    652d: d0 01        	bne	$6530 <readDirectory+0x41c>
    652f: e8           	inx
    6530: 18           	clc
    6531: 65 14        	adc	$14                     ; 0x2014 <main+0x1cab>
    6533: 85 1b        	sta	$1b                     ; 0x201b <main+0x1cb2>
    6535: a5 18        	lda	$18                     ; 0x2018 <main+0x1caf>
    6537: 65 15        	adc	$15                     ; 0x2015 <main+0x1cac>
    6539: 84 1a        	sty	$1a                     ; 0x201a <main+0x1cb1>
    653b: a4 1b        	ldy	$1b                     ; 0x201b <main+0x1cb2>
    653d: 84 18        	sty	$18                     ; 0x2018 <main+0x1caf>
    653f: 85 19        	sta	$19                     ; 0x2019 <main+0x1cb0>
    6541: a0 03        	ldy	#$3
    6543: b1 18        	lda	($18),y                 ; 0x2018 <main+0x1caf>
    6545: a4 1a        	ldy	$1a                     ; 0x201a <main+0x1cb1>
    6547: c9 00        	cmp	#$0
    6549: d0 de        	bne	$6529 <readDirectory+0x415>
    654b: 8a           	txa
    654c: d0 06        	bne	$6554 <readDirectory+0x440>
    654e: c0 04        	cpy	#$4
    6550: b0 06        	bcs	$6558 <readDirectory+0x444>
    6552: 80 50        	bra	$65a4 <readDirectory+0x490>
    6554: e0 00        	cpx	#$0
    6556: 90 4c        	bcc	$65a4 <readDirectory+0x490>
    6558: a2 00        	ldx	#$0
    655a: 86 18        	stx	$18                     ; 0x2018 <main+0x1caf>
    655c: a2 00        	ldx	#$0
    655e: 86 19        	stx	$19                     ; 0x2019 <main+0x1cb0>
    6560: a6 16        	ldx	$16                     ; 0x2016 <main+0x1cad>
    6562: 86 1c        	stx	$1c                     ; 0x201c <main+0x1cb3>
    6564: a6 17        	ldx	$17                     ; 0x2017 <main+0x1cae>
    6566: 86 1d        	stx	$1d                     ; 0x201d <main+0x1cb4>
    6568: a2 00        	ldx	#$0
    656a: 86 1a        	stx	$1a                     ; 0x201a <main+0x1cb1>
    656c: a2 00        	ldx	#$0
    656e: 86 1b        	stx	$1b                     ; 0x201b <main+0x1cb2>
    6570: a0 01        	ldy	#$1
    6572: a5 1f        	lda	$1f                     ; 0x201f <main+0x1cb6>
    6574: 80 0b        	bra	$6581 <readDirectory+0x46d>
    6576: b1 1c        	lda	($1c),y                 ; 0x201c <main+0x1cb3>
    6578: e6 1c        	inc	$1c                     ; 0x201c <main+0x1cb3>
    657a: d0 02        	bne	$657e <readDirectory+0x46a>
    657c: e6 1d        	inc	$1d                     ; 0x201d <main+0x1cb4>
    657e: aa           	tax
    657f: f0 14        	beq	$6595 <readDirectory+0x481>
    6581: c9 2e        	cmp	#$2e
    6583: d0 f1        	bne	$6576 <readDirectory+0x462>
    6585: a6 1c        	ldx	$1c                     ; 0x201c <main+0x1cb3>
    6587: 86 18        	stx	$18                     ; 0x2018 <main+0x1caf>
    6589: a6 1d        	ldx	$1d                     ; 0x201d <main+0x1cb4>
    658b: 86 19        	stx	$19                     ; 0x2019 <main+0x1cb0>
    658d: b1 1c        	lda	($1c),y                 ; 0x201c <main+0x1cb3>
    658f: e6 1c        	inc	$1c                     ; 0x201c <main+0x1cb3>
    6591: d0 eb        	bne	$657e <readDirectory+0x46a>
    6593: 80 e7        	bra	$657c <readDirectory+0x468>
    6595: a6 19        	ldx	$19                     ; 0x2019 <main+0x1cb0>
    6597: e4 1b        	cpx	$1b                     ; 0x201b <main+0x1cb2>
    6599: f0 4b        	beq	$65e6 <readDirectory+0x4d2>
    659b: a0 01        	ldy	#$1
    659d: b1 18        	lda	($18),y                 ; 0x2018 <main+0x1caf>
    659f: f0 03        	beq	$65a4 <readDirectory+0x490>
    65a1: 4c 6d 67     	jmp	$676d <readDirectory+0x659>
    65a4: a0 01        	ldy	#$1
    65a6: b1 14        	lda	($14),y                 ; 0x2014 <main+0x1cab>
    65a8: f0 03        	beq	$65ad <readDirectory+0x499>
    65aa: 4c 77 68     	jmp	$6877 <readDirectory+0x763>
    65ad: a6 1e        	ldx	$1e                     ; 0x201e <main+0x1cb5>
    65af: 86 72        	stx	$72                     ; 0x2072 <main+0x1d09>
    65b1: 20 cd 4c     	jsr	$4ccd <fileReadDir>
    65b4: a6 12        	ldx	$12                     ; 0x2012 <main+0x1ca9>
    65b6: 86 14        	stx	$14                     ; 0x2014 <main+0x1cab>
    65b8: a6 13        	ldx	$13                     ; 0x2013 <main+0x1caa>
    65ba: 86 15        	stx	$15                     ; 0x2015 <main+0x1cac>
    65bc: a6 15        	ldx	$15                     ; 0x2015 <main+0x1cac>
    65be: a0 00        	ldy	#$0
    65c0: 84 12        	sty	$12                     ; 0x2012 <main+0x1ca9>
    65c2: a0 00        	ldy	#$0
    65c4: 84 13        	sty	$13                     ; 0x2013 <main+0x1caa>
    65c6: e4 13        	cpx	$13                     ; 0x2013 <main+0x1caa>
    65c8: f0 03        	beq	$65cd <readDirectory+0x4b9>
    65ca: 4c c6 62     	jmp	$62c6 <readDirectory+0x1b2>
    65cd: a4 14        	ldy	$14                     ; 0x2014 <main+0x1cab>
    65cf: a6 72        	ldx	$72                     ; 0x2072 <main+0x1d09>
    65d1: 86 1e        	stx	$1e                     ; 0x201e <main+0x1cb5>
    65d3: c4 12        	cpy	$12                     ; 0x2012 <main+0x1ca9>
    65d5: f0 17        	beq	$65ee <readDirectory+0x4da>
    65d7: 4c ca 62     	jmp	$62ca <readDirectory+0x1b6>
    65da: a6 18        	ldx	$18                     ; 0x2018 <main+0x1caf>
    65dc: e4 1a        	cpx	$1a                     ; 0x201a <main+0x1cb1>
    65de: f0 03        	beq	$65e3 <readDirectory+0x4cf>
    65e0: 4c 4a 64     	jmp	$644a <readDirectory+0x336>
    65e3: 4c 53 64     	jmp	$6453 <readDirectory+0x33f>
    65e6: a6 18        	ldx	$18                     ; 0x2018 <main+0x1caf>
    65e8: e4 1a        	cpx	$1a                     ; 0x201a <main+0x1cb1>
    65ea: d0 af        	bne	$659b <readDirectory+0x487>
    65ec: 80 b6        	bra	$65a4 <readDirectory+0x490>
    65ee: a4 75        	ldy	$75                     ; 0x2075 <main+0x1d0c>
    65f0: 8c 7a 92     	sty	$927a                   ; 0x927a <fpr+0x11e2>
    65f3: 8e 7b 92     	stx	$927b                   ; 0x927b <fpr+0x11e3>
    65f6: a2 e6        	ldx	#$e6
    65f8: 86 12        	stx	$12                     ; 0x2012 <main+0x1ca9>
    65fa: a2 80        	ldx	#$80
    65fc: 86 13        	stx	$13                     ; 0x2013 <main+0x1caa>
    65fe: a2 6a        	ldx	#$6a
    6600: 86 14        	stx	$14                     ; 0x2014 <main+0x1cab>
    6602: a2 7f        	ldx	#$7f
    6604: 86 15        	stx	$15                     ; 0x2015 <main+0x1cac>
    6606: a9 2c        	lda	#$2c
    6608: a2 00        	ldx	#$0
    660a: 20 0d 7b     	jsr	$7b0d <memcpy>
    660d: a2 6d        	ldx	#$6d
    660f: a0 00        	ldy	#$0
    6611: 86 12        	stx	$12                     ; 0x2012 <main+0x1ca9>
    6613: 84 13        	sty	$13                     ; 0x2013 <main+0x1caa>
    6615: a2 5e        	ldx	#$5e
    6617: 86 14        	stx	$14                     ; 0x2014 <main+0x1cab>
    6619: a2 00        	ldx	#$0
    661b: 86 15        	stx	$15                     ; 0x2015 <main+0x1cac>
    661d: a0 00        	ldy	#$0
    661f: a6 6b        	ldx	$6b                     ; 0x206b <main+0x1d02>
    6621: b5 52        	lda	$52,x                   ; 0x2052 <main+0x1ce9>
    6623: f0 1a        	beq	$663f <readDirectory+0x52b>
    6625: 85 f3        	sta	$f3                     ; 0x20f3 <main+0x1d8a>
    6627: a2 6c        	ldx	#$6c
    6629: 86 16        	stx	$16                     ; 0x2016 <main+0x1cad>
    662b: 84 17        	sty	$17                     ; 0x2017 <main+0x1cae>
    662d: 20 80 ff     	jsr	$ff80 <__heap_start+0x6cb0>
    6630: 92 16        	sta	($16)                   ; 0x2016 <main+0x1cad>
    6632: a9 00        	lda	#$0
    6634: 6a           	ror
    6635: 85 14        	sta	$14                     ; 0x2014 <main+0x1cab>
    6637: a5 5e        	lda	$5e                     ; 0x205e <main+0x1cf5>
    6639: d0 04        	bne	$663f <readDirectory+0x52b>
    663b: a6 6b        	ldx	$6b                     ; 0x206b <main+0x1d02>
    663d: 74 52        	stz	$52,x                   ; 0x2052 <main+0x1ce9>
    663f: 64 5f        	stz	$5f                     ; 0x205f <main+0x1cf6>
    6641: 20 00 ff     	jsr	$ff00 <__heap_start+0x6c30>
    6644: 92 12        	sta	($12)                   ; 0x2012 <main+0x1ca9>
    6646: a9 00        	lda	#$0
    6648: 6a           	ror
    6649: 85 14        	sta	$14                     ; 0x2014 <main+0x1cab>
    664b: a5 5f        	lda	$5f                     ; 0x205f <main+0x1cf6>
    664d: c9 46        	cmp	#$46
    664f: d0 ce        	bne	$661f <readDirectory+0x50b>
    6651: 60           	rts
    6652: a5 1c        	lda	$1c                     ; 0x201c <main+0x1cb3>
    6654: f0 03        	beq	$6659 <readDirectory+0x545>
    6656: 4c 53 64     	jmp	$6453 <readDirectory+0x33f>
    6659: e0 03        	cpx	#$3
    665b: f0 03        	beq	$6660 <readDirectory+0x54c>
    665d: 4c 53 64     	jmp	$6453 <readDirectory+0x33f>
    6660: a6 1d        	ldx	$1d                     ; 0x201d <main+0x1cb4>
    6662: e0 41        	cpx	#$41
    6664: 90 0a        	bcc	$6670 <readDirectory+0x55c>
    6666: a5 1d        	lda	$1d                     ; 0x201d <main+0x1cb4>
    6668: c9 5b        	cmp	#$5b
    666a: b0 04        	bcs	$6670 <readDirectory+0x55c>
    666c: 09 20        	ora	#$20
    666e: 85 1d        	sta	$1d                     ; 0x201d <main+0x1cb4>
    6670: a5 22        	lda	$22                     ; 0x2022 <main+0x1cb9>
    6672: c9 41        	cmp	#$41
    6674: 90 06        	bcc	$667c <readDirectory+0x568>
    6676: c9 5b        	cmp	#$5b
    6678: b0 02        	bcs	$667c <readDirectory+0x568>
    667a: 09 20        	ora	#$20
    667c: 85 1a        	sta	$1a                     ; 0x201a <main+0x1cb1>
    667e: a6 1d        	ldx	$1d                     ; 0x201d <main+0x1cb4>
    6680: e4 1a        	cpx	$1a                     ; 0x201a <main+0x1cb1>
    6682: f0 03        	beq	$6687 <readDirectory+0x573>
    6684: 4c 53 64     	jmp	$6453 <readDirectory+0x33f>
    6687: a0 02        	ldy	#$2
    6689: b1 18        	lda	($18),y                 ; 0x2018 <main+0x1caf>
    668b: c9 41        	cmp	#$41
    668d: 90 06        	bcc	$6695 <readDirectory+0x581>
    668f: c9 5b        	cmp	#$5b
    6691: b0 02        	bcs	$6695 <readDirectory+0x581>
    6693: 09 20        	ora	#$20
    6695: 85 1b        	sta	$1b                     ; 0x201b <main+0x1cb2>
    6697: ad 86 92     	lda	$9286                   ; 0x9286 <fpr+0x11ee>
    669a: c9 41        	cmp	#$41
    669c: 90 06        	bcc	$66a4 <readDirectory+0x590>
    669e: c9 5b        	cmp	#$5b
    66a0: b0 02        	bcs	$66a4 <readDirectory+0x590>
    66a2: 09 20        	ora	#$20
    66a4: 85 1a        	sta	$1a                     ; 0x201a <main+0x1cb1>
    66a6: a6 1b        	ldx	$1b                     ; 0x201b <main+0x1cb2>
    66a8: e4 1a        	cpx	$1a                     ; 0x201a <main+0x1cb1>
    66aa: f0 03        	beq	$66af <readDirectory+0x59b>
    66ac: 4c 53 64     	jmp	$6453 <readDirectory+0x33f>
    66af: a0 03        	ldy	#$3
    66b1: b1 18        	lda	($18),y                 ; 0x2018 <main+0x1caf>
    66b3: c9 41        	cmp	#$41
    66b5: 90 06        	bcc	$66bd <readDirectory+0x5a9>
    66b7: c9 5b        	cmp	#$5b
    66b9: b0 02        	bcs	$66bd <readDirectory+0x5a9>
    66bb: 09 20        	ora	#$20
    66bd: 85 19        	sta	$19                     ; 0x2019 <main+0x1cb0>
    66bf: ad 87 92     	lda	$9287                   ; 0x9287 <fpr+0x11ef>
    66c2: c9 41        	cmp	#$41
    66c4: 90 06        	bcc	$66cc <readDirectory+0x5b8>
    66c6: c9 5b        	cmp	#$5b
    66c8: b0 02        	bcs	$66cc <readDirectory+0x5b8>
    66ca: 09 20        	ora	#$20
    66cc: 85 18        	sta	$18                     ; 0x2018 <main+0x1caf>
    66ce: a6 19        	ldx	$19                     ; 0x2019 <main+0x1cb0>
    66d0: e4 18        	cpx	$18                     ; 0x2018 <main+0x1caf>
    66d2: f0 03        	beq	$66d7 <readDirectory+0x5c3>
    66d4: 4c 53 64     	jmp	$6453 <readDirectory+0x33f>
    66d7: 4c 77 68     	jmp	$6877 <readDirectory+0x763>
    66da: 85 1d        	sta	$1d                     ; 0x201d <main+0x1cb4>
    66dc: a2 00        	ldx	#$0
    66de: 64 1c        	stz	$1c                     ; 0x201c <main+0x1cb3>
    66e0: a0 02        	ldy	#$2
    66e2: 4c 8a 62     	jmp	$628a <readDirectory+0x176>
    66e5: a5 1c        	lda	$1c                     ; 0x201c <main+0x1cb3>
    66e7: f0 03        	beq	$66ec <readDirectory+0x5d8>
    66e9: 4c a4 65     	jmp	$65a4 <readDirectory+0x490>
    66ec: e0 03        	cpx	#$3
    66ee: f0 03        	beq	$66f3 <readDirectory+0x5df>
    66f0: 4c a4 65     	jmp	$65a4 <readDirectory+0x490>
    66f3: a6 1d        	ldx	$1d                     ; 0x201d <main+0x1cb4>
    66f5: e0 41        	cpx	#$41
    66f7: 90 0a        	bcc	$6703 <readDirectory+0x5ef>
    66f9: a5 1d        	lda	$1d                     ; 0x201d <main+0x1cb4>
    66fb: c9 5b        	cmp	#$5b
    66fd: b0 04        	bcs	$6703 <readDirectory+0x5ef>
    66ff: 09 20        	ora	#$20
    6701: 85 1d        	sta	$1d                     ; 0x201d <main+0x1cb4>
    6703: a5 22        	lda	$22                     ; 0x2022 <main+0x1cb9>
    6705: c9 41        	cmp	#$41
    6707: 90 06        	bcc	$670f <readDirectory+0x5fb>
    6709: c9 5b        	cmp	#$5b
    670b: b0 02        	bcs	$670f <readDirectory+0x5fb>
    670d: 09 20        	ora	#$20
    670f: 85 1a        	sta	$1a                     ; 0x201a <main+0x1cb1>
    6711: a6 1d        	ldx	$1d                     ; 0x201d <main+0x1cb4>
    6713: e4 1a        	cpx	$1a                     ; 0x201a <main+0x1cb1>
    6715: f0 03        	beq	$671a <readDirectory+0x606>
    6717: 4c a4 65     	jmp	$65a4 <readDirectory+0x490>
    671a: a0 02        	ldy	#$2
    671c: b1 18        	lda	($18),y                 ; 0x2018 <main+0x1caf>
    671e: c9 41        	cmp	#$41
    6720: 90 06        	bcc	$6728 <readDirectory+0x614>
    6722: c9 5b        	cmp	#$5b
    6724: b0 02        	bcs	$6728 <readDirectory+0x614>
    6726: 09 20        	ora	#$20
    6728: 85 1b        	sta	$1b                     ; 0x201b <main+0x1cb2>
    672a: ad 8c 92     	lda	$928c                   ; 0x928c <fpr+0x11f4>
    672d: c9 41        	cmp	#$41
    672f: 90 06        	bcc	$6737 <readDirectory+0x623>
    6731: c9 5b        	cmp	#$5b
    6733: b0 02        	bcs	$6737 <readDirectory+0x623>
    6735: 09 20        	ora	#$20
    6737: 85 1a        	sta	$1a                     ; 0x201a <main+0x1cb1>
    6739: a6 1b        	ldx	$1b                     ; 0x201b <main+0x1cb2>
    673b: e4 1a        	cpx	$1a                     ; 0x201a <main+0x1cb1>
    673d: f0 03        	beq	$6742 <readDirectory+0x62e>
    673f: 4c a4 65     	jmp	$65a4 <readDirectory+0x490>
    6742: a0 03        	ldy	#$3
    6744: b1 18        	lda	($18),y                 ; 0x2018 <main+0x1caf>
    6746: c9 41        	cmp	#$41
    6748: 90 06        	bcc	$6750 <readDirectory+0x63c>
    674a: c9 5b        	cmp	#$5b
    674c: b0 02        	bcs	$6750 <readDirectory+0x63c>
    674e: 09 20        	ora	#$20
    6750: 85 19        	sta	$19                     ; 0x2019 <main+0x1cb0>
    6752: ad 8d 92     	lda	$928d                   ; 0x928d <fpr+0x11f5>
    6755: c9 41        	cmp	#$41
    6757: 90 06        	bcc	$675f <readDirectory+0x64b>
    6759: c9 5b        	cmp	#$5b
    675b: b0 02        	bcs	$675f <readDirectory+0x64b>
    675d: 09 20        	ora	#$20
    675f: 85 18        	sta	$18                     ; 0x2018 <main+0x1caf>
    6761: a6 19        	ldx	$19                     ; 0x2019 <main+0x1cb0>
    6763: e4 18        	cpx	$18                     ; 0x2018 <main+0x1caf>
    6765: f0 03        	beq	$676a <readDirectory+0x656>
    6767: 4c a4 65     	jmp	$65a4 <readDirectory+0x490>
    676a: 4c 77 68     	jmp	$6877 <readDirectory+0x763>
    676d: 85 1d        	sta	$1d                     ; 0x201d <main+0x1cb4>
    676f: a2 00        	ldx	#$0
    6771: 64 1c        	stz	$1c                     ; 0x201c <main+0x1cb3>
    6773: a0 02        	ldy	#$2
    6775: 4c a8 62     	jmp	$62a8 <readDirectory+0x194>
    6778: e0 03        	cpx	#$3
    677a: f0 03        	beq	$677f <readDirectory+0x66b>
    677c: 4c c0 63     	jmp	$63c0 <readDirectory+0x2ac>
    677f: a6 1d        	ldx	$1d                     ; 0x201d <main+0x1cb4>
    6781: e0 41        	cpx	#$41
    6783: 90 0a        	bcc	$678f <readDirectory+0x67b>
    6785: a5 1d        	lda	$1d                     ; 0x201d <main+0x1cb4>
    6787: c9 5b        	cmp	#$5b
    6789: b0 04        	bcs	$678f <readDirectory+0x67b>
    678b: 09 20        	ora	#$20
    678d: 85 1d        	sta	$1d                     ; 0x201d <main+0x1cb4>
    678f: a5 22        	lda	$22                     ; 0x2022 <main+0x1cb9>
    6791: c9 41        	cmp	#$41
    6793: 90 06        	bcc	$679b <readDirectory+0x687>
    6795: c9 5b        	cmp	#$5b
    6797: b0 02        	bcs	$679b <readDirectory+0x687>
    6799: 09 20        	ora	#$20
    679b: 85 1a        	sta	$1a                     ; 0x201a <main+0x1cb1>
    679d: a6 1d        	ldx	$1d                     ; 0x201d <main+0x1cb4>
    679f: e4 1a        	cpx	$1a                     ; 0x201a <main+0x1cb1>
    67a1: f0 03        	beq	$67a6 <readDirectory+0x692>
    67a3: 4c c0 63     	jmp	$63c0 <readDirectory+0x2ac>
    67a6: a0 02        	ldy	#$2
    67a8: b1 18        	lda	($18),y                 ; 0x2018 <main+0x1caf>
    67aa: c9 41        	cmp	#$41
    67ac: 90 06        	bcc	$67b4 <readDirectory+0x6a0>
    67ae: c9 5b        	cmp	#$5b
    67b0: b0 02        	bcs	$67b4 <readDirectory+0x6a0>
    67b2: 09 20        	ora	#$20
    67b4: 85 1b        	sta	$1b                     ; 0x201b <main+0x1cb2>
    67b6: ad 83 92     	lda	$9283                   ; 0x9283 <fpr+0x11eb>
    67b9: c9 41        	cmp	#$41
    67bb: 90 06        	bcc	$67c3 <readDirectory+0x6af>
    67bd: c9 5b        	cmp	#$5b
    67bf: b0 02        	bcs	$67c3 <readDirectory+0x6af>
    67c1: 09 20        	ora	#$20
    67c3: 85 1a        	sta	$1a                     ; 0x201a <main+0x1cb1>
    67c5: a6 1b        	ldx	$1b                     ; 0x201b <main+0x1cb2>
    67c7: e4 1a        	cpx	$1a                     ; 0x201a <main+0x1cb1>
    67c9: f0 03        	beq	$67ce <readDirectory+0x6ba>
    67cb: 4c c0 63     	jmp	$63c0 <readDirectory+0x2ac>
    67ce: a0 03        	ldy	#$3
    67d0: b1 18        	lda	($18),y                 ; 0x2018 <main+0x1caf>
    67d2: c9 41        	cmp	#$41
    67d4: 90 06        	bcc	$67dc <readDirectory+0x6c8>
    67d6: c9 5b        	cmp	#$5b
    67d8: b0 02        	bcs	$67dc <readDirectory+0x6c8>
    67da: 09 20        	ora	#$20
    67dc: 85 19        	sta	$19                     ; 0x2019 <main+0x1cb0>
    67de: ad 84 92     	lda	$9284                   ; 0x9284 <fpr+0x11ec>
    67e1: c9 41        	cmp	#$41
    67e3: 90 06        	bcc	$67eb <readDirectory+0x6d7>
    67e5: c9 5b        	cmp	#$5b
    67e7: b0 02        	bcs	$67eb <readDirectory+0x6d7>
    67e9: 09 20        	ora	#$20
    67eb: 85 18        	sta	$18                     ; 0x2018 <main+0x1caf>
    67ed: a6 19        	ldx	$19                     ; 0x2019 <main+0x1cb0>
    67ef: e4 18        	cpx	$18                     ; 0x2018 <main+0x1caf>
    67f1: f0 03        	beq	$67f6 <readDirectory+0x6e2>
    67f3: 4c c0 63     	jmp	$63c0 <readDirectory+0x2ac>
    67f6: 4c 77 68     	jmp	$6877 <readDirectory+0x763>
    67f9: e0 03        	cpx	#$3
    67fb: f0 03        	beq	$6800 <readDirectory+0x6ec>
    67fd: 4c 14 65     	jmp	$6514 <readDirectory+0x400>
    6800: a6 1d        	ldx	$1d                     ; 0x201d <main+0x1cb4>
    6802: e0 41        	cpx	#$41
    6804: 90 0a        	bcc	$6810 <readDirectory+0x6fc>
    6806: a5 1d        	lda	$1d                     ; 0x201d <main+0x1cb4>
    6808: c9 5b        	cmp	#$5b
    680a: b0 04        	bcs	$6810 <readDirectory+0x6fc>
    680c: 09 20        	ora	#$20
    680e: 85 1d        	sta	$1d                     ; 0x201d <main+0x1cb4>
    6810: a5 22        	lda	$22                     ; 0x2022 <main+0x1cb9>
    6812: c9 41        	cmp	#$41
    6814: 90 06        	bcc	$681c <readDirectory+0x708>
    6816: c9 5b        	cmp	#$5b
    6818: b0 02        	bcs	$681c <readDirectory+0x708>
    681a: 09 20        	ora	#$20
    681c: 85 1a        	sta	$1a                     ; 0x201a <main+0x1cb1>
    681e: a6 1d        	ldx	$1d                     ; 0x201d <main+0x1cb4>
    6820: e4 1a        	cpx	$1a                     ; 0x201a <main+0x1cb1>
    6822: f0 03        	beq	$6827 <readDirectory+0x713>
    6824: 4c 14 65     	jmp	$6514 <readDirectory+0x400>
    6827: a0 02        	ldy	#$2
    6829: b1 18        	lda	($18),y                 ; 0x2018 <main+0x1caf>
    682b: c9 41        	cmp	#$41
    682d: 90 06        	bcc	$6835 <readDirectory+0x721>
    682f: c9 5b        	cmp	#$5b
    6831: b0 02        	bcs	$6835 <readDirectory+0x721>
    6833: 09 20        	ora	#$20
    6835: 85 1b        	sta	$1b                     ; 0x201b <main+0x1cb2>
    6837: ad 89 92     	lda	$9289                   ; 0x9289 <fpr+0x11f1>
    683a: c9 41        	cmp	#$41
    683c: 90 06        	bcc	$6844 <readDirectory+0x730>
    683e: c9 5b        	cmp	#$5b
    6840: b0 02        	bcs	$6844 <readDirectory+0x730>
    6842: 09 20        	ora	#$20
    6844: 85 1a        	sta	$1a                     ; 0x201a <main+0x1cb1>
    6846: a6 1b        	ldx	$1b                     ; 0x201b <main+0x1cb2>
    6848: e4 1a        	cpx	$1a                     ; 0x201a <main+0x1cb1>
    684a: f0 03        	beq	$684f <readDirectory+0x73b>
    684c: 4c 14 65     	jmp	$6514 <readDirectory+0x400>
    684f: a0 03        	ldy	#$3
    6851: b1 18        	lda	($18),y                 ; 0x2018 <main+0x1caf>
    6853: c9 41        	cmp	#$41
    6855: 90 06        	bcc	$685d <readDirectory+0x749>
    6857: c9 5b        	cmp	#$5b
    6859: b0 02        	bcs	$685d <readDirectory+0x749>
    685b: 09 20        	ora	#$20
    685d: 85 19        	sta	$19                     ; 0x2019 <main+0x1cb0>
    685f: ad 8a 92     	lda	$928a                   ; 0x928a <fpr+0x11f2>
    6862: c9 41        	cmp	#$41
    6864: 90 06        	bcc	$686c <readDirectory+0x758>
    6866: c9 5b        	cmp	#$5b
    6868: b0 02        	bcs	$686c <readDirectory+0x758>
    686a: 09 20        	ora	#$20
    686c: 85 18        	sta	$18                     ; 0x2018 <main+0x1caf>
    686e: a6 19        	ldx	$19                     ; 0x2019 <main+0x1cb0>
    6870: e4 18        	cpx	$18                     ; 0x2018 <main+0x1caf>
    6872: f0 03        	beq	$6877 <readDirectory+0x763>
    6874: 4c 14 65     	jmp	$6514 <readDirectory+0x400>
    6877: a6 14        	ldx	$14                     ; 0x2014 <main+0x1cab>
    6879: 86 77        	stx	$77                     ; 0x2077 <main+0x1d0e>
    687b: a6 15        	ldx	$15                     ; 0x2015 <main+0x1cac>
    687d: 86 78        	stx	$78                     ; 0x2078 <main+0x1d0f>
    687f: a2 2c        	ldx	#$2c
    6881: 86 12        	stx	$12                     ; 0x2012 <main+0x1ca9>
    6883: 64 13        	stz	$13                     ; 0x2013 <main+0x1caa>
    6885: a6 1e        	ldx	$1e                     ; 0x201e <main+0x1cb5>
    6887: a5 75        	lda	$75                     ; 0x2075 <main+0x1d0c>
    6889: a4 16        	ldy	$16                     ; 0x2016 <main+0x1cad>
    688b: 84 79        	sty	$79                     ; 0x2079 <main+0x1d10>
    688d: a4 17        	ldy	$17                     ; 0x2017 <main+0x1cae>
    688f: 84 7a        	sty	$7a                     ; 0x207a <main+0x1d11>
    6891: 20 59 7b     	jsr	$7b59 <__mulhi3>
    6894: a4 79        	ldy	$79                     ; 0x2079 <main+0x1d10>
    6896: 84 18        	sty	$18                     ; 0x2018 <main+0x1caf>
    6898: a4 7a        	ldy	$7a                     ; 0x207a <main+0x1d11>
    689a: 84 19        	sty	$19                     ; 0x2019 <main+0x1cb0>
    689c: a4 77        	ldy	$77                     ; 0x2077 <main+0x1d0e>
    689e: 84 12        	sty	$12                     ; 0x2012 <main+0x1ca9>
    68a0: a4 78        	ldy	$78                     ; 0x2078 <main+0x1d0f>
    68a2: 84 13        	sty	$13                     ; 0x2013 <main+0x1caa>
    68a4: 85 14        	sta	$14                     ; 0x2014 <main+0x1cab>
    68a6: 86 15        	stx	$15                     ; 0x2015 <main+0x1cac>
    68a8: a9 e6        	lda	#$e6
    68aa: 18           	clc
    68ab: 65 14        	adc	$14                     ; 0x2014 <main+0x1cab>
    68ad: aa           	tax
    68ae: a9 80        	lda	#$80
    68b0: 65 15        	adc	$15                     ; 0x2015 <main+0x1cac>
    68b2: 86 15        	stx	$15                     ; 0x2015 <main+0x1cac>
    68b4: 86 16        	stx	$16                     ; 0x2016 <main+0x1cad>
    68b6: 85 1b        	sta	$1b                     ; 0x201b <main+0x1cb2>
    68b8: 85 17        	sta	$17                     ; 0x2017 <main+0x1cae>
    68ba: a2 2b        	ldx	#$2b
    68bc: 64 1a        	stz	$1a                     ; 0x201a <main+0x1cb1>
    68be: 64 14        	stz	$14                     ; 0x2014 <main+0x1cab>
    68c0: a4 73        	ldy	$73                     ; 0x2073 <main+0x1d0a>
    68c2: 84 1c        	sty	$1c                     ; 0x201c <main+0x1cb3>
    68c4: a4 74        	ldy	$74                     ; 0x2074 <main+0x1d0b>
    68c6: 84 1d        	sty	$1d                     ; 0x201d <main+0x1cb4>
    68c8: 4c 6a 62     	jmp	$626a <readDirectory+0x156>
    68cb: ca           	dex
    68cc: e0 ff        	cpx	#$ff
    68ce: d0 02        	bne	$68d2 <readDirectory+0x7be>
    68d0: c6 14        	dec	$14                     ; 0x2014 <main+0x1cab>
    68d2: a5 14        	lda	$14                     ; 0x2014 <main+0x1cab>
    68d4: d0 03        	bne	$68d9 <readDirectory+0x7c5>
    68d6: 8a           	txa
    68d7: f0 3e        	beq	$6917 <readDirectory+0x803>
    68d9: 18           	clc
    68da: a5 15        	lda	$15                     ; 0x2015 <main+0x1cac>
    68dc: 65 1a        	adc	$1a                     ; 0x201a <main+0x1cb1>
    68de: 85 12        	sta	$12                     ; 0x2012 <main+0x1ca9>
    68e0: a5 1b        	lda	$1b                     ; 0x201b <main+0x1cb2>
    68e2: 69 00        	adc	#$0
    68e4: a4 16        	ldy	$16                     ; 0x2016 <main+0x1cad>
    68e6: 84 79        	sty	$79                     ; 0x2079 <main+0x1d10>
    68e8: a4 17        	ldy	$17                     ; 0x2017 <main+0x1cae>
    68ea: 84 7a        	sty	$7a                     ; 0x207a <main+0x1d11>
    68ec: 85 13        	sta	$13                     ; 0x2013 <main+0x1caa>
    68ee: e6 12        	inc	$12                     ; 0x2012 <main+0x1ca9>
    68f0: d0 02        	bne	$68f4 <readDirectory+0x7e0>
    68f2: e6 13        	inc	$13                     ; 0x2013 <main+0x1caa>
    68f4: a9 00        	lda	#$0
    68f6: 20 39 7b     	jsr	$7b39 <__memset>
    68f9: a6 79        	ldx	$79                     ; 0x2079 <main+0x1d10>
    68fb: 86 16        	stx	$16                     ; 0x2016 <main+0x1cad>
    68fd: a6 7a        	ldx	$7a                     ; 0x207a <main+0x1d11>
    68ff: 86 17        	stx	$17                     ; 0x2017 <main+0x1cae>
    6901: a6 73        	ldx	$73                     ; 0x2073 <main+0x1d0a>
    6903: 86 12        	stx	$12                     ; 0x2012 <main+0x1ca9>
    6905: a6 74        	ldx	$74                     ; 0x2074 <main+0x1d0b>
    6907: 86 13        	stx	$13                     ; 0x2013 <main+0x1caa>
    6909: a4 12        	ldy	$12                     ; 0x2012 <main+0x1ca9>
    690b: 84 1c        	sty	$1c                     ; 0x201c <main+0x1cb3>
    690d: 86 1d        	stx	$1d                     ; 0x201d <main+0x1cb4>
    690f: a6 77        	ldx	$77                     ; 0x2077 <main+0x1d0e>
    6911: 86 12        	stx	$12                     ; 0x2012 <main+0x1ca9>
    6913: a6 78        	ldx	$78                     ; 0x2078 <main+0x1d0f>
    6915: 86 13        	stx	$13                     ; 0x2013 <main+0x1caa>
    6917: a9 00        	lda	#$0
    6919: a0 2b        	ldy	#$2b
    691b: 91 16        	sta	($16),y                 ; 0x2016 <main+0x1cad>
    691d: a0 01        	ldy	#$1
    691f: b1 12        	lda	($12),y                 ; 0x2012 <main+0x1ca9>
    6921: 2c 8b 7b     	bit	$7b8b                   ; 0x7b8b <__set_v>
    6924: c9 01        	cmp	#$1
    6926: f0 01        	beq	$6929 <readDirectory+0x815>
    6928: b8           	clv
    6929: 98           	tya
    692a: a6 70        	ldx	$70                     ; 0x2070 <main+0x1d07>
    692c: 86 12        	stx	$12                     ; 0x2012 <main+0x1ca9>
    692e: a6 71        	ldx	$71                     ; 0x2071 <main+0x1d08>
    6930: 86 13        	stx	$13                     ; 0x2013 <main+0x1caa>
    6932: a6 72        	ldx	$72                     ; 0x2072 <main+0x1d09>
    6934: 86 1e        	stx	$1e                     ; 0x201e <main+0x1cb5>
    6936: a4 76        	ldy	$76                     ; 0x2076 <main+0x1d0d>
    6938: 70 02        	bvs	$693c <readDirectory+0x828>
    693a: a9 00        	lda	#$0
    693c: 99 17 92     	sta	$9217,y                 ; 0x9217 <fpr+0x117f>
    693f: a6 75        	ldx	$75                     ; 0x2075 <main+0x1d0c>
    6941: e8           	inx
    6942: d0 02        	bne	$6946 <readDirectory+0x832>
    6944: e6 1e        	inc	$1e                     ; 0x201e <main+0x1cb5>
    6946: c8           	iny
    6947: a5 1c        	lda	$1c                     ; 0x201c <main+0x1cb3>
    6949: 18           	clc
    694a: 69 2c        	adc	#$2c
    694c: 85 14        	sta	$14                     ; 0x2014 <main+0x1cab>
    694e: a5 1d        	lda	$1d                     ; 0x201d <main+0x1cb4>
    6950: 69 00        	adc	#$0
    6952: 85 15        	sta	$15                     ; 0x2015 <main+0x1cac>
    6954: 84 16        	sty	$16                     ; 0x2016 <main+0x1cad>
    6956: a5 1e        	lda	$1e                     ; 0x201e <main+0x1cb5>
    6958: f0 03        	beq	$695d <readDirectory+0x849>
    695a: 4c 53 62     	jmp	$6253 <readDirectory+0x13f>
    695d: e0 64        	cpx	#$64
    695f: f0 03        	beq	$6964 <readDirectory+0x850>
    6961: 4c 53 62     	jmp	$6253 <readDirectory+0x13f>
    6964: 20 cd 4c     	jsr	$4ccd <fileReadDir>
    6967: a0 64        	ldy	#$64
    6969: a2 00        	ldx	#$0
    696b: 4c f0 65     	jmp	$65f0 <readDirectory+0x4dc>

0000696e <initVS1053Plugin>:
    696e: a4 24        	ldy	$24                     ; 0x2024 <main+0x1cbb>
    6970: 5a           	phy
    6971: a4 25        	ldy	$25                     ; 0x2025 <main+0x1cbc>
    6973: 5a           	phy
    6974: 85 1a        	sta	$1a                     ; 0x201a <main+0x1cb1>
    6976: 86 16        	stx	$16                     ; 0x2016 <main+0x1cad>
    6978: a6 12        	ldx	$12                     ; 0x2012 <main+0x1ca9>
    697a: 86 17        	stx	$17                     ; 0x2017 <main+0x1cae>
    697c: a6 13        	ldx	$13                     ; 0x2013 <main+0x1caa>
    697e: 86 19        	stx	$19                     ; 0x2019 <main+0x1cb0>
    6980: 64 1c        	stz	$1c                     ; 0x201c <main+0x1cb3>
    6982: 64 18        	stz	$18                     ; 0x2018 <main+0x1caf>
    6984: a4 0f        	ldy	$f                      ; 0x200f <main+0x1ca6>
    6986: 78           	sei
    6987: a6 16        	ldx	$16                     ; 0x2016 <main+0x1cad>
    6989: 86 1d        	stx	$1d                     ; 0x201d <main+0x1cb4>
    698b: a6 16        	ldx	$16                     ; 0x2016 <main+0x1cad>
    698d: 86 12        	stx	$12                     ; 0x2012 <main+0x1ca9>
    698f: 06 12        	asl	$12                     ; 0x2012 <main+0x1ca9>
    6991: a6 17        	ldx	$17                     ; 0x2017 <main+0x1cae>
    6993: 86 22        	stx	$22                     ; 0x2022 <main+0x1cb9>
    6995: a5 17        	lda	$17                     ; 0x2017 <main+0x1cae>
    6997: 2a           	rol
    6998: 06 12        	asl	$12                     ; 0x2012 <main+0x1ca9>
    699a: 2a           	rol
    699b: 06 12        	asl	$12                     ; 0x2012 <main+0x1ca9>
    699d: 2a           	rol
    699e: 85 0f        	sta	$f                      ; 0x200f <main+0x1ca6>
    69a0: a5 16        	lda	$16                     ; 0x2016 <main+0x1cad>
    69a2: 09 e0        	ora	#$e0
    69a4: a6 1a        	ldx	$1a                     ; 0x201a <main+0x1cb1>
    69a6: 86 12        	stx	$12                     ; 0x2012 <main+0x1ca9>
    69a8: 85 13        	sta	$13                     ; 0x2013 <main+0x1caa>
    69aa: b2 12        	lda	($12)                   ; 0x2012 <main+0x1ca9>
    69ac: 85 1e        	sta	$1e                     ; 0x201e <main+0x1cb5>
    69ae: 84 0f        	sty	$f                      ; 0x200f <main+0x1ca6>
    69b0: 58           	cli
    69b1: a6 1a        	ldx	$1a                     ; 0x201a <main+0x1cb1>
    69b3: a4 16        	ldy	$16                     ; 0x2016 <main+0x1cad>
    69b5: 84 13        	sty	$13                     ; 0x2013 <main+0x1caa>
    69b7: a5 17        	lda	$17                     ; 0x2017 <main+0x1cae>
    69b9: a4 19        	ldy	$19                     ; 0x2019 <main+0x1cb0>
    69bb: 84 1b        	sty	$1b                     ; 0x201b <main+0x1cb2>
    69bd: a4 19        	ldy	$19                     ; 0x2019 <main+0x1cb0>
    69bf: e8           	inx
    69c0: d0 08        	bne	$69ca <initVS1053Plugin+0x5c>
    69c2: e6 13        	inc	$13                     ; 0x2013 <main+0x1caa>
    69c4: d0 04        	bne	$69ca <initVS1053Plugin+0x5c>
    69c6: 1a           	inc
    69c7: d0 01        	bne	$69ca <initVS1053Plugin+0x5c>
    69c9: c8           	iny
    69ca: a4 0f        	ldy	$f                      ; 0x200f <main+0x1ca6>
    69cc: 78           	sei
    69cd: 48           	pha
    69ce: a5 13        	lda	$13                     ; 0x2013 <main+0x1caa>
    69d0: 85 12        	sta	$12                     ; 0x2012 <main+0x1ca9>
    69d2: 68           	pla
    69d3: 06 12        	asl	$12                     ; 0x2012 <main+0x1ca9>
    69d5: 2a           	rol
    69d6: 06 12        	asl	$12                     ; 0x2012 <main+0x1ca9>
    69d8: 2a           	rol
    69d9: 06 12        	asl	$12                     ; 0x2012 <main+0x1ca9>
    69db: 2a           	rol
    69dc: 85 0f        	sta	$f                      ; 0x200f <main+0x1ca6>
    69de: a5 13        	lda	$13                     ; 0x2013 <main+0x1caa>
    69e0: 09 e0        	ora	#$e0
    69e2: 86 12        	stx	$12                     ; 0x2012 <main+0x1ca9>
    69e4: 85 13        	sta	$13                     ; 0x2013 <main+0x1caa>
    69e6: b2 12        	lda	($12)                   ; 0x2012 <main+0x1ca9>
    69e8: 85 1f        	sta	$1f                     ; 0x201f <main+0x1cb6>
    69ea: 84 0f        	sty	$f                      ; 0x200f <main+0x1ca6>
    69ec: 58           	cli
    69ed: 18           	clc
    69ee: a5 1a        	lda	$1a                     ; 0x201a <main+0x1cb1>
    69f0: 69 02        	adc	#$2
    69f2: a8           	tay
    69f3: a5 16        	lda	$16                     ; 0x2016 <main+0x1cad>
    69f5: 69 00        	adc	#$0
    69f7: 85 13        	sta	$13                     ; 0x2013 <main+0x1caa>
    69f9: a5 17        	lda	$17                     ; 0x2017 <main+0x1cae>
    69fb: 69 00        	adc	#$0
    69fd: a6 13        	ldx	$13                     ; 0x2013 <main+0x1caa>
    69ff: 86 12        	stx	$12                     ; 0x2012 <main+0x1ca9>
    6a01: 06 12        	asl	$12                     ; 0x2012 <main+0x1ca9>
    6a03: 2a           	rol
    6a04: 06 12        	asl	$12                     ; 0x2012 <main+0x1ca9>
    6a06: 2a           	rol
    6a07: 06 12        	asl	$12                     ; 0x2012 <main+0x1ca9>
    6a09: 2a           	rol
    6a0a: a6 0f        	ldx	$f                      ; 0x200f <main+0x1ca6>
    6a0c: 78           	sei
    6a0d: 85 0f        	sta	$f                      ; 0x200f <main+0x1ca6>
    6a0f: a5 13        	lda	$13                     ; 0x2013 <main+0x1caa>
    6a11: 09 e0        	ora	#$e0
    6a13: 84 12        	sty	$12                     ; 0x2012 <main+0x1ca9>
    6a15: 85 13        	sta	$13                     ; 0x2013 <main+0x1caa>
    6a17: b2 12        	lda	($12)                   ; 0x2012 <main+0x1ca9>
    6a19: 85 12        	sta	$12                     ; 0x2012 <main+0x1ca9>
    6a1b: 86 0f        	stx	$f                      ; 0x200f <main+0x1ca6>
    6a1d: 58           	cli
    6a1e: 18           	clc
    6a1f: a5 1a        	lda	$1a                     ; 0x201a <main+0x1cb1>
    6a21: 69 03        	adc	#$3
    6a23: a8           	tay
    6a24: a5 16        	lda	$16                     ; 0x2016 <main+0x1cad>
    6a26: 69 00        	adc	#$0
    6a28: 85 17        	sta	$17                     ; 0x2017 <main+0x1cae>
    6a2a: a5 22        	lda	$22                     ; 0x2022 <main+0x1cb9>
    6a2c: 69 00        	adc	#$0
    6a2e: a6 17        	ldx	$17                     ; 0x2017 <main+0x1cae>
    6a30: 86 13        	stx	$13                     ; 0x2013 <main+0x1caa>
    6a32: 06 13        	asl	$13                     ; 0x2013 <main+0x1caa>
    6a34: 2a           	rol
    6a35: 06 13        	asl	$13                     ; 0x2013 <main+0x1caa>
    6a37: 2a           	rol
    6a38: 06 13        	asl	$13                     ; 0x2013 <main+0x1caa>
    6a3a: 2a           	rol
    6a3b: a6 0f        	ldx	$f                      ; 0x200f <main+0x1ca6>
    6a3d: 78           	sei
    6a3e: 85 0f        	sta	$f                      ; 0x200f <main+0x1ca6>
    6a40: a5 17        	lda	$17                     ; 0x2017 <main+0x1cae>
    6a42: 09 e0        	ora	#$e0
    6a44: 84 16        	sty	$16                     ; 0x2016 <main+0x1cad>
    6a46: 85 17        	sta	$17                     ; 0x2017 <main+0x1cae>
    6a48: b2 16        	lda	($16)                   ; 0x2016 <main+0x1cad>
    6a4a: 85 25        	sta	$25                     ; 0x2025 <main+0x1cbc>
    6a4c: 85 13        	sta	$13                     ; 0x2013 <main+0x1caa>
    6a4e: 86 0f        	stx	$f                      ; 0x200f <main+0x1ca6>
    6a50: 58           	cli
    6a51: 18           	clc
    6a52: a5 1a        	lda	$1a                     ; 0x201a <main+0x1cb1>
    6a54: 69 04        	adc	#$4
    6a56: 85 23        	sta	$23                     ; 0x2023 <main+0x1cba>
    6a58: a5 1d        	lda	$1d                     ; 0x201d <main+0x1cb4>
    6a5a: 69 00        	adc	#$0
    6a5c: 85 17        	sta	$17                     ; 0x2017 <main+0x1cae>
    6a5e: a5 22        	lda	$22                     ; 0x2022 <main+0x1cb9>
    6a60: 69 00        	adc	#$0
    6a62: a0 01        	ldy	#$1
    6a64: b0 02        	bcs	$6a68 <initVS1053Plugin+0xfa>
    6a66: a0 00        	ldy	#$0
    6a68: 85 24        	sta	$24                     ; 0x2024 <main+0x1cbb>
    6a6a: a5 13        	lda	$13                     ; 0x2013 <main+0x1caa>
    6a6c: 10 03        	bpl	$6a71 <initVS1053Plugin+0x103>
    6a6e: 4c a0 6b     	jmp	$6ba0 <initVS1053Plugin+0x232>
    6a71: a5 19        	lda	$19                     ; 0x2019 <main+0x1cb0>
    6a73: c0 01        	cpy	#$1
    6a75: 69 00        	adc	#$0
    6a77: aa           	tax
    6a78: 18           	clc
    6a79: a5 1c        	lda	$1c                     ; 0x201c <main+0x1cb3>
    6a7b: 69 02        	adc	#$2
    6a7d: 85 1c        	sta	$1c                     ; 0x201c <main+0x1cb3>
    6a7f: a5 18        	lda	$18                     ; 0x2018 <main+0x1caf>
    6a81: 69 00        	adc	#$0
    6a83: 85 1d        	sta	$1d                     ; 0x201d <main+0x1cb4>
    6a85: a4 12        	ldy	$12                     ; 0x2012 <main+0x1ca9>
    6a87: 48           	pha
    6a88: a5 13        	lda	$13                     ; 0x2013 <main+0x1caa>
    6a8a: 85 16        	sta	$16                     ; 0x2016 <main+0x1cad>
    6a8c: 68           	pla
    6a8d: 86 19        	stx	$19                     ; 0x2019 <main+0x1cb0>
    6a8f: a6 13        	ldx	$13                     ; 0x2013 <main+0x1caa>
    6a91: d0 22        	bne	$6ab5 <initVS1053Plugin+0x147>
    6a93: a6 12        	ldx	$12                     ; 0x2012 <main+0x1ca9>
    6a95: d0 1e        	bne	$6ab5 <initVS1053Plugin+0x147>
    6a97: a6 23        	ldx	$23                     ; 0x2023 <main+0x1cba>
    6a99: 86 1a        	stx	$1a                     ; 0x201a <main+0x1cb1>
    6a9b: a6 17        	ldx	$17                     ; 0x2017 <main+0x1cae>
    6a9d: 86 16        	stx	$16                     ; 0x2016 <main+0x1cad>
    6a9f: a6 24        	ldx	$24                     ; 0x2024 <main+0x1cbb>
    6aa1: 86 17        	stx	$17                     ; 0x2017 <main+0x1cae>
    6aa3: aa           	tax
    6aa4: e4 15        	cpx	$15                     ; 0x2015 <main+0x1cac>
    6aa6: d0 03        	bne	$6aab <initVS1053Plugin+0x13d>
    6aa8: 4c 92 6b     	jmp	$6b92 <initVS1053Plugin+0x224>
    6aab: 4c 72 6c     	jmp	$6c72 <initVS1053Plugin+0x304>
    6aae: a5 16        	lda	$16                     ; 0x2016 <main+0x1cad>
    6ab0: d0 03        	bne	$6ab5 <initVS1053Plugin+0x147>
    6ab2: 4c 62 6b     	jmp	$6b62 <initVS1053Plugin+0x1f4>
    6ab5: a6 0f        	ldx	$f                      ; 0x200f <main+0x1ca6>
    6ab7: 78           	sei
    6ab8: 5a           	phy
    6ab9: a4 17        	ldy	$17                     ; 0x2017 <main+0x1cae>
    6abb: 84 22        	sty	$22                     ; 0x2022 <main+0x1cb9>
    6abd: 06 17        	asl	$17                     ; 0x2017 <main+0x1cae>
    6abf: a4 19        	ldy	$19                     ; 0x2019 <main+0x1cb0>
    6ac1: 84 1a        	sty	$1a                     ; 0x201a <main+0x1cb1>
    6ac3: a5 24        	lda	$24                     ; 0x2024 <main+0x1cbb>
    6ac5: 2a           	rol
    6ac6: 06 17        	asl	$17                     ; 0x2017 <main+0x1cae>
    6ac8: 2a           	rol
    6ac9: 06 17        	asl	$17                     ; 0x2017 <main+0x1cae>
    6acb: 2a           	rol
    6acc: 85 0f        	sta	$f                      ; 0x200f <main+0x1ca6>
    6ace: a5 22        	lda	$22                     ; 0x2022 <main+0x1cb9>
    6ad0: 09 e0        	ora	#$e0
    6ad2: a4 23        	ldy	$23                     ; 0x2023 <main+0x1cba>
    6ad4: 84 17        	sty	$17                     ; 0x2017 <main+0x1cae>
    6ad6: a4 23        	ldy	$23                     ; 0x2023 <main+0x1cba>
    6ad8: 84 18        	sty	$18                     ; 0x2018 <main+0x1caf>
    6ada: 85 19        	sta	$19                     ; 0x2019 <main+0x1cb0>
    6adc: b2 18        	lda	($18)                   ; 0x2018 <main+0x1caf>
    6ade: 85 25        	sta	$25                     ; 0x2025 <main+0x1cbc>
    6ae0: 86 0f        	stx	$f                      ; 0x200f <main+0x1ca6>
    6ae2: 58           	cli
    6ae3: a5 24        	lda	$24                     ; 0x2024 <main+0x1cbb>
    6ae5: a6 1a        	ldx	$1a                     ; 0x201a <main+0x1cb1>
    6ae7: 86 1b        	stx	$1b                     ; 0x201b <main+0x1cb2>
    6ae9: a6 1a        	ldx	$1a                     ; 0x201a <main+0x1cb1>
    6aeb: a4 22        	ldy	$22                     ; 0x2022 <main+0x1cb9>
    6aed: 84 1a        	sty	$1a                     ; 0x201a <main+0x1cb1>
    6aef: e6 17        	inc	$17                     ; 0x2017 <main+0x1cae>
    6af1: d0 08        	bne	$6afb <initVS1053Plugin+0x18d>
    6af3: e6 22        	inc	$22                     ; 0x2022 <main+0x1cb9>
    6af5: d0 04        	bne	$6afb <initVS1053Plugin+0x18d>
    6af7: 1a           	inc
    6af8: d0 01        	bne	$6afb <initVS1053Plugin+0x18d>
    6afa: e8           	inx
    6afb: a6 22        	ldx	$22                     ; 0x2022 <main+0x1cb9>
    6afd: 86 18        	stx	$18                     ; 0x2018 <main+0x1caf>
    6aff: 06 18        	asl	$18                     ; 0x2018 <main+0x1caf>
    6b01: 2a           	rol
    6b02: 06 18        	asl	$18                     ; 0x2018 <main+0x1caf>
    6b04: 2a           	rol
    6b05: 06 18        	asl	$18                     ; 0x2018 <main+0x1caf>
    6b07: 2a           	rol
    6b08: a6 0f        	ldx	$f                      ; 0x200f <main+0x1ca6>
    6b0a: 78           	sei
    6b0b: 85 0f        	sta	$f                      ; 0x200f <main+0x1ca6>
    6b0d: a5 22        	lda	$22                     ; 0x2022 <main+0x1cb9>
    6b0f: 09 e0        	ora	#$e0
    6b11: a4 17        	ldy	$17                     ; 0x2017 <main+0x1cae>
    6b13: 84 18        	sty	$18                     ; 0x2018 <main+0x1caf>
    6b15: 7a           	ply
    6b16: 85 19        	sta	$19                     ; 0x2019 <main+0x1cb0>
    6b18: b2 18        	lda	($18)                   ; 0x2018 <main+0x1caf>
    6b1a: 86 0f        	stx	$f                      ; 0x200f <main+0x1ca6>
    6b1c: 58           	cli
    6b1d: a6 1e        	ldx	$1e                     ; 0x201e <main+0x1cb5>
    6b1f: 8e 01 d7     	stx	$d701                   ; 0xd701 <__heap_start+0x4431>
    6b22: a6 1f        	ldx	$1f                     ; 0x201f <main+0x1cb6>
    6b24: 8e 02 d7     	stx	$d702                   ; 0xd702 <__heap_start+0x4432>
    6b27: a6 25        	ldx	$25                     ; 0x2025 <main+0x1cbc>
    6b29: 8e 02 d7     	stx	$d702                   ; 0xd702 <__heap_start+0x4432>
    6b2c: 8d 03 d7     	sta	$d703                   ; 0xd703 <__heap_start+0x4433>
    6b2f: a2 01        	ldx	#$1
    6b31: 8e 00 d7     	stx	$d700                   ; 0xd700 <__heap_start+0x4430>
    6b34: 9c 00 d7     	stz	$d700                   ; 0xd700 <__heap_start+0x4430>
    6b37: ae 00 d7     	ldx	$d700                   ; 0xd700 <__heap_start+0x4430>
    6b3a: 30 fb        	bmi	$6b37 <initVS1053Plugin+0x1c9>
    6b3c: 18           	clc
    6b3d: a5 23        	lda	$23                     ; 0x2023 <main+0x1cba>
    6b3f: 69 02        	adc	#$2
    6b41: 85 23        	sta	$23                     ; 0x2023 <main+0x1cba>
    6b43: a5 1a        	lda	$1a                     ; 0x201a <main+0x1cb1>
    6b45: 69 00        	adc	#$0
    6b47: 85 17        	sta	$17                     ; 0x2017 <main+0x1cae>
    6b49: a5 24        	lda	$24                     ; 0x2024 <main+0x1cbb>
    6b4b: 69 00        	adc	#$0
    6b4d: 85 24        	sta	$24                     ; 0x2024 <main+0x1cbb>
    6b4f: a5 1b        	lda	$1b                     ; 0x201b <main+0x1cb2>
    6b51: 69 00        	adc	#$0
    6b53: 85 19        	sta	$19                     ; 0x2019 <main+0x1cb0>
    6b55: 88           	dey
    6b56: c0 ff        	cpy	#$ff
    6b58: f0 03        	beq	$6b5d <initVS1053Plugin+0x1ef>
    6b5a: 4c ae 6a     	jmp	$6aae <initVS1053Plugin+0x140>
    6b5d: c6 16        	dec	$16                     ; 0x2016 <main+0x1cad>
    6b5f: 4c ae 6a     	jmp	$6aae <initVS1053Plugin+0x140>
    6b62: 98           	tya
    6b63: f0 03        	beq	$6b68 <initVS1053Plugin+0x1fa>
    6b65: 4c b5 6a     	jmp	$6ab5 <initVS1053Plugin+0x147>
    6b68: 18           	clc
    6b69: a5 1c        	lda	$1c                     ; 0x201c <main+0x1cb3>
    6b6b: 69 00        	adc	#$0
    6b6d: aa           	tax
    6b6e: a5 1d        	lda	$1d                     ; 0x201d <main+0x1cb4>
    6b70: 65 13        	adc	$13                     ; 0x2013 <main+0x1caa>
    6b72: 85 13        	sta	$13                     ; 0x2013 <main+0x1caa>
    6b74: 18           	clc
    6b75: 8a           	txa
    6b76: 65 12        	adc	$12                     ; 0x2012 <main+0x1ca9>
    6b78: 85 1c        	sta	$1c                     ; 0x201c <main+0x1cb3>
    6b7a: a5 13        	lda	$13                     ; 0x2013 <main+0x1caa>
    6b7c: 69 00        	adc	#$0
    6b7e: aa           	tax
    6b7f: a4 23        	ldy	$23                     ; 0x2023 <main+0x1cba>
    6b81: 84 1a        	sty	$1a                     ; 0x201a <main+0x1cb1>
    6b83: a4 17        	ldy	$17                     ; 0x2017 <main+0x1cae>
    6b85: 84 16        	sty	$16                     ; 0x2016 <main+0x1cad>
    6b87: a4 24        	ldy	$24                     ; 0x2024 <main+0x1cbb>
    6b89: 84 17        	sty	$17                     ; 0x2017 <main+0x1cae>
    6b8b: e4 15        	cpx	$15                     ; 0x2015 <main+0x1cac>
    6b8d: f0 03        	beq	$6b92 <initVS1053Plugin+0x224>
    6b8f: 4c 72 6c     	jmp	$6c72 <initVS1053Plugin+0x304>
    6b92: 86 18        	stx	$18                     ; 0x2018 <main+0x1caf>
    6b94: a6 1c        	ldx	$1c                     ; 0x201c <main+0x1cb3>
    6b96: e4 14        	cpx	$14                     ; 0x2014 <main+0x1cab>
    6b98: b0 03        	bcs	$6b9d <initVS1053Plugin+0x22f>
    6b9a: 4c 84 69     	jmp	$6984 <initVS1053Plugin+0x16>
    6b9d: 4c 7b 6c     	jmp	$6c7b <initVS1053Plugin+0x30d>
    6ba0: a6 1d        	ldx	$1d                     ; 0x201d <main+0x1cb4>
    6ba2: a4 22        	ldy	$22                     ; 0x2022 <main+0x1cb9>
    6ba4: 84 19        	sty	$19                     ; 0x2019 <main+0x1cb0>
    6ba6: a4 0f        	ldy	$f                      ; 0x200f <main+0x1ca6>
    6ba8: 78           	sei
    6ba9: a5 17        	lda	$17                     ; 0x2017 <main+0x1cae>
    6bab: 85 13        	sta	$13                     ; 0x2013 <main+0x1caa>
    6bad: 85 16        	sta	$16                     ; 0x2016 <main+0x1cad>
    6baf: 06 13        	asl	$13                     ; 0x2013 <main+0x1caa>
    6bb1: a5 24        	lda	$24                     ; 0x2024 <main+0x1cbb>
    6bb3: 2a           	rol
    6bb4: 06 13        	asl	$13                     ; 0x2013 <main+0x1caa>
    6bb6: 2a           	rol
    6bb7: 06 13        	asl	$13                     ; 0x2013 <main+0x1caa>
    6bb9: 2a           	rol
    6bba: 85 0f        	sta	$f                      ; 0x200f <main+0x1ca6>
    6bbc: a5 16        	lda	$16                     ; 0x2016 <main+0x1cad>
    6bbe: 09 e0        	ora	#$e0
    6bc0: 5a           	phy
    6bc1: a4 23        	ldy	$23                     ; 0x2023 <main+0x1cba>
    6bc3: 84 16        	sty	$16                     ; 0x2016 <main+0x1cad>
    6bc5: 7a           	ply
    6bc6: 85 17        	sta	$17                     ; 0x2017 <main+0x1cae>
    6bc8: b2 16        	lda	($16)                   ; 0x2016 <main+0x1cad>
    6bca: 85 1d        	sta	$1d                     ; 0x201d <main+0x1cb4>
    6bcc: 84 0f        	sty	$f                      ; 0x200f <main+0x1ca6>
    6bce: 58           	cli
    6bcf: 18           	clc
    6bd0: a5 1a        	lda	$1a                     ; 0x201a <main+0x1cb1>
    6bd2: 69 05        	adc	#$5
    6bd4: 85 16        	sta	$16                     ; 0x2016 <main+0x1cad>
    6bd6: 86 22        	stx	$22                     ; 0x2022 <main+0x1cb9>
    6bd8: 8a           	txa
    6bd9: 69 00        	adc	#$0
    6bdb: a8           	tay
    6bdc: a5 19        	lda	$19                     ; 0x2019 <main+0x1cb0>
    6bde: 69 00        	adc	#$0
    6be0: 84 13        	sty	$13                     ; 0x2013 <main+0x1caa>
    6be2: 06 13        	asl	$13                     ; 0x2013 <main+0x1caa>
    6be4: 2a           	rol
    6be5: 06 13        	asl	$13                     ; 0x2013 <main+0x1caa>
    6be7: 2a           	rol
    6be8: 06 13        	asl	$13                     ; 0x2013 <main+0x1caa>
    6bea: 2a           	rol
    6beb: a6 0f        	ldx	$f                      ; 0x200f <main+0x1ca6>
    6bed: 78           	sei
    6bee: 85 0f        	sta	$f                      ; 0x200f <main+0x1ca6>
    6bf0: a5 25        	lda	$25                     ; 0x2025 <main+0x1cbc>
    6bf2: 29 7f        	and	#$7f
    6bf4: 85 23        	sta	$23                     ; 0x2023 <main+0x1cba>
    6bf6: 98           	tya
    6bf7: 09 e0        	ora	#$e0
    6bf9: 85 17        	sta	$17                     ; 0x2017 <main+0x1cae>
    6bfb: b2 16        	lda	($16)                   ; 0x2016 <main+0x1cad>
    6bfd: 85 13        	sta	$13                     ; 0x2013 <main+0x1caa>
    6bff: 86 0f        	stx	$f                      ; 0x200f <main+0x1ca6>
    6c01: 58           	cli
    6c02: 18           	clc
    6c03: a5 1a        	lda	$1a                     ; 0x201a <main+0x1cb1>
    6c05: 69 06        	adc	#$6
    6c07: 85 1a        	sta	$1a                     ; 0x201a <main+0x1cb1>
    6c09: a5 22        	lda	$22                     ; 0x2022 <main+0x1cb9>
    6c0b: 69 00        	adc	#$0
    6c0d: 85 16        	sta	$16                     ; 0x2016 <main+0x1cad>
    6c0f: a5 19        	lda	$19                     ; 0x2019 <main+0x1cb0>
    6c11: 69 00        	adc	#$0
    6c13: 85 17        	sta	$17                     ; 0x2017 <main+0x1cae>
    6c15: a5 1b        	lda	$1b                     ; 0x201b <main+0x1cb2>
    6c17: 69 00        	adc	#$0
    6c19: a8           	tay
    6c1a: 18           	clc
    6c1b: a5 1c        	lda	$1c                     ; 0x201c <main+0x1cb3>
    6c1d: 69 03        	adc	#$3
    6c1f: 85 1c        	sta	$1c                     ; 0x201c <main+0x1cb3>
    6c21: a5 18        	lda	$18                     ; 0x2018 <main+0x1caf>
    6c23: 69 00        	adc	#$0
    6c25: aa           	tax
    6c26: a5 23        	lda	$23                     ; 0x2023 <main+0x1cba>
    6c28: d0 06        	bne	$6c30 <initVS1053Plugin+0x2c2>
    6c2a: e6 12        	inc	$12                     ; 0x2012 <main+0x1ca9>
    6c2c: c6 12        	dec	$12                     ; 0x2012 <main+0x1ca9>
    6c2e: f0 52        	beq	$6c82 <initVS1053Plugin+0x314>
    6c30: 86 18        	stx	$18                     ; 0x2018 <main+0x1caf>
    6c32: 80 03        	bra	$6c37 <initVS1053Plugin+0x2c9>
    6c34: aa           	tax
    6c35: f0 2c        	beq	$6c63 <initVS1053Plugin+0x2f5>
    6c37: a6 1e        	ldx	$1e                     ; 0x201e <main+0x1cb5>
    6c39: 8e 01 d7     	stx	$d701                   ; 0xd701 <__heap_start+0x4431>
    6c3c: a6 1f        	ldx	$1f                     ; 0x201f <main+0x1cb6>
    6c3e: 8e 02 d7     	stx	$d702                   ; 0xd702 <__heap_start+0x4432>
    6c41: a6 1d        	ldx	$1d                     ; 0x201d <main+0x1cb4>
    6c43: 8e 02 d7     	stx	$d702                   ; 0xd702 <__heap_start+0x4432>
    6c46: a6 13        	ldx	$13                     ; 0x2013 <main+0x1caa>
    6c48: 8e 03 d7     	stx	$d703                   ; 0xd703 <__heap_start+0x4433>
    6c4b: a2 01        	ldx	#$1
    6c4d: 8e 00 d7     	stx	$d700                   ; 0xd700 <__heap_start+0x4430>
    6c50: 9c 00 d7     	stz	$d700                   ; 0xd700 <__heap_start+0x4430>
    6c53: ae 00 d7     	ldx	$d700                   ; 0xd700 <__heap_start+0x4430>
    6c56: 30 fb        	bmi	$6c53 <initVS1053Plugin+0x2e5>
    6c58: a2 ff        	ldx	#$ff
    6c5a: c6 12        	dec	$12                     ; 0x2012 <main+0x1ca9>
    6c5c: e4 12        	cpx	$12                     ; 0x2012 <main+0x1ca9>
    6c5e: d0 d4        	bne	$6c34 <initVS1053Plugin+0x2c6>
    6c60: 3a           	dec
    6c61: 80 d1        	bra	$6c34 <initVS1053Plugin+0x2c6>
    6c63: a6 12        	ldx	$12                     ; 0x2012 <main+0x1ca9>
    6c65: d0 d0        	bne	$6c37 <initVS1053Plugin+0x2c9>
    6c67: a6 18        	ldx	$18                     ; 0x2018 <main+0x1caf>
    6c69: 84 19        	sty	$19                     ; 0x2019 <main+0x1cb0>
    6c6b: e4 15        	cpx	$15                     ; 0x2015 <main+0x1cac>
    6c6d: d0 03        	bne	$6c72 <initVS1053Plugin+0x304>
    6c6f: 4c 92 6b     	jmp	$6b92 <initVS1053Plugin+0x224>
    6c72: 86 18        	stx	$18                     ; 0x2018 <main+0x1caf>
    6c74: e4 15        	cpx	$15                     ; 0x2015 <main+0x1cac>
    6c76: b0 03        	bcs	$6c7b <initVS1053Plugin+0x30d>
    6c78: 4c 84 69     	jmp	$6984 <initVS1053Plugin+0x16>
    6c7b: fa           	plx
    6c7c: 86 25        	stx	$25                     ; 0x2025 <main+0x1cbc>
    6c7e: fa           	plx
    6c7f: 86 24        	stx	$24                     ; 0x2024 <main+0x1cbb>
    6c81: 60           	rts
    6c82: 84 19        	sty	$19                     ; 0x2019 <main+0x1cb0>
    6c84: e4 15        	cpx	$15                     ; 0x2015 <main+0x1cac>
    6c86: d0 ea        	bne	$6c72 <initVS1053Plugin+0x304>
    6c88: 4c 92 6b     	jmp	$6b92 <initVS1053Plugin+0x224>

00006c8b <exit>:
    6c8b: 20 2b 03     	jsr	$32b <_fini>
    6c8e: 80 fe        	bra	$6c8e <exit+0x3>

00006c90 <_ZN12_GLOBAL__N_15printEPKcP6Status>:
    6c90: a6 14        	ldx	$14                     ; 0x2014 <main+0x1cab>
    6c92: 86 96        	stx	$96                     ; 0x2096 <main+0x1d2d>
    6c94: a6 15        	ldx	$15                     ; 0x2015 <main+0x1cac>
    6c96: 86 97        	stx	$97                     ; 0x2097 <main+0x1d2e>
    6c98: a6 12        	ldx	$12                     ; 0x2012 <main+0x1ca9>
    6c9a: 86 14        	stx	$14                     ; 0x2014 <main+0x1cab>
    6c9c: a6 13        	ldx	$13                     ; 0x2013 <main+0x1caa>
    6c9e: 86 15        	stx	$15                     ; 0x2015 <main+0x1cac>
    6ca0: e6 14        	inc	$14                     ; 0x2014 <main+0x1cab>
    6ca2: d0 02        	bne	$6ca6 <_ZN12_GLOBAL__N_15printEPKcP6Status+0x16>
    6ca4: e6 15        	inc	$15                     ; 0x2015 <main+0x1cac>
    6ca6: a0 01        	ldy	#$1
    6ca8: b1 12        	lda	($12),y                 ; 0x2012 <main+0x1ca9>
    6caa: c9 25        	cmp	#$25
    6cac: d0 23        	bne	$6cd1 <_ZN12_GLOBAL__N_15printEPKcP6Status+0x41>
    6cae: a9 25        	lda	#$25
    6cb0: a6 12        	ldx	$12                     ; 0x2012 <main+0x1ca9>
    6cb2: 86 98        	stx	$98                     ; 0x2098 <main+0x1d2f>
    6cb4: a6 13        	ldx	$13                     ; 0x2013 <main+0x1caa>
    6cb6: 86 99        	stx	$99                     ; 0x2099 <main+0x1d30>
    6cb8: a6 96        	ldx	$96                     ; 0x2096 <main+0x1d2d>
    6cba: 86 12        	stx	$12                     ; 0x2012 <main+0x1ca9>
    6cbc: a6 97        	ldx	$97                     ; 0x2097 <main+0x1d2e>
    6cbe: 86 13        	stx	$13                     ; 0x2013 <main+0x1caa>
    6cc0: 20 c4 77     	jsr	$77c4 <_ZN12_GLOBAL__N_13putEcP6Status>
    6cc3: a5 98        	lda	$98                     ; 0x2098 <main+0x1d2f>
    6cc5: 18           	clc
    6cc6: 69 02        	adc	#$2
    6cc8: 85 12        	sta	$12                     ; 0x2012 <main+0x1ca9>
    6cca: a5 99        	lda	$99                     ; 0x2099 <main+0x1d30>
    6ccc: 69 00        	adc	#$0
    6cce: 85 13        	sta	$13                     ; 0x2013 <main+0x1caa>
    6cd0: 60           	rts
    6cd1: 18           	clc
    6cd2: a5 96        	lda	$96                     ; 0x2096 <main+0x1d2d>
    6cd4: 69 0b        	adc	#$b
    6cd6: 85 18        	sta	$18                     ; 0x2018 <main+0x1caf>
    6cd8: a5 97        	lda	$97                     ; 0x2097 <main+0x1d2e>
    6cda: 69 00        	adc	#$0
    6cdc: 85 19        	sta	$19                     ; 0x2019 <main+0x1cb0>
    6cde: a2 10        	ldx	#$10
    6ce0: 86 bf        	stx	$bf                     ; 0x20bf <main+0x1d56>
    6ce2: a9 00        	lda	#$0
    6ce4: a0 0b        	ldy	#$b
    6ce6: 91 96        	sta	($96),y                 ; 0x2096 <main+0x1d2d>
    6ce8: 18           	clc
    6ce9: a5 96        	lda	$96                     ; 0x2096 <main+0x1d2d>
    6ceb: 69 0d        	adc	#$d
    6ced: aa           	tax
    6cee: a5 97        	lda	$97                     ; 0x2097 <main+0x1d2e>
    6cf0: 69 00        	adc	#$0
    6cf2: 86 16        	stx	$16                     ; 0x2016 <main+0x1cad>
    6cf4: a0 0d        	ldy	#$d
    6cf6: 85 17        	sta	$17                     ; 0x2017 <main+0x1cae>
    6cf8: a9 ff        	lda	#$ff
    6cfa: 91 96        	sta	($96),y                 ; 0x2096 <main+0x1d2d>
    6cfc: a0 01        	ldy	#$1
    6cfe: 91 16        	sta	($16),y                 ; 0x2016 <main+0x1cad>
    6d00: a2 00        	ldx	#$0
    6d02: 86 c2        	stx	$c2                     ; 0x20c2 <main+0x1d59>
    6d04: a6 96        	ldx	$96                     ; 0x2096 <main+0x1d2d>
    6d06: 86 16        	stx	$16                     ; 0x2016 <main+0x1cad>
    6d08: a6 97        	ldx	$97                     ; 0x2097 <main+0x1d2e>
    6d0a: 86 17        	stx	$17                     ; 0x2017 <main+0x1cae>
    6d0c: e6 16        	inc	$16                     ; 0x2016 <main+0x1cad>
    6d0e: d0 02        	bne	$6d12 <_ZN12_GLOBAL__N_15printEPKcP6Status+0x82>
    6d10: e6 17        	inc	$17                     ; 0x2017 <main+0x1cae>
    6d12: a9 00        	lda	#$0
    6d14: 91 96        	sta	($96),y                 ; 0x2096 <main+0x1d2d>
    6d16: 91 16        	sta	($16),y                 ; 0x2016 <main+0x1cad>
    6d18: 92 96        	sta	($96)                   ; 0x2096 <main+0x1d2d>
    6d1a: 91 18        	sta	($18),y                 ; 0x2018 <main+0x1caf>
    6d1c: 64 9c        	stz	$9c                     ; 0x209c <main+0x1d33>
    6d1e: 80 33        	bra	$6d53 <_ZN12_GLOBAL__N_15printEPKcP6Status+0xc3>
    6d20: a2 02        	ldx	#$2
    6d22: 80 15        	bra	$6d39 <_ZN12_GLOBAL__N_15printEPKcP6Status+0xa9>
    6d24: e0 20        	cpx	#$20
    6d26: f0 15        	beq	$6d3d <_ZN12_GLOBAL__N_15printEPKcP6Status+0xad>
    6d28: 86 19        	stx	$19                     ; 0x2019 <main+0x1cb0>
    6d2a: e0 23        	cpx	#$23
    6d2c: f0 03        	beq	$6d31 <_ZN12_GLOBAL__N_15printEPKcP6Status+0xa1>
    6d2e: 4c a0 6d     	jmp	$6da0 <_ZN12_GLOBAL__N_15printEPKcP6Status+0x110>
    6d31: a5 9c        	lda	$9c                     ; 0x209c <main+0x1d33>
    6d33: a2 04        	ldx	#$4
    6d35: 80 02        	bra	$6d39 <_ZN12_GLOBAL__N_15printEPKcP6Status+0xa9>
    6d37: a2 10        	ldx	#$10
    6d39: 86 18        	stx	$18                     ; 0x2018 <main+0x1caf>
    6d3b: 80 06        	bra	$6d43 <_ZN12_GLOBAL__N_15printEPKcP6Status+0xb3>
    6d3d: a2 08        	ldx	#$8
    6d3f: 86 18        	stx	$18                     ; 0x2018 <main+0x1caf>
    6d41: a5 9c        	lda	$9c                     ; 0x209c <main+0x1d33>
    6d43: 05 18        	ora	$18                     ; 0x2018 <main+0x1caf>
    6d45: 85 9c        	sta	$9c                     ; 0x209c <main+0x1d33>
    6d47: 91 96        	sta	($96),y                 ; 0x2096 <main+0x1d2d>
    6d49: a9 00        	lda	#$0
    6d4b: 91 16        	sta	($16),y                 ; 0x2016 <main+0x1cad>
    6d4d: e6 14        	inc	$14                     ; 0x2014 <main+0x1cab>
    6d4f: d0 02        	bne	$6d53 <_ZN12_GLOBAL__N_15printEPKcP6Status+0xc3>
    6d51: e6 15        	inc	$15                     ; 0x2015 <main+0x1cac>
    6d53: b2 14        	lda	($14)                   ; 0x2014 <main+0x1cab>
    6d55: aa           	tax
    6d56: 18           	clc
    6d57: 69 d6        	adc	#$d6
    6d59: c9 07        	cmp	#$7
    6d5b: b0 c7        	bcs	$6d24 <_ZN12_GLOBAL__N_15printEPKcP6Status+0x94>
    6d5d: 86 19        	stx	$19                     ; 0x2019 <main+0x1cb0>
    6d5f: 0a           	asl
    6d60: aa           	tax
    6d61: a9 01        	lda	#$1
    6d63: 85 18        	sta	$18                     ; 0x2018 <main+0x1caf>
    6d65: a5 9c        	lda	$9c                     ; 0x209c <main+0x1d33>
    6d67: 7c fa 7b     	jmp	($7bfa,x)               ; 0x7bfa <__set_v+0x6f>
    6d6a: a0 11        	ldy	#$11
    6d6c: a5 96        	lda	$96                     ; 0x2096 <main+0x1d2d>
    6d6e: 18           	clc
    6d6f: 69 11        	adc	#$11
    6d71: 85 16        	sta	$16                     ; 0x2016 <main+0x1cad>
    6d73: a5 97        	lda	$97                     ; 0x2097 <main+0x1d2e>
    6d75: 69 00        	adc	#$0
    6d77: 85 17        	sta	$17                     ; 0x2017 <main+0x1cae>
    6d79: b1 96        	lda	($96),y                 ; 0x2096 <main+0x1d2d>
    6d7b: 85 18        	sta	$18                     ; 0x2018 <main+0x1caf>
    6d7d: 18           	clc
    6d7e: 69 02        	adc	#$2
    6d80: 91 96        	sta	($96),y                 ; 0x2096 <main+0x1d2d>
    6d82: a0 01        	ldy	#$1
    6d84: b1 16        	lda	($16),y                 ; 0x2016 <main+0x1cad>
    6d86: 85 19        	sta	$19                     ; 0x2019 <main+0x1cb0>
    6d88: 69 00        	adc	#$0
    6d8a: 91 16        	sta	($16),y                 ; 0x2016 <main+0x1cad>
    6d8c: b2 18        	lda	($18)                   ; 0x2018 <main+0x1caf>
    6d8e: 85 17        	sta	$17                     ; 0x2017 <main+0x1cae>
    6d90: b1 18        	lda	($18),y                 ; 0x2018 <main+0x1caf>
    6d92: 85 16        	sta	$16                     ; 0x2016 <main+0x1cad>
    6d94: 10 03        	bpl	$6d99 <_ZN12_GLOBAL__N_15printEPKcP6Status+0x109>
    6d96: 4c 27 6e     	jmp	$6e27 <_ZN12_GLOBAL__N_15printEPKcP6Status+0x197>
    6d99: a6 17        	ldx	$17                     ; 0x2017 <main+0x1cae>
    6d9b: 85 1a        	sta	$1a                     ; 0x201a <main+0x1cb1>
    6d9d: 4c 51 6e     	jmp	$6e51 <_ZN12_GLOBAL__N_15printEPKcP6Status+0x1c1>
    6da0: 18           	clc
    6da1: a5 19        	lda	$19                     ; 0x2019 <main+0x1cb0>
    6da3: 69 d0        	adc	#$d0
    6da5: c9 0a        	cmp	#$a
    6da7: 90 03        	bcc	$6dac <_ZN12_GLOBAL__N_15printEPKcP6Status+0x11c>
    6da9: 4c 02 6e     	jmp	$6e02 <_ZN12_GLOBAL__N_15printEPKcP6Status+0x172>
    6dac: a6 19        	ldx	$19                     ; 0x2019 <main+0x1cb0>
    6dae: 86 16        	stx	$16                     ; 0x2016 <main+0x1cad>
    6db0: 64 18        	stz	$18                     ; 0x2018 <main+0x1caf>
    6db2: a0 01        	ldy	#$1
    6db4: 64 17        	stz	$17                     ; 0x2017 <main+0x1cae>
    6db6: 64 19        	stz	$19                     ; 0x2019 <main+0x1cb0>
    6db8: 06 18        	asl	$18                     ; 0x2018 <main+0x1caf>
    6dba: 26 19        	rol	$19                     ; 0x2019 <main+0x1cb0>
    6dbc: a5 18        	lda	$18                     ; 0x2018 <main+0x1caf>
    6dbe: 0a           	asl
    6dbf: aa           	tax
    6dc0: a5 19        	lda	$19                     ; 0x2019 <main+0x1cb0>
    6dc2: 2a           	rol
    6dc3: 86 1a        	stx	$1a                     ; 0x201a <main+0x1cb1>
    6dc5: 06 1a        	asl	$1a                     ; 0x201a <main+0x1cb1>
    6dc7: 2a           	rol
    6dc8: aa           	tax
    6dc9: a5 1a        	lda	$1a                     ; 0x201a <main+0x1cb1>
    6dcb: 18           	clc
    6dcc: 65 18        	adc	$18                     ; 0x2018 <main+0x1caf>
    6dce: 85 18        	sta	$18                     ; 0x2018 <main+0x1caf>
    6dd0: 8a           	txa
    6dd1: 65 19        	adc	$19                     ; 0x2019 <main+0x1cb0>
    6dd3: 85 19        	sta	$19                     ; 0x2019 <main+0x1cb0>
    6dd5: a5 18        	lda	$18                     ; 0x2018 <main+0x1caf>
    6dd7: 18           	clc
    6dd8: 65 16        	adc	$16                     ; 0x2016 <main+0x1cad>
    6dda: 85 16        	sta	$16                     ; 0x2016 <main+0x1cad>
    6ddc: a5 19        	lda	$19                     ; 0x2019 <main+0x1cb0>
    6dde: 65 17        	adc	$17                     ; 0x2017 <main+0x1cae>
    6de0: aa           	tax
    6de1: 18           	clc
    6de2: a5 16        	lda	$16                     ; 0x2016 <main+0x1cad>
    6de4: 69 d0        	adc	#$d0
    6de6: 85 18        	sta	$18                     ; 0x2018 <main+0x1caf>
    6de8: 8a           	txa
    6de9: 69 ff        	adc	#$ff
    6deb: 85 19        	sta	$19                     ; 0x2019 <main+0x1cb0>
    6ded: b1 14        	lda	($14),y                 ; 0x2014 <main+0x1cab>
    6def: 85 16        	sta	$16                     ; 0x2016 <main+0x1cad>
    6df1: 18           	clc
    6df2: 69 d0        	adc	#$d0
    6df4: e6 14        	inc	$14                     ; 0x2014 <main+0x1cab>
    6df6: d0 02        	bne	$6dfa <_ZN12_GLOBAL__N_15printEPKcP6Status+0x16a>
    6df8: e6 15        	inc	$15                     ; 0x2015 <main+0x1cac>
    6dfa: c9 0a        	cmp	#$a
    6dfc: 64 17        	stz	$17                     ; 0x2017 <main+0x1cae>
    6dfe: 90 b8        	bcc	$6db8 <_ZN12_GLOBAL__N_15printEPKcP6Status+0x128>
    6e00: 80 04        	bra	$6e06 <_ZN12_GLOBAL__N_15printEPKcP6Status+0x176>
    6e02: 64 18        	stz	$18                     ; 0x2018 <main+0x1caf>
    6e04: 64 19        	stz	$19                     ; 0x2019 <main+0x1cb0>
    6e06: a5 96        	lda	$96                     ; 0x2096 <main+0x1d2d>
    6e08: 18           	clc
    6e09: 69 0b        	adc	#$b
    6e0b: 85 16        	sta	$16                     ; 0x2016 <main+0x1cad>
    6e0d: a5 97        	lda	$97                     ; 0x2097 <main+0x1d2e>
    6e0f: 69 00        	adc	#$0
    6e11: 85 17        	sta	$17                     ; 0x2017 <main+0x1cae>
    6e13: a0 0b        	ldy	#$b
    6e15: a5 18        	lda	$18                     ; 0x2018 <main+0x1caf>
    6e17: 91 96        	sta	($96),y                 ; 0x2096 <main+0x1d2d>
    6e19: a6 18        	ldx	$18                     ; 0x2018 <main+0x1caf>
    6e1b: a0 01        	ldy	#$1
    6e1d: a5 19        	lda	$19                     ; 0x2019 <main+0x1cb0>
    6e1f: 91 16        	sta	($16),y                 ; 0x2016 <main+0x1cad>
    6e21: 86 16        	stx	$16                     ; 0x2016 <main+0x1cad>
    6e23: 85 17        	sta	$17                     ; 0x2017 <main+0x1cae>
    6e25: 80 4c        	bra	$6e73 <_ZN12_GLOBAL__N_15printEPKcP6Status+0x1e3>
    6e27: a5 9c        	lda	$9c                     ; 0x209c <main+0x1d33>
    6e29: 09 01        	ora	#$1
    6e2b: 85 1b        	sta	$1b                     ; 0x201b <main+0x1cb2>
    6e2d: a6 96        	ldx	$96                     ; 0x2096 <main+0x1d2d>
    6e2f: 86 18        	stx	$18                     ; 0x2018 <main+0x1caf>
    6e31: a6 97        	ldx	$97                     ; 0x2097 <main+0x1d2e>
    6e33: 86 19        	stx	$19                     ; 0x2019 <main+0x1cb0>
    6e35: 38           	sec
    6e36: a9 00        	lda	#$0
    6e38: e5 17        	sbc	$17                     ; 0x2017 <main+0x1cae>
    6e3a: aa           	tax
    6e3b: a9 00        	lda	#$0
    6e3d: e5 16        	sbc	$16                     ; 0x2016 <main+0x1cad>
    6e3f: 85 1a        	sta	$1a                     ; 0x201a <main+0x1cb1>
    6e41: e6 18        	inc	$18                     ; 0x2018 <main+0x1caf>
    6e43: d0 02        	bne	$6e47 <_ZN12_GLOBAL__N_15printEPKcP6Status+0x1b7>
    6e45: e6 19        	inc	$19                     ; 0x2019 <main+0x1cb0>
    6e47: a5 1b        	lda	$1b                     ; 0x201b <main+0x1cb2>
    6e49: 85 9c        	sta	$9c                     ; 0x209c <main+0x1d33>
    6e4b: 91 96        	sta	($96),y                 ; 0x2096 <main+0x1d2d>
    6e4d: a9 00        	lda	#$0
    6e4f: 91 18        	sta	($18),y                 ; 0x2018 <main+0x1caf>
    6e51: a5 96        	lda	$96                     ; 0x2096 <main+0x1d2d>
    6e53: 18           	clc
    6e54: 69 0b        	adc	#$b
    6e56: 85 16        	sta	$16                     ; 0x2016 <main+0x1cad>
    6e58: a5 97        	lda	$97                     ; 0x2097 <main+0x1d2e>
    6e5a: 69 00        	adc	#$0
    6e5c: 85 17        	sta	$17                     ; 0x2017 <main+0x1cae>
    6e5e: a0 0b        	ldy	#$b
    6e60: 8a           	txa
    6e61: 91 96        	sta	($96),y                 ; 0x2096 <main+0x1d2d>
    6e63: a5 1a        	lda	$1a                     ; 0x201a <main+0x1cb1>
    6e65: a0 01        	ldy	#$1
    6e67: 91 16        	sta	($16),y                 ; 0x2016 <main+0x1cad>
    6e69: 86 16        	stx	$16                     ; 0x2016 <main+0x1cad>
    6e6b: 85 17        	sta	$17                     ; 0x2017 <main+0x1cae>
    6e6d: e6 14        	inc	$14                     ; 0x2014 <main+0x1cab>
    6e6f: d0 02        	bne	$6e73 <_ZN12_GLOBAL__N_15printEPKcP6Status+0x1e3>
    6e71: e6 15        	inc	$15                     ; 0x2015 <main+0x1cac>
    6e73: b2 14        	lda	($14)                   ; 0x2014 <main+0x1cab>
    6e75: a2 ff        	ldx	#$ff
    6e77: c9 2e        	cmp	#$2e
    6e79: f0 03        	beq	$6e7e <_ZN12_GLOBAL__N_15printEPKcP6Status+0x1ee>
    6e7b: 4c fd 6e     	jmp	$6efd <_ZN12_GLOBAL__N_15printEPKcP6Status+0x26d>
    6e7e: a6 14        	ldx	$14                     ; 0x2014 <main+0x1cab>
    6e80: 86 18        	stx	$18                     ; 0x2018 <main+0x1caf>
    6e82: a6 15        	ldx	$15                     ; 0x2015 <main+0x1cac>
    6e84: 86 19        	stx	$19                     ; 0x2019 <main+0x1cb0>
    6e86: e6 18        	inc	$18                     ; 0x2018 <main+0x1caf>
    6e88: d0 02        	bne	$6e8c <_ZN12_GLOBAL__N_15printEPKcP6Status+0x1fc>
    6e8a: e6 19        	inc	$19                     ; 0x2019 <main+0x1cb0>
    6e8c: b1 14        	lda	($14),y                 ; 0x2014 <main+0x1cab>
    6e8e: c9 2a        	cmp	#$2a
    6e90: f0 03        	beq	$6e95 <_ZN12_GLOBAL__N_15printEPKcP6Status+0x205>
    6e92: 4c 04 6f     	jmp	$6f04 <_ZN12_GLOBAL__N_15printEPKcP6Status+0x274>
    6e95: a0 11        	ldy	#$11
    6e97: b1 96        	lda	($96),y                 ; 0x2096 <main+0x1d2d>
    6e99: 85 18        	sta	$18                     ; 0x2018 <main+0x1caf>
    6e9b: 18           	clc
    6e9c: 69 02        	adc	#$2
    6e9e: a2 01        	ldx	#$1
    6ea0: b0 02        	bcs	$6ea4 <_ZN12_GLOBAL__N_15printEPKcP6Status+0x214>
    6ea2: a2 00        	ldx	#$0
    6ea4: 86 1d        	stx	$1d                     ; 0x201d <main+0x1cb4>
    6ea6: 91 96        	sta	($96),y                 ; 0x2096 <main+0x1d2d>
    6ea8: 18           	clc
    6ea9: a5 96        	lda	$96                     ; 0x2096 <main+0x1d2d>
    6eab: 69 11        	adc	#$11
    6ead: 85 1a        	sta	$1a                     ; 0x201a <main+0x1cb1>
    6eaf: a5 97        	lda	$97                     ; 0x2097 <main+0x1d2e>
    6eb1: 69 00        	adc	#$0
    6eb3: 85 1b        	sta	$1b                     ; 0x201b <main+0x1cb2>
    6eb5: a0 01        	ldy	#$1
    6eb7: b1 1a        	lda	($1a),y                 ; 0x201a <main+0x1cb1>
    6eb9: 85 19        	sta	$19                     ; 0x2019 <main+0x1cb0>
    6ebb: a6 1d        	ldx	$1d                     ; 0x201d <main+0x1cb4>
    6ebd: e0 01        	cpx	#$1
    6ebf: 69 00        	adc	#$0
    6ec1: 91 1a        	sta	($1a),y                 ; 0x201a <main+0x1cb1>
    6ec3: b2 18        	lda	($18)                   ; 0x2018 <main+0x1caf>
    6ec5: 85 1b        	sta	$1b                     ; 0x201b <main+0x1cb2>
    6ec7: 18           	clc
    6ec8: a5 96        	lda	$96                     ; 0x2096 <main+0x1d2d>
    6eca: 69 0d        	adc	#$d
    6ecc: 85 1a        	sta	$1a                     ; 0x201a <main+0x1cb1>
    6ece: a5 97        	lda	$97                     ; 0x2097 <main+0x1d2e>
    6ed0: 69 00        	adc	#$0
    6ed2: aa           	tax
    6ed3: b1 18        	lda	($18),y                 ; 0x2018 <main+0x1caf>
    6ed5: 85 1c        	sta	$1c                     ; 0x201c <main+0x1cb3>
    6ed7: a4 1a        	ldy	$1a                     ; 0x201a <main+0x1cb1>
    6ed9: 84 18        	sty	$18                     ; 0x2018 <main+0x1caf>
    6edb: 86 19        	stx	$19                     ; 0x2019 <main+0x1cb0>
    6edd: a5 1b        	lda	$1b                     ; 0x201b <main+0x1cb2>
    6edf: 85 1a        	sta	$1a                     ; 0x201a <main+0x1cb1>
    6ee1: a0 0d        	ldy	#$d
    6ee3: 91 96        	sta	($96),y                 ; 0x2096 <main+0x1d2d>
    6ee5: a5 1c        	lda	$1c                     ; 0x201c <main+0x1cb3>
    6ee7: 85 1e        	sta	$1e                     ; 0x201e <main+0x1cb5>
    6ee9: a0 01        	ldy	#$1
    6eeb: 91 18        	sta	($18),y                 ; 0x2018 <main+0x1caf>
    6eed: a5 14        	lda	$14                     ; 0x2014 <main+0x1cab>
    6eef: 18           	clc
    6ef0: 69 02        	adc	#$2
    6ef2: 85 18        	sta	$18                     ; 0x2018 <main+0x1caf>
    6ef4: a5 15        	lda	$15                     ; 0x2015 <main+0x1cac>
    6ef6: 69 00        	adc	#$0
    6ef8: 85 19        	sta	$19                     ; 0x2019 <main+0x1cb0>
    6efa: 4c ca 6f     	jmp	$6fca <_ZN12_GLOBAL__N_15printEPKcP6Status+0x33a>
    6efd: 86 1a        	stx	$1a                     ; 0x201a <main+0x1cb1>
    6eff: 86 1b        	stx	$1b                     ; 0x201b <main+0x1cb2>
    6f01: 4c f2 6f     	jmp	$6ff2 <_ZN12_GLOBAL__N_15printEPKcP6Status+0x362>
    6f04: 18           	clc
    6f05: 85 1c        	sta	$1c                     ; 0x201c <main+0x1cb3>
    6f07: 69 d0        	adc	#$d0
    6f09: c9 0a        	cmp	#$a
    6f0b: 90 03        	bcc	$6f10 <_ZN12_GLOBAL__N_15printEPKcP6Status+0x280>
    6f0d: 4c af 6f     	jmp	$6faf <_ZN12_GLOBAL__N_15printEPKcP6Status+0x31f>
    6f10: 64 1b        	stz	$1b                     ; 0x201b <main+0x1cb2>
    6f12: 64 1f        	stz	$1f                     ; 0x201f <main+0x1cb6>
    6f14: 64 1e        	stz	$1e                     ; 0x201e <main+0x1cb5>
    6f16: a2 01        	ldx	#$1
    6f18: 64 1a        	stz	$1a                     ; 0x201a <main+0x1cb1>
    6f1a: 5a           	phy
    6f1b: a4 1a        	ldy	$1a                     ; 0x201a <main+0x1cb1>
    6f1d: 84 18        	sty	$18                     ; 0x2018 <main+0x1caf>
    6f1f: 86 19        	stx	$19                     ; 0x2019 <main+0x1cb0>
    6f21: a5 1f        	lda	$1f                     ; 0x201f <main+0x1cb6>
    6f23: 0a           	asl
    6f24: 85 1d        	sta	$1d                     ; 0x201d <main+0x1cb4>
    6f26: 26 1e        	rol	$1e                     ; 0x201e <main+0x1cb5>
    6f28: 0a           	asl
    6f29: a4 1e        	ldy	$1e                     ; 0x201e <main+0x1cb5>
    6f2b: 84 1f        	sty	$1f                     ; 0x201f <main+0x1cb6>
    6f2d: 7a           	ply
    6f2e: 26 1f        	rol	$1f                     ; 0x201f <main+0x1cb6>
    6f30: 0a           	asl
    6f31: 26 1f        	rol	$1f                     ; 0x201f <main+0x1cb6>
    6f33: 18           	clc
    6f34: 65 1d        	adc	$1d                     ; 0x201d <main+0x1cb4>
    6f36: 85 22        	sta	$22                     ; 0x2022 <main+0x1cb9>
    6f38: a5 1f        	lda	$1f                     ; 0x201f <main+0x1cb6>
    6f3a: 65 1e        	adc	$1e                     ; 0x201e <main+0x1cb5>
    6f3c: 85 1d        	sta	$1d                     ; 0x201d <main+0x1cb4>
    6f3e: 18           	clc
    6f3f: a5 22        	lda	$22                     ; 0x2022 <main+0x1cb9>
    6f41: 65 1c        	adc	$1c                     ; 0x201c <main+0x1cb3>
    6f43: 85 1c        	sta	$1c                     ; 0x201c <main+0x1cb3>
    6f45: a5 1d        	lda	$1d                     ; 0x201d <main+0x1cb4>
    6f47: 65 1b        	adc	$1b                     ; 0x201b <main+0x1cb2>
    6f49: 85 1b        	sta	$1b                     ; 0x201b <main+0x1cb2>
    6f4b: 18           	clc
    6f4c: a5 1c        	lda	$1c                     ; 0x201c <main+0x1cb3>
    6f4e: 69 d0        	adc	#$d0
    6f50: 85 1c        	sta	$1c                     ; 0x201c <main+0x1cb3>
    6f52: a5 1b        	lda	$1b                     ; 0x201b <main+0x1cb2>
    6f54: 69 ff        	adc	#$ff
    6f56: 85 1e        	sta	$1e                     ; 0x201e <main+0x1cb5>
    6f58: a5 1c        	lda	$1c                     ; 0x201c <main+0x1cb3>
    6f5a: 85 1f        	sta	$1f                     ; 0x201f <main+0x1cb6>
    6f5c: e8           	inx
    6f5d: d0 02        	bne	$6f61 <_ZN12_GLOBAL__N_15printEPKcP6Status+0x2d1>
    6f5f: e6 1a        	inc	$1a                     ; 0x201a <main+0x1cb1>
    6f61: a5 14        	lda	$14                     ; 0x2014 <main+0x1cab>
    6f63: 18           	clc
    6f64: 65 19        	adc	$19                     ; 0x2019 <main+0x1cb0>
    6f66: 85 1c        	sta	$1c                     ; 0x201c <main+0x1cb3>
    6f68: a5 15        	lda	$15                     ; 0x2015 <main+0x1cac>
    6f6a: 65 18        	adc	$18                     ; 0x2018 <main+0x1caf>
    6f6c: 85 1d        	sta	$1d                     ; 0x201d <main+0x1cb4>
    6f6e: b1 1c        	lda	($1c),y                 ; 0x201c <main+0x1cb3>
    6f70: 85 1c        	sta	$1c                     ; 0x201c <main+0x1cb3>
    6f72: 18           	clc
    6f73: 69 d0        	adc	#$d0
    6f75: c9 0a        	cmp	#$a
    6f77: 64 1b        	stz	$1b                     ; 0x201b <main+0x1cb2>
    6f79: b0 03        	bcs	$6f7e <_ZN12_GLOBAL__N_15printEPKcP6Status+0x2ee>
    6f7b: 4c 1a 6f     	jmp	$6f1a <_ZN12_GLOBAL__N_15printEPKcP6Status+0x28a>
    6f7e: a5 14        	lda	$14                     ; 0x2014 <main+0x1cab>
    6f80: 18           	clc
    6f81: 65 19        	adc	$19                     ; 0x2019 <main+0x1cb0>
    6f83: aa           	tax
    6f84: a5 15        	lda	$15                     ; 0x2015 <main+0x1cac>
    6f86: 65 18        	adc	$18                     ; 0x2018 <main+0x1caf>
    6f88: 86 18        	stx	$18                     ; 0x2018 <main+0x1caf>
    6f8a: 85 19        	sta	$19                     ; 0x2019 <main+0x1cb0>
    6f8c: a5 96        	lda	$96                     ; 0x2096 <main+0x1d2d>
    6f8e: 18           	clc
    6f8f: 69 0d        	adc	#$d
    6f91: 85 14        	sta	$14                     ; 0x2014 <main+0x1cab>
    6f93: a5 97        	lda	$97                     ; 0x2097 <main+0x1d2e>
    6f95: 69 00        	adc	#$0
    6f97: a0 0d        	ldy	#$d
    6f99: 85 15        	sta	$15                     ; 0x2015 <main+0x1cac>
    6f9b: a5 1f        	lda	$1f                     ; 0x201f <main+0x1cb6>
    6f9d: 85 1a        	sta	$1a                     ; 0x201a <main+0x1cb1>
    6f9f: 91 96        	sta	($96),y                 ; 0x2096 <main+0x1d2d>
    6fa1: a0 01        	ldy	#$1
    6fa3: a5 1e        	lda	$1e                     ; 0x201e <main+0x1cb5>
    6fa5: 91 14        	sta	($14),y                 ; 0x2014 <main+0x1cab>
    6fa7: e6 18        	inc	$18                     ; 0x2018 <main+0x1caf>
    6fa9: d0 1f        	bne	$6fca <_ZN12_GLOBAL__N_15printEPKcP6Status+0x33a>
    6fab: e6 19        	inc	$19                     ; 0x2019 <main+0x1cb0>
    6fad: 80 1b        	bra	$6fca <_ZN12_GLOBAL__N_15printEPKcP6Status+0x33a>
    6faf: a0 0d        	ldy	#$d
    6fb1: a5 96        	lda	$96                     ; 0x2096 <main+0x1d2d>
    6fb3: 18           	clc
    6fb4: 69 0d        	adc	#$d
    6fb6: 85 14        	sta	$14                     ; 0x2014 <main+0x1cab>
    6fb8: a5 97        	lda	$97                     ; 0x2097 <main+0x1d2e>
    6fba: 69 00        	adc	#$0
    6fbc: 85 15        	sta	$15                     ; 0x2015 <main+0x1cac>
    6fbe: a9 00        	lda	#$0
    6fc0: 91 96        	sta	($96),y                 ; 0x2096 <main+0x1d2d>
    6fc2: a0 01        	ldy	#$1
    6fc4: 64 1a        	stz	$1a                     ; 0x201a <main+0x1cb1>
    6fc6: 91 14        	sta	($14),y                 ; 0x2014 <main+0x1cab>
    6fc8: 64 1e        	stz	$1e                     ; 0x201e <main+0x1cb5>
    6fca: a5 9c        	lda	$9c                     ; 0x209c <main+0x1d33>
    6fcc: 29 ef        	and	#$ef
    6fce: a6 96        	ldx	$96                     ; 0x2096 <main+0x1d2d>
    6fd0: 86 14        	stx	$14                     ; 0x2014 <main+0x1cab>
    6fd2: a6 97        	ldx	$97                     ; 0x2097 <main+0x1d2e>
    6fd4: 86 15        	stx	$15                     ; 0x2015 <main+0x1cac>
    6fd6: e6 14        	inc	$14                     ; 0x2014 <main+0x1cab>
    6fd8: d0 02        	bne	$6fdc <_ZN12_GLOBAL__N_15printEPKcP6Status+0x34c>
    6fda: e6 15        	inc	$15                     ; 0x2015 <main+0x1cac>
    6fdc: 85 9c        	sta	$9c                     ; 0x209c <main+0x1d33>
    6fde: 91 96        	sta	($96),y                 ; 0x2096 <main+0x1d2d>
    6fe0: a9 00        	lda	#$0
    6fe2: 91 14        	sta	($14),y                 ; 0x2014 <main+0x1cab>
    6fe4: b2 18        	lda	($18)                   ; 0x2018 <main+0x1caf>
    6fe6: a6 1e        	ldx	$1e                     ; 0x201e <main+0x1cb5>
    6fe8: 86 1b        	stx	$1b                     ; 0x201b <main+0x1cb2>
    6fea: a6 18        	ldx	$18                     ; 0x2018 <main+0x1caf>
    6fec: 86 14        	stx	$14                     ; 0x2014 <main+0x1cab>
    6fee: a6 19        	ldx	$19                     ; 0x2019 <main+0x1cb0>
    6ff0: 86 15        	stx	$15                     ; 0x2015 <main+0x1cac>
    6ff2: a6 14        	ldx	$14                     ; 0x2014 <main+0x1cab>
    6ff4: 86 18        	stx	$18                     ; 0x2018 <main+0x1caf>
    6ff6: a6 15        	ldx	$15                     ; 0x2015 <main+0x1cac>
    6ff8: 86 19        	stx	$19                     ; 0x2019 <main+0x1cb0>
    6ffa: e6 18        	inc	$18                     ; 0x2018 <main+0x1caf>
    6ffc: d0 02        	bne	$7000 <_ZN12_GLOBAL__N_15printEPKcP6Status+0x370>
    6ffe: e6 19        	inc	$19                     ; 0x2019 <main+0x1cb0>
    7000: 38           	sec
    7001: aa           	tax
    7002: e9 6c        	sbc	#$6c
    7004: 50 02        	bvc	$7008 <_ZN12_GLOBAL__N_15printEPKcP6Status+0x378>
    7006: 49 80        	eor	#$80
    7008: c9 00        	cmp	#$0
    700a: 10 20        	bpl	$702c <_ZN12_GLOBAL__N_15printEPKcP6Status+0x39c>
    700c: e0 4c        	cpx	#$4c
    700e: f0 3a        	beq	$704a <_ZN12_GLOBAL__N_15printEPKcP6Status+0x3ba>
    7010: 8a           	txa
    7011: e0 68        	cpx	#$68
    7013: d0 03        	bne	$7018 <_ZN12_GLOBAL__N_15printEPKcP6Status+0x388>
    7015: 4c dc 70     	jmp	$70dc <_ZN12_GLOBAL__N_15printEPKcP6Status+0x44c>
    7018: a0 08        	ldy	#$8
    701a: a2 02        	ldx	#$2
    701c: c9 6a        	cmp	#$6a
    701e: d0 26        	bne	$7046 <_ZN12_GLOBAL__N_15printEPKcP6Status+0x3b6>
    7020: a6 18        	ldx	$18                     ; 0x2018 <main+0x1caf>
    7022: 86 14        	stx	$14                     ; 0x2014 <main+0x1cab>
    7024: a6 19        	ldx	$19                     ; 0x2019 <main+0x1cb0>
    7026: 86 15        	stx	$15                     ; 0x2015 <main+0x1cac>
    7028: a2 08        	ldx	#$8
    702a: 80 44        	bra	$7070 <_ZN12_GLOBAL__N_15printEPKcP6Status+0x3e0>
    702c: e0 6c        	cpx	#$6c
    702e: d0 03        	bne	$7033 <_ZN12_GLOBAL__N_15printEPKcP6Status+0x3a3>
    7030: 4c c0 70     	jmp	$70c0 <_ZN12_GLOBAL__N_15printEPKcP6Status+0x430>
    7033: 8a           	txa
    7034: e0 74        	cpx	#$74
    7036: f0 2c        	beq	$7064 <_ZN12_GLOBAL__N_15printEPKcP6Status+0x3d4>
    7038: a2 02        	ldx	#$2
    703a: c9 7a        	cmp	#$7a
    703c: d0 08        	bne	$7046 <_ZN12_GLOBAL__N_15printEPKcP6Status+0x3b6>
    703e: a4 18        	ldy	$18                     ; 0x2018 <main+0x1caf>
    7040: 84 14        	sty	$14                     ; 0x2014 <main+0x1cab>
    7042: a4 19        	ldy	$19                     ; 0x2019 <main+0x1cb0>
    7044: 84 15        	sty	$15                     ; 0x2015 <main+0x1cac>
    7046: a0 02        	ldy	#$2
    7048: 80 26        	bra	$7070 <_ZN12_GLOBAL__N_15printEPKcP6Status+0x3e0>
    704a: a5 9c        	lda	$9c                     ; 0x209c <main+0x1d33>
    704c: 09 40        	ora	#$40
    704e: a6 96        	ldx	$96                     ; 0x2096 <main+0x1d2d>
    7050: 86 14        	stx	$14                     ; 0x2014 <main+0x1cab>
    7052: a6 97        	ldx	$97                     ; 0x2097 <main+0x1d2e>
    7054: 86 15        	stx	$15                     ; 0x2015 <main+0x1cac>
    7056: e6 14        	inc	$14                     ; 0x2014 <main+0x1cab>
    7058: d0 02        	bne	$705c <_ZN12_GLOBAL__N_15printEPKcP6Status+0x3cc>
    705a: e6 15        	inc	$15                     ; 0x2015 <main+0x1cac>
    705c: 85 9c        	sta	$9c                     ; 0x209c <main+0x1d33>
    705e: 91 96        	sta	($96),y                 ; 0x2096 <main+0x1d2d>
    7060: a9 00        	lda	#$0
    7062: 91 14        	sta	($14),y                 ; 0x2014 <main+0x1cab>
    7064: a6 18        	ldx	$18                     ; 0x2018 <main+0x1caf>
    7066: 86 14        	stx	$14                     ; 0x2014 <main+0x1cab>
    7068: a6 19        	ldx	$19                     ; 0x2019 <main+0x1cb0>
    706a: 86 15        	stx	$15                     ; 0x2015 <main+0x1cac>
    706c: a0 02        	ldy	#$2
    706e: a2 02        	ldx	#$2
    7070: b2 14        	lda	($14)                   ; 0x2014 <main+0x1cab>
    7072: 5a           	phy
    7073: a4 14        	ldy	$14                     ; 0x2014 <main+0x1cab>
    7075: 84 18        	sty	$18                     ; 0x2018 <main+0x1caf>
    7077: a4 15        	ldy	$15                     ; 0x2015 <main+0x1cac>
    7079: 84 19        	sty	$19                     ; 0x2019 <main+0x1cb0>
    707b: 7a           	ply
    707c: 86 98        	stx	$98                     ; 0x2098 <main+0x1d2f>
    707e: 5a           	phy
    707f: fa           	plx
    7080: 18           	clc
    7081: a8           	tay
    7082: 69 9d        	adc	#$9d
    7084: c9 16        	cmp	#$16
    7086: 86 9d        	stx	$9d                     ; 0x209d <main+0x1d34>
    7088: 90 03        	bcc	$708d <_ZN12_GLOBAL__N_15printEPKcP6Status+0x3fd>
    708a: 4c f9 70     	jmp	$70f9 <_ZN12_GLOBAL__N_15printEPKcP6Status+0x469>
    708d: 0a           	asl
    708e: aa           	tax
    708f: 7c 08 7c     	jmp	($7c08,x)               ; 0x7c08 <__set_v+0x7d>
    7092: a5 1b        	lda	$1b                     ; 0x201b <main+0x1cb2>
    7094: 85 c4        	sta	$c4                     ; 0x20c4 <main+0x1d5b>
    7096: a4 1a        	ldy	$1a                     ; 0x201a <main+0x1cb1>
    7098: 84 c5        	sty	$c5                     ; 0x20c5 <main+0x1d5c>
    709a: a6 16        	ldx	$16                     ; 0x2016 <main+0x1cad>
    709c: 86 c7        	stx	$c7                     ; 0x20c7 <main+0x1d5e>
    709e: a6 17        	ldx	$17                     ; 0x2017 <main+0x1cae>
    70a0: 86 c6        	stx	$c6                     ; 0x20c6 <main+0x1d5d>
    70a2: a6 18        	ldx	$18                     ; 0x2018 <main+0x1caf>
    70a4: 86 12        	stx	$12                     ; 0x2012 <main+0x1ca9>
    70a6: a6 19        	ldx	$19                     ; 0x2019 <main+0x1cb0>
    70a8: 86 13        	stx	$13                     ; 0x2013 <main+0x1caa>
    70aa: a6 12        	ldx	$12                     ; 0x2012 <main+0x1ca9>
    70ac: 86 c0        	stx	$c0                     ; 0x20c0 <main+0x1d57>
    70ae: a6 13        	ldx	$13                     ; 0x2013 <main+0x1caa>
    70b0: 86 c1        	stx	$c1                     ; 0x20c1 <main+0x1d58>
    70b2: a9 0a        	lda	#$a
    70b4: aa           	tax
    70b5: 86 bf        	stx	$bf                     ; 0x20bf <main+0x1d56>
    70b7: 92 96        	sta	($96)                   ; 0x2096 <main+0x1d2d>
    70b9: a2 00        	ldx	#$0
    70bb: 86 c8        	stx	$c8                     ; 0x20c8 <main+0x1d5f>
    70bd: 4c 1d 73     	jmp	$731d <_ZN12_GLOBAL__N_15printEPKcP6Status+0x68d>
    70c0: b1 14        	lda	($14),y                 ; 0x2014 <main+0x1cab>
    70c2: a2 04        	ldx	#$4
    70c4: c9 6c        	cmp	#$6c
    70c6: d0 2c        	bne	$70f4 <_ZN12_GLOBAL__N_15printEPKcP6Status+0x464>
    70c8: a5 14        	lda	$14                     ; 0x2014 <main+0x1cab>
    70ca: 18           	clc
    70cb: 69 02        	adc	#$2
    70cd: 85 14        	sta	$14                     ; 0x2014 <main+0x1cab>
    70cf: a5 15        	lda	$15                     ; 0x2015 <main+0x1cac>
    70d1: 69 00        	adc	#$0
    70d3: 85 15        	sta	$15                     ; 0x2015 <main+0x1cac>
    70d5: a2 08        	ldx	#$8
    70d7: a0 08        	ldy	#$8
    70d9: 4c 70 70     	jmp	$7070 <_ZN12_GLOBAL__N_15printEPKcP6Status+0x3e0>
    70dc: b1 14        	lda	($14),y                 ; 0x2014 <main+0x1cab>
    70de: a2 02        	ldx	#$2
    70e0: c9 68        	cmp	#$68
    70e2: d0 10        	bne	$70f4 <_ZN12_GLOBAL__N_15printEPKcP6Status+0x464>
    70e4: a5 14        	lda	$14                     ; 0x2014 <main+0x1cab>
    70e6: 18           	clc
    70e7: 69 02        	adc	#$2
    70e9: 85 14        	sta	$14                     ; 0x2014 <main+0x1cab>
    70eb: a5 15        	lda	$15                     ; 0x2015 <main+0x1cac>
    70ed: 69 00        	adc	#$0
    70ef: 85 15        	sta	$15                     ; 0x2015 <main+0x1cac>
    70f1: 4c 70 70     	jmp	$7070 <_ZN12_GLOBAL__N_15printEPKcP6Status+0x3e0>
    70f4: 86 98        	stx	$98                     ; 0x2098 <main+0x1d2f>
    70f6: 4c 80 70     	jmp	$7080 <_ZN12_GLOBAL__N_15printEPKcP6Status+0x3f0>
    70f9: c0 58        	cpy	#$58
    70fb: f0 03        	beq	$7100 <_ZN12_GLOBAL__N_15printEPKcP6Status+0x470>
    70fd: 4c c3 77     	jmp	$77c3 <_ZN12_GLOBAL__N_15printEPKcP6Status+0xb33>
    7100: a5 1b        	lda	$1b                     ; 0x201b <main+0x1cb2>
    7102: 85 c4        	sta	$c4                     ; 0x20c4 <main+0x1d5b>
    7104: a4 1a        	ldy	$1a                     ; 0x201a <main+0x1cb1>
    7106: 84 c5        	sty	$c5                     ; 0x20c5 <main+0x1d5c>
    7108: a6 16        	ldx	$16                     ; 0x2016 <main+0x1cad>
    710a: 86 c7        	stx	$c7                     ; 0x20c7 <main+0x1d5e>
    710c: a6 17        	ldx	$17                     ; 0x2017 <main+0x1cae>
    710e: 86 c6        	stx	$c6                     ; 0x20c6 <main+0x1d5d>
    7110: a6 18        	ldx	$18                     ; 0x2018 <main+0x1caf>
    7112: 86 12        	stx	$12                     ; 0x2012 <main+0x1ca9>
    7114: a6 19        	ldx	$19                     ; 0x2019 <main+0x1cb0>
    7116: 86 13        	stx	$13                     ; 0x2013 <main+0x1caa>
    7118: a6 12        	ldx	$12                     ; 0x2012 <main+0x1ca9>
    711a: 86 c0        	stx	$c0                     ; 0x20c0 <main+0x1d57>
    711c: a6 13        	ldx	$13                     ; 0x2013 <main+0x1caa>
    711e: 86 c1        	stx	$c1                     ; 0x20c1 <main+0x1d58>
    7120: a9 10        	lda	#$10
    7122: 4c fd 72     	jmp	$72fd <_ZN12_GLOBAL__N_15printEPKcP6Status+0x66d>
    7125: a5 1b        	lda	$1b                     ; 0x201b <main+0x1cb2>
    7127: 85 c4        	sta	$c4                     ; 0x20c4 <main+0x1d5b>
    7129: a4 1a        	ldy	$1a                     ; 0x201a <main+0x1cb1>
    712b: 84 c5        	sty	$c5                     ; 0x20c5 <main+0x1d5c>
    712d: a6 16        	ldx	$16                     ; 0x2016 <main+0x1cad>
    712f: 86 c7        	stx	$c7                     ; 0x20c7 <main+0x1d5e>
    7131: a6 17        	ldx	$17                     ; 0x2017 <main+0x1cae>
    7133: 86 c6        	stx	$c6                     ; 0x20c6 <main+0x1d5d>
    7135: a6 18        	ldx	$18                     ; 0x2018 <main+0x1caf>
    7137: 86 12        	stx	$12                     ; 0x2012 <main+0x1ca9>
    7139: a6 19        	ldx	$19                     ; 0x2019 <main+0x1cb0>
    713b: 86 13        	stx	$13                     ; 0x2013 <main+0x1caa>
    713d: a6 12        	ldx	$12                     ; 0x2012 <main+0x1ca9>
    713f: 86 c0        	stx	$c0                     ; 0x20c0 <main+0x1d57>
    7141: a6 13        	ldx	$13                     ; 0x2013 <main+0x1caa>
    7143: 86 c1        	stx	$c1                     ; 0x20c1 <main+0x1d58>
    7145: a9 10        	lda	#$10
    7147: 92 96        	sta	($96)                   ; 0x2096 <main+0x1d2d>
    7149: a5 9c        	lda	$9c                     ; 0x209c <main+0x1d33>
    714b: 09 84        	ora	#$84
    714d: aa           	tax
    714e: a9 00        	lda	#$0
    7150: 09 01        	ora	#$1
    7152: 85 14        	sta	$14                     ; 0x2014 <main+0x1cab>
    7154: a4 96        	ldy	$96                     ; 0x2096 <main+0x1d2d>
    7156: 84 12        	sty	$12                     ; 0x2012 <main+0x1ca9>
    7158: a4 97        	ldy	$97                     ; 0x2097 <main+0x1d2e>
    715a: 84 13        	sty	$13                     ; 0x2013 <main+0x1caa>
    715c: e6 12        	inc	$12                     ; 0x2012 <main+0x1ca9>
    715e: d0 02        	bne	$7162 <_ZN12_GLOBAL__N_15printEPKcP6Status+0x4d2>
    7160: e6 13        	inc	$13                     ; 0x2013 <main+0x1caa>
    7162: a0 01        	ldy	#$1
    7164: 86 9c        	stx	$9c                     ; 0x209c <main+0x1d33>
    7166: 8a           	txa
    7167: 91 96        	sta	($96),y                 ; 0x2096 <main+0x1d2d>
    7169: a5 14        	lda	$14                     ; 0x2014 <main+0x1cab>
    716b: a6 14        	ldx	$14                     ; 0x2014 <main+0x1cab>
    716d: 4c 19 73     	jmp	$7319 <_ZN12_GLOBAL__N_15printEPKcP6Status+0x689>
    7170: a5 1b        	lda	$1b                     ; 0x201b <main+0x1cb2>
    7172: 85 c4        	sta	$c4                     ; 0x20c4 <main+0x1d5b>
    7174: a4 1a        	ldy	$1a                     ; 0x201a <main+0x1cb1>
    7176: 84 c5        	sty	$c5                     ; 0x20c5 <main+0x1d5c>
    7178: a6 16        	ldx	$16                     ; 0x2016 <main+0x1cad>
    717a: 86 c7        	stx	$c7                     ; 0x20c7 <main+0x1d5e>
    717c: a6 17        	ldx	$17                     ; 0x2017 <main+0x1cae>
    717e: 86 c6        	stx	$c6                     ; 0x20c6 <main+0x1d5d>
    7180: a6 18        	ldx	$18                     ; 0x2018 <main+0x1caf>
    7182: 86 12        	stx	$12                     ; 0x2012 <main+0x1ca9>
    7184: a6 19        	ldx	$19                     ; 0x2019 <main+0x1cb0>
    7186: 86 13        	stx	$13                     ; 0x2013 <main+0x1caa>
    7188: a6 12        	ldx	$12                     ; 0x2012 <main+0x1ca9>
    718a: 86 c0        	stx	$c0                     ; 0x20c0 <main+0x1d57>
    718c: a6 13        	ldx	$13                     ; 0x2013 <main+0x1caa>
    718e: 86 c1        	stx	$c1                     ; 0x20c1 <main+0x1d58>
    7190: a9 10        	lda	#$10
    7192: 92 96        	sta	($96)                   ; 0x2096 <main+0x1d2d>
    7194: a5 9c        	lda	$9c                     ; 0x209c <main+0x1d33>
    7196: 09 80        	ora	#$80
    7198: 85 14        	sta	$14                     ; 0x2014 <main+0x1cab>
    719a: a9 00        	lda	#$0
    719c: 09 01        	ora	#$1
    719e: aa           	tax
    719f: a4 96        	ldy	$96                     ; 0x2096 <main+0x1d2d>
    71a1: 84 12        	sty	$12                     ; 0x2012 <main+0x1ca9>
    71a3: a4 97        	ldy	$97                     ; 0x2097 <main+0x1d2e>
    71a5: 84 13        	sty	$13                     ; 0x2013 <main+0x1caa>
    71a7: e6 12        	inc	$12                     ; 0x2012 <main+0x1ca9>
    71a9: d0 02        	bne	$71ad <_ZN12_GLOBAL__N_15printEPKcP6Status+0x51d>
    71ab: e6 13        	inc	$13                     ; 0x2013 <main+0x1caa>
    71ad: a0 01        	ldy	#$1
    71af: a5 14        	lda	$14                     ; 0x2014 <main+0x1cab>
    71b1: 85 9c        	sta	$9c                     ; 0x209c <main+0x1d33>
    71b3: 4c 16 73     	jmp	$7316 <_ZN12_GLOBAL__N_15printEPKcP6Status+0x686>
    71b6: a4 96        	ldy	$96                     ; 0x2096 <main+0x1d2d>
    71b8: a5 96        	lda	$96                     ; 0x2096 <main+0x1d2d>
    71ba: 84 16        	sty	$16                     ; 0x2016 <main+0x1cad>
    71bc: 18           	clc
    71bd: 69 11        	adc	#$11
    71bf: 85 12        	sta	$12                     ; 0x2012 <main+0x1ca9>
    71c1: a5 97        	lda	$97                     ; 0x2097 <main+0x1d2e>
    71c3: 69 00        	adc	#$0
    71c5: 85 13        	sta	$13                     ; 0x2013 <main+0x1caa>
    71c7: a0 11        	ldy	#$11
    71c9: b1 96        	lda	($96),y                 ; 0x2096 <main+0x1d2d>
    71cb: 85 14        	sta	$14                     ; 0x2014 <main+0x1cab>
    71cd: 18           	clc
    71ce: 69 02        	adc	#$2
    71d0: 91 96        	sta	($96),y                 ; 0x2096 <main+0x1d2d>
    71d2: a0 01        	ldy	#$1
    71d4: b1 12        	lda	($12),y                 ; 0x2012 <main+0x1ca9>
    71d6: 85 15        	sta	$15                     ; 0x2015 <main+0x1cac>
    71d8: 69 00        	adc	#$0
    71da: 18           	clc
    71db: 91 12        	sta	($12),y                 ; 0x2012 <main+0x1ca9>
    71dd: b2 14        	lda	($14)                   ; 0x2014 <main+0x1cab>
    71df: 85 12        	sta	$12                     ; 0x2012 <main+0x1ca9>
    71e1: b1 14        	lda	($14),y                 ; 0x2014 <main+0x1cab>
    71e3: 85 13        	sta	$13                     ; 0x2013 <main+0x1caa>
    71e5: a5 16        	lda	$16                     ; 0x2016 <main+0x1cad>
    71e7: 69 05        	adc	#$5
    71e9: 85 14        	sta	$14                     ; 0x2014 <main+0x1cab>
    71eb: a5 97        	lda	$97                     ; 0x2097 <main+0x1d2e>
    71ed: 69 00        	adc	#$0
    71ef: 85 15        	sta	$15                     ; 0x2015 <main+0x1cac>
    71f1: a0 05        	ldy	#$5
    71f3: b1 96        	lda	($96),y                 ; 0x2096 <main+0x1d2d>
    71f5: 85 16        	sta	$16                     ; 0x2016 <main+0x1cad>
    71f7: a0 01        	ldy	#$1
    71f9: b1 14        	lda	($14),y                 ; 0x2014 <main+0x1cab>
    71fb: 85 14        	sta	$14                     ; 0x2014 <main+0x1cab>
    71fd: a5 16        	lda	$16                     ; 0x2016 <main+0x1cad>
    71ff: 92 12        	sta	($12)                   ; 0x2012 <main+0x1ca9>
    7201: a5 14        	lda	$14                     ; 0x2014 <main+0x1cab>
    7203: 91 12        	sta	($12),y                 ; 0x2012 <main+0x1ca9>
    7205: e6 18        	inc	$18                     ; 0x2018 <main+0x1caf>
    7207: d0 02        	bne	$720b <_ZN12_GLOBAL__N_15printEPKcP6Status+0x57b>
    7209: e6 19        	inc	$19                     ; 0x2019 <main+0x1cb0>
    720b: a6 18        	ldx	$18                     ; 0x2018 <main+0x1caf>
    720d: 86 12        	stx	$12                     ; 0x2012 <main+0x1ca9>
    720f: a6 19        	ldx	$19                     ; 0x2019 <main+0x1cb0>
    7211: 4c d5 72     	jmp	$72d5 <_ZN12_GLOBAL__N_15printEPKcP6Status+0x645>
    7214: a0 11        	ldy	#$11
    7216: a5 96        	lda	$96                     ; 0x2096 <main+0x1d2d>
    7218: 18           	clc
    7219: 69 11        	adc	#$11
    721b: 85 12        	sta	$12                     ; 0x2012 <main+0x1ca9>
    721d: a5 97        	lda	$97                     ; 0x2097 <main+0x1d2e>
    721f: 69 00        	adc	#$0
    7221: 85 13        	sta	$13                     ; 0x2013 <main+0x1caa>
    7223: b1 96        	lda	($96),y                 ; 0x2096 <main+0x1d2d>
    7225: aa           	tax
    7226: a0 01        	ldy	#$1
    7228: b1 12        	lda	($12),y                 ; 0x2012 <main+0x1ca9>
    722a: 86 14        	stx	$14                     ; 0x2014 <main+0x1cab>
    722c: 85 15        	sta	$15                     ; 0x2015 <main+0x1cac>
    722e: a8           	tay
    722f: 18           	clc
    7230: 8a           	txa
    7231: 69 02        	adc	#$2
    7233: 85 16        	sta	$16                     ; 0x2016 <main+0x1cad>
    7235: 98           	tya
    7236: 69 00        	adc	#$0
    7238: 85 17        	sta	$17                     ; 0x2017 <main+0x1cae>
    723a: a5 16        	lda	$16                     ; 0x2016 <main+0x1cad>
    723c: a0 11        	ldy	#$11
    723e: 91 96        	sta	($96),y                 ; 0x2096 <main+0x1d2d>
    7240: a0 01        	ldy	#$1
    7242: a5 17        	lda	$17                     ; 0x2017 <main+0x1cae>
    7244: 91 12        	sta	($12),y                 ; 0x2012 <main+0x1ca9>
    7246: b2 14        	lda	($14)                   ; 0x2014 <main+0x1cab>
    7248: 85 12        	sta	$12                     ; 0x2012 <main+0x1ca9>
    724a: b1 14        	lda	($14),y                 ; 0x2014 <main+0x1cab>
    724c: 85 13        	sta	$13                     ; 0x2013 <main+0x1caa>
    724e: 4c b6 72     	jmp	$72b6 <_ZN12_GLOBAL__N_15printEPKcP6Status+0x626>
    7251: a5 1b        	lda	$1b                     ; 0x201b <main+0x1cb2>
    7253: 85 c4        	sta	$c4                     ; 0x20c4 <main+0x1d5b>
    7255: a4 1a        	ldy	$1a                     ; 0x201a <main+0x1cb1>
    7257: 84 c5        	sty	$c5                     ; 0x20c5 <main+0x1d5c>
    7259: a6 16        	ldx	$16                     ; 0x2016 <main+0x1cad>
    725b: 86 c7        	stx	$c7                     ; 0x20c7 <main+0x1d5e>
    725d: a6 17        	ldx	$17                     ; 0x2017 <main+0x1cae>
    725f: 86 c6        	stx	$c6                     ; 0x20c6 <main+0x1d5d>
    7261: a6 18        	ldx	$18                     ; 0x2018 <main+0x1caf>
    7263: 86 12        	stx	$12                     ; 0x2012 <main+0x1ca9>
    7265: a6 19        	ldx	$19                     ; 0x2019 <main+0x1cb0>
    7267: 86 13        	stx	$13                     ; 0x2013 <main+0x1caa>
    7269: a6 12        	ldx	$12                     ; 0x2012 <main+0x1ca9>
    726b: 86 c0        	stx	$c0                     ; 0x20c0 <main+0x1d57>
    726d: a6 13        	ldx	$13                     ; 0x2013 <main+0x1caa>
    726f: 86 c1        	stx	$c1                     ; 0x20c1 <main+0x1d58>
    7271: a9 08        	lda	#$8
    7273: 4c fa 72     	jmp	$72fa <_ZN12_GLOBAL__N_15printEPKcP6Status+0x66a>
    7276: a0 11        	ldy	#$11
    7278: a5 96        	lda	$96                     ; 0x2096 <main+0x1d2d>
    727a: 18           	clc
    727b: 69 11        	adc	#$11
    727d: 85 12        	sta	$12                     ; 0x2012 <main+0x1ca9>
    727f: a5 97        	lda	$97                     ; 0x2097 <main+0x1d2e>
    7281: 69 00        	adc	#$0
    7283: 85 13        	sta	$13                     ; 0x2013 <main+0x1caa>
    7285: b1 96        	lda	($96),y                 ; 0x2096 <main+0x1d2d>
    7287: aa           	tax
    7288: a0 01        	ldy	#$1
    728a: b1 12        	lda	($12),y                 ; 0x2012 <main+0x1ca9>
    728c: 86 14        	stx	$14                     ; 0x2014 <main+0x1cab>
    728e: 85 15        	sta	$15                     ; 0x2015 <main+0x1cac>
    7290: a8           	tay
    7291: 18           	clc
    7292: 8a           	txa
    7293: 69 02        	adc	#$2
    7295: 85 16        	sta	$16                     ; 0x2016 <main+0x1cad>
    7297: 98           	tya
    7298: 69 00        	adc	#$0
    729a: 85 17        	sta	$17                     ; 0x2017 <main+0x1cae>
    729c: a5 16        	lda	$16                     ; 0x2016 <main+0x1cad>
    729e: a0 11        	ldy	#$11
    72a0: 91 96        	sta	($96),y                 ; 0x2096 <main+0x1d2d>
    72a2: a0 01        	ldy	#$1
    72a4: a5 17        	lda	$17                     ; 0x2017 <main+0x1cae>
    72a6: 91 12        	sta	($12),y                 ; 0x2012 <main+0x1ca9>
    72a8: b2 14        	lda	($14)                   ; 0x2014 <main+0x1cab>
    72aa: 85 9f        	sta	$9f                     ; 0x209f <main+0x1d36>
    72ac: 64 a0        	stz	$a0                     ; 0x20a0 <main+0x1d37>
    72ae: a2 9f        	ldx	#$9f
    72b0: a0 00        	ldy	#$0
    72b2: 86 12        	stx	$12                     ; 0x2012 <main+0x1ca9>
    72b4: 84 13        	sty	$13                     ; 0x2013 <main+0x1caa>
    72b6: a6 18        	ldx	$18                     ; 0x2018 <main+0x1caf>
    72b8: 86 98        	stx	$98                     ; 0x2098 <main+0x1d2f>
    72ba: a6 19        	ldx	$19                     ; 0x2019 <main+0x1cb0>
    72bc: 86 99        	stx	$99                     ; 0x2099 <main+0x1d30>
    72be: a6 96        	ldx	$96                     ; 0x2096 <main+0x1d2d>
    72c0: 86 14        	stx	$14                     ; 0x2014 <main+0x1cab>
    72c2: a6 97        	ldx	$97                     ; 0x2097 <main+0x1d2e>
    72c4: 86 15        	stx	$15                     ; 0x2015 <main+0x1cac>
    72c6: 20 9f 78     	jsr	$789f <_ZN12_GLOBAL__N_112print_stringEPKcP6Status>
    72c9: e6 98        	inc	$98                     ; 0x2098 <main+0x1d2f>
    72cb: d0 02        	bne	$72cf <_ZN12_GLOBAL__N_15printEPKcP6Status+0x63f>
    72cd: e6 99        	inc	$99                     ; 0x2099 <main+0x1d30>
    72cf: a6 98        	ldx	$98                     ; 0x2098 <main+0x1d2f>
    72d1: 86 12        	stx	$12                     ; 0x2012 <main+0x1ca9>
    72d3: a6 99        	ldx	$99                     ; 0x2099 <main+0x1d30>
    72d5: 86 13        	stx	$13                     ; 0x2013 <main+0x1caa>
    72d7: 60           	rts
    72d8: a5 1b        	lda	$1b                     ; 0x201b <main+0x1cb2>
    72da: 85 c4        	sta	$c4                     ; 0x20c4 <main+0x1d5b>
    72dc: a4 1a        	ldy	$1a                     ; 0x201a <main+0x1cb1>
    72de: 84 c5        	sty	$c5                     ; 0x20c5 <main+0x1d5c>
    72e0: a6 16        	ldx	$16                     ; 0x2016 <main+0x1cad>
    72e2: 86 c7        	stx	$c7                     ; 0x20c7 <main+0x1d5e>
    72e4: a6 17        	ldx	$17                     ; 0x2017 <main+0x1cae>
    72e6: 86 c6        	stx	$c6                     ; 0x20c6 <main+0x1d5d>
    72e8: a6 18        	ldx	$18                     ; 0x2018 <main+0x1caf>
    72ea: 86 12        	stx	$12                     ; 0x2012 <main+0x1ca9>
    72ec: a6 19        	ldx	$19                     ; 0x2019 <main+0x1cb0>
    72ee: 86 13        	stx	$13                     ; 0x2013 <main+0x1caa>
    72f0: a6 12        	ldx	$12                     ; 0x2012 <main+0x1ca9>
    72f2: 86 c0        	stx	$c0                     ; 0x20c0 <main+0x1d57>
    72f4: a6 13        	ldx	$13                     ; 0x2013 <main+0x1caa>
    72f6: 86 c1        	stx	$c1                     ; 0x20c1 <main+0x1d58>
    72f8: a9 0a        	lda	#$a
    72fa: aa           	tax
    72fb: 86 bf        	stx	$bf                     ; 0x20bf <main+0x1d56>
    72fd: 92 96        	sta	($96)                   ; 0x2096 <main+0x1d2d>
    72ff: a9 00        	lda	#$0
    7301: 09 01        	ora	#$1
    7303: aa           	tax
    7304: a4 96        	ldy	$96                     ; 0x2096 <main+0x1d2d>
    7306: 84 12        	sty	$12                     ; 0x2012 <main+0x1ca9>
    7308: a4 97        	ldy	$97                     ; 0x2097 <main+0x1d2e>
    730a: 84 13        	sty	$13                     ; 0x2013 <main+0x1caa>
    730c: e6 12        	inc	$12                     ; 0x2012 <main+0x1ca9>
    730e: d0 02        	bne	$7312 <_ZN12_GLOBAL__N_15printEPKcP6Status+0x682>
    7310: e6 13        	inc	$13                     ; 0x2013 <main+0x1caa>
    7312: a0 01        	ldy	#$1
    7314: a5 9c        	lda	$9c                     ; 0x209c <main+0x1d33>
    7316: 91 96        	sta	($96),y                 ; 0x2096 <main+0x1d2d>
    7318: 8a           	txa
    7319: 86 c8        	stx	$c8                     ; 0x20c8 <main+0x1d5f>
    731b: 91 12        	sta	($12),y                 ; 0x2012 <main+0x1ca9>
    731d: a2 b6        	ldx	#$b6
    731f: a0 00        	ldy	#$0
    7321: 86 12        	stx	$12                     ; 0x2012 <main+0x1ca9>
    7323: 84 13        	sty	$13                     ; 0x2013 <main+0x1caa>
    7325: e6 12        	inc	$12                     ; 0x2012 <main+0x1ca9>
    7327: d0 02        	bne	$732b <_ZN12_GLOBAL__N_15printEPKcP6Status+0x69b>
    7329: e6 13        	inc	$13                     ; 0x2013 <main+0x1caa>
    732b: a0 11        	ldy	#$11
    732d: a2 00        	ldx	#$0
    732f: a5 96        	lda	$96                     ; 0x2096 <main+0x1d2d>
    7331: 18           	clc
    7332: 69 11        	adc	#$11
    7334: 85 9a        	sta	$9a                     ; 0x209a <main+0x1d31>
    7336: a5 97        	lda	$97                     ; 0x2097 <main+0x1d2e>
    7338: 69 00        	adc	#$0
    733a: 85 9b        	sta	$9b                     ; 0x209b <main+0x1d32>
    733c: b1 96        	lda	($96),y                 ; 0x2096 <main+0x1d2d>
    733e: 85 99        	sta	$99                     ; 0x2099 <main+0x1d30>
    7340: a0 01        	ldy	#$1
    7342: b1 9a        	lda	($9a),y                 ; 0x209a <main+0x1d31>
    7344: 85 c9        	sta	$c9                     ; 0x20c9 <main+0x1d60>
    7346: a4 99        	ldy	$99                     ; 0x2099 <main+0x1d30>
    7348: 84 14        	sty	$14                     ; 0x2014 <main+0x1cab>
    734a: 85 15        	sta	$15                     ; 0x2015 <main+0x1cac>
    734c: 64 9e        	stz	$9e                     ; 0x209e <main+0x1d35>
    734e: a5 9d        	lda	$9d                     ; 0x209d <main+0x1d34>
    7350: a4 9d        	ldy	$9d                     ; 0x209d <main+0x1d34>
    7352: 84 ca        	sty	$ca                     ; 0x20ca <main+0x1d61>
    7354: 20 0d 7b     	jsr	$7b0d <memcpy>
    7357: a2 00        	ldx	#$0
    7359: 86 c3        	stx	$c3                     ; 0x20c3 <main+0x1d5a>
    735b: 18           	clc
    735c: a5 99        	lda	$99                     ; 0x2099 <main+0x1d30>
    735e: 65 98        	adc	$98                     ; 0x2098 <main+0x1d2f>
    7360: 85 13        	sta	$13                     ; 0x2013 <main+0x1caa>
    7362: a5 c9        	lda	$c9                     ; 0x20c9 <main+0x1d60>
    7364: 69 00        	adc	#$0
    7366: 85 12        	sta	$12                     ; 0x2012 <main+0x1ca9>
    7368: a0 11        	ldy	#$11
    736a: a5 13        	lda	$13                     ; 0x2013 <main+0x1caa>
    736c: 91 96        	sta	($96),y                 ; 0x2096 <main+0x1d2d>
    736e: a0 01        	ldy	#$1
    7370: a5 12        	lda	$12                     ; 0x2012 <main+0x1ca9>
    7372: 91 9a        	sta	($9a),y                 ; 0x209a <main+0x1d31>
    7374: a5 c8        	lda	$c8                     ; 0x20c8 <main+0x1d5f>
    7376: 29 01        	and	#$1
    7378: d0 4c        	bne	$73c6 <_ZN12_GLOBAL__N_15printEPKcP6Status+0x736>
    737a: a6 ca        	ldx	$ca                     ; 0x20ca <main+0x1d61>
    737c: b4 b6        	ldy	$b6,x                   ; 0x20b6 <main+0x1d4d>
    737e: a6 c6        	ldx	$c6                     ; 0x20c6 <main+0x1d5d>
    7380: 86 12        	stx	$12                     ; 0x2012 <main+0x1ca9>
    7382: a6 c7        	ldx	$c7                     ; 0x20c7 <main+0x1d5e>
    7384: 86 13        	stx	$13                     ; 0x2013 <main+0x1caa>
    7386: a6 c5        	ldx	$c5                     ; 0x20c5 <main+0x1d5c>
    7388: 86 98        	stx	$98                     ; 0x2098 <main+0x1d2f>
    738a: a6 c4        	ldx	$c4                     ; 0x20c4 <main+0x1d5b>
    738c: 86 99        	stx	$99                     ; 0x2099 <main+0x1d30>
    738e: 98           	tya
    738f: 10 45        	bpl	$73d6 <_ZN12_GLOBAL__N_15printEPKcP6Status+0x746>
    7391: a2 00        	ldx	#$0
    7393: 64 14        	stz	$14                     ; 0x2014 <main+0x1cab>
    7395: 38           	sec
    7396: a9 00        	lda	#$0
    7398: f5 b7        	sbc	$b7,x                   ; 0x20b7 <main+0x1d4e>
    739a: a0 00        	ldy	#$0
    739c: b0 02        	bcs	$73a0 <_ZN12_GLOBAL__N_15printEPKcP6Status+0x710>
    739e: a0 01        	ldy	#$1
    73a0: 38           	sec
    73a1: e5 14        	sbc	$14                     ; 0x2014 <main+0x1cab>
    73a3: 85 15        	sta	$15                     ; 0x2015 <main+0x1cac>
    73a5: 64 14        	stz	$14                     ; 0x2014 <main+0x1cab>
    73a7: b0 04        	bcs	$73ad <_ZN12_GLOBAL__N_15printEPKcP6Status+0x71d>
    73a9: a9 01        	lda	#$1
    73ab: 85 14        	sta	$14                     ; 0x2014 <main+0x1cab>
    73ad: 98           	tya
    73ae: 05 14        	ora	$14                     ; 0x2014 <main+0x1cab>
    73b0: 85 14        	sta	$14                     ; 0x2014 <main+0x1cab>
    73b2: a5 15        	lda	$15                     ; 0x2015 <main+0x1cac>
    73b4: 9d b7 00     	sta	$b7,x                   ; 0xb7 <__rc31+0x88>
    73b7: e8           	inx
    73b8: 86 15        	stx	$15                     ; 0x2015 <main+0x1cac>
    73ba: a4 9d        	ldy	$9d                     ; 0x209d <main+0x1d34>
    73bc: c4 15        	cpy	$15                     ; 0x2015 <main+0x1cac>
    73be: d0 d5        	bne	$7395 <_ZN12_GLOBAL__N_15printEPKcP6Status+0x705>
    73c0: a2 01        	ldx	#$1
    73c2: 86 c3        	stx	$c3                     ; 0x20c3 <main+0x1d5a>
    73c4: 80 10        	bra	$73d6 <_ZN12_GLOBAL__N_15printEPKcP6Status+0x746>
    73c6: a6 c6        	ldx	$c6                     ; 0x20c6 <main+0x1d5d>
    73c8: 86 12        	stx	$12                     ; 0x2012 <main+0x1ca9>
    73ca: a6 c7        	ldx	$c7                     ; 0x20c7 <main+0x1d5e>
    73cc: 86 13        	stx	$13                     ; 0x2013 <main+0x1caa>
    73ce: a6 c5        	ldx	$c5                     ; 0x20c5 <main+0x1d5c>
    73d0: 86 98        	stx	$98                     ; 0x2098 <main+0x1d2f>
    73d2: a6 c4        	ldx	$c4                     ; 0x20c4 <main+0x1d5b>
    73d4: 86 99        	stx	$99                     ; 0x2099 <main+0x1d30>
    73d6: a5 9d        	lda	$9d                     ; 0x209d <main+0x1d34>
    73d8: 0a           	asl
    73d9: 0a           	asl
    73da: 0a           	asl
    73db: 85 14        	sta	$14                     ; 0x2014 <main+0x1cab>
    73dd: 64 9b        	stz	$9b                     ; 0x209b <main+0x1d32>
    73df: a5 9b        	lda	$9b                     ; 0x209b <main+0x1d32>
    73e1: f0 50        	beq	$7433 <_ZN12_GLOBAL__N_15printEPKcP6Status+0x7a3>
    73e3: a6 9b        	ldx	$9b                     ; 0x209b <main+0x1d32>
    73e5: ca           	dex
    73e6: 86 17        	stx	$17                     ; 0x2017 <main+0x1cae>
    73e8: a2 00        	ldx	#$0
    73ea: 64 15        	stz	$15                     ; 0x2015 <main+0x1cac>
    73ec: 80 0d        	bra	$73fb <_ZN12_GLOBAL__N_15printEPKcP6Status+0x76b>
    73ee: a4 15        	ldy	$15                     ; 0x2015 <main+0x1cac>
    73f0: 99 a1 00     	sta	$a1,y                   ; 0xa1 <__rc31+0x72>
    73f3: a4 17        	ldy	$17                     ; 0x2017 <main+0x1cae>
    73f5: c4 15        	cpy	$15                     ; 0x2015 <main+0x1cac>
    73f7: f0 46        	beq	$743f <_ZN12_GLOBAL__N_15printEPKcP6Status+0x7af>
    73f9: e6 15        	inc	$15                     ; 0x2015 <main+0x1cac>
    73fb: a4 15        	ldy	$15                     ; 0x2015 <main+0x1cac>
    73fd: b9 a1 00     	lda	$a1,y                   ; 0xa1 <__rc31+0x72>
    7400: 0a           	asl
    7401: e0 00        	cpx	#$0
    7403: f0 02        	beq	$7407 <_ZN12_GLOBAL__N_15printEPKcP6Status+0x777>
    7405: 09 01        	ora	#$1
    7407: a4 bf        	ldy	$bf                     ; 0x20bf <main+0x1d56>
    7409: 84 16        	sty	$16                     ; 0x2016 <main+0x1cad>
    740b: c5 16        	cmp	$16                     ; 0x2016 <main+0x1cad>
    740d: a2 01        	ldx	#$1
    740f: b0 02        	bcs	$7413 <_ZN12_GLOBAL__N_15printEPKcP6Status+0x783>
    7411: a2 00        	ldx	#$0
    7413: 90 d9        	bcc	$73ee <_ZN12_GLOBAL__N_15printEPKcP6Status+0x75e>
    7415: 84 16        	sty	$16                     ; 0x2016 <main+0x1cad>
    7417: 38           	sec
    7418: e5 16        	sbc	$16                     ; 0x2016 <main+0x1cad>
    741a: a4 15        	ldy	$15                     ; 0x2015 <main+0x1cac>
    741c: 99 a1 00     	sta	$a1,y                   ; 0xa1 <__rc31+0x72>
    741f: a4 17        	ldy	$17                     ; 0x2017 <main+0x1cae>
    7421: c4 15        	cpy	$15                     ; 0x2015 <main+0x1cac>
    7423: d0 d4        	bne	$73f9 <_ZN12_GLOBAL__N_15printEPKcP6Status+0x769>
    7425: a4 9b        	ldy	$9b                     ; 0x209b <main+0x1d32>
    7427: a6 9b        	ldx	$9b                     ; 0x209b <main+0x1d32>
    7429: e8           	inx
    742a: a9 01        	lda	#$1
    742c: 99 a1 00     	sta	$a1,y                   ; 0xa1 <__rc31+0x72>
    742f: da           	phx
    7430: 7a           	ply
    7431: 80 0e        	bra	$7441 <_ZN12_GLOBAL__N_15printEPKcP6Status+0x7b1>
    7433: a6 9d        	ldx	$9d                     ; 0x209d <main+0x1d34>
    7435: b5 b6        	lda	$b6,x                   ; 0x20b6 <main+0x1d4d>
    7437: aa           	tax
    7438: a0 00        	ldy	#$0
    743a: 8a           	txa
    743b: 30 36        	bmi	$7473 <_ZN12_GLOBAL__N_15printEPKcP6Status+0x7e3>
    743d: 80 3e        	bra	$747d <_ZN12_GLOBAL__N_15printEPKcP6Status+0x7ed>
    743f: a4 9b        	ldy	$9b                     ; 0x209b <main+0x1d32>
    7441: a6 9d        	ldx	$9d                     ; 0x209d <main+0x1d34>
    7443: b5 b6        	lda	$b6,x                   ; 0x20b6 <main+0x1d4d>
    7445: aa           	tax
    7446: 10 35        	bpl	$747d <_ZN12_GLOBAL__N_15printEPKcP6Status+0x7ed>
    7448: 98           	tya
    7449: f0 26        	beq	$7471 <_ZN12_GLOBAL__N_15printEPKcP6Status+0x7e1>
    744b: 84 16        	sty	$16                     ; 0x2016 <main+0x1cad>
    744d: a2 00        	ldx	#$0
    744f: a4 bf        	ldy	$bf                     ; 0x20bf <main+0x1d56>
    7451: b5 a1        	lda	$a1,x                   ; 0x20a1 <main+0x1d38>
    7453: 1a           	inc
    7454: f6 a1        	inc	$a1,x                   ; 0x20a1 <main+0x1d38>
    7456: 84 15        	sty	$15                     ; 0x2015 <main+0x1cac>
    7458: c5 15        	cmp	$15                     ; 0x2015 <main+0x1cac>
    745a: 90 4a        	bcc	$74a6 <_ZN12_GLOBAL__N_15printEPKcP6Status+0x816>
    745c: 84 15        	sty	$15                     ; 0x2015 <main+0x1cac>
    745e: 38           	sec
    745f: e5 15        	sbc	$15                     ; 0x2015 <main+0x1cac>
    7461: 9d a1 00     	sta	$a1,x                   ; 0xa1 <__rc31+0x72>
    7464: e8           	inx
    7465: 86 15        	stx	$15                     ; 0x2015 <main+0x1cac>
    7467: a5 16        	lda	$16                     ; 0x2016 <main+0x1cad>
    7469: c5 15        	cmp	$15                     ; 0x2015 <main+0x1cac>
    746b: d0 e4        	bne	$7451 <_ZN12_GLOBAL__N_15printEPKcP6Status+0x7c1>
    746d: a4 16        	ldy	$16                     ; 0x2016 <main+0x1cad>
    746f: 80 02        	bra	$7473 <_ZN12_GLOBAL__N_15printEPKcP6Status+0x7e3>
    7471: a0 00        	ldy	#$0
    7473: 5a           	phy
    7474: fa           	plx
    7475: e8           	inx
    7476: a9 01        	lda	#$1
    7478: 99 a1 00     	sta	$a1,y                   ; 0xa1 <__rc31+0x72>
    747b: da           	phx
    747c: 7a           	ply
    747d: 84 9b        	sty	$9b                     ; 0x209b <main+0x1d32>
    747f: a2 01        	ldx	#$1
    7481: 64 15        	stz	$15                     ; 0x2015 <main+0x1cac>
    7483: a4 9d        	ldy	$9d                     ; 0x209d <main+0x1d34>
    7485: b5 b6        	lda	$b6,x                   ; 0x20b6 <main+0x1d4d>
    7487: 0a           	asl
    7488: 64 16        	stz	$16                     ; 0x2016 <main+0x1cad>
    748a: 26 16        	rol	$16                     ; 0x2016 <main+0x1cad>
    748c: 05 15        	ora	$15                     ; 0x2015 <main+0x1cac>
    748e: 9d b6 00     	sta	$b6,x                   ; 0xb6 <__rc31+0x87>
    7491: e8           	inx
    7492: 88           	dey
    7493: a5 16        	lda	$16                     ; 0x2016 <main+0x1cad>
    7495: 85 15        	sta	$15                     ; 0x2015 <main+0x1cac>
    7497: 98           	tya
    7498: d0 eb        	bne	$7485 <_ZN12_GLOBAL__N_15printEPKcP6Status+0x7f5>
    749a: a6 9e        	ldx	$9e                     ; 0x209e <main+0x1d35>
    749c: e8           	inx
    749d: 86 9e        	stx	$9e                     ; 0x209e <main+0x1d35>
    749f: e4 14        	cpx	$14                     ; 0x2014 <main+0x1cab>
    74a1: b0 07        	bcs	$74aa <_ZN12_GLOBAL__N_15printEPKcP6Status+0x81a>
    74a3: 4c df 73     	jmp	$73df <_ZN12_GLOBAL__N_15printEPKcP6Status+0x74f>
    74a6: a4 16        	ldy	$16                     ; 0x2016 <main+0x1cad>
    74a8: 80 d3        	bra	$747d <_ZN12_GLOBAL__N_15printEPKcP6Status+0x7ed>
    74aa: a5 9c        	lda	$9c                     ; 0x209c <main+0x1d33>
    74ac: a6 99        	ldx	$99                     ; 0x2099 <main+0x1d30>
    74ae: 10 06        	bpl	$74b6 <_ZN12_GLOBAL__N_15printEPKcP6Status+0x826>
    74b0: a2 01        	ldx	#$1
    74b2: 64 99        	stz	$99                     ; 0x2099 <main+0x1d30>
    74b4: 86 98        	stx	$98                     ; 0x2098 <main+0x1d2f>
    74b6: 29 04        	and	#$4
    74b8: f0 2c        	beq	$74e6 <_ZN12_GLOBAL__N_15printEPKcP6Status+0x856>
    74ba: a6 bf        	ldx	$bf                     ; 0x20bf <main+0x1d56>
    74bc: e0 10        	cpx	#$10
    74be: f0 14        	beq	$74d4 <_ZN12_GLOBAL__N_15printEPKcP6Status+0x844>
    74c0: e0 08        	cpx	#$8
    74c2: d0 22        	bne	$74e6 <_ZN12_GLOBAL__N_15printEPKcP6Status+0x856>
    74c4: a2 00        	ldx	#$0
    74c6: e4 99        	cpx	$99                     ; 0x2099 <main+0x1d30>
    74c8: f0 03        	beq	$74cd <_ZN12_GLOBAL__N_15printEPKcP6Status+0x83d>
    74ca: 4c 0d 76     	jmp	$760d <_ZN12_GLOBAL__N_15printEPKcP6Status+0x97d>
    74cd: a5 9b        	lda	$9b                     ; 0x209b <main+0x1d32>
    74cf: c5 98        	cmp	$98                     ; 0x2098 <main+0x1d2f>
    74d1: 4c 0f 76     	jmp	$760f <_ZN12_GLOBAL__N_15printEPKcP6Status+0x97f>
    74d4: a5 9b        	lda	$9b                     ; 0x209b <main+0x1d32>
    74d6: f0 0e        	beq	$74e6 <_ZN12_GLOBAL__N_15printEPKcP6Status+0x856>
    74d8: a5 9c        	lda	$9c                     ; 0x209c <main+0x1d33>
    74da: 29 80        	and	#$80
    74dc: d0 03        	bne	$74e1 <_ZN12_GLOBAL__N_15printEPKcP6Status+0x851>
    74de: 4c 24 76     	jmp	$7624 <_ZN12_GLOBAL__N_15printEPKcP6Status+0x994>
    74e1: a2 78        	ldx	#$78
    74e3: 4c 26 76     	jmp	$7626 <_ZN12_GLOBAL__N_15printEPKcP6Status+0x996>
    74e6: a5 9c        	lda	$9c                     ; 0x209c <main+0x1d33>
    74e8: a2 2d        	ldx	#$2d
    74ea: 86 bf        	stx	$bf                     ; 0x20bf <main+0x1d56>
    74ec: a6 c3        	ldx	$c3                     ; 0x20c3 <main+0x1d5a>
    74ee: d0 1b        	bne	$750b <_ZN12_GLOBAL__N_15printEPKcP6Status+0x87b>
    74f0: aa           	tax
    74f1: 29 02        	and	#$2
    74f3: a0 2b        	ldy	#$2b
    74f5: 84 bf        	sty	$bf                     ; 0x20bf <main+0x1d56>
    74f7: a8           	tay
    74f8: d0 11        	bne	$750b <_ZN12_GLOBAL__N_15printEPKcP6Status+0x87b>
    74fa: 8a           	txa
    74fb: 29 08        	and	#$8
    74fd: d0 08        	bne	$7507 <_ZN12_GLOBAL__N_15printEPKcP6Status+0x877>
    74ff: a2 01        	ldx	#$1
    7501: 86 c3        	stx	$c3                     ; 0x20c3 <main+0x1d5a>
    7503: a9 00        	lda	#$0
    7505: 80 0a        	bra	$7511 <_ZN12_GLOBAL__N_15printEPKcP6Status+0x881>
    7507: a2 20        	ldx	#$20
    7509: 86 bf        	stx	$bf                     ; 0x20bf <main+0x1d56>
    750b: a2 00        	ldx	#$0
    750d: 86 c3        	stx	$c3                     ; 0x20c3 <main+0x1d5a>
    750f: a9 01        	lda	#$1
    7511: a4 9b        	ldy	$9b                     ; 0x209b <main+0x1d32>
    7513: a6 99        	ldx	$99                     ; 0x2099 <main+0x1d30>
    7515: d0 08        	bne	$751f <_ZN12_GLOBAL__N_15printEPKcP6Status+0x88f>
    7517: a6 98        	ldx	$98                     ; 0x2098 <main+0x1d2f>
    7519: 84 14        	sty	$14                     ; 0x2014 <main+0x1cab>
    751b: e4 14        	cpx	$14                     ; 0x2014 <main+0x1cab>
    751d: 80 04        	bra	$7523 <_ZN12_GLOBAL__N_15printEPKcP6Status+0x893>
    751f: a6 99        	ldx	$99                     ; 0x2099 <main+0x1d30>
    7521: e0 00        	cpx	#$0
    7523: a6 98        	ldx	$98                     ; 0x2098 <main+0x1d2f>
    7525: 86 14        	stx	$14                     ; 0x2014 <main+0x1cab>
    7527: a6 99        	ldx	$99                     ; 0x2099 <main+0x1d30>
    7529: 86 15        	stx	$15                     ; 0x2015 <main+0x1cac>
    752b: b0 04        	bcs	$7531 <_ZN12_GLOBAL__N_15printEPKcP6Status+0x8a1>
    752d: 84 14        	sty	$14                     ; 0x2014 <main+0x1cab>
    752f: 64 15        	stz	$15                     ; 0x2015 <main+0x1cac>
    7531: 18           	clc
    7532: aa           	tax
    7533: 65 14        	adc	$14                     ; 0x2014 <main+0x1cab>
    7535: a8           	tay
    7536: 85 16        	sta	$16                     ; 0x2016 <main+0x1cad>
    7538: a5 15        	lda	$15                     ; 0x2015 <main+0x1cac>
    753a: 69 00        	adc	#$0
    753c: 85 17        	sta	$17                     ; 0x2017 <main+0x1cae>
    753e: c5 12        	cmp	$12                     ; 0x2012 <main+0x1ca9>
    7540: d0 04        	bne	$7546 <_ZN12_GLOBAL__N_15printEPKcP6Status+0x8b6>
    7542: c4 13        	cpy	$13                     ; 0x2013 <main+0x1caa>
    7544: 80 02        	bra	$7548 <_ZN12_GLOBAL__N_15printEPKcP6Status+0x8b8>
    7546: c5 12        	cmp	$12                     ; 0x2012 <main+0x1ca9>
    7548: 64 9a        	stz	$9a                     ; 0x209a <main+0x1d31>
    754a: 90 04        	bcc	$7550 <_ZN12_GLOBAL__N_15printEPKcP6Status+0x8c0>
    754c: 64 9c        	stz	$9c                     ; 0x209c <main+0x1d33>
    754e: 80 4d        	bra	$759d <_ZN12_GLOBAL__N_15printEPKcP6Status+0x90d>
    7550: a5 9c        	lda	$9c                     ; 0x209c <main+0x1d33>
    7552: 29 11        	and	#$11
    7554: f0 0f        	beq	$7565 <_ZN12_GLOBAL__N_15printEPKcP6Status+0x8d5>
    7556: a5 13        	lda	$13                     ; 0x2013 <main+0x1caa>
    7558: 38           	sec
    7559: e5 16        	sbc	$16                     ; 0x2016 <main+0x1cad>
    755b: 85 9a        	sta	$9a                     ; 0x209a <main+0x1d31>
    755d: a5 12        	lda	$12                     ; 0x2012 <main+0x1ca9>
    755f: e5 17        	sbc	$17                     ; 0x2017 <main+0x1cae>
    7561: 85 9c        	sta	$9c                     ; 0x209c <main+0x1d33>
    7563: 80 38        	bra	$759d <_ZN12_GLOBAL__N_15printEPKcP6Status+0x90d>
    7565: 8a           	txa
    7566: 38           	sec
    7567: e5 13        	sbc	$13                     ; 0x2013 <main+0x1caa>
    7569: aa           	tax
    756a: a9 00        	lda	#$0
    756c: e5 12        	sbc	$12                     ; 0x2012 <main+0x1ca9>
    756e: 85 12        	sta	$12                     ; 0x2012 <main+0x1ca9>
    7570: 18           	clc
    7571: 8a           	txa
    7572: 65 14        	adc	$14                     ; 0x2014 <main+0x1cab>
    7574: 85 9a        	sta	$9a                     ; 0x209a <main+0x1d31>
    7576: a5 12        	lda	$12                     ; 0x2012 <main+0x1ca9>
    7578: 65 15        	adc	$15                     ; 0x2015 <main+0x1cac>
    757a: 85 9c        	sta	$9c                     ; 0x209c <main+0x1d33>
    757c: a6 96        	ldx	$96                     ; 0x2096 <main+0x1d2d>
    757e: 86 12        	stx	$12                     ; 0x2012 <main+0x1ca9>
    7580: a6 97        	ldx	$97                     ; 0x2097 <main+0x1d2e>
    7582: 86 13        	stx	$13                     ; 0x2013 <main+0x1caa>
    7584: a9 20        	lda	#$20
    7586: 20 c4 77     	jsr	$77c4 <_ZN12_GLOBAL__N_13putEcP6Status>
    7589: a6 9c        	ldx	$9c                     ; 0x209c <main+0x1d33>
    758b: e6 9a        	inc	$9a                     ; 0x209a <main+0x1d31>
    758d: d0 01        	bne	$7590 <_ZN12_GLOBAL__N_15printEPKcP6Status+0x900>
    758f: e8           	inx
    7590: 86 9c        	stx	$9c                     ; 0x209c <main+0x1d33>
    7592: 8a           	txa
    7593: d0 e7        	bne	$757c <_ZN12_GLOBAL__N_15printEPKcP6Status+0x8ec>
    7595: a5 9a        	lda	$9a                     ; 0x209a <main+0x1d31>
    7597: d0 e3        	bne	$757c <_ZN12_GLOBAL__N_15printEPKcP6Status+0x8ec>
    7599: 64 9c        	stz	$9c                     ; 0x209c <main+0x1d33>
    759b: 64 9a        	stz	$9a                     ; 0x209a <main+0x1d31>
    759d: a6 c3        	ldx	$c3                     ; 0x20c3 <main+0x1d5a>
    759f: d0 0d        	bne	$75ae <_ZN12_GLOBAL__N_15printEPKcP6Status+0x91e>
    75a1: a6 96        	ldx	$96                     ; 0x2096 <main+0x1d2d>
    75a3: 86 12        	stx	$12                     ; 0x2012 <main+0x1ca9>
    75a5: a6 97        	ldx	$97                     ; 0x2097 <main+0x1d2e>
    75a7: 86 13        	stx	$13                     ; 0x2013 <main+0x1caa>
    75a9: a5 bf        	lda	$bf                     ; 0x20bf <main+0x1d56>
    75ab: 20 c4 77     	jsr	$77c4 <_ZN12_GLOBAL__N_13putEcP6Status>
    75ae: a6 c2        	ldx	$c2                     ; 0x20c2 <main+0x1d59>
    75b0: f0 0d        	beq	$75bf <_ZN12_GLOBAL__N_15printEPKcP6Status+0x92f>
    75b2: a6 96        	ldx	$96                     ; 0x2096 <main+0x1d2d>
    75b4: 86 12        	stx	$12                     ; 0x2012 <main+0x1ca9>
    75b6: a6 97        	ldx	$97                     ; 0x2097 <main+0x1d2e>
    75b8: 86 13        	stx	$13                     ; 0x2013 <main+0x1caa>
    75ba: a5 c4        	lda	$c4                     ; 0x20c4 <main+0x1d5b>
    75bc: 20 c4 77     	jsr	$77c4 <_ZN12_GLOBAL__N_13putEcP6Status>
    75bf: a0 01        	ldy	#$1
    75c1: b1 96        	lda	($96),y                 ; 0x2096 <main+0x1d2d>
    75c3: aa           	tax
    75c4: 29 10        	and	#$10
    75c6: f0 36        	beq	$75fe <_ZN12_GLOBAL__N_15printEPKcP6Status+0x96e>
    75c8: 8a           	txa
    75c9: 29 01        	and	#$1
    75cb: a6 9b        	ldx	$9b                     ; 0x209b <main+0x1d32>
    75cd: a8           	tay
    75ce: d0 30        	bne	$7600 <_ZN12_GLOBAL__N_15printEPKcP6Status+0x970>
    75d0: a5 9c        	lda	$9c                     ; 0x209c <main+0x1d33>
    75d2: d0 07        	bne	$75db <_ZN12_GLOBAL__N_15printEPKcP6Status+0x94b>
    75d4: a5 9a        	lda	$9a                     ; 0x209a <main+0x1d31>
    75d6: d0 03        	bne	$75db <_ZN12_GLOBAL__N_15printEPKcP6Status+0x94b>
    75d8: 4c 3b 76     	jmp	$763b <_ZN12_GLOBAL__N_15printEPKcP6Status+0x9ab>
    75db: a6 96        	ldx	$96                     ; 0x2096 <main+0x1d2d>
    75dd: 86 12        	stx	$12                     ; 0x2012 <main+0x1ca9>
    75df: a6 97        	ldx	$97                     ; 0x2097 <main+0x1d2e>
    75e1: 86 13        	stx	$13                     ; 0x2013 <main+0x1caa>
    75e3: a9 30        	lda	#$30
    75e5: 20 c4 77     	jsr	$77c4 <_ZN12_GLOBAL__N_13putEcP6Status>
    75e8: a2 ff        	ldx	#$ff
    75ea: c6 9a        	dec	$9a                     ; 0x209a <main+0x1d31>
    75ec: e4 9a        	cpx	$9a                     ; 0x209a <main+0x1d31>
    75ee: d0 02        	bne	$75f2 <_ZN12_GLOBAL__N_15printEPKcP6Status+0x962>
    75f0: c6 9c        	dec	$9c                     ; 0x209c <main+0x1d33>
    75f2: a5 9c        	lda	$9c                     ; 0x209c <main+0x1d33>
    75f4: d0 e5        	bne	$75db <_ZN12_GLOBAL__N_15printEPKcP6Status+0x94b>
    75f6: a5 9a        	lda	$9a                     ; 0x209a <main+0x1d31>
    75f8: d0 e1        	bne	$75db <_ZN12_GLOBAL__N_15printEPKcP6Status+0x94b>
    75fa: 64 9a        	stz	$9a                     ; 0x209a <main+0x1d31>
    75fc: 64 9c        	stz	$9c                     ; 0x209c <main+0x1d33>
    75fe: a6 9b        	ldx	$9b                     ; 0x209b <main+0x1d32>
    7600: a0 00        	ldy	#$0
    7602: c4 99        	cpy	$99                     ; 0x2099 <main+0x1d30>
    7604: f0 3d        	beq	$7643 <_ZN12_GLOBAL__N_15printEPKcP6Status+0x9b3>
    7606: c4 99        	cpy	$99                     ; 0x2099 <main+0x1d30>
    7608: 90 3d        	bcc	$7647 <_ZN12_GLOBAL__N_15printEPKcP6Status+0x9b7>
    760a: 4c 6a 76     	jmp	$766a <_ZN12_GLOBAL__N_15printEPKcP6Status+0x9da>
    760d: e4 99        	cpx	$99                     ; 0x2099 <main+0x1d30>
    760f: a5 9c        	lda	$9c                     ; 0x209c <main+0x1d33>
    7611: b0 03        	bcs	$7616 <_ZN12_GLOBAL__N_15printEPKcP6Status+0x986>
    7613: 4c e8 74     	jmp	$74e8 <_ZN12_GLOBAL__N_15printEPKcP6Status+0x858>
    7616: a4 9b        	ldy	$9b                     ; 0x209b <main+0x1d32>
    7618: 84 98        	sty	$98                     ; 0x2098 <main+0x1d2f>
    761a: e6 98        	inc	$98                     ; 0x2098 <main+0x1d2f>
    761c: d0 01        	bne	$761f <_ZN12_GLOBAL__N_15printEPKcP6Status+0x98f>
    761e: e8           	inx
    761f: 86 99        	stx	$99                     ; 0x2099 <main+0x1d30>
    7621: 4c e8 74     	jmp	$74e8 <_ZN12_GLOBAL__N_15printEPKcP6Status+0x858>
    7624: a2 58        	ldx	#$58
    7626: 86 c4        	stx	$c4                     ; 0x20c4 <main+0x1d5b>
    7628: a4 9b        	ldy	$9b                     ; 0x209b <main+0x1d32>
    762a: a2 01        	ldx	#$1
    762c: 86 c2        	stx	$c2                     ; 0x20c2 <main+0x1d59>
    762e: a2 30        	ldx	#$30
    7630: 86 bf        	stx	$bf                     ; 0x20bf <main+0x1d56>
    7632: a9 02        	lda	#$2
    7634: a2 00        	ldx	#$0
    7636: 86 c3        	stx	$c3                     ; 0x20c3 <main+0x1d5a>
    7638: 4c 13 75     	jmp	$7513 <_ZN12_GLOBAL__N_15printEPKcP6Status+0x883>
    763b: 64 9a        	stz	$9a                     ; 0x209a <main+0x1d31>
    763d: 64 9c        	stz	$9c                     ; 0x209c <main+0x1d33>
    763f: 80 bf        	bra	$7600 <_ZN12_GLOBAL__N_15printEPKcP6Status+0x970>
    7641: a6 9b        	ldx	$9b                     ; 0x209b <main+0x1d32>
    7643: e4 98        	cpx	$98                     ; 0x2098 <main+0x1d2f>
    7645: b0 23        	bcs	$766a <_ZN12_GLOBAL__N_15printEPKcP6Status+0x9da>
    7647: a2 ff        	ldx	#$ff
    7649: c6 98        	dec	$98                     ; 0x2098 <main+0x1d2f>
    764b: e4 98        	cpx	$98                     ; 0x2098 <main+0x1d2f>
    764d: d0 02        	bne	$7651 <_ZN12_GLOBAL__N_15printEPKcP6Status+0x9c1>
    764f: c6 99        	dec	$99                     ; 0x2099 <main+0x1d30>
    7651: a6 96        	ldx	$96                     ; 0x2096 <main+0x1d2d>
    7653: 86 12        	stx	$12                     ; 0x2012 <main+0x1ca9>
    7655: a6 97        	ldx	$97                     ; 0x2097 <main+0x1d2e>
    7657: 86 13        	stx	$13                     ; 0x2013 <main+0x1caa>
    7659: a9 30        	lda	#$30
    765b: 20 c4 77     	jsr	$77c4 <_ZN12_GLOBAL__N_13putEcP6Status>
    765e: a2 00        	ldx	#$0
    7660: e4 99        	cpx	$99                     ; 0x2099 <main+0x1d30>
    7662: f0 dd        	beq	$7641 <_ZN12_GLOBAL__N_15printEPKcP6Status+0x9b1>
    7664: e4 99        	cpx	$99                     ; 0x2099 <main+0x1d30>
    7666: a6 9b        	ldx	$9b                     ; 0x209b <main+0x1d32>
    7668: 90 dd        	bcc	$7647 <_ZN12_GLOBAL__N_15printEPKcP6Status+0x9b7>
    766a: a4 9a        	ldy	$9a                     ; 0x209a <main+0x1d31>
    766c: 84 9b        	sty	$9b                     ; 0x209b <main+0x1d32>
    766e: 8a           	txa
    766f: d0 03        	bne	$7674 <_ZN12_GLOBAL__N_15printEPKcP6Status+0x9e4>
    7671: 4c 04 77     	jmp	$7704 <_ZN12_GLOBAL__N_15printEPKcP6Status+0xa74>
    7674: ca           	dex
    7675: d0 03        	bne	$767a <_ZN12_GLOBAL__N_15printEPKcP6Status+0x9ea>
    7677: 4c d5 76     	jmp	$76d5 <_ZN12_GLOBAL__N_15printEPKcP6Status+0xa45>
    767a: 86 9a        	stx	$9a                     ; 0x209a <main+0x1d31>
    767c: a9 9f        	lda	#$9f
    767e: 18           	clc
    767f: 65 9a        	adc	$9a                     ; 0x209a <main+0x1d31>
    7681: aa           	tax
    7682: a9 00        	lda	#$0
    7684: 69 00        	adc	#$0
    7686: 85 12        	sta	$12                     ; 0x2012 <main+0x1ca9>
    7688: 18           	clc
    7689: 8a           	txa
    768a: 69 02        	adc	#$2
    768c: 85 98        	sta	$98                     ; 0x2098 <main+0x1d2f>
    768e: a5 12        	lda	$12                     ; 0x2012 <main+0x1ca9>
    7690: 69 00        	adc	#$0
    7692: 85 99        	sta	$99                     ; 0x2099 <main+0x1d30>
    7694: 80 35        	bra	$76cb <_ZN12_GLOBAL__N_15printEPKcP6Status+0xa3b>
    7696: 85 13        	sta	$13                     ; 0x2013 <main+0x1caa>
    7698: a9 80        	lda	#$80
    769a: a0 01        	ldy	#$1
    769c: 31 96        	and	($96),y                 ; 0x2096 <main+0x1d2d>
    769e: f0 04        	beq	$76a4 <_ZN12_GLOBAL__N_15printEPKcP6Status+0xa14>
    76a0: a2 61        	ldx	#$61
    76a2: 80 02        	bra	$76a6 <_ZN12_GLOBAL__N_15printEPKcP6Status+0xa16>
    76a4: a2 41        	ldx	#$41
    76a6: 86 12        	stx	$12                     ; 0x2012 <main+0x1ca9>
    76a8: 18           	clc
    76a9: a5 13        	lda	$13                     ; 0x2013 <main+0x1caa>
    76ab: 65 12        	adc	$12                     ; 0x2012 <main+0x1ca9>
    76ad: 18           	clc
    76ae: 69 f6        	adc	#$f6
    76b0: a6 96        	ldx	$96                     ; 0x2096 <main+0x1d2d>
    76b2: 86 12        	stx	$12                     ; 0x2012 <main+0x1ca9>
    76b4: a6 97        	ldx	$97                     ; 0x2097 <main+0x1d2e>
    76b6: 86 13        	stx	$13                     ; 0x2013 <main+0x1caa>
    76b8: 20 c4 77     	jsr	$77c4 <_ZN12_GLOBAL__N_13putEcP6Status>
    76bb: c6 9a        	dec	$9a                     ; 0x209a <main+0x1d31>
    76bd: a2 ff        	ldx	#$ff
    76bf: c6 98        	dec	$98                     ; 0x2098 <main+0x1d2f>
    76c1: e4 98        	cpx	$98                     ; 0x2098 <main+0x1d2f>
    76c3: d0 02        	bne	$76c7 <_ZN12_GLOBAL__N_15printEPKcP6Status+0xa37>
    76c5: c6 99        	dec	$99                     ; 0x2099 <main+0x1d30>
    76c7: a5 9a        	lda	$9a                     ; 0x209a <main+0x1d31>
    76c9: f0 0a        	beq	$76d5 <_ZN12_GLOBAL__N_15printEPKcP6Status+0xa45>
    76cb: b2 98        	lda	($98)                   ; 0x2098 <main+0x1d2f>
    76cd: c9 0a        	cmp	#$a
    76cf: b0 c5        	bcs	$7696 <_ZN12_GLOBAL__N_15printEPKcP6Status+0xa06>
    76d1: 09 30        	ora	#$30
    76d3: 80 db        	bra	$76b0 <_ZN12_GLOBAL__N_15printEPKcP6Status+0xa20>
    76d5: a5 a1        	lda	$a1                     ; 0x20a1 <main+0x1d38>
    76d7: c9 0a        	cmp	#$a
    76d9: b0 04        	bcs	$76df <_ZN12_GLOBAL__N_15printEPKcP6Status+0xa4f>
    76db: 09 30        	ora	#$30
    76dd: 80 1a        	bra	$76f9 <_ZN12_GLOBAL__N_15printEPKcP6Status+0xa69>
    76df: 85 13        	sta	$13                     ; 0x2013 <main+0x1caa>
    76e1: a0 01        	ldy	#$1
    76e3: a9 80        	lda	#$80
    76e5: 31 96        	and	($96),y                 ; 0x2096 <main+0x1d2d>
    76e7: f0 04        	beq	$76ed <_ZN12_GLOBAL__N_15printEPKcP6Status+0xa5d>
    76e9: a2 61        	ldx	#$61
    76eb: 80 02        	bra	$76ef <_ZN12_GLOBAL__N_15printEPKcP6Status+0xa5f>
    76ed: a2 41        	ldx	#$41
    76ef: 86 12        	stx	$12                     ; 0x2012 <main+0x1ca9>
    76f1: a5 13        	lda	$13                     ; 0x2013 <main+0x1caa>
    76f3: 18           	clc
    76f4: 65 12        	adc	$12                     ; 0x2012 <main+0x1ca9>
    76f6: 18           	clc
    76f7: 69 f6        	adc	#$f6
    76f9: a6 96        	ldx	$96                     ; 0x2096 <main+0x1d2d>
    76fb: 86 12        	stx	$12                     ; 0x2012 <main+0x1ca9>
    76fd: a6 97        	ldx	$97                     ; 0x2097 <main+0x1d2e>
    76ff: 86 13        	stx	$13                     ; 0x2013 <main+0x1caa>
    7701: 20 c4 77     	jsr	$77c4 <_ZN12_GLOBAL__N_13putEcP6Status>
    7704: a0 01        	ldy	#$1
    7706: 98           	tya
    7707: 31 96        	and	($96),y                 ; 0x2096 <main+0x1d2d>
    7709: f0 21        	beq	$772c <_ZN12_GLOBAL__N_15printEPKcP6Status+0xa9c>
    770b: a5 9c        	lda	$9c                     ; 0x209c <main+0x1d33>
    770d: f0 19        	beq	$7728 <_ZN12_GLOBAL__N_15printEPKcP6Status+0xa98>
    770f: a6 96        	ldx	$96                     ; 0x2096 <main+0x1d2d>
    7711: 86 12        	stx	$12                     ; 0x2012 <main+0x1ca9>
    7713: a6 97        	ldx	$97                     ; 0x2097 <main+0x1d2e>
    7715: 86 13        	stx	$13                     ; 0x2013 <main+0x1caa>
    7717: a9 20        	lda	#$20
    7719: 20 c4 77     	jsr	$77c4 <_ZN12_GLOBAL__N_13putEcP6Status>
    771c: a2 ff        	ldx	#$ff
    771e: c6 9b        	dec	$9b                     ; 0x209b <main+0x1d32>
    7720: e4 9b        	cpx	$9b                     ; 0x209b <main+0x1d32>
    7722: d0 e7        	bne	$770b <_ZN12_GLOBAL__N_15printEPKcP6Status+0xa7b>
    7724: c6 9c        	dec	$9c                     ; 0x209c <main+0x1d33>
    7726: 80 e3        	bra	$770b <_ZN12_GLOBAL__N_15printEPKcP6Status+0xa7b>
    7728: a5 9b        	lda	$9b                     ; 0x209b <main+0x1d32>
    772a: d0 e3        	bne	$770f <_ZN12_GLOBAL__N_15printEPKcP6Status+0xa7f>
    772c: a4 96        	ldy	$96                     ; 0x2096 <main+0x1d2d>
    772e: a5 96        	lda	$96                     ; 0x2096 <main+0x1d2d>
    7730: 84 14        	sty	$14                     ; 0x2014 <main+0x1cab>
    7732: 18           	clc
    7733: 69 05        	adc	#$5
    7735: 85 12        	sta	$12                     ; 0x2012 <main+0x1ca9>
    7737: a5 97        	lda	$97                     ; 0x2097 <main+0x1d2e>
    7739: 69 00        	adc	#$0
    773b: 18           	clc
    773c: 85 13        	sta	$13                     ; 0x2013 <main+0x1caa>
    773e: a0 01        	ldy	#$1
    7740: a5 14        	lda	$14                     ; 0x2014 <main+0x1cab>
    7742: 69 03        	adc	#$3
    7744: 85 14        	sta	$14                     ; 0x2014 <main+0x1cab>
    7746: a5 97        	lda	$97                     ; 0x2097 <main+0x1d2e>
    7748: 69 00        	adc	#$0
    774a: aa           	tax
    774b: b1 12        	lda	($12),y                 ; 0x2012 <main+0x1ca9>
    774d: 85 15        	sta	$15                     ; 0x2015 <main+0x1cac>
    774f: a4 14        	ldy	$14                     ; 0x2014 <main+0x1cab>
    7751: 84 12        	sty	$12                     ; 0x2012 <main+0x1ca9>
    7753: 86 13        	stx	$13                     ; 0x2013 <main+0x1caa>
    7755: a0 03        	ldy	#$3
    7757: b1 96        	lda	($96),y                 ; 0x2096 <main+0x1d2d>
    7759: 85 16        	sta	$16                     ; 0x2016 <main+0x1cad>
    775b: a0 01        	ldy	#$1
    775d: b1 12        	lda	($12),y                 ; 0x2012 <main+0x1ca9>
    775f: 85 17        	sta	$17                     ; 0x2017 <main+0x1cae>
    7761: 85 12        	sta	$12                     ; 0x2012 <main+0x1ca9>
    7763: a4 15        	ldy	$15                     ; 0x2015 <main+0x1cac>
    7765: c4 12        	cpy	$12                     ; 0x2012 <main+0x1ca9>
    7767: d0 0c        	bne	$7775 <_ZN12_GLOBAL__N_15printEPKcP6Status+0xae5>
    7769: a6 16        	ldx	$16                     ; 0x2016 <main+0x1cad>
    776b: a0 05        	ldy	#$5
    776d: b1 96        	lda	($96),y                 ; 0x2096 <main+0x1d2d>
    776f: 86 12        	stx	$12                     ; 0x2012 <main+0x1ca9>
    7771: c5 12        	cmp	$12                     ; 0x2012 <main+0x1ca9>
    7773: 80 08        	bra	$777d <_ZN12_GLOBAL__N_15printEPKcP6Status+0xaed>
    7775: 84 13        	sty	$13                     ; 0x2013 <main+0x1caa>
    7777: 85 12        	sta	$12                     ; 0x2012 <main+0x1ca9>
    7779: a6 13        	ldx	$13                     ; 0x2013 <main+0x1caa>
    777b: e4 12        	cpx	$12                     ; 0x2012 <main+0x1ca9>
    777d: a6 c0        	ldx	$c0                     ; 0x20c0 <main+0x1d57>
    777f: 86 12        	stx	$12                     ; 0x2012 <main+0x1ca9>
    7781: a6 c1        	ldx	$c1                     ; 0x20c1 <main+0x1d58>
    7783: 86 13        	stx	$13                     ; 0x2013 <main+0x1caa>
    7785: 90 36        	bcc	$77bd <_ZN12_GLOBAL__N_15printEPKcP6Status+0xb2d>
    7787: a6 16        	ldx	$16                     ; 0x2016 <main+0x1cad>
    7789: a5 17        	lda	$17                     ; 0x2017 <main+0x1cae>
    778b: d0 03        	bne	$7790 <_ZN12_GLOBAL__N_15printEPKcP6Status+0xb00>
    778d: 8a           	txa
    778e: f0 2d        	beq	$77bd <_ZN12_GLOBAL__N_15printEPKcP6Status+0xb2d>
    7790: a5 96        	lda	$96                     ; 0x2096 <main+0x1d2d>
    7792: 18           	clc
    7793: 69 09        	adc	#$9
    7795: 85 14        	sta	$14                     ; 0x2014 <main+0x1cab>
    7797: a5 97        	lda	$97                     ; 0x2097 <main+0x1d2e>
    7799: 69 00        	adc	#$0
    779b: a0 09        	ldy	#$9
    779d: 85 15        	sta	$15                     ; 0x2015 <main+0x1cac>
    779f: 18           	clc
    77a0: a5 16        	lda	$16                     ; 0x2016 <main+0x1cad>
    77a2: 71 96        	adc	($96),y                 ; 0x2096 <main+0x1d2d>
    77a4: aa           	tax
    77a5: a0 01        	ldy	#$1
    77a7: a5 17        	lda	$17                     ; 0x2017 <main+0x1cae>
    77a9: 71 14        	adc	($14),y                 ; 0x2014 <main+0x1cab>
    77ab: 86 14        	stx	$14                     ; 0x2014 <main+0x1cab>
    77ad: 85 15        	sta	$15                     ; 0x2015 <main+0x1cac>
    77af: a2 ff        	ldx	#$ff
    77b1: c6 14        	dec	$14                     ; 0x2014 <main+0x1cab>
    77b3: e4 14        	cpx	$14                     ; 0x2014 <main+0x1cab>
    77b5: d0 02        	bne	$77b9 <_ZN12_GLOBAL__N_15printEPKcP6Status+0xb29>
    77b7: c6 15        	dec	$15                     ; 0x2015 <main+0x1cac>
    77b9: a9 00        	lda	#$0
    77bb: 92 14        	sta	($14)                   ; 0x2014 <main+0x1cab>
    77bd: e6 12        	inc	$12                     ; 0x2012 <main+0x1ca9>
    77bf: d0 02        	bne	$77c3 <_ZN12_GLOBAL__N_15printEPKcP6Status+0xb33>
    77c1: e6 13        	inc	$13                     ; 0x2013 <main+0x1caa>
    77c3: 60           	rts

000077c4 <_ZN12_GLOBAL__N_13putEcP6Status>:
    77c4: 85 18        	sta	$18                     ; 0x2018 <main+0x1caf>
    77c6: a6 13        	ldx	$13                     ; 0x2013 <main+0x1caa>
    77c8: 18           	clc
    77c9: a5 12        	lda	$12                     ; 0x2012 <main+0x1ca9>
    77cb: 69 05        	adc	#$5
    77cd: a8           	tay
    77ce: a5 13        	lda	$13                     ; 0x2013 <main+0x1caa>
    77d0: 86 15        	stx	$15                     ; 0x2015 <main+0x1cac>
    77d2: 69 00        	adc	#$0
    77d4: 18           	clc
    77d5: 84 16        	sty	$16                     ; 0x2016 <main+0x1cad>
    77d7: a0 05        	ldy	#$5
    77d9: 85 17        	sta	$17                     ; 0x2017 <main+0x1cae>
    77db: b1 12        	lda	($12),y                 ; 0x2012 <main+0x1ca9>
    77dd: aa           	tax
    77de: a5 12        	lda	$12                     ; 0x2012 <main+0x1ca9>
    77e0: 69 03        	adc	#$3
    77e2: 85 14        	sta	$14                     ; 0x2014 <main+0x1cab>
    77e4: a5 15        	lda	$15                     ; 0x2015 <main+0x1cac>
    77e6: 69 00        	adc	#$0
    77e8: 85 15        	sta	$15                     ; 0x2015 <main+0x1cac>
    77ea: a0 01        	ldy	#$1
    77ec: b1 16        	lda	($16),y                 ; 0x2016 <main+0x1cad>
    77ee: d1 14        	cmp	($14),y                 ; 0x2014 <main+0x1cab>
    77f0: d0 11        	bne	$7803 <_ZN12_GLOBAL__N_13putEcP6Status+0x3f>
    77f2: a0 03        	ldy	#$3
    77f4: 85 17        	sta	$17                     ; 0x2017 <main+0x1cae>
    77f6: b1 12        	lda	($12),y                 ; 0x2012 <main+0x1ca9>
    77f8: 85 14        	sta	$14                     ; 0x2014 <main+0x1cab>
    77fa: 86 16        	stx	$16                     ; 0x2016 <main+0x1cad>
    77fc: e4 14        	cpx	$14                     ; 0x2014 <main+0x1cab>
    77fe: 90 0e        	bcc	$780e <_ZN12_GLOBAL__N_13putEcP6Status+0x4a>
    7800: 4c 77 78     	jmp	$7877 <_ZN12_GLOBAL__N_13putEcP6Status+0xb3>
    7803: 86 16        	stx	$16                     ; 0x2016 <main+0x1cad>
    7805: d1 14        	cmp	($14),y                 ; 0x2014 <main+0x1cab>
    7807: 85 17        	sta	$17                     ; 0x2017 <main+0x1cae>
    7809: 90 03        	bcc	$780e <_ZN12_GLOBAL__N_13putEcP6Status+0x4a>
    780b: 4c 77 78     	jmp	$7877 <_ZN12_GLOBAL__N_13putEcP6Status+0xb3>
    780e: a5 12        	lda	$12                     ; 0x2012 <main+0x1ca9>
    7810: 18           	clc
    7811: 69 0f        	adc	#$f
    7813: 85 14        	sta	$14                     ; 0x2014 <main+0x1cab>
    7815: a5 13        	lda	$13                     ; 0x2013 <main+0x1caa>
    7817: 69 00        	adc	#$0
    7819: 85 15        	sta	$15                     ; 0x2015 <main+0x1cac>
    781b: a0 01        	ldy	#$1
    781d: b1 14        	lda	($14),y                 ; 0x2014 <main+0x1cab>
    781f: a2 00        	ldx	#$0
    7821: 86 14        	stx	$14                     ; 0x2014 <main+0x1cab>
    7823: a2 00        	ldx	#$0
    7825: 86 15        	stx	$15                     ; 0x2015 <main+0x1cac>
    7827: c5 15        	cmp	$15                     ; 0x2015 <main+0x1cac>
    7829: d0 2d        	bne	$7858 <_ZN12_GLOBAL__N_13putEcP6Status+0x94>
    782b: a0 0f        	ldy	#$f
    782d: b1 12        	lda	($12),y                 ; 0x2012 <main+0x1ca9>
    782f: c5 14        	cmp	$14                     ; 0x2014 <main+0x1cab>
    7831: d0 25        	bne	$7858 <_ZN12_GLOBAL__N_13putEcP6Status+0x94>
    7833: a5 12        	lda	$12                     ; 0x2012 <main+0x1ca9>
    7835: 18           	clc
    7836: 69 09        	adc	#$9
    7838: 85 14        	sta	$14                     ; 0x2014 <main+0x1cab>
    783a: a5 13        	lda	$13                     ; 0x2013 <main+0x1caa>
    783c: 69 00        	adc	#$0
    783e: a0 09        	ldy	#$9
    7840: 85 15        	sta	$15                     ; 0x2015 <main+0x1cac>
    7842: 18           	clc
    7843: a5 16        	lda	$16                     ; 0x2016 <main+0x1cad>
    7845: 71 12        	adc	($12),y                 ; 0x2012 <main+0x1ca9>
    7847: aa           	tax
    7848: a0 01        	ldy	#$1
    784a: a5 17        	lda	$17                     ; 0x2017 <main+0x1cae>
    784c: 71 14        	adc	($14),y                 ; 0x2014 <main+0x1cab>
    784e: 86 14        	stx	$14                     ; 0x2014 <main+0x1cab>
    7850: 85 15        	sta	$15                     ; 0x2015 <main+0x1cac>
    7852: a5 18        	lda	$18                     ; 0x2018 <main+0x1caf>
    7854: 92 14        	sta	($14)                   ; 0x2014 <main+0x1cab>
    7856: 80 1f        	bra	$7877 <_ZN12_GLOBAL__N_13putEcP6Status+0xb3>
    7858: a6 12        	ldx	$12                     ; 0x2012 <main+0x1ca9>
    785a: 86 d3        	stx	$d3                     ; 0x20d3 <main+0x1d6a>
    785c: a6 13        	ldx	$13                     ; 0x2013 <main+0x1caa>
    785e: 86 d4        	stx	$d4                     ; 0x20d4 <main+0x1d6b>
    7860: a5 18        	lda	$18                     ; 0x2018 <main+0x1caf>
    7862: 85 5a        	sta	$5a                     ; 0x205a <main+0x1cf1>
    7864: a2 5a        	ldx	#$5a
    7866: 86 12        	stx	$12                     ; 0x2012 <main+0x1ca9>
    7868: a2 00        	ldx	#$0
    786a: 86 13        	stx	$13                     ; 0x2013 <main+0x1caa>
    786c: 20 4d 49     	jsr	$494d <textPrint>
    786f: a6 d3        	ldx	$d3                     ; 0x20d3 <main+0x1d6a>
    7871: 86 12        	stx	$12                     ; 0x2012 <main+0x1ca9>
    7873: a6 d4        	ldx	$d4                     ; 0x20d4 <main+0x1d6b>
    7875: 86 13        	stx	$13                     ; 0x2013 <main+0x1caa>
    7877: a0 05        	ldy	#$5
    7879: a5 12        	lda	$12                     ; 0x2012 <main+0x1ca9>
    787b: 18           	clc
    787c: 69 05        	adc	#$5
    787e: 85 14        	sta	$14                     ; 0x2014 <main+0x1cab>
    7880: a5 13        	lda	$13                     ; 0x2013 <main+0x1caa>
    7882: 69 00        	adc	#$0
    7884: 85 15        	sta	$15                     ; 0x2015 <main+0x1cac>
    7886: b1 12        	lda	($12),y                 ; 0x2012 <main+0x1ca9>
    7888: aa           	tax
    7889: a0 01        	ldy	#$1
    788b: b1 14        	lda	($14),y                 ; 0x2014 <main+0x1cab>
    788d: e8           	inx
    788e: d0 01        	bne	$7891 <_ZN12_GLOBAL__N_13putEcP6Status+0xcd>
    7890: 1a           	inc
    7891: 85 16        	sta	$16                     ; 0x2016 <main+0x1cad>
    7893: 8a           	txa
    7894: a0 05        	ldy	#$5
    7896: 91 12        	sta	($12),y                 ; 0x2012 <main+0x1ca9>
    7898: a0 01        	ldy	#$1
    789a: a5 16        	lda	$16                     ; 0x2016 <main+0x1cad>
    789c: 91 14        	sta	($14),y                 ; 0x2014 <main+0x1cab>
    789e: 60           	rts

0000789f <_ZN12_GLOBAL__N_112print_stringEPKcP6Status>:
    789f: a6 12        	ldx	$12                     ; 0x2012 <main+0x1ca9>
    78a1: 86 cb        	stx	$cb                     ; 0x20cb <main+0x1d62>
    78a3: a6 13        	ldx	$13                     ; 0x2013 <main+0x1caa>
    78a5: 86 cc        	stx	$cc                     ; 0x20cc <main+0x1d63>
    78a7: a6 14        	ldx	$14                     ; 0x2014 <main+0x1cab>
    78a9: 86 cd        	stx	$cd                     ; 0x20cd <main+0x1d64>
    78ab: a6 15        	ldx	$15                     ; 0x2015 <main+0x1cac>
    78ad: 86 ce        	stx	$ce                     ; 0x20ce <main+0x1d65>
    78af: a5 cd        	lda	$cd                     ; 0x20cd <main+0x1d64>
    78b1: 18           	clc
    78b2: 69 0d        	adc	#$d
    78b4: 85 12        	sta	$12                     ; 0x2012 <main+0x1ca9>
    78b6: a5 ce        	lda	$ce                     ; 0x20ce <main+0x1d65>
    78b8: 69 00        	adc	#$0
    78ba: 85 13        	sta	$13                     ; 0x2013 <main+0x1caa>
    78bc: a0 01        	ldy	#$1
    78be: b1 12        	lda	($12),y                 ; 0x2012 <main+0x1ca9>
    78c0: 30 16        	bmi	$78d8 <_ZN12_GLOBAL__N_112print_stringEPKcP6Status+0x39>
    78c2: a0 0d        	ldy	#$d
    78c4: 85 12        	sta	$12                     ; 0x2012 <main+0x1ca9>
    78c6: b1 cd        	lda	($cd),y                 ; 0x20cd <main+0x1d64>
    78c8: a6 12        	ldx	$12                     ; 0x2012 <main+0x1ca9>
    78ca: 86 d2        	stx	$d2                     ; 0x20d2 <main+0x1d69>
    78cc: d0 0f        	bne	$78dd <_ZN12_GLOBAL__N_112print_stringEPKcP6Status+0x3e>
    78ce: aa           	tax
    78cf: d0 0c        	bne	$78dd <_ZN12_GLOBAL__N_112print_stringEPKcP6Status+0x3e>
    78d1: 64 cf        	stz	$cf                     ; 0x20cf <main+0x1d66>
    78d3: a2 00        	ldx	#$0
    78d5: 4c a6 79     	jmp	$79a6 <_ZN12_GLOBAL__N_112print_stringEPKcP6Status+0x107>
    78d8: a9 ff        	lda	#$ff
    78da: aa           	tax
    78db: 86 d2        	stx	$d2                     ; 0x20d2 <main+0x1d69>
    78dd: 85 cf        	sta	$cf                     ; 0x20cf <main+0x1d66>
    78df: 64 12        	stz	$12                     ; 0x2012 <main+0x1ca9>
    78e1: a4 cb        	ldy	$cb                     ; 0x20cb <main+0x1d62>
    78e3: a6 cc        	ldx	$cc                     ; 0x20cc <main+0x1d63>
    78e5: 86 16        	stx	$16                     ; 0x2016 <main+0x1cad>
    78e7: 64 13        	stz	$13                     ; 0x2013 <main+0x1caa>
    78e9: 98           	tya
    78ea: 18           	clc
    78eb: 65 12        	adc	$12                     ; 0x2012 <main+0x1ca9>
    78ed: 85 14        	sta	$14                     ; 0x2014 <main+0x1cab>
    78ef: a5 cc        	lda	$cc                     ; 0x20cc <main+0x1d63>
    78f1: 65 13        	adc	$13                     ; 0x2013 <main+0x1caa>
    78f3: 85 15        	sta	$15                     ; 0x2015 <main+0x1cac>
    78f5: b2 14        	lda	($14)                   ; 0x2014 <main+0x1cab>
    78f7: d0 03        	bne	$78fc <_ZN12_GLOBAL__N_112print_stringEPKcP6Status+0x5d>
    78f9: 4c a0 79     	jmp	$79a0 <_ZN12_GLOBAL__N_112print_stringEPKcP6Status+0x101>
    78fc: e6 12        	inc	$12                     ; 0x2012 <main+0x1ca9>
    78fe: d0 02        	bne	$7902 <_ZN12_GLOBAL__N_112print_stringEPKcP6Status+0x63>
    7900: e6 13        	inc	$13                     ; 0x2013 <main+0x1caa>
    7902: a6 d2        	ldx	$d2                     ; 0x20d2 <main+0x1d69>
    7904: e4 13        	cpx	$13                     ; 0x2013 <main+0x1caa>
    7906: d0 e1        	bne	$78e9 <_ZN12_GLOBAL__N_112print_stringEPKcP6Status+0x4a>
    7908: a6 cf        	ldx	$cf                     ; 0x20cf <main+0x1d66>
    790a: e4 12        	cpx	$12                     ; 0x2012 <main+0x1ca9>
    790c: d0 db        	bne	$78e9 <_ZN12_GLOBAL__N_112print_stringEPKcP6Status+0x4a>
    790e: a0 01        	ldy	#$1
    7910: b1 cd        	lda	($cd),y                 ; 0x20cd <main+0x1d64>
    7912: 29 01        	and	#$1
    7914: f0 03        	beq	$7919 <_ZN12_GLOBAL__N_112print_stringEPKcP6Status+0x7a>
    7916: 4c 71 79     	jmp	$7971 <_ZN12_GLOBAL__N_112print_stringEPKcP6Status+0xd2>
    7919: a5 cd        	lda	$cd                     ; 0x20cd <main+0x1d64>
    791b: 18           	clc
    791c: 69 0b        	adc	#$b
    791e: 85 14        	sta	$14                     ; 0x2014 <main+0x1cab>
    7920: a5 ce        	lda	$ce                     ; 0x20ce <main+0x1d65>
    7922: 69 00        	adc	#$0
    7924: 85 15        	sta	$15                     ; 0x2015 <main+0x1cac>
    7926: a0 0b        	ldy	#$b
    7928: b1 cd        	lda	($cd),y                 ; 0x20cd <main+0x1d64>
    792a: 85 13        	sta	$13                     ; 0x2013 <main+0x1caa>
    792c: a0 01        	ldy	#$1
    792e: b1 14        	lda	($14),y                 ; 0x2014 <main+0x1cab>
    7930: 85 12        	sta	$12                     ; 0x2012 <main+0x1ca9>
    7932: a6 d2        	ldx	$d2                     ; 0x20d2 <main+0x1d69>
    7934: e4 12        	cpx	$12                     ; 0x2012 <main+0x1ca9>
    7936: d0 08        	bne	$7940 <_ZN12_GLOBAL__N_112print_stringEPKcP6Status+0xa1>
    7938: a6 cf        	ldx	$cf                     ; 0x20cf <main+0x1d66>
    793a: e4 13        	cpx	$13                     ; 0x2013 <main+0x1caa>
    793c: 90 06        	bcc	$7944 <_ZN12_GLOBAL__N_112print_stringEPKcP6Status+0xa5>
    793e: 80 31        	bra	$7971 <_ZN12_GLOBAL__N_112print_stringEPKcP6Status+0xd2>
    7940: e4 12        	cpx	$12                     ; 0x2012 <main+0x1ca9>
    7942: b0 2d        	bcs	$7971 <_ZN12_GLOBAL__N_112print_stringEPKcP6Status+0xd2>
    7944: 38           	sec
    7945: a5 cf        	lda	$cf                     ; 0x20cf <main+0x1d66>
    7947: e5 13        	sbc	$13                     ; 0x2013 <main+0x1caa>
    7949: a8           	tay
    794a: a5 d2        	lda	$d2                     ; 0x20d2 <main+0x1d69>
    794c: e5 12        	sbc	$12                     ; 0x2012 <main+0x1ca9>
    794e: 85 d1        	sta	$d1                     ; 0x20d1 <main+0x1d68>
    7950: a6 cd        	ldx	$cd                     ; 0x20cd <main+0x1d64>
    7952: 86 12        	stx	$12                     ; 0x2012 <main+0x1ca9>
    7954: a6 ce        	ldx	$ce                     ; 0x20ce <main+0x1d65>
    7956: 86 13        	stx	$13                     ; 0x2013 <main+0x1caa>
    7958: 84 d0        	sty	$d0                     ; 0x20d0 <main+0x1d67>
    795a: a9 20        	lda	#$20
    795c: 20 c4 77     	jsr	$77c4 <_ZN12_GLOBAL__N_13putEcP6Status>
    795f: a6 d1        	ldx	$d1                     ; 0x20d1 <main+0x1d68>
    7961: e6 d0        	inc	$d0                     ; 0x20d0 <main+0x1d67>
    7963: d0 01        	bne	$7966 <_ZN12_GLOBAL__N_112print_stringEPKcP6Status+0xc7>
    7965: e8           	inx
    7966: 86 d1        	stx	$d1                     ; 0x20d1 <main+0x1d68>
    7968: a4 d0        	ldy	$d0                     ; 0x20d0 <main+0x1d67>
    796a: 8a           	txa
    796b: d0 e3        	bne	$7950 <_ZN12_GLOBAL__N_112print_stringEPKcP6Status+0xb1>
    796d: a5 d0        	lda	$d0                     ; 0x20d0 <main+0x1d67>
    796f: d0 df        	bne	$7950 <_ZN12_GLOBAL__N_112print_stringEPKcP6Status+0xb1>
    7971: a4 d2        	ldy	$d2                     ; 0x20d2 <main+0x1d69>
    7973: d0 04        	bne	$7979 <_ZN12_GLOBAL__N_112print_stringEPKcP6Status+0xda>
    7975: a5 cf        	lda	$cf                     ; 0x20cf <main+0x1d66>
    7977: f0 26        	beq	$799f <_ZN12_GLOBAL__N_112print_stringEPKcP6Status+0x100>
    7979: a2 ff        	ldx	#$ff
    797b: c6 cf        	dec	$cf                     ; 0x20cf <main+0x1d66>
    797d: e4 cf        	cpx	$cf                     ; 0x20cf <main+0x1d66>
    797f: d0 01        	bne	$7982 <_ZN12_GLOBAL__N_112print_stringEPKcP6Status+0xe3>
    7981: 88           	dey
    7982: 84 d0        	sty	$d0                     ; 0x20d0 <main+0x1d67>
    7984: b2 cb        	lda	($cb)                   ; 0x20cb <main+0x1d62>
    7986: e6 cb        	inc	$cb                     ; 0x20cb <main+0x1d62>
    7988: d0 02        	bne	$798c <_ZN12_GLOBAL__N_112print_stringEPKcP6Status+0xed>
    798a: e6 cc        	inc	$cc                     ; 0x20cc <main+0x1d63>
    798c: a6 cd        	ldx	$cd                     ; 0x20cd <main+0x1d64>
    798e: 86 12        	stx	$12                     ; 0x2012 <main+0x1ca9>
    7990: a6 ce        	ldx	$ce                     ; 0x20ce <main+0x1d65>
    7992: 86 13        	stx	$13                     ; 0x2013 <main+0x1caa>
    7994: 20 c4 77     	jsr	$77c4 <_ZN12_GLOBAL__N_13putEcP6Status>
    7997: a4 d0        	ldy	$d0                     ; 0x20d0 <main+0x1d67>
    7999: d0 de        	bne	$7979 <_ZN12_GLOBAL__N_112print_stringEPKcP6Status+0xda>
    799b: a5 cf        	lda	$cf                     ; 0x20cf <main+0x1d66>
    799d: d0 da        	bne	$7979 <_ZN12_GLOBAL__N_112print_stringEPKcP6Status+0xda>
    799f: 60           	rts
    79a0: a6 12        	ldx	$12                     ; 0x2012 <main+0x1ca9>
    79a2: 86 cf        	stx	$cf                     ; 0x20cf <main+0x1d66>
    79a4: a6 13        	ldx	$13                     ; 0x2013 <main+0x1caa>
    79a6: 86 d2        	stx	$d2                     ; 0x20d2 <main+0x1d69>
    79a8: 4c 0e 79     	jmp	$790e <_ZN12_GLOBAL__N_112print_stringEPKcP6Status+0x6f>

000079ab <printf>:
    79ab: 18           	clc
    79ac: a6 10        	ldx	$10                     ; 0x2010 <main+0x1ca7>
    79ae: a4 11        	ldy	$11                     ; 0x2011 <main+0x1ca8>
    79b0: 86 94        	stx	$94                     ; 0x2094 <main+0x1d2b>
    79b2: 84 95        	sty	$95                     ; 0x2095 <main+0x1d2c>
    79b4: a6 94        	ldx	$94                     ; 0x2094 <main+0x1d2b>
    79b6: a4 95        	ldy	$95                     ; 0x2095 <main+0x1d2c>
    79b8: 86 7f        	stx	$7f                     ; 0x207f <main+0x1d16>
    79ba: 84 80        	sty	$80                     ; 0x2080 <main+0x1d17>
    79bc: a2 ff        	ldx	#$ff
    79be: 86 84        	stx	$84                     ; 0x2084 <main+0x1d1b>
    79c0: 86 85        	stx	$85                     ; 0x2085 <main+0x1d1c>
    79c2: 64 86        	stz	$86                     ; 0x2086 <main+0x1d1d>
    79c4: 64 87        	stz	$87                     ; 0x2087 <main+0x1d1e>
    79c6: e8           	inx
    79c7: 86 14        	stx	$14                     ; 0x2014 <main+0x1cab>
    79c9: a2 00        	ldx	#$0
    79cb: 86 15        	stx	$15                     ; 0x2015 <main+0x1cac>
    79cd: a6 14        	ldx	$14                     ; 0x2014 <main+0x1cab>
    79cf: a4 15        	ldy	$15                     ; 0x2015 <main+0x1cac>
    79d1: 86 8a        	stx	$8a                     ; 0x208a <main+0x1d21>
    79d3: 84 8b        	sty	$8b                     ; 0x208b <main+0x1d22>
    79d5: a2 02        	ldx	#$2
    79d7: 86 90        	stx	$90                     ; 0x2090 <main+0x1d27>
    79d9: 64 91        	stz	$91                     ; 0x2091 <main+0x1d28>
    79db: a6 7f        	ldx	$7f                     ; 0x207f <main+0x1d16>
    79dd: a4 80        	ldy	$80                     ; 0x2080 <main+0x1d17>
    79df: 86 92        	stx	$92                     ; 0x2092 <main+0x1d29>
    79e1: 84 93        	sty	$93                     ; 0x2093 <main+0x1d2a>
    79e3: a6 12        	ldx	$12                     ; 0x2012 <main+0x1ca9>
    79e5: 86 7d        	stx	$7d                     ; 0x207d <main+0x1d14>
    79e7: a6 13        	ldx	$13                     ; 0x2013 <main+0x1caa>
    79e9: 86 7e        	stx	$7e                     ; 0x207e <main+0x1d15>
    79eb: b2 12        	lda	($12)                   ; 0x2012 <main+0x1ca9>
    79ed: c9 25        	cmp	#$25
    79ef: f0 26        	beq	$7a17 <printf+0x6c>
    79f1: aa           	tax
    79f2: f0 3e        	beq	$7a32 <printf+0x87>
    79f4: 85 5a        	sta	$5a                     ; 0x205a <main+0x1cf1>
    79f6: a2 5a        	ldx	#$5a
    79f8: 86 12        	stx	$12                     ; 0x2012 <main+0x1ca9>
    79fa: a2 00        	ldx	#$0
    79fc: 86 13        	stx	$13                     ; 0x2013 <main+0x1caa>
    79fe: 20 4d 49     	jsr	$494d <textPrint>
    7a01: e6 7d        	inc	$7d                     ; 0x207d <main+0x1d14>
    7a03: d0 02        	bne	$7a07 <printf+0x5c>
    7a05: e6 7e        	inc	$7e                     ; 0x207e <main+0x1d15>
    7a07: e6 86        	inc	$86                     ; 0x2086 <main+0x1d1d>
    7a09: d0 02        	bne	$7a0d <printf+0x62>
    7a0b: e6 87        	inc	$87                     ; 0x2087 <main+0x1d1e>
    7a0d: a6 7d        	ldx	$7d                     ; 0x207d <main+0x1d14>
    7a0f: 86 12        	stx	$12                     ; 0x2012 <main+0x1ca9>
    7a11: a6 7e        	ldx	$7e                     ; 0x207e <main+0x1d15>
    7a13: 86 13        	stx	$13                     ; 0x2013 <main+0x1caa>
    7a15: 80 cc        	bra	$79e3 <printf+0x38>
    7a17: a2 81        	ldx	#$81
    7a19: 86 14        	stx	$14                     ; 0x2014 <main+0x1cab>
    7a1b: a2 00        	ldx	#$0
    7a1d: 86 15        	stx	$15                     ; 0x2015 <main+0x1cac>
    7a1f: 20 90 6c     	jsr	$6c90 <_ZN12_GLOBAL__N_15printEPKcP6Status>
    7a22: a6 13        	ldx	$13                     ; 0x2013 <main+0x1caa>
    7a24: e4 7e        	cpx	$7e                     ; 0x207e <main+0x1d15>
    7a26: d0 bb        	bne	$79e3 <printf+0x38>
    7a28: a6 12        	ldx	$12                     ; 0x2012 <main+0x1ca9>
    7a2a: e4 7d        	cpx	$7d                     ; 0x207d <main+0x1d14>
    7a2c: d0 b5        	bne	$79e3 <printf+0x38>
    7a2e: b2 7d        	lda	($7d)                   ; 0x207d <main+0x1d14>
    7a30: 80 c2        	bra	$79f4 <printf+0x49>
    7a32: 60           	rts

00007a33 <sprintf>:
    7a33: a6 12        	ldx	$12                     ; 0x2012 <main+0x1ca9>
    7a35: 86 6b        	stx	$6b                     ; 0x206b <main+0x1d02>
    7a37: a6 13        	ldx	$13                     ; 0x2013 <main+0x1caa>
    7a39: 86 6c        	stx	$6c                     ; 0x206c <main+0x1d03>
    7a3b: a6 14        	ldx	$14                     ; 0x2014 <main+0x1cab>
    7a3d: 86 12        	stx	$12                     ; 0x2012 <main+0x1ca9>
    7a3f: a6 15        	ldx	$15                     ; 0x2015 <main+0x1cac>
    7a41: 86 13        	stx	$13                     ; 0x2013 <main+0x1caa>
    7a43: 18           	clc
    7a44: a6 10        	ldx	$10                     ; 0x2010 <main+0x1ca7>
    7a46: a4 11        	ldy	$11                     ; 0x2011 <main+0x1ca8>
    7a48: 86 84        	stx	$84                     ; 0x2084 <main+0x1d1b>
    7a4a: 84 85        	sty	$85                     ; 0x2085 <main+0x1d1c>
    7a4c: a6 84        	ldx	$84                     ; 0x2084 <main+0x1d1b>
    7a4e: a4 85        	ldy	$85                     ; 0x2085 <main+0x1d1c>
    7a50: 86 6f        	stx	$6f                     ; 0x206f <main+0x1d06>
    7a52: 84 70        	sty	$70                     ; 0x2070 <main+0x1d07>
    7a54: a2 ff        	ldx	#$ff
    7a56: 86 74        	stx	$74                     ; 0x2074 <main+0x1d0b>
    7a58: 86 75        	stx	$75                     ; 0x2075 <main+0x1d0c>
    7a5a: 64 76        	stz	$76                     ; 0x2076 <main+0x1d0d>
    7a5c: 64 77        	stz	$77                     ; 0x2077 <main+0x1d0e>
    7a5e: a6 6b        	ldx	$6b                     ; 0x206b <main+0x1d02>
    7a60: a4 6c        	ldy	$6c                     ; 0x206c <main+0x1d03>
    7a62: 86 7a        	stx	$7a                     ; 0x207a <main+0x1d11>
    7a64: 84 7b        	sty	$7b                     ; 0x207b <main+0x1d12>
    7a66: a2 00        	ldx	#$0
    7a68: 86 14        	stx	$14                     ; 0x2014 <main+0x1cab>
    7a6a: a2 00        	ldx	#$0
    7a6c: 86 15        	stx	$15                     ; 0x2015 <main+0x1cac>
    7a6e: a6 14        	ldx	$14                     ; 0x2014 <main+0x1cab>
    7a70: a4 15        	ldy	$15                     ; 0x2015 <main+0x1cac>
    7a72: 86 80        	stx	$80                     ; 0x2080 <main+0x1d17>
    7a74: 84 81        	sty	$81                     ; 0x2081 <main+0x1d18>
    7a76: a6 6f        	ldx	$6f                     ; 0x206f <main+0x1d06>
    7a78: a4 70        	ldy	$70                     ; 0x2070 <main+0x1d07>
    7a7a: 86 82        	stx	$82                     ; 0x2082 <main+0x1d19>
    7a7c: 84 83        	sty	$83                     ; 0x2083 <main+0x1d1a>
    7a7e: 80 17        	bra	$7a97 <sprintf+0x64>
    7a80: a2 71        	ldx	#$71
    7a82: 86 14        	stx	$14                     ; 0x2014 <main+0x1cab>
    7a84: a2 00        	ldx	#$0
    7a86: 86 15        	stx	$15                     ; 0x2015 <main+0x1cac>
    7a88: 20 90 6c     	jsr	$6c90 <_ZN12_GLOBAL__N_15printEPKcP6Status>
    7a8b: a6 13        	ldx	$13                     ; 0x2013 <main+0x1caa>
    7a8d: e4 6e        	cpx	$6e                     ; 0x206e <main+0x1d05>
    7a8f: d0 06        	bne	$7a97 <sprintf+0x64>
    7a91: a6 12        	ldx	$12                     ; 0x2012 <main+0x1ca9>
    7a93: e4 6d        	cpx	$6d                     ; 0x206d <main+0x1d04>
    7a95: f0 11        	beq	$7aa8 <sprintf+0x75>
    7a97: a6 12        	ldx	$12                     ; 0x2012 <main+0x1ca9>
    7a99: 86 6d        	stx	$6d                     ; 0x206d <main+0x1d04>
    7a9b: a6 13        	ldx	$13                     ; 0x2013 <main+0x1caa>
    7a9d: 86 6e        	stx	$6e                     ; 0x206e <main+0x1d05>
    7a9f: b2 12        	lda	($12)                   ; 0x2012 <main+0x1ca9>
    7aa1: c9 25        	cmp	#$25
    7aa3: f0 db        	beq	$7a80 <sprintf+0x4d>
    7aa5: aa           	tax
    7aa6: f0 43        	beq	$7aeb <sprintf+0xb8>
    7aa8: a6 76        	ldx	$76                     ; 0x2076 <main+0x1d0d>
    7aaa: 86 12        	stx	$12                     ; 0x2012 <main+0x1ca9>
    7aac: a4 77        	ldy	$77                     ; 0x2077 <main+0x1d0e>
    7aae: 84 13        	sty	$13                     ; 0x2013 <main+0x1caa>
    7ab0: c0 ff        	cpy	#$ff
    7ab2: d0 04        	bne	$7ab8 <sprintf+0x85>
    7ab4: e0 ff        	cpx	#$ff
    7ab6: f0 15        	beq	$7acd <sprintf+0x9a>
    7ab8: b2 6d        	lda	($6d)                   ; 0x206d <main+0x1d04>
    7aba: 85 16        	sta	$16                     ; 0x2016 <main+0x1cad>
    7abc: a5 6b        	lda	$6b                     ; 0x206b <main+0x1d02>
    7abe: 18           	clc
    7abf: 65 12        	adc	$12                     ; 0x2012 <main+0x1ca9>
    7ac1: 85 14        	sta	$14                     ; 0x2014 <main+0x1cab>
    7ac3: a5 6c        	lda	$6c                     ; 0x206c <main+0x1d03>
    7ac5: 65 13        	adc	$13                     ; 0x2013 <main+0x1caa>
    7ac7: 85 15        	sta	$15                     ; 0x2015 <main+0x1cac>
    7ac9: a5 16        	lda	$16                     ; 0x2016 <main+0x1cad>
    7acb: 92 14        	sta	($14)                   ; 0x2014 <main+0x1cab>
    7acd: e6 12        	inc	$12                     ; 0x2012 <main+0x1ca9>
    7acf: d0 02        	bne	$7ad3 <sprintf+0xa0>
    7ad1: e6 13        	inc	$13                     ; 0x2013 <main+0x1caa>
    7ad3: a6 12        	ldx	$12                     ; 0x2012 <main+0x1ca9>
    7ad5: a4 13        	ldy	$13                     ; 0x2013 <main+0x1caa>
    7ad7: 86 76        	stx	$76                     ; 0x2076 <main+0x1d0d>
    7ad9: 84 77        	sty	$77                     ; 0x2077 <main+0x1d0e>
    7adb: e6 6d        	inc	$6d                     ; 0x206d <main+0x1d04>
    7add: d0 02        	bne	$7ae1 <sprintf+0xae>
    7adf: e6 6e        	inc	$6e                     ; 0x206e <main+0x1d05>
    7ae1: a6 6d        	ldx	$6d                     ; 0x206d <main+0x1d04>
    7ae3: 86 12        	stx	$12                     ; 0x2012 <main+0x1ca9>
    7ae5: a6 6e        	ldx	$6e                     ; 0x206e <main+0x1d05>
    7ae7: 86 13        	stx	$13                     ; 0x2013 <main+0x1caa>
    7ae9: 80 ac        	bra	$7a97 <sprintf+0x64>
    7aeb: a6 76        	ldx	$76                     ; 0x2076 <main+0x1d0d>
    7aed: 86 12        	stx	$12                     ; 0x2012 <main+0x1ca9>
    7aef: a4 77        	ldy	$77                     ; 0x2077 <main+0x1d0e>
    7af1: 84 13        	sty	$13                     ; 0x2013 <main+0x1caa>
    7af3: c0 ff        	cpy	#$ff
    7af5: d0 04        	bne	$7afb <sprintf+0xc8>
    7af7: e0 ff        	cpx	#$ff
    7af9: f0 11        	beq	$7b0c <sprintf+0xd9>
    7afb: a5 6b        	lda	$6b                     ; 0x206b <main+0x1d02>
    7afd: 18           	clc
    7afe: 65 12        	adc	$12                     ; 0x2012 <main+0x1ca9>
    7b00: 85 12        	sta	$12                     ; 0x2012 <main+0x1ca9>
    7b02: a5 6c        	lda	$6c                     ; 0x206c <main+0x1d03>
    7b04: 65 13        	adc	$13                     ; 0x2013 <main+0x1caa>
    7b06: 85 13        	sta	$13                     ; 0x2013 <main+0x1caa>
    7b08: a9 00        	lda	#$0
    7b0a: 92 12        	sta	($12)                   ; 0x2012 <main+0x1ca9>
    7b0c: 60           	rts

00007b0d <memcpy>:
    7b0d: a8           	tay
    7b0e: 8a           	txa
    7b0f: d0 03        	bne	$7b14 <memcpy+0x7>
    7b11: 98           	tya
    7b12: f0 24        	beq	$7b38 <memcpy+0x2b>
    7b14: a5 12        	lda	$12                     ; 0x2012 <main+0x1ca9>
    7b16: 85 16        	sta	$16                     ; 0x2016 <main+0x1cad>
    7b18: a5 13        	lda	$13                     ; 0x2013 <main+0x1caa>
    7b1a: 85 17        	sta	$17                     ; 0x2017 <main+0x1cae>
    7b1c: b2 14        	lda	($14)                   ; 0x2014 <main+0x1cab>
    7b1e: 92 16        	sta	($16)                   ; 0x2016 <main+0x1cad>
    7b20: e6 16        	inc	$16                     ; 0x2016 <main+0x1cad>
    7b22: d0 02        	bne	$7b26 <memcpy+0x19>
    7b24: e6 17        	inc	$17                     ; 0x2017 <main+0x1cae>
    7b26: e6 14        	inc	$14                     ; 0x2014 <main+0x1cab>
    7b28: d0 02        	bne	$7b2c <memcpy+0x1f>
    7b2a: e6 15        	inc	$15                     ; 0x2015 <main+0x1cac>
    7b2c: 88           	dey
    7b2d: c0 ff        	cpy	#$ff
    7b2f: d0 01        	bne	$7b32 <memcpy+0x25>
    7b31: ca           	dex
    7b32: 8a           	txa
    7b33: d0 e7        	bne	$7b1c <memcpy+0xf>
    7b35: 98           	tya
    7b36: d0 e4        	bne	$7b1c <memcpy+0xf>
    7b38: 60           	rts

00007b39 <__memset>:
    7b39: a4 14        	ldy	$14                     ; 0x2014 <main+0x1cab>
    7b3b: d0 04        	bne	$7b41 <__memset+0x8>
    7b3d: e0 00        	cpx	#$0
    7b3f: f0 17        	beq	$7b58 <__memset+0x1f>
    7b41: 92 12        	sta	($12)                   ; 0x2012 <main+0x1ca9>
    7b43: e6 12        	inc	$12                     ; 0x2012 <main+0x1ca9>
    7b45: d0 02        	bne	$7b49 <__memset+0x10>
    7b47: e6 13        	inc	$13                     ; 0x2013 <main+0x1caa>
    7b49: ca           	dex
    7b4a: e0 ff        	cpx	#$ff
    7b4c: d0 02        	bne	$7b50 <__memset+0x17>
    7b4e: c6 14        	dec	$14                     ; 0x2014 <main+0x1cab>
    7b50: a4 14        	ldy	$14                     ; 0x2014 <main+0x1cab>
    7b52: d0 ed        	bne	$7b41 <__memset+0x8>
    7b54: e0 00        	cpx	#$0
    7b56: d0 e9        	bne	$7b41 <__memset+0x8>
    7b58: 60           	rts

00007b59 <__mulhi3>:
    7b59: a4 13        	ldy	$13                     ; 0x2013 <main+0x1caa>
    7b5b: d0 04        	bne	$7b61 <__mulhi3+0x8>
    7b5d: a4 12        	ldy	$12                     ; 0x2012 <main+0x1ca9>
    7b5f: f0 25        	beq	$7b86 <__mulhi3+0x2d>
    7b61: 85 14        	sta	$14                     ; 0x2014 <main+0x1cab>
    7b63: 86 15        	stx	$15                     ; 0x2015 <main+0x1cac>
    7b65: a0 00        	ldy	#$0
    7b67: 98           	tya
    7b68: 46 13        	lsr	$13                     ; 0x2013 <main+0x1caa>
    7b6a: 66 12        	ror	$12                     ; 0x2012 <main+0x1ca9>
    7b6c: 90 09        	bcc	$7b77 <__mulhi3+0x1e>
    7b6e: aa           	tax
    7b6f: 98           	tya
    7b70: 18           	clc
    7b71: 65 14        	adc	$14                     ; 0x2014 <main+0x1cab>
    7b73: a8           	tay
    7b74: 8a           	txa
    7b75: 65 15        	adc	$15                     ; 0x2015 <main+0x1cac>
    7b77: 06 14        	asl	$14                     ; 0x2014 <main+0x1cab>
    7b79: 26 15        	rol	$15                     ; 0x2015 <main+0x1cac>
    7b7b: a6 13        	ldx	$13                     ; 0x2013 <main+0x1caa>
    7b7d: d0 e9        	bne	$7b68 <__mulhi3+0xf>
    7b7f: a6 12        	ldx	$12                     ; 0x2012 <main+0x1ca9>
    7b81: d0 e5        	bne	$7b68 <__mulhi3+0xf>
    7b83: aa           	tax
    7b84: 98           	tya
    7b85: 60           	rts
    7b86: a0 00        	ldy	#$0
    7b88: 98           	tya
    7b89: 80 f8        	bra	$7b83 <__mulhi3+0x2a>
