
fwrite6.elf:	file format elf32-mos

SYMBOL TABLE:
00000000 l    df *ABS*	00000000 zero-bss.c
00000000 l    df *ABS*	00000000 zero-zp-bss.c
00000000 l    df *ABS*	00000000 ld-temp.o
00000030 l     O .zp.bss	00000007 kernelEventData
00001400 l     O .rodata	00000030 textColors
00000037 l     O .zp.bss	00000001 _col
00000038 l     O .zp.bss	00000001 _row
00001441 l     O .bss	00000001 kernelError
00000039 l     O .zp.bss	00000002 __putchar.s
0000101d l     F .text	000001e9 textPrint
00001444 l     O .bss	00000002 _ZN12_GLOBAL__N_19free_sizeE
0000120b l     F .text	000001d5 malloc
00001446 l     O .bss	00000002 _ZN12_GLOBAL__N_19free_listE
00001443 l     O .bss	00000001 _ZN12_GLOBAL__N_19last_freeE
00001442 l     O .bss	00000001 _ZN12_GLOBAL__N_111initializedE
00000316 l     F .text	0000013d _ZN12_GLOBAL__N_19FreeChunk6insertEPvj
00000454 l     F .text	000000df _ZN12_GLOBAL__N_19FreeChunk6removeEv
00000559 g     F .text	00000ac4 main
00000311 g       .text	00000000 __after_main
00000300 g       .text	00000000 __do_init_stack
00000308 g       .text	00000000 __do_zero_bss
00000533 g     F .text	00000013 __zero_bss
0000030b g       .text	00000000 __do_zero_zp_bss
00000546 g     F .text	00000013 __zero_zp_bss
00001206 g     F .text	00000005 exit
00000314 g       .text	00000000 _fini
000013e0  w    F .text	00000020 __memset
00001000  w      *ABS*	00000000 __heap_default_limit
00001448 g       .noinit	00000000 __heap_start
00000010 g       *ABS*	00000000 __rc0
00000012 g       *ABS*	00000000 __rc2
00000014 g       *ABS*	00000000 __rc4
00000016 g       *ABS*	00000000 __rc6
00000018 g       *ABS*	00000000 __rc8
0000001a g       *ABS*	00000000 __rc10
0000001c g       *ABS*	00000000 __rc12
0000001e g       *ABS*	00000000 __rc14
00000020 g       *ABS*	00000000 __rc16
00000022 g       *ABS*	00000000 __rc18
00000024 g       *ABS*	00000000 __rc20
00000026 g       *ABS*	00000000 __rc22
00000028 g       *ABS*	00000000 __rc24
0000002a g       *ABS*	00000000 __rc26
0000002c g       *ABS*	00000000 __rc28
0000002e g       *ABS*	00000000 __rc30
0000002f g       *ABS*	00000000 __rc31
00000300 g       *ABS*	00000000 __f256_start
0000c000 g       *ABS*	00000000 __stack
0000c000 g       *ABS*	00000000 __SLOT_ADDR
0800c000 g       *ABS*	00000000 __block8_lma
00002000 g       *ABS*	00000000 __BLOCK_SIZE
0900c000 g       *ABS*	00000000 __block9_lma
0a00c000 g       *ABS*	00000000 __block10_lma
0b00c000 g       *ABS*	00000000 __block11_lma
0c00c000 g       *ABS*	00000000 __block12_lma
0d00c000 g       *ABS*	00000000 __block13_lma
0e00c000 g       *ABS*	00000000 __block14_lma
0f00c000 g       *ABS*	00000000 __block15_lma
1000c000 g       *ABS*	00000000 __block16_lma
1100c000 g       *ABS*	00000000 __block17_lma
1200c000 g       *ABS*	00000000 __block18_lma
1300c000 g       *ABS*	00000000 __block19_lma
1400c000 g       *ABS*	00000000 __block20_lma
1500c000 g       *ABS*	00000000 __block21_lma
1600c000 g       *ABS*	00000000 __block22_lma
1700c000 g       *ABS*	00000000 __block23_lma
00001441 g       .bss	00000000 __bss_start
00000300 g       .text	00000000 _start
0000002d g       *ABS*	00000000 __rc29
0000002b g       *ABS*	00000000 __rc27
00000029 g       *ABS*	00000000 __rc25
00000027 g       *ABS*	00000000 __rc23
00000025 g       *ABS*	00000000 __rc21
00000023 g       *ABS*	00000000 __rc19
00000021 g       *ABS*	00000000 __rc17
0000001f g       *ABS*	00000000 __rc15
0000001d g       *ABS*	00000000 __rc13
0000001b g       *ABS*	00000000 __rc11
00000019 g       *ABS*	00000000 __rc9
00000017 g       *ABS*	00000000 __rc7
00000015 g       *ABS*	00000000 __rc5
00000013 g       *ABS*	00000000 __rc3
00000011 g       *ABS*	00000000 __rc1
00000030 g       .zp.data	00000000 __zp_data_start
00000300 g       *ABS*	00000000 __zp_data_load_start
00000000 g       *ABS*	00000000 __zp_data_size
00000030 g       .zp.bss	00000000 __zp_bss_start
0000000b g       *ABS*	00000000 __zp_bss_size
00000300 g       .text	00000000 _init
00001400 g       .text	00000000 __init_array_start
00001400 g       .text	00000000 __init_array_end
00001400 g       .text	00000000 __fini_array_start
00001400 g       .text	00000000 __fini_array_end
00001441 g       .data	00000000 __data_start
00001441 g       .data	00000000 __data_end
00001441 g       *ABS*	00000000 __data_load_start
00000000 g       *ABS*	00000000 __data_size
00001448 g       .bss	00000000 __bss_end
00000007 g       *ABS*	00000000 __bss_size
00001448 g       .noinit	00000000 end_block8
00001448 g       .noinit	00000000 end_block9
00001448 g       .noinit	00000000 end_block10
00001448 g       .noinit	00000000 end_block11
00001448 g       .noinit	00000000 end_block12
00001448 g       .noinit	00000000 end_block13
00001448 g       .noinit	00000000 end_block14
00001448 g       .noinit	00000000 end_block15
00001448 g       .noinit	00000000 end_block16
00001448 g       .noinit	00000000 end_block17
00001448 g       .noinit	00000000 end_block18
00001448 g       .noinit	00000000 end_block19
00001448 g       .noinit	00000000 end_block20
00001448 g       .noinit	00000000 end_block21
00001448 g       .noinit	00000000 end_block22
00001448 g       .noinit	00000000 end_block23

Disassembly of section .text:

00000300 <_start>:
     300: a9 00        	lda	#$0
     302: 85 10        	sta	$10                     ; 0x2010 <end_block9+0xbc8>
     304: a9 c0        	lda	#$c0
     306: 85 11        	sta	$11                     ; 0x2011 <end_block9+0xbc9>

00000308 <__do_zero_bss>:
     308: 20 33 05     	jsr	$533 <__zero_bss>

0000030b <__do_zero_zp_bss>:
     30b: 20 46 05     	jsr	$546 <__zero_zp_bss>
     30e: 20 59 05     	jsr	$559 <main>

00000311 <__after_main>:
     311: 4c 06 12     	jmp	$1206 <exit>

00000314 <_fini>:
     314: 60           	rts
     315: 00           	brk

00000316 <_ZN12_GLOBAL__N_19FreeChunk6insertEPvj>:
     316: 85 16        	sta	$16                     ; 0x2016 <end_block9+0xbce>
     318: 29 fe        	and	#$fe
     31a: 85 14        	sta	$14                     ; 0x2014 <end_block9+0xbcc>
     31c: a0 01        	ldy	#$1
     31e: 98           	tya
     31f: 32 12        	and	($12)                   ; 0x2012 <end_block9+0xbca>
     321: 05 14        	ora	$14                     ; 0x2014 <end_block9+0xbcc>
     323: 92 12        	sta	($12)                   ; 0x2012 <end_block9+0xbca>
     325: a5 12        	lda	$12                     ; 0x2012 <end_block9+0xbca>
     327: 18           	clc
     328: 65 14        	adc	$14                     ; 0x2014 <end_block9+0xbcc>
     32a: 85 15        	sta	$15                     ; 0x2015 <end_block9+0xbcd>
     32c: 8a           	txa
     32d: 65 13        	adc	$13                     ; 0x2013 <end_block9+0xbcb>
     32f: 85 14        	sta	$14                     ; 0x2014 <end_block9+0xbcc>
     331: 18           	clc
     332: a5 15        	lda	$15                     ; 0x2015 <end_block9+0xbcd>
     334: 69 fe        	adc	#$fe
     336: 85 17        	sta	$17                     ; 0x2017 <end_block9+0xbcf>
     338: a5 14        	lda	$14                     ; 0x2014 <end_block9+0xbcc>
     33a: 69 ff        	adc	#$ff
     33c: 85 15        	sta	$15                     ; 0x2015 <end_block9+0xbcd>
     33e: a5 17        	lda	$17                     ; 0x2017 <end_block9+0xbcf>
     340: 85 14        	sta	$14                     ; 0x2014 <end_block9+0xbcc>
     342: 8a           	txa
     343: 91 12        	sta	($12),y                 ; 0x2012 <end_block9+0xbca>
     345: a5 16        	lda	$16                     ; 0x2016 <end_block9+0xbce>
     347: 92 14        	sta	($14)                   ; 0x2014 <end_block9+0xbcc>
     349: 8a           	txa
     34a: 91 14        	sta	($14),y                 ; 0x2014 <end_block9+0xbcc>
     34c: b1 12        	lda	($12),y                 ; 0x2012 <end_block9+0xbca>
     34e: 85 14        	sta	$14                     ; 0x2014 <end_block9+0xbcc>
     350: a9 fe        	lda	#$fe
     352: 32 12        	and	($12)                   ; 0x2012 <end_block9+0xbca>
     354: 18           	clc
     355: 6d 44 14     	adc	$1444                   ; 0x1444 <_ZN12_GLOBAL__N_19free_sizeE>
     358: aa           	tax
     359: a5 14        	lda	$14                     ; 0x2014 <end_block9+0xbcc>
     35b: 6d 45 14     	adc	$1445                   ; 0x1445 <_ZN12_GLOBAL__N_19free_sizeE+0x1>
     35e: a8           	tay
     35f: 18           	clc
     360: 8a           	txa
     361: 69 fe        	adc	#$fe
     363: aa           	tax
     364: 98           	tya
     365: 69 ff        	adc	#$ff
     367: 8e 44 14     	stx	$1444                   ; 0x1444 <_ZN12_GLOBAL__N_19free_sizeE>
     36a: 8d 45 14     	sta	$1445                   ; 0x1445 <_ZN12_GLOBAL__N_19free_sizeE+0x1>
     36d: ae 46 14     	ldx	$1446                   ; 0x1446 <_ZN12_GLOBAL__N_19free_listE>
     370: 86 16        	stx	$16                     ; 0x2016 <end_block9+0xbce>
     372: ac 47 14     	ldy	$1447                   ; 0x1447 <_ZN12_GLOBAL__N_19free_listE+0x1>
     375: a2 00        	ldx	#$0
     377: 86 14        	stx	$14                     ; 0x2014 <end_block9+0xbcc>
     379: a2 00        	ldx	#$0
     37b: 86 15        	stx	$15                     ; 0x2015 <end_block9+0xbcd>
     37d: c4 15        	cpy	$15                     ; 0x2015 <end_block9+0xbcd>
     37f: d0 3e        	bne	$3bf <_ZN12_GLOBAL__N_19FreeChunk6insertEPvj+0xa9>
     381: a6 16        	ldx	$16                     ; 0x2016 <end_block9+0xbce>
     383: e4 14        	cpx	$14                     ; 0x2014 <end_block9+0xbcc>
     385: d0 38        	bne	$3bf <_ZN12_GLOBAL__N_19FreeChunk6insertEPvj+0xa9>
     387: a0 04        	ldy	#$4
     389: a5 12        	lda	$12                     ; 0x2012 <end_block9+0xbca>
     38b: 18           	clc
     38c: 69 04        	adc	#$4
     38e: 85 14        	sta	$14                     ; 0x2014 <end_block9+0xbcc>
     390: a5 13        	lda	$13                     ; 0x2013 <end_block9+0xbcb>
     392: 69 00        	adc	#$0
     394: 18           	clc
     395: 85 15        	sta	$15                     ; 0x2015 <end_block9+0xbcd>
     397: a5 12        	lda	$12                     ; 0x2012 <end_block9+0xbca>
     399: 91 12        	sta	($12),y                 ; 0x2012 <end_block9+0xbca>
     39b: a0 02        	ldy	#$2
     39d: 85 17        	sta	$17                     ; 0x2017 <end_block9+0xbcf>
     39f: 69 02        	adc	#$2
     3a1: 85 16        	sta	$16                     ; 0x2016 <end_block9+0xbce>
     3a3: a5 17        	lda	$17                     ; 0x2017 <end_block9+0xbcf>
     3a5: 91 12        	sta	($12),y                 ; 0x2012 <end_block9+0xbca>
     3a7: a5 13        	lda	$13                     ; 0x2013 <end_block9+0xbcb>
     3a9: 69 00        	adc	#$0
     3ab: 85 17        	sta	$17                     ; 0x2017 <end_block9+0xbcf>
     3ad: 88           	dey
     3ae: a5 13        	lda	$13                     ; 0x2013 <end_block9+0xbcb>
     3b0: 91 14        	sta	($14),y                 ; 0x2014 <end_block9+0xbcc>
     3b2: 91 16        	sta	($16),y                 ; 0x2016 <end_block9+0xbce>
     3b4: a6 12        	ldx	$12                     ; 0x2012 <end_block9+0xbca>
     3b6: 8e 46 14     	stx	$1446                   ; 0x1446 <_ZN12_GLOBAL__N_19free_listE>
     3b9: a6 13        	ldx	$13                     ; 0x2013 <end_block9+0xbcb>
     3bb: 8e 47 14     	stx	$1447                   ; 0x1447 <_ZN12_GLOBAL__N_19free_listE+0x1>
     3be: 60           	rts
     3bf: a6 12        	ldx	$12                     ; 0x2012 <end_block9+0xbca>
     3c1: a5 12        	lda	$12                     ; 0x2012 <end_block9+0xbca>
     3c3: 18           	clc
     3c4: 69 02        	adc	#$2
     3c6: 85 14        	sta	$14                     ; 0x2014 <end_block9+0xbcc>
     3c8: 84 18        	sty	$18                     ; 0x2018 <end_block9+0xbd0>
     3ca: a5 13        	lda	$13                     ; 0x2013 <end_block9+0xbcb>
     3cc: 69 00        	adc	#$0
     3ce: 85 15        	sta	$15                     ; 0x2015 <end_block9+0xbcd>
     3d0: a5 16        	lda	$16                     ; 0x2016 <end_block9+0xbce>
     3d2: 84 17        	sty	$17                     ; 0x2017 <end_block9+0xbcf>
     3d4: a0 02        	ldy	#$2
     3d6: 91 12        	sta	($12),y                 ; 0x2012 <end_block9+0xbca>
     3d8: 85 19        	sta	$19                     ; 0x2019 <end_block9+0xbd1>
     3da: 88           	dey
     3db: a5 18        	lda	$18                     ; 0x2018 <end_block9+0xbd0>
     3dd: 91 14        	sta	($14),y                 ; 0x2014 <end_block9+0xbcc>
     3df: 18           	clc
     3e0: a5 19        	lda	$19                     ; 0x2019 <end_block9+0xbd1>
     3e2: 69 04        	adc	#$4
     3e4: a8           	tay
     3e5: a5 18        	lda	$18                     ; 0x2018 <end_block9+0xbd0>
     3e7: 69 00        	adc	#$0
     3e9: 85 19        	sta	$19                     ; 0x2019 <end_block9+0xbd1>
     3eb: 84 18        	sty	$18                     ; 0x2018 <end_block9+0xbd0>
     3ed: 8a           	txa
     3ee: 18           	clc
     3ef: 69 04        	adc	#$4
     3f1: 85 1a        	sta	$1a                     ; 0x201a <end_block9+0xbd2>
     3f3: a5 13        	lda	$13                     ; 0x2013 <end_block9+0xbcb>
     3f5: 69 00        	adc	#$0
     3f7: 85 1b        	sta	$1b                     ; 0x201b <end_block9+0xbd3>
     3f9: a0 04        	ldy	#$4
     3fb: b1 16        	lda	($16),y                 ; 0x2016 <end_block9+0xbce>
     3fd: 85 16        	sta	$16                     ; 0x2016 <end_block9+0xbce>
     3ff: 85 1d        	sta	$1d                     ; 0x201d <end_block9+0xbd5>
     401: a0 01        	ldy	#$1
     403: b1 18        	lda	($18),y                 ; 0x2018 <end_block9+0xbd0>
     405: 85 17        	sta	$17                     ; 0x2017 <end_block9+0xbcf>
     407: 85 19        	sta	$19                     ; 0x2019 <end_block9+0xbd1>
     409: a0 04        	ldy	#$4
     40b: a5 1d        	lda	$1d                     ; 0x201d <end_block9+0xbd5>
     40d: 91 12        	sta	($12),y                 ; 0x2012 <end_block9+0xbca>
     40f: a5 19        	lda	$19                     ; 0x2019 <end_block9+0xbd1>
     411: a0 01        	ldy	#$1
     413: 91 1a        	sta	($1a),y                 ; 0x201a <end_block9+0xbd2>
     415: 18           	clc
     416: a5 1d        	lda	$1d                     ; 0x201d <end_block9+0xbd5>
     418: 69 02        	adc	#$2
     41a: 85 18        	sta	$18                     ; 0x2018 <end_block9+0xbd0>
     41c: a5 19        	lda	$19                     ; 0x2019 <end_block9+0xbd1>
     41e: 69 00        	adc	#$0
     420: 85 19        	sta	$19                     ; 0x2019 <end_block9+0xbd1>
     422: 8a           	txa
     423: c8           	iny
     424: 91 16        	sta	($16),y                 ; 0x2016 <end_block9+0xbce>
     426: a5 13        	lda	$13                     ; 0x2013 <end_block9+0xbcb>
     428: 88           	dey
     429: 91 18        	sta	($18),y                 ; 0x2018 <end_block9+0xbd0>
     42b: c8           	iny
     42c: b1 12        	lda	($12),y                 ; 0x2012 <end_block9+0xbca>
     42e: 85 16        	sta	$16                     ; 0x2016 <end_block9+0xbce>
     430: 85 18        	sta	$18                     ; 0x2018 <end_block9+0xbd0>
     432: 88           	dey
     433: b1 14        	lda	($14),y                 ; 0x2014 <end_block9+0xbcc>
     435: 85 17        	sta	$17                     ; 0x2017 <end_block9+0xbcf>
     437: 85 14        	sta	$14                     ; 0x2014 <end_block9+0xbcc>
     439: 8a           	txa
     43a: a0 04        	ldy	#$4
     43c: 91 16        	sta	($16),y                 ; 0x2016 <end_block9+0xbce>
     43e: 18           	clc
     43f: a5 18        	lda	$18                     ; 0x2018 <end_block9+0xbd0>
     441: 69 04        	adc	#$4
     443: a8           	tay
     444: a5 14        	lda	$14                     ; 0x2014 <end_block9+0xbcc>
     446: 69 00        	adc	#$0
     448: 84 14        	sty	$14                     ; 0x2014 <end_block9+0xbcc>
     44a: 85 15        	sta	$15                     ; 0x2015 <end_block9+0xbcd>
     44c: a5 13        	lda	$13                     ; 0x2013 <end_block9+0xbcb>
     44e: a0 01        	ldy	#$1
     450: 91 14        	sta	($14),y                 ; 0x2014 <end_block9+0xbcc>
     452: 60           	rts
     453: 00           	brk

00000454 <_ZN12_GLOBAL__N_19FreeChunk6removeEv>:
     454: a0 01        	ldy	#$1
     456: a9 fe        	lda	#$fe
     458: 32 12        	and	($12)                   ; 0x2012 <end_block9+0xbca>
     45a: 85 14        	sta	$14                     ; 0x2014 <end_block9+0xbcc>
     45c: ad 44 14     	lda	$1444                   ; 0x1444 <_ZN12_GLOBAL__N_19free_sizeE>
     45f: ae 45 14     	ldx	$1445                   ; 0x1445 <_ZN12_GLOBAL__N_19free_sizeE+0x1>
     462: 86 15        	stx	$15                     ; 0x2015 <end_block9+0xbcd>
     464: 38           	sec
     465: e5 14        	sbc	$14                     ; 0x2014 <end_block9+0xbcc>
     467: aa           	tax
     468: a5 15        	lda	$15                     ; 0x2015 <end_block9+0xbcd>
     46a: f1 12        	sbc	($12),y                 ; 0x2012 <end_block9+0xbca>
     46c: 85 14        	sta	$14                     ; 0x2014 <end_block9+0xbcc>
     46e: 18           	clc
     46f: 8a           	txa
     470: 69 02        	adc	#$2
     472: 85 15        	sta	$15                     ; 0x2015 <end_block9+0xbcd>
     474: a5 14        	lda	$14                     ; 0x2014 <end_block9+0xbcc>
     476: 69 00        	adc	#$0
     478: a6 15        	ldx	$15                     ; 0x2015 <end_block9+0xbcd>
     47a: 8e 44 14     	stx	$1444                   ; 0x1444 <_ZN12_GLOBAL__N_19free_sizeE>
     47d: 8d 45 14     	sta	$1445                   ; 0x1445 <_ZN12_GLOBAL__N_19free_sizeE+0x1>
     480: a5 12        	lda	$12                     ; 0x2012 <end_block9+0xbca>
     482: 18           	clc
     483: 69 02        	adc	#$2
     485: 85 14        	sta	$14                     ; 0x2014 <end_block9+0xbcc>
     487: a5 13        	lda	$13                     ; 0x2013 <end_block9+0xbcb>
     489: 69 00        	adc	#$0
     48b: c8           	iny
     48c: 85 15        	sta	$15                     ; 0x2015 <end_block9+0xbcd>
     48e: b1 12        	lda	($12),y                 ; 0x2012 <end_block9+0xbca>
     490: aa           	tax
     491: 88           	dey
     492: b1 14        	lda	($14),y                 ; 0x2014 <end_block9+0xbcc>
     494: 85 19        	sta	$19                     ; 0x2019 <end_block9+0xbd1>
     496: c5 13        	cmp	$13                     ; 0x2013 <end_block9+0xbcb>
     498: d0 0f        	bne	$4a9 <_ZN12_GLOBAL__N_19FreeChunk6removeEv+0x55>
     49a: e4 12        	cpx	$12                     ; 0x2012 <end_block9+0xbca>
     49c: d0 0b        	bne	$4a9 <_ZN12_GLOBAL__N_19FreeChunk6removeEv+0x55>
     49e: a2 00        	ldx	#$0
     4a0: 86 14        	stx	$14                     ; 0x2014 <end_block9+0xbcc>
     4a2: a2 00        	ldx	#$0
     4a4: 86 15        	stx	$15                     ; 0x2015 <end_block9+0xbcd>
     4a6: 4c 28 05     	jmp	$528 <_ZN12_GLOBAL__N_19FreeChunk6removeEv+0xd4>
     4a9: 86 18        	stx	$18                     ; 0x2018 <end_block9+0xbd0>
     4ab: a6 12        	ldx	$12                     ; 0x2012 <end_block9+0xbca>
     4ad: a5 12        	lda	$12                     ; 0x2012 <end_block9+0xbca>
     4af: 86 1b        	stx	$1b                     ; 0x201b <end_block9+0xbd3>
     4b1: 18           	clc
     4b2: 69 04        	adc	#$4
     4b4: 85 14        	sta	$14                     ; 0x2014 <end_block9+0xbcc>
     4b6: a5 13        	lda	$13                     ; 0x2013 <end_block9+0xbcb>
     4b8: 69 00        	adc	#$0
     4ba: a0 04        	ldy	#$4
     4bc: 85 15        	sta	$15                     ; 0x2015 <end_block9+0xbcd>
     4be: b1 12        	lda	($12),y                 ; 0x2012 <end_block9+0xbca>
     4c0: 85 1c        	sta	$1c                     ; 0x201c <end_block9+0xbd4>
     4c2: 18           	clc
     4c3: 69 02        	adc	#$2
     4c5: 85 16        	sta	$16                     ; 0x2016 <end_block9+0xbce>
     4c7: a0 01        	ldy	#$1
     4c9: b1 14        	lda	($14),y                 ; 0x2014 <end_block9+0xbcc>
     4cb: aa           	tax
     4cc: 69 00        	adc	#$0
     4ce: a4 16        	ldy	$16                     ; 0x2016 <end_block9+0xbce>
     4d0: 84 14        	sty	$14                     ; 0x2014 <end_block9+0xbcc>
     4d2: 85 15        	sta	$15                     ; 0x2015 <end_block9+0xbcd>
     4d4: a4 1c        	ldy	$1c                     ; 0x201c <end_block9+0xbd4>
     4d6: 84 16        	sty	$16                     ; 0x2016 <end_block9+0xbce>
     4d8: 86 17        	stx	$17                     ; 0x2017 <end_block9+0xbcf>
     4da: a0 02        	ldy	#$2
     4dc: a5 18        	lda	$18                     ; 0x2018 <end_block9+0xbd0>
     4de: 91 16        	sta	($16),y                 ; 0x2016 <end_block9+0xbce>
     4e0: a5 19        	lda	$19                     ; 0x2019 <end_block9+0xbd1>
     4e2: 88           	dey
     4e3: 91 14        	sta	($14),y                 ; 0x2014 <end_block9+0xbcc>
     4e5: 18           	clc
     4e6: a5 1b        	lda	$1b                     ; 0x201b <end_block9+0xbd3>
     4e8: 69 02        	adc	#$2
     4ea: 85 14        	sta	$14                     ; 0x2014 <end_block9+0xbcc>
     4ec: a5 13        	lda	$13                     ; 0x2013 <end_block9+0xbcb>
     4ee: 69 00        	adc	#$0
     4f0: 85 15        	sta	$15                     ; 0x2015 <end_block9+0xbcd>
     4f2: c8           	iny
     4f3: b1 12        	lda	($12),y                 ; 0x2012 <end_block9+0xbca>
     4f5: 85 16        	sta	$16                     ; 0x2016 <end_block9+0xbce>
     4f7: 88           	dey
     4f8: b1 14        	lda	($14),y                 ; 0x2014 <end_block9+0xbcc>
     4fa: a4 16        	ldy	$16                     ; 0x2016 <end_block9+0xbce>
     4fc: 84 14        	sty	$14                     ; 0x2014 <end_block9+0xbcc>
     4fe: 85 15        	sta	$15                     ; 0x2015 <end_block9+0xbcd>
     500: 85 17        	sta	$17                     ; 0x2017 <end_block9+0xbcf>
     502: a0 04        	ldy	#$4
     504: a5 1c        	lda	$1c                     ; 0x201c <end_block9+0xbd4>
     506: 91 14        	sta	($14),y                 ; 0x2014 <end_block9+0xbcc>
     508: 18           	clc
     509: a5 16        	lda	$16                     ; 0x2016 <end_block9+0xbce>
     50b: 69 04        	adc	#$4
     50d: 85 16        	sta	$16                     ; 0x2016 <end_block9+0xbce>
     50f: a5 17        	lda	$17                     ; 0x2017 <end_block9+0xbcf>
     511: 69 00        	adc	#$0
     513: 85 17        	sta	$17                     ; 0x2017 <end_block9+0xbcf>
     515: 8a           	txa
     516: a0 01        	ldy	#$1
     518: 91 16        	sta	($16),y                 ; 0x2016 <end_block9+0xbce>
     51a: ae 47 14     	ldx	$1447                   ; 0x1447 <_ZN12_GLOBAL__N_19free_listE+0x1>
     51d: e4 13        	cpx	$13                     ; 0x2013 <end_block9+0xbcb>
     51f: d0 11        	bne	$532 <_ZN12_GLOBAL__N_19FreeChunk6removeEv+0xde>
     521: ae 46 14     	ldx	$1446                   ; 0x1446 <_ZN12_GLOBAL__N_19free_listE>
     524: e4 12        	cpx	$12                     ; 0x2012 <end_block9+0xbca>
     526: d0 0a        	bne	$532 <_ZN12_GLOBAL__N_19FreeChunk6removeEv+0xde>
     528: a6 14        	ldx	$14                     ; 0x2014 <end_block9+0xbcc>
     52a: a4 15        	ldy	$15                     ; 0x2015 <end_block9+0xbcd>
     52c: 8e 46 14     	stx	$1446                   ; 0x1446 <_ZN12_GLOBAL__N_19free_listE>
     52f: 8c 47 14     	sty	$1447                   ; 0x1447 <_ZN12_GLOBAL__N_19free_listE+0x1>
     532: 60           	rts

00000533 <__zero_bss>:
     533: a2 07        	ldx	#$7
     535: a0 00        	ldy	#$0
     537: a9 41        	lda	#$41
     539: 85 12        	sta	$12                     ; 0x2012 <end_block9+0xbca>
     53b: a9 14        	lda	#$14
     53d: 85 13        	sta	$13                     ; 0x2013 <end_block9+0xbcb>
     53f: a9 00        	lda	#$0
     541: 84 14        	sty	$14                     ; 0x2014 <end_block9+0xbcc>
     543: 4c e0 13     	jmp	$13e0 <__memset>

00000546 <__zero_zp_bss>:
     546: a2 0b        	ldx	#$b
     548: a0 00        	ldy	#$0
     54a: a9 30        	lda	#$30
     54c: 85 12        	sta	$12                     ; 0x2012 <end_block9+0xbca>
     54e: a9 00        	lda	#$0
     550: 85 13        	sta	$13                     ; 0x2013 <end_block9+0xbcb>
     552: a9 00        	lda	#$0
     554: 84 14        	sty	$14                     ; 0x2014 <end_block9+0xbcc>
     556: 4c e0 13     	jmp	$13e0 <__memset>

00000559 <main>:
     559: 18           	clc
     55a: a5 10        	lda	$10                     ; 0x2010 <end_block9+0xbc8>
     55c: 69 ea        	adc	#$ea
     55e: 85 10        	sta	$10                     ; 0x2010 <end_block9+0xbc8>
     560: a5 11        	lda	$11                     ; 0x2011 <end_block9+0xbc9>
     562: 69 ff        	adc	#$ff
     564: 85 11        	sta	$11                     ; 0x2011 <end_block9+0xbc9>
     566: a6 24        	ldx	$24                     ; 0x2024 <end_block9+0xbdc>
     568: da           	phx
     569: a6 25        	ldx	$25                     ; 0x2025 <end_block9+0xbdd>
     56b: da           	phx
     56c: a6 26        	ldx	$26                     ; 0x2026 <end_block9+0xbde>
     56e: da           	phx
     56f: a6 27        	ldx	$27                     ; 0x2027 <end_block9+0xbdf>
     571: da           	phx
     572: a5 28        	lda	$28                     ; 0x2028 <end_block9+0xbe0>
     574: a0 07        	ldy	#$7
     576: 91 10        	sta	($10),y                 ; 0x2010 <end_block9+0xbc8>
     578: a5 29        	lda	$29                     ; 0x2029 <end_block9+0xbe1>
     57a: 88           	dey
     57b: 91 10        	sta	($10),y                 ; 0x2010 <end_block9+0xbc8>
     57d: a5 2a        	lda	$2a                     ; 0x202a <end_block9+0xbe2>
     57f: 88           	dey
     580: 91 10        	sta	($10),y                 ; 0x2010 <end_block9+0xbc8>
     582: a5 2b        	lda	$2b                     ; 0x202b <end_block9+0xbe3>
     584: 88           	dey
     585: 91 10        	sta	($10),y                 ; 0x2010 <end_block9+0xbc8>
     587: a5 2c        	lda	$2c                     ; 0x202c <end_block9+0xbe4>
     589: 88           	dey
     58a: 91 10        	sta	($10),y                 ; 0x2010 <end_block9+0xbc8>
     58c: a5 2d        	lda	$2d                     ; 0x202d <end_block9+0xbe5>
     58e: 88           	dey
     58f: 91 10        	sta	($10),y                 ; 0x2010 <end_block9+0xbc8>
     591: a5 2e        	lda	$2e                     ; 0x202e <end_block9+0xbe6>
     593: 88           	dey
     594: 91 10        	sta	($10),y                 ; 0x2010 <end_block9+0xbc8>
     596: a5 2f        	lda	$2f                     ; 0x202f <end_block9+0xbe7>
     598: 88           	dey
     599: 91 10        	sta	($10),y                 ; 0x2010 <end_block9+0xbc8>
     59b: 64 1c        	stz	$1c                     ; 0x201c <end_block9+0xbd4>
     59d: a2 00        	ldx	#$0
     59f: 86 1a        	stx	$1a                     ; 0x201a <end_block9+0xbd2>
     5a1: a2 d0        	ldx	#$d0
     5a3: 86 1b        	stx	$1b                     ; 0x201b <end_block9+0xbd3>
     5a5: a2 00        	ldx	#$0
     5a7: 86 16        	stx	$16                     ; 0x2016 <end_block9+0xbce>
     5a9: a2 d8        	ldx	#$d8
     5ab: 86 17        	stx	$17                     ; 0x2017 <end_block9+0xbcf>
     5ad: a2 00        	ldx	#$0
     5af: a0 10        	ldy	#$10
     5b1: a9 48        	lda	#$48
     5b3: 86 12        	stx	$12                     ; 0x2012 <end_block9+0xbca>
     5b5: 84 13        	sty	$13                     ; 0x2013 <end_block9+0xbcb>
     5b7: 18           	clc
     5b8: 65 12        	adc	$12                     ; 0x2012 <end_block9+0xbca>
     5ba: a0 08        	ldy	#$8
     5bc: 91 10        	sta	($10),y                 ; 0x2010 <end_block9+0xbc8>
     5be: a9 14        	lda	#$14
     5c0: 65 13        	adc	$13                     ; 0x2013 <end_block9+0xbcb>
     5c2: 85 27        	sta	$27                     ; 0x2027 <end_block9+0xbdf>
     5c4: a2 00        	ldx	#$0
     5c6: 86 18        	stx	$18                     ; 0x2018 <end_block9+0xbd0>
     5c8: a2 d4        	ldx	#$d4
     5ca: 86 19        	stx	$19                     ; 0x2019 <end_block9+0xbd1>
     5cc: a2 00        	ldx	#$0
     5ce: 86 14        	stx	$14                     ; 0x2014 <end_block9+0xbcc>
     5d0: a2 dc        	ldx	#$dc
     5d2: 86 15        	stx	$15                     ; 0x2015 <end_block9+0xbcd>
     5d4: a2 00        	ldx	#$0
     5d6: 86 12        	stx	$12                     ; 0x2012 <end_block9+0xbca>
     5d8: a2 c0        	ldx	#$c0
     5da: 86 13        	stx	$13                     ; 0x2013 <end_block9+0xbcb>
     5dc: 64 01        	stz	$1                      ; 0x2001 <end_block9+0xbb9>
     5de: a2 3f        	ldx	#$3f
     5e0: 8e 00 d0     	stx	$d000                   ; 0xd000 <end_block9+0xbbb8>
     5e3: a2 b3        	ldx	#$b3
     5e5: 86 00        	stx	$0                      ; 0x2000 <end_block9+0xbb8>
     5e7: 64 08        	stz	$8                      ; 0x2008 <end_block9+0xbc0>
     5e9: a2 01        	ldx	#$1
     5eb: 86 09        	stx	$9                      ; 0x2009 <end_block9+0xbc1>
     5ed: e8           	inx
     5ee: 86 0a        	stx	$a                      ; 0x200a <end_block9+0xbc2>
     5f0: e8           	inx
     5f1: 86 0b        	stx	$b                      ; 0x200b <end_block9+0xbc3>
     5f3: e8           	inx
     5f4: 86 0c        	stx	$c                      ; 0x200c <end_block9+0xbc4>
     5f6: e8           	inx
     5f7: 86 0d        	stx	$d                      ; 0x200d <end_block9+0xbc5>
     5f9: a2 30        	ldx	#$30
     5fb: a9 00        	lda	#$0
     5fd: 86 f0        	stx	$f0                     ; 0x20f0 <end_block9+0xca8>
     5ff: 85 f1        	sta	$f1                     ; 0x20f1 <end_block9+0xca9>
     601: a6 01        	ldx	$1                      ; 0x2001 <end_block9+0xbb9>
     603: a0 01        	ldy	#$1
     605: 84 01        	sty	$1                      ; 0x2001 <end_block9+0xbb9>
     607: a5 1c        	lda	$1c                     ; 0x201c <end_block9+0xbd4>
     609: 92 1a        	sta	($1a)                   ; 0x201a <end_block9+0xbd2>
     60b: 91 1a        	sta	($1a),y                 ; 0x201a <end_block9+0xbd2>
     60d: c8           	iny
     60e: 91 1a        	sta	($1a),y                 ; 0x201a <end_block9+0xbd2>
     610: c8           	iny
     611: a9 ff        	lda	#$ff
     613: 91 1a        	sta	($1a),y                 ; 0x201a <end_block9+0xbd2>
     615: 86 01        	stx	$1                      ; 0x2001 <end_block9+0xbb9>
     617: a5 1a        	lda	$1a                     ; 0x201a <end_block9+0xbd2>
     619: 18           	clc
     61a: 69 04        	adc	#$4
     61c: 85 1a        	sta	$1a                     ; 0x201a <end_block9+0xbd2>
     61e: a5 1b        	lda	$1b                     ; 0x201b <end_block9+0xbd3>
     620: 69 00        	adc	#$0
     622: e6 1c        	inc	$1c                     ; 0x201c <end_block9+0xbd4>
     624: 85 1b        	sta	$1b                     ; 0x201b <end_block9+0xbd3>
     626: d0 d9        	bne	$601 <main+0xa8>
     628: a9 00        	lda	#$0
     62a: a6 01        	ldx	$1                      ; 0x2001 <end_block9+0xbb9>
     62c: a0 01        	ldy	#$1
     62e: 84 01        	sty	$1                      ; 0x2001 <end_block9+0xbb9>
     630: 92 18        	sta	($18)                   ; 0x2018 <end_block9+0xbd0>
     632: 91 18        	sta	($18),y                 ; 0x2018 <end_block9+0xbd0>
     634: c8           	iny
     635: 91 18        	sta	($18),y                 ; 0x2018 <end_block9+0xbd0>
     637: c8           	iny
     638: 85 1a        	sta	$1a                     ; 0x201a <end_block9+0xbd2>
     63a: a9 ff        	lda	#$ff
     63c: 91 18        	sta	($18),y                 ; 0x2018 <end_block9+0xbd0>
     63e: 86 01        	stx	$1                      ; 0x2001 <end_block9+0xbb9>
     640: a5 18        	lda	$18                     ; 0x2018 <end_block9+0xbd0>
     642: 18           	clc
     643: 69 04        	adc	#$4
     645: 85 18        	sta	$18                     ; 0x2018 <end_block9+0xbd0>
     647: a5 19        	lda	$19                     ; 0x2019 <end_block9+0xbd1>
     649: 69 00        	adc	#$0
     64b: e6 1a        	inc	$1a                     ; 0x201a <end_block9+0xbd2>
     64d: 85 19        	sta	$19                     ; 0x2019 <end_block9+0xbd1>
     64f: a5 1a        	lda	$1a                     ; 0x201a <end_block9+0xbd2>
     651: d0 d7        	bne	$62a <main+0xd1>
     653: a9 00        	lda	#$0
     655: a6 01        	ldx	$1                      ; 0x2001 <end_block9+0xbb9>
     657: a0 01        	ldy	#$1
     659: 84 01        	sty	$1                      ; 0x2001 <end_block9+0xbb9>
     65b: 92 16        	sta	($16)                   ; 0x2016 <end_block9+0xbce>
     65d: 91 16        	sta	($16),y                 ; 0x2016 <end_block9+0xbce>
     65f: c8           	iny
     660: 91 16        	sta	($16),y                 ; 0x2016 <end_block9+0xbce>
     662: c8           	iny
     663: 85 18        	sta	$18                     ; 0x2018 <end_block9+0xbd0>
     665: a9 ff        	lda	#$ff
     667: 91 16        	sta	($16),y                 ; 0x2016 <end_block9+0xbce>
     669: 86 01        	stx	$1                      ; 0x2001 <end_block9+0xbb9>
     66b: a5 16        	lda	$16                     ; 0x2016 <end_block9+0xbce>
     66d: 18           	clc
     66e: 69 04        	adc	#$4
     670: 85 16        	sta	$16                     ; 0x2016 <end_block9+0xbce>
     672: a5 17        	lda	$17                     ; 0x2017 <end_block9+0xbcf>
     674: 69 00        	adc	#$0
     676: e6 18        	inc	$18                     ; 0x2018 <end_block9+0xbd0>
     678: 85 17        	sta	$17                     ; 0x2017 <end_block9+0xbcf>
     67a: a5 18        	lda	$18                     ; 0x2018 <end_block9+0xbd0>
     67c: d0 d7        	bne	$655 <main+0xfc>
     67e: a9 00        	lda	#$0
     680: a6 01        	ldx	$1                      ; 0x2001 <end_block9+0xbb9>
     682: a0 01        	ldy	#$1
     684: 84 01        	sty	$1                      ; 0x2001 <end_block9+0xbb9>
     686: 92 14        	sta	($14)                   ; 0x2014 <end_block9+0xbcc>
     688: 91 14        	sta	($14),y                 ; 0x2014 <end_block9+0xbcc>
     68a: c8           	iny
     68b: 91 14        	sta	($14),y                 ; 0x2014 <end_block9+0xbcc>
     68d: c8           	iny
     68e: 85 16        	sta	$16                     ; 0x2016 <end_block9+0xbce>
     690: a9 ff        	lda	#$ff
     692: 91 14        	sta	($14),y                 ; 0x2014 <end_block9+0xbcc>
     694: 86 01        	stx	$1                      ; 0x2001 <end_block9+0xbb9>
     696: a5 14        	lda	$14                     ; 0x2014 <end_block9+0xbcc>
     698: 18           	clc
     699: 69 04        	adc	#$4
     69b: 85 14        	sta	$14                     ; 0x2014 <end_block9+0xbcc>
     69d: a5 15        	lda	$15                     ; 0x2015 <end_block9+0xbcd>
     69f: 69 00        	adc	#$0
     6a1: e6 16        	inc	$16                     ; 0x2016 <end_block9+0xbce>
     6a3: 85 15        	sta	$15                     ; 0x2015 <end_block9+0xbcd>
     6a5: a5 16        	lda	$16                     ; 0x2016 <end_block9+0xbce>
     6a7: d0 d7        	bne	$680 <main+0x127>
     6a9: ad 02 d0     	lda	$d002                   ; 0xd002 <end_block9+0xbbba>
     6ac: 29 f0        	and	#$f0
     6ae: 8d 02 d0     	sta	$d002                   ; 0xd002 <end_block9+0xbbba>
     6b1: ad 02 d0     	lda	$d002                   ; 0xd002 <end_block9+0xbbba>
     6b4: 29 0f        	and	#$f
     6b6: 09 10        	ora	#$10
     6b8: 8d 02 d0     	sta	$d002                   ; 0xd002 <end_block9+0xbbba>
     6bb: a2 02        	ldx	#$2
     6bd: 8e 03 d0     	stx	$d003                   ; 0xd003 <end_block9+0xbbbb>
     6c0: ad 01 d0     	lda	$d001                   ; 0xd001 <end_block9+0xbbb9>
     6c3: 29 f9        	and	#$f9
     6c5: 09 04        	ora	#$4
     6c7: 8d 01 d0     	sta	$d001                   ; 0xd001 <end_block9+0xbbb9>
     6ca: 64 14        	stz	$14                     ; 0x2014 <end_block9+0xbcc>
     6cc: 9c 10 d0     	stz	$d010                   ; 0xd010 <end_block9+0xbbc8>
     6cf: a2 00        	ldx	#$0
     6d1: 64 15        	stz	$15                     ; 0x2015 <end_block9+0xbcd>
     6d3: 86 18        	stx	$18                     ; 0x2018 <end_block9+0xbd0>
     6d5: a4 18        	ldy	$18                     ; 0x2018 <end_block9+0xbd0>
     6d7: be 00 14     	ldx	$1400,y                 ; 0x1400 <textColors>
     6da: 86 19        	stx	$19                     ; 0x2019 <end_block9+0xbd1>
     6dc: be 01 14     	ldx	$1401,y                 ; 0x1401 <textColors+0x1>
     6df: 86 1a        	stx	$1a                     ; 0x201a <end_block9+0xbd2>
     6e1: be 02 14     	ldx	$1402,y                 ; 0x1402 <textColors+0x2>
     6e4: 86 1b        	stx	$1b                     ; 0x201b <end_block9+0xbd3>
     6e6: a6 15        	ldx	$15                     ; 0x2015 <end_block9+0xbcd>
     6e8: 8e 00 de     	stx	$de00                   ; 0xde00 <end_block9+0xc9b8>
     6eb: 86 17        	stx	$17                     ; 0x2017 <end_block9+0xbcf>
     6ed: 9c 01 de     	stz	$de01                   ; 0xde01 <end_block9+0xc9b9>
     6f0: a2 04        	ldx	#$4
     6f2: 8e 02 de     	stx	$de02                   ; 0xde02 <end_block9+0xc9ba>
     6f5: 9c 03 de     	stz	$de03                   ; 0xde03 <end_block9+0xc9bb>
     6f8: ad 10 de     	lda	$de10                   ; 0xde10 <end_block9+0xc9c8>
     6fb: ac 11 de     	ldy	$de11                   ; 0xde11 <end_block9+0xc9c9>
     6fe: 84 15        	sty	$15                     ; 0x2015 <end_block9+0xbcd>
     700: ac 12 de     	ldy	$de12                   ; 0xde12 <end_block9+0xc9ca>
     703: ac 13 de     	ldy	$de13                   ; 0xde13 <end_block9+0xc9cb>
     706: 18           	clc
     707: 65 14        	adc	$14                     ; 0x2014 <end_block9+0xbcc>
     709: 85 16        	sta	$16                     ; 0x2016 <end_block9+0xbce>
     70b: a6 17        	ldx	$17                     ; 0x2017 <end_block9+0xbcf>
     70d: a9 d8        	lda	#$d8
     70f: 65 15        	adc	$15                     ; 0x2015 <end_block9+0xbcd>
     711: 85 17        	sta	$17                     ; 0x2017 <end_block9+0xbcf>
     713: a5 1b        	lda	$1b                     ; 0x201b <end_block9+0xbd3>
     715: 92 16        	sta	($16)                   ; 0x2016 <end_block9+0xbce>
     717: a0 01        	ldy	#$1
     719: a5 1a        	lda	$1a                     ; 0x201a <end_block9+0xbd2>
     71b: 91 16        	sta	($16),y                 ; 0x2016 <end_block9+0xbce>
     71d: c8           	iny
     71e: a5 19        	lda	$19                     ; 0x2019 <end_block9+0xbd1>
     720: 91 16        	sta	($16),y                 ; 0x2016 <end_block9+0xbce>
     722: c8           	iny
     723: a9 ff        	lda	#$ff
     725: 91 16        	sta	($16),y                 ; 0x2016 <end_block9+0xbce>
     727: 8e 00 de     	stx	$de00                   ; 0xde00 <end_block9+0xc9b8>
     72a: 9c 01 de     	stz	$de01                   ; 0xde01 <end_block9+0xc9b9>
     72d: c8           	iny
     72e: 8c 02 de     	sty	$de02                   ; 0xde02 <end_block9+0xc9ba>
     731: 9c 03 de     	stz	$de03                   ; 0xde03 <end_block9+0xc9bb>
     734: ad 10 de     	lda	$de10                   ; 0xde10 <end_block9+0xc9c8>
     737: 85 15        	sta	$15                     ; 0x2015 <end_block9+0xbcd>
     739: ad 11 de     	lda	$de11                   ; 0xde11 <end_block9+0xc9c9>
     73c: 85 16        	sta	$16                     ; 0x2016 <end_block9+0xbce>
     73e: a9 40        	lda	#$40
     740: 18           	clc
     741: 65 15        	adc	$15                     ; 0x2015 <end_block9+0xbcd>
     743: a8           	tay
     744: a9 d8        	lda	#$d8
     746: 65 16        	adc	$16                     ; 0x2016 <end_block9+0xbce>
     748: 85 17        	sta	$17                     ; 0x2017 <end_block9+0xbcf>
     74a: 84 16        	sty	$16                     ; 0x2016 <end_block9+0xbce>
     74c: ad 12 de     	lda	$de12                   ; 0xde12 <end_block9+0xc9ca>
     74f: ad 13 de     	lda	$de13                   ; 0xde13 <end_block9+0xc9cb>
     752: a5 1b        	lda	$1b                     ; 0x201b <end_block9+0xbd3>
     754: 92 16        	sta	($16)                   ; 0x2016 <end_block9+0xbce>
     756: a5 1a        	lda	$1a                     ; 0x201a <end_block9+0xbd2>
     758: a0 01        	ldy	#$1
     75a: 91 16        	sta	($16),y                 ; 0x2016 <end_block9+0xbce>
     75c: a5 19        	lda	$19                     ; 0x2019 <end_block9+0xbd1>
     75e: c8           	iny
     75f: 91 16        	sta	($16),y                 ; 0x2016 <end_block9+0xbce>
     761: c8           	iny
     762: a9 ff        	lda	#$ff
     764: 91 16        	sta	($16),y                 ; 0x2016 <end_block9+0xbce>
     766: e8           	inx
     767: 86 15        	stx	$15                     ; 0x2015 <end_block9+0xbcd>
     769: 18           	clc
     76a: a5 18        	lda	$18                     ; 0x2018 <end_block9+0xbd0>
     76c: 69 03        	adc	#$3
     76e: aa           	tax
     76f: c9 30        	cmp	#$30
     771: f0 03        	beq	$776 <main+0x21d>
     773: 4c d3 06     	jmp	$6d3 <main+0x17a>
     776: a6 01        	ldx	$1                      ; 0x2001 <end_block9+0xbb9>
     778: 86 18        	stx	$18                     ; 0x2018 <end_block9+0xbd0>
     77a: a2 50        	ldx	#$50
     77c: 8e 00 de     	stx	$de00                   ; 0xde00 <end_block9+0xc9b8>
     77f: 9c 01 de     	stz	$de01                   ; 0xde01 <end_block9+0xc9b9>
     782: a2 1e        	ldx	#$1e
     784: 8e 02 de     	stx	$de02                   ; 0xde02 <end_block9+0xc9ba>
     787: 9c 03 de     	stz	$de03                   ; 0xde03 <end_block9+0xc9bb>
     78a: ae 10 de     	ldx	$de10                   ; 0xde10 <end_block9+0xc9c8>
     78d: ac 11 de     	ldy	$de11                   ; 0xde11 <end_block9+0xc9c9>
     790: ad 12 de     	lda	$de12                   ; 0xde12 <end_block9+0xc9ca>
     793: ad 13 de     	lda	$de13                   ; 0xde13 <end_block9+0xc9cb>
     796: a9 02        	lda	#$2
     798: 85 01        	sta	$1                      ; 0x2001 <end_block9+0xbb9>
     79a: e0 01        	cpx	#$1
     79c: 98           	tya
     79d: e9 00        	sbc	#$0
     79f: 50 02        	bvc	$7a3 <main+0x24a>
     7a1: 49 80        	eor	#$80
     7a3: c9 00        	cmp	#$0
     7a5: 30 50        	bmi	$7f7 <main+0x29e>
     7a7: a9 20        	lda	#$20
     7a9: 86 19        	stx	$19                     ; 0x2019 <end_block9+0xbd1>
     7ab: 86 14        	stx	$14                     ; 0x2014 <end_block9+0xbcc>
     7ad: 84 15        	sty	$15                     ; 0x2015 <end_block9+0xbcd>
     7af: a2 00        	ldx	#$0
     7b1: 86 16        	stx	$16                     ; 0x2016 <end_block9+0xbce>
     7b3: a2 c0        	ldx	#$c0
     7b5: 86 17        	stx	$17                     ; 0x2017 <end_block9+0xbcf>
     7b7: 80 04        	bra	$7bd <main+0x264>
     7b9: a6 15        	ldx	$15                     ; 0x2015 <end_block9+0xbcd>
     7bb: f0 14        	beq	$7d1 <main+0x278>
     7bd: 92 16        	sta	($16)                   ; 0x2016 <end_block9+0xbce>
     7bf: e6 16        	inc	$16                     ; 0x2016 <end_block9+0xbce>
     7c1: d0 02        	bne	$7c5 <main+0x26c>
     7c3: e6 17        	inc	$17                     ; 0x2017 <end_block9+0xbcf>
     7c5: a2 ff        	ldx	#$ff
     7c7: c6 14        	dec	$14                     ; 0x2014 <end_block9+0xbcc>
     7c9: e4 14        	cpx	$14                     ; 0x2014 <end_block9+0xbcc>
     7cb: d0 ec        	bne	$7b9 <main+0x260>
     7cd: c6 15        	dec	$15                     ; 0x2015 <end_block9+0xbcd>
     7cf: 80 e8        	bra	$7b9 <main+0x260>
     7d1: a6 14        	ldx	$14                     ; 0x2014 <end_block9+0xbcc>
     7d3: d0 e8        	bne	$7bd <main+0x264>
     7d5: a2 03        	ldx	#$3
     7d7: 86 01        	stx	$1                      ; 0x2001 <end_block9+0xbb9>
     7d9: a6 19        	ldx	$19                     ; 0x2019 <end_block9+0xbd1>
     7db: 80 03        	bra	$7e0 <main+0x287>
     7dd: 98           	tya
     7de: f0 12        	beq	$7f2 <main+0x299>
     7e0: a9 f0        	lda	#$f0
     7e2: 92 12        	sta	($12)                   ; 0x2012 <end_block9+0xbca>
     7e4: e6 12        	inc	$12                     ; 0x2012 <end_block9+0xbca>
     7e6: d0 02        	bne	$7ea <main+0x291>
     7e8: e6 13        	inc	$13                     ; 0x2013 <end_block9+0xbcb>
     7ea: ca           	dex
     7eb: e0 ff        	cpx	#$ff
     7ed: d0 ee        	bne	$7dd <main+0x284>
     7ef: 88           	dey
     7f0: 80 eb        	bra	$7dd <main+0x284>
     7f2: 8a           	txa
     7f3: d0 eb        	bne	$7e0 <main+0x287>
     7f5: 80 04        	bra	$7fb <main+0x2a2>
     7f7: a2 03        	ldx	#$3
     7f9: 86 01        	stx	$1                      ; 0x2001 <end_block9+0xbb9>
     7fb: a6 18        	ldx	$18                     ; 0x2018 <end_block9+0xbd0>
     7fd: 86 01        	stx	$1                      ; 0x2001 <end_block9+0xbb9>
     7ff: 64 37        	stz	$37                     ; 0x2037 <end_block9+0xbef>
     801: 9c 14 d0     	stz	$d014                   ; 0xd014 <end_block9+0xbbcc>
     804: 9c 15 d0     	stz	$d015                   ; 0xd015 <end_block9+0xbbcd>
     807: 64 38        	stz	$38                     ; 0x2038 <end_block9+0xbf0>
     809: 9c 16 d0     	stz	$d016                   ; 0xd016 <end_block9+0xbbce>
     80c: 9c 17 d0     	stz	$d017                   ; 0xd017 <end_block9+0xbbcf>
     80f: a2 40        	ldx	#$40
     811: 8e 00 de     	stx	$de00                   ; 0xde00 <end_block9+0xc9b8>
     814: a2 01        	ldx	#$1
     816: 8e 01 de     	stx	$de01                   ; 0xde01 <end_block9+0xc9b9>
     819: a2 f0        	ldx	#$f0
     81b: 8e 02 de     	stx	$de02                   ; 0xde02 <end_block9+0xc9ba>
     81e: 9c 03 de     	stz	$de03                   ; 0xde03 <end_block9+0xc9bb>
     821: ae 10 de     	ldx	$de10                   ; 0xde10 <end_block9+0xc9c8>
     824: 86 17        	stx	$17                     ; 0x2017 <end_block9+0xbcf>
     826: ae 11 de     	ldx	$de11                   ; 0xde11 <end_block9+0xc9c9>
     829: 86 12        	stx	$12                     ; 0x2012 <end_block9+0xbca>
     82b: ae 12 de     	ldx	$de12                   ; 0xde12 <end_block9+0xc9ca>
     82e: 86 13        	stx	$13                     ; 0x2013 <end_block9+0xbcb>
     830: ae 13 de     	ldx	$de13                   ; 0xde13 <end_block9+0xc9cb>
     833: 86 14        	stx	$14                     ; 0x2014 <end_block9+0xbcc>
     835: a4 12        	ldy	$12                     ; 0x2012 <end_block9+0xbca>
     837: 84 15        	sty	$15                     ; 0x2015 <end_block9+0xbcd>
     839: 06 15        	asl	$15                     ; 0x2015 <end_block9+0xbcd>
     83b: a5 13        	lda	$13                     ; 0x2013 <end_block9+0xbcb>
     83d: 2a           	rol
     83e: 86 16        	stx	$16                     ; 0x2016 <end_block9+0xbce>
     840: 26 16        	rol	$16                     ; 0x2016 <end_block9+0xbce>
     842: 06 15        	asl	$15                     ; 0x2015 <end_block9+0xbcd>
     844: 2a           	rol
     845: 26 16        	rol	$16                     ; 0x2016 <end_block9+0xbce>
     847: 06 15        	asl	$15                     ; 0x2015 <end_block9+0xbcd>
     849: 2a           	rol
     84a: 26 16        	rol	$16                     ; 0x2016 <end_block9+0xbce>
     84c: 85 15        	sta	$15                     ; 0x2015 <end_block9+0xbcd>
     84e: 8d 00 de     	sta	$de00                   ; 0xde00 <end_block9+0xc9b8>
     851: a5 16        	lda	$16                     ; 0x2016 <end_block9+0xbce>
     853: 8d 01 de     	sta	$de01                   ; 0xde01 <end_block9+0xc9b9>
     856: 9c 02 de     	stz	$de02                   ; 0xde02 <end_block9+0xc9ba>
     859: a2 20        	ldx	#$20
     85b: 8e 03 de     	stx	$de03                   ; 0xde03 <end_block9+0xc9bb>
     85e: ae 10 de     	ldx	$de10                   ; 0xde10 <end_block9+0xc9c8>
     861: 86 16        	stx	$16                     ; 0x2016 <end_block9+0xbce>
     863: ae 11 de     	ldx	$de11                   ; 0xde11 <end_block9+0xc9c9>
     866: 86 18        	stx	$18                     ; 0x2018 <end_block9+0xbd0>
     868: ac 12 de     	ldy	$de12                   ; 0xde12 <end_block9+0xc9ca>
     86b: ae 13 de     	ldx	$de13                   ; 0xde13 <end_block9+0xc9cb>
     86e: e4 14        	cpx	$14                     ; 0x2014 <end_block9+0xbcc>
     870: d0 14        	bne	$886 <main+0x32d>
     872: c4 13        	cpy	$13                     ; 0x2013 <end_block9+0xbcb>
     874: d0 10        	bne	$886 <main+0x32d>
     876: a6 18        	ldx	$18                     ; 0x2018 <end_block9+0xbd0>
     878: e4 12        	cpx	$12                     ; 0x2012 <end_block9+0xbca>
     87a: d0 0a        	bne	$886 <main+0x32d>
     87c: a6 16        	ldx	$16                     ; 0x2016 <end_block9+0xbce>
     87e: e4 17        	cpx	$17                     ; 0x2017 <end_block9+0xbcf>
     880: d0 04        	bne	$886 <main+0x32d>
     882: a6 15        	ldx	$15                     ; 0x2015 <end_block9+0xbcd>
     884: 80 06        	bra	$88c <main+0x333>
     886: a6 15        	ldx	$15                     ; 0x2015 <end_block9+0xbcd>
     888: e8           	inx
     889: d0 01        	bne	$88c <main+0x333>
     88b: 1a           	inc
     88c: 8e 00 de     	stx	$de00                   ; 0xde00 <end_block9+0xc9b8>
     88f: 8d 01 de     	sta	$de01                   ; 0xde01 <end_block9+0xc9b9>
     892: 9c 02 de     	stz	$de02                   ; 0xde02 <end_block9+0xc9ba>
     895: a2 20        	ldx	#$20
     897: 8e 03 de     	stx	$de03                   ; 0xde03 <end_block9+0xc9bb>
     89a: ae 10 de     	ldx	$de10                   ; 0xde10 <end_block9+0xc9c8>
     89d: 86 12        	stx	$12                     ; 0x2012 <end_block9+0xbca>
     89f: ae 11 de     	ldx	$de11                   ; 0xde11 <end_block9+0xc9c9>
     8a2: 86 13        	stx	$13                     ; 0x2013 <end_block9+0xbcb>
     8a4: ae 12 de     	ldx	$de12                   ; 0xde12 <end_block9+0xc9ca>
     8a7: 86 14        	stx	$14                     ; 0x2014 <end_block9+0xbcc>
     8a9: a9 00        	lda	#$0
     8ab: 38           	sec
     8ac: e5 12        	sbc	$12                     ; 0x2012 <end_block9+0xbca>
     8ae: a8           	tay
     8af: a9 00        	lda	#$0
     8b1: e5 13        	sbc	$13                     ; 0x2013 <end_block9+0xbcb>
     8b3: 85 15        	sta	$15                     ; 0x2015 <end_block9+0xbcd>
     8b5: a9 08        	lda	#$8
     8b7: e5 14        	sbc	$14                     ; 0x2014 <end_block9+0xbcc>
     8b9: aa           	tax
     8ba: 38           	sec
     8bb: 98           	tya
     8bc: 84 17        	sty	$17                     ; 0x2017 <end_block9+0xbcf>
     8be: e5 12        	sbc	$12                     ; 0x2012 <end_block9+0xbca>
     8c0: 85 16        	sta	$16                     ; 0x2016 <end_block9+0xbce>
     8c2: a5 15        	lda	$15                     ; 0x2015 <end_block9+0xbcd>
     8c4: e5 13        	sbc	$13                     ; 0x2013 <end_block9+0xbcb>
     8c6: 85 18        	sta	$18                     ; 0x2018 <end_block9+0xbd0>
     8c8: 8a           	txa
     8c9: 86 19        	stx	$19                     ; 0x2019 <end_block9+0xbd1>
     8cb: e5 14        	sbc	$14                     ; 0x2014 <end_block9+0xbcc>
     8cd: a8           	tay
     8ce: 38           	sec
     8cf: a5 16        	lda	$16                     ; 0x2016 <end_block9+0xbce>
     8d1: e5 12        	sbc	$12                     ; 0x2012 <end_block9+0xbca>
     8d3: 85 12        	sta	$12                     ; 0x2012 <end_block9+0xbca>
     8d5: a5 18        	lda	$18                     ; 0x2018 <end_block9+0xbd0>
     8d7: e5 13        	sbc	$13                     ; 0x2013 <end_block9+0xbcb>
     8d9: 85 13        	sta	$13                     ; 0x2013 <end_block9+0xbcb>
     8db: 98           	tya
     8dc: e5 14        	sbc	$14                     ; 0x2014 <end_block9+0xbcc>
     8de: ae 13 de     	ldx	$de13                   ; 0xde13 <end_block9+0xc9cb>
     8e1: a6 17        	ldx	$17                     ; 0x2017 <end_block9+0xbcf>
     8e3: 8e 01 d1     	stx	$d101                   ; 0xd101 <end_block9+0xbcb9>
     8e6: a6 15        	ldx	$15                     ; 0x2015 <end_block9+0xbcd>
     8e8: 8e 02 d1     	stx	$d102                   ; 0xd102 <end_block9+0xbcba>
     8eb: a6 19        	ldx	$19                     ; 0x2019 <end_block9+0xbd1>
     8ed: 8e 03 d1     	stx	$d103                   ; 0xd103 <end_block9+0xbcbb>
     8f0: a6 16        	ldx	$16                     ; 0x2016 <end_block9+0xbce>
     8f2: 8e 09 d1     	stx	$d109                   ; 0xd109 <end_block9+0xbcc1>
     8f5: a6 18        	ldx	$18                     ; 0x2018 <end_block9+0xbd0>
     8f7: 8e 0a d1     	stx	$d10a                   ; 0xd10a <end_block9+0xbcc2>
     8fa: 8c 0b d1     	sty	$d10b                   ; 0xd10b <end_block9+0xbcc3>
     8fd: a6 12        	ldx	$12                     ; 0x2012 <end_block9+0xbca>
     8ff: 8e 11 d1     	stx	$d111                   ; 0xd111 <end_block9+0xbcc9>
     902: a6 13        	ldx	$13                     ; 0x2013 <end_block9+0xbcb>
     904: 8e 12 d1     	stx	$d112                   ; 0xd112 <end_block9+0xbcca>
     907: 8d 13 d1     	sta	$d113                   ; 0xd113 <end_block9+0xbccb>
     90a: 9c 00 d1     	stz	$d100                   ; 0xd100 <end_block9+0xbcb8>
     90d: 9c 08 d1     	stz	$d108                   ; 0xd108 <end_block9+0xbcc0>
     910: 9c 10 d1     	stz	$d110                   ; 0xd110 <end_block9+0xbcc8>
     913: a2 10        	ldx	#$10
     915: 8e 00 d2     	stx	$d200                   ; 0xd200 <end_block9+0xbdb8>
     918: 8e 0c d2     	stx	$d20c                   ; 0xd20c <end_block9+0xbdc4>
     91b: 8e 18 d2     	stx	$d218                   ; 0xd218 <end_block9+0xbdd0>
     91e: a0 d9        	ldy	#$d9
     920: a2 40        	ldx	#$40
     922: 64 12        	stz	$12                     ; 0x2012 <end_block9+0xbca>
     924: 84 13        	sty	$13                     ; 0x2013 <end_block9+0xbcb>
     926: a9 00        	lda	#$0
     928: 92 12        	sta	($12)                   ; 0x2012 <end_block9+0xbca>
     92a: ca           	dex
     92b: 18           	clc
     92c: a5 12        	lda	$12                     ; 0x2012 <end_block9+0xbca>
     92e: 69 08        	adc	#$8
     930: 85 12        	sta	$12                     ; 0x2012 <end_block9+0xbca>
     932: 98           	tya
     933: 69 00        	adc	#$0
     935: a8           	tay
     936: 8a           	txa
     937: d0 eb        	bne	$924 <main+0x3cb>
     939: 18           	clc
     93a: a5 10        	lda	$10                     ; 0x2010 <end_block9+0xbc8>
     93c: 69 0d        	adc	#$d
     93e: 85 12        	sta	$12                     ; 0x2012 <end_block9+0xbca>
     940: a5 11        	lda	$11                     ; 0x2011 <end_block9+0xbc9>
     942: 69 00        	adc	#$0
     944: 85 13        	sta	$13                     ; 0x2013 <end_block9+0xbcb>
     946: a6 12        	ldx	$12                     ; 0x2012 <end_block9+0xbca>
     948: 86 fb        	stx	$fb                     ; 0x20fb <end_block9+0xcb3>
     94a: 85 fc        	sta	$fc                     ; 0x20fc <end_block9+0xcb4>
     94c: a2 08        	ldx	#$8
     94e: 86 fd        	stx	$fd                     ; 0x20fd <end_block9+0xcb5>
     950: 18           	clc
     951: a5 10        	lda	$10                     ; 0x2010 <end_block9+0xbc8>
     953: 69 15        	adc	#$15
     955: 85 24        	sta	$24                     ; 0x2024 <end_block9+0xbdc>
     957: a5 11        	lda	$11                     ; 0x2011 <end_block9+0xbc9>
     959: 69 00        	adc	#$0
     95b: 85 25        	sta	$25                     ; 0x2025 <end_block9+0xbdd>
     95d: a2 41        	ldx	#$41
     95f: 86 14        	stx	$14                     ; 0x2014 <end_block9+0xbcc>
     961: a2 14        	ldx	#$14
     963: 86 15        	stx	$15                     ; 0x2015 <end_block9+0xbcd>
     965: a0 06        	ldy	#$6
     967: 20 dc ff     	jsr	$ffdc <end_block9+0xeb94>
     96a: 92 24        	sta	($24)                   ; 0x2024 <end_block9+0xbdc>
     96c: a9 00        	lda	#$0
     96e: 6a           	ror
     96f: 85 14        	sta	$14                     ; 0x2014 <end_block9+0xbcc>
     971: b1 12        	lda	($12),y                 ; 0x2012 <end_block9+0xbca>
     973: 85 14        	sta	$14                     ; 0x2014 <end_block9+0xbcc>
     975: c8           	iny
     976: b1 12        	lda	($12),y                 ; 0x2012 <end_block9+0xbca>
     978: a6 14        	ldx	$14                     ; 0x2014 <end_block9+0xbcc>
     97a: 8e 00 de     	stx	$de00                   ; 0xde00 <end_block9+0xc9b8>
     97d: 9c 01 de     	stz	$de01                   ; 0xde01 <end_block9+0xc9b9>
     980: 8d 02 de     	sta	$de02                   ; 0xde02 <end_block9+0xc9ba>
     983: 9c 03 de     	stz	$de03                   ; 0xde03 <end_block9+0xc9bb>
     986: ae 10 de     	ldx	$de10                   ; 0xde10 <end_block9+0xc9c8>
     989: ac 11 de     	ldy	$de11                   ; 0xde11 <end_block9+0xc9c9>
     98c: ad 12 de     	lda	$de12                   ; 0xde12 <end_block9+0xc9ca>
     98f: ad 13 de     	lda	$de13                   ; 0xde13 <end_block9+0xc9cb>
     992: 8e a4 d6     	stx	$d6a4                   ; 0xd6a4 <end_block9+0xc25c>
     995: 8c a5 d6     	sty	$d6a5                   ; 0xd6a5 <end_block9+0xc25d>
     998: a2 03        	ldx	#$3
     99a: 8e a6 d6     	stx	$d6a6                   ; 0xd6a6 <end_block9+0xc25e>
     99d: ad 30 14     	lda	$1430                   ; 0x1430 <textColors+0x30>
     9a0: 92 12        	sta	($12)                   ; 0x2012 <end_block9+0xbca>
     9a2: ad 31 14     	lda	$1431                   ; 0x1431 <textColors+0x31>
     9a5: a0 01        	ldy	#$1
     9a7: 91 12        	sta	($12),y                 ; 0x2012 <end_block9+0xbca>
     9a9: ad 32 14     	lda	$1432                   ; 0x1432 <textColors+0x32>
     9ac: c8           	iny
     9ad: 91 12        	sta	($12),y                 ; 0x2012 <end_block9+0xbca>
     9af: ad 33 14     	lda	$1433                   ; 0x1433 <textColors+0x33>
     9b2: c8           	iny
     9b3: 91 12        	sta	($12),y                 ; 0x2012 <end_block9+0xbca>
     9b5: a2 3f        	ldx	#$3f
     9b7: 86 12        	stx	$12                     ; 0x2012 <end_block9+0xbca>
     9b9: a2 14        	ldx	#$14
     9bb: 86 13        	stx	$13                     ; 0x2013 <end_block9+0xbcb>
     9bd: a2 00        	ldx	#$0
     9bf: 80 0a        	bra	$9cb <main+0x472>
     9c1: a0 02        	ldy	#$2
     9c3: e6 12        	inc	$12                     ; 0x2012 <end_block9+0xbca>
     9c5: d0 02        	bne	$9c9 <main+0x470>
     9c7: e6 13        	inc	$13                     ; 0x2013 <end_block9+0xbcb>
     9c9: 5a           	phy
     9ca: fa           	plx
     9cb: b2 12        	lda	($12)                   ; 0x2012 <end_block9+0xbca>
     9cd: c9 61        	cmp	#$61
     9cf: f0 f0        	beq	$9c1 <main+0x468>
     9d1: a0 01        	ldy	#$1
     9d3: c9 77        	cmp	#$77
     9d5: f0 ec        	beq	$9c3 <main+0x46a>
     9d7: a8           	tay
     9d8: f0 04        	beq	$9de <main+0x485>
     9da: da           	phx
     9db: 7a           	ply
     9dc: 80 e5        	bra	$9c3 <main+0x46a>
     9de: a0 34        	ldy	#$34
     9e0: a9 14        	lda	#$14
     9e2: 84 fb        	sty	$fb                     ; 0x20fb <end_block9+0xcb3>
     9e4: 85 fc        	sta	$fc                     ; 0x20fc <end_block9+0xcb4>
     9e6: a0 0a        	ldy	#$a
     9e8: 84 fd        	sty	$fd                     ; 0x20fd <end_block9+0xcb5>
     9ea: 64 f3        	stz	$f3                     ; 0x20f3 <end_block9+0xcab>
     9ec: 86 f5        	stx	$f5                     ; 0x20f5 <end_block9+0xcad>
     9ee: a2 41        	ldx	#$41
     9f0: 86 2a        	stx	$2a                     ; 0x202a <end_block9+0xbe2>
     9f2: a2 14        	ldx	#$14
     9f4: 86 2b        	stx	$2b                     ; 0x202b <end_block9+0xbe3>
     9f6: 20 5c ff     	jsr	$ff5c <end_block9+0xeb14>
     9f9: 92 24        	sta	($24)                   ; 0x2024 <end_block9+0xbdc>
     9fb: a9 00        	lda	#$0
     9fd: 6a           	ror
     9fe: 85 2a        	sta	$2a                     ; 0x202a <end_block9+0xbe2>
     a00: ae 41 14     	ldx	$1441                   ; 0x1441 <kernelError>
     a03: a0 00        	ldy	#$0
     a05: 84 28        	sty	$28                     ; 0x2028 <end_block9+0xbe0>
     a07: a0 00        	ldy	#$0
     a09: 84 29        	sty	$29                     ; 0x2029 <end_block9+0xbe1>
     a0b: 8a           	txa
     a0c: d0 03        	bne	$a11 <main+0x4b8>
     a0e: 4c 30 0c     	jmp	$c30 <main+0x6d7>
     a11: a2 03        	ldx	#$3
     a13: 8a           	txa
     a14: a0 0b        	ldy	#$b
     a16: 91 10        	sta	($10),y                 ; 0x2010 <end_block9+0xbc8>
     a18: 64 2e        	stz	$2e                     ; 0x202e <end_block9+0xbe6>
     a1a: 64 2f        	stz	$2f                     ; 0x202f <end_block9+0xbe7>
     a1c: 64 26        	stz	$26                     ; 0x2026 <end_block9+0xbde>
     a1e: a0 0b        	ldy	#$b
     a20: b1 10        	lda	($10),y                 ; 0x2010 <end_block9+0xbc8>
     a22: c9 ff        	cmp	#$ff
     a24: a5 2e        	lda	$2e                     ; 0x202e <end_block9+0xbe6>
     a26: e9 00        	sbc	#$0
     a28: 50 02        	bvc	$a2c <main+0x4d3>
     a2a: 49 80        	eor	#$80
     a2c: aa           	tax
     a2d: 30 14        	bmi	$a43 <main+0x4ea>
     a2f: b2 28        	lda	($28)                   ; 0x2028 <end_block9+0xbe0>
     a31: a2 fe        	ldx	#$fe
     a33: 48           	pha
     a34: 8a           	txa
     a35: a0 0c        	ldy	#$c
     a37: 91 10        	sta	($10),y                 ; 0x2010 <end_block9+0xbc8>
     a39: 68           	pla
     a3a: 85 14        	sta	$14                     ; 0x2014 <end_block9+0xbcc>
     a3c: c9 01        	cmp	#$1
     a3e: f0 25        	beq	$a65 <main+0x50c>
     a40: 4c b6 0a     	jmp	$ab6 <main+0x55d>
     a43: b2 28        	lda	($28)                   ; 0x2028 <end_block9+0xbe0>
     a45: 48           	pha
     a46: b1 10        	lda	($10),y                 ; 0x2010 <end_block9+0xbc8>
     a48: a0 0c        	ldy	#$c
     a4a: 91 10        	sta	($10),y                 ; 0x2010 <end_block9+0xbc8>
     a4c: 68           	pla
     a4d: 85 14        	sta	$14                     ; 0x2014 <end_block9+0xbcc>
     a4f: c9 01        	cmp	#$1
     a51: f0 03        	beq	$a56 <main+0x4fd>
     a53: 4c b6 0a     	jmp	$ab6 <main+0x55d>
     a56: a0 0b        	ldy	#$b
     a58: b1 10        	lda	($10),y                 ; 0x2010 <end_block9+0xbc8>
     a5a: c8           	iny
     a5b: 91 10        	sta	($10),y                 ; 0x2010 <end_block9+0xbc8>
     a5d: 88           	dey
     a5e: b1 10        	lda	($10),y                 ; 0x2010 <end_block9+0xbc8>
     a60: d0 03        	bne	$a65 <main+0x50c>
     a62: 4c 32 0b     	jmp	$b32 <main+0x5d9>
     a65: a5 24        	lda	$24                     ; 0x2024 <end_block9+0xbdc>
     a67: a0 09        	ldy	#$9
     a69: 91 10        	sta	($10),y                 ; 0x2010 <end_block9+0xbc8>
     a6b: a5 25        	lda	$25                     ; 0x2025 <end_block9+0xbdd>
     a6d: c8           	iny
     a6e: 91 10        	sta	($10),y                 ; 0x2010 <end_block9+0xbc8>
     a70: 18           	clc
     a71: a5 10        	lda	$10                     ; 0x2010 <end_block9+0xbc8>
     a73: 69 0d        	adc	#$d
     a75: 85 12        	sta	$12                     ; 0x2012 <end_block9+0xbca>
     a77: a5 11        	lda	$11                     ; 0x2011 <end_block9+0xbc9>
     a79: 69 00        	adc	#$0
     a7b: 85 13        	sta	$13                     ; 0x2013 <end_block9+0xbcb>
     a7d: a5 2f        	lda	$2f                     ; 0x202f <end_block9+0xbe7>
     a7f: 18           	clc
     a80: 65 12        	adc	$12                     ; 0x2012 <end_block9+0xbca>
     a82: 85 2c        	sta	$2c                     ; 0x202c <end_block9+0xbe4>
     a84: a5 26        	lda	$26                     ; 0x2026 <end_block9+0xbde>
     a86: 65 13        	adc	$13                     ; 0x2013 <end_block9+0xbcb>
     a88: 85 2d        	sta	$2d                     ; 0x202d <end_block9+0xbe5>
     a8a: a2 00        	ldx	#$0
     a8c: da           	phx
     a8d: 7a           	ply
     a8e: b1 2c        	lda	($2c),y                 ; 0x202c <end_block9+0xbe4>
     a90: 86 25        	stx	$25                     ; 0x2025 <end_block9+0xbdd>
     a92: 85 39        	sta	$39                     ; 0x2039 <end_block9+0xbf1>
     a94: 20 1d 10     	jsr	$101d <textPrint>
     a97: a0 0c        	ldy	#$c
     a99: b1 10        	lda	($10),y                 ; 0x2010 <end_block9+0xbc8>
     a9b: e6 25        	inc	$25                     ; 0x2025 <end_block9+0xbdd>
     a9d: a6 25        	ldx	$25                     ; 0x2025 <end_block9+0xbdd>
     a9f: c5 25        	cmp	$25                     ; 0x2025 <end_block9+0xbdd>
     aa1: d0 e9        	bne	$a8c <main+0x533>
     aa3: a0 0c        	ldy	#$c
     aa5: b1 10        	lda	($10),y                 ; 0x2010 <end_block9+0xbc8>
     aa7: 85 12        	sta	$12                     ; 0x2012 <end_block9+0xbca>
     aa9: a0 09        	ldy	#$9
     aab: b1 10        	lda	($10),y                 ; 0x2010 <end_block9+0xbc8>
     aad: 85 24        	sta	$24                     ; 0x2024 <end_block9+0xbdc>
     aaf: c8           	iny
     ab0: b1 10        	lda	($10),y                 ; 0x2010 <end_block9+0xbc8>
     ab2: 85 25        	sta	$25                     ; 0x2025 <end_block9+0xbdd>
     ab4: 80 51        	bra	$b07 <main+0x5ae>
     ab6: 18           	clc
     ab7: a5 10        	lda	$10                     ; 0x2010 <end_block9+0xbc8>
     ab9: 69 0d        	adc	#$d
     abb: 85 12        	sta	$12                     ; 0x2012 <end_block9+0xbca>
     abd: a5 11        	lda	$11                     ; 0x2011 <end_block9+0xbc9>
     abf: 69 00        	adc	#$0
     ac1: 85 13        	sta	$13                     ; 0x2013 <end_block9+0xbcb>
     ac3: a5 2f        	lda	$2f                     ; 0x202f <end_block9+0xbe7>
     ac5: 18           	clc
     ac6: 65 12        	adc	$12                     ; 0x2012 <end_block9+0xbca>
     ac8: 85 12        	sta	$12                     ; 0x2012 <end_block9+0xbca>
     aca: a6 14        	ldx	$14                     ; 0x2014 <end_block9+0xbcc>
     acc: a5 26        	lda	$26                     ; 0x2026 <end_block9+0xbde>
     ace: 65 13        	adc	$13                     ; 0x2013 <end_block9+0xbcb>
     ad0: 86 f3        	stx	$f3                     ; 0x20f3 <end_block9+0xcab>
     ad2: a6 12        	ldx	$12                     ; 0x2012 <end_block9+0xbca>
     ad4: 86 fb        	stx	$fb                     ; 0x20fb <end_block9+0xcb3>
     ad6: 85 fc        	sta	$fc                     ; 0x20fc <end_block9+0xcb4>
     ad8: b1 10        	lda	($10),y                 ; 0x2010 <end_block9+0xbc8>
     ada: 85 fd        	sta	$fd                     ; 0x20fd <end_block9+0xcb5>
     adc: 20 64 ff     	jsr	$ff64 <end_block9+0xeb1c>
     adf: 92 24        	sta	($24)                   ; 0x2024 <end_block9+0xbdc>
     ae1: a9 00        	lda	#$0
     ae3: 6a           	ror
     ae4: 85 2a        	sta	$2a                     ; 0x202a <end_block9+0xbe2>
     ae6: ae 41 14     	ldx	$1441                   ; 0x1441 <kernelError>
     ae9: d0 47        	bne	$b32 <main+0x5d9>
     aeb: 64 30        	stz	$30                     ; 0x2030 <end_block9+0xbe8>
     aed: 20 00 ff     	jsr	$ff00 <end_block9+0xeab8>
     af0: 92 24        	sta	($24)                   ; 0x2024 <end_block9+0xbdc>
     af2: a9 00        	lda	#$0
     af4: 6a           	ror
     af5: 85 2a        	sta	$2a                     ; 0x202a <end_block9+0xbe2>
     af7: a6 30        	ldx	$30                     ; 0x2030 <end_block9+0xbe8>
     af9: e0 38        	cpx	#$38
     afb: f0 35        	beq	$b32 <main+0x5d9>
     afd: e0 2e        	cpx	#$2e
     aff: d0 ea        	bne	$aeb <main+0x592>
     b01: a6 36        	ldx	$36                     ; 0x2036 <end_block9+0xbee>
     b03: 86 12        	stx	$12                     ; 0x2012 <end_block9+0xbca>
     b05: f0 2b        	beq	$b32 <main+0x5d9>
     b07: 18           	clc
     b08: a5 2f        	lda	$2f                     ; 0x202f <end_block9+0xbe7>
     b0a: 65 12        	adc	$12                     ; 0x2012 <end_block9+0xbca>
     b0c: 85 2f        	sta	$2f                     ; 0x202f <end_block9+0xbe7>
     b0e: a5 26        	lda	$26                     ; 0x2026 <end_block9+0xbde>
     b10: 69 00        	adc	#$0
     b12: 85 26        	sta	$26                     ; 0x2026 <end_block9+0xbde>
     b14: 38           	sec
     b15: a0 0b        	ldy	#$b
     b17: b1 10        	lda	($10),y                 ; 0x2010 <end_block9+0xbc8>
     b19: e5 12        	sbc	$12                     ; 0x2012 <end_block9+0xbca>
     b1b: aa           	tax
     b1c: a5 2e        	lda	$2e                     ; 0x202e <end_block9+0xbe6>
     b1e: e9 00        	sbc	#$0
     b20: 48           	pha
     b21: 8a           	txa
     b22: 91 10        	sta	($10),y                 ; 0x2010 <end_block9+0xbc8>
     b24: 68           	pla
     b25: 85 2e        	sta	$2e                     ; 0x202e <end_block9+0xbe6>
     b27: f0 03        	beq	$b2c <main+0x5d3>
     b29: 4c 1e 0a     	jmp	$a1e <main+0x4c5>
     b2c: 8a           	txa
     b2d: f0 03        	beq	$b32 <main+0x5d9>
     b2f: 4c 1e 0a     	jmp	$a1e <main+0x4c5>
     b32: b2 28        	lda	($28)                   ; 0x2028 <end_block9+0xbe0>
     b34: 85 f3        	sta	$f3                     ; 0x20f3 <end_block9+0xcab>
     b36: a2 41        	ldx	#$41
     b38: 86 14        	stx	$14                     ; 0x2014 <end_block9+0xbcc>
     b3a: a2 14        	ldx	#$14
     b3c: 86 15        	stx	$15                     ; 0x2015 <end_block9+0xbcd>
     b3e: a5 28        	lda	$28                     ; 0x2028 <end_block9+0xbe0>
     b40: 18           	clc
     b41: 69 fe        	adc	#$fe
     b43: 85 16        	sta	$16                     ; 0x2016 <end_block9+0xbce>
     b45: a5 29        	lda	$29                     ; 0x2029 <end_block9+0xbe1>
     b47: 69 ff        	adc	#$ff
     b49: a6 16        	ldx	$16                     ; 0x2016 <end_block9+0xbce>
     b4b: 86 12        	stx	$12                     ; 0x2012 <end_block9+0xbca>
     b4d: aa           	tax
     b4e: 85 13        	sta	$13                     ; 0x2013 <end_block9+0xbcb>
     b50: 20 68 ff     	jsr	$ff68 <end_block9+0xeb20>
     b53: 92 24        	sta	($24)                   ; 0x2024 <end_block9+0xbdc>
     b55: a9 00        	lda	#$0
     b57: 6a           	ror
     b58: 85 14        	sta	$14                     ; 0x2014 <end_block9+0xbcc>
     b5a: b2 12        	lda	($12)                   ; 0x2012 <end_block9+0xbca>
     b5c: 85 18        	sta	$18                     ; 0x2018 <end_block9+0xbd0>
     b5e: a0 01        	ldy	#$1
     b60: b1 12        	lda	($12),y                 ; 0x2012 <end_block9+0xbca>
     b62: 85 14        	sta	$14                     ; 0x2014 <end_block9+0xbcc>
     b64: a9 fe        	lda	#$fe
     b66: 32 12        	and	($12)                   ; 0x2012 <end_block9+0xbca>
     b68: 85 15        	sta	$15                     ; 0x2015 <end_block9+0xbcd>
     b6a: a4 16        	ldy	$16                     ; 0x2016 <end_block9+0xbce>
     b6c: 84 1a        	sty	$1a                     ; 0x201a <end_block9+0xbd2>
     b6e: a5 16        	lda	$16                     ; 0x2016 <end_block9+0xbce>
     b70: 18           	clc
     b71: 65 15        	adc	$15                     ; 0x2015 <end_block9+0xbcd>
     b73: a8           	tay
     b74: 8a           	txa
     b75: 86 19        	stx	$19                     ; 0x2019 <end_block9+0xbd1>
     b77: 65 14        	adc	$14                     ; 0x2014 <end_block9+0xbcc>
     b79: c5 27        	cmp	$27                     ; 0x2027 <end_block9+0xbdf>
     b7b: d0 18        	bne	$b95 <main+0x63c>
     b7d: 48           	pha
     b7e: 5a           	phy
     b7f: a0 08        	ldy	#$8
     b81: b1 10        	lda	($10),y                 ; 0x2010 <end_block9+0xbc8>
     b83: 7a           	ply
     b84: 85 16        	sta	$16                     ; 0x2016 <end_block9+0xbce>
     b86: 68           	pla
     b87: c4 16        	cpy	$16                     ; 0x2016 <end_block9+0xbce>
     b89: d0 0a        	bne	$b95 <main+0x63c>
     b8b: a2 00        	ldx	#$0
     b8d: 86 16        	stx	$16                     ; 0x2016 <end_block9+0xbce>
     b8f: a2 00        	ldx	#$0
     b91: 86 17        	stx	$17                     ; 0x2017 <end_block9+0xbcf>
     b93: 80 04        	bra	$b99 <main+0x640>
     b95: 84 16        	sty	$16                     ; 0x2016 <end_block9+0xbce>
     b97: 85 17        	sta	$17                     ; 0x2017 <end_block9+0xbcf>
     b99: a5 18        	lda	$18                     ; 0x2018 <end_block9+0xbd0>
     b9b: 29 01        	and	#$1
     b9d: d0 03        	bne	$ba2 <main+0x649>
     b9f: 4c 04 0d     	jmp	$d04 <main+0x7ab>
     ba2: a5 28        	lda	$28                     ; 0x2028 <end_block9+0xbe0>
     ba4: 18           	clc
     ba5: 69 fc        	adc	#$fc
     ba7: 85 12        	sta	$12                     ; 0x2012 <end_block9+0xbca>
     ba9: a5 29        	lda	$29                     ; 0x2029 <end_block9+0xbe1>
     bab: 69 ff        	adc	#$ff
     bad: 85 13        	sta	$13                     ; 0x2013 <end_block9+0xbcb>
     baf: a0 01        	ldy	#$1
     bb1: 38           	sec
     bb2: a9 00        	lda	#$0
     bb4: f2 12        	sbc	($12)                   ; 0x2012 <end_block9+0xbca>
     bb6: 85 18        	sta	$18                     ; 0x2018 <end_block9+0xbd0>
     bb8: a9 00        	lda	#$0
     bba: f1 12        	sbc	($12),y                 ; 0x2012 <end_block9+0xbca>
     bbc: 85 13        	sta	$13                     ; 0x2013 <end_block9+0xbcb>
     bbe: a5 1a        	lda	$1a                     ; 0x201a <end_block9+0xbd2>
     bc0: 18           	clc
     bc1: 65 18        	adc	$18                     ; 0x2018 <end_block9+0xbd0>
     bc3: 85 12        	sta	$12                     ; 0x2012 <end_block9+0xbca>
     bc5: 85 1a        	sta	$1a                     ; 0x201a <end_block9+0xbd2>
     bc7: a5 19        	lda	$19                     ; 0x2019 <end_block9+0xbd1>
     bc9: 65 13        	adc	$13                     ; 0x2013 <end_block9+0xbcb>
     bcb: 85 13        	sta	$13                     ; 0x2013 <end_block9+0xbcb>
     bcd: aa           	tax
     bce: b1 12        	lda	($12),y                 ; 0x2012 <end_block9+0xbca>
     bd0: 85 1b        	sta	$1b                     ; 0x201b <end_block9+0xbd3>
     bd2: a9 fe        	lda	#$fe
     bd4: 32 12        	and	($12)                   ; 0x2012 <end_block9+0xbca>
     bd6: ac 44 14     	ldy	$1444                   ; 0x1444 <_ZN12_GLOBAL__N_19free_sizeE>
     bd9: 85 1d        	sta	$1d                     ; 0x201d <end_block9+0xbd5>
     bdb: 85 18        	sta	$18                     ; 0x2018 <end_block9+0xbd0>
     bdd: 38           	sec
     bde: 98           	tya
     bdf: e5 18        	sbc	$18                     ; 0x2018 <end_block9+0xbd0>
     be1: 85 19        	sta	$19                     ; 0x2019 <end_block9+0xbd1>
     be3: a4 1b        	ldy	$1b                     ; 0x201b <end_block9+0xbd3>
     be5: 84 1c        	sty	$1c                     ; 0x201c <end_block9+0xbd4>
     be7: 84 18        	sty	$18                     ; 0x2018 <end_block9+0xbd0>
     be9: ad 45 14     	lda	$1445                   ; 0x1445 <_ZN12_GLOBAL__N_19free_sizeE+0x1>
     bec: e5 18        	sbc	$18                     ; 0x2018 <end_block9+0xbd0>
     bee: a8           	tay
     bef: 18           	clc
     bf0: a5 19        	lda	$19                     ; 0x2019 <end_block9+0xbd1>
     bf2: 69 02        	adc	#$2
     bf4: 85 18        	sta	$18                     ; 0x2018 <end_block9+0xbd0>
     bf6: 98           	tya
     bf7: 69 00        	adc	#$0
     bf9: a4 18        	ldy	$18                     ; 0x2018 <end_block9+0xbd0>
     bfb: 8c 44 14     	sty	$1444                   ; 0x1444 <_ZN12_GLOBAL__N_19free_sizeE>
     bfe: 8d 45 14     	sta	$1445                   ; 0x1445 <_ZN12_GLOBAL__N_19free_sizeE+0x1>
     c01: a4 1a        	ldy	$1a                     ; 0x201a <end_block9+0xbd2>
     c03: 84 1b        	sty	$1b                     ; 0x201b <end_block9+0xbd3>
     c05: a5 1a        	lda	$1a                     ; 0x201a <end_block9+0xbd2>
     c07: 18           	clc
     c08: 69 02        	adc	#$2
     c0a: 85 18        	sta	$18                     ; 0x2018 <end_block9+0xbd0>
     c0c: 86 1a        	stx	$1a                     ; 0x201a <end_block9+0xbd2>
     c0e: 8a           	txa
     c0f: 69 00        	adc	#$0
     c11: a0 02        	ldy	#$2
     c13: 85 19        	sta	$19                     ; 0x2019 <end_block9+0xbd1>
     c15: b1 12        	lda	($12),y                 ; 0x2012 <end_block9+0xbca>
     c17: aa           	tax
     c18: 88           	dey
     c19: b1 18        	lda	($18),y                 ; 0x2018 <end_block9+0xbd0>
     c1b: 85 1f        	sta	$1f                     ; 0x201f <end_block9+0xbd7>
     c1d: c5 13        	cmp	$13                     ; 0x2013 <end_block9+0xbcb>
     c1f: d0 49        	bne	$c6a <main+0x711>
     c21: e4 12        	cpx	$12                     ; 0x2012 <end_block9+0xbca>
     c23: d0 45        	bne	$c6a <main+0x711>
     c25: a2 00        	ldx	#$0
     c27: 86 18        	stx	$18                     ; 0x2018 <end_block9+0xbd0>
     c29: a2 00        	ldx	#$0
     c2b: 86 19        	stx	$19                     ; 0x2019 <end_block9+0xbd1>
     c2d: 4c ed 0c     	jmp	$ced <main+0x794>
     c30: b2 24        	lda	($24)                   ; 0x2024 <end_block9+0xbdc>
     c32: 85 26        	sta	$26                     ; 0x2026 <end_block9+0xbde>
     c34: 64 30        	stz	$30                     ; 0x2030 <end_block9+0xbe8>
     c36: 20 00 ff     	jsr	$ff00 <end_block9+0xeab8>
     c39: 92 24        	sta	($24)                   ; 0x2024 <end_block9+0xbdc>
     c3b: a9 00        	lda	#$0
     c3d: 6a           	ror
     c3e: 85 2a        	sta	$2a                     ; 0x202a <end_block9+0xbe2>
     c40: a6 30        	ldx	$30                     ; 0x2030 <end_block9+0xbe8>
     c42: e0 28        	cpx	#$28
     c44: d0 03        	bne	$c49 <main+0x6f0>
     c46: 4c 11 0a     	jmp	$a11 <main+0x4b8>
     c49: e0 38        	cpx	#$38
     c4b: d0 03        	bne	$c50 <main+0x6f7>
     c4d: 4c 11 0a     	jmp	$a11 <main+0x4b8>
     c50: e0 2a        	cpx	#$2a
     c52: d0 e0        	bne	$c34 <main+0x6db>
     c54: a9 01        	lda	#$1
     c56: a2 00        	ldx	#$0
     c58: 20 0b 12     	jsr	$120b <malloc>
     c5b: a6 12        	ldx	$12                     ; 0x2012 <end_block9+0xbca>
     c5d: 86 28        	stx	$28                     ; 0x2028 <end_block9+0xbe0>
     c5f: a6 13        	ldx	$13                     ; 0x2013 <end_block9+0xbcb>
     c61: 86 29        	stx	$29                     ; 0x2029 <end_block9+0xbe1>
     c63: a5 26        	lda	$26                     ; 0x2026 <end_block9+0xbde>
     c65: 92 12        	sta	($12)                   ; 0x2012 <end_block9+0xbca>
     c67: 4c 11 0a     	jmp	$a11 <main+0x4b8>
     c6a: 86 1e        	stx	$1e                     ; 0x201e <end_block9+0xbd6>
     c6c: 18           	clc
     c6d: a5 1b        	lda	$1b                     ; 0x201b <end_block9+0xbd3>
     c6f: a6 1b        	ldx	$1b                     ; 0x201b <end_block9+0xbd3>
     c71: 86 22        	stx	$22                     ; 0x2022 <end_block9+0xbda>
     c73: 69 04        	adc	#$4
     c75: 85 18        	sta	$18                     ; 0x2018 <end_block9+0xbd0>
     c77: a6 1a        	ldx	$1a                     ; 0x201a <end_block9+0xbd2>
     c79: 86 23        	stx	$23                     ; 0x2023 <end_block9+0xbdb>
     c7b: a5 1a        	lda	$1a                     ; 0x201a <end_block9+0xbd2>
     c7d: 69 00        	adc	#$0
     c7f: a0 04        	ldy	#$4
     c81: 85 19        	sta	$19                     ; 0x2019 <end_block9+0xbd1>
     c83: b1 12        	lda	($12),y                 ; 0x2012 <end_block9+0xbca>
     c85: 85 26        	sta	$26                     ; 0x2026 <end_block9+0xbde>
     c87: 18           	clc
     c88: 69 02        	adc	#$2
     c8a: 85 1a        	sta	$1a                     ; 0x201a <end_block9+0xbd2>
     c8c: a0 01        	ldy	#$1
     c8e: b1 18        	lda	($18),y                 ; 0x2018 <end_block9+0xbd0>
     c90: aa           	tax
     c91: 69 00        	adc	#$0
     c93: a4 1a        	ldy	$1a                     ; 0x201a <end_block9+0xbd2>
     c95: 84 18        	sty	$18                     ; 0x2018 <end_block9+0xbd0>
     c97: 85 19        	sta	$19                     ; 0x2019 <end_block9+0xbd1>
     c99: a4 26        	ldy	$26                     ; 0x2026 <end_block9+0xbde>
     c9b: 84 1a        	sty	$1a                     ; 0x201a <end_block9+0xbd2>
     c9d: 86 1b        	stx	$1b                     ; 0x201b <end_block9+0xbd3>
     c9f: a0 02        	ldy	#$2
     ca1: a5 1e        	lda	$1e                     ; 0x201e <end_block9+0xbd6>
     ca3: 91 1a        	sta	($1a),y                 ; 0x201a <end_block9+0xbd2>
     ca5: a5 1f        	lda	$1f                     ; 0x201f <end_block9+0xbd7>
     ca7: 88           	dey
     ca8: 91 18        	sta	($18),y                 ; 0x2018 <end_block9+0xbd0>
     caa: 18           	clc
     cab: a5 22        	lda	$22                     ; 0x2022 <end_block9+0xbda>
     cad: 69 02        	adc	#$2
     caf: 85 18        	sta	$18                     ; 0x2018 <end_block9+0xbd0>
     cb1: a5 23        	lda	$23                     ; 0x2023 <end_block9+0xbdb>
     cb3: 69 00        	adc	#$0
     cb5: 85 19        	sta	$19                     ; 0x2019 <end_block9+0xbd1>
     cb7: c8           	iny
     cb8: b1 12        	lda	($12),y                 ; 0x2012 <end_block9+0xbca>
     cba: 85 1a        	sta	$1a                     ; 0x201a <end_block9+0xbd2>
     cbc: 88           	dey
     cbd: b1 18        	lda	($18),y                 ; 0x2018 <end_block9+0xbd0>
     cbf: a4 1a        	ldy	$1a                     ; 0x201a <end_block9+0xbd2>
     cc1: 84 18        	sty	$18                     ; 0x2018 <end_block9+0xbd0>
     cc3: 85 19        	sta	$19                     ; 0x2019 <end_block9+0xbd1>
     cc5: 85 1b        	sta	$1b                     ; 0x201b <end_block9+0xbd3>
     cc7: a0 04        	ldy	#$4
     cc9: a5 26        	lda	$26                     ; 0x2026 <end_block9+0xbde>
     ccb: 91 18        	sta	($18),y                 ; 0x2018 <end_block9+0xbd0>
     ccd: 18           	clc
     cce: a5 1a        	lda	$1a                     ; 0x201a <end_block9+0xbd2>
     cd0: 69 04        	adc	#$4
     cd2: 85 1a        	sta	$1a                     ; 0x201a <end_block9+0xbd2>
     cd4: a5 1b        	lda	$1b                     ; 0x201b <end_block9+0xbd3>
     cd6: 69 00        	adc	#$0
     cd8: 85 1b        	sta	$1b                     ; 0x201b <end_block9+0xbd3>
     cda: 8a           	txa
     cdb: a0 01        	ldy	#$1
     cdd: 91 1a        	sta	($1a),y                 ; 0x201a <end_block9+0xbd2>
     cdf: ae 47 14     	ldx	$1447                   ; 0x1447 <_ZN12_GLOBAL__N_19free_listE+0x1>
     ce2: e4 13        	cpx	$13                     ; 0x2013 <end_block9+0xbcb>
     ce4: d0 11        	bne	$cf7 <main+0x79e>
     ce6: ae 46 14     	ldx	$1446                   ; 0x1446 <_ZN12_GLOBAL__N_19free_listE>
     ce9: e4 12        	cpx	$12                     ; 0x2012 <end_block9+0xbca>
     ceb: d0 0a        	bne	$cf7 <main+0x79e>
     ced: a6 18        	ldx	$18                     ; 0x2018 <end_block9+0xbd0>
     cef: a4 19        	ldy	$19                     ; 0x2019 <end_block9+0xbd1>
     cf1: 8e 46 14     	stx	$1446                   ; 0x1446 <_ZN12_GLOBAL__N_19free_listE>
     cf4: 8c 47 14     	sty	$1447                   ; 0x1447 <_ZN12_GLOBAL__N_19free_listE+0x1>
     cf7: 18           	clc
     cf8: a5 1d        	lda	$1d                     ; 0x201d <end_block9+0xbd5>
     cfa: 65 15        	adc	$15                     ; 0x2015 <end_block9+0xbcd>
     cfc: 85 15        	sta	$15                     ; 0x2015 <end_block9+0xbcd>
     cfe: a5 1c        	lda	$1c                     ; 0x201c <end_block9+0xbd4>
     d00: 65 14        	adc	$14                     ; 0x2014 <end_block9+0xbcc>
     d02: 85 14        	sta	$14                     ; 0x2014 <end_block9+0xbcc>
     d04: a2 00        	ldx	#$0
     d06: 86 18        	stx	$18                     ; 0x2018 <end_block9+0xbd0>
     d08: a2 00        	ldx	#$0
     d0a: 86 19        	stx	$19                     ; 0x2019 <end_block9+0xbd1>
     d0c: a6 17        	ldx	$17                     ; 0x2017 <end_block9+0xbcf>
     d0e: e4 19        	cpx	$19                     ; 0x2019 <end_block9+0xbd1>
     d10: d0 0e        	bne	$d20 <main+0x7c7>
     d12: a6 16        	ldx	$16                     ; 0x2016 <end_block9+0xbce>
     d14: e4 18        	cpx	$18                     ; 0x2018 <end_block9+0xbd0>
     d16: d0 08        	bne	$d20 <main+0x7c7>
     d18: a2 01        	ldx	#$1
     d1a: 8e 43 14     	stx	$1443                   ; 0x1443 <_ZN12_GLOBAL__N_19last_freeE>
     d1d: 4c 52 0e     	jmp	$e52 <main+0x8f9>
     d20: a0 01        	ldy	#$1
     d22: b1 16        	lda	($16),y                 ; 0x2016 <end_block9+0xbce>
     d24: a8           	tay
     d25: a9 fe        	lda	#$fe
     d27: 32 16        	and	($16)                   ; 0x2016 <end_block9+0xbce>
     d29: 18           	clc
     d2a: 85 1d        	sta	$1d                     ; 0x201d <end_block9+0xbd5>
     d2c: 65 16        	adc	$16                     ; 0x2016 <end_block9+0xbce>
     d2e: aa           	tax
     d2f: 98           	tya
     d30: 84 1c        	sty	$1c                     ; 0x201c <end_block9+0xbd4>
     d32: 65 17        	adc	$17                     ; 0x2017 <end_block9+0xbcf>
     d34: c5 27        	cmp	$27                     ; 0x2027 <end_block9+0xbdf>
     d36: d0 15        	bne	$d4d <main+0x7f4>
     d38: 48           	pha
     d39: a0 08        	ldy	#$8
     d3b: b1 10        	lda	($10),y                 ; 0x2010 <end_block9+0xbc8>
     d3d: 85 18        	sta	$18                     ; 0x2018 <end_block9+0xbd0>
     d3f: 68           	pla
     d40: e4 18        	cpx	$18                     ; 0x2018 <end_block9+0xbd0>
     d42: d0 09        	bne	$d4d <main+0x7f4>
     d44: a9 01        	lda	#$1
     d46: 64 18        	stz	$18                     ; 0x2018 <end_block9+0xbd0>
     d48: 2d 43 14     	and	$1443                   ; 0x1443 <_ZN12_GLOBAL__N_19last_freeE>
     d4b: 80 0a        	bra	$d57 <main+0x7fe>
     d4d: 86 18        	stx	$18                     ; 0x2018 <end_block9+0xbd0>
     d4f: 85 19        	sta	$19                     ; 0x2019 <end_block9+0xbd1>
     d51: a9 01        	lda	#$1
     d53: 32 18        	and	($18)                   ; 0x2018 <end_block9+0xbd0>
     d55: 64 18        	stz	$18                     ; 0x2018 <end_block9+0xbd0>
     d57: a6 18        	ldx	$18                     ; 0x2018 <end_block9+0xbd0>
     d59: d0 06        	bne	$d61 <main+0x808>
     d5b: aa           	tax
     d5c: d0 03        	bne	$d61 <main+0x808>
     d5e: 4c 46 0e     	jmp	$e46 <main+0x8ed>
     d61: ad 44 14     	lda	$1444                   ; 0x1444 <_ZN12_GLOBAL__N_19free_sizeE>
     d64: ae 45 14     	ldx	$1445                   ; 0x1445 <_ZN12_GLOBAL__N_19free_sizeE+0x1>
     d67: 86 19        	stx	$19                     ; 0x2019 <end_block9+0xbd1>
     d69: 38           	sec
     d6a: e5 1d        	sbc	$1d                     ; 0x201d <end_block9+0xbd5>
     d6c: aa           	tax
     d6d: a5 19        	lda	$19                     ; 0x2019 <end_block9+0xbd1>
     d6f: e5 1c        	sbc	$1c                     ; 0x201c <end_block9+0xbd4>
     d71: 85 18        	sta	$18                     ; 0x2018 <end_block9+0xbd0>
     d73: 18           	clc
     d74: 8a           	txa
     d75: 69 02        	adc	#$2
     d77: 85 19        	sta	$19                     ; 0x2019 <end_block9+0xbd1>
     d79: a5 18        	lda	$18                     ; 0x2018 <end_block9+0xbd0>
     d7b: 69 00        	adc	#$0
     d7d: a6 19        	ldx	$19                     ; 0x2019 <end_block9+0xbd1>
     d7f: 8e 44 14     	stx	$1444                   ; 0x1444 <_ZN12_GLOBAL__N_19free_sizeE>
     d82: 8d 45 14     	sta	$1445                   ; 0x1445 <_ZN12_GLOBAL__N_19free_sizeE+0x1>
     d85: a5 16        	lda	$16                     ; 0x2016 <end_block9+0xbce>
     d87: 18           	clc
     d88: 69 02        	adc	#$2
     d8a: 85 18        	sta	$18                     ; 0x2018 <end_block9+0xbd0>
     d8c: a5 17        	lda	$17                     ; 0x2017 <end_block9+0xbcf>
     d8e: 69 00        	adc	#$0
     d90: a0 02        	ldy	#$2
     d92: 85 19        	sta	$19                     ; 0x2019 <end_block9+0xbd1>
     d94: b1 16        	lda	($16),y                 ; 0x2016 <end_block9+0xbce>
     d96: aa           	tax
     d97: 88           	dey
     d98: b1 18        	lda	($18),y                 ; 0x2018 <end_block9+0xbd0>
     d9a: 85 1f        	sta	$1f                     ; 0x201f <end_block9+0xbd7>
     d9c: c5 17        	cmp	$17                     ; 0x2017 <end_block9+0xbcf>
     d9e: d0 0f        	bne	$daf <main+0x856>
     da0: e4 16        	cpx	$16                     ; 0x2016 <end_block9+0xbce>
     da2: d0 0b        	bne	$daf <main+0x856>
     da4: a2 00        	ldx	#$0
     da6: 86 18        	stx	$18                     ; 0x2018 <end_block9+0xbd0>
     da8: a2 00        	ldx	#$0
     daa: 86 19        	stx	$19                     ; 0x2019 <end_block9+0xbd1>
     dac: 4c 2e 0e     	jmp	$e2e <main+0x8d5>
     daf: 86 1e        	stx	$1e                     ; 0x201e <end_block9+0xbd6>
     db1: a6 16        	ldx	$16                     ; 0x2016 <end_block9+0xbce>
     db3: a5 16        	lda	$16                     ; 0x2016 <end_block9+0xbce>
     db5: 86 23        	stx	$23                     ; 0x2023 <end_block9+0xbdb>
     db7: 18           	clc
     db8: 69 04        	adc	#$4
     dba: 85 18        	sta	$18                     ; 0x2018 <end_block9+0xbd0>
     dbc: a5 17        	lda	$17                     ; 0x2017 <end_block9+0xbcf>
     dbe: 69 00        	adc	#$0
     dc0: a0 04        	ldy	#$4
     dc2: 85 19        	sta	$19                     ; 0x2019 <end_block9+0xbd1>
     dc4: b1 16        	lda	($16),y                 ; 0x2016 <end_block9+0xbce>
     dc6: 85 26        	sta	$26                     ; 0x2026 <end_block9+0xbde>
     dc8: 18           	clc
     dc9: 69 02        	adc	#$2
     dcb: 85 1a        	sta	$1a                     ; 0x201a <end_block9+0xbd2>
     dcd: a0 01        	ldy	#$1
     dcf: b1 18        	lda	($18),y                 ; 0x2018 <end_block9+0xbd0>
     dd1: aa           	tax
     dd2: 69 00        	adc	#$0
     dd4: a4 1a        	ldy	$1a                     ; 0x201a <end_block9+0xbd2>
     dd6: 84 18        	sty	$18                     ; 0x2018 <end_block9+0xbd0>
     dd8: 85 19        	sta	$19                     ; 0x2019 <end_block9+0xbd1>
     dda: a4 26        	ldy	$26                     ; 0x2026 <end_block9+0xbde>
     ddc: 84 1a        	sty	$1a                     ; 0x201a <end_block9+0xbd2>
     dde: 86 1b        	stx	$1b                     ; 0x201b <end_block9+0xbd3>
     de0: a0 02        	ldy	#$2
     de2: a5 1e        	lda	$1e                     ; 0x201e <end_block9+0xbd6>
     de4: 91 1a        	sta	($1a),y                 ; 0x201a <end_block9+0xbd2>
     de6: a5 1f        	lda	$1f                     ; 0x201f <end_block9+0xbd7>
     de8: 88           	dey
     de9: 91 18        	sta	($18),y                 ; 0x2018 <end_block9+0xbd0>
     deb: 18           	clc
     dec: a5 23        	lda	$23                     ; 0x2023 <end_block9+0xbdb>
     dee: 69 02        	adc	#$2
     df0: 85 18        	sta	$18                     ; 0x2018 <end_block9+0xbd0>
     df2: a5 17        	lda	$17                     ; 0x2017 <end_block9+0xbcf>
     df4: 69 00        	adc	#$0
     df6: 85 19        	sta	$19                     ; 0x2019 <end_block9+0xbd1>
     df8: c8           	iny
     df9: b1 16        	lda	($16),y                 ; 0x2016 <end_block9+0xbce>
     dfb: 85 1a        	sta	$1a                     ; 0x201a <end_block9+0xbd2>
     dfd: 88           	dey
     dfe: b1 18        	lda	($18),y                 ; 0x2018 <end_block9+0xbd0>
     e00: a4 1a        	ldy	$1a                     ; 0x201a <end_block9+0xbd2>
     e02: 84 18        	sty	$18                     ; 0x2018 <end_block9+0xbd0>
     e04: 85 19        	sta	$19                     ; 0x2019 <end_block9+0xbd1>
     e06: 85 1b        	sta	$1b                     ; 0x201b <end_block9+0xbd3>
     e08: a0 04        	ldy	#$4
     e0a: a5 26        	lda	$26                     ; 0x2026 <end_block9+0xbde>
     e0c: 91 18        	sta	($18),y                 ; 0x2018 <end_block9+0xbd0>
     e0e: 18           	clc
     e0f: a5 1a        	lda	$1a                     ; 0x201a <end_block9+0xbd2>
     e11: 69 04        	adc	#$4
     e13: 85 1a        	sta	$1a                     ; 0x201a <end_block9+0xbd2>
     e15: a5 1b        	lda	$1b                     ; 0x201b <end_block9+0xbd3>
     e17: 69 00        	adc	#$0
     e19: 85 1b        	sta	$1b                     ; 0x201b <end_block9+0xbd3>
     e1b: 8a           	txa
     e1c: a0 01        	ldy	#$1
     e1e: 91 1a        	sta	($1a),y                 ; 0x201a <end_block9+0xbd2>
     e20: ae 47 14     	ldx	$1447                   ; 0x1447 <_ZN12_GLOBAL__N_19free_listE+0x1>
     e23: e4 17        	cpx	$17                     ; 0x2017 <end_block9+0xbcf>
     e25: d0 11        	bne	$e38 <main+0x8df>
     e27: ae 46 14     	ldx	$1446                   ; 0x1446 <_ZN12_GLOBAL__N_19free_listE>
     e2a: e4 16        	cpx	$16                     ; 0x2016 <end_block9+0xbce>
     e2c: d0 0a        	bne	$e38 <main+0x8df>
     e2e: a6 18        	ldx	$18                     ; 0x2018 <end_block9+0xbd0>
     e30: a4 19        	ldy	$19                     ; 0x2019 <end_block9+0xbd1>
     e32: 8e 46 14     	stx	$1446                   ; 0x1446 <_ZN12_GLOBAL__N_19free_listE>
     e35: 8c 47 14     	sty	$1447                   ; 0x1447 <_ZN12_GLOBAL__N_19free_listE+0x1>
     e38: 18           	clc
     e39: a5 1d        	lda	$1d                     ; 0x201d <end_block9+0xbd5>
     e3b: 65 15        	adc	$15                     ; 0x2015 <end_block9+0xbcd>
     e3d: 85 15        	sta	$15                     ; 0x2015 <end_block9+0xbcd>
     e3f: a5 1c        	lda	$1c                     ; 0x201c <end_block9+0xbd4>
     e41: 65 14        	adc	$14                     ; 0x2014 <end_block9+0xbcc>
     e43: aa           	tax
     e44: 80 0e        	bra	$e54 <main+0x8fb>
     e46: b2 16        	lda	($16)                   ; 0x2016 <end_block9+0xbce>
     e48: 09 01        	ora	#$1
     e4a: 92 16        	sta	($16)                   ; 0x2016 <end_block9+0xbce>
     e4c: a0 01        	ldy	#$1
     e4e: a5 1c        	lda	$1c                     ; 0x201c <end_block9+0xbd4>
     e50: 91 16        	sta	($16),y                 ; 0x2016 <end_block9+0xbce>
     e52: a6 14        	ldx	$14                     ; 0x2014 <end_block9+0xbcc>
     e54: a9 01        	lda	#$1
     e56: 32 12        	and	($12)                   ; 0x2012 <end_block9+0xbca>
     e58: a4 15        	ldy	$15                     ; 0x2015 <end_block9+0xbcd>
     e5a: 84 16        	sty	$16                     ; 0x2016 <end_block9+0xbce>
     e5c: 05 15        	ora	$15                     ; 0x2015 <end_block9+0xbcd>
     e5e: 92 12        	sta	($12)                   ; 0x2012 <end_block9+0xbca>
     e60: a5 12        	lda	$12                     ; 0x2012 <end_block9+0xbca>
     e62: 18           	clc
     e63: 65 15        	adc	$15                     ; 0x2015 <end_block9+0xbcd>
     e65: a8           	tay
     e66: 8a           	txa
     e67: 65 13        	adc	$13                     ; 0x2013 <end_block9+0xbcb>
     e69: 85 15        	sta	$15                     ; 0x2015 <end_block9+0xbcd>
     e6b: 18           	clc
     e6c: 98           	tya
     e6d: 69 fe        	adc	#$fe
     e6f: 85 14        	sta	$14                     ; 0x2014 <end_block9+0xbcc>
     e71: a5 15        	lda	$15                     ; 0x2015 <end_block9+0xbcd>
     e73: 69 ff        	adc	#$ff
     e75: 85 15        	sta	$15                     ; 0x2015 <end_block9+0xbcd>
     e77: a0 01        	ldy	#$1
     e79: 8a           	txa
     e7a: 91 12        	sta	($12),y                 ; 0x2012 <end_block9+0xbca>
     e7c: a5 16        	lda	$16                     ; 0x2016 <end_block9+0xbce>
     e7e: 92 14        	sta	($14)                   ; 0x2014 <end_block9+0xbcc>
     e80: 8a           	txa
     e81: 91 14        	sta	($14),y                 ; 0x2014 <end_block9+0xbcc>
     e83: b1 12        	lda	($12),y                 ; 0x2012 <end_block9+0xbca>
     e85: 85 14        	sta	$14                     ; 0x2014 <end_block9+0xbcc>
     e87: a9 fe        	lda	#$fe
     e89: 32 12        	and	($12)                   ; 0x2012 <end_block9+0xbca>
     e8b: 18           	clc
     e8c: 6d 44 14     	adc	$1444                   ; 0x1444 <_ZN12_GLOBAL__N_19free_sizeE>
     e8f: aa           	tax
     e90: a5 14        	lda	$14                     ; 0x2014 <end_block9+0xbcc>
     e92: 6d 45 14     	adc	$1445                   ; 0x1445 <_ZN12_GLOBAL__N_19free_sizeE+0x1>
     e95: 85 14        	sta	$14                     ; 0x2014 <end_block9+0xbcc>
     e97: 18           	clc
     e98: 8a           	txa
     e99: 69 fe        	adc	#$fe
     e9b: 85 15        	sta	$15                     ; 0x2015 <end_block9+0xbcd>
     e9d: a5 14        	lda	$14                     ; 0x2014 <end_block9+0xbcc>
     e9f: 69 ff        	adc	#$ff
     ea1: a6 15        	ldx	$15                     ; 0x2015 <end_block9+0xbcd>
     ea3: 8e 44 14     	stx	$1444                   ; 0x1444 <_ZN12_GLOBAL__N_19free_sizeE>
     ea6: 8d 45 14     	sta	$1445                   ; 0x1445 <_ZN12_GLOBAL__N_19free_sizeE+0x1>
     ea9: ad 46 14     	lda	$1446                   ; 0x1446 <_ZN12_GLOBAL__N_19free_listE>
     eac: ac 47 14     	ldy	$1447                   ; 0x1447 <_ZN12_GLOBAL__N_19free_listE+0x1>
     eaf: a2 00        	ldx	#$0
     eb1: 86 14        	stx	$14                     ; 0x2014 <end_block9+0xbcc>
     eb3: a2 00        	ldx	#$0
     eb5: 86 15        	stx	$15                     ; 0x2015 <end_block9+0xbcd>
     eb7: 84 17        	sty	$17                     ; 0x2017 <end_block9+0xbcf>
     eb9: c4 15        	cpy	$15                     ; 0x2015 <end_block9+0xbcd>
     ebb: d0 3e        	bne	$efb <main+0x9a2>
     ebd: c5 14        	cmp	$14                     ; 0x2014 <end_block9+0xbcc>
     ebf: d0 3a        	bne	$efb <main+0x9a2>
     ec1: a0 04        	ldy	#$4
     ec3: 18           	clc
     ec4: a5 12        	lda	$12                     ; 0x2012 <end_block9+0xbca>
     ec6: 69 04        	adc	#$4
     ec8: 85 14        	sta	$14                     ; 0x2014 <end_block9+0xbcc>
     eca: a5 13        	lda	$13                     ; 0x2013 <end_block9+0xbcb>
     ecc: 69 00        	adc	#$0
     ece: 18           	clc
     ecf: 85 15        	sta	$15                     ; 0x2015 <end_block9+0xbcd>
     ed1: a5 12        	lda	$12                     ; 0x2012 <end_block9+0xbca>
     ed3: 91 12        	sta	($12),y                 ; 0x2012 <end_block9+0xbca>
     ed5: a0 02        	ldy	#$2
     ed7: 85 17        	sta	$17                     ; 0x2017 <end_block9+0xbcf>
     ed9: 69 02        	adc	#$2
     edb: 85 16        	sta	$16                     ; 0x2016 <end_block9+0xbce>
     edd: a5 17        	lda	$17                     ; 0x2017 <end_block9+0xbcf>
     edf: 91 12        	sta	($12),y                 ; 0x2012 <end_block9+0xbca>
     ee1: a5 13        	lda	$13                     ; 0x2013 <end_block9+0xbcb>
     ee3: 69 00        	adc	#$0
     ee5: 85 17        	sta	$17                     ; 0x2017 <end_block9+0xbcf>
     ee7: 88           	dey
     ee8: a5 13        	lda	$13                     ; 0x2013 <end_block9+0xbcb>
     eea: 91 14        	sta	($14),y                 ; 0x2014 <end_block9+0xbcc>
     eec: 91 16        	sta	($16),y                 ; 0x2016 <end_block9+0xbce>
     eee: a6 12        	ldx	$12                     ; 0x2012 <end_block9+0xbca>
     ef0: 8e 46 14     	stx	$1446                   ; 0x1446 <_ZN12_GLOBAL__N_19free_listE>
     ef3: a6 13        	ldx	$13                     ; 0x2013 <end_block9+0xbcb>
     ef5: 8e 47 14     	stx	$1447                   ; 0x1447 <_ZN12_GLOBAL__N_19free_listE+0x1>
     ef8: 4c 95 0f     	jmp	$f95 <main+0xa3c>
     efb: a6 12        	ldx	$12                     ; 0x2012 <end_block9+0xbca>
     efd: 18           	clc
     efe: a8           	tay
     eff: a5 12        	lda	$12                     ; 0x2012 <end_block9+0xbca>
     f01: 69 02        	adc	#$2
     f03: 85 14        	sta	$14                     ; 0x2014 <end_block9+0xbcc>
     f05: a5 13        	lda	$13                     ; 0x2013 <end_block9+0xbcb>
     f07: 85 1c        	sta	$1c                     ; 0x201c <end_block9+0xbd4>
     f09: a5 13        	lda	$13                     ; 0x2013 <end_block9+0xbcb>
     f0b: 69 00        	adc	#$0
     f0d: 84 16        	sty	$16                     ; 0x2016 <end_block9+0xbce>
     f0f: 84 18        	sty	$18                     ; 0x2018 <end_block9+0xbd0>
     f11: a4 17        	ldy	$17                     ; 0x2017 <end_block9+0xbcf>
     f13: 84 19        	sty	$19                     ; 0x2019 <end_block9+0xbd1>
     f15: 85 15        	sta	$15                     ; 0x2015 <end_block9+0xbcd>
     f17: a0 02        	ldy	#$2
     f19: a5 18        	lda	$18                     ; 0x2018 <end_block9+0xbd0>
     f1b: 91 12        	sta	($12),y                 ; 0x2012 <end_block9+0xbca>
     f1d: 88           	dey
     f1e: a5 19        	lda	$19                     ; 0x2019 <end_block9+0xbd1>
     f20: 91 14        	sta	($14),y                 ; 0x2014 <end_block9+0xbcc>
     f22: 18           	clc
     f23: a5 18        	lda	$18                     ; 0x2018 <end_block9+0xbd0>
     f25: 69 04        	adc	#$4
     f27: 85 18        	sta	$18                     ; 0x2018 <end_block9+0xbd0>
     f29: a5 19        	lda	$19                     ; 0x2019 <end_block9+0xbd1>
     f2b: 69 00        	adc	#$0
     f2d: 85 19        	sta	$19                     ; 0x2019 <end_block9+0xbd1>
     f2f: 18           	clc
     f30: a5 12        	lda	$12                     ; 0x2012 <end_block9+0xbca>
     f32: 69 04        	adc	#$4
     f34: 85 1a        	sta	$1a                     ; 0x201a <end_block9+0xbd2>
     f36: a5 13        	lda	$13                     ; 0x2013 <end_block9+0xbcb>
     f38: 69 00        	adc	#$0
     f3a: 85 1b        	sta	$1b                     ; 0x201b <end_block9+0xbd3>
     f3c: a0 04        	ldy	#$4
     f3e: b1 16        	lda	($16),y                 ; 0x2016 <end_block9+0xbce>
     f40: 85 16        	sta	$16                     ; 0x2016 <end_block9+0xbce>
     f42: 85 1d        	sta	$1d                     ; 0x201d <end_block9+0xbd5>
     f44: a0 01        	ldy	#$1
     f46: b1 18        	lda	($18),y                 ; 0x2018 <end_block9+0xbd0>
     f48: 85 17        	sta	$17                     ; 0x2017 <end_block9+0xbcf>
     f4a: 85 19        	sta	$19                     ; 0x2019 <end_block9+0xbd1>
     f4c: a0 04        	ldy	#$4
     f4e: a5 1d        	lda	$1d                     ; 0x201d <end_block9+0xbd5>
     f50: 91 12        	sta	($12),y                 ; 0x2012 <end_block9+0xbca>
     f52: a5 19        	lda	$19                     ; 0x2019 <end_block9+0xbd1>
     f54: a0 01        	ldy	#$1
     f56: 91 1a        	sta	($1a),y                 ; 0x201a <end_block9+0xbd2>
     f58: 18           	clc
     f59: a5 1d        	lda	$1d                     ; 0x201d <end_block9+0xbd5>
     f5b: 69 02        	adc	#$2
     f5d: 85 18        	sta	$18                     ; 0x2018 <end_block9+0xbd0>
     f5f: a5 19        	lda	$19                     ; 0x2019 <end_block9+0xbd1>
     f61: 69 00        	adc	#$0
     f63: 85 19        	sta	$19                     ; 0x2019 <end_block9+0xbd1>
     f65: a5 12        	lda	$12                     ; 0x2012 <end_block9+0xbca>
     f67: c8           	iny
     f68: 91 16        	sta	($16),y                 ; 0x2016 <end_block9+0xbce>
     f6a: a5 13        	lda	$13                     ; 0x2013 <end_block9+0xbcb>
     f6c: 88           	dey
     f6d: 91 18        	sta	($18),y                 ; 0x2018 <end_block9+0xbd0>
     f6f: c8           	iny
     f70: b1 12        	lda	($12),y                 ; 0x2012 <end_block9+0xbca>
     f72: 85 12        	sta	$12                     ; 0x2012 <end_block9+0xbca>
     f74: 85 16        	sta	$16                     ; 0x2016 <end_block9+0xbce>
     f76: 88           	dey
     f77: b1 14        	lda	($14),y                 ; 0x2014 <end_block9+0xbcc>
     f79: 85 13        	sta	$13                     ; 0x2013 <end_block9+0xbcb>
     f7b: 85 14        	sta	$14                     ; 0x2014 <end_block9+0xbcc>
     f7d: 8a           	txa
     f7e: a0 04        	ldy	#$4
     f80: 91 12        	sta	($12),y                 ; 0x2012 <end_block9+0xbca>
     f82: 18           	clc
     f83: a5 16        	lda	$16                     ; 0x2016 <end_block9+0xbce>
     f85: 69 04        	adc	#$4
     f87: 85 12        	sta	$12                     ; 0x2012 <end_block9+0xbca>
     f89: a5 14        	lda	$14                     ; 0x2014 <end_block9+0xbcc>
     f8b: 69 00        	adc	#$0
     f8d: 85 13        	sta	$13                     ; 0x2013 <end_block9+0xbcb>
     f8f: a5 1c        	lda	$1c                     ; 0x201c <end_block9+0xbd4>
     f91: a0 01        	ldy	#$1
     f93: 91 12        	sta	($12),y                 ; 0x2012 <end_block9+0xbca>
     f95: a2 41        	ldx	#$41
     f97: 86 12        	stx	$12                     ; 0x2012 <end_block9+0xbca>
     f99: a2 14        	ldx	#$14
     f9b: 86 13        	stx	$13                     ; 0x2013 <end_block9+0xbcb>
     f9d: 64 30        	stz	$30                     ; 0x2030 <end_block9+0xbe8>
     f9f: 20 00 ff     	jsr	$ff00 <end_block9+0xeab8>
     fa2: 92 24        	sta	($24)                   ; 0x2024 <end_block9+0xbdc>
     fa4: a9 00        	lda	#$0
     fa6: 6a           	ror
     fa7: 85 12        	sta	$12                     ; 0x2012 <end_block9+0xbca>
     fa9: a6 30        	ldx	$30                     ; 0x2030 <end_block9+0xbe8>
     fab: e0 38        	cpx	#$38
     fad: f0 04        	beq	$fb3 <main+0xa5a>
     faf: e0 32        	cpx	#$32
     fb1: d0 ea        	bne	$f9d <main+0xa44>
     fb3: a9 42        	lda	#$42
     fb5: 85 f3        	sta	$f3                     ; 0x20f3 <end_block9+0xcab>
     fb7: 4c 14 ff     	jmp	$ff14 <end_block9+0xeacc>
     fba: 78           	sei
     fbb: a2 07        	ldx	#$7
     fbd: 86 0f        	stx	$f                      ; 0x200f <end_block9+0xbc7>
     fbf: a2 de        	ldx	#$de
     fc1: 8e a2 d6     	stx	$d6a2                   ; 0xd6a2 <end_block9+0xc25a>
     fc4: a2 ad        	ldx	#$ad
     fc6: 8e a3 d6     	stx	$d6a3                   ; 0xd6a3 <end_block9+0xc25b>
     fc9: a2 f0        	ldx	#$f0
     fcb: 8e a0 d6     	stx	$d6a0                   ; 0xd6a0 <end_block9+0xc258>
     fce: 9c a0 d6     	stz	$d6a0                   ; 0xd6a0 <end_block9+0xc258>
     fd1: 6c fc ff     	jmp	($fffc)                 ; 0xfffc <end_block9+0xebb4>
     fd4: a2 00        	ldx	#$0
     fd6: 8a           	txa
     fd7: 85 20        	sta	$20                     ; 0x2020 <end_block9+0xbd8>
     fd9: a8           	tay
     fda: b1 10        	lda	($10),y                 ; 0x2010 <end_block9+0xbc8>
     fdc: 85 2f        	sta	$2f                     ; 0x202f <end_block9+0xbe7>
     fde: c8           	iny
     fdf: b1 10        	lda	($10),y                 ; 0x2010 <end_block9+0xbc8>
     fe1: 85 2e        	sta	$2e                     ; 0x202e <end_block9+0xbe6>
     fe3: c8           	iny
     fe4: b1 10        	lda	($10),y                 ; 0x2010 <end_block9+0xbc8>
     fe6: 85 2d        	sta	$2d                     ; 0x202d <end_block9+0xbe5>
     fe8: c8           	iny
     fe9: b1 10        	lda	($10),y                 ; 0x2010 <end_block9+0xbc8>
     feb: 85 2c        	sta	$2c                     ; 0x202c <end_block9+0xbe4>
     fed: c8           	iny
     fee: b1 10        	lda	($10),y                 ; 0x2010 <end_block9+0xbc8>
     ff0: 85 2b        	sta	$2b                     ; 0x202b <end_block9+0xbe3>
     ff2: c8           	iny
     ff3: b1 10        	lda	($10),y                 ; 0x2010 <end_block9+0xbc8>
     ff5: 85 2a        	sta	$2a                     ; 0x202a <end_block9+0xbe2>
     ff7: c8           	iny
     ff8: b1 10        	lda	($10),y                 ; 0x2010 <end_block9+0xbc8>
     ffa: 85 29        	sta	$29                     ; 0x2029 <end_block9+0xbe1>
     ffc: c8           	iny
     ffd: b1 10        	lda	($10),y                 ; 0x2010 <end_block9+0xbc8>
     fff: 85 28        	sta	$28                     ; 0x2028 <end_block9+0xbe0>
    1001: 7a           	ply
    1002: 84 27        	sty	$27                     ; 0x2027 <end_block9+0xbdf>
    1004: 7a           	ply
    1005: 84 26        	sty	$26                     ; 0x2026 <end_block9+0xbde>
    1007: 7a           	ply
    1008: 84 25        	sty	$25                     ; 0x2025 <end_block9+0xbdd>
    100a: 7a           	ply
    100b: 84 24        	sty	$24                     ; 0x2024 <end_block9+0xbdc>
    100d: 18           	clc
    100e: a5 10        	lda	$10                     ; 0x2010 <end_block9+0xbc8>
    1010: 69 16        	adc	#$16
    1012: 85 10        	sta	$10                     ; 0x2010 <end_block9+0xbc8>
    1014: a5 11        	lda	$11                     ; 0x2011 <end_block9+0xbc9>
    1016: 69 00        	adc	#$0
    1018: 85 11        	sta	$11                     ; 0x2011 <end_block9+0xbc9>
    101a: a5 20        	lda	$20                     ; 0x2020 <end_block9+0xbd8>
    101c: 60           	rts

0000101d <textPrint>:
    101d: a6 01        	ldx	$1                      ; 0x2001 <end_block9+0xbb9>
    101f: 86 22        	stx	$22                     ; 0x2022 <end_block9+0xbda>
    1021: a6 38        	ldx	$38                     ; 0x2038 <end_block9+0xbf0>
    1023: a0 50        	ldy	#$50
    1025: 8c 00 de     	sty	$de00                   ; 0xde00 <end_block9+0xc9b8>
    1028: 9c 01 de     	stz	$de01                   ; 0xde01 <end_block9+0xc9b9>
    102b: 8e 02 de     	stx	$de02                   ; 0xde02 <end_block9+0xc9ba>
    102e: 9c 03 de     	stz	$de03                   ; 0xde03 <end_block9+0xc9bb>
    1031: ae 10 de     	ldx	$de10                   ; 0xde10 <end_block9+0xc9c8>
    1034: ac 11 de     	ldy	$de11                   ; 0xde11 <end_block9+0xc9c9>
    1037: 84 13        	sty	$13                     ; 0x2013 <end_block9+0xbcb>
    1039: ad 12 de     	lda	$de12                   ; 0xde12 <end_block9+0xc9ca>
    103c: ac 13 de     	ldy	$de13                   ; 0xde13 <end_block9+0xc9cb>
    103f: 84 1a        	sty	$1a                     ; 0x201a <end_block9+0xbd2>
    1041: 9c 08 de     	stz	$de08                   ; 0xde08 <end_block9+0xc9c0>
    1044: a0 c0        	ldy	#$c0
    1046: 8c 09 de     	sty	$de09                   ; 0xde09 <end_block9+0xc9c1>
    1049: 9c 0a de     	stz	$de0a                   ; 0xde0a <end_block9+0xc9c2>
    104c: 9c 0b de     	stz	$de0b                   ; 0xde0b <end_block9+0xc9c3>
    104f: 8e 0c de     	stx	$de0c                   ; 0xde0c <end_block9+0xc9c4>
    1052: 64 12        	stz	$12                     ; 0x2012 <end_block9+0xbca>
    1054: a2 00        	ldx	#$0
    1056: 86 14        	stx	$14                     ; 0x2014 <end_block9+0xbcc>
    1058: a2 c0        	ldx	#$c0
    105a: 86 15        	stx	$15                     ; 0x2015 <end_block9+0xbcd>
    105c: a2 11        	ldx	#$11
    105e: 86 16        	stx	$16                     ; 0x2016 <end_block9+0xbce>
    1060: a2 c9        	ldx	#$c9
    1062: 86 17        	stx	$17                     ; 0x2017 <end_block9+0xbcf>
    1064: a2 10        	ldx	#$10
    1066: 86 18        	stx	$18                     ; 0x2018 <end_block9+0xbd0>
    1068: a2 c9        	ldx	#$c9
    106a: 86 19        	stx	$19                     ; 0x2019 <end_block9+0xbd1>
    106c: a6 13        	ldx	$13                     ; 0x2013 <end_block9+0xbcb>
    106e: 8e 0d de     	stx	$de0d                   ; 0xde0d <end_block9+0xc9c5>
    1071: 8d 0e de     	sta	$de0e                   ; 0xde0e <end_block9+0xc9c6>
    1074: a6 1a        	ldx	$1a                     ; 0x201a <end_block9+0xbd2>
    1076: 8e 0f de     	stx	$de0f                   ; 0xde0f <end_block9+0xc9c7>
    1079: ac 18 de     	ldy	$de18                   ; 0xde18 <end_block9+0xc9d0>
    107c: ad 19 de     	lda	$de19                   ; 0xde19 <end_block9+0xc9d1>
    107f: ae 1a de     	ldx	$de1a                   ; 0xde1a <end_block9+0xc9d2>
    1082: ae 1b de     	ldx	$de1b                   ; 0xde1b <end_block9+0xc9d3>
    1085: 84 1a        	sty	$1a                     ; 0x201a <end_block9+0xbd2>
    1087: 85 1b        	sta	$1b                     ; 0x201b <end_block9+0xbd3>
    1089: 64 13        	stz	$13                     ; 0x2013 <end_block9+0xbcb>
    108b: 4c 92 11     	jmp	$1192 <textPrint+0x175>
    108e: 8a           	txa
    108f: f0 15        	beq	$10a6 <textPrint+0x89>
    1091: b1 1a        	lda	($1a),y                 ; 0x201a <end_block9+0xbd2>
    1093: 92 1a        	sta	($1a)                   ; 0x201a <end_block9+0xbd2>
    1095: a9 ff        	lda	#$ff
    1097: c6 1c        	dec	$1c                     ; 0x201c <end_block9+0xbd4>
    1099: c5 1c        	cmp	$1c                     ; 0x201c <end_block9+0xbd4>
    109b: d0 01        	bne	$109e <textPrint+0x81>
    109d: ca           	dex
    109e: e6 1a        	inc	$1a                     ; 0x201a <end_block9+0xbd2>
    10a0: d0 ec        	bne	$108e <textPrint+0x71>
    10a2: e6 1b        	inc	$1b                     ; 0x201b <end_block9+0xbd3>
    10a4: 80 e8        	bra	$108e <textPrint+0x71>
    10a6: a5 1c        	lda	$1c                     ; 0x201c <end_block9+0xbd4>
    10a8: d0 e7        	bne	$1091 <textPrint+0x74>
    10aa: a2 02        	ldx	#$2
    10ac: 86 01        	stx	$1                      ; 0x2001 <end_block9+0xbb9>
    10ae: a2 09        	ldx	#$9
    10b0: a9 10        	lda	#$10
    10b2: 5a           	phy
    10b3: a0 00        	ldy	#$0
    10b5: 84 1a        	sty	$1a                     ; 0x201a <end_block9+0xbd2>
    10b7: a0 c0        	ldy	#$c0
    10b9: 84 1b        	sty	$1b                     ; 0x201b <end_block9+0xbd3>
    10bb: 7a           	ply
    10bc: 85 1c        	sta	$1c                     ; 0x201c <end_block9+0xbd4>
    10be: 80 03        	bra	$10c3 <textPrint+0xa6>
    10c0: 8a           	txa
    10c1: f0 15        	beq	$10d8 <textPrint+0xbb>
    10c3: b1 1a        	lda	($1a),y                 ; 0x201a <end_block9+0xbd2>
    10c5: 92 1a        	sta	($1a)                   ; 0x201a <end_block9+0xbd2>
    10c7: a9 ff        	lda	#$ff
    10c9: c6 1c        	dec	$1c                     ; 0x201c <end_block9+0xbd4>
    10cb: c5 1c        	cmp	$1c                     ; 0x201c <end_block9+0xbd4>
    10cd: d0 01        	bne	$10d0 <textPrint+0xb3>
    10cf: ca           	dex
    10d0: e6 1a        	inc	$1a                     ; 0x201a <end_block9+0xbd2>
    10d2: d0 ec        	bne	$10c0 <textPrint+0xa3>
    10d4: e6 1b        	inc	$1b                     ; 0x201b <end_block9+0xbd3>
    10d6: 80 e8        	bra	$10c0 <textPrint+0xa3>
    10d8: a5 1c        	lda	$1c                     ; 0x201c <end_block9+0xbd4>
    10da: d0 e7        	bne	$10c3 <textPrint+0xa6>
    10dc: a2 02        	ldx	#$2
    10de: 86 01        	stx	$1                      ; 0x2001 <end_block9+0xbb9>
    10e0: e8           	inx
    10e1: 86 01        	stx	$1                      ; 0x2001 <end_block9+0xbb9>
    10e3: a2 50        	ldx	#$50
    10e5: a0 11        	ldy	#$11
    10e7: 84 1a        	sty	$1a                     ; 0x201a <end_block9+0xbd2>
    10e9: a0 c9        	ldy	#$c9
    10eb: 84 1b        	sty	$1b                     ; 0x201b <end_block9+0xbd3>
    10ed: a0 10        	ldy	#$10
    10ef: 84 1c        	sty	$1c                     ; 0x201c <end_block9+0xbd4>
    10f1: a0 c9        	ldy	#$c9
    10f3: 84 1d        	sty	$1d                     ; 0x201d <end_block9+0xbd5>
    10f5: a9 f0        	lda	#$f0
    10f7: a4 1a        	ldy	$1a                     ; 0x201a <end_block9+0xbd2>
    10f9: 84 1e        	sty	$1e                     ; 0x201e <end_block9+0xbd6>
    10fb: a4 1b        	ldy	$1b                     ; 0x201b <end_block9+0xbd3>
    10fd: 84 1f        	sty	$1f                     ; 0x201f <end_block9+0xbd7>
    10ff: 92 1c        	sta	($1c)                   ; 0x201c <end_block9+0xbd4>
    1101: e6 1a        	inc	$1a                     ; 0x201a <end_block9+0xbd2>
    1103: d0 02        	bne	$1107 <textPrint+0xea>
    1105: e6 1b        	inc	$1b                     ; 0x201b <end_block9+0xbd3>
    1107: ca           	dex
    1108: a4 1e        	ldy	$1e                     ; 0x201e <end_block9+0xbd6>
    110a: 84 1c        	sty	$1c                     ; 0x201c <end_block9+0xbd4>
    110c: a4 1f        	ldy	$1f                     ; 0x201f <end_block9+0xbd7>
    110e: 84 1d        	sty	$1d                     ; 0x201d <end_block9+0xbd5>
    1110: e0 00        	cpx	#$0
    1112: d0 e3        	bne	$10f7 <textPrint+0xda>
    1114: a2 02        	ldx	#$2
    1116: 86 01        	stx	$1                      ; 0x2001 <end_block9+0xbb9>
    1118: a2 50        	ldx	#$50
    111a: a0 11        	ldy	#$11
    111c: 84 1a        	sty	$1a                     ; 0x201a <end_block9+0xbd2>
    111e: a0 c9        	ldy	#$c9
    1120: 84 1b        	sty	$1b                     ; 0x201b <end_block9+0xbd3>
    1122: a0 10        	ldy	#$10
    1124: 84 1c        	sty	$1c                     ; 0x201c <end_block9+0xbd4>
    1126: a0 c9        	ldy	#$c9
    1128: 84 1d        	sty	$1d                     ; 0x201d <end_block9+0xbd5>
    112a: a9 20        	lda	#$20
    112c: a4 1a        	ldy	$1a                     ; 0x201a <end_block9+0xbd2>
    112e: 84 1e        	sty	$1e                     ; 0x201e <end_block9+0xbd6>
    1130: a4 1b        	ldy	$1b                     ; 0x201b <end_block9+0xbd3>
    1132: 84 1f        	sty	$1f                     ; 0x201f <end_block9+0xbd7>
    1134: 92 1c        	sta	($1c)                   ; 0x201c <end_block9+0xbd4>
    1136: e6 1a        	inc	$1a                     ; 0x201a <end_block9+0xbd2>
    1138: d0 02        	bne	$113c <textPrint+0x11f>
    113a: e6 1b        	inc	$1b                     ; 0x201b <end_block9+0xbd3>
    113c: ca           	dex
    113d: a4 1e        	ldy	$1e                     ; 0x201e <end_block9+0xbd6>
    113f: 84 1c        	sty	$1c                     ; 0x201c <end_block9+0xbd4>
    1141: a4 1f        	ldy	$1f                     ; 0x201f <end_block9+0xbd7>
    1143: 84 1d        	sty	$1d                     ; 0x201d <end_block9+0xbd5>
    1145: e0 00        	cpx	#$0
    1147: d0 e3        	bne	$112c <textPrint+0x10f>
    1149: c6 38        	dec	$38                     ; 0x2038 <end_block9+0xbf0>
    114b: 9c 08 de     	stz	$de08                   ; 0xde08 <end_block9+0xc9c0>
    114e: a2 c0        	ldx	#$c0
    1150: 8e 09 de     	stx	$de09                   ; 0xde09 <end_block9+0xc9c1>
    1153: 9c 0a de     	stz	$de0a                   ; 0xde0a <end_block9+0xc9c2>
    1156: 9c 0b de     	stz	$de0b                   ; 0xde0b <end_block9+0xc9c3>
    1159: a2 1d        	ldx	#$1d
    115b: 8e 0c de     	stx	$de0c                   ; 0xde0c <end_block9+0xc9c4>
    115e: 9c 0d de     	stz	$de0d                   ; 0xde0d <end_block9+0xc9c5>
    1161: 9c 0e de     	stz	$de0e                   ; 0xde0e <end_block9+0xc9c6>
    1164: 9c 0f de     	stz	$de0f                   ; 0xde0f <end_block9+0xc9c7>
    1167: ae 18 de     	ldx	$de18                   ; 0xde18 <end_block9+0xc9d0>
    116a: ac 19 de     	ldy	$de19                   ; 0xde19 <end_block9+0xc9d1>
    116d: ad 1a de     	lda	$de1a                   ; 0xde1a <end_block9+0xc9d2>
    1170: ad 1b de     	lda	$de1b                   ; 0xde1b <end_block9+0xc9d3>
    1173: 86 1a        	stx	$1a                     ; 0x201a <end_block9+0xbd2>
    1175: 84 1b        	sty	$1b                     ; 0x201b <end_block9+0xbd3>
    1177: e6 12        	inc	$12                     ; 0x2012 <end_block9+0xbca>
    1179: d0 02        	bne	$117d <textPrint+0x160>
    117b: e6 13        	inc	$13                     ; 0x2013 <end_block9+0xbcb>
    117d: 80 13        	bra	$1192 <textPrint+0x175>
    117f: a5 1a        	lda	$1a                     ; 0x201a <end_block9+0xbd2>
    1181: 18           	clc
    1182: 69 50        	adc	#$50
    1184: 85 1a        	sta	$1a                     ; 0x201a <end_block9+0xbd2>
    1186: a5 1b        	lda	$1b                     ; 0x201b <end_block9+0xbd3>
    1188: 69 00        	adc	#$0
    118a: 85 1b        	sta	$1b                     ; 0x201b <end_block9+0xbd3>
    118c: e6 12        	inc	$12                     ; 0x2012 <end_block9+0xbca>
    118e: d0 02        	bne	$1192 <textPrint+0x175>
    1190: e6 13        	inc	$13                     ; 0x2013 <end_block9+0xbcb>
    1192: a9 39        	lda	#$39
    1194: 18           	clc
    1195: 65 12        	adc	$12                     ; 0x2012 <end_block9+0xbca>
    1197: 85 1c        	sta	$1c                     ; 0x201c <end_block9+0xbd4>
    1199: a9 00        	lda	#$0
    119b: 65 13        	adc	$13                     ; 0x2013 <end_block9+0xbcb>
    119d: 85 1d        	sta	$1d                     ; 0x201d <end_block9+0xbd5>
    119f: b2 1c        	lda	($1c)                   ; 0x201c <end_block9+0xbd4>
    11a1: c9 0a        	cmp	#$a
    11a3: f0 23        	beq	$11c8 <textPrint+0x1ab>
    11a5: c9 0d        	cmp	#$d
    11a7: f0 1f        	beq	$11c8 <textPrint+0x1ab>
    11a9: aa           	tax
    11aa: f0 43        	beq	$11ef <textPrint+0x1d2>
    11ac: a2 03        	ldx	#$3
    11ae: 86 01        	stx	$1                      ; 0x2001 <end_block9+0xbb9>
    11b0: a4 37        	ldy	$37                     ; 0x2037 <end_block9+0xbef>
    11b2: a9 f0        	lda	#$f0
    11b4: 91 1a        	sta	($1a),y                 ; 0x201a <end_block9+0xbd2>
    11b6: ca           	dex
    11b7: 86 01        	stx	$1                      ; 0x2001 <end_block9+0xbb9>
    11b9: b2 1c        	lda	($1c)                   ; 0x201c <end_block9+0xbd4>
    11bb: a4 37        	ldy	$37                     ; 0x2037 <end_block9+0xbef>
    11bd: 91 1a        	sta	($1a),y                 ; 0x201a <end_block9+0xbd2>
    11bf: a6 37        	ldx	$37                     ; 0x2037 <end_block9+0xbef>
    11c1: e8           	inx
    11c2: e6 37        	inc	$37                     ; 0x2037 <end_block9+0xbef>
    11c4: e0 50        	cpx	#$50
    11c6: d0 c4        	bne	$118c <textPrint+0x16f>
    11c8: 64 37        	stz	$37                     ; 0x2037 <end_block9+0xbef>
    11ca: a6 38        	ldx	$38                     ; 0x2038 <end_block9+0xbf0>
    11cc: e8           	inx
    11cd: e6 38        	inc	$38                     ; 0x2038 <end_block9+0xbf0>
    11cf: e0 1e        	cpx	#$1e
    11d1: f0 03        	beq	$11d6 <textPrint+0x1b9>
    11d3: 4c 7f 11     	jmp	$117f <textPrint+0x162>
    11d6: a2 03        	ldx	#$3
    11d8: 86 01        	stx	$1                      ; 0x2001 <end_block9+0xbb9>
    11da: a2 09        	ldx	#$9
    11dc: a0 50        	ldy	#$50
    11de: a9 10        	lda	#$10
    11e0: 5a           	phy
    11e1: a0 00        	ldy	#$0
    11e3: 84 1a        	sty	$1a                     ; 0x201a <end_block9+0xbd2>
    11e5: a0 c0        	ldy	#$c0
    11e7: 84 1b        	sty	$1b                     ; 0x201b <end_block9+0xbd3>
    11e9: 7a           	ply
    11ea: 85 1c        	sta	$1c                     ; 0x201c <end_block9+0xbd4>
    11ec: 4c 91 10     	jmp	$1091 <textPrint+0x74>
    11ef: a6 22        	ldx	$22                     ; 0x2022 <end_block9+0xbda>
    11f1: 86 01        	stx	$1                      ; 0x2001 <end_block9+0xbb9>
    11f3: a6 37        	ldx	$37                     ; 0x2037 <end_block9+0xbef>
    11f5: a4 38        	ldy	$38                     ; 0x2038 <end_block9+0xbf0>
    11f7: 8e 14 d0     	stx	$d014                   ; 0xd014 <end_block9+0xbbcc>
    11fa: 9c 15 d0     	stz	$d015                   ; 0xd015 <end_block9+0xbbcd>
    11fd: 84 38        	sty	$38                     ; 0x2038 <end_block9+0xbf0>
    11ff: 8c 16 d0     	sty	$d016                   ; 0xd016 <end_block9+0xbbce>
    1202: 9c 17 d0     	stz	$d017                   ; 0xd017 <end_block9+0xbbcf>
    1205: 60           	rts

00001206 <exit>:
    1206: 20 14 03     	jsr	$314 <_fini>
    1209: 80 fe        	bra	$1209 <exit+0x3>

0000120b <malloc>:
    120b: a8           	tay
    120c: 8a           	txa
    120d: a2 00        	ldx	#$0
    120f: 86 12        	stx	$12                     ; 0x2012 <end_block9+0xbca>
    1211: a2 00        	ldx	#$0
    1213: 86 13        	stx	$13                     ; 0x2013 <end_block9+0xbcb>
    1215: aa           	tax
    1216: d0 07        	bne	$121f <malloc+0x14>
    1218: c0 00        	cpy	#$0
    121a: d0 03        	bne	$121f <malloc+0x14>
    121c: 4c 11 13     	jmp	$1311 <malloc+0x106>
    121f: 84 16        	sty	$16                     ; 0x2016 <end_block9+0xbce>
    1221: aa           	tax
    1222: d0 0e        	bne	$1232 <malloc+0x27>
    1224: a6 16        	ldx	$16                     ; 0x2016 <end_block9+0xbce>
    1226: e0 07        	cpx	#$7
    1228: b0 0c        	bcs	$1236 <malloc+0x2b>
    122a: a2 08        	ldx	#$8
    122c: 86 3c        	stx	$3c                     ; 0x203c <end_block9+0xbf4>
    122e: a9 00        	lda	#$0
    1230: 80 2f        	bra	$1261 <malloc+0x56>
    1232: c9 00        	cmp	#$0
    1234: 90 f4        	bcc	$122a <malloc+0x1f>
    1236: a8           	tay
    1237: a5 16        	lda	$16                     ; 0x2016 <end_block9+0xbce>
    1239: 29 01        	and	#$1
    123b: a2 02        	ldx	#$2
    123d: 64 14        	stz	$14                     ; 0x2014 <end_block9+0xbcc>
    123f: c9 00        	cmp	#$0
    1241: f0 02        	beq	$1245 <malloc+0x3a>
    1243: a2 03        	ldx	#$3
    1245: 86 15        	stx	$15                     ; 0x2015 <end_block9+0xbcd>
    1247: 18           	clc
    1248: a5 16        	lda	$16                     ; 0x2016 <end_block9+0xbce>
    124a: 65 15        	adc	$15                     ; 0x2015 <end_block9+0xbcd>
    124c: aa           	tax
    124d: 98           	tya
    124e: 65 14        	adc	$14                     ; 0x2014 <end_block9+0xbcc>
    1250: 90 03        	bcc	$1255 <malloc+0x4a>
    1252: 4c 11 13     	jmp	$1311 <malloc+0x106>
    1255: 86 3c        	stx	$3c                     ; 0x203c <end_block9+0xbf4>
    1257: a8           	tay
    1258: d0 07        	bne	$1261 <malloc+0x56>
    125a: e0 00        	cpx	#$0
    125c: d0 03        	bne	$1261 <malloc+0x56>
    125e: 4c 11 13     	jmp	$1311 <malloc+0x106>
    1261: 85 3b        	sta	$3b                     ; 0x203b <end_block9+0xbf3>
    1263: ad 42 14     	lda	$1442                   ; 0x1442 <_ZN12_GLOBAL__N_111initializedE>
    1266: 29 01        	and	#$1
    1268: d0 2d        	bne	$1297 <malloc+0x8c>
    126a: a9 00        	lda	#$0
    126c: a2 10        	ldx	#$10
    126e: a0 48        	ldy	#$48
    1270: 84 12        	sty	$12                     ; 0x2012 <end_block9+0xbca>
    1272: a0 14        	ldy	#$14
    1274: 84 13        	sty	$13                     ; 0x2013 <end_block9+0xbcb>
    1276: 20 16 03     	jsr	$316 <_ZN12_GLOBAL__N_19FreeChunk6insertEPvj>
    1279: a2 00        	ldx	#$0
    127b: 86 12        	stx	$12                     ; 0x2012 <end_block9+0xbca>
    127d: a2 00        	ldx	#$0
    127f: 86 13        	stx	$13                     ; 0x2013 <end_block9+0xbcb>
    1281: ae 49 14     	ldx	$1449                   ; 0x1449 <end_block9+0x1>
    1284: a9 fe        	lda	#$fe
    1286: 2d 48 14     	and	$1448                   ; 0x1448 <end_block9>
    1289: 8d 48 14     	sta	$1448                   ; 0x1448 <end_block9>
    128c: 8e 49 14     	stx	$1449                   ; 0x1449 <end_block9+0x1>
    128f: a2 01        	ldx	#$1
    1291: 8e 43 14     	stx	$1443                   ; 0x1443 <_ZN12_GLOBAL__N_19last_freeE>
    1294: 8e 42 14     	stx	$1442                   ; 0x1442 <_ZN12_GLOBAL__N_111initializedE>
    1297: ae 46 14     	ldx	$1446                   ; 0x1446 <_ZN12_GLOBAL__N_19free_listE>
    129a: 86 16        	stx	$16                     ; 0x2016 <end_block9+0xbce>
    129c: ac 47 14     	ldy	$1447                   ; 0x1447 <_ZN12_GLOBAL__N_19free_listE+0x1>
    129f: 84 17        	sty	$17                     ; 0x2017 <end_block9+0xbcf>
    12a1: a9 00        	lda	#$0
    12a3: 85 14        	sta	$14                     ; 0x2014 <end_block9+0xbcc>
    12a5: a9 00        	lda	#$0
    12a7: 85 15        	sta	$15                     ; 0x2015 <end_block9+0xbcd>
    12a9: c4 15        	cpy	$15                     ; 0x2015 <end_block9+0xbcd>
    12ab: d0 07        	bne	$12b4 <malloc+0xa9>
    12ad: e4 14        	cpx	$14                     ; 0x2014 <end_block9+0xbcc>
    12af: d0 03        	bne	$12b4 <malloc+0xa9>
    12b1: 4c 11 13     	jmp	$1311 <malloc+0x106>
    12b4: a2 00        	ldx	#$0
    12b6: a0 10        	ldy	#$10
    12b8: 86 14        	stx	$14                     ; 0x2014 <end_block9+0xbcc>
    12ba: 84 15        	sty	$15                     ; 0x2015 <end_block9+0xbcd>
    12bc: 18           	clc
    12bd: a9 48        	lda	#$48
    12bf: 65 14        	adc	$14                     ; 0x2014 <end_block9+0xbcc>
    12c1: 85 18        	sta	$18                     ; 0x2018 <end_block9+0xbd0>
    12c3: a9 14        	lda	#$14
    12c5: 65 15        	adc	$15                     ; 0x2015 <end_block9+0xbcd>
    12c7: 85 3f        	sta	$3f                     ; 0x203f <end_block9+0xbf7>
    12c9: a0 01        	ldy	#$1
    12cb: a6 3b        	ldx	$3b                     ; 0x203b <end_block9+0xbf3>
    12cd: 86 19        	stx	$19                     ; 0x2019 <end_block9+0xbd1>
    12cf: a6 16        	ldx	$16                     ; 0x2016 <end_block9+0xbce>
    12d1: 86 14        	stx	$14                     ; 0x2014 <end_block9+0xbcc>
    12d3: a6 17        	ldx	$17                     ; 0x2017 <end_block9+0xbcf>
    12d5: 86 15        	stx	$15                     ; 0x2015 <end_block9+0xbcd>
    12d7: b1 14        	lda	($14),y                 ; 0x2014 <end_block9+0xbcc>
    12d9: c5 19        	cmp	$19                     ; 0x2019 <end_block9+0xbd1>
    12db: d0 0e        	bne	$12eb <malloc+0xe0>
    12dd: b2 14        	lda	($14)                   ; 0x2014 <end_block9+0xbcc>
    12df: 29 fe        	and	#$fe
    12e1: a6 3c        	ldx	$3c                     ; 0x203c <end_block9+0xbf4>
    12e3: 86 1a        	stx	$1a                     ; 0x201a <end_block9+0xbd2>
    12e5: c5 1a        	cmp	$1a                     ; 0x201a <end_block9+0xbd2>
    12e7: b0 29        	bcs	$1312 <malloc+0x107>
    12e9: 80 04        	bra	$12ef <malloc+0xe4>
    12eb: c5 19        	cmp	$19                     ; 0x2019 <end_block9+0xbd1>
    12ed: b0 23        	bcs	$1312 <malloc+0x107>
    12ef: a5 14        	lda	$14                     ; 0x2014 <end_block9+0xbcc>
    12f1: 18           	clc
    12f2: 69 02        	adc	#$2
    12f4: 85 1a        	sta	$1a                     ; 0x201a <end_block9+0xbd2>
    12f6: a5 15        	lda	$15                     ; 0x2015 <end_block9+0xbcd>
    12f8: 69 00        	adc	#$0
    12fa: 85 1b        	sta	$1b                     ; 0x201b <end_block9+0xbd3>
    12fc: a0 02        	ldy	#$2
    12fe: b1 14        	lda	($14),y                 ; 0x2014 <end_block9+0xbcc>
    1300: 85 14        	sta	$14                     ; 0x2014 <end_block9+0xbcc>
    1302: 88           	dey
    1303: b1 1a        	lda	($1a),y                 ; 0x201a <end_block9+0xbd2>
    1305: 85 15        	sta	$15                     ; 0x2015 <end_block9+0xbcd>
    1307: c5 17        	cmp	$17                     ; 0x2017 <end_block9+0xbcf>
    1309: d0 cc        	bne	$12d7 <malloc+0xcc>
    130b: a5 14        	lda	$14                     ; 0x2014 <end_block9+0xbcc>
    130d: c5 16        	cmp	$16                     ; 0x2016 <end_block9+0xbce>
    130f: d0 c6        	bne	$12d7 <malloc+0xcc>
    1311: 60           	rts
    1312: a6 18        	ldx	$18                     ; 0x2018 <end_block9+0xbd0>
    1314: 86 40        	stx	$40                     ; 0x2040 <end_block9+0xbf8>
    1316: a6 14        	ldx	$14                     ; 0x2014 <end_block9+0xbcc>
    1318: 86 12        	stx	$12                     ; 0x2012 <end_block9+0xbca>
    131a: a6 15        	ldx	$15                     ; 0x2015 <end_block9+0xbcd>
    131c: 86 13        	stx	$13                     ; 0x2013 <end_block9+0xbcb>
    131e: a6 14        	ldx	$14                     ; 0x2014 <end_block9+0xbcc>
    1320: 86 3d        	stx	$3d                     ; 0x203d <end_block9+0xbf5>
    1322: a6 15        	ldx	$15                     ; 0x2015 <end_block9+0xbcd>
    1324: 86 3e        	stx	$3e                     ; 0x203e <end_block9+0xbf6>
    1326: 20 54 04     	jsr	$454 <_ZN12_GLOBAL__N_19FreeChunk6removeEv>
    1329: a6 3d        	ldx	$3d                     ; 0x203d <end_block9+0xbf5>
    132b: 86 12        	stx	$12                     ; 0x2012 <end_block9+0xbca>
    132d: a6 3e        	ldx	$3e                     ; 0x203e <end_block9+0xbf6>
    132f: 86 13        	stx	$13                     ; 0x2013 <end_block9+0xbcb>
    1331: a0 01        	ldy	#$1
    1333: b1 12        	lda	($12),y                 ; 0x2012 <end_block9+0xbca>
    1335: 85 15        	sta	$15                     ; 0x2015 <end_block9+0xbcd>
    1337: a9 fe        	lda	#$fe
    1339: 32 12        	and	($12)                   ; 0x2012 <end_block9+0xbca>
    133b: 38           	sec
    133c: a6 3c        	ldx	$3c                     ; 0x203c <end_block9+0xbf4>
    133e: 86 14        	stx	$14                     ; 0x2014 <end_block9+0xbcc>
    1340: 85 17        	sta	$17                     ; 0x2017 <end_block9+0xbcf>
    1342: e5 14        	sbc	$14                     ; 0x2014 <end_block9+0xbcc>
    1344: a8           	tay
    1345: a6 3b        	ldx	$3b                     ; 0x203b <end_block9+0xbf3>
    1347: 86 14        	stx	$14                     ; 0x2014 <end_block9+0xbcc>
    1349: a5 15        	lda	$15                     ; 0x2015 <end_block9+0xbcd>
    134b: 85 16        	sta	$16                     ; 0x2016 <end_block9+0xbce>
    134d: e5 14        	sbc	$14                     ; 0x2014 <end_block9+0xbcc>
    134f: d0 06        	bne	$1357 <malloc+0x14c>
    1351: 85 18        	sta	$18                     ; 0x2018 <end_block9+0xbd0>
    1353: c0 08        	cpy	#$8
    1355: 80 04        	bra	$135b <malloc+0x150>
    1357: 85 18        	sta	$18                     ; 0x2018 <end_block9+0xbd0>
    1359: c9 00        	cmp	#$0
    135b: a6 40        	ldx	$40                     ; 0x2040 <end_block9+0xbf8>
    135d: 86 14        	stx	$14                     ; 0x2014 <end_block9+0xbcc>
    135f: a6 3f        	ldx	$3f                     ; 0x203f <end_block9+0xbf7>
    1361: 86 15        	stx	$15                     ; 0x2015 <end_block9+0xbcd>
    1363: a5 17        	lda	$17                     ; 0x2017 <end_block9+0xbcf>
    1365: 90 42        	bcc	$13a9 <malloc+0x19e>
    1367: 18           	clc
    1368: a5 3c        	lda	$3c                     ; 0x203c <end_block9+0xbf4>
    136a: 85 3c        	sta	$3c                     ; 0x203c <end_block9+0xbf4>
    136c: 65 12        	adc	$12                     ; 0x2012 <end_block9+0xbca>
    136e: 85 12        	sta	$12                     ; 0x2012 <end_block9+0xbca>
    1370: a6 3b        	ldx	$3b                     ; 0x203b <end_block9+0xbf3>
    1372: 86 3b        	stx	$3b                     ; 0x203b <end_block9+0xbf3>
    1374: a5 3b        	lda	$3b                     ; 0x203b <end_block9+0xbf3>
    1376: 65 13        	adc	$13                     ; 0x2013 <end_block9+0xbcb>
    1378: 85 13        	sta	$13                     ; 0x2013 <end_block9+0xbcb>
    137a: a6 18        	ldx	$18                     ; 0x2018 <end_block9+0xbd0>
    137c: 98           	tya
    137d: 20 16 03     	jsr	$316 <_ZN12_GLOBAL__N_19FreeChunk6insertEPvj>
    1380: a6 3d        	ldx	$3d                     ; 0x203d <end_block9+0xbf5>
    1382: 86 12        	stx	$12                     ; 0x2012 <end_block9+0xbca>
    1384: a6 3e        	ldx	$3e                     ; 0x203e <end_block9+0xbf6>
    1386: 86 13        	stx	$13                     ; 0x2013 <end_block9+0xbcb>
    1388: a5 3c        	lda	$3c                     ; 0x203c <end_block9+0xbf4>
    138a: 29 fe        	and	#$fe
    138c: 85 14        	sta	$14                     ; 0x2014 <end_block9+0xbcc>
    138e: a0 01        	ldy	#$1
    1390: 98           	tya
    1391: 32 12        	and	($12)                   ; 0x2012 <end_block9+0xbca>
    1393: 05 14        	ora	$14                     ; 0x2014 <end_block9+0xbcc>
    1395: 92 12        	sta	($12)                   ; 0x2012 <end_block9+0xbca>
    1397: a5 3b        	lda	$3b                     ; 0x203b <end_block9+0xbf3>
    1399: 91 12        	sta	($12),y                 ; 0x2012 <end_block9+0xbca>
    139b: a5 14        	lda	$14                     ; 0x2014 <end_block9+0xbcc>
    139d: a6 3b        	ldx	$3b                     ; 0x203b <end_block9+0xbf3>
    139f: 86 16        	stx	$16                     ; 0x2016 <end_block9+0xbce>
    13a1: a6 40        	ldx	$40                     ; 0x2040 <end_block9+0xbf8>
    13a3: 86 14        	stx	$14                     ; 0x2014 <end_block9+0xbcc>
    13a5: a6 3f        	ldx	$3f                     ; 0x203f <end_block9+0xbf7>
    13a7: 86 15        	stx	$15                     ; 0x2015 <end_block9+0xbcd>
    13a9: 18           	clc
    13aa: 65 12        	adc	$12                     ; 0x2012 <end_block9+0xbca>
    13ac: a8           	tay
    13ad: a5 16        	lda	$16                     ; 0x2016 <end_block9+0xbce>
    13af: 65 13        	adc	$13                     ; 0x2013 <end_block9+0xbcb>
    13b1: c5 15        	cmp	$15                     ; 0x2015 <end_block9+0xbcd>
    13b3: d0 09        	bne	$13be <malloc+0x1b3>
    13b5: c4 14        	cpy	$14                     ; 0x2014 <end_block9+0xbcc>
    13b7: d0 05        	bne	$13be <malloc+0x1b3>
    13b9: 9c 43 14     	stz	$1443                   ; 0x1443 <_ZN12_GLOBAL__N_19last_freeE>
    13bc: 80 14        	bra	$13d2 <malloc+0x1c7>
    13be: 84 14        	sty	$14                     ; 0x2014 <end_block9+0xbcc>
    13c0: 85 15        	sta	$15                     ; 0x2015 <end_block9+0xbcd>
    13c2: a0 01        	ldy	#$1
    13c4: b1 14        	lda	($14),y                 ; 0x2014 <end_block9+0xbcc>
    13c6: 85 16        	sta	$16                     ; 0x2016 <end_block9+0xbce>
    13c8: a9 fe        	lda	#$fe
    13ca: 32 14        	and	($14)                   ; 0x2014 <end_block9+0xbcc>
    13cc: 92 14        	sta	($14)                   ; 0x2014 <end_block9+0xbcc>
    13ce: a5 16        	lda	$16                     ; 0x2016 <end_block9+0xbce>
    13d0: 91 14        	sta	($14),y                 ; 0x2014 <end_block9+0xbcc>
    13d2: a5 12        	lda	$12                     ; 0x2012 <end_block9+0xbca>
    13d4: 18           	clc
    13d5: 69 02        	adc	#$2
    13d7: 85 12        	sta	$12                     ; 0x2012 <end_block9+0xbca>
    13d9: a5 13        	lda	$13                     ; 0x2013 <end_block9+0xbcb>
    13db: 69 00        	adc	#$0
    13dd: 85 13        	sta	$13                     ; 0x2013 <end_block9+0xbcb>
    13df: 60           	rts

000013e0 <__memset>:
    13e0: a4 14        	ldy	$14                     ; 0x2014 <end_block9+0xbcc>
    13e2: d0 04        	bne	$13e8 <__memset+0x8>
    13e4: e0 00        	cpx	#$0
    13e6: f0 17        	beq	$13ff <__memset+0x1f>
    13e8: 92 12        	sta	($12)                   ; 0x2012 <end_block9+0xbca>
    13ea: e6 12        	inc	$12                     ; 0x2012 <end_block9+0xbca>
    13ec: d0 02        	bne	$13f0 <__memset+0x10>
    13ee: e6 13        	inc	$13                     ; 0x2013 <end_block9+0xbcb>
    13f0: ca           	dex
    13f1: e0 ff        	cpx	#$ff
    13f3: d0 02        	bne	$13f7 <__memset+0x17>
    13f5: c6 14        	dec	$14                     ; 0x2014 <end_block9+0xbcc>
    13f7: a4 14        	ldy	$14                     ; 0x2014 <end_block9+0xbcc>
    13f9: d0 ed        	bne	$13e8 <__memset+0x8>
    13fb: e0 00        	cpx	#$0
    13fd: d0 e9        	bne	$13e8 <__memset+0x8>
    13ff: 60           	rts
