
fileWrite2.elf:	file format elf32-mos

SYMBOL TABLE:
00000000 l    df *ABS*	00000000 zero-bss.c
00000000 l    df *ABS*	00000000 zero-zp-bss.c
00000000 l    df *ABS*	00000000 ld-temp.o
00000035 l     O .zp.bss	00000007 kernelEventData
00002696 l     O .rodata	00000030 textColors
00000030 l     O .zp.bss	00000001 _col
00000031 l     O .zp.bss	00000001 _row
00002ebc l     O .bss	00000004 _BITMAP_BASE.0
00002ec0 l     O .bss	00000004 _BITMAP_BASE.1
00002ec4 l     O .bss	00000004 _BITMAP_BASE.2
00000034 l     O .zp.bss	00000001 kernelError
000026c6 l     O .rodata	000007d0 saplugin2
0000184f l     F .text	00000bd9 printf
000011fc l     F .text	0000046f fileWrite
00002eca l     O .bss	00000002 _ZN12_GLOBAL__N_19free_sizeE
00002ec8 l     O .bss	00000001 _ZN12_GLOBAL__N_111initializedE
00002ecc l     O .bss	00000002 _ZN12_GLOBAL__N_19free_listE
00002ec9 l     O .bss	00000001 _ZN12_GLOBAL__N_19last_freeE
00000316 l     F .text	0000013d _ZN12_GLOBAL__N_19FreeChunk6insertEPvj
00000032 l     O .zp.bss	00000002 __putchar.s
00001670 l     F .text	000000d3 _ZN12_GLOBAL__N_13putEcP6Status
00002428 l     F .text	000001e7 putchar
00001743 l     F .text	0000010c _ZN12_GLOBAL__N_112print_stringEPKcP6Status
00000479 g     F .text	00000d83 main
00000311 g       .text	00000000 __after_main
00000300 g       .text	00000000 __do_init_stack
00000308 g       .text	00000000 __do_zero_bss
00000453 g     F .text	00000013 __zero_bss
0000030b g       .text	00000000 __do_zero_zp_bss
00000466 g     F .text	00000013 __zero_zp_bss
0000166b g     F .text	00000005 exit
00000314 g       .text	00000000 _fini
0000265b g       .rodata	00000000 __set_v
0000263b  w    F .text	00000020 __memset
00001000  w      *ABS*	00000000 __heap_default_limit
00002ece g       .noinit	00000000 __heap_start
0000260f  w    F .text	0000002c memcpy
00000010 g       *ABS*	00000000 __rc0
00000012 g       *ABS*	00000000 __rc2
00000014 g       *ABS*	00000000 __rc4
00000016 g       *ABS*	00000000 __rc6
00000018 g       *ABS*	00000000 __rc8
0000001a g       *ABS*	00000000 __rc10
0000001c g       *ABS*	00000000 __rc12
0000001e g       *ABS*	00000000 __rc14
00000020 g       *ABS*	00000000 __rc16
00000022 g       *ABS*	00000000 __rc18
00000024 g       *ABS*	00000000 __rc20
00000026 g       *ABS*	00000000 __rc22
00000028 g       *ABS*	00000000 __rc24
0000002a g       *ABS*	00000000 __rc26
0000002c g       *ABS*	00000000 __rc28
0000002e g       *ABS*	00000000 __rc30
0000002f g       *ABS*	00000000 __rc31
00000300 g       *ABS*	00000000 __f256_start
0000a000 g       *ABS*	00000000 __stack
0000a000 g       *ABS*	00000000 __SLOT_ADDR
0800a000 g       *ABS*	00000000 __block8_lma
00002000 g       *ABS*	00000000 __BLOCK_SIZE
0900a000 g       *ABS*	00000000 __block9_lma
0a00a000 g       *ABS*	00000000 __block10_lma
0b00a000 g       *ABS*	00000000 __block11_lma
0c00a000 g       *ABS*	00000000 __block12_lma
0d00a000 g       *ABS*	00000000 __block13_lma
0e00a000 g       *ABS*	00000000 __block14_lma
0f00a000 g       *ABS*	00000000 __block15_lma
1000a000 g       *ABS*	00000000 __block16_lma
1100a000 g       *ABS*	00000000 __block17_lma
1200a000 g       *ABS*	00000000 __block18_lma
1300a000 g       *ABS*	00000000 __block19_lma
1400a000 g       *ABS*	00000000 __block20_lma
1500a000 g       *ABS*	00000000 __block21_lma
1600a000 g       *ABS*	00000000 __block22_lma
1700a000 g       *ABS*	00000000 __block23_lma
00002ebc g       .bss	00000000 __bss_start
00000300 g       .text	00000000 _start
0000002d g       *ABS*	00000000 __rc29
0000002b g       *ABS*	00000000 __rc27
00000029 g       *ABS*	00000000 __rc25
00000027 g       *ABS*	00000000 __rc23
00000025 g       *ABS*	00000000 __rc21
00000023 g       *ABS*	00000000 __rc19
00000021 g       *ABS*	00000000 __rc17
0000001f g       *ABS*	00000000 __rc15
0000001d g       *ABS*	00000000 __rc13
0000001b g       *ABS*	00000000 __rc11
00000019 g       *ABS*	00000000 __rc9
00000017 g       *ABS*	00000000 __rc7
00000015 g       *ABS*	00000000 __rc5
00000013 g       *ABS*	00000000 __rc3
00000011 g       *ABS*	00000000 __rc1
00000030 g       .zp.data	00000000 __zp_data_start
00000300 g       *ABS*	00000000 __zp_data_load_start
00000000 g       *ABS*	00000000 __zp_data_size
00000030 g       .zp.bss	00000000 __zp_bss_start
0000000c g       *ABS*	00000000 __zp_bss_size
00000300 g       .text	00000000 _init
0000265b g       .text	00000000 __init_array_start
0000265b g       .text	00000000 __init_array_end
0000265b g       .text	00000000 __fini_array_start
0000265b g       .text	00000000 __fini_array_end
00002ebc g       .data	00000000 __data_start
00002ebc g       .data	00000000 __data_end
00002ebc g       *ABS*	00000000 __data_load_start
00000000 g       *ABS*	00000000 __data_size
00002ece g       .bss	00000000 __bss_end
00000012 g       *ABS*	00000000 __bss_size
00002ece g       .noinit	00000000 end_block8
00002ece g       .noinit	00000000 end_block9
00002ece g       .noinit	00000000 end_block10
00002ece g       .noinit	00000000 end_block11
00002ece g       .noinit	00000000 end_block12
00002ece g       .noinit	00000000 end_block13
00002ece g       .noinit	00000000 end_block14
00002ece g       .noinit	00000000 end_block15
00002ece g       .noinit	00000000 end_block16
00002ece g       .noinit	00000000 end_block17
00002ece g       .noinit	00000000 end_block18
00002ece g       .noinit	00000000 end_block19
00002ece g       .noinit	00000000 end_block20
00002ece g       .noinit	00000000 end_block21
00002ece g       .noinit	00000000 end_block22
00002ece g       .noinit	00000000 end_block23

Disassembly of section .text:

00000300 <_start>:
     300: a9 00        	lda	#$0
     302: 85 10        	sta	$10                     ; 0x10 <__rc0>
     304: a9 a0        	lda	#$a0
     306: 85 11        	sta	$11                     ; 0x11 <__rc1>

00000308 <__do_zero_bss>:
     308: 20 53 04     	jsr	$453 <__zero_bss>

0000030b <__do_zero_zp_bss>:
     30b: 20 66 04     	jsr	$466 <__zero_zp_bss>
     30e: 20 79 04     	jsr	$479 <main>

00000311 <__after_main>:
     311: 4c 6b 16     	jmp	$166b <exit>

00000314 <_fini>:
     314: 60           	rts
     315: 00           	brk

00000316 <_ZN12_GLOBAL__N_19FreeChunk6insertEPvj>:
     316: 85 16        	sta	$16                     ; 0x16 <__rc6>
     318: 29 fe        	and	#$fe
     31a: 85 14        	sta	$14                     ; 0x14 <__rc4>
     31c: a0 01        	ldy	#$1
     31e: 98           	tya
     31f: 32 12        	and	($12)                   ; 0x12 <__rc2>
     321: 05 14        	ora	$14                     ; 0x14 <__rc4>
     323: 92 12        	sta	($12)                   ; 0x12 <__rc2>
     325: a5 12        	lda	$12                     ; 0x12 <__rc2>
     327: 18           	clc
     328: 65 14        	adc	$14                     ; 0x14 <__rc4>
     32a: 85 15        	sta	$15                     ; 0x15 <__rc5>
     32c: 8a           	txa
     32d: 65 13        	adc	$13                     ; 0x13 <__rc3>
     32f: 85 14        	sta	$14                     ; 0x14 <__rc4>
     331: 18           	clc
     332: a5 15        	lda	$15                     ; 0x15 <__rc5>
     334: 69 fe        	adc	#$fe
     336: 85 17        	sta	$17                     ; 0x17 <__rc7>
     338: a5 14        	lda	$14                     ; 0x14 <__rc4>
     33a: 69 ff        	adc	#$ff
     33c: 85 15        	sta	$15                     ; 0x15 <__rc5>
     33e: a5 17        	lda	$17                     ; 0x17 <__rc7>
     340: 85 14        	sta	$14                     ; 0x14 <__rc4>
     342: 8a           	txa
     343: 91 12        	sta	($12),y                 ; 0x12 <__rc2>
     345: a5 16        	lda	$16                     ; 0x16 <__rc6>
     347: 92 14        	sta	($14)                   ; 0x14 <__rc4>
     349: 8a           	txa
     34a: 91 14        	sta	($14),y                 ; 0x14 <__rc4>
     34c: b1 12        	lda	($12),y                 ; 0x12 <__rc2>
     34e: 85 14        	sta	$14                     ; 0x14 <__rc4>
     350: a9 fe        	lda	#$fe
     352: 32 12        	and	($12)                   ; 0x12 <__rc2>
     354: 18           	clc
     355: 6d ca 2e     	adc	$2eca                   ; 0x2eca <_ZN12_GLOBAL__N_19free_sizeE>
     358: aa           	tax
     359: a5 14        	lda	$14                     ; 0x14 <__rc4>
     35b: 6d cb 2e     	adc	$2ecb                   ; 0x2ecb <_ZN12_GLOBAL__N_19free_sizeE+0x1>
     35e: a8           	tay
     35f: 18           	clc
     360: 8a           	txa
     361: 69 fe        	adc	#$fe
     363: aa           	tax
     364: 98           	tya
     365: 69 ff        	adc	#$ff
     367: 8e ca 2e     	stx	$2eca                   ; 0x2eca <_ZN12_GLOBAL__N_19free_sizeE>
     36a: 8d cb 2e     	sta	$2ecb                   ; 0x2ecb <_ZN12_GLOBAL__N_19free_sizeE+0x1>
     36d: ae cc 2e     	ldx	$2ecc                   ; 0x2ecc <_ZN12_GLOBAL__N_19free_listE>
     370: 86 16        	stx	$16                     ; 0x16 <__rc6>
     372: ac cd 2e     	ldy	$2ecd                   ; 0x2ecd <_ZN12_GLOBAL__N_19free_listE+0x1>
     375: a2 00        	ldx	#$0
     377: 86 14        	stx	$14                     ; 0x14 <__rc4>
     379: a2 00        	ldx	#$0
     37b: 86 15        	stx	$15                     ; 0x15 <__rc5>
     37d: c4 15        	cpy	$15                     ; 0x15 <__rc5>
     37f: d0 3e        	bne	$3bf <_ZN12_GLOBAL__N_19FreeChunk6insertEPvj+0xa9>
     381: a6 16        	ldx	$16                     ; 0x16 <__rc6>
     383: e4 14        	cpx	$14                     ; 0x14 <__rc4>
     385: d0 38        	bne	$3bf <_ZN12_GLOBAL__N_19FreeChunk6insertEPvj+0xa9>
     387: a0 04        	ldy	#$4
     389: a5 12        	lda	$12                     ; 0x12 <__rc2>
     38b: 18           	clc
     38c: 69 04        	adc	#$4
     38e: 85 14        	sta	$14                     ; 0x14 <__rc4>
     390: a5 13        	lda	$13                     ; 0x13 <__rc3>
     392: 69 00        	adc	#$0
     394: 18           	clc
     395: 85 15        	sta	$15                     ; 0x15 <__rc5>
     397: a5 12        	lda	$12                     ; 0x12 <__rc2>
     399: 91 12        	sta	($12),y                 ; 0x12 <__rc2>
     39b: a0 02        	ldy	#$2
     39d: 85 17        	sta	$17                     ; 0x17 <__rc7>
     39f: 69 02        	adc	#$2
     3a1: 85 16        	sta	$16                     ; 0x16 <__rc6>
     3a3: a5 17        	lda	$17                     ; 0x17 <__rc7>
     3a5: 91 12        	sta	($12),y                 ; 0x12 <__rc2>
     3a7: a5 13        	lda	$13                     ; 0x13 <__rc3>
     3a9: 69 00        	adc	#$0
     3ab: 85 17        	sta	$17                     ; 0x17 <__rc7>
     3ad: 88           	dey
     3ae: a5 13        	lda	$13                     ; 0x13 <__rc3>
     3b0: 91 14        	sta	($14),y                 ; 0x14 <__rc4>
     3b2: 91 16        	sta	($16),y                 ; 0x16 <__rc6>
     3b4: a6 12        	ldx	$12                     ; 0x12 <__rc2>
     3b6: 8e cc 2e     	stx	$2ecc                   ; 0x2ecc <_ZN12_GLOBAL__N_19free_listE>
     3b9: a6 13        	ldx	$13                     ; 0x13 <__rc3>
     3bb: 8e cd 2e     	stx	$2ecd                   ; 0x2ecd <_ZN12_GLOBAL__N_19free_listE+0x1>
     3be: 60           	rts
     3bf: a6 12        	ldx	$12                     ; 0x12 <__rc2>
     3c1: a5 12        	lda	$12                     ; 0x12 <__rc2>
     3c3: 18           	clc
     3c4: 69 02        	adc	#$2
     3c6: 85 14        	sta	$14                     ; 0x14 <__rc4>
     3c8: 84 18        	sty	$18                     ; 0x18 <__rc8>
     3ca: a5 13        	lda	$13                     ; 0x13 <__rc3>
     3cc: 69 00        	adc	#$0
     3ce: 85 15        	sta	$15                     ; 0x15 <__rc5>
     3d0: a5 16        	lda	$16                     ; 0x16 <__rc6>
     3d2: 84 17        	sty	$17                     ; 0x17 <__rc7>
     3d4: a0 02        	ldy	#$2
     3d6: 91 12        	sta	($12),y                 ; 0x12 <__rc2>
     3d8: 85 19        	sta	$19                     ; 0x19 <__rc9>
     3da: 88           	dey
     3db: a5 18        	lda	$18                     ; 0x18 <__rc8>
     3dd: 91 14        	sta	($14),y                 ; 0x14 <__rc4>
     3df: 18           	clc
     3e0: a5 19        	lda	$19                     ; 0x19 <__rc9>
     3e2: 69 04        	adc	#$4
     3e4: a8           	tay
     3e5: a5 18        	lda	$18                     ; 0x18 <__rc8>
     3e7: 69 00        	adc	#$0
     3e9: 85 19        	sta	$19                     ; 0x19 <__rc9>
     3eb: 84 18        	sty	$18                     ; 0x18 <__rc8>
     3ed: 8a           	txa
     3ee: 18           	clc
     3ef: 69 04        	adc	#$4
     3f1: 85 1a        	sta	$1a                     ; 0x1a <__rc10>
     3f3: a5 13        	lda	$13                     ; 0x13 <__rc3>
     3f5: 69 00        	adc	#$0
     3f7: 85 1b        	sta	$1b                     ; 0x1b <__rc11>
     3f9: a0 04        	ldy	#$4
     3fb: b1 16        	lda	($16),y                 ; 0x16 <__rc6>
     3fd: 85 16        	sta	$16                     ; 0x16 <__rc6>
     3ff: 85 1d        	sta	$1d                     ; 0x1d <__rc13>
     401: a0 01        	ldy	#$1
     403: b1 18        	lda	($18),y                 ; 0x18 <__rc8>
     405: 85 17        	sta	$17                     ; 0x17 <__rc7>
     407: 85 19        	sta	$19                     ; 0x19 <__rc9>
     409: a0 04        	ldy	#$4
     40b: a5 1d        	lda	$1d                     ; 0x1d <__rc13>
     40d: 91 12        	sta	($12),y                 ; 0x12 <__rc2>
     40f: a5 19        	lda	$19                     ; 0x19 <__rc9>
     411: a0 01        	ldy	#$1
     413: 91 1a        	sta	($1a),y                 ; 0x1a <__rc10>
     415: 18           	clc
     416: a5 1d        	lda	$1d                     ; 0x1d <__rc13>
     418: 69 02        	adc	#$2
     41a: 85 18        	sta	$18                     ; 0x18 <__rc8>
     41c: a5 19        	lda	$19                     ; 0x19 <__rc9>
     41e: 69 00        	adc	#$0
     420: 85 19        	sta	$19                     ; 0x19 <__rc9>
     422: 8a           	txa
     423: c8           	iny
     424: 91 16        	sta	($16),y                 ; 0x16 <__rc6>
     426: a5 13        	lda	$13                     ; 0x13 <__rc3>
     428: 88           	dey
     429: 91 18        	sta	($18),y                 ; 0x18 <__rc8>
     42b: c8           	iny
     42c: b1 12        	lda	($12),y                 ; 0x12 <__rc2>
     42e: 85 16        	sta	$16                     ; 0x16 <__rc6>
     430: 85 18        	sta	$18                     ; 0x18 <__rc8>
     432: 88           	dey
     433: b1 14        	lda	($14),y                 ; 0x14 <__rc4>
     435: 85 17        	sta	$17                     ; 0x17 <__rc7>
     437: 85 14        	sta	$14                     ; 0x14 <__rc4>
     439: 8a           	txa
     43a: a0 04        	ldy	#$4
     43c: 91 16        	sta	($16),y                 ; 0x16 <__rc6>
     43e: 18           	clc
     43f: a5 18        	lda	$18                     ; 0x18 <__rc8>
     441: 69 04        	adc	#$4
     443: a8           	tay
     444: a5 14        	lda	$14                     ; 0x14 <__rc4>
     446: 69 00        	adc	#$0
     448: 84 14        	sty	$14                     ; 0x14 <__rc4>
     44a: 85 15        	sta	$15                     ; 0x15 <__rc5>
     44c: a5 13        	lda	$13                     ; 0x13 <__rc3>
     44e: a0 01        	ldy	#$1
     450: 91 14        	sta	($14),y                 ; 0x14 <__rc4>
     452: 60           	rts

00000453 <__zero_bss>:
     453: a2 12        	ldx	#$12
     455: a0 00        	ldy	#$0
     457: a9 bc        	lda	#$bc
     459: 85 12        	sta	$12                     ; 0x12 <__rc2>
     45b: a9 2e        	lda	#$2e
     45d: 85 13        	sta	$13                     ; 0x13 <__rc3>
     45f: a9 00        	lda	#$0
     461: 84 14        	sty	$14                     ; 0x14 <__rc4>
     463: 4c 3b 26     	jmp	$263b <__memset>

00000466 <__zero_zp_bss>:
     466: a2 0c        	ldx	#$c
     468: a0 00        	ldy	#$0
     46a: a9 30        	lda	#$30
     46c: 85 12        	sta	$12                     ; 0x12 <__rc2>
     46e: a9 00        	lda	#$0
     470: 85 13        	sta	$13                     ; 0x13 <__rc3>
     472: a9 00        	lda	#$0
     474: 84 14        	sty	$14                     ; 0x14 <__rc4>
     476: 4c 3b 26     	jmp	$263b <__memset>

00000479 <main>:
     479: 18           	clc
     47a: a5 10        	lda	$10                     ; 0x10 <__rc0>
     47c: 69 ea        	adc	#$ea
     47e: 85 10        	sta	$10                     ; 0x10 <__rc0>
     480: a5 11        	lda	$11                     ; 0x11 <__rc1>
     482: 69 ff        	adc	#$ff
     484: 85 11        	sta	$11                     ; 0x11 <__rc1>
     486: a6 24        	ldx	$24                     ; 0x24 <__rc20>
     488: da           	phx
     489: a6 25        	ldx	$25                     ; 0x25 <__rc21>
     48b: da           	phx
     48c: a6 26        	ldx	$26                     ; 0x26 <__rc22>
     48e: da           	phx
     48f: a6 27        	ldx	$27                     ; 0x27 <__rc23>
     491: da           	phx
     492: a5 28        	lda	$28                     ; 0x28 <__rc24>
     494: a0 09        	ldy	#$9
     496: 91 10        	sta	($10),y                 ; 0x10 <__rc0>
     498: a5 29        	lda	$29                     ; 0x29 <__rc25>
     49a: 88           	dey
     49b: 91 10        	sta	($10),y                 ; 0x10 <__rc0>
     49d: a5 2a        	lda	$2a                     ; 0x2a <__rc26>
     49f: 88           	dey
     4a0: 91 10        	sta	($10),y                 ; 0x10 <__rc0>
     4a2: a5 2b        	lda	$2b                     ; 0x2b <__rc27>
     4a4: 88           	dey
     4a5: 91 10        	sta	($10),y                 ; 0x10 <__rc0>
     4a7: a5 2c        	lda	$2c                     ; 0x2c <__rc28>
     4a9: 88           	dey
     4aa: 91 10        	sta	($10),y                 ; 0x10 <__rc0>
     4ac: a5 2d        	lda	$2d                     ; 0x2d <__rc29>
     4ae: 88           	dey
     4af: 91 10        	sta	($10),y                 ; 0x10 <__rc0>
     4b1: a5 2e        	lda	$2e                     ; 0x2e <__rc30>
     4b3: 88           	dey
     4b4: 91 10        	sta	($10),y                 ; 0x10 <__rc0>
     4b6: a5 2f        	lda	$2f                     ; 0x2f <__rc31>
     4b8: 88           	dey
     4b9: 91 10        	sta	($10),y                 ; 0x10 <__rc0>
     4bb: 64 1c        	stz	$1c                     ; 0x1c <__rc12>
     4bd: a2 00        	ldx	#$0
     4bf: 86 18        	stx	$18                     ; 0x18 <__rc8>
     4c1: a2 d0        	ldx	#$d0
     4c3: 86 19        	stx	$19                     ; 0x19 <__rc9>
     4c5: a2 00        	ldx	#$0
     4c7: 86 14        	stx	$14                     ; 0x14 <__rc4>
     4c9: a2 d8        	ldx	#$d8
     4cb: 86 15        	stx	$15                     ; 0x15 <__rc5>
     4cd: a2 00        	ldx	#$0
     4cf: a0 10        	ldy	#$10
     4d1: a9 ce        	lda	#$ce
     4d3: 86 12        	stx	$12                     ; 0x12 <__rc2>
     4d5: 84 13        	sty	$13                     ; 0x13 <__rc3>
     4d7: 18           	clc
     4d8: 65 12        	adc	$12                     ; 0x12 <__rc2>
     4da: a0 0a        	ldy	#$a
     4dc: 91 10        	sta	($10),y                 ; 0x10 <__rc0>
     4de: a9 2e        	lda	#$2e
     4e0: 65 13        	adc	$13                     ; 0x13 <__rc3>
     4e2: 85 2a        	sta	$2a                     ; 0x2a <__rc26>
     4e4: 64 01        	stz	$1                      ; 0x1 <__zp_data_size+0x1>
     4e6: a2 3f        	ldx	#$3f
     4e8: 8e 00 d0     	stx	$d000                   ; 0xd000 <end_block9+0xa132>
     4eb: a2 b3        	ldx	#$b3
     4ed: 86 00        	stx	$0                      ; 0x0 <__zp_data_size>
     4ef: 64 08        	stz	$8                      ; 0x8 <__zp_data_size+0x8>
     4f1: a2 01        	ldx	#$1
     4f3: 86 09        	stx	$9                      ; 0x9 <__zp_data_size+0x9>
     4f5: e8           	inx
     4f6: 86 0a        	stx	$a                      ; 0xa <__zp_data_size+0xa>
     4f8: e8           	inx
     4f9: 86 0b        	stx	$b                      ; 0xb <__zp_data_size+0xb>
     4fb: e8           	inx
     4fc: 86 0c        	stx	$c                      ; 0xc <__zp_bss_size>
     4fe: e8           	inx
     4ff: 86 0d        	stx	$d                      ; 0xd <__zp_bss_size+0x1>
     501: a2 35        	ldx	#$35
     503: 86 f0        	stx	$f0                     ; 0xf0 <__rc31+0xc1>
     505: a2 00        	ldx	#$0
     507: 86 f1        	stx	$f1                     ; 0xf1 <__rc31+0xc2>
     509: a2 00        	ldx	#$0
     50b: 86 1a        	stx	$1a                     ; 0x1a <__rc10>
     50d: a2 d4        	ldx	#$d4
     50f: 86 1b        	stx	$1b                     ; 0x1b <__rc11>
     511: a2 00        	ldx	#$0
     513: 86 16        	stx	$16                     ; 0x16 <__rc6>
     515: a2 dc        	ldx	#$dc
     517: 86 17        	stx	$17                     ; 0x17 <__rc7>
     519: a2 00        	ldx	#$0
     51b: 86 12        	stx	$12                     ; 0x12 <__rc2>
     51d: a2 c0        	ldx	#$c0
     51f: 86 13        	stx	$13                     ; 0x13 <__rc3>
     521: a6 01        	ldx	$1                      ; 0x1 <__zp_data_size+0x1>
     523: a0 01        	ldy	#$1
     525: 84 01        	sty	$1                      ; 0x1 <__zp_data_size+0x1>
     527: a5 1c        	lda	$1c                     ; 0x1c <__rc12>
     529: 92 18        	sta	($18)                   ; 0x18 <__rc8>
     52b: 91 18        	sta	($18),y                 ; 0x18 <__rc8>
     52d: c8           	iny
     52e: 91 18        	sta	($18),y                 ; 0x18 <__rc8>
     530: c8           	iny
     531: a9 ff        	lda	#$ff
     533: 91 18        	sta	($18),y                 ; 0x18 <__rc8>
     535: 86 01        	stx	$1                      ; 0x1 <__zp_data_size+0x1>
     537: a5 18        	lda	$18                     ; 0x18 <__rc8>
     539: 18           	clc
     53a: 69 04        	adc	#$4
     53c: 85 18        	sta	$18                     ; 0x18 <__rc8>
     53e: a5 19        	lda	$19                     ; 0x19 <__rc9>
     540: 69 00        	adc	#$0
     542: e6 1c        	inc	$1c                     ; 0x1c <__rc12>
     544: 85 19        	sta	$19                     ; 0x19 <__rc9>
     546: d0 d9        	bne	$521 <main+0xa8>
     548: a9 00        	lda	#$0
     54a: a6 01        	ldx	$1                      ; 0x1 <__zp_data_size+0x1>
     54c: a0 01        	ldy	#$1
     54e: 84 01        	sty	$1                      ; 0x1 <__zp_data_size+0x1>
     550: 92 1a        	sta	($1a)                   ; 0x1a <__rc10>
     552: 91 1a        	sta	($1a),y                 ; 0x1a <__rc10>
     554: c8           	iny
     555: 91 1a        	sta	($1a),y                 ; 0x1a <__rc10>
     557: c8           	iny
     558: 85 18        	sta	$18                     ; 0x18 <__rc8>
     55a: a9 ff        	lda	#$ff
     55c: 91 1a        	sta	($1a),y                 ; 0x1a <__rc10>
     55e: 86 01        	stx	$1                      ; 0x1 <__zp_data_size+0x1>
     560: a5 1a        	lda	$1a                     ; 0x1a <__rc10>
     562: 18           	clc
     563: 69 04        	adc	#$4
     565: 85 1a        	sta	$1a                     ; 0x1a <__rc10>
     567: a5 1b        	lda	$1b                     ; 0x1b <__rc11>
     569: 69 00        	adc	#$0
     56b: e6 18        	inc	$18                     ; 0x18 <__rc8>
     56d: 85 1b        	sta	$1b                     ; 0x1b <__rc11>
     56f: a5 18        	lda	$18                     ; 0x18 <__rc8>
     571: d0 d7        	bne	$54a <main+0xd1>
     573: a9 00        	lda	#$0
     575: a6 01        	ldx	$1                      ; 0x1 <__zp_data_size+0x1>
     577: a0 01        	ldy	#$1
     579: 84 01        	sty	$1                      ; 0x1 <__zp_data_size+0x1>
     57b: 92 14        	sta	($14)                   ; 0x14 <__rc4>
     57d: 91 14        	sta	($14),y                 ; 0x14 <__rc4>
     57f: c8           	iny
     580: 91 14        	sta	($14),y                 ; 0x14 <__rc4>
     582: c8           	iny
     583: 85 18        	sta	$18                     ; 0x18 <__rc8>
     585: a9 ff        	lda	#$ff
     587: 91 14        	sta	($14),y                 ; 0x14 <__rc4>
     589: 86 01        	stx	$1                      ; 0x1 <__zp_data_size+0x1>
     58b: a5 14        	lda	$14                     ; 0x14 <__rc4>
     58d: 18           	clc
     58e: 69 04        	adc	#$4
     590: 85 14        	sta	$14                     ; 0x14 <__rc4>
     592: a5 15        	lda	$15                     ; 0x15 <__rc5>
     594: 69 00        	adc	#$0
     596: e6 18        	inc	$18                     ; 0x18 <__rc8>
     598: 85 15        	sta	$15                     ; 0x15 <__rc5>
     59a: a5 18        	lda	$18                     ; 0x18 <__rc8>
     59c: d0 d7        	bne	$575 <main+0xfc>
     59e: a9 00        	lda	#$0
     5a0: a6 01        	ldx	$1                      ; 0x1 <__zp_data_size+0x1>
     5a2: a0 01        	ldy	#$1
     5a4: 84 01        	sty	$1                      ; 0x1 <__zp_data_size+0x1>
     5a6: 92 16        	sta	($16)                   ; 0x16 <__rc6>
     5a8: 91 16        	sta	($16),y                 ; 0x16 <__rc6>
     5aa: c8           	iny
     5ab: 91 16        	sta	($16),y                 ; 0x16 <__rc6>
     5ad: c8           	iny
     5ae: 85 14        	sta	$14                     ; 0x14 <__rc4>
     5b0: a9 ff        	lda	#$ff
     5b2: 91 16        	sta	($16),y                 ; 0x16 <__rc6>
     5b4: 86 01        	stx	$1                      ; 0x1 <__zp_data_size+0x1>
     5b6: a5 16        	lda	$16                     ; 0x16 <__rc6>
     5b8: 18           	clc
     5b9: 69 04        	adc	#$4
     5bb: 85 16        	sta	$16                     ; 0x16 <__rc6>
     5bd: a5 17        	lda	$17                     ; 0x17 <__rc7>
     5bf: 69 00        	adc	#$0
     5c1: e6 14        	inc	$14                     ; 0x14 <__rc4>
     5c3: 85 17        	sta	$17                     ; 0x17 <__rc7>
     5c5: a5 14        	lda	$14                     ; 0x14 <__rc4>
     5c7: d0 d7        	bne	$5a0 <main+0x127>
     5c9: ad 02 d0     	lda	$d002                   ; 0xd002 <end_block9+0xa134>
     5cc: 29 f0        	and	#$f0
     5ce: 8d 02 d0     	sta	$d002                   ; 0xd002 <end_block9+0xa134>
     5d1: ad 02 d0     	lda	$d002                   ; 0xd002 <end_block9+0xa134>
     5d4: 29 0f        	and	#$f
     5d6: 09 10        	ora	#$10
     5d8: 8d 02 d0     	sta	$d002                   ; 0xd002 <end_block9+0xa134>
     5db: a2 02        	ldx	#$2
     5dd: 8e 03 d0     	stx	$d003                   ; 0xd003 <end_block9+0xa135>
     5e0: ad 01 d0     	lda	$d001                   ; 0xd001 <end_block9+0xa133>
     5e3: 29 f9        	and	#$f9
     5e5: 09 04        	ora	#$4
     5e7: 8d 01 d0     	sta	$d001                   ; 0xd001 <end_block9+0xa133>
     5ea: 64 14        	stz	$14                     ; 0x14 <__rc4>
     5ec: 9c 10 d0     	stz	$d010                   ; 0xd010 <end_block9+0xa142>
     5ef: a2 00        	ldx	#$0
     5f1: 64 15        	stz	$15                     ; 0x15 <__rc5>
     5f3: 86 18        	stx	$18                     ; 0x18 <__rc8>
     5f5: a4 18        	ldy	$18                     ; 0x18 <__rc8>
     5f7: be 96 26     	ldx	$2696,y                 ; 0x2696 <textColors>
     5fa: 86 19        	stx	$19                     ; 0x19 <__rc9>
     5fc: be 97 26     	ldx	$2697,y                 ; 0x2697 <textColors+0x1>
     5ff: 86 1a        	stx	$1a                     ; 0x1a <__rc10>
     601: be 98 26     	ldx	$2698,y                 ; 0x2698 <textColors+0x2>
     604: 86 1b        	stx	$1b                     ; 0x1b <__rc11>
     606: a6 15        	ldx	$15                     ; 0x15 <__rc5>
     608: 8e 00 de     	stx	$de00                   ; 0xde00 <end_block9+0xaf32>
     60b: 86 17        	stx	$17                     ; 0x17 <__rc7>
     60d: 9c 01 de     	stz	$de01                   ; 0xde01 <end_block9+0xaf33>
     610: a2 04        	ldx	#$4
     612: 8e 02 de     	stx	$de02                   ; 0xde02 <end_block9+0xaf34>
     615: 9c 03 de     	stz	$de03                   ; 0xde03 <end_block9+0xaf35>
     618: ad 10 de     	lda	$de10                   ; 0xde10 <end_block9+0xaf42>
     61b: ac 11 de     	ldy	$de11                   ; 0xde11 <end_block9+0xaf43>
     61e: 84 15        	sty	$15                     ; 0x15 <__rc5>
     620: ac 12 de     	ldy	$de12                   ; 0xde12 <end_block9+0xaf44>
     623: ac 13 de     	ldy	$de13                   ; 0xde13 <end_block9+0xaf45>
     626: 18           	clc
     627: 65 14        	adc	$14                     ; 0x14 <__rc4>
     629: 85 16        	sta	$16                     ; 0x16 <__rc6>
     62b: a6 17        	ldx	$17                     ; 0x17 <__rc7>
     62d: a9 d8        	lda	#$d8
     62f: 65 15        	adc	$15                     ; 0x15 <__rc5>
     631: 85 17        	sta	$17                     ; 0x17 <__rc7>
     633: a5 1b        	lda	$1b                     ; 0x1b <__rc11>
     635: 92 16        	sta	($16)                   ; 0x16 <__rc6>
     637: a0 01        	ldy	#$1
     639: a5 1a        	lda	$1a                     ; 0x1a <__rc10>
     63b: 91 16        	sta	($16),y                 ; 0x16 <__rc6>
     63d: c8           	iny
     63e: a5 19        	lda	$19                     ; 0x19 <__rc9>
     640: 91 16        	sta	($16),y                 ; 0x16 <__rc6>
     642: c8           	iny
     643: a9 ff        	lda	#$ff
     645: 91 16        	sta	($16),y                 ; 0x16 <__rc6>
     647: 8e 00 de     	stx	$de00                   ; 0xde00 <end_block9+0xaf32>
     64a: 9c 01 de     	stz	$de01                   ; 0xde01 <end_block9+0xaf33>
     64d: c8           	iny
     64e: 8c 02 de     	sty	$de02                   ; 0xde02 <end_block9+0xaf34>
     651: 9c 03 de     	stz	$de03                   ; 0xde03 <end_block9+0xaf35>
     654: ad 10 de     	lda	$de10                   ; 0xde10 <end_block9+0xaf42>
     657: 85 15        	sta	$15                     ; 0x15 <__rc5>
     659: ad 11 de     	lda	$de11                   ; 0xde11 <end_block9+0xaf43>
     65c: 85 16        	sta	$16                     ; 0x16 <__rc6>
     65e: a9 40        	lda	#$40
     660: 18           	clc
     661: 65 15        	adc	$15                     ; 0x15 <__rc5>
     663: a8           	tay
     664: a9 d8        	lda	#$d8
     666: 65 16        	adc	$16                     ; 0x16 <__rc6>
     668: 85 17        	sta	$17                     ; 0x17 <__rc7>
     66a: 84 16        	sty	$16                     ; 0x16 <__rc6>
     66c: ad 12 de     	lda	$de12                   ; 0xde12 <end_block9+0xaf44>
     66f: ad 13 de     	lda	$de13                   ; 0xde13 <end_block9+0xaf45>
     672: a5 1b        	lda	$1b                     ; 0x1b <__rc11>
     674: 92 16        	sta	($16)                   ; 0x16 <__rc6>
     676: a5 1a        	lda	$1a                     ; 0x1a <__rc10>
     678: a0 01        	ldy	#$1
     67a: 91 16        	sta	($16),y                 ; 0x16 <__rc6>
     67c: a5 19        	lda	$19                     ; 0x19 <__rc9>
     67e: c8           	iny
     67f: 91 16        	sta	($16),y                 ; 0x16 <__rc6>
     681: c8           	iny
     682: a9 ff        	lda	#$ff
     684: 91 16        	sta	($16),y                 ; 0x16 <__rc6>
     686: e8           	inx
     687: 86 15        	stx	$15                     ; 0x15 <__rc5>
     689: 18           	clc
     68a: a5 18        	lda	$18                     ; 0x18 <__rc8>
     68c: 69 03        	adc	#$3
     68e: aa           	tax
     68f: c9 30        	cmp	#$30
     691: f0 03        	beq	$696 <main+0x21d>
     693: 4c f3 05     	jmp	$5f3 <main+0x17a>
     696: a6 01        	ldx	$1                      ; 0x1 <__zp_data_size+0x1>
     698: 86 18        	stx	$18                     ; 0x18 <__rc8>
     69a: a2 50        	ldx	#$50
     69c: 8e 00 de     	stx	$de00                   ; 0xde00 <end_block9+0xaf32>
     69f: 9c 01 de     	stz	$de01                   ; 0xde01 <end_block9+0xaf33>
     6a2: a2 1e        	ldx	#$1e
     6a4: 8e 02 de     	stx	$de02                   ; 0xde02 <end_block9+0xaf34>
     6a7: 9c 03 de     	stz	$de03                   ; 0xde03 <end_block9+0xaf35>
     6aa: ad 10 de     	lda	$de10                   ; 0xde10 <end_block9+0xaf42>
     6ad: ae 11 de     	ldx	$de11                   ; 0xde11 <end_block9+0xaf43>
     6b0: ac 12 de     	ldy	$de12                   ; 0xde12 <end_block9+0xaf44>
     6b3: ac 13 de     	ldy	$de13                   ; 0xde13 <end_block9+0xaf45>
     6b6: a0 02        	ldy	#$2
     6b8: 84 01        	sty	$1                      ; 0x1 <__zp_data_size+0x1>
     6ba: 85 1a        	sta	$1a                     ; 0x1a <__rc10>
     6bc: c9 01        	cmp	#$1
     6be: 8a           	txa
     6bf: e9 00        	sbc	#$0
     6c1: 50 02        	bvc	$6c5 <main+0x24c>
     6c3: 49 80        	eor	#$80
     6c5: a8           	tay
     6c6: 10 03        	bpl	$6cb <main+0x252>
     6c8: 4c 24 07     	jmp	$724 <main+0x2ab>
     6cb: a4 1a        	ldy	$1a                     ; 0x1a <__rc10>
     6cd: 84 14        	sty	$14                     ; 0x14 <__rc4>
     6cf: 86 19        	stx	$19                     ; 0x19 <__rc9>
     6d1: a0 00        	ldy	#$0
     6d3: 84 16        	sty	$16                     ; 0x16 <__rc6>
     6d5: a0 c0        	ldy	#$c0
     6d7: 84 17        	sty	$17                     ; 0x17 <__rc7>
     6d9: a9 20        	lda	#$20
     6db: 80 04        	bra	$6e1 <main+0x268>
     6dd: e0 00        	cpx	#$0
     6df: f0 13        	beq	$6f4 <main+0x27b>
     6e1: 92 16        	sta	($16)                   ; 0x16 <__rc6>
     6e3: e6 16        	inc	$16                     ; 0x16 <__rc6>
     6e5: d0 02        	bne	$6e9 <main+0x270>
     6e7: e6 17        	inc	$17                     ; 0x17 <__rc7>
     6e9: a0 ff        	ldy	#$ff
     6eb: c6 14        	dec	$14                     ; 0x14 <__rc4>
     6ed: c4 14        	cpy	$14                     ; 0x14 <__rc4>
     6ef: d0 ec        	bne	$6dd <main+0x264>
     6f1: ca           	dex
     6f2: 80 e9        	bra	$6dd <main+0x264>
     6f4: a4 14        	ldy	$14                     ; 0x14 <__rc4>
     6f6: d0 e9        	bne	$6e1 <main+0x268>
     6f8: a0 03        	ldy	#$3
     6fa: 84 01        	sty	$1                      ; 0x1 <__zp_data_size+0x1>
     6fc: a9 f0        	lda	#$f0
     6fe: a6 1a        	ldx	$1a                     ; 0x1a <__rc10>
     700: 80 04        	bra	$706 <main+0x28d>
     702: a4 19        	ldy	$19                     ; 0x19 <__rc9>
     704: f0 18        	beq	$71e <main+0x2a5>
     706: 92 12        	sta	($12)                   ; 0x12 <__rc2>
     708: e6 12        	inc	$12                     ; 0x12 <__rc2>
     70a: f0 07        	beq	$713 <main+0x29a>
     70c: ca           	dex
     70d: e0 ff        	cpx	#$ff
     70f: d0 f1        	bne	$702 <main+0x289>
     711: 80 07        	bra	$71a <main+0x2a1>
     713: e6 13        	inc	$13                     ; 0x13 <__rc3>
     715: ca           	dex
     716: e0 ff        	cpx	#$ff
     718: d0 e8        	bne	$702 <main+0x289>
     71a: c6 19        	dec	$19                     ; 0x19 <__rc9>
     71c: 80 e4        	bra	$702 <main+0x289>
     71e: e0 00        	cpx	#$0
     720: d0 e4        	bne	$706 <main+0x28d>
     722: 80 04        	bra	$728 <main+0x2af>
     724: a2 03        	ldx	#$3
     726: 86 01        	stx	$1                      ; 0x1 <__zp_data_size+0x1>
     728: a6 18        	ldx	$18                     ; 0x18 <__rc8>
     72a: 86 01        	stx	$1                      ; 0x1 <__zp_data_size+0x1>
     72c: 64 30        	stz	$30                     ; 0x30 <_col>
     72e: 9c 14 d0     	stz	$d014                   ; 0xd014 <end_block9+0xa146>
     731: 9c 15 d0     	stz	$d015                   ; 0xd015 <end_block9+0xa147>
     734: 64 31        	stz	$31                     ; 0x31 <_row>
     736: 9c 16 d0     	stz	$d016                   ; 0xd016 <end_block9+0xa148>
     739: 9c 17 d0     	stz	$d017                   ; 0xd017 <end_block9+0xa149>
     73c: a2 40        	ldx	#$40
     73e: 8e 00 de     	stx	$de00                   ; 0xde00 <end_block9+0xaf32>
     741: a2 01        	ldx	#$1
     743: 8e 01 de     	stx	$de01                   ; 0xde01 <end_block9+0xaf33>
     746: a2 f0        	ldx	#$f0
     748: 8e 02 de     	stx	$de02                   ; 0xde02 <end_block9+0xaf34>
     74b: 9c 03 de     	stz	$de03                   ; 0xde03 <end_block9+0xaf35>
     74e: ae 10 de     	ldx	$de10                   ; 0xde10 <end_block9+0xaf42>
     751: 86 17        	stx	$17                     ; 0x17 <__rc7>
     753: ae 11 de     	ldx	$de11                   ; 0xde11 <end_block9+0xaf43>
     756: 86 12        	stx	$12                     ; 0x12 <__rc2>
     758: ae 12 de     	ldx	$de12                   ; 0xde12 <end_block9+0xaf44>
     75b: 86 13        	stx	$13                     ; 0x13 <__rc3>
     75d: ae 13 de     	ldx	$de13                   ; 0xde13 <end_block9+0xaf45>
     760: 86 14        	stx	$14                     ; 0x14 <__rc4>
     762: a4 12        	ldy	$12                     ; 0x12 <__rc2>
     764: 84 15        	sty	$15                     ; 0x15 <__rc5>
     766: 06 15        	asl	$15                     ; 0x15 <__rc5>
     768: a5 13        	lda	$13                     ; 0x13 <__rc3>
     76a: 2a           	rol
     76b: 86 16        	stx	$16                     ; 0x16 <__rc6>
     76d: 26 16        	rol	$16                     ; 0x16 <__rc6>
     76f: 06 15        	asl	$15                     ; 0x15 <__rc5>
     771: 2a           	rol
     772: 26 16        	rol	$16                     ; 0x16 <__rc6>
     774: 06 15        	asl	$15                     ; 0x15 <__rc5>
     776: 2a           	rol
     777: 26 16        	rol	$16                     ; 0x16 <__rc6>
     779: 85 15        	sta	$15                     ; 0x15 <__rc5>
     77b: 8d 00 de     	sta	$de00                   ; 0xde00 <end_block9+0xaf32>
     77e: a5 16        	lda	$16                     ; 0x16 <__rc6>
     780: 8d 01 de     	sta	$de01                   ; 0xde01 <end_block9+0xaf33>
     783: 9c 02 de     	stz	$de02                   ; 0xde02 <end_block9+0xaf34>
     786: a2 20        	ldx	#$20
     788: 8e 03 de     	stx	$de03                   ; 0xde03 <end_block9+0xaf35>
     78b: ae 10 de     	ldx	$de10                   ; 0xde10 <end_block9+0xaf42>
     78e: 86 16        	stx	$16                     ; 0x16 <__rc6>
     790: ae 11 de     	ldx	$de11                   ; 0xde11 <end_block9+0xaf43>
     793: 86 18        	stx	$18                     ; 0x18 <__rc8>
     795: ac 12 de     	ldy	$de12                   ; 0xde12 <end_block9+0xaf44>
     798: ae 13 de     	ldx	$de13                   ; 0xde13 <end_block9+0xaf45>
     79b: e4 14        	cpx	$14                     ; 0x14 <__rc4>
     79d: d0 14        	bne	$7b3 <main+0x33a>
     79f: c4 13        	cpy	$13                     ; 0x13 <__rc3>
     7a1: d0 10        	bne	$7b3 <main+0x33a>
     7a3: a6 18        	ldx	$18                     ; 0x18 <__rc8>
     7a5: e4 12        	cpx	$12                     ; 0x12 <__rc2>
     7a7: d0 0a        	bne	$7b3 <main+0x33a>
     7a9: a6 16        	ldx	$16                     ; 0x16 <__rc6>
     7ab: e4 17        	cpx	$17                     ; 0x17 <__rc7>
     7ad: d0 04        	bne	$7b3 <main+0x33a>
     7af: a6 15        	ldx	$15                     ; 0x15 <__rc5>
     7b1: 80 06        	bra	$7b9 <main+0x340>
     7b3: a6 15        	ldx	$15                     ; 0x15 <__rc5>
     7b5: e8           	inx
     7b6: d0 01        	bne	$7b9 <main+0x340>
     7b8: 1a           	inc
     7b9: 8e 00 de     	stx	$de00                   ; 0xde00 <end_block9+0xaf32>
     7bc: 8d 01 de     	sta	$de01                   ; 0xde01 <end_block9+0xaf33>
     7bf: 9c 02 de     	stz	$de02                   ; 0xde02 <end_block9+0xaf34>
     7c2: a2 20        	ldx	#$20
     7c4: 8e 03 de     	stx	$de03                   ; 0xde03 <end_block9+0xaf35>
     7c7: ae 10 de     	ldx	$de10                   ; 0xde10 <end_block9+0xaf42>
     7ca: 86 12        	stx	$12                     ; 0x12 <__rc2>
     7cc: ae 11 de     	ldx	$de11                   ; 0xde11 <end_block9+0xaf43>
     7cf: 86 13        	stx	$13                     ; 0x13 <__rc3>
     7d1: ae 12 de     	ldx	$de12                   ; 0xde12 <end_block9+0xaf44>
     7d4: 86 14        	stx	$14                     ; 0x14 <__rc4>
     7d6: ae 13 de     	ldx	$de13                   ; 0xde13 <end_block9+0xaf45>
     7d9: 86 15        	stx	$15                     ; 0x15 <__rc5>
     7db: a9 00        	lda	#$0
     7dd: 38           	sec
     7de: e5 12        	sbc	$12                     ; 0x12 <__rc2>
     7e0: 85 19        	sta	$19                     ; 0x19 <__rc9>
     7e2: a9 00        	lda	#$0
     7e4: e5 13        	sbc	$13                     ; 0x13 <__rc3>
     7e6: aa           	tax
     7e7: a9 08        	lda	#$8
     7e9: e5 14        	sbc	$14                     ; 0x14 <__rc4>
     7eb: 85 16        	sta	$16                     ; 0x16 <__rc6>
     7ed: a9 00        	lda	#$0
     7ef: e5 15        	sbc	$15                     ; 0x15 <__rc5>
     7f1: 8e bd 2e     	stx	$2ebd                   ; 0x2ebd <__bss_start+0x1>
     7f4: a4 16        	ldy	$16                     ; 0x16 <__rc6>
     7f6: 8c be 2e     	sty	$2ebe                   ; 0x2ebe <__bss_start+0x2>
     7f9: 8d bf 2e     	sta	$2ebf                   ; 0x2ebf <__bss_start+0x3>
     7fc: a8           	tay
     7fd: 38           	sec
     7fe: a5 19        	lda	$19                     ; 0x19 <__rc9>
     800: e5 12        	sbc	$12                     ; 0x12 <__rc2>
     802: 85 18        	sta	$18                     ; 0x18 <__rc8>
     804: 8a           	txa
     805: e5 13        	sbc	$13                     ; 0x13 <__rc3>
     807: 85 1a        	sta	$1a                     ; 0x1a <__rc10>
     809: a5 16        	lda	$16                     ; 0x16 <__rc6>
     80b: e5 14        	sbc	$14                     ; 0x14 <__rc4>
     80d: 85 16        	sta	$16                     ; 0x16 <__rc6>
     80f: 98           	tya
     810: e5 15        	sbc	$15                     ; 0x15 <__rc5>
     812: 85 17        	sta	$17                     ; 0x17 <__rc7>
     814: 38           	sec
     815: a4 18        	ldy	$18                     ; 0x18 <__rc8>
     817: 8c c0 2e     	sty	$2ec0                   ; 0x2ec0 <_BITMAP_BASE.1>
     81a: a6 1a        	ldx	$1a                     ; 0x1a <__rc10>
     81c: 8e c1 2e     	stx	$2ec1                   ; 0x2ec1 <_BITMAP_BASE.1+0x1>
     81f: a4 16        	ldy	$16                     ; 0x16 <__rc6>
     821: 8c c2 2e     	sty	$2ec2                   ; 0x2ec2 <_BITMAP_BASE.1+0x2>
     824: 8d c3 2e     	sta	$2ec3                   ; 0x2ec3 <_BITMAP_BASE.1+0x3>
     827: a5 18        	lda	$18                     ; 0x18 <__rc8>
     829: e5 12        	sbc	$12                     ; 0x12 <__rc2>
     82b: 85 18        	sta	$18                     ; 0x18 <__rc8>
     82d: a5 1a        	lda	$1a                     ; 0x1a <__rc10>
     82f: e5 13        	sbc	$13                     ; 0x13 <__rc3>
     831: a8           	tay
     832: a5 16        	lda	$16                     ; 0x16 <__rc6>
     834: e5 14        	sbc	$14                     ; 0x14 <__rc4>
     836: 85 12        	sta	$12                     ; 0x12 <__rc2>
     838: a5 17        	lda	$17                     ; 0x17 <__rc7>
     83a: e5 15        	sbc	$15                     ; 0x15 <__rc5>
     83c: a6 18        	ldx	$18                     ; 0x18 <__rc8>
     83e: 8e c4 2e     	stx	$2ec4                   ; 0x2ec4 <_BITMAP_BASE.2>
     841: 8c c5 2e     	sty	$2ec5                   ; 0x2ec5 <_BITMAP_BASE.2+0x1>
     844: a6 19        	ldx	$19                     ; 0x19 <__rc9>
     846: 8e bc 2e     	stx	$2ebc                   ; 0x2ebc <__bss_start>
     849: a4 12        	ldy	$12                     ; 0x12 <__rc2>
     84b: 8c c6 2e     	sty	$2ec6                   ; 0x2ec6 <_BITMAP_BASE.2+0x2>
     84e: 8d c7 2e     	sta	$2ec7                   ; 0x2ec7 <_BITMAP_BASE.2+0x3>
     851: 8e 01 d1     	stx	$d101                   ; 0xd101 <end_block9+0xa233>
     854: ae bd 2e     	ldx	$2ebd                   ; 0x2ebd <__bss_start+0x1>
     857: 8e 02 d1     	stx	$d102                   ; 0xd102 <end_block9+0xa234>
     85a: ae be 2e     	ldx	$2ebe                   ; 0x2ebe <__bss_start+0x2>
     85d: 8e 03 d1     	stx	$d103                   ; 0xd103 <end_block9+0xa235>
     860: ae c0 2e     	ldx	$2ec0                   ; 0x2ec0 <_BITMAP_BASE.1>
     863: 8e 09 d1     	stx	$d109                   ; 0xd109 <end_block9+0xa23b>
     866: ae c1 2e     	ldx	$2ec1                   ; 0x2ec1 <_BITMAP_BASE.1+0x1>
     869: 8e 0a d1     	stx	$d10a                   ; 0xd10a <end_block9+0xa23c>
     86c: ae c2 2e     	ldx	$2ec2                   ; 0x2ec2 <_BITMAP_BASE.1+0x2>
     86f: 8e 0b d1     	stx	$d10b                   ; 0xd10b <end_block9+0xa23d>
     872: ae c4 2e     	ldx	$2ec4                   ; 0x2ec4 <_BITMAP_BASE.2>
     875: 8e 11 d1     	stx	$d111                   ; 0xd111 <end_block9+0xa243>
     878: ae c5 2e     	ldx	$2ec5                   ; 0x2ec5 <_BITMAP_BASE.2+0x1>
     87b: 8e 12 d1     	stx	$d112                   ; 0xd112 <end_block9+0xa244>
     87e: ae c6 2e     	ldx	$2ec6                   ; 0x2ec6 <_BITMAP_BASE.2+0x2>
     881: 8e 13 d1     	stx	$d113                   ; 0xd113 <end_block9+0xa245>
     884: 9c 00 d1     	stz	$d100                   ; 0xd100 <end_block9+0xa232>
     887: 9c 08 d1     	stz	$d108                   ; 0xd108 <end_block9+0xa23a>
     88a: 9c 10 d1     	stz	$d110                   ; 0xd110 <end_block9+0xa242>
     88d: a2 10        	ldx	#$10
     88f: 8e 00 d2     	stx	$d200                   ; 0xd200 <end_block9+0xa332>
     892: 8e 0c d2     	stx	$d20c                   ; 0xd20c <end_block9+0xa33e>
     895: 8e 18 d2     	stx	$d218                   ; 0xd218 <end_block9+0xa34a>
     898: a0 d9        	ldy	#$d9
     89a: a2 40        	ldx	#$40
     89c: 64 12        	stz	$12                     ; 0x12 <__rc2>
     89e: 84 13        	sty	$13                     ; 0x13 <__rc3>
     8a0: a9 00        	lda	#$0
     8a2: 92 12        	sta	($12)                   ; 0x12 <__rc2>
     8a4: ca           	dex
     8a5: 18           	clc
     8a6: a5 12        	lda	$12                     ; 0x12 <__rc2>
     8a8: 69 08        	adc	#$8
     8aa: 85 12        	sta	$12                     ; 0x12 <__rc2>
     8ac: 98           	tya
     8ad: 69 00        	adc	#$0
     8af: a8           	tay
     8b0: 8a           	txa
     8b1: d0 eb        	bne	$89e <main+0x425>
     8b3: 18           	clc
     8b4: a5 10        	lda	$10                     ; 0x10 <__rc0>
     8b6: 69 0c        	adc	#$c
     8b8: 85 2c        	sta	$2c                     ; 0x2c <__rc28>
     8ba: a5 11        	lda	$11                     ; 0x11 <__rc1>
     8bc: 69 00        	adc	#$0
     8be: 85 2d        	sta	$2d                     ; 0x2d <__rc29>
     8c0: a6 2c        	ldx	$2c                     ; 0x2c <__rc28>
     8c2: 86 fb        	stx	$fb                     ; 0xfb <__rc31+0xcc>
     8c4: 85 fc        	sta	$fc                     ; 0xfc <__rc31+0xcd>
     8c6: a2 08        	ldx	#$8
     8c8: 86 fd        	stx	$fd                     ; 0xfd <__rc31+0xce>
     8ca: 18           	clc
     8cb: a5 10        	lda	$10                     ; 0x10 <__rc0>
     8cd: 69 15        	adc	#$15
     8cf: 85 24        	sta	$24                     ; 0x24 <__rc20>
     8d1: a5 11        	lda	$11                     ; 0x11 <__rc1>
     8d3: 69 00        	adc	#$0
     8d5: 85 25        	sta	$25                     ; 0x25 <__rc21>
     8d7: a2 34        	ldx	#$34
     8d9: 86 12        	stx	$12                     ; 0x12 <__rc2>
     8db: a2 00        	ldx	#$0
     8dd: 86 13        	stx	$13                     ; 0x13 <__rc3>
     8df: a0 06        	ldy	#$6
     8e1: 20 dc ff     	jsr	$ffdc <end_block9+0xd10e>
     8e4: 92 24        	sta	($24)                   ; 0x24 <__rc20>
     8e6: a9 00        	lda	#$0
     8e8: 6a           	ror
     8e9: 85 12        	sta	$12                     ; 0x12 <__rc2>
     8eb: b1 2c        	lda	($2c),y                 ; 0x2c <__rc28>
     8ed: 85 12        	sta	$12                     ; 0x12 <__rc2>
     8ef: c8           	iny
     8f0: b1 2c        	lda	($2c),y                 ; 0x2c <__rc28>
     8f2: a6 12        	ldx	$12                     ; 0x12 <__rc2>
     8f4: 8e 00 de     	stx	$de00                   ; 0xde00 <end_block9+0xaf32>
     8f7: 9c 01 de     	stz	$de01                   ; 0xde01 <end_block9+0xaf33>
     8fa: 8d 02 de     	sta	$de02                   ; 0xde02 <end_block9+0xaf34>
     8fd: 9c 03 de     	stz	$de03                   ; 0xde03 <end_block9+0xaf35>
     900: ae 10 de     	ldx	$de10                   ; 0xde10 <end_block9+0xaf42>
     903: ac 11 de     	ldy	$de11                   ; 0xde11 <end_block9+0xaf43>
     906: ad 12 de     	lda	$de12                   ; 0xde12 <end_block9+0xaf44>
     909: ad 13 de     	lda	$de13                   ; 0xde13 <end_block9+0xaf45>
     90c: 8e a4 d6     	stx	$d6a4                   ; 0xd6a4 <end_block9+0xa7d6>
     90f: 8c a5 d6     	sty	$d6a5                   ; 0xd6a5 <end_block9+0xa7d7>
     912: a2 03        	ldx	#$3
     914: 8e a6 d6     	stx	$d6a6                   ; 0xd6a6 <end_block9+0xa7d8>
     917: a2 ac        	ldx	#$ac
     919: 86 12        	stx	$12                     ; 0x12 <__rc2>
     91b: a2 2e        	ldx	#$2e
     91d: 86 13        	stx	$13                     ; 0x13 <__rc3>
     91f: a2 00        	ldx	#$0
     921: 80 0a        	bra	$92d <main+0x4b4>
     923: a0 02        	ldy	#$2
     925: e6 12        	inc	$12                     ; 0x12 <__rc2>
     927: d0 02        	bne	$92b <main+0x4b2>
     929: e6 13        	inc	$13                     ; 0x13 <__rc3>
     92b: 5a           	phy
     92c: fa           	plx
     92d: b2 12        	lda	($12)                   ; 0x12 <__rc2>
     92f: c9 61        	cmp	#$61
     931: f0 f0        	beq	$923 <main+0x4aa>
     933: a0 01        	ldy	#$1
     935: c9 77        	cmp	#$77
     937: f0 05        	beq	$93e <main+0x4c5>
     939: a8           	tay
     93a: f0 08        	beq	$944 <main+0x4cb>
     93c: da           	phx
     93d: 7a           	ply
     93e: e6 12        	inc	$12                     ; 0x12 <__rc2>
     940: f0 e7        	beq	$929 <main+0x4b0>
     942: 80 e7        	bra	$92b <main+0x4b2>
     944: a0 ae        	ldy	#$ae
     946: a9 2e        	lda	#$2e
     948: 84 fb        	sty	$fb                     ; 0xfb <__rc31+0xcc>
     94a: 85 fc        	sta	$fc                     ; 0xfc <__rc31+0xcd>
     94c: a0 0d        	ldy	#$d
     94e: 84 fd        	sty	$fd                     ; 0xfd <__rc31+0xce>
     950: 64 f3        	stz	$f3                     ; 0xf3 <__rc31+0xc4>
     952: 86 f5        	stx	$f5                     ; 0xf5 <__rc31+0xc6>
     954: a2 34        	ldx	#$34
     956: 86 12        	stx	$12                     ; 0x12 <__rc2>
     958: a2 00        	ldx	#$0
     95a: 86 13        	stx	$13                     ; 0x13 <__rc3>
     95c: 20 5c ff     	jsr	$ff5c <end_block9+0xd08e>
     95f: 92 2c        	sta	($2c)                   ; 0x2c <__rc28>
     961: a9 00        	lda	#$0
     963: 6a           	ror
     964: 85 12        	sta	$12                     ; 0x12 <__rc2>
     966: a6 34        	ldx	$34                     ; 0x34 <kernelError>
     968: a0 00        	ldy	#$0
     96a: 84 26        	sty	$26                     ; 0x26 <__rc22>
     96c: a0 00        	ldy	#$0
     96e: 84 27        	sty	$27                     ; 0x27 <__rc23>
     970: 8a           	txa
     971: d0 03        	bne	$976 <main+0x4fd>
     973: 4c 20 0b     	jmp	$b20 <main+0x6a7>
     976: a5 2a        	lda	$2a                     ; 0x2a <__rc26>
     978: a0 0b        	ldy	#$b
     97a: 91 10        	sta	($10),y                 ; 0x10 <__rc0>
     97c: a2 c6        	ldx	#$c6
     97e: 86 2e        	stx	$2e                     ; 0x2e <__rc30>
     980: a2 26        	ldx	#$26
     982: 86 2f        	stx	$2f                     ; 0x2f <__rc31>
     984: 64 2b        	stz	$2b                     ; 0x2b <__rc27>
     986: a0 01        	ldy	#$1
     988: 64 13        	stz	$13                     ; 0x13 <__rc3>
     98a: a5 2b        	lda	$2b                     ; 0x2b <__rc27>
     98c: 92 10        	sta	($10)                   ; 0x10 <__rc0>
     98e: a5 13        	lda	$13                     ; 0x13 <__rc3>
     990: 91 10        	sta	($10),y                 ; 0x10 <__rc0>
     992: a2 a8        	ldx	#$a8
     994: 86 12        	stx	$12                     ; 0x12 <__rc2>
     996: a2 2e        	ldx	#$2e
     998: 86 13        	stx	$13                     ; 0x13 <__rc3>
     99a: 85 2a        	sta	$2a                     ; 0x2a <__rc26>
     99c: 20 4f 18     	jsr	$184f <printf>
     99f: b2 2e        	lda	($2e)                   ; 0x2e <__rc30>
     9a1: 85 13        	sta	$13                     ; 0x13 <__rc3>
     9a3: a0 01        	ldy	#$1
     9a5: b1 2e        	lda	($2e),y                 ; 0x2e <__rc30>
     9a7: 85 12        	sta	$12                     ; 0x12 <__rc2>
     9a9: a5 13        	lda	$13                     ; 0x13 <__rc3>
     9ab: 92 24        	sta	($24)                   ; 0x24 <__rc20>
     9ad: 18           	clc
     9ae: a5 10        	lda	$10                     ; 0x10 <__rc0>
     9b0: 69 14        	adc	#$14
     9b2: 85 28        	sta	$28                     ; 0x28 <__rc24>
     9b4: a5 11        	lda	$11                     ; 0x11 <__rc1>
     9b6: 69 00        	adc	#$0
     9b8: 85 29        	sta	$29                     ; 0x29 <__rc25>
     9ba: a5 12        	lda	$12                     ; 0x12 <__rc2>
     9bc: 92 28        	sta	($28)                   ; 0x28 <__rc24>
     9be: a6 24        	ldx	$24                     ; 0x24 <__rc20>
     9c0: 86 12        	stx	$12                     ; 0x12 <__rc2>
     9c2: a6 25        	ldx	$25                     ; 0x25 <__rc21>
     9c4: 86 13        	stx	$13                     ; 0x13 <__rc3>
     9c6: a6 26        	ldx	$26                     ; 0x26 <__rc22>
     9c8: 86 14        	stx	$14                     ; 0x14 <__rc4>
     9ca: a6 27        	ldx	$27                     ; 0x27 <__rc23>
     9cc: 86 15        	stx	$15                     ; 0x15 <__rc5>
     9ce: 20 fc 11     	jsr	$11fc <fileWrite>
     9d1: a6 28        	ldx	$28                     ; 0x28 <__rc24>
     9d3: 86 12        	stx	$12                     ; 0x12 <__rc2>
     9d5: a6 29        	ldx	$29                     ; 0x29 <__rc25>
     9d7: 86 13        	stx	$13                     ; 0x13 <__rc3>
     9d9: a6 26        	ldx	$26                     ; 0x26 <__rc22>
     9db: 86 14        	stx	$14                     ; 0x14 <__rc4>
     9dd: a6 27        	ldx	$27                     ; 0x27 <__rc23>
     9df: 86 15        	stx	$15                     ; 0x15 <__rc5>
     9e1: 20 fc 11     	jsr	$11fc <fileWrite>
     9e4: a0 01        	ldy	#$1
     9e6: e6 2b        	inc	$2b                     ; 0x2b <__rc27>
     9e8: d0 02        	bne	$9ec <main+0x573>
     9ea: e6 2a        	inc	$2a                     ; 0x2a <__rc26>
     9ec: a5 2e        	lda	$2e                     ; 0x2e <__rc30>
     9ee: 18           	clc
     9ef: 69 02        	adc	#$2
     9f1: 85 2e        	sta	$2e                     ; 0x2e <__rc30>
     9f3: a5 2f        	lda	$2f                     ; 0x2f <__rc31>
     9f5: 69 00        	adc	#$0
     9f7: a6 2a        	ldx	$2a                     ; 0x2a <__rc26>
     9f9: 85 2f        	sta	$2f                     ; 0x2f <__rc31>
     9fb: 86 13        	stx	$13                     ; 0x13 <__rc3>
     9fd: e0 03        	cpx	#$3
     9ff: f0 03        	beq	$a04 <main+0x58b>
     a01: 4c 8a 09     	jmp	$98a <main+0x511>
     a04: a6 2b        	ldx	$2b                     ; 0x2b <__rc27>
     a06: e0 e8        	cpx	#$e8
     a08: f0 03        	beq	$a0d <main+0x594>
     a0a: 4c 8a 09     	jmp	$98a <main+0x511>
     a0d: b2 26        	lda	($26)                   ; 0x26 <__rc22>
     a0f: 85 f3        	sta	$f3                     ; 0xf3 <__rc31+0xc4>
     a11: a2 34        	ldx	#$34
     a13: 86 14        	stx	$14                     ; 0x14 <__rc4>
     a15: a2 00        	ldx	#$0
     a17: 86 15        	stx	$15                     ; 0x15 <__rc5>
     a19: a5 26        	lda	$26                     ; 0x26 <__rc22>
     a1b: 18           	clc
     a1c: 69 fe        	adc	#$fe
     a1e: 85 16        	sta	$16                     ; 0x16 <__rc6>
     a20: a5 27        	lda	$27                     ; 0x27 <__rc23>
     a22: 69 ff        	adc	#$ff
     a24: a6 16        	ldx	$16                     ; 0x16 <__rc6>
     a26: 86 12        	stx	$12                     ; 0x12 <__rc2>
     a28: aa           	tax
     a29: 85 13        	sta	$13                     ; 0x13 <__rc3>
     a2b: 20 68 ff     	jsr	$ff68 <end_block9+0xd09a>
     a2e: 92 2c        	sta	($2c)                   ; 0x2c <__rc28>
     a30: a9 00        	lda	#$0
     a32: 6a           	ror
     a33: 85 14        	sta	$14                     ; 0x14 <__rc4>
     a35: b2 12        	lda	($12)                   ; 0x12 <__rc2>
     a37: 85 18        	sta	$18                     ; 0x18 <__rc8>
     a39: b1 12        	lda	($12),y                 ; 0x12 <__rc2>
     a3b: 85 14        	sta	$14                     ; 0x14 <__rc4>
     a3d: a9 fe        	lda	#$fe
     a3f: 32 12        	and	($12)                   ; 0x12 <__rc2>
     a41: 85 15        	sta	$15                     ; 0x15 <__rc5>
     a43: a4 16        	ldy	$16                     ; 0x16 <__rc6>
     a45: 84 1a        	sty	$1a                     ; 0x1a <__rc10>
     a47: a5 16        	lda	$16                     ; 0x16 <__rc6>
     a49: 18           	clc
     a4a: 65 15        	adc	$15                     ; 0x15 <__rc5>
     a4c: a8           	tay
     a4d: 8a           	txa
     a4e: 86 19        	stx	$19                     ; 0x19 <__rc9>
     a50: 65 14        	adc	$14                     ; 0x14 <__rc4>
     a52: 48           	pha
     a53: 5a           	phy
     a54: a0 0b        	ldy	#$b
     a56: b1 10        	lda	($10),y                 ; 0x10 <__rc0>
     a58: 7a           	ply
     a59: 85 25        	sta	$25                     ; 0x25 <__rc21>
     a5b: 68           	pla
     a5c: c5 25        	cmp	$25                     ; 0x25 <__rc21>
     a5e: d0 1f        	bne	$a7f <main+0x606>
     a60: 48           	pha
     a61: 5a           	phy
     a62: a0 0a        	ldy	#$a
     a64: b1 10        	lda	($10),y                 ; 0x10 <__rc0>
     a66: 7a           	ply
     a67: 85 16        	sta	$16                     ; 0x16 <__rc6>
     a69: 68           	pla
     a6a: c4 16        	cpy	$16                     ; 0x16 <__rc6>
     a6c: d0 11        	bne	$a7f <main+0x606>
     a6e: a2 00        	ldx	#$0
     a70: 86 16        	stx	$16                     ; 0x16 <__rc6>
     a72: a2 00        	ldx	#$0
     a74: 86 17        	stx	$17                     ; 0x17 <__rc7>
     a76: a5 18        	lda	$18                     ; 0x18 <__rc8>
     a78: 29 01        	and	#$1
     a7a: d0 10        	bne	$a8c <main+0x613>
     a7c: 4c 9b 0c     	jmp	$c9b <main+0x822>
     a7f: 84 16        	sty	$16                     ; 0x16 <__rc6>
     a81: 85 17        	sta	$17                     ; 0x17 <__rc7>
     a83: a5 18        	lda	$18                     ; 0x18 <__rc8>
     a85: 29 01        	and	#$1
     a87: d0 03        	bne	$a8c <main+0x613>
     a89: 4c 9b 0c     	jmp	$c9b <main+0x822>
     a8c: a5 26        	lda	$26                     ; 0x26 <__rc22>
     a8e: 18           	clc
     a8f: 69 fc        	adc	#$fc
     a91: 85 12        	sta	$12                     ; 0x12 <__rc2>
     a93: a5 27        	lda	$27                     ; 0x27 <__rc23>
     a95: 69 ff        	adc	#$ff
     a97: 85 13        	sta	$13                     ; 0x13 <__rc3>
     a99: a0 01        	ldy	#$1
     a9b: 38           	sec
     a9c: a9 00        	lda	#$0
     a9e: f2 12        	sbc	($12)                   ; 0x12 <__rc2>
     aa0: 85 18        	sta	$18                     ; 0x18 <__rc8>
     aa2: a9 00        	lda	#$0
     aa4: f1 12        	sbc	($12),y                 ; 0x12 <__rc2>
     aa6: 85 13        	sta	$13                     ; 0x13 <__rc3>
     aa8: a5 1a        	lda	$1a                     ; 0x1a <__rc10>
     aaa: 18           	clc
     aab: 65 18        	adc	$18                     ; 0x18 <__rc8>
     aad: 85 12        	sta	$12                     ; 0x12 <__rc2>
     aaf: 85 1a        	sta	$1a                     ; 0x1a <__rc10>
     ab1: a5 19        	lda	$19                     ; 0x19 <__rc9>
     ab3: 65 13        	adc	$13                     ; 0x13 <__rc3>
     ab5: 85 13        	sta	$13                     ; 0x13 <__rc3>
     ab7: aa           	tax
     ab8: b1 12        	lda	($12),y                 ; 0x12 <__rc2>
     aba: 85 1b        	sta	$1b                     ; 0x1b <__rc11>
     abc: a9 fe        	lda	#$fe
     abe: 32 12        	and	($12)                   ; 0x12 <__rc2>
     ac0: ac ca 2e     	ldy	$2eca                   ; 0x2eca <_ZN12_GLOBAL__N_19free_sizeE>
     ac3: 85 1d        	sta	$1d                     ; 0x1d <__rc13>
     ac5: 85 18        	sta	$18                     ; 0x18 <__rc8>
     ac7: 38           	sec
     ac8: 98           	tya
     ac9: e5 18        	sbc	$18                     ; 0x18 <__rc8>
     acb: 85 19        	sta	$19                     ; 0x19 <__rc9>
     acd: a4 1b        	ldy	$1b                     ; 0x1b <__rc11>
     acf: 84 1c        	sty	$1c                     ; 0x1c <__rc12>
     ad1: 84 18        	sty	$18                     ; 0x18 <__rc8>
     ad3: ad cb 2e     	lda	$2ecb                   ; 0x2ecb <_ZN12_GLOBAL__N_19free_sizeE+0x1>
     ad6: e5 18        	sbc	$18                     ; 0x18 <__rc8>
     ad8: a8           	tay
     ad9: 18           	clc
     ada: a5 19        	lda	$19                     ; 0x19 <__rc9>
     adc: 69 02        	adc	#$2
     ade: 85 18        	sta	$18                     ; 0x18 <__rc8>
     ae0: 98           	tya
     ae1: 69 00        	adc	#$0
     ae3: a4 18        	ldy	$18                     ; 0x18 <__rc8>
     ae5: 8c ca 2e     	sty	$2eca                   ; 0x2eca <_ZN12_GLOBAL__N_19free_sizeE>
     ae8: 8d cb 2e     	sta	$2ecb                   ; 0x2ecb <_ZN12_GLOBAL__N_19free_sizeE+0x1>
     aeb: a4 1a        	ldy	$1a                     ; 0x1a <__rc10>
     aed: 84 1b        	sty	$1b                     ; 0x1b <__rc11>
     aef: a5 1a        	lda	$1a                     ; 0x1a <__rc10>
     af1: 18           	clc
     af2: 69 02        	adc	#$2
     af4: 85 18        	sta	$18                     ; 0x18 <__rc8>
     af6: 86 1a        	stx	$1a                     ; 0x1a <__rc10>
     af8: 8a           	txa
     af9: 69 00        	adc	#$0
     afb: a0 02        	ldy	#$2
     afd: 85 19        	sta	$19                     ; 0x19 <__rc9>
     aff: b1 12        	lda	($12),y                 ; 0x12 <__rc2>
     b01: aa           	tax
     b02: 88           	dey
     b03: b1 18        	lda	($18),y                 ; 0x18 <__rc8>
     b05: 85 1f        	sta	$1f                     ; 0x1f <__rc15>
     b07: c5 13        	cmp	$13                     ; 0x13 <__rc3>
     b09: f0 03        	beq	$b0e <main+0x695>
     b0b: 4c 01 0c     	jmp	$c01 <main+0x788>
     b0e: e4 12        	cpx	$12                     ; 0x12 <__rc2>
     b10: f0 03        	beq	$b15 <main+0x69c>
     b12: 4c 01 0c     	jmp	$c01 <main+0x788>
     b15: a2 00        	ldx	#$0
     b17: 86 18        	stx	$18                     ; 0x18 <__rc8>
     b19: a2 00        	ldx	#$0
     b1b: 86 19        	stx	$19                     ; 0x19 <__rc9>
     b1d: 4c 84 0c     	jmp	$c84 <main+0x80b>
     b20: b2 2c        	lda	($2c)                   ; 0x2c <__rc28>
     b22: 85 2e        	sta	$2e                     ; 0x2e <__rc30>
     b24: 64 35        	stz	$35                     ; 0x35 <kernelEventData>
     b26: 20 00 ff     	jsr	$ff00 <end_block9+0xd032>
     b29: 92 2c        	sta	($2c)                   ; 0x2c <__rc28>
     b2b: a9 00        	lda	#$0
     b2d: 6a           	ror
     b2e: 85 12        	sta	$12                     ; 0x12 <__rc2>
     b30: a6 35        	ldx	$35                     ; 0x35 <kernelEventData>
     b32: e0 28        	cpx	#$28
     b34: d0 03        	bne	$b39 <main+0x6c0>
     b36: 4c 76 09     	jmp	$976 <main+0x4fd>
     b39: e0 38        	cpx	#$38
     b3b: d0 03        	bne	$b40 <main+0x6c7>
     b3d: 4c 76 09     	jmp	$976 <main+0x4fd>
     b40: e0 2a        	cpx	#$2a
     b42: d0 e0        	bne	$b24 <main+0x6ab>
     b44: ad c8 2e     	lda	$2ec8                   ; 0x2ec8 <_ZN12_GLOBAL__N_111initializedE>
     b47: 29 01        	and	#$1
     b49: ae cc 2e     	ldx	$2ecc                   ; 0x2ecc <_ZN12_GLOBAL__N_19free_listE>
     b4c: ac cd 2e     	ldy	$2ecd                   ; 0x2ecd <_ZN12_GLOBAL__N_19free_listE+0x1>
     b4f: 86 12        	stx	$12                     ; 0x12 <__rc2>
     b51: 84 13        	sty	$13                     ; 0x13 <__rc3>
     b53: c9 00        	cmp	#$0
     b55: f0 03        	beq	$b5a <main+0x6e1>
     b57: 4c 5c 10     	jmp	$105c <main+0xbe3>
     b5a: 86 16        	stx	$16                     ; 0x16 <__rc6>
     b5c: a2 10        	ldx	#$10
     b5e: 86 14        	stx	$14                     ; 0x14 <__rc4>
     b60: a9 00        	lda	#$0
     b62: 29 fe        	and	#$fe
     b64: 85 15        	sta	$15                     ; 0x15 <__rc5>
     b66: a9 01        	lda	#$1
     b68: 2d ce 2e     	and	$2ece                   ; 0x2ece <end_block9>
     b6b: 05 15        	ora	$15                     ; 0x15 <__rc5>
     b6d: 8d ce 2e     	sta	$2ece                   ; 0x2ece <end_block9>
     b70: 8e cf 2e     	stx	$2ecf                   ; 0x2ecf <end_block9+0x1>
     b73: a9 ce        	lda	#$ce
     b75: 18           	clc
     b76: 65 15        	adc	$15                     ; 0x15 <__rc5>
     b78: aa           	tax
     b79: a9 2e        	lda	#$2e
     b7b: 65 14        	adc	$14                     ; 0x14 <__rc4>
     b7d: 85 14        	sta	$14                     ; 0x14 <__rc4>
     b7f: 18           	clc
     b80: 8a           	txa
     b81: 69 fe        	adc	#$fe
     b83: aa           	tax
     b84: a5 14        	lda	$14                     ; 0x14 <__rc4>
     b86: 69 ff        	adc	#$ff
     b88: 85 15        	sta	$15                     ; 0x15 <__rc5>
     b8a: 86 14        	stx	$14                     ; 0x14 <__rc4>
     b8c: a9 00        	lda	#$0
     b8e: 92 14        	sta	($14)                   ; 0x14 <__rc4>
     b90: 5a           	phy
     b91: fa           	plx
     b92: a0 01        	ldy	#$1
     b94: a9 10        	lda	#$10
     b96: 91 14        	sta	($14),y                 ; 0x14 <__rc4>
     b98: ac cf 2e     	ldy	$2ecf                   ; 0x2ecf <end_block9+0x1>
     b9b: 84 19        	sty	$19                     ; 0x19 <__rc9>
     b9d: a9 fe        	lda	#$fe
     b9f: 2d ce 2e     	and	$2ece                   ; 0x2ece <end_block9>
     ba2: ac cb 2e     	ldy	$2ecb                   ; 0x2ecb <_ZN12_GLOBAL__N_19free_sizeE+0x1>
     ba5: 84 14        	sty	$14                     ; 0x14 <__rc4>
     ba7: 18           	clc
     ba8: 85 18        	sta	$18                     ; 0x18 <__rc8>
     baa: 6d ca 2e     	adc	$2eca                   ; 0x2eca <_ZN12_GLOBAL__N_19free_sizeE>
     bad: a8           	tay
     bae: a5 14        	lda	$14                     ; 0x14 <__rc4>
     bb0: 6d cf 2e     	adc	$2ecf                   ; 0x2ecf <end_block9+0x1>
     bb3: 85 14        	sta	$14                     ; 0x14 <__rc4>
     bb5: 18           	clc
     bb6: 98           	tya
     bb7: 69 fe        	adc	#$fe
     bb9: 85 15        	sta	$15                     ; 0x15 <__rc5>
     bbb: a5 14        	lda	$14                     ; 0x14 <__rc4>
     bbd: 69 ff        	adc	#$ff
     bbf: a4 15        	ldy	$15                     ; 0x15 <__rc5>
     bc1: 8c ca 2e     	sty	$2eca                   ; 0x2eca <_ZN12_GLOBAL__N_19free_sizeE>
     bc4: 8d cb 2e     	sta	$2ecb                   ; 0x2ecb <_ZN12_GLOBAL__N_19free_sizeE+0x1>
     bc7: a0 00        	ldy	#$0
     bc9: 84 14        	sty	$14                     ; 0x14 <__rc4>
     bcb: a0 00        	ldy	#$0
     bcd: 84 15        	sty	$15                     ; 0x15 <__rc5>
     bcf: 8a           	txa
     bd0: e4 15        	cpx	$15                     ; 0x15 <__rc5>
     bd2: f0 03        	beq	$bd7 <main+0x75e>
     bd4: 4c e1 0f     	jmp	$fe1 <main+0xb68>
     bd7: a6 16        	ldx	$16                     ; 0x16 <__rc6>
     bd9: e4 14        	cpx	$14                     ; 0x14 <__rc4>
     bdb: f0 03        	beq	$be0 <main+0x767>
     bdd: 4c e1 0f     	jmp	$fe1 <main+0xb68>
     be0: a2 ce        	ldx	#$ce
     be2: a9 2e        	lda	#$2e
     be4: a0 ce        	ldy	#$ce
     be6: 84 12        	sty	$12                     ; 0x12 <__rc2>
     be8: a0 2e        	ldy	#$2e
     bea: 84 13        	sty	$13                     ; 0x13 <__rc3>
     bec: 8e d2 2e     	stx	$2ed2                   ; 0x2ed2 <end_block9+0x4>
     bef: 8d d3 2e     	sta	$2ed3                   ; 0x2ed3 <end_block9+0x5>
     bf2: 8e d0 2e     	stx	$2ed0                   ; 0x2ed0 <end_block9+0x2>
     bf5: 8d d1 2e     	sta	$2ed1                   ; 0x2ed1 <end_block9+0x3>
     bf8: 8e cc 2e     	stx	$2ecc                   ; 0x2ecc <_ZN12_GLOBAL__N_19free_listE>
     bfb: 8d cd 2e     	sta	$2ecd                   ; 0x2ecd <_ZN12_GLOBAL__N_19free_listE+0x1>
     bfe: 4c 4a 10     	jmp	$104a <main+0xbd1>
     c01: 86 1e        	stx	$1e                     ; 0x1e <__rc14>
     c03: 18           	clc
     c04: a5 1b        	lda	$1b                     ; 0x1b <__rc11>
     c06: a6 1b        	ldx	$1b                     ; 0x1b <__rc11>
     c08: 86 22        	stx	$22                     ; 0x22 <__rc18>
     c0a: 69 04        	adc	#$4
     c0c: 85 18        	sta	$18                     ; 0x18 <__rc8>
     c0e: a6 1a        	ldx	$1a                     ; 0x1a <__rc10>
     c10: 86 23        	stx	$23                     ; 0x23 <__rc19>
     c12: a5 1a        	lda	$1a                     ; 0x1a <__rc10>
     c14: 69 00        	adc	#$0
     c16: a0 04        	ldy	#$4
     c18: 85 19        	sta	$19                     ; 0x19 <__rc9>
     c1a: b1 12        	lda	($12),y                 ; 0x12 <__rc2>
     c1c: 85 24        	sta	$24                     ; 0x24 <__rc20>
     c1e: 18           	clc
     c1f: 69 02        	adc	#$2
     c21: 85 1a        	sta	$1a                     ; 0x1a <__rc10>
     c23: a0 01        	ldy	#$1
     c25: b1 18        	lda	($18),y                 ; 0x18 <__rc8>
     c27: aa           	tax
     c28: 69 00        	adc	#$0
     c2a: a4 1a        	ldy	$1a                     ; 0x1a <__rc10>
     c2c: 84 18        	sty	$18                     ; 0x18 <__rc8>
     c2e: 85 19        	sta	$19                     ; 0x19 <__rc9>
     c30: a4 24        	ldy	$24                     ; 0x24 <__rc20>
     c32: 84 1a        	sty	$1a                     ; 0x1a <__rc10>
     c34: 86 1b        	stx	$1b                     ; 0x1b <__rc11>
     c36: a0 02        	ldy	#$2
     c38: a5 1e        	lda	$1e                     ; 0x1e <__rc14>
     c3a: 91 1a        	sta	($1a),y                 ; 0x1a <__rc10>
     c3c: a5 1f        	lda	$1f                     ; 0x1f <__rc15>
     c3e: 88           	dey
     c3f: 91 18        	sta	($18),y                 ; 0x18 <__rc8>
     c41: 18           	clc
     c42: a5 22        	lda	$22                     ; 0x22 <__rc18>
     c44: 69 02        	adc	#$2
     c46: 85 18        	sta	$18                     ; 0x18 <__rc8>
     c48: a5 23        	lda	$23                     ; 0x23 <__rc19>
     c4a: 69 00        	adc	#$0
     c4c: 85 19        	sta	$19                     ; 0x19 <__rc9>
     c4e: c8           	iny
     c4f: b1 12        	lda	($12),y                 ; 0x12 <__rc2>
     c51: 85 1a        	sta	$1a                     ; 0x1a <__rc10>
     c53: 88           	dey
     c54: b1 18        	lda	($18),y                 ; 0x18 <__rc8>
     c56: a4 1a        	ldy	$1a                     ; 0x1a <__rc10>
     c58: 84 18        	sty	$18                     ; 0x18 <__rc8>
     c5a: 85 19        	sta	$19                     ; 0x19 <__rc9>
     c5c: 85 1b        	sta	$1b                     ; 0x1b <__rc11>
     c5e: a0 04        	ldy	#$4
     c60: a5 24        	lda	$24                     ; 0x24 <__rc20>
     c62: 91 18        	sta	($18),y                 ; 0x18 <__rc8>
     c64: 18           	clc
     c65: a5 1a        	lda	$1a                     ; 0x1a <__rc10>
     c67: 69 04        	adc	#$4
     c69: 85 1a        	sta	$1a                     ; 0x1a <__rc10>
     c6b: a5 1b        	lda	$1b                     ; 0x1b <__rc11>
     c6d: 69 00        	adc	#$0
     c6f: 85 1b        	sta	$1b                     ; 0x1b <__rc11>
     c71: 8a           	txa
     c72: a0 01        	ldy	#$1
     c74: 91 1a        	sta	($1a),y                 ; 0x1a <__rc10>
     c76: ae cd 2e     	ldx	$2ecd                   ; 0x2ecd <_ZN12_GLOBAL__N_19free_listE+0x1>
     c79: e4 13        	cpx	$13                     ; 0x13 <__rc3>
     c7b: d0 11        	bne	$c8e <main+0x815>
     c7d: ae cc 2e     	ldx	$2ecc                   ; 0x2ecc <_ZN12_GLOBAL__N_19free_listE>
     c80: e4 12        	cpx	$12                     ; 0x12 <__rc2>
     c82: d0 0a        	bne	$c8e <main+0x815>
     c84: a6 18        	ldx	$18                     ; 0x18 <__rc8>
     c86: a4 19        	ldy	$19                     ; 0x19 <__rc9>
     c88: 8e cc 2e     	stx	$2ecc                   ; 0x2ecc <_ZN12_GLOBAL__N_19free_listE>
     c8b: 8c cd 2e     	sty	$2ecd                   ; 0x2ecd <_ZN12_GLOBAL__N_19free_listE+0x1>
     c8e: 18           	clc
     c8f: a5 1d        	lda	$1d                     ; 0x1d <__rc13>
     c91: 65 15        	adc	$15                     ; 0x15 <__rc5>
     c93: 85 15        	sta	$15                     ; 0x15 <__rc5>
     c95: a5 1c        	lda	$1c                     ; 0x1c <__rc12>
     c97: 65 14        	adc	$14                     ; 0x14 <__rc4>
     c99: 85 14        	sta	$14                     ; 0x14 <__rc4>
     c9b: a2 00        	ldx	#$0
     c9d: 86 18        	stx	$18                     ; 0x18 <__rc8>
     c9f: a2 00        	ldx	#$0
     ca1: 86 19        	stx	$19                     ; 0x19 <__rc9>
     ca3: a6 17        	ldx	$17                     ; 0x17 <__rc7>
     ca5: e4 19        	cpx	$19                     ; 0x19 <__rc9>
     ca7: d0 0e        	bne	$cb7 <main+0x83e>
     ca9: a6 16        	ldx	$16                     ; 0x16 <__rc6>
     cab: e4 18        	cpx	$18                     ; 0x18 <__rc8>
     cad: d0 08        	bne	$cb7 <main+0x83e>
     caf: a2 01        	ldx	#$1
     cb1: 8e c9 2e     	stx	$2ec9                   ; 0x2ec9 <_ZN12_GLOBAL__N_19last_freeE>
     cb4: 4c ed 0d     	jmp	$ded <main+0x974>
     cb7: a0 01        	ldy	#$1
     cb9: b1 16        	lda	($16),y                 ; 0x16 <__rc6>
     cbb: a8           	tay
     cbc: a9 fe        	lda	#$fe
     cbe: 32 16        	and	($16)                   ; 0x16 <__rc6>
     cc0: 18           	clc
     cc1: 85 1d        	sta	$1d                     ; 0x1d <__rc13>
     cc3: 65 16        	adc	$16                     ; 0x16 <__rc6>
     cc5: aa           	tax
     cc6: 98           	tya
     cc7: 84 1c        	sty	$1c                     ; 0x1c <__rc12>
     cc9: 65 17        	adc	$17                     ; 0x17 <__rc7>
     ccb: c5 25        	cmp	$25                     ; 0x25 <__rc21>
     ccd: d0 19        	bne	$ce8 <main+0x86f>
     ccf: 48           	pha
     cd0: a0 0a        	ldy	#$a
     cd2: b1 10        	lda	($10),y                 ; 0x10 <__rc0>
     cd4: 85 18        	sta	$18                     ; 0x18 <__rc8>
     cd6: 68           	pla
     cd7: e4 18        	cpx	$18                     ; 0x18 <__rc8>
     cd9: d0 0d        	bne	$ce8 <main+0x86f>
     cdb: a9 01        	lda	#$1
     cdd: 64 18        	stz	$18                     ; 0x18 <__rc8>
     cdf: 2d c9 2e     	and	$2ec9                   ; 0x2ec9 <_ZN12_GLOBAL__N_19last_freeE>
     ce2: a6 18        	ldx	$18                     ; 0x18 <__rc8>
     ce4: d0 16        	bne	$cfc <main+0x883>
     ce6: 80 0e        	bra	$cf6 <main+0x87d>
     ce8: 86 18        	stx	$18                     ; 0x18 <__rc8>
     cea: 85 19        	sta	$19                     ; 0x19 <__rc9>
     cec: a9 01        	lda	#$1
     cee: 32 18        	and	($18)                   ; 0x18 <__rc8>
     cf0: 64 18        	stz	$18                     ; 0x18 <__rc8>
     cf2: a6 18        	ldx	$18                     ; 0x18 <__rc8>
     cf4: d0 06        	bne	$cfc <main+0x883>
     cf6: aa           	tax
     cf7: d0 03        	bne	$cfc <main+0x883>
     cf9: 4c e1 0d     	jmp	$de1 <main+0x968>
     cfc: ad ca 2e     	lda	$2eca                   ; 0x2eca <_ZN12_GLOBAL__N_19free_sizeE>
     cff: ae cb 2e     	ldx	$2ecb                   ; 0x2ecb <_ZN12_GLOBAL__N_19free_sizeE+0x1>
     d02: 86 19        	stx	$19                     ; 0x19 <__rc9>
     d04: 38           	sec
     d05: e5 1d        	sbc	$1d                     ; 0x1d <__rc13>
     d07: aa           	tax
     d08: a5 19        	lda	$19                     ; 0x19 <__rc9>
     d0a: e5 1c        	sbc	$1c                     ; 0x1c <__rc12>
     d0c: 85 18        	sta	$18                     ; 0x18 <__rc8>
     d0e: 18           	clc
     d0f: 8a           	txa
     d10: 69 02        	adc	#$2
     d12: 85 19        	sta	$19                     ; 0x19 <__rc9>
     d14: a5 18        	lda	$18                     ; 0x18 <__rc8>
     d16: 69 00        	adc	#$0
     d18: a6 19        	ldx	$19                     ; 0x19 <__rc9>
     d1a: 8e ca 2e     	stx	$2eca                   ; 0x2eca <_ZN12_GLOBAL__N_19free_sizeE>
     d1d: 8d cb 2e     	sta	$2ecb                   ; 0x2ecb <_ZN12_GLOBAL__N_19free_sizeE+0x1>
     d20: a5 16        	lda	$16                     ; 0x16 <__rc6>
     d22: 18           	clc
     d23: 69 02        	adc	#$2
     d25: 85 18        	sta	$18                     ; 0x18 <__rc8>
     d27: a5 17        	lda	$17                     ; 0x17 <__rc7>
     d29: 69 00        	adc	#$0
     d2b: a0 02        	ldy	#$2
     d2d: 85 19        	sta	$19                     ; 0x19 <__rc9>
     d2f: b1 16        	lda	($16),y                 ; 0x16 <__rc6>
     d31: aa           	tax
     d32: 88           	dey
     d33: b1 18        	lda	($18),y                 ; 0x18 <__rc8>
     d35: 85 1f        	sta	$1f                     ; 0x1f <__rc15>
     d37: c5 17        	cmp	$17                     ; 0x17 <__rc7>
     d39: d0 0f        	bne	$d4a <main+0x8d1>
     d3b: e4 16        	cpx	$16                     ; 0x16 <__rc6>
     d3d: d0 0b        	bne	$d4a <main+0x8d1>
     d3f: a2 00        	ldx	#$0
     d41: 86 18        	stx	$18                     ; 0x18 <__rc8>
     d43: a2 00        	ldx	#$0
     d45: 86 19        	stx	$19                     ; 0x19 <__rc9>
     d47: 4c c9 0d     	jmp	$dc9 <main+0x950>
     d4a: 86 1e        	stx	$1e                     ; 0x1e <__rc14>
     d4c: a6 16        	ldx	$16                     ; 0x16 <__rc6>
     d4e: a5 16        	lda	$16                     ; 0x16 <__rc6>
     d50: 86 23        	stx	$23                     ; 0x23 <__rc19>
     d52: 18           	clc
     d53: 69 04        	adc	#$4
     d55: 85 18        	sta	$18                     ; 0x18 <__rc8>
     d57: a5 17        	lda	$17                     ; 0x17 <__rc7>
     d59: 69 00        	adc	#$0
     d5b: a0 04        	ldy	#$4
     d5d: 85 19        	sta	$19                     ; 0x19 <__rc9>
     d5f: b1 16        	lda	($16),y                 ; 0x16 <__rc6>
     d61: 85 24        	sta	$24                     ; 0x24 <__rc20>
     d63: 18           	clc
     d64: 69 02        	adc	#$2
     d66: 85 1a        	sta	$1a                     ; 0x1a <__rc10>
     d68: a0 01        	ldy	#$1
     d6a: b1 18        	lda	($18),y                 ; 0x18 <__rc8>
     d6c: aa           	tax
     d6d: 69 00        	adc	#$0
     d6f: a4 1a        	ldy	$1a                     ; 0x1a <__rc10>
     d71: 84 18        	sty	$18                     ; 0x18 <__rc8>
     d73: 85 19        	sta	$19                     ; 0x19 <__rc9>
     d75: a4 24        	ldy	$24                     ; 0x24 <__rc20>
     d77: 84 1a        	sty	$1a                     ; 0x1a <__rc10>
     d79: 86 1b        	stx	$1b                     ; 0x1b <__rc11>
     d7b: a0 02        	ldy	#$2
     d7d: a5 1e        	lda	$1e                     ; 0x1e <__rc14>
     d7f: 91 1a        	sta	($1a),y                 ; 0x1a <__rc10>
     d81: a5 1f        	lda	$1f                     ; 0x1f <__rc15>
     d83: 88           	dey
     d84: 91 18        	sta	($18),y                 ; 0x18 <__rc8>
     d86: 18           	clc
     d87: a5 23        	lda	$23                     ; 0x23 <__rc19>
     d89: 69 02        	adc	#$2
     d8b: 85 18        	sta	$18                     ; 0x18 <__rc8>
     d8d: a5 17        	lda	$17                     ; 0x17 <__rc7>
     d8f: 69 00        	adc	#$0
     d91: 85 19        	sta	$19                     ; 0x19 <__rc9>
     d93: c8           	iny
     d94: b1 16        	lda	($16),y                 ; 0x16 <__rc6>
     d96: 85 1a        	sta	$1a                     ; 0x1a <__rc10>
     d98: 88           	dey
     d99: b1 18        	lda	($18),y                 ; 0x18 <__rc8>
     d9b: a4 1a        	ldy	$1a                     ; 0x1a <__rc10>
     d9d: 84 18        	sty	$18                     ; 0x18 <__rc8>
     d9f: 85 19        	sta	$19                     ; 0x19 <__rc9>
     da1: 85 1b        	sta	$1b                     ; 0x1b <__rc11>
     da3: a0 04        	ldy	#$4
     da5: a5 24        	lda	$24                     ; 0x24 <__rc20>
     da7: 91 18        	sta	($18),y                 ; 0x18 <__rc8>
     da9: 18           	clc
     daa: a5 1a        	lda	$1a                     ; 0x1a <__rc10>
     dac: 69 04        	adc	#$4
     dae: 85 1a        	sta	$1a                     ; 0x1a <__rc10>
     db0: a5 1b        	lda	$1b                     ; 0x1b <__rc11>
     db2: 69 00        	adc	#$0
     db4: 85 1b        	sta	$1b                     ; 0x1b <__rc11>
     db6: 8a           	txa
     db7: a0 01        	ldy	#$1
     db9: 91 1a        	sta	($1a),y                 ; 0x1a <__rc10>
     dbb: ae cd 2e     	ldx	$2ecd                   ; 0x2ecd <_ZN12_GLOBAL__N_19free_listE+0x1>
     dbe: e4 17        	cpx	$17                     ; 0x17 <__rc7>
     dc0: d0 11        	bne	$dd3 <main+0x95a>
     dc2: ae cc 2e     	ldx	$2ecc                   ; 0x2ecc <_ZN12_GLOBAL__N_19free_listE>
     dc5: e4 16        	cpx	$16                     ; 0x16 <__rc6>
     dc7: d0 0a        	bne	$dd3 <main+0x95a>
     dc9: a6 18        	ldx	$18                     ; 0x18 <__rc8>
     dcb: a4 19        	ldy	$19                     ; 0x19 <__rc9>
     dcd: 8e cc 2e     	stx	$2ecc                   ; 0x2ecc <_ZN12_GLOBAL__N_19free_listE>
     dd0: 8c cd 2e     	sty	$2ecd                   ; 0x2ecd <_ZN12_GLOBAL__N_19free_listE+0x1>
     dd3: 18           	clc
     dd4: a5 1d        	lda	$1d                     ; 0x1d <__rc13>
     dd6: 65 15        	adc	$15                     ; 0x15 <__rc5>
     dd8: 85 15        	sta	$15                     ; 0x15 <__rc5>
     dda: a5 1c        	lda	$1c                     ; 0x1c <__rc12>
     ddc: 65 14        	adc	$14                     ; 0x14 <__rc4>
     dde: aa           	tax
     ddf: 80 0e        	bra	$def <main+0x976>
     de1: b2 16        	lda	($16)                   ; 0x16 <__rc6>
     de3: 09 01        	ora	#$1
     de5: 92 16        	sta	($16)                   ; 0x16 <__rc6>
     de7: a0 01        	ldy	#$1
     de9: a5 1c        	lda	$1c                     ; 0x1c <__rc12>
     deb: 91 16        	sta	($16),y                 ; 0x16 <__rc6>
     ded: a6 14        	ldx	$14                     ; 0x14 <__rc4>
     def: a9 01        	lda	#$1
     df1: 32 12        	and	($12)                   ; 0x12 <__rc2>
     df3: a4 15        	ldy	$15                     ; 0x15 <__rc5>
     df5: 84 16        	sty	$16                     ; 0x16 <__rc6>
     df7: 05 15        	ora	$15                     ; 0x15 <__rc5>
     df9: 92 12        	sta	($12)                   ; 0x12 <__rc2>
     dfb: a5 12        	lda	$12                     ; 0x12 <__rc2>
     dfd: 18           	clc
     dfe: 65 15        	adc	$15                     ; 0x15 <__rc5>
     e00: a8           	tay
     e01: 8a           	txa
     e02: 65 13        	adc	$13                     ; 0x13 <__rc3>
     e04: 85 15        	sta	$15                     ; 0x15 <__rc5>
     e06: 18           	clc
     e07: 98           	tya
     e08: 69 fe        	adc	#$fe
     e0a: 85 14        	sta	$14                     ; 0x14 <__rc4>
     e0c: a5 15        	lda	$15                     ; 0x15 <__rc5>
     e0e: 69 ff        	adc	#$ff
     e10: 85 15        	sta	$15                     ; 0x15 <__rc5>
     e12: a0 01        	ldy	#$1
     e14: 8a           	txa
     e15: 91 12        	sta	($12),y                 ; 0x12 <__rc2>
     e17: a5 16        	lda	$16                     ; 0x16 <__rc6>
     e19: 92 14        	sta	($14)                   ; 0x14 <__rc4>
     e1b: 8a           	txa
     e1c: 91 14        	sta	($14),y                 ; 0x14 <__rc4>
     e1e: b1 12        	lda	($12),y                 ; 0x12 <__rc2>
     e20: 85 14        	sta	$14                     ; 0x14 <__rc4>
     e22: a9 fe        	lda	#$fe
     e24: 32 12        	and	($12)                   ; 0x12 <__rc2>
     e26: 18           	clc
     e27: 6d ca 2e     	adc	$2eca                   ; 0x2eca <_ZN12_GLOBAL__N_19free_sizeE>
     e2a: aa           	tax
     e2b: a5 14        	lda	$14                     ; 0x14 <__rc4>
     e2d: 6d cb 2e     	adc	$2ecb                   ; 0x2ecb <_ZN12_GLOBAL__N_19free_sizeE+0x1>
     e30: 85 14        	sta	$14                     ; 0x14 <__rc4>
     e32: 18           	clc
     e33: 8a           	txa
     e34: 69 fe        	adc	#$fe
     e36: 85 15        	sta	$15                     ; 0x15 <__rc5>
     e38: a5 14        	lda	$14                     ; 0x14 <__rc4>
     e3a: 69 ff        	adc	#$ff
     e3c: a6 15        	ldx	$15                     ; 0x15 <__rc5>
     e3e: 8e ca 2e     	stx	$2eca                   ; 0x2eca <_ZN12_GLOBAL__N_19free_sizeE>
     e41: 8d cb 2e     	sta	$2ecb                   ; 0x2ecb <_ZN12_GLOBAL__N_19free_sizeE+0x1>
     e44: ad cc 2e     	lda	$2ecc                   ; 0x2ecc <_ZN12_GLOBAL__N_19free_listE>
     e47: ac cd 2e     	ldy	$2ecd                   ; 0x2ecd <_ZN12_GLOBAL__N_19free_listE+0x1>
     e4a: a2 00        	ldx	#$0
     e4c: 86 14        	stx	$14                     ; 0x14 <__rc4>
     e4e: a2 00        	ldx	#$0
     e50: 86 15        	stx	$15                     ; 0x15 <__rc5>
     e52: 84 17        	sty	$17                     ; 0x17 <__rc7>
     e54: c4 15        	cpy	$15                     ; 0x15 <__rc5>
     e56: d0 3e        	bne	$e96 <main+0xa1d>
     e58: c5 14        	cmp	$14                     ; 0x14 <__rc4>
     e5a: d0 3a        	bne	$e96 <main+0xa1d>
     e5c: a0 04        	ldy	#$4
     e5e: 18           	clc
     e5f: a5 12        	lda	$12                     ; 0x12 <__rc2>
     e61: 69 04        	adc	#$4
     e63: 85 14        	sta	$14                     ; 0x14 <__rc4>
     e65: a5 13        	lda	$13                     ; 0x13 <__rc3>
     e67: 69 00        	adc	#$0
     e69: 18           	clc
     e6a: 85 15        	sta	$15                     ; 0x15 <__rc5>
     e6c: a5 12        	lda	$12                     ; 0x12 <__rc2>
     e6e: 91 12        	sta	($12),y                 ; 0x12 <__rc2>
     e70: a0 02        	ldy	#$2
     e72: 85 17        	sta	$17                     ; 0x17 <__rc7>
     e74: 69 02        	adc	#$2
     e76: 85 16        	sta	$16                     ; 0x16 <__rc6>
     e78: a5 17        	lda	$17                     ; 0x17 <__rc7>
     e7a: 91 12        	sta	($12),y                 ; 0x12 <__rc2>
     e7c: a5 13        	lda	$13                     ; 0x13 <__rc3>
     e7e: 69 00        	adc	#$0
     e80: 85 17        	sta	$17                     ; 0x17 <__rc7>
     e82: 88           	dey
     e83: a5 13        	lda	$13                     ; 0x13 <__rc3>
     e85: 91 14        	sta	($14),y                 ; 0x14 <__rc4>
     e87: 91 16        	sta	($16),y                 ; 0x16 <__rc6>
     e89: a6 12        	ldx	$12                     ; 0x12 <__rc2>
     e8b: 8e cc 2e     	stx	$2ecc                   ; 0x2ecc <_ZN12_GLOBAL__N_19free_listE>
     e8e: a6 13        	ldx	$13                     ; 0x13 <__rc3>
     e90: 8e cd 2e     	stx	$2ecd                   ; 0x2ecd <_ZN12_GLOBAL__N_19free_listE+0x1>
     e93: 4c 30 0f     	jmp	$f30 <main+0xab7>
     e96: a6 12        	ldx	$12                     ; 0x12 <__rc2>
     e98: 18           	clc
     e99: a8           	tay
     e9a: a5 12        	lda	$12                     ; 0x12 <__rc2>
     e9c: 69 02        	adc	#$2
     e9e: 85 14        	sta	$14                     ; 0x14 <__rc4>
     ea0: a5 13        	lda	$13                     ; 0x13 <__rc3>
     ea2: 85 1c        	sta	$1c                     ; 0x1c <__rc12>
     ea4: a5 13        	lda	$13                     ; 0x13 <__rc3>
     ea6: 69 00        	adc	#$0
     ea8: 84 16        	sty	$16                     ; 0x16 <__rc6>
     eaa: 84 18        	sty	$18                     ; 0x18 <__rc8>
     eac: a4 17        	ldy	$17                     ; 0x17 <__rc7>
     eae: 84 19        	sty	$19                     ; 0x19 <__rc9>
     eb0: 85 15        	sta	$15                     ; 0x15 <__rc5>
     eb2: a0 02        	ldy	#$2
     eb4: a5 18        	lda	$18                     ; 0x18 <__rc8>
     eb6: 91 12        	sta	($12),y                 ; 0x12 <__rc2>
     eb8: 88           	dey
     eb9: a5 19        	lda	$19                     ; 0x19 <__rc9>
     ebb: 91 14        	sta	($14),y                 ; 0x14 <__rc4>
     ebd: 18           	clc
     ebe: a5 18        	lda	$18                     ; 0x18 <__rc8>
     ec0: 69 04        	adc	#$4
     ec2: 85 18        	sta	$18                     ; 0x18 <__rc8>
     ec4: a5 19        	lda	$19                     ; 0x19 <__rc9>
     ec6: 69 00        	adc	#$0
     ec8: 85 19        	sta	$19                     ; 0x19 <__rc9>
     eca: 18           	clc
     ecb: a5 12        	lda	$12                     ; 0x12 <__rc2>
     ecd: 69 04        	adc	#$4
     ecf: 85 1a        	sta	$1a                     ; 0x1a <__rc10>
     ed1: a5 13        	lda	$13                     ; 0x13 <__rc3>
     ed3: 69 00        	adc	#$0
     ed5: 85 1b        	sta	$1b                     ; 0x1b <__rc11>
     ed7: a0 04        	ldy	#$4
     ed9: b1 16        	lda	($16),y                 ; 0x16 <__rc6>
     edb: 85 16        	sta	$16                     ; 0x16 <__rc6>
     edd: 85 1d        	sta	$1d                     ; 0x1d <__rc13>
     edf: a0 01        	ldy	#$1
     ee1: b1 18        	lda	($18),y                 ; 0x18 <__rc8>
     ee3: 85 17        	sta	$17                     ; 0x17 <__rc7>
     ee5: 85 19        	sta	$19                     ; 0x19 <__rc9>
     ee7: a0 04        	ldy	#$4
     ee9: a5 1d        	lda	$1d                     ; 0x1d <__rc13>
     eeb: 91 12        	sta	($12),y                 ; 0x12 <__rc2>
     eed: a5 19        	lda	$19                     ; 0x19 <__rc9>
     eef: a0 01        	ldy	#$1
     ef1: 91 1a        	sta	($1a),y                 ; 0x1a <__rc10>
     ef3: 18           	clc
     ef4: a5 1d        	lda	$1d                     ; 0x1d <__rc13>
     ef6: 69 02        	adc	#$2
     ef8: 85 18        	sta	$18                     ; 0x18 <__rc8>
     efa: a5 19        	lda	$19                     ; 0x19 <__rc9>
     efc: 69 00        	adc	#$0
     efe: 85 19        	sta	$19                     ; 0x19 <__rc9>
     f00: a5 12        	lda	$12                     ; 0x12 <__rc2>
     f02: c8           	iny
     f03: 91 16        	sta	($16),y                 ; 0x16 <__rc6>
     f05: a5 13        	lda	$13                     ; 0x13 <__rc3>
     f07: 88           	dey
     f08: 91 18        	sta	($18),y                 ; 0x18 <__rc8>
     f0a: c8           	iny
     f0b: b1 12        	lda	($12),y                 ; 0x12 <__rc2>
     f0d: 85 12        	sta	$12                     ; 0x12 <__rc2>
     f0f: 85 16        	sta	$16                     ; 0x16 <__rc6>
     f11: 88           	dey
     f12: b1 14        	lda	($14),y                 ; 0x14 <__rc4>
     f14: 85 13        	sta	$13                     ; 0x13 <__rc3>
     f16: 85 14        	sta	$14                     ; 0x14 <__rc4>
     f18: 8a           	txa
     f19: a0 04        	ldy	#$4
     f1b: 91 12        	sta	($12),y                 ; 0x12 <__rc2>
     f1d: 18           	clc
     f1e: a5 16        	lda	$16                     ; 0x16 <__rc6>
     f20: 69 04        	adc	#$4
     f22: 85 12        	sta	$12                     ; 0x12 <__rc2>
     f24: a5 14        	lda	$14                     ; 0x14 <__rc4>
     f26: 69 00        	adc	#$0
     f28: 85 13        	sta	$13                     ; 0x13 <__rc3>
     f2a: a5 1c        	lda	$1c                     ; 0x1c <__rc12>
     f2c: a0 01        	ldy	#$1
     f2e: 91 12        	sta	($12),y                 ; 0x12 <__rc2>
     f30: a2 34        	ldx	#$34
     f32: 86 12        	stx	$12                     ; 0x12 <__rc2>
     f34: a2 00        	ldx	#$0
     f36: 86 13        	stx	$13                     ; 0x13 <__rc3>
     f38: 64 35        	stz	$35                     ; 0x35 <kernelEventData>
     f3a: 20 00 ff     	jsr	$ff00 <end_block9+0xd032>
     f3d: 92 2c        	sta	($2c)                   ; 0x2c <__rc28>
     f3f: a9 00        	lda	#$0
     f41: 6a           	ror
     f42: 85 12        	sta	$12                     ; 0x12 <__rc2>
     f44: a6 35        	ldx	$35                     ; 0x35 <kernelEventData>
     f46: e0 38        	cpx	#$38
     f48: f0 04        	beq	$f4e <main+0xad5>
     f4a: e0 32        	cpx	#$32
     f4c: d0 ea        	bne	$f38 <main+0xabf>
     f4e: a2 96        	ldx	#$96
     f50: 86 12        	stx	$12                     ; 0x12 <__rc2>
     f52: a2 2e        	ldx	#$2e
     f54: 86 13        	stx	$13                     ; 0x13 <__rc3>
     f56: 20 4f 18     	jsr	$184f <printf>
     f59: a2 34        	ldx	#$34
     f5b: 86 12        	stx	$12                     ; 0x12 <__rc2>
     f5d: a2 00        	ldx	#$0
     f5f: 86 13        	stx	$13                     ; 0x13 <__rc3>
     f61: 64 35        	stz	$35                     ; 0x35 <kernelEventData>
     f63: 20 00 ff     	jsr	$ff00 <end_block9+0xd032>
     f66: 92 2c        	sta	($2c)                   ; 0x2c <__rc28>
     f68: a9 00        	lda	#$0
     f6a: 6a           	ror
     f6b: 85 12        	sta	$12                     ; 0x12 <__rc2>
     f6d: a6 35        	ldx	$35                     ; 0x35 <kernelEventData>
     f6f: e0 08        	cpx	#$8
     f71: d0 ee        	bne	$f61 <main+0xae8>
     f73: a6 39        	ldx	$39                     ; 0x39 <kernelEventData+0x4>
     f75: e0 94        	cpx	#$94
     f77: f0 04        	beq	$f7d <main+0xb04>
     f79: e0 20        	cpx	#$20
     f7b: d0 e4        	bne	$f61 <main+0xae8>
     f7d: 78           	sei
     f7e: a2 07        	ldx	#$7
     f80: 86 0f        	stx	$f                      ; 0xf <__zp_bss_size+0x3>
     f82: a2 de        	ldx	#$de
     f84: 8e a2 d6     	stx	$d6a2                   ; 0xd6a2 <end_block9+0xa7d4>
     f87: a2 ad        	ldx	#$ad
     f89: 8e a3 d6     	stx	$d6a3                   ; 0xd6a3 <end_block9+0xa7d5>
     f8c: a2 f0        	ldx	#$f0
     f8e: 8e a0 d6     	stx	$d6a0                   ; 0xd6a0 <end_block9+0xa7d2>
     f91: 9c a0 d6     	stz	$d6a0                   ; 0xd6a0 <end_block9+0xa7d2>
     f94: 6c fc ff     	jmp	($fffc)                 ; 0xfffc <end_block9+0xd12e>
     f97: a2 00        	ldx	#$0
     f99: 8a           	txa
     f9a: 85 20        	sta	$20                     ; 0x20 <__rc16>
     f9c: a0 02        	ldy	#$2
     f9e: b1 10        	lda	($10),y                 ; 0x10 <__rc0>
     fa0: 85 2f        	sta	$2f                     ; 0x2f <__rc31>
     fa2: c8           	iny
     fa3: b1 10        	lda	($10),y                 ; 0x10 <__rc0>
     fa5: 85 2e        	sta	$2e                     ; 0x2e <__rc30>
     fa7: c8           	iny
     fa8: b1 10        	lda	($10),y                 ; 0x10 <__rc0>
     faa: 85 2d        	sta	$2d                     ; 0x2d <__rc29>
     fac: c8           	iny
     fad: b1 10        	lda	($10),y                 ; 0x10 <__rc0>
     faf: 85 2c        	sta	$2c                     ; 0x2c <__rc28>
     fb1: c8           	iny
     fb2: b1 10        	lda	($10),y                 ; 0x10 <__rc0>
     fb4: 85 2b        	sta	$2b                     ; 0x2b <__rc27>
     fb6: c8           	iny
     fb7: b1 10        	lda	($10),y                 ; 0x10 <__rc0>
     fb9: 85 2a        	sta	$2a                     ; 0x2a <__rc26>
     fbb: c8           	iny
     fbc: b1 10        	lda	($10),y                 ; 0x10 <__rc0>
     fbe: 85 29        	sta	$29                     ; 0x29 <__rc25>
     fc0: c8           	iny
     fc1: b1 10        	lda	($10),y                 ; 0x10 <__rc0>
     fc3: 85 28        	sta	$28                     ; 0x28 <__rc24>
     fc5: 7a           	ply
     fc6: 84 27        	sty	$27                     ; 0x27 <__rc23>
     fc8: 7a           	ply
     fc9: 84 26        	sty	$26                     ; 0x26 <__rc22>
     fcb: 7a           	ply
     fcc: 84 25        	sty	$25                     ; 0x25 <__rc21>
     fce: 7a           	ply
     fcf: 84 24        	sty	$24                     ; 0x24 <__rc20>
     fd1: 18           	clc
     fd2: a5 10        	lda	$10                     ; 0x10 <__rc0>
     fd4: 69 16        	adc	#$16
     fd6: 85 10        	sta	$10                     ; 0x10 <__rc0>
     fd8: a5 11        	lda	$11                     ; 0x11 <__rc1>
     fda: 69 00        	adc	#$0
     fdc: 85 11        	sta	$11                     ; 0x11 <__rc1>
     fde: a5 20        	lda	$20                     ; 0x20 <__rc16>
     fe0: 60           	rts
     fe1: a6 16        	ldx	$16                     ; 0x16 <__rc6>
     fe3: 8e d0 2e     	stx	$2ed0                   ; 0x2ed0 <end_block9+0x2>
     fe6: 8d d1 2e     	sta	$2ed1                   ; 0x2ed1 <end_block9+0x3>
     fe9: 85 15        	sta	$15                     ; 0x15 <__rc5>
     feb: a0 04        	ldy	#$4
     fed: 18           	clc
     fee: a5 16        	lda	$16                     ; 0x16 <__rc6>
     ff0: 69 04        	adc	#$4
     ff2: 85 14        	sta	$14                     ; 0x14 <__rc4>
     ff4: a5 15        	lda	$15                     ; 0x15 <__rc5>
     ff6: 69 00        	adc	#$0
     ff8: 85 15        	sta	$15                     ; 0x15 <__rc5>
     ffa: b1 12        	lda	($12),y                 ; 0x12 <__rc2>
     ffc: 85 16        	sta	$16                     ; 0x16 <__rc6>
     ffe: a0 01        	ldy	#$1
    1000: b1 14        	lda	($14),y                 ; 0x14 <__rc4>
    1002: aa           	tax
    1003: a4 16        	ldy	$16                     ; 0x16 <__rc6>
    1005: 84 14        	sty	$14                     ; 0x14 <__rc4>
    1007: 85 15        	sta	$15                     ; 0x15 <__rc5>
    1009: 8c d2 2e     	sty	$2ed2                   ; 0x2ed2 <end_block9+0x4>
    100c: 8d d3 2e     	sta	$2ed3                   ; 0x2ed3 <end_block9+0x5>
    100f: 18           	clc
    1010: a5 16        	lda	$16                     ; 0x16 <__rc6>
    1012: 69 02        	adc	#$2
    1014: 85 16        	sta	$16                     ; 0x16 <__rc6>
    1016: 8a           	txa
    1017: 69 00        	adc	#$0
    1019: a0 02        	ldy	#$2
    101b: 85 17        	sta	$17                     ; 0x17 <__rc7>
    101d: a9 ce        	lda	#$ce
    101f: 91 14        	sta	($14),y                 ; 0x14 <__rc4>
    1021: a9 2e        	lda	#$2e
    1023: 88           	dey
    1024: 91 16        	sta	($16),y                 ; 0x16 <__rc6>
    1026: ae d0 2e     	ldx	$2ed0                   ; 0x2ed0 <end_block9+0x2>
    1029: ac d1 2e     	ldy	$2ed1                   ; 0x2ed1 <end_block9+0x3>
    102c: 86 14        	stx	$14                     ; 0x14 <__rc4>
    102e: 84 15        	sty	$15                     ; 0x15 <__rc5>
    1030: 84 16        	sty	$16                     ; 0x16 <__rc6>
    1032: a0 04        	ldy	#$4
    1034: a9 ce        	lda	#$ce
    1036: 91 14        	sta	($14),y                 ; 0x14 <__rc4>
    1038: 18           	clc
    1039: 8a           	txa
    103a: 69 04        	adc	#$4
    103c: 85 14        	sta	$14                     ; 0x14 <__rc4>
    103e: a5 16        	lda	$16                     ; 0x16 <__rc6>
    1040: 69 00        	adc	#$0
    1042: 85 15        	sta	$15                     ; 0x15 <__rc5>
    1044: a9 2e        	lda	#$2e
    1046: a0 01        	ldy	#$1
    1048: 91 14        	sta	($14),y                 ; 0x14 <__rc4>
    104a: a6 19        	ldx	$19                     ; 0x19 <__rc9>
    104c: a4 18        	ldy	$18                     ; 0x18 <__rc8>
    104e: 8c ce 2e     	sty	$2ece                   ; 0x2ece <end_block9>
    1051: 8e cf 2e     	stx	$2ecf                   ; 0x2ecf <end_block9+0x1>
    1054: a2 01        	ldx	#$1
    1056: 8e c9 2e     	stx	$2ec9                   ; 0x2ec9 <_ZN12_GLOBAL__N_19last_freeE>
    1059: 8e c8 2e     	stx	$2ec8                   ; 0x2ec8 <_ZN12_GLOBAL__N_111initializedE>
    105c: a0 01        	ldy	#$1
    105e: a6 12        	ldx	$12                     ; 0x12 <__rc2>
    1060: 86 28        	stx	$28                     ; 0x28 <__rc24>
    1062: a6 13        	ldx	$13                     ; 0x13 <__rc3>
    1064: 86 29        	stx	$29                     ; 0x29 <__rc25>
    1066: 80 1d        	bra	$1085 <main+0xc0c>
    1068: c9 00        	cmp	#$0
    106a: 8a           	txa
    106b: b0 26        	bcs	$1093 <main+0xc1a>
    106d: a5 28        	lda	$28                     ; 0x28 <__rc24>
    106f: 18           	clc
    1070: 69 02        	adc	#$2
    1072: 85 14        	sta	$14                     ; 0x14 <__rc4>
    1074: a5 29        	lda	$29                     ; 0x29 <__rc25>
    1076: 69 00        	adc	#$0
    1078: 85 15        	sta	$15                     ; 0x15 <__rc5>
    107a: a0 02        	ldy	#$2
    107c: b1 28        	lda	($28),y                 ; 0x28 <__rc24>
    107e: 85 28        	sta	$28                     ; 0x28 <__rc24>
    1080: 88           	dey
    1081: b1 14        	lda	($14),y                 ; 0x14 <__rc4>
    1083: 85 29        	sta	$29                     ; 0x29 <__rc25>
    1085: b2 28        	lda	($28)                   ; 0x28 <__rc24>
    1087: aa           	tax
    1088: b1 28        	lda	($28),y                 ; 0x28 <__rc24>
    108a: 85 14        	sta	$14                     ; 0x14 <__rc4>
    108c: d0 da        	bne	$1068 <main+0xbef>
    108e: 8a           	txa
    108f: e0 08        	cpx	#$8
    1091: 90 da        	bcc	$106d <main+0xbf4>
    1093: 29 fe        	and	#$fe
    1095: 85 15        	sta	$15                     ; 0x15 <__rc5>
    1097: ad ca 2e     	lda	$2eca                   ; 0x2eca <_ZN12_GLOBAL__N_19free_sizeE>
    109a: ae cb 2e     	ldx	$2ecb                   ; 0x2ecb <_ZN12_GLOBAL__N_19free_sizeE+0x1>
    109d: 86 16        	stx	$16                     ; 0x16 <__rc6>
    109f: 38           	sec
    10a0: e5 15        	sbc	$15                     ; 0x15 <__rc5>
    10a2: aa           	tax
    10a3: a5 16        	lda	$16                     ; 0x16 <__rc6>
    10a5: e5 14        	sbc	$14                     ; 0x14 <__rc4>
    10a7: 85 14        	sta	$14                     ; 0x14 <__rc4>
    10a9: 18           	clc
    10aa: 8a           	txa
    10ab: 69 02        	adc	#$2
    10ad: 85 15        	sta	$15                     ; 0x15 <__rc5>
    10af: a5 14        	lda	$14                     ; 0x14 <__rc4>
    10b1: 69 00        	adc	#$0
    10b3: a6 15        	ldx	$15                     ; 0x15 <__rc5>
    10b5: 8e ca 2e     	stx	$2eca                   ; 0x2eca <_ZN12_GLOBAL__N_19free_sizeE>
    10b8: 8d cb 2e     	sta	$2ecb                   ; 0x2ecb <_ZN12_GLOBAL__N_19free_sizeE+0x1>
    10bb: a0 02        	ldy	#$2
    10bd: a5 28        	lda	$28                     ; 0x28 <__rc24>
    10bf: 18           	clc
    10c0: 69 02        	adc	#$2
    10c2: 85 26        	sta	$26                     ; 0x26 <__rc22>
    10c4: a5 29        	lda	$29                     ; 0x29 <__rc25>
    10c6: 69 00        	adc	#$0
    10c8: 85 27        	sta	$27                     ; 0x27 <__rc23>
    10ca: b1 28        	lda	($28),y                 ; 0x28 <__rc24>
    10cc: aa           	tax
    10cd: 88           	dey
    10ce: b1 26        	lda	($26),y                 ; 0x26 <__rc22>
    10d0: 85 19        	sta	$19                     ; 0x19 <__rc9>
    10d2: c5 29        	cmp	$29                     ; 0x29 <__rc25>
    10d4: d0 0f        	bne	$10e5 <main+0xc6c>
    10d6: e4 28        	cpx	$28                     ; 0x28 <__rc24>
    10d8: d0 0b        	bne	$10e5 <main+0xc6c>
    10da: a2 00        	ldx	#$0
    10dc: 86 14        	stx	$14                     ; 0x14 <__rc4>
    10de: a2 00        	ldx	#$0
    10e0: 86 15        	stx	$15                     ; 0x15 <__rc5>
    10e2: 4c 62 11     	jmp	$1162 <main+0xce9>
    10e5: 86 18        	stx	$18                     ; 0x18 <__rc8>
    10e7: a6 28        	ldx	$28                     ; 0x28 <__rc24>
    10e9: a5 28        	lda	$28                     ; 0x28 <__rc24>
    10eb: 86 1b        	stx	$1b                     ; 0x1b <__rc11>
    10ed: 18           	clc
    10ee: 69 04        	adc	#$4
    10f0: 85 14        	sta	$14                     ; 0x14 <__rc4>
    10f2: a5 29        	lda	$29                     ; 0x29 <__rc25>
    10f4: 69 00        	adc	#$0
    10f6: a0 04        	ldy	#$4
    10f8: 85 15        	sta	$15                     ; 0x15 <__rc5>
    10fa: b1 28        	lda	($28),y                 ; 0x28 <__rc24>
    10fc: 85 1c        	sta	$1c                     ; 0x1c <__rc12>
    10fe: 18           	clc
    10ff: 69 02        	adc	#$2
    1101: 85 16        	sta	$16                     ; 0x16 <__rc6>
    1103: a0 01        	ldy	#$1
    1105: b1 14        	lda	($14),y                 ; 0x14 <__rc4>
    1107: aa           	tax
    1108: 69 00        	adc	#$0
    110a: a4 16        	ldy	$16                     ; 0x16 <__rc6>
    110c: 84 14        	sty	$14                     ; 0x14 <__rc4>
    110e: 85 15        	sta	$15                     ; 0x15 <__rc5>
    1110: a4 1c        	ldy	$1c                     ; 0x1c <__rc12>
    1112: 84 16        	sty	$16                     ; 0x16 <__rc6>
    1114: 86 17        	stx	$17                     ; 0x17 <__rc7>
    1116: a0 02        	ldy	#$2
    1118: a5 18        	lda	$18                     ; 0x18 <__rc8>
    111a: 91 16        	sta	($16),y                 ; 0x16 <__rc6>
    111c: a5 19        	lda	$19                     ; 0x19 <__rc9>
    111e: 88           	dey
    111f: 91 14        	sta	($14),y                 ; 0x14 <__rc4>
    1121: 18           	clc
    1122: a5 1b        	lda	$1b                     ; 0x1b <__rc11>
    1124: 69 02        	adc	#$2
    1126: 85 14        	sta	$14                     ; 0x14 <__rc4>
    1128: a5 29        	lda	$29                     ; 0x29 <__rc25>
    112a: 69 00        	adc	#$0
    112c: 85 15        	sta	$15                     ; 0x15 <__rc5>
    112e: c8           	iny
    112f: b1 28        	lda	($28),y                 ; 0x28 <__rc24>
    1131: 85 16        	sta	$16                     ; 0x16 <__rc6>
    1133: 88           	dey
    1134: b1 14        	lda	($14),y                 ; 0x14 <__rc4>
    1136: a4 16        	ldy	$16                     ; 0x16 <__rc6>
    1138: 84 14        	sty	$14                     ; 0x14 <__rc4>
    113a: 85 15        	sta	$15                     ; 0x15 <__rc5>
    113c: 85 17        	sta	$17                     ; 0x17 <__rc7>
    113e: a0 04        	ldy	#$4
    1140: a5 1c        	lda	$1c                     ; 0x1c <__rc12>
    1142: 91 14        	sta	($14),y                 ; 0x14 <__rc4>
    1144: 18           	clc
    1145: a5 16        	lda	$16                     ; 0x16 <__rc6>
    1147: 69 04        	adc	#$4
    1149: 85 16        	sta	$16                     ; 0x16 <__rc6>
    114b: a5 17        	lda	$17                     ; 0x17 <__rc7>
    114d: 69 00        	adc	#$0
    114f: 85 17        	sta	$17                     ; 0x17 <__rc7>
    1151: 8a           	txa
    1152: a0 01        	ldy	#$1
    1154: 91 16        	sta	($16),y                 ; 0x16 <__rc6>
    1156: a6 13        	ldx	$13                     ; 0x13 <__rc3>
    1158: e4 29        	cpx	$29                     ; 0x29 <__rc25>
    115a: d0 10        	bne	$116c <main+0xcf3>
    115c: a6 12        	ldx	$12                     ; 0x12 <__rc2>
    115e: e4 28        	cpx	$28                     ; 0x28 <__rc24>
    1160: d0 0a        	bne	$116c <main+0xcf3>
    1162: a6 14        	ldx	$14                     ; 0x14 <__rc4>
    1164: a4 15        	ldy	$15                     ; 0x15 <__rc5>
    1166: 8e cc 2e     	stx	$2ecc                   ; 0x2ecc <_ZN12_GLOBAL__N_19free_listE>
    1169: 8c cd 2e     	sty	$2ecd                   ; 0x2ecd <_ZN12_GLOBAL__N_19free_listE+0x1>
    116c: a0 01        	ldy	#$1
    116e: b1 28        	lda	($28),y                 ; 0x28 <__rc24>
    1170: 85 12        	sta	$12                     ; 0x12 <__rc2>
    1172: a9 fe        	lda	#$fe
    1174: 32 28        	and	($28)                   ; 0x28 <__rc24>
    1176: 18           	clc
    1177: aa           	tax
    1178: 69 f8        	adc	#$f8
    117a: a8           	tay
    117b: a5 12        	lda	$12                     ; 0x12 <__rc2>
    117d: 69 ff        	adc	#$ff
    117f: f0 03        	beq	$1184 <main+0xd0b>
    1181: 4c f3 11     	jmp	$11f3 <main+0xd7a>
    1184: 85 14        	sta	$14                     ; 0x14 <__rc4>
    1186: c0 08        	cpy	#$8
    1188: 90 24        	bcc	$11ae <main+0xd35>
    118a: a5 28        	lda	$28                     ; 0x28 <__rc24>
    118c: 18           	clc
    118d: 69 08        	adc	#$8
    118f: 85 12        	sta	$12                     ; 0x12 <__rc2>
    1191: a5 29        	lda	$29                     ; 0x29 <__rc25>
    1193: 69 00        	adc	#$0
    1195: 85 13        	sta	$13                     ; 0x13 <__rc3>
    1197: a6 14        	ldx	$14                     ; 0x14 <__rc4>
    1199: 98           	tya
    119a: 20 16 03     	jsr	$316 <_ZN12_GLOBAL__N_19FreeChunk6insertEPvj>
    119d: a0 01        	ldy	#$1
    119f: 98           	tya
    11a0: 32 28        	and	($28)                   ; 0x28 <__rc24>
    11a2: 09 08        	ora	#$8
    11a4: 92 28        	sta	($28)                   ; 0x28 <__rc24>
    11a6: a2 08        	ldx	#$8
    11a8: 64 12        	stz	$12                     ; 0x12 <__rc2>
    11aa: a9 00        	lda	#$0
    11ac: 91 28        	sta	($28),y                 ; 0x28 <__rc24>
    11ae: 18           	clc
    11af: 8a           	txa
    11b0: 65 28        	adc	$28                     ; 0x28 <__rc24>
    11b2: aa           	tax
    11b3: a5 12        	lda	$12                     ; 0x12 <__rc2>
    11b5: 65 29        	adc	$29                     ; 0x29 <__rc25>
    11b7: 85 13        	sta	$13                     ; 0x13 <__rc3>
    11b9: c5 2a        	cmp	$2a                     ; 0x2a <__rc26>
    11bb: d0 15        	bne	$11d2 <main+0xd59>
    11bd: a0 0a        	ldy	#$a
    11bf: b1 10        	lda	($10),y                 ; 0x10 <__rc0>
    11c1: 85 12        	sta	$12                     ; 0x12 <__rc2>
    11c3: e4 12        	cpx	$12                     ; 0x12 <__rc2>
    11c5: d0 0b        	bne	$11d2 <main+0xd59>
    11c7: a5 2a        	lda	$2a                     ; 0x2a <__rc26>
    11c9: a0 0b        	ldy	#$b
    11cb: 91 10        	sta	($10),y                 ; 0x10 <__rc0>
    11cd: 9c c9 2e     	stz	$2ec9                   ; 0x2ec9 <_ZN12_GLOBAL__N_19last_freeE>
    11d0: 80 18        	bra	$11ea <main+0xd71>
    11d2: 86 12        	stx	$12                     ; 0x12 <__rc2>
    11d4: a5 2a        	lda	$2a                     ; 0x2a <__rc26>
    11d6: a0 0b        	ldy	#$b
    11d8: 91 10        	sta	($10),y                 ; 0x10 <__rc0>
    11da: a0 01        	ldy	#$1
    11dc: b1 12        	lda	($12),y                 ; 0x12 <__rc2>
    11de: 85 14        	sta	$14                     ; 0x14 <__rc4>
    11e0: a9 fe        	lda	#$fe
    11e2: 32 12        	and	($12)                   ; 0x12 <__rc2>
    11e4: 92 12        	sta	($12)                   ; 0x12 <__rc2>
    11e6: a5 14        	lda	$14                     ; 0x14 <__rc4>
    11e8: 91 12        	sta	($12),y                 ; 0x12 <__rc2>
    11ea: a0 02        	ldy	#$2
    11ec: a5 2e        	lda	$2e                     ; 0x2e <__rc30>
    11ee: 91 28        	sta	($28),y                 ; 0x28 <__rc24>
    11f0: 4c 7c 09     	jmp	$97c <main+0x503>
    11f3: 85 14        	sta	$14                     ; 0x14 <__rc4>
    11f5: c9 00        	cmp	#$0
    11f7: 90 b5        	bcc	$11ae <main+0xd35>
    11f9: 4c 8a 11     	jmp	$118a <main+0xd11>

000011fc <fileWrite>:
    11fc: 64 3c        	stz	$3c                     ; 0x3c <__rc31+0xd>
    11fe: a2 00        	ldx	#$0
    1200: 86 16        	stx	$16                     ; 0x16 <__rc6>
    1202: a2 c0        	ldx	#$c0
    1204: 86 17        	stx	$17                     ; 0x17 <__rc7>
    1206: a2 01        	ldx	#$1
    1208: 86 44        	stx	$44                     ; 0x44 <__rc31+0x15>
    120a: a2 34        	ldx	#$34
    120c: 86 18        	stx	$18                     ; 0x18 <__rc8>
    120e: a2 00        	ldx	#$0
    1210: 86 19        	stx	$19                     ; 0x19 <__rc9>
    1212: a2 20        	ldx	#$20
    1214: 64 3d        	stz	$3d                     ; 0x3d <__rc31+0xe>
    1216: 64 3e        	stz	$3e                     ; 0x3e <__rc31+0xf>
    1218: a4 44        	ldy	$44                     ; 0x44 <__rc31+0x15>
    121a: c0 ff        	cpy	#$ff
    121c: a5 3c        	lda	$3c                     ; 0x3c <__rc31+0xd>
    121e: e9 00        	sbc	#$0
    1220: 50 02        	bvc	$1224 <fileWrite+0x28>
    1222: 49 80        	eor	#$80
    1224: a8           	tay
    1225: 30 0e        	bmi	$1235 <fileWrite+0x39>
    1227: b2 14        	lda	($14)                   ; 0x14 <__rc4>
    1229: a8           	tay
    122a: a9 fe        	lda	#$fe
    122c: 84 1a        	sty	$1a                     ; 0x1a <__rc10>
    122e: c0 01        	cpy	#$1
    1230: f0 21        	beq	$1253 <fileWrite+0x57>
    1232: 4c e9 15     	jmp	$15e9 <fileWrite+0x3ed>
    1235: b2 14        	lda	($14)                   ; 0x14 <__rc4>
    1237: 85 1b        	sta	$1b                     ; 0x1b <__rc11>
    1239: a4 44        	ldy	$44                     ; 0x44 <__rc31+0x15>
    123b: 98           	tya
    123c: a4 1b        	ldy	$1b                     ; 0x1b <__rc11>
    123e: 84 1a        	sty	$1a                     ; 0x1a <__rc10>
    1240: a4 1b        	ldy	$1b                     ; 0x1b <__rc11>
    1242: c0 01        	cpy	#$1
    1244: f0 03        	beq	$1249 <fileWrite+0x4d>
    1246: 4c e9 15     	jmp	$15e9 <fileWrite+0x3ed>
    1249: a4 44        	ldy	$44                     ; 0x44 <__rc31+0x15>
    124b: 98           	tya
    124c: a4 44        	ldy	$44                     ; 0x44 <__rc31+0x15>
    124e: d0 03        	bne	$1253 <fileWrite+0x57>
    1250: 4c 6a 16     	jmp	$166a <fileWrite+0x46e>
    1253: 85 3f        	sta	$3f                     ; 0x3f <__rc31+0x10>
    1255: a5 3d        	lda	$3d                     ; 0x3d <__rc31+0xe>
    1257: 18           	clc
    1258: 65 12        	adc	$12                     ; 0x12 <__rc2>
    125a: 85 1a        	sta	$1a                     ; 0x1a <__rc10>
    125c: a5 3e        	lda	$3e                     ; 0x3e <__rc31+0xf>
    125e: 65 13        	adc	$13                     ; 0x13 <__rc3>
    1260: 85 1b        	sta	$1b                     ; 0x1b <__rc11>
    1262: a9 00        	lda	#$0
    1264: 80 27        	bra	$128d <fileWrite+0x91>
    1266: a4 41        	ldy	$41                     ; 0x41 <__rc31+0x12>
    1268: 84 01        	sty	$1                      ; 0x1 <__zp_data_size+0x1>
    126a: a4 30        	ldy	$30                     ; 0x30 <_col>
    126c: a5 31        	lda	$31                     ; 0x31 <_row>
    126e: 8c 14 d0     	sty	$d014                   ; 0xd014 <end_block9+0xa146>
    1271: 9c 15 d0     	stz	$d015                   ; 0xd015 <end_block9+0xa147>
    1274: 85 31        	sta	$31                     ; 0x31 <_row>
    1276: 8d 16 d0     	sta	$d016                   ; 0xd016 <end_block9+0xa148>
    1279: 9c 17 d0     	stz	$d017                   ; 0xd017 <end_block9+0xa149>
    127c: a4 40        	ldy	$40                     ; 0x40 <__rc31+0x11>
    127e: 84 1c        	sty	$1c                     ; 0x1c <__rc12>
    1280: e6 1c        	inc	$1c                     ; 0x1c <__rc12>
    1282: a5 1c        	lda	$1c                     ; 0x1c <__rc12>
    1284: a4 3f        	ldy	$3f                     ; 0x3f <__rc31+0x10>
    1286: c4 1c        	cpy	$1c                     ; 0x1c <__rc12>
    1288: d0 03        	bne	$128d <fileWrite+0x91>
    128a: 4c 40 16     	jmp	$1640 <fileWrite+0x444>
    128d: a8           	tay
    128e: 85 40        	sta	$40                     ; 0x40 <__rc31+0x11>
    1290: b1 1a        	lda	($1a),y                 ; 0x1a <__rc10>
    1292: 85 32        	sta	$32                     ; 0x32 <__putchar.s>
    1294: a4 01        	ldy	$1                      ; 0x1 <__zp_data_size+0x1>
    1296: 84 41        	sty	$41                     ; 0x41 <__rc31+0x12>
    1298: a5 31        	lda	$31                     ; 0x31 <_row>
    129a: a0 50        	ldy	#$50
    129c: 8c 00 de     	sty	$de00                   ; 0xde00 <end_block9+0xaf32>
    129f: 9c 01 de     	stz	$de01                   ; 0xde01 <end_block9+0xaf33>
    12a2: 8d 02 de     	sta	$de02                   ; 0xde02 <end_block9+0xaf34>
    12a5: 9c 03 de     	stz	$de03                   ; 0xde03 <end_block9+0xaf35>
    12a8: ad 10 de     	lda	$de10                   ; 0xde10 <end_block9+0xaf42>
    12ab: ac 11 de     	ldy	$de11                   ; 0xde11 <end_block9+0xaf43>
    12ae: 84 1c        	sty	$1c                     ; 0x1c <__rc12>
    12b0: ac 12 de     	ldy	$de12                   ; 0xde12 <end_block9+0xaf44>
    12b3: 84 1d        	sty	$1d                     ; 0x1d <__rc13>
    12b5: ac 13 de     	ldy	$de13                   ; 0xde13 <end_block9+0xaf45>
    12b8: 84 1e        	sty	$1e                     ; 0x1e <__rc14>
    12ba: 9c 08 de     	stz	$de08                   ; 0xde08 <end_block9+0xaf3a>
    12bd: a0 c0        	ldy	#$c0
    12bf: 8c 09 de     	sty	$de09                   ; 0xde09 <end_block9+0xaf3b>
    12c2: 9c 0a de     	stz	$de0a                   ; 0xde0a <end_block9+0xaf3c>
    12c5: 9c 0b de     	stz	$de0b                   ; 0xde0b <end_block9+0xaf3d>
    12c8: 8d 0c de     	sta	$de0c                   ; 0xde0c <end_block9+0xaf3e>
    12cb: a4 1c        	ldy	$1c                     ; 0x1c <__rc12>
    12cd: 8c 0d de     	sty	$de0d                   ; 0xde0d <end_block9+0xaf3f>
    12d0: a4 1d        	ldy	$1d                     ; 0x1d <__rc13>
    12d2: 8c 0e de     	sty	$de0e                   ; 0xde0e <end_block9+0xaf40>
    12d5: a4 1e        	ldy	$1e                     ; 0x1e <__rc14>
    12d7: 8c 0f de     	sty	$de0f                   ; 0xde0f <end_block9+0xaf41>
    12da: ac 18 de     	ldy	$de18                   ; 0xde18 <end_block9+0xaf4a>
    12dd: ad 19 de     	lda	$de19                   ; 0xde19 <end_block9+0xaf4b>
    12e0: 85 1f        	sta	$1f                     ; 0x1f <__rc15>
    12e2: ad 1a de     	lda	$de1a                   ; 0xde1a <end_block9+0xaf4c>
    12e5: ad 1b de     	lda	$de1b                   ; 0xde1b <end_block9+0xaf4d>
    12e8: 84 1e        	sty	$1e                     ; 0x1e <__rc14>
    12ea: 64 1c        	stz	$1c                     ; 0x1c <__rc12>
    12ec: 64 1d        	stz	$1d                     ; 0x1d <__rc13>
    12ee: 4c 86 15     	jmp	$1586 <fileWrite+0x38a>
    12f1: a5 23        	lda	$23                     ; 0x23 <__rc19>
    12f3: f0 1c        	beq	$1311 <fileWrite+0x115>
    12f5: b1 1e        	lda	($1e),y                 ; 0x1e <__rc14>
    12f7: 92 1e        	sta	($1e)                   ; 0x1e <__rc14>
    12f9: a9 ff        	lda	#$ff
    12fb: c6 22        	dec	$22                     ; 0x22 <__rc18>
    12fd: c5 22        	cmp	$22                     ; 0x22 <__rc18>
    12ff: f0 06        	beq	$1307 <fileWrite+0x10b>
    1301: e6 1e        	inc	$1e                     ; 0x1e <__rc14>
    1303: d0 ec        	bne	$12f1 <fileWrite+0xf5>
    1305: 80 06        	bra	$130d <fileWrite+0x111>
    1307: c6 23        	dec	$23                     ; 0x23 <__rc19>
    1309: e6 1e        	inc	$1e                     ; 0x1e <__rc14>
    130b: d0 e4        	bne	$12f1 <fileWrite+0xf5>
    130d: e6 1f        	inc	$1f                     ; 0x1f <__rc15>
    130f: 80 e0        	bra	$12f1 <fileWrite+0xf5>
    1311: a5 22        	lda	$22                     ; 0x22 <__rc18>
    1313: d0 e0        	bne	$12f5 <fileWrite+0xf9>
    1315: a9 02        	lda	#$2
    1317: 85 01        	sta	$1                      ; 0x1 <__zp_data_size+0x1>
    1319: a9 10        	lda	#$10
    131b: 5a           	phy
    131c: a0 00        	ldy	#$0
    131e: 84 1e        	sty	$1e                     ; 0x1e <__rc14>
    1320: a0 c0        	ldy	#$c0
    1322: 84 1f        	sty	$1f                     ; 0x1f <__rc15>
    1324: 7a           	ply
    1325: 85 22        	sta	$22                     ; 0x22 <__rc18>
    1327: a9 09        	lda	#$9
    1329: 85 23        	sta	$23                     ; 0x23 <__rc19>
    132b: 80 04        	bra	$1331 <fileWrite+0x135>
    132d: a5 23        	lda	$23                     ; 0x23 <__rc19>
    132f: f0 1c        	beq	$134d <fileWrite+0x151>
    1331: b1 1e        	lda	($1e),y                 ; 0x1e <__rc14>
    1333: 92 1e        	sta	($1e)                   ; 0x1e <__rc14>
    1335: a9 ff        	lda	#$ff
    1337: c6 22        	dec	$22                     ; 0x22 <__rc18>
    1339: c5 22        	cmp	$22                     ; 0x22 <__rc18>
    133b: f0 06        	beq	$1343 <fileWrite+0x147>
    133d: e6 1e        	inc	$1e                     ; 0x1e <__rc14>
    133f: d0 ec        	bne	$132d <fileWrite+0x131>
    1341: 80 06        	bra	$1349 <fileWrite+0x14d>
    1343: c6 23        	dec	$23                     ; 0x23 <__rc19>
    1345: e6 1e        	inc	$1e                     ; 0x1e <__rc14>
    1347: d0 e4        	bne	$132d <fileWrite+0x131>
    1349: e6 1f        	inc	$1f                     ; 0x1f <__rc15>
    134b: 80 e0        	bra	$132d <fileWrite+0x131>
    134d: a5 22        	lda	$22                     ; 0x22 <__rc18>
    134f: d0 e0        	bne	$1331 <fileWrite+0x135>
    1351: a9 02        	lda	#$2
    1353: 85 01        	sta	$1                      ; 0x1 <__zp_data_size+0x1>
    1355: a0 03        	ldy	#$3
    1357: 84 01        	sty	$1                      ; 0x1 <__zp_data_size+0x1>
    1359: a0 f0        	ldy	#$f0
    135b: 8c 10 c9     	sty	$c910                   ; 0xc910 <end_block9+0x9a42>
    135e: 8c 11 c9     	sty	$c911                   ; 0xc911 <end_block9+0x9a43>
    1361: 8c 12 c9     	sty	$c912                   ; 0xc912 <end_block9+0x9a44>
    1364: 8c 13 c9     	sty	$c913                   ; 0xc913 <end_block9+0x9a45>
    1367: 8c 14 c9     	sty	$c914                   ; 0xc914 <end_block9+0x9a46>
    136a: 8c 15 c9     	sty	$c915                   ; 0xc915 <end_block9+0x9a47>
    136d: 8c 16 c9     	sty	$c916                   ; 0xc916 <end_block9+0x9a48>
    1370: 8c 17 c9     	sty	$c917                   ; 0xc917 <end_block9+0x9a49>
    1373: 8c 18 c9     	sty	$c918                   ; 0xc918 <end_block9+0x9a4a>
    1376: 8c 19 c9     	sty	$c919                   ; 0xc919 <end_block9+0x9a4b>
    1379: 8c 1a c9     	sty	$c91a                   ; 0xc91a <end_block9+0x9a4c>
    137c: 8c 1b c9     	sty	$c91b                   ; 0xc91b <end_block9+0x9a4d>
    137f: 8c 1c c9     	sty	$c91c                   ; 0xc91c <end_block9+0x9a4e>
    1382: 8c 1d c9     	sty	$c91d                   ; 0xc91d <end_block9+0x9a4f>
    1385: 8c 1e c9     	sty	$c91e                   ; 0xc91e <end_block9+0x9a50>
    1388: 8c 1f c9     	sty	$c91f                   ; 0xc91f <end_block9+0x9a51>
    138b: 8c 20 c9     	sty	$c920                   ; 0xc920 <end_block9+0x9a52>
    138e: 8c 21 c9     	sty	$c921                   ; 0xc921 <end_block9+0x9a53>
    1391: 8c 22 c9     	sty	$c922                   ; 0xc922 <end_block9+0x9a54>
    1394: 8c 23 c9     	sty	$c923                   ; 0xc923 <end_block9+0x9a55>
    1397: 8c 24 c9     	sty	$c924                   ; 0xc924 <end_block9+0x9a56>
    139a: 8c 25 c9     	sty	$c925                   ; 0xc925 <end_block9+0x9a57>
    139d: 8c 26 c9     	sty	$c926                   ; 0xc926 <end_block9+0x9a58>
    13a0: 8c 27 c9     	sty	$c927                   ; 0xc927 <end_block9+0x9a59>
    13a3: 8c 28 c9     	sty	$c928                   ; 0xc928 <end_block9+0x9a5a>
    13a6: 8c 29 c9     	sty	$c929                   ; 0xc929 <end_block9+0x9a5b>
    13a9: 8c 2a c9     	sty	$c92a                   ; 0xc92a <end_block9+0x9a5c>
    13ac: 8c 2b c9     	sty	$c92b                   ; 0xc92b <end_block9+0x9a5d>
    13af: 8c 2c c9     	sty	$c92c                   ; 0xc92c <end_block9+0x9a5e>
    13b2: 8c 2d c9     	sty	$c92d                   ; 0xc92d <end_block9+0x9a5f>
    13b5: 8c 2e c9     	sty	$c92e                   ; 0xc92e <end_block9+0x9a60>
    13b8: 8c 2f c9     	sty	$c92f                   ; 0xc92f <end_block9+0x9a61>
    13bb: 8c 30 c9     	sty	$c930                   ; 0xc930 <end_block9+0x9a62>
    13be: 8c 31 c9     	sty	$c931                   ; 0xc931 <end_block9+0x9a63>
    13c1: 8c 32 c9     	sty	$c932                   ; 0xc932 <end_block9+0x9a64>
    13c4: 8c 33 c9     	sty	$c933                   ; 0xc933 <end_block9+0x9a65>
    13c7: 8c 34 c9     	sty	$c934                   ; 0xc934 <end_block9+0x9a66>
    13ca: 8c 35 c9     	sty	$c935                   ; 0xc935 <end_block9+0x9a67>
    13cd: 8c 36 c9     	sty	$c936                   ; 0xc936 <end_block9+0x9a68>
    13d0: 8c 37 c9     	sty	$c937                   ; 0xc937 <end_block9+0x9a69>
    13d3: 8c 38 c9     	sty	$c938                   ; 0xc938 <end_block9+0x9a6a>
    13d6: 8c 39 c9     	sty	$c939                   ; 0xc939 <end_block9+0x9a6b>
    13d9: 8c 3a c9     	sty	$c93a                   ; 0xc93a <end_block9+0x9a6c>
    13dc: 8c 3b c9     	sty	$c93b                   ; 0xc93b <end_block9+0x9a6d>
    13df: 8c 3c c9     	sty	$c93c                   ; 0xc93c <end_block9+0x9a6e>
    13e2: 8c 3d c9     	sty	$c93d                   ; 0xc93d <end_block9+0x9a6f>
    13e5: 8c 3e c9     	sty	$c93e                   ; 0xc93e <end_block9+0x9a70>
    13e8: 8c 3f c9     	sty	$c93f                   ; 0xc93f <end_block9+0x9a71>
    13eb: 8c 40 c9     	sty	$c940                   ; 0xc940 <end_block9+0x9a72>
    13ee: 8c 41 c9     	sty	$c941                   ; 0xc941 <end_block9+0x9a73>
    13f1: 8c 42 c9     	sty	$c942                   ; 0xc942 <end_block9+0x9a74>
    13f4: 8c 43 c9     	sty	$c943                   ; 0xc943 <end_block9+0x9a75>
    13f7: 8c 44 c9     	sty	$c944                   ; 0xc944 <end_block9+0x9a76>
    13fa: 8c 45 c9     	sty	$c945                   ; 0xc945 <end_block9+0x9a77>
    13fd: 8c 46 c9     	sty	$c946                   ; 0xc946 <end_block9+0x9a78>
    1400: 8c 47 c9     	sty	$c947                   ; 0xc947 <end_block9+0x9a79>
    1403: 8c 48 c9     	sty	$c948                   ; 0xc948 <end_block9+0x9a7a>
    1406: 8c 49 c9     	sty	$c949                   ; 0xc949 <end_block9+0x9a7b>
    1409: 8c 4a c9     	sty	$c94a                   ; 0xc94a <end_block9+0x9a7c>
    140c: 8c 4b c9     	sty	$c94b                   ; 0xc94b <end_block9+0x9a7d>
    140f: 8c 4c c9     	sty	$c94c                   ; 0xc94c <end_block9+0x9a7e>
    1412: 8c 4d c9     	sty	$c94d                   ; 0xc94d <end_block9+0x9a7f>
    1415: 8c 4e c9     	sty	$c94e                   ; 0xc94e <end_block9+0x9a80>
    1418: 8c 4f c9     	sty	$c94f                   ; 0xc94f <end_block9+0x9a81>
    141b: 8c 50 c9     	sty	$c950                   ; 0xc950 <end_block9+0x9a82>
    141e: 8c 51 c9     	sty	$c951                   ; 0xc951 <end_block9+0x9a83>
    1421: 8c 52 c9     	sty	$c952                   ; 0xc952 <end_block9+0x9a84>
    1424: 8c 53 c9     	sty	$c953                   ; 0xc953 <end_block9+0x9a85>
    1427: 8c 54 c9     	sty	$c954                   ; 0xc954 <end_block9+0x9a86>
    142a: 8c 55 c9     	sty	$c955                   ; 0xc955 <end_block9+0x9a87>
    142d: 8c 56 c9     	sty	$c956                   ; 0xc956 <end_block9+0x9a88>
    1430: 8c 57 c9     	sty	$c957                   ; 0xc957 <end_block9+0x9a89>
    1433: 8c 58 c9     	sty	$c958                   ; 0xc958 <end_block9+0x9a8a>
    1436: 8c 59 c9     	sty	$c959                   ; 0xc959 <end_block9+0x9a8b>
    1439: 8c 5a c9     	sty	$c95a                   ; 0xc95a <end_block9+0x9a8c>
    143c: 8c 5b c9     	sty	$c95b                   ; 0xc95b <end_block9+0x9a8d>
    143f: 8c 5c c9     	sty	$c95c                   ; 0xc95c <end_block9+0x9a8e>
    1442: 8c 5d c9     	sty	$c95d                   ; 0xc95d <end_block9+0x9a8f>
    1445: 8c 5e c9     	sty	$c95e                   ; 0xc95e <end_block9+0x9a90>
    1448: 8c 5f c9     	sty	$c95f                   ; 0xc95f <end_block9+0x9a91>
    144b: 85 01        	sta	$1                      ; 0x1 <__zp_data_size+0x1>
    144d: 8e 10 c9     	stx	$c910                   ; 0xc910 <end_block9+0x9a42>
    1450: 8e 11 c9     	stx	$c911                   ; 0xc911 <end_block9+0x9a43>
    1453: 8e 12 c9     	stx	$c912                   ; 0xc912 <end_block9+0x9a44>
    1456: 8e 13 c9     	stx	$c913                   ; 0xc913 <end_block9+0x9a45>
    1459: 8e 14 c9     	stx	$c914                   ; 0xc914 <end_block9+0x9a46>
    145c: 8e 15 c9     	stx	$c915                   ; 0xc915 <end_block9+0x9a47>
    145f: 8e 16 c9     	stx	$c916                   ; 0xc916 <end_block9+0x9a48>
    1462: 8e 17 c9     	stx	$c917                   ; 0xc917 <end_block9+0x9a49>
    1465: 8e 18 c9     	stx	$c918                   ; 0xc918 <end_block9+0x9a4a>
    1468: 8e 19 c9     	stx	$c919                   ; 0xc919 <end_block9+0x9a4b>
    146b: 8e 1a c9     	stx	$c91a                   ; 0xc91a <end_block9+0x9a4c>
    146e: 8e 1b c9     	stx	$c91b                   ; 0xc91b <end_block9+0x9a4d>
    1471: 8e 1c c9     	stx	$c91c                   ; 0xc91c <end_block9+0x9a4e>
    1474: 8e 1d c9     	stx	$c91d                   ; 0xc91d <end_block9+0x9a4f>
    1477: 8e 1e c9     	stx	$c91e                   ; 0xc91e <end_block9+0x9a50>
    147a: 8e 1f c9     	stx	$c91f                   ; 0xc91f <end_block9+0x9a51>
    147d: 8e 20 c9     	stx	$c920                   ; 0xc920 <end_block9+0x9a52>
    1480: 8e 21 c9     	stx	$c921                   ; 0xc921 <end_block9+0x9a53>
    1483: 8e 22 c9     	stx	$c922                   ; 0xc922 <end_block9+0x9a54>
    1486: 8e 23 c9     	stx	$c923                   ; 0xc923 <end_block9+0x9a55>
    1489: 8e 24 c9     	stx	$c924                   ; 0xc924 <end_block9+0x9a56>
    148c: 8e 25 c9     	stx	$c925                   ; 0xc925 <end_block9+0x9a57>
    148f: 8e 26 c9     	stx	$c926                   ; 0xc926 <end_block9+0x9a58>
    1492: 8e 27 c9     	stx	$c927                   ; 0xc927 <end_block9+0x9a59>
    1495: 8e 28 c9     	stx	$c928                   ; 0xc928 <end_block9+0x9a5a>
    1498: 8e 29 c9     	stx	$c929                   ; 0xc929 <end_block9+0x9a5b>
    149b: 8e 2a c9     	stx	$c92a                   ; 0xc92a <end_block9+0x9a5c>
    149e: 8e 2b c9     	stx	$c92b                   ; 0xc92b <end_block9+0x9a5d>
    14a1: 8e 2c c9     	stx	$c92c                   ; 0xc92c <end_block9+0x9a5e>
    14a4: 8e 2d c9     	stx	$c92d                   ; 0xc92d <end_block9+0x9a5f>
    14a7: 8e 2e c9     	stx	$c92e                   ; 0xc92e <end_block9+0x9a60>
    14aa: 8e 2f c9     	stx	$c92f                   ; 0xc92f <end_block9+0x9a61>
    14ad: 8e 30 c9     	stx	$c930                   ; 0xc930 <end_block9+0x9a62>
    14b0: 8e 31 c9     	stx	$c931                   ; 0xc931 <end_block9+0x9a63>
    14b3: 8e 32 c9     	stx	$c932                   ; 0xc932 <end_block9+0x9a64>
    14b6: 8e 33 c9     	stx	$c933                   ; 0xc933 <end_block9+0x9a65>
    14b9: 8e 34 c9     	stx	$c934                   ; 0xc934 <end_block9+0x9a66>
    14bc: 8e 35 c9     	stx	$c935                   ; 0xc935 <end_block9+0x9a67>
    14bf: 8e 36 c9     	stx	$c936                   ; 0xc936 <end_block9+0x9a68>
    14c2: 8e 37 c9     	stx	$c937                   ; 0xc937 <end_block9+0x9a69>
    14c5: 8e 38 c9     	stx	$c938                   ; 0xc938 <end_block9+0x9a6a>
    14c8: 8e 39 c9     	stx	$c939                   ; 0xc939 <end_block9+0x9a6b>
    14cb: 8e 3a c9     	stx	$c93a                   ; 0xc93a <end_block9+0x9a6c>
    14ce: 8e 3b c9     	stx	$c93b                   ; 0xc93b <end_block9+0x9a6d>
    14d1: 8e 3c c9     	stx	$c93c                   ; 0xc93c <end_block9+0x9a6e>
    14d4: 8e 3d c9     	stx	$c93d                   ; 0xc93d <end_block9+0x9a6f>
    14d7: 8e 3e c9     	stx	$c93e                   ; 0xc93e <end_block9+0x9a70>
    14da: 8e 3f c9     	stx	$c93f                   ; 0xc93f <end_block9+0x9a71>
    14dd: 8e 40 c9     	stx	$c940                   ; 0xc940 <end_block9+0x9a72>
    14e0: 8e 41 c9     	stx	$c941                   ; 0xc941 <end_block9+0x9a73>
    14e3: 8e 42 c9     	stx	$c942                   ; 0xc942 <end_block9+0x9a74>
    14e6: 8e 43 c9     	stx	$c943                   ; 0xc943 <end_block9+0x9a75>
    14e9: 8e 44 c9     	stx	$c944                   ; 0xc944 <end_block9+0x9a76>
    14ec: 8e 45 c9     	stx	$c945                   ; 0xc945 <end_block9+0x9a77>
    14ef: 8e 46 c9     	stx	$c946                   ; 0xc946 <end_block9+0x9a78>
    14f2: 8e 47 c9     	stx	$c947                   ; 0xc947 <end_block9+0x9a79>
    14f5: 8e 48 c9     	stx	$c948                   ; 0xc948 <end_block9+0x9a7a>
    14f8: 8e 49 c9     	stx	$c949                   ; 0xc949 <end_block9+0x9a7b>
    14fb: 8e 4a c9     	stx	$c94a                   ; 0xc94a <end_block9+0x9a7c>
    14fe: 8e 4b c9     	stx	$c94b                   ; 0xc94b <end_block9+0x9a7d>
    1501: 8e 4c c9     	stx	$c94c                   ; 0xc94c <end_block9+0x9a7e>
    1504: 8e 4d c9     	stx	$c94d                   ; 0xc94d <end_block9+0x9a7f>
    1507: 8e 4e c9     	stx	$c94e                   ; 0xc94e <end_block9+0x9a80>
    150a: 8e 4f c9     	stx	$c94f                   ; 0xc94f <end_block9+0x9a81>
    150d: 8e 50 c9     	stx	$c950                   ; 0xc950 <end_block9+0x9a82>
    1510: 8e 51 c9     	stx	$c951                   ; 0xc951 <end_block9+0x9a83>
    1513: 8e 52 c9     	stx	$c952                   ; 0xc952 <end_block9+0x9a84>
    1516: 8e 53 c9     	stx	$c953                   ; 0xc953 <end_block9+0x9a85>
    1519: 8e 54 c9     	stx	$c954                   ; 0xc954 <end_block9+0x9a86>
    151c: 8e 55 c9     	stx	$c955                   ; 0xc955 <end_block9+0x9a87>
    151f: 8e 56 c9     	stx	$c956                   ; 0xc956 <end_block9+0x9a88>
    1522: 8e 57 c9     	stx	$c957                   ; 0xc957 <end_block9+0x9a89>
    1525: 8e 58 c9     	stx	$c958                   ; 0xc958 <end_block9+0x9a8a>
    1528: 8e 59 c9     	stx	$c959                   ; 0xc959 <end_block9+0x9a8b>
    152b: 8e 5a c9     	stx	$c95a                   ; 0xc95a <end_block9+0x9a8c>
    152e: 8e 5b c9     	stx	$c95b                   ; 0xc95b <end_block9+0x9a8d>
    1531: 8e 5c c9     	stx	$c95c                   ; 0xc95c <end_block9+0x9a8e>
    1534: 8e 5d c9     	stx	$c95d                   ; 0xc95d <end_block9+0x9a8f>
    1537: 8e 5e c9     	stx	$c95e                   ; 0xc95e <end_block9+0x9a90>
    153a: 8e 5f c9     	stx	$c95f                   ; 0xc95f <end_block9+0x9a91>
    153d: c6 31        	dec	$31                     ; 0x31 <_row>
    153f: 9c 08 de     	stz	$de08                   ; 0xde08 <end_block9+0xaf3a>
    1542: a0 c0        	ldy	#$c0
    1544: 8c 09 de     	sty	$de09                   ; 0xde09 <end_block9+0xaf3b>
    1547: 9c 0a de     	stz	$de0a                   ; 0xde0a <end_block9+0xaf3c>
    154a: 9c 0b de     	stz	$de0b                   ; 0xde0b <end_block9+0xaf3d>
    154d: a0 1d        	ldy	#$1d
    154f: 8c 0c de     	sty	$de0c                   ; 0xde0c <end_block9+0xaf3e>
    1552: 9c 0d de     	stz	$de0d                   ; 0xde0d <end_block9+0xaf3f>
    1555: 9c 0e de     	stz	$de0e                   ; 0xde0e <end_block9+0xaf40>
    1558: 9c 0f de     	stz	$de0f                   ; 0xde0f <end_block9+0xaf41>
    155b: ac 18 de     	ldy	$de18                   ; 0xde18 <end_block9+0xaf4a>
    155e: ad 19 de     	lda	$de19                   ; 0xde19 <end_block9+0xaf4b>
    1561: 85 1f        	sta	$1f                     ; 0x1f <__rc15>
    1563: ad 1a de     	lda	$de1a                   ; 0xde1a <end_block9+0xaf4c>
    1566: 84 1e        	sty	$1e                     ; 0x1e <__rc14>
    1568: ac 1b de     	ldy	$de1b                   ; 0xde1b <end_block9+0xaf4d>
    156b: e6 1c        	inc	$1c                     ; 0x1c <__rc12>
    156d: d0 02        	bne	$1571 <fileWrite+0x375>
    156f: e6 1d        	inc	$1d                     ; 0x1d <__rc13>
    1571: 80 13        	bra	$1586 <fileWrite+0x38a>
    1573: a5 1e        	lda	$1e                     ; 0x1e <__rc14>
    1575: 18           	clc
    1576: 69 50        	adc	#$50
    1578: 85 1e        	sta	$1e                     ; 0x1e <__rc14>
    157a: a5 1f        	lda	$1f                     ; 0x1f <__rc15>
    157c: 69 00        	adc	#$0
    157e: 85 1f        	sta	$1f                     ; 0x1f <__rc15>
    1580: e6 1c        	inc	$1c                     ; 0x1c <__rc12>
    1582: d0 02        	bne	$1586 <fileWrite+0x38a>
    1584: e6 1d        	inc	$1d                     ; 0x1d <__rc13>
    1586: a9 32        	lda	#$32
    1588: 18           	clc
    1589: 65 1c        	adc	$1c                     ; 0x1c <__rc12>
    158b: 85 22        	sta	$22                     ; 0x22 <__rc18>
    158d: a9 00        	lda	#$0
    158f: 65 1d        	adc	$1d                     ; 0x1d <__rc13>
    1591: 85 23        	sta	$23                     ; 0x23 <__rc19>
    1593: b2 22        	lda	($22)                   ; 0x22 <__rc18>
    1595: c9 0a        	cmp	#$a
    1597: f0 27        	beq	$15c0 <fileWrite+0x3c4>
    1599: c9 0d        	cmp	#$d
    159b: f0 23        	beq	$15c0 <fileWrite+0x3c4>
    159d: a8           	tay
    159e: d0 03        	bne	$15a3 <fileWrite+0x3a7>
    15a0: 4c 66 12     	jmp	$1266 <fileWrite+0x6a>
    15a3: a0 03        	ldy	#$3
    15a5: 84 01        	sty	$1                      ; 0x1 <__zp_data_size+0x1>
    15a7: a4 30        	ldy	$30                     ; 0x30 <_col>
    15a9: a9 f0        	lda	#$f0
    15ab: 91 1e        	sta	($1e),y                 ; 0x1e <__rc14>
    15ad: a0 02        	ldy	#$2
    15af: 84 01        	sty	$1                      ; 0x1 <__zp_data_size+0x1>
    15b1: b2 22        	lda	($22)                   ; 0x22 <__rc18>
    15b3: a4 30        	ldy	$30                     ; 0x30 <_col>
    15b5: 91 1e        	sta	($1e),y                 ; 0x1e <__rc14>
    15b7: a4 30        	ldy	$30                     ; 0x30 <_col>
    15b9: c8           	iny
    15ba: e6 30        	inc	$30                     ; 0x30 <_col>
    15bc: c0 50        	cpy	#$50
    15be: d0 c0        	bne	$1580 <fileWrite+0x384>
    15c0: 64 30        	stz	$30                     ; 0x30 <_col>
    15c2: a4 31        	ldy	$31                     ; 0x31 <_row>
    15c4: c8           	iny
    15c5: e6 31        	inc	$31                     ; 0x31 <_row>
    15c7: c0 1e        	cpy	#$1e
    15c9: f0 03        	beq	$15ce <fileWrite+0x3d2>
    15cb: 4c 73 15     	jmp	$1573 <fileWrite+0x377>
    15ce: a0 03        	ldy	#$3
    15d0: 84 01        	sty	$1                      ; 0x1 <__zp_data_size+0x1>
    15d2: a0 09        	ldy	#$9
    15d4: a9 10        	lda	#$10
    15d6: 5a           	phy
    15d7: a0 00        	ldy	#$0
    15d9: 84 1e        	sty	$1e                     ; 0x1e <__rc14>
    15db: a0 c0        	ldy	#$c0
    15dd: 84 1f        	sty	$1f                     ; 0x1f <__rc15>
    15df: 7a           	ply
    15e0: 85 22        	sta	$22                     ; 0x22 <__rc18>
    15e2: 84 23        	sty	$23                     ; 0x23 <__rc19>
    15e4: a0 50        	ldy	#$50
    15e6: 4c f5 12     	jmp	$12f5 <fileWrite+0xf9>
    15e9: 18           	clc
    15ea: 85 1c        	sta	$1c                     ; 0x1c <__rc12>
    15ec: a5 3d        	lda	$3d                     ; 0x3d <__rc31+0xe>
    15ee: 65 12        	adc	$12                     ; 0x12 <__rc2>
    15f0: 85 1b        	sta	$1b                     ; 0x1b <__rc11>
    15f2: a5 3e        	lda	$3e                     ; 0x3e <__rc31+0xf>
    15f4: 65 13        	adc	$13                     ; 0x13 <__rc3>
    15f6: a4 1a        	ldy	$1a                     ; 0x1a <__rc10>
    15f8: 84 f3        	sty	$f3                     ; 0xf3 <__rc31+0xc4>
    15fa: a4 1b        	ldy	$1b                     ; 0x1b <__rc11>
    15fc: 84 fb        	sty	$fb                     ; 0xfb <__rc31+0xcc>
    15fe: 85 fc        	sta	$fc                     ; 0xfc <__rc31+0xcd>
    1600: a4 1c        	ldy	$1c                     ; 0x1c <__rc12>
    1602: 84 fd        	sty	$fd                     ; 0xfd <__rc31+0xce>
    1604: a0 42        	ldy	#$42
    1606: 84 1a        	sty	$1a                     ; 0x1a <__rc10>
    1608: a0 00        	ldy	#$0
    160a: 84 1b        	sty	$1b                     ; 0x1b <__rc11>
    160c: 20 64 ff     	jsr	$ff64 <end_block9+0xd096>
    160f: 92 1a        	sta	($1a)                   ; 0x1a <__rc10>
    1611: a9 00        	lda	#$0
    1613: 6a           	ror
    1614: 85 18        	sta	$18                     ; 0x18 <__rc8>
    1616: a4 34        	ldy	$34                     ; 0x34 <kernelError>
    1618: d0 50        	bne	$166a <fileWrite+0x46e>
    161a: 64 35        	stz	$35                     ; 0x35 <kernelEventData>
    161c: a0 43        	ldy	#$43
    161e: 84 1a        	sty	$1a                     ; 0x1a <__rc10>
    1620: a0 00        	ldy	#$0
    1622: 84 1b        	sty	$1b                     ; 0x1b <__rc11>
    1624: 20 00 ff     	jsr	$ff00 <end_block9+0xd032>
    1627: 92 1a        	sta	($1a)                   ; 0x1a <__rc10>
    1629: a9 00        	lda	#$0
    162b: 6a           	ror
    162c: 85 18        	sta	$18                     ; 0x18 <__rc8>
    162e: a5 35        	lda	$35                     ; 0x35 <kernelEventData>
    1630: c9 38        	cmp	#$38
    1632: f0 36        	beq	$166a <fileWrite+0x46e>
    1634: c9 2e        	cmp	#$2e
    1636: d0 e2        	bne	$161a <fileWrite+0x41e>
    1638: a4 3b        	ldy	$3b                     ; 0x3b <kernelEventData+0x6>
    163a: 84 1a        	sty	$1a                     ; 0x1a <__rc10>
    163c: d0 06        	bne	$1644 <fileWrite+0x448>
    163e: 80 2a        	bra	$166a <fileWrite+0x46e>
    1640: a4 3f        	ldy	$3f                     ; 0x3f <__rc31+0x10>
    1642: 84 1a        	sty	$1a                     ; 0x1a <__rc10>
    1644: 18           	clc
    1645: a5 3d        	lda	$3d                     ; 0x3d <__rc31+0xe>
    1647: 65 1a        	adc	$1a                     ; 0x1a <__rc10>
    1649: 85 3d        	sta	$3d                     ; 0x3d <__rc31+0xe>
    164b: a5 3e        	lda	$3e                     ; 0x3e <__rc31+0xf>
    164d: 69 00        	adc	#$0
    164f: 85 3e        	sta	$3e                     ; 0x3e <__rc31+0xf>
    1651: 38           	sec
    1652: a5 44        	lda	$44                     ; 0x44 <__rc31+0x15>
    1654: e5 1a        	sbc	$1a                     ; 0x1a <__rc10>
    1656: a8           	tay
    1657: a5 3c        	lda	$3c                     ; 0x3c <__rc31+0xd>
    1659: e9 00        	sbc	#$0
    165b: 85 3c        	sta	$3c                     ; 0x3c <__rc31+0xd>
    165d: 84 44        	sty	$44                     ; 0x44 <__rc31+0x15>
    165f: f0 03        	beq	$1664 <fileWrite+0x468>
    1661: 4c 18 12     	jmp	$1218 <fileWrite+0x1c>
    1664: 98           	tya
    1665: f0 03        	beq	$166a <fileWrite+0x46e>
    1667: 4c 18 12     	jmp	$1218 <fileWrite+0x1c>
    166a: 60           	rts

0000166b <exit>:
    166b: 20 14 03     	jsr	$314 <_fini>
    166e: 80 fe        	bra	$166e <exit+0x3>

00001670 <_ZN12_GLOBAL__N_13putEcP6Status>:
    1670: 85 18        	sta	$18                     ; 0x18 <__rc8>
    1672: a6 13        	ldx	$13                     ; 0x13 <__rc3>
    1674: 18           	clc
    1675: a5 12        	lda	$12                     ; 0x12 <__rc2>
    1677: 69 05        	adc	#$5
    1679: a8           	tay
    167a: a5 13        	lda	$13                     ; 0x13 <__rc3>
    167c: 86 15        	stx	$15                     ; 0x15 <__rc5>
    167e: 69 00        	adc	#$0
    1680: 18           	clc
    1681: 84 16        	sty	$16                     ; 0x16 <__rc6>
    1683: a0 05        	ldy	#$5
    1685: 85 17        	sta	$17                     ; 0x17 <__rc7>
    1687: b1 12        	lda	($12),y                 ; 0x12 <__rc2>
    1689: aa           	tax
    168a: a5 12        	lda	$12                     ; 0x12 <__rc2>
    168c: 69 03        	adc	#$3
    168e: 85 14        	sta	$14                     ; 0x14 <__rc4>
    1690: a5 15        	lda	$15                     ; 0x15 <__rc5>
    1692: 69 00        	adc	#$0
    1694: 85 15        	sta	$15                     ; 0x15 <__rc5>
    1696: a0 01        	ldy	#$1
    1698: b1 16        	lda	($16),y                 ; 0x16 <__rc6>
    169a: d1 14        	cmp	($14),y                 ; 0x14 <__rc4>
    169c: d0 11        	bne	$16af <_ZN12_GLOBAL__N_13putEcP6Status+0x3f>
    169e: a0 03        	ldy	#$3
    16a0: 85 17        	sta	$17                     ; 0x17 <__rc7>
    16a2: b1 12        	lda	($12),y                 ; 0x12 <__rc2>
    16a4: 85 14        	sta	$14                     ; 0x14 <__rc4>
    16a6: 86 16        	stx	$16                     ; 0x16 <__rc6>
    16a8: e4 14        	cpx	$14                     ; 0x14 <__rc4>
    16aa: 90 0e        	bcc	$16ba <_ZN12_GLOBAL__N_13putEcP6Status+0x4a>
    16ac: 4c 1b 17     	jmp	$171b <_ZN12_GLOBAL__N_13putEcP6Status+0xab>
    16af: 86 16        	stx	$16                     ; 0x16 <__rc6>
    16b1: d1 14        	cmp	($14),y                 ; 0x14 <__rc4>
    16b3: 85 17        	sta	$17                     ; 0x17 <__rc7>
    16b5: 90 03        	bcc	$16ba <_ZN12_GLOBAL__N_13putEcP6Status+0x4a>
    16b7: 4c 1b 17     	jmp	$171b <_ZN12_GLOBAL__N_13putEcP6Status+0xab>
    16ba: a5 12        	lda	$12                     ; 0x12 <__rc2>
    16bc: 18           	clc
    16bd: 69 0f        	adc	#$f
    16bf: 85 14        	sta	$14                     ; 0x14 <__rc4>
    16c1: a5 13        	lda	$13                     ; 0x13 <__rc3>
    16c3: 69 00        	adc	#$0
    16c5: 85 15        	sta	$15                     ; 0x15 <__rc5>
    16c7: a0 01        	ldy	#$1
    16c9: b1 14        	lda	($14),y                 ; 0x14 <__rc4>
    16cb: a2 00        	ldx	#$0
    16cd: 86 14        	stx	$14                     ; 0x14 <__rc4>
    16cf: a2 00        	ldx	#$0
    16d1: 86 15        	stx	$15                     ; 0x15 <__rc5>
    16d3: c5 15        	cmp	$15                     ; 0x15 <__rc5>
    16d5: d0 2d        	bne	$1704 <_ZN12_GLOBAL__N_13putEcP6Status+0x94>
    16d7: a0 0f        	ldy	#$f
    16d9: b1 12        	lda	($12),y                 ; 0x12 <__rc2>
    16db: c5 14        	cmp	$14                     ; 0x14 <__rc4>
    16dd: d0 25        	bne	$1704 <_ZN12_GLOBAL__N_13putEcP6Status+0x94>
    16df: a5 12        	lda	$12                     ; 0x12 <__rc2>
    16e1: 18           	clc
    16e2: 69 09        	adc	#$9
    16e4: 85 14        	sta	$14                     ; 0x14 <__rc4>
    16e6: a5 13        	lda	$13                     ; 0x13 <__rc3>
    16e8: 69 00        	adc	#$0
    16ea: a0 09        	ldy	#$9
    16ec: 85 15        	sta	$15                     ; 0x15 <__rc5>
    16ee: 18           	clc
    16ef: a5 16        	lda	$16                     ; 0x16 <__rc6>
    16f1: 71 12        	adc	($12),y                 ; 0x12 <__rc2>
    16f3: aa           	tax
    16f4: a0 01        	ldy	#$1
    16f6: a5 17        	lda	$17                     ; 0x17 <__rc7>
    16f8: 71 14        	adc	($14),y                 ; 0x14 <__rc4>
    16fa: 86 14        	stx	$14                     ; 0x14 <__rc4>
    16fc: 85 15        	sta	$15                     ; 0x15 <__rc5>
    16fe: a5 18        	lda	$18                     ; 0x18 <__rc8>
    1700: 92 14        	sta	($14)                   ; 0x14 <__rc4>
    1702: 80 17        	bra	$171b <_ZN12_GLOBAL__N_13putEcP6Status+0xab>
    1704: a6 12        	ldx	$12                     ; 0x12 <__rc2>
    1706: 86 91        	stx	$91                     ; 0x91 <__rc31+0x62>
    1708: a6 13        	ldx	$13                     ; 0x13 <__rc3>
    170a: 86 92        	stx	$92                     ; 0x92 <__rc31+0x63>
    170c: a2 00        	ldx	#$0
    170e: a5 18        	lda	$18                     ; 0x18 <__rc8>
    1710: 20 28 24     	jsr	$2428 <putchar>
    1713: a6 91        	ldx	$91                     ; 0x91 <__rc31+0x62>
    1715: 86 12        	stx	$12                     ; 0x12 <__rc2>
    1717: a6 92        	ldx	$92                     ; 0x92 <__rc31+0x63>
    1719: 86 13        	stx	$13                     ; 0x13 <__rc3>
    171b: a0 05        	ldy	#$5
    171d: a5 12        	lda	$12                     ; 0x12 <__rc2>
    171f: 18           	clc
    1720: 69 05        	adc	#$5
    1722: 85 14        	sta	$14                     ; 0x14 <__rc4>
    1724: a5 13        	lda	$13                     ; 0x13 <__rc3>
    1726: 69 00        	adc	#$0
    1728: 85 15        	sta	$15                     ; 0x15 <__rc5>
    172a: b1 12        	lda	($12),y                 ; 0x12 <__rc2>
    172c: aa           	tax
    172d: a0 01        	ldy	#$1
    172f: b1 14        	lda	($14),y                 ; 0x14 <__rc4>
    1731: e8           	inx
    1732: d0 01        	bne	$1735 <_ZN12_GLOBAL__N_13putEcP6Status+0xc5>
    1734: 1a           	inc
    1735: 85 16        	sta	$16                     ; 0x16 <__rc6>
    1737: 8a           	txa
    1738: a0 05        	ldy	#$5
    173a: 91 12        	sta	($12),y                 ; 0x12 <__rc2>
    173c: a0 01        	ldy	#$1
    173e: a5 16        	lda	$16                     ; 0x16 <__rc6>
    1740: 91 14        	sta	($14),y                 ; 0x14 <__rc4>
    1742: 60           	rts

00001743 <_ZN12_GLOBAL__N_112print_stringEPKcP6Status>:
    1743: a6 12        	ldx	$12                     ; 0x12 <__rc2>
    1745: 86 89        	stx	$89                     ; 0x89 <__rc31+0x5a>
    1747: a6 13        	ldx	$13                     ; 0x13 <__rc3>
    1749: 86 8a        	stx	$8a                     ; 0x8a <__rc31+0x5b>
    174b: a6 14        	ldx	$14                     ; 0x14 <__rc4>
    174d: 86 8b        	stx	$8b                     ; 0x8b <__rc31+0x5c>
    174f: a6 15        	ldx	$15                     ; 0x15 <__rc5>
    1751: 86 8c        	stx	$8c                     ; 0x8c <__rc31+0x5d>
    1753: a5 8b        	lda	$8b                     ; 0x8b <__rc31+0x5c>
    1755: 18           	clc
    1756: 69 0d        	adc	#$d
    1758: 85 12        	sta	$12                     ; 0x12 <__rc2>
    175a: a5 8c        	lda	$8c                     ; 0x8c <__rc31+0x5d>
    175c: 69 00        	adc	#$0
    175e: 85 13        	sta	$13                     ; 0x13 <__rc3>
    1760: a0 01        	ldy	#$1
    1762: b1 12        	lda	($12),y                 ; 0x12 <__rc2>
    1764: 30 16        	bmi	$177c <_ZN12_GLOBAL__N_112print_stringEPKcP6Status+0x39>
    1766: a0 0d        	ldy	#$d
    1768: 85 12        	sta	$12                     ; 0x12 <__rc2>
    176a: b1 8b        	lda	($8b),y                 ; 0x8b <__rc31+0x5c>
    176c: a6 12        	ldx	$12                     ; 0x12 <__rc2>
    176e: 86 90        	stx	$90                     ; 0x90 <__rc31+0x61>
    1770: d0 0f        	bne	$1781 <_ZN12_GLOBAL__N_112print_stringEPKcP6Status+0x3e>
    1772: aa           	tax
    1773: d0 0c        	bne	$1781 <_ZN12_GLOBAL__N_112print_stringEPKcP6Status+0x3e>
    1775: 64 8d        	stz	$8d                     ; 0x8d <__rc31+0x5e>
    1777: a2 00        	ldx	#$0
    1779: 4c 4a 18     	jmp	$184a <_ZN12_GLOBAL__N_112print_stringEPKcP6Status+0x107>
    177c: a9 ff        	lda	#$ff
    177e: aa           	tax
    177f: 86 90        	stx	$90                     ; 0x90 <__rc31+0x61>
    1781: 85 8d        	sta	$8d                     ; 0x8d <__rc31+0x5e>
    1783: 64 12        	stz	$12                     ; 0x12 <__rc2>
    1785: a4 89        	ldy	$89                     ; 0x89 <__rc31+0x5a>
    1787: a6 8a        	ldx	$8a                     ; 0x8a <__rc31+0x5b>
    1789: 86 16        	stx	$16                     ; 0x16 <__rc6>
    178b: 64 13        	stz	$13                     ; 0x13 <__rc3>
    178d: 98           	tya
    178e: 18           	clc
    178f: 65 12        	adc	$12                     ; 0x12 <__rc2>
    1791: 85 14        	sta	$14                     ; 0x14 <__rc4>
    1793: a5 8a        	lda	$8a                     ; 0x8a <__rc31+0x5b>
    1795: 65 13        	adc	$13                     ; 0x13 <__rc3>
    1797: 85 15        	sta	$15                     ; 0x15 <__rc5>
    1799: b2 14        	lda	($14)                   ; 0x14 <__rc4>
    179b: d0 03        	bne	$17a0 <_ZN12_GLOBAL__N_112print_stringEPKcP6Status+0x5d>
    179d: 4c 44 18     	jmp	$1844 <_ZN12_GLOBAL__N_112print_stringEPKcP6Status+0x101>
    17a0: e6 12        	inc	$12                     ; 0x12 <__rc2>
    17a2: d0 02        	bne	$17a6 <_ZN12_GLOBAL__N_112print_stringEPKcP6Status+0x63>
    17a4: e6 13        	inc	$13                     ; 0x13 <__rc3>
    17a6: a6 90        	ldx	$90                     ; 0x90 <__rc31+0x61>
    17a8: e4 13        	cpx	$13                     ; 0x13 <__rc3>
    17aa: d0 e1        	bne	$178d <_ZN12_GLOBAL__N_112print_stringEPKcP6Status+0x4a>
    17ac: a6 8d        	ldx	$8d                     ; 0x8d <__rc31+0x5e>
    17ae: e4 12        	cpx	$12                     ; 0x12 <__rc2>
    17b0: d0 db        	bne	$178d <_ZN12_GLOBAL__N_112print_stringEPKcP6Status+0x4a>
    17b2: a0 01        	ldy	#$1
    17b4: b1 8b        	lda	($8b),y                 ; 0x8b <__rc31+0x5c>
    17b6: 29 01        	and	#$1
    17b8: f0 03        	beq	$17bd <_ZN12_GLOBAL__N_112print_stringEPKcP6Status+0x7a>
    17ba: 4c 15 18     	jmp	$1815 <_ZN12_GLOBAL__N_112print_stringEPKcP6Status+0xd2>
    17bd: a5 8b        	lda	$8b                     ; 0x8b <__rc31+0x5c>
    17bf: 18           	clc
    17c0: 69 0b        	adc	#$b
    17c2: 85 14        	sta	$14                     ; 0x14 <__rc4>
    17c4: a5 8c        	lda	$8c                     ; 0x8c <__rc31+0x5d>
    17c6: 69 00        	adc	#$0
    17c8: 85 15        	sta	$15                     ; 0x15 <__rc5>
    17ca: a0 0b        	ldy	#$b
    17cc: b1 8b        	lda	($8b),y                 ; 0x8b <__rc31+0x5c>
    17ce: 85 13        	sta	$13                     ; 0x13 <__rc3>
    17d0: a0 01        	ldy	#$1
    17d2: b1 14        	lda	($14),y                 ; 0x14 <__rc4>
    17d4: 85 12        	sta	$12                     ; 0x12 <__rc2>
    17d6: a6 90        	ldx	$90                     ; 0x90 <__rc31+0x61>
    17d8: e4 12        	cpx	$12                     ; 0x12 <__rc2>
    17da: d0 08        	bne	$17e4 <_ZN12_GLOBAL__N_112print_stringEPKcP6Status+0xa1>
    17dc: a6 8d        	ldx	$8d                     ; 0x8d <__rc31+0x5e>
    17de: e4 13        	cpx	$13                     ; 0x13 <__rc3>
    17e0: 90 06        	bcc	$17e8 <_ZN12_GLOBAL__N_112print_stringEPKcP6Status+0xa5>
    17e2: 80 31        	bra	$1815 <_ZN12_GLOBAL__N_112print_stringEPKcP6Status+0xd2>
    17e4: e4 12        	cpx	$12                     ; 0x12 <__rc2>
    17e6: b0 2d        	bcs	$1815 <_ZN12_GLOBAL__N_112print_stringEPKcP6Status+0xd2>
    17e8: 38           	sec
    17e9: a5 8d        	lda	$8d                     ; 0x8d <__rc31+0x5e>
    17eb: e5 13        	sbc	$13                     ; 0x13 <__rc3>
    17ed: a8           	tay
    17ee: a5 90        	lda	$90                     ; 0x90 <__rc31+0x61>
    17f0: e5 12        	sbc	$12                     ; 0x12 <__rc2>
    17f2: 85 8f        	sta	$8f                     ; 0x8f <__rc31+0x60>
    17f4: a6 8b        	ldx	$8b                     ; 0x8b <__rc31+0x5c>
    17f6: 86 12        	stx	$12                     ; 0x12 <__rc2>
    17f8: a6 8c        	ldx	$8c                     ; 0x8c <__rc31+0x5d>
    17fa: 86 13        	stx	$13                     ; 0x13 <__rc3>
    17fc: 84 8e        	sty	$8e                     ; 0x8e <__rc31+0x5f>
    17fe: a9 20        	lda	#$20
    1800: 20 70 16     	jsr	$1670 <_ZN12_GLOBAL__N_13putEcP6Status>
    1803: a6 8f        	ldx	$8f                     ; 0x8f <__rc31+0x60>
    1805: e6 8e        	inc	$8e                     ; 0x8e <__rc31+0x5f>
    1807: d0 01        	bne	$180a <_ZN12_GLOBAL__N_112print_stringEPKcP6Status+0xc7>
    1809: e8           	inx
    180a: 86 8f        	stx	$8f                     ; 0x8f <__rc31+0x60>
    180c: a4 8e        	ldy	$8e                     ; 0x8e <__rc31+0x5f>
    180e: 8a           	txa
    180f: d0 e3        	bne	$17f4 <_ZN12_GLOBAL__N_112print_stringEPKcP6Status+0xb1>
    1811: a5 8e        	lda	$8e                     ; 0x8e <__rc31+0x5f>
    1813: d0 df        	bne	$17f4 <_ZN12_GLOBAL__N_112print_stringEPKcP6Status+0xb1>
    1815: a4 90        	ldy	$90                     ; 0x90 <__rc31+0x61>
    1817: d0 04        	bne	$181d <_ZN12_GLOBAL__N_112print_stringEPKcP6Status+0xda>
    1819: a5 8d        	lda	$8d                     ; 0x8d <__rc31+0x5e>
    181b: f0 26        	beq	$1843 <_ZN12_GLOBAL__N_112print_stringEPKcP6Status+0x100>
    181d: a2 ff        	ldx	#$ff
    181f: c6 8d        	dec	$8d                     ; 0x8d <__rc31+0x5e>
    1821: e4 8d        	cpx	$8d                     ; 0x8d <__rc31+0x5e>
    1823: d0 01        	bne	$1826 <_ZN12_GLOBAL__N_112print_stringEPKcP6Status+0xe3>
    1825: 88           	dey
    1826: 84 8e        	sty	$8e                     ; 0x8e <__rc31+0x5f>
    1828: b2 89        	lda	($89)                   ; 0x89 <__rc31+0x5a>
    182a: e6 89        	inc	$89                     ; 0x89 <__rc31+0x5a>
    182c: d0 02        	bne	$1830 <_ZN12_GLOBAL__N_112print_stringEPKcP6Status+0xed>
    182e: e6 8a        	inc	$8a                     ; 0x8a <__rc31+0x5b>
    1830: a6 8b        	ldx	$8b                     ; 0x8b <__rc31+0x5c>
    1832: 86 12        	stx	$12                     ; 0x12 <__rc2>
    1834: a6 8c        	ldx	$8c                     ; 0x8c <__rc31+0x5d>
    1836: 86 13        	stx	$13                     ; 0x13 <__rc3>
    1838: 20 70 16     	jsr	$1670 <_ZN12_GLOBAL__N_13putEcP6Status>
    183b: a4 8e        	ldy	$8e                     ; 0x8e <__rc31+0x5f>
    183d: d0 de        	bne	$181d <_ZN12_GLOBAL__N_112print_stringEPKcP6Status+0xda>
    183f: a5 8d        	lda	$8d                     ; 0x8d <__rc31+0x5e>
    1841: d0 da        	bne	$181d <_ZN12_GLOBAL__N_112print_stringEPKcP6Status+0xda>
    1843: 60           	rts
    1844: a6 12        	ldx	$12                     ; 0x12 <__rc2>
    1846: 86 8d        	stx	$8d                     ; 0x8d <__rc31+0x5e>
    1848: a6 13        	ldx	$13                     ; 0x13 <__rc3>
    184a: 86 90        	stx	$90                     ; 0x90 <__rc31+0x61>
    184c: 4c b2 17     	jmp	$17b2 <_ZN12_GLOBAL__N_112print_stringEPKcP6Status+0x6f>

0000184f <printf>:
    184f: a6 12        	ldx	$12                     ; 0x12 <__rc2>
    1851: 86 3e        	stx	$3e                     ; 0x3e <__rc31+0xf>
    1853: a6 13        	ldx	$13                     ; 0x13 <__rc3>
    1855: 86 3f        	stx	$3f                     ; 0x3f <__rc31+0x10>
    1857: 18           	clc
    1858: a6 10        	ldx	$10                     ; 0x10 <__rc0>
    185a: a4 11        	ldy	$11                     ; 0x11 <__rc1>
    185c: 86 7f        	stx	$7f                     ; 0x7f <__rc31+0x50>
    185e: 84 80        	sty	$80                     ; 0x80 <__rc31+0x51>
    1860: a6 7f        	ldx	$7f                     ; 0x7f <__rc31+0x50>
    1862: a4 80        	ldy	$80                     ; 0x80 <__rc31+0x51>
    1864: 86 6a        	stx	$6a                     ; 0x6a <__rc31+0x3b>
    1866: 84 6b        	sty	$6b                     ; 0x6b <__rc31+0x3c>
    1868: a2 ff        	ldx	#$ff
    186a: 86 6f        	stx	$6f                     ; 0x6f <__rc31+0x40>
    186c: 86 70        	stx	$70                     ; 0x70 <__rc31+0x41>
    186e: 64 71        	stz	$71                     ; 0x71 <__rc31+0x42>
    1870: 64 72        	stz	$72                     ; 0x72 <__rc31+0x43>
    1872: e8           	inx
    1873: 86 40        	stx	$40                     ; 0x40 <__rc31+0x11>
    1875: a2 00        	ldx	#$0
    1877: 86 41        	stx	$41                     ; 0x41 <__rc31+0x12>
    1879: a6 40        	ldx	$40                     ; 0x40 <__rc31+0x11>
    187b: a4 41        	ldy	$41                     ; 0x41 <__rc31+0x12>
    187d: 86 75        	stx	$75                     ; 0x75 <__rc31+0x46>
    187f: 84 76        	sty	$76                     ; 0x76 <__rc31+0x47>
    1881: a2 02        	ldx	#$2
    1883: 86 7b        	stx	$7b                     ; 0x7b <__rc31+0x4c>
    1885: 64 7c        	stz	$7c                     ; 0x7c <__rc31+0x4d>
    1887: a6 6a        	ldx	$6a                     ; 0x6a <__rc31+0x3b>
    1889: a4 6b        	ldy	$6b                     ; 0x6b <__rc31+0x3c>
    188b: 86 7d        	stx	$7d                     ; 0x7d <__rc31+0x4e>
    188d: 84 7e        	sty	$7e                     ; 0x7e <__rc31+0x4f>
    188f: a2 61        	ldx	#$61
    1891: a0 00        	ldy	#$0
    1893: 86 12        	stx	$12                     ; 0x12 <__rc2>
    1895: 84 13        	sty	$13                     ; 0x13 <__rc3>
    1897: a0 01        	ldy	#$1
    1899: a9 48        	lda	#$48
    189b: 18           	clc
    189c: 69 02        	adc	#$2
    189e: 85 87        	sta	$87                     ; 0x87 <__rc31+0x58>
    18a0: a9 00        	lda	#$0
    18a2: 69 00        	adc	#$0
    18a4: 85 88        	sta	$88                     ; 0x88 <__rc31+0x59>
    18a6: e6 12        	inc	$12                     ; 0x12 <__rc2>
    18a8: d0 02        	bne	$18ac <printf+0x5d>
    18aa: e6 13        	inc	$13                     ; 0x13 <__rc3>
    18ac: a6 12        	ldx	$12                     ; 0x12 <__rc2>
    18ae: 86 83        	stx	$83                     ; 0x83 <__rc31+0x54>
    18b0: a6 13        	ldx	$13                     ; 0x13 <__rc3>
    18b2: 86 84        	stx	$84                     ; 0x84 <__rc31+0x55>
    18b4: a6 3e        	ldx	$3e                     ; 0x3e <__rc31+0xf>
    18b6: 86 42        	stx	$42                     ; 0x42 <__rc31+0x13>
    18b8: a6 3f        	ldx	$3f                     ; 0x3f <__rc31+0x10>
    18ba: 86 43        	stx	$43                     ; 0x43 <__rc31+0x14>
    18bc: b2 3e        	lda	($3e)                   ; 0x3e <__rc31+0xf>
    18be: c9 25        	cmp	#$25
    18c0: f0 23        	beq	$18e5 <printf+0x96>
    18c2: a2 00        	ldx	#$0
    18c4: a8           	tay
    18c5: d0 03        	bne	$18ca <printf+0x7b>
    18c7: 4c 27 24     	jmp	$2427 <printf+0xbd8>
    18ca: 20 28 24     	jsr	$2428 <putchar>
    18cd: a0 01        	ldy	#$1
    18cf: e6 42        	inc	$42                     ; 0x42 <__rc31+0x13>
    18d1: d0 02        	bne	$18d5 <printf+0x86>
    18d3: e6 43        	inc	$43                     ; 0x43 <__rc31+0x14>
    18d5: e6 71        	inc	$71                     ; 0x71 <__rc31+0x42>
    18d7: d0 02        	bne	$18db <printf+0x8c>
    18d9: e6 72        	inc	$72                     ; 0x72 <__rc31+0x43>
    18db: a6 42        	ldx	$42                     ; 0x42 <__rc31+0x13>
    18dd: 86 3e        	stx	$3e                     ; 0x3e <__rc31+0xf>
    18df: a6 43        	ldx	$43                     ; 0x43 <__rc31+0x14>
    18e1: 86 3f        	stx	$3f                     ; 0x3f <__rc31+0x10>
    18e3: 80 cf        	bra	$18b4 <printf+0x65>
    18e5: a6 3e        	ldx	$3e                     ; 0x3e <__rc31+0xf>
    18e7: 86 12        	stx	$12                     ; 0x12 <__rc2>
    18e9: a6 3f        	ldx	$3f                     ; 0x3f <__rc31+0x10>
    18eb: 86 13        	stx	$13                     ; 0x13 <__rc3>
    18ed: e6 12        	inc	$12                     ; 0x12 <__rc2>
    18ef: d0 02        	bne	$18f3 <printf+0xa4>
    18f1: e6 13        	inc	$13                     ; 0x13 <__rc3>
    18f3: b1 42        	lda	($42),y                 ; 0x42 <__rc31+0x13>
    18f5: c9 25        	cmp	#$25
    18f7: d0 16        	bne	$190f <printf+0xc0>
    18f9: a4 71        	ldy	$71                     ; 0x71 <__rc31+0x42>
    18fb: a5 72        	lda	$72                     ; 0x72 <__rc31+0x43>
    18fd: c5 70        	cmp	$70                     ; 0x70 <__rc31+0x41>
    18ff: f0 03        	beq	$1904 <printf+0xb5>
    1901: 4c 15 1a     	jmp	$1a15 <printf+0x1c6>
    1904: a6 6f        	ldx	$6f                     ; 0x6f <__rc31+0x40>
    1906: 86 12        	stx	$12                     ; 0x12 <__rc2>
    1908: 84 13        	sty	$13                     ; 0x13 <__rc3>
    190a: c4 12        	cpy	$12                     ; 0x12 <__rc2>
    190c: 4c 19 1a     	jmp	$1a19 <printf+0x1ca>
    190f: 64 6d        	stz	$6d                     ; 0x6d <__rc31+0x3e>
    1911: 64 6e        	stz	$6e                     ; 0x6e <__rc31+0x3f>
    1913: 64 6c        	stz	$6c                     ; 0x6c <__rc31+0x3d>
    1915: 64 77        	stz	$77                     ; 0x77 <__rc31+0x48>
    1917: 64 78        	stz	$78                     ; 0x78 <__rc31+0x49>
    1919: a2 ff        	ldx	#$ff
    191b: 86 79        	stx	$79                     ; 0x79 <__rc31+0x4a>
    191d: 86 7a        	stx	$7a                     ; 0x7a <__rc31+0x4b>
    191f: 64 3d        	stz	$3d                     ; 0x3d <__rc31+0xe>
    1921: 80 33        	bra	$1956 <printf+0x107>
    1923: a2 02        	ldx	#$2
    1925: 80 15        	bra	$193c <printf+0xed>
    1927: e0 20        	cpx	#$20
    1929: f0 15        	beq	$1940 <printf+0xf1>
    192b: 86 15        	stx	$15                     ; 0x15 <__rc5>
    192d: e0 23        	cpx	#$23
    192f: f0 03        	beq	$1934 <printf+0xe5>
    1931: 4c b3 19     	jmp	$19b3 <printf+0x164>
    1934: a5 3d        	lda	$3d                     ; 0x3d <__rc31+0xe>
    1936: a2 04        	ldx	#$4
    1938: 80 02        	bra	$193c <printf+0xed>
    193a: a2 10        	ldx	#$10
    193c: 86 14        	stx	$14                     ; 0x14 <__rc4>
    193e: 80 06        	bra	$1946 <printf+0xf7>
    1940: a2 08        	ldx	#$8
    1942: 86 14        	stx	$14                     ; 0x14 <__rc4>
    1944: a5 3d        	lda	$3d                     ; 0x3d <__rc31+0xe>
    1946: 05 14        	ora	$14                     ; 0x14 <__rc4>
    1948: 85 3d        	sta	$3d                     ; 0x3d <__rc31+0xe>
    194a: 85 6d        	sta	$6d                     ; 0x6d <__rc31+0x3e>
    194c: a2 00        	ldx	#$0
    194e: 86 6e        	stx	$6e                     ; 0x6e <__rc31+0x3f>
    1950: e6 12        	inc	$12                     ; 0x12 <__rc2>
    1952: d0 02        	bne	$1956 <printf+0x107>
    1954: e6 13        	inc	$13                     ; 0x13 <__rc3>
    1956: b2 12        	lda	($12)                   ; 0x12 <__rc2>
    1958: aa           	tax
    1959: 18           	clc
    195a: 69 d6        	adc	#$d6
    195c: c9 07        	cmp	#$7
    195e: b0 c7        	bcs	$1927 <printf+0xd8>
    1960: 86 15        	stx	$15                     ; 0x15 <__rc5>
    1962: 0a           	asl
    1963: aa           	tax
    1964: a0 01        	ldy	#$1
    1966: 84 14        	sty	$14                     ; 0x14 <__rc4>
    1968: a5 3d        	lda	$3d                     ; 0x3d <__rc31+0xe>
    196a: 7c 5c 26     	jmp	($265c,x)               ; 0x265c <__set_v+0x1>
    196d: a5 7d        	lda	$7d                     ; 0x7d <__rc31+0x4e>
    196f: a6 7e        	ldx	$7e                     ; 0x7e <__rc31+0x4f>
    1971: 85 16        	sta	$16                     ; 0x16 <__rc6>
    1973: 86 17        	stx	$17                     ; 0x17 <__rc7>
    1975: 18           	clc
    1976: 69 02        	adc	#$2
    1978: a8           	tay
    1979: 8a           	txa
    197a: 69 00        	adc	#$0
    197c: 84 7d        	sty	$7d                     ; 0x7d <__rc31+0x4e>
    197e: 85 7e        	sta	$7e                     ; 0x7e <__rc31+0x4f>
    1980: b2 16        	lda	($16)                   ; 0x16 <__rc6>
    1982: 85 15        	sta	$15                     ; 0x15 <__rc5>
    1984: a0 01        	ldy	#$1
    1986: b1 16        	lda	($16),y                 ; 0x16 <__rc6>
    1988: 85 14        	sta	$14                     ; 0x14 <__rc4>
    198a: 10 15        	bpl	$19a1 <printf+0x152>
    198c: a5 3d        	lda	$3d                     ; 0x3d <__rc31+0xe>
    198e: 09 01        	ora	#$1
    1990: 85 3d        	sta	$3d                     ; 0x3d <__rc31+0xe>
    1992: 85 6d        	sta	$6d                     ; 0x6d <__rc31+0x3e>
    1994: a2 00        	ldx	#$0
    1996: 86 6e        	stx	$6e                     ; 0x6e <__rc31+0x3f>
    1998: 8a           	txa
    1999: 38           	sec
    199a: e5 15        	sbc	$15                     ; 0x15 <__rc5>
    199c: 85 15        	sta	$15                     ; 0x15 <__rc5>
    199e: 8a           	txa
    199f: e5 14        	sbc	$14                     ; 0x14 <__rc4>
    19a1: a6 15        	ldx	$15                     ; 0x15 <__rc5>
    19a3: 86 77        	stx	$77                     ; 0x77 <__rc31+0x48>
    19a5: 85 78        	sta	$78                     ; 0x78 <__rc31+0x49>
    19a7: e6 12        	inc	$12                     ; 0x12 <__rc2>
    19a9: f0 03        	beq	$19ae <printf+0x15f>
    19ab: 4c 69 1a     	jmp	$1a69 <printf+0x21a>
    19ae: e6 13        	inc	$13                     ; 0x13 <__rc3>
    19b0: 4c 69 1a     	jmp	$1a69 <printf+0x21a>
    19b3: a5 15        	lda	$15                     ; 0x15 <__rc5>
    19b5: 18           	clc
    19b6: 69 d0        	adc	#$d0
    19b8: c9 0a        	cmp	#$a
    19ba: 90 03        	bcc	$19bf <printf+0x170>
    19bc: 4c 5b 1a     	jmp	$1a5b <printf+0x20c>
    19bf: a6 15        	ldx	$15                     ; 0x15 <__rc5>
    19c1: 86 14        	stx	$14                     ; 0x14 <__rc4>
    19c3: 64 16        	stz	$16                     ; 0x16 <__rc6>
    19c5: 64 15        	stz	$15                     ; 0x15 <__rc5>
    19c7: 64 17        	stz	$17                     ; 0x17 <__rc7>
    19c9: a0 01        	ldy	#$1
    19cb: 06 16        	asl	$16                     ; 0x16 <__rc6>
    19cd: 26 17        	rol	$17                     ; 0x17 <__rc7>
    19cf: a5 16        	lda	$16                     ; 0x16 <__rc6>
    19d1: 0a           	asl
    19d2: aa           	tax
    19d3: a5 17        	lda	$17                     ; 0x17 <__rc7>
    19d5: 2a           	rol
    19d6: 86 18        	stx	$18                     ; 0x18 <__rc8>
    19d8: 06 18        	asl	$18                     ; 0x18 <__rc8>
    19da: 2a           	rol
    19db: aa           	tax
    19dc: a5 18        	lda	$18                     ; 0x18 <__rc8>
    19de: 18           	clc
    19df: 65 16        	adc	$16                     ; 0x16 <__rc6>
    19e1: 85 16        	sta	$16                     ; 0x16 <__rc6>
    19e3: 8a           	txa
    19e4: 65 17        	adc	$17                     ; 0x17 <__rc7>
    19e6: 85 17        	sta	$17                     ; 0x17 <__rc7>
    19e8: a5 16        	lda	$16                     ; 0x16 <__rc6>
    19ea: 18           	clc
    19eb: 65 14        	adc	$14                     ; 0x14 <__rc4>
    19ed: 85 14        	sta	$14                     ; 0x14 <__rc4>
    19ef: a5 17        	lda	$17                     ; 0x17 <__rc7>
    19f1: 65 15        	adc	$15                     ; 0x15 <__rc5>
    19f3: aa           	tax
    19f4: 18           	clc
    19f5: a5 14        	lda	$14                     ; 0x14 <__rc4>
    19f7: 69 d0        	adc	#$d0
    19f9: 85 16        	sta	$16                     ; 0x16 <__rc6>
    19fb: 8a           	txa
    19fc: 69 ff        	adc	#$ff
    19fe: 85 17        	sta	$17                     ; 0x17 <__rc7>
    1a00: b1 12        	lda	($12),y                 ; 0x12 <__rc2>
    1a02: 85 14        	sta	$14                     ; 0x14 <__rc4>
    1a04: 18           	clc
    1a05: 69 d0        	adc	#$d0
    1a07: e6 12        	inc	$12                     ; 0x12 <__rc2>
    1a09: d0 02        	bne	$1a0d <printf+0x1be>
    1a0b: e6 13        	inc	$13                     ; 0x13 <__rc3>
    1a0d: c9 0a        	cmp	#$a
    1a0f: 64 15        	stz	$15                     ; 0x15 <__rc5>
    1a11: 90 b8        	bcc	$19cb <printf+0x17c>
    1a13: 80 4c        	bra	$1a61 <printf+0x212>
    1a15: 84 13        	sty	$13                     ; 0x13 <__rc3>
    1a17: c5 70        	cmp	$70                     ; 0x70 <__rc31+0x41>
    1a19: a0 01        	ldy	#$1
    1a1b: b0 28        	bcs	$1a45 <printf+0x1f6>
    1a1d: a6 7c        	ldx	$7c                     ; 0x7c <__rc31+0x4d>
    1a1f: e4 41        	cpx	$41                     ; 0x41 <__rc31+0x12>
    1a21: d0 19        	bne	$1a3c <printf+0x1ed>
    1a23: a6 7b        	ldx	$7b                     ; 0x7b <__rc31+0x4c>
    1a25: e4 40        	cpx	$40                     ; 0x40 <__rc31+0x11>
    1a27: d0 13        	bne	$1a3c <printf+0x1ed>
    1a29: 18           	clc
    1a2a: aa           	tax
    1a2b: a5 13        	lda	$13                     ; 0x13 <__rc3>
    1a2d: 65 75        	adc	$75                     ; 0x75 <__rc31+0x46>
    1a2f: 85 12        	sta	$12                     ; 0x12 <__rc2>
    1a31: 8a           	txa
    1a32: 65 76        	adc	$76                     ; 0x76 <__rc31+0x47>
    1a34: 85 13        	sta	$13                     ; 0x13 <__rc3>
    1a36: a9 25        	lda	#$25
    1a38: 92 12        	sta	($12)                   ; 0x12 <__rc2>
    1a3a: 80 09        	bra	$1a45 <printf+0x1f6>
    1a3c: a2 00        	ldx	#$0
    1a3e: a9 25        	lda	#$25
    1a40: 20 28 24     	jsr	$2428 <putchar>
    1a43: a0 01        	ldy	#$1
    1a45: e6 71        	inc	$71                     ; 0x71 <__rc31+0x42>
    1a47: d0 02        	bne	$1a4b <printf+0x1fc>
    1a49: e6 72        	inc	$72                     ; 0x72 <__rc31+0x43>
    1a4b: a5 42        	lda	$42                     ; 0x42 <__rc31+0x13>
    1a4d: 18           	clc
    1a4e: 69 02        	adc	#$2
    1a50: 85 3e        	sta	$3e                     ; 0x3e <__rc31+0xf>
    1a52: a5 43        	lda	$43                     ; 0x43 <__rc31+0x14>
    1a54: 69 00        	adc	#$0
    1a56: 85 3f        	sta	$3f                     ; 0x3f <__rc31+0x10>
    1a58: 4c b4 18     	jmp	$18b4 <printf+0x65>
    1a5b: 64 16        	stz	$16                     ; 0x16 <__rc6>
    1a5d: 64 17        	stz	$17                     ; 0x17 <__rc7>
    1a5f: a0 01        	ldy	#$1
    1a61: a6 16        	ldx	$16                     ; 0x16 <__rc6>
    1a63: 86 77        	stx	$77                     ; 0x77 <__rc31+0x48>
    1a65: a5 17        	lda	$17                     ; 0x17 <__rc7>
    1a67: 85 78        	sta	$78                     ; 0x78 <__rc31+0x49>
    1a69: 86 46        	stx	$46                     ; 0x46 <__rc31+0x17>
    1a6b: 85 44        	sta	$44                     ; 0x44 <__rc31+0x15>
    1a6d: b2 12        	lda	($12)                   ; 0x12 <__rc2>
    1a6f: a2 ff        	ldx	#$ff
    1a71: c9 2e        	cmp	#$2e
    1a73: d0 39        	bne	$1aae <printf+0x25f>
    1a75: b1 12        	lda	($12),y                 ; 0x12 <__rc2>
    1a77: c9 2a        	cmp	#$2a
    1a79: d0 38        	bne	$1ab3 <printf+0x264>
    1a7b: a5 7d        	lda	$7d                     ; 0x7d <__rc31+0x4e>
    1a7d: a6 7e        	ldx	$7e                     ; 0x7e <__rc31+0x4f>
    1a7f: 85 14        	sta	$14                     ; 0x14 <__rc4>
    1a81: 86 15        	stx	$15                     ; 0x15 <__rc5>
    1a83: 18           	clc
    1a84: 69 02        	adc	#$2
    1a86: 85 16        	sta	$16                     ; 0x16 <__rc6>
    1a88: 8a           	txa
    1a89: 69 00        	adc	#$0
    1a8b: a6 16        	ldx	$16                     ; 0x16 <__rc6>
    1a8d: 86 7d        	stx	$7d                     ; 0x7d <__rc31+0x4e>
    1a8f: 85 7e        	sta	$7e                     ; 0x7e <__rc31+0x4f>
    1a91: a5 12        	lda	$12                     ; 0x12 <__rc2>
    1a93: 18           	clc
    1a94: 69 02        	adc	#$2
    1a96: 85 12        	sta	$12                     ; 0x12 <__rc2>
    1a98: a5 13        	lda	$13                     ; 0x13 <__rc3>
    1a9a: 69 00        	adc	#$0
    1a9c: 85 13        	sta	$13                     ; 0x13 <__rc3>
    1a9e: b2 14        	lda	($14)                   ; 0x14 <__rc4>
    1aa0: aa           	tax
    1aa1: b1 14        	lda	($14),y                 ; 0x14 <__rc4>
    1aa3: 86 18        	stx	$18                     ; 0x18 <__rc8>
    1aa5: 86 79        	stx	$79                     ; 0x79 <__rc31+0x4a>
    1aa7: 85 19        	sta	$19                     ; 0x19 <__rc9>
    1aa9: 85 7a        	sta	$7a                     ; 0x7a <__rc31+0x4b>
    1aab: 4c 5e 1b     	jmp	$1b5e <printf+0x30f>
    1aae: 86 18        	stx	$18                     ; 0x18 <__rc8>
    1ab0: 4c 6e 1b     	jmp	$1b6e <printf+0x31f>
    1ab3: 85 17        	sta	$17                     ; 0x17 <__rc7>
    1ab5: 18           	clc
    1ab6: 69 d0        	adc	#$d0
    1ab8: c9 0a        	cmp	#$a
    1aba: 90 03        	bcc	$1abf <printf+0x270>
    1abc: 4c 50 1b     	jmp	$1b50 <printf+0x301>
    1abf: 64 16        	stz	$16                     ; 0x16 <__rc6>
    1ac1: a2 01        	ldx	#$1
    1ac3: 64 18        	stz	$18                     ; 0x18 <__rc8>
    1ac5: 64 19        	stz	$19                     ; 0x19 <__rc9>
    1ac7: a0 01        	ldy	#$1
    1ac9: 64 1a        	stz	$1a                     ; 0x1a <__rc10>
    1acb: 5a           	phy
    1acc: a4 1a        	ldy	$1a                     ; 0x1a <__rc10>
    1ace: 84 14        	sty	$14                     ; 0x14 <__rc4>
    1ad0: 86 15        	stx	$15                     ; 0x15 <__rc5>
    1ad2: 06 18        	asl	$18                     ; 0x18 <__rc8>
    1ad4: 26 19        	rol	$19                     ; 0x19 <__rc9>
    1ad6: a5 18        	lda	$18                     ; 0x18 <__rc8>
    1ad8: 0a           	asl
    1ad9: 85 1d        	sta	$1d                     ; 0x1d <__rc13>
    1adb: a5 19        	lda	$19                     ; 0x19 <__rc9>
    1add: 2a           	rol
    1ade: 06 1d        	asl	$1d                     ; 0x1d <__rc13>
    1ae0: 2a           	rol
    1ae1: 85 1e        	sta	$1e                     ; 0x1e <__rc14>
    1ae3: a5 1d        	lda	$1d                     ; 0x1d <__rc13>
    1ae5: 18           	clc
    1ae6: 65 18        	adc	$18                     ; 0x18 <__rc8>
    1ae8: 85 18        	sta	$18                     ; 0x18 <__rc8>
    1aea: a5 1e        	lda	$1e                     ; 0x1e <__rc14>
    1aec: 65 19        	adc	$19                     ; 0x19 <__rc9>
    1aee: 85 19        	sta	$19                     ; 0x19 <__rc9>
    1af0: a5 18        	lda	$18                     ; 0x18 <__rc8>
    1af2: 18           	clc
    1af3: 65 17        	adc	$17                     ; 0x17 <__rc7>
    1af5: 85 17        	sta	$17                     ; 0x17 <__rc7>
    1af7: a5 19        	lda	$19                     ; 0x19 <__rc9>
    1af9: 65 16        	adc	$16                     ; 0x16 <__rc6>
    1afb: 85 16        	sta	$16                     ; 0x16 <__rc6>
    1afd: 18           	clc
    1afe: a5 17        	lda	$17                     ; 0x17 <__rc7>
    1b00: 69 d0        	adc	#$d0
    1b02: 85 18        	sta	$18                     ; 0x18 <__rc8>
    1b04: a5 16        	lda	$16                     ; 0x16 <__rc6>
    1b06: 69 ff        	adc	#$ff
    1b08: 85 19        	sta	$19                     ; 0x19 <__rc9>
    1b0a: e8           	inx
    1b0b: d0 02        	bne	$1b0f <printf+0x2c0>
    1b0d: e6 1a        	inc	$1a                     ; 0x1a <__rc10>
    1b0f: a5 12        	lda	$12                     ; 0x12 <__rc2>
    1b11: 18           	clc
    1b12: 65 15        	adc	$15                     ; 0x15 <__rc5>
    1b14: 85 1d        	sta	$1d                     ; 0x1d <__rc13>
    1b16: a5 13        	lda	$13                     ; 0x13 <__rc3>
    1b18: 65 14        	adc	$14                     ; 0x14 <__rc4>
    1b1a: a4 1d        	ldy	$1d                     ; 0x1d <__rc13>
    1b1c: 84 16        	sty	$16                     ; 0x16 <__rc6>
    1b1e: 7a           	ply
    1b1f: 85 17        	sta	$17                     ; 0x17 <__rc7>
    1b21: b1 16        	lda	($16),y                 ; 0x16 <__rc6>
    1b23: 85 17        	sta	$17                     ; 0x17 <__rc7>
    1b25: 18           	clc
    1b26: 69 d0        	adc	#$d0
    1b28: c9 0a        	cmp	#$a
    1b2a: 64 16        	stz	$16                     ; 0x16 <__rc6>
    1b2c: b0 03        	bcs	$1b31 <printf+0x2e2>
    1b2e: 4c cb 1a     	jmp	$1acb <printf+0x27c>
    1b31: a5 12        	lda	$12                     ; 0x12 <__rc2>
    1b33: 18           	clc
    1b34: 65 15        	adc	$15                     ; 0x15 <__rc5>
    1b36: 85 12        	sta	$12                     ; 0x12 <__rc2>
    1b38: a5 13        	lda	$13                     ; 0x13 <__rc3>
    1b3a: 65 14        	adc	$14                     ; 0x14 <__rc4>
    1b3c: 85 13        	sta	$13                     ; 0x13 <__rc3>
    1b3e: e6 12        	inc	$12                     ; 0x12 <__rc2>
    1b40: d0 02        	bne	$1b44 <printf+0x2f5>
    1b42: e6 13        	inc	$13                     ; 0x13 <__rc3>
    1b44: a6 18        	ldx	$18                     ; 0x18 <__rc8>
    1b46: 86 79        	stx	$79                     ; 0x79 <__rc31+0x4a>
    1b48: a6 19        	ldx	$19                     ; 0x19 <__rc9>
    1b4a: 86 7a        	stx	$7a                     ; 0x7a <__rc31+0x4b>
    1b4c: a0 01        	ldy	#$1
    1b4e: 80 0e        	bra	$1b5e <printf+0x30f>
    1b50: e6 12        	inc	$12                     ; 0x12 <__rc2>
    1b52: d0 02        	bne	$1b56 <printf+0x307>
    1b54: e6 13        	inc	$13                     ; 0x13 <__rc3>
    1b56: 64 18        	stz	$18                     ; 0x18 <__rc8>
    1b58: 64 79        	stz	$79                     ; 0x79 <__rc31+0x4a>
    1b5a: 64 7a        	stz	$7a                     ; 0x7a <__rc31+0x4b>
    1b5c: 64 19        	stz	$19                     ; 0x19 <__rc9>
    1b5e: a5 3d        	lda	$3d                     ; 0x3d <__rc31+0xe>
    1b60: 29 ef        	and	#$ef
    1b62: 85 3d        	sta	$3d                     ; 0x3d <__rc31+0xe>
    1b64: 85 6d        	sta	$6d                     ; 0x6d <__rc31+0x3e>
    1b66: a2 00        	ldx	#$0
    1b68: 86 6e        	stx	$6e                     ; 0x6e <__rc31+0x3f>
    1b6a: b2 12        	lda	($12)                   ; 0x12 <__rc2>
    1b6c: a6 19        	ldx	$19                     ; 0x19 <__rc9>
    1b6e: 86 15        	stx	$15                     ; 0x15 <__rc5>
    1b70: a6 12        	ldx	$12                     ; 0x12 <__rc2>
    1b72: 86 3e        	stx	$3e                     ; 0x3e <__rc31+0xf>
    1b74: a6 13        	ldx	$13                     ; 0x13 <__rc3>
    1b76: 86 3f        	stx	$3f                     ; 0x3f <__rc31+0x10>
    1b78: e6 3e        	inc	$3e                     ; 0x3e <__rc31+0xf>
    1b7a: d0 02        	bne	$1b7e <printf+0x32f>
    1b7c: e6 3f        	inc	$3f                     ; 0x3f <__rc31+0x10>
    1b7e: 85 14        	sta	$14                     ; 0x14 <__rc4>
    1b80: 38           	sec
    1b81: e9 6c        	sbc	#$6c
    1b83: 50 02        	bvc	$1b87 <printf+0x338>
    1b85: 49 80        	eor	#$80
    1b87: aa           	tax
    1b88: 10 1d        	bpl	$1ba7 <printf+0x358>
    1b8a: a5 14        	lda	$14                     ; 0x14 <__rc4>
    1b8c: c9 4c        	cmp	#$4c
    1b8e: f0 27        	beq	$1bb7 <printf+0x368>
    1b90: c9 68        	cmp	#$68
    1b92: d0 03        	bne	$1b97 <printf+0x348>
    1b94: 4c 1e 1c     	jmp	$1c1e <printf+0x3cf>
    1b97: a2 08        	ldx	#$8
    1b99: c9 6a        	cmp	#$6a
    1b9b: d0 2e        	bne	$1bcb <printf+0x37c>
    1b9d: a5 3e        	lda	$3e                     ; 0x3e <__rc31+0xf>
    1b9f: 85 12        	sta	$12                     ; 0x12 <__rc2>
    1ba1: a5 3f        	lda	$3f                     ; 0x3f <__rc31+0x10>
    1ba3: 85 13        	sta	$13                     ; 0x13 <__rc3>
    1ba5: 80 43        	bra	$1bea <printf+0x39b>
    1ba7: a6 14        	ldx	$14                     ; 0x14 <__rc4>
    1ba9: e0 6c        	cpx	#$6c
    1bab: f0 23        	beq	$1bd0 <printf+0x381>
    1bad: e0 74        	cpx	#$74
    1baf: f0 12        	beq	$1bc3 <printf+0x374>
    1bb1: e0 7a        	cpx	#$7a
    1bb3: f0 0e        	beq	$1bc3 <printf+0x374>
    1bb5: 80 14        	bra	$1bcb <printf+0x37c>
    1bb7: a5 3d        	lda	$3d                     ; 0x3d <__rc31+0xe>
    1bb9: 09 40        	ora	#$40
    1bbb: 85 3d        	sta	$3d                     ; 0x3d <__rc31+0xe>
    1bbd: 85 6d        	sta	$6d                     ; 0x6d <__rc31+0x3e>
    1bbf: a2 00        	ldx	#$0
    1bc1: 86 6e        	stx	$6e                     ; 0x6e <__rc31+0x3f>
    1bc3: a6 3e        	ldx	$3e                     ; 0x3e <__rc31+0xf>
    1bc5: 86 12        	stx	$12                     ; 0x12 <__rc2>
    1bc7: a6 3f        	ldx	$3f                     ; 0x3f <__rc31+0x10>
    1bc9: 86 13        	stx	$13                     ; 0x13 <__rc3>
    1bcb: a2 02        	ldx	#$2
    1bcd: 8a           	txa
    1bce: 80 1c        	bra	$1bec <printf+0x39d>
    1bd0: b1 12        	lda	($12),y                 ; 0x12 <__rc2>
    1bd2: a2 04        	ldx	#$4
    1bd4: c9 6c        	cmp	#$6c
    1bd6: f0 03        	beq	$1bdb <printf+0x38c>
    1bd8: 4c 2d 1f     	jmp	$1f2d <printf+0x6de>
    1bdb: a5 12        	lda	$12                     ; 0x12 <__rc2>
    1bdd: 18           	clc
    1bde: 69 02        	adc	#$2
    1be0: 85 12        	sta	$12                     ; 0x12 <__rc2>
    1be2: a5 13        	lda	$13                     ; 0x13 <__rc3>
    1be4: 69 00        	adc	#$0
    1be6: 85 13        	sta	$13                     ; 0x13 <__rc3>
    1be8: a2 08        	ldx	#$8
    1bea: a9 08        	lda	#$8
    1bec: 85 82        	sta	$82                     ; 0x82 <__rc31+0x53>
    1bee: b2 12        	lda	($12)                   ; 0x12 <__rc2>
    1bf0: 5a           	phy
    1bf1: a4 12        	ldy	$12                     ; 0x12 <__rc2>
    1bf3: 84 3e        	sty	$3e                     ; 0x3e <__rc31+0xf>
    1bf5: a4 13        	ldy	$13                     ; 0x13 <__rc3>
    1bf7: 84 3f        	sty	$3f                     ; 0x3f <__rc31+0x10>
    1bf9: 7a           	ply
    1bfa: 86 40        	stx	$40                     ; 0x40 <__rc31+0x11>
    1bfc: aa           	tax
    1bfd: 18           	clc
    1bfe: 69 9d        	adc	#$9d
    1c00: c9 16        	cmp	#$16
    1c02: b0 39        	bcs	$1c3d <printf+0x3ee>
    1c04: 0a           	asl
    1c05: aa           	tax
    1c06: 7c 6a 26     	jmp	($266a,x)               ; 0x266a <__set_v+0xf>
    1c09: a6 15        	ldx	$15                     ; 0x15 <__rc5>
    1c0b: 86 85        	stx	$85                     ; 0x85 <__rc31+0x56>
    1c0d: a6 18        	ldx	$18                     ; 0x18 <__rc8>
    1c0f: 86 86        	stx	$86                     ; 0x86 <__rc31+0x57>
    1c11: a0 0a        	ldy	#$a
    1c13: a2 0a        	ldx	#$a
    1c15: 86 81        	stx	$81                     ; 0x81 <__rc31+0x52>
    1c17: 84 6c        	sty	$6c                     ; 0x6c <__rc31+0x3d>
    1c19: 64 47        	stz	$47                     ; 0x47 <__rc31+0x18>
    1c1b: 4c 3d 1d     	jmp	$1d3d <printf+0x4ee>
    1c1e: b1 12        	lda	($12),y                 ; 0x12 <__rc2>
    1c20: a2 02        	ldx	#$2
    1c22: c9 68        	cmp	#$68
    1c24: f0 03        	beq	$1c29 <printf+0x3da>
    1c26: 4c 33 1f     	jmp	$1f33 <printf+0x6e4>
    1c29: a5 12        	lda	$12                     ; 0x12 <__rc2>
    1c2b: 18           	clc
    1c2c: 69 02        	adc	#$2
    1c2e: 85 12        	sta	$12                     ; 0x12 <__rc2>
    1c30: a5 13        	lda	$13                     ; 0x13 <__rc3>
    1c32: 69 00        	adc	#$0
    1c34: 85 13        	sta	$13                     ; 0x13 <__rc3>
    1c36: a2 01        	ldx	#$1
    1c38: 86 82        	stx	$82                     ; 0x82 <__rc31+0x53>
    1c3a: e8           	inx
    1c3b: 80 b1        	bra	$1bee <printf+0x39f>
    1c3d: e0 58        	cpx	#$58
    1c3f: f0 03        	beq	$1c44 <printf+0x3f5>
    1c41: 4c e1 23     	jmp	$23e1 <printf+0xb92>
    1c44: a6 15        	ldx	$15                     ; 0x15 <__rc5>
    1c46: 86 85        	stx	$85                     ; 0x85 <__rc31+0x56>
    1c48: a6 18        	ldx	$18                     ; 0x18 <__rc8>
    1c4a: 86 86        	stx	$86                     ; 0x86 <__rc31+0x57>
    1c4c: a2 10        	ldx	#$10
    1c4e: 86 6c        	stx	$6c                     ; 0x6c <__rc31+0x3d>
    1c50: a9 00        	lda	#$0
    1c52: 09 01        	ora	#$1
    1c54: a6 3d        	ldx	$3d                     ; 0x3d <__rc31+0xe>
    1c56: 80 29        	bra	$1c81 <printf+0x432>
    1c58: a6 15        	ldx	$15                     ; 0x15 <__rc5>
    1c5a: 86 85        	stx	$85                     ; 0x85 <__rc31+0x56>
    1c5c: a6 18        	ldx	$18                     ; 0x18 <__rc8>
    1c5e: 86 86        	stx	$86                     ; 0x86 <__rc31+0x57>
    1c60: a2 10        	ldx	#$10
    1c62: 86 6c        	stx	$6c                     ; 0x6c <__rc31+0x3d>
    1c64: a5 3d        	lda	$3d                     ; 0x3d <__rc31+0xe>
    1c66: 09 84        	ora	#$84
    1c68: 80 10        	bra	$1c7a <printf+0x42b>
    1c6a: a6 15        	ldx	$15                     ; 0x15 <__rc5>
    1c6c: 86 85        	stx	$85                     ; 0x85 <__rc31+0x56>
    1c6e: a6 18        	ldx	$18                     ; 0x18 <__rc8>
    1c70: 86 86        	stx	$86                     ; 0x86 <__rc31+0x57>
    1c72: a2 10        	ldx	#$10
    1c74: 86 6c        	stx	$6c                     ; 0x6c <__rc31+0x3d>
    1c76: a5 3d        	lda	$3d                     ; 0x3d <__rc31+0xe>
    1c78: 09 80        	ora	#$80
    1c7a: aa           	tax
    1c7b: a9 00        	lda	#$0
    1c7d: 09 01        	ora	#$1
    1c7f: 86 3d        	stx	$3d                     ; 0x3d <__rc31+0xe>
    1c81: 86 6d        	stx	$6d                     ; 0x6d <__rc31+0x3e>
    1c83: 85 47        	sta	$47                     ; 0x47 <__rc31+0x18>
    1c85: 85 6e        	sta	$6e                     ; 0x6e <__rc31+0x3f>
    1c87: a2 10        	ldx	#$10
    1c89: 86 81        	stx	$81                     ; 0x81 <__rc31+0x52>
    1c8b: 4c 3d 1d     	jmp	$1d3d <printf+0x4ee>
    1c8e: a5 7d        	lda	$7d                     ; 0x7d <__rc31+0x4e>
    1c90: a6 7e        	ldx	$7e                     ; 0x7e <__rc31+0x4f>
    1c92: 85 12        	sta	$12                     ; 0x12 <__rc2>
    1c94: 86 13        	stx	$13                     ; 0x13 <__rc3>
    1c96: 18           	clc
    1c97: 69 02        	adc	#$2
    1c99: 85 14        	sta	$14                     ; 0x14 <__rc4>
    1c9b: 8a           	txa
    1c9c: 69 00        	adc	#$0
    1c9e: a6 14        	ldx	$14                     ; 0x14 <__rc4>
    1ca0: 86 7d        	stx	$7d                     ; 0x7d <__rc31+0x4e>
    1ca2: 85 7e        	sta	$7e                     ; 0x7e <__rc31+0x4f>
    1ca4: b2 12        	lda	($12)                   ; 0x12 <__rc2>
    1ca6: aa           	tax
    1ca7: b1 12        	lda	($12),y                 ; 0x12 <__rc2>
    1ca9: 86 12        	stx	$12                     ; 0x12 <__rc2>
    1cab: 85 13        	sta	$13                     ; 0x13 <__rc3>
    1cad: a5 71        	lda	$71                     ; 0x71 <__rc31+0x42>
    1caf: a6 72        	ldx	$72                     ; 0x72 <__rc31+0x43>
    1cb1: 92 12        	sta	($12)                   ; 0x12 <__rc2>
    1cb3: 8a           	txa
    1cb4: 91 12        	sta	($12),y                 ; 0x12 <__rc2>
    1cb6: 4c 16 1d     	jmp	$1d16 <printf+0x4c7>
    1cb9: a5 7d        	lda	$7d                     ; 0x7d <__rc31+0x4e>
    1cbb: a6 7e        	ldx	$7e                     ; 0x7e <__rc31+0x4f>
    1cbd: 85 12        	sta	$12                     ; 0x12 <__rc2>
    1cbf: 86 13        	stx	$13                     ; 0x13 <__rc3>
    1cc1: 18           	clc
    1cc2: 69 02        	adc	#$2
    1cc4: 85 14        	sta	$14                     ; 0x14 <__rc4>
    1cc6: 8a           	txa
    1cc7: 69 00        	adc	#$0
    1cc9: a6 14        	ldx	$14                     ; 0x14 <__rc4>
    1ccb: 86 7d        	stx	$7d                     ; 0x7d <__rc31+0x4e>
    1ccd: 85 7e        	sta	$7e                     ; 0x7e <__rc31+0x4f>
    1ccf: b2 12        	lda	($12)                   ; 0x12 <__rc2>
    1cd1: aa           	tax
    1cd2: b1 12        	lda	($12),y                 ; 0x12 <__rc2>
    1cd4: 86 12        	stx	$12                     ; 0x12 <__rc2>
    1cd6: 85 13        	sta	$13                     ; 0x13 <__rc3>
    1cd8: 80 2f        	bra	$1d09 <printf+0x4ba>
    1cda: a6 15        	ldx	$15                     ; 0x15 <__rc5>
    1cdc: 86 85        	stx	$85                     ; 0x85 <__rc31+0x56>
    1cde: a6 18        	ldx	$18                     ; 0x18 <__rc8>
    1ce0: 86 86        	stx	$86                     ; 0x86 <__rc31+0x57>
    1ce2: a0 08        	ldy	#$8
    1ce4: a2 08        	ldx	#$8
    1ce6: 80 45        	bra	$1d2d <printf+0x4de>
    1ce8: a5 7d        	lda	$7d                     ; 0x7d <__rc31+0x4e>
    1cea: a6 7e        	ldx	$7e                     ; 0x7e <__rc31+0x4f>
    1cec: 85 12        	sta	$12                     ; 0x12 <__rc2>
    1cee: 86 13        	stx	$13                     ; 0x13 <__rc3>
    1cf0: 18           	clc
    1cf1: 69 02        	adc	#$2
    1cf3: a8           	tay
    1cf4: 8a           	txa
    1cf5: 69 00        	adc	#$0
    1cf7: 84 7d        	sty	$7d                     ; 0x7d <__rc31+0x4e>
    1cf9: 85 7e        	sta	$7e                     ; 0x7e <__rc31+0x4f>
    1cfb: b2 12        	lda	($12)                   ; 0x12 <__rc2>
    1cfd: 85 5f        	sta	$5f                     ; 0x5f <__rc31+0x30>
    1cff: 64 60        	stz	$60                     ; 0x60 <__rc31+0x31>
    1d01: a2 5f        	ldx	#$5f
    1d03: 86 12        	stx	$12                     ; 0x12 <__rc2>
    1d05: a2 00        	ldx	#$0
    1d07: 86 13        	stx	$13                     ; 0x13 <__rc3>
    1d09: a2 6c        	ldx	#$6c
    1d0b: 86 14        	stx	$14                     ; 0x14 <__rc4>
    1d0d: a2 00        	ldx	#$0
    1d0f: 86 15        	stx	$15                     ; 0x15 <__rc5>
    1d11: 20 43 17     	jsr	$1743 <_ZN12_GLOBAL__N_112print_stringEPKcP6Status>
    1d14: a0 01        	ldy	#$1
    1d16: a2 00        	ldx	#$0
    1d18: 86 40        	stx	$40                     ; 0x40 <__rc31+0x11>
    1d1a: a2 00        	ldx	#$0
    1d1c: 86 41        	stx	$41                     ; 0x41 <__rc31+0x12>
    1d1e: 4c c9 23     	jmp	$23c9 <printf+0xb7a>
    1d21: a6 15        	ldx	$15                     ; 0x15 <__rc5>
    1d23: 86 85        	stx	$85                     ; 0x85 <__rc31+0x56>
    1d25: a6 18        	ldx	$18                     ; 0x18 <__rc8>
    1d27: 86 86        	stx	$86                     ; 0x86 <__rc31+0x57>
    1d29: a0 0a        	ldy	#$a
    1d2b: a2 0a        	ldx	#$a
    1d2d: 86 81        	stx	$81                     ; 0x81 <__rc31+0x52>
    1d2f: 84 6c        	sty	$6c                     ; 0x6c <__rc31+0x3d>
    1d31: a9 00        	lda	#$0
    1d33: 09 01        	ora	#$1
    1d35: a6 3d        	ldx	$3d                     ; 0x3d <__rc31+0xe>
    1d37: 86 6d        	stx	$6d                     ; 0x6d <__rc31+0x3e>
    1d39: 85 47        	sta	$47                     ; 0x47 <__rc31+0x18>
    1d3b: 85 6e        	sta	$6e                     ; 0x6e <__rc31+0x3f>
    1d3d: a5 82        	lda	$82                     ; 0x82 <__rc31+0x53>
    1d3f: 85 61        	sta	$61                     ; 0x61 <__rc31+0x32>
    1d41: a4 7d        	ldy	$7d                     ; 0x7d <__rc31+0x4e>
    1d43: a6 7e        	ldx	$7e                     ; 0x7e <__rc31+0x4f>
    1d45: 86 45        	stx	$45                     ; 0x45 <__rc31+0x16>
    1d47: 84 14        	sty	$14                     ; 0x14 <__rc4>
    1d49: 84 3c        	sty	$3c                     ; 0x3c <__rc31+0xd>
    1d4b: 86 15        	stx	$15                     ; 0x15 <__rc5>
    1d4d: a6 83        	ldx	$83                     ; 0x83 <__rc31+0x54>
    1d4f: 86 12        	stx	$12                     ; 0x12 <__rc2>
    1d51: a6 84        	ldx	$84                     ; 0x84 <__rc31+0x55>
    1d53: 86 13        	stx	$13                     ; 0x13 <__rc3>
    1d55: a2 00        	ldx	#$0
    1d57: 85 41        	sta	$41                     ; 0x41 <__rc31+0x12>
    1d59: 20 0f 26     	jsr	$260f <memcpy>
    1d5c: 18           	clc
    1d5d: a5 3c        	lda	$3c                     ; 0x3c <__rc31+0xd>
    1d5f: 65 40        	adc	$40                     ; 0x40 <__rc31+0x11>
    1d61: aa           	tax
    1d62: a5 45        	lda	$45                     ; 0x45 <__rc31+0x16>
    1d64: 69 00        	adc	#$0
    1d66: 86 7d        	stx	$7d                     ; 0x7d <__rc31+0x4e>
    1d68: 85 7e        	sta	$7e                     ; 0x7e <__rc31+0x4f>
    1d6a: a5 47        	lda	$47                     ; 0x47 <__rc31+0x18>
    1d6c: 29 01        	and	#$1
    1d6e: b8           	clv
    1d6f: f0 03        	beq	$1d74 <printf+0x525>
    1d71: 4c c8 1d     	jmp	$1dc8 <printf+0x579>
    1d74: a6 41        	ldx	$41                     ; 0x41 <__rc31+0x12>
    1d76: b5 61        	lda	$61,x                   ; 0x61 <__rc31+0x32>
    1d78: aa           	tax
    1d79: a0 01        	ldy	#$1
    1d7b: a5 44        	lda	$44                     ; 0x44 <__rc31+0x15>
    1d7d: 85 1a        	sta	$1a                     ; 0x1a <__rc10>
    1d7f: a5 86        	lda	$86                     ; 0x86 <__rc31+0x57>
    1d81: 85 44        	sta	$44                     ; 0x44 <__rc31+0x15>
    1d83: a9 00        	lda	#$0
    1d85: 85 40        	sta	$40                     ; 0x40 <__rc31+0x11>
    1d87: a9 00        	lda	#$0
    1d89: 85 41        	sta	$41                     ; 0x41 <__rc31+0x12>
    1d8b: a5 85        	lda	$85                     ; 0x85 <__rc31+0x56>
    1d8d: 85 45        	sta	$45                     ; 0x45 <__rc31+0x16>
    1d8f: 8a           	txa
    1d90: 10 4c        	bpl	$1dde <printf+0x58f>
    1d92: a2 00        	ldx	#$0
    1d94: 64 12        	stz	$12                     ; 0x12 <__rc2>
    1d96: a9 00        	lda	#$0
    1d98: 38           	sec
    1d99: f5 62        	sbc	$62,x                   ; 0x62 <__rc31+0x33>
    1d9b: a0 00        	ldy	#$0
    1d9d: b0 02        	bcs	$1da1 <printf+0x552>
    1d9f: a0 01        	ldy	#$1
    1da1: 38           	sec
    1da2: e5 12        	sbc	$12                     ; 0x12 <__rc2>
    1da4: 85 13        	sta	$13                     ; 0x13 <__rc3>
    1da6: 64 12        	stz	$12                     ; 0x12 <__rc2>
    1da8: b0 04        	bcs	$1dae <printf+0x55f>
    1daa: a9 01        	lda	#$1
    1dac: 85 12        	sta	$12                     ; 0x12 <__rc2>
    1dae: 98           	tya
    1daf: 05 12        	ora	$12                     ; 0x12 <__rc2>
    1db1: 85 12        	sta	$12                     ; 0x12 <__rc2>
    1db3: a5 13        	lda	$13                     ; 0x13 <__rc3>
    1db5: 9d 62 00     	sta	$62,x                   ; 0x62 <__rc31+0x33>
    1db8: e8           	inx
    1db9: 86 13        	stx	$13                     ; 0x13 <__rc3>
    1dbb: a4 82        	ldy	$82                     ; 0x82 <__rc31+0x53>
    1dbd: c4 13        	cpy	$13                     ; 0x13 <__rc3>
    1dbf: d0 d5        	bne	$1d96 <printf+0x547>
    1dc1: 2c 5b 26     	bit	$265b                   ; 0x265b <__set_v>
    1dc4: a0 01        	ldy	#$1
    1dc6: 80 16        	bra	$1dde <printf+0x58f>
    1dc8: a0 01        	ldy	#$1
    1dca: a6 44        	ldx	$44                     ; 0x44 <__rc31+0x15>
    1dcc: 86 1a        	stx	$1a                     ; 0x1a <__rc10>
    1dce: a6 86        	ldx	$86                     ; 0x86 <__rc31+0x57>
    1dd0: 86 44        	stx	$44                     ; 0x44 <__rc31+0x15>
    1dd2: a2 00        	ldx	#$0
    1dd4: 86 40        	stx	$40                     ; 0x40 <__rc31+0x11>
    1dd6: a2 00        	ldx	#$0
    1dd8: 86 41        	stx	$41                     ; 0x41 <__rc31+0x12>
    1dda: a6 85        	ldx	$85                     ; 0x85 <__rc31+0x56>
    1ddc: 86 45        	stx	$45                     ; 0x45 <__rc31+0x16>
    1dde: a2 01        	ldx	#$1
    1de0: 70 02        	bvs	$1de4 <printf+0x595>
    1de2: a2 00        	ldx	#$0
    1de4: 86 16        	stx	$16                     ; 0x16 <__rc6>
    1de6: a5 82        	lda	$82                     ; 0x82 <__rc31+0x53>
    1de8: 0a           	asl
    1de9: 0a           	asl
    1dea: 0a           	asl
    1deb: 85 12        	sta	$12                     ; 0x12 <__rc2>
    1ded: a2 00        	ldx	#$0
    1def: 8a           	txa
    1df0: e0 00        	cpx	#$0
    1df2: d0 03        	bne	$1df7 <printf+0x5a8>
    1df4: 4c 7c 1e     	jmp	$1e7c <printf+0x62d>
    1df7: 85 17        	sta	$17                     ; 0x17 <__rc7>
    1df9: 86 3c        	stx	$3c                     ; 0x3c <__rc31+0xd>
    1dfb: ca           	dex
    1dfc: 86 15        	stx	$15                     ; 0x15 <__rc5>
    1dfe: a2 00        	ldx	#$0
    1e00: 64 13        	stz	$13                     ; 0x13 <__rc3>
    1e02: 80 0d        	bra	$1e11 <printf+0x5c2>
    1e04: a4 13        	ldy	$13                     ; 0x13 <__rc3>
    1e06: 99 4a 00     	sta	$4a,y                   ; 0x4a <__rc31+0x1b>
    1e09: a4 15        	ldy	$15                     ; 0x15 <__rc5>
    1e0b: c4 13        	cpy	$13                     ; 0x13 <__rc3>
    1e0d: f0 38        	beq	$1e47 <printf+0x5f8>
    1e0f: e6 13        	inc	$13                     ; 0x13 <__rc3>
    1e11: a4 13        	ldy	$13                     ; 0x13 <__rc3>
    1e13: b9 4a 00     	lda	$4a,y                   ; 0x4a <__rc31+0x1b>
    1e16: 0a           	asl
    1e17: e0 00        	cpx	#$0
    1e19: f0 02        	beq	$1e1d <printf+0x5ce>
    1e1b: 09 01        	ora	#$1
    1e1d: a4 81        	ldy	$81                     ; 0x81 <__rc31+0x52>
    1e1f: 84 14        	sty	$14                     ; 0x14 <__rc4>
    1e21: c5 14        	cmp	$14                     ; 0x14 <__rc4>
    1e23: a2 01        	ldx	#$1
    1e25: b0 02        	bcs	$1e29 <printf+0x5da>
    1e27: a2 00        	ldx	#$0
    1e29: 90 d9        	bcc	$1e04 <printf+0x5b5>
    1e2b: 84 14        	sty	$14                     ; 0x14 <__rc4>
    1e2d: 38           	sec
    1e2e: e5 14        	sbc	$14                     ; 0x14 <__rc4>
    1e30: a4 13        	ldy	$13                     ; 0x13 <__rc3>
    1e32: 99 4a 00     	sta	$4a,y                   ; 0x4a <__rc31+0x1b>
    1e35: a4 15        	ldy	$15                     ; 0x15 <__rc5>
    1e37: c4 13        	cpy	$13                     ; 0x13 <__rc3>
    1e39: d0 d4        	bne	$1e0f <printf+0x5c0>
    1e3b: a4 3c        	ldy	$3c                     ; 0x3c <__rc31+0xd>
    1e3d: a6 3c        	ldx	$3c                     ; 0x3c <__rc31+0xd>
    1e3f: e8           	inx
    1e40: a9 01        	lda	#$1
    1e42: 99 4a 00     	sta	$4a,y                   ; 0x4a <__rc31+0x1b>
    1e45: 86 3c        	stx	$3c                     ; 0x3c <__rc31+0xd>
    1e47: a6 82        	ldx	$82                     ; 0x82 <__rc31+0x53>
    1e49: b5 61        	lda	$61,x                   ; 0x61 <__rc31+0x32>
    1e4b: aa           	tax
    1e4c: a0 01        	ldy	#$1
    1e4e: 8a           	txa
    1e4f: 10 47        	bpl	$1e98 <printf+0x649>
    1e51: a5 3c        	lda	$3c                     ; 0x3c <__rc31+0xd>
    1e53: f0 34        	beq	$1e89 <printf+0x63a>
    1e55: a2 00        	ldx	#$0
    1e57: a4 81        	ldy	$81                     ; 0x81 <__rc31+0x52>
    1e59: 84 14        	sty	$14                     ; 0x14 <__rc4>
    1e5b: b5 4a        	lda	$4a,x                   ; 0x4a <__rc31+0x1b>
    1e5d: 1a           	inc
    1e5e: f6 4a        	inc	$4a,x                   ; 0x4a <__rc31+0x1b>
    1e60: c5 14        	cmp	$14                     ; 0x14 <__rc4>
    1e62: b0 03        	bcs	$1e67 <printf+0x618>
    1e64: 4c c3 1e     	jmp	$1ec3 <printf+0x674>
    1e67: a4 14        	ldy	$14                     ; 0x14 <__rc4>
    1e69: 84 13        	sty	$13                     ; 0x13 <__rc3>
    1e6b: 38           	sec
    1e6c: e5 13        	sbc	$13                     ; 0x13 <__rc3>
    1e6e: 9d 4a 00     	sta	$4a,x                   ; 0x4a <__rc31+0x1b>
    1e71: e8           	inx
    1e72: 86 13        	stx	$13                     ; 0x13 <__rc3>
    1e74: a4 3c        	ldy	$3c                     ; 0x3c <__rc31+0xd>
    1e76: c4 13        	cpy	$13                     ; 0x13 <__rc3>
    1e78: d0 e1        	bne	$1e5b <printf+0x60c>
    1e7a: 80 0f        	bra	$1e8b <printf+0x63c>
    1e7c: 85 17        	sta	$17                     ; 0x17 <__rc7>
    1e7e: a6 82        	ldx	$82                     ; 0x82 <__rc31+0x53>
    1e80: b5 61        	lda	$61,x                   ; 0x61 <__rc31+0x32>
    1e82: aa           	tax
    1e83: 64 3c        	stz	$3c                     ; 0x3c <__rc31+0xd>
    1e85: 30 04        	bmi	$1e8b <printf+0x63c>
    1e87: 80 0f        	bra	$1e98 <printf+0x649>
    1e89: 64 3c        	stz	$3c                     ; 0x3c <__rc31+0xd>
    1e8b: a4 3c        	ldy	$3c                     ; 0x3c <__rc31+0xd>
    1e8d: a6 3c        	ldx	$3c                     ; 0x3c <__rc31+0xd>
    1e8f: e8           	inx
    1e90: a9 01        	lda	#$1
    1e92: 99 4a 00     	sta	$4a,y                   ; 0x4a <__rc31+0x1b>
    1e95: a8           	tay
    1e96: 86 3c        	stx	$3c                     ; 0x3c <__rc31+0xd>
    1e98: a2 01        	ldx	#$1
    1e9a: 64 13        	stz	$13                     ; 0x13 <__rc3>
    1e9c: a5 82        	lda	$82                     ; 0x82 <__rc31+0x53>
    1e9e: 85 14        	sta	$14                     ; 0x14 <__rc4>
    1ea0: b5 61        	lda	$61,x                   ; 0x61 <__rc31+0x32>
    1ea2: 0a           	asl
    1ea3: 64 15        	stz	$15                     ; 0x15 <__rc5>
    1ea5: 26 15        	rol	$15                     ; 0x15 <__rc5>
    1ea7: 05 13        	ora	$13                     ; 0x13 <__rc3>
    1ea9: 9d 61 00     	sta	$61,x                   ; 0x61 <__rc31+0x32>
    1eac: e8           	inx
    1ead: c6 14        	dec	$14                     ; 0x14 <__rc4>
    1eaf: a5 15        	lda	$15                     ; 0x15 <__rc5>
    1eb1: 85 13        	sta	$13                     ; 0x13 <__rc3>
    1eb3: a5 14        	lda	$14                     ; 0x14 <__rc4>
    1eb5: d0 e9        	bne	$1ea0 <printf+0x651>
    1eb7: a5 17        	lda	$17                     ; 0x17 <__rc7>
    1eb9: 1a           	inc
    1eba: c5 12        	cmp	$12                     ; 0x12 <__rc2>
    1ebc: a6 3c        	ldx	$3c                     ; 0x3c <__rc31+0xd>
    1ebe: b0 07        	bcs	$1ec7 <printf+0x678>
    1ec0: 4c f0 1d     	jmp	$1df0 <printf+0x5a1>
    1ec3: a0 01        	ldy	#$1
    1ec5: 80 d1        	bra	$1e98 <printf+0x649>
    1ec7: a5 3d        	lda	$3d                     ; 0x3d <__rc31+0xe>
    1ec9: e6 45        	inc	$45                     ; 0x45 <__rc31+0x16>
    1ecb: c6 45        	dec	$45                     ; 0x45 <__rc31+0x16>
    1ecd: 10 08        	bpl	$1ed7 <printf+0x688>
    1ecf: a2 01        	ldx	#$1
    1ed1: 64 45        	stz	$45                     ; 0x45 <__rc31+0x16>
    1ed3: 86 44        	stx	$44                     ; 0x44 <__rc31+0x15>
    1ed5: a6 3c        	ldx	$3c                     ; 0x3c <__rc31+0xd>
    1ed7: 29 04        	and	#$4
    1ed9: f0 2b        	beq	$1f06 <printf+0x6b7>
    1edb: a5 81        	lda	$81                     ; 0x81 <__rc31+0x52>
    1edd: c9 10        	cmp	#$10
    1edf: f0 14        	beq	$1ef5 <printf+0x6a6>
    1ee1: c9 08        	cmp	#$8
    1ee3: d0 21        	bne	$1f06 <printf+0x6b7>
    1ee5: a2 00        	ldx	#$0
    1ee7: e4 45        	cpx	$45                     ; 0x45 <__rc31+0x16>
    1ee9: f0 03        	beq	$1eee <printf+0x69f>
    1eeb: 4c f0 23     	jmp	$23f0 <printf+0xba1>
    1eee: a6 3c        	ldx	$3c                     ; 0x3c <__rc31+0xd>
    1ef0: e4 44        	cpx	$44                     ; 0x44 <__rc31+0x15>
    1ef2: 4c f2 23     	jmp	$23f2 <printf+0xba3>
    1ef5: 8a           	txa
    1ef6: f0 0e        	beq	$1f06 <printf+0x6b7>
    1ef8: a5 3d        	lda	$3d                     ; 0x3d <__rc31+0xe>
    1efa: 29 80        	and	#$80
    1efc: d0 03        	bne	$1f01 <printf+0x6b2>
    1efe: 4c 0b 24     	jmp	$240b <printf+0xbbc>
    1f01: a2 78        	ldx	#$78
    1f03: 4c 0d 24     	jmp	$240d <printf+0xbbe>
    1f06: a6 3d        	ldx	$3d                     ; 0x3d <__rc31+0xe>
    1f08: a9 2d        	lda	#$2d
    1f0a: 85 85        	sta	$85                     ; 0x85 <__rc31+0x56>
    1f0c: a5 16        	lda	$16                     ; 0x16 <__rc6>
    1f0e: d0 32        	bne	$1f42 <printf+0x6f3>
    1f10: 86 12        	stx	$12                     ; 0x12 <__rc2>
    1f12: 8a           	txa
    1f13: 29 02        	and	#$2
    1f15: a2 2b        	ldx	#$2b
    1f17: 86 85        	stx	$85                     ; 0x85 <__rc31+0x56>
    1f19: aa           	tax
    1f1a: d0 26        	bne	$1f42 <printf+0x6f3>
    1f1c: a5 12        	lda	$12                     ; 0x12 <__rc2>
    1f1e: 29 08        	and	#$8
    1f20: d0 1c        	bne	$1f3e <printf+0x6ef>
    1f22: a2 01        	ldx	#$1
    1f24: 86 82        	stx	$82                     ; 0x82 <__rc31+0x53>
    1f26: a9 00        	lda	#$0
    1f28: aa           	tax
    1f29: 86 81        	stx	$81                     ; 0x81 <__rc31+0x52>
    1f2b: 80 1c        	bra	$1f49 <printf+0x6fa>
    1f2d: 85 12        	sta	$12                     ; 0x12 <__rc2>
    1f2f: a9 04        	lda	#$4
    1f31: 80 04        	bra	$1f37 <printf+0x6e8>
    1f33: 85 12        	sta	$12                     ; 0x12 <__rc2>
    1f35: a9 02        	lda	#$2
    1f37: 85 82        	sta	$82                     ; 0x82 <__rc31+0x53>
    1f39: a5 12        	lda	$12                     ; 0x12 <__rc2>
    1f3b: 4c fa 1b     	jmp	$1bfa <printf+0x3ab>
    1f3e: a2 20        	ldx	#$20
    1f40: 86 85        	stx	$85                     ; 0x85 <__rc31+0x56>
    1f42: a2 00        	ldx	#$0
    1f44: 86 82        	stx	$82                     ; 0x82 <__rc31+0x53>
    1f46: 86 81        	stx	$81                     ; 0x81 <__rc31+0x52>
    1f48: 98           	tya
    1f49: a6 45        	ldx	$45                     ; 0x45 <__rc31+0x16>
    1f4b: d0 35        	bne	$1f82 <printf+0x733>
    1f4d: a6 44        	ldx	$44                     ; 0x44 <__rc31+0x15>
    1f4f: a4 3c        	ldy	$3c                     ; 0x3c <__rc31+0xd>
    1f51: 84 12        	sty	$12                     ; 0x12 <__rc2>
    1f53: e4 12        	cpx	$12                     ; 0x12 <__rc2>
    1f55: a6 44        	ldx	$44                     ; 0x44 <__rc31+0x15>
    1f57: 86 12        	stx	$12                     ; 0x12 <__rc2>
    1f59: a6 45        	ldx	$45                     ; 0x45 <__rc31+0x16>
    1f5b: 86 13        	stx	$13                     ; 0x13 <__rc3>
    1f5d: b0 04        	bcs	$1f63 <printf+0x714>
    1f5f: 84 12        	sty	$12                     ; 0x12 <__rc2>
    1f61: 64 13        	stz	$13                     ; 0x13 <__rc3>
    1f63: 85 18        	sta	$18                     ; 0x18 <__rc8>
    1f65: 18           	clc
    1f66: 65 12        	adc	$12                     ; 0x12 <__rc2>
    1f68: 85 16        	sta	$16                     ; 0x16 <__rc6>
    1f6a: 85 14        	sta	$14                     ; 0x14 <__rc4>
    1f6c: a5 13        	lda	$13                     ; 0x13 <__rc3>
    1f6e: 69 00        	adc	#$0
    1f70: 85 15        	sta	$15                     ; 0x15 <__rc5>
    1f72: c5 1a        	cmp	$1a                     ; 0x1a <__rc10>
    1f74: d0 1e        	bne	$1f94 <printf+0x745>
    1f76: a6 1a        	ldx	$1a                     ; 0x1a <__rc10>
    1f78: 86 17        	stx	$17                     ; 0x17 <__rc7>
    1f7a: a6 46        	ldx	$46                     ; 0x46 <__rc31+0x17>
    1f7c: a5 16        	lda	$16                     ; 0x16 <__rc6>
    1f7e: c5 46        	cmp	$46                     ; 0x46 <__rc31+0x17>
    1f80: 80 1c        	bra	$1f9e <printf+0x74f>
    1f82: a6 45        	ldx	$45                     ; 0x45 <__rc31+0x16>
    1f84: e0 00        	cpx	#$0
    1f86: a6 44        	ldx	$44                     ; 0x44 <__rc31+0x15>
    1f88: 86 12        	stx	$12                     ; 0x12 <__rc2>
    1f8a: a6 45        	ldx	$45                     ; 0x45 <__rc31+0x16>
    1f8c: 86 13        	stx	$13                     ; 0x13 <__rc3>
    1f8e: a4 3c        	ldy	$3c                     ; 0x3c <__rc31+0xd>
    1f90: 90 cd        	bcc	$1f5f <printf+0x710>
    1f92: 80 cf        	bra	$1f63 <printf+0x714>
    1f94: a6 46        	ldx	$46                     ; 0x46 <__rc31+0x17>
    1f96: 5a           	phy
    1f97: a4 1a        	ldy	$1a                     ; 0x1a <__rc10>
    1f99: 84 17        	sty	$17                     ; 0x17 <__rc7>
    1f9b: 7a           	ply
    1f9c: c5 1a        	cmp	$1a                     ; 0x1a <__rc10>
    1f9e: 64 47        	stz	$47                     ; 0x47 <__rc31+0x18>
    1fa0: 64 46        	stz	$46                     ; 0x46 <__rc31+0x17>
    1fa2: 90 03        	bcc	$1fa7 <printf+0x758>
    1fa4: 4c 42 20     	jmp	$2042 <printf+0x7f3>
    1fa7: a5 3d        	lda	$3d                     ; 0x3d <__rc31+0xe>
    1fa9: 29 11        	and	#$11
    1fab: 86 16        	stx	$16                     ; 0x16 <__rc6>
    1fad: f0 0f        	beq	$1fbe <printf+0x76f>
    1faf: 8a           	txa
    1fb0: 38           	sec
    1fb1: e5 14        	sbc	$14                     ; 0x14 <__rc4>
    1fb3: 85 47        	sta	$47                     ; 0x47 <__rc31+0x18>
    1fb5: a5 1a        	lda	$1a                     ; 0x1a <__rc10>
    1fb7: e5 15        	sbc	$15                     ; 0x15 <__rc5>
    1fb9: 85 46        	sta	$46                     ; 0x46 <__rc31+0x17>
    1fbb: 4c 42 20     	jmp	$2042 <printf+0x7f3>
    1fbe: a6 71        	ldx	$71                     ; 0x71 <__rc31+0x42>
    1fc0: 86 14        	stx	$14                     ; 0x14 <__rc4>
    1fc2: 38           	sec
    1fc3: a5 18        	lda	$18                     ; 0x18 <__rc8>
    1fc5: e5 16        	sbc	$16                     ; 0x16 <__rc6>
    1fc7: a8           	tay
    1fc8: a9 00        	lda	#$0
    1fca: e5 17        	sbc	$17                     ; 0x17 <__rc7>
    1fcc: aa           	tax
    1fcd: 18           	clc
    1fce: 98           	tya
    1fcf: 65 12        	adc	$12                     ; 0x12 <__rc2>
    1fd1: 85 3d        	sta	$3d                     ; 0x3d <__rc31+0xe>
    1fd3: 8a           	txa
    1fd4: 65 13        	adc	$13                     ; 0x13 <__rc3>
    1fd6: 85 46        	sta	$46                     ; 0x46 <__rc31+0x17>
    1fd8: a5 72        	lda	$72                     ; 0x72 <__rc31+0x43>
    1fda: 80 4e        	bra	$202a <printf+0x7db>
    1fdc: c5 70        	cmp	$70                     ; 0x70 <__rc31+0x41>
    1fde: a4 46        	ldy	$46                     ; 0x46 <__rc31+0x17>
    1fe0: b0 28        	bcs	$200a <printf+0x7bb>
    1fe2: a6 7c        	ldx	$7c                     ; 0x7c <__rc31+0x4d>
    1fe4: e4 41        	cpx	$41                     ; 0x41 <__rc31+0x12>
    1fe6: d0 19        	bne	$2001 <printf+0x7b2>
    1fe8: a6 7b        	ldx	$7b                     ; 0x7b <__rc31+0x4c>
    1fea: e4 40        	cpx	$40                     ; 0x40 <__rc31+0x11>
    1fec: d0 13        	bne	$2001 <printf+0x7b2>
    1fee: 18           	clc
    1fef: aa           	tax
    1ff0: a5 14        	lda	$14                     ; 0x14 <__rc4>
    1ff2: 65 75        	adc	$75                     ; 0x75 <__rc31+0x46>
    1ff4: 85 12        	sta	$12                     ; 0x12 <__rc2>
    1ff6: 8a           	txa
    1ff7: 65 76        	adc	$76                     ; 0x76 <__rc31+0x47>
    1ff9: 85 13        	sta	$13                     ; 0x13 <__rc3>
    1ffb: a9 20        	lda	#$20
    1ffd: 92 12        	sta	($12)                   ; 0x12 <__rc2>
    1fff: 80 07        	bra	$2008 <printf+0x7b9>
    2001: a2 00        	ldx	#$0
    2003: a9 20        	lda	#$20
    2005: 20 28 24     	jsr	$2428 <putchar>
    2008: a4 46        	ldy	$46                     ; 0x46 <__rc31+0x17>
    200a: a6 71        	ldx	$71                     ; 0x71 <__rc31+0x42>
    200c: a5 72        	lda	$72                     ; 0x72 <__rc31+0x43>
    200e: e8           	inx
    200f: d0 01        	bne	$2012 <printf+0x7c3>
    2011: 1a           	inc
    2012: 86 14        	stx	$14                     ; 0x14 <__rc4>
    2014: 86 71        	stx	$71                     ; 0x71 <__rc31+0x42>
    2016: 85 72        	sta	$72                     ; 0x72 <__rc31+0x43>
    2018: a6 3d        	ldx	$3d                     ; 0x3d <__rc31+0xe>
    201a: e8           	inx
    201b: d0 01        	bne	$201e <printf+0x7cf>
    201d: c8           	iny
    201e: 86 3d        	stx	$3d                     ; 0x3d <__rc31+0xe>
    2020: 84 46        	sty	$46                     ; 0x46 <__rc31+0x17>
    2022: c0 00        	cpy	#$0
    2024: d0 04        	bne	$202a <printf+0x7db>
    2026: e0 00        	cpx	#$0
    2028: f0 12        	beq	$203c <printf+0x7ed>
    202a: c5 70        	cmp	$70                     ; 0x70 <__rc31+0x41>
    202c: f0 03        	beq	$2031 <printf+0x7e2>
    202e: 4c dc 1f     	jmp	$1fdc <printf+0x78d>
    2031: a6 6f        	ldx	$6f                     ; 0x6f <__rc31+0x40>
    2033: 86 12        	stx	$12                     ; 0x12 <__rc2>
    2035: a6 14        	ldx	$14                     ; 0x14 <__rc4>
    2037: e4 12        	cpx	$12                     ; 0x12 <__rc2>
    2039: 4c de 1f     	jmp	$1fde <printf+0x78f>
    203c: 64 47        	stz	$47                     ; 0x47 <__rc31+0x18>
    203e: 64 46        	stz	$46                     ; 0x46 <__rc31+0x17>
    2040: a4 3c        	ldy	$3c                     ; 0x3c <__rc31+0xd>
    2042: a6 82        	ldx	$82                     ; 0x82 <__rc31+0x53>
    2044: d0 4f        	bne	$2095 <printf+0x846>
    2046: a6 71        	ldx	$71                     ; 0x71 <__rc31+0x42>
    2048: a5 72        	lda	$72                     ; 0x72 <__rc31+0x43>
    204a: c5 70        	cmp	$70                     ; 0x70 <__rc31+0x41>
    204c: d0 10        	bne	$205e <printf+0x80f>
    204e: 86 13        	stx	$13                     ; 0x13 <__rc3>
    2050: a6 6f        	ldx	$6f                     ; 0x6f <__rc31+0x40>
    2052: 86 12        	stx	$12                     ; 0x12 <__rc2>
    2054: a4 3c        	ldy	$3c                     ; 0x3c <__rc31+0xd>
    2056: a6 13        	ldx	$13                     ; 0x13 <__rc3>
    2058: e4 12        	cpx	$12                     ; 0x12 <__rc2>
    205a: 90 08        	bcc	$2064 <printf+0x815>
    205c: 80 31        	bra	$208f <printf+0x840>
    205e: 86 13        	stx	$13                     ; 0x13 <__rc3>
    2060: c5 70        	cmp	$70                     ; 0x70 <__rc31+0x41>
    2062: b0 2b        	bcs	$208f <printf+0x840>
    2064: a6 7c        	ldx	$7c                     ; 0x7c <__rc31+0x4d>
    2066: e4 41        	cpx	$41                     ; 0x41 <__rc31+0x12>
    2068: d0 1c        	bne	$2086 <printf+0x837>
    206a: a6 7b        	ldx	$7b                     ; 0x7b <__rc31+0x4c>
    206c: e4 40        	cpx	$40                     ; 0x40 <__rc31+0x11>
    206e: d0 16        	bne	$2086 <printf+0x837>
    2070: 18           	clc
    2071: 85 12        	sta	$12                     ; 0x12 <__rc2>
    2073: a5 13        	lda	$13                     ; 0x13 <__rc3>
    2075: 65 75        	adc	$75                     ; 0x75 <__rc31+0x46>
    2077: aa           	tax
    2078: a5 12        	lda	$12                     ; 0x12 <__rc2>
    207a: 65 76        	adc	$76                     ; 0x76 <__rc31+0x47>
    207c: 86 12        	stx	$12                     ; 0x12 <__rc2>
    207e: 85 13        	sta	$13                     ; 0x13 <__rc3>
    2080: a5 85        	lda	$85                     ; 0x85 <__rc31+0x56>
    2082: 92 12        	sta	($12)                   ; 0x12 <__rc2>
    2084: 80 07        	bra	$208d <printf+0x83e>
    2086: a2 00        	ldx	#$0
    2088: a5 85        	lda	$85                     ; 0x85 <__rc31+0x56>
    208a: 20 28 24     	jsr	$2428 <putchar>
    208d: a4 3c        	ldy	$3c                     ; 0x3c <__rc31+0xd>
    208f: e6 71        	inc	$71                     ; 0x71 <__rc31+0x42>
    2091: d0 02        	bne	$2095 <printf+0x846>
    2093: e6 72        	inc	$72                     ; 0x72 <__rc31+0x43>
    2095: a6 81        	ldx	$81                     ; 0x81 <__rc31+0x52>
    2097: f0 4f        	beq	$20e8 <printf+0x899>
    2099: a6 71        	ldx	$71                     ; 0x71 <__rc31+0x42>
    209b: a5 72        	lda	$72                     ; 0x72 <__rc31+0x43>
    209d: c5 70        	cmp	$70                     ; 0x70 <__rc31+0x41>
    209f: d0 10        	bne	$20b1 <printf+0x862>
    20a1: 86 13        	stx	$13                     ; 0x13 <__rc3>
    20a3: a6 6f        	ldx	$6f                     ; 0x6f <__rc31+0x40>
    20a5: 86 12        	stx	$12                     ; 0x12 <__rc2>
    20a7: a4 3c        	ldy	$3c                     ; 0x3c <__rc31+0xd>
    20a9: a6 13        	ldx	$13                     ; 0x13 <__rc3>
    20ab: e4 12        	cpx	$12                     ; 0x12 <__rc2>
    20ad: 90 08        	bcc	$20b7 <printf+0x868>
    20af: 80 31        	bra	$20e2 <printf+0x893>
    20b1: 86 13        	stx	$13                     ; 0x13 <__rc3>
    20b3: c5 70        	cmp	$70                     ; 0x70 <__rc31+0x41>
    20b5: b0 2b        	bcs	$20e2 <printf+0x893>
    20b7: a6 7c        	ldx	$7c                     ; 0x7c <__rc31+0x4d>
    20b9: e4 41        	cpx	$41                     ; 0x41 <__rc31+0x12>
    20bb: d0 1c        	bne	$20d9 <printf+0x88a>
    20bd: a6 7b        	ldx	$7b                     ; 0x7b <__rc31+0x4c>
    20bf: e4 40        	cpx	$40                     ; 0x40 <__rc31+0x11>
    20c1: d0 16        	bne	$20d9 <printf+0x88a>
    20c3: 18           	clc
    20c4: 85 12        	sta	$12                     ; 0x12 <__rc2>
    20c6: a5 13        	lda	$13                     ; 0x13 <__rc3>
    20c8: 65 75        	adc	$75                     ; 0x75 <__rc31+0x46>
    20ca: aa           	tax
    20cb: a5 12        	lda	$12                     ; 0x12 <__rc2>
    20cd: 65 76        	adc	$76                     ; 0x76 <__rc31+0x47>
    20cf: 86 12        	stx	$12                     ; 0x12 <__rc2>
    20d1: 85 13        	sta	$13                     ; 0x13 <__rc3>
    20d3: a5 86        	lda	$86                     ; 0x86 <__rc31+0x57>
    20d5: 92 12        	sta	($12)                   ; 0x12 <__rc2>
    20d7: 80 07        	bra	$20e0 <printf+0x891>
    20d9: a2 00        	ldx	#$0
    20db: a5 86        	lda	$86                     ; 0x86 <__rc31+0x57>
    20dd: 20 28 24     	jsr	$2428 <putchar>
    20e0: a4 3c        	ldy	$3c                     ; 0x3c <__rc31+0xd>
    20e2: e6 71        	inc	$71                     ; 0x71 <__rc31+0x42>
    20e4: d0 02        	bne	$20e8 <printf+0x899>
    20e6: e6 72        	inc	$72                     ; 0x72 <__rc31+0x43>
    20e8: a9 10        	lda	#$10
    20ea: 25 6d        	and	$6d                     ; 0x6d <__rc31+0x3e>
    20ec: d0 03        	bne	$20f1 <printf+0x8a2>
    20ee: 4c 7a 21     	jmp	$217a <printf+0x92b>
    20f1: a5 6d        	lda	$6d                     ; 0x6d <__rc31+0x3e>
    20f3: 29 01        	and	#$1
    20f5: f0 03        	beq	$20fa <printf+0x8ab>
    20f7: 4c 7a 21     	jmp	$217a <printf+0x92b>
    20fa: a6 47        	ldx	$47                     ; 0x47 <__rc31+0x18>
    20fc: a5 46        	lda	$46                     ; 0x46 <__rc31+0x17>
    20fe: d0 06        	bne	$2106 <printf+0x8b7>
    2100: 8a           	txa
    2101: d0 03        	bne	$2106 <printf+0x8b7>
    2103: 4c 20 24     	jmp	$2420 <printf+0xbd1>
    2106: a6 71        	ldx	$71                     ; 0x71 <__rc31+0x42>
    2108: 86 13        	stx	$13                     ; 0x13 <__rc3>
    210a: a5 72        	lda	$72                     ; 0x72 <__rc31+0x43>
    210c: 4c 60 21     	jmp	$2160 <printf+0x911>
    210f: c5 70        	cmp	$70                     ; 0x70 <__rc31+0x41>
    2111: b0 26        	bcs	$2139 <printf+0x8ea>
    2113: a6 7c        	ldx	$7c                     ; 0x7c <__rc31+0x4d>
    2115: e4 41        	cpx	$41                     ; 0x41 <__rc31+0x12>
    2117: d0 19        	bne	$2132 <printf+0x8e3>
    2119: a6 7b        	ldx	$7b                     ; 0x7b <__rc31+0x4c>
    211b: e4 40        	cpx	$40                     ; 0x40 <__rc31+0x11>
    211d: d0 13        	bne	$2132 <printf+0x8e3>
    211f: 18           	clc
    2120: aa           	tax
    2121: a5 13        	lda	$13                     ; 0x13 <__rc3>
    2123: 65 75        	adc	$75                     ; 0x75 <__rc31+0x46>
    2125: 85 12        	sta	$12                     ; 0x12 <__rc2>
    2127: 8a           	txa
    2128: 65 76        	adc	$76                     ; 0x76 <__rc31+0x47>
    212a: 85 13        	sta	$13                     ; 0x13 <__rc3>
    212c: a9 30        	lda	#$30
    212e: 92 12        	sta	($12)                   ; 0x12 <__rc2>
    2130: 80 07        	bra	$2139 <printf+0x8ea>
    2132: a2 00        	ldx	#$0
    2134: a9 30        	lda	#$30
    2136: 20 28 24     	jsr	$2428 <putchar>
    2139: a6 71        	ldx	$71                     ; 0x71 <__rc31+0x42>
    213b: a5 72        	lda	$72                     ; 0x72 <__rc31+0x43>
    213d: e8           	inx
    213e: d0 01        	bne	$2141 <printf+0x8f2>
    2140: 1a           	inc
    2141: 86 13        	stx	$13                     ; 0x13 <__rc3>
    2143: 86 71        	stx	$71                     ; 0x71 <__rc31+0x42>
    2145: 85 72        	sta	$72                     ; 0x72 <__rc31+0x43>
    2147: a4 47        	ldy	$47                     ; 0x47 <__rc31+0x18>
    2149: a6 46        	ldx	$46                     ; 0x46 <__rc31+0x17>
    214b: 86 12        	stx	$12                     ; 0x12 <__rc2>
    214d: 88           	dey
    214e: c0 ff        	cpy	#$ff
    2150: d0 02        	bne	$2154 <printf+0x905>
    2152: c6 12        	dec	$12                     ; 0x12 <__rc2>
    2154: 84 47        	sty	$47                     ; 0x47 <__rc31+0x18>
    2156: a6 12        	ldx	$12                     ; 0x12 <__rc2>
    2158: 86 46        	stx	$46                     ; 0x46 <__rc31+0x17>
    215a: d0 04        	bne	$2160 <printf+0x911>
    215c: c0 00        	cpy	#$0
    215e: f0 14        	beq	$2174 <printf+0x925>
    2160: c5 70        	cmp	$70                     ; 0x70 <__rc31+0x41>
    2162: f0 03        	beq	$2167 <printf+0x918>
    2164: 4c 0f 21     	jmp	$210f <printf+0x8c0>
    2167: a6 6f        	ldx	$6f                     ; 0x6f <__rc31+0x40>
    2169: 86 12        	stx	$12                     ; 0x12 <__rc2>
    216b: a6 13        	ldx	$13                     ; 0x13 <__rc3>
    216d: e4 12        	cpx	$12                     ; 0x12 <__rc2>
    216f: b0 c8        	bcs	$2139 <printf+0x8ea>
    2171: 4c 13 21     	jmp	$2113 <printf+0x8c4>
    2174: 64 47        	stz	$47                     ; 0x47 <__rc31+0x18>
    2176: 64 46        	stz	$46                     ; 0x46 <__rc31+0x17>
    2178: a4 3c        	ldy	$3c                     ; 0x3c <__rc31+0xd>
    217a: a2 00        	ldx	#$0
    217c: e4 45        	cpx	$45                     ; 0x45 <__rc31+0x16>
    217e: d0 07        	bne	$2187 <printf+0x938>
    2180: c4 44        	cpy	$44                     ; 0x44 <__rc31+0x15>
    2182: 90 0a        	bcc	$218e <printf+0x93f>
    2184: 4c fe 21     	jmp	$21fe <printf+0x9af>
    2187: e4 45        	cpx	$45                     ; 0x45 <__rc31+0x16>
    2189: 90 03        	bcc	$218e <printf+0x93f>
    218b: 4c fe 21     	jmp	$21fe <printf+0x9af>
    218e: a6 71        	ldx	$71                     ; 0x71 <__rc31+0x42>
    2190: 86 13        	stx	$13                     ; 0x13 <__rc3>
    2192: a5 72        	lda	$72                     ; 0x72 <__rc31+0x43>
    2194: a2 ff        	ldx	#$ff
    2196: c6 44        	dec	$44                     ; 0x44 <__rc31+0x15>
    2198: e4 44        	cpx	$44                     ; 0x44 <__rc31+0x15>
    219a: d0 02        	bne	$219e <printf+0x94f>
    219c: c6 45        	dec	$45                     ; 0x45 <__rc31+0x16>
    219e: c5 70        	cmp	$70                     ; 0x70 <__rc31+0x41>
    21a0: d0 0c        	bne	$21ae <printf+0x95f>
    21a2: a6 6f        	ldx	$6f                     ; 0x6f <__rc31+0x40>
    21a4: 86 12        	stx	$12                     ; 0x12 <__rc2>
    21a6: a6 13        	ldx	$13                     ; 0x13 <__rc3>
    21a8: e4 12        	cpx	$12                     ; 0x12 <__rc2>
    21aa: 90 06        	bcc	$21b2 <printf+0x963>
    21ac: 80 2a        	bra	$21d8 <printf+0x989>
    21ae: c5 70        	cmp	$70                     ; 0x70 <__rc31+0x41>
    21b0: b0 26        	bcs	$21d8 <printf+0x989>
    21b2: a6 7c        	ldx	$7c                     ; 0x7c <__rc31+0x4d>
    21b4: e4 41        	cpx	$41                     ; 0x41 <__rc31+0x12>
    21b6: d0 19        	bne	$21d1 <printf+0x982>
    21b8: a6 7b        	ldx	$7b                     ; 0x7b <__rc31+0x4c>
    21ba: e4 40        	cpx	$40                     ; 0x40 <__rc31+0x11>
    21bc: d0 13        	bne	$21d1 <printf+0x982>
    21be: 18           	clc
    21bf: aa           	tax
    21c0: a5 13        	lda	$13                     ; 0x13 <__rc3>
    21c2: 65 75        	adc	$75                     ; 0x75 <__rc31+0x46>
    21c4: 85 12        	sta	$12                     ; 0x12 <__rc2>
    21c6: 8a           	txa
    21c7: 65 76        	adc	$76                     ; 0x76 <__rc31+0x47>
    21c9: 85 13        	sta	$13                     ; 0x13 <__rc3>
    21cb: a9 30        	lda	#$30
    21cd: 92 12        	sta	($12)                   ; 0x12 <__rc2>
    21cf: 80 07        	bra	$21d8 <printf+0x989>
    21d1: a2 00        	ldx	#$0
    21d3: a9 30        	lda	#$30
    21d5: 20 28 24     	jsr	$2428 <putchar>
    21d8: a6 71        	ldx	$71                     ; 0x71 <__rc31+0x42>
    21da: a5 72        	lda	$72                     ; 0x72 <__rc31+0x43>
    21dc: e8           	inx
    21dd: d0 01        	bne	$21e0 <printf+0x991>
    21df: 1a           	inc
    21e0: 86 13        	stx	$13                     ; 0x13 <__rc3>
    21e2: 86 71        	stx	$71                     ; 0x71 <__rc31+0x42>
    21e4: 85 72        	sta	$72                     ; 0x72 <__rc31+0x43>
    21e6: a2 00        	ldx	#$0
    21e8: e4 45        	cpx	$45                     ; 0x45 <__rc31+0x16>
    21ea: d0 09        	bne	$21f5 <printf+0x9a6>
    21ec: a4 3c        	ldy	$3c                     ; 0x3c <__rc31+0xd>
    21ee: c4 44        	cpy	$44                     ; 0x44 <__rc31+0x15>
    21f0: b0 0c        	bcs	$21fe <printf+0x9af>
    21f2: 4c 94 21     	jmp	$2194 <printf+0x945>
    21f5: e4 45        	cpx	$45                     ; 0x45 <__rc31+0x16>
    21f7: a4 3c        	ldy	$3c                     ; 0x3c <__rc31+0xd>
    21f9: b0 03        	bcs	$21fe <printf+0x9af>
    21fb: 4c 94 21     	jmp	$2194 <printf+0x945>
    21fe: 98           	tya
    21ff: d0 03        	bne	$2204 <printf+0x9b5>
    2201: 4c f7 22     	jmp	$22f7 <printf+0xaa8>
    2204: 88           	dey
    2205: d0 03        	bne	$220a <printf+0x9bb>
    2207: 4c 94 22     	jmp	$2294 <printf+0xa45>
    220a: 84 44        	sty	$44                     ; 0x44 <__rc31+0x15>
    220c: a6 87        	ldx	$87                     ; 0x87 <__rc31+0x58>
    220e: 8a           	txa
    220f: 18           	clc
    2210: 65 44        	adc	$44                     ; 0x44 <__rc31+0x15>
    2212: 85 3c        	sta	$3c                     ; 0x3c <__rc31+0xd>
    2214: a5 88        	lda	$88                     ; 0x88 <__rc31+0x59>
    2216: 69 00        	adc	#$0
    2218: 85 3d        	sta	$3d                     ; 0x3d <__rc31+0xe>
    221a: 4c 86 22     	jmp	$2286 <printf+0xa37>
    221d: a8           	tay
    221e: a9 80        	lda	#$80
    2220: 25 6d        	and	$6d                     ; 0x6d <__rc31+0x3e>
    2222: f0 04        	beq	$2228 <printf+0x9d9>
    2224: a2 61        	ldx	#$61
    2226: 80 02        	bra	$222a <printf+0x9db>
    2228: a2 41        	ldx	#$41
    222a: 86 12        	stx	$12                     ; 0x12 <__rc2>
    222c: 18           	clc
    222d: 98           	tya
    222e: 65 12        	adc	$12                     ; 0x12 <__rc2>
    2230: 18           	clc
    2231: 69 f6        	adc	#$f6
    2233: a4 71        	ldy	$71                     ; 0x71 <__rc31+0x42>
    2235: a6 72        	ldx	$72                     ; 0x72 <__rc31+0x43>
    2237: e4 70        	cpx	$70                     ; 0x70 <__rc31+0x41>
    2239: d0 0c        	bne	$2247 <printf+0x9f8>
    223b: 86 14        	stx	$14                     ; 0x14 <__rc4>
    223d: a6 6f        	ldx	$6f                     ; 0x6f <__rc31+0x40>
    223f: 86 12        	stx	$12                     ; 0x12 <__rc2>
    2241: c4 12        	cpy	$12                     ; 0x12 <__rc2>
    2243: 90 08        	bcc	$224d <printf+0x9fe>
    2245: 80 29        	bra	$2270 <printf+0xa21>
    2247: 86 14        	stx	$14                     ; 0x14 <__rc4>
    2249: e4 70        	cpx	$70                     ; 0x70 <__rc31+0x41>
    224b: b0 23        	bcs	$2270 <printf+0xa21>
    224d: a6 7c        	ldx	$7c                     ; 0x7c <__rc31+0x4d>
    224f: e4 41        	cpx	$41                     ; 0x41 <__rc31+0x12>
    2251: d0 18        	bne	$226b <printf+0xa1c>
    2253: a6 7b        	ldx	$7b                     ; 0x7b <__rc31+0x4c>
    2255: e4 40        	cpx	$40                     ; 0x40 <__rc31+0x11>
    2257: d0 12        	bne	$226b <printf+0xa1c>
    2259: 18           	clc
    225a: aa           	tax
    225b: 98           	tya
    225c: 65 75        	adc	$75                     ; 0x75 <__rc31+0x46>
    225e: 85 12        	sta	$12                     ; 0x12 <__rc2>
    2260: a5 14        	lda	$14                     ; 0x14 <__rc4>
    2262: 65 76        	adc	$76                     ; 0x76 <__rc31+0x47>
    2264: 85 13        	sta	$13                     ; 0x13 <__rc3>
    2266: 8a           	txa
    2267: 92 12        	sta	($12)                   ; 0x12 <__rc2>
    2269: 80 05        	bra	$2270 <printf+0xa21>
    226b: a2 00        	ldx	#$0
    226d: 20 28 24     	jsr	$2428 <putchar>
    2270: e6 71        	inc	$71                     ; 0x71 <__rc31+0x42>
    2272: d0 02        	bne	$2276 <printf+0xa27>
    2274: e6 72        	inc	$72                     ; 0x72 <__rc31+0x43>
    2276: c6 44        	dec	$44                     ; 0x44 <__rc31+0x15>
    2278: a2 ff        	ldx	#$ff
    227a: c6 3c        	dec	$3c                     ; 0x3c <__rc31+0xd>
    227c: e4 3c        	cpx	$3c                     ; 0x3c <__rc31+0xd>
    227e: d0 02        	bne	$2282 <printf+0xa33>
    2280: c6 3d        	dec	$3d                     ; 0x3d <__rc31+0xe>
    2282: a5 44        	lda	$44                     ; 0x44 <__rc31+0x15>
    2284: f0 0e        	beq	$2294 <printf+0xa45>
    2286: b2 3c        	lda	($3c)                   ; 0x3c <__rc31+0xd>
    2288: c9 0a        	cmp	#$a
    228a: 90 03        	bcc	$228f <printf+0xa40>
    228c: 4c 1d 22     	jmp	$221d <printf+0x9ce>
    228f: 09 30        	ora	#$30
    2291: 4c 33 22     	jmp	$2233 <printf+0x9e4>
    2294: a5 4a        	lda	$4a                     ; 0x4a <__rc31+0x1b>
    2296: c9 0a        	cmp	#$a
    2298: b0 04        	bcs	$229e <printf+0xa4f>
    229a: 09 30        	ora	#$30
    229c: 80 16        	bra	$22b4 <printf+0xa65>
    229e: a8           	tay
    229f: a9 80        	lda	#$80
    22a1: 25 6d        	and	$6d                     ; 0x6d <__rc31+0x3e>
    22a3: f0 04        	beq	$22a9 <printf+0xa5a>
    22a5: a2 61        	ldx	#$61
    22a7: 80 02        	bra	$22ab <printf+0xa5c>
    22a9: a2 41        	ldx	#$41
    22ab: 86 12        	stx	$12                     ; 0x12 <__rc2>
    22ad: 18           	clc
    22ae: 98           	tya
    22af: 65 12        	adc	$12                     ; 0x12 <__rc2>
    22b1: 18           	clc
    22b2: 69 f6        	adc	#$f6
    22b4: a4 71        	ldy	$71                     ; 0x71 <__rc31+0x42>
    22b6: a6 72        	ldx	$72                     ; 0x72 <__rc31+0x43>
    22b8: e4 70        	cpx	$70                     ; 0x70 <__rc31+0x41>
    22ba: d0 0c        	bne	$22c8 <printf+0xa79>
    22bc: 86 14        	stx	$14                     ; 0x14 <__rc4>
    22be: a6 6f        	ldx	$6f                     ; 0x6f <__rc31+0x40>
    22c0: 86 12        	stx	$12                     ; 0x12 <__rc2>
    22c2: c4 12        	cpy	$12                     ; 0x12 <__rc2>
    22c4: 90 08        	bcc	$22ce <printf+0xa7f>
    22c6: 80 29        	bra	$22f1 <printf+0xaa2>
    22c8: 86 14        	stx	$14                     ; 0x14 <__rc4>
    22ca: e4 70        	cpx	$70                     ; 0x70 <__rc31+0x41>
    22cc: b0 23        	bcs	$22f1 <printf+0xaa2>
    22ce: a6 7c        	ldx	$7c                     ; 0x7c <__rc31+0x4d>
    22d0: e4 41        	cpx	$41                     ; 0x41 <__rc31+0x12>
    22d2: d0 18        	bne	$22ec <printf+0xa9d>
    22d4: a6 7b        	ldx	$7b                     ; 0x7b <__rc31+0x4c>
    22d6: e4 40        	cpx	$40                     ; 0x40 <__rc31+0x11>
    22d8: d0 12        	bne	$22ec <printf+0xa9d>
    22da: 18           	clc
    22db: aa           	tax
    22dc: 98           	tya
    22dd: 65 75        	adc	$75                     ; 0x75 <__rc31+0x46>
    22df: 85 12        	sta	$12                     ; 0x12 <__rc2>
    22e1: a5 14        	lda	$14                     ; 0x14 <__rc4>
    22e3: 65 76        	adc	$76                     ; 0x76 <__rc31+0x47>
    22e5: 85 13        	sta	$13                     ; 0x13 <__rc3>
    22e7: 8a           	txa
    22e8: 92 12        	sta	($12)                   ; 0x12 <__rc2>
    22ea: 80 05        	bra	$22f1 <printf+0xaa2>
    22ec: a2 00        	ldx	#$0
    22ee: 20 28 24     	jsr	$2428 <putchar>
    22f1: e6 71        	inc	$71                     ; 0x71 <__rc31+0x42>
    22f3: d0 02        	bne	$22f7 <printf+0xaa8>
    22f5: e6 72        	inc	$72                     ; 0x72 <__rc31+0x43>
    22f7: a5 6d        	lda	$6d                     ; 0x6d <__rc31+0x3e>
    22f9: 29 01        	and	#$1
    22fb: d0 1e        	bne	$231b <printf+0xacc>
    22fd: a6 71        	ldx	$71                     ; 0x71 <__rc31+0x42>
    22ff: 86 14        	stx	$14                     ; 0x14 <__rc4>
    2301: a5 72        	lda	$72                     ; 0x72 <__rc31+0x43>
    2303: a4 6f        	ldy	$6f                     ; 0x6f <__rc31+0x40>
    2305: a6 70        	ldx	$70                     ; 0x70 <__rc31+0x41>
    2307: 86 12        	stx	$12                     ; 0x12 <__rc2>
    2309: 86 13        	stx	$13                     ; 0x13 <__rc3>
    230b: c5 12        	cmp	$12                     ; 0x12 <__rc2>
    230d: f0 03        	beq	$2312 <printf+0xac3>
    230f: 4c a0 23     	jmp	$23a0 <printf+0xb51>
    2312: 84 12        	sty	$12                     ; 0x12 <__rc2>
    2314: a6 14        	ldx	$14                     ; 0x14 <__rc4>
    2316: e4 12        	cpx	$12                     ; 0x12 <__rc2>
    2318: 4c a4 23     	jmp	$23a4 <printf+0xb55>
    231b: a6 71        	ldx	$71                     ; 0x71 <__rc31+0x42>
    231d: 86 14        	stx	$14                     ; 0x14 <__rc4>
    231f: a5 72        	lda	$72                     ; 0x72 <__rc31+0x43>
    2321: a6 47        	ldx	$47                     ; 0x47 <__rc31+0x18>
    2323: a4 46        	ldy	$46                     ; 0x46 <__rc31+0x17>
    2325: f0 03        	beq	$232a <printf+0xadb>
    2327: 4c 8c 23     	jmp	$238c <printf+0xb3d>
    232a: e0 00        	cpx	#$0
    232c: f0 d5        	beq	$2303 <printf+0xab4>
    232e: 4c 8c 23     	jmp	$238c <printf+0xb3d>
    2331: c5 70        	cmp	$70                     ; 0x70 <__rc31+0x41>
    2333: b0 26        	bcs	$235b <printf+0xb0c>
    2335: a6 7c        	ldx	$7c                     ; 0x7c <__rc31+0x4d>
    2337: e4 41        	cpx	$41                     ; 0x41 <__rc31+0x12>
    2339: d0 19        	bne	$2354 <printf+0xb05>
    233b: a6 7b        	ldx	$7b                     ; 0x7b <__rc31+0x4c>
    233d: e4 40        	cpx	$40                     ; 0x40 <__rc31+0x11>
    233f: d0 13        	bne	$2354 <printf+0xb05>
    2341: 18           	clc
    2342: aa           	tax
    2343: a5 14        	lda	$14                     ; 0x14 <__rc4>
    2345: 65 75        	adc	$75                     ; 0x75 <__rc31+0x46>
    2347: 85 12        	sta	$12                     ; 0x12 <__rc2>
    2349: 8a           	txa
    234a: 65 76        	adc	$76                     ; 0x76 <__rc31+0x47>
    234c: 85 13        	sta	$13                     ; 0x13 <__rc3>
    234e: a9 20        	lda	#$20
    2350: 92 12        	sta	($12)                   ; 0x12 <__rc2>
    2352: 80 07        	bra	$235b <printf+0xb0c>
    2354: a2 00        	ldx	#$0
    2356: a9 20        	lda	#$20
    2358: 20 28 24     	jsr	$2428 <putchar>
    235b: a6 71        	ldx	$71                     ; 0x71 <__rc31+0x42>
    235d: a5 72        	lda	$72                     ; 0x72 <__rc31+0x43>
    235f: e8           	inx
    2360: d0 01        	bne	$2363 <printf+0xb14>
    2362: 1a           	inc
    2363: 86 14        	stx	$14                     ; 0x14 <__rc4>
    2365: 86 71        	stx	$71                     ; 0x71 <__rc31+0x42>
    2367: 85 72        	sta	$72                     ; 0x72 <__rc31+0x43>
    2369: a6 47        	ldx	$47                     ; 0x47 <__rc31+0x18>
    236b: 86 12        	stx	$12                     ; 0x12 <__rc2>
    236d: a6 46        	ldx	$46                     ; 0x46 <__rc31+0x17>
    236f: 86 13        	stx	$13                     ; 0x13 <__rc3>
    2371: a2 ff        	ldx	#$ff
    2373: c6 12        	dec	$12                     ; 0x12 <__rc2>
    2375: e4 12        	cpx	$12                     ; 0x12 <__rc2>
    2377: d0 02        	bne	$237b <printf+0xb2c>
    2379: c6 13        	dec	$13                     ; 0x13 <__rc3>
    237b: a6 12        	ldx	$12                     ; 0x12 <__rc2>
    237d: 86 47        	stx	$47                     ; 0x47 <__rc31+0x18>
    237f: a6 13        	ldx	$13                     ; 0x13 <__rc3>
    2381: 86 46        	stx	$46                     ; 0x46 <__rc31+0x17>
    2383: d0 07        	bne	$238c <printf+0xb3d>
    2385: a6 12        	ldx	$12                     ; 0x12 <__rc2>
    2387: d0 03        	bne	$238c <printf+0xb3d>
    2389: 4c 03 23     	jmp	$2303 <printf+0xab4>
    238c: c5 70        	cmp	$70                     ; 0x70 <__rc31+0x41>
    238e: f0 03        	beq	$2393 <printf+0xb44>
    2390: 4c 31 23     	jmp	$2331 <printf+0xae2>
    2393: a6 6f        	ldx	$6f                     ; 0x6f <__rc31+0x40>
    2395: 86 12        	stx	$12                     ; 0x12 <__rc2>
    2397: a6 14        	ldx	$14                     ; 0x14 <__rc4>
    2399: e4 12        	cpx	$12                     ; 0x12 <__rc2>
    239b: b0 be        	bcs	$235b <printf+0xb0c>
    239d: 4c 35 23     	jmp	$2335 <printf+0xae6>
    23a0: 86 12        	stx	$12                     ; 0x12 <__rc2>
    23a2: c5 12        	cmp	$12                     ; 0x12 <__rc2>
    23a4: 98           	tya
    23a5: a0 01        	ldy	#$1
    23a7: 90 20        	bcc	$23c9 <printf+0xb7a>
    23a9: a6 13        	ldx	$13                     ; 0x13 <__rc3>
    23ab: d0 03        	bne	$23b0 <printf+0xb61>
    23ad: aa           	tax
    23ae: f0 19        	beq	$23c9 <printf+0xb7a>
    23b0: 18           	clc
    23b1: 65 75        	adc	$75                     ; 0x75 <__rc31+0x46>
    23b3: 85 12        	sta	$12                     ; 0x12 <__rc2>
    23b5: a5 13        	lda	$13                     ; 0x13 <__rc3>
    23b7: 65 76        	adc	$76                     ; 0x76 <__rc31+0x47>
    23b9: 85 13        	sta	$13                     ; 0x13 <__rc3>
    23bb: a2 ff        	ldx	#$ff
    23bd: c6 12        	dec	$12                     ; 0x12 <__rc2>
    23bf: e4 12        	cpx	$12                     ; 0x12 <__rc2>
    23c1: d0 02        	bne	$23c5 <printf+0xb76>
    23c3: c6 13        	dec	$13                     ; 0x13 <__rc3>
    23c5: a9 00        	lda	#$0
    23c7: 92 12        	sta	($12)                   ; 0x12 <__rc2>
    23c9: e6 3e        	inc	$3e                     ; 0x3e <__rc31+0xf>
    23cb: d0 02        	bne	$23cf <printf+0xb80>
    23cd: e6 3f        	inc	$3f                     ; 0x3f <__rc31+0x10>
    23cf: a6 3f        	ldx	$3f                     ; 0x3f <__rc31+0x10>
    23d1: e4 43        	cpx	$43                     ; 0x43 <__rc31+0x14>
    23d3: f0 03        	beq	$23d8 <printf+0xb89>
    23d5: 4c b4 18     	jmp	$18b4 <printf+0x65>
    23d8: a6 3e        	ldx	$3e                     ; 0x3e <__rc31+0xf>
    23da: e4 42        	cpx	$42                     ; 0x42 <__rc31+0x13>
    23dc: f0 03        	beq	$23e1 <printf+0xb92>
    23de: 4c b4 18     	jmp	$18b4 <printf+0x65>
    23e1: b2 42        	lda	($42)                   ; 0x42 <__rc31+0x13>
    23e3: a2 00        	ldx	#$0
    23e5: a0 00        	ldy	#$0
    23e7: 84 40        	sty	$40                     ; 0x40 <__rc31+0x11>
    23e9: a0 00        	ldy	#$0
    23eb: 84 41        	sty	$41                     ; 0x41 <__rc31+0x12>
    23ed: 4c ca 18     	jmp	$18ca <printf+0x7b>
    23f0: e4 45        	cpx	$45                     ; 0x45 <__rc31+0x16>
    23f2: a6 3d        	ldx	$3d                     ; 0x3d <__rc31+0xe>
    23f4: b0 03        	bcs	$23f9 <printf+0xbaa>
    23f6: 4c 08 1f     	jmp	$1f08 <printf+0x6b9>
    23f9: a5 3c        	lda	$3c                     ; 0x3c <__rc31+0xd>
    23fb: 85 44        	sta	$44                     ; 0x44 <__rc31+0x15>
    23fd: 64 45        	stz	$45                     ; 0x45 <__rc31+0x16>
    23ff: e6 44        	inc	$44                     ; 0x44 <__rc31+0x15>
    2401: f0 03        	beq	$2406 <printf+0xbb7>
    2403: 4c 08 1f     	jmp	$1f08 <printf+0x6b9>
    2406: e6 45        	inc	$45                     ; 0x45 <__rc31+0x16>
    2408: 4c 08 1f     	jmp	$1f08 <printf+0x6b9>
    240b: a2 58        	ldx	#$58
    240d: 86 86        	stx	$86                     ; 0x86 <__rc31+0x57>
    240f: a2 01        	ldx	#$1
    2411: 86 81        	stx	$81                     ; 0x81 <__rc31+0x52>
    2413: a2 30        	ldx	#$30
    2415: 86 85        	stx	$85                     ; 0x85 <__rc31+0x56>
    2417: a9 02        	lda	#$2
    2419: a2 00        	ldx	#$0
    241b: 86 82        	stx	$82                     ; 0x82 <__rc31+0x53>
    241d: 4c 49 1f     	jmp	$1f49 <printf+0x6fa>
    2420: 64 47        	stz	$47                     ; 0x47 <__rc31+0x18>
    2422: 64 46        	stz	$46                     ; 0x46 <__rc31+0x17>
    2424: 4c 7a 21     	jmp	$217a <printf+0x92b>
    2427: 60           	rts

00002428 <putchar>:
    2428: 86 12        	stx	$12                     ; 0x12 <__rc2>
    242a: 85 93        	sta	$93                     ; 0x93 <__rc31+0x64>
    242c: 85 32        	sta	$32                     ; 0x32 <__putchar.s>
    242e: a6 01        	ldx	$1                      ; 0x1 <__zp_data_size+0x1>
    2430: 86 94        	stx	$94                     ; 0x94 <__rc31+0x65>
    2432: a6 31        	ldx	$31                     ; 0x31 <_row>
    2434: a0 50        	ldy	#$50
    2436: 8c 00 de     	sty	$de00                   ; 0xde00 <end_block9+0xaf32>
    2439: 9c 01 de     	stz	$de01                   ; 0xde01 <end_block9+0xaf33>
    243c: 8e 02 de     	stx	$de02                   ; 0xde02 <end_block9+0xaf34>
    243f: 9c 03 de     	stz	$de03                   ; 0xde03 <end_block9+0xaf35>
    2442: ae 10 de     	ldx	$de10                   ; 0xde10 <end_block9+0xaf42>
    2445: ad 11 de     	lda	$de11                   ; 0xde11 <end_block9+0xaf43>
    2448: ac 12 de     	ldy	$de12                   ; 0xde12 <end_block9+0xaf44>
    244b: 84 1a        	sty	$1a                     ; 0x1a <__rc10>
    244d: ac 13 de     	ldy	$de13                   ; 0xde13 <end_block9+0xaf45>
    2450: 84 1b        	sty	$1b                     ; 0x1b <__rc11>
    2452: 9c 08 de     	stz	$de08                   ; 0xde08 <end_block9+0xaf3a>
    2455: a0 c0        	ldy	#$c0
    2457: 8c 09 de     	sty	$de09                   ; 0xde09 <end_block9+0xaf3b>
    245a: 9c 0a de     	stz	$de0a                   ; 0xde0a <end_block9+0xaf3c>
    245d: 9c 0b de     	stz	$de0b                   ; 0xde0b <end_block9+0xaf3d>
    2460: 8e 0c de     	stx	$de0c                   ; 0xde0c <end_block9+0xaf3e>
    2463: 8d 0d de     	sta	$de0d                   ; 0xde0d <end_block9+0xaf3f>
    2466: 64 13        	stz	$13                     ; 0x13 <__rc3>
    2468: a2 00        	ldx	#$0
    246a: 86 14        	stx	$14                     ; 0x14 <__rc4>
    246c: a2 c0        	ldx	#$c0
    246e: 86 15        	stx	$15                     ; 0x15 <__rc5>
    2470: a2 11        	ldx	#$11
    2472: 86 16        	stx	$16                     ; 0x16 <__rc6>
    2474: a2 c9        	ldx	#$c9
    2476: 86 17        	stx	$17                     ; 0x17 <__rc7>
    2478: a2 10        	ldx	#$10
    247a: 86 18        	stx	$18                     ; 0x18 <__rc8>
    247c: a2 c9        	ldx	#$c9
    247e: 86 19        	stx	$19                     ; 0x19 <__rc9>
    2480: a6 1a        	ldx	$1a                     ; 0x1a <__rc10>
    2482: 8e 0e de     	stx	$de0e                   ; 0xde0e <end_block9+0xaf40>
    2485: a6 1b        	ldx	$1b                     ; 0x1b <__rc11>
    2487: 8e 0f de     	stx	$de0f                   ; 0xde0f <end_block9+0xaf41>
    248a: ac 18 de     	ldy	$de18                   ; 0xde18 <end_block9+0xaf4a>
    248d: ad 19 de     	lda	$de19                   ; 0xde19 <end_block9+0xaf4b>
    2490: ae 1a de     	ldx	$de1a                   ; 0xde1a <end_block9+0xaf4c>
    2493: ae 1b de     	ldx	$de1b                   ; 0xde1b <end_block9+0xaf4d>
    2496: 84 1c        	sty	$1c                     ; 0x1c <__rc12>
    2498: 85 1d        	sta	$1d                     ; 0x1d <__rc13>
    249a: 64 1a        	stz	$1a                     ; 0x1a <__rc10>
    249c: 80 13        	bra	$24b1 <putchar+0x89>
    249e: a5 1c        	lda	$1c                     ; 0x1c <__rc12>
    24a0: 18           	clc
    24a1: 69 50        	adc	#$50
    24a3: 85 1c        	sta	$1c                     ; 0x1c <__rc12>
    24a5: a5 1d        	lda	$1d                     ; 0x1d <__rc13>
    24a7: 69 00        	adc	#$0
    24a9: 85 1d        	sta	$1d                     ; 0x1d <__rc13>
    24ab: e6 13        	inc	$13                     ; 0x13 <__rc3>
    24ad: d0 02        	bne	$24b1 <putchar+0x89>
    24af: e6 1a        	inc	$1a                     ; 0x1a <__rc10>
    24b1: a9 32        	lda	#$32
    24b3: 18           	clc
    24b4: 65 13        	adc	$13                     ; 0x13 <__rc3>
    24b6: 85 1e        	sta	$1e                     ; 0x1e <__rc14>
    24b8: a9 00        	lda	#$0
    24ba: 65 1a        	adc	$1a                     ; 0x1a <__rc10>
    24bc: 85 1f        	sta	$1f                     ; 0x1f <__rc15>
    24be: b2 1e        	lda	($1e)                   ; 0x1e <__rc14>
    24c0: c9 0a        	cmp	#$a
    24c2: f0 26        	beq	$24ea <putchar+0xc2>
    24c4: c9 0d        	cmp	#$d
    24c6: f0 22        	beq	$24ea <putchar+0xc2>
    24c8: aa           	tax
    24c9: d0 03        	bne	$24ce <putchar+0xa6>
    24cb: 4c f4 25     	jmp	$25f4 <putchar+0x1cc>
    24ce: a2 03        	ldx	#$3
    24d0: 86 01        	stx	$1                      ; 0x1 <__zp_data_size+0x1>
    24d2: a4 30        	ldy	$30                     ; 0x30 <_col>
    24d4: a9 f0        	lda	#$f0
    24d6: 91 1c        	sta	($1c),y                 ; 0x1c <__rc12>
    24d8: ca           	dex
    24d9: 86 01        	stx	$1                      ; 0x1 <__zp_data_size+0x1>
    24db: b2 1e        	lda	($1e)                   ; 0x1e <__rc14>
    24dd: a4 30        	ldy	$30                     ; 0x30 <_col>
    24df: 91 1c        	sta	($1c),y                 ; 0x1c <__rc12>
    24e1: a6 30        	ldx	$30                     ; 0x30 <_col>
    24e3: e8           	inx
    24e4: e6 30        	inc	$30                     ; 0x30 <_col>
    24e6: e0 50        	cpx	#$50
    24e8: d0 c1        	bne	$24ab <putchar+0x83>
    24ea: 64 30        	stz	$30                     ; 0x30 <_col>
    24ec: a6 31        	ldx	$31                     ; 0x31 <_row>
    24ee: e8           	inx
    24ef: e6 31        	inc	$31                     ; 0x31 <_row>
    24f1: e0 1e        	cpx	#$1e
    24f3: f0 03        	beq	$24f8 <putchar+0xd0>
    24f5: 4c 9e 24     	jmp	$249e <putchar+0x76>
    24f8: a2 03        	ldx	#$3
    24fa: 86 01        	stx	$1                      ; 0x1 <__zp_data_size+0x1>
    24fc: a2 09        	ldx	#$9
    24fe: a0 50        	ldy	#$50
    2500: a9 10        	lda	#$10
    2502: 5a           	phy
    2503: a0 00        	ldy	#$0
    2505: 84 1c        	sty	$1c                     ; 0x1c <__rc12>
    2507: a0 c0        	ldy	#$c0
    2509: 84 1d        	sty	$1d                     ; 0x1d <__rc13>
    250b: 7a           	ply
    250c: 85 1b        	sta	$1b                     ; 0x1b <__rc11>
    250e: b1 1c        	lda	($1c),y                 ; 0x1c <__rc12>
    2510: 92 1c        	sta	($1c)                   ; 0x1c <__rc12>
    2512: a9 ff        	lda	#$ff
    2514: c6 1b        	dec	$1b                     ; 0x1b <__rc11>
    2516: c5 1b        	cmp	$1b                     ; 0x1b <__rc11>
    2518: d0 01        	bne	$251b <putchar+0xf3>
    251a: ca           	dex
    251b: e6 1c        	inc	$1c                     ; 0x1c <__rc12>
    251d: d0 02        	bne	$2521 <putchar+0xf9>
    251f: e6 1d        	inc	$1d                     ; 0x1d <__rc13>
    2521: 8a           	txa
    2522: d0 ea        	bne	$250e <putchar+0xe6>
    2524: a5 1b        	lda	$1b                     ; 0x1b <__rc11>
    2526: d0 e6        	bne	$250e <putchar+0xe6>
    2528: a2 02        	ldx	#$2
    252a: 86 01        	stx	$1                      ; 0x1 <__zp_data_size+0x1>
    252c: a2 09        	ldx	#$9
    252e: a9 10        	lda	#$10
    2530: 5a           	phy
    2531: a0 00        	ldy	#$0
    2533: 84 1c        	sty	$1c                     ; 0x1c <__rc12>
    2535: a0 c0        	ldy	#$c0
    2537: 84 1d        	sty	$1d                     ; 0x1d <__rc13>
    2539: 7a           	ply
    253a: 85 1b        	sta	$1b                     ; 0x1b <__rc11>
    253c: b1 1c        	lda	($1c),y                 ; 0x1c <__rc12>
    253e: 92 1c        	sta	($1c)                   ; 0x1c <__rc12>
    2540: a9 ff        	lda	#$ff
    2542: c6 1b        	dec	$1b                     ; 0x1b <__rc11>
    2544: c5 1b        	cmp	$1b                     ; 0x1b <__rc11>
    2546: d0 01        	bne	$2549 <putchar+0x121>
    2548: ca           	dex
    2549: e6 1c        	inc	$1c                     ; 0x1c <__rc12>
    254b: d0 02        	bne	$254f <putchar+0x127>
    254d: e6 1d        	inc	$1d                     ; 0x1d <__rc13>
    254f: 8a           	txa
    2550: d0 ea        	bne	$253c <putchar+0x114>
    2552: a5 1b        	lda	$1b                     ; 0x1b <__rc11>
    2554: d0 e6        	bne	$253c <putchar+0x114>
    2556: a2 02        	ldx	#$2
    2558: 86 01        	stx	$1                      ; 0x1 <__zp_data_size+0x1>
    255a: e8           	inx
    255b: 86 01        	stx	$1                      ; 0x1 <__zp_data_size+0x1>
    255d: a2 50        	ldx	#$50
    255f: a0 11        	ldy	#$11
    2561: 84 1c        	sty	$1c                     ; 0x1c <__rc12>
    2563: a0 c9        	ldy	#$c9
    2565: 84 1d        	sty	$1d                     ; 0x1d <__rc13>
    2567: a0 10        	ldy	#$10
    2569: 84 1e        	sty	$1e                     ; 0x1e <__rc14>
    256b: a0 c9        	ldy	#$c9
    256d: 84 1f        	sty	$1f                     ; 0x1f <__rc15>
    256f: a9 f0        	lda	#$f0
    2571: a4 1c        	ldy	$1c                     ; 0x1c <__rc12>
    2573: 84 22        	sty	$22                     ; 0x22 <__rc18>
    2575: a4 1d        	ldy	$1d                     ; 0x1d <__rc13>
    2577: 84 23        	sty	$23                     ; 0x23 <__rc19>
    2579: 92 1e        	sta	($1e)                   ; 0x1e <__rc14>
    257b: e6 1c        	inc	$1c                     ; 0x1c <__rc12>
    257d: d0 02        	bne	$2581 <putchar+0x159>
    257f: e6 1d        	inc	$1d                     ; 0x1d <__rc13>
    2581: ca           	dex
    2582: a4 22        	ldy	$22                     ; 0x22 <__rc18>
    2584: 84 1e        	sty	$1e                     ; 0x1e <__rc14>
    2586: a4 23        	ldy	$23                     ; 0x23 <__rc19>
    2588: 84 1f        	sty	$1f                     ; 0x1f <__rc15>
    258a: e0 00        	cpx	#$0
    258c: d0 e3        	bne	$2571 <putchar+0x149>
    258e: a2 02        	ldx	#$2
    2590: 86 01        	stx	$1                      ; 0x1 <__zp_data_size+0x1>
    2592: a2 50        	ldx	#$50
    2594: a0 11        	ldy	#$11
    2596: 84 1c        	sty	$1c                     ; 0x1c <__rc12>
    2598: a0 c9        	ldy	#$c9
    259a: 84 1d        	sty	$1d                     ; 0x1d <__rc13>
    259c: a0 10        	ldy	#$10
    259e: 84 1e        	sty	$1e                     ; 0x1e <__rc14>
    25a0: a0 c9        	ldy	#$c9
    25a2: 84 1f        	sty	$1f                     ; 0x1f <__rc15>
    25a4: a9 20        	lda	#$20
    25a6: a4 1c        	ldy	$1c                     ; 0x1c <__rc12>
    25a8: 84 22        	sty	$22                     ; 0x22 <__rc18>
    25aa: a4 1d        	ldy	$1d                     ; 0x1d <__rc13>
    25ac: 84 23        	sty	$23                     ; 0x23 <__rc19>
    25ae: 92 1e        	sta	($1e)                   ; 0x1e <__rc14>
    25b0: e6 1c        	inc	$1c                     ; 0x1c <__rc12>
    25b2: d0 02        	bne	$25b6 <putchar+0x18e>
    25b4: e6 1d        	inc	$1d                     ; 0x1d <__rc13>
    25b6: ca           	dex
    25b7: a4 22        	ldy	$22                     ; 0x22 <__rc18>
    25b9: 84 1e        	sty	$1e                     ; 0x1e <__rc14>
    25bb: a4 23        	ldy	$23                     ; 0x23 <__rc19>
    25bd: 84 1f        	sty	$1f                     ; 0x1f <__rc15>
    25bf: e0 00        	cpx	#$0
    25c1: d0 e3        	bne	$25a6 <putchar+0x17e>
    25c3: c6 31        	dec	$31                     ; 0x31 <_row>
    25c5: 9c 08 de     	stz	$de08                   ; 0xde08 <end_block9+0xaf3a>
    25c8: a2 c0        	ldx	#$c0
    25ca: 8e 09 de     	stx	$de09                   ; 0xde09 <end_block9+0xaf3b>
    25cd: 9c 0a de     	stz	$de0a                   ; 0xde0a <end_block9+0xaf3c>
    25d0: 9c 0b de     	stz	$de0b                   ; 0xde0b <end_block9+0xaf3d>
    25d3: a2 1d        	ldx	#$1d
    25d5: 8e 0c de     	stx	$de0c                   ; 0xde0c <end_block9+0xaf3e>
    25d8: 9c 0d de     	stz	$de0d                   ; 0xde0d <end_block9+0xaf3f>
    25db: 9c 0e de     	stz	$de0e                   ; 0xde0e <end_block9+0xaf40>
    25de: 9c 0f de     	stz	$de0f                   ; 0xde0f <end_block9+0xaf41>
    25e1: ae 18 de     	ldx	$de18                   ; 0xde18 <end_block9+0xaf4a>
    25e4: ac 19 de     	ldy	$de19                   ; 0xde19 <end_block9+0xaf4b>
    25e7: ad 1a de     	lda	$de1a                   ; 0xde1a <end_block9+0xaf4c>
    25ea: ad 1b de     	lda	$de1b                   ; 0xde1b <end_block9+0xaf4d>
    25ed: 86 1c        	stx	$1c                     ; 0x1c <__rc12>
    25ef: 84 1d        	sty	$1d                     ; 0x1d <__rc13>
    25f1: 4c ab 24     	jmp	$24ab <putchar+0x83>
    25f4: a6 94        	ldx	$94                     ; 0x94 <__rc31+0x65>
    25f6: 86 01        	stx	$1                      ; 0x1 <__zp_data_size+0x1>
    25f8: a6 30        	ldx	$30                     ; 0x30 <_col>
    25fa: a4 31        	ldy	$31                     ; 0x31 <_row>
    25fc: 8e 14 d0     	stx	$d014                   ; 0xd014 <end_block9+0xa146>
    25ff: 9c 15 d0     	stz	$d015                   ; 0xd015 <end_block9+0xa147>
    2602: 84 31        	sty	$31                     ; 0x31 <_row>
    2604: 8c 16 d0     	sty	$d016                   ; 0xd016 <end_block9+0xa148>
    2607: 9c 17 d0     	stz	$d017                   ; 0xd017 <end_block9+0xa149>
    260a: a6 12        	ldx	$12                     ; 0x12 <__rc2>
    260c: a5 93        	lda	$93                     ; 0x93 <__rc31+0x64>
    260e: 60           	rts

0000260f <memcpy>:
    260f: a8           	tay
    2610: 8a           	txa
    2611: d0 03        	bne	$2616 <memcpy+0x7>
    2613: 98           	tya
    2614: f0 24        	beq	$263a <memcpy+0x2b>
    2616: a5 12        	lda	$12                     ; 0x12 <__rc2>
    2618: 85 16        	sta	$16                     ; 0x16 <__rc6>
    261a: a5 13        	lda	$13                     ; 0x13 <__rc3>
    261c: 85 17        	sta	$17                     ; 0x17 <__rc7>
    261e: b2 14        	lda	($14)                   ; 0x14 <__rc4>
    2620: 92 16        	sta	($16)                   ; 0x16 <__rc6>
    2622: e6 16        	inc	$16                     ; 0x16 <__rc6>
    2624: d0 02        	bne	$2628 <memcpy+0x19>
    2626: e6 17        	inc	$17                     ; 0x17 <__rc7>
    2628: e6 14        	inc	$14                     ; 0x14 <__rc4>
    262a: d0 02        	bne	$262e <memcpy+0x1f>
    262c: e6 15        	inc	$15                     ; 0x15 <__rc5>
    262e: 88           	dey
    262f: c0 ff        	cpy	#$ff
    2631: d0 01        	bne	$2634 <memcpy+0x25>
    2633: ca           	dex
    2634: 8a           	txa
    2635: d0 e7        	bne	$261e <memcpy+0xf>
    2637: 98           	tya
    2638: d0 e4        	bne	$261e <memcpy+0xf>
    263a: 60           	rts

0000263b <__memset>:
    263b: a4 14        	ldy	$14                     ; 0x14 <__rc4>
    263d: d0 04        	bne	$2643 <__memset+0x8>
    263f: e0 00        	cpx	#$0
    2641: f0 17        	beq	$265a <__memset+0x1f>
    2643: 92 12        	sta	($12)                   ; 0x12 <__rc2>
    2645: e6 12        	inc	$12                     ; 0x12 <__rc2>
    2647: d0 02        	bne	$264b <__memset+0x10>
    2649: e6 13        	inc	$13                     ; 0x13 <__rc3>
    264b: ca           	dex
    264c: e0 ff        	cpx	#$ff
    264e: d0 02        	bne	$2652 <__memset+0x17>
    2650: c6 14        	dec	$14                     ; 0x14 <__rc4>
    2652: a4 14        	ldy	$14                     ; 0x14 <__rc4>
    2654: d0 ed        	bne	$2643 <__memset+0x8>
    2656: e0 00        	cpx	#$0
    2658: d0 e9        	bne	$2643 <__memset+0x8>
    265a: 60           	rts
