
mustart.elf:	file format elf32-mos

SYMBOL TABLE:
00000000 l    df *ABS*	00000000 zero-bss.c
00000000 l    df *ABS*	00000000 zero-zp-bss.c
00000000 l    df *ABS*	00000000 copy-zp-data.c
00000000 l    df *ABS*	00000000 ld-temp.o
00000597 l     F .text	00000191 killSound
00000728 l     F .text	000000ef updateSoundStatus
00000040 l     O .zp.bss	00000001 _col
00000041 l     O .zp.bss	00000001 _row
00005801 l     F .text	00000d3a printf
0000004e l     O .zp.bss	00000001 chipActive
0000653b l     F .text	000001f7 putchar
00000817 l     F .text	000008f9 goLeftOrRight
00000049 l     O .zp.bss	00000001 catSelected
0000007a l     O .zp.bss	00000001 kernelError
0000003d l     O .zp.bss	00000001 menuSoundTimer.1
0000003e l     O .zp.bss	00000001 menuSoundTimer.2
0000003c l     O .zp.data	00000001 _ccolor
00000048 l     O .zp.bss	00000001 selected
00001110 l     F .text	000000f7 displayCats
00006e08 l     F .text	00000032 __mulhi3
000071ac l     O .bss	00000d5f cats
00006fb7 l     O .rodata	00000018 catNames
00001207 l     F .text	00000227 goUpOrDown
0000142e l     F .text	00000780 readLine
0000553c l     F .text	000000da fileRead
00006732 l     F .text	000000e7 atoi
00001bae l     F .text	000002f0 sendAME
0000004f l     O .zp.bss	00000010 chipXChannel
0000003f l     O .zp.bss	00000001 doneWithFudge
0000005f l     O .zp.bss	00000001 fudge
00006d31 l     F .text	000000d7 __udivmodhi4
0000704e l     O .rodata	00000018 opl3_fnums
00000030 l     O .zp.data	00000006 sidChoiceToVoice
000070e6 l     O .rodata	00000060 sidLow
00006fdb l     O .rodata	00000060 sidHigh
00007176 l     O .bss	00000036 sidInstruments
00006fab l     O .rodata	0000000c psgChoiceToVoice
00000036 l     O .zp.data	00000006 polyPSGChanBits
00007066 l     O .rodata	00000040 psgLow
000070a6 l     O .rodata	00000040 psgHigh
00001e9e l     F .text	000004c1 readDelta
00000071 l     O .zp.bss	00000002 theOne.8
0000235f l     F .text	000005c5 readMIDICmd
00002924 l     F .text	00000216 skipWhenFFCmd
00002b3a l     F .text	000002f8 exhaustZeroes
00000062 l     O .zp.bss	00000002 theOne.1
00006bd2 l     F .text	0000015f __udivsi3
00000064 l     O .zp.bss	00000004 theOne.2
0000006f l     O .zp.bss	00000002 theOne.7
00002e32 l     F .text	00000536 initTrack
00000060 l     O .zp.bss	00000002 theOne.0
00006819 l     F .text	000001e2 malloc
00000068 l     O .zp.bss	00000001 theOne.4
00000069 l     O .zp.bss	00000004 theOne.5
0000006d l     O .zp.bss	00000002 theOne.6
00000073 l     O .zp.bss	00000007 kernelEventData
00007146 l     O .rodata	00000030 textColors
00000042 l     O .zp.bss	00000004 _BITMAP_BASE.0
000069fb l     F .text	0000018b free
0000004d l     O .zp.bss	00000001 padDelayTimer.2
0000004a l     O .zp.bss	00000001 readyForPads
0000004c l     O .zp.bss	00000001 padDelayTimer.1
0000004b l     O .zp.bss	00000001 isJingleActive
00006e3a l     F .text	00000070 __mulsi3
000054ef l     F .text	0000004d resetPadReadiness
0000561b l     F .text	000000d7 _ZN12_GLOBAL__N_13putEcP6Status
000056f2 l     F .text	0000010f _ZN12_GLOBAL__N_112print_stringEPKcP6Status
00000046 l     O .zp.bss	00000002 __putchar.s
0000007b l     O .zp.bss	00000001 _ZN12_GLOBAL__N_111initializedE
00000326 l     F .text	0000014b _ZN12_GLOBAL__N_19FreeChunk6insertEPvj
0000007c l     O .zp.bss	00000001 _ZN12_GLOBAL__N_19last_freeE
0000007f l     O .zp.bss	00000002 _ZN12_GLOBAL__N_19free_listE
00000472 l     F .text	000000e8 _ZN12_GLOBAL__N_19FreeChunk6removeEv
0000007d l     O .zp.bss	00000002 _ZN12_GLOBAL__N_19free_sizeE
00003368 g     F .text	00002187 main
00010400 g       .bmmenu	00000000 bmmenu_start
00023000 g       .bmmenu	00000000 bmmenu_end
00010400 g       .pal	00000000 pal_end
00010000 g       .pal	00000000 pal_start
000314b4 g       .canyon	00000000 canyon_end
00030000 g       .canyon	00000000 canyon_start
00000014 g       *ABS*	00000000 __rc4
00000012 g       *ABS*	00000000 __rc2
00000322 g       .text	00000000 __after_main
0000030e g       .text	00000000 __do_init_stack
0000031c g       .text	00000000 __do_copy_zp_data
00000580 g     F .text	00000017 __copy_zp_data
00000316 g       .text	00000000 __do_zero_bss
0000055a g     F .text	00000013 __zero_bss
00000319 g       .text	00000000 __do_zero_zp_bss
0000056d g     F .text	00000013 __zero_zp_bss
00005616 g     F .text	00000005 exit
00000325 g       .text	00000000 _fini
00006eaa g       .rodata	00000000 __set_v
00006bb2  w    F .text	00000020 __memset
00001000  w      *ABS*	00000000 __heap_default_limit
00007f0c g       .noinit	00000000 __heap_start
00006b86  w    F .text	0000002c memcpy
00000010 g       *ABS*	00000000 __rc0
00000016 g       *ABS*	00000000 __rc6
00000018 g       *ABS*	00000000 __rc8
0000001a g       *ABS*	00000000 __rc10
0000001c g       *ABS*	00000000 __rc12
0000001e g       *ABS*	00000000 __rc14
00000020 g       *ABS*	00000000 __rc16
00000022 g       *ABS*	00000000 __rc18
00000024 g       *ABS*	00000000 __rc20
00000026 g       *ABS*	00000000 __rc22
00000028 g       *ABS*	00000000 __rc24
0000002a g       *ABS*	00000000 __rc26
0000002c g       *ABS*	00000000 __rc28
0000002e g       *ABS*	00000000 __rc30
0000002f g       *ABS*	00000000 __rc31
00000300 g       *ABS*	00000000 __f256_start
0000a000 g       *ABS*	00000000 __stack
0000a000 g       *ABS*	00000000 __SLOT_ADDR
0800a000 g       *ABS*	00000000 __block8_lma
00002000 g       *ABS*	00000000 __BLOCK_SIZE
0900a000 g       *ABS*	00000000 __block9_lma
0a00a000 g       *ABS*	00000000 __block10_lma
0b00a000 g       *ABS*	00000000 __block11_lma
0c00a000 g       *ABS*	00000000 __block12_lma
0d00a000 g       *ABS*	00000000 __block13_lma
0e00a000 g       *ABS*	00000000 __block14_lma
0f00a000 g       *ABS*	00000000 __block15_lma
1000a000 g       *ABS*	00000000 __block16_lma
1100a000 g       *ABS*	00000000 __block17_lma
1200a000 g       *ABS*	00000000 __block18_lma
1300a000 g       *ABS*	00000000 __block19_lma
1400a000 g       *ABS*	00000000 __block20_lma
1500a000 g       *ABS*	00000000 __block21_lma
1600a000 g       *ABS*	00000000 __block22_lma
1700a000 g       *ABS*	00000000 __block23_lma
00010000 g       *ABS*	00000000 __pal_lma
00000400 g       *ABS*	00000000 __pal_size
00010400 g       *ABS*	00000000 __bmmenu_lma
00012c00 g       *ABS*	00000000 __bmmenu_size
00030000 g       *ABS*	00000000 __canyon_lma
000014b4 g       *ABS*	00000000 __canyon_size
00007176 g       .bss	00000000 __bss_start
00010400 g       .pal	00000000 end_pal
00023000 g       .bmmenu	00000000 end_bmmenu
000314b4 g       .canyon	00000000 end_canyon
0000030e g       .text	00000000 _start
0000002d g       *ABS*	00000000 __rc29
0000002b g       *ABS*	00000000 __rc27
00000029 g       *ABS*	00000000 __rc25
00000027 g       *ABS*	00000000 __rc23
00000025 g       *ABS*	00000000 __rc21
00000023 g       *ABS*	00000000 __rc19
00000021 g       *ABS*	00000000 __rc17
0000001f g       *ABS*	00000000 __rc15
0000001d g       *ABS*	00000000 __rc13
0000001b g       *ABS*	00000000 __rc11
00000019 g       *ABS*	00000000 __rc9
00000017 g       *ABS*	00000000 __rc7
00000015 g       *ABS*	00000000 __rc5
00000013 g       *ABS*	00000000 __rc3
00000011 g       *ABS*	00000000 __rc1
00000030 g       .zp.data	00000000 __zp_data_start
00000300 g       *ABS*	00000000 __zp_data_load_start
0000000d g       *ABS*	00000000 __zp_data_size
0000003d g       .zp.bss	00000000 __zp_bss_start
00000044 g       *ABS*	00000000 __zp_bss_size
0000030e g       .text	00000000 _init
00006eaa g       .text	00000000 __init_array_start
00006eaa g       .text	00000000 __init_array_end
00006eaa g       .text	00000000 __fini_array_start
00006eaa g       .text	00000000 __fini_array_end
00007176 g       .data	00000000 __data_start
00007176 g       .data	00000000 __data_end
00007176 g       *ABS*	00000000 __data_load_start
00000000 g       *ABS*	00000000 __data_size
00007f0b g       .bss	00000000 __bss_end
00000d95 g       *ABS*	00000000 __bss_size
00007f0b g       .noinit	00000000 end_block8
00007f0b g       .noinit	00000000 end_block9
00007f0b g       .noinit	00000000 end_block10
00007f0b g       .noinit	00000000 end_block11
00007f0b g       .noinit	00000000 end_block12
00007f0b g       .noinit	00000000 end_block13
00007f0b g       .noinit	00000000 end_block14
00007f0b g       .noinit	00000000 end_block15
00007f0b g       .noinit	00000000 end_block16
00007f0b g       .noinit	00000000 end_block17
00007f0b g       .noinit	00000000 end_block18
00007f0b g       .noinit	00000000 end_block19
00007f0b g       .noinit	00000000 end_block20
00007f0b g       .noinit	00000000 end_block21
00007f0b g       .noinit	00000000 end_block22
00007f0b g       .noinit	00000000 end_block23

Disassembly of section .text:

0000030e <_start>:
     30e: a9 00        	lda	#$0
     310: 85 10        	sta	$10                     ; 0x10 <__rc0>
     312: a9 a0        	lda	#$a0
     314: 85 11        	sta	$11                     ; 0x11 <__rc1>

00000316 <__do_zero_bss>:
     316: 20 5a 05     	jsr	$55a <__zero_bss>

00000319 <__do_zero_zp_bss>:
     319: 20 6d 05     	jsr	$56d <__zero_zp_bss>

0000031c <__do_copy_zp_data>:
     31c: 20 80 05     	jsr	$580 <__copy_zp_data>
     31f: 20 68 33     	jsr	$3368 <main>

00000322 <__after_main>:
     322: 4c 16 56     	jmp	$5616 <exit>

00000325 <_fini>:
     325: 60           	rts

00000326 <_ZN12_GLOBAL__N_19FreeChunk6insertEPvj>:
     326: 85 16        	sta	$16                     ; 0x16 <__rc6>
     328: 29 fe        	and	#$fe
     32a: 85 14        	sta	$14                     ; 0x14 <__rc4>
     32c: a0 01        	ldy	#$1
     32e: 98           	tya
     32f: 32 12        	and	($12)                   ; 0x12 <__rc2>
     331: 05 14        	ora	$14                     ; 0x14 <__rc4>
     333: 92 12        	sta	($12)                   ; 0x12 <__rc2>
     335: a5 12        	lda	$12                     ; 0x12 <__rc2>
     337: 18           	clc
     338: 65 14        	adc	$14                     ; 0x14 <__rc4>
     33a: 85 15        	sta	$15                     ; 0x15 <__rc5>
     33c: 8a           	txa
     33d: 65 13        	adc	$13                     ; 0x13 <__rc3>
     33f: 85 14        	sta	$14                     ; 0x14 <__rc4>
     341: 18           	clc
     342: a5 15        	lda	$15                     ; 0x15 <__rc5>
     344: 69 fe        	adc	#$fe
     346: 85 17        	sta	$17                     ; 0x17 <__rc7>
     348: a5 14        	lda	$14                     ; 0x14 <__rc4>
     34a: 69 ff        	adc	#$ff
     34c: 85 15        	sta	$15                     ; 0x15 <__rc5>
     34e: a5 17        	lda	$17                     ; 0x17 <__rc7>
     350: 85 14        	sta	$14                     ; 0x14 <__rc4>
     352: 8a           	txa
     353: 91 12        	sta	($12),y                 ; 0x12 <__rc2>
     355: a5 16        	lda	$16                     ; 0x16 <__rc6>
     357: 92 14        	sta	($14)                   ; 0x14 <__rc4>
     359: 8a           	txa
     35a: 91 14        	sta	($14),y                 ; 0x14 <__rc4>
     35c: a2 01        	ldx	#$1
     35e: 86 18        	stx	$18                     ; 0x18 <__rc8>
     360: b1 12        	lda	($12),y                 ; 0x12 <__rc2>
     362: 85 14        	sta	$14                     ; 0x14 <__rc4>
     364: a9 fe        	lda	#$fe
     366: 32 12        	and	($12)                   ; 0x12 <__rc2>
     368: 18           	clc
     369: 65 7d        	adc	$7d                     ; 0x7d <_ZN12_GLOBAL__N_19free_sizeE>
     36b: aa           	tax
     36c: a5 14        	lda	$14                     ; 0x14 <__rc4>
     36e: 65 7e        	adc	$7e                     ; 0x7e <_ZN12_GLOBAL__N_19free_sizeE+0x1>
     370: a8           	tay
     371: 18           	clc
     372: 8a           	txa
     373: 69 fe        	adc	#$fe
     375: aa           	tax
     376: 98           	tya
     377: 69 ff        	adc	#$ff
     379: 86 7d        	stx	$7d                     ; 0x7d <_ZN12_GLOBAL__N_19free_sizeE>
     37b: 85 7e        	sta	$7e                     ; 0x7e <_ZN12_GLOBAL__N_19free_sizeE+0x1>
     37d: a6 7f        	ldx	$7f                     ; 0x7f <_ZN12_GLOBAL__N_19free_listE>
     37f: 86 16        	stx	$16                     ; 0x16 <__rc6>
     381: a4 80        	ldy	$80                     ; 0x80 <_ZN12_GLOBAL__N_19free_listE+0x1>
     383: a2 00        	ldx	#$0
     385: 86 14        	stx	$14                     ; 0x14 <__rc4>
     387: a2 00        	ldx	#$0
     389: 86 15        	stx	$15                     ; 0x15 <__rc5>
     38b: 84 17        	sty	$17                     ; 0x17 <__rc7>
     38d: c4 15        	cpy	$15                     ; 0x15 <__rc5>
     38f: d0 3c        	bne	$3cd <_ZN12_GLOBAL__N_19FreeChunk6insertEPvj+0xa7>
     391: a6 16        	ldx	$16                     ; 0x16 <__rc6>
     393: e4 14        	cpx	$14                     ; 0x14 <__rc4>
     395: d0 36        	bne	$3cd <_ZN12_GLOBAL__N_19FreeChunk6insertEPvj+0xa7>
     397: a0 04        	ldy	#$4
     399: a5 12        	lda	$12                     ; 0x12 <__rc2>
     39b: 18           	clc
     39c: 69 04        	adc	#$4
     39e: 85 14        	sta	$14                     ; 0x14 <__rc4>
     3a0: a5 13        	lda	$13                     ; 0x13 <__rc3>
     3a2: 69 00        	adc	#$0
     3a4: 18           	clc
     3a5: 85 15        	sta	$15                     ; 0x15 <__rc5>
     3a7: a5 12        	lda	$12                     ; 0x12 <__rc2>
     3a9: 91 12        	sta	($12),y                 ; 0x12 <__rc2>
     3ab: a0 02        	ldy	#$2
     3ad: 85 17        	sta	$17                     ; 0x17 <__rc7>
     3af: 69 02        	adc	#$2
     3b1: 85 16        	sta	$16                     ; 0x16 <__rc6>
     3b3: a5 17        	lda	$17                     ; 0x17 <__rc7>
     3b5: 91 12        	sta	($12),y                 ; 0x12 <__rc2>
     3b7: a5 13        	lda	$13                     ; 0x13 <__rc3>
     3b9: 69 00        	adc	#$0
     3bb: 85 17        	sta	$17                     ; 0x17 <__rc7>
     3bd: 88           	dey
     3be: a5 13        	lda	$13                     ; 0x13 <__rc3>
     3c0: 91 14        	sta	($14),y                 ; 0x14 <__rc4>
     3c2: 91 16        	sta	($16),y                 ; 0x16 <__rc6>
     3c4: a6 12        	ldx	$12                     ; 0x12 <__rc2>
     3c6: 86 7f        	stx	$7f                     ; 0x7f <_ZN12_GLOBAL__N_19free_listE>
     3c8: a6 13        	ldx	$13                     ; 0x13 <__rc3>
     3ca: 86 80        	stx	$80                     ; 0x80 <_ZN12_GLOBAL__N_19free_listE+0x1>
     3cc: 60           	rts
     3cd: a6 12        	ldx	$12                     ; 0x12 <__rc2>
     3cf: a5 12        	lda	$12                     ; 0x12 <__rc2>
     3d1: 18           	clc
     3d2: 69 02        	adc	#$2
     3d4: 85 14        	sta	$14                     ; 0x14 <__rc4>
     3d6: a4 16        	ldy	$16                     ; 0x16 <__rc6>
     3d8: a5 13        	lda	$13                     ; 0x13 <__rc3>
     3da: 69 00        	adc	#$0
     3dc: 85 15        	sta	$15                     ; 0x15 <__rc5>
     3de: 84 19        	sty	$19                     ; 0x19 <__rc9>
     3e0: a4 17        	ldy	$17                     ; 0x17 <__rc7>
     3e2: 84 1a        	sty	$1a                     ; 0x1a <__rc10>
     3e4: a0 02        	ldy	#$2
     3e6: a5 19        	lda	$19                     ; 0x19 <__rc9>
     3e8: 91 12        	sta	($12),y                 ; 0x12 <__rc2>
     3ea: 84 1d        	sty	$1d                     ; 0x1d <__rc13>
     3ec: a4 18        	ldy	$18                     ; 0x18 <__rc8>
     3ee: a5 1a        	lda	$1a                     ; 0x1a <__rc10>
     3f0: 91 14        	sta	($14),y                 ; 0x14 <__rc4>
     3f2: 84 1e        	sty	$1e                     ; 0x1e <__rc14>
     3f4: 18           	clc
     3f5: a5 19        	lda	$19                     ; 0x19 <__rc9>
     3f7: 69 04        	adc	#$4
     3f9: 85 18        	sta	$18                     ; 0x18 <__rc8>
     3fb: a5 1a        	lda	$1a                     ; 0x1a <__rc10>
     3fd: 69 00        	adc	#$0
     3ff: 85 19        	sta	$19                     ; 0x19 <__rc9>
     401: 8a           	txa
     402: 18           	clc
     403: 69 04        	adc	#$4
     405: 85 1a        	sta	$1a                     ; 0x1a <__rc10>
     407: a5 13        	lda	$13                     ; 0x13 <__rc3>
     409: 69 00        	adc	#$0
     40b: 85 1b        	sta	$1b                     ; 0x1b <__rc11>
     40d: a0 04        	ldy	#$4
     40f: b1 16        	lda	($16),y                 ; 0x16 <__rc6>
     411: 85 16        	sta	$16                     ; 0x16 <__rc6>
     413: 85 22        	sta	$22                     ; 0x22 <__rc18>
     415: a4 1e        	ldy	$1e                     ; 0x1e <__rc14>
     417: b1 18        	lda	($18),y                 ; 0x18 <__rc8>
     419: 85 17        	sta	$17                     ; 0x17 <__rc7>
     41b: 85 19        	sta	$19                     ; 0x19 <__rc9>
     41d: a0 04        	ldy	#$4
     41f: a5 22        	lda	$22                     ; 0x22 <__rc18>
     421: 91 12        	sta	($12),y                 ; 0x12 <__rc2>
     423: 84 1f        	sty	$1f                     ; 0x1f <__rc15>
     425: a4 1e        	ldy	$1e                     ; 0x1e <__rc14>
     427: a5 19        	lda	$19                     ; 0x19 <__rc9>
     429: 91 1a        	sta	($1a),y                 ; 0x1a <__rc10>
     42b: 84 1a        	sty	$1a                     ; 0x1a <__rc10>
     42d: 18           	clc
     42e: a5 22        	lda	$22                     ; 0x22 <__rc18>
     430: 69 02        	adc	#$2
     432: 85 18        	sta	$18                     ; 0x18 <__rc8>
     434: a5 19        	lda	$19                     ; 0x19 <__rc9>
     436: 69 00        	adc	#$0
     438: 85 19        	sta	$19                     ; 0x19 <__rc9>
     43a: 8a           	txa
     43b: a4 1d        	ldy	$1d                     ; 0x1d <__rc13>
     43d: 91 16        	sta	($16),y                 ; 0x16 <__rc6>
     43f: a5 13        	lda	$13                     ; 0x13 <__rc3>
     441: a4 1a        	ldy	$1a                     ; 0x1a <__rc10>
     443: 91 18        	sta	($18),y                 ; 0x18 <__rc8>
     445: a4 1d        	ldy	$1d                     ; 0x1d <__rc13>
     447: b1 12        	lda	($12),y                 ; 0x12 <__rc2>
     449: 85 16        	sta	$16                     ; 0x16 <__rc6>
     44b: 85 19        	sta	$19                     ; 0x19 <__rc9>
     44d: a4 1a        	ldy	$1a                     ; 0x1a <__rc10>
     44f: b1 14        	lda	($14),y                 ; 0x14 <__rc4>
     451: 84 18        	sty	$18                     ; 0x18 <__rc8>
     453: 85 17        	sta	$17                     ; 0x17 <__rc7>
     455: 85 14        	sta	$14                     ; 0x14 <__rc4>
     457: 8a           	txa
     458: a4 1f        	ldy	$1f                     ; 0x1f <__rc15>
     45a: 91 16        	sta	($16),y                 ; 0x16 <__rc6>
     45c: 18           	clc
     45d: a5 19        	lda	$19                     ; 0x19 <__rc9>
     45f: 69 04        	adc	#$4
     461: a8           	tay
     462: a5 14        	lda	$14                     ; 0x14 <__rc4>
     464: 69 00        	adc	#$0
     466: 84 14        	sty	$14                     ; 0x14 <__rc4>
     468: 85 15        	sta	$15                     ; 0x15 <__rc5>
     46a: a5 13        	lda	$13                     ; 0x13 <__rc3>
     46c: a4 18        	ldy	$18                     ; 0x18 <__rc8>
     46e: 91 14        	sta	($14),y                 ; 0x14 <__rc4>
     470: 60           	rts
     471: 00           	brk

00000472 <_ZN12_GLOBAL__N_19FreeChunk6removeEv>:
     472: a0 01        	ldy	#$1
     474: a9 fe        	lda	#$fe
     476: 32 12        	and	($12)                   ; 0x12 <__rc2>
     478: 85 14        	sta	$14                     ; 0x14 <__rc4>
     47a: a5 7d        	lda	$7d                     ; 0x7d <_ZN12_GLOBAL__N_19free_sizeE>
     47c: a6 7e        	ldx	$7e                     ; 0x7e <_ZN12_GLOBAL__N_19free_sizeE+0x1>
     47e: 38           	sec
     47f: e5 14        	sbc	$14                     ; 0x14 <__rc4>
     481: 85 17        	sta	$17                     ; 0x17 <__rc7>
     483: 8a           	txa
     484: f1 12        	sbc	($12),y                 ; 0x12 <__rc2>
     486: 85 14        	sta	$14                     ; 0x14 <__rc4>
     488: a2 01        	ldx	#$1
     48a: 86 16        	stx	$16                     ; 0x16 <__rc6>
     48c: 18           	clc
     48d: a5 17        	lda	$17                     ; 0x17 <__rc7>
     48f: 69 02        	adc	#$2
     491: 85 15        	sta	$15                     ; 0x15 <__rc5>
     493: a5 14        	lda	$14                     ; 0x14 <__rc4>
     495: 69 00        	adc	#$0
     497: a6 15        	ldx	$15                     ; 0x15 <__rc5>
     499: 86 7d        	stx	$7d                     ; 0x7d <_ZN12_GLOBAL__N_19free_sizeE>
     49b: 85 7e        	sta	$7e                     ; 0x7e <_ZN12_GLOBAL__N_19free_sizeE+0x1>
     49d: a5 12        	lda	$12                     ; 0x12 <__rc2>
     49f: 18           	clc
     4a0: 69 02        	adc	#$2
     4a2: 85 14        	sta	$14                     ; 0x14 <__rc4>
     4a4: a5 13        	lda	$13                     ; 0x13 <__rc3>
     4a6: 69 00        	adc	#$0
     4a8: c8           	iny
     4a9: 85 15        	sta	$15                     ; 0x15 <__rc5>
     4ab: b1 12        	lda	($12),y                 ; 0x12 <__rc2>
     4ad: aa           	tax
     4ae: a4 16        	ldy	$16                     ; 0x16 <__rc6>
     4b0: b1 14        	lda	($14),y                 ; 0x14 <__rc4>
     4b2: 85 19        	sta	$19                     ; 0x19 <__rc9>
     4b4: c5 13        	cmp	$13                     ; 0x13 <__rc3>
     4b6: d0 0f        	bne	$4c7 <_ZN12_GLOBAL__N_19FreeChunk6removeEv+0x55>
     4b8: e4 12        	cpx	$12                     ; 0x12 <__rc2>
     4ba: d0 0b        	bne	$4c7 <_ZN12_GLOBAL__N_19FreeChunk6removeEv+0x55>
     4bc: a2 00        	ldx	#$0
     4be: 86 14        	stx	$14                     ; 0x14 <__rc4>
     4c0: a2 00        	ldx	#$0
     4c2: 86 15        	stx	$15                     ; 0x15 <__rc5>
     4c4: 4c 51 05     	jmp	$551 <_ZN12_GLOBAL__N_19FreeChunk6removeEv+0xdf>
     4c7: 86 18        	stx	$18                     ; 0x18 <__rc8>
     4c9: a6 12        	ldx	$12                     ; 0x12 <__rc2>
     4cb: a5 12        	lda	$12                     ; 0x12 <__rc2>
     4cd: 86 1c        	stx	$1c                     ; 0x1c <__rc12>
     4cf: 18           	clc
     4d0: 69 04        	adc	#$4
     4d2: 85 14        	sta	$14                     ; 0x14 <__rc4>
     4d4: a5 13        	lda	$13                     ; 0x13 <__rc3>
     4d6: 69 00        	adc	#$0
     4d8: a0 04        	ldy	#$4
     4da: 85 15        	sta	$15                     ; 0x15 <__rc5>
     4dc: b1 12        	lda	($12),y                 ; 0x12 <__rc2>
     4de: 85 1d        	sta	$1d                     ; 0x1d <__rc13>
     4e0: a2 04        	ldx	#$4
     4e2: 86 1a        	stx	$1a                     ; 0x1a <__rc10>
     4e4: 18           	clc
     4e5: 69 02        	adc	#$2
     4e7: 85 16        	sta	$16                     ; 0x16 <__rc6>
     4e9: a0 01        	ldy	#$1
     4eb: b1 14        	lda	($14),y                 ; 0x14 <__rc4>
     4ed: aa           	tax
     4ee: 84 1e        	sty	$1e                     ; 0x1e <__rc14>
     4f0: 69 00        	adc	#$0
     4f2: a4 16        	ldy	$16                     ; 0x16 <__rc6>
     4f4: 84 14        	sty	$14                     ; 0x14 <__rc4>
     4f6: 85 15        	sta	$15                     ; 0x15 <__rc5>
     4f8: a4 1d        	ldy	$1d                     ; 0x1d <__rc13>
     4fa: 84 16        	sty	$16                     ; 0x16 <__rc6>
     4fc: 86 17        	stx	$17                     ; 0x17 <__rc7>
     4fe: a5 18        	lda	$18                     ; 0x18 <__rc8>
     500: a0 02        	ldy	#$2
     502: 91 16        	sta	($16),y                 ; 0x16 <__rc6>
     504: 84 16        	sty	$16                     ; 0x16 <__rc6>
     506: a5 19        	lda	$19                     ; 0x19 <__rc9>
     508: a4 1e        	ldy	$1e                     ; 0x1e <__rc14>
     50a: 91 14        	sta	($14),y                 ; 0x14 <__rc4>
     50c: 18           	clc
     50d: a5 1c        	lda	$1c                     ; 0x1c <__rc12>
     50f: 69 02        	adc	#$2
     511: 85 14        	sta	$14                     ; 0x14 <__rc4>
     513: a5 13        	lda	$13                     ; 0x13 <__rc3>
     515: 69 00        	adc	#$0
     517: 85 15        	sta	$15                     ; 0x15 <__rc5>
     519: a4 16        	ldy	$16                     ; 0x16 <__rc6>
     51b: b1 12        	lda	($12),y                 ; 0x12 <__rc2>
     51d: 85 16        	sta	$16                     ; 0x16 <__rc6>
     51f: a4 1e        	ldy	$1e                     ; 0x1e <__rc14>
     521: b1 14        	lda	($14),y                 ; 0x14 <__rc4>
     523: 84 18        	sty	$18                     ; 0x18 <__rc8>
     525: a4 16        	ldy	$16                     ; 0x16 <__rc6>
     527: 84 14        	sty	$14                     ; 0x14 <__rc4>
     529: 85 15        	sta	$15                     ; 0x15 <__rc5>
     52b: 85 17        	sta	$17                     ; 0x17 <__rc7>
     52d: a4 1a        	ldy	$1a                     ; 0x1a <__rc10>
     52f: a5 1d        	lda	$1d                     ; 0x1d <__rc13>
     531: 91 14        	sta	($14),y                 ; 0x14 <__rc4>
     533: 18           	clc
     534: a5 16        	lda	$16                     ; 0x16 <__rc6>
     536: 69 04        	adc	#$4
     538: 85 16        	sta	$16                     ; 0x16 <__rc6>
     53a: a5 17        	lda	$17                     ; 0x17 <__rc7>
     53c: 69 00        	adc	#$0
     53e: 85 17        	sta	$17                     ; 0x17 <__rc7>
     540: 8a           	txa
     541: a4 18        	ldy	$18                     ; 0x18 <__rc8>
     543: 91 16        	sta	($16),y                 ; 0x16 <__rc6>
     545: a6 80        	ldx	$80                     ; 0x80 <_ZN12_GLOBAL__N_19free_listE+0x1>
     547: e4 13        	cpx	$13                     ; 0x13 <__rc3>
     549: d0 0e        	bne	$559 <_ZN12_GLOBAL__N_19FreeChunk6removeEv+0xe7>
     54b: a6 7f        	ldx	$7f                     ; 0x7f <_ZN12_GLOBAL__N_19free_listE>
     54d: e4 12        	cpx	$12                     ; 0x12 <__rc2>
     54f: d0 08        	bne	$559 <_ZN12_GLOBAL__N_19FreeChunk6removeEv+0xe7>
     551: a6 14        	ldx	$14                     ; 0x14 <__rc4>
     553: a4 15        	ldy	$15                     ; 0x15 <__rc5>
     555: 86 7f        	stx	$7f                     ; 0x7f <_ZN12_GLOBAL__N_19free_listE>
     557: 84 80        	sty	$80                     ; 0x80 <_ZN12_GLOBAL__N_19free_listE+0x1>
     559: 60           	rts

0000055a <__zero_bss>:
     55a: a2 95        	ldx	#$95
     55c: a0 0d        	ldy	#$d
     55e: a9 76        	lda	#$76
     560: 85 12        	sta	$12                     ; 0x12 <__rc2>
     562: a9 71        	lda	#$71
     564: 85 13        	sta	$13                     ; 0x13 <__rc3>
     566: a9 00        	lda	#$0
     568: 84 14        	sty	$14                     ; 0x14 <__rc4>
     56a: 4c b2 6b     	jmp	$6bb2 <__memset>

0000056d <__zero_zp_bss>:
     56d: a2 44        	ldx	#$44
     56f: a0 00        	ldy	#$0
     571: a9 3d        	lda	#$3d
     573: 85 12        	sta	$12                     ; 0x12 <__rc2>
     575: a9 00        	lda	#$0
     577: 85 13        	sta	$13                     ; 0x13 <__rc3>
     579: a9 00        	lda	#$0
     57b: 84 14        	sty	$14                     ; 0x14 <__rc4>
     57d: 4c b2 6b     	jmp	$6bb2 <__memset>

00000580 <__copy_zp_data>:
     580: a9 0d        	lda	#$d
     582: a2 00        	ldx	#$0
     584: a0 30        	ldy	#$30
     586: 84 12        	sty	$12                     ; 0x12 <__rc2>
     588: a0 00        	ldy	#$0
     58a: 84 13        	sty	$13                     ; 0x13 <__rc3>
     58c: a0 00        	ldy	#$0
     58e: 84 14        	sty	$14                     ; 0x14 <__rc4>
     590: a0 03        	ldy	#$3
     592: 84 15        	sty	$15                     ; 0x15 <__rc5>
     594: 4c 86 6b     	jmp	$6b86 <memcpy>

00000597 <killSound>:
     597: a2 b0        	ldx	#$b0
     599: 8e a1 dd     	stx	$dda1                   ; 0xdda1 <__heap_start+0x5e95>
     59c: 86 13        	stx	$13                     ; 0x13 <__rc3>
     59e: a2 7b        	ldx	#$7b
     5a0: 8e a1 dd     	stx	$dda1                   ; 0xdda1 <__heap_start+0x5e95>
     5a3: 9c a1 dd     	stz	$dda1                   ; 0xdda1 <__heap_start+0x5e95>
     5a6: a0 b1        	ldy	#$b1
     5a8: 8c a1 dd     	sty	$dda1                   ; 0xdda1 <__heap_start+0x5e95>
     5ab: 84 12        	sty	$12                     ; 0x12 <__rc2>
     5ad: 8e a1 dd     	stx	$dda1                   ; 0xdda1 <__heap_start+0x5e95>
     5b0: 9c a1 dd     	stz	$dda1                   ; 0xdda1 <__heap_start+0x5e95>
     5b3: c8           	iny
     5b4: 8c a1 dd     	sty	$dda1                   ; 0xdda1 <__heap_start+0x5e95>
     5b7: 84 14        	sty	$14                     ; 0x14 <__rc4>
     5b9: 8e a1 dd     	stx	$dda1                   ; 0xdda1 <__heap_start+0x5e95>
     5bc: 9c a1 dd     	stz	$dda1                   ; 0xdda1 <__heap_start+0x5e95>
     5bf: c8           	iny
     5c0: 8c a1 dd     	sty	$dda1                   ; 0xdda1 <__heap_start+0x5e95>
     5c3: 84 15        	sty	$15                     ; 0x15 <__rc5>
     5c5: 8e a1 dd     	stx	$dda1                   ; 0xdda1 <__heap_start+0x5e95>
     5c8: 9c a1 dd     	stz	$dda1                   ; 0xdda1 <__heap_start+0x5e95>
     5cb: c8           	iny
     5cc: 8c a1 dd     	sty	$dda1                   ; 0xdda1 <__heap_start+0x5e95>
     5cf: 84 16        	sty	$16                     ; 0x16 <__rc6>
     5d1: 8e a1 dd     	stx	$dda1                   ; 0xdda1 <__heap_start+0x5e95>
     5d4: 9c a1 dd     	stz	$dda1                   ; 0xdda1 <__heap_start+0x5e95>
     5d7: c8           	iny
     5d8: 8c a1 dd     	sty	$dda1                   ; 0xdda1 <__heap_start+0x5e95>
     5db: 84 17        	sty	$17                     ; 0x17 <__rc7>
     5dd: 8e a1 dd     	stx	$dda1                   ; 0xdda1 <__heap_start+0x5e95>
     5e0: 9c a1 dd     	stz	$dda1                   ; 0xdda1 <__heap_start+0x5e95>
     5e3: c8           	iny
     5e4: 8c a1 dd     	sty	$dda1                   ; 0xdda1 <__heap_start+0x5e95>
     5e7: 84 18        	sty	$18                     ; 0x18 <__rc8>
     5e9: 8e a1 dd     	stx	$dda1                   ; 0xdda1 <__heap_start+0x5e95>
     5ec: 9c a1 dd     	stz	$dda1                   ; 0xdda1 <__heap_start+0x5e95>
     5ef: c8           	iny
     5f0: 8c a1 dd     	sty	$dda1                   ; 0xdda1 <__heap_start+0x5e95>
     5f3: 84 19        	sty	$19                     ; 0x19 <__rc9>
     5f5: 8e a1 dd     	stx	$dda1                   ; 0xdda1 <__heap_start+0x5e95>
     5f8: 9c a1 dd     	stz	$dda1                   ; 0xdda1 <__heap_start+0x5e95>
     5fb: c8           	iny
     5fc: 8c a1 dd     	sty	$dda1                   ; 0xdda1 <__heap_start+0x5e95>
     5ff: 84 1a        	sty	$1a                     ; 0x1a <__rc10>
     601: 8e a1 dd     	stx	$dda1                   ; 0xdda1 <__heap_start+0x5e95>
     604: 9c a1 dd     	stz	$dda1                   ; 0xdda1 <__heap_start+0x5e95>
     607: c8           	iny
     608: 8c a1 dd     	sty	$dda1                   ; 0xdda1 <__heap_start+0x5e95>
     60b: 8e a1 dd     	stx	$dda1                   ; 0xdda1 <__heap_start+0x5e95>
     60e: 9c a1 dd     	stz	$dda1                   ; 0xdda1 <__heap_start+0x5e95>
     611: c8           	iny
     612: 8c a1 dd     	sty	$dda1                   ; 0xdda1 <__heap_start+0x5e95>
     615: 8e a1 dd     	stx	$dda1                   ; 0xdda1 <__heap_start+0x5e95>
     618: 9c a1 dd     	stz	$dda1                   ; 0xdda1 <__heap_start+0x5e95>
     61b: c8           	iny
     61c: 8c a1 dd     	sty	$dda1                   ; 0xdda1 <__heap_start+0x5e95>
     61f: 8e a1 dd     	stx	$dda1                   ; 0xdda1 <__heap_start+0x5e95>
     622: 9c a1 dd     	stz	$dda1                   ; 0xdda1 <__heap_start+0x5e95>
     625: c8           	iny
     626: 8c a1 dd     	sty	$dda1                   ; 0xdda1 <__heap_start+0x5e95>
     629: 8e a1 dd     	stx	$dda1                   ; 0xdda1 <__heap_start+0x5e95>
     62c: 9c a1 dd     	stz	$dda1                   ; 0xdda1 <__heap_start+0x5e95>
     62f: c8           	iny
     630: 8c a1 dd     	sty	$dda1                   ; 0xdda1 <__heap_start+0x5e95>
     633: 8e a1 dd     	stx	$dda1                   ; 0xdda1 <__heap_start+0x5e95>
     636: 9c a1 dd     	stz	$dda1                   ; 0xdda1 <__heap_start+0x5e95>
     639: c8           	iny
     63a: 8c a1 dd     	sty	$dda1                   ; 0xdda1 <__heap_start+0x5e95>
     63d: 8e a1 dd     	stx	$dda1                   ; 0xdda1 <__heap_start+0x5e95>
     640: 9c a1 dd     	stz	$dda1                   ; 0xdda1 <__heap_start+0x5e95>
     643: c8           	iny
     644: 8c a1 dd     	sty	$dda1                   ; 0xdda1 <__heap_start+0x5e95>
     647: 8e a1 dd     	stx	$dda1                   ; 0xdda1 <__heap_start+0x5e95>
     64a: 9c a1 dd     	stz	$dda1                   ; 0xdda1 <__heap_start+0x5e95>
     64d: a2 9f        	ldx	#$9f
     64f: 8e 00 d6     	stx	$d600                   ; 0xd600 <__heap_start+0x56f4>
     652: 8e 10 d6     	stx	$d610                   ; 0xd610 <__heap_start+0x5704>
     655: 8c 00 d6     	sty	$d600                   ; 0xd600 <__heap_start+0x56f4>
     658: 8c 10 d6     	sty	$d610                   ; 0xd610 <__heap_start+0x5704>
     65b: a2 df        	ldx	#$df
     65d: 8e 00 d6     	stx	$d600                   ; 0xd600 <__heap_start+0x56f4>
     660: 8e 10 d6     	stx	$d610                   ; 0xd610 <__heap_start+0x5704>
     663: a2 ff        	ldx	#$ff
     665: 8e 00 d6     	stx	$d600                   ; 0xd600 <__heap_start+0x56f4>
     668: 8e 10 d6     	stx	$d610                   ; 0xd610 <__heap_start+0x5704>
     66b: ad 04 d4     	lda	$d404                   ; 0xd404 <__heap_start+0x54f8>
     66e: 29 fe        	and	#$fe
     670: 8d 04 d4     	sta	$d404                   ; 0xd404 <__heap_start+0x54f8>
     673: ad 0b d4     	lda	$d40b                   ; 0xd40b <__heap_start+0x54ff>
     676: 29 fe        	and	#$fe
     678: 8d 0b d4     	sta	$d40b                   ; 0xd40b <__heap_start+0x54ff>
     67b: ad 12 d4     	lda	$d412                   ; 0xd412 <__heap_start+0x5506>
     67e: 29 fe        	and	#$fe
     680: 8d 12 d4     	sta	$d412                   ; 0xd412 <__heap_start+0x5506>
     683: ad 04 d5     	lda	$d504                   ; 0xd504 <__heap_start+0x55f8>
     686: 29 fe        	and	#$fe
     688: 8d 04 d5     	sta	$d504                   ; 0xd504 <__heap_start+0x55f8>
     68b: ad 0b d5     	lda	$d50b                   ; 0xd50b <__heap_start+0x55ff>
     68e: 29 fe        	and	#$fe
     690: 8d 0b d5     	sta	$d50b                   ; 0xd50b <__heap_start+0x55ff>
     693: ad 12 d5     	lda	$d512                   ; 0xd512 <__heap_start+0x5606>
     696: 29 fe        	and	#$fe
     698: 8d 12 d5     	sta	$d512                   ; 0xd512 <__heap_start+0x5606>
     69b: a6 13        	ldx	$13                     ; 0x13 <__rc3>
     69d: 8e 80 d5     	stx	$d580                   ; 0xd580 <__heap_start+0x5674>
     6a0: 9c 81 d5     	stz	$d581                   ; 0xd581 <__heap_start+0x5675>
     6a3: a4 12        	ldy	$12                     ; 0x12 <__rc2>
     6a5: 8c 80 d5     	sty	$d580                   ; 0xd580 <__heap_start+0x5674>
     6a8: 9c 81 d5     	stz	$d581                   ; 0xd581 <__heap_start+0x5675>
     6ab: a5 14        	lda	$14                     ; 0x14 <__rc4>
     6ad: 8d 80 d5     	sta	$d580                   ; 0xd580 <__heap_start+0x5674>
     6b0: 9c 81 d5     	stz	$d581                   ; 0xd581 <__heap_start+0x5675>
     6b3: a6 15        	ldx	$15                     ; 0x15 <__rc5>
     6b5: 8e 80 d5     	stx	$d580                   ; 0xd580 <__heap_start+0x5674>
     6b8: 9c 81 d5     	stz	$d581                   ; 0xd581 <__heap_start+0x5675>
     6bb: a6 16        	ldx	$16                     ; 0x16 <__rc6>
     6bd: 8e 80 d5     	stx	$d580                   ; 0xd580 <__heap_start+0x5674>
     6c0: 9c 81 d5     	stz	$d581                   ; 0xd581 <__heap_start+0x5675>
     6c3: a6 17        	ldx	$17                     ; 0x17 <__rc7>
     6c5: 8e 80 d5     	stx	$d580                   ; 0xd580 <__heap_start+0x5674>
     6c8: 9c 81 d5     	stz	$d581                   ; 0xd581 <__heap_start+0x5675>
     6cb: a6 18        	ldx	$18                     ; 0x18 <__rc8>
     6cd: 8e 80 d5     	stx	$d580                   ; 0xd580 <__heap_start+0x5674>
     6d0: 9c 81 d5     	stz	$d581                   ; 0xd581 <__heap_start+0x5675>
     6d3: a6 19        	ldx	$19                     ; 0x19 <__rc9>
     6d5: 8e 80 d5     	stx	$d580                   ; 0xd580 <__heap_start+0x5674>
     6d8: 9c 81 d5     	stz	$d581                   ; 0xd581 <__heap_start+0x5675>
     6db: a6 1a        	ldx	$1a                     ; 0x1a <__rc10>
     6dd: 8e 80 d5     	stx	$d580                   ; 0xd580 <__heap_start+0x5674>
     6e0: 9c 81 d5     	stz	$d581                   ; 0xd581 <__heap_start+0x5675>
     6e3: a6 13        	ldx	$13                     ; 0x13 <__rc3>
     6e5: 8e 82 d5     	stx	$d582                   ; 0xd582 <__heap_start+0x5676>
     6e8: 9c 81 d5     	stz	$d581                   ; 0xd581 <__heap_start+0x5675>
     6eb: 8c 82 d5     	sty	$d582                   ; 0xd582 <__heap_start+0x5676>
     6ee: 9c 81 d5     	stz	$d581                   ; 0xd581 <__heap_start+0x5675>
     6f1: 8d 82 d5     	sta	$d582                   ; 0xd582 <__heap_start+0x5676>
     6f4: 9c 81 d5     	stz	$d581                   ; 0xd581 <__heap_start+0x5675>
     6f7: a6 15        	ldx	$15                     ; 0x15 <__rc5>
     6f9: 8e 82 d5     	stx	$d582                   ; 0xd582 <__heap_start+0x5676>
     6fc: 9c 81 d5     	stz	$d581                   ; 0xd581 <__heap_start+0x5675>
     6ff: a6 16        	ldx	$16                     ; 0x16 <__rc6>
     701: 8e 82 d5     	stx	$d582                   ; 0xd582 <__heap_start+0x5676>
     704: 9c 81 d5     	stz	$d581                   ; 0xd581 <__heap_start+0x5675>
     707: a6 17        	ldx	$17                     ; 0x17 <__rc7>
     709: 8e 82 d5     	stx	$d582                   ; 0xd582 <__heap_start+0x5676>
     70c: 9c 81 d5     	stz	$d581                   ; 0xd581 <__heap_start+0x5675>
     70f: a6 18        	ldx	$18                     ; 0x18 <__rc8>
     711: 8e 82 d5     	stx	$d582                   ; 0xd582 <__heap_start+0x5676>
     714: 9c 81 d5     	stz	$d581                   ; 0xd581 <__heap_start+0x5675>
     717: a6 19        	ldx	$19                     ; 0x19 <__rc9>
     719: 8e 82 d5     	stx	$d582                   ; 0xd582 <__heap_start+0x5676>
     71c: 9c 81 d5     	stz	$d581                   ; 0xd581 <__heap_start+0x5675>
     71f: a6 1a        	ldx	$1a                     ; 0x1a <__rc10>
     721: 8e 82 d5     	stx	$d582                   ; 0xd582 <__heap_start+0x5676>
     724: 9c 81 d5     	stz	$d581                   ; 0xd581 <__heap_start+0x5675>
     727: 60           	rts

00000728 <updateSoundStatus>:
     728: c9 03        	cmp	#$3
     72a: f0 03        	beq	$72f <updateSoundStatus+0x7>
     72c: 4c 16 08     	jmp	$816 <updateSoundStatus+0xee>
     72f: a2 07        	ldx	#$7
     731: 86 40        	stx	$40                     ; 0x40 <_col>
     733: 8e 14 d0     	stx	$d014                   ; 0xd014 <__heap_start+0x5108>
     736: 9c 15 d0     	stz	$d015                   ; 0xd015 <__heap_start+0x5109>
     739: a2 0b        	ldx	#$b
     73b: 86 41        	stx	$41                     ; 0x41 <_row>
     73d: 8e 16 d0     	stx	$d016                   ; 0xd016 <__heap_start+0x510a>
     740: 9c 17 d0     	stz	$d017                   ; 0xd017 <__heap_start+0x510b>
     743: a2 49        	ldx	#$49
     745: 86 12        	stx	$12                     ; 0x12 <__rc2>
     747: a2 70        	ldx	#$70
     749: 86 13        	stx	$13                     ; 0x13 <__rc3>
     74b: a2 49        	ldx	#$49
     74d: 86 14        	stx	$14                     ; 0x14 <__rc4>
     74f: a2 70        	ldx	#$70
     751: 86 15        	stx	$15                     ; 0x15 <__rc5>
     753: a6 14        	ldx	$14                     ; 0x14 <__rc4>
     755: 86 91        	stx	$91                     ; 0x91 <__zp_bss_size+0x4d>
     757: a6 15        	ldx	$15                     ; 0x15 <__rc5>
     759: 86 92        	stx	$92                     ; 0x92 <__zp_bss_size+0x4e>
     75b: 20 01 58     	jsr	$5801 <printf>
     75e: a2 07        	ldx	#$7
     760: 86 40        	stx	$40                     ; 0x40 <_col>
     762: 8e 14 d0     	stx	$d014                   ; 0xd014 <__heap_start+0x5108>
     765: 9c 15 d0     	stz	$d015                   ; 0xd015 <__heap_start+0x5109>
     768: a2 0c        	ldx	#$c
     76a: 86 41        	stx	$41                     ; 0x41 <_row>
     76c: 8e 16 d0     	stx	$d016                   ; 0xd016 <__heap_start+0x510a>
     76f: 9c 17 d0     	stz	$d017                   ; 0xd017 <__heap_start+0x510b>
     772: a6 91        	ldx	$91                     ; 0x91 <__zp_bss_size+0x4d>
     774: 86 12        	stx	$12                     ; 0x12 <__rc2>
     776: a6 92        	ldx	$92                     ; 0x92 <__zp_bss_size+0x4e>
     778: 86 13        	stx	$13                     ; 0x13 <__rc3>
     77a: 20 01 58     	jsr	$5801 <printf>
     77d: a2 07        	ldx	#$7
     77f: 86 40        	stx	$40                     ; 0x40 <_col>
     781: 8e 14 d0     	stx	$d014                   ; 0xd014 <__heap_start+0x5108>
     784: 9c 15 d0     	stz	$d015                   ; 0xd015 <__heap_start+0x5109>
     787: a2 0d        	ldx	#$d
     789: 86 41        	stx	$41                     ; 0x41 <_row>
     78b: 8e 16 d0     	stx	$d016                   ; 0xd016 <__heap_start+0x510a>
     78e: 9c 17 d0     	stz	$d017                   ; 0xd017 <__heap_start+0x510b>
     791: a6 91        	ldx	$91                     ; 0x91 <__zp_bss_size+0x4d>
     793: 86 12        	stx	$12                     ; 0x12 <__rc2>
     795: a6 92        	ldx	$92                     ; 0x92 <__zp_bss_size+0x4e>
     797: 86 13        	stx	$13                     ; 0x13 <__rc3>
     799: a4 12        	ldy	$12                     ; 0x12 <__rc2>
     79b: 84 14        	sty	$14                     ; 0x14 <__rc4>
     79d: 86 15        	stx	$15                     ; 0x15 <__rc5>
     79f: a6 14        	ldx	$14                     ; 0x14 <__rc4>
     7a1: 86 91        	stx	$91                     ; 0x91 <__zp_bss_size+0x4d>
     7a3: a6 15        	ldx	$15                     ; 0x15 <__rc5>
     7a5: 86 92        	stx	$92                     ; 0x92 <__zp_bss_size+0x4e>
     7a7: 20 01 58     	jsr	$5801 <printf>
     7aa: a2 07        	ldx	#$7
     7ac: 86 40        	stx	$40                     ; 0x40 <_col>
     7ae: 8e 14 d0     	stx	$d014                   ; 0xd014 <__heap_start+0x5108>
     7b1: 9c 15 d0     	stz	$d015                   ; 0xd015 <__heap_start+0x5109>
     7b4: a2 0e        	ldx	#$e
     7b6: 86 41        	stx	$41                     ; 0x41 <_row>
     7b8: 8e 16 d0     	stx	$d016                   ; 0xd016 <__heap_start+0x510a>
     7bb: 9c 17 d0     	stz	$d017                   ; 0xd017 <__heap_start+0x510b>
     7be: a6 91        	ldx	$91                     ; 0x91 <__zp_bss_size+0x4d>
     7c0: 86 12        	stx	$12                     ; 0x12 <__rc2>
     7c2: a6 92        	ldx	$92                     ; 0x92 <__zp_bss_size+0x4e>
     7c4: 86 13        	stx	$13                     ; 0x13 <__rc3>
     7c6: a4 12        	ldy	$12                     ; 0x12 <__rc2>
     7c8: 84 14        	sty	$14                     ; 0x14 <__rc4>
     7ca: 86 15        	stx	$15                     ; 0x15 <__rc5>
     7cc: a6 14        	ldx	$14                     ; 0x14 <__rc4>
     7ce: 86 91        	stx	$91                     ; 0x91 <__zp_bss_size+0x4d>
     7d0: a6 15        	ldx	$15                     ; 0x15 <__rc5>
     7d2: 86 92        	stx	$92                     ; 0x92 <__zp_bss_size+0x4e>
     7d4: 20 01 58     	jsr	$5801 <printf>
     7d7: a2 07        	ldx	#$7
     7d9: 86 40        	stx	$40                     ; 0x40 <_col>
     7db: 8e 14 d0     	stx	$d014                   ; 0xd014 <__heap_start+0x5108>
     7de: 9c 15 d0     	stz	$d015                   ; 0xd015 <__heap_start+0x5109>
     7e1: a2 0f        	ldx	#$f
     7e3: 86 41        	stx	$41                     ; 0x41 <_row>
     7e5: 8e 16 d0     	stx	$d016                   ; 0xd016 <__heap_start+0x510a>
     7e8: 9c 17 d0     	stz	$d017                   ; 0xd017 <__heap_start+0x510b>
     7eb: a6 91        	ldx	$91                     ; 0x91 <__zp_bss_size+0x4d>
     7ed: 86 12        	stx	$12                     ; 0x12 <__rc2>
     7ef: a6 92        	ldx	$92                     ; 0x92 <__zp_bss_size+0x4e>
     7f1: 86 13        	stx	$13                     ; 0x13 <__rc3>
     7f3: 20 01 58     	jsr	$5801 <printf>
     7f6: a5 4e        	lda	$4e                     ; 0x4e <chipActive>
     7f8: f0 1c        	beq	$816 <updateSoundStatus+0xee>
     7fa: 18           	clc
     7fb: 69 0b        	adc	#$b
     7fd: a2 09        	ldx	#$9
     7ff: 86 40        	stx	$40                     ; 0x40 <_col>
     801: 8e 14 d0     	stx	$d014                   ; 0xd014 <__heap_start+0x5108>
     804: 9c 15 d0     	stz	$d015                   ; 0xd015 <__heap_start+0x5109>
     807: 85 41        	sta	$41                     ; 0x41 <_row>
     809: 8d 16 d0     	sta	$d016                   ; 0xd016 <__heap_start+0x510a>
     80c: 9c 17 d0     	stz	$d017                   ; 0xd017 <__heap_start+0x510b>
     80f: a9 fc        	lda	#$fc
     811: a2 00        	ldx	#$0
     813: 20 3b 65     	jsr	$653b <putchar>
     816: 60           	rts

00000817 <goLeftOrRight>:
     817: 48           	pha
     818: 18           	clc
     819: a5 10        	lda	$10                     ; 0x10 <__rc0>
     81b: 69 fe        	adc	#$fe
     81d: 85 10        	sta	$10                     ; 0x10 <__rc0>
     81f: a5 11        	lda	$11                     ; 0x11 <__rc1>
     821: 69 ff        	adc	#$ff
     823: 85 11        	sta	$11                     ; 0x11 <__rc1>
     825: 68           	pla
     826: aa           	tax
     827: a4 49        	ldy	$49                     ; 0x49 <catSelected>
     829: d0 03        	bne	$82e <goLeftOrRight+0x17>
     82b: 4c 92 08     	jmp	$892 <goLeftOrRight+0x7b>
     82e: c0 03        	cpy	#$3
     830: f0 03        	beq	$835 <goLeftOrRight+0x1e>
     832: 4c ed 08     	jmp	$8ed <goLeftOrRight+0xd6>
     835: 8a           	txa
     836: d0 03        	bne	$83b <goLeftOrRight+0x24>
     838: 4c 02 11     	jmp	$1102 <goLeftOrRight+0x8eb>
     83b: a2 94        	ldx	#$94
     83d: 8e 08 d6     	stx	$d608                   ; 0xd608 <__heap_start+0x56fc>
     840: a2 89        	ldx	#$89
     842: 8e 08 d6     	stx	$d608                   ; 0xd608 <__heap_start+0x56fc>
     845: a2 0c        	ldx	#$c
     847: 8e 08 d6     	stx	$d608                   ; 0xd608 <__heap_start+0x56fc>
     84a: a2 80        	ldx	#$80
     84c: 86 f3        	stx	$f3                     ; 0xf3 <__zp_bss_size+0xaf>
     84e: a2 8f        	ldx	#$8f
     850: a0 00        	ldy	#$0
     852: 86 12        	stx	$12                     ; 0x12 <__rc2>
     854: 84 13        	sty	$13                     ; 0x13 <__rc3>
     856: a2 7a        	ldx	#$7a
     858: 86 14        	stx	$14                     ; 0x14 <__rc4>
     85a: a2 00        	ldx	#$0
     85c: 86 15        	stx	$15                     ; 0x15 <__rc5>
     85e: 20 f0 ff     	jsr	$fff0 <__heap_start+0x80e4>
     861: 92 12        	sta	($12)                   ; 0x12 <__rc2>
     863: a9 00        	lda	#$0
     865: 6a           	ror
     866: 85 14        	sta	$14                     ; 0x14 <__rc4>
     868: a9 02        	lda	#$2
     86a: 18           	clc
     86b: 65 8f        	adc	$8f                     ; 0x8f <__zp_bss_size+0x4b>
     86d: 85 3d        	sta	$3d                     ; 0x3d <menuSoundTimer.1>
     86f: 64 f3        	stz	$f3                     ; 0xf3 <__zp_bss_size+0xaf>
     871: a6 3d        	ldx	$3d                     ; 0x3d <menuSoundTimer.1>
     873: 86 f4        	stx	$f4                     ; 0xf4 <__zp_bss_size+0xb0>
     875: a9 01        	lda	#$1
     877: 25 3e        	and	$3e                     ; 0x3e <menuSoundTimer.2>
     879: 85 f5        	sta	$f5                     ; 0xf5 <__zp_bss_size+0xb1>
     87b: a2 8e        	ldx	#$8e
     87d: a0 00        	ldy	#$0
     87f: 86 12        	stx	$12                     ; 0x12 <__rc2>
     881: 84 13        	sty	$13                     ; 0x13 <__rc3>
     883: 20 f0 ff     	jsr	$fff0 <__heap_start+0x80e4>
     886: 92 12        	sta	($12)                   ; 0x12 <__rc2>
     888: a9 00        	lda	#$0
     88a: 6a           	ror
     88b: 85 14        	sta	$14                     ; 0x14 <__rc4>
     88d: a9 ff        	lda	#$ff
     88f: 4c 47 09     	jmp	$947 <goLeftOrRight+0x130>
     892: 8a           	txa
     893: f0 03        	beq	$898 <goLeftOrRight+0x81>
     895: 4c 02 11     	jmp	$1102 <goLeftOrRight+0x8eb>
     898: a2 94        	ldx	#$94
     89a: 8e 08 d6     	stx	$d608                   ; 0xd608 <__heap_start+0x56fc>
     89d: a2 89        	ldx	#$89
     89f: 8e 08 d6     	stx	$d608                   ; 0xd608 <__heap_start+0x56fc>
     8a2: a2 0c        	ldx	#$c
     8a4: 8e 08 d6     	stx	$d608                   ; 0xd608 <__heap_start+0x56fc>
     8a7: a2 80        	ldx	#$80
     8a9: 86 f3        	stx	$f3                     ; 0xf3 <__zp_bss_size+0xaf>
     8ab: a2 8d        	ldx	#$8d
     8ad: a0 00        	ldy	#$0
     8af: 86 12        	stx	$12                     ; 0x12 <__rc2>
     8b1: 84 13        	sty	$13                     ; 0x13 <__rc3>
     8b3: a2 7a        	ldx	#$7a
     8b5: 86 14        	stx	$14                     ; 0x14 <__rc4>
     8b7: a2 00        	ldx	#$0
     8b9: 86 15        	stx	$15                     ; 0x15 <__rc5>
     8bb: 20 f0 ff     	jsr	$fff0 <__heap_start+0x80e4>
     8be: 92 12        	sta	($12)                   ; 0x12 <__rc2>
     8c0: a9 00        	lda	#$0
     8c2: 6a           	ror
     8c3: 85 14        	sta	$14                     ; 0x14 <__rc4>
     8c5: a9 02        	lda	#$2
     8c7: 18           	clc
     8c8: 65 8d        	adc	$8d                     ; 0x8d <__zp_bss_size+0x49>
     8ca: 85 3d        	sta	$3d                     ; 0x3d <menuSoundTimer.1>
     8cc: 64 f3        	stz	$f3                     ; 0xf3 <__zp_bss_size+0xaf>
     8ce: a6 3d        	ldx	$3d                     ; 0x3d <menuSoundTimer.1>
     8d0: 86 f4        	stx	$f4                     ; 0xf4 <__zp_bss_size+0xb0>
     8d2: a9 01        	lda	#$1
     8d4: 25 3e        	and	$3e                     ; 0x3e <menuSoundTimer.2>
     8d6: 85 f5        	sta	$f5                     ; 0xf5 <__zp_bss_size+0xb1>
     8d8: a2 8c        	ldx	#$8c
     8da: a0 00        	ldy	#$0
     8dc: 86 12        	stx	$12                     ; 0x12 <__rc2>
     8de: 84 13        	sty	$13                     ; 0x13 <__rc3>
     8e0: 20 f0 ff     	jsr	$fff0 <__heap_start+0x80e4>
     8e3: 92 12        	sta	($12)                   ; 0x12 <__rc2>
     8e5: a9 00        	lda	#$0
     8e7: 6a           	ror
     8e8: 85 14        	sta	$14                     ; 0x14 <__rc4>
     8ea: 4c 45 09     	jmp	$945 <goLeftOrRight+0x12e>
     8ed: a0 94        	ldy	#$94
     8ef: 8c 08 d6     	sty	$d608                   ; 0xd608 <__heap_start+0x56fc>
     8f2: a0 89        	ldy	#$89
     8f4: 8c 08 d6     	sty	$d608                   ; 0xd608 <__heap_start+0x56fc>
     8f7: a0 0c        	ldy	#$c
     8f9: 8c 08 d6     	sty	$d608                   ; 0xd608 <__heap_start+0x56fc>
     8fc: a0 80        	ldy	#$80
     8fe: 84 f3        	sty	$f3                     ; 0xf3 <__zp_bss_size+0xaf>
     900: a0 8b        	ldy	#$8b
     902: a9 00        	lda	#$0
     904: 84 12        	sty	$12                     ; 0x12 <__rc2>
     906: 85 13        	sta	$13                     ; 0x13 <__rc3>
     908: a0 7a        	ldy	#$7a
     90a: 84 14        	sty	$14                     ; 0x14 <__rc4>
     90c: a0 00        	ldy	#$0
     90e: 84 15        	sty	$15                     ; 0x15 <__rc5>
     910: 20 f0 ff     	jsr	$fff0 <__heap_start+0x80e4>
     913: 92 12        	sta	($12)                   ; 0x12 <__rc2>
     915: a9 00        	lda	#$0
     917: 6a           	ror
     918: 85 14        	sta	$14                     ; 0x14 <__rc4>
     91a: a9 02        	lda	#$2
     91c: 18           	clc
     91d: 65 8b        	adc	$8b                     ; 0x8b <__zp_bss_size+0x47>
     91f: 85 3d        	sta	$3d                     ; 0x3d <menuSoundTimer.1>
     921: 64 f3        	stz	$f3                     ; 0xf3 <__zp_bss_size+0xaf>
     923: a4 3d        	ldy	$3d                     ; 0x3d <menuSoundTimer.1>
     925: 84 f4        	sty	$f4                     ; 0xf4 <__zp_bss_size+0xb0>
     927: a9 01        	lda	#$1
     929: 25 3e        	and	$3e                     ; 0x3e <menuSoundTimer.2>
     92b: 85 f5        	sta	$f5                     ; 0xf5 <__zp_bss_size+0xb1>
     92d: a0 8a        	ldy	#$8a
     92f: a9 00        	lda	#$0
     931: 84 12        	sty	$12                     ; 0x12 <__rc2>
     933: 85 13        	sta	$13                     ; 0x13 <__rc3>
     935: 20 f0 ff     	jsr	$fff0 <__heap_start+0x80e4>
     938: 92 12        	sta	($12)                   ; 0x12 <__rc2>
     93a: a9 00        	lda	#$0
     93c: 6a           	ror
     93d: 85 14        	sta	$14                     ; 0x14 <__rc4>
     93f: a9 ff        	lda	#$ff
     941: e0 00        	cpx	#$0
     943: d0 02        	bne	$947 <goLeftOrRight+0x130>
     945: a9 01        	lda	#$1
     947: a2 00        	ldx	#$0
     949: 86 12        	stx	$12                     ; 0x12 <__rc2>
     94b: a2 c0        	ldx	#$c0
     94d: 86 13        	stx	$13                     ; 0x13 <__rc3>
     94f: 18           	clc
     950: 65 49        	adc	$49                     ; 0x49 <catSelected>
     952: 85 49        	sta	$49                     ; 0x49 <catSelected>
     954: c9 03        	cmp	#$3
     956: f0 03        	beq	$95b <goLeftOrRight+0x144>
     958: 4c e8 09     	jmp	$9e8 <goLeftOrRight+0x1d1>
     95b: a2 f0        	ldx	#$f0
     95d: 86 3c        	stx	$3c                     ; 0x3c <_ccolor>
     95f: a6 01        	ldx	$1                      ; 0x1 <__data_size+0x1>
     961: 86 18        	stx	$18                     ; 0x18 <__rc8>
     963: a2 50        	ldx	#$50
     965: 8e 00 de     	stx	$de00                   ; 0xde00 <__heap_start+0x5ef4>
     968: 9c 01 de     	stz	$de01                   ; 0xde01 <__heap_start+0x5ef5>
     96b: a2 1e        	ldx	#$1e
     96d: 8e 02 de     	stx	$de02                   ; 0xde02 <__heap_start+0x5ef6>
     970: 9c 03 de     	stz	$de03                   ; 0xde03 <__heap_start+0x5ef7>
     973: ae 10 de     	ldx	$de10                   ; 0xde10 <__heap_start+0x5f04>
     976: ac 11 de     	ldy	$de11                   ; 0xde11 <__heap_start+0x5f05>
     979: ad 12 de     	lda	$de12                   ; 0xde12 <__heap_start+0x5f06>
     97c: ad 13 de     	lda	$de13                   ; 0xde13 <__heap_start+0x5f07>
     97f: a9 02        	lda	#$2
     981: 85 01        	sta	$1                      ; 0x1 <__data_size+0x1>
     983: e0 01        	cpx	#$1
     985: 98           	tya
     986: e9 00        	sbc	#$0
     988: 50 02        	bvc	$98c <goLeftOrRight+0x175>
     98a: 49 80        	eor	#$80
     98c: c9 00        	cmp	#$0
     98e: 10 03        	bpl	$993 <goLeftOrRight+0x17c>
     990: 4c 77 0a     	jmp	$a77 <goLeftOrRight+0x260>
     993: a9 20        	lda	#$20
     995: 86 19        	stx	$19                     ; 0x19 <__rc9>
     997: 86 14        	stx	$14                     ; 0x14 <__rc4>
     999: 84 15        	sty	$15                     ; 0x15 <__rc5>
     99b: a2 00        	ldx	#$0
     99d: 86 16        	stx	$16                     ; 0x16 <__rc6>
     99f: a2 c0        	ldx	#$c0
     9a1: 86 17        	stx	$17                     ; 0x17 <__rc7>
     9a3: 80 04        	bra	$9a9 <goLeftOrRight+0x192>
     9a5: a6 15        	ldx	$15                     ; 0x15 <__rc5>
     9a7: f0 14        	beq	$9bd <goLeftOrRight+0x1a6>
     9a9: 92 16        	sta	($16)                   ; 0x16 <__rc6>
     9ab: e6 16        	inc	$16                     ; 0x16 <__rc6>
     9ad: d0 02        	bne	$9b1 <goLeftOrRight+0x19a>
     9af: e6 17        	inc	$17                     ; 0x17 <__rc7>
     9b1: a2 ff        	ldx	#$ff
     9b3: c6 14        	dec	$14                     ; 0x14 <__rc4>
     9b5: e4 14        	cpx	$14                     ; 0x14 <__rc4>
     9b7: d0 ec        	bne	$9a5 <goLeftOrRight+0x18e>
     9b9: c6 15        	dec	$15                     ; 0x15 <__rc5>
     9bb: 80 e8        	bra	$9a5 <goLeftOrRight+0x18e>
     9bd: a6 14        	ldx	$14                     ; 0x14 <__rc4>
     9bf: d0 e8        	bne	$9a9 <goLeftOrRight+0x192>
     9c1: a2 03        	ldx	#$3
     9c3: 86 01        	stx	$1                      ; 0x1 <__data_size+0x1>
     9c5: a6 3c        	ldx	$3c                     ; 0x3c <_ccolor>
     9c7: 86 14        	stx	$14                     ; 0x14 <__rc4>
     9c9: a6 19        	ldx	$19                     ; 0x19 <__rc9>
     9cb: 80 03        	bra	$9d0 <goLeftOrRight+0x1b9>
     9cd: 98           	tya
     9ce: f0 12        	beq	$9e2 <goLeftOrRight+0x1cb>
     9d0: a5 14        	lda	$14                     ; 0x14 <__rc4>
     9d2: 92 12        	sta	($12)                   ; 0x12 <__rc2>
     9d4: e6 12        	inc	$12                     ; 0x12 <__rc2>
     9d6: d0 02        	bne	$9da <goLeftOrRight+0x1c3>
     9d8: e6 13        	inc	$13                     ; 0x13 <__rc3>
     9da: ca           	dex
     9db: e0 ff        	cpx	#$ff
     9dd: d0 ee        	bne	$9cd <goLeftOrRight+0x1b6>
     9df: 88           	dey
     9e0: 80 eb        	bra	$9cd <goLeftOrRight+0x1b6>
     9e2: 8a           	txa
     9e3: d0 eb        	bne	$9d0 <goLeftOrRight+0x1b9>
     9e5: 4c 7b 0a     	jmp	$a7b <goLeftOrRight+0x264>
     9e8: 64 48        	stz	$48                     ; 0x48 <selected>
     9ea: a2 f0        	ldx	#$f0
     9ec: 86 3c        	stx	$3c                     ; 0x3c <_ccolor>
     9ee: a6 01        	ldx	$1                      ; 0x1 <__data_size+0x1>
     9f0: 86 18        	stx	$18                     ; 0x18 <__rc8>
     9f2: a2 50        	ldx	#$50
     9f4: 8e 00 de     	stx	$de00                   ; 0xde00 <__heap_start+0x5ef4>
     9f7: 9c 01 de     	stz	$de01                   ; 0xde01 <__heap_start+0x5ef5>
     9fa: a2 1e        	ldx	#$1e
     9fc: 8e 02 de     	stx	$de02                   ; 0xde02 <__heap_start+0x5ef6>
     9ff: 9c 03 de     	stz	$de03                   ; 0xde03 <__heap_start+0x5ef7>
     a02: ae 10 de     	ldx	$de10                   ; 0xde10 <__heap_start+0x5f04>
     a05: ac 11 de     	ldy	$de11                   ; 0xde11 <__heap_start+0x5f05>
     a08: ad 12 de     	lda	$de12                   ; 0xde12 <__heap_start+0x5f06>
     a0b: ad 13 de     	lda	$de13                   ; 0xde13 <__heap_start+0x5f07>
     a0e: a9 02        	lda	#$2
     a10: 85 01        	sta	$1                      ; 0x1 <__data_size+0x1>
     a12: e0 01        	cpx	#$1
     a14: 98           	tya
     a15: e9 00        	sbc	#$0
     a17: 50 02        	bvc	$a1b <goLeftOrRight+0x204>
     a19: 49 80        	eor	#$80
     a1b: c9 00        	cmp	#$0
     a1d: 10 03        	bpl	$a22 <goLeftOrRight+0x20b>
     a1f: 4c 87 0f     	jmp	$f87 <goLeftOrRight+0x770>
     a22: a9 20        	lda	#$20
     a24: 86 19        	stx	$19                     ; 0x19 <__rc9>
     a26: 86 14        	stx	$14                     ; 0x14 <__rc4>
     a28: 84 15        	sty	$15                     ; 0x15 <__rc5>
     a2a: a2 00        	ldx	#$0
     a2c: 86 16        	stx	$16                     ; 0x16 <__rc6>
     a2e: a2 c0        	ldx	#$c0
     a30: 86 17        	stx	$17                     ; 0x17 <__rc7>
     a32: 80 04        	bra	$a38 <goLeftOrRight+0x221>
     a34: a6 15        	ldx	$15                     ; 0x15 <__rc5>
     a36: f0 14        	beq	$a4c <goLeftOrRight+0x235>
     a38: 92 16        	sta	($16)                   ; 0x16 <__rc6>
     a3a: e6 16        	inc	$16                     ; 0x16 <__rc6>
     a3c: d0 02        	bne	$a40 <goLeftOrRight+0x229>
     a3e: e6 17        	inc	$17                     ; 0x17 <__rc7>
     a40: a2 ff        	ldx	#$ff
     a42: c6 14        	dec	$14                     ; 0x14 <__rc4>
     a44: e4 14        	cpx	$14                     ; 0x14 <__rc4>
     a46: d0 ec        	bne	$a34 <goLeftOrRight+0x21d>
     a48: c6 15        	dec	$15                     ; 0x15 <__rc5>
     a4a: 80 e8        	bra	$a34 <goLeftOrRight+0x21d>
     a4c: a6 14        	ldx	$14                     ; 0x14 <__rc4>
     a4e: d0 e8        	bne	$a38 <goLeftOrRight+0x221>
     a50: a2 03        	ldx	#$3
     a52: 86 01        	stx	$1                      ; 0x1 <__data_size+0x1>
     a54: a6 3c        	ldx	$3c                     ; 0x3c <_ccolor>
     a56: 86 14        	stx	$14                     ; 0x14 <__rc4>
     a58: a6 19        	ldx	$19                     ; 0x19 <__rc9>
     a5a: 80 03        	bra	$a5f <goLeftOrRight+0x248>
     a5c: 98           	tya
     a5d: f0 12        	beq	$a71 <goLeftOrRight+0x25a>
     a5f: a5 14        	lda	$14                     ; 0x14 <__rc4>
     a61: 92 12        	sta	($12)                   ; 0x12 <__rc2>
     a63: e6 12        	inc	$12                     ; 0x12 <__rc2>
     a65: d0 02        	bne	$a69 <goLeftOrRight+0x252>
     a67: e6 13        	inc	$13                     ; 0x13 <__rc3>
     a69: ca           	dex
     a6a: e0 ff        	cpx	#$ff
     a6c: d0 ee        	bne	$a5c <goLeftOrRight+0x245>
     a6e: 88           	dey
     a6f: 80 eb        	bra	$a5c <goLeftOrRight+0x245>
     a71: 8a           	txa
     a72: d0 eb        	bne	$a5f <goLeftOrRight+0x248>
     a74: 4c 8b 0f     	jmp	$f8b <goLeftOrRight+0x774>
     a77: a2 03        	ldx	#$3
     a79: 86 01        	stx	$1                      ; 0x1 <__data_size+0x1>
     a7b: a6 18        	ldx	$18                     ; 0x18 <__rc8>
     a7d: 86 01        	stx	$1                      ; 0x1 <__data_size+0x1>
     a7f: 9c 14 d0     	stz	$d014                   ; 0xd014 <__heap_start+0x5108>
     a82: 9c 15 d0     	stz	$d015                   ; 0xd015 <__heap_start+0x5109>
     a85: 9c 16 d0     	stz	$d016                   ; 0xd016 <__heap_start+0x510a>
     a88: 9c 17 d0     	stz	$d017                   ; 0xd017 <__heap_start+0x510b>
     a8b: a2 07        	ldx	#$7
     a8d: 86 40        	stx	$40                     ; 0x40 <_col>
     a8f: 8e 14 d0     	stx	$d014                   ; 0xd014 <__heap_start+0x5108>
     a92: 9c 15 d0     	stz	$d015                   ; 0xd015 <__heap_start+0x5109>
     a95: a2 0a        	ldx	#$a
     a97: 86 41        	stx	$41                     ; 0x41 <_row>
     a99: 8e 16 d0     	stx	$d016                   ; 0xd016 <__heap_start+0x510a>
     a9c: 9c 17 d0     	stz	$d017                   ; 0xd017 <__heap_start+0x510b>
     a9f: a2 00        	ldx	#$0
     aa1: a9 20        	lda	#$20
     aa3: 20 3b 65     	jsr	$653b <putchar>
     aa6: a2 00        	ldx	#$0
     aa8: a9 20        	lda	#$20
     aaa: 20 3b 65     	jsr	$653b <putchar>
     aad: a2 00        	ldx	#$0
     aaf: a9 20        	lda	#$20
     ab1: 20 3b 65     	jsr	$653b <putchar>
     ab4: a2 00        	ldx	#$0
     ab6: a9 20        	lda	#$20
     ab8: 20 3b 65     	jsr	$653b <putchar>
     abb: a9 42        	lda	#$42
     abd: a2 00        	ldx	#$0
     abf: 20 3b 65     	jsr	$653b <putchar>
     ac2: a2 00        	ldx	#$0
     ac4: a9 20        	lda	#$20
     ac6: 20 3b 65     	jsr	$653b <putchar>
     ac9: a2 00        	ldx	#$0
     acb: a9 20        	lda	#$20
     acd: 20 3b 65     	jsr	$653b <putchar>
     ad0: a2 00        	ldx	#$0
     ad2: a9 65        	lda	#$65
     ad4: 20 3b 65     	jsr	$653b <putchar>
     ad7: a9 78        	lda	#$78
     ad9: a2 00        	ldx	#$0
     adb: 20 3b 65     	jsr	$653b <putchar>
     ade: a2 00        	ldx	#$0
     ae0: a9 69        	lda	#$69
     ae2: 20 3b 65     	jsr	$653b <putchar>
     ae5: a2 00        	ldx	#$0
     ae7: a9 74        	lda	#$74
     ae9: 20 3b 65     	jsr	$653b <putchar>
     aec: a2 00        	ldx	#$0
     aee: a9 20        	lda	#$20
     af0: 20 3b 65     	jsr	$653b <putchar>
     af3: a2 00        	ldx	#$0
     af5: a9 74        	lda	#$74
     af7: 20 3b 65     	jsr	$653b <putchar>
     afa: a2 00        	ldx	#$0
     afc: a9 6f        	lda	#$6f
     afe: 20 3b 65     	jsr	$653b <putchar>
     b01: a2 00        	ldx	#$0
     b03: a9 20        	lda	#$20
     b05: 20 3b 65     	jsr	$653b <putchar>
     b08: a2 00        	ldx	#$0
     b0a: a9 53        	lda	#$53
     b0c: 20 3b 65     	jsr	$653b <putchar>
     b0f: a2 00        	ldx	#$0
     b11: a9 75        	lda	#$75
     b13: 20 3b 65     	jsr	$653b <putchar>
     b16: a2 00        	ldx	#$0
     b18: a9 70        	lda	#$70
     b1a: 20 3b 65     	jsr	$653b <putchar>
     b1d: a2 00        	ldx	#$0
     b1f: a9 65        	lda	#$65
     b21: 20 3b 65     	jsr	$653b <putchar>
     b24: a2 00        	ldx	#$0
     b26: a9 72        	lda	#$72
     b28: 20 3b 65     	jsr	$653b <putchar>
     b2b: a9 62        	lda	#$62
     b2d: a2 00        	ldx	#$0
     b2f: 20 3b 65     	jsr	$653b <putchar>
     b32: a2 00        	ldx	#$0
     b34: a9 61        	lda	#$61
     b36: 20 3b 65     	jsr	$653b <putchar>
     b39: a2 00        	ldx	#$0
     b3b: a9 73        	lda	#$73
     b3d: 20 3b 65     	jsr	$653b <putchar>
     b40: a2 00        	ldx	#$0
     b42: a9 69        	lda	#$69
     b44: 20 3b 65     	jsr	$653b <putchar>
     b47: a9 63        	lda	#$63
     b49: a2 00        	ldx	#$0
     b4b: 20 3b 65     	jsr	$653b <putchar>
     b4e: a2 00        	ldx	#$0
     b50: a9 0a        	lda	#$a
     b52: 20 3b 65     	jsr	$653b <putchar>
     b55: a2 07        	ldx	#$7
     b57: 86 40        	stx	$40                     ; 0x40 <_col>
     b59: 8e 14 d0     	stx	$d014                   ; 0xd014 <__heap_start+0x5108>
     b5c: 86 81        	stx	$81                     ; 0x81 <__zp_bss_size+0x3d>
     b5e: 9c 15 d0     	stz	$d015                   ; 0xd015 <__heap_start+0x5109>
     b61: a2 0b        	ldx	#$b
     b63: 86 41        	stx	$41                     ; 0x41 <_row>
     b65: 8e 16 d0     	stx	$d016                   ; 0xd016 <__heap_start+0x510a>
     b68: 9c 17 d0     	stz	$d017                   ; 0xd017 <__heap_start+0x510b>
     b6b: a2 00        	ldx	#$0
     b6d: a9 20        	lda	#$20
     b6f: 20 3b 65     	jsr	$653b <putchar>
     b72: a2 00        	ldx	#$0
     b74: a9 20        	lda	#$20
     b76: 20 3b 65     	jsr	$653b <putchar>
     b79: a2 00        	ldx	#$0
     b7b: a9 20        	lda	#$20
     b7d: 20 3b 65     	jsr	$653b <putchar>
     b80: a2 00        	ldx	#$0
     b82: a9 20        	lda	#$20
     b84: 20 3b 65     	jsr	$653b <putchar>
     b87: a9 46        	lda	#$46
     b89: a2 00        	ldx	#$0
     b8b: 20 3b 65     	jsr	$653b <putchar>
     b8e: a2 00        	ldx	#$0
     b90: a9 20        	lda	#$20
     b92: 20 3b 65     	jsr	$653b <putchar>
     b95: a2 00        	ldx	#$0
     b97: a9 20        	lda	#$20
     b99: 20 3b 65     	jsr	$653b <putchar>
     b9c: a2 00        	ldx	#$0
     b9e: a9 67        	lda	#$67
     ba0: 20 3b 65     	jsr	$653b <putchar>
     ba3: a2 00        	ldx	#$0
     ba5: a9 6f        	lda	#$6f
     ba7: 20 3b 65     	jsr	$653b <putchar>
     baa: a2 00        	ldx	#$0
     bac: a9 20        	lda	#$20
     bae: 20 3b 65     	jsr	$653b <putchar>
     bb1: a2 00        	ldx	#$0
     bb3: a9 74        	lda	#$74
     bb5: 20 3b 65     	jsr	$653b <putchar>
     bb8: a2 00        	ldx	#$0
     bba: a9 6f        	lda	#$6f
     bbc: 20 3b 65     	jsr	$653b <putchar>
     bbf: a2 00        	ldx	#$0
     bc1: a9 20        	lda	#$20
     bc3: 20 3b 65     	jsr	$653b <putchar>
     bc6: a9 66        	lda	#$66
     bc8: a2 00        	ldx	#$0
     bca: 20 3b 65     	jsr	$653b <putchar>
     bcd: a9 2f        	lda	#$2f
     bcf: a2 00        	ldx	#$0
     bd1: 20 3b 65     	jsr	$653b <putchar>
     bd4: a9 6d        	lda	#$6d
     bd6: a2 00        	ldx	#$0
     bd8: 20 3b 65     	jsr	$653b <putchar>
     bdb: a2 00        	ldx	#$0
     bdd: a9 61        	lda	#$61
     bdf: 20 3b 65     	jsr	$653b <putchar>
     be2: a2 00        	ldx	#$0
     be4: a9 6e        	lda	#$6e
     be6: 20 3b 65     	jsr	$653b <putchar>
     be9: a2 00        	ldx	#$0
     beb: a9 61        	lda	#$61
     bed: 20 3b 65     	jsr	$653b <putchar>
     bf0: a2 00        	ldx	#$0
     bf2: a9 67        	lda	#$67
     bf4: 20 3b 65     	jsr	$653b <putchar>
     bf7: a2 00        	ldx	#$0
     bf9: a9 65        	lda	#$65
     bfb: 20 3b 65     	jsr	$653b <putchar>
     bfe: a2 00        	ldx	#$0
     c00: a9 72        	lda	#$72
     c02: 20 3b 65     	jsr	$653b <putchar>
     c05: a2 00        	ldx	#$0
     c07: a9 0a        	lda	#$a
     c09: 20 3b 65     	jsr	$653b <putchar>
     c0c: a6 81        	ldx	$81                     ; 0x81 <__zp_bss_size+0x3d>
     c0e: 86 40        	stx	$40                     ; 0x40 <_col>
     c10: 8e 14 d0     	stx	$d014                   ; 0xd014 <__heap_start+0x5108>
     c13: 9c 15 d0     	stz	$d015                   ; 0xd015 <__heap_start+0x5109>
     c16: a2 0c        	ldx	#$c
     c18: 86 41        	stx	$41                     ; 0x41 <_row>
     c1a: 8e 16 d0     	stx	$d016                   ; 0xd016 <__heap_start+0x510a>
     c1d: 9c 17 d0     	stz	$d017                   ; 0xd017 <__heap_start+0x510b>
     c20: a2 00        	ldx	#$0
     c22: a9 20        	lda	#$20
     c24: 20 3b 65     	jsr	$653b <putchar>
     c27: a2 00        	ldx	#$0
     c29: a9 20        	lda	#$20
     c2b: 20 3b 65     	jsr	$653b <putchar>
     c2e: a2 00        	ldx	#$0
     c30: a9 20        	lda	#$20
     c32: 20 3b 65     	jsr	$653b <putchar>
     c35: a2 00        	ldx	#$0
     c37: a9 20        	lda	#$20
     c39: 20 3b 65     	jsr	$653b <putchar>
     c3c: a9 31        	lda	#$31
     c3e: a2 00        	ldx	#$0
     c40: 20 3b 65     	jsr	$653b <putchar>
     c43: a2 00        	ldx	#$0
     c45: a9 20        	lda	#$20
     c47: 20 3b 65     	jsr	$653b <putchar>
     c4a: a2 00        	ldx	#$0
     c4c: a9 20        	lda	#$20
     c4e: 20 3b 65     	jsr	$653b <putchar>
     c51: a2 00        	ldx	#$0
     c53: a9 74        	lda	#$74
     c55: 20 3b 65     	jsr	$653b <putchar>
     c58: a2 00        	ldx	#$0
     c5a: a9 65        	lda	#$65
     c5c: 20 3b 65     	jsr	$653b <putchar>
     c5f: a2 00        	ldx	#$0
     c61: a9 73        	lda	#$73
     c63: 20 3b 65     	jsr	$653b <putchar>
     c66: a2 00        	ldx	#$0
     c68: a9 74        	lda	#$74
     c6a: 20 3b 65     	jsr	$653b <putchar>
     c6d: a2 00        	ldx	#$0
     c6f: a9 20        	lda	#$20
     c71: 20 3b 65     	jsr	$653b <putchar>
     c74: a2 00        	ldx	#$0
     c76: a9 74        	lda	#$74
     c78: 20 3b 65     	jsr	$653b <putchar>
     c7b: a2 00        	ldx	#$0
     c7d: a9 68        	lda	#$68
     c7f: 20 3b 65     	jsr	$653b <putchar>
     c82: a2 00        	ldx	#$0
     c84: a9 65        	lda	#$65
     c86: 20 3b 65     	jsr	$653b <putchar>
     c89: a2 00        	ldx	#$0
     c8b: a9 20        	lda	#$20
     c8d: 20 3b 65     	jsr	$653b <putchar>
     c90: a2 00        	ldx	#$0
     c92: a9 53        	lda	#$53
     c94: 20 3b 65     	jsr	$653b <putchar>
     c97: a9 4e        	lda	#$4e
     c99: a2 00        	ldx	#$0
     c9b: 20 3b 65     	jsr	$653b <putchar>
     c9e: a9 37        	lda	#$37
     ca0: a2 00        	ldx	#$0
     ca2: 20 3b 65     	jsr	$653b <putchar>
     ca5: a2 00        	ldx	#$0
     ca7: a9 20        	lda	#$20
     ca9: 20 3b 65     	jsr	$653b <putchar>
     cac: a2 00        	ldx	#$0
     cae: a9 50        	lda	#$50
     cb0: 20 3b 65     	jsr	$653b <putchar>
     cb3: a2 00        	ldx	#$0
     cb5: a9 53        	lda	#$53
     cb7: 20 3b 65     	jsr	$653b <putchar>
     cba: a9 47        	lda	#$47
     cbc: a2 00        	ldx	#$0
     cbe: 20 3b 65     	jsr	$653b <putchar>
     cc1: a2 00        	ldx	#$0
     cc3: a9 0a        	lda	#$a
     cc5: 20 3b 65     	jsr	$653b <putchar>
     cc8: a2 07        	ldx	#$7
     cca: 86 40        	stx	$40                     ; 0x40 <_col>
     ccc: 8e 14 d0     	stx	$d014                   ; 0xd014 <__heap_start+0x5108>
     ccf: 86 81        	stx	$81                     ; 0x81 <__zp_bss_size+0x3d>
     cd1: 9c 15 d0     	stz	$d015                   ; 0xd015 <__heap_start+0x5109>
     cd4: a2 0d        	ldx	#$d
     cd6: 86 41        	stx	$41                     ; 0x41 <_row>
     cd8: 8e 16 d0     	stx	$d016                   ; 0xd016 <__heap_start+0x510a>
     cdb: 9c 17 d0     	stz	$d017                   ; 0xd017 <__heap_start+0x510b>
     cde: a2 00        	ldx	#$0
     ce0: a9 20        	lda	#$20
     ce2: 20 3b 65     	jsr	$653b <putchar>
     ce5: a2 00        	ldx	#$0
     ce7: a9 20        	lda	#$20
     ce9: 20 3b 65     	jsr	$653b <putchar>
     cec: a2 00        	ldx	#$0
     cee: a9 20        	lda	#$20
     cf0: 20 3b 65     	jsr	$653b <putchar>
     cf3: a2 00        	ldx	#$0
     cf5: a9 20        	lda	#$20
     cf7: 20 3b 65     	jsr	$653b <putchar>
     cfa: a9 32        	lda	#$32
     cfc: a2 00        	ldx	#$0
     cfe: 20 3b 65     	jsr	$653b <putchar>
     d01: a2 00        	ldx	#$0
     d03: a9 20        	lda	#$20
     d05: 20 3b 65     	jsr	$653b <putchar>
     d08: a2 00        	ldx	#$0
     d0a: a9 20        	lda	#$20
     d0c: 20 3b 65     	jsr	$653b <putchar>
     d0f: a2 00        	ldx	#$0
     d11: a9 74        	lda	#$74
     d13: 20 3b 65     	jsr	$653b <putchar>
     d16: a2 00        	ldx	#$0
     d18: a9 65        	lda	#$65
     d1a: 20 3b 65     	jsr	$653b <putchar>
     d1d: a2 00        	ldx	#$0
     d1f: a9 73        	lda	#$73
     d21: 20 3b 65     	jsr	$653b <putchar>
     d24: a2 00        	ldx	#$0
     d26: a9 74        	lda	#$74
     d28: 20 3b 65     	jsr	$653b <putchar>
     d2b: a2 00        	ldx	#$0
     d2d: a9 20        	lda	#$20
     d2f: 20 3b 65     	jsr	$653b <putchar>
     d32: a2 00        	ldx	#$0
     d34: a9 74        	lda	#$74
     d36: 20 3b 65     	jsr	$653b <putchar>
     d39: a2 00        	ldx	#$0
     d3b: a9 68        	lda	#$68
     d3d: 20 3b 65     	jsr	$653b <putchar>
     d40: a2 00        	ldx	#$0
     d42: a9 65        	lda	#$65
     d44: 20 3b 65     	jsr	$653b <putchar>
     d47: a2 00        	ldx	#$0
     d49: a9 20        	lda	#$20
     d4b: 20 3b 65     	jsr	$653b <putchar>
     d4e: a2 00        	ldx	#$0
     d50: a9 53        	lda	#$53
     d52: 20 3b 65     	jsr	$653b <putchar>
     d55: a2 00        	ldx	#$0
     d57: a9 49        	lda	#$49
     d59: 20 3b 65     	jsr	$653b <putchar>
     d5c: a2 00        	ldx	#$0
     d5e: a9 44        	lda	#$44
     d60: 20 3b 65     	jsr	$653b <putchar>
     d63: a2 00        	ldx	#$0
     d65: a9 0a        	lda	#$a
     d67: 20 3b 65     	jsr	$653b <putchar>
     d6a: a6 81        	ldx	$81                     ; 0x81 <__zp_bss_size+0x3d>
     d6c: 86 40        	stx	$40                     ; 0x40 <_col>
     d6e: 8e 14 d0     	stx	$d014                   ; 0xd014 <__heap_start+0x5108>
     d71: 9c 15 d0     	stz	$d015                   ; 0xd015 <__heap_start+0x5109>
     d74: a2 0e        	ldx	#$e
     d76: 86 41        	stx	$41                     ; 0x41 <_row>
     d78: 8e 16 d0     	stx	$d016                   ; 0xd016 <__heap_start+0x510a>
     d7b: 9c 17 d0     	stz	$d017                   ; 0xd017 <__heap_start+0x510b>
     d7e: a2 00        	ldx	#$0
     d80: a9 20        	lda	#$20
     d82: 20 3b 65     	jsr	$653b <putchar>
     d85: a2 00        	ldx	#$0
     d87: a9 20        	lda	#$20
     d89: 20 3b 65     	jsr	$653b <putchar>
     d8c: a2 00        	ldx	#$0
     d8e: a9 20        	lda	#$20
     d90: 20 3b 65     	jsr	$653b <putchar>
     d93: a2 00        	ldx	#$0
     d95: a9 20        	lda	#$20
     d97: 20 3b 65     	jsr	$653b <putchar>
     d9a: a2 00        	ldx	#$0
     d9c: a9 33        	lda	#$33
     d9e: 20 3b 65     	jsr	$653b <putchar>
     da1: a2 00        	ldx	#$0
     da3: a9 20        	lda	#$20
     da5: 20 3b 65     	jsr	$653b <putchar>
     da8: a2 00        	ldx	#$0
     daa: a9 20        	lda	#$20
     dac: 20 3b 65     	jsr	$653b <putchar>
     daf: a2 00        	ldx	#$0
     db1: a9 74        	lda	#$74
     db3: 20 3b 65     	jsr	$653b <putchar>
     db6: a2 00        	ldx	#$0
     db8: a9 65        	lda	#$65
     dba: 20 3b 65     	jsr	$653b <putchar>
     dbd: a2 00        	ldx	#$0
     dbf: a9 73        	lda	#$73
     dc1: 20 3b 65     	jsr	$653b <putchar>
     dc4: a2 00        	ldx	#$0
     dc6: a9 74        	lda	#$74
     dc8: 20 3b 65     	jsr	$653b <putchar>
     dcb: a2 00        	ldx	#$0
     dcd: a9 20        	lda	#$20
     dcf: 20 3b 65     	jsr	$653b <putchar>
     dd2: a2 00        	ldx	#$0
     dd4: a9 74        	lda	#$74
     dd6: 20 3b 65     	jsr	$653b <putchar>
     dd9: a2 00        	ldx	#$0
     ddb: a9 68        	lda	#$68
     ddd: 20 3b 65     	jsr	$653b <putchar>
     de0: a2 00        	ldx	#$0
     de2: a9 65        	lda	#$65
     de4: 20 3b 65     	jsr	$653b <putchar>
     de7: a2 00        	ldx	#$0
     de9: a9 20        	lda	#$20
     deb: 20 3b 65     	jsr	$653b <putchar>
     dee: a9 4f        	lda	#$4f
     df0: a2 00        	ldx	#$0
     df2: 20 3b 65     	jsr	$653b <putchar>
     df5: a2 00        	ldx	#$0
     df7: a9 50        	lda	#$50
     df9: 20 3b 65     	jsr	$653b <putchar>
     dfc: a9 4c        	lda	#$4c
     dfe: a2 00        	ldx	#$0
     e00: 20 3b 65     	jsr	$653b <putchar>
     e03: a2 00        	ldx	#$0
     e05: a9 33        	lda	#$33
     e07: 20 3b 65     	jsr	$653b <putchar>
     e0a: a2 00        	ldx	#$0
     e0c: a9 0a        	lda	#$a
     e0e: 20 3b 65     	jsr	$653b <putchar>
     e11: a2 07        	ldx	#$7
     e13: 86 40        	stx	$40                     ; 0x40 <_col>
     e15: 8e 14 d0     	stx	$d014                   ; 0xd014 <__heap_start+0x5108>
     e18: 86 81        	stx	$81                     ; 0x81 <__zp_bss_size+0x3d>
     e1a: 9c 15 d0     	stz	$d015                   ; 0xd015 <__heap_start+0x5109>
     e1d: a2 0f        	ldx	#$f
     e1f: 86 41        	stx	$41                     ; 0x41 <_row>
     e21: 8e 16 d0     	stx	$d016                   ; 0xd016 <__heap_start+0x510a>
     e24: 9c 17 d0     	stz	$d017                   ; 0xd017 <__heap_start+0x510b>
     e27: a2 00        	ldx	#$0
     e29: a9 20        	lda	#$20
     e2b: 20 3b 65     	jsr	$653b <putchar>
     e2e: a2 00        	ldx	#$0
     e30: a9 20        	lda	#$20
     e32: 20 3b 65     	jsr	$653b <putchar>
     e35: a2 00        	ldx	#$0
     e37: a9 20        	lda	#$20
     e39: 20 3b 65     	jsr	$653b <putchar>
     e3c: a2 00        	ldx	#$0
     e3e: a9 20        	lda	#$20
     e40: 20 3b 65     	jsr	$653b <putchar>
     e43: a9 34        	lda	#$34
     e45: a2 00        	ldx	#$0
     e47: 20 3b 65     	jsr	$653b <putchar>
     e4a: a2 00        	ldx	#$0
     e4c: a9 20        	lda	#$20
     e4e: 20 3b 65     	jsr	$653b <putchar>
     e51: a2 00        	ldx	#$0
     e53: a9 20        	lda	#$20
     e55: 20 3b 65     	jsr	$653b <putchar>
     e58: a2 00        	ldx	#$0
     e5a: a9 74        	lda	#$74
     e5c: 20 3b 65     	jsr	$653b <putchar>
     e5f: a2 00        	ldx	#$0
     e61: a9 65        	lda	#$65
     e63: 20 3b 65     	jsr	$653b <putchar>
     e66: a2 00        	ldx	#$0
     e68: a9 73        	lda	#$73
     e6a: 20 3b 65     	jsr	$653b <putchar>
     e6d: a2 00        	ldx	#$0
     e6f: a9 74        	lda	#$74
     e71: 20 3b 65     	jsr	$653b <putchar>
     e74: a2 00        	ldx	#$0
     e76: a9 20        	lda	#$20
     e78: 20 3b 65     	jsr	$653b <putchar>
     e7b: a2 00        	ldx	#$0
     e7d: a9 74        	lda	#$74
     e7f: 20 3b 65     	jsr	$653b <putchar>
     e82: a2 00        	ldx	#$0
     e84: a9 68        	lda	#$68
     e86: 20 3b 65     	jsr	$653b <putchar>
     e89: a2 00        	ldx	#$0
     e8b: a9 65        	lda	#$65
     e8d: 20 3b 65     	jsr	$653b <putchar>
     e90: a2 00        	ldx	#$0
     e92: a9 20        	lda	#$20
     e94: 20 3b 65     	jsr	$653b <putchar>
     e97: a9 4d        	lda	#$4d
     e99: a2 00        	ldx	#$0
     e9b: 20 3b 65     	jsr	$653b <putchar>
     e9e: a2 00        	ldx	#$0
     ea0: a9 49        	lda	#$49
     ea2: 20 3b 65     	jsr	$653b <putchar>
     ea5: a2 00        	ldx	#$0
     ea7: a9 44        	lda	#$44
     ea9: 20 3b 65     	jsr	$653b <putchar>
     eac: a2 00        	ldx	#$0
     eae: a9 49        	lda	#$49
     eb0: 20 3b 65     	jsr	$653b <putchar>
     eb3: a2 00        	ldx	#$0
     eb5: a9 0a        	lda	#$a
     eb7: 20 3b 65     	jsr	$653b <putchar>
     eba: a6 81        	ldx	$81                     ; 0x81 <__zp_bss_size+0x3d>
     ebc: 86 40        	stx	$40                     ; 0x40 <_col>
     ebe: 8e 14 d0     	stx	$d014                   ; 0xd014 <__heap_start+0x5108>
     ec1: 9c 15 d0     	stz	$d015                   ; 0xd015 <__heap_start+0x5109>
     ec4: a2 10        	ldx	#$10
     ec6: 86 41        	stx	$41                     ; 0x41 <_row>
     ec8: 8e 16 d0     	stx	$d016                   ; 0xd016 <__heap_start+0x510a>
     ecb: 9c 17 d0     	stz	$d017                   ; 0xd017 <__heap_start+0x510b>
     ece: a2 00        	ldx	#$0
     ed0: a9 53        	lda	#$53
     ed2: 20 3b 65     	jsr	$653b <putchar>
     ed5: a2 00        	ldx	#$0
     ed7: a9 50        	lda	#$50
     ed9: 20 3b 65     	jsr	$653b <putchar>
     edc: a9 41        	lda	#$41
     ede: a2 00        	ldx	#$0
     ee0: 20 3b 65     	jsr	$653b <putchar>
     ee3: a9 43        	lda	#$43
     ee5: a2 00        	ldx	#$0
     ee7: 20 3b 65     	jsr	$653b <putchar>
     eea: a9 45        	lda	#$45
     eec: a2 00        	ldx	#$0
     eee: 20 3b 65     	jsr	$653b <putchar>
     ef1: a2 00        	ldx	#$0
     ef3: a9 20        	lda	#$20
     ef5: 20 3b 65     	jsr	$653b <putchar>
     ef8: a2 00        	ldx	#$0
     efa: a9 20        	lda	#$20
     efc: 20 3b 65     	jsr	$653b <putchar>
     eff: a2 00        	ldx	#$0
     f01: a9 70        	lda	#$70
     f03: 20 3b 65     	jsr	$653b <putchar>
     f06: a2 00        	ldx	#$0
     f08: a9 61        	lda	#$61
     f0a: 20 3b 65     	jsr	$653b <putchar>
     f0d: a2 00        	ldx	#$0
     f0f: a9 75        	lda	#$75
     f11: 20 3b 65     	jsr	$653b <putchar>
     f14: a2 00        	ldx	#$0
     f16: a9 73        	lda	#$73
     f18: 20 3b 65     	jsr	$653b <putchar>
     f1b: a2 00        	ldx	#$0
     f1d: a9 65        	lda	#$65
     f1f: 20 3b 65     	jsr	$653b <putchar>
     f22: a2 00        	ldx	#$0
     f24: a9 20        	lda	#$20
     f26: 20 3b 65     	jsr	$653b <putchar>
     f29: a2 00        	ldx	#$0
     f2b: a9 61        	lda	#$61
     f2d: 20 3b 65     	jsr	$653b <putchar>
     f30: a2 00        	ldx	#$0
     f32: a9 6c        	lda	#$6c
     f34: 20 3b 65     	jsr	$653b <putchar>
     f37: a2 00        	ldx	#$0
     f39: a9 6c        	lda	#$6c
     f3b: 20 3b 65     	jsr	$653b <putchar>
     f3e: a2 00        	ldx	#$0
     f40: a9 20        	lda	#$20
     f42: 20 3b 65     	jsr	$653b <putchar>
     f45: a2 00        	ldx	#$0
     f47: a9 73        	lda	#$73
     f49: 20 3b 65     	jsr	$653b <putchar>
     f4c: a2 00        	ldx	#$0
     f4e: a9 6f        	lda	#$6f
     f50: 20 3b 65     	jsr	$653b <putchar>
     f53: a2 00        	ldx	#$0
     f55: a9 75        	lda	#$75
     f57: 20 3b 65     	jsr	$653b <putchar>
     f5a: a2 00        	ldx	#$0
     f5c: a9 6e        	lda	#$6e
     f5e: 20 3b 65     	jsr	$653b <putchar>
     f61: a9 64        	lda	#$64
     f63: a2 00        	ldx	#$0
     f65: 20 3b 65     	jsr	$653b <putchar>
     f68: a2 00        	ldx	#$0
     f6a: a9 73        	lda	#$73
     f6c: 20 3b 65     	jsr	$653b <putchar>
     f6f: a2 00        	ldx	#$0
     f71: a9 0a        	lda	#$a
     f73: 20 3b 65     	jsr	$653b <putchar>
     f76: a6 4e        	ldx	$4e                     ; 0x4e <chipActive>
     f78: f0 05        	beq	$f7f <goLeftOrRight+0x768>
     f7a: a5 49        	lda	$49                     ; 0x49 <catSelected>
     f7c: 20 28 07     	jsr	$728 <updateSoundStatus>
     f7f: a5 49        	lda	$49                     ; 0x49 <catSelected>
     f81: 20 10 11     	jsr	$1110 <displayCats>
     f84: 4c 02 11     	jmp	$1102 <goLeftOrRight+0x8eb>
     f87: a2 03        	ldx	#$3
     f89: 86 01        	stx	$1                      ; 0x1 <__data_size+0x1>
     f8b: a6 18        	ldx	$18                     ; 0x18 <__rc8>
     f8d: 86 01        	stx	$1                      ; 0x1 <__data_size+0x1>
     f8f: 64 40        	stz	$40                     ; 0x40 <_col>
     f91: 9c 14 d0     	stz	$d014                   ; 0xd014 <__heap_start+0x5108>
     f94: 9c 15 d0     	stz	$d015                   ; 0xd015 <__heap_start+0x5109>
     f97: 64 41        	stz	$41                     ; 0x41 <_row>
     f99: 9c 16 d0     	stz	$d016                   ; 0xd016 <__heap_start+0x510a>
     f9c: 9c 17 d0     	stz	$d017                   ; 0xd017 <__heap_start+0x510b>
     f9f: a5 49        	lda	$49                     ; 0x49 <catSelected>
     fa1: a2 75        	ldx	#$75
     fa3: a0 04        	ldy	#$4
     fa5: 86 12        	stx	$12                     ; 0x12 <__rc2>
     fa7: 84 13        	sty	$13                     ; 0x13 <__rc3>
     fa9: 64 81        	stz	$81                     ; 0x81 <__zp_bss_size+0x3d>
     fab: a2 00        	ldx	#$0
     fad: 85 90        	sta	$90                     ; 0x90 <__zp_bss_size+0x4c>
     faf: 20 08 6e     	jsr	$6e08 <__mulhi3>
     fb2: 85 12        	sta	$12                     ; 0x12 <__rc2>
     fb4: 86 13        	stx	$13                     ; 0x13 <__rc3>
     fb6: a9 ac        	lda	#$ac
     fb8: 18           	clc
     fb9: 65 12        	adc	$12                     ; 0x12 <__rc2>
     fbb: a8           	tay
     fbc: a9 71        	lda	#$71
     fbe: 65 13        	adc	$13                     ; 0x13 <__rc3>
     fc0: aa           	tax
     fc1: 98           	tya
     fc2: 18           	clc
     fc3: 69 74        	adc	#$74
     fc5: 85 83        	sta	$83                     ; 0x83 <__zp_bss_size+0x3f>
     fc7: 8a           	txa
     fc8: 69 04        	adc	#$4
     fca: 85 84        	sta	$84                     ; 0x84 <__zp_bss_size+0x40>
     fcc: b2 83        	lda	($83)                   ; 0x83 <__zp_bss_size+0x3f>
     fce: d0 03        	bne	$fd3 <goLeftOrRight+0x7bc>
     fd0: 4c 67 10     	jmp	$1067 <goLeftOrRight+0x850>
     fd3: 84 12        	sty	$12                     ; 0x12 <__rc2>
     fd5: 86 13        	stx	$13                     ; 0x13 <__rc3>
     fd7: a6 81        	ldx	$81                     ; 0x81 <__zp_bss_size+0x3d>
     fd9: 86 85        	stx	$85                     ; 0x85 <__zp_bss_size+0x41>
     fdb: a5 81        	lda	$81                     ; 0x81 <__zp_bss_size+0x3d>
     fdd: 18           	clc
     fde: 69 0a        	adc	#$a
     fe0: a2 07        	ldx	#$7
     fe2: 86 40        	stx	$40                     ; 0x40 <_col>
     fe4: 8e 14 d0     	stx	$d014                   ; 0xd014 <__heap_start+0x5108>
     fe7: 9c 15 d0     	stz	$d015                   ; 0xd015 <__heap_start+0x5109>
     fea: 85 41        	sta	$41                     ; 0x41 <_row>
     fec: 8d 16 d0     	sta	$d016                   ; 0xd016 <__heap_start+0x510a>
     fef: 85 89        	sta	$89                     ; 0x89 <__zp_bss_size+0x45>
     ff1: 9c 17 d0     	stz	$d017                   ; 0xd017 <__heap_start+0x510b>
     ff4: a5 12        	lda	$12                     ; 0x12 <__rc2>
     ff6: a6 13        	ldx	$13                     ; 0x13 <__rc3>
     ff8: 86 86        	stx	$86                     ; 0x86 <__zp_bss_size+0x42>
     ffa: 92 10        	sta	($10)                   ; 0x10 <__rc0>
     ffc: 85 87        	sta	$87                     ; 0x87 <__zp_bss_size+0x43>
     ffe: a0 01        	ldy	#$1
    1000: a5 13        	lda	$13                     ; 0x13 <__rc3>
    1002: 91 10        	sta	($10),y                 ; 0x10 <__rc0>
    1004: 84 88        	sty	$88                     ; 0x88 <__zp_bss_size+0x44>
    1006: a2 41        	ldx	#$41
    1008: 86 81        	stx	$81                     ; 0x81 <__zp_bss_size+0x3d>
    100a: a2 70        	ldx	#$70
    100c: 86 82        	stx	$82                     ; 0x82 <__zp_bss_size+0x3e>
    100e: a2 41        	ldx	#$41
    1010: 86 12        	stx	$12                     ; 0x12 <__rc2>
    1012: a2 70        	ldx	#$70
    1014: 86 13        	stx	$13                     ; 0x13 <__rc3>
    1016: 20 01 58     	jsr	$5801 <printf>
    1019: a2 1b        	ldx	#$1b
    101b: 86 40        	stx	$40                     ; 0x40 <_col>
    101d: 8e 14 d0     	stx	$d014                   ; 0xd014 <__heap_start+0x5108>
    1020: 9c 15 d0     	stz	$d015                   ; 0xd015 <__heap_start+0x5109>
    1023: a6 89        	ldx	$89                     ; 0x89 <__zp_bss_size+0x45>
    1025: 86 41        	stx	$41                     ; 0x41 <_row>
    1027: 8e 16 d0     	stx	$d016                   ; 0xd016 <__heap_start+0x510a>
    102a: 18           	clc
    102b: a5 87        	lda	$87                     ; 0x87 <__zp_bss_size+0x43>
    102d: 69 14        	adc	#$14
    102f: aa           	tax
    1030: a5 86        	lda	$86                     ; 0x86 <__zp_bss_size+0x42>
    1032: 69 00        	adc	#$0
    1034: 85 12        	sta	$12                     ; 0x12 <__rc2>
    1036: 9c 17 d0     	stz	$d017                   ; 0xd017 <__heap_start+0x510b>
    1039: 8a           	txa
    103a: 92 10        	sta	($10)                   ; 0x10 <__rc0>
    103c: a4 88        	ldy	$88                     ; 0x88 <__zp_bss_size+0x44>
    103e: a5 12        	lda	$12                     ; 0x12 <__rc2>
    1040: 91 10        	sta	($10),y                 ; 0x10 <__rc0>
    1042: a2 41        	ldx	#$41
    1044: 86 12        	stx	$12                     ; 0x12 <__rc2>
    1046: a2 70        	ldx	#$70
    1048: 86 13        	stx	$13                     ; 0x13 <__rc3>
    104a: 20 01 58     	jsr	$5801 <printf>
    104d: e6 85        	inc	$85                     ; 0x85 <__zp_bss_size+0x41>
    104f: 18           	clc
    1050: a5 87        	lda	$87                     ; 0x87 <__zp_bss_size+0x43>
    1052: 69 5f        	adc	#$5f
    1054: 85 12        	sta	$12                     ; 0x12 <__rc2>
    1056: a5 86        	lda	$86                     ; 0x86 <__zp_bss_size+0x42>
    1058: 69 00        	adc	#$0
    105a: 85 13        	sta	$13                     ; 0x13 <__rc3>
    105c: a5 85        	lda	$85                     ; 0x85 <__zp_bss_size+0x41>
    105e: 85 81        	sta	$81                     ; 0x81 <__zp_bss_size+0x3d>
    1060: d2 83        	cmp	($83)                   ; 0x83 <__zp_bss_size+0x3f>
    1062: b0 03        	bcs	$1067 <goLeftOrRight+0x850>
    1064: 4c d7 0f     	jmp	$fd7 <goLeftOrRight+0x7c0>
    1067: a5 90        	lda	$90                     ; 0x90 <__zp_bss_size+0x4c>
    1069: 20 10 11     	jsr	$1110 <displayCats>
    106c: a2 d1        	ldx	#$d1
    106e: 86 3c        	stx	$3c                     ; 0x3c <_ccolor>
    1070: a5 49        	lda	$49                     ; 0x49 <catSelected>
    1072: a0 07        	ldy	#$7
    1074: 84 40        	sty	$40                     ; 0x40 <_col>
    1076: 8c 14 d0     	sty	$d014                   ; 0xd014 <__heap_start+0x5108>
    1079: 9c 15 d0     	stz	$d015                   ; 0xd015 <__heap_start+0x5109>
    107c: a2 0a        	ldx	#$a
    107e: 86 41        	stx	$41                     ; 0x41 <_row>
    1080: 8e 16 d0     	stx	$d016                   ; 0xd016 <__heap_start+0x510a>
    1083: 86 83        	stx	$83                     ; 0x83 <__zp_bss_size+0x3f>
    1085: 9c 17 d0     	stz	$d017                   ; 0xd017 <__heap_start+0x510b>
    1088: a0 75        	ldy	#$75
    108a: a2 04        	ldx	#$4
    108c: 84 12        	sty	$12                     ; 0x12 <__rc2>
    108e: 86 13        	stx	$13                     ; 0x13 <__rc3>
    1090: a2 00        	ldx	#$0
    1092: 20 08 6e     	jsr	$6e08 <__mulhi3>
    1095: 85 12        	sta	$12                     ; 0x12 <__rc2>
    1097: 86 13        	stx	$13                     ; 0x13 <__rc3>
    1099: a9 ac        	lda	#$ac
    109b: a2 00        	ldx	#$0
    109d: 86 86        	stx	$86                     ; 0x86 <__zp_bss_size+0x42>
    109f: 18           	clc
    10a0: 65 12        	adc	$12                     ; 0x12 <__rc2>
    10a2: aa           	tax
    10a3: a9 71        	lda	#$71
    10a5: 65 13        	adc	$13                     ; 0x13 <__rc3>
    10a7: 85 84        	sta	$84                     ; 0x84 <__zp_bss_size+0x40>
    10a9: 8a           	txa
    10aa: 92 10        	sta	($10)                   ; 0x10 <__rc0>
    10ac: 86 85        	stx	$85                     ; 0x85 <__zp_bss_size+0x41>
    10ae: a0 01        	ldy	#$1
    10b0: a5 84        	lda	$84                     ; 0x84 <__zp_bss_size+0x40>
    10b2: 91 10        	sta	($10),y                 ; 0x10 <__rc0>
    10b4: a2 01        	ldx	#$1
    10b6: 86 87        	stx	$87                     ; 0x87 <__zp_bss_size+0x43>
    10b8: a2 41        	ldx	#$41
    10ba: 86 81        	stx	$81                     ; 0x81 <__zp_bss_size+0x3d>
    10bc: a2 70        	ldx	#$70
    10be: 86 82        	stx	$82                     ; 0x82 <__zp_bss_size+0x3e>
    10c0: a2 41        	ldx	#$41
    10c2: 86 12        	stx	$12                     ; 0x12 <__rc2>
    10c4: a2 70        	ldx	#$70
    10c6: 86 13        	stx	$13                     ; 0x13 <__rc3>
    10c8: 20 01 58     	jsr	$5801 <printf>
    10cb: a2 1b        	ldx	#$1b
    10cd: 86 40        	stx	$40                     ; 0x40 <_col>
    10cf: 8e 14 d0     	stx	$d014                   ; 0xd014 <__heap_start+0x5108>
    10d2: 9c 15 d0     	stz	$d015                   ; 0xd015 <__heap_start+0x5109>
    10d5: a6 83        	ldx	$83                     ; 0x83 <__zp_bss_size+0x3f>
    10d7: 86 41        	stx	$41                     ; 0x41 <_row>
    10d9: 8e 16 d0     	stx	$d016                   ; 0xd016 <__heap_start+0x510a>
    10dc: 9c 17 d0     	stz	$d017                   ; 0xd017 <__heap_start+0x510b>
    10df: a6 86        	ldx	$86                     ; 0x86 <__zp_bss_size+0x42>
    10e1: e0 01        	cpx	#$1
    10e3: a5 85        	lda	$85                     ; 0x85 <__zp_bss_size+0x41>
    10e5: 69 14        	adc	#$14
    10e7: 85 12        	sta	$12                     ; 0x12 <__rc2>
    10e9: a5 84        	lda	$84                     ; 0x84 <__zp_bss_size+0x40>
    10eb: 69 00        	adc	#$0
    10ed: aa           	tax
    10ee: a5 12        	lda	$12                     ; 0x12 <__rc2>
    10f0: 92 10        	sta	($10)                   ; 0x10 <__rc0>
    10f2: a4 87        	ldy	$87                     ; 0x87 <__zp_bss_size+0x43>
    10f4: 8a           	txa
    10f5: 91 10        	sta	($10),y                 ; 0x10 <__rc0>
    10f7: a2 41        	ldx	#$41
    10f9: 86 12        	stx	$12                     ; 0x12 <__rc2>
    10fb: a2 70        	ldx	#$70
    10fd: 86 13        	stx	$13                     ; 0x13 <__rc3>
    10ff: 20 01 58     	jsr	$5801 <printf>
    1102: 18           	clc
    1103: a5 10        	lda	$10                     ; 0x10 <__rc0>
    1105: 69 02        	adc	#$2
    1107: 85 10        	sta	$10                     ; 0x10 <__rc0>
    1109: a5 11        	lda	$11                     ; 0x11 <__rc1>
    110b: 69 00        	adc	#$0
    110d: 85 11        	sta	$11                     ; 0x11 <__rc1>
    110f: 60           	rts

00001110 <displayCats>:
    1110: 48           	pha
    1111: 18           	clc
    1112: a5 10        	lda	$10                     ; 0x10 <__rc0>
    1114: 69 fe        	adc	#$fe
    1116: 85 10        	sta	$10                     ; 0x10 <__rc0>
    1118: a5 11        	lda	$11                     ; 0x11 <__rc1>
    111a: 69 ff        	adc	#$ff
    111c: 85 11        	sta	$11                     ; 0x11 <__rc1>
    111e: 68           	pla
    111f: 85 91        	sta	$91                     ; 0x91 <__zp_bss_size+0x4d>
    1121: f0 04        	beq	$1127 <displayCats+0x17>
    1123: a2 f0        	ldx	#$f0
    1125: 80 02        	bra	$1129 <displayCats+0x19>
    1127: a2 76        	ldx	#$76
    1129: 86 3c        	stx	$3c                     ; 0x3c <_ccolor>
    112b: a2 0a        	ldx	#$a
    112d: 86 40        	stx	$40                     ; 0x40 <_col>
    112f: 8e 14 d0     	stx	$d014                   ; 0xd014 <__heap_start+0x5108>
    1132: 9c 15 d0     	stz	$d015                   ; 0xd015 <__heap_start+0x5109>
    1135: a2 15        	ldx	#$15
    1137: 86 41        	stx	$41                     ; 0x41 <_row>
    1139: 8e 16 d0     	stx	$d016                   ; 0xd016 <__heap_start+0x510a>
    113c: 9c 17 d0     	stz	$d017                   ; 0xd017 <__heap_start+0x510b>
    113f: a9 b7        	lda	#$b7
    1141: 92 10        	sta	($10)                   ; 0x10 <__rc0>
    1143: a0 01        	ldy	#$1
    1145: a9 6f        	lda	#$6f
    1147: 91 10        	sta	($10),y                 ; 0x10 <__rc0>
    1149: a2 41        	ldx	#$41
    114b: 86 12        	stx	$12                     ; 0x12 <__rc2>
    114d: a2 70        	ldx	#$70
    114f: 86 13        	stx	$13                     ; 0x13 <__rc3>
    1151: 20 01 58     	jsr	$5801 <printf>
    1154: a2 f0        	ldx	#$f0
    1156: 86 92        	stx	$92                     ; 0x92 <__zp_bss_size+0x4e>
    1158: a4 91        	ldy	$91                     ; 0x91 <__zp_bss_size+0x4d>
    115a: c0 01        	cpy	#$1
    115c: d0 02        	bne	$1160 <displayCats+0x50>
    115e: a2 76        	ldx	#$76
    1160: 86 3c        	stx	$3c                     ; 0x3c <_ccolor>
    1162: a2 12        	ldx	#$12
    1164: 86 40        	stx	$40                     ; 0x40 <_col>
    1166: 8e 14 d0     	stx	$d014                   ; 0xd014 <__heap_start+0x5108>
    1169: 9c 15 d0     	stz	$d015                   ; 0xd015 <__heap_start+0x5109>
    116c: a2 15        	ldx	#$15
    116e: 86 41        	stx	$41                     ; 0x41 <_row>
    1170: 8e 16 d0     	stx	$d016                   ; 0xd016 <__heap_start+0x510a>
    1173: 9c 17 d0     	stz	$d017                   ; 0xd017 <__heap_start+0x510b>
    1176: a9 bd        	lda	#$bd
    1178: 92 10        	sta	($10)                   ; 0x10 <__rc0>
    117a: a0 01        	ldy	#$1
    117c: a9 6f        	lda	#$6f
    117e: 91 10        	sta	($10),y                 ; 0x10 <__rc0>
    1180: a2 41        	ldx	#$41
    1182: 86 12        	stx	$12                     ; 0x12 <__rc2>
    1184: a2 70        	ldx	#$70
    1186: 86 13        	stx	$13                     ; 0x13 <__rc3>
    1188: 20 01 58     	jsr	$5801 <printf>
    118b: a6 91        	ldx	$91                     ; 0x91 <__zp_bss_size+0x4d>
    118d: a4 92        	ldy	$92                     ; 0x92 <__zp_bss_size+0x4e>
    118f: e0 02        	cpx	#$2
    1191: d0 02        	bne	$1195 <displayCats+0x85>
    1193: a0 76        	ldy	#$76
    1195: 84 3c        	sty	$3c                     ; 0x3c <_ccolor>
    1197: a2 1a        	ldx	#$1a
    1199: 86 40        	stx	$40                     ; 0x40 <_col>
    119b: 8e 14 d0     	stx	$d014                   ; 0xd014 <__heap_start+0x5108>
    119e: 9c 15 d0     	stz	$d015                   ; 0xd015 <__heap_start+0x5109>
    11a1: a2 15        	ldx	#$15
    11a3: 86 41        	stx	$41                     ; 0x41 <_row>
    11a5: 8e 16 d0     	stx	$d016                   ; 0xd016 <__heap_start+0x510a>
    11a8: 9c 17 d0     	stz	$d017                   ; 0xd017 <__heap_start+0x510b>
    11ab: a9 c3        	lda	#$c3
    11ad: 92 10        	sta	($10)                   ; 0x10 <__rc0>
    11af: a0 01        	ldy	#$1
    11b1: a9 6f        	lda	#$6f
    11b3: 91 10        	sta	($10),y                 ; 0x10 <__rc0>
    11b5: a2 41        	ldx	#$41
    11b7: 86 12        	stx	$12                     ; 0x12 <__rc2>
    11b9: a2 70        	ldx	#$70
    11bb: 86 13        	stx	$13                     ; 0x13 <__rc3>
    11bd: 20 01 58     	jsr	$5801 <printf>
    11c0: a2 f0        	ldx	#$f0
    11c2: a4 91        	ldy	$91                     ; 0x91 <__zp_bss_size+0x4d>
    11c4: c0 03        	cpy	#$3
    11c6: d0 02        	bne	$11ca <displayCats+0xba>
    11c8: a2 76        	ldx	#$76
    11ca: 86 3c        	stx	$3c                     ; 0x3c <_ccolor>
    11cc: a2 22        	ldx	#$22
    11ce: 86 40        	stx	$40                     ; 0x40 <_col>
    11d0: 8e 14 d0     	stx	$d014                   ; 0xd014 <__heap_start+0x5108>
    11d3: 9c 15 d0     	stz	$d015                   ; 0xd015 <__heap_start+0x5109>
    11d6: a2 15        	ldx	#$15
    11d8: 86 41        	stx	$41                     ; 0x41 <_row>
    11da: 8e 16 d0     	stx	$d016                   ; 0xd016 <__heap_start+0x510a>
    11dd: 9c 17 d0     	stz	$d017                   ; 0xd017 <__heap_start+0x510b>
    11e0: a9 c9        	lda	#$c9
    11e2: 92 10        	sta	($10)                   ; 0x10 <__rc0>
    11e4: a0 01        	ldy	#$1
    11e6: a9 6f        	lda	#$6f
    11e8: 91 10        	sta	($10),y                 ; 0x10 <__rc0>
    11ea: a2 41        	ldx	#$41
    11ec: 86 12        	stx	$12                     ; 0x12 <__rc2>
    11ee: a2 70        	ldx	#$70
    11f0: 86 13        	stx	$13                     ; 0x13 <__rc3>
    11f2: 20 01 58     	jsr	$5801 <printf>
    11f5: a2 f0        	ldx	#$f0
    11f7: 86 3c        	stx	$3c                     ; 0x3c <_ccolor>
    11f9: 18           	clc
    11fa: a5 10        	lda	$10                     ; 0x10 <__rc0>
    11fc: 69 02        	adc	#$2
    11fe: 85 10        	sta	$10                     ; 0x10 <__rc0>
    1200: a5 11        	lda	$11                     ; 0x11 <__rc1>
    1202: 69 00        	adc	#$0
    1204: 85 11        	sta	$11                     ; 0x11 <__rc1>
    1206: 60           	rts

00001207 <goUpOrDown>:
    1207: e0 03        	cpx	#$3
    1209: d0 03        	bne	$120e <goUpOrDown+0x7>
    120b: 4c 2d 14     	jmp	$142d <goUpOrDown+0x226>
    120e: 48           	pha
    120f: 18           	clc
    1210: a5 10        	lda	$10                     ; 0x10 <__rc0>
    1212: 69 fe        	adc	#$fe
    1214: 85 10        	sta	$10                     ; 0x10 <__rc0>
    1216: a5 11        	lda	$11                     ; 0x11 <__rc1>
    1218: 69 ff        	adc	#$ff
    121a: 85 11        	sta	$11                     ; 0x11 <__rc1>
    121c: 68           	pla
    121d: a8           	tay
    121e: 8a           	txa
    121f: 84 85        	sty	$85                     ; 0x85 <__zp_bss_size+0x41>
    1221: 64 81        	stz	$81                     ; 0x81 <__zp_bss_size+0x3d>
    1223: a6 48        	ldx	$48                     ; 0x48 <selected>
    1225: 86 82        	stx	$82                     ; 0x82 <__zp_bss_size+0x3e>
    1227: a2 75        	ldx	#$75
    1229: a0 04        	ldy	#$4
    122b: 86 12        	stx	$12                     ; 0x12 <__rc2>
    122d: 84 13        	sty	$13                     ; 0x13 <__rc3>
    122f: a2 00        	ldx	#$0
    1231: 20 08 6e     	jsr	$6e08 <__mulhi3>
    1234: 85 12        	sta	$12                     ; 0x12 <__rc2>
    1236: 86 13        	stx	$13                     ; 0x13 <__rc3>
    1238: a9 ac        	lda	#$ac
    123a: 18           	clc
    123b: 65 12        	adc	$12                     ; 0x12 <__rc2>
    123d: aa           	tax
    123e: a9 71        	lda	#$71
    1240: 65 13        	adc	$13                     ; 0x13 <__rc3>
    1242: a8           	tay
    1243: 8a           	txa
    1244: 86 89        	stx	$89                     ; 0x89 <__zp_bss_size+0x45>
    1246: 18           	clc
    1247: 69 74        	adc	#$74
    1249: 85 12        	sta	$12                     ; 0x12 <__rc2>
    124b: 98           	tya
    124c: 85 8a        	sta	$8a                     ; 0x8a <__zp_bss_size+0x46>
    124e: 69 04        	adc	#$4
    1250: 85 13        	sta	$13                     ; 0x13 <__rc3>
    1252: b2 12        	lda	($12)                   ; 0x12 <__rc2>
    1254: 3a           	dec
    1255: c9 ff        	cmp	#$ff
    1257: d0 02        	bne	$125b <goUpOrDown+0x54>
    1259: c6 81        	dec	$81                     ; 0x81 <__zp_bss_size+0x3d>
    125b: a6 81        	ldx	$81                     ; 0x81 <__zp_bss_size+0x3d>
    125d: d0 12        	bne	$1271 <goUpOrDown+0x6a>
    125f: c5 82        	cmp	$82                     ; 0x82 <__zp_bss_size+0x3e>
    1261: d0 0e        	bne	$1271 <goUpOrDown+0x6a>
    1263: a6 85        	ldx	$85                     ; 0x85 <__zp_bss_size+0x41>
    1265: d0 03        	bne	$126a <goUpOrDown+0x63>
    1267: 4c 20 14     	jmp	$1420 <goUpOrDown+0x219>
    126a: a5 82        	lda	$82                     ; 0x82 <__zp_bss_size+0x3e>
    126c: d0 0c        	bne	$127a <goUpOrDown+0x73>
    126e: 4c 20 14     	jmp	$1420 <goUpOrDown+0x219>
    1271: a6 85        	ldx	$85                     ; 0x85 <__zp_bss_size+0x41>
    1273: a5 82        	lda	$82                     ; 0x82 <__zp_bss_size+0x3e>
    1275: d0 03        	bne	$127a <goUpOrDown+0x73>
    1277: 4c 1a 14     	jmp	$141a <goUpOrDown+0x213>
    127a: 86 85        	stx	$85                     ; 0x85 <__zp_bss_size+0x41>
    127c: a0 94        	ldy	#$94
    127e: 8c 08 d6     	sty	$d608                   ; 0xd608 <__heap_start+0x56fc>
    1281: a0 8e        	ldy	#$8e
    1283: 8c 08 d6     	sty	$d608                   ; 0xd608 <__heap_start+0x56fc>
    1286: a0 27        	ldy	#$27
    1288: 8c 08 d6     	sty	$d608                   ; 0xd608 <__heap_start+0x56fc>
    128b: a0 80        	ldy	#$80
    128d: 84 f3        	sty	$f3                     ; 0xf3 <__zp_bss_size+0xaf>
    128f: a0 84        	ldy	#$84
    1291: a9 00        	lda	#$0
    1293: 84 12        	sty	$12                     ; 0x12 <__rc2>
    1295: 85 13        	sta	$13                     ; 0x13 <__rc3>
    1297: a0 7a        	ldy	#$7a
    1299: 84 14        	sty	$14                     ; 0x14 <__rc4>
    129b: a0 00        	ldy	#$0
    129d: 84 15        	sty	$15                     ; 0x15 <__rc5>
    129f: 20 f0 ff     	jsr	$fff0 <__heap_start+0x80e4>
    12a2: 92 12        	sta	($12)                   ; 0x12 <__rc2>
    12a4: a9 00        	lda	#$0
    12a6: 6a           	ror
    12a7: 85 14        	sta	$14                     ; 0x14 <__rc4>
    12a9: a9 02        	lda	#$2
    12ab: 18           	clc
    12ac: 65 84        	adc	$84                     ; 0x84 <__zp_bss_size+0x40>
    12ae: 85 3d        	sta	$3d                     ; 0x3d <menuSoundTimer.1>
    12b0: 64 f3        	stz	$f3                     ; 0xf3 <__zp_bss_size+0xaf>
    12b2: a4 3d        	ldy	$3d                     ; 0x3d <menuSoundTimer.1>
    12b4: 84 f4        	sty	$f4                     ; 0xf4 <__zp_bss_size+0xb0>
    12b6: a9 01        	lda	#$1
    12b8: 25 3e        	and	$3e                     ; 0x3e <menuSoundTimer.2>
    12ba: 85 f5        	sta	$f5                     ; 0xf5 <__zp_bss_size+0xb1>
    12bc: a0 83        	ldy	#$83
    12be: a9 00        	lda	#$0
    12c0: 84 12        	sty	$12                     ; 0x12 <__rc2>
    12c2: 85 13        	sta	$13                     ; 0x13 <__rc3>
    12c4: a0 f0        	ldy	#$f0
    12c6: 20 f0 ff     	jsr	$fff0 <__heap_start+0x80e4>
    12c9: 92 12        	sta	($12)                   ; 0x12 <__rc2>
    12cb: a9 00        	lda	#$0
    12cd: 6a           	ror
    12ce: 85 14        	sta	$14                     ; 0x14 <__rc4>
    12d0: 84 3c        	sty	$3c                     ; 0x3c <_ccolor>
    12d2: a6 48        	ldx	$48                     ; 0x48 <selected>
    12d4: 86 14        	stx	$14                     ; 0x14 <__rc4>
    12d6: a9 0a        	lda	#$a
    12d8: 18           	clc
    12d9: 65 48        	adc	$48                     ; 0x48 <selected>
    12db: 85 8b        	sta	$8b                     ; 0x8b <__zp_bss_size+0x47>
    12dd: a0 07        	ldy	#$7
    12df: 84 40        	sty	$40                     ; 0x40 <_col>
    12e1: 8c 14 d0     	sty	$d014                   ; 0xd014 <__heap_start+0x5108>
    12e4: 9c 15 d0     	stz	$d015                   ; 0xd015 <__heap_start+0x5109>
    12e7: 85 41        	sta	$41                     ; 0x41 <_row>
    12e9: 8d 16 d0     	sta	$d016                   ; 0xd016 <__heap_start+0x510a>
    12ec: 9c 17 d0     	stz	$d017                   ; 0xd017 <__heap_start+0x510b>
    12ef: a0 5f        	ldy	#$5f
    12f1: 84 12        	sty	$12                     ; 0x12 <__rc2>
    12f3: 64 13        	stz	$13                     ; 0x13 <__rc3>
    12f5: a2 00        	ldx	#$0
    12f7: a5 14        	lda	$14                     ; 0x14 <__rc4>
    12f9: 20 08 6e     	jsr	$6e08 <__mulhi3>
    12fc: 85 12        	sta	$12                     ; 0x12 <__rc2>
    12fe: 86 13        	stx	$13                     ; 0x13 <__rc3>
    1300: 18           	clc
    1301: a6 89        	ldx	$89                     ; 0x89 <__zp_bss_size+0x45>
    1303: 8a           	txa
    1304: 65 12        	adc	$12                     ; 0x12 <__rc2>
    1306: 85 8c        	sta	$8c                     ; 0x8c <__zp_bss_size+0x48>
    1308: a8           	tay
    1309: a5 8a        	lda	$8a                     ; 0x8a <__zp_bss_size+0x46>
    130b: 65 13        	adc	$13                     ; 0x13 <__rc3>
    130d: 85 81        	sta	$81                     ; 0x81 <__zp_bss_size+0x3d>
    130f: 98           	tya
    1310: 92 10        	sta	($10)                   ; 0x10 <__rc0>
    1312: a0 01        	ldy	#$1
    1314: a5 81        	lda	$81                     ; 0x81 <__zp_bss_size+0x3d>
    1316: 91 10        	sta	($10),y                 ; 0x10 <__rc0>
    1318: a2 41        	ldx	#$41
    131a: 86 12        	stx	$12                     ; 0x12 <__rc2>
    131c: a2 70        	ldx	#$70
    131e: 86 13        	stx	$13                     ; 0x13 <__rc3>
    1320: a2 41        	ldx	#$41
    1322: 86 14        	stx	$14                     ; 0x14 <__rc4>
    1324: a2 70        	ldx	#$70
    1326: 86 15        	stx	$15                     ; 0x15 <__rc5>
    1328: a6 14        	ldx	$14                     ; 0x14 <__rc4>
    132a: 86 87        	stx	$87                     ; 0x87 <__zp_bss_size+0x43>
    132c: a6 15        	ldx	$15                     ; 0x15 <__rc5>
    132e: 86 88        	stx	$88                     ; 0x88 <__zp_bss_size+0x44>
    1330: 20 01 58     	jsr	$5801 <printf>
    1333: a2 1b        	ldx	#$1b
    1335: 86 40        	stx	$40                     ; 0x40 <_col>
    1337: 8e 14 d0     	stx	$d014                   ; 0xd014 <__heap_start+0x5108>
    133a: 9c 15 d0     	stz	$d015                   ; 0xd015 <__heap_start+0x5109>
    133d: a6 8b        	ldx	$8b                     ; 0x8b <__zp_bss_size+0x47>
    133f: 86 41        	stx	$41                     ; 0x41 <_row>
    1341: 8e 16 d0     	stx	$d016                   ; 0xd016 <__heap_start+0x510a>
    1344: 9c 17 d0     	stz	$d017                   ; 0xd017 <__heap_start+0x510b>
    1347: 18           	clc
    1348: a5 8c        	lda	$8c                     ; 0x8c <__zp_bss_size+0x48>
    134a: 69 14        	adc	#$14
    134c: 85 12        	sta	$12                     ; 0x12 <__rc2>
    134e: a5 81        	lda	$81                     ; 0x81 <__zp_bss_size+0x3d>
    1350: 69 00        	adc	#$0
    1352: aa           	tax
    1353: a5 12        	lda	$12                     ; 0x12 <__rc2>
    1355: 92 10        	sta	($10)                   ; 0x10 <__rc0>
    1357: a0 01        	ldy	#$1
    1359: 8a           	txa
    135a: 91 10        	sta	($10),y                 ; 0x10 <__rc0>
    135c: a6 87        	ldx	$87                     ; 0x87 <__zp_bss_size+0x43>
    135e: 86 12        	stx	$12                     ; 0x12 <__rc2>
    1360: a6 88        	ldx	$88                     ; 0x88 <__zp_bss_size+0x44>
    1362: 86 13        	stx	$13                     ; 0x13 <__rc3>
    1364: 20 01 58     	jsr	$5801 <printf>
    1367: a5 48        	lda	$48                     ; 0x48 <selected>
    1369: a2 01        	ldx	#$1
    136b: 86 12        	stx	$12                     ; 0x12 <__rc2>
    136d: a6 85        	ldx	$85                     ; 0x85 <__zp_bss_size+0x41>
    136f: f0 04        	beq	$1375 <goUpOrDown+0x16e>
    1371: a2 ff        	ldx	#$ff
    1373: 86 12        	stx	$12                     ; 0x12 <__rc2>
    1375: 18           	clc
    1376: a2 01        	ldx	#$1
    1378: b0 02        	bcs	$137c <goUpOrDown+0x175>
    137a: a2 00        	ldx	#$0
    137c: 86 13        	stx	$13                     ; 0x13 <__rc3>
    137e: 65 12        	adc	$12                     ; 0x12 <__rc2>
    1380: 85 48        	sta	$48                     ; 0x48 <selected>
    1382: a2 d1        	ldx	#$d1
    1384: 86 3c        	stx	$3c                     ; 0x3c <_ccolor>
    1386: a8           	tay
    1387: a6 13        	ldx	$13                     ; 0x13 <__rc3>
    1389: e0 01        	cpx	#$1
    138b: 69 0a        	adc	#$a
    138d: 85 87        	sta	$87                     ; 0x87 <__zp_bss_size+0x43>
    138f: a2 07        	ldx	#$7
    1391: 86 40        	stx	$40                     ; 0x40 <_col>
    1393: 8e 14 d0     	stx	$d014                   ; 0xd014 <__heap_start+0x5108>
    1396: 9c 15 d0     	stz	$d015                   ; 0xd015 <__heap_start+0x5109>
    1399: 85 41        	sta	$41                     ; 0x41 <_row>
    139b: 8d 16 d0     	sta	$d016                   ; 0xd016 <__heap_start+0x510a>
    139e: 9c 17 d0     	stz	$d017                   ; 0xd017 <__heap_start+0x510b>
    13a1: a2 5f        	ldx	#$5f
    13a3: 86 12        	stx	$12                     ; 0x12 <__rc2>
    13a5: 64 13        	stz	$13                     ; 0x13 <__rc3>
    13a7: a2 00        	ldx	#$0
    13a9: 98           	tya
    13aa: 20 08 6e     	jsr	$6e08 <__mulhi3>
    13ad: 85 12        	sta	$12                     ; 0x12 <__rc2>
    13af: 86 13        	stx	$13                     ; 0x13 <__rc3>
    13b1: a6 89        	ldx	$89                     ; 0x89 <__zp_bss_size+0x45>
    13b3: 8a           	txa
    13b4: 18           	clc
    13b5: 65 12        	adc	$12                     ; 0x12 <__rc2>
    13b7: a8           	tay
    13b8: a5 8a        	lda	$8a                     ; 0x8a <__zp_bss_size+0x46>
    13ba: 65 13        	adc	$13                     ; 0x13 <__rc3>
    13bc: 85 81        	sta	$81                     ; 0x81 <__zp_bss_size+0x3d>
    13be: 98           	tya
    13bf: 92 10        	sta	($10)                   ; 0x10 <__rc0>
    13c1: 84 82        	sty	$82                     ; 0x82 <__zp_bss_size+0x3e>
    13c3: a0 01        	ldy	#$1
    13c5: a5 81        	lda	$81                     ; 0x81 <__zp_bss_size+0x3d>
    13c7: 91 10        	sta	($10),y                 ; 0x10 <__rc0>
    13c9: a2 41        	ldx	#$41
    13cb: 86 12        	stx	$12                     ; 0x12 <__rc2>
    13cd: a2 70        	ldx	#$70
    13cf: 86 13        	stx	$13                     ; 0x13 <__rc3>
    13d1: a2 41        	ldx	#$41
    13d3: 86 14        	stx	$14                     ; 0x14 <__rc4>
    13d5: a2 70        	ldx	#$70
    13d7: 86 15        	stx	$15                     ; 0x15 <__rc5>
    13d9: a6 14        	ldx	$14                     ; 0x14 <__rc4>
    13db: 86 85        	stx	$85                     ; 0x85 <__zp_bss_size+0x41>
    13dd: a6 15        	ldx	$15                     ; 0x15 <__rc5>
    13df: 86 86        	stx	$86                     ; 0x86 <__zp_bss_size+0x42>
    13e1: 20 01 58     	jsr	$5801 <printf>
    13e4: a2 1b        	ldx	#$1b
    13e6: 86 40        	stx	$40                     ; 0x40 <_col>
    13e8: 8e 14 d0     	stx	$d014                   ; 0xd014 <__heap_start+0x5108>
    13eb: 9c 15 d0     	stz	$d015                   ; 0xd015 <__heap_start+0x5109>
    13ee: a6 87        	ldx	$87                     ; 0x87 <__zp_bss_size+0x43>
    13f0: 86 41        	stx	$41                     ; 0x41 <_row>
    13f2: 8e 16 d0     	stx	$d016                   ; 0xd016 <__heap_start+0x510a>
    13f5: 9c 17 d0     	stz	$d017                   ; 0xd017 <__heap_start+0x510b>
    13f8: 18           	clc
    13f9: a5 82        	lda	$82                     ; 0x82 <__zp_bss_size+0x3e>
    13fb: 69 14        	adc	#$14
    13fd: 85 12        	sta	$12                     ; 0x12 <__rc2>
    13ff: a5 81        	lda	$81                     ; 0x81 <__zp_bss_size+0x3d>
    1401: 69 00        	adc	#$0
    1403: aa           	tax
    1404: a5 12        	lda	$12                     ; 0x12 <__rc2>
    1406: 92 10        	sta	($10)                   ; 0x10 <__rc0>
    1408: a0 01        	ldy	#$1
    140a: 8a           	txa
    140b: 91 10        	sta	($10),y                 ; 0x10 <__rc0>
    140d: a6 85        	ldx	$85                     ; 0x85 <__zp_bss_size+0x41>
    140f: 86 12        	stx	$12                     ; 0x12 <__rc2>
    1411: a6 86        	ldx	$86                     ; 0x86 <__zp_bss_size+0x42>
    1413: 86 13        	stx	$13                     ; 0x13 <__rc3>
    1415: 20 01 58     	jsr	$5801 <printf>
    1418: 80 06        	bra	$1420 <goUpOrDown+0x219>
    141a: 8a           	txa
    141b: d0 03        	bne	$1420 <goUpOrDown+0x219>
    141d: 4c 7a 12     	jmp	$127a <goUpOrDown+0x73>
    1420: 18           	clc
    1421: a5 10        	lda	$10                     ; 0x10 <__rc0>
    1423: 69 02        	adc	#$2
    1425: 85 10        	sta	$10                     ; 0x10 <__rc0>
    1427: a5 11        	lda	$11                     ; 0x11 <__rc1>
    1429: 69 00        	adc	#$0
    142b: 85 11        	sta	$11                     ; 0x11 <__rc1>
    142d: 60           	rts

0000142e <readLine>:
    142e: 18           	clc
    142f: a5 10        	lda	$10                     ; 0x10 <__rc0>
    1431: 69 e7        	adc	#$e7
    1433: 85 10        	sta	$10                     ; 0x10 <__rc0>
    1435: a5 11        	lda	$11                     ; 0x11 <__rc1>
    1437: 69 ff        	adc	#$ff
    1439: 85 11        	sta	$11                     ; 0x11 <__rc1>
    143b: a6 24        	ldx	$24                     ; 0x24 <__rc20>
    143d: da           	phx
    143e: a6 25        	ldx	$25                     ; 0x25 <__rc21>
    1440: da           	phx
    1441: a5 12        	lda	$12                     ; 0x12 <__rc2>
    1443: a6 13        	ldx	$13                     ; 0x13 <__rc3>
    1445: 18           	clc
    1446: 48           	pha
    1447: a5 10        	lda	$10                     ; 0x10 <__rc0>
    1449: 69 17        	adc	#$17
    144b: 85 12        	sta	$12                     ; 0x12 <__rc2>
    144d: a5 11        	lda	$11                     ; 0x11 <__rc1>
    144f: 69 00        	adc	#$0
    1451: 85 13        	sta	$13                     ; 0x13 <__rc3>
    1453: 68           	pla
    1454: 92 12        	sta	($12)                   ; 0x12 <__rc2>
    1456: a0 01        	ldy	#$1
    1458: 8a           	txa
    1459: 91 12        	sta	($12),y                 ; 0x12 <__rc2>
    145b: 18           	clc
    145c: a5 10        	lda	$10                     ; 0x10 <__rc0>
    145e: 69 15        	adc	#$15
    1460: 85 14        	sta	$14                     ; 0x14 <__rc4>
    1462: a5 11        	lda	$11                     ; 0x11 <__rc1>
    1464: 69 00        	adc	#$0
    1466: 85 15        	sta	$15                     ; 0x15 <__rc5>
    1468: a9 00        	lda	#$0
    146a: 92 14        	sta	($14)                   ; 0x14 <__rc4>
    146c: 91 14        	sta	($14),y                 ; 0x14 <__rc4>
    146e: 18           	clc
    146f: 48           	pha
    1470: a5 10        	lda	$10                     ; 0x10 <__rc0>
    1472: 69 13        	adc	#$13
    1474: 85 14        	sta	$14                     ; 0x14 <__rc4>
    1476: a5 11        	lda	$11                     ; 0x11 <__rc1>
    1478: 69 00        	adc	#$0
    147a: 85 15        	sta	$15                     ; 0x15 <__rc5>
    147c: 68           	pla
    147d: 92 14        	sta	($14)                   ; 0x14 <__rc4>
    147f: 91 14        	sta	($14),y                 ; 0x14 <__rc4>
    1481: 18           	clc
    1482: 48           	pha
    1483: a5 10        	lda	$10                     ; 0x10 <__rc0>
    1485: 69 11        	adc	#$11
    1487: 85 14        	sta	$14                     ; 0x14 <__rc4>
    1489: a5 11        	lda	$11                     ; 0x11 <__rc1>
    148b: 69 00        	adc	#$0
    148d: 85 15        	sta	$15                     ; 0x15 <__rc5>
    148f: 68           	pla
    1490: 92 14        	sta	($14)                   ; 0x14 <__rc4>
    1492: 91 14        	sta	($14),y                 ; 0x14 <__rc4>
    1494: 18           	clc
    1495: 48           	pha
    1496: a5 10        	lda	$10                     ; 0x10 <__rc0>
    1498: 69 0f        	adc	#$f
    149a: 85 14        	sta	$14                     ; 0x14 <__rc4>
    149c: a5 11        	lda	$11                     ; 0x11 <__rc1>
    149e: 69 00        	adc	#$0
    14a0: 85 15        	sta	$15                     ; 0x15 <__rc5>
    14a2: 68           	pla
    14a3: 92 14        	sta	($14)                   ; 0x14 <__rc4>
    14a5: 91 14        	sta	($14),y                 ; 0x14 <__rc4>
    14a7: 18           	clc
    14a8: 48           	pha
    14a9: a5 10        	lda	$10                     ; 0x10 <__rc0>
    14ab: 69 0d        	adc	#$d
    14ad: 85 14        	sta	$14                     ; 0x14 <__rc4>
    14af: a5 11        	lda	$11                     ; 0x11 <__rc1>
    14b1: 69 00        	adc	#$0
    14b3: 85 15        	sta	$15                     ; 0x15 <__rc5>
    14b5: 68           	pla
    14b6: 92 14        	sta	($14)                   ; 0x14 <__rc4>
    14b8: 18           	clc
    14b9: 48           	pha
    14ba: a5 10        	lda	$10                     ; 0x10 <__rc0>
    14bc: 69 09        	adc	#$9
    14be: 85 14        	sta	$14                     ; 0x14 <__rc4>
    14c0: a5 11        	lda	$11                     ; 0x11 <__rc1>
    14c2: 69 00        	adc	#$0
    14c4: 85 15        	sta	$15                     ; 0x15 <__rc5>
    14c6: 68           	pla
    14c7: 92 14        	sta	($14)                   ; 0x14 <__rc4>
    14c9: 18           	clc
    14ca: 48           	pha
    14cb: a5 10        	lda	$10                     ; 0x10 <__rc0>
    14cd: 69 08        	adc	#$8
    14cf: 85 14        	sta	$14                     ; 0x14 <__rc4>
    14d1: a5 11        	lda	$11                     ; 0x11 <__rc1>
    14d3: 69 00        	adc	#$0
    14d5: 85 15        	sta	$15                     ; 0x15 <__rc5>
    14d7: 68           	pla
    14d8: 92 14        	sta	($14)                   ; 0x14 <__rc4>
    14da: 18           	clc
    14db: 48           	pha
    14dc: a5 10        	lda	$10                     ; 0x10 <__rc0>
    14de: 69 07        	adc	#$7
    14e0: 85 24        	sta	$24                     ; 0x24 <__rc20>
    14e2: a5 11        	lda	$11                     ; 0x11 <__rc1>
    14e4: 69 00        	adc	#$0
    14e6: 85 25        	sta	$25                     ; 0x25 <__rc21>
    14e8: 68           	pla
    14e9: 92 24        	sta	($24)                   ; 0x24 <__rc20>
    14eb: b2 12        	lda	($12)                   ; 0x12 <__rc2>
    14ed: 85 14        	sta	$14                     ; 0x14 <__rc4>
    14ef: b1 12        	lda	($12),y                 ; 0x12 <__rc2>
    14f1: 85 15        	sta	$15                     ; 0x15 <__rc5>
    14f3: 18           	clc
    14f4: a5 10        	lda	$10                     ; 0x10 <__rc0>
    14f6: 69 0e        	adc	#$e
    14f8: 85 12        	sta	$12                     ; 0x12 <__rc2>
    14fa: a5 11        	lda	$11                     ; 0x11 <__rc1>
    14fc: 69 00        	adc	#$0
    14fe: 85 13        	sta	$13                     ; 0x13 <__rc3>
    1500: 20 3c 55     	jsr	$553c <fileRead>
    1503: 92 24        	sta	($24)                   ; 0x24 <__rc20>
    1505: 18           	clc
    1506: a5 10        	lda	$10                     ; 0x10 <__rc0>
    1508: 69 07        	adc	#$7
    150a: 85 12        	sta	$12                     ; 0x12 <__rc2>
    150c: a5 11        	lda	$11                     ; 0x11 <__rc1>
    150e: 69 00        	adc	#$0
    1510: 85 13        	sta	$13                     ; 0x13 <__rc3>
    1512: b2 12        	lda	($12)                   ; 0x12 <__rc2>
    1514: c9 01        	cmp	#$1
    1516: f0 02        	beq	$151a <readLine+0xec>
    1518: 80 02        	bra	$151c <readLine+0xee>
    151a: 80 03        	bra	$151f <readLine+0xf1>
    151c: 4c a7 19     	jmp	$19a7 <readLine+0x579>
    151f: 80 00        	bra	$1521 <readLine+0xf3>
    1521: 18           	clc
    1522: a5 10        	lda	$10                     ; 0x10 <__rc0>
    1524: 69 0e        	adc	#$e
    1526: 85 12        	sta	$12                     ; 0x12 <__rc2>
    1528: a5 11        	lda	$11                     ; 0x11 <__rc1>
    152a: 69 00        	adc	#$0
    152c: 85 13        	sta	$13                     ; 0x13 <__rc3>
    152e: b2 12        	lda	($12)                   ; 0x12 <__rc2>
    1530: c9 0a        	cmp	#$a
    1532: f0 02        	beq	$1536 <readLine+0x108>
    1534: 80 02        	bra	$1538 <readLine+0x10a>
    1536: 80 02        	bra	$153a <readLine+0x10c>
    1538: 80 05        	bra	$153f <readLine+0x111>
    153a: 80 00        	bra	$153c <readLine+0x10e>
    153c: 4c a7 19     	jmp	$19a7 <readLine+0x579>
    153f: 18           	clc
    1540: a5 10        	lda	$10                     ; 0x10 <__rc0>
    1542: 69 0e        	adc	#$e
    1544: 85 12        	sta	$12                     ; 0x12 <__rc2>
    1546: a5 11        	lda	$11                     ; 0x11 <__rc1>
    1548: 69 00        	adc	#$0
    154a: 85 13        	sta	$13                     ; 0x13 <__rc3>
    154c: b2 12        	lda	($12)                   ; 0x12 <__rc2>
    154e: c9 0d        	cmp	#$d
    1550: f0 02        	beq	$1554 <readLine+0x126>
    1552: 80 02        	bra	$1556 <readLine+0x128>
    1554: 80 02        	bra	$1558 <readLine+0x12a>
    1556: 80 05        	bra	$155d <readLine+0x12f>
    1558: 80 00        	bra	$155a <readLine+0x12c>
    155a: 4c a7 19     	jmp	$19a7 <readLine+0x579>
    155d: 18           	clc
    155e: a5 10        	lda	$10                     ; 0x10 <__rc0>
    1560: 69 0e        	adc	#$e
    1562: 85 12        	sta	$12                     ; 0x12 <__rc2>
    1564: a5 11        	lda	$11                     ; 0x11 <__rc1>
    1566: 69 00        	adc	#$0
    1568: 85 13        	sta	$13                     ; 0x13 <__rc3>
    156a: b2 12        	lda	($12)                   ; 0x12 <__rc2>
    156c: c9 2c        	cmp	#$2c
    156e: f0 02        	beq	$1572 <readLine+0x144>
    1570: 80 02        	bra	$1574 <readLine+0x146>
    1572: 80 03        	bra	$1577 <readLine+0x149>
    1574: 4c 4b 16     	jmp	$164b <readLine+0x21d>
    1577: 80 00        	bra	$1579 <readLine+0x14b>
    1579: 18           	clc
    157a: a5 10        	lda	$10                     ; 0x10 <__rc0>
    157c: 69 0d        	adc	#$d
    157e: 85 12        	sta	$12                     ; 0x12 <__rc2>
    1580: a5 11        	lda	$11                     ; 0x11 <__rc1>
    1582: 69 00        	adc	#$0
    1584: 85 13        	sta	$13                     ; 0x13 <__rc3>
    1586: b2 12        	lda	($12)                   ; 0x12 <__rc2>
    1588: f0 03        	beq	$158d <readLine+0x15f>
    158a: 4c ed 15     	jmp	$15ed <readLine+0x1bf>
    158d: 18           	clc
    158e: a5 10        	lda	$10                     ; 0x10 <__rc0>
    1590: 69 0a        	adc	#$a
    1592: 85 12        	sta	$12                     ; 0x12 <__rc2>
    1594: a5 11        	lda	$11                     ; 0x11 <__rc1>
    1596: 69 00        	adc	#$0
    1598: 85 13        	sta	$13                     ; 0x13 <__rc3>
    159a: 20 32 67     	jsr	$6732 <atoi>
    159d: 18           	clc
    159e: 48           	pha
    159f: a5 10        	lda	$10                     ; 0x10 <__rc0>
    15a1: 69 09        	adc	#$9
    15a3: 85 12        	sta	$12                     ; 0x12 <__rc2>
    15a5: a5 11        	lda	$11                     ; 0x11 <__rc1>
    15a7: 69 00        	adc	#$0
    15a9: 85 13        	sta	$13                     ; 0x13 <__rc3>
    15ab: 68           	pla
    15ac: 92 12        	sta	($12)                   ; 0x12 <__rc2>
    15ae: b2 12        	lda	($12)                   ; 0x12 <__rc2>
    15b0: a0 75        	ldy	#$75
    15b2: a2 04        	ldx	#$4
    15b4: 84 12        	sty	$12                     ; 0x12 <__rc2>
    15b6: 86 13        	stx	$13                     ; 0x13 <__rc3>
    15b8: a2 00        	ldx	#$0
    15ba: 20 08 6e     	jsr	$6e08 <__mulhi3>
    15bd: 85 12        	sta	$12                     ; 0x12 <__rc2>
    15bf: 86 13        	stx	$13                     ; 0x13 <__rc3>
    15c1: a9 ac        	lda	#$ac
    15c3: 18           	clc
    15c4: 65 12        	adc	$12                     ; 0x12 <__rc2>
    15c6: aa           	tax
    15c7: a9 71        	lda	#$71
    15c9: 65 13        	adc	$13                     ; 0x13 <__rc3>
    15cb: 85 12        	sta	$12                     ; 0x12 <__rc2>
    15cd: 18           	clc
    15ce: 8a           	txa
    15cf: 69 74        	adc	#$74
    15d1: aa           	tax
    15d2: a5 12        	lda	$12                     ; 0x12 <__rc2>
    15d4: 69 04        	adc	#$4
    15d6: 85 13        	sta	$13                     ; 0x13 <__rc3>
    15d8: 86 12        	stx	$12                     ; 0x12 <__rc2>
    15da: b2 12        	lda	($12)                   ; 0x12 <__rc2>
    15dc: 18           	clc
    15dd: 48           	pha
    15de: a5 10        	lda	$10                     ; 0x10 <__rc0>
    15e0: 69 08        	adc	#$8
    15e2: 85 12        	sta	$12                     ; 0x12 <__rc2>
    15e4: a5 11        	lda	$11                     ; 0x11 <__rc1>
    15e6: 69 00        	adc	#$0
    15e8: 85 13        	sta	$13                     ; 0x13 <__rc3>
    15ea: 68           	pla
    15eb: 92 12        	sta	($12)                   ; 0x12 <__rc2>
    15ed: 18           	clc
    15ee: a5 10        	lda	$10                     ; 0x10 <__rc0>
    15f0: 69 0d        	adc	#$d
    15f2: 85 12        	sta	$12                     ; 0x12 <__rc2>
    15f4: a5 11        	lda	$11                     ; 0x11 <__rc1>
    15f6: 69 00        	adc	#$0
    15f8: 85 13        	sta	$13                     ; 0x13 <__rc3>
    15fa: b2 12        	lda	($12)                   ; 0x12 <__rc2>
    15fc: 1a           	inc
    15fd: 92 12        	sta	($12)                   ; 0x12 <__rc2>
    15ff: b2 12        	lda	($12)                   ; 0x12 <__rc2>
    1601: c9 04        	cmp	#$4
    1603: f0 02        	beq	$1607 <readLine+0x1d9>
    1605: 80 02        	bra	$1609 <readLine+0x1db>
    1607: 80 02        	bra	$160b <readLine+0x1dd>
    1609: 80 05        	bra	$1610 <readLine+0x1e2>
    160b: 80 00        	bra	$160d <readLine+0x1df>
    160d: 4c a7 19     	jmp	$19a7 <readLine+0x579>
    1610: 18           	clc
    1611: a5 10        	lda	$10                     ; 0x10 <__rc0>
    1613: 69 17        	adc	#$17
    1615: 85 12        	sta	$12                     ; 0x12 <__rc2>
    1617: a5 11        	lda	$11                     ; 0x11 <__rc1>
    1619: 69 00        	adc	#$0
    161b: 85 13        	sta	$13                     ; 0x13 <__rc3>
    161d: b2 12        	lda	($12)                   ; 0x12 <__rc2>
    161f: 85 14        	sta	$14                     ; 0x14 <__rc4>
    1621: a0 01        	ldy	#$1
    1623: b1 12        	lda	($12),y                 ; 0x12 <__rc2>
    1625: 85 15        	sta	$15                     ; 0x15 <__rc5>
    1627: 18           	clc
    1628: a5 10        	lda	$10                     ; 0x10 <__rc0>
    162a: 69 0e        	adc	#$e
    162c: 85 12        	sta	$12                     ; 0x12 <__rc2>
    162e: a5 11        	lda	$11                     ; 0x11 <__rc1>
    1630: 69 00        	adc	#$0
    1632: 85 13        	sta	$13                     ; 0x13 <__rc3>
    1634: 20 3c 55     	jsr	$553c <fileRead>
    1637: 18           	clc
    1638: 48           	pha
    1639: a5 10        	lda	$10                     ; 0x10 <__rc0>
    163b: 69 07        	adc	#$7
    163d: 85 12        	sta	$12                     ; 0x12 <__rc2>
    163f: a5 11        	lda	$11                     ; 0x11 <__rc1>
    1641: 69 00        	adc	#$0
    1643: 85 13        	sta	$13                     ; 0x13 <__rc3>
    1645: 68           	pla
    1646: 92 12        	sta	($12)                   ; 0x12 <__rc2>
    1648: 4c 05 15     	jmp	$1505 <readLine+0xd7>
    164b: 18           	clc
    164c: a5 10        	lda	$10                     ; 0x10 <__rc0>
    164e: 69 0d        	adc	#$d
    1650: 85 12        	sta	$12                     ; 0x12 <__rc2>
    1652: a5 11        	lda	$11                     ; 0x11 <__rc1>
    1654: 69 00        	adc	#$0
    1656: 85 13        	sta	$13                     ; 0x13 <__rc3>
    1658: b2 12        	lda	($12)                   ; 0x12 <__rc2>
    165a: c9 04        	cmp	#$4
    165c: 90 03        	bcc	$1661 <readLine+0x233>
    165e: 4c 6c 19     	jmp	$196c <readLine+0x53e>
    1661: 0a           	asl
    1662: aa           	tax
    1663: 7c ab 6e     	jmp	($6eab,x)               ; 0x6eab <__set_v+0x1>
    1666: 18           	clc
    1667: a5 10        	lda	$10                     ; 0x10 <__rc0>
    1669: 69 0f        	adc	#$f
    166b: 85 12        	sta	$12                     ; 0x12 <__rc2>
    166d: a5 11        	lda	$11                     ; 0x11 <__rc1>
    166f: 69 00        	adc	#$0
    1671: 85 13        	sta	$13                     ; 0x13 <__rc3>
    1673: b2 12        	lda	($12)                   ; 0x12 <__rc2>
    1675: 85 14        	sta	$14                     ; 0x14 <__rc4>
    1677: a0 01        	ldy	#$1
    1679: b1 12        	lda	($12),y                 ; 0x12 <__rc2>
    167b: a6 14        	ldx	$14                     ; 0x14 <__rc4>
    167d: e0 02        	cpx	#$2
    167f: e9 00        	sbc	#$0
    1681: 70 02        	bvs	$1685 <readLine+0x257>
    1683: 80 04        	bra	$1689 <readLine+0x25b>
    1685: 49 80        	eor	#$80
    1687: 80 02        	bra	$168b <readLine+0x25d>
    1689: 80 00        	bra	$168b <readLine+0x25d>
    168b: aa           	tax
    168c: 30 03        	bmi	$1691 <readLine+0x263>
    168e: 4c e8 16     	jmp	$16e8 <readLine+0x2ba>
    1691: 18           	clc
    1692: a5 10        	lda	$10                     ; 0x10 <__rc0>
    1694: 69 0e        	adc	#$e
    1696: 85 12        	sta	$12                     ; 0x12 <__rc2>
    1698: a5 11        	lda	$11                     ; 0x11 <__rc1>
    169a: 69 00        	adc	#$0
    169c: 85 13        	sta	$13                     ; 0x13 <__rc3>
    169e: b2 12        	lda	($12)                   ; 0x12 <__rc2>
    16a0: 85 16        	sta	$16                     ; 0x16 <__rc6>
    16a2: 18           	clc
    16a3: a5 10        	lda	$10                     ; 0x10 <__rc0>
    16a5: 69 0f        	adc	#$f
    16a7: 85 12        	sta	$12                     ; 0x12 <__rc2>
    16a9: a5 11        	lda	$11                     ; 0x11 <__rc1>
    16ab: 69 00        	adc	#$0
    16ad: 85 13        	sta	$13                     ; 0x13 <__rc3>
    16af: b2 12        	lda	($12)                   ; 0x12 <__rc2>
    16b1: 85 14        	sta	$14                     ; 0x14 <__rc4>
    16b3: a0 01        	ldy	#$1
    16b5: b1 12        	lda	($12),y                 ; 0x12 <__rc2>
    16b7: 85 15        	sta	$15                     ; 0x15 <__rc5>
    16b9: aa           	tax
    16ba: a5 14        	lda	$14                     ; 0x14 <__rc4>
    16bc: 1a           	inc
    16bd: f0 03        	beq	$16c2 <readLine+0x294>
    16bf: 4c c6 16     	jmp	$16c6 <readLine+0x298>
    16c2: e8           	inx
    16c3: 4c c6 16     	jmp	$16c6 <readLine+0x298>
    16c6: 92 12        	sta	($12)                   ; 0x12 <__rc2>
    16c8: 8a           	txa
    16c9: 91 12        	sta	($12),y                 ; 0x12 <__rc2>
    16cb: 18           	clc
    16cc: a5 10        	lda	$10                     ; 0x10 <__rc0>
    16ce: 69 0a        	adc	#$a
    16d0: 48           	pha
    16d1: a5 11        	lda	$11                     ; 0x11 <__rc1>
    16d3: 69 00        	adc	#$0
    16d5: 85 12        	sta	$12                     ; 0x12 <__rc2>
    16d7: 68           	pla
    16d8: 18           	clc
    16d9: 65 14        	adc	$14                     ; 0x14 <__rc4>
    16db: aa           	tax
    16dc: a5 12        	lda	$12                     ; 0x12 <__rc2>
    16de: 65 15        	adc	$15                     ; 0x15 <__rc5>
    16e0: 86 12        	stx	$12                     ; 0x12 <__rc2>
    16e2: 85 13        	sta	$13                     ; 0x13 <__rc3>
    16e4: a5 16        	lda	$16                     ; 0x16 <__rc6>
    16e6: 92 12        	sta	($12)                   ; 0x12 <__rc2>
    16e8: 4c 6c 19     	jmp	$196c <readLine+0x53e>
    16eb: 18           	clc
    16ec: a5 10        	lda	$10                     ; 0x10 <__rc0>
    16ee: 69 15        	adc	#$15
    16f0: 85 12        	sta	$12                     ; 0x12 <__rc2>
    16f2: a5 11        	lda	$11                     ; 0x11 <__rc1>
    16f4: 69 00        	adc	#$0
    16f6: 85 13        	sta	$13                     ; 0x13 <__rc3>
    16f8: b2 12        	lda	($12)                   ; 0x12 <__rc2>
    16fa: 85 14        	sta	$14                     ; 0x14 <__rc4>
    16fc: a0 01        	ldy	#$1
    16fe: b1 12        	lda	($12),y                 ; 0x12 <__rc2>
    1700: a6 14        	ldx	$14                     ; 0x14 <__rc4>
    1702: e0 13        	cpx	#$13
    1704: e9 00        	sbc	#$0
    1706: 70 02        	bvs	$170a <readLine+0x2dc>
    1708: 80 04        	bra	$170e <readLine+0x2e0>
    170a: 49 80        	eor	#$80
    170c: 80 02        	bra	$1710 <readLine+0x2e2>
    170e: 80 00        	bra	$1710 <readLine+0x2e2>
    1710: aa           	tax
    1711: 30 03        	bmi	$1716 <readLine+0x2e8>
    1713: 4c bc 17     	jmp	$17bc <readLine+0x38e>
    1716: 18           	clc
    1717: a5 10        	lda	$10                     ; 0x10 <__rc0>
    1719: 69 0e        	adc	#$e
    171b: 85 12        	sta	$12                     ; 0x12 <__rc2>
    171d: a5 11        	lda	$11                     ; 0x11 <__rc1>
    171f: 69 00        	adc	#$0
    1721: 85 13        	sta	$13                     ; 0x13 <__rc3>
    1723: b2 12        	lda	($12)                   ; 0x12 <__rc2>
    1725: a0 02        	ldy	#$2
    1727: 91 10        	sta	($10),y                 ; 0x10 <__rc0>
    1729: 18           	clc
    172a: a5 10        	lda	$10                     ; 0x10 <__rc0>
    172c: 69 09        	adc	#$9
    172e: 85 12        	sta	$12                     ; 0x12 <__rc2>
    1730: a5 11        	lda	$11                     ; 0x11 <__rc1>
    1732: 69 00        	adc	#$0
    1734: 85 13        	sta	$13                     ; 0x13 <__rc3>
    1736: b2 12        	lda	($12)                   ; 0x12 <__rc2>
    1738: a2 75        	ldx	#$75
    173a: a0 04        	ldy	#$4
    173c: 86 12        	stx	$12                     ; 0x12 <__rc2>
    173e: 84 13        	sty	$13                     ; 0x13 <__rc3>
    1740: a2 00        	ldx	#$0
    1742: 20 08 6e     	jsr	$6e08 <__mulhi3>
    1745: 85 12        	sta	$12                     ; 0x12 <__rc2>
    1747: 86 13        	stx	$13                     ; 0x13 <__rc3>
    1749: 18           	clc
    174a: a9 ac        	lda	#$ac
    174c: 65 12        	adc	$12                     ; 0x12 <__rc2>
    174e: 85 25        	sta	$25                     ; 0x25 <__rc21>
    1750: a9 71        	lda	#$71
    1752: 65 13        	adc	$13                     ; 0x13 <__rc3>
    1754: 85 24        	sta	$24                     ; 0x24 <__rc20>
    1756: 18           	clc
    1757: a5 10        	lda	$10                     ; 0x10 <__rc0>
    1759: 69 08        	adc	#$8
    175b: 85 12        	sta	$12                     ; 0x12 <__rc2>
    175d: a5 11        	lda	$11                     ; 0x11 <__rc1>
    175f: 69 00        	adc	#$0
    1761: 85 13        	sta	$13                     ; 0x13 <__rc3>
    1763: b2 12        	lda	($12)                   ; 0x12 <__rc2>
    1765: a2 5f        	ldx	#$5f
    1767: 86 12        	stx	$12                     ; 0x12 <__rc2>
    1769: 64 13        	stz	$13                     ; 0x13 <__rc3>
    176b: a2 00        	ldx	#$0
    176d: 20 08 6e     	jsr	$6e08 <__mulhi3>
    1770: 85 12        	sta	$12                     ; 0x12 <__rc2>
    1772: 86 13        	stx	$13                     ; 0x13 <__rc3>
    1774: 18           	clc
    1775: a5 10        	lda	$10                     ; 0x10 <__rc0>
    1777: 69 15        	adc	#$15
    1779: 85 14        	sta	$14                     ; 0x14 <__rc4>
    177b: a5 11        	lda	$11                     ; 0x11 <__rc1>
    177d: 69 00        	adc	#$0
    177f: 85 15        	sta	$15                     ; 0x15 <__rc5>
    1781: b2 14        	lda	($14)                   ; 0x14 <__rc4>
    1783: 85 16        	sta	$16                     ; 0x16 <__rc6>
    1785: a0 01        	ldy	#$1
    1787: b1 14        	lda	($14),y                 ; 0x14 <__rc4>
    1789: 85 17        	sta	$17                     ; 0x17 <__rc7>
    178b: a6 16        	ldx	$16                     ; 0x16 <__rc6>
    178d: 86 18        	stx	$18                     ; 0x18 <__rc8>
    178f: e6 18        	inc	$18                     ; 0x18 <__rc8>
    1791: f0 03        	beq	$1796 <readLine+0x368>
    1793: 4c 9a 17     	jmp	$179a <readLine+0x36c>
    1796: 1a           	inc
    1797: 4c 9a 17     	jmp	$179a <readLine+0x36c>
    179a: 91 14        	sta	($14),y                 ; 0x14 <__rc4>
    179c: a5 25        	lda	$25                     ; 0x25 <__rc21>
    179e: 18           	clc
    179f: 65 12        	adc	$12                     ; 0x12 <__rc2>
    17a1: a8           	tay
    17a2: a5 24        	lda	$24                     ; 0x24 <__rc20>
    17a4: 65 13        	adc	$13                     ; 0x13 <__rc3>
    17a6: aa           	tax
    17a7: a5 18        	lda	$18                     ; 0x18 <__rc8>
    17a9: 92 14        	sta	($14)                   ; 0x14 <__rc4>
    17ab: 18           	clc
    17ac: 98           	tya
    17ad: 65 16        	adc	$16                     ; 0x16 <__rc6>
    17af: 85 12        	sta	$12                     ; 0x12 <__rc2>
    17b1: 8a           	txa
    17b2: 65 17        	adc	$17                     ; 0x17 <__rc7>
    17b4: 85 13        	sta	$13                     ; 0x13 <__rc3>
    17b6: a0 02        	ldy	#$2
    17b8: b1 10        	lda	($10),y                 ; 0x10 <__rc0>
    17ba: 92 12        	sta	($12)                   ; 0x12 <__rc2>
    17bc: 4c 6c 19     	jmp	$196c <readLine+0x53e>
    17bf: 18           	clc
    17c0: a5 10        	lda	$10                     ; 0x10 <__rc0>
    17c2: 69 13        	adc	#$13
    17c4: 85 12        	sta	$12                     ; 0x12 <__rc2>
    17c6: a5 11        	lda	$11                     ; 0x11 <__rc1>
    17c8: 69 00        	adc	#$0
    17ca: 85 13        	sta	$13                     ; 0x13 <__rc3>
    17cc: b2 12        	lda	($12)                   ; 0x12 <__rc2>
    17ce: 85 14        	sta	$14                     ; 0x14 <__rc4>
    17d0: a0 01        	ldy	#$1
    17d2: b1 12        	lda	($12),y                 ; 0x12 <__rc2>
    17d4: a6 14        	ldx	$14                     ; 0x14 <__rc4>
    17d6: e0 22        	cpx	#$22
    17d8: e9 00        	sbc	#$0
    17da: 70 02        	bvs	$17de <readLine+0x3b0>
    17dc: 80 04        	bra	$17e2 <readLine+0x3b4>
    17de: 49 80        	eor	#$80
    17e0: 80 02        	bra	$17e4 <readLine+0x3b6>
    17e2: 80 00        	bra	$17e4 <readLine+0x3b6>
    17e4: aa           	tax
    17e5: 30 03        	bmi	$17ea <readLine+0x3bc>
    17e7: 4c 94 18     	jmp	$1894 <readLine+0x466>
    17ea: 18           	clc
    17eb: a5 10        	lda	$10                     ; 0x10 <__rc0>
    17ed: 69 0e        	adc	#$e
    17ef: 85 12        	sta	$12                     ; 0x12 <__rc2>
    17f1: a5 11        	lda	$11                     ; 0x11 <__rc1>
    17f3: 69 00        	adc	#$0
    17f5: 85 13        	sta	$13                     ; 0x13 <__rc3>
    17f7: b2 12        	lda	($12)                   ; 0x12 <__rc2>
    17f9: a0 01        	ldy	#$1
    17fb: 91 10        	sta	($10),y                 ; 0x10 <__rc0>
    17fd: 18           	clc
    17fe: a5 10        	lda	$10                     ; 0x10 <__rc0>
    1800: 69 09        	adc	#$9
    1802: 85 12        	sta	$12                     ; 0x12 <__rc2>
    1804: a5 11        	lda	$11                     ; 0x11 <__rc1>
    1806: 69 00        	adc	#$0
    1808: 85 13        	sta	$13                     ; 0x13 <__rc3>
    180a: b2 12        	lda	($12)                   ; 0x12 <__rc2>
    180c: a2 75        	ldx	#$75
    180e: a0 04        	ldy	#$4
    1810: 86 12        	stx	$12                     ; 0x12 <__rc2>
    1812: 84 13        	sty	$13                     ; 0x13 <__rc3>
    1814: a2 00        	ldx	#$0
    1816: 20 08 6e     	jsr	$6e08 <__mulhi3>
    1819: 85 12        	sta	$12                     ; 0x12 <__rc2>
    181b: 86 13        	stx	$13                     ; 0x13 <__rc3>
    181d: a9 ac        	lda	#$ac
    181f: 18           	clc
    1820: 65 12        	adc	$12                     ; 0x12 <__rc2>
    1822: 85 25        	sta	$25                     ; 0x25 <__rc21>
    1824: a9 71        	lda	#$71
    1826: 65 13        	adc	$13                     ; 0x13 <__rc3>
    1828: 85 24        	sta	$24                     ; 0x24 <__rc20>
    182a: 18           	clc
    182b: a5 10        	lda	$10                     ; 0x10 <__rc0>
    182d: 69 08        	adc	#$8
    182f: 85 12        	sta	$12                     ; 0x12 <__rc2>
    1831: a5 11        	lda	$11                     ; 0x11 <__rc1>
    1833: 69 00        	adc	#$0
    1835: 85 13        	sta	$13                     ; 0x13 <__rc3>
    1837: b2 12        	lda	($12)                   ; 0x12 <__rc2>
    1839: a2 5f        	ldx	#$5f
    183b: 86 12        	stx	$12                     ; 0x12 <__rc2>
    183d: 64 13        	stz	$13                     ; 0x13 <__rc3>
    183f: a2 00        	ldx	#$0
    1841: 20 08 6e     	jsr	$6e08 <__mulhi3>
    1844: 85 12        	sta	$12                     ; 0x12 <__rc2>
    1846: 86 13        	stx	$13                     ; 0x13 <__rc3>
    1848: 18           	clc
    1849: a5 10        	lda	$10                     ; 0x10 <__rc0>
    184b: 69 13        	adc	#$13
    184d: 85 14        	sta	$14                     ; 0x14 <__rc4>
    184f: a5 11        	lda	$11                     ; 0x11 <__rc1>
    1851: 69 00        	adc	#$0
    1853: 85 15        	sta	$15                     ; 0x15 <__rc5>
    1855: b2 14        	lda	($14)                   ; 0x14 <__rc4>
    1857: 85 16        	sta	$16                     ; 0x16 <__rc6>
    1859: a0 01        	ldy	#$1
    185b: b1 14        	lda	($14),y                 ; 0x14 <__rc4>
    185d: 85 17        	sta	$17                     ; 0x17 <__rc7>
    185f: a6 16        	ldx	$16                     ; 0x16 <__rc6>
    1861: 86 18        	stx	$18                     ; 0x18 <__rc8>
    1863: e6 18        	inc	$18                     ; 0x18 <__rc8>
    1865: f0 03        	beq	$186a <readLine+0x43c>
    1867: 4c 6e 18     	jmp	$186e <readLine+0x440>
    186a: 1a           	inc
    186b: 4c 6e 18     	jmp	$186e <readLine+0x440>
    186e: 91 14        	sta	($14),y                 ; 0x14 <__rc4>
    1870: a5 25        	lda	$25                     ; 0x25 <__rc21>
    1872: 18           	clc
    1873: 65 12        	adc	$12                     ; 0x12 <__rc2>
    1875: a8           	tay
    1876: a5 24        	lda	$24                     ; 0x24 <__rc20>
    1878: 65 13        	adc	$13                     ; 0x13 <__rc3>
    187a: aa           	tax
    187b: 18           	clc
    187c: 98           	tya
    187d: 65 16        	adc	$16                     ; 0x16 <__rc6>
    187f: 85 12        	sta	$12                     ; 0x12 <__rc2>
    1881: 8a           	txa
    1882: 65 17        	adc	$17                     ; 0x17 <__rc7>
    1884: 85 13        	sta	$13                     ; 0x13 <__rc3>
    1886: a0 14        	ldy	#$14
    1888: 5a           	phy
    1889: a0 01        	ldy	#$1
    188b: b1 10        	lda	($10),y                 ; 0x10 <__rc0>
    188d: 7a           	ply
    188e: 91 12        	sta	($12),y                 ; 0x12 <__rc2>
    1890: a5 18        	lda	$18                     ; 0x18 <__rc8>
    1892: 92 14        	sta	($14)                   ; 0x14 <__rc4>
    1894: 4c 6c 19     	jmp	$196c <readLine+0x53e>
    1897: 18           	clc
    1898: a5 10        	lda	$10                     ; 0x10 <__rc0>
    189a: 69 11        	adc	#$11
    189c: 85 12        	sta	$12                     ; 0x12 <__rc2>
    189e: a5 11        	lda	$11                     ; 0x11 <__rc1>
    18a0: 69 00        	adc	#$0
    18a2: 85 13        	sta	$13                     ; 0x13 <__rc3>
    18a4: b2 12        	lda	($12)                   ; 0x12 <__rc2>
    18a6: 85 14        	sta	$14                     ; 0x14 <__rc4>
    18a8: a0 01        	ldy	#$1
    18aa: b1 12        	lda	($12),y                 ; 0x12 <__rc2>
    18ac: a6 14        	ldx	$14                     ; 0x14 <__rc4>
    18ae: e0 27        	cpx	#$27
    18b0: e9 00        	sbc	#$0
    18b2: 70 02        	bvs	$18b6 <readLine+0x488>
    18b4: 80 04        	bra	$18ba <readLine+0x48c>
    18b6: 49 80        	eor	#$80
    18b8: 80 02        	bra	$18bc <readLine+0x48e>
    18ba: 80 00        	bra	$18bc <readLine+0x48e>
    18bc: aa           	tax
    18bd: 30 03        	bmi	$18c2 <readLine+0x494>
    18bf: 4c 6c 19     	jmp	$196c <readLine+0x53e>
    18c2: 18           	clc
    18c3: a5 10        	lda	$10                     ; 0x10 <__rc0>
    18c5: 69 0e        	adc	#$e
    18c7: 85 12        	sta	$12                     ; 0x12 <__rc2>
    18c9: a5 11        	lda	$11                     ; 0x11 <__rc1>
    18cb: 69 00        	adc	#$0
    18cd: 85 13        	sta	$13                     ; 0x13 <__rc3>
    18cf: b2 12        	lda	($12)                   ; 0x12 <__rc2>
    18d1: a0 00        	ldy	#$0
    18d3: 91 10        	sta	($10),y                 ; 0x10 <__rc0>
    18d5: 18           	clc
    18d6: a5 10        	lda	$10                     ; 0x10 <__rc0>
    18d8: 69 09        	adc	#$9
    18da: 85 12        	sta	$12                     ; 0x12 <__rc2>
    18dc: a5 11        	lda	$11                     ; 0x11 <__rc1>
    18de: 69 00        	adc	#$0
    18e0: 85 13        	sta	$13                     ; 0x13 <__rc3>
    18e2: b2 12        	lda	($12)                   ; 0x12 <__rc2>
    18e4: a2 75        	ldx	#$75
    18e6: a0 04        	ldy	#$4
    18e8: 86 12        	stx	$12                     ; 0x12 <__rc2>
    18ea: 84 13        	sty	$13                     ; 0x13 <__rc3>
    18ec: a2 00        	ldx	#$0
    18ee: 20 08 6e     	jsr	$6e08 <__mulhi3>
    18f1: 85 12        	sta	$12                     ; 0x12 <__rc2>
    18f3: 86 13        	stx	$13                     ; 0x13 <__rc3>
    18f5: a9 ac        	lda	#$ac
    18f7: 18           	clc
    18f8: 65 12        	adc	$12                     ; 0x12 <__rc2>
    18fa: 85 25        	sta	$25                     ; 0x25 <__rc21>
    18fc: a9 71        	lda	#$71
    18fe: 65 13        	adc	$13                     ; 0x13 <__rc3>
    1900: 85 24        	sta	$24                     ; 0x24 <__rc20>
    1902: 18           	clc
    1903: a5 10        	lda	$10                     ; 0x10 <__rc0>
    1905: 69 08        	adc	#$8
    1907: 85 12        	sta	$12                     ; 0x12 <__rc2>
    1909: a5 11        	lda	$11                     ; 0x11 <__rc1>
    190b: 69 00        	adc	#$0
    190d: 85 13        	sta	$13                     ; 0x13 <__rc3>
    190f: b2 12        	lda	($12)                   ; 0x12 <__rc2>
    1911: a2 5f        	ldx	#$5f
    1913: 86 12        	stx	$12                     ; 0x12 <__rc2>
    1915: 64 13        	stz	$13                     ; 0x13 <__rc3>
    1917: a2 00        	ldx	#$0
    1919: 20 08 6e     	jsr	$6e08 <__mulhi3>
    191c: 85 12        	sta	$12                     ; 0x12 <__rc2>
    191e: 86 13        	stx	$13                     ; 0x13 <__rc3>
    1920: 18           	clc
    1921: a5 10        	lda	$10                     ; 0x10 <__rc0>
    1923: 69 11        	adc	#$11
    1925: 85 14        	sta	$14                     ; 0x14 <__rc4>
    1927: a5 11        	lda	$11                     ; 0x11 <__rc1>
    1929: 69 00        	adc	#$0
    192b: 85 15        	sta	$15                     ; 0x15 <__rc5>
    192d: b2 14        	lda	($14)                   ; 0x14 <__rc4>
    192f: 85 16        	sta	$16                     ; 0x16 <__rc6>
    1931: a0 01        	ldy	#$1
    1933: b1 14        	lda	($14),y                 ; 0x14 <__rc4>
    1935: 85 17        	sta	$17                     ; 0x17 <__rc7>
    1937: a6 16        	ldx	$16                     ; 0x16 <__rc6>
    1939: 86 18        	stx	$18                     ; 0x18 <__rc8>
    193b: e6 18        	inc	$18                     ; 0x18 <__rc8>
    193d: f0 03        	beq	$1942 <readLine+0x514>
    193f: 4c 46 19     	jmp	$1946 <readLine+0x518>
    1942: 1a           	inc
    1943: 4c 46 19     	jmp	$1946 <readLine+0x518>
    1946: 91 14        	sta	($14),y                 ; 0x14 <__rc4>
    1948: a5 25        	lda	$25                     ; 0x25 <__rc21>
    194a: 18           	clc
    194b: 65 12        	adc	$12                     ; 0x12 <__rc2>
    194d: a8           	tay
    194e: a5 24        	lda	$24                     ; 0x24 <__rc20>
    1950: 65 13        	adc	$13                     ; 0x13 <__rc3>
    1952: aa           	tax
    1953: 18           	clc
    1954: 98           	tya
    1955: 65 16        	adc	$16                     ; 0x16 <__rc6>
    1957: 85 12        	sta	$12                     ; 0x12 <__rc2>
    1959: 8a           	txa
    195a: 65 17        	adc	$17                     ; 0x17 <__rc7>
    195c: 85 13        	sta	$13                     ; 0x13 <__rc3>
    195e: a0 37        	ldy	#$37
    1960: 5a           	phy
    1961: a0 00        	ldy	#$0
    1963: b1 10        	lda	($10),y                 ; 0x10 <__rc0>
    1965: 7a           	ply
    1966: 91 12        	sta	($12),y                 ; 0x12 <__rc2>
    1968: a5 18        	lda	$18                     ; 0x18 <__rc8>
    196a: 92 14        	sta	($14)                   ; 0x14 <__rc4>
    196c: 18           	clc
    196d: a5 10        	lda	$10                     ; 0x10 <__rc0>
    196f: 69 17        	adc	#$17
    1971: 85 12        	sta	$12                     ; 0x12 <__rc2>
    1973: a5 11        	lda	$11                     ; 0x11 <__rc1>
    1975: 69 00        	adc	#$0
    1977: 85 13        	sta	$13                     ; 0x13 <__rc3>
    1979: b2 12        	lda	($12)                   ; 0x12 <__rc2>
    197b: 85 14        	sta	$14                     ; 0x14 <__rc4>
    197d: a0 01        	ldy	#$1
    197f: b1 12        	lda	($12),y                 ; 0x12 <__rc2>
    1981: 85 15        	sta	$15                     ; 0x15 <__rc5>
    1983: 18           	clc
    1984: a5 10        	lda	$10                     ; 0x10 <__rc0>
    1986: 69 0e        	adc	#$e
    1988: 85 12        	sta	$12                     ; 0x12 <__rc2>
    198a: a5 11        	lda	$11                     ; 0x11 <__rc1>
    198c: 69 00        	adc	#$0
    198e: 85 13        	sta	$13                     ; 0x13 <__rc3>
    1990: 20 3c 55     	jsr	$553c <fileRead>
    1993: 18           	clc
    1994: 48           	pha
    1995: a5 10        	lda	$10                     ; 0x10 <__rc0>
    1997: 69 07        	adc	#$7
    1999: 85 12        	sta	$12                     ; 0x12 <__rc2>
    199b: a5 11        	lda	$11                     ; 0x11 <__rc1>
    199d: 69 00        	adc	#$0
    199f: 85 13        	sta	$13                     ; 0x13 <__rc3>
    19a1: 68           	pla
    19a2: 92 12        	sta	($12)                   ; 0x12 <__rc2>
    19a4: 4c 48 16     	jmp	$1648 <readLine+0x21a>
    19a7: 18           	clc
    19a8: a5 10        	lda	$10                     ; 0x10 <__rc0>
    19aa: 69 08        	adc	#$8
    19ac: 85 12        	sta	$12                     ; 0x12 <__rc2>
    19ae: a5 11        	lda	$11                     ; 0x11 <__rc1>
    19b0: 69 00        	adc	#$0
    19b2: 85 13        	sta	$13                     ; 0x13 <__rc3>
    19b4: b2 12        	lda	($12)                   ; 0x12 <__rc2>
    19b6: 85 12        	sta	$12                     ; 0x12 <__rc2>
    19b8: a9 00        	lda	#$0
    19ba: a6 12        	ldx	$12                     ; 0x12 <__rc2>
    19bc: e0 0c        	cpx	#$c
    19be: e9 00        	sbc	#$0
    19c0: 70 02        	bvs	$19c4 <readLine+0x596>
    19c2: 80 04        	bra	$19c8 <readLine+0x59a>
    19c4: 49 80        	eor	#$80
    19c6: 80 02        	bra	$19ca <readLine+0x59c>
    19c8: 80 00        	bra	$19ca <readLine+0x59c>
    19ca: aa           	tax
    19cb: 30 03        	bmi	$19d0 <readLine+0x5a2>
    19cd: 4c 9a 1b     	jmp	$1b9a <readLine+0x76c>
    19d0: 18           	clc
    19d1: a5 10        	lda	$10                     ; 0x10 <__rc0>
    19d3: 69 07        	adc	#$7
    19d5: 85 12        	sta	$12                     ; 0x12 <__rc2>
    19d7: a5 11        	lda	$11                     ; 0x11 <__rc1>
    19d9: 69 00        	adc	#$0
    19db: 85 13        	sta	$13                     ; 0x13 <__rc3>
    19dd: b2 12        	lda	($12)                   ; 0x12 <__rc2>
    19df: c9 01        	cmp	#$1
    19e1: f0 02        	beq	$19e5 <readLine+0x5b7>
    19e3: 80 02        	bra	$19e7 <readLine+0x5b9>
    19e5: 80 03        	bra	$19ea <readLine+0x5bc>
    19e7: 4c 9a 1b     	jmp	$1b9a <readLine+0x76c>
    19ea: 80 00        	bra	$19ec <readLine+0x5be>
    19ec: 18           	clc
    19ed: a5 10        	lda	$10                     ; 0x10 <__rc0>
    19ef: 69 09        	adc	#$9
    19f1: 85 14        	sta	$14                     ; 0x14 <__rc4>
    19f3: a5 11        	lda	$11                     ; 0x11 <__rc1>
    19f5: 69 00        	adc	#$0
    19f7: 85 15        	sta	$15                     ; 0x15 <__rc5>
    19f9: a5 14        	lda	$14                     ; 0x14 <__rc4>
    19fb: a0 03        	ldy	#$3
    19fd: 91 10        	sta	($10),y                 ; 0x10 <__rc0>
    19ff: a5 15        	lda	$15                     ; 0x15 <__rc5>
    1a01: c8           	iny
    1a02: 91 10        	sta	($10),y                 ; 0x10 <__rc0>
    1a04: b2 14        	lda	($14)                   ; 0x14 <__rc4>
    1a06: a0 75        	ldy	#$75
    1a08: a2 04        	ldx	#$4
    1a0a: 84 12        	sty	$12                     ; 0x12 <__rc2>
    1a0c: 86 13        	stx	$13                     ; 0x13 <__rc3>
    1a0e: a2 00        	ldx	#$0
    1a10: 20 08 6e     	jsr	$6e08 <__mulhi3>
    1a13: 85 12        	sta	$12                     ; 0x12 <__rc2>
    1a15: 86 13        	stx	$13                     ; 0x13 <__rc3>
    1a17: 18           	clc
    1a18: a9 ac        	lda	#$ac
    1a1a: 65 12        	adc	$12                     ; 0x12 <__rc2>
    1a1c: 85 25        	sta	$25                     ; 0x25 <__rc21>
    1a1e: a9 71        	lda	#$71
    1a20: 65 13        	adc	$13                     ; 0x13 <__rc3>
    1a22: 85 24        	sta	$24                     ; 0x24 <__rc20>
    1a24: 18           	clc
    1a25: a5 10        	lda	$10                     ; 0x10 <__rc0>
    1a27: 69 08        	adc	#$8
    1a29: 85 14        	sta	$14                     ; 0x14 <__rc4>
    1a2b: a5 11        	lda	$11                     ; 0x11 <__rc1>
    1a2d: 69 00        	adc	#$0
    1a2f: 85 15        	sta	$15                     ; 0x15 <__rc5>
    1a31: a5 14        	lda	$14                     ; 0x14 <__rc4>
    1a33: a0 05        	ldy	#$5
    1a35: 91 10        	sta	($10),y                 ; 0x10 <__rc0>
    1a37: a5 15        	lda	$15                     ; 0x15 <__rc5>
    1a39: c8           	iny
    1a3a: 91 10        	sta	($10),y                 ; 0x10 <__rc0>
    1a3c: b2 14        	lda	($14)                   ; 0x14 <__rc4>
    1a3e: a2 5f        	ldx	#$5f
    1a40: 86 12        	stx	$12                     ; 0x12 <__rc2>
    1a42: 64 13        	stz	$13                     ; 0x13 <__rc3>
    1a44: a2 00        	ldx	#$0
    1a46: 20 08 6e     	jsr	$6e08 <__mulhi3>
    1a49: 85 12        	sta	$12                     ; 0x12 <__rc2>
    1a4b: 86 13        	stx	$13                     ; 0x13 <__rc3>
    1a4d: 18           	clc
    1a4e: a5 25        	lda	$25                     ; 0x25 <__rc21>
    1a50: 65 12        	adc	$12                     ; 0x12 <__rc2>
    1a52: aa           	tax
    1a53: a5 24        	lda	$24                     ; 0x24 <__rc20>
    1a55: 65 13        	adc	$13                     ; 0x13 <__rc3>
    1a57: 85 14        	sta	$14                     ; 0x14 <__rc4>
    1a59: 18           	clc
    1a5a: a5 10        	lda	$10                     ; 0x10 <__rc0>
    1a5c: 69 15        	adc	#$15
    1a5e: 85 12        	sta	$12                     ; 0x12 <__rc2>
    1a60: a5 11        	lda	$11                     ; 0x11 <__rc1>
    1a62: 69 00        	adc	#$0
    1a64: 85 13        	sta	$13                     ; 0x13 <__rc3>
    1a66: a0 01        	ldy	#$1
    1a68: 18           	clc
    1a69: 8a           	txa
    1a6a: 72 12        	adc	($12)                   ; 0x12 <__rc2>
    1a6c: aa           	tax
    1a6d: a5 14        	lda	$14                     ; 0x14 <__rc4>
    1a6f: 71 12        	adc	($12),y                 ; 0x12 <__rc2>
    1a71: 86 12        	stx	$12                     ; 0x12 <__rc2>
    1a73: 85 13        	sta	$13                     ; 0x13 <__rc3>
    1a75: a9 00        	lda	#$0
    1a77: 92 12        	sta	($12)                   ; 0x12 <__rc2>
    1a79: a0 03        	ldy	#$3
    1a7b: b1 10        	lda	($10),y                 ; 0x10 <__rc0>
    1a7d: 85 12        	sta	$12                     ; 0x12 <__rc2>
    1a7f: c8           	iny
    1a80: b1 10        	lda	($10),y                 ; 0x10 <__rc0>
    1a82: 85 13        	sta	$13                     ; 0x13 <__rc3>
    1a84: b2 12        	lda	($12)                   ; 0x12 <__rc2>
    1a86: a2 75        	ldx	#$75
    1a88: 86 12        	stx	$12                     ; 0x12 <__rc2>
    1a8a: a2 04        	ldx	#$4
    1a8c: 86 13        	stx	$13                     ; 0x13 <__rc3>
    1a8e: a2 00        	ldx	#$0
    1a90: 20 08 6e     	jsr	$6e08 <__mulhi3>
    1a93: 85 12        	sta	$12                     ; 0x12 <__rc2>
    1a95: 86 13        	stx	$13                     ; 0x13 <__rc3>
    1a97: 18           	clc
    1a98: a9 ac        	lda	#$ac
    1a9a: 65 12        	adc	$12                     ; 0x12 <__rc2>
    1a9c: 85 25        	sta	$25                     ; 0x25 <__rc21>
    1a9e: a9 71        	lda	#$71
    1aa0: 65 13        	adc	$13                     ; 0x13 <__rc3>
    1aa2: 85 24        	sta	$24                     ; 0x24 <__rc20>
    1aa4: a0 05        	ldy	#$5
    1aa6: b1 10        	lda	($10),y                 ; 0x10 <__rc0>
    1aa8: 85 12        	sta	$12                     ; 0x12 <__rc2>
    1aaa: c8           	iny
    1aab: b1 10        	lda	($10),y                 ; 0x10 <__rc0>
    1aad: 85 13        	sta	$13                     ; 0x13 <__rc3>
    1aaf: b2 12        	lda	($12)                   ; 0x12 <__rc2>
    1ab1: a2 5f        	ldx	#$5f
    1ab3: 86 12        	stx	$12                     ; 0x12 <__rc2>
    1ab5: 64 13        	stz	$13                     ; 0x13 <__rc3>
    1ab7: a2 00        	ldx	#$0
    1ab9: 20 08 6e     	jsr	$6e08 <__mulhi3>
    1abc: 85 12        	sta	$12                     ; 0x12 <__rc2>
    1abe: 86 13        	stx	$13                     ; 0x13 <__rc3>
    1ac0: 18           	clc
    1ac1: a5 25        	lda	$25                     ; 0x25 <__rc21>
    1ac3: 65 12        	adc	$12                     ; 0x12 <__rc2>
    1ac5: aa           	tax
    1ac6: a5 24        	lda	$24                     ; 0x24 <__rc20>
    1ac8: 65 13        	adc	$13                     ; 0x13 <__rc3>
    1aca: 85 14        	sta	$14                     ; 0x14 <__rc4>
    1acc: 18           	clc
    1acd: a5 10        	lda	$10                     ; 0x10 <__rc0>
    1acf: 69 13        	adc	#$13
    1ad1: 85 12        	sta	$12                     ; 0x12 <__rc2>
    1ad3: a5 11        	lda	$11                     ; 0x11 <__rc1>
    1ad5: 69 00        	adc	#$0
    1ad7: 85 13        	sta	$13                     ; 0x13 <__rc3>
    1ad9: 18           	clc
    1ada: 8a           	txa
    1adb: 72 12        	adc	($12)                   ; 0x12 <__rc2>
    1add: aa           	tax
    1ade: a0 01        	ldy	#$1
    1ae0: a5 14        	lda	$14                     ; 0x14 <__rc4>
    1ae2: 71 12        	adc	($12),y                 ; 0x12 <__rc2>
    1ae4: 86 12        	stx	$12                     ; 0x12 <__rc2>
    1ae6: 85 13        	sta	$13                     ; 0x13 <__rc3>
    1ae8: a0 14        	ldy	#$14
    1aea: a9 00        	lda	#$0
    1aec: 91 12        	sta	($12),y                 ; 0x12 <__rc2>
    1aee: a0 03        	ldy	#$3
    1af0: b1 10        	lda	($10),y                 ; 0x10 <__rc0>
    1af2: 85 12        	sta	$12                     ; 0x12 <__rc2>
    1af4: c8           	iny
    1af5: b1 10        	lda	($10),y                 ; 0x10 <__rc0>
    1af7: 85 13        	sta	$13                     ; 0x13 <__rc3>
    1af9: b2 12        	lda	($12)                   ; 0x12 <__rc2>
    1afb: a2 75        	ldx	#$75
    1afd: 86 12        	stx	$12                     ; 0x12 <__rc2>
    1aff: a2 04        	ldx	#$4
    1b01: 86 13        	stx	$13                     ; 0x13 <__rc3>
    1b03: a2 00        	ldx	#$0
    1b05: 20 08 6e     	jsr	$6e08 <__mulhi3>
    1b08: 85 12        	sta	$12                     ; 0x12 <__rc2>
    1b0a: 86 13        	stx	$13                     ; 0x13 <__rc3>
    1b0c: 18           	clc
    1b0d: a9 ac        	lda	#$ac
    1b0f: 65 12        	adc	$12                     ; 0x12 <__rc2>
    1b11: 85 25        	sta	$25                     ; 0x25 <__rc21>
    1b13: a9 71        	lda	#$71
    1b15: 65 13        	adc	$13                     ; 0x13 <__rc3>
    1b17: 85 24        	sta	$24                     ; 0x24 <__rc20>
    1b19: a0 05        	ldy	#$5
    1b1b: b1 10        	lda	($10),y                 ; 0x10 <__rc0>
    1b1d: 85 12        	sta	$12                     ; 0x12 <__rc2>
    1b1f: c8           	iny
    1b20: b1 10        	lda	($10),y                 ; 0x10 <__rc0>
    1b22: 85 13        	sta	$13                     ; 0x13 <__rc3>
    1b24: b2 12        	lda	($12)                   ; 0x12 <__rc2>
    1b26: a2 5f        	ldx	#$5f
    1b28: 86 12        	stx	$12                     ; 0x12 <__rc2>
    1b2a: 64 13        	stz	$13                     ; 0x13 <__rc3>
    1b2c: a2 00        	ldx	#$0
    1b2e: 20 08 6e     	jsr	$6e08 <__mulhi3>
    1b31: 85 12        	sta	$12                     ; 0x12 <__rc2>
    1b33: 86 13        	stx	$13                     ; 0x13 <__rc3>
    1b35: 18           	clc
    1b36: a5 25        	lda	$25                     ; 0x25 <__rc21>
    1b38: 65 12        	adc	$12                     ; 0x12 <__rc2>
    1b3a: aa           	tax
    1b3b: a5 24        	lda	$24                     ; 0x24 <__rc20>
    1b3d: 65 13        	adc	$13                     ; 0x13 <__rc3>
    1b3f: a8           	tay
    1b40: 18           	clc
    1b41: a5 10        	lda	$10                     ; 0x10 <__rc0>
    1b43: 69 11        	adc	#$11
    1b45: 85 12        	sta	$12                     ; 0x12 <__rc2>
    1b47: a5 11        	lda	$11                     ; 0x11 <__rc1>
    1b49: 69 00        	adc	#$0
    1b4b: 85 13        	sta	$13                     ; 0x13 <__rc3>
    1b4d: 18           	clc
    1b4e: 8a           	txa
    1b4f: 72 12        	adc	($12)                   ; 0x12 <__rc2>
    1b51: aa           	tax
    1b52: 98           	tya
    1b53: a0 01        	ldy	#$1
    1b55: 71 12        	adc	($12),y                 ; 0x12 <__rc2>
    1b57: 86 12        	stx	$12                     ; 0x12 <__rc2>
    1b59: 85 13        	sta	$13                     ; 0x13 <__rc3>
    1b5b: a0 37        	ldy	#$37
    1b5d: a9 00        	lda	#$0
    1b5f: 91 12        	sta	($12),y                 ; 0x12 <__rc2>
    1b61: a0 03        	ldy	#$3
    1b63: b1 10        	lda	($10),y                 ; 0x10 <__rc0>
    1b65: 85 12        	sta	$12                     ; 0x12 <__rc2>
    1b67: c8           	iny
    1b68: b1 10        	lda	($10),y                 ; 0x10 <__rc0>
    1b6a: 85 13        	sta	$13                     ; 0x13 <__rc3>
    1b6c: b2 12        	lda	($12)                   ; 0x12 <__rc2>
    1b6e: a2 75        	ldx	#$75
    1b70: 86 12        	stx	$12                     ; 0x12 <__rc2>
    1b72: a2 04        	ldx	#$4
    1b74: 86 13        	stx	$13                     ; 0x13 <__rc3>
    1b76: a2 00        	ldx	#$0
    1b78: 20 08 6e     	jsr	$6e08 <__mulhi3>
    1b7b: 85 12        	sta	$12                     ; 0x12 <__rc2>
    1b7d: 86 13        	stx	$13                     ; 0x13 <__rc3>
    1b7f: a9 ac        	lda	#$ac
    1b81: 18           	clc
    1b82: 65 12        	adc	$12                     ; 0x12 <__rc2>
    1b84: a8           	tay
    1b85: a9 71        	lda	#$71
    1b87: 65 13        	adc	$13                     ; 0x13 <__rc3>
    1b89: aa           	tax
    1b8a: 98           	tya
    1b8b: 18           	clc
    1b8c: 69 74        	adc	#$74
    1b8e: 85 12        	sta	$12                     ; 0x12 <__rc2>
    1b90: 8a           	txa
    1b91: 69 04        	adc	#$4
    1b93: 85 13        	sta	$13                     ; 0x13 <__rc3>
    1b95: b2 12        	lda	($12)                   ; 0x12 <__rc2>
    1b97: 1a           	inc
    1b98: 92 12        	sta	($12)                   ; 0x12 <__rc2>
    1b9a: fa           	plx
    1b9b: 86 25        	stx	$25                     ; 0x25 <__rc21>
    1b9d: fa           	plx
    1b9e: 86 24        	stx	$24                     ; 0x24 <__rc20>
    1ba0: 18           	clc
    1ba1: a5 10        	lda	$10                     ; 0x10 <__rc0>
    1ba3: 69 19        	adc	#$19
    1ba5: 85 10        	sta	$10                     ; 0x10 <__rc0>
    1ba7: a5 11        	lda	$11                     ; 0x11 <__rc1>
    1ba9: 69 00        	adc	#$0
    1bab: 85 11        	sta	$11                     ; 0x11 <__rc1>
    1bad: 60           	rts

00001bae <sendAME>:
    1bae: 85 14        	sta	$14                     ; 0x14 <__rc4>
    1bb0: 86 16        	stx	$16                     ; 0x16 <__rc6>
    1bb2: a6 13        	ldx	$13                     ; 0x13 <__rc3>
    1bb4: 29 0f        	and	#$f
    1bb6: 85 17        	sta	$17                     ; 0x17 <__rc7>
    1bb8: a8           	tay
    1bb9: a9 0f        	lda	#$f
    1bbb: 39 4f 00     	and	$4f,y                   ; 0x4f <chipXChannel>
    1bbe: 85 15        	sta	$15                     ; 0x15 <__rc5>
    1bc0: a4 14        	ldy	$14                     ; 0x14 <__rc4>
    1bc2: 84 13        	sty	$13                     ; 0x13 <__rc3>
    1bc4: a5 14        	lda	$14                     ; 0x14 <__rc4>
    1bc6: 29 f0        	and	#$f0
    1bc8: 85 14        	sta	$14                     ; 0x14 <__rc4>
    1bca: c9 c0        	cmp	#$c0
    1bcc: d0 0a        	bne	$1bd8 <sendAME+0x2a>
    1bce: a4 13        	ldy	$13                     ; 0x13 <__rc3>
    1bd0: 8c b1 dd     	sty	$ddb1                   ; 0xddb1 <__heap_start+0x5ea5>
    1bd3: a4 16        	ldy	$16                     ; 0x16 <__rc6>
    1bd5: 8c b1 dd     	sty	$ddb1                   ; 0xddb1 <__heap_start+0x5ea5>
    1bd8: a4 15        	ldy	$15                     ; 0x15 <__rc5>
    1bda: c0 04        	cpy	#$4
    1bdc: f0 04        	beq	$1be2 <sendAME+0x34>
    1bde: c0 00        	cpy	#$0
    1be0: d0 30        	bne	$1c12 <sendAME+0x64>
    1be2: a8           	tay
    1be3: c0 90        	cpy	#$90
    1be5: d0 14        	bne	$1bfb <sendAME+0x4d>
    1be7: a5 3f        	lda	$3f                     ; 0x3f <doneWithFudge>
    1be9: 29 01        	and	#$1
    1beb: d0 0e        	bne	$1bfb <sendAME+0x4d>
    1bed: a4 5f        	ldy	$5f                     ; 0x5f <fudge>
    1bef: e6 5f        	inc	$5f                     ; 0x5f <fudge>
    1bf1: 98           	tya
    1bf2: d0 03        	bne	$1bf7 <sendAME+0x49>
    1bf4: 4c 91 1e     	jmp	$1e91 <sendAME+0x2e3>
    1bf7: a0 01        	ldy	#$1
    1bf9: 84 3f        	sty	$3f                     ; 0x3f <doneWithFudge>
    1bfb: a4 13        	ldy	$13                     ; 0x13 <__rc3>
    1bfd: 8c a1 dd     	sty	$dda1                   ; 0xdda1 <__heap_start+0x5e95>
    1c00: a4 16        	ldy	$16                     ; 0x16 <__rc6>
    1c02: 8c a1 dd     	sty	$dda1                   ; 0xdda1 <__heap_start+0x5e95>
    1c05: e0 03        	cpx	#$3
    1c07: f0 03        	beq	$1c0c <sendAME+0x5e>
    1c09: 4c 91 1e     	jmp	$1e91 <sendAME+0x2e3>
    1c0c: a6 12        	ldx	$12                     ; 0x12 <__rc2>
    1c0e: 8e a1 dd     	stx	$dda1                   ; 0xdda1 <__heap_start+0x5e95>
    1c11: 60           	rts
    1c12: e0 03        	cpx	#$3
    1c14: f0 03        	beq	$1c19 <sendAME+0x6b>
    1c16: 4c 91 1e     	jmp	$1e91 <sendAME+0x2e3>
    1c19: a5 13        	lda	$13                     ; 0x13 <__rc3>
    1c1b: 38           	sec
    1c1c: e9 90        	sbc	#$90
    1c1e: 50 02        	bvc	$1c22 <sendAME+0x74>
    1c20: 49 80        	eor	#$80
    1c22: 2c aa 6e     	bit	$6eaa                   ; 0x6eaa <__set_v>
    1c25: aa           	tax
    1c26: 30 12        	bmi	$1c3a <sendAME+0x8c>
    1c28: a6 14        	ldx	$14                     ; 0x14 <__rc4>
    1c2a: e0 90        	cpx	#$90
    1c2c: d0 04        	bne	$1c32 <sendAME+0x84>
    1c2e: a5 12        	lda	$12                     ; 0x12 <__rc2>
    1c30: f0 08        	beq	$1c3a <sendAME+0x8c>
    1c32: b8           	clv
    1c33: a5 16        	lda	$16                     ; 0x16 <__rc6>
    1c35: d0 03        	bne	$1c3a <sendAME+0x8c>
    1c37: 4c 91 1e     	jmp	$1e91 <sendAME+0x2e3>
    1c3a: a6 17        	ldx	$17                     ; 0x17 <__rc7>
    1c3c: b4 4f        	ldy	$4f,x                   ; 0x4f <chipXChannel>
    1c3e: 98           	tya
    1c3f: 29 0f        	and	#$f
    1c41: c9 05        	cmp	#$5
    1c43: 90 03        	bcc	$1c48 <sendAME+0x9a>
    1c45: 4c 91 1e     	jmp	$1e91 <sendAME+0x2e3>
    1c48: 84 14        	sty	$14                     ; 0x14 <__rc4>
    1c4a: 46 14        	lsr	$14                     ; 0x14 <__rc4>
    1c4c: 46 14        	lsr	$14                     ; 0x14 <__rc4>
    1c4e: 46 14        	lsr	$14                     ; 0x14 <__rc4>
    1c50: 46 14        	lsr	$14                     ; 0x14 <__rc4>
    1c52: 85 13        	sta	$13                     ; 0x13 <__rc3>
    1c54: 06 13        	asl	$13                     ; 0x13 <__rc3>
    1c56: a6 13        	ldx	$13                     ; 0x13 <__rc3>
    1c58: 7c b3 6e     	jmp	($6eb3,x)               ; 0x6eb3 <__set_v+0x9>
    1c5b: a2 b1        	ldx	#$b1
    1c5d: 86 18        	stx	$18                     ; 0x18 <__rc8>
    1c5f: a2 dd        	ldx	#$dd
    1c61: 86 19        	stx	$19                     ; 0x19 <__rc9>
    1c63: a2 a1        	ldx	#$a1
    1c65: 86 14        	stx	$14                     ; 0x14 <__rc4>
    1c67: a2 dd        	ldx	#$dd
    1c69: 86 15        	stx	$15                     ; 0x15 <__rc5>
    1c6b: 70 03        	bvs	$1c70 <sendAME+0xc2>
    1c6d: 4c f3 1d     	jmp	$1df3 <sendAME+0x245>
    1c70: c9 04        	cmp	#$4
    1c72: f0 08        	beq	$1c7c <sendAME+0xce>
    1c74: a2 a1        	ldx	#$a1
    1c76: 86 18        	stx	$18                     ; 0x18 <__rc8>
    1c78: a2 dd        	ldx	#$dd
    1c7a: 86 19        	stx	$19                     ; 0x19 <__rc9>
    1c7c: a5 17        	lda	$17                     ; 0x17 <__rc7>
    1c7e: 09 80        	ora	#$80
    1c80: 4c 03 1e     	jmp	$1e03 <sendAME+0x255>
    1c83: 84 88        	sty	$88                     ; 0x88 <__zp_bss_size+0x44>
    1c85: a6 14        	ldx	$14                     ; 0x14 <__rc4>
    1c87: 86 87        	stx	$87                     ; 0x87 <__zp_bss_size+0x43>
    1c89: a2 80        	ldx	#$80
    1c8b: 86 12        	stx	$12                     ; 0x12 <__rc2>
    1c8d: a2 d5        	ldx	#$d5
    1c8f: 86 13        	stx	$13                     ; 0x13 <__rc3>
    1c91: a6 12        	ldx	$12                     ; 0x12 <__rc2>
    1c93: 86 85        	stx	$85                     ; 0x85 <__zp_bss_size+0x41>
    1c95: a6 13        	ldx	$13                     ; 0x13 <__rc3>
    1c97: 86 86        	stx	$86                     ; 0x86 <__zp_bss_size+0x42>
    1c99: a2 82        	ldx	#$82
    1c9b: 86 12        	stx	$12                     ; 0x12 <__rc2>
    1c9d: a2 d5        	ldx	#$d5
    1c9f: 86 13        	stx	$13                     ; 0x13 <__rc3>
    1ca1: a6 12        	ldx	$12                     ; 0x12 <__rc2>
    1ca3: 86 83        	stx	$83                     ; 0x83 <__zp_bss_size+0x3f>
    1ca5: a6 13        	ldx	$13                     ; 0x13 <__rc3>
    1ca7: 86 84        	stx	$84                     ; 0x84 <__zp_bss_size+0x40>
    1ca9: 18           	clc
    1caa: a5 16        	lda	$16                     ; 0x16 <__rc6>
    1cac: a2 01        	ldx	#$1
    1cae: 70 02        	bvs	$1cb2 <sendAME+0x104>
    1cb0: a2 00        	ldx	#$0
    1cb2: 86 89        	stx	$89                     ; 0x89 <__zp_bss_size+0x45>
    1cb4: 69 05        	adc	#$5
    1cb6: 85 17        	sta	$17                     ; 0x17 <__rc7>
    1cb8: 64 13        	stz	$13                     ; 0x13 <__rc3>
    1cba: a9 00        	lda	#$0
    1cbc: 69 00        	adc	#$0
    1cbe: a2 81        	ldx	#$81
    1cc0: a0 00        	ldy	#$0
    1cc2: 86 14        	stx	$14                     ; 0x14 <__rc4>
    1cc4: 84 15        	sty	$15                     ; 0x15 <__rc5>
    1cc6: a2 0c        	ldx	#$c
    1cc8: 86 12        	stx	$12                     ; 0x12 <__rc2>
    1cca: aa           	tax
    1ccb: a5 17        	lda	$17                     ; 0x17 <__rc7>
    1ccd: 20 31 6d     	jsr	$6d31 <__udivmodhi4>
    1cd0: aa           	tax
    1cd1: a5 81        	lda	$81                     ; 0x81 <__zp_bss_size+0x3d>
    1cd3: a4 82        	ldy	$82                     ; 0x82 <__zp_bss_size+0x3e>
    1cd5: 0a           	asl
    1cd6: 85 12        	sta	$12                     ; 0x12 <__rc2>
    1cd8: 84 13        	sty	$13                     ; 0x13 <__rc3>
    1cda: 26 13        	rol	$13                     ; 0x13 <__rc3>
    1cdc: a9 4e        	lda	#$4e
    1cde: 18           	clc
    1cdf: 65 12        	adc	$12                     ; 0x12 <__rc2>
    1ce1: 85 12        	sta	$12                     ; 0x12 <__rc2>
    1ce3: a9 70        	lda	#$70
    1ce5: 65 13        	adc	$13                     ; 0x13 <__rc3>
    1ce7: a0 01        	ldy	#$1
    1ce9: 85 13        	sta	$13                     ; 0x13 <__rc3>
    1ceb: 18           	clc
    1cec: 8a           	txa
    1ced: 69 fe        	adc	#$fe
    1cef: 85 1a        	sta	$1a                     ; 0x1a <__rc10>
    1cf1: b2 12        	lda	($12)                   ; 0x12 <__rc2>
    1cf3: 85 1c        	sta	$1c                     ; 0x1c <__rc12>
    1cf5: b1 12        	lda	($12),y                 ; 0x12 <__rc2>
    1cf7: 85 1b        	sta	$1b                     ; 0x1b <__rc11>
    1cf9: a6 89        	ldx	$89                     ; 0x89 <__zp_bss_size+0x45>
    1cfb: d0 03        	bne	$1d00 <sendAME+0x152>
    1cfd: 4c 17 1e     	jmp	$1e17 <sendAME+0x269>
    1d00: a6 88        	ldx	$88                     ; 0x88 <__zp_bss_size+0x44>
    1d02: e0 90        	cpx	#$90
    1d04: 64 12        	stz	$12                     ; 0x12 <__rc2>
    1d06: 64 14        	stz	$14                     ; 0x14 <__rc4>
    1d08: 64 13        	stz	$13                     ; 0x13 <__rc3>
    1d0a: 90 06        	bcc	$1d12 <sendAME+0x164>
    1d0c: a2 09        	ldx	#$9
    1d0e: 84 12        	sty	$12                     ; 0x12 <__rc2>
    1d10: 86 14        	stx	$14                     ; 0x14 <__rc4>
    1d12: 38           	sec
    1d13: a5 87        	lda	$87                     ; 0x87 <__zp_bss_size+0x43>
    1d15: e5 14        	sbc	$14                     ; 0x14 <__rc4>
    1d17: aa           	tax
    1d18: a9 00        	lda	#$0
    1d1a: e5 13        	sbc	$13                     ; 0x13 <__rc3>
    1d1c: 05 12        	ora	$12                     ; 0x12 <__rc2>
    1d1e: a8           	tay
    1d1f: 8a           	txa
    1d20: 86 16        	stx	$16                     ; 0x16 <__rc6>
    1d22: 09 a0        	ora	#$a0
    1d24: a6 85        	ldx	$85                     ; 0x85 <__zp_bss_size+0x41>
    1d26: 86 12        	stx	$12                     ; 0x12 <__rc2>
    1d28: a6 86        	ldx	$86                     ; 0x86 <__zp_bss_size+0x42>
    1d2a: 86 13        	stx	$13                     ; 0x13 <__rc3>
    1d2c: a6 83        	ldx	$83                     ; 0x83 <__zp_bss_size+0x3f>
    1d2e: 86 14        	stx	$14                     ; 0x14 <__rc4>
    1d30: a6 84        	ldx	$84                     ; 0x84 <__zp_bss_size+0x40>
    1d32: 86 15        	stx	$15                     ; 0x15 <__rc5>
    1d34: c0 01        	cpy	#$1
    1d36: f0 03        	beq	$1d3b <sendAME+0x18d>
    1d38: 4c 2c 1e     	jmp	$1e2c <sendAME+0x27e>
    1d3b: a6 16        	ldx	$16                     ; 0x16 <__rc6>
    1d3d: e0 00        	cpx	#$0
    1d3f: 90 08        	bcc	$1d49 <sendAME+0x19b>
    1d41: a6 14        	ldx	$14                     ; 0x14 <__rc4>
    1d43: 86 12        	stx	$12                     ; 0x12 <__rc2>
    1d45: a6 15        	ldx	$15                     ; 0x15 <__rc5>
    1d47: 86 13        	stx	$13                     ; 0x13 <__rc3>
    1d49: 92 12        	sta	($12)                   ; 0x12 <__rc2>
    1d4b: a6 1c        	ldx	$1c                     ; 0x1c <__rc12>
    1d4d: 8e 81 d5     	stx	$d581                   ; 0xd581 <__heap_start+0x5675>
    1d50: a5 1b        	lda	$1b                     ; 0x1b <__rc11>
    1d52: 29 03        	and	#$3
    1d54: 85 14        	sta	$14                     ; 0x14 <__rc4>
    1d56: a5 1a        	lda	$1a                     ; 0x1a <__rc10>
    1d58: 0a           	asl
    1d59: 0a           	asl
    1d5a: 05 14        	ora	$14                     ; 0x14 <__rc4>
    1d5c: 4c 87 1e     	jmp	$1e87 <sendAME+0x2d9>
    1d5f: a2 01        	ldx	#$1
    1d61: 70 02        	bvs	$1d65 <sendAME+0x1b7>
    1d63: a2 00        	ldx	#$0
    1d65: 86 18        	stx	$18                     ; 0x18 <__rc8>
    1d67: c0 30        	cpy	#$30
    1d69: a2 d5        	ldx	#$d5
    1d6b: 86 13        	stx	$13                     ; 0x13 <__rc3>
    1d6d: b0 04        	bcs	$1d73 <sendAME+0x1c5>
    1d6f: a2 d4        	ldx	#$d4
    1d71: 86 13        	stx	$13                     ; 0x13 <__rc3>
    1d73: a6 14        	ldx	$14                     ; 0x14 <__rc4>
    1d75: b5 30        	lda	$30,x                   ; 0x30 <sidChoiceToVoice>
    1d77: aa           	tax
    1d78: a4 16        	ldy	$16                     ; 0x16 <__rc6>
    1d7a: b9 db 70     	lda	$70db,y                 ; 0x70db <psgHigh+0x35>
    1d7d: 86 12        	stx	$12                     ; 0x12 <__rc2>
    1d7f: 92 12        	sta	($12)                   ; 0x12 <__rc2>
    1d81: b9 d0 6f     	lda	$6fd0,y                 ; 0x6fd0 <catNames+0x19>
    1d84: a4 13        	ldy	$13                     ; 0x13 <__rc3>
    1d86: 84 17        	sty	$17                     ; 0x17 <__rc7>
    1d88: e8           	inx
    1d89: d0 02        	bne	$1d8d <sendAME+0x1df>
    1d8b: e6 17        	inc	$17                     ; 0x17 <__rc7>
    1d8d: 86 16        	stx	$16                     ; 0x16 <__rc6>
    1d8f: 92 16        	sta	($16)                   ; 0x16 <__rc6>
    1d91: a5 14        	lda	$14                     ; 0x14 <__rc4>
    1d93: 0a           	asl
    1d94: 0a           	asl
    1d95: 0a           	asl
    1d96: 18           	clc
    1d97: 65 14        	adc	$14                     ; 0x14 <__rc4>
    1d99: 85 14        	sta	$14                     ; 0x14 <__rc4>
    1d9b: a9 00        	lda	#$0
    1d9d: 69 00        	adc	#$0
    1d9f: 85 15        	sta	$15                     ; 0x15 <__rc5>
    1da1: a9 76        	lda	#$76
    1da3: 18           	clc
    1da4: 65 14        	adc	$14                     ; 0x14 <__rc4>
    1da6: 85 14        	sta	$14                     ; 0x14 <__rc4>
    1da8: a9 71        	lda	#$71
    1daa: 65 15        	adc	$15                     ; 0x15 <__rc5>
    1dac: 85 15        	sta	$15                     ; 0x15 <__rc5>
    1dae: a0 05        	ldy	#$5
    1db0: b1 14        	lda	($14),y                 ; 0x14 <__rc4>
    1db2: a6 18        	ldx	$18                     ; 0x18 <__rc8>
    1db4: d0 03        	bne	$1db9 <sendAME+0x20b>
    1db6: 4c 25 1e     	jmp	$1e25 <sendAME+0x277>
    1db9: 29 fe        	and	#$fe
    1dbb: 4c 27 1e     	jmp	$1e27 <sendAME+0x279>
    1dbe: a5 14        	lda	$14                     ; 0x14 <__rc4>
    1dc0: 0a           	asl
    1dc1: aa           	tax
    1dc2: bc ab 6f     	ldy	$6fab,x                 ; 0x6fab <psgChoiceToVoice>
    1dc5: bd ac 6f     	lda	$6fac,x                 ; 0x6fac <psgChoiceToVoice+0x1>
    1dc8: aa           	tax
    1dc9: 84 12        	sty	$12                     ; 0x12 <__rc2>
    1dcb: 86 13        	stx	$13                     ; 0x13 <__rc3>
    1dcd: 70 3f        	bvs	$1e0e <sendAME+0x260>
    1dcf: a6 16        	ldx	$16                     ; 0x16 <__rc6>
    1dd1: e0 2d        	cpx	#$2d
    1dd3: 90 39        	bcc	$1e0e <sendAME+0x260>
    1dd5: a6 14        	ldx	$14                     ; 0x14 <__rc4>
    1dd7: b5 36        	lda	$36,x                   ; 0x36 <polyPSGChanBits>
    1dd9: 85 14        	sta	$14                     ; 0x14 <__rc4>
    1ddb: a6 16        	ldx	$16                     ; 0x16 <__rc6>
    1ddd: bc 45 70     	ldy	$7045,x                 ; 0x7045 <sidHigh+0x6a>
    1de0: 48           	pha
    1de1: bd 85 70     	lda	$7085,x                 ; 0x7085 <psgLow+0x1f>
    1de4: aa           	tax
    1de5: 68           	pla
    1de6: 09 93        	ora	#$93
    1de8: 92 12        	sta	($12)                   ; 0x12 <__rc2>
    1dea: 98           	tya
    1deb: 05 14        	ora	$14                     ; 0x14 <__rc4>
    1ded: 92 12        	sta	($12)                   ; 0x12 <__rc2>
    1def: 8a           	txa
    1df0: 92 12        	sta	($12)                   ; 0x12 <__rc2>
    1df2: 60           	rts
    1df3: c9 04        	cmp	#$4
    1df5: f0 08        	beq	$1dff <sendAME+0x251>
    1df7: a2 a1        	ldx	#$a1
    1df9: 86 18        	stx	$18                     ; 0x18 <__rc8>
    1dfb: a2 dd        	ldx	#$dd
    1dfd: 86 19        	stx	$19                     ; 0x19 <__rc9>
    1dff: a5 17        	lda	$17                     ; 0x17 <__rc7>
    1e01: 09 90        	ora	#$90
    1e03: 92 18        	sta	($18)                   ; 0x18 <__rc8>
    1e05: a5 16        	lda	$16                     ; 0x16 <__rc6>
    1e07: 92 18        	sta	($18)                   ; 0x18 <__rc8>
    1e09: a5 12        	lda	$12                     ; 0x12 <__rc2>
    1e0b: 92 18        	sta	($18)                   ; 0x18 <__rc8>
    1e0d: 60           	rts
    1e0e: a9 9f        	lda	#$9f
    1e10: a6 14        	ldx	$14                     ; 0x14 <__rc4>
    1e12: 15 36        	ora	$36,x                   ; 0x36 <polyPSGChanBits>
    1e14: 92 12        	sta	($12)                   ; 0x12 <__rc2>
    1e16: 60           	rts
    1e17: a6 88        	ldx	$88                     ; 0x88 <__zp_bss_size+0x44>
    1e19: e0 90        	cpx	#$90
    1e1b: 90 19        	bcc	$1e36 <sendAME+0x288>
    1e1d: a2 09        	ldx	#$9
    1e1f: 84 16        	sty	$16                     ; 0x16 <__rc6>
    1e21: 86 17        	stx	$17                     ; 0x17 <__rc7>
    1e23: 80 15        	bra	$1e3a <sendAME+0x28c>
    1e25: 09 01        	ora	#$1
    1e27: a0 04        	ldy	#$4
    1e29: 91 12        	sta	($12),y                 ; 0x12 <__rc2>
    1e2b: 60           	rts
    1e2c: c0 01        	cpy	#$1
    1e2e: 90 03        	bcc	$1e33 <sendAME+0x285>
    1e30: 4c 41 1d     	jmp	$1d41 <sendAME+0x193>
    1e33: 4c 49 1d     	jmp	$1d49 <sendAME+0x19b>
    1e36: 64 16        	stz	$16                     ; 0x16 <__rc6>
    1e38: 64 17        	stz	$17                     ; 0x17 <__rc7>
    1e3a: 64 18        	stz	$18                     ; 0x18 <__rc8>
    1e3c: a6 85        	ldx	$85                     ; 0x85 <__zp_bss_size+0x41>
    1e3e: 86 12        	stx	$12                     ; 0x12 <__rc2>
    1e40: a6 86        	ldx	$86                     ; 0x86 <__zp_bss_size+0x42>
    1e42: 86 13        	stx	$13                     ; 0x13 <__rc3>
    1e44: a6 87        	ldx	$87                     ; 0x87 <__zp_bss_size+0x43>
    1e46: 86 19        	stx	$19                     ; 0x19 <__rc9>
    1e48: a6 83        	ldx	$83                     ; 0x83 <__zp_bss_size+0x3f>
    1e4a: 86 14        	stx	$14                     ; 0x14 <__rc4>
    1e4c: a6 84        	ldx	$84                     ; 0x84 <__zp_bss_size+0x40>
    1e4e: 86 15        	stx	$15                     ; 0x15 <__rc5>
    1e50: 38           	sec
    1e51: a5 19        	lda	$19                     ; 0x19 <__rc9>
    1e53: e5 17        	sbc	$17                     ; 0x17 <__rc7>
    1e55: aa           	tax
    1e56: a9 00        	lda	#$0
    1e58: e5 18        	sbc	$18                     ; 0x18 <__rc8>
    1e5a: 05 16        	ora	$16                     ; 0x16 <__rc6>
    1e5c: a8           	tay
    1e5d: 8a           	txa
    1e5e: 09 a0        	ora	#$a0
    1e60: c0 01        	cpy	#$1
    1e62: d0 2e        	bne	$1e92 <sendAME+0x2e4>
    1e64: 86 16        	stx	$16                     ; 0x16 <__rc6>
    1e66: e0 00        	cpx	#$0
    1e68: 90 08        	bcc	$1e72 <sendAME+0x2c4>
    1e6a: a6 14        	ldx	$14                     ; 0x14 <__rc4>
    1e6c: 86 12        	stx	$12                     ; 0x12 <__rc2>
    1e6e: a6 15        	ldx	$15                     ; 0x15 <__rc5>
    1e70: 86 13        	stx	$13                     ; 0x13 <__rc3>
    1e72: 92 12        	sta	($12)                   ; 0x12 <__rc2>
    1e74: a6 1c        	ldx	$1c                     ; 0x1c <__rc12>
    1e76: 8e 81 d5     	stx	$d581                   ; 0xd581 <__heap_start+0x5675>
    1e79: a5 1b        	lda	$1b                     ; 0x1b <__rc11>
    1e7b: 29 03        	and	#$3
    1e7d: 85 14        	sta	$14                     ; 0x14 <__rc4>
    1e7f: a5 1a        	lda	$1a                     ; 0x1a <__rc10>
    1e81: 0a           	asl
    1e82: 0a           	asl
    1e83: 05 14        	ora	$14                     ; 0x14 <__rc4>
    1e85: 09 20        	ora	#$20
    1e87: aa           	tax
    1e88: a5 16        	lda	$16                     ; 0x16 <__rc6>
    1e8a: 09 b0        	ora	#$b0
    1e8c: 92 12        	sta	($12)                   ; 0x12 <__rc2>
    1e8e: 8e 81 d5     	stx	$d581                   ; 0xd581 <__heap_start+0x5675>
    1e91: 60           	rts
    1e92: 84 17        	sty	$17                     ; 0x17 <__rc7>
    1e94: 86 16        	stx	$16                     ; 0x16 <__rc6>
    1e96: a6 17        	ldx	$17                     ; 0x17 <__rc7>
    1e98: e0 01        	cpx	#$1
    1e9a: b0 ce        	bcs	$1e6a <sendAME+0x2bc>
    1e9c: 80 d4        	bra	$1e72 <sendAME+0x2c4>

00001e9e <readDelta>:
    1e9e: 48           	pha
    1e9f: 18           	clc
    1ea0: a5 10        	lda	$10                     ; 0x10 <__rc0>
    1ea2: 69 f7        	adc	#$f7
    1ea4: 85 10        	sta	$10                     ; 0x10 <__rc0>
    1ea6: a5 11        	lda	$11                     ; 0x11 <__rc1>
    1ea8: 69 ff        	adc	#$ff
    1eaa: 85 11        	sta	$11                     ; 0x11 <__rc1>
    1eac: 68           	pla
    1ead: a6 24        	ldx	$24                     ; 0x24 <__rc20>
    1eaf: da           	phx
    1eb0: a6 25        	ldx	$25                     ; 0x25 <__rc21>
    1eb2: da           	phx
    1eb3: a6 26        	ldx	$26                     ; 0x26 <__rc22>
    1eb5: da           	phx
    1eb6: a6 27        	ldx	$27                     ; 0x27 <__rc23>
    1eb8: da           	phx
    1eb9: 48           	pha
    1eba: a5 28        	lda	$28                     ; 0x28 <__rc24>
    1ebc: a0 02        	ldy	#$2
    1ebe: 91 10        	sta	($10),y                 ; 0x10 <__rc0>
    1ec0: a5 29        	lda	$29                     ; 0x29 <__rc25>
    1ec2: 88           	dey
    1ec3: 91 10        	sta	($10),y                 ; 0x10 <__rc0>
    1ec5: a5 2a        	lda	$2a                     ; 0x2a <__rc26>
    1ec7: 88           	dey
    1ec8: 91 10        	sta	($10),y                 ; 0x10 <__rc0>
    1eca: 68           	pla
    1ecb: 85 25        	sta	$25                     ; 0x25 <__rc21>
    1ecd: a6 71        	ldx	$71                     ; 0x71 <theOne.8>
    1ecf: 86 27        	stx	$27                     ; 0x27 <__rc23>
    1ed1: a6 72        	ldx	$72                     ; 0x72 <theOne.8+0x1>
    1ed3: 86 26        	stx	$26                     ; 0x26 <__rc22>
    1ed5: 64 24        	stz	$24                     ; 0x24 <__rc20>
    1ed7: a2 19        	ldx	#$19
    1ed9: 86 12        	stx	$12                     ; 0x12 <__rc2>
    1edb: 64 13        	stz	$13                     ; 0x13 <__rc3>
    1edd: a2 00        	ldx	#$0
    1edf: 20 08 6e     	jsr	$6e08 <__mulhi3>
    1ee2: 85 12        	sta	$12                     ; 0x12 <__rc2>
    1ee4: 86 13        	stx	$13                     ; 0x13 <__rc3>
    1ee6: 18           	clc
    1ee7: a5 27        	lda	$27                     ; 0x27 <__rc23>
    1ee9: 65 12        	adc	$12                     ; 0x12 <__rc2>
    1eeb: a8           	tay
    1eec: a5 26        	lda	$26                     ; 0x26 <__rc22>
    1eee: 65 13        	adc	$13                     ; 0x13 <__rc3>
    1ef0: aa           	tax
    1ef1: 84 12        	sty	$12                     ; 0x12 <__rc2>
    1ef3: 85 13        	sta	$13                     ; 0x13 <__rc3>
    1ef5: 98           	tya
    1ef6: 18           	clc
    1ef7: 69 08        	adc	#$8
    1ef9: 85 14        	sta	$14                     ; 0x14 <__rc4>
    1efb: 8a           	txa
    1efc: 69 00        	adc	#$0
    1efe: 85 15        	sta	$15                     ; 0x15 <__rc5>
    1f00: 18           	clc
    1f01: 98           	tya
    1f02: 69 04        	adc	#$4
    1f04: 85 16        	sta	$16                     ; 0x16 <__rc6>
    1f06: 8a           	txa
    1f07: 69 00        	adc	#$0
    1f09: a0 04        	ldy	#$4
    1f0b: 85 17        	sta	$17                     ; 0x17 <__rc7>
    1f0d: b1 12        	lda	($12),y                 ; 0x12 <__rc2>
    1f0f: a2 04        	ldx	#$4
    1f11: 86 1d        	stx	$1d                     ; 0x1d <__rc13>
    1f13: 85 18        	sta	$18                     ; 0x18 <__rc8>
    1f15: a0 01        	ldy	#$1
    1f17: b1 16        	lda	($16),y                 ; 0x16 <__rc6>
    1f19: 85 1a        	sta	$1a                     ; 0x1a <__rc10>
    1f1b: a2 01        	ldx	#$1
    1f1d: 86 1b        	stx	$1b                     ; 0x1b <__rc11>
    1f1f: c8           	iny
    1f20: b1 16        	lda	($16),y                 ; 0x16 <__rc6>
    1f22: 85 19        	sta	$19                     ; 0x19 <__rc9>
    1f24: e8           	inx
    1f25: 86 1c        	stx	$1c                     ; 0x1c <__rc12>
    1f27: c8           	iny
    1f28: b1 16        	lda	($16),y                 ; 0x16 <__rc6>
    1f2a: e8           	inx
    1f2b: 86 1e        	stx	$1e                     ; 0x1e <__rc14>
    1f2d: a6 18        	ldx	$18                     ; 0x18 <__rc8>
    1f2f: a4 1a        	ldy	$1a                     ; 0x1a <__rc10>
    1f31: 84 1f        	sty	$1f                     ; 0x1f <__rc15>
    1f33: a4 19        	ldy	$19                     ; 0x19 <__rc9>
    1f35: 84 22        	sty	$22                     ; 0x22 <__rc18>
    1f37: e8           	inx
    1f38: d0 09        	bne	$1f43 <readDelta+0xa5>
    1f3a: e6 1f        	inc	$1f                     ; 0x1f <__rc15>
    1f3c: d0 05        	bne	$1f43 <readDelta+0xa5>
    1f3e: e6 22        	inc	$22                     ; 0x22 <__rc18>
    1f40: d0 01        	bne	$1f43 <readDelta+0xa5>
    1f42: 1a           	inc
    1f43: 85 23        	sta	$23                     ; 0x23 <__rc19>
    1f45: a4 1d        	ldy	$1d                     ; 0x1d <__rc13>
    1f47: 8a           	txa
    1f48: 91 12        	sta	($12),y                 ; 0x12 <__rc2>
    1f4a: a4 1b        	ldy	$1b                     ; 0x1b <__rc11>
    1f4c: a5 1f        	lda	$1f                     ; 0x1f <__rc15>
    1f4e: 91 16        	sta	($16),y                 ; 0x16 <__rc6>
    1f50: a4 1c        	ldy	$1c                     ; 0x1c <__rc12>
    1f52: a5 22        	lda	$22                     ; 0x22 <__rc18>
    1f54: 91 16        	sta	($16),y                 ; 0x16 <__rc6>
    1f56: a4 1e        	ldy	$1e                     ; 0x1e <__rc14>
    1f58: a5 23        	lda	$23                     ; 0x23 <__rc19>
    1f5a: 91 16        	sta	($16),y                 ; 0x16 <__rc6>
    1f5c: 18           	clc
    1f5d: a0 08        	ldy	#$8
    1f5f: a5 18        	lda	$18                     ; 0x18 <__rc8>
    1f61: 71 12        	adc	($12),y                 ; 0x12 <__rc2>
    1f63: 85 13        	sta	$13                     ; 0x13 <__rc3>
    1f65: a5 1a        	lda	$1a                     ; 0x1a <__rc10>
    1f67: a4 1b        	ldy	$1b                     ; 0x1b <__rc11>
    1f69: 71 14        	adc	($14),y                 ; 0x14 <__rc4>
    1f6b: 85 12        	sta	$12                     ; 0x12 <__rc2>
    1f6d: a2 02        	ldx	#$2
    1f6f: 86 27        	stx	$27                     ; 0x27 <__rc23>
    1f71: a5 19        	lda	$19                     ; 0x19 <__rc9>
    1f73: a4 1c        	ldy	$1c                     ; 0x1c <__rc12>
    1f75: 71 14        	adc	($14),y                 ; 0x14 <__rc4>
    1f77: 85 14        	sta	$14                     ; 0x14 <__rc4>
    1f79: a5 12        	lda	$12                     ; 0x12 <__rc2>
    1f7b: 06 12        	asl	$12                     ; 0x12 <__rc2>
    1f7d: 26 14        	rol	$14                     ; 0x14 <__rc4>
    1f7f: 06 12        	asl	$12                     ; 0x12 <__rc2>
    1f81: 26 14        	rol	$14                     ; 0x14 <__rc4>
    1f83: 06 12        	asl	$12                     ; 0x12 <__rc2>
    1f85: 26 14        	rol	$14                     ; 0x14 <__rc4>
    1f87: a4 14        	ldy	$14                     ; 0x14 <__rc4>
    1f89: a6 0f        	ldx	$f                      ; 0xf <__zp_data_size+0x2>
    1f8b: 78           	sei
    1f8c: 84 0f        	sty	$f                      ; 0xf <__zp_data_size+0x2>
    1f8e: a4 13        	ldy	$13                     ; 0x13 <__rc3>
    1f90: 84 12        	sty	$12                     ; 0x12 <__rc2>
    1f92: 09 e0        	ora	#$e0
    1f94: 85 13        	sta	$13                     ; 0x13 <__rc3>
    1f96: b2 12        	lda	($12)                   ; 0x12 <__rc2>
    1f98: 86 0f        	stx	$f                      ; 0xf <__zp_data_size+0x2>
    1f9a: 58           	cli
    1f9b: aa           	tax
    1f9c: 30 15        	bmi	$1fb3 <readDelta+0x115>
    1f9e: 64 26        	stz	$26                     ; 0x26 <__rc22>
    1fa0: 64 27        	stz	$27                     ; 0x27 <__rc23>
    1fa2: 64 13        	stz	$13                     ; 0x13 <__rc3>
    1fa4: 85 29        	sta	$29                     ; 0x29 <__rc25>
    1fa6: a9 00        	lda	#$0
    1fa8: 64 28        	stz	$28                     ; 0x28 <__rc24>
    1faa: 64 15        	stz	$15                     ; 0x15 <__rc5>
    1fac: 64 12        	stz	$12                     ; 0x12 <__rc2>
    1fae: 64 14        	stz	$14                     ; 0x14 <__rc4>
    1fb0: 4c 0f 23     	jmp	$230f <readDelta+0x471>
    1fb3: 4a           	lsr
    1fb4: aa           	tax
    1fb5: a9 00        	lda	#$0
    1fb7: 6a           	ror
    1fb8: 29 80        	and	#$80
    1fba: 85 2a        	sta	$2a                     ; 0x2a <__rc26>
    1fbc: 8a           	txa
    1fbd: 29 3f        	and	#$3f
    1fbf: 85 26        	sta	$26                     ; 0x26 <__rc22>
    1fc1: a6 71        	ldx	$71                     ; 0x71 <theOne.8>
    1fc3: 86 29        	stx	$29                     ; 0x29 <__rc25>
    1fc5: a6 72        	ldx	$72                     ; 0x72 <theOne.8+0x1>
    1fc7: 86 28        	stx	$28                     ; 0x28 <__rc24>
    1fc9: a2 19        	ldx	#$19
    1fcb: 86 12        	stx	$12                     ; 0x12 <__rc2>
    1fcd: 64 13        	stz	$13                     ; 0x13 <__rc3>
    1fcf: a2 00        	ldx	#$0
    1fd1: a5 25        	lda	$25                     ; 0x25 <__rc21>
    1fd3: 20 08 6e     	jsr	$6e08 <__mulhi3>
    1fd6: 85 12        	sta	$12                     ; 0x12 <__rc2>
    1fd8: 86 13        	stx	$13                     ; 0x13 <__rc3>
    1fda: a2 00        	ldx	#$0
    1fdc: 86 17        	stx	$17                     ; 0x17 <__rc7>
    1fde: 18           	clc
    1fdf: a5 29        	lda	$29                     ; 0x29 <__rc25>
    1fe1: 65 12        	adc	$12                     ; 0x12 <__rc2>
    1fe3: a8           	tay
    1fe4: a5 28        	lda	$28                     ; 0x28 <__rc24>
    1fe6: 65 13        	adc	$13                     ; 0x13 <__rc3>
    1fe8: aa           	tax
    1fe9: 98           	tya
    1fea: 84 12        	sty	$12                     ; 0x12 <__rc2>
    1fec: 86 13        	stx	$13                     ; 0x13 <__rc3>
    1fee: 84 18        	sty	$18                     ; 0x18 <__rc8>
    1ff0: 18           	clc
    1ff1: 69 04        	adc	#$4
    1ff3: 85 14        	sta	$14                     ; 0x14 <__rc4>
    1ff5: 8a           	txa
    1ff6: 86 19        	stx	$19                     ; 0x19 <__rc9>
    1ff8: 69 00        	adc	#$0
    1ffa: 85 15        	sta	$15                     ; 0x15 <__rc5>
    1ffc: a0 04        	ldy	#$4
    1ffe: b1 12        	lda	($12),y                 ; 0x12 <__rc2>
    2000: 84 1e        	sty	$1e                     ; 0x1e <__rc14>
    2002: 85 16        	sta	$16                     ; 0x16 <__rc6>
    2004: a0 01        	ldy	#$1
    2006: b1 14        	lda	($14),y                 ; 0x14 <__rc4>
    2008: 85 1c        	sta	$1c                     ; 0x1c <__rc12>
    200a: 84 1b        	sty	$1b                     ; 0x1b <__rc11>
    200c: a4 27        	ldy	$27                     ; 0x27 <__rc23>
    200e: b1 14        	lda	($14),y                 ; 0x14 <__rc4>
    2010: 85 1a        	sta	$1a                     ; 0x1a <__rc10>
    2012: 84 1d        	sty	$1d                     ; 0x1d <__rc13>
    2014: a0 03        	ldy	#$3
    2016: b1 14        	lda	($14),y                 ; 0x14 <__rc4>
    2018: 84 1f        	sty	$1f                     ; 0x1f <__rc15>
    201a: a6 16        	ldx	$16                     ; 0x16 <__rc6>
    201c: 86 23        	stx	$23                     ; 0x23 <__rc19>
    201e: a6 1c        	ldx	$1c                     ; 0x1c <__rc12>
    2020: a4 1a        	ldy	$1a                     ; 0x1a <__rc10>
    2022: 84 22        	sty	$22                     ; 0x22 <__rc18>
    2024: e6 23        	inc	$23                     ; 0x23 <__rc19>
    2026: d0 08        	bne	$2030 <readDelta+0x192>
    2028: e8           	inx
    2029: d0 05        	bne	$2030 <readDelta+0x192>
    202b: e6 22        	inc	$22                     ; 0x22 <__rc18>
    202d: d0 01        	bne	$2030 <readDelta+0x192>
    202f: 1a           	inc
    2030: 85 27        	sta	$27                     ; 0x27 <__rc23>
    2032: a4 1e        	ldy	$1e                     ; 0x1e <__rc14>
    2034: a5 23        	lda	$23                     ; 0x23 <__rc19>
    2036: 91 12        	sta	($12),y                 ; 0x12 <__rc2>
    2038: a4 1f        	ldy	$1f                     ; 0x1f <__rc15>
    203a: a5 27        	lda	$27                     ; 0x27 <__rc23>
    203c: 91 14        	sta	($14),y                 ; 0x14 <__rc4>
    203e: a4 1b        	ldy	$1b                     ; 0x1b <__rc11>
    2040: 8a           	txa
    2041: 91 14        	sta	($14),y                 ; 0x14 <__rc4>
    2043: a4 1d        	ldy	$1d                     ; 0x1d <__rc13>
    2045: a5 22        	lda	$22                     ; 0x22 <__rc18>
    2047: 91 14        	sta	($14),y                 ; 0x14 <__rc4>
    2049: 84 15        	sty	$15                     ; 0x15 <__rc5>
    204b: a0 08        	ldy	#$8
    204d: a5 16        	lda	$16                     ; 0x16 <__rc6>
    204f: a6 17        	ldx	$17                     ; 0x17 <__rc7>
    2051: e0 01        	cpx	#$1
    2053: 71 12        	adc	($12),y                 ; 0x12 <__rc2>
    2055: a2 01        	ldx	#$1
    2057: b0 02        	bcs	$205b <readDelta+0x1bd>
    2059: a2 00        	ldx	#$0
    205b: 85 14        	sta	$14                     ; 0x14 <__rc4>
    205d: 18           	clc
    205e: a5 18        	lda	$18                     ; 0x18 <__rc8>
    2060: 69 08        	adc	#$8
    2062: 85 12        	sta	$12                     ; 0x12 <__rc2>
    2064: a5 19        	lda	$19                     ; 0x19 <__rc9>
    2066: 69 00        	adc	#$0
    2068: 85 13        	sta	$13                     ; 0x13 <__rc3>
    206a: a5 1c        	lda	$1c                     ; 0x1c <__rc12>
    206c: e0 01        	cpx	#$1
    206e: a4 1b        	ldy	$1b                     ; 0x1b <__rc11>
    2070: 71 12        	adc	($12),y                 ; 0x12 <__rc2>
    2072: aa           	tax
    2073: a5 1a        	lda	$1a                     ; 0x1a <__rc10>
    2075: a4 15        	ldy	$15                     ; 0x15 <__rc5>
    2077: 71 12        	adc	($12),y                 ; 0x12 <__rc2>
    2079: 85 13        	sta	$13                     ; 0x13 <__rc3>
    207b: 8a           	txa
    207c: 86 12        	stx	$12                     ; 0x12 <__rc2>
    207e: 06 12        	asl	$12                     ; 0x12 <__rc2>
    2080: 26 13        	rol	$13                     ; 0x13 <__rc3>
    2082: 06 12        	asl	$12                     ; 0x12 <__rc2>
    2084: 26 13        	rol	$13                     ; 0x13 <__rc3>
    2086: 06 12        	asl	$12                     ; 0x12 <__rc2>
    2088: 26 13        	rol	$13                     ; 0x13 <__rc3>
    208a: a4 13        	ldy	$13                     ; 0x13 <__rc3>
    208c: a6 0f        	ldx	$f                      ; 0xf <__zp_data_size+0x2>
    208e: 78           	sei
    208f: 84 0f        	sty	$f                      ; 0xf <__zp_data_size+0x2>
    2091: a4 14        	ldy	$14                     ; 0x14 <__rc4>
    2093: 84 12        	sty	$12                     ; 0x12 <__rc2>
    2095: 09 e0        	ora	#$e0
    2097: 85 13        	sta	$13                     ; 0x13 <__rc3>
    2099: b2 12        	lda	($12)                   ; 0x12 <__rc2>
    209b: 86 0f        	stx	$f                      ; 0xf <__zp_data_size+0x2>
    209d: 58           	cli
    209e: aa           	tax
    209f: 30 13        	bmi	$20b4 <readDelta+0x216>
    20a1: 64 13        	stz	$13                     ; 0x13 <__rc3>
    20a3: 64 28        	stz	$28                     ; 0x28 <__rc24>
    20a5: 64 15        	stz	$15                     ; 0x15 <__rc5>
    20a7: 64 12        	stz	$12                     ; 0x12 <__rc2>
    20a9: 64 27        	stz	$27                     ; 0x27 <__rc23>
    20ab: 64 14        	stz	$14                     ; 0x14 <__rc4>
    20ad: a6 2a        	ldx	$2a                     ; 0x2a <__rc26>
    20af: 86 29        	stx	$29                     ; 0x29 <__rc25>
    20b1: 4c 0f 23     	jmp	$230f <readDelta+0x471>
    20b4: 4a           	lsr
    20b5: aa           	tax
    20b6: a9 00        	lda	#$0
    20b8: 6a           	ror
    20b9: 46 26        	lsr	$26                     ; 0x26 <__rc22>
    20bb: a4 26        	ldy	$26                     ; 0x26 <__rc22>
    20bd: 84 27        	sty	$27                     ; 0x27 <__rc23>
    20bf: a4 2a        	ldy	$2a                     ; 0x2a <__rc26>
    20c1: 84 26        	sty	$26                     ; 0x26 <__rc22>
    20c3: 66 26        	ror	$26                     ; 0x26 <__rc22>
    20c5: 64 14        	stz	$14                     ; 0x14 <__rc4>
    20c7: 66 14        	ror	$14                     ; 0x14 <__rc4>
    20c9: 48           	pha
    20ca: a5 14        	lda	$14                     ; 0x14 <__rc4>
    20cc: a0 07        	ldy	#$7
    20ce: 91 10        	sta	($10),y                 ; 0x10 <__rc0>
    20d0: 68           	pla
    20d1: 64 13        	stz	$13                     ; 0x13 <__rc3>
    20d3: 29 80        	and	#$80
    20d5: c8           	iny
    20d6: 91 10        	sta	($10),y                 ; 0x10 <__rc0>
    20d8: 8a           	txa
    20d9: 29 3f        	and	#$3f
    20db: 85 28        	sta	$28                     ; 0x28 <__rc24>
    20dd: a6 71        	ldx	$71                     ; 0x71 <theOne.8>
    20df: 86 2a        	stx	$2a                     ; 0x2a <__rc26>
    20e1: a6 72        	ldx	$72                     ; 0x72 <theOne.8+0x1>
    20e3: 86 29        	stx	$29                     ; 0x29 <__rc25>
    20e5: a0 19        	ldy	#$19
    20e7: a2 00        	ldx	#$0
    20e9: 84 12        	sty	$12                     ; 0x12 <__rc2>
    20eb: a5 25        	lda	$25                     ; 0x25 <__rc21>
    20ed: 20 08 6e     	jsr	$6e08 <__mulhi3>
    20f0: 85 12        	sta	$12                     ; 0x12 <__rc2>
    20f2: 86 13        	stx	$13                     ; 0x13 <__rc3>
    20f4: a5 2a        	lda	$2a                     ; 0x2a <__rc26>
    20f6: 18           	clc
    20f7: 65 12        	adc	$12                     ; 0x12 <__rc2>
    20f9: a8           	tay
    20fa: a5 29        	lda	$29                     ; 0x29 <__rc25>
    20fc: 65 13        	adc	$13                     ; 0x13 <__rc3>
    20fe: aa           	tax
    20ff: 84 12        	sty	$12                     ; 0x12 <__rc2>
    2101: 85 13        	sta	$13                     ; 0x13 <__rc3>
    2103: 18           	clc
    2104: 98           	tya
    2105: 84 16        	sty	$16                     ; 0x16 <__rc6>
    2107: 69 08        	adc	#$8
    2109: 85 14        	sta	$14                     ; 0x14 <__rc4>
    210b: 8a           	txa
    210c: 69 00        	adc	#$0
    210e: 85 15        	sta	$15                     ; 0x15 <__rc5>
    2110: a0 04        	ldy	#$4
    2112: 18           	clc
    2113: a5 16        	lda	$16                     ; 0x16 <__rc6>
    2115: 69 04        	adc	#$4
    2117: 85 16        	sta	$16                     ; 0x16 <__rc6>
    2119: 8a           	txa
    211a: 69 00        	adc	#$0
    211c: 85 17        	sta	$17                     ; 0x17 <__rc7>
    211e: b1 12        	lda	($12),y                 ; 0x12 <__rc2>
    2120: a2 04        	ldx	#$4
    2122: 86 1d        	stx	$1d                     ; 0x1d <__rc13>
    2124: 85 18        	sta	$18                     ; 0x18 <__rc8>
    2126: a2 01        	ldx	#$1
    2128: 86 19        	stx	$19                     ; 0x19 <__rc9>
    212a: a4 19        	ldy	$19                     ; 0x19 <__rc9>
    212c: b1 16        	lda	($16),y                 ; 0x16 <__rc6>
    212e: 85 1b        	sta	$1b                     ; 0x1b <__rc11>
    2130: a0 02        	ldy	#$2
    2132: b1 16        	lda	($16),y                 ; 0x16 <__rc6>
    2134: 85 1f        	sta	$1f                     ; 0x1f <__rc15>
    2136: e8           	inx
    2137: 86 1a        	stx	$1a                     ; 0x1a <__rc10>
    2139: c8           	iny
    213a: b1 16        	lda	($16),y                 ; 0x16 <__rc6>
    213c: 85 22        	sta	$22                     ; 0x22 <__rc18>
    213e: e8           	inx
    213f: 86 1c        	stx	$1c                     ; 0x1c <__rc12>
    2141: a6 18        	ldx	$18                     ; 0x18 <__rc8>
    2143: 86 1e        	stx	$1e                     ; 0x1e <__rc14>
    2145: a4 1b        	ldy	$1b                     ; 0x1b <__rc11>
    2147: a5 1f        	lda	$1f                     ; 0x1f <__rc15>
    2149: a6 1f        	ldx	$1f                     ; 0x1f <__rc15>
    214b: 5a           	phy
    214c: a4 22        	ldy	$22                     ; 0x22 <__rc18>
    214e: 84 1f        	sty	$1f                     ; 0x1f <__rc15>
    2150: 7a           	ply
    2151: e6 1e        	inc	$1e                     ; 0x1e <__rc14>
    2153: d0 08        	bne	$215d <readDelta+0x2bf>
    2155: c8           	iny
    2156: d0 05        	bne	$215d <readDelta+0x2bf>
    2158: 1a           	inc
    2159: d0 02        	bne	$215d <readDelta+0x2bf>
    215b: e6 1f        	inc	$1f                     ; 0x1f <__rc15>
    215d: 85 22        	sta	$22                     ; 0x22 <__rc18>
    215f: 84 23        	sty	$23                     ; 0x23 <__rc19>
    2161: a4 1d        	ldy	$1d                     ; 0x1d <__rc13>
    2163: a5 1e        	lda	$1e                     ; 0x1e <__rc14>
    2165: 91 12        	sta	($12),y                 ; 0x12 <__rc2>
    2167: a4 19        	ldy	$19                     ; 0x19 <__rc9>
    2169: a5 23        	lda	$23                     ; 0x23 <__rc19>
    216b: 91 16        	sta	($16),y                 ; 0x16 <__rc6>
    216d: a0 01        	ldy	#$1
    216f: 84 19        	sty	$19                     ; 0x19 <__rc9>
    2171: a4 1a        	ldy	$1a                     ; 0x1a <__rc10>
    2173: a5 22        	lda	$22                     ; 0x22 <__rc18>
    2175: 91 16        	sta	($16),y                 ; 0x16 <__rc6>
    2177: a4 1c        	ldy	$1c                     ; 0x1c <__rc12>
    2179: a5 1f        	lda	$1f                     ; 0x1f <__rc15>
    217b: 91 16        	sta	($16),y                 ; 0x16 <__rc6>
    217d: 18           	clc
    217e: a0 08        	ldy	#$8
    2180: a5 18        	lda	$18                     ; 0x18 <__rc8>
    2182: 71 12        	adc	($12),y                 ; 0x12 <__rc2>
    2184: 85 17        	sta	$17                     ; 0x17 <__rc7>
    2186: a5 1b        	lda	$1b                     ; 0x1b <__rc11>
    2188: a4 19        	ldy	$19                     ; 0x19 <__rc9>
    218a: 71 14        	adc	($14),y                 ; 0x14 <__rc4>
    218c: 85 12        	sta	$12                     ; 0x12 <__rc2>
    218e: a4 1a        	ldy	$1a                     ; 0x1a <__rc10>
    2190: 8a           	txa
    2191: 71 14        	adc	($14),y                 ; 0x14 <__rc4>
    2193: 85 13        	sta	$13                     ; 0x13 <__rc3>
    2195: a5 12        	lda	$12                     ; 0x12 <__rc2>
    2197: 06 12        	asl	$12                     ; 0x12 <__rc2>
    2199: 26 13        	rol	$13                     ; 0x13 <__rc3>
    219b: 06 12        	asl	$12                     ; 0x12 <__rc2>
    219d: 26 13        	rol	$13                     ; 0x13 <__rc3>
    219f: 06 12        	asl	$12                     ; 0x12 <__rc2>
    21a1: 26 13        	rol	$13                     ; 0x13 <__rc3>
    21a3: a4 13        	ldy	$13                     ; 0x13 <__rc3>
    21a5: a6 0f        	ldx	$f                      ; 0xf <__zp_data_size+0x2>
    21a7: 78           	sei
    21a8: 84 0f        	sty	$f                      ; 0xf <__zp_data_size+0x2>
    21aa: a4 17        	ldy	$17                     ; 0x17 <__rc7>
    21ac: 84 12        	sty	$12                     ; 0x12 <__rc2>
    21ae: 09 e0        	ora	#$e0
    21b0: 85 13        	sta	$13                     ; 0x13 <__rc3>
    21b2: b2 12        	lda	($12)                   ; 0x12 <__rc2>
    21b4: 86 0f        	stx	$f                      ; 0xf <__zp_data_size+0x2>
    21b6: 58           	cli
    21b7: aa           	tax
    21b8: 30 14        	bmi	$21ce <readDelta+0x330>
    21ba: 64 15        	stz	$15                     ; 0x15 <__rc5>
    21bc: 85 12        	sta	$12                     ; 0x12 <__rc2>
    21be: 64 14        	stz	$14                     ; 0x14 <__rc4>
    21c0: 64 13        	stz	$13                     ; 0x13 <__rc3>
    21c2: a0 07        	ldy	#$7
    21c4: b1 10        	lda	($10),y                 ; 0x10 <__rc0>
    21c6: 85 29        	sta	$29                     ; 0x29 <__rc25>
    21c8: c8           	iny
    21c9: b1 10        	lda	($10),y                 ; 0x10 <__rc0>
    21cb: 4c 0f 23     	jmp	$230f <readDelta+0x471>
    21ce: 4a           	lsr
    21cf: 64 14        	stz	$14                     ; 0x14 <__rc4>
    21d1: 66 14        	ror	$14                     ; 0x14 <__rc4>
    21d3: 46 28        	lsr	$28                     ; 0x28 <__rc24>
    21d5: 48           	pha
    21d6: a5 28        	lda	$28                     ; 0x28 <__rc24>
    21d8: a0 06        	ldy	#$6
    21da: 91 10        	sta	($10),y                 ; 0x10 <__rc0>
    21dc: a0 08        	ldy	#$8
    21de: b1 10        	lda	($10),y                 ; 0x10 <__rc0>
    21e0: 85 28        	sta	$28                     ; 0x28 <__rc24>
    21e2: 68           	pla
    21e3: 66 28        	ror	$28                     ; 0x28 <__rc24>
    21e5: aa           	tax
    21e6: a9 00        	lda	#$0
    21e8: 6a           	ror
    21e9: 91 10        	sta	($10),y                 ; 0x10 <__rc0>
    21eb: a4 27        	ldy	$27                     ; 0x27 <__rc23>
    21ed: 84 24        	sty	$24                     ; 0x24 <__rc20>
    21ef: 46 24        	lsr	$24                     ; 0x24 <__rc20>
    21f1: 66 26        	ror	$26                     ; 0x26 <__rc22>
    21f3: a4 26        	ldy	$26                     ; 0x26 <__rc22>
    21f5: 84 27        	sty	$27                     ; 0x27 <__rc23>
    21f7: a0 07        	ldy	#$7
    21f9: b1 10        	lda	($10),y                 ; 0x10 <__rc0>
    21fb: 85 26        	sta	$26                     ; 0x26 <__rc22>
    21fd: 66 26        	ror	$26                     ; 0x26 <__rc22>
    21ff: a9 00        	lda	#$0
    2201: 6a           	ror
    2202: 91 10        	sta	($10),y                 ; 0x10 <__rc0>
    2204: a5 14        	lda	$14                     ; 0x14 <__rc4>
    2206: 29 80        	and	#$80
    2208: 85 29        	sta	$29                     ; 0x29 <__rc25>
    220a: 8a           	txa
    220b: 29 3f        	and	#$3f
    220d: a0 04        	ldy	#$4
    220f: 91 10        	sta	($10),y                 ; 0x10 <__rc0>
    2211: a6 71        	ldx	$71                     ; 0x71 <theOne.8>
    2213: 8a           	txa
    2214: 88           	dey
    2215: 91 10        	sta	($10),y                 ; 0x10 <__rc0>
    2217: a6 72        	ldx	$72                     ; 0x72 <theOne.8+0x1>
    2219: 8a           	txa
    221a: a0 05        	ldy	#$5
    221c: 91 10        	sta	($10),y                 ; 0x10 <__rc0>
    221e: a0 19        	ldy	#$19
    2220: a2 00        	ldx	#$0
    2222: 84 12        	sty	$12                     ; 0x12 <__rc2>
    2224: 64 13        	stz	$13                     ; 0x13 <__rc3>
    2226: a5 25        	lda	$25                     ; 0x25 <__rc21>
    2228: 20 08 6e     	jsr	$6e08 <__mulhi3>
    222b: a4 24        	ldy	$24                     ; 0x24 <__rc20>
    222d: 84 13        	sty	$13                     ; 0x13 <__rc3>
    222f: 85 15        	sta	$15                     ; 0x15 <__rc5>
    2231: 86 16        	stx	$16                     ; 0x16 <__rc6>
    2233: a6 29        	ldx	$29                     ; 0x29 <__rc25>
    2235: 86 12        	stx	$12                     ; 0x12 <__rc2>
    2237: a0 04        	ldy	#$4
    2239: b1 10        	lda	($10),y                 ; 0x10 <__rc0>
    223b: 85 14        	sta	$14                     ; 0x14 <__rc4>
    223d: a2 00        	ldx	#$0
    223f: 86 1a        	stx	$1a                     ; 0x1a <__rc10>
    2241: 18           	clc
    2242: 88           	dey
    2243: b1 10        	lda	($10),y                 ; 0x10 <__rc0>
    2245: 65 15        	adc	$15                     ; 0x15 <__rc5>
    2247: a8           	tay
    2248: 5a           	phy
    2249: a0 05        	ldy	#$5
    224b: b1 10        	lda	($10),y                 ; 0x10 <__rc0>
    224d: 7a           	ply
    224e: 65 16        	adc	$16                     ; 0x16 <__rc6>
    2250: aa           	tax
    2251: 98           	tya
    2252: 84 16        	sty	$16                     ; 0x16 <__rc6>
    2254: 86 17        	stx	$17                     ; 0x17 <__rc7>
    2256: 84 1c        	sty	$1c                     ; 0x1c <__rc12>
    2258: 18           	clc
    2259: 69 04        	adc	#$4
    225b: 85 18        	sta	$18                     ; 0x18 <__rc8>
    225d: 8a           	txa
    225e: 86 1d        	stx	$1d                     ; 0x1d <__rc13>
    2260: 69 00        	adc	#$0
    2262: 85 19        	sta	$19                     ; 0x19 <__rc9>
    2264: a0 04        	ldy	#$4
    2266: b1 16        	lda	($16),y                 ; 0x16 <__rc6>
    2268: 84 23        	sty	$23                     ; 0x23 <__rc19>
    226a: aa           	tax
    226b: a0 01        	ldy	#$1
    226d: b1 18        	lda	($18),y                 ; 0x18 <__rc8>
    226f: 85 1b        	sta	$1b                     ; 0x1b <__rc11>
    2271: 84 1e        	sty	$1e                     ; 0x1e <__rc14>
    2273: c8           	iny
    2274: b1 18        	lda	($18),y                 ; 0x18 <__rc8>
    2276: 84 1f        	sty	$1f                     ; 0x1f <__rc15>
    2278: 85 15        	sta	$15                     ; 0x15 <__rc5>
    227a: c8           	iny
    227b: b1 18        	lda	($18),y                 ; 0x18 <__rc8>
    227d: 84 24        	sty	$24                     ; 0x24 <__rc20>
    227f: 85 22        	sta	$22                     ; 0x22 <__rc18>
    2281: a4 1b        	ldy	$1b                     ; 0x1b <__rc11>
    2283: 84 25        	sty	$25                     ; 0x25 <__rc21>
    2285: a4 15        	ldy	$15                     ; 0x15 <__rc5>
    2287: 84 29        	sty	$29                     ; 0x29 <__rc25>
    2289: 8a           	txa
    228a: 1a           	inc
    228b: d0 0a        	bne	$2297 <readDelta+0x3f9>
    228d: e6 25        	inc	$25                     ; 0x25 <__rc21>
    228f: d0 06        	bne	$2297 <readDelta+0x3f9>
    2291: e6 29        	inc	$29                     ; 0x29 <__rc25>
    2293: d0 02        	bne	$2297 <readDelta+0x3f9>
    2295: e6 22        	inc	$22                     ; 0x22 <__rc18>
    2297: a4 23        	ldy	$23                     ; 0x23 <__rc19>
    2299: 91 16        	sta	($16),y                 ; 0x16 <__rc6>
    229b: a5 22        	lda	$22                     ; 0x22 <__rc18>
    229d: a4 24        	ldy	$24                     ; 0x24 <__rc20>
    229f: 91 18        	sta	($18),y                 ; 0x18 <__rc8>
    22a1: a4 1e        	ldy	$1e                     ; 0x1e <__rc14>
    22a3: a5 25        	lda	$25                     ; 0x25 <__rc21>
    22a5: 91 18        	sta	($18),y                 ; 0x18 <__rc8>
    22a7: a4 1f        	ldy	$1f                     ; 0x1f <__rc15>
    22a9: a5 29        	lda	$29                     ; 0x29 <__rc25>
    22ab: 91 18        	sta	($18),y                 ; 0x18 <__rc8>
    22ad: a0 08        	ldy	#$8
    22af: 8a           	txa
    22b0: a6 1a        	ldx	$1a                     ; 0x1a <__rc10>
    22b2: e0 01        	cpx	#$1
    22b4: 71 16        	adc	($16),y                 ; 0x16 <__rc6>
    22b6: a2 01        	ldx	#$1
    22b8: b0 02        	bcs	$22bc <readDelta+0x41e>
    22ba: a2 00        	ldx	#$0
    22bc: 85 19        	sta	$19                     ; 0x19 <__rc9>
    22be: 18           	clc
    22bf: a5 1c        	lda	$1c                     ; 0x1c <__rc12>
    22c1: 69 08        	adc	#$8
    22c3: 85 16        	sta	$16                     ; 0x16 <__rc6>
    22c5: a5 1d        	lda	$1d                     ; 0x1d <__rc13>
    22c7: 69 00        	adc	#$0
    22c9: 85 17        	sta	$17                     ; 0x17 <__rc7>
    22cb: e0 01        	cpx	#$1
    22cd: a5 1b        	lda	$1b                     ; 0x1b <__rc11>
    22cf: a4 1e        	ldy	$1e                     ; 0x1e <__rc14>
    22d1: 71 16        	adc	($16),y                 ; 0x16 <__rc6>
    22d3: 85 18        	sta	$18                     ; 0x18 <__rc8>
    22d5: a5 15        	lda	$15                     ; 0x15 <__rc5>
    22d7: a4 1f        	ldy	$1f                     ; 0x1f <__rc15>
    22d9: 71 16        	adc	($16),y                 ; 0x16 <__rc6>
    22db: 85 15        	sta	$15                     ; 0x15 <__rc5>
    22dd: a6 0f        	ldx	$f                      ; 0xf <__zp_data_size+0x2>
    22df: 78           	sei
    22e0: a5 18        	lda	$18                     ; 0x18 <__rc8>
    22e2: 0a           	asl
    22e3: 26 15        	rol	$15                     ; 0x15 <__rc5>
    22e5: 0a           	asl
    22e6: 26 15        	rol	$15                     ; 0x15 <__rc5>
    22e8: 0a           	asl
    22e9: a5 15        	lda	$15                     ; 0x15 <__rc5>
    22eb: 2a           	rol
    22ec: 85 0f        	sta	$f                      ; 0xf <__zp_data_size+0x2>
    22ee: a5 18        	lda	$18                     ; 0x18 <__rc8>
    22f0: 09 e0        	ora	#$e0
    22f2: a4 19        	ldy	$19                     ; 0x19 <__rc9>
    22f4: 84 16        	sty	$16                     ; 0x16 <__rc6>
    22f6: 85 17        	sta	$17                     ; 0x17 <__rc7>
    22f8: b2 16        	lda	($16)                   ; 0x16 <__rc6>
    22fa: 86 0f        	stx	$f                      ; 0xf <__zp_data_size+0x2>
    22fc: 58           	cli
    22fd: 85 24        	sta	$24                     ; 0x24 <__rc20>
    22ff: a0 08        	ldy	#$8
    2301: b1 10        	lda	($10),y                 ; 0x10 <__rc0>
    2303: 48           	pha
    2304: 88           	dey
    2305: b1 10        	lda	($10),y                 ; 0x10 <__rc0>
    2307: 85 29        	sta	$29                     ; 0x29 <__rc25>
    2309: 88           	dey
    230a: b1 10        	lda	($10),y                 ; 0x10 <__rc0>
    230c: 85 15        	sta	$15                     ; 0x15 <__rc5>
    230e: 68           	pla
    230f: 85 17        	sta	$17                     ; 0x17 <__rc7>
    2311: a5 29        	lda	$29                     ; 0x29 <__rc25>
    2313: 05 17        	ora	$17                     ; 0x17 <__rc7>
    2315: aa           	tax
    2316: a5 26        	lda	$26                     ; 0x26 <__rc22>
    2318: 05 28        	ora	$28                     ; 0x28 <__rc24>
    231a: 85 16        	sta	$16                     ; 0x16 <__rc6>
    231c: a5 27        	lda	$27                     ; 0x27 <__rc23>
    231e: 05 15        	ora	$15                     ; 0x15 <__rc5>
    2320: a8           	tay
    2321: 8a           	txa
    2322: 05 12        	ora	$12                     ; 0x12 <__rc2>
    2324: 85 12        	sta	$12                     ; 0x12 <__rc2>
    2326: a5 16        	lda	$16                     ; 0x16 <__rc6>
    2328: 05 14        	ora	$14                     ; 0x14 <__rc4>
    232a: aa           	tax
    232b: a5 12        	lda	$12                     ; 0x12 <__rc2>
    232d: 05 24        	ora	$24                     ; 0x24 <__rc20>
    232f: 84 12        	sty	$12                     ; 0x12 <__rc2>
    2331: 85 20        	sta	$20                     ; 0x20 <__rc16>
    2333: a0 00        	ldy	#$0
    2335: b1 10        	lda	($10),y                 ; 0x10 <__rc0>
    2337: 85 2a        	sta	$2a                     ; 0x2a <__rc26>
    2339: c8           	iny
    233a: b1 10        	lda	($10),y                 ; 0x10 <__rc0>
    233c: 85 29        	sta	$29                     ; 0x29 <__rc25>
    233e: c8           	iny
    233f: b1 10        	lda	($10),y                 ; 0x10 <__rc0>
    2341: 85 28        	sta	$28                     ; 0x28 <__rc24>
    2343: 7a           	ply
    2344: 84 27        	sty	$27                     ; 0x27 <__rc23>
    2346: 7a           	ply
    2347: 84 26        	sty	$26                     ; 0x26 <__rc22>
    2349: 7a           	ply
    234a: 84 25        	sty	$25                     ; 0x25 <__rc21>
    234c: 7a           	ply
    234d: 84 24        	sty	$24                     ; 0x24 <__rc20>
    234f: 18           	clc
    2350: a5 10        	lda	$10                     ; 0x10 <__rc0>
    2352: 69 09        	adc	#$9
    2354: 85 10        	sta	$10                     ; 0x10 <__rc0>
    2356: a5 11        	lda	$11                     ; 0x11 <__rc1>
    2358: 69 00        	adc	#$0
    235a: 85 11        	sta	$11                     ; 0x11 <__rc1>
    235c: a5 20        	lda	$20                     ; 0x20 <__rc16>
    235e: 60           	rts

0000235f <readMIDICmd>:
    235f: 48           	pha
    2360: 18           	clc
    2361: a5 10        	lda	$10                     ; 0x10 <__rc0>
    2363: 69 fd        	adc	#$fd
    2365: 85 10        	sta	$10                     ; 0x10 <__rc0>
    2367: a5 11        	lda	$11                     ; 0x11 <__rc1>
    2369: 69 ff        	adc	#$ff
    236b: 85 11        	sta	$11                     ; 0x11 <__rc1>
    236d: 68           	pla
    236e: a6 24        	ldx	$24                     ; 0x24 <__rc20>
    2370: da           	phx
    2371: a6 25        	ldx	$25                     ; 0x25 <__rc21>
    2373: da           	phx
    2374: a6 26        	ldx	$26                     ; 0x26 <__rc22>
    2376: da           	phx
    2377: a6 27        	ldx	$27                     ; 0x27 <__rc23>
    2379: da           	phx
    237a: 48           	pha
    237b: a5 28        	lda	$28                     ; 0x28 <__rc24>
    237d: a0 02        	ldy	#$2
    237f: 91 10        	sta	($10),y                 ; 0x10 <__rc0>
    2381: a5 29        	lda	$29                     ; 0x29 <__rc25>
    2383: 88           	dey
    2384: 91 10        	sta	($10),y                 ; 0x10 <__rc0>
    2386: a5 2a        	lda	$2a                     ; 0x2a <__rc26>
    2388: 88           	dey
    2389: 91 10        	sta	($10),y                 ; 0x10 <__rc0>
    238b: 68           	pla
    238c: 85 24        	sta	$24                     ; 0x24 <__rc20>
    238e: a6 71        	ldx	$71                     ; 0x71 <theOne.8>
    2390: 86 25        	stx	$25                     ; 0x25 <__rc21>
    2392: a6 72        	ldx	$72                     ; 0x72 <theOne.8+0x1>
    2394: 86 26        	stx	$26                     ; 0x26 <__rc22>
    2396: a2 19        	ldx	#$19
    2398: 86 12        	stx	$12                     ; 0x12 <__rc2>
    239a: 64 13        	stz	$13                     ; 0x13 <__rc3>
    239c: a2 00        	ldx	#$0
    239e: 20 08 6e     	jsr	$6e08 <__mulhi3>
    23a1: 85 19        	sta	$19                     ; 0x19 <__rc9>
    23a3: 18           	clc
    23a4: 85 12        	sta	$12                     ; 0x12 <__rc2>
    23a6: a5 25        	lda	$25                     ; 0x25 <__rc21>
    23a8: 65 12        	adc	$12                     ; 0x12 <__rc2>
    23aa: 85 16        	sta	$16                     ; 0x16 <__rc6>
    23ac: 86 12        	stx	$12                     ; 0x12 <__rc2>
    23ae: 86 18        	stx	$18                     ; 0x18 <__rc8>
    23b0: a5 26        	lda	$26                     ; 0x26 <__rc22>
    23b2: 65 12        	adc	$12                     ; 0x12 <__rc2>
    23b4: a6 16        	ldx	$16                     ; 0x16 <__rc6>
    23b6: 86 12        	stx	$12                     ; 0x12 <__rc2>
    23b8: 85 13        	sta	$13                     ; 0x13 <__rc3>
    23ba: 85 17        	sta	$17                     ; 0x17 <__rc7>
    23bc: 18           	clc
    23bd: a5 16        	lda	$16                     ; 0x16 <__rc6>
    23bf: 69 08        	adc	#$8
    23c1: 85 14        	sta	$14                     ; 0x14 <__rc4>
    23c3: a5 17        	lda	$17                     ; 0x17 <__rc7>
    23c5: 69 00        	adc	#$0
    23c7: a0 08        	ldy	#$8
    23c9: 85 15        	sta	$15                     ; 0x15 <__rc5>
    23cb: b1 12        	lda	($12),y                 ; 0x12 <__rc2>
    23cd: 85 1a        	sta	$1a                     ; 0x1a <__rc10>
    23cf: a2 08        	ldx	#$8
    23d1: 86 22        	stx	$22                     ; 0x22 <__rc18>
    23d3: 18           	clc
    23d4: a5 16        	lda	$16                     ; 0x16 <__rc6>
    23d6: 69 04        	adc	#$4
    23d8: 85 16        	sta	$16                     ; 0x16 <__rc6>
    23da: a5 17        	lda	$17                     ; 0x17 <__rc7>
    23dc: 69 00        	adc	#$0
    23de: 85 17        	sta	$17                     ; 0x17 <__rc7>
    23e0: a0 01        	ldy	#$1
    23e2: b1 14        	lda	($14),y                 ; 0x14 <__rc4>
    23e4: 85 1c        	sta	$1c                     ; 0x1c <__rc12>
    23e6: a2 01        	ldx	#$1
    23e8: 86 1d        	stx	$1d                     ; 0x1d <__rc13>
    23ea: c8           	iny
    23eb: b1 14        	lda	($14),y                 ; 0x14 <__rc4>
    23ed: 85 14        	sta	$14                     ; 0x14 <__rc4>
    23ef: e8           	inx
    23f0: 86 15        	stx	$15                     ; 0x15 <__rc5>
    23f2: 18           	clc
    23f3: a0 04        	ldy	#$4
    23f5: a5 1a        	lda	$1a                     ; 0x1a <__rc10>
    23f7: 71 12        	adc	($12),y                 ; 0x12 <__rc2>
    23f9: 85 13        	sta	$13                     ; 0x13 <__rc3>
    23fb: a2 04        	ldx	#$4
    23fd: 86 1b        	stx	$1b                     ; 0x1b <__rc11>
    23ff: a5 1c        	lda	$1c                     ; 0x1c <__rc12>
    2401: a4 1d        	ldy	$1d                     ; 0x1d <__rc13>
    2403: 71 16        	adc	($16),y                 ; 0x16 <__rc6>
    2405: aa           	tax
    2406: 84 1c        	sty	$1c                     ; 0x1c <__rc12>
    2408: a5 14        	lda	$14                     ; 0x14 <__rc4>
    240a: a4 15        	ldy	$15                     ; 0x15 <__rc5>
    240c: 71 16        	adc	($16),y                 ; 0x16 <__rc6>
    240e: 85 14        	sta	$14                     ; 0x14 <__rc4>
    2410: 84 1d        	sty	$1d                     ; 0x1d <__rc13>
    2412: 8a           	txa
    2413: 86 12        	stx	$12                     ; 0x12 <__rc2>
    2415: 06 12        	asl	$12                     ; 0x12 <__rc2>
    2417: 26 14        	rol	$14                     ; 0x14 <__rc4>
    2419: 06 12        	asl	$12                     ; 0x12 <__rc2>
    241b: 26 14        	rol	$14                     ; 0x14 <__rc4>
    241d: 06 12        	asl	$12                     ; 0x12 <__rc2>
    241f: 26 14        	rol	$14                     ; 0x14 <__rc4>
    2421: a6 14        	ldx	$14                     ; 0x14 <__rc4>
    2423: a4 0f        	ldy	$f                      ; 0xf <__zp_data_size+0x2>
    2425: 78           	sei
    2426: 86 0f        	stx	$f                      ; 0xf <__zp_data_size+0x2>
    2428: a6 13        	ldx	$13                     ; 0x13 <__rc3>
    242a: 86 12        	stx	$12                     ; 0x12 <__rc2>
    242c: 09 e0        	ora	#$e0
    242e: 85 13        	sta	$13                     ; 0x13 <__rc3>
    2430: b2 12        	lda	($12)                   ; 0x12 <__rc2>
    2432: 85 1a        	sta	$1a                     ; 0x1a <__rc10>
    2434: 84 0f        	sty	$f                      ; 0xf <__zp_data_size+0x2>
    2436: 58           	cli
    2437: 18           	clc
    2438: a5 19        	lda	$19                     ; 0x19 <__rc9>
    243a: 65 71        	adc	$71                     ; 0x71 <theOne.8>
    243c: aa           	tax
    243d: a5 18        	lda	$18                     ; 0x18 <__rc8>
    243f: 65 72        	adc	$72                     ; 0x72 <theOne.8+0x1>
    2441: a8           	tay
    2442: 18           	clc
    2443: 8a           	txa
    2444: 69 08        	adc	#$8
    2446: 85 12        	sta	$12                     ; 0x12 <__rc2>
    2448: 98           	tya
    2449: 69 00        	adc	#$0
    244b: 85 13        	sta	$13                     ; 0x13 <__rc3>
    244d: 86 14        	stx	$14                     ; 0x14 <__rc4>
    244f: 84 15        	sty	$15                     ; 0x15 <__rc5>
    2451: 18           	clc
    2452: 8a           	txa
    2453: 69 04        	adc	#$4
    2455: 85 16        	sta	$16                     ; 0x16 <__rc6>
    2457: 98           	tya
    2458: 69 00        	adc	#$0
    245a: 85 17        	sta	$17                     ; 0x17 <__rc7>
    245c: a4 1b        	ldy	$1b                     ; 0x1b <__rc11>
    245e: b1 14        	lda	($14),y                 ; 0x14 <__rc4>
    2460: 85 1e        	sta	$1e                     ; 0x1e <__rc14>
    2462: a4 1c        	ldy	$1c                     ; 0x1c <__rc12>
    2464: b1 16        	lda	($16),y                 ; 0x16 <__rc6>
    2466: 85 23        	sta	$23                     ; 0x23 <__rc19>
    2468: a4 1d        	ldy	$1d                     ; 0x1d <__rc13>
    246a: b1 16        	lda	($16),y                 ; 0x16 <__rc6>
    246c: 85 1f        	sta	$1f                     ; 0x1f <__rc15>
    246e: a0 03        	ldy	#$3
    2470: b1 16        	lda	($16),y                 ; 0x16 <__rc6>
    2472: 85 16        	sta	$16                     ; 0x16 <__rc6>
    2474: a2 03        	ldx	#$3
    2476: 86 17        	stx	$17                     ; 0x17 <__rc7>
    2478: 18           	clc
    2479: a4 22        	ldy	$22                     ; 0x22 <__rc18>
    247b: a5 1e        	lda	$1e                     ; 0x1e <__rc14>
    247d: 71 14        	adc	($14),y                 ; 0x14 <__rc4>
    247f: 85 14        	sta	$14                     ; 0x14 <__rc4>
    2481: a4 1c        	ldy	$1c                     ; 0x1c <__rc12>
    2483: a5 23        	lda	$23                     ; 0x23 <__rc19>
    2485: 71 12        	adc	($12),y                 ; 0x12 <__rc2>
    2487: 85 15        	sta	$15                     ; 0x15 <__rc5>
    2489: a4 1d        	ldy	$1d                     ; 0x1d <__rc13>
    248b: a5 1f        	lda	$1f                     ; 0x1f <__rc15>
    248d: 71 12        	adc	($12),y                 ; 0x12 <__rc2>
    248f: aa           	tax
    2490: a5 16        	lda	$16                     ; 0x16 <__rc6>
    2492: a4 17        	ldy	$17                     ; 0x17 <__rc7>
    2494: 84 1e        	sty	$1e                     ; 0x1e <__rc14>
    2496: a4 17        	ldy	$17                     ; 0x17 <__rc7>
    2498: 71 12        	adc	($12),y                 ; 0x12 <__rc2>
    249a: a8           	tay
    249b: a5 15        	lda	$15                     ; 0x15 <__rc5>
    249d: e6 14        	inc	$14                     ; 0x14 <__rc4>
    249f: d0 07        	bne	$24a8 <readMIDICmd+0x149>
    24a1: 1a           	inc
    24a2: d0 04        	bne	$24a8 <readMIDICmd+0x149>
    24a4: e8           	inx
    24a5: d0 01        	bne	$24a8 <readMIDICmd+0x149>
    24a7: c8           	iny
    24a8: 85 12        	sta	$12                     ; 0x12 <__rc2>
    24aa: 06 12        	asl	$12                     ; 0x12 <__rc2>
    24ac: 86 13        	stx	$13                     ; 0x13 <__rc3>
    24ae: 26 13        	rol	$13                     ; 0x13 <__rc3>
    24b0: 06 12        	asl	$12                     ; 0x12 <__rc2>
    24b2: 26 13        	rol	$13                     ; 0x13 <__rc3>
    24b4: 06 12        	asl	$12                     ; 0x12 <__rc2>
    24b6: 26 13        	rol	$13                     ; 0x13 <__rc3>
    24b8: a4 13        	ldy	$13                     ; 0x13 <__rc3>
    24ba: a6 0f        	ldx	$f                      ; 0xf <__zp_data_size+0x2>
    24bc: 78           	sei
    24bd: 84 0f        	sty	$f                      ; 0xf <__zp_data_size+0x2>
    24bf: a4 14        	ldy	$14                     ; 0x14 <__rc4>
    24c1: 84 12        	sty	$12                     ; 0x12 <__rc2>
    24c3: 09 e0        	ora	#$e0
    24c5: 85 13        	sta	$13                     ; 0x13 <__rc3>
    24c7: b2 12        	lda	($12)                   ; 0x12 <__rc2>
    24c9: 85 1f        	sta	$1f                     ; 0x1f <__rc15>
    24cb: 86 0f        	stx	$f                      ; 0xf <__zp_data_size+0x2>
    24cd: 58           	cli
    24ce: 18           	clc
    24cf: a5 19        	lda	$19                     ; 0x19 <__rc9>
    24d1: 65 71        	adc	$71                     ; 0x71 <theOne.8>
    24d3: aa           	tax
    24d4: a5 18        	lda	$18                     ; 0x18 <__rc8>
    24d6: 65 72        	adc	$72                     ; 0x72 <theOne.8+0x1>
    24d8: a8           	tay
    24d9: 18           	clc
    24da: 8a           	txa
    24db: 69 08        	adc	#$8
    24dd: 85 12        	sta	$12                     ; 0x12 <__rc2>
    24df: 98           	tya
    24e0: 69 00        	adc	#$0
    24e2: 85 13        	sta	$13                     ; 0x13 <__rc3>
    24e4: 86 14        	stx	$14                     ; 0x14 <__rc4>
    24e6: 84 15        	sty	$15                     ; 0x15 <__rc5>
    24e8: 18           	clc
    24e9: 8a           	txa
    24ea: 69 04        	adc	#$4
    24ec: 85 16        	sta	$16                     ; 0x16 <__rc6>
    24ee: 98           	tya
    24ef: 69 00        	adc	#$0
    24f1: 85 17        	sta	$17                     ; 0x17 <__rc7>
    24f3: a4 1b        	ldy	$1b                     ; 0x1b <__rc11>
    24f5: b1 14        	lda	($14),y                 ; 0x14 <__rc4>
    24f7: 85 1b        	sta	$1b                     ; 0x1b <__rc11>
    24f9: 84 23        	sty	$23                     ; 0x23 <__rc19>
    24fb: a4 1c        	ldy	$1c                     ; 0x1c <__rc12>
    24fd: b1 16        	lda	($16),y                 ; 0x16 <__rc6>
    24ff: 84 25        	sty	$25                     ; 0x25 <__rc21>
    2501: 85 1c        	sta	$1c                     ; 0x1c <__rc12>
    2503: a4 1d        	ldy	$1d                     ; 0x1d <__rc13>
    2505: b1 16        	lda	($16),y                 ; 0x16 <__rc6>
    2507: 84 17        	sty	$17                     ; 0x17 <__rc7>
    2509: 85 16        	sta	$16                     ; 0x16 <__rc6>
    250b: 18           	clc
    250c: a4 22        	ldy	$22                     ; 0x22 <__rc18>
    250e: a5 1b        	lda	$1b                     ; 0x1b <__rc11>
    2510: 71 14        	adc	($14),y                 ; 0x14 <__rc4>
    2512: 85 14        	sta	$14                     ; 0x14 <__rc4>
    2514: a5 1c        	lda	$1c                     ; 0x1c <__rc12>
    2516: a4 25        	ldy	$25                     ; 0x25 <__rc21>
    2518: 71 12        	adc	($12),y                 ; 0x12 <__rc2>
    251a: 85 15        	sta	$15                     ; 0x15 <__rc5>
    251c: a5 16        	lda	$16                     ; 0x16 <__rc6>
    251e: a4 17        	ldy	$17                     ; 0x17 <__rc7>
    2520: 71 12        	adc	($12),y                 ; 0x12 <__rc2>
    2522: 85 12        	sta	$12                     ; 0x12 <__rc2>
    2524: 84 1c        	sty	$1c                     ; 0x1c <__rc12>
    2526: 18           	clc
    2527: a5 14        	lda	$14                     ; 0x14 <__rc4>
    2529: 69 02        	adc	#$2
    252b: 85 14        	sta	$14                     ; 0x14 <__rc4>
    252d: a5 15        	lda	$15                     ; 0x15 <__rc5>
    252f: 69 00        	adc	#$0
    2531: aa           	tax
    2532: a5 12        	lda	$12                     ; 0x12 <__rc2>
    2534: 69 00        	adc	#$0
    2536: 85 13        	sta	$13                     ; 0x13 <__rc3>
    2538: 8a           	txa
    2539: 86 12        	stx	$12                     ; 0x12 <__rc2>
    253b: 06 12        	asl	$12                     ; 0x12 <__rc2>
    253d: 26 13        	rol	$13                     ; 0x13 <__rc3>
    253f: 06 12        	asl	$12                     ; 0x12 <__rc2>
    2541: 26 13        	rol	$13                     ; 0x13 <__rc3>
    2543: 06 12        	asl	$12                     ; 0x12 <__rc2>
    2545: 26 13        	rol	$13                     ; 0x13 <__rc3>
    2547: a4 13        	ldy	$13                     ; 0x13 <__rc3>
    2549: a6 0f        	ldx	$f                      ; 0xf <__zp_data_size+0x2>
    254b: 78           	sei
    254c: 84 0f        	sty	$f                      ; 0xf <__zp_data_size+0x2>
    254e: a4 14        	ldy	$14                     ; 0x14 <__rc4>
    2550: 84 12        	sty	$12                     ; 0x12 <__rc2>
    2552: 09 e0        	ora	#$e0
    2554: 85 13        	sta	$13                     ; 0x13 <__rc3>
    2556: b2 12        	lda	($12)                   ; 0x12 <__rc2>
    2558: 85 1b        	sta	$1b                     ; 0x1b <__rc11>
    255a: 86 0f        	stx	$f                      ; 0xf <__zp_data_size+0x2>
    255c: 58           	cli
    255d: 18           	clc
    255e: a5 19        	lda	$19                     ; 0x19 <__rc9>
    2560: 65 71        	adc	$71                     ; 0x71 <theOne.8>
    2562: aa           	tax
    2563: a5 18        	lda	$18                     ; 0x18 <__rc8>
    2565: 65 72        	adc	$72                     ; 0x72 <theOne.8+0x1>
    2567: a8           	tay
    2568: 18           	clc
    2569: 8a           	txa
    256a: 69 08        	adc	#$8
    256c: 85 12        	sta	$12                     ; 0x12 <__rc2>
    256e: 98           	tya
    256f: 69 00        	adc	#$0
    2571: 85 13        	sta	$13                     ; 0x13 <__rc3>
    2573: 86 14        	stx	$14                     ; 0x14 <__rc4>
    2575: 84 15        	sty	$15                     ; 0x15 <__rc5>
    2577: 18           	clc
    2578: 8a           	txa
    2579: 69 04        	adc	#$4
    257b: 85 16        	sta	$16                     ; 0x16 <__rc6>
    257d: 98           	tya
    257e: 69 00        	adc	#$0
    2580: 85 17        	sta	$17                     ; 0x17 <__rc7>
    2582: a4 23        	ldy	$23                     ; 0x23 <__rc19>
    2584: b1 14        	lda	($14),y                 ; 0x14 <__rc4>
    2586: 85 23        	sta	$23                     ; 0x23 <__rc19>
    2588: 84 1d        	sty	$1d                     ; 0x1d <__rc13>
    258a: a4 25        	ldy	$25                     ; 0x25 <__rc21>
    258c: b1 16        	lda	($16),y                 ; 0x16 <__rc6>
    258e: aa           	tax
    258f: a4 1c        	ldy	$1c                     ; 0x1c <__rc12>
    2591: b1 16        	lda	($16),y                 ; 0x16 <__rc6>
    2593: 84 17        	sty	$17                     ; 0x17 <__rc7>
    2595: 85 16        	sta	$16                     ; 0x16 <__rc6>
    2597: 18           	clc
    2598: a4 22        	ldy	$22                     ; 0x22 <__rc18>
    259a: a5 23        	lda	$23                     ; 0x23 <__rc19>
    259c: 71 14        	adc	($14),y                 ; 0x14 <__rc4>
    259e: 85 14        	sta	$14                     ; 0x14 <__rc4>
    25a0: 8a           	txa
    25a1: a4 25        	ldy	$25                     ; 0x25 <__rc21>
    25a3: 71 12        	adc	($12),y                 ; 0x12 <__rc2>
    25a5: 85 15        	sta	$15                     ; 0x15 <__rc5>
    25a7: a4 17        	ldy	$17                     ; 0x17 <__rc7>
    25a9: a5 16        	lda	$16                     ; 0x16 <__rc6>
    25ab: 71 12        	adc	($12),y                 ; 0x12 <__rc2>
    25ad: 85 12        	sta	$12                     ; 0x12 <__rc2>
    25af: 84 23        	sty	$23                     ; 0x23 <__rc19>
    25b1: 18           	clc
    25b2: a5 14        	lda	$14                     ; 0x14 <__rc4>
    25b4: 69 03        	adc	#$3
    25b6: 85 14        	sta	$14                     ; 0x14 <__rc4>
    25b8: a5 15        	lda	$15                     ; 0x15 <__rc5>
    25ba: 69 00        	adc	#$0
    25bc: aa           	tax
    25bd: a5 12        	lda	$12                     ; 0x12 <__rc2>
    25bf: 69 00        	adc	#$0
    25c1: 85 13        	sta	$13                     ; 0x13 <__rc3>
    25c3: 8a           	txa
    25c4: 86 12        	stx	$12                     ; 0x12 <__rc2>
    25c6: 06 12        	asl	$12                     ; 0x12 <__rc2>
    25c8: 26 13        	rol	$13                     ; 0x13 <__rc3>
    25ca: 06 12        	asl	$12                     ; 0x12 <__rc2>
    25cc: 26 13        	rol	$13                     ; 0x13 <__rc3>
    25ce: 06 12        	asl	$12                     ; 0x12 <__rc2>
    25d0: 26 13        	rol	$13                     ; 0x13 <__rc3>
    25d2: a4 13        	ldy	$13                     ; 0x13 <__rc3>
    25d4: a6 0f        	ldx	$f                      ; 0xf <__zp_data_size+0x2>
    25d6: 78           	sei
    25d7: 84 0f        	sty	$f                      ; 0xf <__zp_data_size+0x2>
    25d9: a4 14        	ldy	$14                     ; 0x14 <__rc4>
    25db: 84 12        	sty	$12                     ; 0x12 <__rc2>
    25dd: 09 e0        	ora	#$e0
    25df: 85 13        	sta	$13                     ; 0x13 <__rc3>
    25e1: b2 12        	lda	($12)                   ; 0x12 <__rc2>
    25e3: 85 1c        	sta	$1c                     ; 0x1c <__rc12>
    25e5: 86 0f        	stx	$f                      ; 0xf <__zp_data_size+0x2>
    25e7: 58           	cli
    25e8: 18           	clc
    25e9: a5 19        	lda	$19                     ; 0x19 <__rc9>
    25eb: 65 71        	adc	$71                     ; 0x71 <theOne.8>
    25ed: aa           	tax
    25ee: a5 18        	lda	$18                     ; 0x18 <__rc8>
    25f0: 65 72        	adc	$72                     ; 0x72 <theOne.8+0x1>
    25f2: a8           	tay
    25f3: 8a           	txa
    25f4: 18           	clc
    25f5: 69 08        	adc	#$8
    25f7: 85 12        	sta	$12                     ; 0x12 <__rc2>
    25f9: 98           	tya
    25fa: 69 00        	adc	#$0
    25fc: 85 13        	sta	$13                     ; 0x13 <__rc3>
    25fe: 86 14        	stx	$14                     ; 0x14 <__rc4>
    2600: 84 15        	sty	$15                     ; 0x15 <__rc5>
    2602: 18           	clc
    2603: 8a           	txa
    2604: 69 04        	adc	#$4
    2606: 85 16        	sta	$16                     ; 0x16 <__rc6>
    2608: 98           	tya
    2609: 69 00        	adc	#$0
    260b: 85 17        	sta	$17                     ; 0x17 <__rc7>
    260d: a4 1d        	ldy	$1d                     ; 0x1d <__rc13>
    260f: b1 14        	lda	($14),y                 ; 0x14 <__rc4>
    2611: 85 26        	sta	$26                     ; 0x26 <__rc22>
    2613: a4 25        	ldy	$25                     ; 0x25 <__rc21>
    2615: b1 16        	lda	($16),y                 ; 0x16 <__rc6>
    2617: 85 25        	sta	$25                     ; 0x25 <__rc21>
    2619: 5a           	phy
    261a: fa           	plx
    261b: a4 23        	ldy	$23                     ; 0x23 <__rc19>
    261d: b1 16        	lda	($16),y                 ; 0x16 <__rc6>
    261f: 84 27        	sty	$27                     ; 0x27 <__rc23>
    2621: 85 16        	sta	$16                     ; 0x16 <__rc6>
    2623: 18           	clc
    2624: a4 22        	ldy	$22                     ; 0x22 <__rc18>
    2626: a5 26        	lda	$26                     ; 0x26 <__rc22>
    2628: 71 14        	adc	($14),y                 ; 0x14 <__rc4>
    262a: 85 14        	sta	$14                     ; 0x14 <__rc4>
    262c: 84 17        	sty	$17                     ; 0x17 <__rc7>
    262e: da           	phx
    262f: 7a           	ply
    2630: a5 25        	lda	$25                     ; 0x25 <__rc21>
    2632: 71 12        	adc	($12),y                 ; 0x12 <__rc2>
    2634: 85 15        	sta	$15                     ; 0x15 <__rc5>
    2636: 86 23        	stx	$23                     ; 0x23 <__rc19>
    2638: a4 27        	ldy	$27                     ; 0x27 <__rc23>
    263a: a5 16        	lda	$16                     ; 0x16 <__rc6>
    263c: 71 12        	adc	($12),y                 ; 0x12 <__rc2>
    263e: 85 12        	sta	$12                     ; 0x12 <__rc2>
    2640: 84 16        	sty	$16                     ; 0x16 <__rc6>
    2642: 18           	clc
    2643: a5 14        	lda	$14                     ; 0x14 <__rc4>
    2645: 69 04        	adc	#$4
    2647: 85 14        	sta	$14                     ; 0x14 <__rc4>
    2649: a5 15        	lda	$15                     ; 0x15 <__rc5>
    264b: 69 00        	adc	#$0
    264d: aa           	tax
    264e: a5 12        	lda	$12                     ; 0x12 <__rc2>
    2650: 69 00        	adc	#$0
    2652: 85 13        	sta	$13                     ; 0x13 <__rc3>
    2654: 8a           	txa
    2655: 86 12        	stx	$12                     ; 0x12 <__rc2>
    2657: 06 12        	asl	$12                     ; 0x12 <__rc2>
    2659: 26 13        	rol	$13                     ; 0x13 <__rc3>
    265b: 06 12        	asl	$12                     ; 0x12 <__rc2>
    265d: 26 13        	rol	$13                     ; 0x13 <__rc3>
    265f: 06 12        	asl	$12                     ; 0x12 <__rc2>
    2661: 26 13        	rol	$13                     ; 0x13 <__rc3>
    2663: a4 13        	ldy	$13                     ; 0x13 <__rc3>
    2665: a6 0f        	ldx	$f                      ; 0xf <__zp_data_size+0x2>
    2667: 78           	sei
    2668: 84 0f        	sty	$f                      ; 0xf <__zp_data_size+0x2>
    266a: a4 14        	ldy	$14                     ; 0x14 <__rc4>
    266c: 84 12        	sty	$12                     ; 0x12 <__rc2>
    266e: 09 e0        	ora	#$e0
    2670: 85 13        	sta	$13                     ; 0x13 <__rc3>
    2672: b2 12        	lda	($12)                   ; 0x12 <__rc2>
    2674: 85 22        	sta	$22                     ; 0x22 <__rc18>
    2676: 86 0f        	stx	$f                      ; 0xf <__zp_data_size+0x2>
    2678: 58           	cli
    2679: 18           	clc
    267a: a5 19        	lda	$19                     ; 0x19 <__rc9>
    267c: 65 71        	adc	$71                     ; 0x71 <theOne.8>
    267e: aa           	tax
    267f: a5 18        	lda	$18                     ; 0x18 <__rc8>
    2681: 65 72        	adc	$72                     ; 0x72 <theOne.8+0x1>
    2683: 86 12        	stx	$12                     ; 0x12 <__rc2>
    2685: 85 13        	sta	$13                     ; 0x13 <__rc3>
    2687: a8           	tay
    2688: 86 25        	stx	$25                     ; 0x25 <__rc21>
    268a: 18           	clc
    268b: 8a           	txa
    268c: 69 04        	adc	#$4
    268e: 85 14        	sta	$14                     ; 0x14 <__rc4>
    2690: 98           	tya
    2691: 84 26        	sty	$26                     ; 0x26 <__rc22>
    2693: 69 00        	adc	#$0
    2695: 85 15        	sta	$15                     ; 0x15 <__rc5>
    2697: a4 1d        	ldy	$1d                     ; 0x1d <__rc13>
    2699: b1 12        	lda	($12),y                 ; 0x12 <__rc2>
    269b: aa           	tax
    269c: a4 23        	ldy	$23                     ; 0x23 <__rc19>
    269e: b1 14        	lda	($14),y                 ; 0x14 <__rc4>
    26a0: 84 28        	sty	$28                     ; 0x28 <__rc24>
    26a2: 85 23        	sta	$23                     ; 0x23 <__rc19>
    26a4: a4 16        	ldy	$16                     ; 0x16 <__rc6>
    26a6: b1 14        	lda	($14),y                 ; 0x14 <__rc4>
    26a8: 84 27        	sty	$27                     ; 0x27 <__rc23>
    26aa: 85 15        	sta	$15                     ; 0x15 <__rc5>
    26ac: 18           	clc
    26ad: a4 17        	ldy	$17                     ; 0x17 <__rc7>
    26af: 8a           	txa
    26b0: 71 12        	adc	($12),y                 ; 0x12 <__rc2>
    26b2: a2 01        	ldx	#$1
    26b4: b0 02        	bcs	$26b8 <readMIDICmd+0x359>
    26b6: a2 00        	ldx	#$0
    26b8: 85 14        	sta	$14                     ; 0x14 <__rc4>
    26ba: 18           	clc
    26bb: a5 25        	lda	$25                     ; 0x25 <__rc21>
    26bd: 69 08        	adc	#$8
    26bf: 85 12        	sta	$12                     ; 0x12 <__rc2>
    26c1: a5 26        	lda	$26                     ; 0x26 <__rc22>
    26c3: 69 00        	adc	#$0
    26c5: 85 13        	sta	$13                     ; 0x13 <__rc3>
    26c7: a5 23        	lda	$23                     ; 0x23 <__rc19>
    26c9: a4 28        	ldy	$28                     ; 0x28 <__rc24>
    26cb: e0 01        	cpx	#$1
    26cd: 71 12        	adc	($12),y                 ; 0x12 <__rc2>
    26cf: 85 16        	sta	$16                     ; 0x16 <__rc6>
    26d1: 84 25        	sty	$25                     ; 0x25 <__rc21>
    26d3: a5 15        	lda	$15                     ; 0x15 <__rc5>
    26d5: a4 27        	ldy	$27                     ; 0x27 <__rc23>
    26d7: 71 12        	adc	($12),y                 ; 0x12 <__rc2>
    26d9: 85 12        	sta	$12                     ; 0x12 <__rc2>
    26db: 84 26        	sty	$26                     ; 0x26 <__rc22>
    26dd: 18           	clc
    26de: a5 14        	lda	$14                     ; 0x14 <__rc4>
    26e0: 69 05        	adc	#$5
    26e2: 85 14        	sta	$14                     ; 0x14 <__rc4>
    26e4: a5 16        	lda	$16                     ; 0x16 <__rc6>
    26e6: 69 00        	adc	#$0
    26e8: aa           	tax
    26e9: a5 12        	lda	$12                     ; 0x12 <__rc2>
    26eb: 69 00        	adc	#$0
    26ed: 85 13        	sta	$13                     ; 0x13 <__rc3>
    26ef: 8a           	txa
    26f0: 86 12        	stx	$12                     ; 0x12 <__rc2>
    26f2: 06 12        	asl	$12                     ; 0x12 <__rc2>
    26f4: 26 13        	rol	$13                     ; 0x13 <__rc3>
    26f6: 06 12        	asl	$12                     ; 0x12 <__rc2>
    26f8: 26 13        	rol	$13                     ; 0x13 <__rc3>
    26fa: 06 12        	asl	$12                     ; 0x12 <__rc2>
    26fc: 26 13        	rol	$13                     ; 0x13 <__rc3>
    26fe: a4 13        	ldy	$13                     ; 0x13 <__rc3>
    2700: a6 0f        	ldx	$f                      ; 0xf <__zp_data_size+0x2>
    2702: 78           	sei
    2703: 84 0f        	sty	$f                      ; 0xf <__zp_data_size+0x2>
    2705: a4 14        	ldy	$14                     ; 0x14 <__rc4>
    2707: 84 12        	sty	$12                     ; 0x12 <__rc2>
    2709: 09 e0        	ora	#$e0
    270b: 85 13        	sta	$13                     ; 0x13 <__rc3>
    270d: b2 12        	lda	($12)                   ; 0x12 <__rc2>
    270f: 85 23        	sta	$23                     ; 0x23 <__rc19>
    2711: 86 0f        	stx	$f                      ; 0xf <__zp_data_size+0x2>
    2713: 58           	cli
    2714: 18           	clc
    2715: a5 19        	lda	$19                     ; 0x19 <__rc9>
    2717: 65 71        	adc	$71                     ; 0x71 <theOne.8>
    2719: aa           	tax
    271a: a5 18        	lda	$18                     ; 0x18 <__rc8>
    271c: 65 72        	adc	$72                     ; 0x72 <theOne.8+0x1>
    271e: 85 13        	sta	$13                     ; 0x13 <__rc3>
    2720: 8a           	txa
    2721: 18           	clc
    2722: 69 04        	adc	#$4
    2724: 85 14        	sta	$14                     ; 0x14 <__rc4>
    2726: a5 13        	lda	$13                     ; 0x13 <__rc3>
    2728: 69 00        	adc	#$0
    272a: 85 15        	sta	$15                     ; 0x15 <__rc5>
    272c: 86 17        	stx	$17                     ; 0x17 <__rc7>
    272e: 86 12        	stx	$12                     ; 0x12 <__rc2>
    2730: a6 13        	ldx	$13                     ; 0x13 <__rc3>
    2732: 86 16        	stx	$16                     ; 0x16 <__rc6>
    2734: a0 10        	ldy	#$10
    2736: a5 1a        	lda	$1a                     ; 0x1a <__rc10>
    2738: 91 12        	sta	($12),y                 ; 0x12 <__rc2>
    273a: c8           	iny
    273b: a5 1f        	lda	$1f                     ; 0x1f <__rc15>
    273d: 85 18        	sta	$18                     ; 0x18 <__rc8>
    273f: 91 12        	sta	($12),y                 ; 0x12 <__rc2>
    2741: c8           	iny
    2742: a5 1b        	lda	$1b                     ; 0x1b <__rc11>
    2744: 85 19        	sta	$19                     ; 0x19 <__rc9>
    2746: 91 12        	sta	($12),y                 ; 0x12 <__rc2>
    2748: a4 1d        	ldy	$1d                     ; 0x1d <__rc13>
    274a: b1 12        	lda	($12),y                 ; 0x12 <__rc2>
    274c: 85 1b        	sta	$1b                     ; 0x1b <__rc11>
    274e: 84 27        	sty	$27                     ; 0x27 <__rc23>
    2750: a4 25        	ldy	$25                     ; 0x25 <__rc21>
    2752: b1 14        	lda	($14),y                 ; 0x14 <__rc4>
    2754: 85 2a        	sta	$2a                     ; 0x2a <__rc26>
    2756: a4 26        	ldy	$26                     ; 0x26 <__rc22>
    2758: b1 14        	lda	($14),y                 ; 0x14 <__rc4>
    275a: 85 28        	sta	$28                     ; 0x28 <__rc24>
    275c: a6 1e        	ldx	$1e                     ; 0x1e <__rc14>
    275e: a4 1e        	ldy	$1e                     ; 0x1e <__rc14>
    2760: b1 14        	lda	($14),y                 ; 0x14 <__rc4>
    2762: a8           	tay
    2763: a5 1b        	lda	$1b                     ; 0x1b <__rc11>
    2765: 5a           	phy
    2766: a4 2a        	ldy	$2a                     ; 0x2a <__rc26>
    2768: 84 1f        	sty	$1f                     ; 0x1f <__rc15>
    276a: a4 28        	ldy	$28                     ; 0x28 <__rc24>
    276c: 84 1e        	sty	$1e                     ; 0x1e <__rc14>
    276e: 7a           	ply
    276f: 84 1d        	sty	$1d                     ; 0x1d <__rc13>
    2771: 84 29        	sty	$29                     ; 0x29 <__rc25>
    2773: 1a           	inc
    2774: d0 0a        	bne	$2780 <readMIDICmd+0x421>
    2776: e6 2a        	inc	$2a                     ; 0x2a <__rc26>
    2778: d0 06        	bne	$2780 <readMIDICmd+0x421>
    277a: e6 28        	inc	$28                     ; 0x28 <__rc24>
    277c: d0 02        	bne	$2780 <readMIDICmd+0x421>
    277e: e6 29        	inc	$29                     ; 0x29 <__rc25>
    2780: a4 27        	ldy	$27                     ; 0x27 <__rc23>
    2782: 85 27        	sta	$27                     ; 0x27 <__rc23>
    2784: 91 12        	sta	($12),y                 ; 0x12 <__rc2>
    2786: a4 25        	ldy	$25                     ; 0x25 <__rc21>
    2788: a5 2a        	lda	$2a                     ; 0x2a <__rc26>
    278a: 85 25        	sta	$25                     ; 0x25 <__rc21>
    278c: 91 14        	sta	($14),y                 ; 0x14 <__rc4>
    278e: a4 26        	ldy	$26                     ; 0x26 <__rc22>
    2790: a5 28        	lda	$28                     ; 0x28 <__rc24>
    2792: 91 14        	sta	($14),y                 ; 0x14 <__rc4>
    2794: da           	phx
    2795: 7a           	ply
    2796: a5 29        	lda	$29                     ; 0x29 <__rc25>
    2798: 91 14        	sta	($14),y                 ; 0x14 <__rc4>
    279a: a6 1a        	ldx	$1a                     ; 0x1a <__rc10>
    279c: 10 03        	bpl	$27a1 <readMIDICmd+0x442>
    279e: 4c 2e 28     	jmp	$282e <readMIDICmd+0x4cf>
    27a1: 8a           	txa
    27a2: a0 11        	ldy	#$11
    27a4: 91 12        	sta	($12),y                 ; 0x12 <__rc2>
    27a6: a5 18        	lda	$18                     ; 0x18 <__rc8>
    27a8: c8           	iny
    27a9: 91 12        	sta	($12),y                 ; 0x12 <__rc2>
    27ab: 85 25        	sta	$25                     ; 0x25 <__rc21>
    27ad: a0 04        	ldy	#$4
    27af: a5 1b        	lda	$1b                     ; 0x1b <__rc11>
    27b1: 91 12        	sta	($12),y                 ; 0x12 <__rc2>
    27b3: a0 01        	ldy	#$1
    27b5: a5 1f        	lda	$1f                     ; 0x1f <__rc15>
    27b7: 85 1a        	sta	$1a                     ; 0x1a <__rc10>
    27b9: 91 14        	sta	($14),y                 ; 0x14 <__rc4>
    27bb: a0 16        	ldy	#$16
    27bd: b1 12        	lda	($12),y                 ; 0x12 <__rc2>
    27bf: a0 10        	ldy	#$10
    27c1: 91 12        	sta	($12),y                 ; 0x12 <__rc2>
    27c3: 85 1f        	sta	$1f                     ; 0x1f <__rc15>
    27c5: a0 02        	ldy	#$2
    27c7: a5 1e        	lda	$1e                     ; 0x1e <__rc14>
    27c9: 85 19        	sta	$19                     ; 0x19 <__rc9>
    27cb: 91 14        	sta	($14),y                 ; 0x14 <__rc4>
    27cd: c8           	iny
    27ce: a5 1d        	lda	$1d                     ; 0x1d <__rc13>
    27d0: 85 18        	sta	$18                     ; 0x18 <__rc8>
    27d2: 91 14        	sta	($14),y                 ; 0x14 <__rc4>
    27d4: a4 25        	ldy	$25                     ; 0x25 <__rc21>
    27d6: 84 15        	sty	$15                     ; 0x15 <__rc5>
    27d8: 86 14        	stx	$14                     ; 0x14 <__rc4>
    27da: a5 1f        	lda	$1f                     ; 0x1f <__rc15>
    27dc: c9 ff        	cmp	#$ff
    27de: d0 03        	bne	$27e3 <readMIDICmd+0x484>
    27e0: 4c 4c 28     	jmp	$284c <readMIDICmd+0x4ed>
    27e3: c9 c0        	cmp	#$c0
    27e5: b0 03        	bcs	$27ea <readMIDICmd+0x48b>
    27e7: 4c a7 28     	jmp	$28a7 <readMIDICmd+0x548>
    27ea: c9 e0        	cmp	#$e0
    27ec: 90 03        	bcc	$27f1 <readMIDICmd+0x492>
    27ee: 4c b8 28     	jmp	$28b8 <readMIDICmd+0x559>
    27f1: e6 1b        	inc	$1b                     ; 0x1b <__rc11>
    27f3: d0 0a        	bne	$27ff <readMIDICmd+0x4a0>
    27f5: e6 1a        	inc	$1a                     ; 0x1a <__rc10>
    27f7: d0 06        	bne	$27ff <readMIDICmd+0x4a0>
    27f9: e6 19        	inc	$19                     ; 0x19 <__rc9>
    27fb: d0 02        	bne	$27ff <readMIDICmd+0x4a0>
    27fd: e6 18        	inc	$18                     ; 0x18 <__rc8>
    27ff: a0 04        	ldy	#$4
    2801: aa           	tax
    2802: a5 1b        	lda	$1b                     ; 0x1b <__rc11>
    2804: 91 12        	sta	($12),y                 ; 0x12 <__rc2>
    2806: 18           	clc
    2807: a5 17        	lda	$17                     ; 0x17 <__rc7>
    2809: 69 04        	adc	#$4
    280b: 85 14        	sta	$14                     ; 0x14 <__rc4>
    280d: a5 16        	lda	$16                     ; 0x16 <__rc6>
    280f: 69 00        	adc	#$0
    2811: 85 15        	sta	$15                     ; 0x15 <__rc5>
    2813: a0 01        	ldy	#$1
    2815: a5 1a        	lda	$1a                     ; 0x1a <__rc10>
    2817: 91 14        	sta	($14),y                 ; 0x14 <__rc4>
    2819: c8           	iny
    281a: a5 19        	lda	$19                     ; 0x19 <__rc9>
    281c: 91 14        	sta	($14),y                 ; 0x14 <__rc4>
    281e: c8           	iny
    281f: a5 18        	lda	$18                     ; 0x18 <__rc8>
    2821: 91 14        	sta	($14),y                 ; 0x14 <__rc4>
    2823: a0 17        	ldy	#$17
    2825: a9 01        	lda	#$1
    2827: 91 12        	sta	($12),y                 ; 0x12 <__rc2>
    2829: 88           	dey
    282a: 8a           	txa
    282b: 4c f8 28     	jmp	$28f8 <readMIDICmd+0x599>
    282e: a4 19        	ldy	$19                     ; 0x19 <__rc9>
    2830: 84 15        	sty	$15                     ; 0x15 <__rc5>
    2832: a4 18        	ldy	$18                     ; 0x18 <__rc8>
    2834: 84 14        	sty	$14                     ; 0x14 <__rc4>
    2836: a4 27        	ldy	$27                     ; 0x27 <__rc23>
    2838: 84 1b        	sty	$1b                     ; 0x1b <__rc11>
    283a: a4 25        	ldy	$25                     ; 0x25 <__rc21>
    283c: 84 1a        	sty	$1a                     ; 0x1a <__rc10>
    283e: a4 28        	ldy	$28                     ; 0x28 <__rc24>
    2840: 84 19        	sty	$19                     ; 0x19 <__rc9>
    2842: 85 18        	sta	$18                     ; 0x18 <__rc8>
    2844: 8a           	txa
    2845: c9 ff        	cmp	#$ff
    2847: f0 03        	beq	$284c <readMIDICmd+0x4ed>
    2849: 4c e3 27     	jmp	$27e3 <readMIDICmd+0x484>
    284c: a0 10        	ldy	#$10
    284e: a9 ff        	lda	#$ff
    2850: 91 12        	sta	($12),y                 ; 0x12 <__rc2>
    2852: c8           	iny
    2853: a5 14        	lda	$14                     ; 0x14 <__rc4>
    2855: 91 12        	sta	($12),y                 ; 0x12 <__rc2>
    2857: c8           	iny
    2858: a5 15        	lda	$15                     ; 0x15 <__rc5>
    285a: 91 12        	sta	($12),y                 ; 0x12 <__rc2>
    285c: a5 14        	lda	$14                     ; 0x14 <__rc4>
    285e: c9 51        	cmp	#$51
    2860: d0 4a        	bne	$28ac <readMIDICmd+0x54d>
    2862: a0 13        	ldy	#$13
    2864: a5 1c        	lda	$1c                     ; 0x1c <__rc12>
    2866: 91 12        	sta	($12),y                 ; 0x12 <__rc2>
    2868: c8           	iny
    2869: a5 22        	lda	$22                     ; 0x22 <__rc18>
    286b: 91 12        	sta	($12),y                 ; 0x12 <__rc2>
    286d: c8           	iny
    286e: a5 23        	lda	$23                     ; 0x23 <__rc19>
    2870: 91 12        	sta	($12),y                 ; 0x12 <__rc2>
    2872: 18           	clc
    2873: a5 1b        	lda	$1b                     ; 0x1b <__rc11>
    2875: 69 05        	adc	#$5
    2877: a2 01        	ldx	#$1
    2879: b0 02        	bcs	$287d <readMIDICmd+0x51e>
    287b: a2 00        	ldx	#$0
    287d: a0 04        	ldy	#$4
    287f: 91 12        	sta	($12),y                 ; 0x12 <__rc2>
    2881: 18           	clc
    2882: a5 17        	lda	$17                     ; 0x17 <__rc7>
    2884: 69 04        	adc	#$4
    2886: 85 12        	sta	$12                     ; 0x12 <__rc2>
    2888: a5 16        	lda	$16                     ; 0x16 <__rc6>
    288a: 69 00        	adc	#$0
    288c: 85 13        	sta	$13                     ; 0x13 <__rc3>
    288e: a5 1a        	lda	$1a                     ; 0x1a <__rc10>
    2890: e0 01        	cpx	#$1
    2892: 69 00        	adc	#$0
    2894: a0 01        	ldy	#$1
    2896: 91 12        	sta	($12),y                 ; 0x12 <__rc2>
    2898: a5 19        	lda	$19                     ; 0x19 <__rc9>
    289a: 69 00        	adc	#$0
    289c: c8           	iny
    289d: 91 12        	sta	($12),y                 ; 0x12 <__rc2>
    289f: a5 18        	lda	$18                     ; 0x18 <__rc8>
    28a1: 69 00        	adc	#$0
    28a3: c8           	iny
    28a4: 4c f8 28     	jmp	$28f8 <readMIDICmd+0x599>
    28a7: aa           	tax
    28a8: 10 50        	bpl	$28fa <readMIDICmd+0x59b>
    28aa: 80 10        	bra	$28bc <readMIDICmd+0x55d>
    28ac: a6 15        	ldx	$15                     ; 0x15 <__rc5>
    28ae: 86 12        	stx	$12                     ; 0x12 <__rc2>
    28b0: aa           	tax
    28b1: a5 24        	lda	$24                     ; 0x24 <__rc20>
    28b3: 20 24 29     	jsr	$2924 <skipWhenFFCmd>
    28b6: 80 42        	bra	$28fa <readMIDICmd+0x59b>
    28b8: c9 f0        	cmp	#$f0
    28ba: b0 3e        	bcs	$28fa <readMIDICmd+0x59b>
    28bc: a0 16        	ldy	#$16
    28be: 91 12        	sta	($12),y                 ; 0x12 <__rc2>
    28c0: 18           	clc
    28c1: a5 1b        	lda	$1b                     ; 0x1b <__rc11>
    28c3: 69 02        	adc	#$2
    28c5: a2 01        	ldx	#$1
    28c7: b0 02        	bcs	$28cb <readMIDICmd+0x56c>
    28c9: a2 00        	ldx	#$0
    28cb: a0 04        	ldy	#$4
    28cd: 91 12        	sta	($12),y                 ; 0x12 <__rc2>
    28cf: 18           	clc
    28d0: a5 17        	lda	$17                     ; 0x17 <__rc7>
    28d2: 69 04        	adc	#$4
    28d4: 85 14        	sta	$14                     ; 0x14 <__rc4>
    28d6: a5 16        	lda	$16                     ; 0x16 <__rc6>
    28d8: 69 00        	adc	#$0
    28da: 85 15        	sta	$15                     ; 0x15 <__rc5>
    28dc: a5 1a        	lda	$1a                     ; 0x1a <__rc10>
    28de: e0 01        	cpx	#$1
    28e0: 69 00        	adc	#$0
    28e2: a0 01        	ldy	#$1
    28e4: 91 14        	sta	($14),y                 ; 0x14 <__rc4>
    28e6: a5 19        	lda	$19                     ; 0x19 <__rc9>
    28e8: 69 00        	adc	#$0
    28ea: c8           	iny
    28eb: 91 14        	sta	($14),y                 ; 0x14 <__rc4>
    28ed: a5 18        	lda	$18                     ; 0x18 <__rc8>
    28ef: 69 00        	adc	#$0
    28f1: c8           	iny
    28f2: 91 14        	sta	($14),y                 ; 0x14 <__rc4>
    28f4: a9 00        	lda	#$0
    28f6: a0 17        	ldy	#$17
    28f8: 91 12        	sta	($12),y                 ; 0x12 <__rc2>
    28fa: a0 00        	ldy	#$0
    28fc: b1 10        	lda	($10),y                 ; 0x10 <__rc0>
    28fe: 85 2a        	sta	$2a                     ; 0x2a <__rc26>
    2900: c8           	iny
    2901: b1 10        	lda	($10),y                 ; 0x10 <__rc0>
    2903: 85 29        	sta	$29                     ; 0x29 <__rc25>
    2905: c8           	iny
    2906: b1 10        	lda	($10),y                 ; 0x10 <__rc0>
    2908: 85 28        	sta	$28                     ; 0x28 <__rc24>
    290a: fa           	plx
    290b: 86 27        	stx	$27                     ; 0x27 <__rc23>
    290d: fa           	plx
    290e: 86 26        	stx	$26                     ; 0x26 <__rc22>
    2910: fa           	plx
    2911: 86 25        	stx	$25                     ; 0x25 <__rc21>
    2913: fa           	plx
    2914: 86 24        	stx	$24                     ; 0x24 <__rc20>
    2916: 18           	clc
    2917: a5 10        	lda	$10                     ; 0x10 <__rc0>
    2919: 69 03        	adc	#$3
    291b: 85 10        	sta	$10                     ; 0x10 <__rc0>
    291d: a5 11        	lda	$11                     ; 0x11 <__rc1>
    291f: 69 00        	adc	#$0
    2921: 85 11        	sta	$11                     ; 0x11 <__rc1>
    2923: 60           	rts

00002924 <skipWhenFFCmd>:
    2924: a8           	tay
    2925: 8a           	txa
    2926: a6 12        	ldx	$12                     ; 0x12 <__rc2>
    2928: 86 81        	stx	$81                     ; 0x81 <__zp_bss_size+0x3d>
    292a: c9 5a        	cmp	#$5a
    292c: 90 03        	bcc	$2931 <skipWhenFFCmd+0xd>
    292e: 4c 39 2b     	jmp	$2b39 <skipWhenFFCmd+0x215>
    2931: 0a           	asl
    2932: aa           	tax
    2933: 7c bd 6e     	jmp	($6ebd,x)               ; 0x6ebd <__set_v+0x13>
    2936: a6 71        	ldx	$71                     ; 0x71 <theOne.8>
    2938: 86 83        	stx	$83                     ; 0x83 <__zp_bss_size+0x3f>
    293a: a6 72        	ldx	$72                     ; 0x72 <theOne.8+0x1>
    293c: 86 82        	stx	$82                     ; 0x82 <__zp_bss_size+0x3e>
    293e: a2 19        	ldx	#$19
    2940: 86 12        	stx	$12                     ; 0x12 <__rc2>
    2942: 64 13        	stz	$13                     ; 0x13 <__rc3>
    2944: a2 00        	ldx	#$0
    2946: 98           	tya
    2947: 20 08 6e     	jsr	$6e08 <__mulhi3>
    294a: 85 12        	sta	$12                     ; 0x12 <__rc2>
    294c: 86 13        	stx	$13                     ; 0x13 <__rc3>
    294e: 18           	clc
    294f: a6 83        	ldx	$83                     ; 0x83 <__zp_bss_size+0x3f>
    2951: 8a           	txa
    2952: 65 12        	adc	$12                     ; 0x12 <__rc2>
    2954: a8           	tay
    2955: a5 82        	lda	$82                     ; 0x82 <__zp_bss_size+0x3e>
    2957: 65 13        	adc	$13                     ; 0x13 <__rc3>
    2959: aa           	tax
    295a: 98           	tya
    295b: 84 12        	sty	$12                     ; 0x12 <__rc2>
    295d: 86 13        	stx	$13                     ; 0x13 <__rc3>
    295f: 18           	clc
    2960: 69 04        	adc	#$4
    2962: 85 14        	sta	$14                     ; 0x14 <__rc4>
    2964: 8a           	txa
    2965: 69 00        	adc	#$0
    2967: 85 15        	sta	$15                     ; 0x15 <__rc5>
    2969: 18           	clc
    296a: a6 81        	ldx	$81                     ; 0x81 <__zp_bss_size+0x3d>
    296c: 8a           	txa
    296d: a0 04        	ldy	#$4
    296f: 71 12        	adc	($12),y                 ; 0x12 <__rc2>
    2971: 85 16        	sta	$16                     ; 0x16 <__rc6>
    2973: a2 04        	ldx	#$4
    2975: 86 17        	stx	$17                     ; 0x17 <__rc7>
    2977: a9 00        	lda	#$0
    2979: a0 01        	ldy	#$1
    297b: 71 14        	adc	($14),y                 ; 0x14 <__rc4>
    297d: 85 19        	sta	$19                     ; 0x19 <__rc9>
    297f: a2 01        	ldx	#$1
    2981: 86 18        	stx	$18                     ; 0x18 <__rc8>
    2983: c8           	iny
    2984: a9 00        	lda	#$0
    2986: 71 14        	adc	($14),y                 ; 0x14 <__rc4>
    2988: 85 1b        	sta	$1b                     ; 0x1b <__rc11>
    298a: e8           	inx
    298b: 86 1a        	stx	$1a                     ; 0x1a <__rc10>
    298d: c8           	iny
    298e: a9 00        	lda	#$0
    2990: 71 14        	adc	($14),y                 ; 0x14 <__rc4>
    2992: e8           	inx
    2993: 86 1c        	stx	$1c                     ; 0x1c <__rc12>
    2995: aa           	tax
    2996: 18           	clc
    2997: a5 16        	lda	$16                     ; 0x16 <__rc6>
    2999: 69 02        	adc	#$2
    299b: a4 17        	ldy	$17                     ; 0x17 <__rc7>
    299d: 91 12        	sta	($12),y                 ; 0x12 <__rc2>
    299f: a5 19        	lda	$19                     ; 0x19 <__rc9>
    29a1: 69 00        	adc	#$0
    29a3: a4 18        	ldy	$18                     ; 0x18 <__rc8>
    29a5: 91 14        	sta	($14),y                 ; 0x14 <__rc4>
    29a7: a5 1b        	lda	$1b                     ; 0x1b <__rc11>
    29a9: 69 00        	adc	#$0
    29ab: a4 1a        	ldy	$1a                     ; 0x1a <__rc10>
    29ad: 91 14        	sta	($14),y                 ; 0x14 <__rc4>
    29af: 8a           	txa
    29b0: 69 00        	adc	#$0
    29b2: a4 1c        	ldy	$1c                     ; 0x1c <__rc12>
    29b4: 91 14        	sta	($14),y                 ; 0x14 <__rc4>
    29b6: 60           	rts
    29b7: a6 71        	ldx	$71                     ; 0x71 <theOne.8>
    29b9: 86 82        	stx	$82                     ; 0x82 <__zp_bss_size+0x3e>
    29bb: a6 72        	ldx	$72                     ; 0x72 <theOne.8+0x1>
    29bd: 86 81        	stx	$81                     ; 0x81 <__zp_bss_size+0x3d>
    29bf: a2 19        	ldx	#$19
    29c1: 86 12        	stx	$12                     ; 0x12 <__rc2>
    29c3: 64 13        	stz	$13                     ; 0x13 <__rc3>
    29c5: a2 00        	ldx	#$0
    29c7: 98           	tya
    29c8: 20 08 6e     	jsr	$6e08 <__mulhi3>
    29cb: 85 12        	sta	$12                     ; 0x12 <__rc2>
    29cd: 86 13        	stx	$13                     ; 0x13 <__rc3>
    29cf: 18           	clc
    29d0: a6 82        	ldx	$82                     ; 0x82 <__zp_bss_size+0x3e>
    29d2: 8a           	txa
    29d3: 65 12        	adc	$12                     ; 0x12 <__rc2>
    29d5: a8           	tay
    29d6: a5 81        	lda	$81                     ; 0x81 <__zp_bss_size+0x3d>
    29d8: 65 13        	adc	$13                     ; 0x13 <__rc3>
    29da: aa           	tax
    29db: 98           	tya
    29dc: 84 14        	sty	$14                     ; 0x14 <__rc4>
    29de: 86 15        	stx	$15                     ; 0x15 <__rc5>
    29e0: 18           	clc
    29e1: 69 04        	adc	#$4
    29e3: 85 12        	sta	$12                     ; 0x12 <__rc2>
    29e5: 8a           	txa
    29e6: 69 00        	adc	#$0
    29e8: a0 04        	ldy	#$4
    29ea: 85 13        	sta	$13                     ; 0x13 <__rc3>
    29ec: b1 14        	lda	($14),y                 ; 0x14 <__rc4>
    29ee: 18           	clc
    29ef: 69 03        	adc	#$3
    29f1: 4c 21 2b     	jmp	$2b21 <skipWhenFFCmd+0x1fd>
    29f4: a6 71        	ldx	$71                     ; 0x71 <theOne.8>
    29f6: 86 82        	stx	$82                     ; 0x82 <__zp_bss_size+0x3e>
    29f8: a6 72        	ldx	$72                     ; 0x72 <theOne.8+0x1>
    29fa: 86 81        	stx	$81                     ; 0x81 <__zp_bss_size+0x3d>
    29fc: a2 19        	ldx	#$19
    29fe: 86 12        	stx	$12                     ; 0x12 <__rc2>
    2a00: 64 13        	stz	$13                     ; 0x13 <__rc3>
    2a02: a2 00        	ldx	#$0
    2a04: 98           	tya
    2a05: 20 08 6e     	jsr	$6e08 <__mulhi3>
    2a08: 85 12        	sta	$12                     ; 0x12 <__rc2>
    2a0a: 86 13        	stx	$13                     ; 0x13 <__rc3>
    2a0c: 18           	clc
    2a0d: a6 82        	ldx	$82                     ; 0x82 <__zp_bss_size+0x3e>
    2a0f: 8a           	txa
    2a10: 65 12        	adc	$12                     ; 0x12 <__rc2>
    2a12: a8           	tay
    2a13: a5 81        	lda	$81                     ; 0x81 <__zp_bss_size+0x3d>
    2a15: 65 13        	adc	$13                     ; 0x13 <__rc3>
    2a17: aa           	tax
    2a18: 98           	tya
    2a19: 84 14        	sty	$14                     ; 0x14 <__rc4>
    2a1b: 86 15        	stx	$15                     ; 0x15 <__rc5>
    2a1d: 18           	clc
    2a1e: 69 04        	adc	#$4
    2a20: 85 12        	sta	$12                     ; 0x12 <__rc2>
    2a22: 8a           	txa
    2a23: 69 00        	adc	#$0
    2a25: a0 04        	ldy	#$4
    2a27: 85 13        	sta	$13                     ; 0x13 <__rc3>
    2a29: b1 14        	lda	($14),y                 ; 0x14 <__rc4>
    2a2b: 18           	clc
    2a2c: 69 07        	adc	#$7
    2a2e: 4c 21 2b     	jmp	$2b21 <skipWhenFFCmd+0x1fd>
    2a31: a6 71        	ldx	$71                     ; 0x71 <theOne.8>
    2a33: 86 82        	stx	$82                     ; 0x82 <__zp_bss_size+0x3e>
    2a35: a6 72        	ldx	$72                     ; 0x72 <theOne.8+0x1>
    2a37: 86 81        	stx	$81                     ; 0x81 <__zp_bss_size+0x3d>
    2a39: a2 19        	ldx	#$19
    2a3b: 86 12        	stx	$12                     ; 0x12 <__rc2>
    2a3d: 64 13        	stz	$13                     ; 0x13 <__rc3>
    2a3f: a2 00        	ldx	#$0
    2a41: 98           	tya
    2a42: 20 08 6e     	jsr	$6e08 <__mulhi3>
    2a45: 85 12        	sta	$12                     ; 0x12 <__rc2>
    2a47: 86 13        	stx	$13                     ; 0x13 <__rc3>
    2a49: 18           	clc
    2a4a: a6 82        	ldx	$82                     ; 0x82 <__zp_bss_size+0x3e>
    2a4c: 8a           	txa
    2a4d: 65 12        	adc	$12                     ; 0x12 <__rc2>
    2a4f: a8           	tay
    2a50: a5 81        	lda	$81                     ; 0x81 <__zp_bss_size+0x3d>
    2a52: 65 13        	adc	$13                     ; 0x13 <__rc3>
    2a54: aa           	tax
    2a55: 98           	tya
    2a56: 84 14        	sty	$14                     ; 0x14 <__rc4>
    2a58: 86 15        	stx	$15                     ; 0x15 <__rc5>
    2a5a: 18           	clc
    2a5b: 69 04        	adc	#$4
    2a5d: 85 12        	sta	$12                     ; 0x12 <__rc2>
    2a5f: 8a           	txa
    2a60: 69 00        	adc	#$0
    2a62: a0 04        	ldy	#$4
    2a64: 85 13        	sta	$13                     ; 0x13 <__rc3>
    2a66: b1 14        	lda	($14),y                 ; 0x14 <__rc4>
    2a68: 18           	clc
    2a69: 69 05        	adc	#$5
    2a6b: 4c 21 2b     	jmp	$2b21 <skipWhenFFCmd+0x1fd>
    2a6e: a6 71        	ldx	$71                     ; 0x71 <theOne.8>
    2a70: 86 82        	stx	$82                     ; 0x82 <__zp_bss_size+0x3e>
    2a72: a6 72        	ldx	$72                     ; 0x72 <theOne.8+0x1>
    2a74: 86 81        	stx	$81                     ; 0x81 <__zp_bss_size+0x3d>
    2a76: a2 19        	ldx	#$19
    2a78: 86 12        	stx	$12                     ; 0x12 <__rc2>
    2a7a: 64 13        	stz	$13                     ; 0x13 <__rc3>
    2a7c: a2 00        	ldx	#$0
    2a7e: 98           	tya
    2a7f: 20 08 6e     	jsr	$6e08 <__mulhi3>
    2a82: 85 12        	sta	$12                     ; 0x12 <__rc2>
    2a84: 86 13        	stx	$13                     ; 0x13 <__rc3>
    2a86: 18           	clc
    2a87: a6 82        	ldx	$82                     ; 0x82 <__zp_bss_size+0x3e>
    2a89: 8a           	txa
    2a8a: 65 12        	adc	$12                     ; 0x12 <__rc2>
    2a8c: a8           	tay
    2a8d: a5 81        	lda	$81                     ; 0x81 <__zp_bss_size+0x3d>
    2a8f: 65 13        	adc	$13                     ; 0x13 <__rc3>
    2a91: aa           	tax
    2a92: 98           	tya
    2a93: 84 14        	sty	$14                     ; 0x14 <__rc4>
    2a95: 86 15        	stx	$15                     ; 0x15 <__rc5>
    2a97: 18           	clc
    2a98: 69 04        	adc	#$4
    2a9a: 85 12        	sta	$12                     ; 0x12 <__rc2>
    2a9c: 8a           	txa
    2a9d: 69 00        	adc	#$0
    2a9f: a0 04        	ldy	#$4
    2aa1: 85 13        	sta	$13                     ; 0x13 <__rc3>
    2aa3: b1 14        	lda	($14),y                 ; 0x14 <__rc4>
    2aa5: 18           	clc
    2aa6: 69 04        	adc	#$4
    2aa8: 4c 21 2b     	jmp	$2b21 <skipWhenFFCmd+0x1fd>
    2aab: a6 71        	ldx	$71                     ; 0x71 <theOne.8>
    2aad: 86 82        	stx	$82                     ; 0x82 <__zp_bss_size+0x3e>
    2aaf: a6 72        	ldx	$72                     ; 0x72 <theOne.8+0x1>
    2ab1: 86 81        	stx	$81                     ; 0x81 <__zp_bss_size+0x3d>
    2ab3: a2 19        	ldx	#$19
    2ab5: 86 12        	stx	$12                     ; 0x12 <__rc2>
    2ab7: 64 13        	stz	$13                     ; 0x13 <__rc3>
    2ab9: a2 00        	ldx	#$0
    2abb: 98           	tya
    2abc: 20 08 6e     	jsr	$6e08 <__mulhi3>
    2abf: 85 12        	sta	$12                     ; 0x12 <__rc2>
    2ac1: 86 13        	stx	$13                     ; 0x13 <__rc3>
    2ac3: 18           	clc
    2ac4: a6 82        	ldx	$82                     ; 0x82 <__zp_bss_size+0x3e>
    2ac6: 8a           	txa
    2ac7: 65 12        	adc	$12                     ; 0x12 <__rc2>
    2ac9: a8           	tay
    2aca: a5 81        	lda	$81                     ; 0x81 <__zp_bss_size+0x3d>
    2acc: 65 13        	adc	$13                     ; 0x13 <__rc3>
    2ace: aa           	tax
    2acf: 98           	tya
    2ad0: 84 14        	sty	$14                     ; 0x14 <__rc4>
    2ad2: 86 15        	stx	$15                     ; 0x15 <__rc5>
    2ad4: 18           	clc
    2ad5: 69 04        	adc	#$4
    2ad7: 85 12        	sta	$12                     ; 0x12 <__rc2>
    2ad9: 8a           	txa
    2ada: 69 00        	adc	#$0
    2adc: a0 04        	ldy	#$4
    2ade: 85 13        	sta	$13                     ; 0x13 <__rc3>
    2ae0: b1 14        	lda	($14),y                 ; 0x14 <__rc4>
    2ae2: 18           	clc
    2ae3: 69 02        	adc	#$2
    2ae5: 80 3a        	bra	$2b21 <skipWhenFFCmd+0x1fd>
    2ae7: a6 71        	ldx	$71                     ; 0x71 <theOne.8>
    2ae9: 86 82        	stx	$82                     ; 0x82 <__zp_bss_size+0x3e>
    2aeb: a6 72        	ldx	$72                     ; 0x72 <theOne.8+0x1>
    2aed: 86 81        	stx	$81                     ; 0x81 <__zp_bss_size+0x3d>
    2aef: a2 19        	ldx	#$19
    2af1: 86 12        	stx	$12                     ; 0x12 <__rc2>
    2af3: 64 13        	stz	$13                     ; 0x13 <__rc3>
    2af5: a2 00        	ldx	#$0
    2af7: 98           	tya
    2af8: 20 08 6e     	jsr	$6e08 <__mulhi3>
    2afb: 85 12        	sta	$12                     ; 0x12 <__rc2>
    2afd: 86 13        	stx	$13                     ; 0x13 <__rc3>
    2aff: 18           	clc
    2b00: a6 82        	ldx	$82                     ; 0x82 <__zp_bss_size+0x3e>
    2b02: 8a           	txa
    2b03: 65 12        	adc	$12                     ; 0x12 <__rc2>
    2b05: a8           	tay
    2b06: a5 81        	lda	$81                     ; 0x81 <__zp_bss_size+0x3d>
    2b08: 65 13        	adc	$13                     ; 0x13 <__rc3>
    2b0a: aa           	tax
    2b0b: 98           	tya
    2b0c: 84 14        	sty	$14                     ; 0x14 <__rc4>
    2b0e: 86 15        	stx	$15                     ; 0x15 <__rc5>
    2b10: 18           	clc
    2b11: 69 04        	adc	#$4
    2b13: 85 12        	sta	$12                     ; 0x12 <__rc2>
    2b15: 8a           	txa
    2b16: 69 00        	adc	#$0
    2b18: a0 04        	ldy	#$4
    2b1a: 85 13        	sta	$13                     ; 0x13 <__rc3>
    2b1c: b1 14        	lda	($14),y                 ; 0x14 <__rc4>
    2b1e: 18           	clc
    2b1f: 69 06        	adc	#$6
    2b21: 91 14        	sta	($14),y                 ; 0x14 <__rc4>
    2b23: a0 01        	ldy	#$1
    2b25: b1 12        	lda	($12),y                 ; 0x12 <__rc2>
    2b27: 69 00        	adc	#$0
    2b29: 91 12        	sta	($12),y                 ; 0x12 <__rc2>
    2b2b: c8           	iny
    2b2c: b1 12        	lda	($12),y                 ; 0x12 <__rc2>
    2b2e: 69 00        	adc	#$0
    2b30: 91 12        	sta	($12),y                 ; 0x12 <__rc2>
    2b32: c8           	iny
    2b33: b1 12        	lda	($12),y                 ; 0x12 <__rc2>
    2b35: 69 00        	adc	#$0
    2b37: 91 12        	sta	($12),y                 ; 0x12 <__rc2>
    2b39: 60           	rts

00002b3a <exhaustZeroes>:
    2b3a: 48           	pha
    2b3b: 18           	clc
    2b3c: a5 10        	lda	$10                     ; 0x10 <__rc0>
    2b3e: 69 f9        	adc	#$f9
    2b40: 85 10        	sta	$10                     ; 0x10 <__rc0>
    2b42: a5 11        	lda	$11                     ; 0x11 <__rc1>
    2b44: 69 ff        	adc	#$ff
    2b46: 85 11        	sta	$11                     ; 0x11 <__rc1>
    2b48: 68           	pla
    2b49: a6 24        	ldx	$24                     ; 0x24 <__rc20>
    2b4b: da           	phx
    2b4c: a6 25        	ldx	$25                     ; 0x25 <__rc21>
    2b4e: da           	phx
    2b4f: a6 26        	ldx	$26                     ; 0x26 <__rc22>
    2b51: da           	phx
    2b52: a6 27        	ldx	$27                     ; 0x27 <__rc23>
    2b54: da           	phx
    2b55: 48           	pha
    2b56: a5 28        	lda	$28                     ; 0x28 <__rc24>
    2b58: a0 01        	ldy	#$1
    2b5a: 91 10        	sta	($10),y                 ; 0x10 <__rc0>
    2b5c: a5 29        	lda	$29                     ; 0x29 <__rc25>
    2b5e: 88           	dey
    2b5f: 91 10        	sta	($10),y                 ; 0x10 <__rc0>
    2b61: 68           	pla
    2b62: 85 24        	sta	$24                     ; 0x24 <__rc20>
    2b64: a6 71        	ldx	$71                     ; 0x71 <theOne.8>
    2b66: 86 26        	stx	$26                     ; 0x26 <__rc22>
    2b68: a6 72        	ldx	$72                     ; 0x72 <theOne.8+0x1>
    2b6a: 86 25        	stx	$25                     ; 0x25 <__rc21>
    2b6c: a2 19        	ldx	#$19
    2b6e: 86 12        	stx	$12                     ; 0x12 <__rc2>
    2b70: 64 13        	stz	$13                     ; 0x13 <__rc3>
    2b72: a2 00        	ldx	#$0
    2b74: 20 08 6e     	jsr	$6e08 <__mulhi3>
    2b77: 85 12        	sta	$12                     ; 0x12 <__rc2>
    2b79: 86 13        	stx	$13                     ; 0x13 <__rc3>
    2b7b: 18           	clc
    2b7c: a5 26        	lda	$26                     ; 0x26 <__rc22>
    2b7e: 65 12        	adc	$12                     ; 0x12 <__rc2>
    2b80: aa           	tax
    2b81: a5 25        	lda	$25                     ; 0x25 <__rc21>
    2b83: 65 13        	adc	$13                     ; 0x13 <__rc3>
    2b85: 86 12        	stx	$12                     ; 0x12 <__rc2>
    2b87: 85 15        	sta	$15                     ; 0x15 <__rc5>
    2b89: 85 13        	sta	$13                     ; 0x13 <__rc3>
    2b8b: a0 18        	ldy	#$18
    2b8d: b1 12        	lda	($12),y                 ; 0x12 <__rc2>
    2b8f: f0 03        	beq	$2b94 <exhaustZeroes+0x5a>
    2b91: 4c 0d 2e     	jmp	$2e0d <exhaustZeroes+0x2d3>
    2b94: a0 0c        	ldy	#$c
    2b96: 18           	clc
    2b97: 8a           	txa
    2b98: 69 0c        	adc	#$c
    2b9a: 85 14        	sta	$14                     ; 0x14 <__rc4>
    2b9c: a5 15        	lda	$15                     ; 0x15 <__rc5>
    2b9e: 69 00        	adc	#$0
    2ba0: 85 15        	sta	$15                     ; 0x15 <__rc5>
    2ba2: b1 12        	lda	($12),y                 ; 0x12 <__rc2>
    2ba4: 85 12        	sta	$12                     ; 0x12 <__rc2>
    2ba6: a0 01        	ldy	#$1
    2ba8: b1 14        	lda	($14),y                 ; 0x14 <__rc4>
    2baa: 85 13        	sta	$13                     ; 0x13 <__rc3>
    2bac: c8           	iny
    2bad: b1 14        	lda	($14),y                 ; 0x14 <__rc4>
    2baf: 85 16        	sta	$16                     ; 0x16 <__rc6>
    2bb1: c8           	iny
    2bb2: a2 03        	ldx	#$3
    2bb4: b1 14        	lda	($14),y                 ; 0x14 <__rc4>
    2bb6: f0 03        	beq	$2bbb <exhaustZeroes+0x81>
    2bb8: 4c 0d 2e     	jmp	$2e0d <exhaustZeroes+0x2d3>
    2bbb: a5 16        	lda	$16                     ; 0x16 <__rc6>
    2bbd: f0 03        	beq	$2bc2 <exhaustZeroes+0x88>
    2bbf: 4c 0d 2e     	jmp	$2e0d <exhaustZeroes+0x2d3>
    2bc2: a5 13        	lda	$13                     ; 0x13 <__rc3>
    2bc4: f0 03        	beq	$2bc9 <exhaustZeroes+0x8f>
    2bc6: 4c 0d 2e     	jmp	$2e0d <exhaustZeroes+0x2d3>
    2bc9: a5 12        	lda	$12                     ; 0x12 <__rc2>
    2bcb: f0 03        	beq	$2bd0 <exhaustZeroes+0x96>
    2bcd: 4c 0d 2e     	jmp	$2e0d <exhaustZeroes+0x2d3>
    2bd0: 86 28        	stx	$28                     ; 0x28 <__rc24>
    2bd2: a2 19        	ldx	#$19
    2bd4: 64 27        	stz	$27                     ; 0x27 <__rc23>
    2bd6: a0 00        	ldy	#$0
    2bd8: 84 29        	sty	$29                     ; 0x29 <__rc25>
    2bda: 86 12        	stx	$12                     ; 0x12 <__rc2>
    2bdc: 64 13        	stz	$13                     ; 0x13 <__rc3>
    2bde: a2 00        	ldx	#$0
    2be0: a5 24        	lda	$24                     ; 0x24 <__rc20>
    2be2: 20 08 6e     	jsr	$6e08 <__mulhi3>
    2be5: 86 12        	stx	$12                     ; 0x12 <__rc2>
    2be7: a6 29        	ldx	$29                     ; 0x29 <__rc25>
    2be9: e0 01        	cpx	#$1
    2beb: 65 26        	adc	$26                     ; 0x26 <__rc22>
    2bed: aa           	tax
    2bee: a5 25        	lda	$25                     ; 0x25 <__rc21>
    2bf0: 65 12        	adc	$12                     ; 0x12 <__rc2>
    2bf2: 86 25        	stx	$25                     ; 0x25 <__rc21>
    2bf4: 86 26        	stx	$26                     ; 0x26 <__rc22>
    2bf6: 85 29        	sta	$29                     ; 0x29 <__rc25>
    2bf8: 85 27        	sta	$27                     ; 0x27 <__rc23>
    2bfa: a0 10        	ldy	#$10
    2bfc: b1 26        	lda	($26),y                 ; 0x26 <__rc22>
    2bfe: aa           	tax
    2bff: c8           	iny
    2c00: b1 26        	lda	($26),y                 ; 0x26 <__rc22>
    2c02: 85 14        	sta	$14                     ; 0x14 <__rc4>
    2c04: e0 ff        	cpx	#$ff
    2c06: f0 0c        	beq	$2c14 <exhaustZeroes+0xda>
    2c08: 86 15        	stx	$15                     ; 0x15 <__rc5>
    2c0a: a0 17        	ldy	#$17
    2c0c: b1 26        	lda	($26),y                 ; 0x26 <__rc22>
    2c0e: f0 25        	beq	$2c35 <exhaustZeroes+0xfb>
    2c10: a2 02        	ldx	#$2
    2c12: 80 23        	bra	$2c37 <exhaustZeroes+0xfd>
    2c14: a5 25        	lda	$25                     ; 0x25 <__rc21>
    2c16: a4 28        	ldy	$28                     ; 0x28 <__rc24>
    2c18: a6 14        	ldx	$14                     ; 0x14 <__rc4>
    2c1a: e0 51        	cpx	#$51
    2c1c: d0 03        	bne	$2c21 <exhaustZeroes+0xe7>
    2c1e: 4c 8e 2d     	jmp	$2d8e <exhaustZeroes+0x254>
    2c21: a6 14        	ldx	$14                     ; 0x14 <__rc4>
    2c23: e0 2f        	cpx	#$2f
    2c25: d0 23        	bne	$2c4a <exhaustZeroes+0x110>
    2c27: aa           	tax
    2c28: a9 01        	lda	#$1
    2c2a: 84 14        	sty	$14                     ; 0x14 <__rc4>
    2c2c: a0 18        	ldy	#$18
    2c2e: 91 26        	sta	($26),y                 ; 0x26 <__rc22>
    2c30: a4 14        	ldy	$14                     ; 0x14 <__rc4>
    2c32: 8a           	txa
    2c33: 80 15        	bra	$2c4a <exhaustZeroes+0x110>
    2c35: a2 03        	ldx	#$3
    2c37: a0 12        	ldy	#$12
    2c39: b1 26        	lda	($26),y                 ; 0x26 <__rc22>
    2c3b: 85 12        	sta	$12                     ; 0x12 <__rc2>
    2c3d: 86 13        	stx	$13                     ; 0x13 <__rc3>
    2c3f: a6 14        	ldx	$14                     ; 0x14 <__rc4>
    2c41: a5 15        	lda	$15                     ; 0x15 <__rc5>
    2c43: 20 ae 1b     	jsr	$1bae <sendAME>
    2c46: a4 28        	ldy	$28                     ; 0x28 <__rc24>
    2c48: a5 25        	lda	$25                     ; 0x25 <__rc21>
    2c4a: 18           	clc
    2c4b: 69 04        	adc	#$4
    2c4d: 85 14        	sta	$14                     ; 0x14 <__rc4>
    2c4f: a5 29        	lda	$29                     ; 0x29 <__rc25>
    2c51: 69 00        	adc	#$0
    2c53: 85 15        	sta	$15                     ; 0x15 <__rc5>
    2c55: b1 14        	lda	($14),y                 ; 0x14 <__rc4>
    2c57: d1 26        	cmp	($26),y                 ; 0x26 <__rc22>
    2c59: d0 2d        	bne	$2c88 <exhaustZeroes+0x14e>
    2c5b: a0 02        	ldy	#$2
    2c5d: b1 14        	lda	($14),y                 ; 0x14 <__rc4>
    2c5f: aa           	tax
    2c60: b1 26        	lda	($26),y                 ; 0x26 <__rc22>
    2c62: 85 16        	sta	$16                     ; 0x16 <__rc6>
    2c64: e4 16        	cpx	$16                     ; 0x16 <__rc6>
    2c66: d0 27        	bne	$2c8f <exhaustZeroes+0x155>
    2c68: a0 01        	ldy	#$1
    2c6a: b1 14        	lda	($14),y                 ; 0x14 <__rc4>
    2c6c: aa           	tax
    2c6d: b1 26        	lda	($26),y                 ; 0x26 <__rc22>
    2c6f: 85 14        	sta	$14                     ; 0x14 <__rc4>
    2c71: e4 14        	cpx	$14                     ; 0x14 <__rc4>
    2c73: d0 0c        	bne	$2c81 <exhaustZeroes+0x147>
    2c75: a0 04        	ldy	#$4
    2c77: b1 26        	lda	($26),y                 ; 0x26 <__rc22>
    2c79: 85 12        	sta	$12                     ; 0x12 <__rc2>
    2c7b: b2 26        	lda	($26)                   ; 0x26 <__rc22>
    2c7d: 85 14        	sta	$14                     ; 0x14 <__rc4>
    2c7f: a6 12        	ldx	$12                     ; 0x12 <__rc2>
    2c81: e4 14        	cpx	$14                     ; 0x14 <__rc4>
    2c83: 90 11        	bcc	$2c96 <exhaustZeroes+0x15c>
    2c85: 4c 01 2e     	jmp	$2e01 <exhaustZeroes+0x2c7>
    2c88: d1 26        	cmp	($26),y                 ; 0x26 <__rc22>
    2c8a: 90 0a        	bcc	$2c96 <exhaustZeroes+0x15c>
    2c8c: 4c 01 2e     	jmp	$2e01 <exhaustZeroes+0x2c7>
    2c8f: e4 16        	cpx	$16                     ; 0x16 <__rc6>
    2c91: 90 03        	bcc	$2c96 <exhaustZeroes+0x15c>
    2c93: 4c 01 2e     	jmp	$2e01 <exhaustZeroes+0x2c7>
    2c96: a5 24        	lda	$24                     ; 0x24 <__rc20>
    2c98: 20 9e 1e     	jsr	$1e9e <readDelta>
    2c9b: a0 03        	ldy	#$3
    2c9d: 91 10        	sta	($10),y                 ; 0x10 <__rc0>
    2c9f: 8a           	txa
    2ca0: c8           	iny
    2ca1: 91 10        	sta	($10),y                 ; 0x10 <__rc0>
    2ca3: a5 12        	lda	$12                     ; 0x12 <__rc2>
    2ca5: a0 06        	ldy	#$6
    2ca7: 91 10        	sta	($10),y                 ; 0x10 <__rc0>
    2ca9: a5 13        	lda	$13                     ; 0x13 <__rc3>
    2cab: 88           	dey
    2cac: 91 10        	sta	($10),y                 ; 0x10 <__rc0>
    2cae: a6 71        	ldx	$71                     ; 0x71 <theOne.8>
    2cb0: 86 25        	stx	$25                     ; 0x25 <__rc21>
    2cb2: a6 72        	ldx	$72                     ; 0x72 <theOne.8+0x1>
    2cb4: 86 28        	stx	$28                     ; 0x28 <__rc24>
    2cb6: a2 19        	ldx	#$19
    2cb8: 86 12        	stx	$12                     ; 0x12 <__rc2>
    2cba: 64 27        	stz	$27                     ; 0x27 <__rc23>
    2cbc: 64 13        	stz	$13                     ; 0x13 <__rc3>
    2cbe: a2 00        	ldx	#$0
    2cc0: a5 24        	lda	$24                     ; 0x24 <__rc20>
    2cc2: 20 08 6e     	jsr	$6e08 <__mulhi3>
    2cc5: 85 26        	sta	$26                     ; 0x26 <__rc22>
    2cc7: 86 13        	stx	$13                     ; 0x13 <__rc3>
    2cc9: 48           	pha
    2cca: 8a           	txa
    2ccb: a0 02        	ldy	#$2
    2ccd: 91 10        	sta	($10),y                 ; 0x10 <__rc0>
    2ccf: 68           	pla
    2cd0: 85 12        	sta	$12                     ; 0x12 <__rc2>
    2cd2: 18           	clc
    2cd3: a2 00        	ldx	#$0
    2cd5: 86 29        	stx	$29                     ; 0x29 <__rc25>
    2cd7: a5 25        	lda	$25                     ; 0x25 <__rc21>
    2cd9: 65 12        	adc	$12                     ; 0x12 <__rc2>
    2cdb: a8           	tay
    2cdc: a5 28        	lda	$28                     ; 0x28 <__rc24>
    2cde: 65 13        	adc	$13                     ; 0x13 <__rc3>
    2ce0: aa           	tax
    2ce1: 98           	tya
    2ce2: 84 12        	sty	$12                     ; 0x12 <__rc2>
    2ce4: 86 13        	stx	$13                     ; 0x13 <__rc3>
    2ce6: 18           	clc
    2ce7: 69 0c        	adc	#$c
    2ce9: 85 14        	sta	$14                     ; 0x14 <__rc4>
    2ceb: 8a           	txa
    2cec: 69 00        	adc	#$0
    2cee: 85 15        	sta	$15                     ; 0x15 <__rc5>
    2cf0: a0 0c        	ldy	#$c
    2cf2: 5a           	phy
    2cf3: a0 03        	ldy	#$3
    2cf5: b1 10        	lda	($10),y                 ; 0x10 <__rc0>
    2cf7: 7a           	ply
    2cf8: 91 12        	sta	($12),y                 ; 0x12 <__rc2>
    2cfa: a0 01        	ldy	#$1
    2cfc: 5a           	phy
    2cfd: a0 04        	ldy	#$4
    2cff: b1 10        	lda	($10),y                 ; 0x10 <__rc0>
    2d01: 7a           	ply
    2d02: 91 14        	sta	($14),y                 ; 0x14 <__rc4>
    2d04: a0 02        	ldy	#$2
    2d06: 5a           	phy
    2d07: a0 06        	ldy	#$6
    2d09: b1 10        	lda	($10),y                 ; 0x10 <__rc0>
    2d0b: 7a           	ply
    2d0c: 91 14        	sta	($14),y                 ; 0x14 <__rc4>
    2d0e: a0 03        	ldy	#$3
    2d10: 5a           	phy
    2d11: a0 05        	ldy	#$5
    2d13: b1 10        	lda	($10),y                 ; 0x10 <__rc0>
    2d15: 7a           	ply
    2d16: 91 14        	sta	($14),y                 ; 0x14 <__rc4>
    2d18: a5 24        	lda	$24                     ; 0x24 <__rc20>
    2d1a: 20 5f 23     	jsr	$235f <readMIDICmd>
    2d1d: a6 71        	ldx	$71                     ; 0x71 <theOne.8>
    2d1f: a4 72        	ldy	$72                     ; 0x72 <theOne.8+0x1>
    2d21: 84 25        	sty	$25                     ; 0x25 <__rc21>
    2d23: 18           	clc
    2d24: a5 26        	lda	$26                     ; 0x26 <__rc22>
    2d26: 65 71        	adc	$71                     ; 0x71 <theOne.8>
    2d28: 85 14        	sta	$14                     ; 0x14 <__rc4>
    2d2a: a0 02        	ldy	#$2
    2d2c: b1 10        	lda	($10),y                 ; 0x10 <__rc0>
    2d2e: 65 72        	adc	$72                     ; 0x72 <theOne.8+0x1>
    2d30: a8           	tay
    2d31: a5 14        	lda	$14                     ; 0x14 <__rc4>
    2d33: 85 12        	sta	$12                     ; 0x12 <__rc2>
    2d35: 84 15        	sty	$15                     ; 0x15 <__rc5>
    2d37: 84 13        	sty	$13                     ; 0x13 <__rc3>
    2d39: a0 18        	ldy	#$18
    2d3b: b1 12        	lda	($12),y                 ; 0x12 <__rc2>
    2d3d: c8           	iny
    2d3e: c9 00        	cmp	#$0
    2d40: f0 03        	beq	$2d45 <exhaustZeroes+0x20b>
    2d42: 4c 0d 2e     	jmp	$2e0d <exhaustZeroes+0x2d3>
    2d45: 86 26        	stx	$26                     ; 0x26 <__rc22>
    2d47: 18           	clc
    2d48: a5 14        	lda	$14                     ; 0x14 <__rc4>
    2d4a: 69 0c        	adc	#$c
    2d4c: 85 14        	sta	$14                     ; 0x14 <__rc4>
    2d4e: a5 15        	lda	$15                     ; 0x15 <__rc5>
    2d50: 69 00        	adc	#$0
    2d52: 85 15        	sta	$15                     ; 0x15 <__rc5>
    2d54: 84 16        	sty	$16                     ; 0x16 <__rc6>
    2d56: a0 0c        	ldy	#$c
    2d58: b1 12        	lda	($12),y                 ; 0x12 <__rc2>
    2d5a: 85 12        	sta	$12                     ; 0x12 <__rc2>
    2d5c: a0 01        	ldy	#$1
    2d5e: b1 14        	lda	($14),y                 ; 0x14 <__rc4>
    2d60: 85 13        	sta	$13                     ; 0x13 <__rc3>
    2d62: c8           	iny
    2d63: b1 14        	lda	($14),y                 ; 0x14 <__rc4>
    2d65: 85 17        	sta	$17                     ; 0x17 <__rc7>
    2d67: c8           	iny
    2d68: a2 03        	ldx	#$3
    2d6a: 86 28        	stx	$28                     ; 0x28 <__rc24>
    2d6c: b1 14        	lda	($14),y                 ; 0x14 <__rc4>
    2d6e: a6 16        	ldx	$16                     ; 0x16 <__rc6>
    2d70: a8           	tay
    2d71: f0 03        	beq	$2d76 <exhaustZeroes+0x23c>
    2d73: 4c 0d 2e     	jmp	$2e0d <exhaustZeroes+0x2d3>
    2d76: a5 17        	lda	$17                     ; 0x17 <__rc7>
    2d78: f0 03        	beq	$2d7d <exhaustZeroes+0x243>
    2d7a: 4c 0d 2e     	jmp	$2e0d <exhaustZeroes+0x2d3>
    2d7d: a5 13        	lda	$13                     ; 0x13 <__rc3>
    2d7f: f0 03        	beq	$2d84 <exhaustZeroes+0x24a>
    2d81: 4c 0d 2e     	jmp	$2e0d <exhaustZeroes+0x2d3>
    2d84: a5 12        	lda	$12                     ; 0x12 <__rc2>
    2d86: d0 03        	bne	$2d8b <exhaustZeroes+0x251>
    2d88: 4c da 2b     	jmp	$2bda <exhaustZeroes+0xa0>
    2d8b: 4c 0d 2e     	jmp	$2e0d <exhaustZeroes+0x2d3>
    2d8e: 84 25        	sty	$25                     ; 0x25 <__rc21>
    2d90: a0 13        	ldy	#$13
    2d92: 85 28        	sta	$28                     ; 0x28 <__rc24>
    2d94: b1 26        	lda	($26),y                 ; 0x26 <__rc22>
    2d96: 85 12        	sta	$12                     ; 0x12 <__rc2>
    2d98: c8           	iny
    2d99: b1 26        	lda	($26),y                 ; 0x26 <__rc22>
    2d9b: 85 19        	sta	$19                     ; 0x19 <__rc9>
    2d9d: c8           	iny
    2d9e: b1 26        	lda	($26),y                 ; 0x26 <__rc22>
    2da0: a6 62        	ldx	$62                     ; 0x62 <theOne.1>
    2da2: a4 63        	ldy	$63                     ; 0x63 <theOne.1+0x1>
    2da4: 64 13        	stz	$13                     ; 0x13 <__rc3>
    2da6: 86 14        	stx	$14                     ; 0x14 <__rc4>
    2da8: 84 15        	sty	$15                     ; 0x15 <__rc5>
    2daa: 64 16        	stz	$16                     ; 0x16 <__rc6>
    2dac: 64 17        	stz	$17                     ; 0x17 <__rc7>
    2dae: a6 19        	ldx	$19                     ; 0x19 <__rc9>
    2db0: 20 d2 6b     	jsr	$6bd2 <__udivsi3>
    2db3: a4 25        	ldy	$25                     ; 0x25 <__rc21>
    2db5: 86 14        	stx	$14                     ; 0x14 <__rc4>
    2db7: 0a           	asl
    2db8: 26 14        	rol	$14                     ; 0x14 <__rc4>
    2dba: 26 12        	rol	$12                     ; 0x12 <__rc2>
    2dbc: 26 13        	rol	$13                     ; 0x13 <__rc3>
    2dbe: 0a           	asl
    2dbf: 85 15        	sta	$15                     ; 0x15 <__rc5>
    2dc1: 26 14        	rol	$14                     ; 0x14 <__rc4>
    2dc3: 26 12        	rol	$12                     ; 0x12 <__rc2>
    2dc5: 26 13        	rol	$13                     ; 0x13 <__rc3>
    2dc7: 0a           	asl
    2dc8: aa           	tax
    2dc9: a5 14        	lda	$14                     ; 0x14 <__rc4>
    2dcb: 2a           	rol
    2dcc: 85 18        	sta	$18                     ; 0x18 <__rc8>
    2dce: a5 12        	lda	$12                     ; 0x12 <__rc2>
    2dd0: 2a           	rol
    2dd1: 85 19        	sta	$19                     ; 0x19 <__rc9>
    2dd3: a5 13        	lda	$13                     ; 0x13 <__rc3>
    2dd5: 2a           	rol
    2dd6: 85 1a        	sta	$1a                     ; 0x1a <__rc10>
    2dd8: 18           	clc
    2dd9: 8a           	txa
    2dda: 65 15        	adc	$15                     ; 0x15 <__rc5>
    2ddc: 85 15        	sta	$15                     ; 0x15 <__rc5>
    2dde: a5 18        	lda	$18                     ; 0x18 <__rc8>
    2de0: 65 14        	adc	$14                     ; 0x14 <__rc4>
    2de2: 85 18        	sta	$18                     ; 0x18 <__rc8>
    2de4: a5 19        	lda	$19                     ; 0x19 <__rc9>
    2de6: 65 12        	adc	$12                     ; 0x12 <__rc2>
    2de8: 85 14        	sta	$14                     ; 0x14 <__rc4>
    2dea: a5 1a        	lda	$1a                     ; 0x1a <__rc10>
    2dec: 65 13        	adc	$13                     ; 0x13 <__rc3>
    2dee: a6 15        	ldx	$15                     ; 0x15 <__rc5>
    2df0: 86 64        	stx	$64                     ; 0x64 <theOne.2>
    2df2: a6 18        	ldx	$18                     ; 0x18 <__rc8>
    2df4: 86 65        	stx	$65                     ; 0x65 <theOne.2+0x1>
    2df6: a6 14        	ldx	$14                     ; 0x14 <__rc4>
    2df8: 86 66        	stx	$66                     ; 0x66 <theOne.2+0x2>
    2dfa: 85 67        	sta	$67                     ; 0x67 <theOne.2+0x3>
    2dfc: a5 28        	lda	$28                     ; 0x28 <__rc24>
    2dfe: 4c 4a 2c     	jmp	$2c4a <exhaustZeroes+0x110>
    2e01: a0 18        	ldy	#$18
    2e03: a9 01        	lda	#$1
    2e05: 91 26        	sta	($26),y                 ; 0x26 <__rc22>
    2e07: e6 6f        	inc	$6f                     ; 0x6f <theOne.7>
    2e09: d0 02        	bne	$2e0d <exhaustZeroes+0x2d3>
    2e0b: e6 70        	inc	$70                     ; 0x70 <theOne.7+0x1>
    2e0d: a0 00        	ldy	#$0
    2e0f: b1 10        	lda	($10),y                 ; 0x10 <__rc0>
    2e11: 85 29        	sta	$29                     ; 0x29 <__rc25>
    2e13: c8           	iny
    2e14: b1 10        	lda	($10),y                 ; 0x10 <__rc0>
    2e16: 85 28        	sta	$28                     ; 0x28 <__rc24>
    2e18: fa           	plx
    2e19: 86 27        	stx	$27                     ; 0x27 <__rc23>
    2e1b: fa           	plx
    2e1c: 86 26        	stx	$26                     ; 0x26 <__rc22>
    2e1e: fa           	plx
    2e1f: 86 25        	stx	$25                     ; 0x25 <__rc21>
    2e21: fa           	plx
    2e22: 86 24        	stx	$24                     ; 0x24 <__rc20>
    2e24: 18           	clc
    2e25: a5 10        	lda	$10                     ; 0x10 <__rc0>
    2e27: 69 07        	adc	#$7
    2e29: 85 10        	sta	$10                     ; 0x10 <__rc0>
    2e2b: a5 11        	lda	$11                     ; 0x11 <__rc1>
    2e2d: 69 00        	adc	#$0
    2e2f: 85 11        	sta	$11                     ; 0x11 <__rc1>
    2e31: 60           	rts

00002e32 <initTrack>:
    2e32: 18           	clc
    2e33: a5 10        	lda	$10                     ; 0x10 <__rc0>
    2e35: 69 f9        	adc	#$f9
    2e37: 85 10        	sta	$10                     ; 0x10 <__rc0>
    2e39: a5 11        	lda	$11                     ; 0x11 <__rc1>
    2e3b: 69 ff        	adc	#$ff
    2e3d: 85 11        	sta	$11                     ; 0x11 <__rc1>
    2e3f: a6 24        	ldx	$24                     ; 0x24 <__rc20>
    2e41: da           	phx
    2e42: a6 25        	ldx	$25                     ; 0x25 <__rc21>
    2e44: da           	phx
    2e45: a6 26        	ldx	$26                     ; 0x26 <__rc22>
    2e47: da           	phx
    2e48: a6 27        	ldx	$27                     ; 0x27 <__rc23>
    2e4a: da           	phx
    2e4b: a5 28        	lda	$28                     ; 0x28 <__rc24>
    2e4d: a0 02        	ldy	#$2
    2e4f: 91 10        	sta	($10),y                 ; 0x10 <__rc0>
    2e51: a5 29        	lda	$29                     ; 0x29 <__rc25>
    2e53: 88           	dey
    2e54: 91 10        	sta	($10),y                 ; 0x10 <__rc0>
    2e56: a5 2a        	lda	$2a                     ; 0x2a <__rc26>
    2e58: 88           	dey
    2e59: 91 10        	sta	($10),y                 ; 0x10 <__rc0>
    2e5b: a4 0f        	ldy	$f                      ; 0xf <__zp_data_size+0x2>
    2e5d: 78           	sei
    2e5e: a9 18        	lda	#$18
    2e60: 85 0f        	sta	$f                      ; 0xf <__zp_data_size+0x2>
    2e62: ae 0a e0     	ldx	$e00a                   ; 0xe00a <__heap_start+0x60fe>
    2e65: 84 0f        	sty	$f                      ; 0xf <__zp_data_size+0x2>
    2e67: 58           	cli
    2e68: a4 0f        	ldy	$f                      ; 0xf <__zp_data_size+0x2>
    2e6a: 78           	sei
    2e6b: 85 0f        	sta	$f                      ; 0xf <__zp_data_size+0x2>
    2e6d: 85 24        	sta	$24                     ; 0x24 <__rc20>
    2e6f: ad 0b e0     	lda	$e00b                   ; 0xe00b <__heap_start+0x60ff>
    2e72: 84 0f        	sty	$f                      ; 0xf <__zp_data_size+0x2>
    2e74: 58           	cli
    2e75: 85 60        	sta	$60                     ; 0x60 <theOne.0>
    2e77: 86 61        	stx	$61                     ; 0x61 <theOne.0+0x1>
    2e79: a0 19        	ldy	#$19
    2e7b: 64 13        	stz	$13                     ; 0x13 <__rc3>
    2e7d: 84 12        	sty	$12                     ; 0x12 <__rc2>
    2e7f: 20 08 6e     	jsr	$6e08 <__mulhi3>
    2e82: 20 19 68     	jsr	$6819 <malloc>
    2e85: a6 12        	ldx	$12                     ; 0x12 <__rc2>
    2e87: a4 13        	ldy	$13                     ; 0x13 <__rc3>
    2e89: 86 71        	stx	$71                     ; 0x71 <theOne.8>
    2e8b: 84 72        	sty	$72                     ; 0x72 <theOne.8+0x1>
    2e8d: 64 68        	stz	$68                     ; 0x68 <theOne.4>
    2e8f: a2 20        	ldx	#$20
    2e91: 86 64        	stx	$64                     ; 0x64 <theOne.2>
    2e93: a2 a1        	ldx	#$a1
    2e95: 86 65        	stx	$65                     ; 0x65 <theOne.2+0x1>
    2e97: a2 07        	ldx	#$7
    2e99: 86 66        	stx	$66                     ; 0x66 <theOne.2+0x2>
    2e9b: 64 67        	stz	$67                     ; 0x67 <theOne.2+0x3>
    2e9d: a2 ff        	ldx	#$ff
    2e9f: 86 69        	stx	$69                     ; 0x69 <theOne.5>
    2ea1: 86 6a        	stx	$6a                     ; 0x6a <theOne.5+0x1>
    2ea3: 86 6b        	stx	$6b                     ; 0x6b <theOne.5+0x2>
    2ea5: 86 6c        	stx	$6c                     ; 0x6c <theOne.5+0x3>
    2ea7: 64 6d        	stz	$6d                     ; 0x6d <theOne.6>
    2ea9: 64 6e        	stz	$6e                     ; 0x6e <theOne.6+0x1>
    2eab: a2 30        	ldx	#$30
    2ead: 86 62        	stx	$62                     ; 0x62 <theOne.1>
    2eaf: 64 63        	stz	$63                     ; 0x63 <theOne.1+0x1>
    2eb1: 64 6f        	stz	$6f                     ; 0x6f <theOne.7>
    2eb3: 64 70        	stz	$70                     ; 0x70 <theOne.7+0x1>
    2eb5: a4 0f        	ldy	$f                      ; 0xf <__zp_data_size+0x2>
    2eb7: 78           	sei
    2eb8: a6 24        	ldx	$24                     ; 0x24 <__rc20>
    2eba: 86 0f        	stx	$f                      ; 0xf <__zp_data_size+0x2>
    2ebc: ae 0c e0     	ldx	$e00c                   ; 0xe00c <__heap_start+0x6100>
    2ebf: 84 0f        	sty	$f                      ; 0xf <__zp_data_size+0x2>
    2ec1: 58           	cli
    2ec2: a4 0f        	ldy	$f                      ; 0xf <__zp_data_size+0x2>
    2ec4: 78           	sei
    2ec5: a9 18        	lda	#$18
    2ec7: 85 12        	sta	$12                     ; 0x12 <__rc2>
    2ec9: a5 24        	lda	$24                     ; 0x24 <__rc20>
    2ecb: 85 0f        	sta	$f                      ; 0xf <__zp_data_size+0x2>
    2ecd: ad 0d e0     	lda	$e00d                   ; 0xe00d <__heap_start+0x6101>
    2ed0: 84 0f        	sty	$f                      ; 0xf <__zp_data_size+0x2>
    2ed2: 58           	cli
    2ed3: 85 62        	sta	$62                     ; 0x62 <theOne.1>
    2ed5: 86 63        	stx	$63                     ; 0x63 <theOne.1+0x1>
    2ed7: a6 60        	ldx	$60                     ; 0x60 <theOne.0>
    2ed9: a5 61        	lda	$61                     ; 0x61 <theOne.0+0x1>
    2edb: d0 07        	bne	$2ee4 <initTrack+0xb2>
    2edd: e0 00        	cpx	#$0
    2edf: d0 03        	bne	$2ee4 <initTrack+0xb2>
    2ee1: 4c ec 32     	jmp	$32ec <initTrack+0x4ba>
    2ee4: a4 71        	ldy	$71                     ; 0x71 <theOne.8>
    2ee6: 84 24        	sty	$24                     ; 0x24 <__rc20>
    2ee8: a4 72        	ldy	$72                     ; 0x72 <theOne.8+0x1>
    2eea: 84 25        	sty	$25                     ; 0x25 <__rc21>
    2eec: a0 17        	ldy	#$17
    2eee: 84 15        	sty	$15                     ; 0x15 <__rc5>
    2ef0: 86 26        	stx	$26                     ; 0x26 <__rc22>
    2ef2: 85 27        	sta	$27                     ; 0x27 <__rc23>
    2ef4: a6 12        	ldx	$12                     ; 0x12 <__rc2>
    2ef6: 86 28        	stx	$28                     ; 0x28 <__rc24>
    2ef8: 80 06        	bra	$2f00 <initTrack+0xce>
    2efa: 85 25        	sta	$25                     ; 0x25 <__rc21>
    2efc: a5 27        	lda	$27                     ; 0x27 <__rc23>
    2efe: f0 3b        	beq	$2f3b <initTrack+0x109>
    2f00: a6 24        	ldx	$24                     ; 0x24 <__rc20>
    2f02: 86 12        	stx	$12                     ; 0x12 <__rc2>
    2f04: a6 25        	ldx	$25                     ; 0x25 <__rc21>
    2f06: 86 13        	stx	$13                     ; 0x13 <__rc3>
    2f08: 64 14        	stz	$14                     ; 0x14 <__rc4>
    2f0a: a9 00        	lda	#$0
    2f0c: a6 15        	ldx	$15                     ; 0x15 <__rc5>
    2f0e: a4 15        	ldy	$15                     ; 0x15 <__rc5>
    2f10: 84 29        	sty	$29                     ; 0x29 <__rc25>
    2f12: 20 b2 6b     	jsr	$6bb2 <__memset>
    2f15: a2 17        	ldx	#$17
    2f17: 86 15        	stx	$15                     ; 0x15 <__rc5>
    2f19: a9 01        	lda	#$1
    2f1b: a4 29        	ldy	$29                     ; 0x29 <__rc25>
    2f1d: 91 24        	sta	($24),y                 ; 0x24 <__rc20>
    2f1f: a4 28        	ldy	$28                     ; 0x28 <__rc24>
    2f21: 3a           	dec
    2f22: 91 24        	sta	($24),y                 ; 0x24 <__rc20>
    2f24: a5 24        	lda	$24                     ; 0x24 <__rc20>
    2f26: 18           	clc
    2f27: 69 19        	adc	#$19
    2f29: 85 24        	sta	$24                     ; 0x24 <__rc20>
    2f2b: a5 25        	lda	$25                     ; 0x25 <__rc21>
    2f2d: 69 00        	adc	#$0
    2f2f: a2 ff        	ldx	#$ff
    2f31: c6 26        	dec	$26                     ; 0x26 <__rc22>
    2f33: e4 26        	cpx	$26                     ; 0x26 <__rc22>
    2f35: d0 c3        	bne	$2efa <initTrack+0xc8>
    2f37: c6 27        	dec	$27                     ; 0x27 <__rc23>
    2f39: 80 bf        	bra	$2efa <initTrack+0xc8>
    2f3b: a5 26        	lda	$26                     ; 0x26 <__rc22>
    2f3d: d0 c1        	bne	$2f00 <initTrack+0xce>
    2f3f: a2 0e        	ldx	#$e
    2f41: 86 16        	stx	$16                     ; 0x16 <__rc6>
    2f43: 64 18        	stz	$18                     ; 0x18 <__rc8>
    2f45: a2 08        	ldx	#$8
    2f47: 86 19        	stx	$19                     ; 0x19 <__rc9>
    2f49: 64 15        	stz	$15                     ; 0x15 <__rc5>
    2f4b: 64 14        	stz	$14                     ; 0x14 <__rc4>
    2f4d: a9 00        	lda	#$0
    2f4f: aa           	tax
    2f50: 64 27        	stz	$27                     ; 0x27 <__rc23>
    2f52: 85 12        	sta	$12                     ; 0x12 <__rc2>
    2f54: a4 14        	ldy	$14                     ; 0x14 <__rc4>
    2f56: 84 13        	sty	$13                     ; 0x13 <__rc3>
    2f58: a4 15        	ldy	$15                     ; 0x15 <__rc5>
    2f5a: 84 14        	sty	$14                     ; 0x14 <__rc4>
    2f5c: a4 16        	ldy	$16                     ; 0x16 <__rc6>
    2f5e: 84 15        	sty	$15                     ; 0x15 <__rc5>
    2f60: a5 16        	lda	$16                     ; 0x16 <__rc6>
    2f62: 18           	clc
    2f63: 69 04        	adc	#$4
    2f65: 85 17        	sta	$17                     ; 0x17 <__rc7>
    2f67: a5 14        	lda	$14                     ; 0x14 <__rc4>
    2f69: 69 00        	adc	#$0
    2f6b: 85 1b        	sta	$1b                     ; 0x1b <__rc11>
    2f6d: a5 13        	lda	$13                     ; 0x13 <__rc3>
    2f6f: 69 03        	adc	#$3
    2f71: a4 1b        	ldy	$1b                     ; 0x1b <__rc11>
    2f73: 84 16        	sty	$16                     ; 0x16 <__rc6>
    2f75: 06 16        	asl	$16                     ; 0x16 <__rc6>
    2f77: 2a           	rol
    2f78: 06 16        	asl	$16                     ; 0x16 <__rc6>
    2f7a: 2a           	rol
    2f7b: 06 16        	asl	$16                     ; 0x16 <__rc6>
    2f7d: 2a           	rol
    2f7e: 86 1a        	stx	$1a                     ; 0x1a <__rc10>
    2f80: a6 0f        	ldx	$f                      ; 0xf <__zp_data_size+0x2>
    2f82: 78           	sei
    2f83: 85 0f        	sta	$f                      ; 0xf <__zp_data_size+0x2>
    2f85: a5 1b        	lda	$1b                     ; 0x1b <__rc11>
    2f87: 09 e0        	ora	#$e0
    2f89: a4 17        	ldy	$17                     ; 0x17 <__rc7>
    2f8b: 84 16        	sty	$16                     ; 0x16 <__rc6>
    2f8d: 85 17        	sta	$17                     ; 0x17 <__rc7>
    2f8f: b2 16        	lda	($16)                   ; 0x16 <__rc6>
    2f91: 85 1c        	sta	$1c                     ; 0x1c <__rc12>
    2f93: 86 0f        	stx	$f                      ; 0xf <__zp_data_size+0x2>
    2f95: a5 15        	lda	$15                     ; 0x15 <__rc5>
    2f97: 18           	clc
    2f98: 69 05        	adc	#$5
    2f9a: 85 17        	sta	$17                     ; 0x17 <__rc7>
    2f9c: a5 14        	lda	$14                     ; 0x14 <__rc4>
    2f9e: 69 00        	adc	#$0
    2fa0: 85 1b        	sta	$1b                     ; 0x1b <__rc11>
    2fa2: a5 13        	lda	$13                     ; 0x13 <__rc3>
    2fa4: 69 03        	adc	#$3
    2fa6: a6 1b        	ldx	$1b                     ; 0x1b <__rc11>
    2fa8: 86 16        	stx	$16                     ; 0x16 <__rc6>
    2faa: 06 16        	asl	$16                     ; 0x16 <__rc6>
    2fac: 2a           	rol
    2fad: 06 16        	asl	$16                     ; 0x16 <__rc6>
    2faf: 2a           	rol
    2fb0: 06 16        	asl	$16                     ; 0x16 <__rc6>
    2fb2: 2a           	rol
    2fb3: 58           	cli
    2fb4: a6 0f        	ldx	$f                      ; 0xf <__zp_data_size+0x2>
    2fb6: 78           	sei
    2fb7: 85 0f        	sta	$f                      ; 0xf <__zp_data_size+0x2>
    2fb9: a5 1b        	lda	$1b                     ; 0x1b <__rc11>
    2fbb: 09 e0        	ora	#$e0
    2fbd: a4 17        	ldy	$17                     ; 0x17 <__rc7>
    2fbf: 84 16        	sty	$16                     ; 0x16 <__rc6>
    2fc1: 85 17        	sta	$17                     ; 0x17 <__rc7>
    2fc3: b2 16        	lda	($16)                   ; 0x16 <__rc6>
    2fc5: 85 1d        	sta	$1d                     ; 0x1d <__rc13>
    2fc7: 86 0f        	stx	$f                      ; 0xf <__zp_data_size+0x2>
    2fc9: a5 15        	lda	$15                     ; 0x15 <__rc5>
    2fcb: 18           	clc
    2fcc: 69 06        	adc	#$6
    2fce: 85 17        	sta	$17                     ; 0x17 <__rc7>
    2fd0: a5 14        	lda	$14                     ; 0x14 <__rc4>
    2fd2: 69 00        	adc	#$0
    2fd4: 85 1b        	sta	$1b                     ; 0x1b <__rc11>
    2fd6: a5 13        	lda	$13                     ; 0x13 <__rc3>
    2fd8: 69 03        	adc	#$3
    2fda: a6 1b        	ldx	$1b                     ; 0x1b <__rc11>
    2fdc: 86 16        	stx	$16                     ; 0x16 <__rc6>
    2fde: 06 16        	asl	$16                     ; 0x16 <__rc6>
    2fe0: 2a           	rol
    2fe1: 06 16        	asl	$16                     ; 0x16 <__rc6>
    2fe3: 2a           	rol
    2fe4: 06 16        	asl	$16                     ; 0x16 <__rc6>
    2fe6: 2a           	rol
    2fe7: 58           	cli
    2fe8: a6 0f        	ldx	$f                      ; 0xf <__zp_data_size+0x2>
    2fea: 78           	sei
    2feb: 85 0f        	sta	$f                      ; 0xf <__zp_data_size+0x2>
    2fed: a4 17        	ldy	$17                     ; 0x17 <__rc7>
    2fef: 84 16        	sty	$16                     ; 0x16 <__rc6>
    2ff1: a5 1b        	lda	$1b                     ; 0x1b <__rc11>
    2ff3: 09 e0        	ora	#$e0
    2ff5: 85 17        	sta	$17                     ; 0x17 <__rc7>
    2ff7: b2 16        	lda	($16)                   ; 0x16 <__rc6>
    2ff9: 85 22        	sta	$22                     ; 0x22 <__rc18>
    2ffb: 86 0f        	stx	$f                      ; 0xf <__zp_data_size+0x2>
    2ffd: a5 15        	lda	$15                     ; 0x15 <__rc5>
    2fff: 18           	clc
    3000: 69 07        	adc	#$7
    3002: 85 17        	sta	$17                     ; 0x17 <__rc7>
    3004: a5 14        	lda	$14                     ; 0x14 <__rc4>
    3006: 69 00        	adc	#$0
    3008: 85 1b        	sta	$1b                     ; 0x1b <__rc11>
    300a: a5 13        	lda	$13                     ; 0x13 <__rc3>
    300c: 69 03        	adc	#$3
    300e: a6 1b        	ldx	$1b                     ; 0x1b <__rc11>
    3010: 86 16        	stx	$16                     ; 0x16 <__rc6>
    3012: 06 16        	asl	$16                     ; 0x16 <__rc6>
    3014: 2a           	rol
    3015: 06 16        	asl	$16                     ; 0x16 <__rc6>
    3017: 2a           	rol
    3018: 06 16        	asl	$16                     ; 0x16 <__rc6>
    301a: 2a           	rol
    301b: 58           	cli
    301c: a6 0f        	ldx	$f                      ; 0xf <__zp_data_size+0x2>
    301e: 78           	sei
    301f: 85 0f        	sta	$f                      ; 0xf <__zp_data_size+0x2>
    3021: a4 17        	ldy	$17                     ; 0x17 <__rc7>
    3023: 84 16        	sty	$16                     ; 0x16 <__rc6>
    3025: a5 1b        	lda	$1b                     ; 0x1b <__rc11>
    3027: 09 e0        	ora	#$e0
    3029: 85 17        	sta	$17                     ; 0x17 <__rc7>
    302b: b2 16        	lda	($16)                   ; 0x16 <__rc6>
    302d: 85 25        	sta	$25                     ; 0x25 <__rc21>
    302f: 86 0f        	stx	$f                      ; 0xf <__zp_data_size+0x2>
    3031: 58           	cli
    3032: a6 71        	ldx	$71                     ; 0x71 <theOne.8>
    3034: 86 1e        	stx	$1e                     ; 0x1e <__rc14>
    3036: a6 72        	ldx	$72                     ; 0x72 <theOne.8+0x1>
    3038: 86 1f        	stx	$1f                     ; 0x1f <__rc15>
    303a: a6 19        	ldx	$19                     ; 0x19 <__rc9>
    303c: 86 24        	stx	$24                     ; 0x24 <__rc20>
    303e: a5 19        	lda	$19                     ; 0x19 <__rc9>
    3040: 18           	clc
    3041: 65 71        	adc	$71                     ; 0x71 <theOne.8>
    3043: aa           	tax
    3044: a4 18        	ldy	$18                     ; 0x18 <__rc8>
    3046: 84 23        	sty	$23                     ; 0x23 <__rc19>
    3048: a5 18        	lda	$18                     ; 0x18 <__rc8>
    304a: 65 72        	adc	$72                     ; 0x72 <theOne.8+0x1>
    304c: 86 16        	stx	$16                     ; 0x16 <__rc6>
    304e: 85 17        	sta	$17                     ; 0x17 <__rc7>
    3050: 85 19        	sta	$19                     ; 0x19 <__rc9>
    3052: 18           	clc
    3053: 8a           	txa
    3054: 69 f8        	adc	#$f8
    3056: 85 18        	sta	$18                     ; 0x18 <__rc8>
    3058: a5 19        	lda	$19                     ; 0x19 <__rc9>
    305a: 69 ff        	adc	#$ff
    305c: 85 19        	sta	$19                     ; 0x19 <__rc9>
    305e: a5 15        	lda	$15                     ; 0x15 <__rc5>
    3060: 18           	clc
    3061: 69 08        	adc	#$8
    3063: aa           	tax
    3064: a5 14        	lda	$14                     ; 0x14 <__rc4>
    3066: 69 00        	adc	#$0
    3068: 85 1b        	sta	$1b                     ; 0x1b <__rc11>
    306a: a5 13        	lda	$13                     ; 0x13 <__rc3>
    306c: 69 03        	adc	#$3
    306e: 85 26        	sta	$26                     ; 0x26 <__rc22>
    3070: a5 12        	lda	$12                     ; 0x12 <__rc2>
    3072: 69 00        	adc	#$0
    3074: 85 29        	sta	$29                     ; 0x29 <__rc25>
    3076: 8a           	txa
    3077: 92 16        	sta	($16)                   ; 0x16 <__rc6>
    3079: a0 01        	ldy	#$1
    307b: a5 1b        	lda	$1b                     ; 0x1b <__rc11>
    307d: 91 16        	sta	($16),y                 ; 0x16 <__rc6>
    307f: 84 28        	sty	$28                     ; 0x28 <__rc24>
    3081: c8           	iny
    3082: a5 26        	lda	$26                     ; 0x26 <__rc22>
    3084: 91 16        	sta	($16),y                 ; 0x16 <__rc6>
    3086: 84 26        	sty	$26                     ; 0x26 <__rc22>
    3088: c8           	iny
    3089: a5 29        	lda	$29                     ; 0x29 <__rc25>
    308b: 91 16        	sta	($16),y                 ; 0x16 <__rc6>
    308d: 84 16        	sty	$16                     ; 0x16 <__rc6>
    308f: a5 25        	lda	$25                     ; 0x25 <__rc21>
    3091: 92 18        	sta	($18)                   ; 0x18 <__rc8>
    3093: a5 22        	lda	$22                     ; 0x22 <__rc18>
    3095: a4 28        	ldy	$28                     ; 0x28 <__rc24>
    3097: 91 18        	sta	($18),y                 ; 0x18 <__rc8>
    3099: a5 1d        	lda	$1d                     ; 0x1d <__rc13>
    309b: a4 26        	ldy	$26                     ; 0x26 <__rc22>
    309d: 91 18        	sta	($18),y                 ; 0x18 <__rc8>
    309f: a5 1c        	lda	$1c                     ; 0x1c <__rc12>
    30a1: a4 16        	ldy	$16                     ; 0x16 <__rc6>
    30a3: 91 18        	sta	($18),y                 ; 0x18 <__rc8>
    30a5: 85 16        	sta	$16                     ; 0x16 <__rc6>
    30a7: 18           	clc
    30a8: a5 25        	lda	$25                     ; 0x25 <__rc21>
    30aa: 65 15        	adc	$15                     ; 0x15 <__rc5>
    30ac: 85 15        	sta	$15                     ; 0x15 <__rc5>
    30ae: a5 22        	lda	$22                     ; 0x22 <__rc18>
    30b0: 65 14        	adc	$14                     ; 0x14 <__rc4>
    30b2: a8           	tay
    30b3: a5 1d        	lda	$1d                     ; 0x1d <__rc13>
    30b5: 65 13        	adc	$13                     ; 0x13 <__rc3>
    30b7: aa           	tax
    30b8: a5 16        	lda	$16                     ; 0x16 <__rc6>
    30ba: 65 12        	adc	$12                     ; 0x12 <__rc2>
    30bc: 85 12        	sta	$12                     ; 0x12 <__rc2>
    30be: 18           	clc
    30bf: a5 15        	lda	$15                     ; 0x15 <__rc5>
    30c1: 69 08        	adc	#$8
    30c3: 85 16        	sta	$16                     ; 0x16 <__rc6>
    30c5: 98           	tya
    30c6: 69 00        	adc	#$0
    30c8: 85 15        	sta	$15                     ; 0x15 <__rc5>
    30ca: 8a           	txa
    30cb: 69 00        	adc	#$0
    30cd: 85 14        	sta	$14                     ; 0x14 <__rc4>
    30cf: a5 12        	lda	$12                     ; 0x12 <__rc2>
    30d1: 69 00        	adc	#$0
    30d3: 85 13        	sta	$13                     ; 0x13 <__rc3>
    30d5: a6 1a        	ldx	$1a                     ; 0x1a <__rc10>
    30d7: a4 27        	ldy	$27                     ; 0x27 <__rc23>
    30d9: e8           	inx
    30da: d0 01        	bne	$30dd <initTrack+0x2ab>
    30dc: c8           	iny
    30dd: a5 60        	lda	$60                     ; 0x60 <theOne.0>
    30df: 85 12        	sta	$12                     ; 0x12 <__rc2>
    30e1: 18           	clc
    30e2: a5 24        	lda	$24                     ; 0x24 <__rc20>
    30e4: 69 19        	adc	#$19
    30e6: 85 19        	sta	$19                     ; 0x19 <__rc9>
    30e8: a5 23        	lda	$23                     ; 0x23 <__rc19>
    30ea: 69 00        	adc	#$0
    30ec: 85 18        	sta	$18                     ; 0x18 <__rc8>
    30ee: 84 27        	sty	$27                     ; 0x27 <__rc23>
    30f0: c4 61        	cpy	$61                     ; 0x61 <theOne.0+0x1>
    30f2: d0 09        	bne	$30fd <initTrack+0x2cb>
    30f4: e4 12        	cpx	$12                     ; 0x12 <__rc2>
    30f6: a5 13        	lda	$13                     ; 0x13 <__rc3>
    30f8: b0 0c        	bcs	$3106 <initTrack+0x2d4>
    30fa: 4c 52 2f     	jmp	$2f52 <initTrack+0x120>
    30fd: c4 61        	cpy	$61                     ; 0x61 <theOne.0+0x1>
    30ff: a5 13        	lda	$13                     ; 0x13 <__rc3>
    3101: b0 03        	bcs	$3106 <initTrack+0x2d4>
    3103: 4c 52 2f     	jmp	$2f52 <initTrack+0x120>
    3106: a6 61        	ldx	$61                     ; 0x61 <theOne.0+0x1>
    3108: d0 07        	bne	$3111 <initTrack+0x2df>
    310a: a5 12        	lda	$12                     ; 0x12 <__rc2>
    310c: d0 03        	bne	$3111 <initTrack+0x2df>
    310e: 4c ec 32     	jmp	$32ec <initTrack+0x4ba>
    3111: a6 1e        	ldx	$1e                     ; 0x1e <__rc14>
    3113: 86 12        	stx	$12                     ; 0x12 <__rc2>
    3115: a6 1f        	ldx	$1f                     ; 0x1f <__rc15>
    3117: 86 13        	stx	$13                     ; 0x13 <__rc3>
    3119: a2 19        	ldx	#$19
    311b: 86 2a        	stx	$2a                     ; 0x2a <__rc26>
    311d: 64 15        	stz	$15                     ; 0x15 <__rc5>
    311f: 64 27        	stz	$27                     ; 0x27 <__rc23>
    3121: a0 00        	ldy	#$0
    3123: 98           	tya
    3124: 85 29        	sta	$29                     ; 0x29 <__rc25>
    3126: 84 28        	sty	$28                     ; 0x28 <__rc24>
    3128: a5 15        	lda	$15                     ; 0x15 <__rc5>
    312a: 18           	clc
    312b: a2 01        	ldx	#$1
    312d: b0 02        	bcs	$3131 <initTrack+0x2ff>
    312f: a2 00        	ldx	#$0
    3131: 86 17        	stx	$17                     ; 0x17 <__rc7>
    3133: 65 12        	adc	$12                     ; 0x12 <__rc2>
    3135: 85 14        	sta	$14                     ; 0x14 <__rc4>
    3137: a6 15        	ldx	$15                     ; 0x15 <__rc5>
    3139: a5 27        	lda	$27                     ; 0x27 <__rc23>
    313b: 65 13        	adc	$13                     ; 0x13 <__rc3>
    313d: 85 15        	sta	$15                     ; 0x15 <__rc5>
    313f: a0 18        	ldy	#$18
    3141: b1 14        	lda	($14),y                 ; 0x14 <__rc4>
    3143: f0 07        	beq	$314c <initTrack+0x31a>
    3145: 86 26        	stx	$26                     ; 0x26 <__rc22>
    3147: a4 28        	ldy	$28                     ; 0x28 <__rc24>
    3149: 4c 1c 32     	jmp	$321c <initTrack+0x3ea>
    314c: 86 26        	stx	$26                     ; 0x26 <__rc22>
    314e: 8a           	txa
    314f: a6 17        	ldx	$17                     ; 0x17 <__rc7>
    3151: e0 01        	cpx	#$1
    3153: 65 12        	adc	$12                     ; 0x12 <__rc2>
    3155: aa           	tax
    3156: a5 27        	lda	$27                     ; 0x27 <__rc23>
    3158: 65 13        	adc	$13                     ; 0x13 <__rc3>
    315a: a8           	tay
    315b: 18           	clc
    315c: 8a           	txa
    315d: 69 04        	adc	#$4
    315f: 85 16        	sta	$16                     ; 0x16 <__rc6>
    3161: 98           	tya
    3162: 84 19        	sty	$19                     ; 0x19 <__rc9>
    3164: 69 00        	adc	#$0
    3166: 85 17        	sta	$17                     ; 0x17 <__rc7>
    3168: a0 03        	ldy	#$3
    316a: b1 16        	lda	($16),y                 ; 0x16 <__rc6>
    316c: d1 14        	cmp	($14),y                 ; 0x14 <__rc4>
    316e: d0 29        	bne	$3199 <initTrack+0x367>
    3170: a0 02        	ldy	#$2
    3172: b1 16        	lda	($16),y                 ; 0x16 <__rc6>
    3174: 85 1a        	sta	$1a                     ; 0x1a <__rc10>
    3176: b1 14        	lda	($14),y                 ; 0x14 <__rc4>
    3178: 85 18        	sta	$18                     ; 0x18 <__rc8>
    317a: a4 1a        	ldy	$1a                     ; 0x1a <__rc10>
    317c: c4 18        	cpy	$18                     ; 0x18 <__rc8>
    317e: f0 03        	beq	$3183 <initTrack+0x351>
    3180: 4c 09 32     	jmp	$3209 <initTrack+0x3d7>
    3183: a0 01        	ldy	#$1
    3185: b1 16        	lda	($16),y                 ; 0x16 <__rc6>
    3187: 85 17        	sta	$17                     ; 0x17 <__rc7>
    3189: b1 14        	lda	($14),y                 ; 0x14 <__rc4>
    318b: 85 16        	sta	$16                     ; 0x16 <__rc6>
    318d: a4 17        	ldy	$17                     ; 0x17 <__rc7>
    318f: c4 16        	cpy	$16                     ; 0x16 <__rc6>
    3191: f0 03        	beq	$3196 <initTrack+0x364>
    3193: 4c 34 33     	jmp	$3334 <initTrack+0x502>
    3196: 4c 16 33     	jmp	$3316 <initTrack+0x4e4>
    3199: d1 14        	cmp	($14),y                 ; 0x14 <__rc4>
    319b: a4 28        	ldy	$28                     ; 0x28 <__rc24>
    319d: 90 03        	bcc	$31a2 <initTrack+0x370>
    319f: 4c 12 32     	jmp	$3212 <initTrack+0x3e0>
    31a2: 64 40        	stz	$40                     ; 0x40 <_col>
    31a4: 9c 14 d0     	stz	$d014                   ; 0xd014 <__heap_start+0x5108>
    31a7: 9c 15 d0     	stz	$d015                   ; 0xd015 <__heap_start+0x5109>
    31aa: 98           	tya
    31ab: 18           	clc
    31ac: 69 0f        	adc	#$f
    31ae: 85 41        	sta	$41                     ; 0x41 <_row>
    31b0: 8d 16 d0     	sta	$d016                   ; 0xd016 <__heap_start+0x510a>
    31b3: 9c 17 d0     	stz	$d017                   ; 0xd017 <__heap_start+0x510b>
    31b6: a6 71        	ldx	$71                     ; 0x71 <theOne.8>
    31b8: 86 25        	stx	$25                     ; 0x25 <__rc21>
    31ba: a6 72        	ldx	$72                     ; 0x72 <theOne.8+0x1>
    31bc: 86 24        	stx	$24                     ; 0x24 <__rc20>
    31be: a6 2a        	ldx	$2a                     ; 0x2a <__rc26>
    31c0: 86 12        	stx	$12                     ; 0x12 <__rc2>
    31c2: 64 13        	stz	$13                     ; 0x13 <__rc3>
    31c4: a2 00        	ldx	#$0
    31c6: 98           	tya
    31c7: 20 08 6e     	jsr	$6e08 <__mulhi3>
    31ca: 85 12        	sta	$12                     ; 0x12 <__rc2>
    31cc: 86 13        	stx	$13                     ; 0x13 <__rc3>
    31ce: a6 25        	ldx	$25                     ; 0x25 <__rc21>
    31d0: 86 17        	stx	$17                     ; 0x17 <__rc7>
    31d2: a5 25        	lda	$25                     ; 0x25 <__rc21>
    31d4: 18           	clc
    31d5: 65 12        	adc	$12                     ; 0x12 <__rc2>
    31d7: aa           	tax
    31d8: a5 24        	lda	$24                     ; 0x24 <__rc20>
    31da: 85 18        	sta	$18                     ; 0x18 <__rc8>
    31dc: 65 13        	adc	$13                     ; 0x13 <__rc3>
    31de: 86 14        	stx	$14                     ; 0x14 <__rc4>
    31e0: 85 15        	sta	$15                     ; 0x15 <__rc5>
    31e2: a8           	tay
    31e3: 18           	clc
    31e4: 8a           	txa
    31e5: 69 04        	adc	#$4
    31e7: 85 12        	sta	$12                     ; 0x12 <__rc2>
    31e9: 98           	tya
    31ea: 69 00        	adc	#$0
    31ec: 85 13        	sta	$13                     ; 0x13 <__rc3>
    31ee: a0 03        	ldy	#$3
    31f0: b1 12        	lda	($12),y                 ; 0x12 <__rc2>
    31f2: d1 14        	cmp	($14),y                 ; 0x14 <__rc4>
    31f4: d0 56        	bne	$324c <initTrack+0x41a>
    31f6: a0 02        	ldy	#$2
    31f8: b1 12        	lda	($12),y                 ; 0x12 <__rc2>
    31fa: aa           	tax
    31fb: b1 14        	lda	($14),y                 ; 0x14 <__rc4>
    31fd: 85 16        	sta	$16                     ; 0x16 <__rc6>
    31ff: e4 16        	cpx	$16                     ; 0x16 <__rc6>
    3201: f0 03        	beq	$3206 <initTrack+0x3d4>
    3203: 4c 5e 33     	jmp	$335e <initTrack+0x52c>
    3206: 4c 40 33     	jmp	$3340 <initTrack+0x50e>
    3209: c4 18        	cpy	$18                     ; 0x18 <__rc8>
    320b: a4 28        	ldy	$28                     ; 0x28 <__rc24>
    320d: b0 03        	bcs	$3212 <initTrack+0x3e0>
    320f: 4c a2 31     	jmp	$31a2 <initTrack+0x370>
    3212: 84 16        	sty	$16                     ; 0x16 <__rc6>
    3214: a9 01        	lda	#$1
    3216: a0 18        	ldy	#$18
    3218: 91 14        	sta	($14),y                 ; 0x14 <__rc4>
    321a: a4 16        	ldy	$16                     ; 0x16 <__rc6>
    321c: a6 29        	ldx	$29                     ; 0x29 <__rc25>
    321e: c8           	iny
    321f: d0 01        	bne	$3222 <initTrack+0x3f0>
    3221: e8           	inx
    3222: 18           	clc
    3223: a5 26        	lda	$26                     ; 0x26 <__rc22>
    3225: 69 19        	adc	#$19
    3227: 85 15        	sta	$15                     ; 0x15 <__rc5>
    3229: a5 27        	lda	$27                     ; 0x27 <__rc23>
    322b: 69 00        	adc	#$0
    322d: 85 27        	sta	$27                     ; 0x27 <__rc23>
    322f: 8a           	txa
    3230: e4 61        	cpx	$61                     ; 0x61 <theOne.0+0x1>
    3232: d0 0e        	bne	$3242 <initTrack+0x410>
    3234: a6 60        	ldx	$60                     ; 0x60 <theOne.0>
    3236: 86 14        	stx	$14                     ; 0x14 <__rc4>
    3238: c4 14        	cpy	$14                     ; 0x14 <__rc4>
    323a: b0 03        	bcs	$323f <initTrack+0x40d>
    323c: 4c 24 31     	jmp	$3124 <initTrack+0x2f2>
    323f: 4c ec 32     	jmp	$32ec <initTrack+0x4ba>
    3242: c5 61        	cmp	$61                     ; 0x61 <theOne.0+0x1>
    3244: b0 03        	bcs	$3249 <initTrack+0x417>
    3246: 4c 24 31     	jmp	$3124 <initTrack+0x2f2>
    3249: 4c ec 32     	jmp	$32ec <initTrack+0x4ba>
    324c: d1 14        	cmp	($14),y                 ; 0x14 <__rc4>
    324e: a6 28        	ldx	$28                     ; 0x28 <__rc24>
    3250: 90 19        	bcc	$326b <initTrack+0x439>
    3252: a4 17        	ldy	$17                     ; 0x17 <__rc7>
    3254: 84 12        	sty	$12                     ; 0x12 <__rc2>
    3256: a4 18        	ldy	$18                     ; 0x18 <__rc8>
    3258: 84 13        	sty	$13                     ; 0x13 <__rc3>
    325a: a9 01        	lda	#$1
    325c: 86 16        	stx	$16                     ; 0x16 <__rc6>
    325e: a0 18        	ldy	#$18
    3260: 91 14        	sta	($14),y                 ; 0x14 <__rc4>
    3262: a4 16        	ldy	$16                     ; 0x16 <__rc6>
    3264: e6 6f        	inc	$6f                     ; 0x6f <theOne.7>
    3266: d0 b4        	bne	$321c <initTrack+0x3ea>
    3268: 4c 63 33     	jmp	$3363 <initTrack+0x531>
    326b: 8a           	txa
    326c: 20 9e 1e     	jsr	$1e9e <readDelta>
    326f: a0 03        	ldy	#$3
    3271: 91 10        	sta	($10),y                 ; 0x10 <__rc0>
    3273: 8a           	txa
    3274: a0 06        	ldy	#$6
    3276: 91 10        	sta	($10),y                 ; 0x10 <__rc0>
    3278: a5 12        	lda	$12                     ; 0x12 <__rc2>
    327a: 88           	dey
    327b: 91 10        	sta	($10),y                 ; 0x10 <__rc0>
    327d: a5 13        	lda	$13                     ; 0x13 <__rc3>
    327f: 88           	dey
    3280: 91 10        	sta	($10),y                 ; 0x10 <__rc0>
    3282: a6 71        	ldx	$71                     ; 0x71 <theOne.8>
    3284: 86 25        	stx	$25                     ; 0x25 <__rc21>
    3286: a6 72        	ldx	$72                     ; 0x72 <theOne.8+0x1>
    3288: 86 24        	stx	$24                     ; 0x24 <__rc20>
    328a: a6 2a        	ldx	$2a                     ; 0x2a <__rc26>
    328c: 86 12        	stx	$12                     ; 0x12 <__rc2>
    328e: 64 13        	stz	$13                     ; 0x13 <__rc3>
    3290: a2 00        	ldx	#$0
    3292: a5 28        	lda	$28                     ; 0x28 <__rc24>
    3294: 20 08 6e     	jsr	$6e08 <__mulhi3>
    3297: 85 12        	sta	$12                     ; 0x12 <__rc2>
    3299: 86 13        	stx	$13                     ; 0x13 <__rc3>
    329b: 18           	clc
    329c: a5 25        	lda	$25                     ; 0x25 <__rc21>
    329e: 65 12        	adc	$12                     ; 0x12 <__rc2>
    32a0: a8           	tay
    32a1: a5 24        	lda	$24                     ; 0x24 <__rc20>
    32a3: 65 13        	adc	$13                     ; 0x13 <__rc3>
    32a5: aa           	tax
    32a6: 98           	tya
    32a7: 84 12        	sty	$12                     ; 0x12 <__rc2>
    32a9: 86 13        	stx	$13                     ; 0x13 <__rc3>
    32ab: 18           	clc
    32ac: 69 0c        	adc	#$c
    32ae: 85 14        	sta	$14                     ; 0x14 <__rc4>
    32b0: 8a           	txa
    32b1: 69 00        	adc	#$0
    32b3: 85 15        	sta	$15                     ; 0x15 <__rc5>
    32b5: a0 0c        	ldy	#$c
    32b7: 5a           	phy
    32b8: a0 03        	ldy	#$3
    32ba: b1 10        	lda	($10),y                 ; 0x10 <__rc0>
    32bc: 7a           	ply
    32bd: 91 12        	sta	($12),y                 ; 0x12 <__rc2>
    32bf: a0 01        	ldy	#$1
    32c1: 5a           	phy
    32c2: a0 06        	ldy	#$6
    32c4: b1 10        	lda	($10),y                 ; 0x10 <__rc0>
    32c6: 7a           	ply
    32c7: 91 14        	sta	($14),y                 ; 0x14 <__rc4>
    32c9: a0 02        	ldy	#$2
    32cb: 5a           	phy
    32cc: a0 05        	ldy	#$5
    32ce: b1 10        	lda	($10),y                 ; 0x10 <__rc0>
    32d0: 7a           	ply
    32d1: 91 14        	sta	($14),y                 ; 0x14 <__rc4>
    32d3: a0 03        	ldy	#$3
    32d5: 5a           	phy
    32d6: c8           	iny
    32d7: b1 10        	lda	($10),y                 ; 0x10 <__rc0>
    32d9: 7a           	ply
    32da: 91 14        	sta	($14),y                 ; 0x14 <__rc4>
    32dc: a5 28        	lda	$28                     ; 0x28 <__rc24>
    32de: 20 5f 23     	jsr	$235f <readMIDICmd>
    32e1: a6 71        	ldx	$71                     ; 0x71 <theOne.8>
    32e3: a4 72        	ldy	$72                     ; 0x72 <theOne.8+0x1>
    32e5: 86 12        	stx	$12                     ; 0x12 <__rc2>
    32e7: 84 13        	sty	$13                     ; 0x13 <__rc3>
    32e9: 4c 47 31     	jmp	$3147 <initTrack+0x315>
    32ec: a0 00        	ldy	#$0
    32ee: b1 10        	lda	($10),y                 ; 0x10 <__rc0>
    32f0: 85 2a        	sta	$2a                     ; 0x2a <__rc26>
    32f2: c8           	iny
    32f3: b1 10        	lda	($10),y                 ; 0x10 <__rc0>
    32f5: 85 29        	sta	$29                     ; 0x29 <__rc25>
    32f7: c8           	iny
    32f8: b1 10        	lda	($10),y                 ; 0x10 <__rc0>
    32fa: 85 28        	sta	$28                     ; 0x28 <__rc24>
    32fc: fa           	plx
    32fd: 86 27        	stx	$27                     ; 0x27 <__rc23>
    32ff: fa           	plx
    3300: 86 26        	stx	$26                     ; 0x26 <__rc22>
    3302: fa           	plx
    3303: 86 25        	stx	$25                     ; 0x25 <__rc21>
    3305: fa           	plx
    3306: 86 24        	stx	$24                     ; 0x24 <__rc20>
    3308: 18           	clc
    3309: a5 10        	lda	$10                     ; 0x10 <__rc0>
    330b: 69 07        	adc	#$7
    330d: 85 10        	sta	$10                     ; 0x10 <__rc0>
    330f: a5 11        	lda	$11                     ; 0x11 <__rc1>
    3311: 69 00        	adc	#$0
    3313: 85 11        	sta	$11                     ; 0x11 <__rc1>
    3315: 60           	rts
    3316: 86 16        	stx	$16                     ; 0x16 <__rc6>
    3318: a6 19        	ldx	$19                     ; 0x19 <__rc9>
    331a: 86 17        	stx	$17                     ; 0x17 <__rc7>
    331c: a0 04        	ldy	#$4
    331e: b1 16        	lda	($16),y                 ; 0x16 <__rc6>
    3320: 85 17        	sta	$17                     ; 0x17 <__rc7>
    3322: b2 14        	lda	($14)                   ; 0x14 <__rc4>
    3324: 85 16        	sta	$16                     ; 0x16 <__rc6>
    3326: a6 17        	ldx	$17                     ; 0x17 <__rc7>
    3328: e4 16        	cpx	$16                     ; 0x16 <__rc6>
    332a: a4 28        	ldy	$28                     ; 0x28 <__rc24>
    332c: b0 03        	bcs	$3331 <initTrack+0x4ff>
    332e: 4c a2 31     	jmp	$31a2 <initTrack+0x370>
    3331: 4c 12 32     	jmp	$3212 <initTrack+0x3e0>
    3334: c4 16        	cpy	$16                     ; 0x16 <__rc6>
    3336: a4 28        	ldy	$28                     ; 0x28 <__rc24>
    3338: b0 03        	bcs	$333d <initTrack+0x50b>
    333a: 4c a2 31     	jmp	$31a2 <initTrack+0x370>
    333d: 4c 12 32     	jmp	$3212 <initTrack+0x3e0>
    3340: a0 01        	ldy	#$1
    3342: b1 12        	lda	($12),y                 ; 0x12 <__rc2>
    3344: aa           	tax
    3345: b1 14        	lda	($14),y                 ; 0x14 <__rc4>
    3347: 85 12        	sta	$12                     ; 0x12 <__rc2>
    3349: e4 12        	cpx	$12                     ; 0x12 <__rc2>
    334b: d0 0c        	bne	$3359 <initTrack+0x527>
    334d: a0 04        	ldy	#$4
    334f: b1 14        	lda	($14),y                 ; 0x14 <__rc4>
    3351: 85 13        	sta	$13                     ; 0x13 <__rc3>
    3353: b2 14        	lda	($14)                   ; 0x14 <__rc4>
    3355: 85 12        	sta	$12                     ; 0x12 <__rc2>
    3357: a6 13        	ldx	$13                     ; 0x13 <__rc3>
    3359: e4 12        	cpx	$12                     ; 0x12 <__rc2>
    335b: 4c 4e 32     	jmp	$324e <initTrack+0x41c>
    335e: e4 16        	cpx	$16                     ; 0x16 <__rc6>
    3360: 4c 4e 32     	jmp	$324e <initTrack+0x41c>
    3363: e6 70        	inc	$70                     ; 0x70 <theOne.7+0x1>
    3365: 4c 1c 32     	jmp	$321c <initTrack+0x3ea>

00003368 <main>:
    3368: 18           	clc
    3369: a5 10        	lda	$10                     ; 0x10 <__rc0>
    336b: 69 e9        	adc	#$e9
    336d: 85 10        	sta	$10                     ; 0x10 <__rc0>
    336f: a5 11        	lda	$11                     ; 0x11 <__rc1>
    3371: 69 ff        	adc	#$ff
    3373: 85 11        	sta	$11                     ; 0x11 <__rc1>
    3375: a6 24        	ldx	$24                     ; 0x24 <__rc20>
    3377: da           	phx
    3378: a6 25        	ldx	$25                     ; 0x25 <__rc21>
    337a: da           	phx
    337b: a6 26        	ldx	$26                     ; 0x26 <__rc22>
    337d: da           	phx
    337e: a6 27        	ldx	$27                     ; 0x27 <__rc23>
    3380: da           	phx
    3381: a5 28        	lda	$28                     ; 0x28 <__rc24>
    3383: a0 09        	ldy	#$9
    3385: 91 10        	sta	($10),y                 ; 0x10 <__rc0>
    3387: a5 29        	lda	$29                     ; 0x29 <__rc25>
    3389: 88           	dey
    338a: 91 10        	sta	($10),y                 ; 0x10 <__rc0>
    338c: a5 2a        	lda	$2a                     ; 0x2a <__rc26>
    338e: 88           	dey
    338f: 91 10        	sta	($10),y                 ; 0x10 <__rc0>
    3391: a5 2b        	lda	$2b                     ; 0x2b <__rc27>
    3393: 88           	dey
    3394: 91 10        	sta	($10),y                 ; 0x10 <__rc0>
    3396: a5 2c        	lda	$2c                     ; 0x2c <__rc28>
    3398: 88           	dey
    3399: 91 10        	sta	($10),y                 ; 0x10 <__rc0>
    339b: a5 2d        	lda	$2d                     ; 0x2d <__rc29>
    339d: 88           	dey
    339e: 91 10        	sta	($10),y                 ; 0x10 <__rc0>
    33a0: a5 2e        	lda	$2e                     ; 0x2e <__rc30>
    33a2: 88           	dey
    33a3: 91 10        	sta	($10),y                 ; 0x10 <__rc0>
    33a5: a5 2f        	lda	$2f                     ; 0x2f <__rc31>
    33a7: 88           	dey
    33a8: 91 10        	sta	($10),y                 ; 0x10 <__rc0>
    33aa: 64 1a        	stz	$1a                     ; 0x1a <__rc10>
    33ac: a2 00        	ldx	#$0
    33ae: 86 18        	stx	$18                     ; 0x18 <__rc8>
    33b0: a2 d0        	ldx	#$d0
    33b2: 86 19        	stx	$19                     ; 0x19 <__rc9>
    33b4: a2 00        	ldx	#$0
    33b6: 86 14        	stx	$14                     ; 0x14 <__rc4>
    33b8: a2 d8        	ldx	#$d8
    33ba: 86 15        	stx	$15                     ; 0x15 <__rc5>
    33bc: a2 00        	ldx	#$0
    33be: 86 16        	stx	$16                     ; 0x16 <__rc6>
    33c0: a2 d4        	ldx	#$d4
    33c2: 86 17        	stx	$17                     ; 0x17 <__rc7>
    33c4: a2 00        	ldx	#$0
    33c6: 86 12        	stx	$12                     ; 0x12 <__rc2>
    33c8: a2 dc        	ldx	#$dc
    33ca: 86 13        	stx	$13                     ; 0x13 <__rc3>
    33cc: a2 00        	ldx	#$0
    33ce: 86 2c        	stx	$2c                     ; 0x2c <__rc28>
    33d0: a2 c0        	ldx	#$c0
    33d2: 86 2d        	stx	$2d                     ; 0x2d <__rc29>
    33d4: a9 03        	lda	#$3
    33d6: aa           	tax
    33d7: 86 28        	stx	$28                     ; 0x28 <__rc24>
    33d9: ca           	dex
    33da: 86 29        	stx	$29                     ; 0x29 <__rc25>
    33dc: 64 01        	stz	$1                      ; 0x1 <__data_size+0x1>
    33de: a2 3f        	ldx	#$3f
    33e0: 8e 00 d0     	stx	$d000                   ; 0xd000 <__heap_start+0x50f4>
    33e3: a2 b3        	ldx	#$b3
    33e5: 86 00        	stx	$0                      ; 0x0 <__data_size>
    33e7: 64 08        	stz	$8                      ; 0x8 <__data_size+0x8>
    33e9: a2 01        	ldx	#$1
    33eb: 86 09        	stx	$9                      ; 0x9 <__data_size+0x9>
    33ed: 84 0a        	sty	$a                      ; 0xa <__data_size+0xa>
    33ef: 85 0b        	sta	$b                      ; 0xb <__data_size+0xb>
    33f1: a2 04        	ldx	#$4
    33f3: 86 0c        	stx	$c                      ; 0xc <__data_size+0xc>
    33f5: e8           	inx
    33f6: 86 0d        	stx	$d                      ; 0xd <__zp_data_size>
    33f8: a2 73        	ldx	#$73
    33fa: a9 00        	lda	#$0
    33fc: 86 f0        	stx	$f0                     ; 0xf0 <__zp_bss_size+0xac>
    33fe: 85 f1        	sta	$f1                     ; 0xf1 <__zp_bss_size+0xad>
    3400: a6 01        	ldx	$1                      ; 0x1 <__data_size+0x1>
    3402: a0 01        	ldy	#$1
    3404: 84 01        	sty	$1                      ; 0x1 <__data_size+0x1>
    3406: a5 1a        	lda	$1a                     ; 0x1a <__rc10>
    3408: 92 18        	sta	($18)                   ; 0x18 <__rc8>
    340a: 91 18        	sta	($18),y                 ; 0x18 <__rc8>
    340c: c8           	iny
    340d: 91 18        	sta	($18),y                 ; 0x18 <__rc8>
    340f: c8           	iny
    3410: a9 ff        	lda	#$ff
    3412: 91 18        	sta	($18),y                 ; 0x18 <__rc8>
    3414: 86 01        	stx	$1                      ; 0x1 <__data_size+0x1>
    3416: a5 18        	lda	$18                     ; 0x18 <__rc8>
    3418: 18           	clc
    3419: 69 04        	adc	#$4
    341b: 85 18        	sta	$18                     ; 0x18 <__rc8>
    341d: a5 19        	lda	$19                     ; 0x19 <__rc9>
    341f: 69 00        	adc	#$0
    3421: e6 1a        	inc	$1a                     ; 0x1a <__rc10>
    3423: 85 19        	sta	$19                     ; 0x19 <__rc9>
    3425: d0 d9        	bne	$3400 <main+0x98>
    3427: a9 00        	lda	#$0
    3429: a6 01        	ldx	$1                      ; 0x1 <__data_size+0x1>
    342b: a0 01        	ldy	#$1
    342d: 84 01        	sty	$1                      ; 0x1 <__data_size+0x1>
    342f: 92 16        	sta	($16)                   ; 0x16 <__rc6>
    3431: 91 16        	sta	($16),y                 ; 0x16 <__rc6>
    3433: c8           	iny
    3434: 91 16        	sta	($16),y                 ; 0x16 <__rc6>
    3436: c8           	iny
    3437: 85 18        	sta	$18                     ; 0x18 <__rc8>
    3439: a9 ff        	lda	#$ff
    343b: 91 16        	sta	($16),y                 ; 0x16 <__rc6>
    343d: 86 01        	stx	$1                      ; 0x1 <__data_size+0x1>
    343f: a5 16        	lda	$16                     ; 0x16 <__rc6>
    3441: 18           	clc
    3442: 69 04        	adc	#$4
    3444: 85 16        	sta	$16                     ; 0x16 <__rc6>
    3446: a5 17        	lda	$17                     ; 0x17 <__rc7>
    3448: 69 00        	adc	#$0
    344a: e6 18        	inc	$18                     ; 0x18 <__rc8>
    344c: 85 17        	sta	$17                     ; 0x17 <__rc7>
    344e: a5 18        	lda	$18                     ; 0x18 <__rc8>
    3450: d0 d7        	bne	$3429 <main+0xc1>
    3452: a9 00        	lda	#$0
    3454: a6 01        	ldx	$1                      ; 0x1 <__data_size+0x1>
    3456: a0 01        	ldy	#$1
    3458: 84 01        	sty	$1                      ; 0x1 <__data_size+0x1>
    345a: 92 14        	sta	($14)                   ; 0x14 <__rc4>
    345c: 91 14        	sta	($14),y                 ; 0x14 <__rc4>
    345e: c8           	iny
    345f: 91 14        	sta	($14),y                 ; 0x14 <__rc4>
    3461: c8           	iny
    3462: 85 16        	sta	$16                     ; 0x16 <__rc6>
    3464: a9 ff        	lda	#$ff
    3466: 91 14        	sta	($14),y                 ; 0x14 <__rc4>
    3468: 86 01        	stx	$1                      ; 0x1 <__data_size+0x1>
    346a: a5 14        	lda	$14                     ; 0x14 <__rc4>
    346c: 18           	clc
    346d: 69 04        	adc	#$4
    346f: 85 14        	sta	$14                     ; 0x14 <__rc4>
    3471: a5 15        	lda	$15                     ; 0x15 <__rc5>
    3473: 69 00        	adc	#$0
    3475: e6 16        	inc	$16                     ; 0x16 <__rc6>
    3477: 85 15        	sta	$15                     ; 0x15 <__rc5>
    3479: a5 16        	lda	$16                     ; 0x16 <__rc6>
    347b: d0 d7        	bne	$3454 <main+0xec>
    347d: a9 00        	lda	#$0
    347f: a6 01        	ldx	$1                      ; 0x1 <__data_size+0x1>
    3481: a0 01        	ldy	#$1
    3483: 84 01        	sty	$1                      ; 0x1 <__data_size+0x1>
    3485: 92 12        	sta	($12)                   ; 0x12 <__rc2>
    3487: 91 12        	sta	($12),y                 ; 0x12 <__rc2>
    3489: c8           	iny
    348a: 91 12        	sta	($12),y                 ; 0x12 <__rc2>
    348c: c8           	iny
    348d: 85 14        	sta	$14                     ; 0x14 <__rc4>
    348f: a9 ff        	lda	#$ff
    3491: 91 12        	sta	($12),y                 ; 0x12 <__rc2>
    3493: 86 01        	stx	$1                      ; 0x1 <__data_size+0x1>
    3495: a5 12        	lda	$12                     ; 0x12 <__rc2>
    3497: 18           	clc
    3498: 69 04        	adc	#$4
    349a: 85 12        	sta	$12                     ; 0x12 <__rc2>
    349c: a5 13        	lda	$13                     ; 0x13 <__rc3>
    349e: 69 00        	adc	#$0
    34a0: e6 14        	inc	$14                     ; 0x14 <__rc4>
    34a2: 85 13        	sta	$13                     ; 0x13 <__rc3>
    34a4: a5 14        	lda	$14                     ; 0x14 <__rc4>
    34a6: d0 d7        	bne	$347f <main+0x117>
    34a8: ad 02 d0     	lda	$d002                   ; 0xd002 <__heap_start+0x50f6>
    34ab: a2 f0        	ldx	#$f0
    34ad: 29 f0        	and	#$f0
    34af: 8d 02 d0     	sta	$d002                   ; 0xd002 <__heap_start+0x50f6>
    34b2: ad 02 d0     	lda	$d002                   ; 0xd002 <__heap_start+0x50f6>
    34b5: 29 0f        	and	#$f
    34b7: 09 10        	ora	#$10
    34b9: 8d 02 d0     	sta	$d002                   ; 0xd002 <__heap_start+0x50f6>
    34bc: a0 02        	ldy	#$2
    34be: 8c 03 d0     	sty	$d003                   ; 0xd003 <__heap_start+0x50f7>
    34c1: 86 3c        	stx	$3c                     ; 0x3c <_ccolor>
    34c3: ad 01 d0     	lda	$d001                   ; 0xd001 <__heap_start+0x50f5>
    34c6: 29 f9        	and	#$f9
    34c8: 09 04        	ora	#$4
    34ca: 8d 01 d0     	sta	$d001                   ; 0xd001 <__heap_start+0x50f5>
    34cd: 64 12        	stz	$12                     ; 0x12 <__rc2>
    34cf: 9c 10 d0     	stz	$d010                   ; 0xd010 <__heap_start+0x5104>
    34d2: a2 00        	ldx	#$0
    34d4: 64 13        	stz	$13                     ; 0x13 <__rc3>
    34d6: 86 16        	stx	$16                     ; 0x16 <__rc6>
    34d8: a4 16        	ldy	$16                     ; 0x16 <__rc6>
    34da: be 46 71     	ldx	$7146,y                 ; 0x7146 <textColors>
    34dd: 86 17        	stx	$17                     ; 0x17 <__rc7>
    34df: be 47 71     	ldx	$7147,y                 ; 0x7147 <textColors+0x1>
    34e2: 86 18        	stx	$18                     ; 0x18 <__rc8>
    34e4: be 48 71     	ldx	$7148,y                 ; 0x7148 <textColors+0x2>
    34e7: 86 19        	stx	$19                     ; 0x19 <__rc9>
    34e9: a6 13        	ldx	$13                     ; 0x13 <__rc3>
    34eb: 8e 00 de     	stx	$de00                   ; 0xde00 <__heap_start+0x5ef4>
    34ee: 86 15        	stx	$15                     ; 0x15 <__rc5>
    34f0: 9c 01 de     	stz	$de01                   ; 0xde01 <__heap_start+0x5ef5>
    34f3: a2 04        	ldx	#$4
    34f5: 8e 02 de     	stx	$de02                   ; 0xde02 <__heap_start+0x5ef6>
    34f8: 86 1b        	stx	$1b                     ; 0x1b <__rc11>
    34fa: 9c 03 de     	stz	$de03                   ; 0xde03 <__heap_start+0x5ef7>
    34fd: ad 10 de     	lda	$de10                   ; 0xde10 <__heap_start+0x5f04>
    3500: ac 11 de     	ldy	$de11                   ; 0xde11 <__heap_start+0x5f05>
    3503: 84 13        	sty	$13                     ; 0x13 <__rc3>
    3505: ac 12 de     	ldy	$de12                   ; 0xde12 <__heap_start+0x5f06>
    3508: ac 13 de     	ldy	$de13                   ; 0xde13 <__heap_start+0x5f07>
    350b: a2 00        	ldx	#$0
    350d: 18           	clc
    350e: 65 12        	adc	$12                     ; 0x12 <__rc2>
    3510: a8           	tay
    3511: 86 1d        	stx	$1d                     ; 0x1d <__rc13>
    3513: a6 15        	ldx	$15                     ; 0x15 <__rc5>
    3515: a9 d8        	lda	#$d8
    3517: 65 13        	adc	$13                     ; 0x13 <__rc3>
    3519: 84 14        	sty	$14                     ; 0x14 <__rc4>
    351b: 85 15        	sta	$15                     ; 0x15 <__rc5>
    351d: a5 19        	lda	$19                     ; 0x19 <__rc9>
    351f: 92 14        	sta	($14)                   ; 0x14 <__rc4>
    3521: a0 01        	ldy	#$1
    3523: a5 18        	lda	$18                     ; 0x18 <__rc8>
    3525: 91 14        	sta	($14),y                 ; 0x14 <__rc4>
    3527: 84 1a        	sty	$1a                     ; 0x1a <__rc10>
    3529: c8           	iny
    352a: a5 17        	lda	$17                     ; 0x17 <__rc7>
    352c: 91 14        	sta	($14),y                 ; 0x14 <__rc4>
    352e: 84 1c        	sty	$1c                     ; 0x1c <__rc12>
    3530: c8           	iny
    3531: a9 ff        	lda	#$ff
    3533: 91 14        	sta	($14),y                 ; 0x14 <__rc4>
    3535: 85 1f        	sta	$1f                     ; 0x1f <__rc15>
    3537: 84 1e        	sty	$1e                     ; 0x1e <__rc14>
    3539: 8e 00 de     	stx	$de00                   ; 0xde00 <__heap_start+0x5ef4>
    353c: 9c 01 de     	stz	$de01                   ; 0xde01 <__heap_start+0x5ef5>
    353f: a4 1b        	ldy	$1b                     ; 0x1b <__rc11>
    3541: 8c 02 de     	sty	$de02                   ; 0xde02 <__heap_start+0x5ef6>
    3544: 9c 03 de     	stz	$de03                   ; 0xde03 <__heap_start+0x5ef7>
    3547: ad 10 de     	lda	$de10                   ; 0xde10 <__heap_start+0x5f04>
    354a: 85 13        	sta	$13                     ; 0x13 <__rc3>
    354c: ad 11 de     	lda	$de11                   ; 0xde11 <__heap_start+0x5f05>
    354f: 85 14        	sta	$14                     ; 0x14 <__rc4>
    3551: a9 40        	lda	#$40
    3553: a4 1d        	ldy	$1d                     ; 0x1d <__rc13>
    3555: c0 01        	cpy	#$1
    3557: 65 13        	adc	$13                     ; 0x13 <__rc3>
    3559: a8           	tay
    355a: a9 d8        	lda	#$d8
    355c: 65 14        	adc	$14                     ; 0x14 <__rc4>
    355e: 85 15        	sta	$15                     ; 0x15 <__rc5>
    3560: 84 14        	sty	$14                     ; 0x14 <__rc4>
    3562: ad 12 de     	lda	$de12                   ; 0xde12 <__heap_start+0x5f06>
    3565: ad 13 de     	lda	$de13                   ; 0xde13 <__heap_start+0x5f07>
    3568: a5 19        	lda	$19                     ; 0x19 <__rc9>
    356a: 92 14        	sta	($14)                   ; 0x14 <__rc4>
    356c: a5 18        	lda	$18                     ; 0x18 <__rc8>
    356e: a4 1a        	ldy	$1a                     ; 0x1a <__rc10>
    3570: 91 14        	sta	($14),y                 ; 0x14 <__rc4>
    3572: a5 17        	lda	$17                     ; 0x17 <__rc7>
    3574: a4 1c        	ldy	$1c                     ; 0x1c <__rc12>
    3576: 91 14        	sta	($14),y                 ; 0x14 <__rc4>
    3578: a4 1e        	ldy	$1e                     ; 0x1e <__rc14>
    357a: a5 1f        	lda	$1f                     ; 0x1f <__rc15>
    357c: 91 14        	sta	($14),y                 ; 0x14 <__rc4>
    357e: e8           	inx
    357f: 86 13        	stx	$13                     ; 0x13 <__rc3>
    3581: 18           	clc
    3582: a5 16        	lda	$16                     ; 0x16 <__rc6>
    3584: 69 03        	adc	#$3
    3586: aa           	tax
    3587: c9 30        	cmp	#$30
    3589: f0 03        	beq	$358e <main+0x226>
    358b: 4c d6 34     	jmp	$34d6 <main+0x16e>
    358e: a6 01        	ldx	$1                      ; 0x1 <__data_size+0x1>
    3590: 86 16        	stx	$16                     ; 0x16 <__rc6>
    3592: a2 50        	ldx	#$50
    3594: 8e 00 de     	stx	$de00                   ; 0xde00 <__heap_start+0x5ef4>
    3597: 9c 01 de     	stz	$de01                   ; 0xde01 <__heap_start+0x5ef5>
    359a: a2 1e        	ldx	#$1e
    359c: 8e 02 de     	stx	$de02                   ; 0xde02 <__heap_start+0x5ef6>
    359f: 9c 03 de     	stz	$de03                   ; 0xde03 <__heap_start+0x5ef7>
    35a2: ae 10 de     	ldx	$de10                   ; 0xde10 <__heap_start+0x5f04>
    35a5: ac 11 de     	ldy	$de11                   ; 0xde11 <__heap_start+0x5f05>
    35a8: ad 12 de     	lda	$de12                   ; 0xde12 <__heap_start+0x5f06>
    35ab: ad 13 de     	lda	$de13                   ; 0xde13 <__heap_start+0x5f07>
    35ae: a9 02        	lda	#$2
    35b0: 85 01        	sta	$1                      ; 0x1 <__data_size+0x1>
    35b2: e0 01        	cpx	#$1
    35b4: 98           	tya
    35b5: e9 00        	sbc	#$0
    35b7: 50 02        	bvc	$35bb <main+0x253>
    35b9: 49 80        	eor	#$80
    35bb: c9 00        	cmp	#$0
    35bd: 10 03        	bpl	$35c2 <main+0x25a>
    35bf: 4c 1e 36     	jmp	$361e <main+0x2b6>
    35c2: a9 20        	lda	#$20
    35c4: 86 17        	stx	$17                     ; 0x17 <__rc7>
    35c6: 86 12        	stx	$12                     ; 0x12 <__rc2>
    35c8: 84 13        	sty	$13                     ; 0x13 <__rc3>
    35ca: a2 00        	ldx	#$0
    35cc: 86 14        	stx	$14                     ; 0x14 <__rc4>
    35ce: a2 c0        	ldx	#$c0
    35d0: 86 15        	stx	$15                     ; 0x15 <__rc5>
    35d2: 80 04        	bra	$35d8 <main+0x270>
    35d4: a6 13        	ldx	$13                     ; 0x13 <__rc3>
    35d6: f0 14        	beq	$35ec <main+0x284>
    35d8: 92 14        	sta	($14)                   ; 0x14 <__rc4>
    35da: e6 14        	inc	$14                     ; 0x14 <__rc4>
    35dc: d0 02        	bne	$35e0 <main+0x278>
    35de: e6 15        	inc	$15                     ; 0x15 <__rc5>
    35e0: a2 ff        	ldx	#$ff
    35e2: c6 12        	dec	$12                     ; 0x12 <__rc2>
    35e4: e4 12        	cpx	$12                     ; 0x12 <__rc2>
    35e6: d0 ec        	bne	$35d4 <main+0x26c>
    35e8: c6 13        	dec	$13                     ; 0x13 <__rc3>
    35ea: 80 e8        	bra	$35d4 <main+0x26c>
    35ec: a6 12        	ldx	$12                     ; 0x12 <__rc2>
    35ee: d0 e8        	bne	$35d8 <main+0x270>
    35f0: a2 03        	ldx	#$3
    35f2: 86 01        	stx	$1                      ; 0x1 <__data_size+0x1>
    35f4: a6 3c        	ldx	$3c                     ; 0x3c <_ccolor>
    35f6: 86 14        	stx	$14                     ; 0x14 <__rc4>
    35f8: a6 17        	ldx	$17                     ; 0x17 <__rc7>
    35fa: a9 00        	lda	#$0
    35fc: 85 12        	sta	$12                     ; 0x12 <__rc2>
    35fe: a9 c0        	lda	#$c0
    3600: 85 13        	sta	$13                     ; 0x13 <__rc3>
    3602: 80 03        	bra	$3607 <main+0x29f>
    3604: 98           	tya
    3605: f0 12        	beq	$3619 <main+0x2b1>
    3607: a5 14        	lda	$14                     ; 0x14 <__rc4>
    3609: 92 12        	sta	($12)                   ; 0x12 <__rc2>
    360b: e6 12        	inc	$12                     ; 0x12 <__rc2>
    360d: d0 02        	bne	$3611 <main+0x2a9>
    360f: e6 13        	inc	$13                     ; 0x13 <__rc3>
    3611: ca           	dex
    3612: e0 ff        	cpx	#$ff
    3614: d0 ee        	bne	$3604 <main+0x29c>
    3616: 88           	dey
    3617: 80 eb        	bra	$3604 <main+0x29c>
    3619: 8a           	txa
    361a: d0 eb        	bne	$3607 <main+0x29f>
    361c: 80 04        	bra	$3622 <main+0x2ba>
    361e: a2 03        	ldx	#$3
    3620: 86 01        	stx	$1                      ; 0x1 <__data_size+0x1>
    3622: a6 16        	ldx	$16                     ; 0x16 <__rc6>
    3624: 86 01        	stx	$1                      ; 0x1 <__data_size+0x1>
    3626: 64 40        	stz	$40                     ; 0x40 <_col>
    3628: 9c 14 d0     	stz	$d014                   ; 0xd014 <__heap_start+0x5108>
    362b: 9c 15 d0     	stz	$d015                   ; 0xd015 <__heap_start+0x5109>
    362e: 64 41        	stz	$41                     ; 0x41 <_row>
    3630: 9c 16 d0     	stz	$d016                   ; 0xd016 <__heap_start+0x510a>
    3633: 9c 17 d0     	stz	$d017                   ; 0xd017 <__heap_start+0x510b>
    3636: a2 40        	ldx	#$40
    3638: 8e 00 de     	stx	$de00                   ; 0xde00 <__heap_start+0x5ef4>
    363b: a2 01        	ldx	#$1
    363d: 8e 01 de     	stx	$de01                   ; 0xde01 <__heap_start+0x5ef5>
    3640: a2 f0        	ldx	#$f0
    3642: 8e 02 de     	stx	$de02                   ; 0xde02 <__heap_start+0x5ef6>
    3645: 9c 03 de     	stz	$de03                   ; 0xde03 <__heap_start+0x5ef7>
    3648: ae 10 de     	ldx	$de10                   ; 0xde10 <__heap_start+0x5f04>
    364b: 86 17        	stx	$17                     ; 0x17 <__rc7>
    364d: ae 11 de     	ldx	$de11                   ; 0xde11 <__heap_start+0x5f05>
    3650: 86 12        	stx	$12                     ; 0x12 <__rc2>
    3652: ae 12 de     	ldx	$de12                   ; 0xde12 <__heap_start+0x5f06>
    3655: 86 13        	stx	$13                     ; 0x13 <__rc3>
    3657: ae 13 de     	ldx	$de13                   ; 0xde13 <__heap_start+0x5f07>
    365a: 86 14        	stx	$14                     ; 0x14 <__rc4>
    365c: a4 12        	ldy	$12                     ; 0x12 <__rc2>
    365e: 84 15        	sty	$15                     ; 0x15 <__rc5>
    3660: 06 15        	asl	$15                     ; 0x15 <__rc5>
    3662: a5 13        	lda	$13                     ; 0x13 <__rc3>
    3664: 2a           	rol
    3665: 86 16        	stx	$16                     ; 0x16 <__rc6>
    3667: 26 16        	rol	$16                     ; 0x16 <__rc6>
    3669: 06 15        	asl	$15                     ; 0x15 <__rc5>
    366b: 2a           	rol
    366c: 26 16        	rol	$16                     ; 0x16 <__rc6>
    366e: 06 15        	asl	$15                     ; 0x15 <__rc5>
    3670: 2a           	rol
    3671: 26 16        	rol	$16                     ; 0x16 <__rc6>
    3673: 85 15        	sta	$15                     ; 0x15 <__rc5>
    3675: 8d 00 de     	sta	$de00                   ; 0xde00 <__heap_start+0x5ef4>
    3678: a5 16        	lda	$16                     ; 0x16 <__rc6>
    367a: 8d 01 de     	sta	$de01                   ; 0xde01 <__heap_start+0x5ef5>
    367d: 9c 02 de     	stz	$de02                   ; 0xde02 <__heap_start+0x5ef6>
    3680: a2 20        	ldx	#$20
    3682: 8e 03 de     	stx	$de03                   ; 0xde03 <__heap_start+0x5ef7>
    3685: ae 10 de     	ldx	$de10                   ; 0xde10 <__heap_start+0x5f04>
    3688: 86 16        	stx	$16                     ; 0x16 <__rc6>
    368a: ae 11 de     	ldx	$de11                   ; 0xde11 <__heap_start+0x5f05>
    368d: 86 18        	stx	$18                     ; 0x18 <__rc8>
    368f: ac 12 de     	ldy	$de12                   ; 0xde12 <__heap_start+0x5f06>
    3692: ae 13 de     	ldx	$de13                   ; 0xde13 <__heap_start+0x5f07>
    3695: e4 14        	cpx	$14                     ; 0x14 <__rc4>
    3697: d0 14        	bne	$36ad <main+0x345>
    3699: c4 13        	cpy	$13                     ; 0x13 <__rc3>
    369b: d0 10        	bne	$36ad <main+0x345>
    369d: a6 18        	ldx	$18                     ; 0x18 <__rc8>
    369f: e4 12        	cpx	$12                     ; 0x12 <__rc2>
    36a1: d0 0a        	bne	$36ad <main+0x345>
    36a3: a6 16        	ldx	$16                     ; 0x16 <__rc6>
    36a5: e4 17        	cpx	$17                     ; 0x17 <__rc7>
    36a7: d0 04        	bne	$36ad <main+0x345>
    36a9: a6 15        	ldx	$15                     ; 0x15 <__rc5>
    36ab: 80 06        	bra	$36b3 <main+0x34b>
    36ad: a6 15        	ldx	$15                     ; 0x15 <__rc5>
    36af: e8           	inx
    36b0: d0 01        	bne	$36b3 <main+0x34b>
    36b2: 1a           	inc
    36b3: 8e 00 de     	stx	$de00                   ; 0xde00 <__heap_start+0x5ef4>
    36b6: 8d 01 de     	sta	$de01                   ; 0xde01 <__heap_start+0x5ef5>
    36b9: 9c 02 de     	stz	$de02                   ; 0xde02 <__heap_start+0x5ef6>
    36bc: a2 20        	ldx	#$20
    36be: 8e 03 de     	stx	$de03                   ; 0xde03 <__heap_start+0x5ef7>
    36c1: ae 10 de     	ldx	$de10                   ; 0xde10 <__heap_start+0x5f04>
    36c4: 86 12        	stx	$12                     ; 0x12 <__rc2>
    36c6: ae 11 de     	ldx	$de11                   ; 0xde11 <__heap_start+0x5f05>
    36c9: 86 13        	stx	$13                     ; 0x13 <__rc3>
    36cb: ae 12 de     	ldx	$de12                   ; 0xde12 <__heap_start+0x5f06>
    36ce: 86 14        	stx	$14                     ; 0x14 <__rc4>
    36d0: ae 13 de     	ldx	$de13                   ; 0xde13 <__heap_start+0x5f07>
    36d3: 86 15        	stx	$15                     ; 0x15 <__rc5>
    36d5: 38           	sec
    36d6: a9 00        	lda	#$0
    36d8: e5 12        	sbc	$12                     ; 0x12 <__rc2>
    36da: 85 17        	sta	$17                     ; 0x17 <__rc7>
    36dc: a9 00        	lda	#$0
    36de: e5 13        	sbc	$13                     ; 0x13 <__rc3>
    36e0: aa           	tax
    36e1: a9 08        	lda	#$8
    36e3: e5 14        	sbc	$14                     ; 0x14 <__rc4>
    36e5: 85 16        	sta	$16                     ; 0x16 <__rc6>
    36e7: a9 00        	lda	#$0
    36e9: e5 15        	sbc	$15                     ; 0x15 <__rc5>
    36eb: 86 43        	stx	$43                     ; 0x43 <_BITMAP_BASE.0+0x1>
    36ed: a4 16        	ldy	$16                     ; 0x16 <__rc6>
    36ef: 84 44        	sty	$44                     ; 0x44 <_BITMAP_BASE.0+0x2>
    36f1: 85 45        	sta	$45                     ; 0x45 <_BITMAP_BASE.0+0x3>
    36f3: a5 17        	lda	$17                     ; 0x17 <__rc7>
    36f5: 38           	sec
    36f6: e5 12        	sbc	$12                     ; 0x12 <__rc2>
    36f8: a8           	tay
    36f9: 8a           	txa
    36fa: e5 13        	sbc	$13                     ; 0x13 <__rc3>
    36fc: 85 18        	sta	$18                     ; 0x18 <__rc8>
    36fe: a5 16        	lda	$16                     ; 0x16 <__rc6>
    3700: e5 14        	sbc	$14                     ; 0x14 <__rc4>
    3702: 85 15        	sta	$15                     ; 0x15 <__rc5>
    3704: 98           	tya
    3705: 84 16        	sty	$16                     ; 0x16 <__rc6>
    3707: 38           	sec
    3708: e5 12        	sbc	$12                     ; 0x12 <__rc2>
    370a: 85 12        	sta	$12                     ; 0x12 <__rc2>
    370c: a5 18        	lda	$18                     ; 0x18 <__rc8>
    370e: e5 13        	sbc	$13                     ; 0x13 <__rc3>
    3710: 85 13        	sta	$13                     ; 0x13 <__rc3>
    3712: a4 15        	ldy	$15                     ; 0x15 <__rc5>
    3714: a5 15        	lda	$15                     ; 0x15 <__rc5>
    3716: e5 14        	sbc	$14                     ; 0x14 <__rc4>
    3718: a6 17        	ldx	$17                     ; 0x17 <__rc7>
    371a: 86 42        	stx	$42                     ; 0x42 <_BITMAP_BASE.0>
    371c: 8e 01 d1     	stx	$d101                   ; 0xd101 <__heap_start+0x51f5>
    371f: a6 43        	ldx	$43                     ; 0x43 <_BITMAP_BASE.0+0x1>
    3721: 8e 02 d1     	stx	$d102                   ; 0xd102 <__heap_start+0x51f6>
    3724: a6 44        	ldx	$44                     ; 0x44 <_BITMAP_BASE.0+0x2>
    3726: 8e 03 d1     	stx	$d103                   ; 0xd103 <__heap_start+0x51f7>
    3729: a6 16        	ldx	$16                     ; 0x16 <__rc6>
    372b: 8e 09 d1     	stx	$d109                   ; 0xd109 <__heap_start+0x51fd>
    372e: a6 18        	ldx	$18                     ; 0x18 <__rc8>
    3730: 8e 0a d1     	stx	$d10a                   ; 0xd10a <__heap_start+0x51fe>
    3733: 8c 0b d1     	sty	$d10b                   ; 0xd10b <__heap_start+0x51ff>
    3736: a6 12        	ldx	$12                     ; 0x12 <__rc2>
    3738: 8e 11 d1     	stx	$d111                   ; 0xd111 <__heap_start+0x5205>
    373b: a6 13        	ldx	$13                     ; 0x13 <__rc3>
    373d: 8e 12 d1     	stx	$d112                   ; 0xd112 <__heap_start+0x5206>
    3740: 8d 13 d1     	sta	$d113                   ; 0xd113 <__heap_start+0x5207>
    3743: 9c 00 d1     	stz	$d100                   ; 0xd100 <__heap_start+0x51f4>
    3746: 9c 08 d1     	stz	$d108                   ; 0xd108 <__heap_start+0x51fc>
    3749: 9c 10 d1     	stz	$d110                   ; 0xd110 <__heap_start+0x5204>
    374c: a2 10        	ldx	#$10
    374e: 8e 00 d2     	stx	$d200                   ; 0xd200 <__heap_start+0x52f4>
    3751: 8e 0c d2     	stx	$d20c                   ; 0xd20c <__heap_start+0x5300>
    3754: 8e 18 d2     	stx	$d218                   ; 0xd218 <__heap_start+0x530c>
    3757: a0 d9        	ldy	#$d9
    3759: a2 40        	ldx	#$40
    375b: 64 12        	stz	$12                     ; 0x12 <__rc2>
    375d: 84 13        	sty	$13                     ; 0x13 <__rc3>
    375f: a9 00        	lda	#$0
    3761: 92 12        	sta	($12)                   ; 0x12 <__rc2>
    3763: ca           	dex
    3764: 18           	clc
    3765: a5 12        	lda	$12                     ; 0x12 <__rc2>
    3767: 69 08        	adc	#$8
    3769: 85 12        	sta	$12                     ; 0x12 <__rc2>
    376b: 98           	tya
    376c: 69 00        	adc	#$0
    376e: a8           	tay
    376f: 8a           	txa
    3770: d0 eb        	bne	$375d <main+0x3f5>
    3772: 18           	clc
    3773: a5 10        	lda	$10                     ; 0x10 <__rc0>
    3775: 69 0f        	adc	#$f
    3777: 85 2a        	sta	$2a                     ; 0x2a <__rc26>
    3779: a5 11        	lda	$11                     ; 0x11 <__rc1>
    377b: 69 00        	adc	#$0
    377d: 85 2b        	sta	$2b                     ; 0x2b <__rc27>
    377f: a6 2a        	ldx	$2a                     ; 0x2a <__rc26>
    3781: 86 fb        	stx	$fb                     ; 0xfb <__zp_bss_size+0xb7>
    3783: 85 fc        	sta	$fc                     ; 0xfc <__zp_bss_size+0xb8>
    3785: a2 08        	ldx	#$8
    3787: 86 fd        	stx	$fd                     ; 0xfd <__zp_bss_size+0xb9>
    3789: 18           	clc
    378a: a5 10        	lda	$10                     ; 0x10 <__rc0>
    378c: 69 0e        	adc	#$e
    378e: 85 12        	sta	$12                     ; 0x12 <__rc2>
    3790: a5 11        	lda	$11                     ; 0x11 <__rc1>
    3792: 69 00        	adc	#$0
    3794: 85 13        	sta	$13                     ; 0x13 <__rc3>
    3796: a2 7a        	ldx	#$7a
    3798: 86 14        	stx	$14                     ; 0x14 <__rc4>
    379a: a2 00        	ldx	#$0
    379c: 86 15        	stx	$15                     ; 0x15 <__rc5>
    379e: a0 06        	ldy	#$6
    37a0: 20 dc ff     	jsr	$ffdc <__heap_start+0x80d0>
    37a3: 92 12        	sta	($12)                   ; 0x12 <__rc2>
    37a5: a9 00        	lda	#$0
    37a7: 6a           	ror
    37a8: 85 14        	sta	$14                     ; 0x14 <__rc4>
    37aa: b1 2a        	lda	($2a),y                 ; 0x2a <__rc26>
    37ac: 85 12        	sta	$12                     ; 0x12 <__rc2>
    37ae: c8           	iny
    37af: b1 2a        	lda	($2a),y                 ; 0x2a <__rc26>
    37b1: a6 12        	ldx	$12                     ; 0x12 <__rc2>
    37b3: 8e 00 de     	stx	$de00                   ; 0xde00 <__heap_start+0x5ef4>
    37b6: 9c 01 de     	stz	$de01                   ; 0xde01 <__heap_start+0x5ef5>
    37b9: 8d 02 de     	sta	$de02                   ; 0xde02 <__heap_start+0x5ef6>
    37bc: 9c 03 de     	stz	$de03                   ; 0xde03 <__heap_start+0x5ef7>
    37bf: ae 10 de     	ldx	$de10                   ; 0xde10 <__heap_start+0x5f04>
    37c2: ac 11 de     	ldy	$de11                   ; 0xde11 <__heap_start+0x5f05>
    37c5: ad 12 de     	lda	$de12                   ; 0xde12 <__heap_start+0x5f06>
    37c8: ad 13 de     	lda	$de13                   ; 0xde13 <__heap_start+0x5f07>
    37cb: 8e a4 d6     	stx	$d6a4                   ; 0xd6a4 <__heap_start+0x5798>
    37ce: 8c a5 d6     	sty	$d6a5                   ; 0xd6a5 <__heap_start+0x5799>
    37d1: a2 03        	ldx	#$3
    37d3: 8e a6 d6     	stx	$d6a6                   ; 0xd6a6 <__heap_start+0x579a>
    37d6: 64 01        	stz	$1                      ; 0x1 <__data_size+0x1>
    37d8: a6 01        	ldx	$1                      ; 0x1 <__data_size+0x1>
    37da: 86 16        	stx	$16                     ; 0x16 <__rc6>
    37dc: a2 50        	ldx	#$50
    37de: 8e 00 de     	stx	$de00                   ; 0xde00 <__heap_start+0x5ef4>
    37e1: 9c 01 de     	stz	$de01                   ; 0xde01 <__heap_start+0x5ef5>
    37e4: a2 1e        	ldx	#$1e
    37e6: 8e 02 de     	stx	$de02                   ; 0xde02 <__heap_start+0x5ef6>
    37e9: 9c 03 de     	stz	$de03                   ; 0xde03 <__heap_start+0x5ef7>
    37ec: ae 10 de     	ldx	$de10                   ; 0xde10 <__heap_start+0x5f04>
    37ef: ac 11 de     	ldy	$de11                   ; 0xde11 <__heap_start+0x5f05>
    37f2: ad 12 de     	lda	$de12                   ; 0xde12 <__heap_start+0x5f06>
    37f5: ad 13 de     	lda	$de13                   ; 0xde13 <__heap_start+0x5f07>
    37f8: a9 02        	lda	#$2
    37fa: 85 01        	sta	$1                      ; 0x1 <__data_size+0x1>
    37fc: e0 01        	cpx	#$1
    37fe: 98           	tya
    37ff: e9 00        	sbc	#$0
    3801: 50 02        	bvc	$3805 <main+0x49d>
    3803: 49 80        	eor	#$80
    3805: c9 00        	cmp	#$0
    3807: 10 03        	bpl	$380c <main+0x4a4>
    3809: 4c 68 38     	jmp	$3868 <main+0x500>
    380c: a9 20        	lda	#$20
    380e: 86 17        	stx	$17                     ; 0x17 <__rc7>
    3810: 86 12        	stx	$12                     ; 0x12 <__rc2>
    3812: 84 13        	sty	$13                     ; 0x13 <__rc3>
    3814: a2 00        	ldx	#$0
    3816: 86 14        	stx	$14                     ; 0x14 <__rc4>
    3818: a2 c0        	ldx	#$c0
    381a: 86 15        	stx	$15                     ; 0x15 <__rc5>
    381c: 80 04        	bra	$3822 <main+0x4ba>
    381e: a6 13        	ldx	$13                     ; 0x13 <__rc3>
    3820: f0 14        	beq	$3836 <main+0x4ce>
    3822: 92 14        	sta	($14)                   ; 0x14 <__rc4>
    3824: e6 14        	inc	$14                     ; 0x14 <__rc4>
    3826: d0 02        	bne	$382a <main+0x4c2>
    3828: e6 15        	inc	$15                     ; 0x15 <__rc5>
    382a: a2 ff        	ldx	#$ff
    382c: c6 12        	dec	$12                     ; 0x12 <__rc2>
    382e: e4 12        	cpx	$12                     ; 0x12 <__rc2>
    3830: d0 ec        	bne	$381e <main+0x4b6>
    3832: c6 13        	dec	$13                     ; 0x13 <__rc3>
    3834: 80 e8        	bra	$381e <main+0x4b6>
    3836: a6 12        	ldx	$12                     ; 0x12 <__rc2>
    3838: d0 e8        	bne	$3822 <main+0x4ba>
    383a: a2 03        	ldx	#$3
    383c: 86 01        	stx	$1                      ; 0x1 <__data_size+0x1>
    383e: a6 3c        	ldx	$3c                     ; 0x3c <_ccolor>
    3840: 86 14        	stx	$14                     ; 0x14 <__rc4>
    3842: a6 17        	ldx	$17                     ; 0x17 <__rc7>
    3844: a9 00        	lda	#$0
    3846: 85 12        	sta	$12                     ; 0x12 <__rc2>
    3848: a9 c0        	lda	#$c0
    384a: 85 13        	sta	$13                     ; 0x13 <__rc3>
    384c: 80 03        	bra	$3851 <main+0x4e9>
    384e: 98           	tya
    384f: f0 12        	beq	$3863 <main+0x4fb>
    3851: a5 14        	lda	$14                     ; 0x14 <__rc4>
    3853: 92 12        	sta	($12)                   ; 0x12 <__rc2>
    3855: e6 12        	inc	$12                     ; 0x12 <__rc2>
    3857: d0 02        	bne	$385b <main+0x4f3>
    3859: e6 13        	inc	$13                     ; 0x13 <__rc3>
    385b: ca           	dex
    385c: e0 ff        	cpx	#$ff
    385e: d0 ee        	bne	$384e <main+0x4e6>
    3860: 88           	dey
    3861: 80 eb        	bra	$384e <main+0x4e6>
    3863: 8a           	txa
    3864: d0 eb        	bne	$3851 <main+0x4e9>
    3866: 80 04        	bra	$386c <main+0x504>
    3868: a2 03        	ldx	#$3
    386a: 86 01        	stx	$1                      ; 0x1 <__data_size+0x1>
    386c: a6 16        	ldx	$16                     ; 0x16 <__rc6>
    386e: 86 01        	stx	$1                      ; 0x1 <__data_size+0x1>
    3870: 64 40        	stz	$40                     ; 0x40 <_col>
    3872: 9c 14 d0     	stz	$d014                   ; 0xd014 <__heap_start+0x5108>
    3875: 9c 15 d0     	stz	$d015                   ; 0xd015 <__heap_start+0x5109>
    3878: 64 41        	stz	$41                     ; 0x41 <_row>
    387a: 9c 16 d0     	stz	$d016                   ; 0xd016 <__heap_start+0x510a>
    387d: 9c 17 d0     	stz	$d017                   ; 0xd017 <__heap_start+0x510b>
    3880: a2 0f        	ldx	#$f
    3882: 8e 00 d0     	stx	$d000                   ; 0xd000 <__heap_start+0x50f4>
    3885: 9c 01 d0     	stz	$d001                   ; 0xd001 <__heap_start+0x50f5>
    3888: a0 d9        	ldy	#$d9
    388a: a2 40        	ldx	#$40
    388c: 64 12        	stz	$12                     ; 0x12 <__rc2>
    388e: 84 13        	sty	$13                     ; 0x13 <__rc3>
    3890: a9 00        	lda	#$0
    3892: 92 12        	sta	($12)                   ; 0x12 <__rc2>
    3894: ca           	dex
    3895: 18           	clc
    3896: a5 12        	lda	$12                     ; 0x12 <__rc2>
    3898: 69 08        	adc	#$8
    389a: 85 12        	sta	$12                     ; 0x12 <__rc2>
    389c: 98           	tya
    389d: 69 00        	adc	#$0
    389f: a8           	tay
    38a0: 8a           	txa
    38a1: d0 eb        	bne	$388e <main+0x526>
    38a3: a2 00        	ldx	#$0
    38a5: 9c 00 d1     	stz	$d100                   ; 0xd100 <__heap_start+0x51f4>
    38a8: 9c 08 d1     	stz	$d108                   ; 0xd108 <__heap_start+0x51fc>
    38ab: 9c 10 d1     	stz	$d110                   ; 0xd110 <__heap_start+0x5204>
    38ae: ad 01 d0     	lda	$d001                   ; 0xd001 <__heap_start+0x50f5>
    38b1: 29 ef        	and	#$ef
    38b3: 8d 01 d0     	sta	$d001                   ; 0xd001 <__heap_start+0x50f5>
    38b6: a0 0f        	ldy	#$f
    38b8: 8c 00 d0     	sty	$d000                   ; 0xd000 <__heap_start+0x50f4>
    38bb: a0 04        	ldy	#$4
    38bd: 8c 01 d0     	sty	$d001                   ; 0xd001 <__heap_start+0x50f5>
    38c0: a0 10        	ldy	#$10
    38c2: 8c 02 d0     	sty	$d002                   ; 0xd002 <__heap_start+0x50f6>
    38c5: 9c 0d d0     	stz	$d00d                   ; 0xd00d <__heap_start+0x5101>
    38c8: 9c 0e d0     	stz	$d00e                   ; 0xd00e <__heap_start+0x5102>
    38cb: 9c 0f d0     	stz	$d00f                   ; 0xd00f <__heap_start+0x5103>
    38ce: a0 01        	ldy	#$1
    38d0: 84 01        	sty	$1                      ; 0x1 <__data_size+0x1>
    38d2: a0 d0        	ldy	#$d0
    38d4: 8a           	txa
    38d5: 18           	clc
    38d6: 69 00        	adc	#$0
    38d8: 85 14        	sta	$14                     ; 0x14 <__rc4>
    38da: 98           	tya
    38db: 69 10        	adc	#$10
    38dd: 85 15        	sta	$15                     ; 0x15 <__rc5>
    38df: 86 12        	stx	$12                     ; 0x12 <__rc2>
    38e1: 84 13        	sty	$13                     ; 0x13 <__rc3>
    38e3: 86 16        	stx	$16                     ; 0x16 <__rc6>
    38e5: a6 0f        	ldx	$f                      ; 0xf <__zp_data_size+0x2>
    38e7: 78           	sei
    38e8: a9 08        	lda	#$8
    38ea: 85 0f        	sta	$f                      ; 0xf <__zp_data_size+0x2>
    38ec: b2 14        	lda	($14)                   ; 0x14 <__rc4>
    38ee: 86 0f        	stx	$f                      ; 0xf <__zp_data_size+0x2>
    38f0: a6 16        	ldx	$16                     ; 0x16 <__rc6>
    38f2: 58           	cli
    38f3: 92 12        	sta	($12)                   ; 0x12 <__rc2>
    38f5: e8           	inx
    38f6: f0 06        	beq	$38fe <main+0x596>
    38f8: c0 d3        	cpy	#$d3
    38fa: d0 d8        	bne	$38d4 <main+0x56c>
    38fc: 80 05        	bra	$3903 <main+0x59b>
    38fe: c8           	iny
    38ff: c0 d3        	cpy	#$d3
    3901: d0 d1        	bne	$38d4 <main+0x56c>
    3903: e0 ff        	cpx	#$ff
    3905: d0 cd        	bne	$38d4 <main+0x56c>
    3907: 64 01        	stz	$1                      ; 0x1 <__data_size+0x1>
    3909: 64 42        	stz	$42                     ; 0x42 <_BITMAP_BASE.0>
    390b: a0 04        	ldy	#$4
    390d: 84 43        	sty	$43                     ; 0x43 <_BITMAP_BASE.0+0x1>
    390f: a2 01        	ldx	#$1
    3911: 86 44        	stx	$44                     ; 0x44 <_BITMAP_BASE.0+0x2>
    3913: 64 45        	stz	$45                     ; 0x45 <_BITMAP_BASE.0+0x3>
    3915: 9c 01 d1     	stz	$d101                   ; 0xd101 <__heap_start+0x51f5>
    3918: 8c 02 d1     	sty	$d102                   ; 0xd102 <__heap_start+0x51f6>
    391b: 84 27        	sty	$27                     ; 0x27 <__rc23>
    391d: 8e 03 d1     	stx	$d103                   ; 0xd103 <__heap_start+0x51f7>
    3920: ad 00 d1     	lda	$d100                   ; 0xd100 <__heap_start+0x51f4>
    3923: 29 f9        	and	#$f9
    3925: 8d 00 d1     	sta	$d100                   ; 0xd100 <__heap_start+0x51f4>
    3928: 8e 00 d1     	stx	$d100                   ; 0xd100 <__heap_start+0x51f4>
    392b: 86 26        	stx	$26                     ; 0x26 <__rc22>
    392d: ad 01 d0     	lda	$d001                   ; 0xd001 <__heap_start+0x50f5>
    3930: 09 10        	ora	#$10
    3932: 8d 01 d0     	sta	$d001                   ; 0xd001 <__heap_start+0x50f5>
    3935: a2 f0        	ldx	#$f0
    3937: 86 3c        	stx	$3c                     ; 0x3c <_ccolor>
    3939: 86 25        	stx	$25                     ; 0x25 <__rc21>
    393b: a2 d4        	ldx	#$d4
    393d: a9 11        	lda	#$11
    393f: a0 ac        	ldy	#$ac
    3941: 84 12        	sty	$12                     ; 0x12 <__rc2>
    3943: a0 71        	ldy	#$71
    3945: 84 13        	sty	$13                     ; 0x13 <__rc3>
    3947: 85 14        	sta	$14                     ; 0x14 <__rc4>
    3949: 85 24        	sta	$24                     ; 0x24 <__rc20>
    394b: a9 00        	lda	#$0
    394d: 20 b2 6b     	jsr	$6bb2 <__memset>
    3950: a4 26        	ldy	$26                     ; 0x26 <__rc22>
    3952: 84 3e        	sty	$3e                     ; 0x3e <menuSoundTimer.2>
    3954: a2 80        	ldx	#$80
    3956: 86 f3        	stx	$f3                     ; 0xf3 <__zp_bss_size+0xaf>
    3958: 86 26        	stx	$26                     ; 0x26 <__rc22>
    395a: a2 7a        	ldx	#$7a
    395c: 86 12        	stx	$12                     ; 0x12 <__rc2>
    395e: a2 00        	ldx	#$0
    3960: 86 13        	stx	$13                     ; 0x13 <__rc3>
    3962: 20 f0 ff     	jsr	$fff0 <__heap_start+0x80e4>
    3965: 92 2a        	sta	($2a)                   ; 0x2a <__rc26>
    3967: a9 00        	lda	#$0
    3969: 6a           	ror
    396a: 85 12        	sta	$12                     ; 0x12 <__rc2>
    396c: 18           	clc
    396d: a9 02        	lda	#$2
    396f: 72 2a        	adc	($2a)                   ; 0x2a <__rc26>
    3971: 85 3d        	sta	$3d                     ; 0x3d <menuSoundTimer.1>
    3973: 64 f3        	stz	$f3                     ; 0xf3 <__zp_bss_size+0xaf>
    3975: a6 3d        	ldx	$3d                     ; 0x3d <menuSoundTimer.1>
    3977: 86 f4        	stx	$f4                     ; 0xf4 <__zp_bss_size+0xb0>
    3979: 84 f5        	sty	$f5                     ; 0xf5 <__zp_bss_size+0xb1>
    397b: 84 2e        	sty	$2e                     ; 0x2e <__rc30>
    397d: 20 f0 ff     	jsr	$fff0 <__heap_start+0x80e4>
    3980: 92 2a        	sta	($2a)                   ; 0x2a <__rc26>
    3982: a9 00        	lda	#$0
    3984: 6a           	ror
    3985: 85 12        	sta	$12                     ; 0x12 <__rc2>
    3987: 20 97 05     	jsr	$597 <killSound>
    398a: ad a1 d6     	lda	$d6a1                   ; 0xd6a1 <__heap_start+0x5795>
    398d: 29 fb        	and	#$fb
    398f: 8d a1 d6     	sta	$d6a1                   ; 0xd6a1 <__heap_start+0x5795>
    3992: a2 4f        	ldx	#$4f
    3994: 86 12        	stx	$12                     ; 0x12 <__rc2>
    3996: a2 00        	ldx	#$0
    3998: 86 13        	stx	$13                     ; 0x13 <__rc3>
    399a: 64 14        	stz	$14                     ; 0x14 <__rc4>
    399c: a2 10        	ldx	#$10
    399e: a9 00        	lda	#$0
    39a0: 20 b2 6b     	jsr	$6bb2 <__memset>
    39a3: a4 2e        	ldy	$2e                     ; 0x2e <__rc30>
    39a5: 8c 80 d5     	sty	$d580                   ; 0xd580 <__heap_start+0x5674>
    39a8: a2 20        	ldx	#$20
    39aa: 8e 81 d5     	stx	$d581                   ; 0xd581 <__heap_start+0x5675>
    39ad: a2 02        	ldx	#$2
    39af: 8e 80 d5     	stx	$d580                   ; 0xd580 <__heap_start+0x5674>
    39b2: 9c 81 d5     	stz	$d581                   ; 0xd581 <__heap_start+0x5675>
    39b5: e8           	inx
    39b6: 8e 80 d5     	stx	$d580                   ; 0xd580 <__heap_start+0x5674>
    39b9: 9c 81 d5     	stz	$d581                   ; 0xd581 <__heap_start+0x5675>
    39bc: a6 27        	ldx	$27                     ; 0x27 <__rc23>
    39be: 8e 82 d5     	stx	$d582                   ; 0xd582 <__heap_start+0x5676>
    39c1: 9c 81 d5     	stz	$d581                   ; 0xd581 <__heap_start+0x5675>
    39c4: a2 05        	ldx	#$5
    39c6: 8e 82 d5     	stx	$d582                   ; 0xd582 <__heap_start+0x5676>
    39c9: 8c 81 d5     	sty	$d581                   ; 0xd581 <__heap_start+0x5675>
    39cc: 84 12        	sty	$12                     ; 0x12 <__rc2>
    39ce: a2 08        	ldx	#$8
    39d0: 8e 80 d5     	stx	$d580                   ; 0xd580 <__heap_start+0x5674>
    39d3: 86 14        	stx	$14                     ; 0x14 <__rc4>
    39d5: 9c 81 d5     	stz	$d581                   ; 0xd581 <__heap_start+0x5675>
    39d8: a2 bd        	ldx	#$bd
    39da: 8e 80 d5     	stx	$d580                   ; 0xd580 <__heap_start+0x5674>
    39dd: 9c 81 d5     	stz	$d581                   ; 0xd581 <__heap_start+0x5675>
    39e0: a2 c0        	ldx	#$c0
    39e2: 8e 80 d5     	stx	$d580                   ; 0xd580 <__heap_start+0x5674>
    39e5: 8a           	txa
    39e6: a2 30        	ldx	#$30
    39e8: 8e 81 d5     	stx	$d581                   ; 0xd581 <__heap_start+0x5675>
    39eb: a0 c1        	ldy	#$c1
    39ed: 8c 80 d5     	sty	$d580                   ; 0xd580 <__heap_start+0x5674>
    39f0: 84 15        	sty	$15                     ; 0x15 <__rc5>
    39f2: 8e 81 d5     	stx	$d581                   ; 0xd581 <__heap_start+0x5675>
    39f5: c8           	iny
    39f6: 8c 80 d5     	sty	$d580                   ; 0xd580 <__heap_start+0x5674>
    39f9: 84 16        	sty	$16                     ; 0x16 <__rc6>
    39fb: 8e 81 d5     	stx	$d581                   ; 0xd581 <__heap_start+0x5675>
    39fe: c8           	iny
    39ff: 8c 80 d5     	sty	$d580                   ; 0xd580 <__heap_start+0x5674>
    3a02: 84 17        	sty	$17                     ; 0x17 <__rc7>
    3a04: 8e 81 d5     	stx	$d581                   ; 0xd581 <__heap_start+0x5675>
    3a07: c8           	iny
    3a08: 8c 80 d5     	sty	$d580                   ; 0xd580 <__heap_start+0x5674>
    3a0b: 84 18        	sty	$18                     ; 0x18 <__rc8>
    3a0d: 8e 81 d5     	stx	$d581                   ; 0xd581 <__heap_start+0x5675>
    3a10: c8           	iny
    3a11: 8c 80 d5     	sty	$d580                   ; 0xd580 <__heap_start+0x5674>
    3a14: 84 19        	sty	$19                     ; 0x19 <__rc9>
    3a16: 8e 81 d5     	stx	$d581                   ; 0xd581 <__heap_start+0x5675>
    3a19: c8           	iny
    3a1a: 8c 80 d5     	sty	$d580                   ; 0xd580 <__heap_start+0x5674>
    3a1d: 84 1a        	sty	$1a                     ; 0x1a <__rc10>
    3a1f: 8e 81 d5     	stx	$d581                   ; 0xd581 <__heap_start+0x5675>
    3a22: c8           	iny
    3a23: 8c 80 d5     	sty	$d580                   ; 0xd580 <__heap_start+0x5674>
    3a26: 84 1b        	sty	$1b                     ; 0x1b <__rc11>
    3a28: 8e 81 d5     	stx	$d581                   ; 0xd581 <__heap_start+0x5675>
    3a2b: c8           	iny
    3a2c: 8c 80 d5     	sty	$d580                   ; 0xd580 <__heap_start+0x5674>
    3a2f: 8e 81 d5     	stx	$d581                   ; 0xd581 <__heap_start+0x5675>
    3a32: 8d 82 d5     	sta	$d582                   ; 0xd582 <__heap_start+0x5676>
    3a35: 8e 81 d5     	stx	$d581                   ; 0xd581 <__heap_start+0x5675>
    3a38: a5 15        	lda	$15                     ; 0x15 <__rc5>
    3a3a: 8d 82 d5     	sta	$d582                   ; 0xd582 <__heap_start+0x5676>
    3a3d: 8e 81 d5     	stx	$d581                   ; 0xd581 <__heap_start+0x5675>
    3a40: a5 16        	lda	$16                     ; 0x16 <__rc6>
    3a42: 8d 82 d5     	sta	$d582                   ; 0xd582 <__heap_start+0x5676>
    3a45: 8e 81 d5     	stx	$d581                   ; 0xd581 <__heap_start+0x5675>
    3a48: a5 17        	lda	$17                     ; 0x17 <__rc7>
    3a4a: 8d 82 d5     	sta	$d582                   ; 0xd582 <__heap_start+0x5676>
    3a4d: 8e 81 d5     	stx	$d581                   ; 0xd581 <__heap_start+0x5675>
    3a50: a5 18        	lda	$18                     ; 0x18 <__rc8>
    3a52: 8d 82 d5     	sta	$d582                   ; 0xd582 <__heap_start+0x5676>
    3a55: 8e 81 d5     	stx	$d581                   ; 0xd581 <__heap_start+0x5675>
    3a58: a5 19        	lda	$19                     ; 0x19 <__rc9>
    3a5a: 8d 82 d5     	sta	$d582                   ; 0xd582 <__heap_start+0x5676>
    3a5d: 8e 81 d5     	stx	$d581                   ; 0xd581 <__heap_start+0x5675>
    3a60: a5 1a        	lda	$1a                     ; 0x1a <__rc10>
    3a62: 8d 82 d5     	sta	$d582                   ; 0xd582 <__heap_start+0x5676>
    3a65: 8e 81 d5     	stx	$d581                   ; 0xd581 <__heap_start+0x5675>
    3a68: a5 1b        	lda	$1b                     ; 0x1b <__rc11>
    3a6a: 8d 82 d5     	sta	$d582                   ; 0xd582 <__heap_start+0x5676>
    3a6d: 8e 81 d5     	stx	$d581                   ; 0xd581 <__heap_start+0x5675>
    3a70: 8c 82 d5     	sty	$d582                   ; 0xd582 <__heap_start+0x5676>
    3a73: 8e 81 d5     	stx	$d581                   ; 0xd581 <__heap_start+0x5675>
    3a76: 86 13        	stx	$13                     ; 0x13 <__rc3>
    3a78: a2 b0        	ldx	#$b0
    3a7a: 8e 80 d5     	stx	$d580                   ; 0xd580 <__heap_start+0x5674>
    3a7d: 8a           	txa
    3a7e: 9c 81 d5     	stz	$d581                   ; 0xd581 <__heap_start+0x5675>
    3a81: e8           	inx
    3a82: 8e 80 d5     	stx	$d580                   ; 0xd580 <__heap_start+0x5674>
    3a85: 86 16        	stx	$16                     ; 0x16 <__rc6>
    3a87: 9c 81 d5     	stz	$d581                   ; 0xd581 <__heap_start+0x5675>
    3a8a: e8           	inx
    3a8b: 8e 80 d5     	stx	$d580                   ; 0xd580 <__heap_start+0x5674>
    3a8e: 86 17        	stx	$17                     ; 0x17 <__rc7>
    3a90: 9c 81 d5     	stz	$d581                   ; 0xd581 <__heap_start+0x5675>
    3a93: e8           	inx
    3a94: 8e 80 d5     	stx	$d580                   ; 0xd580 <__heap_start+0x5674>
    3a97: 86 18        	stx	$18                     ; 0x18 <__rc8>
    3a99: 9c 81 d5     	stz	$d581                   ; 0xd581 <__heap_start+0x5675>
    3a9c: e8           	inx
    3a9d: 8e 80 d5     	stx	$d580                   ; 0xd580 <__heap_start+0x5674>
    3aa0: 86 19        	stx	$19                     ; 0x19 <__rc9>
    3aa2: 9c 81 d5     	stz	$d581                   ; 0xd581 <__heap_start+0x5675>
    3aa5: e8           	inx
    3aa6: 8e 80 d5     	stx	$d580                   ; 0xd580 <__heap_start+0x5674>
    3aa9: 86 1a        	stx	$1a                     ; 0x1a <__rc10>
    3aab: 9c 81 d5     	stz	$d581                   ; 0xd581 <__heap_start+0x5675>
    3aae: e8           	inx
    3aaf: 8e 80 d5     	stx	$d580                   ; 0xd580 <__heap_start+0x5674>
    3ab2: 86 1b        	stx	$1b                     ; 0x1b <__rc11>
    3ab4: 9c 81 d5     	stz	$d581                   ; 0xd581 <__heap_start+0x5675>
    3ab7: a0 b7        	ldy	#$b7
    3ab9: 8c 80 d5     	sty	$d580                   ; 0xd580 <__heap_start+0x5674>
    3abc: 9c 81 d5     	stz	$d581                   ; 0xd581 <__heap_start+0x5675>
    3abf: a2 b8        	ldx	#$b8
    3ac1: 8e 80 d5     	stx	$d580                   ; 0xd580 <__heap_start+0x5674>
    3ac4: 9c 81 d5     	stz	$d581                   ; 0xd581 <__heap_start+0x5675>
    3ac7: 8d 82 d5     	sta	$d582                   ; 0xd582 <__heap_start+0x5676>
    3aca: 9c 81 d5     	stz	$d581                   ; 0xd581 <__heap_start+0x5675>
    3acd: a5 16        	lda	$16                     ; 0x16 <__rc6>
    3acf: 8d 82 d5     	sta	$d582                   ; 0xd582 <__heap_start+0x5676>
    3ad2: 9c 81 d5     	stz	$d581                   ; 0xd581 <__heap_start+0x5675>
    3ad5: a5 17        	lda	$17                     ; 0x17 <__rc7>
    3ad7: 8d 82 d5     	sta	$d582                   ; 0xd582 <__heap_start+0x5676>
    3ada: 9c 81 d5     	stz	$d581                   ; 0xd581 <__heap_start+0x5675>
    3add: a5 18        	lda	$18                     ; 0x18 <__rc8>
    3adf: 8d 82 d5     	sta	$d582                   ; 0xd582 <__heap_start+0x5676>
    3ae2: 9c 81 d5     	stz	$d581                   ; 0xd581 <__heap_start+0x5675>
    3ae5: a5 19        	lda	$19                     ; 0x19 <__rc9>
    3ae7: 8d 82 d5     	sta	$d582                   ; 0xd582 <__heap_start+0x5676>
    3aea: 9c 81 d5     	stz	$d581                   ; 0xd581 <__heap_start+0x5675>
    3aed: a5 1a        	lda	$1a                     ; 0x1a <__rc10>
    3aef: 8d 82 d5     	sta	$d582                   ; 0xd582 <__heap_start+0x5676>
    3af2: 9c 81 d5     	stz	$d581                   ; 0xd581 <__heap_start+0x5675>
    3af5: a5 1b        	lda	$1b                     ; 0x1b <__rc11>
    3af7: 8d 82 d5     	sta	$d582                   ; 0xd582 <__heap_start+0x5676>
    3afa: 9c 81 d5     	stz	$d581                   ; 0xd581 <__heap_start+0x5675>
    3afd: 8c 82 d5     	sty	$d582                   ; 0xd582 <__heap_start+0x5676>
    3b00: 9c 81 d5     	stz	$d581                   ; 0xd581 <__heap_start+0x5675>
    3b03: 8e 82 d5     	stx	$d582                   ; 0xd582 <__heap_start+0x5676>
    3b06: 9c 81 d5     	stz	$d581                   ; 0xd581 <__heap_start+0x5675>
    3b09: 9c 14 d4     	stz	$d414                   ; 0xd414 <__heap_start+0x5508>
    3b0c: 9c 15 d4     	stz	$d415                   ; 0xd415 <__heap_start+0x5509>
    3b0f: 9c 17 d4     	stz	$d417                   ; 0xd417 <__heap_start+0x550b>
    3b12: a2 0f        	ldx	#$f
    3b14: 8e 18 d4     	stx	$d418                   ; 0xd418 <__heap_start+0x550c>
    3b17: 9c 14 d5     	stz	$d514                   ; 0xd514 <__heap_start+0x5608>
    3b1a: 9c 15 d5     	stz	$d515                   ; 0xd515 <__heap_start+0x5609>
    3b1d: 9c 17 d5     	stz	$d517                   ; 0xd517 <__heap_start+0x560b>
    3b20: 8e 18 d5     	stx	$d518                   ; 0xd518 <__heap_start+0x560c>
    3b23: a0 0f        	ldy	#$f
    3b25: a2 09        	ldx	#$9
    3b27: 8e 94 71     	stx	$7194                   ; 0x7194 <sidInstruments+0x1e>
    3b2a: 8e 9d 71     	stx	$719d                   ; 0x719d <sidInstruments+0x27>
    3b2d: 8c 76 71     	sty	$7176                   ; 0x7176 <sidInstruments>
    3b30: 9c 77 71     	stz	$7177                   ; 0x7177 <sidInstruments+0x1>
    3b33: 8c 78 71     	sty	$7178                   ; 0x7178 <sidInstruments+0x2>
    3b36: a2 38        	ldx	#$38
    3b38: 8e 79 71     	stx	$7179                   ; 0x7179 <sidInstruments+0x3>
    3b3b: 86 16        	stx	$16                     ; 0x16 <__rc6>
    3b3d: a9 21        	lda	#$21
    3b3f: 8d 7a 71     	sta	$717a                   ; 0x717a <sidInstruments+0x4>
    3b42: aa           	tax
    3b43: 86 15        	stx	$15                     ; 0x15 <__rc5>
    3b45: a9 40        	lda	#$40
    3b47: 8d 7b 71     	sta	$717b                   ; 0x717b <sidInstruments+0x5>
    3b4a: 9c 7c 71     	stz	$717c                   ; 0x717c <sidInstruments+0x6>
    3b4d: 9c 7d 71     	stz	$717d                   ; 0x717d <sidInstruments+0x7>
    3b50: 9c 7e 71     	stz	$717e                   ; 0x717e <sidInstruments+0x8>
    3b53: 8c 7f 71     	sty	$717f                   ; 0x717f <sidInstruments+0x9>
    3b56: 9c 80 71     	stz	$7180                   ; 0x7180 <sidInstruments+0xa>
    3b59: 8c 81 71     	sty	$7181                   ; 0x7181 <sidInstruments+0xb>
    3b5c: a6 16        	ldx	$16                     ; 0x16 <__rc6>
    3b5e: 8e 82 71     	stx	$7182                   ; 0x7182 <sidInstruments+0xc>
    3b61: a6 15        	ldx	$15                     ; 0x15 <__rc5>
    3b63: 8e 83 71     	stx	$7183                   ; 0x7183 <sidInstruments+0xd>
    3b66: 8d 84 71     	sta	$7184                   ; 0x7184 <sidInstruments+0xe>
    3b69: 9c 85 71     	stz	$7185                   ; 0x7185 <sidInstruments+0xf>
    3b6c: 9c 86 71     	stz	$7186                   ; 0x7186 <sidInstruments+0x10>
    3b6f: 9c 87 71     	stz	$7187                   ; 0x7187 <sidInstruments+0x11>
    3b72: 8c 88 71     	sty	$7188                   ; 0x7188 <sidInstruments+0x12>
    3b75: 9c 89 71     	stz	$7189                   ; 0x7189 <sidInstruments+0x13>
    3b78: 8c 8a 71     	sty	$718a                   ; 0x718a <sidInstruments+0x14>
    3b7b: a6 16        	ldx	$16                     ; 0x16 <__rc6>
    3b7d: 8e 8b 71     	stx	$718b                   ; 0x718b <sidInstruments+0x15>
    3b80: a6 15        	ldx	$15                     ; 0x15 <__rc5>
    3b82: 8e 8c 71     	stx	$718c                   ; 0x718c <sidInstruments+0x16>
    3b85: 8d 8d 71     	sta	$718d                   ; 0x718d <sidInstruments+0x17>
    3b88: 9c 8e 71     	stz	$718e                   ; 0x718e <sidInstruments+0x18>
    3b8b: 9c 8f 71     	stz	$718f                   ; 0x718f <sidInstruments+0x19>
    3b8e: 9c 90 71     	stz	$7190                   ; 0x7190 <sidInstruments+0x1a>
    3b91: 8c 91 71     	sty	$7191                   ; 0x7191 <sidInstruments+0x1b>
    3b94: a9 88        	lda	#$88
    3b96: 8d 92 71     	sta	$7192                   ; 0x7192 <sidInstruments+0x1c>
    3b99: 9c 93 71     	stz	$7193                   ; 0x7193 <sidInstruments+0x1d>
    3b9c: 9c 95 71     	stz	$7195                   ; 0x7195 <sidInstruments+0x1f>
    3b9f: a2 20        	ldx	#$20
    3ba1: 8e 96 71     	stx	$7196                   ; 0x7196 <sidInstruments+0x20>
    3ba4: 9c 97 71     	stz	$7197                   ; 0x7197 <sidInstruments+0x21>
    3ba7: 9c 98 71     	stz	$7198                   ; 0x7198 <sidInstruments+0x22>
    3baa: 9c 99 71     	stz	$7199                   ; 0x7199 <sidInstruments+0x23>
    3bad: 8c 9a 71     	sty	$719a                   ; 0x719a <sidInstruments+0x24>
    3bb0: 8d 9b 71     	sta	$719b                   ; 0x719b <sidInstruments+0x25>
    3bb3: 85 15        	sta	$15                     ; 0x15 <__rc5>
    3bb5: 9c 9c 71     	stz	$719c                   ; 0x719c <sidInstruments+0x26>
    3bb8: 9c 9e 71     	stz	$719e                   ; 0x719e <sidInstruments+0x28>
    3bbb: 8e 9f 71     	stx	$719f                   ; 0x719f <sidInstruments+0x29>
    3bbe: 86 18        	stx	$18                     ; 0x18 <__rc8>
    3bc0: 9c a0 71     	stz	$71a0                   ; 0x71a0 <sidInstruments+0x2a>
    3bc3: 9c a1 71     	stz	$71a1                   ; 0x71a1 <sidInstruments+0x2b>
    3bc6: 9c a2 71     	stz	$71a2                   ; 0x71a2 <sidInstruments+0x2c>
    3bc9: 8c a3 71     	sty	$71a3                   ; 0x71a3 <sidInstruments+0x2d>
    3bcc: 9c a4 71     	stz	$71a4                   ; 0x71a4 <sidInstruments+0x2e>
    3bcf: 8c a5 71     	sty	$71a5                   ; 0x71a5 <sidInstruments+0x2f>
    3bd2: a6 16        	ldx	$16                     ; 0x16 <__rc6>
    3bd4: 8e a6 71     	stx	$71a6                   ; 0x71a6 <sidInstruments+0x30>
    3bd7: a9 21        	lda	#$21
    3bd9: 8d a7 71     	sta	$71a7                   ; 0x71a7 <sidInstruments+0x31>
    3bdc: 85 17        	sta	$17                     ; 0x17 <__rc7>
    3bde: a9 40        	lda	#$40
    3be0: 8d a8 71     	sta	$71a8                   ; 0x71a8 <sidInstruments+0x32>
    3be3: 9c a9 71     	stz	$71a9                   ; 0x71a9 <sidInstruments+0x33>
    3be6: 9c aa 71     	stz	$71aa                   ; 0x71aa <sidInstruments+0x34>
    3be9: 9c ab 71     	stz	$71ab                   ; 0x71ab <sidInstruments+0x35>
    3bec: 9c 02 d4     	stz	$d402                   ; 0xd402 <__heap_start+0x54f6>
    3bef: 8c 03 d4     	sty	$d403                   ; 0xd403 <__heap_start+0x54f7>
    3bf2: 84 16        	sty	$16                     ; 0x16 <__rc6>
    3bf4: 8e 05 d4     	stx	$d405                   ; 0xd405 <__heap_start+0x54f9>
    3bf7: a6 17        	ldx	$17                     ; 0x17 <__rc7>
    3bf9: 8e 06 d4     	stx	$d406                   ; 0xd406 <__heap_start+0x54fa>
    3bfc: a2 21        	ldx	#$21
    3bfe: 86 17        	stx	$17                     ; 0x17 <__rc7>
    3c00: 8d 04 d4     	sta	$d404                   ; 0xd404 <__heap_start+0x54f8>
    3c03: aa           	tax
    3c04: 86 19        	stx	$19                     ; 0x19 <__rc9>
    3c06: ad 89 71     	lda	$7189                   ; 0x7189 <sidInstruments+0x13>
    3c09: ae 8a 71     	ldx	$718a                   ; 0x718a <sidInstruments+0x14>
    3c0c: 86 1b        	stx	$1b                     ; 0x1b <__rc11>
    3c0e: ac 8b 71     	ldy	$718b                   ; 0x718b <sidInstruments+0x15>
    3c11: ae 8c 71     	ldx	$718c                   ; 0x718c <sidInstruments+0x16>
    3c14: 86 1a        	stx	$1a                     ; 0x1a <__rc10>
    3c16: ae 8d 71     	ldx	$718d                   ; 0x718d <sidInstruments+0x17>
    3c19: 86 1c        	stx	$1c                     ; 0x1c <__rc12>
    3c1b: 8d 09 d4     	sta	$d409                   ; 0xd409 <__heap_start+0x54fd>
    3c1e: a6 1b        	ldx	$1b                     ; 0x1b <__rc11>
    3c20: 8e 0a d4     	stx	$d40a                   ; 0xd40a <__heap_start+0x54fe>
    3c23: 8c 0c d4     	sty	$d40c                   ; 0xd40c <__heap_start+0x5500>
    3c26: a6 1a        	ldx	$1a                     ; 0x1a <__rc10>
    3c28: 8e 0d d4     	stx	$d40d                   ; 0xd40d <__heap_start+0x5501>
    3c2b: a6 1c        	ldx	$1c                     ; 0x1c <__rc12>
    3c2d: 8e 0b d4     	stx	$d40b                   ; 0xd40b <__heap_start+0x54ff>
    3c30: ae 89 71     	ldx	$7189                   ; 0x7189 <sidInstruments+0x13>
    3c33: 86 1b        	stx	$1b                     ; 0x1b <__rc11>
    3c35: ac 8a 71     	ldy	$718a                   ; 0x718a <sidInstruments+0x14>
    3c38: ad 8b 71     	lda	$718b                   ; 0x718b <sidInstruments+0x15>
    3c3b: ae 8c 71     	ldx	$718c                   ; 0x718c <sidInstruments+0x16>
    3c3e: 86 1a        	stx	$1a                     ; 0x1a <__rc10>
    3c40: ae 8d 71     	ldx	$718d                   ; 0x718d <sidInstruments+0x17>
    3c43: 86 1c        	stx	$1c                     ; 0x1c <__rc12>
    3c45: a6 1b        	ldx	$1b                     ; 0x1b <__rc11>
    3c47: 8e 10 d4     	stx	$d410                   ; 0xd410 <__heap_start+0x5504>
    3c4a: 8c 11 d4     	sty	$d411                   ; 0xd411 <__heap_start+0x5505>
    3c4d: 8d 13 d4     	sta	$d413                   ; 0xd413 <__heap_start+0x5507>
    3c50: a6 1a        	ldx	$1a                     ; 0x1a <__rc10>
    3c52: 8e 14 d4     	stx	$d414                   ; 0xd414 <__heap_start+0x5508>
    3c55: a6 1c        	ldx	$1c                     ; 0x1c <__rc12>
    3c57: 8e 12 d4     	stx	$d412                   ; 0xd412 <__heap_start+0x5506>
    3c5a: ae 89 71     	ldx	$7189                   ; 0x7189 <sidInstruments+0x13>
    3c5d: 86 1b        	stx	$1b                     ; 0x1b <__rc11>
    3c5f: ac 8a 71     	ldy	$718a                   ; 0x718a <sidInstruments+0x14>
    3c62: ad 8b 71     	lda	$718b                   ; 0x718b <sidInstruments+0x15>
    3c65: ae 8c 71     	ldx	$718c                   ; 0x718c <sidInstruments+0x16>
    3c68: 86 1a        	stx	$1a                     ; 0x1a <__rc10>
    3c6a: ae 8d 71     	ldx	$718d                   ; 0x718d <sidInstruments+0x17>
    3c6d: 86 1c        	stx	$1c                     ; 0x1c <__rc12>
    3c6f: a6 1b        	ldx	$1b                     ; 0x1b <__rc11>
    3c71: 8e 02 d5     	stx	$d502                   ; 0xd502 <__heap_start+0x55f6>
    3c74: 8c 03 d5     	sty	$d503                   ; 0xd503 <__heap_start+0x55f7>
    3c77: 8d 05 d5     	sta	$d505                   ; 0xd505 <__heap_start+0x55f9>
    3c7a: a6 1a        	ldx	$1a                     ; 0x1a <__rc10>
    3c7c: 8e 06 d5     	stx	$d506                   ; 0xd506 <__heap_start+0x55fa>
    3c7f: a6 1c        	ldx	$1c                     ; 0x1c <__rc12>
    3c81: 8e 04 d5     	stx	$d504                   ; 0xd504 <__heap_start+0x55f8>
    3c84: ae 89 71     	ldx	$7189                   ; 0x7189 <sidInstruments+0x13>
    3c87: 86 1b        	stx	$1b                     ; 0x1b <__rc11>
    3c89: ac 8a 71     	ldy	$718a                   ; 0x718a <sidInstruments+0x14>
    3c8c: ad 8b 71     	lda	$718b                   ; 0x718b <sidInstruments+0x15>
    3c8f: ae 8c 71     	ldx	$718c                   ; 0x718c <sidInstruments+0x16>
    3c92: 86 1a        	stx	$1a                     ; 0x1a <__rc10>
    3c94: ae 8d 71     	ldx	$718d                   ; 0x718d <sidInstruments+0x17>
    3c97: 86 1c        	stx	$1c                     ; 0x1c <__rc12>
    3c99: a6 1b        	ldx	$1b                     ; 0x1b <__rc11>
    3c9b: 8e 09 d5     	stx	$d509                   ; 0xd509 <__heap_start+0x55fd>
    3c9e: 8c 0a d5     	sty	$d50a                   ; 0xd50a <__heap_start+0x55fe>
    3ca1: 8d 0c d5     	sta	$d50c                   ; 0xd50c <__heap_start+0x5600>
    3ca4: a6 1a        	ldx	$1a                     ; 0x1a <__rc10>
    3ca6: 8e 0d d5     	stx	$d50d                   ; 0xd50d <__heap_start+0x5601>
    3ca9: a6 1c        	ldx	$1c                     ; 0x1c <__rc12>
    3cab: 8e 0b d5     	stx	$d50b                   ; 0xd50b <__heap_start+0x55ff>
    3cae: ae 89 71     	ldx	$7189                   ; 0x7189 <sidInstruments+0x13>
    3cb1: 86 1b        	stx	$1b                     ; 0x1b <__rc11>
    3cb3: ac 8a 71     	ldy	$718a                   ; 0x718a <sidInstruments+0x14>
    3cb6: ad 8b 71     	lda	$718b                   ; 0x718b <sidInstruments+0x15>
    3cb9: ae 8c 71     	ldx	$718c                   ; 0x718c <sidInstruments+0x16>
    3cbc: 86 1a        	stx	$1a                     ; 0x1a <__rc10>
    3cbe: ae 8d 71     	ldx	$718d                   ; 0x718d <sidInstruments+0x17>
    3cc1: 86 1c        	stx	$1c                     ; 0x1c <__rc12>
    3cc3: a6 1b        	ldx	$1b                     ; 0x1b <__rc11>
    3cc5: 8e 10 d5     	stx	$d510                   ; 0xd510 <__heap_start+0x5604>
    3cc8: 8c 11 d5     	sty	$d511                   ; 0xd511 <__heap_start+0x5605>
    3ccb: 8d 13 d5     	sta	$d513                   ; 0xd513 <__heap_start+0x5607>
    3cce: a6 1a        	ldx	$1a                     ; 0x1a <__rc10>
    3cd0: 8e 14 d5     	stx	$d514                   ; 0xd514 <__heap_start+0x5608>
    3cd3: a6 1c        	ldx	$1c                     ; 0x1c <__rc12>
    3cd5: 8e 12 d5     	stx	$d512                   ; 0xd512 <__heap_start+0x5606>
    3cd8: a2 e0        	ldx	#$e0
    3cda: 8e 80 d5     	stx	$d580                   ; 0xd580 <__heap_start+0x5674>
    3cdd: 9c 81 d5     	stz	$d581                   ; 0xd581 <__heap_start+0x5675>
    3ce0: a2 e3        	ldx	#$e3
    3ce2: 8e 80 d5     	stx	$d580                   ; 0xd580 <__heap_start+0x5674>
    3ce5: 9c 81 d5     	stz	$d581                   ; 0xd581 <__heap_start+0x5675>
    3ce8: a6 18        	ldx	$18                     ; 0x18 <__rc8>
    3cea: 8e 80 d5     	stx	$d580                   ; 0xd580 <__heap_start+0x5674>
    3ced: a6 12        	ldx	$12                     ; 0x12 <__rc2>
    3cef: 8e 81 d5     	stx	$d581                   ; 0xd581 <__heap_start+0x5675>
    3cf2: 86 18        	stx	$18                     ; 0x18 <__rc8>
    3cf4: a2 23        	ldx	#$23
    3cf6: 8e 80 d5     	stx	$d580                   ; 0xd580 <__heap_start+0x5674>
    3cf9: a6 14        	ldx	$14                     ; 0x14 <__rc4>
    3cfb: 8e 81 d5     	stx	$d581                   ; 0xd581 <__heap_start+0x5675>
    3cfe: a6 19        	ldx	$19                     ; 0x19 <__rc9>
    3d00: 8e 80 d5     	stx	$d580                   ; 0xd580 <__heap_start+0x5674>
    3d03: a2 10        	ldx	#$10
    3d05: 8e 81 d5     	stx	$d581                   ; 0xd581 <__heap_start+0x5675>
    3d08: 86 19        	stx	$19                     ; 0x19 <__rc9>
    3d0a: a2 43        	ldx	#$43
    3d0c: 8e 80 d5     	stx	$d580                   ; 0xd580 <__heap_start+0x5674>
    3d0f: ca           	dex
    3d10: 8e 81 d5     	stx	$d581                   ; 0xd581 <__heap_start+0x5675>
    3d13: 86 12        	stx	$12                     ; 0x12 <__rc2>
    3d15: a2 60        	ldx	#$60
    3d17: 8e 80 d5     	stx	$d580                   ; 0xd580 <__heap_start+0x5674>
    3d1a: a2 f1        	ldx	#$f1
    3d1c: 8e 81 d5     	stx	$d581                   ; 0xd581 <__heap_start+0x5675>
    3d1f: 8a           	txa
    3d20: a2 63        	ldx	#$63
    3d22: 8e 80 d5     	stx	$d580                   ; 0xd580 <__heap_start+0x5674>
    3d25: 8d 81 d5     	sta	$d581                   ; 0xd581 <__heap_start+0x5675>
    3d28: a6 26        	ldx	$26                     ; 0x26 <__rc22>
    3d2a: 8e 80 d5     	stx	$d580                   ; 0xd580 <__heap_start+0x5674>
    3d2d: a2 53        	ldx	#$53
    3d2f: 8e 81 d5     	stx	$d581                   ; 0xd581 <__heap_start+0x5675>
    3d32: a0 53        	ldy	#$53
    3d34: a2 83        	ldx	#$83
    3d36: 8e 80 d5     	stx	$d580                   ; 0xd580 <__heap_start+0x5674>
    3d39: 8c 81 d5     	sty	$d581                   ; 0xd581 <__heap_start+0x5675>
    3d3c: a2 e9        	ldx	#$e9
    3d3e: 8e 80 d5     	stx	$d580                   ; 0xd580 <__heap_start+0x5674>
    3d41: 9c 81 d5     	stz	$d581                   ; 0xd581 <__heap_start+0x5675>
    3d44: a2 ec        	ldx	#$ec
    3d46: 8e 80 d5     	stx	$d580                   ; 0xd580 <__heap_start+0x5674>
    3d49: 9c 81 d5     	stz	$d581                   ; 0xd581 <__heap_start+0x5675>
    3d4c: a2 29        	ldx	#$29
    3d4e: 8e 80 d5     	stx	$d580                   ; 0xd580 <__heap_start+0x5674>
    3d51: a6 18        	ldx	$18                     ; 0x18 <__rc8>
    3d53: 8e 81 d5     	stx	$d581                   ; 0xd581 <__heap_start+0x5675>
    3d56: 86 1a        	stx	$1a                     ; 0x1a <__rc10>
    3d58: a2 2c        	ldx	#$2c
    3d5a: 8e 80 d5     	stx	$d580                   ; 0xd580 <__heap_start+0x5674>
    3d5d: a6 14        	ldx	$14                     ; 0x14 <__rc4>
    3d5f: 8e 81 d5     	stx	$d581                   ; 0xd581 <__heap_start+0x5675>
    3d62: a2 49        	ldx	#$49
    3d64: 8e 80 d5     	stx	$d580                   ; 0xd580 <__heap_start+0x5674>
    3d67: a6 19        	ldx	$19                     ; 0x19 <__rc9>
    3d69: 8e 81 d5     	stx	$d581                   ; 0xd581 <__heap_start+0x5675>
    3d6c: a2 4c        	ldx	#$4c
    3d6e: 8e 80 d5     	stx	$d580                   ; 0xd580 <__heap_start+0x5674>
    3d71: a6 12        	ldx	$12                     ; 0x12 <__rc2>
    3d73: 8e 81 d5     	stx	$d581                   ; 0xd581 <__heap_start+0x5675>
    3d76: a6 12        	ldx	$12                     ; 0x12 <__rc2>
    3d78: 86 18        	stx	$18                     ; 0x18 <__rc8>
    3d7a: a2 69        	ldx	#$69
    3d7c: 8e 80 d5     	stx	$d580                   ; 0xd580 <__heap_start+0x5674>
    3d7f: 8d 81 d5     	sta	$d581                   ; 0xd581 <__heap_start+0x5675>
    3d82: a2 6c        	ldx	#$6c
    3d84: 8e 80 d5     	stx	$d580                   ; 0xd580 <__heap_start+0x5674>
    3d87: 8d 81 d5     	sta	$d581                   ; 0xd581 <__heap_start+0x5675>
    3d8a: 85 12        	sta	$12                     ; 0x12 <__rc2>
    3d8c: a2 89        	ldx	#$89
    3d8e: 8e 80 d5     	stx	$d580                   ; 0xd580 <__heap_start+0x5674>
    3d91: 8c 81 d5     	sty	$d581                   ; 0xd581 <__heap_start+0x5675>
    3d94: a2 8c        	ldx	#$8c
    3d96: 8e 80 d5     	stx	$d580                   ; 0xd580 <__heap_start+0x5674>
    3d99: 8c 81 d5     	sty	$d581                   ; 0xd581 <__heap_start+0x5675>
    3d9c: 84 14        	sty	$14                     ; 0x14 <__rc4>
    3d9e: a2 e1        	ldx	#$e1
    3da0: 8e 80 d5     	stx	$d580                   ; 0xd580 <__heap_start+0x5674>
    3da3: 9c 81 d5     	stz	$d581                   ; 0xd581 <__heap_start+0x5675>
    3da6: a2 e4        	ldx	#$e4
    3da8: 8e 80 d5     	stx	$d580                   ; 0xd580 <__heap_start+0x5674>
    3dab: a5 1a        	lda	$1a                     ; 0x1a <__rc10>
    3dad: 8d 81 d5     	sta	$d581                   ; 0xd581 <__heap_start+0x5675>
    3db0: a6 17        	ldx	$17                     ; 0x17 <__rc7>
    3db2: 8e 80 d5     	stx	$d580                   ; 0xd580 <__heap_start+0x5674>
    3db5: a2 02        	ldx	#$2
    3db7: 8e 81 d5     	stx	$d581                   ; 0xd581 <__heap_start+0x5675>
    3dba: 86 1a        	stx	$1a                     ; 0x1a <__rc10>
    3dbc: a2 24        	ldx	#$24
    3dbe: 8e 80 d5     	stx	$d580                   ; 0xd580 <__heap_start+0x5674>
    3dc1: 9c 81 d5     	stz	$d581                   ; 0xd581 <__heap_start+0x5675>
    3dc4: a2 41        	ldx	#$41
    3dc6: 8e 80 d5     	stx	$d580                   ; 0xd580 <__heap_start+0x5674>
    3dc9: a2 46        	ldx	#$46
    3dcb: 8e 81 d5     	stx	$d581                   ; 0xd581 <__heap_start+0x5675>
    3dce: 86 1b        	stx	$1b                     ; 0x1b <__rc11>
    3dd0: a2 44        	ldx	#$44
    3dd2: 8e 80 d5     	stx	$d580                   ; 0xd580 <__heap_start+0x5674>
    3dd5: a6 16        	ldx	$16                     ; 0x16 <__rc6>
    3dd7: 8e 81 d5     	stx	$d581                   ; 0xd581 <__heap_start+0x5675>
    3dda: a2 61        	ldx	#$61
    3ddc: 8e 80 d5     	stx	$d580                   ; 0xd580 <__heap_start+0x5674>
    3ddf: a0 f4        	ldy	#$f4
    3de1: 8c 81 d5     	sty	$d581                   ; 0xd581 <__heap_start+0x5675>
    3de4: a2 64        	ldx	#$64
    3de6: 8e 80 d5     	stx	$d580                   ; 0xd580 <__heap_start+0x5674>
    3de9: a2 f2        	ldx	#$f2
    3deb: 8e 81 d5     	stx	$d581                   ; 0xd581 <__heap_start+0x5675>
    3dee: 86 19        	stx	$19                     ; 0x19 <__rc9>
    3df0: a2 81        	ldx	#$81
    3df2: 8e 80 d5     	stx	$d580                   ; 0xd580 <__heap_start+0x5674>
    3df5: 8c 81 d5     	sty	$d581                   ; 0xd581 <__heap_start+0x5675>
    3df8: a2 f4        	ldx	#$f4
    3dfa: 86 1c        	stx	$1c                     ; 0x1c <__rc12>
    3dfc: a2 84        	ldx	#$84
    3dfe: 8e 80 d5     	stx	$d580                   ; 0xd580 <__heap_start+0x5674>
    3e01: a2 f8        	ldx	#$f8
    3e03: 8e 81 d5     	stx	$d581                   ; 0xd581 <__heap_start+0x5675>
    3e06: a0 e8        	ldy	#$e8
    3e08: 8c 80 d5     	sty	$d580                   ; 0xd580 <__heap_start+0x5674>
    3e0b: 9c 81 d5     	stz	$d581                   ; 0xd581 <__heap_start+0x5675>
    3e0e: a0 eb        	ldy	#$eb
    3e10: 8c 80 d5     	sty	$d580                   ; 0xd580 <__heap_start+0x5674>
    3e13: 8d 81 d5     	sta	$d581                   ; 0xd581 <__heap_start+0x5675>
    3e16: 85 17        	sta	$17                     ; 0x17 <__rc7>
    3e18: a0 28        	ldy	#$28
    3e1a: 8c 80 d5     	sty	$d580                   ; 0xd580 <__heap_start+0x5674>
    3e1d: a4 1a        	ldy	$1a                     ; 0x1a <__rc10>
    3e1f: 8c 81 d5     	sty	$d581                   ; 0xd581 <__heap_start+0x5675>
    3e22: a0 2b        	ldy	#$2b
    3e24: 8c 80 d5     	sty	$d580                   ; 0xd580 <__heap_start+0x5674>
    3e27: 9c 81 d5     	stz	$d581                   ; 0xd581 <__heap_start+0x5675>
    3e2a: a0 48        	ldy	#$48
    3e2c: 8c 80 d5     	sty	$d580                   ; 0xd580 <__heap_start+0x5674>
    3e2f: a4 1b        	ldy	$1b                     ; 0x1b <__rc11>
    3e31: 8c 81 d5     	sty	$d581                   ; 0xd581 <__heap_start+0x5675>
    3e34: a0 4b        	ldy	#$4b
    3e36: 8c 80 d5     	sty	$d580                   ; 0xd580 <__heap_start+0x5674>
    3e39: a4 16        	ldy	$16                     ; 0x16 <__rc6>
    3e3b: 8c 81 d5     	sty	$d581                   ; 0xd581 <__heap_start+0x5675>
    3e3e: a0 68        	ldy	#$68
    3e40: 8c 80 d5     	sty	$d580                   ; 0xd580 <__heap_start+0x5674>
    3e43: a5 1c        	lda	$1c                     ; 0x1c <__rc12>
    3e45: 8d 81 d5     	sta	$d581                   ; 0xd581 <__heap_start+0x5675>
    3e48: a0 6b        	ldy	#$6b
    3e4a: 8c 80 d5     	sty	$d580                   ; 0xd580 <__heap_start+0x5674>
    3e4d: a4 19        	ldy	$19                     ; 0x19 <__rc9>
    3e4f: 8c 81 d5     	sty	$d581                   ; 0xd581 <__heap_start+0x5675>
    3e52: a4 15        	ldy	$15                     ; 0x15 <__rc5>
    3e54: 8c 80 d5     	sty	$d580                   ; 0xd580 <__heap_start+0x5674>
    3e57: 8d 81 d5     	sta	$d581                   ; 0xd581 <__heap_start+0x5675>
    3e5a: 85 15        	sta	$15                     ; 0x15 <__rc5>
    3e5c: a0 8b        	ldy	#$8b
    3e5e: 8c 80 d5     	sty	$d580                   ; 0xd580 <__heap_start+0x5674>
    3e61: 8e 81 d5     	stx	$d581                   ; 0xd581 <__heap_start+0x5675>
    3e64: a2 e2        	ldx	#$e2
    3e66: 8e 80 d5     	stx	$d580                   ; 0xd580 <__heap_start+0x5674>
    3e69: 9c 81 d5     	stz	$d581                   ; 0xd581 <__heap_start+0x5675>
    3e6c: a2 e5        	ldx	#$e5
    3e6e: 8e 80 d5     	stx	$d580                   ; 0xd580 <__heap_start+0x5674>
    3e71: 9c 81 d5     	stz	$d581                   ; 0xd581 <__heap_start+0x5675>
    3e74: a2 22        	ldx	#$22
    3e76: 8e 80 d5     	stx	$d580                   ; 0xd580 <__heap_start+0x5674>
    3e79: a6 17        	ldx	$17                     ; 0x17 <__rc7>
    3e7b: 8e 81 d5     	stx	$d581                   ; 0xd581 <__heap_start+0x5675>
    3e7e: 86 16        	stx	$16                     ; 0x16 <__rc6>
    3e80: a2 25        	ldx	#$25
    3e82: 8e 80 d5     	stx	$d580                   ; 0xd580 <__heap_start+0x5674>
    3e85: a4 24        	ldy	$24                     ; 0x24 <__rc20>
    3e87: 8c 81 d5     	sty	$d581                   ; 0xd581 <__heap_start+0x5675>
    3e8a: a6 18        	ldx	$18                     ; 0x18 <__rc8>
    3e8c: 8e 80 d5     	stx	$d580                   ; 0xd580 <__heap_start+0x5674>
    3e8f: a2 1f        	ldx	#$1f
    3e91: 8e 81 d5     	stx	$d581                   ; 0xd581 <__heap_start+0x5675>
    3e94: 86 18        	stx	$18                     ; 0x18 <__rc8>
    3e96: a2 45        	ldx	#$45
    3e98: 8e 80 d5     	stx	$d580                   ; 0xd580 <__heap_start+0x5674>
    3e9b: 9c 81 d5     	stz	$d581                   ; 0xd581 <__heap_start+0x5675>
    3e9e: a2 62        	ldx	#$62
    3ea0: 8e 80 d5     	stx	$d580                   ; 0xd580 <__heap_start+0x5674>
    3ea3: a6 12        	ldx	$12                     ; 0x12 <__rc2>
    3ea5: 8e 81 d5     	stx	$d581                   ; 0xd581 <__heap_start+0x5675>
    3ea8: a2 65        	ldx	#$65
    3eaa: 8e 80 d5     	stx	$d580                   ; 0xd580 <__heap_start+0x5674>
    3ead: a6 19        	ldx	$19                     ; 0x19 <__rc9>
    3eaf: 8e 81 d5     	stx	$d581                   ; 0xd581 <__heap_start+0x5675>
    3eb2: a2 82        	ldx	#$82
    3eb4: 8e 80 d5     	stx	$d580                   ; 0xd580 <__heap_start+0x5674>
    3eb7: a6 14        	ldx	$14                     ; 0x14 <__rc4>
    3eb9: 8e 81 d5     	stx	$d581                   ; 0xd581 <__heap_start+0x5675>
    3ebc: a2 85        	ldx	#$85
    3ebe: 8e 80 d5     	stx	$d580                   ; 0xd580 <__heap_start+0x5674>
    3ec1: a2 74        	ldx	#$74
    3ec3: 8e 81 d5     	stx	$d581                   ; 0xd581 <__heap_start+0x5675>
    3ec6: 86 1a        	stx	$1a                     ; 0x1a <__rc10>
    3ec8: a9 ea        	lda	#$ea
    3eca: 8d 80 d5     	sta	$d580                   ; 0xd580 <__heap_start+0x5674>
    3ecd: 9c 81 d5     	stz	$d581                   ; 0xd581 <__heap_start+0x5675>
    3ed0: a9 ed        	lda	#$ed
    3ed2: 8d 80 d5     	sta	$d580                   ; 0xd580 <__heap_start+0x5674>
    3ed5: 9c 81 d5     	stz	$d581                   ; 0xd581 <__heap_start+0x5675>
    3ed8: a9 2a        	lda	#$2a
    3eda: 8d 80 d5     	sta	$d580                   ; 0xd580 <__heap_start+0x5674>
    3edd: a6 16        	ldx	$16                     ; 0x16 <__rc6>
    3edf: 8e 81 d5     	stx	$d581                   ; 0xd581 <__heap_start+0x5675>
    3ee2: 86 17        	stx	$17                     ; 0x17 <__rc7>
    3ee4: a9 2d        	lda	#$2d
    3ee6: 8d 80 d5     	sta	$d580                   ; 0xd580 <__heap_start+0x5674>
    3ee9: 8c 81 d5     	sty	$d581                   ; 0xd581 <__heap_start+0x5675>
    3eec: 84 16        	sty	$16                     ; 0x16 <__rc6>
    3eee: a9 4a        	lda	#$4a
    3ef0: 8d 80 d5     	sta	$d580                   ; 0xd580 <__heap_start+0x5674>
    3ef3: a6 18        	ldx	$18                     ; 0x18 <__rc8>
    3ef5: 8e 81 d5     	stx	$d581                   ; 0xd581 <__heap_start+0x5675>
    3ef8: a9 4d        	lda	#$4d
    3efa: 8d 80 d5     	sta	$d580                   ; 0xd580 <__heap_start+0x5674>
    3efd: 9c 81 d5     	stz	$d581                   ; 0xd581 <__heap_start+0x5675>
    3f00: a9 6a        	lda	#$6a
    3f02: 8d 80 d5     	sta	$d580                   ; 0xd580 <__heap_start+0x5674>
    3f05: a6 12        	ldx	$12                     ; 0x12 <__rc2>
    3f07: 8e 81 d5     	stx	$d581                   ; 0xd581 <__heap_start+0x5675>
    3f0a: a9 6d        	lda	#$6d
    3f0c: 8d 80 d5     	sta	$d580                   ; 0xd580 <__heap_start+0x5674>
    3f0f: a6 19        	ldx	$19                     ; 0x19 <__rc9>
    3f11: 8e 81 d5     	stx	$d581                   ; 0xd581 <__heap_start+0x5675>
    3f14: a9 8a        	lda	#$8a
    3f16: 8d 80 d5     	sta	$d580                   ; 0xd580 <__heap_start+0x5674>
    3f19: a6 14        	ldx	$14                     ; 0x14 <__rc4>
    3f1b: 8e 81 d5     	stx	$d581                   ; 0xd581 <__heap_start+0x5675>
    3f1e: a9 8d        	lda	#$8d
    3f20: 8d 80 d5     	sta	$d580                   ; 0xd580 <__heap_start+0x5674>
    3f23: a4 1a        	ldy	$1a                     ; 0x1a <__rc10>
    3f25: 8c 81 d5     	sty	$d581                   ; 0xd581 <__heap_start+0x5675>
    3f28: a4 25        	ldy	$25                     ; 0x25 <__rc21>
    3f2a: 8c 80 d5     	sty	$d580                   ; 0xd580 <__heap_start+0x5674>
    3f2d: 9c 81 d5     	stz	$d581                   ; 0xd581 <__heap_start+0x5675>
    3f30: a9 f3        	lda	#$f3
    3f32: 8d 80 d5     	sta	$d580                   ; 0xd580 <__heap_start+0x5674>
    3f35: 9c 81 d5     	stz	$d581                   ; 0xd581 <__heap_start+0x5675>
    3f38: a4 13        	ldy	$13                     ; 0x13 <__rc3>
    3f3a: 8c 80 d5     	sty	$d580                   ; 0xd580 <__heap_start+0x5674>
    3f3d: a4 17        	ldy	$17                     ; 0x17 <__rc7>
    3f3f: 84 13        	sty	$13                     ; 0x13 <__rc3>
    3f41: a4 17        	ldy	$17                     ; 0x17 <__rc7>
    3f43: 8c 81 d5     	sty	$d581                   ; 0xd581 <__heap_start+0x5675>
    3f46: a9 33        	lda	#$33
    3f48: 8d 80 d5     	sta	$d580                   ; 0xd580 <__heap_start+0x5674>
    3f4b: a4 16        	ldy	$16                     ; 0x16 <__rc6>
    3f4d: 8c 81 d5     	sty	$d581                   ; 0xd581 <__heap_start+0x5675>
    3f50: a9 50        	lda	#$50
    3f52: 8d 80 d5     	sta	$d580                   ; 0xd580 <__heap_start+0x5674>
    3f55: a4 18        	ldy	$18                     ; 0x18 <__rc8>
    3f57: 8c 81 d5     	sty	$d581                   ; 0xd581 <__heap_start+0x5675>
    3f5a: 8e 80 d5     	stx	$d580                   ; 0xd580 <__heap_start+0x5674>
    3f5d: 9c 81 d5     	stz	$d581                   ; 0xd581 <__heap_start+0x5675>
    3f60: a9 70        	lda	#$70
    3f62: 8d 80 d5     	sta	$d580                   ; 0xd580 <__heap_start+0x5674>
    3f65: a4 12        	ldy	$12                     ; 0x12 <__rc2>
    3f67: 8c 81 d5     	sty	$d581                   ; 0xd581 <__heap_start+0x5675>
    3f6a: a9 73        	lda	#$73
    3f6c: 8d 80 d5     	sta	$d580                   ; 0xd580 <__heap_start+0x5674>
    3f6f: a5 19        	lda	$19                     ; 0x19 <__rc9>
    3f71: 8d 81 d5     	sta	$d581                   ; 0xd581 <__heap_start+0x5675>
    3f74: a9 90        	lda	#$90
    3f76: 8d 80 d5     	sta	$d580                   ; 0xd580 <__heap_start+0x5674>
    3f79: 8e 81 d5     	stx	$d581                   ; 0xd581 <__heap_start+0x5675>
    3f7c: a9 93        	lda	#$93
    3f7e: 8d 80 d5     	sta	$d580                   ; 0xd580 <__heap_start+0x5674>
    3f81: a5 1a        	lda	$1a                     ; 0x1a <__rc10>
    3f83: 8d 81 d5     	sta	$d581                   ; 0xd581 <__heap_start+0x5675>
    3f86: 85 12        	sta	$12                     ; 0x12 <__rc2>
    3f88: 8c 80 d5     	sty	$d580                   ; 0xd580 <__heap_start+0x5674>
    3f8b: 84 17        	sty	$17                     ; 0x17 <__rc7>
    3f8d: 9c 81 d5     	stz	$d581                   ; 0xd581 <__heap_start+0x5675>
    3f90: a4 15        	ldy	$15                     ; 0x15 <__rc5>
    3f92: 8c 80 d5     	sty	$d580                   ; 0xd580 <__heap_start+0x5674>
    3f95: 9c 81 d5     	stz	$d581                   ; 0xd581 <__heap_start+0x5675>
    3f98: a9 31        	lda	#$31
    3f9a: 8d 80 d5     	sta	$d580                   ; 0xd580 <__heap_start+0x5674>
    3f9d: a4 13        	ldy	$13                     ; 0x13 <__rc3>
    3f9f: 8c 81 d5     	sty	$d581                   ; 0xd581 <__heap_start+0x5675>
    3fa2: a9 34        	lda	#$34
    3fa4: 8d 80 d5     	sta	$d580                   ; 0xd580 <__heap_start+0x5674>
    3fa7: a4 16        	ldy	$16                     ; 0x16 <__rc6>
    3fa9: 8c 81 d5     	sty	$d581                   ; 0xd581 <__heap_start+0x5675>
    3fac: a9 51        	lda	#$51
    3fae: 8d 80 d5     	sta	$d580                   ; 0xd580 <__heap_start+0x5674>
    3fb1: a4 18        	ldy	$18                     ; 0x18 <__rc8>
    3fb3: 8c 81 d5     	sty	$d581                   ; 0xd581 <__heap_start+0x5675>
    3fb6: a0 54        	ldy	#$54
    3fb8: 8c 80 d5     	sty	$d580                   ; 0xd580 <__heap_start+0x5674>
    3fbb: 9c 81 d5     	stz	$d581                   ; 0xd581 <__heap_start+0x5675>
    3fbe: a0 71        	ldy	#$71
    3fc0: 8c 80 d5     	sty	$d580                   ; 0xd580 <__heap_start+0x5674>
    3fc3: a4 17        	ldy	$17                     ; 0x17 <__rc7>
    3fc5: 8c 81 d5     	sty	$d581                   ; 0xd581 <__heap_start+0x5675>
    3fc8: a5 12        	lda	$12                     ; 0x12 <__rc2>
    3fca: 8d 80 d5     	sta	$d580                   ; 0xd580 <__heap_start+0x5674>
    3fcd: a4 19        	ldy	$19                     ; 0x19 <__rc9>
    3fcf: 8c 81 d5     	sty	$d581                   ; 0xd581 <__heap_start+0x5675>
    3fd2: a0 91        	ldy	#$91
    3fd4: 8c 80 d5     	sty	$d580                   ; 0xd580 <__heap_start+0x5674>
    3fd7: 8e 81 d5     	stx	$d581                   ; 0xd581 <__heap_start+0x5675>
    3fda: a0 94        	ldy	#$94
    3fdc: 8c 80 d5     	sty	$d580                   ; 0xd580 <__heap_start+0x5674>
    3fdf: 64 14        	stz	$14                     ; 0x14 <__rc4>
    3fe1: 8d 81 d5     	sta	$d581                   ; 0xd581 <__heap_start+0x5675>
    3fe4: a2 47        	ldx	#$47
    3fe6: 86 12        	stx	$12                     ; 0x12 <__rc2>
    3fe8: a2 70        	ldx	#$70
    3fea: 86 13        	stx	$13                     ; 0x13 <__rc3>
    3fec: 80 0a        	bra	$3ff8 <main+0xc90>
    3fee: a2 02        	ldx	#$2
    3ff0: e6 12        	inc	$12                     ; 0x12 <__rc2>
    3ff2: d0 02        	bne	$3ff6 <main+0xc8e>
    3ff4: e6 13        	inc	$13                     ; 0x13 <__rc3>
    3ff6: 86 14        	stx	$14                     ; 0x14 <__rc4>
    3ff8: b2 12        	lda	($12)                   ; 0x12 <__rc2>
    3ffa: c9 61        	cmp	#$61
    3ffc: f0 f0        	beq	$3fee <main+0xc86>
    3ffe: a2 01        	ldx	#$1
    4000: c9 77        	cmp	#$77
    4002: f0 05        	beq	$4009 <main+0xca1>
    4004: aa           	tax
    4005: f0 08        	beq	$400f <main+0xca7>
    4007: a6 14        	ldx	$14                     ; 0x14 <__rc4>
    4009: e6 12        	inc	$12                     ; 0x12 <__rc2>
    400b: d0 e9        	bne	$3ff6 <main+0xc8e>
    400d: 80 e5        	bra	$3ff4 <main+0xc8c>
    400f: a2 cf        	ldx	#$cf
    4011: a5 14        	lda	$14                     ; 0x14 <__rc4>
    4013: a0 6f        	ldy	#$6f
    4015: 86 fb        	stx	$fb                     ; 0xfb <__zp_bss_size+0xb7>
    4017: 84 fc        	sty	$fc                     ; 0xfc <__zp_bss_size+0xb8>
    4019: a2 0b        	ldx	#$b
    401b: 86 fd        	stx	$fd                     ; 0xfd <__zp_bss_size+0xb9>
    401d: 64 f3        	stz	$f3                     ; 0xf3 <__zp_bss_size+0xaf>
    401f: 85 f5        	sta	$f5                     ; 0xf5 <__zp_bss_size+0xb1>
    4021: a2 7a        	ldx	#$7a
    4023: 86 26        	stx	$26                     ; 0x26 <__rc22>
    4025: a2 00        	ldx	#$0
    4027: 86 27        	stx	$27                     ; 0x27 <__rc23>
    4029: 20 5c ff     	jsr	$ff5c <__heap_start+0x8050>
    402c: 92 2a        	sta	($2a)                   ; 0x2a <__rc26>
    402e: a9 00        	lda	#$0
    4030: 6a           	ror
    4031: 85 26        	sta	$26                     ; 0x26 <__rc22>
    4033: a6 7a        	ldx	$7a                     ; 0x7a <kernelError>
    4035: a0 00        	ldy	#$0
    4037: 84 24        	sty	$24                     ; 0x24 <__rc20>
    4039: a0 00        	ldy	#$0
    403b: 84 25        	sty	$25                     ; 0x25 <__rc21>
    403d: 8a           	txa
    403e: d0 03        	bne	$4043 <main+0xcdb>
    4040: 4c 18 45     	jmp	$4518 <main+0x11b0>
    4043: a6 24        	ldx	$24                     ; 0x24 <__rc20>
    4045: 86 12        	stx	$12                     ; 0x12 <__rc2>
    4047: a6 25        	ldx	$25                     ; 0x25 <__rc21>
    4049: 86 13        	stx	$13                     ; 0x13 <__rc3>
    404b: 20 2e 14     	jsr	$142e <readLine>
    404e: a6 24        	ldx	$24                     ; 0x24 <__rc20>
    4050: 86 12        	stx	$12                     ; 0x12 <__rc2>
    4052: a6 25        	ldx	$25                     ; 0x25 <__rc21>
    4054: 86 13        	stx	$13                     ; 0x13 <__rc3>
    4056: 20 2e 14     	jsr	$142e <readLine>
    4059: a6 24        	ldx	$24                     ; 0x24 <__rc20>
    405b: 86 12        	stx	$12                     ; 0x12 <__rc2>
    405d: a6 25        	ldx	$25                     ; 0x25 <__rc21>
    405f: 86 13        	stx	$13                     ; 0x13 <__rc3>
    4061: 20 2e 14     	jsr	$142e <readLine>
    4064: a6 24        	ldx	$24                     ; 0x24 <__rc20>
    4066: 86 12        	stx	$12                     ; 0x12 <__rc2>
    4068: a6 25        	ldx	$25                     ; 0x25 <__rc21>
    406a: 86 13        	stx	$13                     ; 0x13 <__rc3>
    406c: 20 2e 14     	jsr	$142e <readLine>
    406f: a6 24        	ldx	$24                     ; 0x24 <__rc20>
    4071: 86 12        	stx	$12                     ; 0x12 <__rc2>
    4073: a6 25        	ldx	$25                     ; 0x25 <__rc21>
    4075: 86 13        	stx	$13                     ; 0x13 <__rc3>
    4077: 20 2e 14     	jsr	$142e <readLine>
    407a: a6 24        	ldx	$24                     ; 0x24 <__rc20>
    407c: 86 12        	stx	$12                     ; 0x12 <__rc2>
    407e: a6 25        	ldx	$25                     ; 0x25 <__rc21>
    4080: 86 13        	stx	$13                     ; 0x13 <__rc3>
    4082: 20 2e 14     	jsr	$142e <readLine>
    4085: a6 24        	ldx	$24                     ; 0x24 <__rc20>
    4087: 86 12        	stx	$12                     ; 0x12 <__rc2>
    4089: a6 25        	ldx	$25                     ; 0x25 <__rc21>
    408b: 86 13        	stx	$13                     ; 0x13 <__rc3>
    408d: 20 2e 14     	jsr	$142e <readLine>
    4090: a6 24        	ldx	$24                     ; 0x24 <__rc20>
    4092: 86 12        	stx	$12                     ; 0x12 <__rc2>
    4094: a6 25        	ldx	$25                     ; 0x25 <__rc21>
    4096: 86 13        	stx	$13                     ; 0x13 <__rc3>
    4098: 20 2e 14     	jsr	$142e <readLine>
    409b: a6 24        	ldx	$24                     ; 0x24 <__rc20>
    409d: 86 12        	stx	$12                     ; 0x12 <__rc2>
    409f: a6 25        	ldx	$25                     ; 0x25 <__rc21>
    40a1: 86 13        	stx	$13                     ; 0x13 <__rc3>
    40a3: 20 2e 14     	jsr	$142e <readLine>
    40a6: a6 24        	ldx	$24                     ; 0x24 <__rc20>
    40a8: 86 12        	stx	$12                     ; 0x12 <__rc2>
    40aa: a6 25        	ldx	$25                     ; 0x25 <__rc21>
    40ac: 86 13        	stx	$13                     ; 0x13 <__rc3>
    40ae: 20 2e 14     	jsr	$142e <readLine>
    40b1: a6 24        	ldx	$24                     ; 0x24 <__rc20>
    40b3: 86 12        	stx	$12                     ; 0x12 <__rc2>
    40b5: a6 25        	ldx	$25                     ; 0x25 <__rc21>
    40b7: 86 13        	stx	$13                     ; 0x13 <__rc3>
    40b9: 20 2e 14     	jsr	$142e <readLine>
    40bc: a6 24        	ldx	$24                     ; 0x24 <__rc20>
    40be: 86 12        	stx	$12                     ; 0x12 <__rc2>
    40c0: a6 25        	ldx	$25                     ; 0x25 <__rc21>
    40c2: 86 13        	stx	$13                     ; 0x13 <__rc3>
    40c4: 20 2e 14     	jsr	$142e <readLine>
    40c7: a6 24        	ldx	$24                     ; 0x24 <__rc20>
    40c9: 86 12        	stx	$12                     ; 0x12 <__rc2>
    40cb: a6 25        	ldx	$25                     ; 0x25 <__rc21>
    40cd: 86 13        	stx	$13                     ; 0x13 <__rc3>
    40cf: 20 2e 14     	jsr	$142e <readLine>
    40d2: a6 24        	ldx	$24                     ; 0x24 <__rc20>
    40d4: 86 12        	stx	$12                     ; 0x12 <__rc2>
    40d6: a6 25        	ldx	$25                     ; 0x25 <__rc21>
    40d8: 86 13        	stx	$13                     ; 0x13 <__rc3>
    40da: 20 2e 14     	jsr	$142e <readLine>
    40dd: a6 24        	ldx	$24                     ; 0x24 <__rc20>
    40df: 86 12        	stx	$12                     ; 0x12 <__rc2>
    40e1: a6 25        	ldx	$25                     ; 0x25 <__rc21>
    40e3: 86 13        	stx	$13                     ; 0x13 <__rc3>
    40e5: 20 2e 14     	jsr	$142e <readLine>
    40e8: a6 24        	ldx	$24                     ; 0x24 <__rc20>
    40ea: 86 12        	stx	$12                     ; 0x12 <__rc2>
    40ec: a6 25        	ldx	$25                     ; 0x25 <__rc21>
    40ee: 86 13        	stx	$13                     ; 0x13 <__rc3>
    40f0: 20 2e 14     	jsr	$142e <readLine>
    40f3: a6 24        	ldx	$24                     ; 0x24 <__rc20>
    40f5: 86 12        	stx	$12                     ; 0x12 <__rc2>
    40f7: a6 25        	ldx	$25                     ; 0x25 <__rc21>
    40f9: 86 13        	stx	$13                     ; 0x13 <__rc3>
    40fb: 20 2e 14     	jsr	$142e <readLine>
    40fe: a6 24        	ldx	$24                     ; 0x24 <__rc20>
    4100: 86 12        	stx	$12                     ; 0x12 <__rc2>
    4102: a6 25        	ldx	$25                     ; 0x25 <__rc21>
    4104: 86 13        	stx	$13                     ; 0x13 <__rc3>
    4106: 20 2e 14     	jsr	$142e <readLine>
    4109: a6 24        	ldx	$24                     ; 0x24 <__rc20>
    410b: 86 12        	stx	$12                     ; 0x12 <__rc2>
    410d: a6 25        	ldx	$25                     ; 0x25 <__rc21>
    410f: 86 13        	stx	$13                     ; 0x13 <__rc3>
    4111: 20 2e 14     	jsr	$142e <readLine>
    4114: a6 24        	ldx	$24                     ; 0x24 <__rc20>
    4116: 86 12        	stx	$12                     ; 0x12 <__rc2>
    4118: a6 25        	ldx	$25                     ; 0x25 <__rc21>
    411a: 86 13        	stx	$13                     ; 0x13 <__rc3>
    411c: 20 2e 14     	jsr	$142e <readLine>
    411f: a6 24        	ldx	$24                     ; 0x24 <__rc20>
    4121: 86 12        	stx	$12                     ; 0x12 <__rc2>
    4123: a6 25        	ldx	$25                     ; 0x25 <__rc21>
    4125: 86 13        	stx	$13                     ; 0x13 <__rc3>
    4127: 20 2e 14     	jsr	$142e <readLine>
    412a: a6 24        	ldx	$24                     ; 0x24 <__rc20>
    412c: 86 12        	stx	$12                     ; 0x12 <__rc2>
    412e: a6 25        	ldx	$25                     ; 0x25 <__rc21>
    4130: 86 13        	stx	$13                     ; 0x13 <__rc3>
    4132: 20 2e 14     	jsr	$142e <readLine>
    4135: a6 24        	ldx	$24                     ; 0x24 <__rc20>
    4137: 86 12        	stx	$12                     ; 0x12 <__rc2>
    4139: a6 25        	ldx	$25                     ; 0x25 <__rc21>
    413b: 86 13        	stx	$13                     ; 0x13 <__rc3>
    413d: 20 2e 14     	jsr	$142e <readLine>
    4140: a6 24        	ldx	$24                     ; 0x24 <__rc20>
    4142: 86 12        	stx	$12                     ; 0x12 <__rc2>
    4144: a6 25        	ldx	$25                     ; 0x25 <__rc21>
    4146: 86 13        	stx	$13                     ; 0x13 <__rc3>
    4148: 20 2e 14     	jsr	$142e <readLine>
    414b: a6 24        	ldx	$24                     ; 0x24 <__rc20>
    414d: 86 12        	stx	$12                     ; 0x12 <__rc2>
    414f: a6 25        	ldx	$25                     ; 0x25 <__rc21>
    4151: 86 13        	stx	$13                     ; 0x13 <__rc3>
    4153: 20 2e 14     	jsr	$142e <readLine>
    4156: a6 24        	ldx	$24                     ; 0x24 <__rc20>
    4158: 86 12        	stx	$12                     ; 0x12 <__rc2>
    415a: a6 25        	ldx	$25                     ; 0x25 <__rc21>
    415c: 86 13        	stx	$13                     ; 0x13 <__rc3>
    415e: 20 2e 14     	jsr	$142e <readLine>
    4161: a6 24        	ldx	$24                     ; 0x24 <__rc20>
    4163: 86 12        	stx	$12                     ; 0x12 <__rc2>
    4165: a6 25        	ldx	$25                     ; 0x25 <__rc21>
    4167: 86 13        	stx	$13                     ; 0x13 <__rc3>
    4169: 20 2e 14     	jsr	$142e <readLine>
    416c: a6 24        	ldx	$24                     ; 0x24 <__rc20>
    416e: 86 12        	stx	$12                     ; 0x12 <__rc2>
    4170: a6 25        	ldx	$25                     ; 0x25 <__rc21>
    4172: 86 13        	stx	$13                     ; 0x13 <__rc3>
    4174: 20 2e 14     	jsr	$142e <readLine>
    4177: a6 24        	ldx	$24                     ; 0x24 <__rc20>
    4179: 86 12        	stx	$12                     ; 0x12 <__rc2>
    417b: a6 25        	ldx	$25                     ; 0x25 <__rc21>
    417d: 86 13        	stx	$13                     ; 0x13 <__rc3>
    417f: 20 2e 14     	jsr	$142e <readLine>
    4182: a6 24        	ldx	$24                     ; 0x24 <__rc20>
    4184: 86 12        	stx	$12                     ; 0x12 <__rc2>
    4186: a6 25        	ldx	$25                     ; 0x25 <__rc21>
    4188: 86 13        	stx	$13                     ; 0x13 <__rc3>
    418a: 20 2e 14     	jsr	$142e <readLine>
    418d: b2 24        	lda	($24)                   ; 0x24 <__rc20>
    418f: 85 f3        	sta	$f3                     ; 0xf3 <__zp_bss_size+0xaf>
    4191: 20 68 ff     	jsr	$ff68 <__heap_start+0x805c>
    4194: 92 2a        	sta	($2a)                   ; 0x2a <__rc26>
    4196: a9 00        	lda	#$0
    4198: 6a           	ror
    4199: 85 26        	sta	$26                     ; 0x26 <__rc22>
    419b: a6 24        	ldx	$24                     ; 0x24 <__rc20>
    419d: 86 12        	stx	$12                     ; 0x12 <__rc2>
    419f: a6 25        	ldx	$25                     ; 0x25 <__rc21>
    41a1: 86 13        	stx	$13                     ; 0x13 <__rc3>
    41a3: 20 fb 69     	jsr	$69fb <free>
    41a6: a2 7a        	ldx	#$7a
    41a8: 86 12        	stx	$12                     ; 0x12 <__rc2>
    41aa: a2 00        	ldx	#$0
    41ac: 86 13        	stx	$13                     ; 0x13 <__rc3>
    41ae: 64 73        	stz	$73                     ; 0x73 <kernelEventData>
    41b0: 20 00 ff     	jsr	$ff00 <__heap_start+0x7ff4>
    41b3: 92 2a        	sta	($2a)                   ; 0x2a <__rc26>
    41b5: a9 00        	lda	#$0
    41b7: 6a           	ror
    41b8: 85 12        	sta	$12                     ; 0x12 <__rc2>
    41ba: a6 73        	ldx	$73                     ; 0x73 <kernelEventData>
    41bc: e0 38        	cpx	#$38
    41be: f0 04        	beq	$41c4 <main+0xe5c>
    41c0: e0 32        	cpx	#$32
    41c2: d0 ea        	bne	$41ae <main+0xe46>
    41c4: a5 28        	lda	$28                     ; 0x28 <__rc24>
    41c6: a0 0a        	ldy	#$a
    41c8: 91 10        	sta	($10),y                 ; 0x10 <__rc0>
    41ca: a5 29        	lda	$29                     ; 0x29 <__rc25>
    41cc: c8           	iny
    41cd: 91 10        	sta	($10),y                 ; 0x10 <__rc0>
    41cf: ae 20 76     	ldx	$7620                   ; 0x7620 <cats+0x474>
    41d2: d0 03        	bne	$41d7 <main+0xe6f>
    41d4: 4c 6c 42     	jmp	$426c <main+0xf04>
    41d7: a2 ac        	ldx	#$ac
    41d9: 86 12        	stx	$12                     ; 0x12 <__rc2>
    41db: a2 71        	ldx	#$71
    41dd: 86 13        	stx	$13                     ; 0x13 <__rc3>
    41df: a2 00        	ldx	#$0
    41e1: 8a           	txa
    41e2: 18           	clc
    41e3: 69 0a        	adc	#$a
    41e5: a0 07        	ldy	#$7
    41e7: 84 40        	sty	$40                     ; 0x40 <_col>
    41e9: 8c 14 d0     	sty	$d014                   ; 0xd014 <__heap_start+0x5108>
    41ec: 9c 15 d0     	stz	$d015                   ; 0xd015 <__heap_start+0x5109>
    41ef: 85 41        	sta	$41                     ; 0x41 <_row>
    41f1: 8d 16 d0     	sta	$d016                   ; 0xd016 <__heap_start+0x510a>
    41f4: 85 2e        	sta	$2e                     ; 0x2e <__rc30>
    41f6: 9c 17 d0     	stz	$d017                   ; 0xd017 <__heap_start+0x510b>
    41f9: a5 12        	lda	$12                     ; 0x12 <__rc2>
    41fb: a4 13        	ldy	$13                     ; 0x13 <__rc3>
    41fd: 84 28        	sty	$28                     ; 0x28 <__rc24>
    41ff: 92 10        	sta	($10)                   ; 0x10 <__rc0>
    4201: 85 27        	sta	$27                     ; 0x27 <__rc23>
    4203: a0 01        	ldy	#$1
    4205: a5 13        	lda	$13                     ; 0x13 <__rc3>
    4207: 91 10        	sta	($10),y                 ; 0x10 <__rc0>
    4209: 84 29        	sty	$29                     ; 0x29 <__rc25>
    420b: 86 26        	stx	$26                     ; 0x26 <__rc22>
    420d: a2 41        	ldx	#$41
    420f: 86 24        	stx	$24                     ; 0x24 <__rc20>
    4211: a2 70        	ldx	#$70
    4213: 86 25        	stx	$25                     ; 0x25 <__rc21>
    4215: a2 41        	ldx	#$41
    4217: 86 12        	stx	$12                     ; 0x12 <__rc2>
    4219: a2 70        	ldx	#$70
    421b: 86 13        	stx	$13                     ; 0x13 <__rc3>
    421d: 20 01 58     	jsr	$5801 <printf>
    4220: a2 1b        	ldx	#$1b
    4222: 86 40        	stx	$40                     ; 0x40 <_col>
    4224: 8e 14 d0     	stx	$d014                   ; 0xd014 <__heap_start+0x5108>
    4227: 9c 15 d0     	stz	$d015                   ; 0xd015 <__heap_start+0x5109>
    422a: a6 2e        	ldx	$2e                     ; 0x2e <__rc30>
    422c: 86 41        	stx	$41                     ; 0x41 <_row>
    422e: 8e 16 d0     	stx	$d016                   ; 0xd016 <__heap_start+0x510a>
    4231: a5 27        	lda	$27                     ; 0x27 <__rc23>
    4233: 18           	clc
    4234: 69 14        	adc	#$14
    4236: aa           	tax
    4237: a5 28        	lda	$28                     ; 0x28 <__rc24>
    4239: 69 00        	adc	#$0
    423b: 85 12        	sta	$12                     ; 0x12 <__rc2>
    423d: 9c 17 d0     	stz	$d017                   ; 0xd017 <__heap_start+0x510b>
    4240: 8a           	txa
    4241: 92 10        	sta	($10)                   ; 0x10 <__rc0>
    4243: a4 29        	ldy	$29                     ; 0x29 <__rc25>
    4245: a5 12        	lda	$12                     ; 0x12 <__rc2>
    4247: 91 10        	sta	($10),y                 ; 0x10 <__rc0>
    4249: a2 41        	ldx	#$41
    424b: 86 12        	stx	$12                     ; 0x12 <__rc2>
    424d: a2 70        	ldx	#$70
    424f: 86 13        	stx	$13                     ; 0x13 <__rc3>
    4251: 20 01 58     	jsr	$5801 <printf>
    4254: a6 26        	ldx	$26                     ; 0x26 <__rc22>
    4256: e8           	inx
    4257: 18           	clc
    4258: a5 27        	lda	$27                     ; 0x27 <__rc23>
    425a: 69 5f        	adc	#$5f
    425c: 85 12        	sta	$12                     ; 0x12 <__rc2>
    425e: a5 28        	lda	$28                     ; 0x28 <__rc24>
    4260: 69 00        	adc	#$0
    4262: 85 13        	sta	$13                     ; 0x13 <__rc3>
    4264: ec 20 76     	cpx	$7620                   ; 0x7620 <cats+0x474>
    4267: b0 03        	bcs	$426c <main+0xf04>
    4269: 4c e1 41     	jmp	$41e1 <main+0xe79>
    426c: a2 76        	ldx	#$76
    426e: 86 3c        	stx	$3c                     ; 0x3c <_ccolor>
    4270: a2 0a        	ldx	#$a
    4272: 86 40        	stx	$40                     ; 0x40 <_col>
    4274: 8e 14 d0     	stx	$d014                   ; 0xd014 <__heap_start+0x5108>
    4277: 9c 15 d0     	stz	$d015                   ; 0xd015 <__heap_start+0x5109>
    427a: a2 15        	ldx	#$15
    427c: 86 41        	stx	$41                     ; 0x41 <_row>
    427e: 8e 16 d0     	stx	$d016                   ; 0xd016 <__heap_start+0x510a>
    4281: 86 28        	stx	$28                     ; 0x28 <__rc24>
    4283: 9c 17 d0     	stz	$d017                   ; 0xd017 <__heap_start+0x510b>
    4286: a9 b7        	lda	#$b7
    4288: 92 10        	sta	($10)                   ; 0x10 <__rc0>
    428a: a0 01        	ldy	#$1
    428c: a9 6f        	lda	#$6f
    428e: 91 10        	sta	($10),y                 ; 0x10 <__rc0>
    4290: a2 01        	ldx	#$1
    4292: 86 26        	stx	$26                     ; 0x26 <__rc22>
    4294: a2 41        	ldx	#$41
    4296: 86 24        	stx	$24                     ; 0x24 <__rc20>
    4298: a2 70        	ldx	#$70
    429a: 86 25        	stx	$25                     ; 0x25 <__rc21>
    429c: a2 41        	ldx	#$41
    429e: 86 12        	stx	$12                     ; 0x12 <__rc2>
    42a0: a2 70        	ldx	#$70
    42a2: 86 13        	stx	$13                     ; 0x13 <__rc3>
    42a4: 20 01 58     	jsr	$5801 <printf>
    42a7: a2 f0        	ldx	#$f0
    42a9: 86 3c        	stx	$3c                     ; 0x3c <_ccolor>
    42ab: 86 27        	stx	$27                     ; 0x27 <__rc23>
    42ad: a2 12        	ldx	#$12
    42af: 86 40        	stx	$40                     ; 0x40 <_col>
    42b1: 8e 14 d0     	stx	$d014                   ; 0xd014 <__heap_start+0x5108>
    42b4: 9c 15 d0     	stz	$d015                   ; 0xd015 <__heap_start+0x5109>
    42b7: a6 28        	ldx	$28                     ; 0x28 <__rc24>
    42b9: 86 41        	stx	$41                     ; 0x41 <_row>
    42bb: 8e 16 d0     	stx	$d016                   ; 0xd016 <__heap_start+0x510a>
    42be: 9c 17 d0     	stz	$d017                   ; 0xd017 <__heap_start+0x510b>
    42c1: a9 bd        	lda	#$bd
    42c3: 92 10        	sta	($10)                   ; 0x10 <__rc0>
    42c5: a4 26        	ldy	$26                     ; 0x26 <__rc22>
    42c7: a9 6f        	lda	#$6f
    42c9: 91 10        	sta	($10),y                 ; 0x10 <__rc0>
    42cb: a2 41        	ldx	#$41
    42cd: 86 12        	stx	$12                     ; 0x12 <__rc2>
    42cf: a2 70        	ldx	#$70
    42d1: 86 13        	stx	$13                     ; 0x13 <__rc3>
    42d3: 20 01 58     	jsr	$5801 <printf>
    42d6: a6 27        	ldx	$27                     ; 0x27 <__rc23>
    42d8: 86 3c        	stx	$3c                     ; 0x3c <_ccolor>
    42da: a2 1a        	ldx	#$1a
    42dc: 86 40        	stx	$40                     ; 0x40 <_col>
    42de: 8e 14 d0     	stx	$d014                   ; 0xd014 <__heap_start+0x5108>
    42e1: 9c 15 d0     	stz	$d015                   ; 0xd015 <__heap_start+0x5109>
    42e4: a2 15        	ldx	#$15
    42e6: 86 41        	stx	$41                     ; 0x41 <_row>
    42e8: 8e 16 d0     	stx	$d016                   ; 0xd016 <__heap_start+0x510a>
    42eb: 86 28        	stx	$28                     ; 0x28 <__rc24>
    42ed: 9c 17 d0     	stz	$d017                   ; 0xd017 <__heap_start+0x510b>
    42f0: a9 c3        	lda	#$c3
    42f2: 92 10        	sta	($10)                   ; 0x10 <__rc0>
    42f4: a4 26        	ldy	$26                     ; 0x26 <__rc22>
    42f6: a9 6f        	lda	#$6f
    42f8: 91 10        	sta	($10),y                 ; 0x10 <__rc0>
    42fa: a2 41        	ldx	#$41
    42fc: 86 12        	stx	$12                     ; 0x12 <__rc2>
    42fe: a2 70        	ldx	#$70
    4300: 86 13        	stx	$13                     ; 0x13 <__rc3>
    4302: 20 01 58     	jsr	$5801 <printf>
    4305: a6 27        	ldx	$27                     ; 0x27 <__rc23>
    4307: 86 3c        	stx	$3c                     ; 0x3c <_ccolor>
    4309: a2 22        	ldx	#$22
    430b: 86 40        	stx	$40                     ; 0x40 <_col>
    430d: 8e 14 d0     	stx	$d014                   ; 0xd014 <__heap_start+0x5108>
    4310: 9c 15 d0     	stz	$d015                   ; 0xd015 <__heap_start+0x5109>
    4313: a6 28        	ldx	$28                     ; 0x28 <__rc24>
    4315: 86 41        	stx	$41                     ; 0x41 <_row>
    4317: 8e 16 d0     	stx	$d016                   ; 0xd016 <__heap_start+0x510a>
    431a: 9c 17 d0     	stz	$d017                   ; 0xd017 <__heap_start+0x510b>
    431d: a9 c9        	lda	#$c9
    431f: 92 10        	sta	($10)                   ; 0x10 <__rc0>
    4321: a4 26        	ldy	$26                     ; 0x26 <__rc22>
    4323: a9 6f        	lda	#$6f
    4325: 91 10        	sta	($10),y                 ; 0x10 <__rc0>
    4327: a2 41        	ldx	#$41
    4329: 86 12        	stx	$12                     ; 0x12 <__rc2>
    432b: a2 70        	ldx	#$70
    432d: 86 13        	stx	$13                     ; 0x13 <__rc3>
    432f: 20 01 58     	jsr	$5801 <printf>
    4332: a2 d1        	ldx	#$d1
    4334: 86 3c        	stx	$3c                     ; 0x3c <_ccolor>
    4336: a2 07        	ldx	#$7
    4338: 86 40        	stx	$40                     ; 0x40 <_col>
    433a: 8e 14 d0     	stx	$d014                   ; 0xd014 <__heap_start+0x5108>
    433d: 9c 15 d0     	stz	$d015                   ; 0xd015 <__heap_start+0x5109>
    4340: a2 0a        	ldx	#$a
    4342: 86 41        	stx	$41                     ; 0x41 <_row>
    4344: 8e 16 d0     	stx	$d016                   ; 0xd016 <__heap_start+0x510a>
    4347: 86 27        	stx	$27                     ; 0x27 <__rc23>
    4349: 9c 17 d0     	stz	$d017                   ; 0xd017 <__heap_start+0x510b>
    434c: a9 ac        	lda	#$ac
    434e: 92 10        	sta	($10)                   ; 0x10 <__rc0>
    4350: a4 26        	ldy	$26                     ; 0x26 <__rc22>
    4352: a9 71        	lda	#$71
    4354: 91 10        	sta	($10),y                 ; 0x10 <__rc0>
    4356: a2 41        	ldx	#$41
    4358: 86 12        	stx	$12                     ; 0x12 <__rc2>
    435a: a2 70        	ldx	#$70
    435c: 86 13        	stx	$13                     ; 0x13 <__rc3>
    435e: 20 01 58     	jsr	$5801 <printf>
    4361: a2 1b        	ldx	#$1b
    4363: 86 40        	stx	$40                     ; 0x40 <_col>
    4365: 8e 14 d0     	stx	$d014                   ; 0xd014 <__heap_start+0x5108>
    4368: 9c 15 d0     	stz	$d015                   ; 0xd015 <__heap_start+0x5109>
    436b: a6 27        	ldx	$27                     ; 0x27 <__rc23>
    436d: 86 41        	stx	$41                     ; 0x41 <_row>
    436f: 8e 16 d0     	stx	$d016                   ; 0xd016 <__heap_start+0x510a>
    4372: 9c 17 d0     	stz	$d017                   ; 0xd017 <__heap_start+0x510b>
    4375: a9 c0        	lda	#$c0
    4377: 92 10        	sta	($10)                   ; 0x10 <__rc0>
    4379: a4 26        	ldy	$26                     ; 0x26 <__rc22>
    437b: a9 71        	lda	#$71
    437d: 91 10        	sta	($10),y                 ; 0x10 <__rc0>
    437f: a2 41        	ldx	#$41
    4381: 86 12        	stx	$12                     ; 0x12 <__rc2>
    4383: a2 70        	ldx	#$70
    4385: 86 13        	stx	$13                     ; 0x13 <__rc3>
    4387: 20 01 58     	jsr	$5801 <printf>
    438a: a2 c0        	ldx	#$c0
    438c: 8e a1 dd     	stx	$dda1                   ; 0xdda1 <__heap_start+0x5e95>
    438f: 9c a1 dd     	stz	$dda1                   ; 0xdda1 <__heap_start+0x5e95>
    4392: a2 b0        	ldx	#$b0
    4394: 8e a1 dd     	stx	$dda1                   ; 0xdda1 <__heap_start+0x5e95>
    4397: a2 79        	ldx	#$79
    4399: 8e a1 dd     	stx	$dda1                   ; 0xdda1 <__heap_start+0x5e95>
    439c: 9c a1 dd     	stz	$dda1                   ; 0xdda1 <__heap_start+0x5e95>
    439f: a0 c1        	ldy	#$c1
    43a1: 8c a1 dd     	sty	$dda1                   ; 0xdda1 <__heap_start+0x5e95>
    43a4: 9c a1 dd     	stz	$dda1                   ; 0xdda1 <__heap_start+0x5e95>
    43a7: a0 b1        	ldy	#$b1
    43a9: 8c a1 dd     	sty	$dda1                   ; 0xdda1 <__heap_start+0x5e95>
    43ac: 8e a1 dd     	stx	$dda1                   ; 0xdda1 <__heap_start+0x5e95>
    43af: 9c a1 dd     	stz	$dda1                   ; 0xdda1 <__heap_start+0x5e95>
    43b2: a0 c2        	ldy	#$c2
    43b4: 8c a1 dd     	sty	$dda1                   ; 0xdda1 <__heap_start+0x5e95>
    43b7: 9c a1 dd     	stz	$dda1                   ; 0xdda1 <__heap_start+0x5e95>
    43ba: a0 b2        	ldy	#$b2
    43bc: 8c a1 dd     	sty	$dda1                   ; 0xdda1 <__heap_start+0x5e95>
    43bf: 8e a1 dd     	stx	$dda1                   ; 0xdda1 <__heap_start+0x5e95>
    43c2: 9c a1 dd     	stz	$dda1                   ; 0xdda1 <__heap_start+0x5e95>
    43c5: a0 c3        	ldy	#$c3
    43c7: 8c a1 dd     	sty	$dda1                   ; 0xdda1 <__heap_start+0x5e95>
    43ca: 9c a1 dd     	stz	$dda1                   ; 0xdda1 <__heap_start+0x5e95>
    43cd: a0 b3        	ldy	#$b3
    43cf: 8c a1 dd     	sty	$dda1                   ; 0xdda1 <__heap_start+0x5e95>
    43d2: 8e a1 dd     	stx	$dda1                   ; 0xdda1 <__heap_start+0x5e95>
    43d5: 9c a1 dd     	stz	$dda1                   ; 0xdda1 <__heap_start+0x5e95>
    43d8: a0 c4        	ldy	#$c4
    43da: 8c a1 dd     	sty	$dda1                   ; 0xdda1 <__heap_start+0x5e95>
    43dd: 9c a1 dd     	stz	$dda1                   ; 0xdda1 <__heap_start+0x5e95>
    43e0: a0 b4        	ldy	#$b4
    43e2: 8c a1 dd     	sty	$dda1                   ; 0xdda1 <__heap_start+0x5e95>
    43e5: 8e a1 dd     	stx	$dda1                   ; 0xdda1 <__heap_start+0x5e95>
    43e8: 9c a1 dd     	stz	$dda1                   ; 0xdda1 <__heap_start+0x5e95>
    43eb: a0 c5        	ldy	#$c5
    43ed: 8c a1 dd     	sty	$dda1                   ; 0xdda1 <__heap_start+0x5e95>
    43f0: 9c a1 dd     	stz	$dda1                   ; 0xdda1 <__heap_start+0x5e95>
    43f3: a0 b5        	ldy	#$b5
    43f5: 8c a1 dd     	sty	$dda1                   ; 0xdda1 <__heap_start+0x5e95>
    43f8: 8e a1 dd     	stx	$dda1                   ; 0xdda1 <__heap_start+0x5e95>
    43fb: 9c a1 dd     	stz	$dda1                   ; 0xdda1 <__heap_start+0x5e95>
    43fe: a0 c6        	ldy	#$c6
    4400: 8c a1 dd     	sty	$dda1                   ; 0xdda1 <__heap_start+0x5e95>
    4403: 9c a1 dd     	stz	$dda1                   ; 0xdda1 <__heap_start+0x5e95>
    4406: a0 b6        	ldy	#$b6
    4408: 8c a1 dd     	sty	$dda1                   ; 0xdda1 <__heap_start+0x5e95>
    440b: 8e a1 dd     	stx	$dda1                   ; 0xdda1 <__heap_start+0x5e95>
    440e: 9c a1 dd     	stz	$dda1                   ; 0xdda1 <__heap_start+0x5e95>
    4411: a0 c7        	ldy	#$c7
    4413: 8c a1 dd     	sty	$dda1                   ; 0xdda1 <__heap_start+0x5e95>
    4416: 9c a1 dd     	stz	$dda1                   ; 0xdda1 <__heap_start+0x5e95>
    4419: a0 b7        	ldy	#$b7
    441b: 8c a1 dd     	sty	$dda1                   ; 0xdda1 <__heap_start+0x5e95>
    441e: 8e a1 dd     	stx	$dda1                   ; 0xdda1 <__heap_start+0x5e95>
    4421: 9c a1 dd     	stz	$dda1                   ; 0xdda1 <__heap_start+0x5e95>
    4424: a0 c8        	ldy	#$c8
    4426: 8c a1 dd     	sty	$dda1                   ; 0xdda1 <__heap_start+0x5e95>
    4429: 9c a1 dd     	stz	$dda1                   ; 0xdda1 <__heap_start+0x5e95>
    442c: a0 b8        	ldy	#$b8
    442e: 8c a1 dd     	sty	$dda1                   ; 0xdda1 <__heap_start+0x5e95>
    4431: 8e a1 dd     	stx	$dda1                   ; 0xdda1 <__heap_start+0x5e95>
    4434: 9c a1 dd     	stz	$dda1                   ; 0xdda1 <__heap_start+0x5e95>
    4437: a0 c9        	ldy	#$c9
    4439: 8c a1 dd     	sty	$dda1                   ; 0xdda1 <__heap_start+0x5e95>
    443c: 9c a1 dd     	stz	$dda1                   ; 0xdda1 <__heap_start+0x5e95>
    443f: a0 b9        	ldy	#$b9
    4441: 8c a1 dd     	sty	$dda1                   ; 0xdda1 <__heap_start+0x5e95>
    4444: 8e a1 dd     	stx	$dda1                   ; 0xdda1 <__heap_start+0x5e95>
    4447: 9c a1 dd     	stz	$dda1                   ; 0xdda1 <__heap_start+0x5e95>
    444a: a0 ca        	ldy	#$ca
    444c: 8c a1 dd     	sty	$dda1                   ; 0xdda1 <__heap_start+0x5e95>
    444f: 9c a1 dd     	stz	$dda1                   ; 0xdda1 <__heap_start+0x5e95>
    4452: a0 ba        	ldy	#$ba
    4454: 8c a1 dd     	sty	$dda1                   ; 0xdda1 <__heap_start+0x5e95>
    4457: 8e a1 dd     	stx	$dda1                   ; 0xdda1 <__heap_start+0x5e95>
    445a: 9c a1 dd     	stz	$dda1                   ; 0xdda1 <__heap_start+0x5e95>
    445d: a0 cb        	ldy	#$cb
    445f: 8c a1 dd     	sty	$dda1                   ; 0xdda1 <__heap_start+0x5e95>
    4462: 9c a1 dd     	stz	$dda1                   ; 0xdda1 <__heap_start+0x5e95>
    4465: a0 bb        	ldy	#$bb
    4467: 8c a1 dd     	sty	$dda1                   ; 0xdda1 <__heap_start+0x5e95>
    446a: 8e a1 dd     	stx	$dda1                   ; 0xdda1 <__heap_start+0x5e95>
    446d: 9c a1 dd     	stz	$dda1                   ; 0xdda1 <__heap_start+0x5e95>
    4470: a0 cc        	ldy	#$cc
    4472: 8c a1 dd     	sty	$dda1                   ; 0xdda1 <__heap_start+0x5e95>
    4475: 9c a1 dd     	stz	$dda1                   ; 0xdda1 <__heap_start+0x5e95>
    4478: a0 bc        	ldy	#$bc
    447a: 8c a1 dd     	sty	$dda1                   ; 0xdda1 <__heap_start+0x5e95>
    447d: 8e a1 dd     	stx	$dda1                   ; 0xdda1 <__heap_start+0x5e95>
    4480: 9c a1 dd     	stz	$dda1                   ; 0xdda1 <__heap_start+0x5e95>
    4483: a0 cd        	ldy	#$cd
    4485: 8c a1 dd     	sty	$dda1                   ; 0xdda1 <__heap_start+0x5e95>
    4488: 9c a1 dd     	stz	$dda1                   ; 0xdda1 <__heap_start+0x5e95>
    448b: a0 bd        	ldy	#$bd
    448d: 8c a1 dd     	sty	$dda1                   ; 0xdda1 <__heap_start+0x5e95>
    4490: 8e a1 dd     	stx	$dda1                   ; 0xdda1 <__heap_start+0x5e95>
    4493: 9c a1 dd     	stz	$dda1                   ; 0xdda1 <__heap_start+0x5e95>
    4496: a0 ce        	ldy	#$ce
    4498: 8c a1 dd     	sty	$dda1                   ; 0xdda1 <__heap_start+0x5e95>
    449b: 9c a1 dd     	stz	$dda1                   ; 0xdda1 <__heap_start+0x5e95>
    449e: a0 be        	ldy	#$be
    44a0: 8c a1 dd     	sty	$dda1                   ; 0xdda1 <__heap_start+0x5e95>
    44a3: 8e a1 dd     	stx	$dda1                   ; 0xdda1 <__heap_start+0x5e95>
    44a6: 9c a1 dd     	stz	$dda1                   ; 0xdda1 <__heap_start+0x5e95>
    44a9: a0 cf        	ldy	#$cf
    44ab: 8c a1 dd     	sty	$dda1                   ; 0xdda1 <__heap_start+0x5e95>
    44ae: 9c a1 dd     	stz	$dda1                   ; 0xdda1 <__heap_start+0x5e95>
    44b1: a0 bf        	ldy	#$bf
    44b3: 8c a1 dd     	sty	$dda1                   ; 0xdda1 <__heap_start+0x5e95>
    44b6: 8e a1 dd     	stx	$dda1                   ; 0xdda1 <__heap_start+0x5e95>
    44b9: 9c a1 dd     	stz	$dda1                   ; 0xdda1 <__heap_start+0x5e95>
    44bc: a0 ff        	ldy	#$ff
    44be: 8c a1 dd     	sty	$dda1                   ; 0xdda1 <__heap_start+0x5e95>
    44c1: 8c a1 dd     	sty	$dda1                   ; 0xdda1 <__heap_start+0x5e95>
    44c4: 20 32 2e     	jsr	$2e32 <initTrack>
    44c7: 9c 54 d6     	stz	$d654                   ; 0xd654 <__heap_start+0x5748>
    44ca: a2 02        	ldx	#$2
    44cc: 8e 50 d6     	stx	$d650                   ; 0xd650 <__heap_start+0x5744>
    44cf: a2 89        	ldx	#$89
    44d1: 8e 50 d6     	stx	$d650                   ; 0xd650 <__heap_start+0x5744>
    44d4: a2 01        	ldx	#$1
    44d6: 86 2f        	stx	$2f                     ; 0x2f <__rc31>
    44d8: a6 26        	ldx	$26                     ; 0x26 <__rc22>
    44da: 86 4d        	stx	$4d                     ; 0x4d <padDelayTimer.2>
    44dc: 64 4a        	stz	$4a                     ; 0x4a <readyForPads>
    44de: a2 80        	ldx	#$80
    44e0: 86 f3        	stx	$f3                     ; 0xf3 <__zp_bss_size+0xaf>
    44e2: a2 7a        	ldx	#$7a
    44e4: 86 12        	stx	$12                     ; 0x12 <__rc2>
    44e6: a2 00        	ldx	#$0
    44e8: 86 13        	stx	$13                     ; 0x13 <__rc3>
    44ea: 20 f0 ff     	jsr	$fff0 <__heap_start+0x80e4>
    44ed: 92 2a        	sta	($2a)                   ; 0x2a <__rc26>
    44ef: a9 00        	lda	#$0
    44f1: 6a           	ror
    44f2: 85 12        	sta	$12                     ; 0x12 <__rc2>
    44f4: a9 0c        	lda	#$c
    44f6: 18           	clc
    44f7: 72 2a        	adc	($2a)                   ; 0x2a <__rc26>
    44f9: 85 4c        	sta	$4c                     ; 0x4c <padDelayTimer.1>
    44fb: 64 f3        	stz	$f3                     ; 0xf3 <__zp_bss_size+0xaf>
    44fd: a6 4c        	ldx	$4c                     ; 0x4c <padDelayTimer.1>
    44ff: 86 f4        	stx	$f4                     ; 0xf4 <__zp_bss_size+0xb0>
    4501: a0 03        	ldy	#$3
    4503: 84 f5        	sty	$f5                     ; 0xf5 <__zp_bss_size+0xb1>
    4505: 20 f0 ff     	jsr	$fff0 <__heap_start+0x80e4>
    4508: 92 2a        	sta	($2a)                   ; 0x2a <__rc26>
    450a: a9 00        	lda	#$0
    450c: 6a           	ror
    450d: 85 12        	sta	$12                     ; 0x12 <__rc2>
    450f: 64 4b        	stz	$4b                     ; 0x4b <isJingleActive>
    4511: 64 5f        	stz	$5f                     ; 0x5f <fudge>
    4513: a2 00        	ldx	#$0
    4515: 4c 82 4c     	jmp	$4c82 <main+0x191a>
    4518: b2 2a        	lda	($2a)                   ; 0x2a <__rc26>
    451a: 85 2e        	sta	$2e                     ; 0x2e <__rc30>
    451c: a2 7a        	ldx	#$7a
    451e: 86 12        	stx	$12                     ; 0x12 <__rc2>
    4520: a2 00        	ldx	#$0
    4522: 86 13        	stx	$13                     ; 0x13 <__rc3>
    4524: 64 73        	stz	$73                     ; 0x73 <kernelEventData>
    4526: 20 00 ff     	jsr	$ff00 <__heap_start+0x7ff4>
    4529: 92 2a        	sta	($2a)                   ; 0x2a <__rc26>
    452b: a9 00        	lda	#$0
    452d: 6a           	ror
    452e: 85 12        	sta	$12                     ; 0x12 <__rc2>
    4530: a6 73        	ldx	$73                     ; 0x73 <kernelEventData>
    4532: e0 28        	cpx	#$28
    4534: d0 03        	bne	$4539 <main+0x11d1>
    4536: 4c 43 40     	jmp	$4043 <main+0xcdb>
    4539: e0 38        	cpx	#$38
    453b: d0 03        	bne	$4540 <main+0x11d8>
    453d: 4c 43 40     	jmp	$4043 <main+0xcdb>
    4540: e0 2a        	cpx	#$2a
    4542: d0 e0        	bne	$4524 <main+0x11bc>
    4544: a9 01        	lda	#$1
    4546: a2 00        	ldx	#$0
    4548: 20 19 68     	jsr	$6819 <malloc>
    454b: a6 12        	ldx	$12                     ; 0x12 <__rc2>
    454d: 86 24        	stx	$24                     ; 0x24 <__rc20>
    454f: a6 13        	ldx	$13                     ; 0x13 <__rc3>
    4551: 86 25        	stx	$25                     ; 0x25 <__rc21>
    4553: a5 2e        	lda	$2e                     ; 0x2e <__rc30>
    4555: 92 12        	sta	($12)                   ; 0x12 <__rc2>
    4557: 4c 43 40     	jmp	$4043 <main+0xcdb>
    455a: e0 b6        	cpx	#$b6
    455c: f0 03        	beq	$4561 <main+0x11f9>
    455e: 4c a3 51     	jmp	$51a3 <main+0x1e3b>
    4561: a6 49        	ldx	$49                     ; 0x49 <catSelected>
    4563: a5 2f        	lda	$2f                     ; 0x2f <__rc31>
    4565: 84 24        	sty	$24                     ; 0x24 <__rc20>
    4567: 20 07 12     	jsr	$1207 <goUpOrDown>
    456a: a4 24        	ldy	$24                     ; 0x24 <__rc20>
    456c: a6 77        	ldx	$77                     ; 0x77 <kernelEventData+0x4>
    456e: e0 b8        	cpx	#$b8
    4570: d0 03        	bne	$4575 <main+0x120d>
    4572: 4c aa 51     	jmp	$51aa <main+0x1e42>
    4575: e0 b9        	cpx	#$b9
    4577: f0 03        	beq	$457c <main+0x1214>
    4579: 4c bc 51     	jmp	$51bc <main+0x1e54>
    457c: a9 00        	lda	#$0
    457e: 84 24        	sty	$24                     ; 0x24 <__rc20>
    4580: 20 17 08     	jsr	$817 <goLeftOrRight>
    4583: a4 24        	ldy	$24                     ; 0x24 <__rc20>
    4585: a6 77        	ldx	$77                     ; 0x77 <kernelEventData+0x4>
    4587: e0 62        	cpx	#$62
    4589: f0 03        	beq	$458e <main+0x1226>
    458b: 4c c3 51     	jmp	$51c3 <main+0x1e5b>
    458e: a2 3b        	ldx	#$3b
    4590: 86 fb        	stx	$fb                     ; 0xfb <__zp_bss_size+0xb7>
    4592: a2 70        	ldx	#$70
    4594: 86 fc        	stx	$fc                     ; 0xfc <__zp_bss_size+0xb8>
    4596: a2 0b        	ldx	#$b
    4598: 86 fd        	stx	$fd                     ; 0xfd <__zp_bss_size+0xb9>
    459a: a6 01        	ldx	$1                      ; 0x1 <__data_size+0x1>
    459c: 86 16        	stx	$16                     ; 0x16 <__rc6>
    459e: a2 50        	ldx	#$50
    45a0: 8e 00 de     	stx	$de00                   ; 0xde00 <__heap_start+0x5ef4>
    45a3: 9c 01 de     	stz	$de01                   ; 0xde01 <__heap_start+0x5ef5>
    45a6: a2 1e        	ldx	#$1e
    45a8: 8e 02 de     	stx	$de02                   ; 0xde02 <__heap_start+0x5ef6>
    45ab: 9c 03 de     	stz	$de03                   ; 0xde03 <__heap_start+0x5ef7>
    45ae: ae 10 de     	ldx	$de10                   ; 0xde10 <__heap_start+0x5f04>
    45b1: 86 12        	stx	$12                     ; 0x12 <__rc2>
    45b3: ac 11 de     	ldy	$de11                   ; 0xde11 <__heap_start+0x5f05>
    45b6: ad 12 de     	lda	$de12                   ; 0xde12 <__heap_start+0x5f06>
    45b9: ad 13 de     	lda	$de13                   ; 0xde13 <__heap_start+0x5f07>
    45bc: a2 02        	ldx	#$2
    45be: 86 01        	stx	$1                      ; 0x1 <__data_size+0x1>
    45c0: a6 12        	ldx	$12                     ; 0x12 <__rc2>
    45c2: 86 17        	stx	$17                     ; 0x17 <__rc7>
    45c4: e0 01        	cpx	#$1
    45c6: 98           	tya
    45c7: e9 00        	sbc	#$0
    45c9: 50 02        	bvc	$45cd <main+0x1265>
    45cb: 49 80        	eor	#$80
    45cd: c9 00        	cmp	#$0
    45cf: 10 03        	bpl	$45d4 <main+0x126c>
    45d1: 4c ce 46     	jmp	$46ce <main+0x1366>
    45d4: 86 13        	stx	$13                     ; 0x13 <__rc3>
    45d6: 84 12        	sty	$12                     ; 0x12 <__rc2>
    45d8: a6 2c        	ldx	$2c                     ; 0x2c <__rc28>
    45da: 86 14        	stx	$14                     ; 0x14 <__rc4>
    45dc: a6 2d        	ldx	$2d                     ; 0x2d <__rc29>
    45de: 86 15        	stx	$15                     ; 0x15 <__rc5>
    45e0: a9 20        	lda	#$20
    45e2: 80 04        	bra	$45e8 <main+0x1280>
    45e4: a6 12        	ldx	$12                     ; 0x12 <__rc2>
    45e6: f0 14        	beq	$45fc <main+0x1294>
    45e8: 92 14        	sta	($14)                   ; 0x14 <__rc4>
    45ea: e6 14        	inc	$14                     ; 0x14 <__rc4>
    45ec: d0 02        	bne	$45f0 <main+0x1288>
    45ee: e6 15        	inc	$15                     ; 0x15 <__rc5>
    45f0: a2 ff        	ldx	#$ff
    45f2: c6 13        	dec	$13                     ; 0x13 <__rc3>
    45f4: e4 13        	cpx	$13                     ; 0x13 <__rc3>
    45f6: d0 ec        	bne	$45e4 <main+0x127c>
    45f8: c6 12        	dec	$12                     ; 0x12 <__rc2>
    45fa: 80 e8        	bra	$45e4 <main+0x127c>
    45fc: a6 13        	ldx	$13                     ; 0x13 <__rc3>
    45fe: d0 e8        	bne	$45e8 <main+0x1280>
    4600: a2 03        	ldx	#$3
    4602: 86 01        	stx	$1                      ; 0x1 <__data_size+0x1>
    4604: a6 3c        	ldx	$3c                     ; 0x3c <_ccolor>
    4606: 86 14        	stx	$14                     ; 0x14 <__rc4>
    4608: a6 17        	ldx	$17                     ; 0x17 <__rc7>
    460a: a5 2c        	lda	$2c                     ; 0x2c <__rc28>
    460c: 85 12        	sta	$12                     ; 0x12 <__rc2>
    460e: a5 2d        	lda	$2d                     ; 0x2d <__rc29>
    4610: 85 13        	sta	$13                     ; 0x13 <__rc3>
    4612: 80 03        	bra	$4617 <main+0x12af>
    4614: 98           	tya
    4615: f0 12        	beq	$4629 <main+0x12c1>
    4617: a5 14        	lda	$14                     ; 0x14 <__rc4>
    4619: 92 12        	sta	($12)                   ; 0x12 <__rc2>
    461b: e6 12        	inc	$12                     ; 0x12 <__rc2>
    461d: d0 02        	bne	$4621 <main+0x12b9>
    461f: e6 13        	inc	$13                     ; 0x13 <__rc3>
    4621: ca           	dex
    4622: e0 ff        	cpx	#$ff
    4624: d0 ee        	bne	$4614 <main+0x12ac>
    4626: 88           	dey
    4627: 80 eb        	bra	$4614 <main+0x12ac>
    4629: 8a           	txa
    462a: d0 eb        	bne	$4617 <main+0x12af>
    462c: 4c d2 46     	jmp	$46d2 <main+0x136a>
    462f: a2 44        	ldx	#$44
    4631: 86 fb        	stx	$fb                     ; 0xfb <__zp_bss_size+0xb7>
    4633: a2 70        	ldx	#$70
    4635: 86 fc        	stx	$fc                     ; 0xfc <__zp_bss_size+0xb8>
    4637: 84 fd        	sty	$fd                     ; 0xfd <__zp_bss_size+0xb9>
    4639: a6 01        	ldx	$1                      ; 0x1 <__data_size+0x1>
    463b: 86 16        	stx	$16                     ; 0x16 <__rc6>
    463d: a2 50        	ldx	#$50
    463f: 8e 00 de     	stx	$de00                   ; 0xde00 <__heap_start+0x5ef4>
    4642: 9c 01 de     	stz	$de01                   ; 0xde01 <__heap_start+0x5ef5>
    4645: a2 1e        	ldx	#$1e
    4647: 8e 02 de     	stx	$de02                   ; 0xde02 <__heap_start+0x5ef6>
    464a: 9c 03 de     	stz	$de03                   ; 0xde03 <__heap_start+0x5ef7>
    464d: ae 10 de     	ldx	$de10                   ; 0xde10 <__heap_start+0x5f04>
    4650: 86 12        	stx	$12                     ; 0x12 <__rc2>
    4652: ac 11 de     	ldy	$de11                   ; 0xde11 <__heap_start+0x5f05>
    4655: ad 12 de     	lda	$de12                   ; 0xde12 <__heap_start+0x5f06>
    4658: ad 13 de     	lda	$de13                   ; 0xde13 <__heap_start+0x5f07>
    465b: a2 02        	ldx	#$2
    465d: 86 01        	stx	$1                      ; 0x1 <__data_size+0x1>
    465f: a6 12        	ldx	$12                     ; 0x12 <__rc2>
    4661: 86 17        	stx	$17                     ; 0x17 <__rc7>
    4663: e0 01        	cpx	#$1
    4665: 98           	tya
    4666: e9 00        	sbc	#$0
    4668: 50 02        	bvc	$466c <main+0x1304>
    466a: 49 80        	eor	#$80
    466c: c9 00        	cmp	#$0
    466e: 10 03        	bpl	$4673 <main+0x130b>
    4670: 4c ec 47     	jmp	$47ec <main+0x1484>
    4673: 86 13        	stx	$13                     ; 0x13 <__rc3>
    4675: 84 12        	sty	$12                     ; 0x12 <__rc2>
    4677: a6 2c        	ldx	$2c                     ; 0x2c <__rc28>
    4679: 86 14        	stx	$14                     ; 0x14 <__rc4>
    467b: a6 2d        	ldx	$2d                     ; 0x2d <__rc29>
    467d: 86 15        	stx	$15                     ; 0x15 <__rc5>
    467f: a9 20        	lda	#$20
    4681: 80 04        	bra	$4687 <main+0x131f>
    4683: a6 12        	ldx	$12                     ; 0x12 <__rc2>
    4685: f0 14        	beq	$469b <main+0x1333>
    4687: 92 14        	sta	($14)                   ; 0x14 <__rc4>
    4689: e6 14        	inc	$14                     ; 0x14 <__rc4>
    468b: d0 02        	bne	$468f <main+0x1327>
    468d: e6 15        	inc	$15                     ; 0x15 <__rc5>
    468f: a2 ff        	ldx	#$ff
    4691: c6 13        	dec	$13                     ; 0x13 <__rc3>
    4693: e4 13        	cpx	$13                     ; 0x13 <__rc3>
    4695: d0 ec        	bne	$4683 <main+0x131b>
    4697: c6 12        	dec	$12                     ; 0x12 <__rc2>
    4699: 80 e8        	bra	$4683 <main+0x131b>
    469b: a6 13        	ldx	$13                     ; 0x13 <__rc3>
    469d: d0 e8        	bne	$4687 <main+0x131f>
    469f: a2 03        	ldx	#$3
    46a1: 86 01        	stx	$1                      ; 0x1 <__data_size+0x1>
    46a3: a6 3c        	ldx	$3c                     ; 0x3c <_ccolor>
    46a5: 86 14        	stx	$14                     ; 0x14 <__rc4>
    46a7: a6 17        	ldx	$17                     ; 0x17 <__rc7>
    46a9: a5 2c        	lda	$2c                     ; 0x2c <__rc28>
    46ab: 85 12        	sta	$12                     ; 0x12 <__rc2>
    46ad: a5 2d        	lda	$2d                     ; 0x2d <__rc29>
    46af: 85 13        	sta	$13                     ; 0x13 <__rc3>
    46b1: 80 03        	bra	$46b6 <main+0x134e>
    46b3: 98           	tya
    46b4: f0 12        	beq	$46c8 <main+0x1360>
    46b6: a5 14        	lda	$14                     ; 0x14 <__rc4>
    46b8: 92 12        	sta	($12)                   ; 0x12 <__rc2>
    46ba: e6 12        	inc	$12                     ; 0x12 <__rc2>
    46bc: d0 02        	bne	$46c0 <main+0x1358>
    46be: e6 13        	inc	$13                     ; 0x13 <__rc3>
    46c0: ca           	dex
    46c1: e0 ff        	cpx	#$ff
    46c3: d0 ee        	bne	$46b3 <main+0x134b>
    46c5: 88           	dey
    46c6: 80 eb        	bra	$46b3 <main+0x134b>
    46c8: 8a           	txa
    46c9: d0 eb        	bne	$46b6 <main+0x134e>
    46cb: 4c f0 47     	jmp	$47f0 <main+0x1488>
    46ce: a2 03        	ldx	#$3
    46d0: 86 01        	stx	$1                      ; 0x1 <__data_size+0x1>
    46d2: a6 16        	ldx	$16                     ; 0x16 <__rc6>
    46d4: 86 01        	stx	$1                      ; 0x1 <__data_size+0x1>
    46d6: 64 12        	stz	$12                     ; 0x12 <__rc2>
    46d8: 64 40        	stz	$40                     ; 0x40 <_col>
    46da: 9c 14 d0     	stz	$d014                   ; 0xd014 <__heap_start+0x5108>
    46dd: 9c 15 d0     	stz	$d015                   ; 0xd015 <__heap_start+0x5109>
    46e0: 64 41        	stz	$41                     ; 0x41 <_row>
    46e2: 9c 16 d0     	stz	$d016                   ; 0xd016 <__heap_start+0x510a>
    46e5: 9c 17 d0     	stz	$d017                   ; 0xd017 <__heap_start+0x510b>
    46e8: a2 0f        	ldx	#$f
    46ea: 8e 00 d0     	stx	$d000                   ; 0xd000 <__heap_start+0x50f4>
    46ed: 9c 01 d0     	stz	$d001                   ; 0xd001 <__heap_start+0x50f5>
    46f0: a0 d9        	ldy	#$d9
    46f2: a2 40        	ldx	#$40
    46f4: 84 13        	sty	$13                     ; 0x13 <__rc3>
    46f6: a9 00        	lda	#$0
    46f8: 92 12        	sta	($12)                   ; 0x12 <__rc2>
    46fa: ca           	dex
    46fb: 18           	clc
    46fc: a5 12        	lda	$12                     ; 0x12 <__rc2>
    46fe: 69 08        	adc	#$8
    4700: 85 12        	sta	$12                     ; 0x12 <__rc2>
    4702: 98           	tya
    4703: 69 00        	adc	#$0
    4705: a8           	tay
    4706: 8a           	txa
    4707: d0 eb        	bne	$46f4 <main+0x138c>
    4709: 9c 00 d1     	stz	$d100                   ; 0xd100 <__heap_start+0x51f4>
    470c: 9c 08 d1     	stz	$d108                   ; 0xd108 <__heap_start+0x51fc>
    470f: 9c 10 d1     	stz	$d110                   ; 0xd110 <__heap_start+0x5204>
    4712: ad 01 d0     	lda	$d001                   ; 0xd001 <__heap_start+0x50f5>
    4715: 29 ef        	and	#$ef
    4717: 8d 01 d0     	sta	$d001                   ; 0xd001 <__heap_start+0x50f5>
    471a: 20 97 05     	jsr	$597 <killSound>
    471d: a2 7a        	ldx	#$7a
    471f: 86 12        	stx	$12                     ; 0x12 <__rc2>
    4721: a2 00        	ldx	#$0
    4723: 86 13        	stx	$13                     ; 0x13 <__rc3>
    4725: 20 18 ff     	jsr	$ff18 <__heap_start+0x800c>
    4728: 92 2a        	sta	($2a)                   ; 0x2a <__rc26>
    472a: a9 00        	lda	#$0
    472c: 6a           	ror
    472d: 85 12        	sta	$12                     ; 0x12 <__rc2>
    472f: 4c 7e 4c     	jmp	$4c7e <main+0x1916>
    4732: ae 84 d8     	ldx	$d884                   ; 0xd884 <__heap_start+0x5978>
    4735: e0 fb        	cpx	#$fb
    4737: f0 18        	beq	$4751 <main+0x13e9>
    4739: ae 86 d8     	ldx	$d886                   ; 0xd886 <__heap_start+0x597a>
    473c: e0 fb        	cpx	#$fb
    473e: f0 11        	beq	$4751 <main+0x13e9>
    4740: ae 88 d8     	ldx	$d888                   ; 0xd888 <__heap_start+0x597c>
    4743: e0 fb        	cpx	#$fb
    4745: f0 0a        	beq	$4751 <main+0x13e9>
    4747: ae 8a d8     	ldx	$d88a                   ; 0xd88a <__heap_start+0x597e>
    474a: e0 fb        	cpx	#$fb
    474c: f0 03        	beq	$4751 <main+0x13e9>
    474e: 4c b5 48     	jmp	$48b5 <main+0x154d>
    4751: a6 49        	ldx	$49                     ; 0x49 <catSelected>
    4753: a9 00        	lda	#$0
    4755: 20 07 12     	jsr	$1207 <goUpOrDown>
    4758: 64 4a        	stz	$4a                     ; 0x4a <readyForPads>
    475a: a2 80        	ldx	#$80
    475c: 86 f3        	stx	$f3                     ; 0xf3 <__zp_bss_size+0xaf>
    475e: a2 7a        	ldx	#$7a
    4760: 86 12        	stx	$12                     ; 0x12 <__rc2>
    4762: a2 00        	ldx	#$0
    4764: 86 13        	stx	$13                     ; 0x13 <__rc3>
    4766: 20 f0 ff     	jsr	$fff0 <__heap_start+0x80e4>
    4769: 92 2a        	sta	($2a)                   ; 0x2a <__rc26>
    476b: a9 00        	lda	#$0
    476d: 6a           	ror
    476e: 85 12        	sta	$12                     ; 0x12 <__rc2>
    4770: a9 0c        	lda	#$c
    4772: 18           	clc
    4773: 72 2a        	adc	($2a)                   ; 0x2a <__rc26>
    4775: 85 4c        	sta	$4c                     ; 0x4c <padDelayTimer.1>
    4777: 64 f3        	stz	$f3                     ; 0xf3 <__zp_bss_size+0xaf>
    4779: a6 4c        	ldx	$4c                     ; 0x4c <padDelayTimer.1>
    477b: 86 f4        	stx	$f4                     ; 0xf4 <__zp_bss_size+0xb0>
    477d: a0 03        	ldy	#$3
    477f: 84 f5        	sty	$f5                     ; 0xf5 <__zp_bss_size+0xb1>
    4781: 20 f0 ff     	jsr	$fff0 <__heap_start+0x80e4>
    4784: 92 2a        	sta	($2a)                   ; 0x2a <__rc26>
    4786: a9 00        	lda	#$0
    4788: 6a           	ror
    4789: 85 12        	sta	$12                     ; 0x12 <__rc2>
    478b: 4c 4a 4f     	jmp	$4f4a <main+0x1be2>
    478e: ae 84 d8     	ldx	$d884                   ; 0xd884 <__heap_start+0x5978>
    4791: e0 fb        	cpx	#$fb
    4793: f0 18        	beq	$47ad <main+0x1445>
    4795: ae 86 d8     	ldx	$d886                   ; 0xd886 <__heap_start+0x597a>
    4798: e0 fb        	cpx	#$fb
    479a: f0 11        	beq	$47ad <main+0x1445>
    479c: ae 88 d8     	ldx	$d888                   ; 0xd888 <__heap_start+0x597c>
    479f: e0 fb        	cpx	#$fb
    47a1: f0 0a        	beq	$47ad <main+0x1445>
    47a3: ae 8a d8     	ldx	$d88a                   ; 0xd88a <__heap_start+0x597e>
    47a6: e0 fb        	cpx	#$fb
    47a8: f0 03        	beq	$47ad <main+0x1445>
    47aa: 4c 08 49     	jmp	$4908 <main+0x15a0>
    47ad: a6 49        	ldx	$49                     ; 0x49 <catSelected>
    47af: a9 00        	lda	#$0
    47b1: 84 24        	sty	$24                     ; 0x24 <__rc20>
    47b3: 20 07 12     	jsr	$1207 <goUpOrDown>
    47b6: a4 24        	ldy	$24                     ; 0x24 <__rc20>
    47b8: 64 4a        	stz	$4a                     ; 0x4a <readyForPads>
    47ba: a2 80        	ldx	#$80
    47bc: 86 f3        	stx	$f3                     ; 0xf3 <__zp_bss_size+0xaf>
    47be: a2 7a        	ldx	#$7a
    47c0: 86 12        	stx	$12                     ; 0x12 <__rc2>
    47c2: a2 00        	ldx	#$0
    47c4: 86 13        	stx	$13                     ; 0x13 <__rc3>
    47c6: 20 f0 ff     	jsr	$fff0 <__heap_start+0x80e4>
    47c9: 92 2a        	sta	($2a)                   ; 0x2a <__rc26>
    47cb: a9 00        	lda	#$0
    47cd: 6a           	ror
    47ce: 85 12        	sta	$12                     ; 0x12 <__rc2>
    47d0: a9 0c        	lda	#$c
    47d2: 18           	clc
    47d3: 72 2a        	adc	($2a)                   ; 0x2a <__rc26>
    47d5: 85 4c        	sta	$4c                     ; 0x4c <padDelayTimer.1>
    47d7: 64 f3        	stz	$f3                     ; 0xf3 <__zp_bss_size+0xaf>
    47d9: a6 4c        	ldx	$4c                     ; 0x4c <padDelayTimer.1>
    47db: 86 f4        	stx	$f4                     ; 0xf4 <__zp_bss_size+0xb0>
    47dd: 84 f5        	sty	$f5                     ; 0xf5 <__zp_bss_size+0xb1>
    47df: 20 f0 ff     	jsr	$fff0 <__heap_start+0x80e4>
    47e2: 92 2a        	sta	($2a)                   ; 0x2a <__rc26>
    47e4: a9 00        	lda	#$0
    47e6: 6a           	ror
    47e7: 85 12        	sta	$12                     ; 0x12 <__rc2>
    47e9: 4c b8 4f     	jmp	$4fb8 <main+0x1c50>
    47ec: a2 03        	ldx	#$3
    47ee: 86 01        	stx	$1                      ; 0x1 <__data_size+0x1>
    47f0: a6 16        	ldx	$16                     ; 0x16 <__rc6>
    47f2: 86 01        	stx	$1                      ; 0x1 <__data_size+0x1>
    47f4: 64 12        	stz	$12                     ; 0x12 <__rc2>
    47f6: 64 40        	stz	$40                     ; 0x40 <_col>
    47f8: 9c 14 d0     	stz	$d014                   ; 0xd014 <__heap_start+0x5108>
    47fb: 9c 15 d0     	stz	$d015                   ; 0xd015 <__heap_start+0x5109>
    47fe: 64 41        	stz	$41                     ; 0x41 <_row>
    4800: 9c 16 d0     	stz	$d016                   ; 0xd016 <__heap_start+0x510a>
    4803: 9c 17 d0     	stz	$d017                   ; 0xd017 <__heap_start+0x510b>
    4806: a2 0f        	ldx	#$f
    4808: 8e 00 d0     	stx	$d000                   ; 0xd000 <__heap_start+0x50f4>
    480b: 9c 01 d0     	stz	$d001                   ; 0xd001 <__heap_start+0x50f5>
    480e: a0 d9        	ldy	#$d9
    4810: a2 40        	ldx	#$40
    4812: 84 13        	sty	$13                     ; 0x13 <__rc3>
    4814: a9 00        	lda	#$0
    4816: 92 12        	sta	($12)                   ; 0x12 <__rc2>
    4818: ca           	dex
    4819: 18           	clc
    481a: a5 12        	lda	$12                     ; 0x12 <__rc2>
    481c: 69 08        	adc	#$8
    481e: 85 12        	sta	$12                     ; 0x12 <__rc2>
    4820: 98           	tya
    4821: 69 00        	adc	#$0
    4823: a8           	tay
    4824: 8a           	txa
    4825: d0 eb        	bne	$4812 <main+0x14aa>
    4827: 9c 00 d1     	stz	$d100                   ; 0xd100 <__heap_start+0x51f4>
    482a: 9c 08 d1     	stz	$d108                   ; 0xd108 <__heap_start+0x51fc>
    482d: 9c 10 d1     	stz	$d110                   ; 0xd110 <__heap_start+0x5204>
    4830: ad 01 d0     	lda	$d001                   ; 0xd001 <__heap_start+0x50f5>
    4833: 29 ef        	and	#$ef
    4835: 8d 01 d0     	sta	$d001                   ; 0xd001 <__heap_start+0x50f5>
    4838: 20 97 05     	jsr	$597 <killSound>
    483b: a2 7a        	ldx	#$7a
    483d: 86 12        	stx	$12                     ; 0x12 <__rc2>
    483f: a2 00        	ldx	#$0
    4841: 86 13        	stx	$13                     ; 0x13 <__rc3>
    4843: 20 18 ff     	jsr	$ff18 <__heap_start+0x800c>
    4846: 92 2a        	sta	($2a)                   ; 0x2a <__rc26>
    4848: a9 00        	lda	#$0
    484a: 6a           	ror
    484b: 85 12        	sta	$12                     ; 0x12 <__rc2>
    484d: 4c 7e 4c     	jmp	$4c7e <main+0x1916>
    4850: 64 12        	stz	$12                     ; 0x12 <__rc2>
    4852: 64 15        	stz	$15                     ; 0x15 <__rc5>
    4854: 64 14        	stz	$14                     ; 0x14 <__rc4>
    4856: 4c 94 4e     	jmp	$4e94 <main+0x1b2c>
    4859: a5 2c        	lda	$2c                     ; 0x2c <__rc28>
    485b: a0 0c        	ldy	#$c
    485d: 91 10        	sta	($10),y                 ; 0x10 <__rc0>
    485f: a5 2d        	lda	$2d                     ; 0x2d <__rc29>
    4861: c8           	iny
    4862: 91 10        	sta	($10),y                 ; 0x10 <__rc0>
    4864: a5 6d        	lda	$6d                     ; 0x6d <theOne.6>
    4866: 64 24        	stz	$24                     ; 0x24 <__rc20>
    4868: a6 71        	ldx	$71                     ; 0x71 <theOne.8>
    486a: 86 26        	stx	$26                     ; 0x26 <__rc22>
    486c: a6 72        	ldx	$72                     ; 0x72 <theOne.8+0x1>
    486e: 86 25        	stx	$25                     ; 0x25 <__rc21>
    4870: a2 19        	ldx	#$19
    4872: 86 12        	stx	$12                     ; 0x12 <__rc2>
    4874: 86 27        	stx	$27                     ; 0x27 <__rc23>
    4876: 64 13        	stz	$13                     ; 0x13 <__rc3>
    4878: a2 00        	ldx	#$0
    487a: 85 2d        	sta	$2d                     ; 0x2d <__rc29>
    487c: 20 08 6e     	jsr	$6e08 <__mulhi3>
    487f: 85 12        	sta	$12                     ; 0x12 <__rc2>
    4881: 86 13        	stx	$13                     ; 0x13 <__rc3>
    4883: a6 26        	ldx	$26                     ; 0x26 <__rc22>
    4885: 86 2c        	stx	$2c                     ; 0x2c <__rc28>
    4887: a5 26        	lda	$26                     ; 0x26 <__rc22>
    4889: 18           	clc
    488a: 65 12        	adc	$12                     ; 0x12 <__rc2>
    488c: 85 16        	sta	$16                     ; 0x16 <__rc6>
    488e: a5 25        	lda	$25                     ; 0x25 <__rc21>
    4890: 65 13        	adc	$13                     ; 0x13 <__rc3>
    4892: 85 17        	sta	$17                     ; 0x17 <__rc7>
    4894: a0 10        	ldy	#$10
    4896: b1 16        	lda	($16),y                 ; 0x16 <__rc6>
    4898: aa           	tax
    4899: c8           	iny
    489a: b1 16        	lda	($16),y                 ; 0x16 <__rc6>
    489c: e0 ff        	cpx	#$ff
    489e: d0 03        	bne	$48a3 <main+0x153b>
    48a0: 4c 5d 49     	jmp	$495d <main+0x15f5>
    48a3: 86 15        	stx	$15                     ; 0x15 <__rc5>
    48a5: 85 14        	sta	$14                     ; 0x14 <__rc4>
    48a7: a0 17        	ldy	#$17
    48a9: b1 16        	lda	($16),y                 ; 0x16 <__rc6>
    48ab: d0 03        	bne	$48b0 <main+0x1548>
    48ad: 4c 70 49     	jmp	$4970 <main+0x1608>
    48b0: a2 02        	ldx	#$2
    48b2: 4c 72 49     	jmp	$4972 <main+0x160a>
    48b5: ae 84 d8     	ldx	$d884                   ; 0xd884 <__heap_start+0x5978>
    48b8: e0 fd        	cpx	#$fd
    48ba: f0 11        	beq	$48cd <main+0x1565>
    48bc: ae 86 d8     	ldx	$d886                   ; 0xd886 <__heap_start+0x597a>
    48bf: e0 fd        	cpx	#$fd
    48c1: f0 0a        	beq	$48cd <main+0x1565>
    48c3: ae 88 d8     	ldx	$d888                   ; 0xd888 <__heap_start+0x597c>
    48c6: e0 fd        	cpx	#$fd
    48c8: f0 03        	beq	$48cd <main+0x1565>
    48ca: 4c 2f 54     	jmp	$542f <main+0x20c7>
    48cd: a5 2f        	lda	$2f                     ; 0x2f <__rc31>
    48cf: 20 17 08     	jsr	$817 <goLeftOrRight>
    48d2: 64 4a        	stz	$4a                     ; 0x4a <readyForPads>
    48d4: a2 80        	ldx	#$80
    48d6: 86 f3        	stx	$f3                     ; 0xf3 <__zp_bss_size+0xaf>
    48d8: a2 7a        	ldx	#$7a
    48da: 86 12        	stx	$12                     ; 0x12 <__rc2>
    48dc: a2 00        	ldx	#$0
    48de: 86 13        	stx	$13                     ; 0x13 <__rc3>
    48e0: 20 f0 ff     	jsr	$fff0 <__heap_start+0x80e4>
    48e3: 92 2a        	sta	($2a)                   ; 0x2a <__rc26>
    48e5: a9 00        	lda	#$0
    48e7: 6a           	ror
    48e8: 85 12        	sta	$12                     ; 0x12 <__rc2>
    48ea: a9 0c        	lda	#$c
    48ec: 18           	clc
    48ed: 72 2a        	adc	($2a)                   ; 0x2a <__rc26>
    48ef: 85 4c        	sta	$4c                     ; 0x4c <padDelayTimer.1>
    48f1: 64 f3        	stz	$f3                     ; 0xf3 <__zp_bss_size+0xaf>
    48f3: a6 4c        	ldx	$4c                     ; 0x4c <padDelayTimer.1>
    48f5: 86 f4        	stx	$f4                     ; 0xf4 <__zp_bss_size+0xb0>
    48f7: a0 03        	ldy	#$3
    48f9: 84 f5        	sty	$f5                     ; 0xf5 <__zp_bss_size+0xb1>
    48fb: 20 f0 ff     	jsr	$fff0 <__heap_start+0x80e4>
    48fe: 92 2a        	sta	($2a)                   ; 0x2a <__rc26>
    4900: a9 00        	lda	#$0
    4902: 6a           	ror
    4903: 85 12        	sta	$12                     ; 0x12 <__rc2>
    4905: 4c 4a 4f     	jmp	$4f4a <main+0x1be2>
    4908: ae 84 d8     	ldx	$d884                   ; 0xd884 <__heap_start+0x5978>
    490b: e0 fd        	cpx	#$fd
    490d: f0 11        	beq	$4920 <main+0x15b8>
    490f: ae 86 d8     	ldx	$d886                   ; 0xd886 <__heap_start+0x597a>
    4912: e0 fd        	cpx	#$fd
    4914: f0 0a        	beq	$4920 <main+0x15b8>
    4916: ae 88 d8     	ldx	$d888                   ; 0xd888 <__heap_start+0x597c>
    4919: e0 fd        	cpx	#$fd
    491b: f0 03        	beq	$4920 <main+0x15b8>
    491d: 4c 62 54     	jmp	$5462 <main+0x20fa>
    4920: a5 2f        	lda	$2f                     ; 0x2f <__rc31>
    4922: 84 24        	sty	$24                     ; 0x24 <__rc20>
    4924: 20 17 08     	jsr	$817 <goLeftOrRight>
    4927: a4 24        	ldy	$24                     ; 0x24 <__rc20>
    4929: 64 4a        	stz	$4a                     ; 0x4a <readyForPads>
    492b: a2 80        	ldx	#$80
    492d: 86 f3        	stx	$f3                     ; 0xf3 <__zp_bss_size+0xaf>
    492f: a2 7a        	ldx	#$7a
    4931: 86 12        	stx	$12                     ; 0x12 <__rc2>
    4933: a2 00        	ldx	#$0
    4935: 86 13        	stx	$13                     ; 0x13 <__rc3>
    4937: 20 f0 ff     	jsr	$fff0 <__heap_start+0x80e4>
    493a: 92 2a        	sta	($2a)                   ; 0x2a <__rc26>
    493c: a9 00        	lda	#$0
    493e: 6a           	ror
    493f: 85 12        	sta	$12                     ; 0x12 <__rc2>
    4941: a9 0c        	lda	#$c
    4943: 18           	clc
    4944: 72 2a        	adc	($2a)                   ; 0x2a <__rc26>
    4946: 85 4c        	sta	$4c                     ; 0x4c <padDelayTimer.1>
    4948: 64 f3        	stz	$f3                     ; 0xf3 <__zp_bss_size+0xaf>
    494a: a6 4c        	ldx	$4c                     ; 0x4c <padDelayTimer.1>
    494c: 86 f4        	stx	$f4                     ; 0xf4 <__zp_bss_size+0xb0>
    494e: 84 f5        	sty	$f5                     ; 0xf5 <__zp_bss_size+0xb1>
    4950: 20 f0 ff     	jsr	$fff0 <__heap_start+0x80e4>
    4953: 92 2a        	sta	($2a)                   ; 0x2a <__rc26>
    4955: a9 00        	lda	#$0
    4957: 6a           	ror
    4958: 85 12        	sta	$12                     ; 0x12 <__rc2>
    495a: 4c b8 4f     	jmp	$4fb8 <main+0x1c50>
    495d: c9 51        	cmp	#$51
    495f: d0 03        	bne	$4964 <main+0x15fc>
    4961: 4c cc 4b     	jmp	$4bcc <main+0x1864>
    4964: c9 2f        	cmp	#$2f
    4966: d0 19        	bne	$4981 <main+0x1619>
    4968: a9 01        	lda	#$1
    496a: a0 18        	ldy	#$18
    496c: 91 16        	sta	($16),y                 ; 0x16 <__rc6>
    496e: 80 11        	bra	$4981 <main+0x1619>
    4970: a2 03        	ldx	#$3
    4972: a0 12        	ldy	#$12
    4974: b1 16        	lda	($16),y                 ; 0x16 <__rc6>
    4976: 85 12        	sta	$12                     ; 0x12 <__rc2>
    4978: 86 13        	stx	$13                     ; 0x13 <__rc3>
    497a: a6 14        	ldx	$14                     ; 0x14 <__rc4>
    497c: a5 15        	lda	$15                     ; 0x15 <__rc5>
    497e: 20 ae 1b     	jsr	$1bae <sendAME>
    4981: a6 60        	ldx	$60                     ; 0x60 <theOne.0>
    4983: a4 61        	ldy	$61                     ; 0x61 <theOne.0+0x1>
    4985: d0 06        	bne	$498d <main+0x1625>
    4987: 8a           	txa
    4988: d0 03        	bne	$498d <main+0x1625>
    498a: 4c c5 4b     	jmp	$4bc5 <main+0x185d>
    498d: a9 0c        	lda	#$c
    498f: 64 2e        	stz	$2e                     ; 0x2e <__rc30>
    4991: 86 28        	stx	$28                     ; 0x28 <__rc24>
    4993: 84 2d        	sty	$2d                     ; 0x2d <__rc29>
    4995: a2 00        	ldx	#$0
    4997: a0 00        	ldy	#$0
    4999: 84 24        	sty	$24                     ; 0x24 <__rc20>
    499b: 85 29        	sta	$29                     ; 0x29 <__rc25>
    499d: 18           	clc
    499e: 65 2c        	adc	$2c                     ; 0x2c <__rc28>
    49a0: 85 12        	sta	$12                     ; 0x12 <__rc2>
    49a2: a5 2e        	lda	$2e                     ; 0x2e <__rc30>
    49a4: 65 25        	adc	$25                     ; 0x25 <__rc21>
    49a6: 85 13        	sta	$13                     ; 0x13 <__rc3>
    49a8: a0 0c        	ldy	#$c
    49aa: b1 12        	lda	($12),y                 ; 0x12 <__rc2>
    49ac: f0 09        	beq	$49b7 <main+0x164f>
    49ae: 86 14        	stx	$14                     ; 0x14 <__rc4>
    49b0: 64 13        	stz	$13                     ; 0x13 <__rc3>
    49b2: a5 29        	lda	$29                     ; 0x29 <__rc25>
    49b4: 4c 98 4a     	jmp	$4a98 <main+0x1730>
    49b7: 86 26        	stx	$26                     ; 0x26 <__rc22>
    49b9: a6 6d        	ldx	$6d                     ; 0x6d <theOne.6>
    49bb: 86 14        	stx	$14                     ; 0x14 <__rc4>
    49bd: a6 6e        	ldx	$6e                     ; 0x6e <theOne.6+0x1>
    49bf: a4 24        	ldy	$24                     ; 0x24 <__rc20>
    49c1: c4 6e        	cpy	$6e                     ; 0x6e <theOne.6+0x1>
    49c3: d0 0b        	bne	$49d0 <main+0x1668>
    49c5: 64 13        	stz	$13                     ; 0x13 <__rc3>
    49c7: a4 26        	ldy	$26                     ; 0x26 <__rc22>
    49c9: c4 14        	cpy	$14                     ; 0x14 <__rc4>
    49cb: d0 05        	bne	$49d2 <main+0x166a>
    49cd: 4c 92 4a     	jmp	$4a92 <main+0x172a>
    49d0: 64 13        	stz	$13                     ; 0x13 <__rc3>
    49d2: a4 27        	ldy	$27                     ; 0x27 <__rc23>
    49d4: 84 12        	sty	$12                     ; 0x12 <__rc2>
    49d6: a5 14        	lda	$14                     ; 0x14 <__rc4>
    49d8: 20 08 6e     	jsr	$6e08 <__mulhi3>
    49db: 85 12        	sta	$12                     ; 0x12 <__rc2>
    49dd: 86 13        	stx	$13                     ; 0x13 <__rc3>
    49df: a5 2c        	lda	$2c                     ; 0x2c <__rc28>
    49e1: a2 00        	ldx	#$0
    49e3: 86 14        	stx	$14                     ; 0x14 <__rc4>
    49e5: 18           	clc
    49e6: 65 12        	adc	$12                     ; 0x12 <__rc2>
    49e8: aa           	tax
    49e9: a4 14        	ldy	$14                     ; 0x14 <__rc4>
    49eb: 84 1b        	sty	$1b                     ; 0x1b <__rc11>
    49ed: a5 25        	lda	$25                     ; 0x25 <__rc21>
    49ef: 65 13        	adc	$13                     ; 0x13 <__rc3>
    49f1: 86 12        	stx	$12                     ; 0x12 <__rc2>
    49f3: 85 13        	sta	$13                     ; 0x13 <__rc3>
    49f5: a8           	tay
    49f6: 18           	clc
    49f7: 8a           	txa
    49f8: 69 0c        	adc	#$c
    49fa: 85 16        	sta	$16                     ; 0x16 <__rc6>
    49fc: 98           	tya
    49fd: 69 00        	adc	#$0
    49ff: 85 17        	sta	$17                     ; 0x17 <__rc7>
    4a01: a0 0c        	ldy	#$c
    4a03: b1 12        	lda	($12),y                 ; 0x12 <__rc2>
    4a05: 85 12        	sta	$12                     ; 0x12 <__rc2>
    4a07: a0 01        	ldy	#$1
    4a09: b1 16        	lda	($16),y                 ; 0x16 <__rc6>
    4a0b: 84 13        	sty	$13                     ; 0x13 <__rc3>
    4a0d: 85 18        	sta	$18                     ; 0x18 <__rc8>
    4a0f: c8           	iny
    4a10: b1 16        	lda	($16),y                 ; 0x16 <__rc6>
    4a12: 84 19        	sty	$19                     ; 0x19 <__rc9>
    4a14: 85 14        	sta	$14                     ; 0x14 <__rc4>
    4a16: c8           	iny
    4a17: b1 16        	lda	($16),y                 ; 0x16 <__rc6>
    4a19: 84 1a        	sty	$1a                     ; 0x1a <__rc10>
    4a1b: 85 15        	sta	$15                     ; 0x15 <__rc5>
    4a1d: a5 29        	lda	$29                     ; 0x29 <__rc25>
    4a1f: a6 1b        	ldx	$1b                     ; 0x1b <__rc11>
    4a21: e0 01        	cpx	#$1
    4a23: 65 2c        	adc	$2c                     ; 0x2c <__rc28>
    4a25: 85 16        	sta	$16                     ; 0x16 <__rc6>
    4a27: a5 2e        	lda	$2e                     ; 0x2e <__rc30>
    4a29: 65 25        	adc	$25                     ; 0x25 <__rc21>
    4a2b: 85 17        	sta	$17                     ; 0x17 <__rc7>
    4a2d: b2 16        	lda	($16)                   ; 0x16 <__rc6>
    4a2f: aa           	tax
    4a30: a4 13        	ldy	$13                     ; 0x13 <__rc3>
    4a32: b1 16        	lda	($16),y                 ; 0x16 <__rc6>
    4a34: 85 1b        	sta	$1b                     ; 0x1b <__rc11>
    4a36: a4 13        	ldy	$13                     ; 0x13 <__rc3>
    4a38: 84 1d        	sty	$1d                     ; 0x1d <__rc13>
    4a3a: a4 19        	ldy	$19                     ; 0x19 <__rc9>
    4a3c: 84 13        	sty	$13                     ; 0x13 <__rc3>
    4a3e: a4 19        	ldy	$19                     ; 0x19 <__rc9>
    4a40: b1 16        	lda	($16),y                 ; 0x16 <__rc6>
    4a42: a8           	tay
    4a43: 38           	sec
    4a44: 8a           	txa
    4a45: 86 19        	stx	$19                     ; 0x19 <__rc9>
    4a47: e5 12        	sbc	$12                     ; 0x12 <__rc2>
    4a49: aa           	tax
    4a4a: a5 1b        	lda	$1b                     ; 0x1b <__rc11>
    4a4c: e5 18        	sbc	$18                     ; 0x18 <__rc8>
    4a4e: 85 1e        	sta	$1e                     ; 0x1e <__rc14>
    4a50: 98           	tya
    4a51: 84 1c        	sty	$1c                     ; 0x1c <__rc12>
    4a53: e5 14        	sbc	$14                     ; 0x14 <__rc4>
    4a55: 85 1f        	sta	$1f                     ; 0x1f <__rc15>
    4a57: a4 1a        	ldy	$1a                     ; 0x1a <__rc10>
    4a59: b1 16        	lda	($16),y                 ; 0x16 <__rc6>
    4a5b: 85 23        	sta	$23                     ; 0x23 <__rc19>
    4a5d: e5 15        	sbc	$15                     ; 0x15 <__rc5>
    4a5f: 85 22        	sta	$22                     ; 0x22 <__rc18>
    4a61: 8a           	txa
    4a62: 92 16        	sta	($16)                   ; 0x16 <__rc6>
    4a64: a2 01        	ldx	#$1
    4a66: 86 2f        	stx	$2f                     ; 0x2f <__rc31>
    4a68: a4 1d        	ldy	$1d                     ; 0x1d <__rc13>
    4a6a: a5 1e        	lda	$1e                     ; 0x1e <__rc14>
    4a6c: 91 16        	sta	($16),y                 ; 0x16 <__rc6>
    4a6e: a4 13        	ldy	$13                     ; 0x13 <__rc3>
    4a70: a5 1f        	lda	$1f                     ; 0x1f <__rc15>
    4a72: 91 16        	sta	($16),y                 ; 0x16 <__rc6>
    4a74: a4 1a        	ldy	$1a                     ; 0x1a <__rc10>
    4a76: a5 22        	lda	$22                     ; 0x22 <__rc18>
    4a78: 91 16        	sta	($16),y                 ; 0x16 <__rc6>
    4a7a: a6 23        	ldx	$23                     ; 0x23 <__rc19>
    4a7c: e4 15        	cpx	$15                     ; 0x15 <__rc5>
    4a7e: d0 10        	bne	$4a90 <main+0x1728>
    4a80: a6 26        	ldx	$26                     ; 0x26 <__rc22>
    4a82: a4 24        	ldy	$24                     ; 0x24 <__rc20>
    4a84: a5 1c        	lda	$1c                     ; 0x1c <__rc12>
    4a86: c5 14        	cmp	$14                     ; 0x14 <__rc4>
    4a88: f0 03        	beq	$4a8d <main+0x1725>
    4a8a: 4c 47 4c     	jmp	$4c47 <main+0x18df>
    4a8d: 4c 35 4c     	jmp	$4c35 <main+0x18cd>
    4a90: 64 13        	stz	$13                     ; 0x13 <__rc3>
    4a92: a5 29        	lda	$29                     ; 0x29 <__rc25>
    4a94: a6 26        	ldx	$26                     ; 0x26 <__rc22>
    4a96: 86 14        	stx	$14                     ; 0x14 <__rc4>
    4a98: a4 24        	ldy	$24                     ; 0x24 <__rc20>
    4a9a: a6 14        	ldx	$14                     ; 0x14 <__rc4>
    4a9c: e8           	inx
    4a9d: d0 01        	bne	$4aa0 <main+0x1738>
    4a9f: c8           	iny
    4aa0: 18           	clc
    4aa1: 69 19        	adc	#$19
    4aa3: 85 12        	sta	$12                     ; 0x12 <__rc2>
    4aa5: a5 2e        	lda	$2e                     ; 0x2e <__rc30>
    4aa7: 69 00        	adc	#$0
    4aa9: 85 2e        	sta	$2e                     ; 0x2e <__rc30>
    4aab: c4 2d        	cpy	$2d                     ; 0x2d <__rc29>
    4aad: d0 09        	bne	$4ab8 <main+0x1750>
    4aaf: e4 28        	cpx	$28                     ; 0x28 <__rc24>
    4ab1: a5 12        	lda	$12                     ; 0x12 <__rc2>
    4ab3: b0 0c        	bcs	$4ac1 <main+0x1759>
    4ab5: 4c 99 49     	jmp	$4999 <main+0x1631>
    4ab8: c4 2d        	cpy	$2d                     ; 0x2d <__rc29>
    4aba: a5 12        	lda	$12                     ; 0x12 <__rc2>
    4abc: b0 03        	bcs	$4ac1 <main+0x1759>
    4abe: 4c 99 49     	jmp	$4999 <main+0x1631>
    4ac1: a5 6d        	lda	$6d                     ; 0x6d <theOne.6>
    4ac3: 64 24        	stz	$24                     ; 0x24 <__rc20>
    4ac5: a6 27        	ldx	$27                     ; 0x27 <__rc23>
    4ac7: 86 12        	stx	$12                     ; 0x12 <__rc2>
    4ac9: a2 00        	ldx	#$0
    4acb: 85 26        	sta	$26                     ; 0x26 <__rc22>
    4acd: 20 08 6e     	jsr	$6e08 <__mulhi3>
    4ad0: 86 12        	stx	$12                     ; 0x12 <__rc2>
    4ad2: 18           	clc
    4ad3: 65 2c        	adc	$2c                     ; 0x2c <__rc28>
    4ad5: aa           	tax
    4ad6: a5 25        	lda	$25                     ; 0x25 <__rc21>
    4ad8: 65 12        	adc	$12                     ; 0x12 <__rc2>
    4ada: 86 12        	stx	$12                     ; 0x12 <__rc2>
    4adc: 85 13        	sta	$13                     ; 0x13 <__rc3>
    4ade: a8           	tay
    4adf: 18           	clc
    4ae0: 8a           	txa
    4ae1: 69 04        	adc	#$4
    4ae3: 85 14        	sta	$14                     ; 0x14 <__rc4>
    4ae5: 98           	tya
    4ae6: 69 00        	adc	#$0
    4ae8: 85 15        	sta	$15                     ; 0x15 <__rc5>
    4aea: a0 03        	ldy	#$3
    4aec: b1 14        	lda	($14),y                 ; 0x14 <__rc4>
    4aee: d1 12        	cmp	($12),y                 ; 0x12 <__rc2>
    4af0: d0 3e        	bne	$4b30 <main+0x17c8>
    4af2: a0 02        	ldy	#$2
    4af4: b1 14        	lda	($14),y                 ; 0x14 <__rc4>
    4af6: aa           	tax
    4af7: b1 12        	lda	($12),y                 ; 0x12 <__rc2>
    4af9: 85 16        	sta	$16                     ; 0x16 <__rc6>
    4afb: a0 0c        	ldy	#$c
    4afd: b1 10        	lda	($10),y                 ; 0x10 <__rc0>
    4aff: 85 2c        	sta	$2c                     ; 0x2c <__rc28>
    4b01: c8           	iny
    4b02: b1 10        	lda	($10),y                 ; 0x10 <__rc0>
    4b04: 85 2d        	sta	$2d                     ; 0x2d <__rc29>
    4b06: e4 16        	cpx	$16                     ; 0x16 <__rc6>
    4b08: d0 46        	bne	$4b50 <main+0x17e8>
    4b0a: a0 01        	ldy	#$1
    4b0c: b1 14        	lda	($14),y                 ; 0x14 <__rc4>
    4b0e: 85 15        	sta	$15                     ; 0x15 <__rc5>
    4b10: a2 01        	ldx	#$1
    4b12: 86 2f        	stx	$2f                     ; 0x2f <__rc31>
    4b14: b1 12        	lda	($12),y                 ; 0x12 <__rc2>
    4b16: 85 14        	sta	$14                     ; 0x14 <__rc4>
    4b18: a6 15        	ldx	$15                     ; 0x15 <__rc5>
    4b1a: e4 14        	cpx	$14                     ; 0x14 <__rc4>
    4b1c: d0 0c        	bne	$4b2a <main+0x17c2>
    4b1e: a0 04        	ldy	#$4
    4b20: b1 12        	lda	($12),y                 ; 0x12 <__rc2>
    4b22: 85 15        	sta	$15                     ; 0x15 <__rc5>
    4b24: b2 12        	lda	($12)                   ; 0x12 <__rc2>
    4b26: 85 14        	sta	$14                     ; 0x14 <__rc4>
    4b28: a6 15        	ldx	$15                     ; 0x15 <__rc5>
    4b2a: e4 14        	cpx	$14                     ; 0x14 <__rc4>
    4b2c: b0 11        	bcs	$4b3f <main+0x17d7>
    4b2e: 80 24        	bra	$4b54 <main+0x17ec>
    4b30: d1 12        	cmp	($12),y                 ; 0x12 <__rc2>
    4b32: a0 0c        	ldy	#$c
    4b34: b1 10        	lda	($10),y                 ; 0x10 <__rc0>
    4b36: 85 2c        	sta	$2c                     ; 0x2c <__rc28>
    4b38: c8           	iny
    4b39: b1 10        	lda	($10),y                 ; 0x10 <__rc0>
    4b3b: 85 2d        	sta	$2d                     ; 0x2d <__rc29>
    4b3d: 90 15        	bcc	$4b54 <main+0x17ec>
    4b3f: a9 01        	lda	#$1
    4b41: a0 18        	ldy	#$18
    4b43: 91 12        	sta	($12),y                 ; 0x12 <__rc2>
    4b45: e6 6f        	inc	$6f                     ; 0x6f <theOne.7>
    4b47: d0 02        	bne	$4b4b <main+0x17e3>
    4b49: e6 70        	inc	$70                     ; 0x70 <theOne.7+0x1>
    4b4b: a5 26        	lda	$26                     ; 0x26 <__rc22>
    4b4d: 4c bd 4b     	jmp	$4bbd <main+0x1855>
    4b50: e4 16        	cpx	$16                     ; 0x16 <__rc6>
    4b52: b0 eb        	bcs	$4b3f <main+0x17d7>
    4b54: a5 26        	lda	$26                     ; 0x26 <__rc22>
    4b56: a6 26        	ldx	$26                     ; 0x26 <__rc22>
    4b58: 86 25        	stx	$25                     ; 0x25 <__rc21>
    4b5a: 20 9e 1e     	jsr	$1e9e <readDelta>
    4b5d: 85 26        	sta	$26                     ; 0x26 <__rc22>
    4b5f: 86 27        	stx	$27                     ; 0x27 <__rc23>
    4b61: a6 12        	ldx	$12                     ; 0x12 <__rc2>
    4b63: 86 28        	stx	$28                     ; 0x28 <__rc24>
    4b65: a6 13        	ldx	$13                     ; 0x13 <__rc3>
    4b67: 86 29        	stx	$29                     ; 0x29 <__rc25>
    4b69: a6 71        	ldx	$71                     ; 0x71 <theOne.8>
    4b6b: 86 2f        	stx	$2f                     ; 0x2f <__rc31>
    4b6d: a6 72        	ldx	$72                     ; 0x72 <theOne.8+0x1>
    4b6f: 86 2e        	stx	$2e                     ; 0x2e <__rc30>
    4b71: a2 19        	ldx	#$19
    4b73: 86 12        	stx	$12                     ; 0x12 <__rc2>
    4b75: 64 13        	stz	$13                     ; 0x13 <__rc3>
    4b77: a2 00        	ldx	#$0
    4b79: a5 25        	lda	$25                     ; 0x25 <__rc21>
    4b7b: 20 08 6e     	jsr	$6e08 <__mulhi3>
    4b7e: 85 12        	sta	$12                     ; 0x12 <__rc2>
    4b80: 86 13        	stx	$13                     ; 0x13 <__rc3>
    4b82: 18           	clc
    4b83: a5 2f        	lda	$2f                     ; 0x2f <__rc31>
    4b85: 65 12        	adc	$12                     ; 0x12 <__rc2>
    4b87: a8           	tay
    4b88: a5 2e        	lda	$2e                     ; 0x2e <__rc30>
    4b8a: 65 13        	adc	$13                     ; 0x13 <__rc3>
    4b8c: aa           	tax
    4b8d: 98           	tya
    4b8e: 84 12        	sty	$12                     ; 0x12 <__rc2>
    4b90: 86 13        	stx	$13                     ; 0x13 <__rc3>
    4b92: 18           	clc
    4b93: 69 0c        	adc	#$c
    4b95: 85 14        	sta	$14                     ; 0x14 <__rc4>
    4b97: 8a           	txa
    4b98: 69 00        	adc	#$0
    4b9a: 85 15        	sta	$15                     ; 0x15 <__rc5>
    4b9c: a0 0c        	ldy	#$c
    4b9e: a5 26        	lda	$26                     ; 0x26 <__rc22>
    4ba0: 91 12        	sta	($12),y                 ; 0x12 <__rc2>
    4ba2: a0 01        	ldy	#$1
    4ba4: a2 01        	ldx	#$1
    4ba6: 86 2f        	stx	$2f                     ; 0x2f <__rc31>
    4ba8: a5 27        	lda	$27                     ; 0x27 <__rc23>
    4baa: 91 14        	sta	($14),y                 ; 0x14 <__rc4>
    4bac: c8           	iny
    4bad: a5 28        	lda	$28                     ; 0x28 <__rc24>
    4baf: 91 14        	sta	($14),y                 ; 0x14 <__rc4>
    4bb1: c8           	iny
    4bb2: a5 29        	lda	$29                     ; 0x29 <__rc25>
    4bb4: 91 14        	sta	($14),y                 ; 0x14 <__rc4>
    4bb6: a5 25        	lda	$25                     ; 0x25 <__rc21>
    4bb8: 20 5f 23     	jsr	$235f <readMIDICmd>
    4bbb: a5 6d        	lda	$6d                     ; 0x6d <theOne.6>
    4bbd: 20 3a 2b     	jsr	$2b3a <exhaustZeroes>
    4bc0: 64 68        	stz	$68                     ; 0x68 <theOne.4>
    4bc2: 4c 6b 4d     	jmp	$4d6b <main+0x1a03>
    4bc5: 64 13        	stz	$13                     ; 0x13 <__rc3>
    4bc7: a5 2d        	lda	$2d                     ; 0x2d <__rc29>
    4bc9: 4c c5 4a     	jmp	$4ac5 <main+0x175d>
    4bcc: a0 13        	ldy	#$13
    4bce: b1 16        	lda	($16),y                 ; 0x16 <__rc6>
    4bd0: 85 12        	sta	$12                     ; 0x12 <__rc2>
    4bd2: c8           	iny
    4bd3: b1 16        	lda	($16),y                 ; 0x16 <__rc6>
    4bd5: 85 19        	sta	$19                     ; 0x19 <__rc9>
    4bd7: c8           	iny
    4bd8: b1 16        	lda	($16),y                 ; 0x16 <__rc6>
    4bda: a6 62        	ldx	$62                     ; 0x62 <theOne.1>
    4bdc: a4 63        	ldy	$63                     ; 0x63 <theOne.1+0x1>
    4bde: 64 13        	stz	$13                     ; 0x13 <__rc3>
    4be0: 86 14        	stx	$14                     ; 0x14 <__rc4>
    4be2: 84 15        	sty	$15                     ; 0x15 <__rc5>
    4be4: 64 16        	stz	$16                     ; 0x16 <__rc6>
    4be6: 64 17        	stz	$17                     ; 0x17 <__rc7>
    4be8: a6 19        	ldx	$19                     ; 0x19 <__rc9>
    4bea: 20 d2 6b     	jsr	$6bd2 <__udivsi3>
    4bed: 86 14        	stx	$14                     ; 0x14 <__rc4>
    4bef: 0a           	asl
    4bf0: 26 14        	rol	$14                     ; 0x14 <__rc4>
    4bf2: 26 12        	rol	$12                     ; 0x12 <__rc2>
    4bf4: 26 13        	rol	$13                     ; 0x13 <__rc3>
    4bf6: 0a           	asl
    4bf7: 85 15        	sta	$15                     ; 0x15 <__rc5>
    4bf9: 26 14        	rol	$14                     ; 0x14 <__rc4>
    4bfb: 26 12        	rol	$12                     ; 0x12 <__rc2>
    4bfd: 26 13        	rol	$13                     ; 0x13 <__rc3>
    4bff: 0a           	asl
    4c00: aa           	tax
    4c01: a5 14        	lda	$14                     ; 0x14 <__rc4>
    4c03: 2a           	rol
    4c04: a8           	tay
    4c05: a5 12        	lda	$12                     ; 0x12 <__rc2>
    4c07: 2a           	rol
    4c08: 85 16        	sta	$16                     ; 0x16 <__rc6>
    4c0a: a5 13        	lda	$13                     ; 0x13 <__rc3>
    4c0c: 2a           	rol
    4c0d: 85 17        	sta	$17                     ; 0x17 <__rc7>
    4c0f: 18           	clc
    4c10: 8a           	txa
    4c11: 65 15        	adc	$15                     ; 0x15 <__rc5>
    4c13: 85 15        	sta	$15                     ; 0x15 <__rc5>
    4c15: 98           	tya
    4c16: 65 14        	adc	$14                     ; 0x14 <__rc4>
    4c18: 85 14        	sta	$14                     ; 0x14 <__rc4>
    4c1a: a5 16        	lda	$16                     ; 0x16 <__rc6>
    4c1c: 65 12        	adc	$12                     ; 0x12 <__rc2>
    4c1e: 85 12        	sta	$12                     ; 0x12 <__rc2>
    4c20: a5 17        	lda	$17                     ; 0x17 <__rc7>
    4c22: 65 13        	adc	$13                     ; 0x13 <__rc3>
    4c24: a6 15        	ldx	$15                     ; 0x15 <__rc5>
    4c26: 86 64        	stx	$64                     ; 0x64 <theOne.2>
    4c28: a6 14        	ldx	$14                     ; 0x14 <__rc4>
    4c2a: 86 65        	stx	$65                     ; 0x65 <theOne.2+0x1>
    4c2c: a6 12        	ldx	$12                     ; 0x12 <__rc2>
    4c2e: 86 66        	stx	$66                     ; 0x66 <theOne.2+0x2>
    4c30: 85 67        	sta	$67                     ; 0x67 <theOne.2+0x3>
    4c32: 4c 81 49     	jmp	$4981 <main+0x1619>
    4c35: 86 14        	stx	$14                     ; 0x14 <__rc4>
    4c37: 64 13        	stz	$13                     ; 0x13 <__rc3>
    4c39: a5 29        	lda	$29                     ; 0x29 <__rc25>
    4c3b: a6 1b        	ldx	$1b                     ; 0x1b <__rc11>
    4c3d: e4 18        	cpx	$18                     ; 0x18 <__rc8>
    4c3f: f0 03        	beq	$4c44 <main+0x18dc>
    4c41: 4c 9a 4a     	jmp	$4a9a <main+0x1732>
    4c44: 4c 0a 54     	jmp	$540a <main+0x20a2>
    4c47: 86 14        	stx	$14                     ; 0x14 <__rc4>
    4c49: 64 13        	stz	$13                     ; 0x13 <__rc3>
    4c4b: a5 29        	lda	$29                     ; 0x29 <__rc25>
    4c4d: 4c 9a 4a     	jmp	$4a9a <main+0x1732>
    4c50: 20 97 05     	jsr	$597 <killSound>
    4c53: a6 71        	ldx	$71                     ; 0x71 <theOne.8>
    4c55: a4 72        	ldy	$72                     ; 0x72 <theOne.8+0x1>
    4c57: 86 12        	stx	$12                     ; 0x12 <__rc2>
    4c59: 84 13        	sty	$13                     ; 0x13 <__rc3>
    4c5b: 20 fb 69     	jsr	$69fb <free>
    4c5e: a2 00        	ldx	#$0
    4c60: 86 12        	stx	$12                     ; 0x12 <__rc2>
    4c62: a2 00        	ldx	#$0
    4c64: 86 13        	stx	$13                     ; 0x13 <__rc3>
    4c66: a6 12        	ldx	$12                     ; 0x12 <__rc2>
    4c68: a4 13        	ldy	$13                     ; 0x13 <__rc3>
    4c6a: 86 71        	stx	$71                     ; 0x71 <theOne.8>
    4c6c: 84 72        	sty	$72                     ; 0x72 <theOne.8+0x1>
    4c6e: 64 5f        	stz	$5f                     ; 0x5f <fudge>
    4c70: 64 3f        	stz	$3f                     ; 0x3f <doneWithFudge>
    4c72: 20 32 2e     	jsr	$2e32 <initTrack>
    4c75: 64 4b        	stz	$4b                     ; 0x4b <isJingleActive>
    4c77: 64 4e        	stz	$4e                     ; 0x4e <chipActive>
    4c79: a5 49        	lda	$49                     ; 0x49 <catSelected>
    4c7b: 20 28 07     	jsr	$728 <updateSoundStatus>
    4c7e: a0 03        	ldy	#$3
    4c80: a6 4b        	ldx	$4b                     ; 0x4b <isJingleActive>
    4c82: 8a           	txa
    4c83: d0 03        	bne	$4c88 <main+0x1920>
    4c85: 4c d1 4e     	jmp	$4ed1 <main+0x1b69>
    4c88: ad 60 d6     	lda	$d660                   ; 0xd660 <__heap_start+0x5754>
    4c8b: 29 10        	and	#$10
    4c8d: d0 03        	bne	$4c92 <main+0x192a>
    4c8f: 4c 62 4d     	jmp	$4d62 <main+0x19fa>
    4c92: a9 10        	lda	#$10
    4c94: 8d 60 d6     	sta	$d660                   ; 0xd660 <__heap_start+0x5754>
    4c97: a6 69        	ldx	$69                     ; 0x69 <theOne.5>
    4c99: 86 13        	stx	$13                     ; 0x13 <__rc3>
    4c9b: a5 6a        	lda	$6a                     ; 0x6a <theOne.5+0x1>
    4c9d: a6 6b        	ldx	$6b                     ; 0x6b <theOne.5+0x2>
    4c9f: a4 6c        	ldy	$6c                     ; 0x6c <theOne.5+0x3>
    4ca1: c0 01        	cpy	#$1
    4ca3: d0 19        	bne	$4cbe <main+0x1956>
    4ca5: 84 15        	sty	$15                     ; 0x15 <__rc5>
    4ca7: e0 00        	cpx	#$0
    4ca9: f0 03        	beq	$4cae <main+0x1946>
    4cab: 4c 10 4d     	jmp	$4d10 <main+0x19a8>
    4cae: 86 12        	stx	$12                     ; 0x12 <__rc2>
    4cb0: aa           	tax
    4cb1: f0 03        	beq	$4cb6 <main+0x194e>
    4cb3: 4c 76 51     	jmp	$5176 <main+0x1e0e>
    4cb6: a6 13        	ldx	$13                     ; 0x13 <__rc3>
    4cb8: e0 00        	cpx	#$0
    4cba: 90 0a        	bcc	$4cc6 <main+0x195e>
    4cbc: 80 58        	bra	$4d16 <main+0x19ae>
    4cbe: 86 12        	stx	$12                     ; 0x12 <__rc2>
    4cc0: 84 15        	sty	$15                     ; 0x15 <__rc5>
    4cc2: c0 01        	cpy	#$1
    4cc4: b0 50        	bcs	$4d16 <main+0x19ae>
    4cc6: a2 03        	ldx	#$3
    4cc8: a4 13        	ldy	$13                     ; 0x13 <__rc3>
    4cca: e6 15        	inc	$15                     ; 0x15 <__rc5>
    4ccc: c6 15        	dec	$15                     ; 0x15 <__rc5>
    4cce: d0 11        	bne	$4ce1 <main+0x1979>
    4cd0: e6 12        	inc	$12                     ; 0x12 <__rc2>
    4cd2: c6 12        	dec	$12                     ; 0x12 <__rc2>
    4cd4: d0 0b        	bne	$4ce1 <main+0x1979>
    4cd6: c9 00        	cmp	#$0
    4cd8: d0 07        	bne	$4ce1 <main+0x1979>
    4cda: c0 00        	cpy	#$0
    4cdc: d0 03        	bne	$4ce1 <main+0x1979>
    4cde: 4c 59 48     	jmp	$4859 <main+0x14f1>
    4ce1: 86 14        	stx	$14                     ; 0x14 <__rc4>
    4ce3: a6 12        	ldx	$12                     ; 0x12 <__rc2>
    4ce5: 86 13        	stx	$13                     ; 0x13 <__rc3>
    4ce7: a2 02        	ldx	#$2
    4ce9: 86 12        	stx	$12                     ; 0x12 <__rc2>
    4ceb: 8e 50 d6     	stx	$d650                   ; 0xd650 <__heap_start+0x5744>
    4cee: 8c 55 d6     	sty	$d655                   ; 0xd655 <__heap_start+0x5749>
    4cf1: 8d 56 d6     	sta	$d656                   ; 0xd656 <__heap_start+0x574a>
    4cf4: a6 13        	ldx	$13                     ; 0x13 <__rc3>
    4cf6: 8e 57 d6     	stx	$d657                   ; 0xd657 <__heap_start+0x574b>
    4cf9: 9c 54 d6     	stz	$d654                   ; 0xd654 <__heap_start+0x5748>
    4cfc: a6 12        	ldx	$12                     ; 0x12 <__rc2>
    4cfe: 8e 50 d6     	stx	$d650                   ; 0xd650 <__heap_start+0x5744>
    4d01: a2 89        	ldx	#$89
    4d03: 8e 50 d6     	stx	$d650                   ; 0xd650 <__heap_start+0x5744>
    4d06: 64 69        	stz	$69                     ; 0x69 <theOne.5>
    4d08: 64 6a        	stz	$6a                     ; 0x6a <theOne.5+0x1>
    4d0a: 64 6b        	stz	$6b                     ; 0x6b <theOne.5+0x2>
    4d0c: 64 6c        	stz	$6c                     ; 0x6c <theOne.5+0x3>
    4d0e: 80 50        	bra	$4d60 <main+0x19f8>
    4d10: 86 12        	stx	$12                     ; 0x12 <__rc2>
    4d12: e0 00        	cpx	#$0
    4d14: 90 b0        	bcc	$4cc6 <main+0x195e>
    4d16: a2 03        	ldx	#$3
    4d18: 85 16        	sta	$16                     ; 0x16 <__rc6>
    4d1a: 86 14        	stx	$14                     ; 0x14 <__rc4>
    4d1c: 18           	clc
    4d1d: a5 13        	lda	$13                     ; 0x13 <__rc3>
    4d1f: 69 01        	adc	#$1
    4d21: a8           	tay
    4d22: a5 16        	lda	$16                     ; 0x16 <__rc6>
    4d24: 69 00        	adc	#$0
    4d26: 85 16        	sta	$16                     ; 0x16 <__rc6>
    4d28: a5 12        	lda	$12                     ; 0x12 <__rc2>
    4d2a: 69 00        	adc	#$0
    4d2c: aa           	tax
    4d2d: a5 15        	lda	$15                     ; 0x15 <__rc5>
    4d2f: 69 ff        	adc	#$ff
    4d31: 85 12        	sta	$12                     ; 0x12 <__rc2>
    4d33: 84 69        	sty	$69                     ; 0x69 <theOne.5>
    4d35: 84 13        	sty	$13                     ; 0x13 <__rc3>
    4d37: a5 16        	lda	$16                     ; 0x16 <__rc6>
    4d39: 85 6a        	sta	$6a                     ; 0x6a <theOne.5+0x1>
    4d3b: 86 6b        	stx	$6b                     ; 0x6b <theOne.5+0x2>
    4d3d: a4 12        	ldy	$12                     ; 0x12 <__rc2>
    4d3f: 84 6c        	sty	$6c                     ; 0x6c <theOne.5+0x3>
    4d41: a0 02        	ldy	#$2
    4d43: 84 12        	sty	$12                     ; 0x12 <__rc2>
    4d45: 8c 50 d6     	sty	$d650                   ; 0xd650 <__heap_start+0x5744>
    4d48: a4 13        	ldy	$13                     ; 0x13 <__rc3>
    4d4a: 8c 55 d6     	sty	$d655                   ; 0xd655 <__heap_start+0x5749>
    4d4d: 8d 56 d6     	sta	$d656                   ; 0xd656 <__heap_start+0x574a>
    4d50: 8e 57 d6     	stx	$d657                   ; 0xd657 <__heap_start+0x574b>
    4d53: 9c 54 d6     	stz	$d654                   ; 0xd654 <__heap_start+0x5748>
    4d56: a6 12        	ldx	$12                     ; 0x12 <__rc2>
    4d58: 8e 50 d6     	stx	$d650                   ; 0xd650 <__heap_start+0x5744>
    4d5b: a2 89        	ldx	#$89
    4d5d: 8e 50 d6     	stx	$d650                   ; 0xd650 <__heap_start+0x5744>
    4d60: a4 14        	ldy	$14                     ; 0x14 <__rc4>
    4d62: a5 68        	lda	$68                     ; 0x68 <theOne.4>
    4d64: 29 01        	and	#$1
    4d66: f0 03        	beq	$4d6b <main+0x1a03>
    4d68: 4c b5 4e     	jmp	$4eb5 <main+0x1b4d>
    4d6b: a6 60        	ldx	$60                     ; 0x60 <theOne.0>
    4d6d: a4 61        	ldy	$61                     ; 0x61 <theOne.0+0x1>
    4d6f: d0 06        	bne	$4d77 <main+0x1a0f>
    4d71: 8a           	txa
    4d72: d0 03        	bne	$4d77 <main+0x1a0f>
    4d74: 4c 4c 4e     	jmp	$4e4c <main+0x1ae4>
    4d77: 86 1a        	stx	$1a                     ; 0x1a <__rc10>
    4d79: 84 1b        	sty	$1b                     ; 0x1b <__rc11>
    4d7b: a5 71        	lda	$71                     ; 0x71 <theOne.8>
    4d7d: a6 72        	ldx	$72                     ; 0x72 <theOne.8+0x1>
    4d7f: 86 12        	stx	$12                     ; 0x12 <__rc2>
    4d81: 18           	clc
    4d82: 69 0c        	adc	#$c
    4d84: aa           	tax
    4d85: a5 12        	lda	$12                     ; 0x12 <__rc2>
    4d87: 69 00        	adc	#$0
    4d89: 86 12        	stx	$12                     ; 0x12 <__rc2>
    4d8b: 85 13        	sta	$13                     ; 0x13 <__rc3>
    4d8d: a9 ff        	lda	#$ff
    4d8f: 64 1c        	stz	$1c                     ; 0x1c <__rc12>
    4d91: a2 00        	ldx	#$0
    4d93: 85 14        	sta	$14                     ; 0x14 <__rc4>
    4d95: 85 15        	sta	$15                     ; 0x15 <__rc5>
    4d97: 85 16        	sta	$16                     ; 0x16 <__rc6>
    4d99: 85 17        	sta	$17                     ; 0x17 <__rc7>
    4d9b: a0 0c        	ldy	#$c
    4d9d: b1 12        	lda	($12),y                 ; 0x12 <__rc2>
    4d9f: f0 05        	beq	$4da6 <main+0x1a3e>
    4da1: a4 1c        	ldy	$1c                     ; 0x1c <__rc12>
    4da3: 4c 0f 4e     	jmp	$4e0f <main+0x1aa7>
    4da6: b2 12        	lda	($12)                   ; 0x12 <__rc2>
    4da8: 85 1e        	sta	$1e                     ; 0x1e <__rc14>
    4daa: a0 01        	ldy	#$1
    4dac: 98           	tya
    4dad: 85 2f        	sta	$2f                     ; 0x2f <__rc31>
    4daf: b1 12        	lda	($12),y                 ; 0x12 <__rc2>
    4db1: 85 1d        	sta	$1d                     ; 0x1d <__rc13>
    4db3: c8           	iny
    4db4: b1 12        	lda	($12),y                 ; 0x12 <__rc2>
    4db6: 85 18        	sta	$18                     ; 0x18 <__rc8>
    4db8: c8           	iny
    4db9: b1 12        	lda	($12),y                 ; 0x12 <__rc2>
    4dbb: c5 17        	cmp	$17                     ; 0x17 <__rc7>
    4dbd: d0 22        	bne	$4de1 <main+0x1a79>
    4dbf: 85 19        	sta	$19                     ; 0x19 <__rc9>
    4dc1: a4 1c        	ldy	$1c                     ; 0x1c <__rc12>
    4dc3: a5 18        	lda	$18                     ; 0x18 <__rc8>
    4dc5: c5 16        	cmp	$16                     ; 0x16 <__rc6>
    4dc7: f0 03        	beq	$4dcc <main+0x1a64>
    4dc9: 4c 3c 4e     	jmp	$4e3c <main+0x1ad4>
    4dcc: a5 1d        	lda	$1d                     ; 0x1d <__rc13>
    4dce: c5 15        	cmp	$15                     ; 0x15 <__rc5>
    4dd0: f0 03        	beq	$4dd5 <main+0x1a6d>
    4dd2: 4c 45 4e     	jmp	$4e45 <main+0x1add>
    4dd5: 85 1c        	sta	$1c                     ; 0x1c <__rc12>
    4dd7: a5 1e        	lda	$1e                     ; 0x1e <__rc14>
    4dd9: c5 14        	cmp	$14                     ; 0x14 <__rc4>
    4ddb: a5 1c        	lda	$1c                     ; 0x1c <__rc12>
    4ddd: 90 0c        	bcc	$4deb <main+0x1a83>
    4ddf: 80 2e        	bra	$4e0f <main+0x1aa7>
    4de1: c5 17        	cmp	$17                     ; 0x17 <__rc7>
    4de3: a4 1c        	ldy	$1c                     ; 0x1c <__rc12>
    4de5: 85 19        	sta	$19                     ; 0x19 <__rc9>
    4de7: a5 1d        	lda	$1d                     ; 0x1d <__rc13>
    4de9: b0 24        	bcs	$4e0f <main+0x1aa7>
    4deb: 85 15        	sta	$15                     ; 0x15 <__rc5>
    4ded: a5 19        	lda	$19                     ; 0x19 <__rc9>
    4def: 85 17        	sta	$17                     ; 0x17 <__rc7>
    4df1: a5 1e        	lda	$1e                     ; 0x1e <__rc14>
    4df3: 85 69        	sta	$69                     ; 0x69 <theOne.5>
    4df5: 85 14        	sta	$14                     ; 0x14 <__rc4>
    4df7: a5 15        	lda	$15                     ; 0x15 <__rc5>
    4df9: 85 6a        	sta	$6a                     ; 0x6a <theOne.5+0x1>
    4dfb: a5 18        	lda	$18                     ; 0x18 <__rc8>
    4dfd: 85 6b        	sta	$6b                     ; 0x6b <theOne.5+0x2>
    4dff: 85 16        	sta	$16                     ; 0x16 <__rc6>
    4e01: a5 19        	lda	$19                     ; 0x19 <__rc9>
    4e03: 85 6c        	sta	$6c                     ; 0x6c <theOne.5+0x3>
    4e05: a9 01        	lda	#$1
    4e07: 85 2f        	sta	$2f                     ; 0x2f <__rc31>
    4e09: 85 68        	sta	$68                     ; 0x68 <theOne.4>
    4e0b: 84 6d        	sty	$6d                     ; 0x6d <theOne.6>
    4e0d: 86 6e        	stx	$6e                     ; 0x6e <theOne.6+0x1>
    4e0f: c8           	iny
    4e10: d0 01        	bne	$4e13 <main+0x1aab>
    4e12: e8           	inx
    4e13: 84 18        	sty	$18                     ; 0x18 <__rc8>
    4e15: 86 19        	stx	$19                     ; 0x19 <__rc9>
    4e17: a5 12        	lda	$12                     ; 0x12 <__rc2>
    4e19: 18           	clc
    4e1a: 69 19        	adc	#$19
    4e1c: 85 12        	sta	$12                     ; 0x12 <__rc2>
    4e1e: a5 13        	lda	$13                     ; 0x13 <__rc3>
    4e20: 69 00        	adc	#$0
    4e22: 85 13        	sta	$13                     ; 0x13 <__rc3>
    4e24: 84 1c        	sty	$1c                     ; 0x1c <__rc12>
    4e26: a4 1b        	ldy	$1b                     ; 0x1b <__rc11>
    4e28: c4 19        	cpy	$19                     ; 0x19 <__rc9>
    4e2a: f0 03        	beq	$4e2f <main+0x1ac7>
    4e2c: 4c 9b 4d     	jmp	$4d9b <main+0x1a33>
    4e2f: a4 18        	ldy	$18                     ; 0x18 <__rc8>
    4e31: 84 1c        	sty	$1c                     ; 0x1c <__rc12>
    4e33: a4 1a        	ldy	$1a                     ; 0x1a <__rc10>
    4e35: c4 18        	cpy	$18                     ; 0x18 <__rc8>
    4e37: f0 13        	beq	$4e4c <main+0x1ae4>
    4e39: 4c 9b 4d     	jmp	$4d9b <main+0x1a33>
    4e3c: c5 16        	cmp	$16                     ; 0x16 <__rc6>
    4e3e: a5 1d        	lda	$1d                     ; 0x1d <__rc13>
    4e40: b0 cd        	bcs	$4e0f <main+0x1aa7>
    4e42: 4c eb 4d     	jmp	$4deb <main+0x1a83>
    4e45: c5 15        	cmp	$15                     ; 0x15 <__rc5>
    4e47: b0 c6        	bcs	$4e0f <main+0x1aa7>
    4e49: 4c eb 4d     	jmp	$4deb <main+0x1a83>
    4e4c: a6 69        	ldx	$69                     ; 0x69 <theOne.5>
    4e4e: 86 12        	stx	$12                     ; 0x12 <__rc2>
    4e50: a5 6a        	lda	$6a                     ; 0x6a <theOne.5+0x1>
    4e52: a4 6b        	ldy	$6b                     ; 0x6b <theOne.5+0x2>
    4e54: a6 6c        	ldx	$6c                     ; 0x6c <theOne.5+0x3>
    4e56: d0 11        	bne	$4e69 <main+0x1b01>
    4e58: c0 00        	cpy	#$0
    4e5a: d0 0d        	bne	$4e69 <main+0x1b01>
    4e5c: c9 00        	cmp	#$0
    4e5e: d0 09        	bne	$4e69 <main+0x1b01>
    4e60: e6 12        	inc	$12                     ; 0x12 <__rc2>
    4e62: c6 12        	dec	$12                     ; 0x12 <__rc2>
    4e64: d0 03        	bne	$4e69 <main+0x1b01>
    4e66: 4c 50 48     	jmp	$4850 <main+0x14e8>
    4e69: 86 17        	stx	$17                     ; 0x17 <__rc7>
    4e6b: 84 16        	sty	$16                     ; 0x16 <__rc6>
    4e6d: a6 12        	ldx	$12                     ; 0x12 <__rc2>
    4e6f: 86 14        	stx	$14                     ; 0x14 <__rc4>
    4e71: 85 15        	sta	$15                     ; 0x15 <__rc5>
    4e73: a5 64        	lda	$64                     ; 0x64 <theOne.2>
    4e75: a6 65        	ldx	$65                     ; 0x65 <theOne.2+0x1>
    4e77: a4 66        	ldy	$66                     ; 0x66 <theOne.2+0x2>
    4e79: 84 12        	sty	$12                     ; 0x12 <__rc2>
    4e7b: a4 67        	ldy	$67                     ; 0x67 <theOne.2+0x3>
    4e7d: 84 13        	sty	$13                     ; 0x13 <__rc3>
    4e7f: 20 3a 6e     	jsr	$6e3a <__mulsi3>
    4e82: a4 12        	ldy	$12                     ; 0x12 <__rc2>
    4e84: 85 12        	sta	$12                     ; 0x12 <__rc2>
    4e86: 85 69        	sta	$69                     ; 0x69 <theOne.5>
    4e88: 86 15        	stx	$15                     ; 0x15 <__rc5>
    4e8a: 86 6a        	stx	$6a                     ; 0x6a <theOne.5+0x1>
    4e8c: 84 14        	sty	$14                     ; 0x14 <__rc4>
    4e8e: 84 6b        	sty	$6b                     ; 0x6b <theOne.5+0x2>
    4e90: a6 13        	ldx	$13                     ; 0x13 <__rc3>
    4e92: 86 6c        	stx	$6c                     ; 0x6c <theOne.5+0x3>
    4e94: a9 02        	lda	#$2
    4e96: 8d 50 d6     	sta	$d650                   ; 0xd650 <__heap_start+0x5744>
    4e99: a4 12        	ldy	$12                     ; 0x12 <__rc2>
    4e9b: 8c 55 d6     	sty	$d655                   ; 0xd655 <__heap_start+0x5749>
    4e9e: a6 15        	ldx	$15                     ; 0x15 <__rc5>
    4ea0: 8e 56 d6     	stx	$d656                   ; 0xd656 <__heap_start+0x574a>
    4ea3: a6 14        	ldx	$14                     ; 0x14 <__rc4>
    4ea5: 8e 57 d6     	stx	$d657                   ; 0xd657 <__heap_start+0x574b>
    4ea8: 9c 54 d6     	stz	$d654                   ; 0xd654 <__heap_start+0x5748>
    4eab: 8d 50 d6     	sta	$d650                   ; 0xd650 <__heap_start+0x5744>
    4eae: a2 89        	ldx	#$89
    4eb0: 8e 50 d6     	stx	$d650                   ; 0xd650 <__heap_start+0x5744>
    4eb3: a0 03        	ldy	#$3
    4eb5: a6 70        	ldx	$70                     ; 0x70 <theOne.7+0x1>
    4eb7: e4 61        	cpx	$61                     ; 0x61 <theOne.0+0x1>
    4eb9: d0 0f        	bne	$4eca <main+0x1b62>
    4ebb: a6 6f        	ldx	$6f                     ; 0x6f <theOne.7>
    4ebd: 98           	tya
    4ebe: a4 60        	ldy	$60                     ; 0x60 <theOne.0>
    4ec0: 84 12        	sty	$12                     ; 0x12 <__rc2>
    4ec2: a8           	tay
    4ec3: e4 12        	cpx	$12                     ; 0x12 <__rc2>
    4ec5: 90 0a        	bcc	$4ed1 <main+0x1b69>
    4ec7: 4c 50 4c     	jmp	$4c50 <main+0x18e8>
    4eca: e4 61        	cpx	$61                     ; 0x61 <theOne.0+0x1>
    4ecc: 90 03        	bcc	$4ed1 <main+0x1b69>
    4ece: 4c 50 4c     	jmp	$4c50 <main+0x18e8>
    4ed1: a5 4a        	lda	$4a                     ; 0x4a <readyForPads>
    4ed3: 29 01        	and	#$1
    4ed5: d0 03        	bne	$4eda <main+0x1b72>
    4ed7: 4c b8 4f     	jmp	$4fb8 <main+0x1c50>
    4eda: a2 81        	ldx	#$81
    4edc: 8e 80 d8     	stx	$d880                   ; 0xd880 <__heap_start+0x5974>
    4edf: ea           	nop
    4ee0: ea           	nop
    4ee1: a0 01        	ldy	#$1
    4ee3: a2 01        	ldx	#$1
    4ee5: 86 2f        	stx	$2f                     ; 0x2f <__rc31>
    4ee7: 8c 80 d8     	sty	$d880                   ; 0xd880 <__heap_start+0x5974>
    4eea: ad 80 d8     	lda	$d880                   ; 0xd880 <__heap_start+0x5974>
    4eed: 29 40        	and	#$40
    4eef: f0 f9        	beq	$4eea <main+0x1b82>
    4ef1: ae 84 d8     	ldx	$d884                   ; 0xd884 <__heap_start+0x5978>
    4ef4: e0 f7        	cpx	#$f7
    4ef6: f0 18        	beq	$4f10 <main+0x1ba8>
    4ef8: ae 86 d8     	ldx	$d886                   ; 0xd886 <__heap_start+0x597a>
    4efb: e0 f7        	cpx	#$f7
    4efd: f0 11        	beq	$4f10 <main+0x1ba8>
    4eff: ae 88 d8     	ldx	$d888                   ; 0xd888 <__heap_start+0x597c>
    4f02: e0 f7        	cpx	#$f7
    4f04: f0 0a        	beq	$4f10 <main+0x1ba8>
    4f06: ae 8a d8     	ldx	$d88a                   ; 0xd88a <__heap_start+0x597e>
    4f09: e0 f7        	cpx	#$f7
    4f0b: f0 03        	beq	$4f10 <main+0x1ba8>
    4f0d: 4c 32 47     	jmp	$4732 <main+0x13ca>
    4f10: a6 49        	ldx	$49                     ; 0x49 <catSelected>
    4f12: a5 2f        	lda	$2f                     ; 0x2f <__rc31>
    4f14: 20 07 12     	jsr	$1207 <goUpOrDown>
    4f17: 64 4a        	stz	$4a                     ; 0x4a <readyForPads>
    4f19: a2 80        	ldx	#$80
    4f1b: 86 f3        	stx	$f3                     ; 0xf3 <__zp_bss_size+0xaf>
    4f1d: a2 7a        	ldx	#$7a
    4f1f: 86 12        	stx	$12                     ; 0x12 <__rc2>
    4f21: a2 00        	ldx	#$0
    4f23: 86 13        	stx	$13                     ; 0x13 <__rc3>
    4f25: 20 f0 ff     	jsr	$fff0 <__heap_start+0x80e4>
    4f28: 92 2a        	sta	($2a)                   ; 0x2a <__rc26>
    4f2a: a9 00        	lda	#$0
    4f2c: 6a           	ror
    4f2d: 85 12        	sta	$12                     ; 0x12 <__rc2>
    4f2f: a9 0c        	lda	#$c
    4f31: 18           	clc
    4f32: 72 2a        	adc	($2a)                   ; 0x2a <__rc26>
    4f34: 85 4c        	sta	$4c                     ; 0x4c <padDelayTimer.1>
    4f36: 64 f3        	stz	$f3                     ; 0xf3 <__zp_bss_size+0xaf>
    4f38: a6 4c        	ldx	$4c                     ; 0x4c <padDelayTimer.1>
    4f3a: 86 f4        	stx	$f4                     ; 0xf4 <__zp_bss_size+0xb0>
    4f3c: a0 03        	ldy	#$3
    4f3e: 84 f5        	sty	$f5                     ; 0xf5 <__zp_bss_size+0xb1>
    4f40: 20 f0 ff     	jsr	$fff0 <__heap_start+0x80e4>
    4f43: 92 2a        	sta	($2a)                   ; 0x2a <__rc26>
    4f45: a9 00        	lda	#$0
    4f47: 6a           	ror
    4f48: 85 12        	sta	$12                     ; 0x12 <__rc2>
    4f4a: a2 85        	ldx	#$85
    4f4c: 8e 80 d8     	stx	$d880                   ; 0xd880 <__heap_start+0x5974>
    4f4f: ea           	nop
    4f50: ea           	nop
    4f51: a2 05        	ldx	#$5
    4f53: 8e 80 d8     	stx	$d880                   ; 0xd880 <__heap_start+0x5974>
    4f56: ad 80 d8     	lda	$d880                   ; 0xd880 <__heap_start+0x5974>
    4f59: 29 40        	and	#$40
    4f5b: f0 f9        	beq	$4f56 <main+0x1bee>
    4f5d: ae 84 d8     	ldx	$d884                   ; 0xd884 <__heap_start+0x5978>
    4f60: e0 f7        	cpx	#$f7
    4f62: f0 18        	beq	$4f7c <main+0x1c14>
    4f64: ae 86 d8     	ldx	$d886                   ; 0xd886 <__heap_start+0x597a>
    4f67: e0 f7        	cpx	#$f7
    4f69: f0 11        	beq	$4f7c <main+0x1c14>
    4f6b: ae 88 d8     	ldx	$d888                   ; 0xd888 <__heap_start+0x597c>
    4f6e: e0 f7        	cpx	#$f7
    4f70: f0 0a        	beq	$4f7c <main+0x1c14>
    4f72: ae 8a d8     	ldx	$d88a                   ; 0xd88a <__heap_start+0x597e>
    4f75: e0 f7        	cpx	#$f7
    4f77: f0 03        	beq	$4f7c <main+0x1c14>
    4f79: 4c 8e 47     	jmp	$478e <main+0x1426>
    4f7c: a6 49        	ldx	$49                     ; 0x49 <catSelected>
    4f7e: a5 2f        	lda	$2f                     ; 0x2f <__rc31>
    4f80: 84 24        	sty	$24                     ; 0x24 <__rc20>
    4f82: 20 07 12     	jsr	$1207 <goUpOrDown>
    4f85: a4 24        	ldy	$24                     ; 0x24 <__rc20>
    4f87: 64 4a        	stz	$4a                     ; 0x4a <readyForPads>
    4f89: a2 80        	ldx	#$80
    4f8b: 86 f3        	stx	$f3                     ; 0xf3 <__zp_bss_size+0xaf>
    4f8d: a2 7a        	ldx	#$7a
    4f8f: 86 12        	stx	$12                     ; 0x12 <__rc2>
    4f91: a2 00        	ldx	#$0
    4f93: 86 13        	stx	$13                     ; 0x13 <__rc3>
    4f95: 20 f0 ff     	jsr	$fff0 <__heap_start+0x80e4>
    4f98: 92 2a        	sta	($2a)                   ; 0x2a <__rc26>
    4f9a: a9 00        	lda	#$0
    4f9c: 6a           	ror
    4f9d: 85 12        	sta	$12                     ; 0x12 <__rc2>
    4f9f: a9 0c        	lda	#$c
    4fa1: 18           	clc
    4fa2: 72 2a        	adc	($2a)                   ; 0x2a <__rc26>
    4fa4: 85 4c        	sta	$4c                     ; 0x4c <padDelayTimer.1>
    4fa6: 64 f3        	stz	$f3                     ; 0xf3 <__zp_bss_size+0xaf>
    4fa8: a6 4c        	ldx	$4c                     ; 0x4c <padDelayTimer.1>
    4faa: 86 f4        	stx	$f4                     ; 0xf4 <__zp_bss_size+0xb0>
    4fac: 84 f5        	sty	$f5                     ; 0xf5 <__zp_bss_size+0xb1>
    4fae: 20 f0 ff     	jsr	$fff0 <__heap_start+0x80e4>
    4fb1: 92 2a        	sta	($2a)                   ; 0x2a <__rc26>
    4fb3: a9 00        	lda	#$0
    4fb5: 6a           	ror
    4fb6: 85 12        	sta	$12                     ; 0x12 <__rc2>
    4fb8: 64 73        	stz	$73                     ; 0x73 <kernelEventData>
    4fba: a2 7a        	ldx	#$7a
    4fbc: 86 12        	stx	$12                     ; 0x12 <__rc2>
    4fbe: a2 00        	ldx	#$0
    4fc0: 86 13        	stx	$13                     ; 0x13 <__rc3>
    4fc2: 20 00 ff     	jsr	$ff00 <__heap_start+0x7ff4>
    4fc5: 92 2a        	sta	($2a)                   ; 0x2a <__rc26>
    4fc7: a9 00        	lda	#$0
    4fc9: 6a           	ror
    4fca: 85 12        	sta	$12                     ; 0x12 <__rc2>
    4fcc: a6 73        	ldx	$73                     ; 0x73 <kernelEventData>
    4fce: e0 52        	cpx	#$52
    4fd0: d0 03        	bne	$4fd5 <main+0x1c6d>
    4fd2: 4c 54 51     	jmp	$5154 <main+0x1dec>
    4fd5: e0 08        	cpx	#$8
    4fd7: f0 03        	beq	$4fdc <main+0x1c74>
    4fd9: 4c 80 4c     	jmp	$4c80 <main+0x1918>
    4fdc: a6 77        	ldx	$77                     ; 0x77 <kernelEventData+0x4>
    4fde: e0 31        	cpx	#$31
    4fe0: f0 03        	beq	$4fe5 <main+0x1c7d>
    4fe2: 4c d0 50     	jmp	$50d0 <main+0x1d68>
    4fe5: 20 97 05     	jsr	$597 <killSound>
    4fe8: a2 02        	ldx	#$2
    4fea: 86 4f        	stx	$4f                     ; 0x4f <chipXChannel>
    4fec: a2 12        	ldx	#$12
    4fee: 86 50        	stx	$50                     ; 0x50 <chipXChannel+0x1>
    4ff0: a2 22        	ldx	#$22
    4ff2: 86 51        	stx	$51                     ; 0x51 <chipXChannel+0x2>
    4ff4: a2 32        	ldx	#$32
    4ff6: 86 52        	stx	$52                     ; 0x52 <chipXChannel+0x3>
    4ff8: a2 42        	ldx	#$42
    4ffa: 86 53        	stx	$53                     ; 0x53 <chipXChannel+0x4>
    4ffc: a2 52        	ldx	#$52
    4ffe: 86 54        	stx	$54                     ; 0x54 <chipXChannel+0x5>
    5000: a2 55        	ldx	#$55
    5002: 86 12        	stx	$12                     ; 0x12 <__rc2>
    5004: a2 00        	ldx	#$0
    5006: 86 13        	stx	$13                     ; 0x13 <__rc3>
    5008: 64 14        	stz	$14                     ; 0x14 <__rc4>
    500a: a2 0a        	ldx	#$a
    500c: a9 ff        	lda	#$ff
    500e: 20 b2 6b     	jsr	$6bb2 <__memset>
    5011: a0 01        	ldy	#$1
    5013: 84 4b        	sty	$4b                     ; 0x4b <isJingleActive>
    5015: a2 01        	ldx	#$1
    5017: 86 2f        	stx	$2f                     ; 0x2f <__rc31>
    5019: 84 4e        	sty	$4e                     ; 0x4e <chipActive>
    501b: a5 49        	lda	$49                     ; 0x49 <catSelected>
    501d: 20 28 07     	jsr	$728 <updateSoundStatus>
    5020: a6 77        	ldx	$77                     ; 0x77 <kernelEventData+0x4>
    5022: e0 32        	cpx	#$32
    5024: d0 03        	bne	$5029 <main+0x1cc1>
    5026: 4c d7 50     	jmp	$50d7 <main+0x1d6f>
    5029: e0 33        	cpx	#$33
    502b: f0 03        	beq	$5030 <main+0x1cc8>
    502d: 4c 1c 51     	jmp	$511c <main+0x1db4>
    5030: 20 97 05     	jsr	$597 <killSound>
    5033: a9 03        	lda	#$3
    5035: 85 4f        	sta	$4f                     ; 0x4f <chipXChannel>
    5037: a2 13        	ldx	#$13
    5039: 86 50        	stx	$50                     ; 0x50 <chipXChannel+0x1>
    503b: a2 23        	ldx	#$23
    503d: 86 51        	stx	$51                     ; 0x51 <chipXChannel+0x2>
    503f: a2 33        	ldx	#$33
    5041: 86 52        	stx	$52                     ; 0x52 <chipXChannel+0x3>
    5043: a2 43        	ldx	#$43
    5045: 86 53        	stx	$53                     ; 0x53 <chipXChannel+0x4>
    5047: a2 53        	ldx	#$53
    5049: 86 54        	stx	$54                     ; 0x54 <chipXChannel+0x5>
    504b: a2 63        	ldx	#$63
    504d: 86 55        	stx	$55                     ; 0x55 <chipXChannel+0x6>
    504f: a2 73        	ldx	#$73
    5051: 86 56        	stx	$56                     ; 0x56 <chipXChannel+0x7>
    5053: a2 ff        	ldx	#$ff
    5055: 86 57        	stx	$57                     ; 0x57 <chipXChannel+0x8>
    5057: 86 58        	stx	$58                     ; 0x58 <chipXChannel+0x9>
    5059: 86 59        	stx	$59                     ; 0x59 <chipXChannel+0xa>
    505b: 86 5a        	stx	$5a                     ; 0x5a <chipXChannel+0xb>
    505d: 86 5b        	stx	$5b                     ; 0x5b <chipXChannel+0xc>
    505f: 86 5c        	stx	$5c                     ; 0x5c <chipXChannel+0xd>
    5061: 86 5d        	stx	$5d                     ; 0x5d <chipXChannel+0xe>
    5063: 86 5e        	stx	$5e                     ; 0x5e <chipXChannel+0xf>
    5065: a0 01        	ldy	#$1
    5067: a2 01        	ldx	#$1
    5069: 86 2f        	stx	$2f                     ; 0x2f <__rc31>
    506b: 84 4b        	sty	$4b                     ; 0x4b <isJingleActive>
    506d: 85 4e        	sta	$4e                     ; 0x4e <chipActive>
    506f: a5 49        	lda	$49                     ; 0x49 <catSelected>
    5071: 20 28 07     	jsr	$728 <updateSoundStatus>
    5074: a6 77        	ldx	$77                     ; 0x77 <kernelEventData+0x4>
    5076: e0 34        	cpx	#$34
    5078: d0 03        	bne	$507d <main+0x1d15>
    507a: 4c 23 51     	jmp	$5123 <main+0x1dbb>
    507d: e0 83        	cpx	#$83
    507f: d0 30        	bne	$50b1 <main+0x1d49>
    5081: 20 97 05     	jsr	$597 <killSound>
    5084: a6 71        	ldx	$71                     ; 0x71 <theOne.8>
    5086: a4 72        	ldy	$72                     ; 0x72 <theOne.8+0x1>
    5088: 86 12        	stx	$12                     ; 0x12 <__rc2>
    508a: 84 13        	sty	$13                     ; 0x13 <__rc3>
    508c: 20 fb 69     	jsr	$69fb <free>
    508f: a2 00        	ldx	#$0
    5091: 86 12        	stx	$12                     ; 0x12 <__rc2>
    5093: a2 00        	ldx	#$0
    5095: 86 13        	stx	$13                     ; 0x13 <__rc3>
    5097: a6 12        	ldx	$12                     ; 0x12 <__rc2>
    5099: a4 13        	ldy	$13                     ; 0x13 <__rc3>
    509b: 86 71        	stx	$71                     ; 0x71 <theOne.8>
    509d: 84 72        	sty	$72                     ; 0x72 <theOne.8+0x1>
    509f: 64 5f        	stz	$5f                     ; 0x5f <fudge>
    50a1: 64 3f        	stz	$3f                     ; 0x3f <doneWithFudge>
    50a3: 20 32 2e     	jsr	$2e32 <initTrack>
    50a6: 64 4b        	stz	$4b                     ; 0x4b <isJingleActive>
    50a8: 64 4e        	stz	$4e                     ; 0x4e <chipActive>
    50aa: a5 49        	lda	$49                     ; 0x49 <catSelected>
    50ac: 20 28 07     	jsr	$728 <updateSoundStatus>
    50af: a6 77        	ldx	$77                     ; 0x77 <kernelEventData+0x4>
    50b1: a0 03        	ldy	#$3
    50b3: e0 92        	cpx	#$92
    50b5: d0 03        	bne	$50ba <main+0x1d52>
    50b7: 4c 8e 45     	jmp	$458e <main+0x1226>
    50ba: e0 20        	cpx	#$20
    50bc: f0 03        	beq	$50c1 <main+0x1d59>
    50be: 4c 88 51     	jmp	$5188 <main+0x1e20>
    50c1: 20 97 05     	jsr	$597 <killSound>
    50c4: a6 4b        	ldx	$4b                     ; 0x4b <isJingleActive>
    50c6: f0 03        	beq	$50cb <main+0x1d63>
    50c8: 4c 80 51     	jmp	$5180 <main+0x1e18>
    50cb: a2 01        	ldx	#$1
    50cd: 4c 82 51     	jmp	$5182 <main+0x1e1a>
    50d0: e0 32        	cpx	#$32
    50d2: f0 03        	beq	$50d7 <main+0x1d6f>
    50d4: 4c 29 50     	jmp	$5029 <main+0x1cc1>
    50d7: 20 97 05     	jsr	$597 <killSound>
    50da: a2 0f        	ldx	#$f
    50dc: 86 4f        	stx	$4f                     ; 0x4f <chipXChannel>
    50de: a2 11        	ldx	#$11
    50e0: 86 50        	stx	$50                     ; 0x50 <chipXChannel+0x1>
    50e2: a2 21        	ldx	#$21
    50e4: 86 51        	stx	$51                     ; 0x51 <chipXChannel+0x2>
    50e6: a2 31        	ldx	#$31
    50e8: 86 52        	stx	$52                     ; 0x52 <chipXChannel+0x3>
    50ea: a2 41        	ldx	#$41
    50ec: 86 53        	stx	$53                     ; 0x53 <chipXChannel+0x4>
    50ee: a2 51        	ldx	#$51
    50f0: 86 54        	stx	$54                     ; 0x54 <chipXChannel+0x5>
    50f2: a2 55        	ldx	#$55
    50f4: 86 12        	stx	$12                     ; 0x12 <__rc2>
    50f6: a2 00        	ldx	#$0
    50f8: 86 13        	stx	$13                     ; 0x13 <__rc3>
    50fa: 64 14        	stz	$14                     ; 0x14 <__rc4>
    50fc: a2 0a        	ldx	#$a
    50fe: a9 ff        	lda	#$ff
    5100: 20 b2 6b     	jsr	$6bb2 <__memset>
    5103: a0 01        	ldy	#$1
    5105: a2 01        	ldx	#$1
    5107: 86 2f        	stx	$2f                     ; 0x2f <__rc31>
    5109: 84 4b        	sty	$4b                     ; 0x4b <isJingleActive>
    510b: e8           	inx
    510c: 86 4e        	stx	$4e                     ; 0x4e <chipActive>
    510e: a5 49        	lda	$49                     ; 0x49 <catSelected>
    5110: 20 28 07     	jsr	$728 <updateSoundStatus>
    5113: a6 77        	ldx	$77                     ; 0x77 <kernelEventData+0x4>
    5115: e0 33        	cpx	#$33
    5117: d0 03        	bne	$511c <main+0x1db4>
    5119: 4c 30 50     	jmp	$5030 <main+0x1cc8>
    511c: e0 34        	cpx	#$34
    511e: f0 03        	beq	$5123 <main+0x1dbb>
    5120: 4c 7d 50     	jmp	$507d <main+0x1d15>
    5123: 20 97 05     	jsr	$597 <killSound>
    5126: a2 4f        	ldx	#$4f
    5128: 86 12        	stx	$12                     ; 0x12 <__rc2>
    512a: a2 00        	ldx	#$0
    512c: 86 13        	stx	$13                     ; 0x13 <__rc3>
    512e: 64 14        	stz	$14                     ; 0x14 <__rc4>
    5130: a2 10        	ldx	#$10
    5132: a9 00        	lda	#$0
    5134: 20 b2 6b     	jsr	$6bb2 <__memset>
    5137: a0 01        	ldy	#$1
    5139: a2 01        	ldx	#$1
    513b: 86 2f        	stx	$2f                     ; 0x2f <__rc31>
    513d: 84 4b        	sty	$4b                     ; 0x4b <isJingleActive>
    513f: a2 04        	ldx	#$4
    5141: 86 4e        	stx	$4e                     ; 0x4e <chipActive>
    5143: a5 49        	lda	$49                     ; 0x49 <catSelected>
    5145: 20 28 07     	jsr	$728 <updateSoundStatus>
    5148: a6 77        	ldx	$77                     ; 0x77 <kernelEventData+0x4>
    514a: e0 83        	cpx	#$83
    514c: d0 03        	bne	$5151 <main+0x1de9>
    514e: 4c 81 50     	jmp	$5081 <main+0x1d19>
    5151: 4c b1 50     	jmp	$50b1 <main+0x1d49>
    5154: a6 77        	ldx	$77                     ; 0x77 <kernelEventData+0x4>
    5156: e0 03        	cpx	#$3
    5158: f0 0f        	beq	$5169 <main+0x1e01>
    515a: e0 01        	cpx	#$1
    515c: f0 03        	beq	$5161 <main+0x1df9>
    515e: 4c 80 4c     	jmp	$4c80 <main+0x1918>
    5161: a2 9f        	ldx	#$9f
    5163: 8e 08 d6     	stx	$d608                   ; 0xd608 <__heap_start+0x56fc>
    5166: 4c 80 4c     	jmp	$4c80 <main+0x1918>
    5169: 98           	tya
    516a: a0 01        	ldy	#$1
    516c: a2 01        	ldx	#$1
    516e: 86 2f        	stx	$2f                     ; 0x2f <__rc31>
    5170: 84 4a        	sty	$4a                     ; 0x4a <readyForPads>
    5172: a8           	tay
    5173: 4c 80 4c     	jmp	$4c80 <main+0x1918>
    5176: c9 00        	cmp	#$0
    5178: b0 03        	bcs	$517d <main+0x1e15>
    517a: 4c c6 4c     	jmp	$4cc6 <main+0x195e>
    517d: 4c 16 4d     	jmp	$4d16 <main+0x19ae>
    5180: a2 00        	ldx	#$0
    5182: 86 4b        	stx	$4b                     ; 0x4b <isJingleActive>
    5184: a6 77        	ldx	$77                     ; 0x77 <kernelEventData+0x4>
    5186: a0 03        	ldy	#$3
    5188: e0 b7        	cpx	#$b7
    518a: f0 03        	beq	$518f <main+0x1e27>
    518c: 4c 5a 45     	jmp	$455a <main+0x11f2>
    518f: a6 49        	ldx	$49                     ; 0x49 <catSelected>
    5191: a9 00        	lda	#$0
    5193: 84 24        	sty	$24                     ; 0x24 <__rc20>
    5195: 20 07 12     	jsr	$1207 <goUpOrDown>
    5198: a4 24        	ldy	$24                     ; 0x24 <__rc20>
    519a: a6 77        	ldx	$77                     ; 0x77 <kernelEventData+0x4>
    519c: e0 b6        	cpx	#$b6
    519e: d0 03        	bne	$51a3 <main+0x1e3b>
    51a0: 4c 61 45     	jmp	$4561 <main+0x11f9>
    51a3: e0 b8        	cpx	#$b8
    51a5: f0 03        	beq	$51aa <main+0x1e42>
    51a7: 4c 75 45     	jmp	$4575 <main+0x120d>
    51aa: a5 2f        	lda	$2f                     ; 0x2f <__rc31>
    51ac: 84 24        	sty	$24                     ; 0x24 <__rc20>
    51ae: 20 17 08     	jsr	$817 <goLeftOrRight>
    51b1: a4 24        	ldy	$24                     ; 0x24 <__rc20>
    51b3: a6 77        	ldx	$77                     ; 0x77 <kernelEventData+0x4>
    51b5: e0 b9        	cpx	#$b9
    51b7: d0 03        	bne	$51bc <main+0x1e54>
    51b9: 4c 7c 45     	jmp	$457c <main+0x1214>
    51bc: e0 62        	cpx	#$62
    51be: d0 03        	bne	$51c3 <main+0x1e5b>
    51c0: 4c 8e 45     	jmp	$458e <main+0x1226>
    51c3: e0 66        	cpx	#$66
    51c5: d0 03        	bne	$51ca <main+0x1e62>
    51c7: 4c 2f 46     	jmp	$462f <main+0x12c7>
    51ca: e0 94        	cpx	#$94
    51cc: f0 03        	beq	$51d1 <main+0x1e69>
    51ce: 4c 80 4c     	jmp	$4c80 <main+0x1918>
    51d1: 64 fb        	stz	$fb                     ; 0xfb <__zp_bss_size+0xb7>
    51d3: a0 02        	ldy	#$2
    51d5: 84 fc        	sty	$fc                     ; 0xfc <__zp_bss_size+0xb8>
    51d7: 84 fd        	sty	$fd                     ; 0xfd <__zp_bss_size+0xb9>
    51d9: a2 80        	ldx	#$80
    51db: 86 f8        	stx	$f8                     ; 0xf8 <__zp_bss_size+0xb4>
    51dd: 84 f9        	sty	$f9                     ; 0xf9 <__zp_bss_size+0xb5>
    51df: a2 04        	ldx	#$4
    51e1: 86 fa        	stx	$fa                     ; 0xfa <__zp_bss_size+0xb6>
    51e3: a5 49        	lda	$49                     ; 0x49 <catSelected>
    51e5: a2 75        	ldx	#$75
    51e7: a0 04        	ldy	#$4
    51e9: 86 12        	stx	$12                     ; 0x12 <__rc2>
    51eb: 84 13        	sty	$13                     ; 0x13 <__rc3>
    51ed: a2 00        	ldx	#$0
    51ef: 85 24        	sta	$24                     ; 0x24 <__rc20>
    51f1: 20 08 6e     	jsr	$6e08 <__mulhi3>
    51f4: 85 12        	sta	$12                     ; 0x12 <__rc2>
    51f6: 86 13        	stx	$13                     ; 0x13 <__rc3>
    51f8: a9 ac        	lda	#$ac
    51fa: 18           	clc
    51fb: 65 12        	adc	$12                     ; 0x12 <__rc2>
    51fd: 85 25        	sta	$25                     ; 0x25 <__rc21>
    51ff: a9 71        	lda	#$71
    5201: 65 13        	adc	$13                     ; 0x13 <__rc3>
    5203: 85 27        	sta	$27                     ; 0x27 <__rc23>
    5205: a5 48        	lda	$48                     ; 0x48 <selected>
    5207: a2 5f        	ldx	#$5f
    5209: 86 12        	stx	$12                     ; 0x12 <__rc2>
    520b: 64 13        	stz	$13                     ; 0x13 <__rc3>
    520d: a2 00        	ldx	#$0
    520f: 85 26        	sta	$26                     ; 0x26 <__rc22>
    5211: 20 08 6e     	jsr	$6e08 <__mulhi3>
    5214: 85 12        	sta	$12                     ; 0x12 <__rc2>
    5216: 86 13        	stx	$13                     ; 0x13 <__rc3>
    5218: a5 25        	lda	$25                     ; 0x25 <__rc21>
    521a: 18           	clc
    521b: 65 12        	adc	$12                     ; 0x12 <__rc2>
    521d: 85 12        	sta	$12                     ; 0x12 <__rc2>
    521f: a5 27        	lda	$27                     ; 0x27 <__rc23>
    5221: 65 13        	adc	$13                     ; 0x13 <__rc3>
    5223: 85 13        	sta	$13                     ; 0x13 <__rc3>
    5225: a0 37        	ldy	#$37
    5227: b1 12        	lda	($12),y                 ; 0x12 <__rc2>
    5229: aa           	tax
    522a: b1 12        	lda	($12),y                 ; 0x12 <__rc2>
    522c: 8d 02 02     	sta	$202                    ; 0x202 <__zp_bss_size+0x1be>
    522f: a0 0a        	ldy	#$a
    5231: b1 10        	lda	($10),y                 ; 0x10 <__rc0>
    5233: 85 28        	sta	$28                     ; 0x28 <__rc24>
    5235: c8           	iny
    5236: b1 10        	lda	($10),y                 ; 0x10 <__rc0>
    5238: 85 29        	sta	$29                     ; 0x29 <__rc25>
    523a: 8a           	txa
    523b: d0 03        	bne	$5240 <main+0x1ed8>
    523d: 4c a2 52     	jmp	$52a2 <main+0x1f3a>
    5240: a2 75        	ldx	#$75
    5242: a0 04        	ldy	#$4
    5244: 86 12        	stx	$12                     ; 0x12 <__rc2>
    5246: 84 13        	sty	$13                     ; 0x13 <__rc3>
    5248: a2 00        	ldx	#$0
    524a: a5 24        	lda	$24                     ; 0x24 <__rc20>
    524c: 20 08 6e     	jsr	$6e08 <__mulhi3>
    524f: 85 24        	sta	$24                     ; 0x24 <__rc20>
    5251: 86 25        	stx	$25                     ; 0x25 <__rc21>
    5253: a2 5f        	ldx	#$5f
    5255: 64 13        	stz	$13                     ; 0x13 <__rc3>
    5257: 86 12        	stx	$12                     ; 0x12 <__rc2>
    5259: a2 00        	ldx	#$0
    525b: a5 26        	lda	$26                     ; 0x26 <__rc22>
    525d: 20 08 6e     	jsr	$6e08 <__mulhi3>
    5260: 85 12        	sta	$12                     ; 0x12 <__rc2>
    5262: 86 13        	stx	$13                     ; 0x13 <__rc3>
    5264: a9 ac        	lda	#$ac
    5266: a0 00        	ldy	#$0
    5268: 18           	clc
    5269: 65 24        	adc	$24                     ; 0x24 <__rc20>
    526b: aa           	tax
    526c: a9 71        	lda	#$71
    526e: 65 25        	adc	$25                     ; 0x25 <__rc21>
    5270: 85 14        	sta	$14                     ; 0x14 <__rc4>
    5272: 8a           	txa
    5273: 18           	clc
    5274: 65 12        	adc	$12                     ; 0x12 <__rc2>
    5276: 85 15        	sta	$15                     ; 0x15 <__rc5>
    5278: a5 14        	lda	$14                     ; 0x14 <__rc4>
    527a: 65 13        	adc	$13                     ; 0x13 <__rc3>
    527c: 85 12        	sta	$12                     ; 0x12 <__rc2>
    527e: 18           	clc
    527f: a5 15        	lda	$15                     ; 0x15 <__rc5>
    5281: 69 38        	adc	#$38
    5283: aa           	tax
    5284: a5 12        	lda	$12                     ; 0x12 <__rc2>
    5286: 69 00        	adc	#$0
    5288: 85 13        	sta	$13                     ; 0x13 <__rc3>
    528a: 86 12        	stx	$12                     ; 0x12 <__rc2>
    528c: b2 12        	lda	($12)                   ; 0x12 <__rc2>
    528e: aa           	tax
    528f: b2 12        	lda	($12)                   ; 0x12 <__rc2>
    5291: 92 28        	sta	($28)                   ; 0x28 <__rc24>
    5293: e6 28        	inc	$28                     ; 0x28 <__rc24>
    5295: d0 02        	bne	$5299 <main+0x1f31>
    5297: e6 29        	inc	$29                     ; 0x29 <__rc25>
    5299: e6 12        	inc	$12                     ; 0x12 <__rc2>
    529b: d0 02        	bne	$529f <main+0x1f37>
    529d: e6 13        	inc	$13                     ; 0x13 <__rc3>
    529f: 8a           	txa
    52a0: d0 ea        	bne	$528c <main+0x1f24>
    52a2: a2 2d        	ldx	#$2d
    52a4: 8e 00 02     	stx	$200                    ; 0x200 <__zp_bss_size+0x1bc>
    52a7: 9c 01 02     	stz	$201                    ; 0x201 <__zp_bss_size+0x1bd>
    52aa: 9c 80 02     	stz	$280                    ; 0x280 <__zp_bss_size+0x23c>
    52ad: a2 02        	ldx	#$2
    52af: 8e 81 02     	stx	$281                    ; 0x281 <__zp_bss_size+0x23d>
    52b2: 8e 82 02     	stx	$282                    ; 0x282 <__zp_bss_size+0x23e>
    52b5: 8e 83 02     	stx	$283                    ; 0x283 <__zp_bss_size+0x23f>
    52b8: 86 12        	stx	$12                     ; 0x12 <__rc2>
    52ba: 9c 84 02     	stz	$284                    ; 0x284 <__zp_bss_size+0x240>
    52bd: a6 01        	ldx	$1                      ; 0x1 <__data_size+0x1>
    52bf: 86 16        	stx	$16                     ; 0x16 <__rc6>
    52c1: a2 50        	ldx	#$50
    52c3: 8e 00 de     	stx	$de00                   ; 0xde00 <__heap_start+0x5ef4>
    52c6: 9c 01 de     	stz	$de01                   ; 0xde01 <__heap_start+0x5ef5>
    52c9: a2 1e        	ldx	#$1e
    52cb: 8e 02 de     	stx	$de02                   ; 0xde02 <__heap_start+0x5ef6>
    52ce: 9c 03 de     	stz	$de03                   ; 0xde03 <__heap_start+0x5ef7>
    52d1: ae 10 de     	ldx	$de10                   ; 0xde10 <__heap_start+0x5f04>
    52d4: ac 11 de     	ldy	$de11                   ; 0xde11 <__heap_start+0x5f05>
    52d7: ad 12 de     	lda	$de12                   ; 0xde12 <__heap_start+0x5f06>
    52da: ad 13 de     	lda	$de13                   ; 0xde13 <__heap_start+0x5f07>
    52dd: a5 12        	lda	$12                     ; 0x12 <__rc2>
    52df: 85 01        	sta	$1                      ; 0x1 <__data_size+0x1>
    52e1: e0 01        	cpx	#$1
    52e3: 98           	tya
    52e4: e9 00        	sbc	#$0
    52e6: 50 02        	bvc	$52ea <main+0x1f82>
    52e8: 49 80        	eor	#$80
    52ea: c9 00        	cmp	#$0
    52ec: 10 03        	bpl	$52f1 <main+0x1f89>
    52ee: 4c 45 53     	jmp	$5345 <main+0x1fdd>
    52f1: a9 20        	lda	#$20
    52f3: 86 17        	stx	$17                     ; 0x17 <__rc7>
    52f5: 86 12        	stx	$12                     ; 0x12 <__rc2>
    52f7: 84 13        	sty	$13                     ; 0x13 <__rc3>
    52f9: a6 2c        	ldx	$2c                     ; 0x2c <__rc28>
    52fb: 86 14        	stx	$14                     ; 0x14 <__rc4>
    52fd: a6 2d        	ldx	$2d                     ; 0x2d <__rc29>
    52ff: 86 15        	stx	$15                     ; 0x15 <__rc5>
    5301: 80 04        	bra	$5307 <main+0x1f9f>
    5303: a6 13        	ldx	$13                     ; 0x13 <__rc3>
    5305: f0 14        	beq	$531b <main+0x1fb3>
    5307: 92 14        	sta	($14)                   ; 0x14 <__rc4>
    5309: e6 14        	inc	$14                     ; 0x14 <__rc4>
    530b: d0 02        	bne	$530f <main+0x1fa7>
    530d: e6 15        	inc	$15                     ; 0x15 <__rc5>
    530f: a2 ff        	ldx	#$ff
    5311: c6 12        	dec	$12                     ; 0x12 <__rc2>
    5313: e4 12        	cpx	$12                     ; 0x12 <__rc2>
    5315: d0 ec        	bne	$5303 <main+0x1f9b>
    5317: c6 13        	dec	$13                     ; 0x13 <__rc3>
    5319: 80 e8        	bra	$5303 <main+0x1f9b>
    531b: a6 12        	ldx	$12                     ; 0x12 <__rc2>
    531d: d0 e8        	bne	$5307 <main+0x1f9f>
    531f: a2 03        	ldx	#$3
    5321: 86 01        	stx	$1                      ; 0x1 <__data_size+0x1>
    5323: a6 3c        	ldx	$3c                     ; 0x3c <_ccolor>
    5325: 86 12        	stx	$12                     ; 0x12 <__rc2>
    5327: a6 17        	ldx	$17                     ; 0x17 <__rc7>
    5329: 80 03        	bra	$532e <main+0x1fc6>
    532b: 98           	tya
    532c: f0 12        	beq	$5340 <main+0x1fd8>
    532e: a5 12        	lda	$12                     ; 0x12 <__rc2>
    5330: 92 2c        	sta	($2c)                   ; 0x2c <__rc28>
    5332: e6 2c        	inc	$2c                     ; 0x2c <__rc28>
    5334: d0 02        	bne	$5338 <main+0x1fd0>
    5336: e6 2d        	inc	$2d                     ; 0x2d <__rc29>
    5338: ca           	dex
    5339: e0 ff        	cpx	#$ff
    533b: d0 ee        	bne	$532b <main+0x1fc3>
    533d: 88           	dey
    533e: 80 eb        	bra	$532b <main+0x1fc3>
    5340: 8a           	txa
    5341: d0 eb        	bne	$532e <main+0x1fc6>
    5343: 80 04        	bra	$5349 <main+0x1fe1>
    5345: a2 03        	ldx	#$3
    5347: 86 01        	stx	$1                      ; 0x1 <__data_size+0x1>
    5349: a6 16        	ldx	$16                     ; 0x16 <__rc6>
    534b: 86 01        	stx	$1                      ; 0x1 <__data_size+0x1>
    534d: 64 40        	stz	$40                     ; 0x40 <_col>
    534f: 9c 14 d0     	stz	$d014                   ; 0xd014 <__heap_start+0x5108>
    5352: 9c 15 d0     	stz	$d015                   ; 0xd015 <__heap_start+0x5109>
    5355: 64 41        	stz	$41                     ; 0x41 <_row>
    5357: 9c 16 d0     	stz	$d016                   ; 0xd016 <__heap_start+0x510a>
    535a: 9c 17 d0     	stz	$d017                   ; 0xd017 <__heap_start+0x510b>
    535d: a2 0f        	ldx	#$f
    535f: 8e 00 d0     	stx	$d000                   ; 0xd000 <__heap_start+0x50f4>
    5362: 9c 01 d0     	stz	$d001                   ; 0xd001 <__heap_start+0x50f5>
    5365: a0 d9        	ldy	#$d9
    5367: a2 40        	ldx	#$40
    5369: 64 12        	stz	$12                     ; 0x12 <__rc2>
    536b: 84 13        	sty	$13                     ; 0x13 <__rc3>
    536d: a9 00        	lda	#$0
    536f: 92 12        	sta	($12)                   ; 0x12 <__rc2>
    5371: ca           	dex
    5372: 18           	clc
    5373: a5 12        	lda	$12                     ; 0x12 <__rc2>
    5375: 69 08        	adc	#$8
    5377: 85 12        	sta	$12                     ; 0x12 <__rc2>
    5379: 98           	tya
    537a: 69 00        	adc	#$0
    537c: a8           	tay
    537d: 8a           	txa
    537e: d0 eb        	bne	$536b <main+0x2003>
    5380: 9c 00 d1     	stz	$d100                   ; 0xd100 <__heap_start+0x51f4>
    5383: 9c 08 d1     	stz	$d108                   ; 0xd108 <__heap_start+0x51fc>
    5386: 9c 10 d1     	stz	$d110                   ; 0xd110 <__heap_start+0x5204>
    5389: ad 01 d0     	lda	$d001                   ; 0xd001 <__heap_start+0x50f5>
    538c: 29 ef        	and	#$ef
    538e: 8d 01 d0     	sta	$d001                   ; 0xd001 <__heap_start+0x50f5>
    5391: 20 97 05     	jsr	$597 <killSound>
    5394: a2 7a        	ldx	#$7a
    5396: 86 12        	stx	$12                     ; 0x12 <__rc2>
    5398: a2 00        	ldx	#$0
    539a: 86 13        	stx	$13                     ; 0x13 <__rc3>
    539c: 20 18 ff     	jsr	$ff18 <__heap_start+0x800c>
    539f: 92 2a        	sta	($2a)                   ; 0x2a <__rc26>
    53a1: a9 00        	lda	#$0
    53a3: 6a           	ror
    53a4: 85 12        	sta	$12                     ; 0x12 <__rc2>
    53a6: 78           	sei
    53a7: a2 07        	ldx	#$7
    53a9: 86 0f        	stx	$f                      ; 0xf <__zp_data_size+0x2>
    53ab: a2 de        	ldx	#$de
    53ad: 8e a2 d6     	stx	$d6a2                   ; 0xd6a2 <__heap_start+0x5796>
    53b0: a2 ad        	ldx	#$ad
    53b2: 8e a3 d6     	stx	$d6a3                   ; 0xd6a3 <__heap_start+0x5797>
    53b5: a2 f0        	ldx	#$f0
    53b7: 8e a0 d6     	stx	$d6a0                   ; 0xd6a0 <__heap_start+0x5794>
    53ba: 9c a0 d6     	stz	$d6a0                   ; 0xd6a0 <__heap_start+0x5794>
    53bd: 6c fc ff     	jmp	($fffc)                 ; 0xfffc <__heap_start+0x80f0>
    53c0: a2 00        	ldx	#$0
    53c2: 8a           	txa
    53c3: 85 20        	sta	$20                     ; 0x20 <__rc16>
    53c5: a0 02        	ldy	#$2
    53c7: b1 10        	lda	($10),y                 ; 0x10 <__rc0>
    53c9: 85 2f        	sta	$2f                     ; 0x2f <__rc31>
    53cb: c8           	iny
    53cc: b1 10        	lda	($10),y                 ; 0x10 <__rc0>
    53ce: 85 2e        	sta	$2e                     ; 0x2e <__rc30>
    53d0: c8           	iny
    53d1: b1 10        	lda	($10),y                 ; 0x10 <__rc0>
    53d3: 85 2d        	sta	$2d                     ; 0x2d <__rc29>
    53d5: c8           	iny
    53d6: b1 10        	lda	($10),y                 ; 0x10 <__rc0>
    53d8: 85 2c        	sta	$2c                     ; 0x2c <__rc28>
    53da: c8           	iny
    53db: b1 10        	lda	($10),y                 ; 0x10 <__rc0>
    53dd: 85 2b        	sta	$2b                     ; 0x2b <__rc27>
    53df: c8           	iny
    53e0: b1 10        	lda	($10),y                 ; 0x10 <__rc0>
    53e2: 85 2a        	sta	$2a                     ; 0x2a <__rc26>
    53e4: c8           	iny
    53e5: b1 10        	lda	($10),y                 ; 0x10 <__rc0>
    53e7: 85 29        	sta	$29                     ; 0x29 <__rc25>
    53e9: c8           	iny
    53ea: b1 10        	lda	($10),y                 ; 0x10 <__rc0>
    53ec: 85 28        	sta	$28                     ; 0x28 <__rc24>
    53ee: 7a           	ply
    53ef: 84 27        	sty	$27                     ; 0x27 <__rc23>
    53f1: 7a           	ply
    53f2: 84 26        	sty	$26                     ; 0x26 <__rc22>
    53f4: 7a           	ply
    53f5: 84 25        	sty	$25                     ; 0x25 <__rc21>
    53f7: 7a           	ply
    53f8: 84 24        	sty	$24                     ; 0x24 <__rc20>
    53fa: 18           	clc
    53fb: a5 10        	lda	$10                     ; 0x10 <__rc0>
    53fd: 69 17        	adc	#$17
    53ff: 85 10        	sta	$10                     ; 0x10 <__rc0>
    5401: a5 11        	lda	$11                     ; 0x11 <__rc1>
    5403: 69 00        	adc	#$0
    5405: 85 11        	sta	$11                     ; 0x11 <__rc1>
    5407: a5 20        	lda	$20                     ; 0x20 <__rc16>
    5409: 60           	rts
    540a: a6 19        	ldx	$19                     ; 0x19 <__rc9>
    540c: e4 12        	cpx	$12                     ; 0x12 <__rc2>
    540e: f0 03        	beq	$5413 <main+0x20ab>
    5410: 4c 9a 4a     	jmp	$4a9a <main+0x1732>
    5413: a5 14        	lda	$14                     ; 0x14 <__rc4>
    5415: 20 3a 2b     	jsr	$2b3a <exhaustZeroes>
    5418: a6 71        	ldx	$71                     ; 0x71 <theOne.8>
    541a: a4 72        	ldy	$72                     ; 0x72 <theOne.8+0x1>
    541c: 86 2c        	stx	$2c                     ; 0x2c <__rc28>
    541e: 84 25        	sty	$25                     ; 0x25 <__rc21>
    5420: a6 60        	ldx	$60                     ; 0x60 <theOne.0>
    5422: a4 61        	ldy	$61                     ; 0x61 <theOne.0+0x1>
    5424: 86 28        	stx	$28                     ; 0x28 <__rc24>
    5426: a6 26        	ldx	$26                     ; 0x26 <__rc22>
    5428: 86 14        	stx	$14                     ; 0x14 <__rc4>
    542a: 84 2d        	sty	$2d                     ; 0x2d <__rc29>
    542c: 4c b0 49     	jmp	$49b0 <main+0x1648>
    542f: ae 8a d8     	ldx	$d88a                   ; 0xd88a <__heap_start+0x597e>
    5432: e0 fd        	cpx	#$fd
    5434: d0 03        	bne	$5439 <main+0x20d1>
    5436: 4c cd 48     	jmp	$48cd <main+0x1565>
    5439: ae 84 d8     	ldx	$d884                   ; 0xd884 <__heap_start+0x5978>
    543c: e0 fe        	cpx	#$fe
    543e: f0 15        	beq	$5455 <main+0x20ed>
    5440: ae 86 d8     	ldx	$d886                   ; 0xd886 <__heap_start+0x597a>
    5443: e0 fe        	cpx	#$fe
    5445: f0 0e        	beq	$5455 <main+0x20ed>
    5447: ae 88 d8     	ldx	$d888                   ; 0xd888 <__heap_start+0x597c>
    544a: e0 fe        	cpx	#$fe
    544c: f0 07        	beq	$5455 <main+0x20ed>
    544e: ae 8a d8     	ldx	$d88a                   ; 0xd88a <__heap_start+0x597e>
    5451: e0 fe        	cpx	#$fe
    5453: d0 42        	bne	$5497 <main+0x212f>
    5455: a9 00        	lda	#$0
    5457: 20 17 08     	jsr	$817 <goLeftOrRight>
    545a: 20 ef 54     	jsr	$54ef <resetPadReadiness>
    545d: a0 03        	ldy	#$3
    545f: 4c 4a 4f     	jmp	$4f4a <main+0x1be2>
    5462: ae 8a d8     	ldx	$d88a                   ; 0xd88a <__heap_start+0x597e>
    5465: e0 fd        	cpx	#$fd
    5467: d0 03        	bne	$546c <main+0x2104>
    5469: 4c 20 49     	jmp	$4920 <main+0x15b8>
    546c: ae 84 d8     	ldx	$d884                   ; 0xd884 <__heap_start+0x5978>
    546f: e0 fe        	cpx	#$fe
    5471: f0 15        	beq	$5488 <main+0x2120>
    5473: ae 86 d8     	ldx	$d886                   ; 0xd886 <__heap_start+0x597a>
    5476: e0 fe        	cpx	#$fe
    5478: f0 0e        	beq	$5488 <main+0x2120>
    547a: ae 88 d8     	ldx	$d888                   ; 0xd888 <__heap_start+0x597c>
    547d: e0 fe        	cpx	#$fe
    547f: f0 07        	beq	$5488 <main+0x2120>
    5481: ae 8a d8     	ldx	$d88a                   ; 0xd88a <__heap_start+0x597e>
    5484: e0 fe        	cpx	#$fe
    5486: d0 3c        	bne	$54c4 <main+0x215c>
    5488: a9 00        	lda	#$0
    548a: 84 24        	sty	$24                     ; 0x24 <__rc20>
    548c: 20 17 08     	jsr	$817 <goLeftOrRight>
    548f: 20 ef 54     	jsr	$54ef <resetPadReadiness>
    5492: a4 24        	ldy	$24                     ; 0x24 <__rc20>
    5494: 4c b8 4f     	jmp	$4fb8 <main+0x1c50>
    5497: ae 84 d8     	ldx	$d884                   ; 0xd884 <__heap_start+0x5978>
    549a: a0 03        	ldy	#$3
    549c: e0 7f        	cpx	#$7f
    549e: d0 03        	bne	$54a3 <main+0x213b>
    54a0: 4c d1 51     	jmp	$51d1 <main+0x1e69>
    54a3: ae 86 d8     	ldx	$d886                   ; 0xd886 <__heap_start+0x597a>
    54a6: e0 7f        	cpx	#$7f
    54a8: d0 03        	bne	$54ad <main+0x2145>
    54aa: 4c d1 51     	jmp	$51d1 <main+0x1e69>
    54ad: ae 88 d8     	ldx	$d888                   ; 0xd888 <__heap_start+0x597c>
    54b0: e0 7f        	cpx	#$7f
    54b2: d0 03        	bne	$54b7 <main+0x214f>
    54b4: 4c d1 51     	jmp	$51d1 <main+0x1e69>
    54b7: ae 8a d8     	ldx	$d88a                   ; 0xd88a <__heap_start+0x597e>
    54ba: e0 7f        	cpx	#$7f
    54bc: f0 03        	beq	$54c1 <main+0x2159>
    54be: 4c 4a 4f     	jmp	$4f4a <main+0x1be2>
    54c1: 4c d1 51     	jmp	$51d1 <main+0x1e69>
    54c4: ae 85 d8     	ldx	$d885                   ; 0xd885 <__heap_start+0x5979>
    54c7: e0 f7        	cpx	#$f7
    54c9: d0 03        	bne	$54ce <main+0x2166>
    54cb: 4c d1 51     	jmp	$51d1 <main+0x1e69>
    54ce: ae 87 d8     	ldx	$d887                   ; 0xd887 <__heap_start+0x597b>
    54d1: e0 f7        	cpx	#$f7
    54d3: d0 03        	bne	$54d8 <main+0x2170>
    54d5: 4c d1 51     	jmp	$51d1 <main+0x1e69>
    54d8: ae 89 d8     	ldx	$d889                   ; 0xd889 <__heap_start+0x597d>
    54db: e0 f7        	cpx	#$f7
    54dd: d0 03        	bne	$54e2 <main+0x217a>
    54df: 4c d1 51     	jmp	$51d1 <main+0x1e69>
    54e2: ae 8b d8     	ldx	$d88b                   ; 0xd88b <__heap_start+0x597f>
    54e5: e0 f7        	cpx	#$f7
    54e7: f0 03        	beq	$54ec <main+0x2184>
    54e9: 4c b8 4f     	jmp	$4fb8 <main+0x1c50>
    54ec: 4c d1 51     	jmp	$51d1 <main+0x1e69>

000054ef <resetPadReadiness>:
    54ef: 64 4a        	stz	$4a                     ; 0x4a <readyForPads>
    54f1: a2 80        	ldx	#$80
    54f3: 86 f3        	stx	$f3                     ; 0xf3 <__zp_bss_size+0xaf>
    54f5: a2 82        	ldx	#$82
    54f7: a0 00        	ldy	#$0
    54f9: 86 14        	stx	$14                     ; 0x14 <__rc4>
    54fb: 84 15        	sty	$15                     ; 0x15 <__rc5>
    54fd: a2 7a        	ldx	#$7a
    54ff: 86 12        	stx	$12                     ; 0x12 <__rc2>
    5501: a2 00        	ldx	#$0
    5503: 86 13        	stx	$13                     ; 0x13 <__rc3>
    5505: 20 f0 ff     	jsr	$fff0 <__heap_start+0x80e4>
    5508: 92 14        	sta	($14)                   ; 0x14 <__rc4>
    550a: a9 00        	lda	#$0
    550c: 6a           	ror
    550d: 85 12        	sta	$12                     ; 0x12 <__rc2>
    550f: a9 0c        	lda	#$c
    5511: 18           	clc
    5512: 65 82        	adc	$82                     ; 0x82 <__zp_bss_size+0x3e>
    5514: 85 4c        	sta	$4c                     ; 0x4c <padDelayTimer.1>
    5516: 64 f3        	stz	$f3                     ; 0xf3 <__zp_bss_size+0xaf>
    5518: a6 4c        	ldx	$4c                     ; 0x4c <padDelayTimer.1>
    551a: 86 f4        	stx	$f4                     ; 0xf4 <__zp_bss_size+0xb0>
    551c: a5 4d        	lda	$4d                     ; 0x4d <padDelayTimer.2>
    551e: 29 01        	and	#$1
    5520: a2 03        	ldx	#$3
    5522: a8           	tay
    5523: d0 02        	bne	$5527 <resetPadReadiness+0x38>
    5525: a2 00        	ldx	#$0
    5527: 86 f5        	stx	$f5                     ; 0xf5 <__zp_bss_size+0xb1>
    5529: a2 81        	ldx	#$81
    552b: a0 00        	ldy	#$0
    552d: 86 14        	stx	$14                     ; 0x14 <__rc4>
    552f: 84 15        	sty	$15                     ; 0x15 <__rc5>
    5531: 20 f0 ff     	jsr	$fff0 <__heap_start+0x80e4>
    5534: 92 14        	sta	($14)                   ; 0x14 <__rc4>
    5536: a9 00        	lda	#$0
    5538: 6a           	ror
    5539: 85 12        	sta	$12                     ; 0x12 <__rc2>
    553b: 60           	rts

0000553c <fileRead>:
    553c: b2 14        	lda	($14)                   ; 0x14 <__rc4>
    553e: f0 2b        	beq	$556b <fileRead+0x2f>
    5540: 85 f3        	sta	$f3                     ; 0xf3 <__zp_bss_size+0xaf>
    5542: a2 01        	ldx	#$1
    5544: 86 f4        	stx	$f4                     ; 0xf4 <__zp_bss_size+0xb0>
    5546: a2 83        	ldx	#$83
    5548: a0 00        	ldy	#$0
    554a: 86 14        	stx	$14                     ; 0x14 <__rc4>
    554c: 84 15        	sty	$15                     ; 0x15 <__rc5>
    554e: a2 7a        	ldx	#$7a
    5550: 86 16        	stx	$16                     ; 0x16 <__rc6>
    5552: a2 00        	ldx	#$0
    5554: 86 17        	stx	$17                     ; 0x17 <__rc7>
    5556: 20 60 ff     	jsr	$ff60 <__heap_start+0x8054>
    5559: 92 14        	sta	($14)                   ; 0x14 <__rc4>
    555b: a9 00        	lda	#$0
    555d: 6a           	ror
    555e: 85 16        	sta	$16                     ; 0x16 <__rc6>
    5560: a6 7a        	ldx	$7a                     ; 0x7a <kernelError>
    5562: a0 ff        	ldy	#$ff
    5564: 8a           	txa
    5565: f0 4b        	beq	$55b2 <fileRead+0x76>
    5567: a2 ff        	ldx	#$ff
    5569: 98           	tya
    556a: 60           	rts
    556b: a2 81        	ldx	#$81
    556d: a0 00        	ldy	#$0
    556f: 86 14        	stx	$14                     ; 0x14 <__rc4>
    5571: 84 15        	sty	$15                     ; 0x15 <__rc5>
    5573: a2 82        	ldx	#$82
    5575: a0 00        	ldy	#$0
    5577: a9 7a        	lda	#$7a
    5579: 85 16        	sta	$16                     ; 0x16 <__rc6>
    557b: a9 00        	lda	#$0
    557d: 85 17        	sta	$17                     ; 0x17 <__rc7>
    557f: 80 0e        	bra	$558f <fileRead+0x53>
    5581: 86 18        	stx	$18                     ; 0x18 <__rc8>
    5583: 84 19        	sty	$19                     ; 0x19 <__rc9>
    5585: 20 0c ff     	jsr	$ff0c <__heap_start+0x8000>
    5588: 92 18        	sta	($18)                   ; 0x18 <__rc8>
    558a: a9 00        	lda	#$0
    558c: 6a           	ror
    558d: 85 16        	sta	$16                     ; 0x16 <__rc6>
    558f: 64 73        	stz	$73                     ; 0x73 <kernelEventData>
    5591: 20 00 ff     	jsr	$ff00 <__heap_start+0x7ff4>
    5594: 92 14        	sta	($14)                   ; 0x14 <__rc4>
    5596: a9 00        	lda	#$0
    5598: 6a           	ror
    5599: 85 16        	sta	$16                     ; 0x16 <__rc6>
    559b: a5 7a        	lda	$7a                     ; 0x7a <kernelError>
    559d: d0 e2        	bne	$5581 <fileRead+0x45>
    559f: a5 73        	lda	$73                     ; 0x73 <kernelEventData>
    55a1: c9 08        	cmp	#$8
    55a3: d0 ea        	bne	$558f <fileRead+0x53>
    55a5: a5 79        	lda	$79                     ; 0x79 <kernelEventData+0x6>
    55a7: d0 e6        	bne	$558f <fileRead+0x53>
    55a9: a5 78        	lda	$78                     ; 0x78 <kernelEventData+0x5>
    55ab: 92 12        	sta	($12)                   ; 0x12 <__rc2>
    55ad: a9 01        	lda	#$1
    55af: a2 00        	ldx	#$0
    55b1: 60           	rts
    55b2: a2 84        	ldx	#$84
    55b4: a9 00        	lda	#$0
    55b6: 86 14        	stx	$14                     ; 0x14 <__rc4>
    55b8: 85 15        	sta	$15                     ; 0x15 <__rc5>
    55ba: a2 7a        	ldx	#$7a
    55bc: 86 16        	stx	$16                     ; 0x16 <__rc6>
    55be: a2 00        	ldx	#$0
    55c0: 86 17        	stx	$17                     ; 0x17 <__rc7>
    55c2: 64 73        	stz	$73                     ; 0x73 <kernelEventData>
    55c4: 20 00 ff     	jsr	$ff00 <__heap_start+0x7ff4>
    55c7: 92 14        	sta	($14)                   ; 0x14 <__rc4>
    55c9: a9 00        	lda	#$0
    55cb: 6a           	ror
    55cc: 85 16        	sta	$16                     ; 0x16 <__rc6>
    55ce: a6 73        	ldx	$73                     ; 0x73 <kernelEventData>
    55d0: e0 38        	cpx	#$38
    55d2: d0 03        	bne	$55d7 <fileRead+0x9b>
    55d4: 4c 67 55     	jmp	$5567 <fileRead+0x2b>
    55d7: e0 30        	cpx	#$30
    55d9: f0 32        	beq	$560d <fileRead+0xd1>
    55db: e0 2c        	cpx	#$2c
    55dd: d0 e3        	bne	$55c2 <fileRead+0x86>
    55df: a6 12        	ldx	$12                     ; 0x12 <__rc2>
    55e1: a4 13        	ldy	$13                     ; 0x13 <__rc3>
    55e3: 86 fb        	stx	$fb                     ; 0xfb <__zp_bss_size+0xb7>
    55e5: 84 fc        	sty	$fc                     ; 0xfc <__zp_bss_size+0xb8>
    55e7: a6 79        	ldx	$79                     ; 0x79 <kernelEventData+0x6>
    55e9: 86 fd        	stx	$fd                     ; 0xfd <__zp_bss_size+0xb9>
    55eb: a2 85        	ldx	#$85
    55ed: a0 00        	ldy	#$0
    55ef: 86 12        	stx	$12                     ; 0x12 <__rc2>
    55f1: 84 13        	sty	$13                     ; 0x13 <__rc3>
    55f3: a2 7a        	ldx	#$7a
    55f5: 86 14        	stx	$14                     ; 0x14 <__rc4>
    55f7: a2 00        	ldx	#$0
    55f9: 86 15        	stx	$15                     ; 0x15 <__rc5>
    55fb: 20 04 ff     	jsr	$ff04 <__heap_start+0x7ff8>
    55fe: 92 12        	sta	($12)                   ; 0x12 <__rc2>
    5600: a9 00        	lda	#$0
    5602: 6a           	ror
    5603: 85 14        	sta	$14                     ; 0x14 <__rc4>
    5605: a4 79        	ldy	$79                     ; 0x79 <kernelEventData+0x6>
    5607: f0 08        	beq	$5611 <fileRead+0xd5>
    5609: a2 00        	ldx	#$0
    560b: 98           	tya
    560c: 60           	rts
    560d: a9 00        	lda	#$0
    560f: aa           	tax
    5610: 60           	rts
    5611: a9 00        	lda	#$0
    5613: a2 01        	ldx	#$1
    5615: 60           	rts

00005616 <exit>:
    5616: 20 25 03     	jsr	$325 <_fini>
    5619: 80 fe        	bra	$5619 <exit+0x3>

0000561b <_ZN12_GLOBAL__N_13putEcP6Status>:
    561b: 85 18        	sta	$18                     ; 0x18 <__rc8>
    561d: a6 13        	ldx	$13                     ; 0x13 <__rc3>
    561f: 18           	clc
    5620: a5 12        	lda	$12                     ; 0x12 <__rc2>
    5622: 69 05        	adc	#$5
    5624: a8           	tay
    5625: a5 13        	lda	$13                     ; 0x13 <__rc3>
    5627: 86 15        	stx	$15                     ; 0x15 <__rc5>
    5629: 69 00        	adc	#$0
    562b: 18           	clc
    562c: 84 16        	sty	$16                     ; 0x16 <__rc6>
    562e: a0 05        	ldy	#$5
    5630: 85 17        	sta	$17                     ; 0x17 <__rc7>
    5632: b1 12        	lda	($12),y                 ; 0x12 <__rc2>
    5634: aa           	tax
    5635: a5 12        	lda	$12                     ; 0x12 <__rc2>
    5637: 69 03        	adc	#$3
    5639: 85 14        	sta	$14                     ; 0x14 <__rc4>
    563b: a5 15        	lda	$15                     ; 0x15 <__rc5>
    563d: 69 00        	adc	#$0
    563f: 85 15        	sta	$15                     ; 0x15 <__rc5>
    5641: a0 01        	ldy	#$1
    5643: b1 16        	lda	($16),y                 ; 0x16 <__rc6>
    5645: d1 14        	cmp	($14),y                 ; 0x14 <__rc4>
    5647: d0 11        	bne	$565a <_ZN12_GLOBAL__N_13putEcP6Status+0x3f>
    5649: a0 03        	ldy	#$3
    564b: 85 17        	sta	$17                     ; 0x17 <__rc7>
    564d: b1 12        	lda	($12),y                 ; 0x12 <__rc2>
    564f: 85 14        	sta	$14                     ; 0x14 <__rc4>
    5651: 86 16        	stx	$16                     ; 0x16 <__rc6>
    5653: e4 14        	cpx	$14                     ; 0x14 <__rc4>
    5655: 90 0e        	bcc	$5665 <_ZN12_GLOBAL__N_13putEcP6Status+0x4a>
    5657: 4c c6 56     	jmp	$56c6 <_ZN12_GLOBAL__N_13putEcP6Status+0xab>
    565a: 86 16        	stx	$16                     ; 0x16 <__rc6>
    565c: d1 14        	cmp	($14),y                 ; 0x14 <__rc4>
    565e: 85 17        	sta	$17                     ; 0x17 <__rc7>
    5660: 90 03        	bcc	$5665 <_ZN12_GLOBAL__N_13putEcP6Status+0x4a>
    5662: 4c c6 56     	jmp	$56c6 <_ZN12_GLOBAL__N_13putEcP6Status+0xab>
    5665: a5 12        	lda	$12                     ; 0x12 <__rc2>
    5667: 18           	clc
    5668: 69 0f        	adc	#$f
    566a: 85 14        	sta	$14                     ; 0x14 <__rc4>
    566c: a5 13        	lda	$13                     ; 0x13 <__rc3>
    566e: 69 00        	adc	#$0
    5670: 85 15        	sta	$15                     ; 0x15 <__rc5>
    5672: a0 01        	ldy	#$1
    5674: b1 14        	lda	($14),y                 ; 0x14 <__rc4>
    5676: a2 00        	ldx	#$0
    5678: 86 14        	stx	$14                     ; 0x14 <__rc4>
    567a: a2 00        	ldx	#$0
    567c: 86 15        	stx	$15                     ; 0x15 <__rc5>
    567e: c5 15        	cmp	$15                     ; 0x15 <__rc5>
    5680: d0 2d        	bne	$56af <_ZN12_GLOBAL__N_13putEcP6Status+0x94>
    5682: a0 0f        	ldy	#$f
    5684: b1 12        	lda	($12),y                 ; 0x12 <__rc2>
    5686: c5 14        	cmp	$14                     ; 0x14 <__rc4>
    5688: d0 25        	bne	$56af <_ZN12_GLOBAL__N_13putEcP6Status+0x94>
    568a: a5 12        	lda	$12                     ; 0x12 <__rc2>
    568c: 18           	clc
    568d: 69 09        	adc	#$9
    568f: 85 14        	sta	$14                     ; 0x14 <__rc4>
    5691: a5 13        	lda	$13                     ; 0x13 <__rc3>
    5693: 69 00        	adc	#$0
    5695: a0 09        	ldy	#$9
    5697: 85 15        	sta	$15                     ; 0x15 <__rc5>
    5699: 18           	clc
    569a: a5 16        	lda	$16                     ; 0x16 <__rc6>
    569c: 71 12        	adc	($12),y                 ; 0x12 <__rc2>
    569e: aa           	tax
    569f: a0 01        	ldy	#$1
    56a1: a5 17        	lda	$17                     ; 0x17 <__rc7>
    56a3: 71 14        	adc	($14),y                 ; 0x14 <__rc4>
    56a5: 86 14        	stx	$14                     ; 0x14 <__rc4>
    56a7: 85 15        	sta	$15                     ; 0x15 <__rc5>
    56a9: a5 18        	lda	$18                     ; 0x18 <__rc8>
    56ab: 92 14        	sta	($14)                   ; 0x14 <__rc4>
    56ad: 80 17        	bra	$56c6 <_ZN12_GLOBAL__N_13putEcP6Status+0xab>
    56af: a6 12        	ldx	$12                     ; 0x12 <__rc2>
    56b1: 86 ea        	stx	$ea                     ; 0xea <__zp_bss_size+0xa6>
    56b3: a6 13        	ldx	$13                     ; 0x13 <__rc3>
    56b5: 86 eb        	stx	$eb                     ; 0xeb <__zp_bss_size+0xa7>
    56b7: a2 00        	ldx	#$0
    56b9: a5 18        	lda	$18                     ; 0x18 <__rc8>
    56bb: 20 3b 65     	jsr	$653b <putchar>
    56be: a6 ea        	ldx	$ea                     ; 0xea <__zp_bss_size+0xa6>
    56c0: 86 12        	stx	$12                     ; 0x12 <__rc2>
    56c2: a6 eb        	ldx	$eb                     ; 0xeb <__zp_bss_size+0xa7>
    56c4: 86 13        	stx	$13                     ; 0x13 <__rc3>
    56c6: a0 05        	ldy	#$5
    56c8: a5 12        	lda	$12                     ; 0x12 <__rc2>
    56ca: 18           	clc
    56cb: 69 05        	adc	#$5
    56cd: 85 14        	sta	$14                     ; 0x14 <__rc4>
    56cf: a5 13        	lda	$13                     ; 0x13 <__rc3>
    56d1: 69 00        	adc	#$0
    56d3: 85 15        	sta	$15                     ; 0x15 <__rc5>
    56d5: b1 12        	lda	($12),y                 ; 0x12 <__rc2>
    56d7: aa           	tax
    56d8: 84 16        	sty	$16                     ; 0x16 <__rc6>
    56da: a0 01        	ldy	#$1
    56dc: b1 14        	lda	($14),y                 ; 0x14 <__rc4>
    56de: 84 17        	sty	$17                     ; 0x17 <__rc7>
    56e0: e8           	inx
    56e1: d0 01        	bne	$56e4 <_ZN12_GLOBAL__N_13putEcP6Status+0xc9>
    56e3: 1a           	inc
    56e4: 85 18        	sta	$18                     ; 0x18 <__rc8>
    56e6: 8a           	txa
    56e7: a4 16        	ldy	$16                     ; 0x16 <__rc6>
    56e9: 91 12        	sta	($12),y                 ; 0x12 <__rc2>
    56eb: a4 17        	ldy	$17                     ; 0x17 <__rc7>
    56ed: a5 18        	lda	$18                     ; 0x18 <__rc8>
    56ef: 91 14        	sta	($14),y                 ; 0x14 <__rc4>
    56f1: 60           	rts

000056f2 <_ZN12_GLOBAL__N_112print_stringEPKcP6Status>:
    56f2: a6 12        	ldx	$12                     ; 0x12 <__rc2>
    56f4: 86 e1        	stx	$e1                     ; 0xe1 <__zp_bss_size+0x9d>
    56f6: a6 13        	ldx	$13                     ; 0x13 <__rc3>
    56f8: 86 e2        	stx	$e2                     ; 0xe2 <__zp_bss_size+0x9e>
    56fa: a6 14        	ldx	$14                     ; 0x14 <__rc4>
    56fc: 86 e3        	stx	$e3                     ; 0xe3 <__zp_bss_size+0x9f>
    56fe: a6 15        	ldx	$15                     ; 0x15 <__rc5>
    5700: 86 e4        	stx	$e4                     ; 0xe4 <__zp_bss_size+0xa0>
    5702: a5 e3        	lda	$e3                     ; 0xe3 <__zp_bss_size+0x9f>
    5704: 18           	clc
    5705: 69 0d        	adc	#$d
    5707: 85 12        	sta	$12                     ; 0x12 <__rc2>
    5709: a5 e4        	lda	$e4                     ; 0xe4 <__zp_bss_size+0xa0>
    570b: 69 00        	adc	#$0
    570d: 85 13        	sta	$13                     ; 0x13 <__rc3>
    570f: a0 01        	ldy	#$1
    5711: b1 12        	lda	($12),y                 ; 0x12 <__rc2>
    5713: 30 14        	bmi	$5729 <_ZN12_GLOBAL__N_112print_stringEPKcP6Status+0x37>
    5715: a0 0d        	ldy	#$d
    5717: aa           	tax
    5718: b1 e3        	lda	($e3),y                 ; 0xe3 <__zp_bss_size+0x9f>
    571a: 86 e6        	stx	$e6                     ; 0xe6 <__zp_bss_size+0xa2>
    571c: e0 00        	cpx	#$0
    571e: d0 0e        	bne	$572e <_ZN12_GLOBAL__N_112print_stringEPKcP6Status+0x3c>
    5720: aa           	tax
    5721: d0 0b        	bne	$572e <_ZN12_GLOBAL__N_112print_stringEPKcP6Status+0x3c>
    5723: 64 e5        	stz	$e5                     ; 0xe5 <__zp_bss_size+0xa1>
    5725: 64 e6        	stz	$e6                     ; 0xe6 <__zp_bss_size+0xa2>
    5727: 80 36        	bra	$575f <_ZN12_GLOBAL__N_112print_stringEPKcP6Status+0x6d>
    5729: a9 ff        	lda	#$ff
    572b: aa           	tax
    572c: 86 e6        	stx	$e6                     ; 0xe6 <__zp_bss_size+0xa2>
    572e: 85 e5        	sta	$e5                     ; 0xe5 <__zp_bss_size+0xa1>
    5730: 64 12        	stz	$12                     ; 0x12 <__rc2>
    5732: a4 e1        	ldy	$e1                     ; 0xe1 <__zp_bss_size+0x9d>
    5734: a6 e2        	ldx	$e2                     ; 0xe2 <__zp_bss_size+0x9e>
    5736: 86 16        	stx	$16                     ; 0x16 <__rc6>
    5738: 64 13        	stz	$13                     ; 0x13 <__rc3>
    573a: 98           	tya
    573b: 18           	clc
    573c: 65 12        	adc	$12                     ; 0x12 <__rc2>
    573e: 85 14        	sta	$14                     ; 0x14 <__rc4>
    5740: a5 e2        	lda	$e2                     ; 0xe2 <__zp_bss_size+0x9e>
    5742: 65 13        	adc	$13                     ; 0x13 <__rc3>
    5744: 85 15        	sta	$15                     ; 0x15 <__rc5>
    5746: b2 14        	lda	($14)                   ; 0x14 <__rc4>
    5748: d0 03        	bne	$574d <_ZN12_GLOBAL__N_112print_stringEPKcP6Status+0x5b>
    574a: 4c f6 57     	jmp	$57f6 <_ZN12_GLOBAL__N_112print_stringEPKcP6Status+0x104>
    574d: e6 12        	inc	$12                     ; 0x12 <__rc2>
    574f: d0 02        	bne	$5753 <_ZN12_GLOBAL__N_112print_stringEPKcP6Status+0x61>
    5751: e6 13        	inc	$13                     ; 0x13 <__rc3>
    5753: a6 e6        	ldx	$e6                     ; 0xe6 <__zp_bss_size+0xa2>
    5755: e4 13        	cpx	$13                     ; 0x13 <__rc3>
    5757: d0 e1        	bne	$573a <_ZN12_GLOBAL__N_112print_stringEPKcP6Status+0x48>
    5759: a6 e5        	ldx	$e5                     ; 0xe5 <__zp_bss_size+0xa1>
    575b: e4 12        	cpx	$12                     ; 0x12 <__rc2>
    575d: d0 db        	bne	$573a <_ZN12_GLOBAL__N_112print_stringEPKcP6Status+0x48>
    575f: a0 01        	ldy	#$1
    5761: b1 e3        	lda	($e3),y                 ; 0xe3 <__zp_bss_size+0x9f>
    5763: 29 01        	and	#$1
    5765: f0 03        	beq	$576a <_ZN12_GLOBAL__N_112print_stringEPKcP6Status+0x78>
    5767: 4c c8 57     	jmp	$57c8 <_ZN12_GLOBAL__N_112print_stringEPKcP6Status+0xd6>
    576a: a5 e3        	lda	$e3                     ; 0xe3 <__zp_bss_size+0x9f>
    576c: 18           	clc
    576d: 69 0b        	adc	#$b
    576f: 85 14        	sta	$14                     ; 0x14 <__rc4>
    5771: a5 e4        	lda	$e4                     ; 0xe4 <__zp_bss_size+0xa0>
    5773: 69 00        	adc	#$0
    5775: 85 15        	sta	$15                     ; 0x15 <__rc5>
    5777: 84 12        	sty	$12                     ; 0x12 <__rc2>
    5779: a0 0b        	ldy	#$b
    577b: b1 e3        	lda	($e3),y                 ; 0xe3 <__zp_bss_size+0x9f>
    577d: 85 13        	sta	$13                     ; 0x13 <__rc3>
    577f: a4 12        	ldy	$12                     ; 0x12 <__rc2>
    5781: b1 14        	lda	($14),y                 ; 0x14 <__rc4>
    5783: 85 12        	sta	$12                     ; 0x12 <__rc2>
    5785: a6 e6        	ldx	$e6                     ; 0xe6 <__zp_bss_size+0xa2>
    5787: e4 12        	cpx	$12                     ; 0x12 <__rc2>
    5789: d0 08        	bne	$5793 <_ZN12_GLOBAL__N_112print_stringEPKcP6Status+0xa1>
    578b: a6 e5        	ldx	$e5                     ; 0xe5 <__zp_bss_size+0xa1>
    578d: e4 13        	cpx	$13                     ; 0x13 <__rc3>
    578f: 90 06        	bcc	$5797 <_ZN12_GLOBAL__N_112print_stringEPKcP6Status+0xa5>
    5791: 80 35        	bra	$57c8 <_ZN12_GLOBAL__N_112print_stringEPKcP6Status+0xd6>
    5793: e4 12        	cpx	$12                     ; 0x12 <__rc2>
    5795: b0 31        	bcs	$57c8 <_ZN12_GLOBAL__N_112print_stringEPKcP6Status+0xd6>
    5797: 38           	sec
    5798: a5 e5        	lda	$e5                     ; 0xe5 <__zp_bss_size+0xa1>
    579a: e5 13        	sbc	$13                     ; 0x13 <__rc3>
    579c: a8           	tay
    579d: a5 e6        	lda	$e6                     ; 0xe6 <__zp_bss_size+0xa2>
    579f: e5 12        	sbc	$12                     ; 0x12 <__rc2>
    57a1: 85 e8        	sta	$e8                     ; 0xe8 <__zp_bss_size+0xa4>
    57a3: a2 20        	ldx	#$20
    57a5: 86 e9        	stx	$e9                     ; 0xe9 <__zp_bss_size+0xa5>
    57a7: a6 e3        	ldx	$e3                     ; 0xe3 <__zp_bss_size+0x9f>
    57a9: 86 12        	stx	$12                     ; 0x12 <__rc2>
    57ab: a6 e4        	ldx	$e4                     ; 0xe4 <__zp_bss_size+0xa0>
    57ad: 86 13        	stx	$13                     ; 0x13 <__rc3>
    57af: 84 e7        	sty	$e7                     ; 0xe7 <__zp_bss_size+0xa3>
    57b1: a5 e9        	lda	$e9                     ; 0xe9 <__zp_bss_size+0xa5>
    57b3: 20 1b 56     	jsr	$561b <_ZN12_GLOBAL__N_13putEcP6Status>
    57b6: a6 e8        	ldx	$e8                     ; 0xe8 <__zp_bss_size+0xa4>
    57b8: e6 e7        	inc	$e7                     ; 0xe7 <__zp_bss_size+0xa3>
    57ba: d0 01        	bne	$57bd <_ZN12_GLOBAL__N_112print_stringEPKcP6Status+0xcb>
    57bc: e8           	inx
    57bd: 86 e8        	stx	$e8                     ; 0xe8 <__zp_bss_size+0xa4>
    57bf: a4 e7        	ldy	$e7                     ; 0xe7 <__zp_bss_size+0xa3>
    57c1: 8a           	txa
    57c2: d0 e3        	bne	$57a7 <_ZN12_GLOBAL__N_112print_stringEPKcP6Status+0xb5>
    57c4: a5 e7        	lda	$e7                     ; 0xe7 <__zp_bss_size+0xa3>
    57c6: d0 df        	bne	$57a7 <_ZN12_GLOBAL__N_112print_stringEPKcP6Status+0xb5>
    57c8: a5 e6        	lda	$e6                     ; 0xe6 <__zp_bss_size+0xa2>
    57ca: d0 04        	bne	$57d0 <_ZN12_GLOBAL__N_112print_stringEPKcP6Status+0xde>
    57cc: a5 e5        	lda	$e5                     ; 0xe5 <__zp_bss_size+0xa1>
    57ce: f0 25        	beq	$57f5 <_ZN12_GLOBAL__N_112print_stringEPKcP6Status+0x103>
    57d0: a2 ff        	ldx	#$ff
    57d2: c6 e5        	dec	$e5                     ; 0xe5 <__zp_bss_size+0xa1>
    57d4: e4 e5        	cpx	$e5                     ; 0xe5 <__zp_bss_size+0xa1>
    57d6: d0 02        	bne	$57da <_ZN12_GLOBAL__N_112print_stringEPKcP6Status+0xe8>
    57d8: c6 e6        	dec	$e6                     ; 0xe6 <__zp_bss_size+0xa2>
    57da: b2 e1        	lda	($e1)                   ; 0xe1 <__zp_bss_size+0x9d>
    57dc: e6 e1        	inc	$e1                     ; 0xe1 <__zp_bss_size+0x9d>
    57de: d0 02        	bne	$57e2 <_ZN12_GLOBAL__N_112print_stringEPKcP6Status+0xf0>
    57e0: e6 e2        	inc	$e2                     ; 0xe2 <__zp_bss_size+0x9e>
    57e2: a6 e3        	ldx	$e3                     ; 0xe3 <__zp_bss_size+0x9f>
    57e4: 86 12        	stx	$12                     ; 0x12 <__rc2>
    57e6: a6 e4        	ldx	$e4                     ; 0xe4 <__zp_bss_size+0xa0>
    57e8: 86 13        	stx	$13                     ; 0x13 <__rc3>
    57ea: 20 1b 56     	jsr	$561b <_ZN12_GLOBAL__N_13putEcP6Status>
    57ed: a5 e6        	lda	$e6                     ; 0xe6 <__zp_bss_size+0xa2>
    57ef: d0 df        	bne	$57d0 <_ZN12_GLOBAL__N_112print_stringEPKcP6Status+0xde>
    57f1: a5 e5        	lda	$e5                     ; 0xe5 <__zp_bss_size+0xa1>
    57f3: d0 db        	bne	$57d0 <_ZN12_GLOBAL__N_112print_stringEPKcP6Status+0xde>
    57f5: 60           	rts
    57f6: a6 12        	ldx	$12                     ; 0x12 <__rc2>
    57f8: 86 e5        	stx	$e5                     ; 0xe5 <__zp_bss_size+0xa1>
    57fa: a6 13        	ldx	$13                     ; 0x13 <__rc3>
    57fc: 86 e6        	stx	$e6                     ; 0xe6 <__zp_bss_size+0xa2>
    57fe: 4c 5f 57     	jmp	$575f <_ZN12_GLOBAL__N_112print_stringEPKcP6Status+0x6d>

00005801 <printf>:
    5801: a6 12        	ldx	$12                     ; 0x12 <__rc2>
    5803: 86 95        	stx	$95                     ; 0x95 <__zp_bss_size+0x51>
    5805: a6 13        	ldx	$13                     ; 0x13 <__rc3>
    5807: 86 96        	stx	$96                     ; 0x96 <__zp_bss_size+0x52>
    5809: 18           	clc
    580a: a6 10        	ldx	$10                     ; 0x10 <__rc0>
    580c: a4 11        	ldy	$11                     ; 0x11 <__rc1>
    580e: 86 d6        	stx	$d6                     ; 0xd6 <__zp_bss_size+0x92>
    5810: 84 d7        	sty	$d7                     ; 0xd7 <__zp_bss_size+0x93>
    5812: a6 d6        	ldx	$d6                     ; 0xd6 <__zp_bss_size+0x92>
    5814: a4 d7        	ldy	$d7                     ; 0xd7 <__zp_bss_size+0x93>
    5816: 86 c1        	stx	$c1                     ; 0xc1 <__zp_bss_size+0x7d>
    5818: 84 c2        	sty	$c2                     ; 0xc2 <__zp_bss_size+0x7e>
    581a: a2 ff        	ldx	#$ff
    581c: 86 c6        	stx	$c6                     ; 0xc6 <__zp_bss_size+0x82>
    581e: 86 c7        	stx	$c7                     ; 0xc7 <__zp_bss_size+0x83>
    5820: 64 c8        	stz	$c8                     ; 0xc8 <__zp_bss_size+0x84>
    5822: 64 c9        	stz	$c9                     ; 0xc9 <__zp_bss_size+0x85>
    5824: e8           	inx
    5825: 86 12        	stx	$12                     ; 0x12 <__rc2>
    5827: a2 00        	ldx	#$0
    5829: 86 13        	stx	$13                     ; 0x13 <__rc3>
    582b: a6 12        	ldx	$12                     ; 0x12 <__rc2>
    582d: a4 13        	ldy	$13                     ; 0x13 <__rc3>
    582f: 86 cc        	stx	$cc                     ; 0xcc <__zp_bss_size+0x88>
    5831: 84 cd        	sty	$cd                     ; 0xcd <__zp_bss_size+0x89>
    5833: a2 02        	ldx	#$2
    5835: 86 d2        	stx	$d2                     ; 0xd2 <__zp_bss_size+0x8e>
    5837: 64 d3        	stz	$d3                     ; 0xd3 <__zp_bss_size+0x8f>
    5839: a6 c1        	ldx	$c1                     ; 0xc1 <__zp_bss_size+0x7d>
    583b: a4 c2        	ldy	$c2                     ; 0xc2 <__zp_bss_size+0x7e>
    583d: 86 d4        	stx	$d4                     ; 0xd4 <__zp_bss_size+0x90>
    583f: 84 d5        	sty	$d5                     ; 0xd5 <__zp_bss_size+0x91>
    5841: a2 b8        	ldx	#$b8
    5843: a0 00        	ldy	#$0
    5845: 86 12        	stx	$12                     ; 0x12 <__rc2>
    5847: 84 13        	sty	$13                     ; 0x13 <__rc3>
    5849: a0 01        	ldy	#$1
    584b: a9 9f        	lda	#$9f
    584d: 18           	clc
    584e: 69 02        	adc	#$2
    5850: 85 df        	sta	$df                     ; 0xdf <__zp_bss_size+0x9b>
    5852: a9 00        	lda	#$0
    5854: 69 00        	adc	#$0
    5856: 85 e0        	sta	$e0                     ; 0xe0 <__zp_bss_size+0x9c>
    5858: e6 12        	inc	$12                     ; 0x12 <__rc2>
    585a: d0 02        	bne	$585e <printf+0x5d>
    585c: e6 13        	inc	$13                     ; 0x13 <__rc3>
    585e: a6 12        	ldx	$12                     ; 0x12 <__rc2>
    5860: 86 db        	stx	$db                     ; 0xdb <__zp_bss_size+0x97>
    5862: a6 13        	ldx	$13                     ; 0x13 <__rc3>
    5864: 86 dc        	stx	$dc                     ; 0xdc <__zp_bss_size+0x98>
    5866: a6 95        	ldx	$95                     ; 0x95 <__zp_bss_size+0x51>
    5868: 86 97        	stx	$97                     ; 0x97 <__zp_bss_size+0x53>
    586a: a6 96        	ldx	$96                     ; 0x96 <__zp_bss_size+0x52>
    586c: 86 98        	stx	$98                     ; 0x98 <__zp_bss_size+0x54>
    586e: b2 95        	lda	($95)                   ; 0x95 <__zp_bss_size+0x51>
    5870: c9 25        	cmp	#$25
    5872: f0 26        	beq	$589a <printf+0x99>
    5874: a2 00        	ldx	#$0
    5876: c9 00        	cmp	#$0
    5878: d0 03        	bne	$587d <printf+0x7c>
    587a: 4c 3a 65     	jmp	$653a <printf+0xd39>
    587d: 84 95        	sty	$95                     ; 0x95 <__zp_bss_size+0x51>
    587f: 20 3b 65     	jsr	$653b <putchar>
    5882: a4 95        	ldy	$95                     ; 0x95 <__zp_bss_size+0x51>
    5884: e6 97        	inc	$97                     ; 0x97 <__zp_bss_size+0x53>
    5886: d0 02        	bne	$588a <printf+0x89>
    5888: e6 98        	inc	$98                     ; 0x98 <__zp_bss_size+0x54>
    588a: e6 c8        	inc	$c8                     ; 0xc8 <__zp_bss_size+0x84>
    588c: d0 02        	bne	$5890 <printf+0x8f>
    588e: e6 c9        	inc	$c9                     ; 0xc9 <__zp_bss_size+0x85>
    5890: a6 97        	ldx	$97                     ; 0x97 <__zp_bss_size+0x53>
    5892: 86 95        	stx	$95                     ; 0x95 <__zp_bss_size+0x51>
    5894: a6 98        	ldx	$98                     ; 0x98 <__zp_bss_size+0x54>
    5896: 86 96        	stx	$96                     ; 0x96 <__zp_bss_size+0x52>
    5898: 80 cc        	bra	$5866 <printf+0x65>
    589a: a6 95        	ldx	$95                     ; 0x95 <__zp_bss_size+0x51>
    589c: 86 12        	stx	$12                     ; 0x12 <__rc2>
    589e: a6 96        	ldx	$96                     ; 0x96 <__zp_bss_size+0x52>
    58a0: 86 13        	stx	$13                     ; 0x13 <__rc3>
    58a2: e6 12        	inc	$12                     ; 0x12 <__rc2>
    58a4: d0 02        	bne	$58a8 <printf+0xa7>
    58a6: e6 13        	inc	$13                     ; 0x13 <__rc3>
    58a8: b1 97        	lda	($97),y                 ; 0x97 <__zp_bss_size+0x53>
    58aa: c9 25        	cmp	#$25
    58ac: d0 18        	bne	$58c6 <printf+0xc5>
    58ae: a2 01        	ldx	#$1
    58b0: 86 13        	stx	$13                     ; 0x13 <__rc3>
    58b2: a5 c8        	lda	$c8                     ; 0xc8 <__zp_bss_size+0x84>
    58b4: a4 c9        	ldy	$c9                     ; 0xc9 <__zp_bss_size+0x85>
    58b6: c4 c7        	cpy	$c7                     ; 0xc7 <__zp_bss_size+0x83>
    58b8: f0 03        	beq	$58bd <printf+0xbc>
    58ba: 4c d6 59     	jmp	$59d6 <printf+0x1d5>
    58bd: a6 c6        	ldx	$c6                     ; 0xc6 <__zp_bss_size+0x82>
    58bf: 86 12        	stx	$12                     ; 0x12 <__rc2>
    58c1: c5 12        	cmp	$12                     ; 0x12 <__rc2>
    58c3: 4c d8 59     	jmp	$59d8 <printf+0x1d7>
    58c6: a2 01        	ldx	#$1
    58c8: 86 15        	stx	$15                     ; 0x15 <__rc5>
    58ca: 64 c4        	stz	$c4                     ; 0xc4 <__zp_bss_size+0x80>
    58cc: 64 c5        	stz	$c5                     ; 0xc5 <__zp_bss_size+0x81>
    58ce: 64 c3        	stz	$c3                     ; 0xc3 <__zp_bss_size+0x7f>
    58d0: 64 ce        	stz	$ce                     ; 0xce <__zp_bss_size+0x8a>
    58d2: 64 cf        	stz	$cf                     ; 0xcf <__zp_bss_size+0x8b>
    58d4: a2 ff        	ldx	#$ff
    58d6: 86 d0        	stx	$d0                     ; 0xd0 <__zp_bss_size+0x8c>
    58d8: 86 d1        	stx	$d1                     ; 0xd1 <__zp_bss_size+0x8d>
    58da: 64 93        	stz	$93                     ; 0x93 <__zp_bss_size+0x4f>
    58dc: 80 33        	bra	$5911 <printf+0x110>
    58de: a2 02        	ldx	#$2
    58e0: 80 15        	bra	$58f7 <printf+0xf6>
    58e2: e0 20        	cpx	#$20
    58e4: f0 15        	beq	$58fb <printf+0xfa>
    58e6: 86 16        	stx	$16                     ; 0x16 <__rc6>
    58e8: e0 23        	cpx	#$23
    58ea: f0 03        	beq	$58ef <printf+0xee>
    58ec: 4c 6e 59     	jmp	$596e <printf+0x16d>
    58ef: a5 93        	lda	$93                     ; 0x93 <__zp_bss_size+0x4f>
    58f1: a2 04        	ldx	#$4
    58f3: 80 02        	bra	$58f7 <printf+0xf6>
    58f5: a2 10        	ldx	#$10
    58f7: 86 14        	stx	$14                     ; 0x14 <__rc4>
    58f9: 80 06        	bra	$5901 <printf+0x100>
    58fb: a2 08        	ldx	#$8
    58fd: 86 14        	stx	$14                     ; 0x14 <__rc4>
    58ff: a5 93        	lda	$93                     ; 0x93 <__zp_bss_size+0x4f>
    5901: 05 14        	ora	$14                     ; 0x14 <__rc4>
    5903: 85 93        	sta	$93                     ; 0x93 <__zp_bss_size+0x4f>
    5905: 85 c4        	sta	$c4                     ; 0xc4 <__zp_bss_size+0x80>
    5907: a2 00        	ldx	#$0
    5909: 86 c5        	stx	$c5                     ; 0xc5 <__zp_bss_size+0x81>
    590b: e6 12        	inc	$12                     ; 0x12 <__rc2>
    590d: d0 02        	bne	$5911 <printf+0x110>
    590f: e6 13        	inc	$13                     ; 0x13 <__rc3>
    5911: b2 12        	lda	($12)                   ; 0x12 <__rc2>
    5913: 18           	clc
    5914: aa           	tax
    5915: 69 d6        	adc	#$d6
    5917: c9 07        	cmp	#$7
    5919: b0 c7        	bcs	$58e2 <printf+0xe1>
    591b: 86 16        	stx	$16                     ; 0x16 <__rc6>
    591d: 0a           	asl
    591e: aa           	tax
    591f: a0 01        	ldy	#$1
    5921: 84 14        	sty	$14                     ; 0x14 <__rc4>
    5923: a5 93        	lda	$93                     ; 0x93 <__zp_bss_size+0x4f>
    5925: 7c 71 6f     	jmp	($6f71,x)               ; 0x6f71 <__set_v+0xc7>
    5928: a5 d4        	lda	$d4                     ; 0xd4 <__zp_bss_size+0x90>
    592a: a6 d5        	ldx	$d5                     ; 0xd5 <__zp_bss_size+0x91>
    592c: 85 16        	sta	$16                     ; 0x16 <__rc6>
    592e: 86 17        	stx	$17                     ; 0x17 <__rc7>
    5930: 18           	clc
    5931: 69 02        	adc	#$2
    5933: a8           	tay
    5934: 8a           	txa
    5935: 69 00        	adc	#$0
    5937: 84 d4        	sty	$d4                     ; 0xd4 <__zp_bss_size+0x90>
    5939: 85 d5        	sta	$d5                     ; 0xd5 <__zp_bss_size+0x91>
    593b: b2 16        	lda	($16)                   ; 0x16 <__rc6>
    593d: 85 15        	sta	$15                     ; 0x15 <__rc5>
    593f: a0 01        	ldy	#$1
    5941: b1 16        	lda	($16),y                 ; 0x16 <__rc6>
    5943: 85 14        	sta	$14                     ; 0x14 <__rc4>
    5945: 10 15        	bpl	$595c <printf+0x15b>
    5947: a5 93        	lda	$93                     ; 0x93 <__zp_bss_size+0x4f>
    5949: 09 01        	ora	#$1
    594b: 85 93        	sta	$93                     ; 0x93 <__zp_bss_size+0x4f>
    594d: 85 c4        	sta	$c4                     ; 0xc4 <__zp_bss_size+0x80>
    594f: a2 00        	ldx	#$0
    5951: 86 c5        	stx	$c5                     ; 0xc5 <__zp_bss_size+0x81>
    5953: 8a           	txa
    5954: 38           	sec
    5955: e5 15        	sbc	$15                     ; 0x15 <__rc5>
    5957: 85 15        	sta	$15                     ; 0x15 <__rc5>
    5959: 8a           	txa
    595a: e5 14        	sbc	$14                     ; 0x14 <__rc4>
    595c: a6 15        	ldx	$15                     ; 0x15 <__rc5>
    595e: 86 ce        	stx	$ce                     ; 0xce <__zp_bss_size+0x8a>
    5960: 85 cf        	sta	$cf                     ; 0xcf <__zp_bss_size+0x8b>
    5962: e6 12        	inc	$12                     ; 0x12 <__rc2>
    5964: f0 03        	beq	$5969 <printf+0x168>
    5966: 4c 39 5a     	jmp	$5a39 <printf+0x238>
    5969: e6 13        	inc	$13                     ; 0x13 <__rc3>
    596b: 4c 39 5a     	jmp	$5a39 <printf+0x238>
    596e: 18           	clc
    596f: a5 16        	lda	$16                     ; 0x16 <__rc6>
    5971: 69 d0        	adc	#$d0
    5973: c9 0a        	cmp	#$a
    5975: 90 03        	bcc	$597a <printf+0x179>
    5977: 4c 2b 5a     	jmp	$5a2b <printf+0x22a>
    597a: a6 16        	ldx	$16                     ; 0x16 <__rc6>
    597c: 86 14        	stx	$14                     ; 0x14 <__rc4>
    597e: 64 16        	stz	$16                     ; 0x16 <__rc6>
    5980: 64 15        	stz	$15                     ; 0x15 <__rc5>
    5982: 64 17        	stz	$17                     ; 0x17 <__rc7>
    5984: a0 01        	ldy	#$1
    5986: a2 00        	ldx	#$0
    5988: 06 16        	asl	$16                     ; 0x16 <__rc6>
    598a: 26 17        	rol	$17                     ; 0x17 <__rc7>
    598c: a5 16        	lda	$16                     ; 0x16 <__rc6>
    598e: 0a           	asl
    598f: 85 18        	sta	$18                     ; 0x18 <__rc8>
    5991: a5 17        	lda	$17                     ; 0x17 <__rc7>
    5993: 2a           	rol
    5994: 06 18        	asl	$18                     ; 0x18 <__rc8>
    5996: 2a           	rol
    5997: 85 19        	sta	$19                     ; 0x19 <__rc9>
    5999: a5 18        	lda	$18                     ; 0x18 <__rc8>
    599b: 18           	clc
    599c: 65 16        	adc	$16                     ; 0x16 <__rc6>
    599e: 85 16        	sta	$16                     ; 0x16 <__rc6>
    59a0: a5 19        	lda	$19                     ; 0x19 <__rc9>
    59a2: 65 17        	adc	$17                     ; 0x17 <__rc7>
    59a4: 85 17        	sta	$17                     ; 0x17 <__rc7>
    59a6: a5 16        	lda	$16                     ; 0x16 <__rc6>
    59a8: 18           	clc
    59a9: 65 14        	adc	$14                     ; 0x14 <__rc4>
    59ab: 85 14        	sta	$14                     ; 0x14 <__rc4>
    59ad: a5 17        	lda	$17                     ; 0x17 <__rc7>
    59af: 65 15        	adc	$15                     ; 0x15 <__rc5>
    59b1: 85 15        	sta	$15                     ; 0x15 <__rc5>
    59b3: 18           	clc
    59b4: a5 14        	lda	$14                     ; 0x14 <__rc4>
    59b6: 69 d0        	adc	#$d0
    59b8: 85 16        	sta	$16                     ; 0x16 <__rc6>
    59ba: a5 15        	lda	$15                     ; 0x15 <__rc5>
    59bc: 69 ff        	adc	#$ff
    59be: 85 17        	sta	$17                     ; 0x17 <__rc7>
    59c0: b1 12        	lda	($12),y                 ; 0x12 <__rc2>
    59c2: 85 14        	sta	$14                     ; 0x14 <__rc4>
    59c4: 18           	clc
    59c5: 69 d0        	adc	#$d0
    59c7: e6 12        	inc	$12                     ; 0x12 <__rc2>
    59c9: d0 02        	bne	$59cd <printf+0x1cc>
    59cb: e6 13        	inc	$13                     ; 0x13 <__rc3>
    59cd: c9 0a        	cmp	#$a
    59cf: 64 15        	stz	$15                     ; 0x15 <__rc5>
    59d1: 90 b5        	bcc	$5988 <printf+0x187>
    59d3: 4c 31 5a     	jmp	$5a31 <printf+0x230>
    59d6: c4 c7        	cpy	$c7                     ; 0xc7 <__zp_bss_size+0x83>
    59d8: 84 16        	sty	$16                     ; 0x16 <__rc6>
    59da: a4 13        	ldy	$13                     ; 0x13 <__rc3>
    59dc: b0 37        	bcs	$5a15 <printf+0x214>
    59de: a2 01        	ldx	#$1
    59e0: 86 14        	stx	$14                     ; 0x14 <__rc4>
    59e2: a6 d3        	ldx	$d3                     ; 0xd3 <__zp_bss_size+0x8f>
    59e4: a0 00        	ldy	#$0
    59e6: 84 12        	sty	$12                     ; 0x12 <__rc2>
    59e8: a0 00        	ldy	#$0
    59ea: 84 13        	sty	$13                     ; 0x13 <__rc3>
    59ec: e4 13        	cpx	$13                     ; 0x13 <__rc3>
    59ee: d0 19        	bne	$5a09 <printf+0x208>
    59f0: a6 d2        	ldx	$d2                     ; 0xd2 <__zp_bss_size+0x8e>
    59f2: e4 12        	cpx	$12                     ; 0x12 <__rc2>
    59f4: d0 13        	bne	$5a09 <printf+0x208>
    59f6: a4 14        	ldy	$14                     ; 0x14 <__rc4>
    59f8: 18           	clc
    59f9: 65 cc        	adc	$cc                     ; 0xcc <__zp_bss_size+0x88>
    59fb: 85 12        	sta	$12                     ; 0x12 <__rc2>
    59fd: a5 16        	lda	$16                     ; 0x16 <__rc6>
    59ff: 65 cd        	adc	$cd                     ; 0xcd <__zp_bss_size+0x89>
    5a01: 85 13        	sta	$13                     ; 0x13 <__rc3>
    5a03: a9 25        	lda	#$25
    5a05: 92 12        	sta	($12)                   ; 0x12 <__rc2>
    5a07: 80 0c        	bra	$5a15 <printf+0x214>
    5a09: a2 01        	ldx	#$1
    5a0b: 86 95        	stx	$95                     ; 0x95 <__zp_bss_size+0x51>
    5a0d: ca           	dex
    5a0e: a9 25        	lda	#$25
    5a10: 20 3b 65     	jsr	$653b <putchar>
    5a13: a4 95        	ldy	$95                     ; 0x95 <__zp_bss_size+0x51>
    5a15: e6 c8        	inc	$c8                     ; 0xc8 <__zp_bss_size+0x84>
    5a17: d0 02        	bne	$5a1b <printf+0x21a>
    5a19: e6 c9        	inc	$c9                     ; 0xc9 <__zp_bss_size+0x85>
    5a1b: a5 97        	lda	$97                     ; 0x97 <__zp_bss_size+0x53>
    5a1d: 18           	clc
    5a1e: 69 02        	adc	#$2
    5a20: 85 95        	sta	$95                     ; 0x95 <__zp_bss_size+0x51>
    5a22: a5 98        	lda	$98                     ; 0x98 <__zp_bss_size+0x54>
    5a24: 69 00        	adc	#$0
    5a26: 85 96        	sta	$96                     ; 0x96 <__zp_bss_size+0x52>
    5a28: 4c 66 58     	jmp	$5866 <printf+0x65>
    5a2b: 64 16        	stz	$16                     ; 0x16 <__rc6>
    5a2d: 64 17        	stz	$17                     ; 0x17 <__rc7>
    5a2f: a4 15        	ldy	$15                     ; 0x15 <__rc5>
    5a31: a6 16        	ldx	$16                     ; 0x16 <__rc6>
    5a33: 86 ce        	stx	$ce                     ; 0xce <__zp_bss_size+0x8a>
    5a35: a5 17        	lda	$17                     ; 0x17 <__rc7>
    5a37: 85 cf        	sta	$cf                     ; 0xcf <__zp_bss_size+0x8b>
    5a39: 86 1a        	stx	$1a                     ; 0x1a <__rc10>
    5a3b: 85 1e        	sta	$1e                     ; 0x1e <__rc14>
    5a3d: b2 12        	lda	($12)                   ; 0x12 <__rc2>
    5a3f: a2 ff        	ldx	#$ff
    5a41: c9 2e        	cmp	#$2e
    5a43: d0 39        	bne	$5a7e <printf+0x27d>
    5a45: b1 12        	lda	($12),y                 ; 0x12 <__rc2>
    5a47: c9 2a        	cmp	#$2a
    5a49: d0 38        	bne	$5a83 <printf+0x282>
    5a4b: a5 d4        	lda	$d4                     ; 0xd4 <__zp_bss_size+0x90>
    5a4d: a6 d5        	ldx	$d5                     ; 0xd5 <__zp_bss_size+0x91>
    5a4f: 85 14        	sta	$14                     ; 0x14 <__rc4>
    5a51: 86 15        	stx	$15                     ; 0x15 <__rc5>
    5a53: 18           	clc
    5a54: 69 02        	adc	#$2
    5a56: 85 16        	sta	$16                     ; 0x16 <__rc6>
    5a58: 8a           	txa
    5a59: 69 00        	adc	#$0
    5a5b: a6 16        	ldx	$16                     ; 0x16 <__rc6>
    5a5d: 86 d4        	stx	$d4                     ; 0xd4 <__zp_bss_size+0x90>
    5a5f: 85 d5        	sta	$d5                     ; 0xd5 <__zp_bss_size+0x91>
    5a61: a5 12        	lda	$12                     ; 0x12 <__rc2>
    5a63: 18           	clc
    5a64: 69 02        	adc	#$2
    5a66: 85 12        	sta	$12                     ; 0x12 <__rc2>
    5a68: a5 13        	lda	$13                     ; 0x13 <__rc3>
    5a6a: 69 00        	adc	#$0
    5a6c: 85 13        	sta	$13                     ; 0x13 <__rc3>
    5a6e: b2 14        	lda	($14)                   ; 0x14 <__rc4>
    5a70: aa           	tax
    5a71: b1 14        	lda	($14),y                 ; 0x14 <__rc4>
    5a73: 86 18        	stx	$18                     ; 0x18 <__rc8>
    5a75: 86 d0        	stx	$d0                     ; 0xd0 <__zp_bss_size+0x8c>
    5a77: 85 19        	sta	$19                     ; 0x19 <__rc9>
    5a79: 85 d1        	sta	$d1                     ; 0xd1 <__zp_bss_size+0x8d>
    5a7b: 4c 41 5b     	jmp	$5b41 <printf+0x340>
    5a7e: 86 18        	stx	$18                     ; 0x18 <__rc8>
    5a80: 4c 51 5b     	jmp	$5b51 <printf+0x350>
    5a83: 85 17        	sta	$17                     ; 0x17 <__rc7>
    5a85: 18           	clc
    5a86: 69 d0        	adc	#$d0
    5a88: c9 0a        	cmp	#$a
    5a8a: 90 03        	bcc	$5a8f <printf+0x28e>
    5a8c: 4c 33 5b     	jmp	$5b33 <printf+0x332>
    5a8f: 64 16        	stz	$16                     ; 0x16 <__rc6>
    5a91: a2 01        	ldx	#$1
    5a93: 64 18        	stz	$18                     ; 0x18 <__rc8>
    5a95: 64 19        	stz	$19                     ; 0x19 <__rc9>
    5a97: 84 1b        	sty	$1b                     ; 0x1b <__rc11>
    5a99: 64 1c        	stz	$1c                     ; 0x1c <__rc12>
    5a9b: 18           	clc
    5a9c: a0 01        	ldy	#$1
    5a9e: b0 02        	bcs	$5aa2 <printf+0x2a1>
    5aa0: a0 00        	ldy	#$0
    5aa2: 84 1d        	sty	$1d                     ; 0x1d <__rc13>
    5aa4: a4 1c        	ldy	$1c                     ; 0x1c <__rc12>
    5aa6: 84 14        	sty	$14                     ; 0x14 <__rc4>
    5aa8: 86 15        	stx	$15                     ; 0x15 <__rc5>
    5aaa: 06 18        	asl	$18                     ; 0x18 <__rc8>
    5aac: 26 19        	rol	$19                     ; 0x19 <__rc9>
    5aae: a5 18        	lda	$18                     ; 0x18 <__rc8>
    5ab0: 0a           	asl
    5ab1: a8           	tay
    5ab2: a5 19        	lda	$19                     ; 0x19 <__rc9>
    5ab4: 2a           	rol
    5ab5: 84 1f        	sty	$1f                     ; 0x1f <__rc15>
    5ab7: 06 1f        	asl	$1f                     ; 0x1f <__rc15>
    5ab9: 2a           	rol
    5aba: 85 22        	sta	$22                     ; 0x22 <__rc18>
    5abc: a5 1f        	lda	$1f                     ; 0x1f <__rc15>
    5abe: a4 1d        	ldy	$1d                     ; 0x1d <__rc13>
    5ac0: c0 01        	cpy	#$1
    5ac2: 65 18        	adc	$18                     ; 0x18 <__rc8>
    5ac4: 85 18        	sta	$18                     ; 0x18 <__rc8>
    5ac6: a5 22        	lda	$22                     ; 0x22 <__rc18>
    5ac8: 65 19        	adc	$19                     ; 0x19 <__rc9>
    5aca: 85 19        	sta	$19                     ; 0x19 <__rc9>
    5acc: a5 18        	lda	$18                     ; 0x18 <__rc8>
    5ace: a4 1d        	ldy	$1d                     ; 0x1d <__rc13>
    5ad0: c0 01        	cpy	#$1
    5ad2: 65 17        	adc	$17                     ; 0x17 <__rc7>
    5ad4: 85 17        	sta	$17                     ; 0x17 <__rc7>
    5ad6: a5 19        	lda	$19                     ; 0x19 <__rc9>
    5ad8: 65 16        	adc	$16                     ; 0x16 <__rc6>
    5ada: 85 16        	sta	$16                     ; 0x16 <__rc6>
    5adc: 18           	clc
    5add: a5 17        	lda	$17                     ; 0x17 <__rc7>
    5adf: 69 d0        	adc	#$d0
    5ae1: 85 18        	sta	$18                     ; 0x18 <__rc8>
    5ae3: a5 16        	lda	$16                     ; 0x16 <__rc6>
    5ae5: 69 ff        	adc	#$ff
    5ae7: 85 19        	sta	$19                     ; 0x19 <__rc9>
    5ae9: e8           	inx
    5aea: d0 02        	bne	$5aee <printf+0x2ed>
    5aec: e6 1c        	inc	$1c                     ; 0x1c <__rc12>
    5aee: a5 12        	lda	$12                     ; 0x12 <__rc2>
    5af0: a4 1d        	ldy	$1d                     ; 0x1d <__rc13>
    5af2: c0 01        	cpy	#$1
    5af4: 65 15        	adc	$15                     ; 0x15 <__rc5>
    5af6: a8           	tay
    5af7: a5 13        	lda	$13                     ; 0x13 <__rc3>
    5af9: 65 14        	adc	$14                     ; 0x14 <__rc4>
    5afb: 84 16        	sty	$16                     ; 0x16 <__rc6>
    5afd: 85 17        	sta	$17                     ; 0x17 <__rc7>
    5aff: a4 1b        	ldy	$1b                     ; 0x1b <__rc11>
    5b01: b1 16        	lda	($16),y                 ; 0x16 <__rc6>
    5b03: 85 17        	sta	$17                     ; 0x17 <__rc7>
    5b05: 18           	clc
    5b06: 69 d0        	adc	#$d0
    5b08: c9 0a        	cmp	#$a
    5b0a: 64 16        	stz	$16                     ; 0x16 <__rc6>
    5b0c: b0 03        	bcs	$5b11 <printf+0x310>
    5b0e: 4c a4 5a     	jmp	$5aa4 <printf+0x2a3>
    5b11: a5 12        	lda	$12                     ; 0x12 <__rc2>
    5b13: a6 1d        	ldx	$1d                     ; 0x1d <__rc13>
    5b15: e0 01        	cpx	#$1
    5b17: 65 15        	adc	$15                     ; 0x15 <__rc5>
    5b19: 85 12        	sta	$12                     ; 0x12 <__rc2>
    5b1b: a5 13        	lda	$13                     ; 0x13 <__rc3>
    5b1d: 65 14        	adc	$14                     ; 0x14 <__rc4>
    5b1f: 85 13        	sta	$13                     ; 0x13 <__rc3>
    5b21: e6 12        	inc	$12                     ; 0x12 <__rc2>
    5b23: d0 02        	bne	$5b27 <printf+0x326>
    5b25: e6 13        	inc	$13                     ; 0x13 <__rc3>
    5b27: a6 18        	ldx	$18                     ; 0x18 <__rc8>
    5b29: 86 d0        	stx	$d0                     ; 0xd0 <__zp_bss_size+0x8c>
    5b2b: a6 19        	ldx	$19                     ; 0x19 <__rc9>
    5b2d: 86 d1        	stx	$d1                     ; 0xd1 <__zp_bss_size+0x8d>
    5b2f: a4 1b        	ldy	$1b                     ; 0x1b <__rc11>
    5b31: 80 0e        	bra	$5b41 <printf+0x340>
    5b33: e6 12        	inc	$12                     ; 0x12 <__rc2>
    5b35: d0 02        	bne	$5b39 <printf+0x338>
    5b37: e6 13        	inc	$13                     ; 0x13 <__rc3>
    5b39: 64 18        	stz	$18                     ; 0x18 <__rc8>
    5b3b: 64 d0        	stz	$d0                     ; 0xd0 <__zp_bss_size+0x8c>
    5b3d: 64 d1        	stz	$d1                     ; 0xd1 <__zp_bss_size+0x8d>
    5b3f: 64 19        	stz	$19                     ; 0x19 <__rc9>
    5b41: a5 93        	lda	$93                     ; 0x93 <__zp_bss_size+0x4f>
    5b43: 29 ef        	and	#$ef
    5b45: 85 93        	sta	$93                     ; 0x93 <__zp_bss_size+0x4f>
    5b47: 85 c4        	sta	$c4                     ; 0xc4 <__zp_bss_size+0x80>
    5b49: a2 00        	ldx	#$0
    5b4b: 86 c5        	stx	$c5                     ; 0xc5 <__zp_bss_size+0x81>
    5b4d: b2 12        	lda	($12)                   ; 0x12 <__rc2>
    5b4f: a6 19        	ldx	$19                     ; 0x19 <__rc9>
    5b51: 86 15        	stx	$15                     ; 0x15 <__rc5>
    5b53: a6 12        	ldx	$12                     ; 0x12 <__rc2>
    5b55: 86 95        	stx	$95                     ; 0x95 <__zp_bss_size+0x51>
    5b57: a6 13        	ldx	$13                     ; 0x13 <__rc3>
    5b59: 86 96        	stx	$96                     ; 0x96 <__zp_bss_size+0x52>
    5b5b: e6 95        	inc	$95                     ; 0x95 <__zp_bss_size+0x51>
    5b5d: d0 02        	bne	$5b61 <printf+0x360>
    5b5f: e6 96        	inc	$96                     ; 0x96 <__zp_bss_size+0x52>
    5b61: 85 14        	sta	$14                     ; 0x14 <__rc4>
    5b63: 38           	sec
    5b64: e9 6c        	sbc	#$6c
    5b66: 50 02        	bvc	$5b6a <printf+0x369>
    5b68: 49 80        	eor	#$80
    5b6a: aa           	tax
    5b6b: 10 21        	bpl	$5b8e <printf+0x38d>
    5b6d: a6 14        	ldx	$14                     ; 0x14 <__rc4>
    5b6f: e0 4c        	cpx	#$4c
    5b71: f0 37        	beq	$5baa <printf+0x3a9>
    5b73: e0 68        	cpx	#$68
    5b75: d0 03        	bne	$5b7a <printf+0x379>
    5b77: 4c 25 5c     	jmp	$5c25 <printf+0x424>
    5b7a: a4 14        	ldy	$14                     ; 0x14 <__rc4>
    5b7c: a9 01        	lda	#$1
    5b7e: a2 08        	ldx	#$8
    5b80: c0 6a        	cpy	#$6a
    5b82: d0 22        	bne	$5ba6 <printf+0x3a5>
    5b84: a4 95        	ldy	$95                     ; 0x95 <__zp_bss_size+0x51>
    5b86: 84 12        	sty	$12                     ; 0x12 <__rc2>
    5b88: a4 96        	ldy	$96                     ; 0x96 <__zp_bss_size+0x52>
    5b8a: 84 13        	sty	$13                     ; 0x13 <__rc3>
    5b8c: 80 52        	bra	$5be0 <printf+0x3df>
    5b8e: a6 14        	ldx	$14                     ; 0x14 <__rc4>
    5b90: e0 6c        	cpx	#$6c
    5b92: f0 31        	beq	$5bc5 <printf+0x3c4>
    5b94: e0 74        	cpx	#$74
    5b96: f0 1e        	beq	$5bb6 <printf+0x3b5>
    5b98: a9 01        	lda	#$1
    5b9a: e0 7a        	cpx	#$7a
    5b9c: d0 08        	bne	$5ba6 <printf+0x3a5>
    5b9e: a6 95        	ldx	$95                     ; 0x95 <__zp_bss_size+0x51>
    5ba0: 86 12        	stx	$12                     ; 0x12 <__rc2>
    5ba2: a6 96        	ldx	$96                     ; 0x96 <__zp_bss_size+0x52>
    5ba4: 86 13        	stx	$13                     ; 0x13 <__rc3>
    5ba6: a2 02        	ldx	#$2
    5ba8: 80 17        	bra	$5bc1 <printf+0x3c0>
    5baa: a5 93        	lda	$93                     ; 0x93 <__zp_bss_size+0x4f>
    5bac: 09 40        	ora	#$40
    5bae: 85 93        	sta	$93                     ; 0x93 <__zp_bss_size+0x4f>
    5bb0: 85 c4        	sta	$c4                     ; 0xc4 <__zp_bss_size+0x80>
    5bb2: a2 00        	ldx	#$0
    5bb4: 86 c5        	stx	$c5                     ; 0xc5 <__zp_bss_size+0x81>
    5bb6: a6 95        	ldx	$95                     ; 0x95 <__zp_bss_size+0x51>
    5bb8: 86 12        	stx	$12                     ; 0x12 <__rc2>
    5bba: a6 96        	ldx	$96                     ; 0x96 <__zp_bss_size+0x52>
    5bbc: 86 13        	stx	$13                     ; 0x13 <__rc3>
    5bbe: a2 02        	ldx	#$2
    5bc0: 98           	tya
    5bc1: a0 02        	ldy	#$2
    5bc3: 80 1d        	bra	$5be2 <printf+0x3e1>
    5bc5: b1 12        	lda	($12),y                 ; 0x12 <__rc2>
    5bc7: a2 04        	ldx	#$4
    5bc9: c9 6c        	cmp	#$6c
    5bcb: f0 03        	beq	$5bd0 <printf+0x3cf>
    5bcd: 4c 42 5c     	jmp	$5c42 <printf+0x441>
    5bd0: a5 12        	lda	$12                     ; 0x12 <__rc2>
    5bd2: 18           	clc
    5bd3: 69 02        	adc	#$2
    5bd5: 85 12        	sta	$12                     ; 0x12 <__rc2>
    5bd7: a5 13        	lda	$13                     ; 0x13 <__rc3>
    5bd9: 69 00        	adc	#$0
    5bdb: 85 13        	sta	$13                     ; 0x13 <__rc3>
    5bdd: a2 08        	ldx	#$8
    5bdf: 98           	tya
    5be0: a0 08        	ldy	#$8
    5be2: 84 94        	sty	$94                     ; 0x94 <__zp_bss_size+0x50>
    5be4: a8           	tay
    5be5: b2 12        	lda	($12)                   ; 0x12 <__rc2>
    5be7: 5a           	phy
    5be8: a4 12        	ldy	$12                     ; 0x12 <__rc2>
    5bea: 84 95        	sty	$95                     ; 0x95 <__zp_bss_size+0x51>
    5bec: a4 13        	ldy	$13                     ; 0x13 <__rc3>
    5bee: 84 96        	sty	$96                     ; 0x96 <__zp_bss_size+0x52>
    5bf0: 7a           	ply
    5bf1: 86 9d        	stx	$9d                     ; 0x9d <__zp_bss_size+0x59>
    5bf3: aa           	tax
    5bf4: 18           	clc
    5bf5: 69 9d        	adc	#$9d
    5bf7: c9 16        	cmp	#$16
    5bf9: b0 4c        	bcs	$5c47 <printf+0x446>
    5bfb: 0a           	asl
    5bfc: aa           	tax
    5bfd: 7c 7f 6f     	jmp	($6f7f,x)               ; 0x6f7f <__set_v+0xd5>
    5c00: a6 95        	ldx	$95                     ; 0x95 <__zp_bss_size+0x51>
    5c02: 86 d9        	stx	$d9                     ; 0xd9 <__zp_bss_size+0x95>
    5c04: a6 96        	ldx	$96                     ; 0x96 <__zp_bss_size+0x52>
    5c06: 86 da        	stx	$da                     ; 0xda <__zp_bss_size+0x96>
    5c08: a6 15        	ldx	$15                     ; 0x15 <__rc5>
    5c0a: 86 dd        	stx	$dd                     ; 0xdd <__zp_bss_size+0x99>
    5c0c: a6 18        	ldx	$18                     ; 0x18 <__rc8>
    5c0e: 86 d8        	stx	$d8                     ; 0xd8 <__zp_bss_size+0x94>
    5c10: a6 1e        	ldx	$1e                     ; 0x1e <__rc14>
    5c12: 86 de        	stx	$de                     ; 0xde <__zp_bss_size+0x9a>
    5c14: a6 1a        	ldx	$1a                     ; 0x1a <__rc10>
    5c16: 86 9c        	stx	$9c                     ; 0x9c <__zp_bss_size+0x58>
    5c18: a0 0a        	ldy	#$a
    5c1a: a2 0a        	ldx	#$a
    5c1c: 86 9e        	stx	$9e                     ; 0x9e <__zp_bss_size+0x5a>
    5c1e: 84 c3        	sty	$c3                     ; 0xc3 <__zp_bss_size+0x7f>
    5c20: 64 9b        	stz	$9b                     ; 0x9b <__zp_bss_size+0x57>
    5c22: 4c 94 5d     	jmp	$5d94 <printf+0x593>
    5c25: b1 12        	lda	($12),y                 ; 0x12 <__rc2>
    5c27: a2 02        	ldx	#$2
    5c29: c9 68        	cmp	#$68
    5c2b: d0 15        	bne	$5c42 <printf+0x441>
    5c2d: a5 12        	lda	$12                     ; 0x12 <__rc2>
    5c2f: 18           	clc
    5c30: 69 02        	adc	#$2
    5c32: 85 12        	sta	$12                     ; 0x12 <__rc2>
    5c34: a5 13        	lda	$13                     ; 0x13 <__rc3>
    5c36: 69 00        	adc	#$0
    5c38: 85 13        	sta	$13                     ; 0x13 <__rc3>
    5c3a: a2 01        	ldx	#$1
    5c3c: 86 94        	stx	$94                     ; 0x94 <__zp_bss_size+0x50>
    5c3e: e8           	inx
    5c3f: 4c e5 5b     	jmp	$5be5 <printf+0x3e4>
    5c42: 86 94        	stx	$94                     ; 0x94 <__zp_bss_size+0x50>
    5c44: 4c f1 5b     	jmp	$5bf1 <printf+0x3f0>
    5c47: e0 58        	cpx	#$58
    5c49: f0 03        	beq	$5c4e <printf+0x44d>
    5c4b: 4c ef 64     	jmp	$64ef <printf+0xcee>
    5c4e: a6 95        	ldx	$95                     ; 0x95 <__zp_bss_size+0x51>
    5c50: 86 d9        	stx	$d9                     ; 0xd9 <__zp_bss_size+0x95>
    5c52: a6 96        	ldx	$96                     ; 0x96 <__zp_bss_size+0x52>
    5c54: 86 da        	stx	$da                     ; 0xda <__zp_bss_size+0x96>
    5c56: a6 15        	ldx	$15                     ; 0x15 <__rc5>
    5c58: 86 dd        	stx	$dd                     ; 0xdd <__zp_bss_size+0x99>
    5c5a: a6 18        	ldx	$18                     ; 0x18 <__rc8>
    5c5c: 86 d8        	stx	$d8                     ; 0xd8 <__zp_bss_size+0x94>
    5c5e: a6 1e        	ldx	$1e                     ; 0x1e <__rc14>
    5c60: 86 de        	stx	$de                     ; 0xde <__zp_bss_size+0x9a>
    5c62: a6 1a        	ldx	$1a                     ; 0x1a <__rc10>
    5c64: 86 9c        	stx	$9c                     ; 0x9c <__zp_bss_size+0x58>
    5c66: a2 10        	ldx	#$10
    5c68: 86 c3        	stx	$c3                     ; 0xc3 <__zp_bss_size+0x7f>
    5c6a: a9 00        	lda	#$0
    5c6c: 09 01        	ora	#$1
    5c6e: a6 93        	ldx	$93                     ; 0x93 <__zp_bss_size+0x4f>
    5c70: 80 49        	bra	$5cbb <printf+0x4ba>
    5c72: a6 95        	ldx	$95                     ; 0x95 <__zp_bss_size+0x51>
    5c74: 86 d9        	stx	$d9                     ; 0xd9 <__zp_bss_size+0x95>
    5c76: a6 96        	ldx	$96                     ; 0x96 <__zp_bss_size+0x52>
    5c78: 86 da        	stx	$da                     ; 0xda <__zp_bss_size+0x96>
    5c7a: a6 15        	ldx	$15                     ; 0x15 <__rc5>
    5c7c: 86 dd        	stx	$dd                     ; 0xdd <__zp_bss_size+0x99>
    5c7e: a6 18        	ldx	$18                     ; 0x18 <__rc8>
    5c80: 86 d8        	stx	$d8                     ; 0xd8 <__zp_bss_size+0x94>
    5c82: a6 1e        	ldx	$1e                     ; 0x1e <__rc14>
    5c84: 86 de        	stx	$de                     ; 0xde <__zp_bss_size+0x9a>
    5c86: a6 1a        	ldx	$1a                     ; 0x1a <__rc10>
    5c88: 86 9c        	stx	$9c                     ; 0x9c <__zp_bss_size+0x58>
    5c8a: a2 10        	ldx	#$10
    5c8c: 86 c3        	stx	$c3                     ; 0xc3 <__zp_bss_size+0x7f>
    5c8e: a5 93        	lda	$93                     ; 0x93 <__zp_bss_size+0x4f>
    5c90: 09 84        	ora	#$84
    5c92: 80 20        	bra	$5cb4 <printf+0x4b3>
    5c94: a6 95        	ldx	$95                     ; 0x95 <__zp_bss_size+0x51>
    5c96: 86 d9        	stx	$d9                     ; 0xd9 <__zp_bss_size+0x95>
    5c98: a6 96        	ldx	$96                     ; 0x96 <__zp_bss_size+0x52>
    5c9a: 86 da        	stx	$da                     ; 0xda <__zp_bss_size+0x96>
    5c9c: a6 15        	ldx	$15                     ; 0x15 <__rc5>
    5c9e: 86 dd        	stx	$dd                     ; 0xdd <__zp_bss_size+0x99>
    5ca0: a6 18        	ldx	$18                     ; 0x18 <__rc8>
    5ca2: 86 d8        	stx	$d8                     ; 0xd8 <__zp_bss_size+0x94>
    5ca4: a6 1e        	ldx	$1e                     ; 0x1e <__rc14>
    5ca6: 86 de        	stx	$de                     ; 0xde <__zp_bss_size+0x9a>
    5ca8: a6 1a        	ldx	$1a                     ; 0x1a <__rc10>
    5caa: 86 9c        	stx	$9c                     ; 0x9c <__zp_bss_size+0x58>
    5cac: a2 10        	ldx	#$10
    5cae: 86 c3        	stx	$c3                     ; 0xc3 <__zp_bss_size+0x7f>
    5cb0: a5 93        	lda	$93                     ; 0x93 <__zp_bss_size+0x4f>
    5cb2: 09 80        	ora	#$80
    5cb4: aa           	tax
    5cb5: a9 00        	lda	#$0
    5cb7: 09 01        	ora	#$1
    5cb9: 86 93        	stx	$93                     ; 0x93 <__zp_bss_size+0x4f>
    5cbb: 86 c4        	stx	$c4                     ; 0xc4 <__zp_bss_size+0x80>
    5cbd: 85 9b        	sta	$9b                     ; 0x9b <__zp_bss_size+0x57>
    5cbf: 85 c5        	sta	$c5                     ; 0xc5 <__zp_bss_size+0x81>
    5cc1: a2 10        	ldx	#$10
    5cc3: 86 9e        	stx	$9e                     ; 0x9e <__zp_bss_size+0x5a>
    5cc5: 4c 94 5d     	jmp	$5d94 <printf+0x593>
    5cc8: a5 d4        	lda	$d4                     ; 0xd4 <__zp_bss_size+0x90>
    5cca: a6 d5        	ldx	$d5                     ; 0xd5 <__zp_bss_size+0x91>
    5ccc: 85 12        	sta	$12                     ; 0x12 <__rc2>
    5cce: 86 13        	stx	$13                     ; 0x13 <__rc3>
    5cd0: 18           	clc
    5cd1: 69 02        	adc	#$2
    5cd3: 85 14        	sta	$14                     ; 0x14 <__rc4>
    5cd5: 8a           	txa
    5cd6: 69 00        	adc	#$0
    5cd8: a6 14        	ldx	$14                     ; 0x14 <__rc4>
    5cda: 86 d4        	stx	$d4                     ; 0xd4 <__zp_bss_size+0x90>
    5cdc: 85 d5        	sta	$d5                     ; 0xd5 <__zp_bss_size+0x91>
    5cde: b2 12        	lda	($12)                   ; 0x12 <__rc2>
    5ce0: aa           	tax
    5ce1: b1 12        	lda	($12),y                 ; 0x12 <__rc2>
    5ce3: 86 12        	stx	$12                     ; 0x12 <__rc2>
    5ce5: 85 13        	sta	$13                     ; 0x13 <__rc3>
    5ce7: a5 c8        	lda	$c8                     ; 0xc8 <__zp_bss_size+0x84>
    5ce9: a6 c9        	ldx	$c9                     ; 0xc9 <__zp_bss_size+0x85>
    5ceb: 92 12        	sta	($12)                   ; 0x12 <__rc2>
    5ced: 8a           	txa
    5cee: 91 12        	sta	($12),y                 ; 0x12 <__rc2>
    5cf0: 4c d7 64     	jmp	$64d7 <printf+0xcd6>
    5cf3: a5 d4        	lda	$d4                     ; 0xd4 <__zp_bss_size+0x90>
    5cf5: a6 d5        	ldx	$d5                     ; 0xd5 <__zp_bss_size+0x91>
    5cf7: 85 12        	sta	$12                     ; 0x12 <__rc2>
    5cf9: 86 13        	stx	$13                     ; 0x13 <__rc3>
    5cfb: 18           	clc
    5cfc: 69 02        	adc	#$2
    5cfe: 85 14        	sta	$14                     ; 0x14 <__rc4>
    5d00: 8a           	txa
    5d01: 69 00        	adc	#$0
    5d03: a6 14        	ldx	$14                     ; 0x14 <__rc4>
    5d05: 86 d4        	stx	$d4                     ; 0xd4 <__zp_bss_size+0x90>
    5d07: 85 d5        	sta	$d5                     ; 0xd5 <__zp_bss_size+0x91>
    5d09: b2 12        	lda	($12)                   ; 0x12 <__rc2>
    5d0b: aa           	tax
    5d0c: b1 12        	lda	($12),y                 ; 0x12 <__rc2>
    5d0e: 86 12        	stx	$12                     ; 0x12 <__rc2>
    5d10: 85 13        	sta	$13                     ; 0x13 <__rc3>
    5d12: 80 42        	bra	$5d56 <printf+0x555>
    5d14: a6 95        	ldx	$95                     ; 0x95 <__zp_bss_size+0x51>
    5d16: 86 d9        	stx	$d9                     ; 0xd9 <__zp_bss_size+0x95>
    5d18: a6 96        	ldx	$96                     ; 0x96 <__zp_bss_size+0x52>
    5d1a: 86 da        	stx	$da                     ; 0xda <__zp_bss_size+0x96>
    5d1c: a6 15        	ldx	$15                     ; 0x15 <__rc5>
    5d1e: 86 dd        	stx	$dd                     ; 0xdd <__zp_bss_size+0x99>
    5d20: a6 18        	ldx	$18                     ; 0x18 <__rc8>
    5d22: 86 d8        	stx	$d8                     ; 0xd8 <__zp_bss_size+0x94>
    5d24: a6 1e        	ldx	$1e                     ; 0x1e <__rc14>
    5d26: 86 de        	stx	$de                     ; 0xde <__zp_bss_size+0x9a>
    5d28: a6 1a        	ldx	$1a                     ; 0x1a <__rc10>
    5d2a: 86 9c        	stx	$9c                     ; 0x9c <__zp_bss_size+0x58>
    5d2c: a0 08        	ldy	#$8
    5d2e: a2 08        	ldx	#$8
    5d30: 80 52        	bra	$5d84 <printf+0x583>
    5d32: a5 d4        	lda	$d4                     ; 0xd4 <__zp_bss_size+0x90>
    5d34: a6 d5        	ldx	$d5                     ; 0xd5 <__zp_bss_size+0x91>
    5d36: 85 12        	sta	$12                     ; 0x12 <__rc2>
    5d38: 86 13        	stx	$13                     ; 0x13 <__rc3>
    5d3a: 18           	clc
    5d3b: 69 02        	adc	#$2
    5d3d: 85 14        	sta	$14                     ; 0x14 <__rc4>
    5d3f: 8a           	txa
    5d40: 69 00        	adc	#$0
    5d42: a6 14        	ldx	$14                     ; 0x14 <__rc4>
    5d44: 86 d4        	stx	$d4                     ; 0xd4 <__zp_bss_size+0x90>
    5d46: 85 d5        	sta	$d5                     ; 0xd5 <__zp_bss_size+0x91>
    5d48: b2 12        	lda	($12)                   ; 0x12 <__rc2>
    5d4a: 85 b6        	sta	$b6                     ; 0xb6 <__zp_bss_size+0x72>
    5d4c: 64 b7        	stz	$b7                     ; 0xb7 <__zp_bss_size+0x73>
    5d4e: a2 b6        	ldx	#$b6
    5d50: 86 12        	stx	$12                     ; 0x12 <__rc2>
    5d52: a2 00        	ldx	#$0
    5d54: 86 13        	stx	$13                     ; 0x13 <__rc3>
    5d56: a2 c3        	ldx	#$c3
    5d58: 86 14        	stx	$14                     ; 0x14 <__rc4>
    5d5a: a2 00        	ldx	#$0
    5d5c: 86 15        	stx	$15                     ; 0x15 <__rc5>
    5d5e: 84 99        	sty	$99                     ; 0x99 <__zp_bss_size+0x55>
    5d60: 20 f2 56     	jsr	$56f2 <_ZN12_GLOBAL__N_112print_stringEPKcP6Status>
    5d63: a4 99        	ldy	$99                     ; 0x99 <__zp_bss_size+0x55>
    5d65: 4c d7 64     	jmp	$64d7 <printf+0xcd6>
    5d68: a6 95        	ldx	$95                     ; 0x95 <__zp_bss_size+0x51>
    5d6a: 86 d9        	stx	$d9                     ; 0xd9 <__zp_bss_size+0x95>
    5d6c: a6 96        	ldx	$96                     ; 0x96 <__zp_bss_size+0x52>
    5d6e: 86 da        	stx	$da                     ; 0xda <__zp_bss_size+0x96>
    5d70: a6 15        	ldx	$15                     ; 0x15 <__rc5>
    5d72: 86 dd        	stx	$dd                     ; 0xdd <__zp_bss_size+0x99>
    5d74: a6 18        	ldx	$18                     ; 0x18 <__rc8>
    5d76: 86 d8        	stx	$d8                     ; 0xd8 <__zp_bss_size+0x94>
    5d78: a6 1e        	ldx	$1e                     ; 0x1e <__rc14>
    5d7a: 86 de        	stx	$de                     ; 0xde <__zp_bss_size+0x9a>
    5d7c: a6 1a        	ldx	$1a                     ; 0x1a <__rc10>
    5d7e: 86 9c        	stx	$9c                     ; 0x9c <__zp_bss_size+0x58>
    5d80: a0 0a        	ldy	#$a
    5d82: a2 0a        	ldx	#$a
    5d84: 86 9e        	stx	$9e                     ; 0x9e <__zp_bss_size+0x5a>
    5d86: 84 c3        	sty	$c3                     ; 0xc3 <__zp_bss_size+0x7f>
    5d88: a9 00        	lda	#$0
    5d8a: 09 01        	ora	#$1
    5d8c: a6 93        	ldx	$93                     ; 0x93 <__zp_bss_size+0x4f>
    5d8e: 86 c4        	stx	$c4                     ; 0xc4 <__zp_bss_size+0x80>
    5d90: 85 9b        	sta	$9b                     ; 0x9b <__zp_bss_size+0x57>
    5d92: 85 c5        	sta	$c5                     ; 0xc5 <__zp_bss_size+0x81>
    5d94: a5 94        	lda	$94                     ; 0x94 <__zp_bss_size+0x50>
    5d96: 85 b8        	sta	$b8                     ; 0xb8 <__zp_bss_size+0x74>
    5d98: a4 d4        	ldy	$d4                     ; 0xd4 <__zp_bss_size+0x90>
    5d9a: a6 d5        	ldx	$d5                     ; 0xd5 <__zp_bss_size+0x91>
    5d9c: 86 99        	stx	$99                     ; 0x99 <__zp_bss_size+0x55>
    5d9e: 84 14        	sty	$14                     ; 0x14 <__rc4>
    5da0: 84 95        	sty	$95                     ; 0x95 <__zp_bss_size+0x51>
    5da2: 86 15        	stx	$15                     ; 0x15 <__rc5>
    5da4: a6 db        	ldx	$db                     ; 0xdb <__zp_bss_size+0x97>
    5da6: 86 12        	stx	$12                     ; 0x12 <__rc2>
    5da8: a6 dc        	ldx	$dc                     ; 0xdc <__zp_bss_size+0x98>
    5daa: 86 13        	stx	$13                     ; 0x13 <__rc3>
    5dac: a2 00        	ldx	#$0
    5dae: 85 9a        	sta	$9a                     ; 0x9a <__zp_bss_size+0x56>
    5db0: 20 86 6b     	jsr	$6b86 <memcpy>
    5db3: 18           	clc
    5db4: a5 95        	lda	$95                     ; 0x95 <__zp_bss_size+0x51>
    5db6: 65 9d        	adc	$9d                     ; 0x9d <__zp_bss_size+0x59>
    5db8: aa           	tax
    5db9: a5 99        	lda	$99                     ; 0x99 <__zp_bss_size+0x55>
    5dbb: 69 00        	adc	#$0
    5dbd: 86 d4        	stx	$d4                     ; 0xd4 <__zp_bss_size+0x90>
    5dbf: 85 d5        	sta	$d5                     ; 0xd5 <__zp_bss_size+0x91>
    5dc1: a5 9b        	lda	$9b                     ; 0x9b <__zp_bss_size+0x57>
    5dc3: 29 01        	and	#$1
    5dc5: a0 00        	ldy	#$0
    5dc7: aa           	tax
    5dc8: f0 03        	beq	$5dcd <printf+0x5cc>
    5dca: 4c 1f 5e     	jmp	$5e1f <printf+0x61e>
    5dcd: a6 9a        	ldx	$9a                     ; 0x9a <__zp_bss_size+0x56>
    5dcf: b5 b8        	lda	$b8,x                   ; 0xb8 <__zp_bss_size+0x74>
    5dd1: aa           	tax
    5dd2: a5 9c        	lda	$9c                     ; 0x9c <__zp_bss_size+0x58>
    5dd4: 85 17        	sta	$17                     ; 0x17 <__rc7>
    5dd6: a5 de        	lda	$de                     ; 0xde <__zp_bss_size+0x9a>
    5dd8: 85 1a        	sta	$1a                     ; 0x1a <__rc10>
    5dda: a5 dd        	lda	$dd                     ; 0xdd <__zp_bss_size+0x99>
    5ddc: 85 9a        	sta	$9a                     ; 0x9a <__zp_bss_size+0x56>
    5dde: a5 d9        	lda	$d9                     ; 0xd9 <__zp_bss_size+0x95>
    5de0: 85 95        	sta	$95                     ; 0x95 <__zp_bss_size+0x51>
    5de2: a5 da        	lda	$da                     ; 0xda <__zp_bss_size+0x96>
    5de4: 85 96        	sta	$96                     ; 0x96 <__zp_bss_size+0x52>
    5de6: 8a           	txa
    5de7: 10 4a        	bpl	$5e33 <printf+0x632>
    5de9: a2 00        	ldx	#$0
    5deb: 64 12        	stz	$12                     ; 0x12 <__rc2>
    5ded: a9 00        	lda	#$0
    5def: 38           	sec
    5df0: f5 b9        	sbc	$b9,x                   ; 0xb9 <__zp_bss_size+0x75>
    5df2: a0 01        	ldy	#$1
    5df4: 84 14        	sty	$14                     ; 0x14 <__rc4>
    5df6: 88           	dey
    5df7: b0 02        	bcs	$5dfb <printf+0x5fa>
    5df9: a0 01        	ldy	#$1
    5dfb: 38           	sec
    5dfc: e5 12        	sbc	$12                     ; 0x12 <__rc2>
    5dfe: 85 13        	sta	$13                     ; 0x13 <__rc3>
    5e00: 64 12        	stz	$12                     ; 0x12 <__rc2>
    5e02: b0 04        	bcs	$5e08 <printf+0x607>
    5e04: a5 14        	lda	$14                     ; 0x14 <__rc4>
    5e06: 85 12        	sta	$12                     ; 0x12 <__rc2>
    5e08: 98           	tya
    5e09: 05 12        	ora	$12                     ; 0x12 <__rc2>
    5e0b: 85 12        	sta	$12                     ; 0x12 <__rc2>
    5e0d: a5 13        	lda	$13                     ; 0x13 <__rc3>
    5e0f: 9d b9 00     	sta	$b9,x                   ; 0xb9 <__zp_bss_size+0x75>
    5e12: e8           	inx
    5e13: 86 13        	stx	$13                     ; 0x13 <__rc3>
    5e15: a4 94        	ldy	$94                     ; 0x94 <__zp_bss_size+0x50>
    5e17: c4 13        	cpy	$13                     ; 0x13 <__rc3>
    5e19: d0 d2        	bne	$5ded <printf+0x5ec>
    5e1b: a0 01        	ldy	#$1
    5e1d: 80 14        	bra	$5e33 <printf+0x632>
    5e1f: a6 9c        	ldx	$9c                     ; 0x9c <__zp_bss_size+0x58>
    5e21: 86 17        	stx	$17                     ; 0x17 <__rc7>
    5e23: a6 de        	ldx	$de                     ; 0xde <__zp_bss_size+0x9a>
    5e25: 86 1a        	stx	$1a                     ; 0x1a <__rc10>
    5e27: a6 dd        	ldx	$dd                     ; 0xdd <__zp_bss_size+0x99>
    5e29: 86 9a        	stx	$9a                     ; 0x9a <__zp_bss_size+0x56>
    5e2b: a6 d9        	ldx	$d9                     ; 0xd9 <__zp_bss_size+0x95>
    5e2d: 86 95        	stx	$95                     ; 0x95 <__zp_bss_size+0x51>
    5e2f: a6 da        	ldx	$da                     ; 0xda <__zp_bss_size+0x96>
    5e31: 86 96        	stx	$96                     ; 0x96 <__zp_bss_size+0x52>
    5e33: 84 18        	sty	$18                     ; 0x18 <__rc8>
    5e35: a5 94        	lda	$94                     ; 0x94 <__zp_bss_size+0x50>
    5e37: 0a           	asl
    5e38: 0a           	asl
    5e39: 0a           	asl
    5e3a: 85 12        	sta	$12                     ; 0x12 <__rc2>
    5e3c: a2 00        	ldx	#$0
    5e3e: 8a           	txa
    5e3f: 4c f6 5e     	jmp	$5ef6 <printf+0x6f5>
    5e42: a4 13        	ldy	$13                     ; 0x13 <__rc3>
    5e44: 99 a1 00     	sta	$a1,y                   ; 0xa1 <__zp_bss_size+0x5d>
    5e47: a4 15        	ldy	$15                     ; 0x15 <__rc5>
    5e49: c4 13        	cpy	$13                     ; 0x13 <__rc3>
    5e4b: f0 38        	beq	$5e85 <printf+0x684>
    5e4d: e6 13        	inc	$13                     ; 0x13 <__rc3>
    5e4f: a4 13        	ldy	$13                     ; 0x13 <__rc3>
    5e51: b9 a1 00     	lda	$a1,y                   ; 0xa1 <__zp_bss_size+0x5d>
    5e54: 0a           	asl
    5e55: e0 00        	cpx	#$0
    5e57: f0 02        	beq	$5e5b <printf+0x65a>
    5e59: 09 01        	ora	#$1
    5e5b: a4 9e        	ldy	$9e                     ; 0x9e <__zp_bss_size+0x5a>
    5e5d: 84 14        	sty	$14                     ; 0x14 <__rc4>
    5e5f: c5 14        	cmp	$14                     ; 0x14 <__rc4>
    5e61: a2 01        	ldx	#$1
    5e63: b0 02        	bcs	$5e67 <printf+0x666>
    5e65: a2 00        	ldx	#$0
    5e67: 90 d9        	bcc	$5e42 <printf+0x641>
    5e69: 84 14        	sty	$14                     ; 0x14 <__rc4>
    5e6b: 38           	sec
    5e6c: e5 14        	sbc	$14                     ; 0x14 <__rc4>
    5e6e: a4 13        	ldy	$13                     ; 0x13 <__rc3>
    5e70: 99 a1 00     	sta	$a1,y                   ; 0xa1 <__zp_bss_size+0x5d>
    5e73: a4 15        	ldy	$15                     ; 0x15 <__rc5>
    5e75: c4 13        	cpy	$13                     ; 0x13 <__rc3>
    5e77: d0 d4        	bne	$5e4d <printf+0x64c>
    5e79: a4 9d        	ldy	$9d                     ; 0x9d <__zp_bss_size+0x59>
    5e7b: a6 9d        	ldx	$9d                     ; 0x9d <__zp_bss_size+0x59>
    5e7d: e8           	inx
    5e7e: a9 01        	lda	#$1
    5e80: 99 a1 00     	sta	$a1,y                   ; 0xa1 <__zp_bss_size+0x5d>
    5e83: 86 9d        	stx	$9d                     ; 0x9d <__zp_bss_size+0x59>
    5e85: a6 94        	ldx	$94                     ; 0x94 <__zp_bss_size+0x50>
    5e87: b5 b8        	lda	$b8,x                   ; 0xb8 <__zp_bss_size+0x74>
    5e89: aa           	tax
    5e8a: 10 41        	bpl	$5ecd <printf+0x6cc>
    5e8c: a5 9d        	lda	$9d                     ; 0x9d <__zp_bss_size+0x59>
    5e8e: f0 2f        	beq	$5ebf <printf+0x6be>
    5e90: a2 00        	ldx	#$0
    5e92: a4 9e        	ldy	$9e                     ; 0x9e <__zp_bss_size+0x5a>
    5e94: 84 14        	sty	$14                     ; 0x14 <__rc4>
    5e96: b5 a1        	lda	$a1,x                   ; 0xa1 <__zp_bss_size+0x5d>
    5e98: 1a           	inc
    5e99: f6 a1        	inc	$a1,x                   ; 0xa1 <__zp_bss_size+0x5d>
    5e9b: c5 14        	cmp	$14                     ; 0x14 <__rc4>
    5e9d: 90 2e        	bcc	$5ecd <printf+0x6cc>
    5e9f: a4 9e        	ldy	$9e                     ; 0x9e <__zp_bss_size+0x5a>
    5ea1: 84 13        	sty	$13                     ; 0x13 <__rc3>
    5ea3: 38           	sec
    5ea4: e5 13        	sbc	$13                     ; 0x13 <__rc3>
    5ea6: 9d a1 00     	sta	$a1,x                   ; 0xa1 <__zp_bss_size+0x5d>
    5ea9: e8           	inx
    5eaa: 86 13        	stx	$13                     ; 0x13 <__rc3>
    5eac: a4 9d        	ldy	$9d                     ; 0x9d <__zp_bss_size+0x59>
    5eae: c4 13        	cpy	$13                     ; 0x13 <__rc3>
    5eb0: d0 e4        	bne	$5e96 <printf+0x695>
    5eb2: 80 0d        	bra	$5ec1 <printf+0x6c0>
    5eb4: a6 94        	ldx	$94                     ; 0x94 <__zp_bss_size+0x50>
    5eb6: b5 b8        	lda	$b8,x                   ; 0xb8 <__zp_bss_size+0x74>
    5eb8: aa           	tax
    5eb9: 64 9d        	stz	$9d                     ; 0x9d <__zp_bss_size+0x59>
    5ebb: 30 04        	bmi	$5ec1 <printf+0x6c0>
    5ebd: 80 0e        	bra	$5ecd <printf+0x6cc>
    5ebf: 64 9d        	stz	$9d                     ; 0x9d <__zp_bss_size+0x59>
    5ec1: a4 9d        	ldy	$9d                     ; 0x9d <__zp_bss_size+0x59>
    5ec3: a6 9d        	ldx	$9d                     ; 0x9d <__zp_bss_size+0x59>
    5ec5: e8           	inx
    5ec6: a9 01        	lda	#$1
    5ec8: 99 a1 00     	sta	$a1,y                   ; 0xa1 <__zp_bss_size+0x5d>
    5ecb: 86 9d        	stx	$9d                     ; 0x9d <__zp_bss_size+0x59>
    5ecd: a2 01        	ldx	#$1
    5ecf: 86 16        	stx	$16                     ; 0x16 <__rc6>
    5ed1: 64 13        	stz	$13                     ; 0x13 <__rc3>
    5ed3: ca           	dex
    5ed4: a4 94        	ldy	$94                     ; 0x94 <__zp_bss_size+0x50>
    5ed6: b5 b9        	lda	$b9,x                   ; 0xb9 <__zp_bss_size+0x75>
    5ed8: 0a           	asl
    5ed9: 64 14        	stz	$14                     ; 0x14 <__rc4>
    5edb: 26 14        	rol	$14                     ; 0x14 <__rc4>
    5edd: 05 13        	ora	$13                     ; 0x13 <__rc3>
    5edf: 9d b9 00     	sta	$b9,x                   ; 0xb9 <__zp_bss_size+0x75>
    5ee2: e8           	inx
    5ee3: 86 15        	stx	$15                     ; 0x15 <__rc5>
    5ee5: a5 14        	lda	$14                     ; 0x14 <__rc4>
    5ee7: 85 13        	sta	$13                     ; 0x13 <__rc3>
    5ee9: c4 15        	cpy	$15                     ; 0x15 <__rc5>
    5eeb: d0 e9        	bne	$5ed6 <printf+0x6d5>
    5eed: a5 19        	lda	$19                     ; 0x19 <__rc9>
    5eef: 1a           	inc
    5ef0: c5 12        	cmp	$12                     ; 0x12 <__rc2>
    5ef2: a6 9d        	ldx	$9d                     ; 0x9d <__zp_bss_size+0x59>
    5ef4: b0 12        	bcs	$5f08 <printf+0x707>
    5ef6: 85 19        	sta	$19                     ; 0x19 <__rc9>
    5ef8: 8a           	txa
    5ef9: f0 b9        	beq	$5eb4 <printf+0x6b3>
    5efb: 8a           	txa
    5efc: 86 9d        	stx	$9d                     ; 0x9d <__zp_bss_size+0x59>
    5efe: 3a           	dec
    5eff: 85 15        	sta	$15                     ; 0x15 <__rc5>
    5f01: a2 00        	ldx	#$0
    5f03: 64 13        	stz	$13                     ; 0x13 <__rc3>
    5f05: 4c 4f 5e     	jmp	$5e4f <printf+0x64e>
    5f08: a4 16        	ldy	$16                     ; 0x16 <__rc6>
    5f0a: a5 9a        	lda	$9a                     ; 0x9a <__zp_bss_size+0x56>
    5f0c: 30 06        	bmi	$5f14 <printf+0x713>
    5f0e: a5 d8        	lda	$d8                     ; 0xd8 <__zp_bss_size+0x94>
    5f10: 85 99        	sta	$99                     ; 0x99 <__zp_bss_size+0x55>
    5f12: 80 08        	bra	$5f1c <printf+0x71b>
    5f14: a2 01        	ldx	#$1
    5f16: 64 9a        	stz	$9a                     ; 0x9a <__zp_bss_size+0x56>
    5f18: 86 99        	stx	$99                     ; 0x99 <__zp_bss_size+0x55>
    5f1a: a6 9d        	ldx	$9d                     ; 0x9d <__zp_bss_size+0x59>
    5f1c: a5 93        	lda	$93                     ; 0x93 <__zp_bss_size+0x4f>
    5f1e: 29 04        	and	#$4
    5f20: f0 2f        	beq	$5f51 <printf+0x750>
    5f22: a5 9e        	lda	$9e                     ; 0x9e <__zp_bss_size+0x5a>
    5f24: c9 10        	cmp	#$10
    5f26: f0 14        	beq	$5f3c <printf+0x73b>
    5f28: c9 08        	cmp	#$8
    5f2a: d0 25        	bne	$5f51 <printf+0x750>
    5f2c: a2 00        	ldx	#$0
    5f2e: e4 9a        	cpx	$9a                     ; 0x9a <__zp_bss_size+0x56>
    5f30: f0 03        	beq	$5f35 <printf+0x734>
    5f32: 4c fd 64     	jmp	$64fd <printf+0xcfc>
    5f35: a6 9d        	ldx	$9d                     ; 0x9d <__zp_bss_size+0x59>
    5f37: e4 99        	cpx	$99                     ; 0x99 <__zp_bss_size+0x55>
    5f39: 4c ff 64     	jmp	$64ff <printf+0xcfe>
    5f3c: 8a           	txa
    5f3d: f0 12        	beq	$5f51 <printf+0x750>
    5f3f: a5 93        	lda	$93                     ; 0x93 <__zp_bss_size+0x4f>
    5f41: a6 99        	ldx	$99                     ; 0x99 <__zp_bss_size+0x55>
    5f43: 29 80        	and	#$80
    5f45: d0 03        	bne	$5f4a <printf+0x749>
    5f47: 4c 18 65     	jmp	$6518 <printf+0xd17>
    5f4a: 86 d8        	stx	$d8                     ; 0xd8 <__zp_bss_size+0x94>
    5f4c: a2 78        	ldx	#$78
    5f4e: 4c 1c 65     	jmp	$651c <printf+0xd1b>
    5f51: a6 93        	ldx	$93                     ; 0x93 <__zp_bss_size+0x4f>
    5f53: a9 2d        	lda	#$2d
    5f55: 85 d9        	sta	$d9                     ; 0xd9 <__zp_bss_size+0x95>
    5f57: a5 18        	lda	$18                     ; 0x18 <__rc8>
    5f59: d0 22        	bne	$5f7d <printf+0x77c>
    5f5b: 86 12        	stx	$12                     ; 0x12 <__rc2>
    5f5d: 8a           	txa
    5f5e: 29 02        	and	#$2
    5f60: a2 2b        	ldx	#$2b
    5f62: 86 d9        	stx	$d9                     ; 0xd9 <__zp_bss_size+0x95>
    5f64: aa           	tax
    5f65: d0 16        	bne	$5f7d <printf+0x77c>
    5f67: a6 99        	ldx	$99                     ; 0x99 <__zp_bss_size+0x55>
    5f69: 86 d8        	stx	$d8                     ; 0xd8 <__zp_bss_size+0x94>
    5f6b: a5 12        	lda	$12                     ; 0x12 <__rc2>
    5f6d: 29 08        	and	#$8
    5f6f: f0 03        	beq	$5f74 <printf+0x773>
    5f71: 4c f6 64     	jmp	$64f6 <printf+0xcf5>
    5f74: a2 01        	ldx	#$1
    5f76: 86 9c        	stx	$9c                     ; 0x9c <__zp_bss_size+0x58>
    5f78: 64 16        	stz	$16                     ; 0x16 <__rc6>
    5f7a: ca           	dex
    5f7b: 80 08        	bra	$5f85 <printf+0x784>
    5f7d: a6 99        	ldx	$99                     ; 0x99 <__zp_bss_size+0x55>
    5f7f: 86 d8        	stx	$d8                     ; 0xd8 <__zp_bss_size+0x94>
    5f81: a2 00        	ldx	#$0
    5f83: 86 9c        	stx	$9c                     ; 0x9c <__zp_bss_size+0x58>
    5f85: 86 99        	stx	$99                     ; 0x99 <__zp_bss_size+0x55>
    5f87: a5 9a        	lda	$9a                     ; 0x9a <__zp_bss_size+0x56>
    5f89: d0 08        	bne	$5f93 <printf+0x792>
    5f8b: a5 d8        	lda	$d8                     ; 0xd8 <__zp_bss_size+0x94>
    5f8d: c5 9d        	cmp	$9d                     ; 0x9d <__zp_bss_size+0x59>
    5f8f: 85 12        	sta	$12                     ; 0x12 <__rc2>
    5f91: 80 08        	bra	$5f9b <printf+0x79a>
    5f93: a6 9a        	ldx	$9a                     ; 0x9a <__zp_bss_size+0x56>
    5f95: e0 00        	cpx	#$0
    5f97: a6 d8        	ldx	$d8                     ; 0xd8 <__zp_bss_size+0x94>
    5f99: 86 12        	stx	$12                     ; 0x12 <__rc2>
    5f9b: a6 9a        	ldx	$9a                     ; 0x9a <__zp_bss_size+0x56>
    5f9d: 86 13        	stx	$13                     ; 0x13 <__rc3>
    5f9f: b0 06        	bcs	$5fa7 <printf+0x7a6>
    5fa1: a6 9d        	ldx	$9d                     ; 0x9d <__zp_bss_size+0x59>
    5fa3: 86 12        	stx	$12                     ; 0x12 <__rc2>
    5fa5: 64 13        	stz	$13                     ; 0x13 <__rc3>
    5fa7: a5 16        	lda	$16                     ; 0x16 <__rc6>
    5fa9: 18           	clc
    5faa: 65 12        	adc	$12                     ; 0x12 <__rc2>
    5fac: aa           	tax
    5fad: 85 14        	sta	$14                     ; 0x14 <__rc4>
    5faf: a5 13        	lda	$13                     ; 0x13 <__rc3>
    5fb1: 69 00        	adc	#$0
    5fb3: 85 15        	sta	$15                     ; 0x15 <__rc5>
    5fb5: c5 1a        	cmp	$1a                     ; 0x1a <__rc10>
    5fb7: d0 04        	bne	$5fbd <printf+0x7bc>
    5fb9: e4 17        	cpx	$17                     ; 0x17 <__rc7>
    5fbb: 80 02        	bra	$5fbf <printf+0x7be>
    5fbd: c5 1a        	cmp	$1a                     ; 0x1a <__rc10>
    5fbf: 64 9e        	stz	$9e                     ; 0x9e <__zp_bss_size+0x5a>
    5fc1: 64 94        	stz	$94                     ; 0x94 <__zp_bss_size+0x50>
    5fc3: a6 9d        	ldx	$9d                     ; 0x9d <__zp_bss_size+0x59>
    5fc5: 90 03        	bcc	$5fca <printf+0x7c9>
    5fc7: 4c 85 60     	jmp	$6085 <printf+0x884>
    5fca: a5 93        	lda	$93                     ; 0x93 <__zp_bss_size+0x4f>
    5fcc: 29 11        	and	#$11
    5fce: f0 10        	beq	$5fe0 <printf+0x7df>
    5fd0: a5 17        	lda	$17                     ; 0x17 <__rc7>
    5fd2: 38           	sec
    5fd3: e5 14        	sbc	$14                     ; 0x14 <__rc4>
    5fd5: 85 9e        	sta	$9e                     ; 0x9e <__zp_bss_size+0x5a>
    5fd7: a5 1a        	lda	$1a                     ; 0x1a <__rc10>
    5fd9: e5 15        	sbc	$15                     ; 0x15 <__rc5>
    5fdb: 85 94        	sta	$94                     ; 0x94 <__zp_bss_size+0x50>
    5fdd: 4c 85 60     	jmp	$6085 <printf+0x884>
    5fe0: a6 c8        	ldx	$c8                     ; 0xc8 <__zp_bss_size+0x84>
    5fe2: 86 15        	stx	$15                     ; 0x15 <__rc5>
    5fe4: 38           	sec
    5fe5: a5 16        	lda	$16                     ; 0x16 <__rc6>
    5fe7: e5 17        	sbc	$17                     ; 0x17 <__rc7>
    5fe9: aa           	tax
    5fea: a9 00        	lda	#$0
    5fec: e5 1a        	sbc	$1a                     ; 0x1a <__rc10>
    5fee: 85 14        	sta	$14                     ; 0x14 <__rc4>
    5ff0: 18           	clc
    5ff1: 8a           	txa
    5ff2: 65 12        	adc	$12                     ; 0x12 <__rc2>
    5ff4: 85 93        	sta	$93                     ; 0x93 <__zp_bss_size+0x4f>
    5ff6: a5 14        	lda	$14                     ; 0x14 <__rc4>
    5ff8: 65 13        	adc	$13                     ; 0x13 <__rc3>
    5ffa: 85 94        	sta	$94                     ; 0x94 <__zp_bss_size+0x50>
    5ffc: a5 c9        	lda	$c9                     ; 0xc9 <__zp_bss_size+0x85>
    5ffe: 4c 6d 60     	jmp	$606d <printf+0x86c>
    6001: c5 c7        	cmp	$c7                     ; 0xc7 <__zp_bss_size+0x83>
    6003: a6 94        	ldx	$94                     ; 0x94 <__zp_bss_size+0x50>
    6005: 86 12        	stx	$12                     ; 0x12 <__rc2>
    6007: b0 3d        	bcs	$6046 <printf+0x845>
    6009: a2 01        	ldx	#$1
    600b: 86 14        	stx	$14                     ; 0x14 <__rc4>
    600d: a6 d3        	ldx	$d3                     ; 0xd3 <__zp_bss_size+0x8f>
    600f: a0 00        	ldy	#$0
    6011: 84 12        	sty	$12                     ; 0x12 <__rc2>
    6013: a0 00        	ldy	#$0
    6015: 84 13        	sty	$13                     ; 0x13 <__rc3>
    6017: e4 13        	cpx	$13                     ; 0x13 <__rc3>
    6019: d0 1b        	bne	$6036 <printf+0x835>
    601b: a6 d2        	ldx	$d2                     ; 0xd2 <__zp_bss_size+0x8e>
    601d: e4 12        	cpx	$12                     ; 0x12 <__rc2>
    601f: d0 15        	bne	$6036 <printf+0x835>
    6021: a4 14        	ldy	$14                     ; 0x14 <__rc4>
    6023: 18           	clc
    6024: aa           	tax
    6025: a5 15        	lda	$15                     ; 0x15 <__rc5>
    6027: 65 cc        	adc	$cc                     ; 0xcc <__zp_bss_size+0x88>
    6029: 85 12        	sta	$12                     ; 0x12 <__rc2>
    602b: 8a           	txa
    602c: 65 cd        	adc	$cd                     ; 0xcd <__zp_bss_size+0x89>
    602e: 85 13        	sta	$13                     ; 0x13 <__rc3>
    6030: a9 20        	lda	#$20
    6032: 92 12        	sta	($12)                   ; 0x12 <__rc2>
    6034: 80 0c        	bra	$6042 <printf+0x841>
    6036: a2 01        	ldx	#$1
    6038: 86 9b        	stx	$9b                     ; 0x9b <__zp_bss_size+0x57>
    603a: ca           	dex
    603b: a9 20        	lda	#$20
    603d: 20 3b 65     	jsr	$653b <putchar>
    6040: a4 9b        	ldy	$9b                     ; 0x9b <__zp_bss_size+0x57>
    6042: a6 94        	ldx	$94                     ; 0x94 <__zp_bss_size+0x50>
    6044: 86 12        	stx	$12                     ; 0x12 <__rc2>
    6046: a6 c8        	ldx	$c8                     ; 0xc8 <__zp_bss_size+0x84>
    6048: a5 c9        	lda	$c9                     ; 0xc9 <__zp_bss_size+0x85>
    604a: e8           	inx
    604b: d0 01        	bne	$604e <printf+0x84d>
    604d: 1a           	inc
    604e: 86 15        	stx	$15                     ; 0x15 <__rc5>
    6050: 86 c8        	stx	$c8                     ; 0xc8 <__zp_bss_size+0x84>
    6052: 85 c9        	sta	$c9                     ; 0xc9 <__zp_bss_size+0x85>
    6054: a6 93        	ldx	$93                     ; 0x93 <__zp_bss_size+0x4f>
    6056: e8           	inx
    6057: d0 02        	bne	$605b <printf+0x85a>
    6059: e6 12        	inc	$12                     ; 0x12 <__rc2>
    605b: 86 93        	stx	$93                     ; 0x93 <__zp_bss_size+0x4f>
    605d: 5a           	phy
    605e: a4 12        	ldy	$12                     ; 0x12 <__rc2>
    6060: 84 94        	sty	$94                     ; 0x94 <__zp_bss_size+0x50>
    6062: 7a           	ply
    6063: e6 12        	inc	$12                     ; 0x12 <__rc2>
    6065: c6 12        	dec	$12                     ; 0x12 <__rc2>
    6067: d0 04        	bne	$606d <printf+0x86c>
    6069: e0 00        	cpx	#$0
    606b: f0 12        	beq	$607f <printf+0x87e>
    606d: c5 c7        	cmp	$c7                     ; 0xc7 <__zp_bss_size+0x83>
    606f: f0 03        	beq	$6074 <printf+0x873>
    6071: 4c 01 60     	jmp	$6001 <printf+0x800>
    6074: a6 c6        	ldx	$c6                     ; 0xc6 <__zp_bss_size+0x82>
    6076: 86 12        	stx	$12                     ; 0x12 <__rc2>
    6078: a6 15        	ldx	$15                     ; 0x15 <__rc5>
    607a: e4 12        	cpx	$12                     ; 0x12 <__rc2>
    607c: 4c 03 60     	jmp	$6003 <printf+0x802>
    607f: 64 9e        	stz	$9e                     ; 0x9e <__zp_bss_size+0x5a>
    6081: 64 94        	stz	$94                     ; 0x94 <__zp_bss_size+0x50>
    6083: a6 9d        	ldx	$9d                     ; 0x9d <__zp_bss_size+0x59>
    6085: a5 9c        	lda	$9c                     ; 0x9c <__zp_bss_size+0x58>
    6087: f0 03        	beq	$608c <printf+0x88b>
    6089: 4c ed 60     	jmp	$60ed <printf+0x8ec>
    608c: a6 c8        	ldx	$c8                     ; 0xc8 <__zp_bss_size+0x84>
    608e: a5 c9        	lda	$c9                     ; 0xc9 <__zp_bss_size+0x85>
    6090: c5 c7        	cmp	$c7                     ; 0xc7 <__zp_bss_size+0x83>
    6092: d0 10        	bne	$60a4 <printf+0x8a3>
    6094: 86 13        	stx	$13                     ; 0x13 <__rc3>
    6096: a6 c6        	ldx	$c6                     ; 0xc6 <__zp_bss_size+0x82>
    6098: 86 12        	stx	$12                     ; 0x12 <__rc2>
    609a: a6 13        	ldx	$13                     ; 0x13 <__rc3>
    609c: 86 15        	stx	$15                     ; 0x15 <__rc5>
    609e: e4 12        	cpx	$12                     ; 0x12 <__rc2>
    60a0: 90 08        	bcc	$60aa <printf+0x8a9>
    60a2: 80 41        	bra	$60e5 <printf+0x8e4>
    60a4: 86 15        	stx	$15                     ; 0x15 <__rc5>
    60a6: c5 c7        	cmp	$c7                     ; 0xc7 <__zp_bss_size+0x83>
    60a8: b0 3b        	bcs	$60e5 <printf+0x8e4>
    60aa: a2 01        	ldx	#$1
    60ac: 86 14        	stx	$14                     ; 0x14 <__rc4>
    60ae: a6 d3        	ldx	$d3                     ; 0xd3 <__zp_bss_size+0x8f>
    60b0: a0 00        	ldy	#$0
    60b2: 84 12        	sty	$12                     ; 0x12 <__rc2>
    60b4: a0 00        	ldy	#$0
    60b6: 84 13        	sty	$13                     ; 0x13 <__rc3>
    60b8: e4 13        	cpx	$13                     ; 0x13 <__rc3>
    60ba: d0 1d        	bne	$60d9 <printf+0x8d8>
    60bc: a6 d2        	ldx	$d2                     ; 0xd2 <__zp_bss_size+0x8e>
    60be: e4 12        	cpx	$12                     ; 0x12 <__rc2>
    60c0: d0 17        	bne	$60d9 <printf+0x8d8>
    60c2: a4 14        	ldy	$14                     ; 0x14 <__rc4>
    60c4: 18           	clc
    60c5: 85 16        	sta	$16                     ; 0x16 <__rc6>
    60c7: a5 15        	lda	$15                     ; 0x15 <__rc5>
    60c9: 65 cc        	adc	$cc                     ; 0xcc <__zp_bss_size+0x88>
    60cb: 85 12        	sta	$12                     ; 0x12 <__rc2>
    60cd: a5 16        	lda	$16                     ; 0x16 <__rc6>
    60cf: 65 cd        	adc	$cd                     ; 0xcd <__zp_bss_size+0x89>
    60d1: 85 13        	sta	$13                     ; 0x13 <__rc3>
    60d3: a5 d9        	lda	$d9                     ; 0xd9 <__zp_bss_size+0x95>
    60d5: 92 12        	sta	($12)                   ; 0x12 <__rc2>
    60d7: 80 0c        	bra	$60e5 <printf+0x8e4>
    60d9: a2 01        	ldx	#$1
    60db: 86 9b        	stx	$9b                     ; 0x9b <__zp_bss_size+0x57>
    60dd: ca           	dex
    60de: a5 d9        	lda	$d9                     ; 0xd9 <__zp_bss_size+0x95>
    60e0: 20 3b 65     	jsr	$653b <putchar>
    60e3: a4 9b        	ldy	$9b                     ; 0x9b <__zp_bss_size+0x57>
    60e5: e6 c8        	inc	$c8                     ; 0xc8 <__zp_bss_size+0x84>
    60e7: d0 02        	bne	$60eb <printf+0x8ea>
    60e9: e6 c9        	inc	$c9                     ; 0xc9 <__zp_bss_size+0x85>
    60eb: a6 9d        	ldx	$9d                     ; 0x9d <__zp_bss_size+0x59>
    60ed: a5 99        	lda	$99                     ; 0x99 <__zp_bss_size+0x55>
    60ef: d0 03        	bne	$60f4 <printf+0x8f3>
    60f1: 4c 55 61     	jmp	$6155 <printf+0x954>
    60f4: a6 c8        	ldx	$c8                     ; 0xc8 <__zp_bss_size+0x84>
    60f6: a5 c9        	lda	$c9                     ; 0xc9 <__zp_bss_size+0x85>
    60f8: c5 c7        	cmp	$c7                     ; 0xc7 <__zp_bss_size+0x83>
    60fa: d0 10        	bne	$610c <printf+0x90b>
    60fc: 86 13        	stx	$13                     ; 0x13 <__rc3>
    60fe: a6 c6        	ldx	$c6                     ; 0xc6 <__zp_bss_size+0x82>
    6100: 86 12        	stx	$12                     ; 0x12 <__rc2>
    6102: a6 13        	ldx	$13                     ; 0x13 <__rc3>
    6104: 86 15        	stx	$15                     ; 0x15 <__rc5>
    6106: e4 12        	cpx	$12                     ; 0x12 <__rc2>
    6108: 90 08        	bcc	$6112 <printf+0x911>
    610a: 80 41        	bra	$614d <printf+0x94c>
    610c: 86 15        	stx	$15                     ; 0x15 <__rc5>
    610e: c5 c7        	cmp	$c7                     ; 0xc7 <__zp_bss_size+0x83>
    6110: b0 3b        	bcs	$614d <printf+0x94c>
    6112: a2 01        	ldx	#$1
    6114: 86 14        	stx	$14                     ; 0x14 <__rc4>
    6116: a6 d3        	ldx	$d3                     ; 0xd3 <__zp_bss_size+0x8f>
    6118: a0 00        	ldy	#$0
    611a: 84 12        	sty	$12                     ; 0x12 <__rc2>
    611c: a0 00        	ldy	#$0
    611e: 84 13        	sty	$13                     ; 0x13 <__rc3>
    6120: e4 13        	cpx	$13                     ; 0x13 <__rc3>
    6122: d0 1d        	bne	$6141 <printf+0x940>
    6124: a6 d2        	ldx	$d2                     ; 0xd2 <__zp_bss_size+0x8e>
    6126: e4 12        	cpx	$12                     ; 0x12 <__rc2>
    6128: d0 17        	bne	$6141 <printf+0x940>
    612a: a4 14        	ldy	$14                     ; 0x14 <__rc4>
    612c: 18           	clc
    612d: 85 16        	sta	$16                     ; 0x16 <__rc6>
    612f: a5 15        	lda	$15                     ; 0x15 <__rc5>
    6131: 65 cc        	adc	$cc                     ; 0xcc <__zp_bss_size+0x88>
    6133: 85 12        	sta	$12                     ; 0x12 <__rc2>
    6135: a5 16        	lda	$16                     ; 0x16 <__rc6>
    6137: 65 cd        	adc	$cd                     ; 0xcd <__zp_bss_size+0x89>
    6139: 85 13        	sta	$13                     ; 0x13 <__rc3>
    613b: a5 dd        	lda	$dd                     ; 0xdd <__zp_bss_size+0x99>
    613d: 92 12        	sta	($12)                   ; 0x12 <__rc2>
    613f: 80 0c        	bra	$614d <printf+0x94c>
    6141: a2 01        	ldx	#$1
    6143: 86 9b        	stx	$9b                     ; 0x9b <__zp_bss_size+0x57>
    6145: ca           	dex
    6146: a5 dd        	lda	$dd                     ; 0xdd <__zp_bss_size+0x99>
    6148: 20 3b 65     	jsr	$653b <putchar>
    614b: a4 9b        	ldy	$9b                     ; 0x9b <__zp_bss_size+0x57>
    614d: e6 c8        	inc	$c8                     ; 0xc8 <__zp_bss_size+0x84>
    614f: d0 02        	bne	$6153 <printf+0x952>
    6151: e6 c9        	inc	$c9                     ; 0xc9 <__zp_bss_size+0x85>
    6153: a6 9d        	ldx	$9d                     ; 0x9d <__zp_bss_size+0x59>
    6155: a9 10        	lda	#$10
    6157: 25 c4        	and	$c4                     ; 0xc4 <__zp_bss_size+0x80>
    6159: d0 07        	bne	$6162 <printf+0x961>
    615b: a5 d8        	lda	$d8                     ; 0xd8 <__zp_bss_size+0x94>
    615d: 85 9c        	sta	$9c                     ; 0x9c <__zp_bss_size+0x58>
    615f: 4c 14 62     	jmp	$6214 <printf+0xa13>
    6162: 86 13        	stx	$13                     ; 0x13 <__rc3>
    6164: a5 c4        	lda	$c4                     ; 0xc4 <__zp_bss_size+0x80>
    6166: 29 01        	and	#$1
    6168: a6 d8        	ldx	$d8                     ; 0xd8 <__zp_bss_size+0x94>
    616a: 86 9c        	stx	$9c                     ; 0x9c <__zp_bss_size+0x58>
    616c: aa           	tax
    616d: f0 03        	beq	$6172 <printf+0x971>
    616f: 4c 0a 62     	jmp	$620a <printf+0xa09>
    6172: a5 9e        	lda	$9e                     ; 0x9e <__zp_bss_size+0x5a>
    6174: a6 94        	ldx	$94                     ; 0x94 <__zp_bss_size+0x50>
    6176: 86 12        	stx	$12                     ; 0x12 <__rc2>
    6178: a6 12        	ldx	$12                     ; 0x12 <__rc2>
    617a: d0 06        	bne	$6182 <printf+0x981>
    617c: aa           	tax
    617d: d0 03        	bne	$6182 <printf+0x981>
    617f: 4c 31 65     	jmp	$6531 <printf+0xd30>
    6182: a6 c8        	ldx	$c8                     ; 0xc8 <__zp_bss_size+0x84>
    6184: 86 15        	stx	$15                     ; 0x15 <__rc5>
    6186: a5 c9        	lda	$c9                     ; 0xc9 <__zp_bss_size+0x85>
    6188: 4c f6 61     	jmp	$61f6 <printf+0x9f5>
    618b: c5 c7        	cmp	$c7                     ; 0xc7 <__zp_bss_size+0x83>
    618d: b0 39        	bcs	$61c8 <printf+0x9c7>
    618f: a2 01        	ldx	#$1
    6191: 86 14        	stx	$14                     ; 0x14 <__rc4>
    6193: a6 d3        	ldx	$d3                     ; 0xd3 <__zp_bss_size+0x8f>
    6195: a0 00        	ldy	#$0
    6197: 84 12        	sty	$12                     ; 0x12 <__rc2>
    6199: a0 00        	ldy	#$0
    619b: 84 13        	sty	$13                     ; 0x13 <__rc3>
    619d: e4 13        	cpx	$13                     ; 0x13 <__rc3>
    619f: d0 1b        	bne	$61bc <printf+0x9bb>
    61a1: a6 d2        	ldx	$d2                     ; 0xd2 <__zp_bss_size+0x8e>
    61a3: e4 12        	cpx	$12                     ; 0x12 <__rc2>
    61a5: d0 15        	bne	$61bc <printf+0x9bb>
    61a7: a4 14        	ldy	$14                     ; 0x14 <__rc4>
    61a9: 18           	clc
    61aa: aa           	tax
    61ab: a5 15        	lda	$15                     ; 0x15 <__rc5>
    61ad: 65 cc        	adc	$cc                     ; 0xcc <__zp_bss_size+0x88>
    61af: 85 12        	sta	$12                     ; 0x12 <__rc2>
    61b1: 8a           	txa
    61b2: 65 cd        	adc	$cd                     ; 0xcd <__zp_bss_size+0x89>
    61b4: 85 13        	sta	$13                     ; 0x13 <__rc3>
    61b6: a9 30        	lda	#$30
    61b8: 92 12        	sta	($12)                   ; 0x12 <__rc2>
    61ba: 80 0c        	bra	$61c8 <printf+0x9c7>
    61bc: a2 01        	ldx	#$1
    61be: 86 9b        	stx	$9b                     ; 0x9b <__zp_bss_size+0x57>
    61c0: ca           	dex
    61c1: a9 30        	lda	#$30
    61c3: 20 3b 65     	jsr	$653b <putchar>
    61c6: a4 9b        	ldy	$9b                     ; 0x9b <__zp_bss_size+0x57>
    61c8: a6 c8        	ldx	$c8                     ; 0xc8 <__zp_bss_size+0x84>
    61ca: a5 c9        	lda	$c9                     ; 0xc9 <__zp_bss_size+0x85>
    61cc: e8           	inx
    61cd: d0 01        	bne	$61d0 <printf+0x9cf>
    61cf: 1a           	inc
    61d0: 86 15        	stx	$15                     ; 0x15 <__rc5>
    61d2: 86 c8        	stx	$c8                     ; 0xc8 <__zp_bss_size+0x84>
    61d4: 85 c9        	sta	$c9                     ; 0xc9 <__zp_bss_size+0x85>
    61d6: a6 9e        	ldx	$9e                     ; 0x9e <__zp_bss_size+0x5a>
    61d8: 86 12        	stx	$12                     ; 0x12 <__rc2>
    61da: a6 94        	ldx	$94                     ; 0x94 <__zp_bss_size+0x50>
    61dc: 86 13        	stx	$13                     ; 0x13 <__rc3>
    61de: a2 ff        	ldx	#$ff
    61e0: c6 12        	dec	$12                     ; 0x12 <__rc2>
    61e2: e4 12        	cpx	$12                     ; 0x12 <__rc2>
    61e4: d0 02        	bne	$61e8 <printf+0x9e7>
    61e6: c6 13        	dec	$13                     ; 0x13 <__rc3>
    61e8: a6 12        	ldx	$12                     ; 0x12 <__rc2>
    61ea: 86 9e        	stx	$9e                     ; 0x9e <__zp_bss_size+0x5a>
    61ec: a6 13        	ldx	$13                     ; 0x13 <__rc3>
    61ee: 86 94        	stx	$94                     ; 0x94 <__zp_bss_size+0x50>
    61f0: d0 04        	bne	$61f6 <printf+0x9f5>
    61f2: a6 12        	ldx	$12                     ; 0x12 <__rc2>
    61f4: f0 18        	beq	$620e <printf+0xa0d>
    61f6: c5 c7        	cmp	$c7                     ; 0xc7 <__zp_bss_size+0x83>
    61f8: f0 03        	beq	$61fd <printf+0x9fc>
    61fa: 4c 8b 61     	jmp	$618b <printf+0x98a>
    61fd: a6 c6        	ldx	$c6                     ; 0xc6 <__zp_bss_size+0x82>
    61ff: 86 12        	stx	$12                     ; 0x12 <__rc2>
    6201: a6 15        	ldx	$15                     ; 0x15 <__rc5>
    6203: e4 12        	cpx	$12                     ; 0x12 <__rc2>
    6205: b0 c1        	bcs	$61c8 <printf+0x9c7>
    6207: 4c 8f 61     	jmp	$618f <printf+0x98e>
    620a: a6 13        	ldx	$13                     ; 0x13 <__rc3>
    620c: 80 06        	bra	$6214 <printf+0xa13>
    620e: 64 9e        	stz	$9e                     ; 0x9e <__zp_bss_size+0x5a>
    6210: 64 94        	stz	$94                     ; 0x94 <__zp_bss_size+0x50>
    6212: a6 9d        	ldx	$9d                     ; 0x9d <__zp_bss_size+0x59>
    6214: a9 00        	lda	#$0
    6216: c5 9a        	cmp	$9a                     ; 0x9a <__zp_bss_size+0x56>
    6218: d0 07        	bne	$6221 <printf+0xa20>
    621a: e4 9c        	cpx	$9c                     ; 0x9c <__zp_bss_size+0x58>
    621c: 90 0a        	bcc	$6228 <printf+0xa27>
    621e: 4c ab 62     	jmp	$62ab <printf+0xaaa>
    6221: c5 9a        	cmp	$9a                     ; 0x9a <__zp_bss_size+0x56>
    6223: 90 03        	bcc	$6228 <printf+0xa27>
    6225: 4c ab 62     	jmp	$62ab <printf+0xaaa>
    6228: a6 c8        	ldx	$c8                     ; 0xc8 <__zp_bss_size+0x84>
    622a: 86 15        	stx	$15                     ; 0x15 <__rc5>
    622c: a5 c9        	lda	$c9                     ; 0xc9 <__zp_bss_size+0x85>
    622e: a2 ff        	ldx	#$ff
    6230: c6 9c        	dec	$9c                     ; 0x9c <__zp_bss_size+0x58>
    6232: e4 9c        	cpx	$9c                     ; 0x9c <__zp_bss_size+0x58>
    6234: d0 02        	bne	$6238 <printf+0xa37>
    6236: c6 9a        	dec	$9a                     ; 0x9a <__zp_bss_size+0x56>
    6238: c5 c7        	cmp	$c7                     ; 0xc7 <__zp_bss_size+0x83>
    623a: d0 0c        	bne	$6248 <printf+0xa47>
    623c: a6 c6        	ldx	$c6                     ; 0xc6 <__zp_bss_size+0x82>
    623e: 86 12        	stx	$12                     ; 0x12 <__rc2>
    6240: a6 15        	ldx	$15                     ; 0x15 <__rc5>
    6242: e4 12        	cpx	$12                     ; 0x12 <__rc2>
    6244: 90 06        	bcc	$624c <printf+0xa4b>
    6246: 80 3d        	bra	$6285 <printf+0xa84>
    6248: c5 c7        	cmp	$c7                     ; 0xc7 <__zp_bss_size+0x83>
    624a: b0 39        	bcs	$6285 <printf+0xa84>
    624c: a2 01        	ldx	#$1
    624e: 86 14        	stx	$14                     ; 0x14 <__rc4>
    6250: a6 d3        	ldx	$d3                     ; 0xd3 <__zp_bss_size+0x8f>
    6252: a0 00        	ldy	#$0
    6254: 84 12        	sty	$12                     ; 0x12 <__rc2>
    6256: a0 00        	ldy	#$0
    6258: 84 13        	sty	$13                     ; 0x13 <__rc3>
    625a: e4 13        	cpx	$13                     ; 0x13 <__rc3>
    625c: d0 1b        	bne	$6279 <printf+0xa78>
    625e: a6 d2        	ldx	$d2                     ; 0xd2 <__zp_bss_size+0x8e>
    6260: e4 12        	cpx	$12                     ; 0x12 <__rc2>
    6262: d0 15        	bne	$6279 <printf+0xa78>
    6264: a4 14        	ldy	$14                     ; 0x14 <__rc4>
    6266: 18           	clc
    6267: aa           	tax
    6268: a5 15        	lda	$15                     ; 0x15 <__rc5>
    626a: 65 cc        	adc	$cc                     ; 0xcc <__zp_bss_size+0x88>
    626c: 85 12        	sta	$12                     ; 0x12 <__rc2>
    626e: 8a           	txa
    626f: 65 cd        	adc	$cd                     ; 0xcd <__zp_bss_size+0x89>
    6271: 85 13        	sta	$13                     ; 0x13 <__rc3>
    6273: a9 30        	lda	#$30
    6275: 92 12        	sta	($12)                   ; 0x12 <__rc2>
    6277: 80 0c        	bra	$6285 <printf+0xa84>
    6279: a2 01        	ldx	#$1
    627b: 86 9b        	stx	$9b                     ; 0x9b <__zp_bss_size+0x57>
    627d: ca           	dex
    627e: a9 30        	lda	#$30
    6280: 20 3b 65     	jsr	$653b <putchar>
    6283: a4 9b        	ldy	$9b                     ; 0x9b <__zp_bss_size+0x57>
    6285: a6 c8        	ldx	$c8                     ; 0xc8 <__zp_bss_size+0x84>
    6287: a5 c9        	lda	$c9                     ; 0xc9 <__zp_bss_size+0x85>
    6289: e8           	inx
    628a: d0 01        	bne	$628d <printf+0xa8c>
    628c: 1a           	inc
    628d: 86 15        	stx	$15                     ; 0x15 <__rc5>
    628f: 86 c8        	stx	$c8                     ; 0xc8 <__zp_bss_size+0x84>
    6291: 85 c9        	sta	$c9                     ; 0xc9 <__zp_bss_size+0x85>
    6293: a2 00        	ldx	#$0
    6295: e4 9a        	cpx	$9a                     ; 0x9a <__zp_bss_size+0x56>
    6297: d0 09        	bne	$62a2 <printf+0xaa1>
    6299: a6 9d        	ldx	$9d                     ; 0x9d <__zp_bss_size+0x59>
    629b: e4 9c        	cpx	$9c                     ; 0x9c <__zp_bss_size+0x58>
    629d: b0 0c        	bcs	$62ab <printf+0xaaa>
    629f: 4c 2e 62     	jmp	$622e <printf+0xa2d>
    62a2: e4 9a        	cpx	$9a                     ; 0x9a <__zp_bss_size+0x56>
    62a4: a6 9d        	ldx	$9d                     ; 0x9d <__zp_bss_size+0x59>
    62a6: b0 03        	bcs	$62ab <printf+0xaaa>
    62a8: 4c 2e 62     	jmp	$622e <printf+0xa2d>
    62ab: 8a           	txa
    62ac: d0 03        	bne	$62b1 <printf+0xab0>
    62ae: 4c e2 63     	jmp	$63e2 <printf+0xbe1>
    62b1: ca           	dex
    62b2: d0 03        	bne	$62b7 <printf+0xab6>
    62b4: 4c 64 63     	jmp	$6364 <printf+0xb63>
    62b7: 86 9b        	stx	$9b                     ; 0x9b <__zp_bss_size+0x57>
    62b9: a6 df        	ldx	$df                     ; 0xdf <__zp_bss_size+0x9b>
    62bb: 8a           	txa
    62bc: 18           	clc
    62bd: 65 9b        	adc	$9b                     ; 0x9b <__zp_bss_size+0x57>
    62bf: 85 99        	sta	$99                     ; 0x99 <__zp_bss_size+0x55>
    62c1: a5 e0        	lda	$e0                     ; 0xe0 <__zp_bss_size+0x9c>
    62c3: 69 00        	adc	#$0
    62c5: 85 9a        	sta	$9a                     ; 0x9a <__zp_bss_size+0x56>
    62c7: 4c 52 63     	jmp	$6352 <printf+0xb51>
    62ca: 85 13        	sta	$13                     ; 0x13 <__rc3>
    62cc: a9 80        	lda	#$80
    62ce: 25 c4        	and	$c4                     ; 0xc4 <__zp_bss_size+0x80>
    62d0: f0 04        	beq	$62d6 <printf+0xad5>
    62d2: a2 61        	ldx	#$61
    62d4: 80 02        	bra	$62d8 <printf+0xad7>
    62d6: a2 41        	ldx	#$41
    62d8: 86 12        	stx	$12                     ; 0x12 <__rc2>
    62da: a2 01        	ldx	#$1
    62dc: 86 14        	stx	$14                     ; 0x14 <__rc4>
    62de: 18           	clc
    62df: a5 13        	lda	$13                     ; 0x13 <__rc3>
    62e1: 65 12        	adc	$12                     ; 0x12 <__rc2>
    62e3: 18           	clc
    62e4: 69 f6        	adc	#$f6
    62e6: a4 c8        	ldy	$c8                     ; 0xc8 <__zp_bss_size+0x84>
    62e8: a6 c9        	ldx	$c9                     ; 0xc9 <__zp_bss_size+0x85>
    62ea: e4 c7        	cpx	$c7                     ; 0xc7 <__zp_bss_size+0x83>
    62ec: d0 0c        	bne	$62fa <printf+0xaf9>
    62ee: 86 16        	stx	$16                     ; 0x16 <__rc6>
    62f0: a6 c6        	ldx	$c6                     ; 0xc6 <__zp_bss_size+0x82>
    62f2: 86 12        	stx	$12                     ; 0x12 <__rc2>
    62f4: 84 15        	sty	$15                     ; 0x15 <__rc5>
    62f6: c4 12        	cpy	$12                     ; 0x12 <__rc2>
    62f8: 80 06        	bra	$6300 <printf+0xaff>
    62fa: 84 15        	sty	$15                     ; 0x15 <__rc5>
    62fc: 86 16        	stx	$16                     ; 0x16 <__rc6>
    62fe: e4 c7        	cpx	$c7                     ; 0xc7 <__zp_bss_size+0x83>
    6300: a4 14        	ldy	$14                     ; 0x14 <__rc4>
    6302: b0 38        	bcs	$633c <printf+0xb3b>
    6304: 85 14        	sta	$14                     ; 0x14 <__rc4>
    6306: a9 01        	lda	#$1
    6308: a6 d3        	ldx	$d3                     ; 0xd3 <__zp_bss_size+0x8f>
    630a: a0 00        	ldy	#$0
    630c: 84 12        	sty	$12                     ; 0x12 <__rc2>
    630e: a0 00        	ldy	#$0
    6310: 84 13        	sty	$13                     ; 0x13 <__rc3>
    6312: e4 13        	cpx	$13                     ; 0x13 <__rc3>
    6314: d0 1a        	bne	$6330 <printf+0xb2f>
    6316: a6 d2        	ldx	$d2                     ; 0xd2 <__zp_bss_size+0x8e>
    6318: e4 12        	cpx	$12                     ; 0x12 <__rc2>
    631a: d0 14        	bne	$6330 <printf+0xb2f>
    631c: a8           	tay
    631d: 18           	clc
    631e: a5 15        	lda	$15                     ; 0x15 <__rc5>
    6320: 65 cc        	adc	$cc                     ; 0xcc <__zp_bss_size+0x88>
    6322: 85 12        	sta	$12                     ; 0x12 <__rc2>
    6324: a5 16        	lda	$16                     ; 0x16 <__rc6>
    6326: 65 cd        	adc	$cd                     ; 0xcd <__zp_bss_size+0x89>
    6328: 85 13        	sta	$13                     ; 0x13 <__rc3>
    632a: a5 14        	lda	$14                     ; 0x14 <__rc4>
    632c: 92 12        	sta	($12)                   ; 0x12 <__rc2>
    632e: 80 0c        	bra	$633c <printf+0xb3b>
    6330: a2 01        	ldx	#$1
    6332: 86 9c        	stx	$9c                     ; 0x9c <__zp_bss_size+0x58>
    6334: ca           	dex
    6335: a5 14        	lda	$14                     ; 0x14 <__rc4>
    6337: 20 3b 65     	jsr	$653b <putchar>
    633a: a4 9c        	ldy	$9c                     ; 0x9c <__zp_bss_size+0x58>
    633c: e6 c8        	inc	$c8                     ; 0xc8 <__zp_bss_size+0x84>
    633e: d0 02        	bne	$6342 <printf+0xb41>
    6340: e6 c9        	inc	$c9                     ; 0xc9 <__zp_bss_size+0x85>
    6342: c6 9b        	dec	$9b                     ; 0x9b <__zp_bss_size+0x57>
    6344: a2 ff        	ldx	#$ff
    6346: c6 99        	dec	$99                     ; 0x99 <__zp_bss_size+0x55>
    6348: e4 99        	cpx	$99                     ; 0x99 <__zp_bss_size+0x55>
    634a: d0 02        	bne	$634e <printf+0xb4d>
    634c: c6 9a        	dec	$9a                     ; 0x9a <__zp_bss_size+0x56>
    634e: a5 9b        	lda	$9b                     ; 0x9b <__zp_bss_size+0x57>
    6350: f0 12        	beq	$6364 <printf+0xb63>
    6352: b2 99        	lda	($99)                   ; 0x99 <__zp_bss_size+0x55>
    6354: c9 0a        	cmp	#$a
    6356: 90 03        	bcc	$635b <printf+0xb5a>
    6358: 4c ca 62     	jmp	$62ca <printf+0xac9>
    635b: a2 01        	ldx	#$1
    635d: 86 14        	stx	$14                     ; 0x14 <__rc4>
    635f: 09 30        	ora	#$30
    6361: 4c e6 62     	jmp	$62e6 <printf+0xae5>
    6364: a5 a1        	lda	$a1                     ; 0xa1 <__zp_bss_size+0x5d>
    6366: c9 0a        	cmp	#$a
    6368: b0 04        	bcs	$636e <printf+0xb6d>
    636a: 09 30        	ora	#$30
    636c: 80 18        	bra	$6386 <printf+0xb85>
    636e: 85 13        	sta	$13                     ; 0x13 <__rc3>
    6370: a9 80        	lda	#$80
    6372: 25 c4        	and	$c4                     ; 0xc4 <__zp_bss_size+0x80>
    6374: f0 04        	beq	$637a <printf+0xb79>
    6376: a2 61        	ldx	#$61
    6378: 80 02        	bra	$637c <printf+0xb7b>
    637a: a2 41        	ldx	#$41
    637c: 86 12        	stx	$12                     ; 0x12 <__rc2>
    637e: 18           	clc
    637f: a5 13        	lda	$13                     ; 0x13 <__rc3>
    6381: 65 12        	adc	$12                     ; 0x12 <__rc2>
    6383: 18           	clc
    6384: 69 f6        	adc	#$f6
    6386: a6 c8        	ldx	$c8                     ; 0xc8 <__zp_bss_size+0x84>
    6388: 86 15        	stx	$15                     ; 0x15 <__rc5>
    638a: a6 c9        	ldx	$c9                     ; 0xc9 <__zp_bss_size+0x85>
    638c: e4 c7        	cpx	$c7                     ; 0xc7 <__zp_bss_size+0x83>
    638e: d0 0e        	bne	$639e <printf+0xb9d>
    6390: 86 16        	stx	$16                     ; 0x16 <__rc6>
    6392: a6 c6        	ldx	$c6                     ; 0xc6 <__zp_bss_size+0x82>
    6394: 86 12        	stx	$12                     ; 0x12 <__rc2>
    6396: a6 15        	ldx	$15                     ; 0x15 <__rc5>
    6398: e4 12        	cpx	$12                     ; 0x12 <__rc2>
    639a: 90 08        	bcc	$63a4 <printf+0xba3>
    639c: 80 3e        	bra	$63dc <printf+0xbdb>
    639e: 86 16        	stx	$16                     ; 0x16 <__rc6>
    63a0: e4 c7        	cpx	$c7                     ; 0xc7 <__zp_bss_size+0x83>
    63a2: b0 38        	bcs	$63dc <printf+0xbdb>
    63a4: 85 14        	sta	$14                     ; 0x14 <__rc4>
    63a6: a9 01        	lda	#$1
    63a8: a6 d3        	ldx	$d3                     ; 0xd3 <__zp_bss_size+0x8f>
    63aa: a0 00        	ldy	#$0
    63ac: 84 12        	sty	$12                     ; 0x12 <__rc2>
    63ae: a0 00        	ldy	#$0
    63b0: 84 13        	sty	$13                     ; 0x13 <__rc3>
    63b2: e4 13        	cpx	$13                     ; 0x13 <__rc3>
    63b4: d0 1a        	bne	$63d0 <printf+0xbcf>
    63b6: a6 d2        	ldx	$d2                     ; 0xd2 <__zp_bss_size+0x8e>
    63b8: e4 12        	cpx	$12                     ; 0x12 <__rc2>
    63ba: d0 14        	bne	$63d0 <printf+0xbcf>
    63bc: a8           	tay
    63bd: 18           	clc
    63be: a5 15        	lda	$15                     ; 0x15 <__rc5>
    63c0: 65 cc        	adc	$cc                     ; 0xcc <__zp_bss_size+0x88>
    63c2: 85 12        	sta	$12                     ; 0x12 <__rc2>
    63c4: a5 16        	lda	$16                     ; 0x16 <__rc6>
    63c6: 65 cd        	adc	$cd                     ; 0xcd <__zp_bss_size+0x89>
    63c8: 85 13        	sta	$13                     ; 0x13 <__rc3>
    63ca: a5 14        	lda	$14                     ; 0x14 <__rc4>
    63cc: 92 12        	sta	($12)                   ; 0x12 <__rc2>
    63ce: 80 0c        	bra	$63dc <printf+0xbdb>
    63d0: a2 01        	ldx	#$1
    63d2: 86 99        	stx	$99                     ; 0x99 <__zp_bss_size+0x55>
    63d4: ca           	dex
    63d5: a5 14        	lda	$14                     ; 0x14 <__rc4>
    63d7: 20 3b 65     	jsr	$653b <putchar>
    63da: a4 99        	ldy	$99                     ; 0x99 <__zp_bss_size+0x55>
    63dc: e6 c8        	inc	$c8                     ; 0xc8 <__zp_bss_size+0x84>
    63de: d0 02        	bne	$63e2 <printf+0xbe1>
    63e0: e6 c9        	inc	$c9                     ; 0xc9 <__zp_bss_size+0x85>
    63e2: a5 c4        	lda	$c4                     ; 0xc4 <__zp_bss_size+0x80>
    63e4: 29 01        	and	#$1
    63e6: d0 27        	bne	$640f <printf+0xc0e>
    63e8: a6 c8        	ldx	$c8                     ; 0xc8 <__zp_bss_size+0x84>
    63ea: 86 15        	stx	$15                     ; 0x15 <__rc5>
    63ec: a5 c9        	lda	$c9                     ; 0xc9 <__zp_bss_size+0x85>
    63ee: a6 c6        	ldx	$c6                     ; 0xc6 <__zp_bss_size+0x82>
    63f0: 86 14        	stx	$14                     ; 0x14 <__rc4>
    63f2: a6 c7        	ldx	$c7                     ; 0xc7 <__zp_bss_size+0x83>
    63f4: 86 12        	stx	$12                     ; 0x12 <__rc2>
    63f6: 86 13        	stx	$13                     ; 0x13 <__rc3>
    63f8: c5 12        	cmp	$12                     ; 0x12 <__rc2>
    63fa: f0 03        	beq	$63ff <printf+0xbfe>
    63fc: 4c af 64     	jmp	$64af <printf+0xcae>
    63ff: a5 14        	lda	$14                     ; 0x14 <__rc4>
    6401: 85 12        	sta	$12                     ; 0x12 <__rc2>
    6403: a6 15        	ldx	$15                     ; 0x15 <__rc5>
    6405: e4 12        	cpx	$12                     ; 0x12 <__rc2>
    6407: 90 03        	bcc	$640c <printf+0xc0b>
    6409: 4c b7 64     	jmp	$64b7 <printf+0xcb6>
    640c: 4c d7 64     	jmp	$64d7 <printf+0xcd6>
    640f: a6 c8        	ldx	$c8                     ; 0xc8 <__zp_bss_size+0x84>
    6411: 86 15        	stx	$15                     ; 0x15 <__rc5>
    6413: a5 c9        	lda	$c9                     ; 0xc9 <__zp_bss_size+0x85>
    6415: a6 9e        	ldx	$9e                     ; 0x9e <__zp_bss_size+0x5a>
    6417: 5a           	phy
    6418: a4 94        	ldy	$94                     ; 0x94 <__zp_bss_size+0x50>
    641a: 84 12        	sty	$12                     ; 0x12 <__rc2>
    641c: 7a           	ply
    641d: e6 12        	inc	$12                     ; 0x12 <__rc2>
    641f: c6 12        	dec	$12                     ; 0x12 <__rc2>
    6421: f0 03        	beq	$6426 <printf+0xc25>
    6423: 4c 9b 64     	jmp	$649b <printf+0xc9a>
    6426: e0 00        	cpx	#$0
    6428: f0 c4        	beq	$63ee <printf+0xbed>
    642a: 4c 9b 64     	jmp	$649b <printf+0xc9a>
    642d: c5 c7        	cmp	$c7                     ; 0xc7 <__zp_bss_size+0x83>
    642f: b0 39        	bcs	$646a <printf+0xc69>
    6431: a2 01        	ldx	#$1
    6433: 86 14        	stx	$14                     ; 0x14 <__rc4>
    6435: a6 d3        	ldx	$d3                     ; 0xd3 <__zp_bss_size+0x8f>
    6437: a0 00        	ldy	#$0
    6439: 84 12        	sty	$12                     ; 0x12 <__rc2>
    643b: a0 00        	ldy	#$0
    643d: 84 13        	sty	$13                     ; 0x13 <__rc3>
    643f: e4 13        	cpx	$13                     ; 0x13 <__rc3>
    6441: d0 1b        	bne	$645e <printf+0xc5d>
    6443: a6 d2        	ldx	$d2                     ; 0xd2 <__zp_bss_size+0x8e>
    6445: e4 12        	cpx	$12                     ; 0x12 <__rc2>
    6447: d0 15        	bne	$645e <printf+0xc5d>
    6449: a4 14        	ldy	$14                     ; 0x14 <__rc4>
    644b: 18           	clc
    644c: aa           	tax
    644d: a5 15        	lda	$15                     ; 0x15 <__rc5>
    644f: 65 cc        	adc	$cc                     ; 0xcc <__zp_bss_size+0x88>
    6451: 85 12        	sta	$12                     ; 0x12 <__rc2>
    6453: 8a           	txa
    6454: 65 cd        	adc	$cd                     ; 0xcd <__zp_bss_size+0x89>
    6456: 85 13        	sta	$13                     ; 0x13 <__rc3>
    6458: a9 20        	lda	#$20
    645a: 92 12        	sta	($12)                   ; 0x12 <__rc2>
    645c: 80 0c        	bra	$646a <printf+0xc69>
    645e: a2 01        	ldx	#$1
    6460: 86 99        	stx	$99                     ; 0x99 <__zp_bss_size+0x55>
    6462: ca           	dex
    6463: a9 20        	lda	#$20
    6465: 20 3b 65     	jsr	$653b <putchar>
    6468: a4 99        	ldy	$99                     ; 0x99 <__zp_bss_size+0x55>
    646a: a6 c8        	ldx	$c8                     ; 0xc8 <__zp_bss_size+0x84>
    646c: a5 c9        	lda	$c9                     ; 0xc9 <__zp_bss_size+0x85>
    646e: e8           	inx
    646f: d0 01        	bne	$6472 <printf+0xc71>
    6471: 1a           	inc
    6472: 86 15        	stx	$15                     ; 0x15 <__rc5>
    6474: 86 c8        	stx	$c8                     ; 0xc8 <__zp_bss_size+0x84>
    6476: 85 c9        	sta	$c9                     ; 0xc9 <__zp_bss_size+0x85>
    6478: a6 9e        	ldx	$9e                     ; 0x9e <__zp_bss_size+0x5a>
    647a: 86 12        	stx	$12                     ; 0x12 <__rc2>
    647c: a6 94        	ldx	$94                     ; 0x94 <__zp_bss_size+0x50>
    647e: 86 13        	stx	$13                     ; 0x13 <__rc3>
    6480: a2 ff        	ldx	#$ff
    6482: c6 12        	dec	$12                     ; 0x12 <__rc2>
    6484: e4 12        	cpx	$12                     ; 0x12 <__rc2>
    6486: d0 02        	bne	$648a <printf+0xc89>
    6488: c6 13        	dec	$13                     ; 0x13 <__rc3>
    648a: a6 12        	ldx	$12                     ; 0x12 <__rc2>
    648c: 86 9e        	stx	$9e                     ; 0x9e <__zp_bss_size+0x5a>
    648e: a6 13        	ldx	$13                     ; 0x13 <__rc3>
    6490: 86 94        	stx	$94                     ; 0x94 <__zp_bss_size+0x50>
    6492: d0 07        	bne	$649b <printf+0xc9a>
    6494: a6 12        	ldx	$12                     ; 0x12 <__rc2>
    6496: d0 03        	bne	$649b <printf+0xc9a>
    6498: 4c ee 63     	jmp	$63ee <printf+0xbed>
    649b: c5 c7        	cmp	$c7                     ; 0xc7 <__zp_bss_size+0x83>
    649d: f0 03        	beq	$64a2 <printf+0xca1>
    649f: 4c 2d 64     	jmp	$642d <printf+0xc2c>
    64a2: a6 c6        	ldx	$c6                     ; 0xc6 <__zp_bss_size+0x82>
    64a4: 86 12        	stx	$12                     ; 0x12 <__rc2>
    64a6: a6 15        	ldx	$15                     ; 0x15 <__rc5>
    64a8: e4 12        	cpx	$12                     ; 0x12 <__rc2>
    64aa: b0 be        	bcs	$646a <printf+0xc69>
    64ac: 4c 31 64     	jmp	$6431 <printf+0xc30>
    64af: 86 12        	stx	$12                     ; 0x12 <__rc2>
    64b1: c5 12        	cmp	$12                     ; 0x12 <__rc2>
    64b3: a5 14        	lda	$14                     ; 0x14 <__rc4>
    64b5: 90 20        	bcc	$64d7 <printf+0xcd6>
    64b7: a6 13        	ldx	$13                     ; 0x13 <__rc3>
    64b9: d0 03        	bne	$64be <printf+0xcbd>
    64bb: aa           	tax
    64bc: f0 19        	beq	$64d7 <printf+0xcd6>
    64be: 18           	clc
    64bf: 65 cc        	adc	$cc                     ; 0xcc <__zp_bss_size+0x88>
    64c1: 85 12        	sta	$12                     ; 0x12 <__rc2>
    64c3: a5 13        	lda	$13                     ; 0x13 <__rc3>
    64c5: 65 cd        	adc	$cd                     ; 0xcd <__zp_bss_size+0x89>
    64c7: 85 13        	sta	$13                     ; 0x13 <__rc3>
    64c9: a2 ff        	ldx	#$ff
    64cb: c6 12        	dec	$12                     ; 0x12 <__rc2>
    64cd: e4 12        	cpx	$12                     ; 0x12 <__rc2>
    64cf: d0 02        	bne	$64d3 <printf+0xcd2>
    64d1: c6 13        	dec	$13                     ; 0x13 <__rc3>
    64d3: a9 00        	lda	#$0
    64d5: 92 12        	sta	($12)                   ; 0x12 <__rc2>
    64d7: e6 95        	inc	$95                     ; 0x95 <__zp_bss_size+0x51>
    64d9: d0 02        	bne	$64dd <printf+0xcdc>
    64db: e6 96        	inc	$96                     ; 0x96 <__zp_bss_size+0x52>
    64dd: a6 96        	ldx	$96                     ; 0x96 <__zp_bss_size+0x52>
    64df: e4 98        	cpx	$98                     ; 0x98 <__zp_bss_size+0x54>
    64e1: f0 03        	beq	$64e6 <printf+0xce5>
    64e3: 4c 66 58     	jmp	$5866 <printf+0x65>
    64e6: a6 95        	ldx	$95                     ; 0x95 <__zp_bss_size+0x51>
    64e8: e4 97        	cpx	$97                     ; 0x97 <__zp_bss_size+0x53>
    64ea: f0 03        	beq	$64ef <printf+0xcee>
    64ec: 4c 66 58     	jmp	$5866 <printf+0x65>
    64ef: b2 97        	lda	($97)                   ; 0x97 <__zp_bss_size+0x53>
    64f1: a2 00        	ldx	#$0
    64f3: 4c 7d 58     	jmp	$587d <printf+0x7c>
    64f6: a2 20        	ldx	#$20
    64f8: 86 d9        	stx	$d9                     ; 0xd9 <__zp_bss_size+0x95>
    64fa: 4c 81 5f     	jmp	$5f81 <printf+0x780>
    64fd: e4 9a        	cpx	$9a                     ; 0x9a <__zp_bss_size+0x56>
    64ff: a6 93        	ldx	$93                     ; 0x93 <__zp_bss_size+0x4f>
    6501: b0 03        	bcs	$6506 <printf+0xd05>
    6503: 4c 53 5f     	jmp	$5f53 <printf+0x752>
    6506: a5 9d        	lda	$9d                     ; 0x9d <__zp_bss_size+0x59>
    6508: 85 99        	sta	$99                     ; 0x99 <__zp_bss_size+0x55>
    650a: 64 9a        	stz	$9a                     ; 0x9a <__zp_bss_size+0x56>
    650c: e6 99        	inc	$99                     ; 0x99 <__zp_bss_size+0x55>
    650e: f0 03        	beq	$6513 <printf+0xd12>
    6510: 4c 53 5f     	jmp	$5f53 <printf+0x752>
    6513: e6 9a        	inc	$9a                     ; 0x9a <__zp_bss_size+0x56>
    6515: 4c 53 5f     	jmp	$5f53 <printf+0x752>
    6518: 86 d8        	stx	$d8                     ; 0xd8 <__zp_bss_size+0x94>
    651a: a2 58        	ldx	#$58
    651c: 86 dd        	stx	$dd                     ; 0xdd <__zp_bss_size+0x99>
    651e: a2 01        	ldx	#$1
    6520: 86 99        	stx	$99                     ; 0x99 <__zp_bss_size+0x55>
    6522: a2 30        	ldx	#$30
    6524: 86 d9        	stx	$d9                     ; 0xd9 <__zp_bss_size+0x95>
    6526: a2 02        	ldx	#$2
    6528: 86 16        	stx	$16                     ; 0x16 <__rc6>
    652a: a2 00        	ldx	#$0
    652c: 86 9c        	stx	$9c                     ; 0x9c <__zp_bss_size+0x58>
    652e: 4c 87 5f     	jmp	$5f87 <printf+0x786>
    6531: a6 13        	ldx	$13                     ; 0x13 <__rc3>
    6533: 64 9e        	stz	$9e                     ; 0x9e <__zp_bss_size+0x5a>
    6535: 64 94        	stz	$94                     ; 0x94 <__zp_bss_size+0x50>
    6537: 4c 14 62     	jmp	$6214 <printf+0xa13>
    653a: 60           	rts

0000653b <putchar>:
    653b: 86 12        	stx	$12                     ; 0x12 <__rc2>
    653d: 85 1b        	sta	$1b                     ; 0x1b <__rc11>
    653f: 85 46        	sta	$46                     ; 0x46 <__putchar.s>
    6541: a6 01        	ldx	$1                      ; 0x1 <__data_size+0x1>
    6543: 86 ec        	stx	$ec                     ; 0xec <__zp_bss_size+0xa8>
    6545: a6 41        	ldx	$41                     ; 0x41 <_row>
    6547: a0 50        	ldy	#$50
    6549: 8c 00 de     	sty	$de00                   ; 0xde00 <__heap_start+0x5ef4>
    654c: 9c 01 de     	stz	$de01                   ; 0xde01 <__heap_start+0x5ef5>
    654f: 8e 02 de     	stx	$de02                   ; 0xde02 <__heap_start+0x5ef6>
    6552: 9c 03 de     	stz	$de03                   ; 0xde03 <__heap_start+0x5ef7>
    6555: ae 10 de     	ldx	$de10                   ; 0xde10 <__heap_start+0x5f04>
    6558: 86 13        	stx	$13                     ; 0x13 <__rc3>
    655a: ad 11 de     	lda	$de11                   ; 0xde11 <__heap_start+0x5f05>
    655d: ae 12 de     	ldx	$de12                   ; 0xde12 <__heap_start+0x5f06>
    6560: 86 1a        	stx	$1a                     ; 0x1a <__rc10>
    6562: ae 13 de     	ldx	$de13                   ; 0xde13 <__heap_start+0x5f07>
    6565: 86 1c        	stx	$1c                     ; 0x1c <__rc12>
    6567: 9c 08 de     	stz	$de08                   ; 0xde08 <__heap_start+0x5efc>
    656a: a2 c0        	ldx	#$c0
    656c: 8e 09 de     	stx	$de09                   ; 0xde09 <__heap_start+0x5efd>
    656f: 9c 0a de     	stz	$de0a                   ; 0xde0a <__heap_start+0x5efe>
    6572: 9c 0b de     	stz	$de0b                   ; 0xde0b <__heap_start+0x5eff>
    6575: a6 13        	ldx	$13                     ; 0x13 <__rc3>
    6577: 8e 0c de     	stx	$de0c                   ; 0xde0c <__heap_start+0x5f00>
    657a: 8d 0d de     	sta	$de0d                   ; 0xde0d <__heap_start+0x5f01>
    657d: 64 13        	stz	$13                     ; 0x13 <__rc3>
    657f: a2 00        	ldx	#$0
    6581: 86 14        	stx	$14                     ; 0x14 <__rc4>
    6583: a2 c0        	ldx	#$c0
    6585: 86 15        	stx	$15                     ; 0x15 <__rc5>
    6587: a2 11        	ldx	#$11
    6589: 86 16        	stx	$16                     ; 0x16 <__rc6>
    658b: a2 c9        	ldx	#$c9
    658d: 86 17        	stx	$17                     ; 0x17 <__rc7>
    658f: a2 10        	ldx	#$10
    6591: 86 18        	stx	$18                     ; 0x18 <__rc8>
    6593: a2 c9        	ldx	#$c9
    6595: 86 19        	stx	$19                     ; 0x19 <__rc9>
    6597: a6 1a        	ldx	$1a                     ; 0x1a <__rc10>
    6599: 8e 0e de     	stx	$de0e                   ; 0xde0e <__heap_start+0x5f02>
    659c: a6 1c        	ldx	$1c                     ; 0x1c <__rc12>
    659e: 8e 0f de     	stx	$de0f                   ; 0xde0f <__heap_start+0x5f03>
    65a1: ae 18 de     	ldx	$de18                   ; 0xde18 <__heap_start+0x5f0c>
    65a4: 86 1c        	stx	$1c                     ; 0x1c <__rc12>
    65a6: ad 19 de     	lda	$de19                   ; 0xde19 <__heap_start+0x5f0d>
    65a9: ae 1a de     	ldx	$de1a                   ; 0xde1a <__heap_start+0x5f0e>
    65ac: ae 1b de     	ldx	$de1b                   ; 0xde1b <__heap_start+0x5f0f>
    65af: 85 1d        	sta	$1d                     ; 0x1d <__rc13>
    65b1: 64 1a        	stz	$1a                     ; 0x1a <__rc10>
    65b3: a2 20        	ldx	#$20
    65b5: 86 ee        	stx	$ee                     ; 0xee <__zp_bss_size+0xaa>
    65b7: 80 13        	bra	$65cc <putchar+0x91>
    65b9: a5 1c        	lda	$1c                     ; 0x1c <__rc12>
    65bb: 18           	clc
    65bc: 69 50        	adc	#$50
    65be: 85 1c        	sta	$1c                     ; 0x1c <__rc12>
    65c0: a5 1d        	lda	$1d                     ; 0x1d <__rc13>
    65c2: 69 00        	adc	#$0
    65c4: 85 1d        	sta	$1d                     ; 0x1d <__rc13>
    65c6: e6 13        	inc	$13                     ; 0x13 <__rc3>
    65c8: d0 02        	bne	$65cc <putchar+0x91>
    65ca: e6 1a        	inc	$1a                     ; 0x1a <__rc10>
    65cc: a9 46        	lda	#$46
    65ce: 18           	clc
    65cf: 65 13        	adc	$13                     ; 0x13 <__rc3>
    65d1: 85 1e        	sta	$1e                     ; 0x1e <__rc14>
    65d3: a9 00        	lda	#$0
    65d5: 65 1a        	adc	$1a                     ; 0x1a <__rc10>
    65d7: 85 1f        	sta	$1f                     ; 0x1f <__rc15>
    65d9: b2 1e        	lda	($1e)                   ; 0x1e <__rc14>
    65db: c9 0a        	cmp	#$a
    65dd: f0 2a        	beq	$6609 <putchar+0xce>
    65df: c9 0d        	cmp	#$d
    65e1: f0 26        	beq	$6609 <putchar+0xce>
    65e3: aa           	tax
    65e4: d0 03        	bne	$65e9 <putchar+0xae>
    65e6: 4c 17 67     	jmp	$6717 <putchar+0x1dc>
    65e9: a2 03        	ldx	#$3
    65eb: 86 01        	stx	$1                      ; 0x1 <__data_size+0x1>
    65ed: a5 3c        	lda	$3c                     ; 0x3c <_ccolor>
    65ef: 84 22        	sty	$22                     ; 0x22 <__rc18>
    65f1: a4 40        	ldy	$40                     ; 0x40 <_col>
    65f3: 91 1c        	sta	($1c),y                 ; 0x1c <__rc12>
    65f5: ca           	dex
    65f6: 86 01        	stx	$1                      ; 0x1 <__data_size+0x1>
    65f8: b2 1e        	lda	($1e)                   ; 0x1e <__rc14>
    65fa: a4 40        	ldy	$40                     ; 0x40 <_col>
    65fc: 91 1c        	sta	($1c),y                 ; 0x1c <__rc12>
    65fe: a4 22        	ldy	$22                     ; 0x22 <__rc18>
    6600: a6 40        	ldx	$40                     ; 0x40 <_col>
    6602: e8           	inx
    6603: e6 40        	inc	$40                     ; 0x40 <_col>
    6605: e0 50        	cpx	#$50
    6607: d0 bd        	bne	$65c6 <putchar+0x8b>
    6609: 64 40        	stz	$40                     ; 0x40 <_col>
    660b: a6 41        	ldx	$41                     ; 0x41 <_row>
    660d: e8           	inx
    660e: e6 41        	inc	$41                     ; 0x41 <_row>
    6610: e0 1e        	cpx	#$1e
    6612: f0 03        	beq	$6617 <putchar+0xdc>
    6614: 4c b9 65     	jmp	$65b9 <putchar+0x7e>
    6617: a2 03        	ldx	#$3
    6619: 86 01        	stx	$1                      ; 0x1 <__data_size+0x1>
    661b: a2 09        	ldx	#$9
    661d: a9 10        	lda	#$10
    661f: 5a           	phy
    6620: a0 00        	ldy	#$0
    6622: 84 1c        	sty	$1c                     ; 0x1c <__rc12>
    6624: a0 c0        	ldy	#$c0
    6626: 84 1d        	sty	$1d                     ; 0x1d <__rc13>
    6628: 7a           	ply
    6629: 85 1e        	sta	$1e                     ; 0x1e <__rc14>
    662b: b1 1c        	lda	($1c),y                 ; 0x1c <__rc12>
    662d: 92 1c        	sta	($1c)                   ; 0x1c <__rc12>
    662f: a9 ff        	lda	#$ff
    6631: c6 1e        	dec	$1e                     ; 0x1e <__rc14>
    6633: c5 1e        	cmp	$1e                     ; 0x1e <__rc14>
    6635: d0 01        	bne	$6638 <putchar+0xfd>
    6637: ca           	dex
    6638: e6 1c        	inc	$1c                     ; 0x1c <__rc12>
    663a: d0 02        	bne	$663e <putchar+0x103>
    663c: e6 1d        	inc	$1d                     ; 0x1d <__rc13>
    663e: 8a           	txa
    663f: d0 ea        	bne	$662b <putchar+0xf0>
    6641: a5 1e        	lda	$1e                     ; 0x1e <__rc14>
    6643: d0 e6        	bne	$662b <putchar+0xf0>
    6645: a2 02        	ldx	#$2
    6647: 86 01        	stx	$1                      ; 0x1 <__data_size+0x1>
    6649: a2 09        	ldx	#$9
    664b: a9 10        	lda	#$10
    664d: 5a           	phy
    664e: a0 00        	ldy	#$0
    6650: 84 1c        	sty	$1c                     ; 0x1c <__rc12>
    6652: a0 c0        	ldy	#$c0
    6654: 84 1d        	sty	$1d                     ; 0x1d <__rc13>
    6656: 7a           	ply
    6657: 85 1e        	sta	$1e                     ; 0x1e <__rc14>
    6659: b1 1c        	lda	($1c),y                 ; 0x1c <__rc12>
    665b: 92 1c        	sta	($1c)                   ; 0x1c <__rc12>
    665d: a9 ff        	lda	#$ff
    665f: c6 1e        	dec	$1e                     ; 0x1e <__rc14>
    6661: c5 1e        	cmp	$1e                     ; 0x1e <__rc14>
    6663: d0 01        	bne	$6666 <putchar+0x12b>
    6665: ca           	dex
    6666: e6 1c        	inc	$1c                     ; 0x1c <__rc12>
    6668: d0 02        	bne	$666c <putchar+0x131>
    666a: e6 1d        	inc	$1d                     ; 0x1d <__rc13>
    666c: 8a           	txa
    666d: d0 ea        	bne	$6659 <putchar+0x11e>
    666f: a5 1e        	lda	$1e                     ; 0x1e <__rc14>
    6671: d0 e6        	bne	$6659 <putchar+0x11e>
    6673: a2 50        	ldx	#$50
    6675: 86 ed        	stx	$ed                     ; 0xed <__zp_bss_size+0xa9>
    6677: a2 02        	ldx	#$2
    6679: 86 01        	stx	$1                      ; 0x1 <__data_size+0x1>
    667b: e8           	inx
    667c: 86 01        	stx	$1                      ; 0x1 <__data_size+0x1>
    667e: a5 3c        	lda	$3c                     ; 0x3c <_ccolor>
    6680: a2 50        	ldx	#$50
    6682: a0 11        	ldy	#$11
    6684: 84 1c        	sty	$1c                     ; 0x1c <__rc12>
    6686: a0 c9        	ldy	#$c9
    6688: 84 1d        	sty	$1d                     ; 0x1d <__rc13>
    668a: a0 10        	ldy	#$10
    668c: 84 1e        	sty	$1e                     ; 0x1e <__rc14>
    668e: a0 c9        	ldy	#$c9
    6690: 84 1f        	sty	$1f                     ; 0x1f <__rc15>
    6692: a4 1e        	ldy	$1e                     ; 0x1e <__rc14>
    6694: 84 22        	sty	$22                     ; 0x22 <__rc18>
    6696: a4 1f        	ldy	$1f                     ; 0x1f <__rc15>
    6698: 84 23        	sty	$23                     ; 0x23 <__rc19>
    669a: a4 1c        	ldy	$1c                     ; 0x1c <__rc12>
    669c: 84 1e        	sty	$1e                     ; 0x1e <__rc14>
    669e: a4 1d        	ldy	$1d                     ; 0x1d <__rc13>
    66a0: 84 1f        	sty	$1f                     ; 0x1f <__rc15>
    66a2: 92 22        	sta	($22)                   ; 0x22 <__rc18>
    66a4: e6 1c        	inc	$1c                     ; 0x1c <__rc12>
    66a6: d0 02        	bne	$66aa <putchar+0x16f>
    66a8: e6 1d        	inc	$1d                     ; 0x1d <__rc13>
    66aa: ca           	dex
    66ab: d0 e5        	bne	$6692 <putchar+0x157>
    66ad: a2 02        	ldx	#$2
    66af: 86 01        	stx	$1                      ; 0x1 <__data_size+0x1>
    66b1: a2 50        	ldx	#$50
    66b3: a0 11        	ldy	#$11
    66b5: 84 1c        	sty	$1c                     ; 0x1c <__rc12>
    66b7: a0 c9        	ldy	#$c9
    66b9: 84 1d        	sty	$1d                     ; 0x1d <__rc13>
    66bb: a0 10        	ldy	#$10
    66bd: 84 1e        	sty	$1e                     ; 0x1e <__rc14>
    66bf: a0 c9        	ldy	#$c9
    66c1: 84 1f        	sty	$1f                     ; 0x1f <__rc15>
    66c3: a5 ee        	lda	$ee                     ; 0xee <__zp_bss_size+0xaa>
    66c5: a4 1e        	ldy	$1e                     ; 0x1e <__rc14>
    66c7: 84 22        	sty	$22                     ; 0x22 <__rc18>
    66c9: a4 1f        	ldy	$1f                     ; 0x1f <__rc15>
    66cb: 84 23        	sty	$23                     ; 0x23 <__rc19>
    66cd: a4 1c        	ldy	$1c                     ; 0x1c <__rc12>
    66cf: 84 1e        	sty	$1e                     ; 0x1e <__rc14>
    66d1: a4 1d        	ldy	$1d                     ; 0x1d <__rc13>
    66d3: 84 1f        	sty	$1f                     ; 0x1f <__rc15>
    66d5: 92 22        	sta	($22)                   ; 0x22 <__rc18>
    66d7: e6 1c        	inc	$1c                     ; 0x1c <__rc12>
    66d9: d0 02        	bne	$66dd <putchar+0x1a2>
    66db: e6 1d        	inc	$1d                     ; 0x1d <__rc13>
    66dd: ca           	dex
    66de: d0 e5        	bne	$66c5 <putchar+0x18a>
    66e0: a2 20        	ldx	#$20
    66e2: 86 ee        	stx	$ee                     ; 0xee <__zp_bss_size+0xaa>
    66e4: c6 41        	dec	$41                     ; 0x41 <_row>
    66e6: 9c 08 de     	stz	$de08                   ; 0xde08 <__heap_start+0x5efc>
    66e9: a2 c0        	ldx	#$c0
    66eb: 8e 09 de     	stx	$de09                   ; 0xde09 <__heap_start+0x5efd>
    66ee: 9c 0a de     	stz	$de0a                   ; 0xde0a <__heap_start+0x5efe>
    66f1: 9c 0b de     	stz	$de0b                   ; 0xde0b <__heap_start+0x5eff>
    66f4: a2 1d        	ldx	#$1d
    66f6: 8e 0c de     	stx	$de0c                   ; 0xde0c <__heap_start+0x5f00>
    66f9: 9c 0d de     	stz	$de0d                   ; 0xde0d <__heap_start+0x5f01>
    66fc: 9c 0e de     	stz	$de0e                   ; 0xde0e <__heap_start+0x5f02>
    66ff: 9c 0f de     	stz	$de0f                   ; 0xde0f <__heap_start+0x5f03>
    6702: ae 18 de     	ldx	$de18                   ; 0xde18 <__heap_start+0x5f0c>
    6705: ac 19 de     	ldy	$de19                   ; 0xde19 <__heap_start+0x5f0d>
    6708: ad 1a de     	lda	$de1a                   ; 0xde1a <__heap_start+0x5f0e>
    670b: ad 1b de     	lda	$de1b                   ; 0xde1b <__heap_start+0x5f0f>
    670e: 86 1c        	stx	$1c                     ; 0x1c <__rc12>
    6710: 84 1d        	sty	$1d                     ; 0x1d <__rc13>
    6712: a4 ed        	ldy	$ed                     ; 0xed <__zp_bss_size+0xa9>
    6714: 4c c6 65     	jmp	$65c6 <putchar+0x8b>
    6717: a6 ec        	ldx	$ec                     ; 0xec <__zp_bss_size+0xa8>
    6719: 86 01        	stx	$1                      ; 0x1 <__data_size+0x1>
    671b: a6 40        	ldx	$40                     ; 0x40 <_col>
    671d: a4 41        	ldy	$41                     ; 0x41 <_row>
    671f: 8e 14 d0     	stx	$d014                   ; 0xd014 <__heap_start+0x5108>
    6722: 9c 15 d0     	stz	$d015                   ; 0xd015 <__heap_start+0x5109>
    6725: 84 41        	sty	$41                     ; 0x41 <_row>
    6727: 8c 16 d0     	sty	$d016                   ; 0xd016 <__heap_start+0x510a>
    672a: 9c 17 d0     	stz	$d017                   ; 0xd017 <__heap_start+0x510b>
    672d: a6 12        	ldx	$12                     ; 0x12 <__rc2>
    672f: a5 1b        	lda	$1b                     ; 0x1b <__rc11>
    6731: 60           	rts

00006732 <atoi>:
    6732: b2 12        	lda	($12)                   ; 0x12 <__rc2>
    6734: a8           	tay
    6735: 18           	clc
    6736: 69 f7        	adc	#$f7
    6738: c9 05        	cmp	#$5
    673a: b0 08        	bcs	$6744 <atoi+0x12>
    673c: e6 12        	inc	$12                     ; 0x12 <__rc2>
    673e: d0 02        	bne	$6742 <atoi+0x10>
    6740: e6 13        	inc	$13                     ; 0x13 <__rc3>
    6742: 80 ee        	bra	$6732 <atoi>
    6744: c0 20        	cpy	#$20
    6746: f0 f4        	beq	$673c <atoi+0xa>
    6748: a6 12        	ldx	$12                     ; 0x12 <__rc2>
    674a: 86 14        	stx	$14                     ; 0x14 <__rc4>
    674c: a6 13        	ldx	$13                     ; 0x13 <__rc3>
    674e: 86 15        	stx	$15                     ; 0x15 <__rc5>
    6750: e6 14        	inc	$14                     ; 0x14 <__rc4>
    6752: d0 02        	bne	$6756 <atoi+0x24>
    6754: e6 15        	inc	$15                     ; 0x15 <__rc5>
    6756: c0 2d        	cpy	#$2d
    6758: f0 10        	beq	$676a <atoi+0x38>
    675a: a2 00        	ldx	#$0
    675c: c0 2b        	cpy	#$2b
    675e: f0 0c        	beq	$676c <atoi+0x3a>
    6760: a4 12        	ldy	$12                     ; 0x12 <__rc2>
    6762: 84 14        	sty	$14                     ; 0x14 <__rc4>
    6764: a4 13        	ldy	$13                     ; 0x13 <__rc3>
    6766: 84 15        	sty	$15                     ; 0x15 <__rc5>
    6768: 80 02        	bra	$676c <atoi+0x3a>
    676a: a2 01        	ldx	#$1
    676c: a9 d0        	lda	#$d0
    676e: 18           	clc
    676f: 72 14        	adc	($14)                   ; 0x14 <__rc4>
    6771: c9 0a        	cmp	#$a
    6773: 64 17        	stz	$17                     ; 0x17 <__rc7>
    6775: 64 18        	stz	$18                     ; 0x18 <__rc8>
    6777: 90 03        	bcc	$677c <atoi+0x4a>
    6779: 4c 04 68     	jmp	$6804 <atoi+0xd2>
    677c: b2 14        	lda	($14)                   ; 0x14 <__rc4>
    677e: 85 1a        	sta	$1a                     ; 0x1a <__rc10>
    6780: 64 16        	stz	$16                     ; 0x16 <__rc6>
    6782: 64 19        	stz	$19                     ; 0x19 <__rc9>
    6784: a0 01        	ldy	#$1
    6786: a9 00        	lda	#$0
    6788: 5a           	phy
    6789: a4 14        	ldy	$14                     ; 0x14 <__rc4>
    678b: 84 12        	sty	$12                     ; 0x12 <__rc2>
    678d: a4 15        	ldy	$15                     ; 0x15 <__rc5>
    678f: 84 13        	sty	$13                     ; 0x13 <__rc3>
    6791: 7a           	ply
    6792: 5a           	phy
    6793: a4 1a        	ldy	$1a                     ; 0x1a <__rc10>
    6795: 84 17        	sty	$17                     ; 0x17 <__rc7>
    6797: a4 19        	ldy	$19                     ; 0x19 <__rc9>
    6799: 84 18        	sty	$18                     ; 0x18 <__rc8>
    679b: 06 18        	asl	$18                     ; 0x18 <__rc8>
    679d: 85 19        	sta	$19                     ; 0x19 <__rc9>
    679f: 26 19        	rol	$19                     ; 0x19 <__rc9>
    67a1: a5 18        	lda	$18                     ; 0x18 <__rc8>
    67a3: 0a           	asl
    67a4: 85 1a        	sta	$1a                     ; 0x1a <__rc10>
    67a6: a5 19        	lda	$19                     ; 0x19 <__rc9>
    67a8: 2a           	rol
    67a9: 06 1a        	asl	$1a                     ; 0x1a <__rc10>
    67ab: 2a           	rol
    67ac: 85 1b        	sta	$1b                     ; 0x1b <__rc11>
    67ae: a9 00        	lda	#$0
    67b0: 85 1c        	sta	$1c                     ; 0x1c <__rc12>
    67b2: a5 1a        	lda	$1a                     ; 0x1a <__rc10>
    67b4: a4 1c        	ldy	$1c                     ; 0x1c <__rc12>
    67b6: c0 01        	cpy	#$1
    67b8: 65 18        	adc	$18                     ; 0x18 <__rc8>
    67ba: 85 18        	sta	$18                     ; 0x18 <__rc8>
    67bc: a5 1b        	lda	$1b                     ; 0x1b <__rc11>
    67be: 65 19        	adc	$19                     ; 0x19 <__rc9>
    67c0: 85 19        	sta	$19                     ; 0x19 <__rc9>
    67c2: a5 18        	lda	$18                     ; 0x18 <__rc8>
    67c4: a4 1c        	ldy	$1c                     ; 0x1c <__rc12>
    67c6: c0 01        	cpy	#$1
    67c8: 7a           	ply
    67c9: 65 17        	adc	$17                     ; 0x17 <__rc7>
    67cb: 85 17        	sta	$17                     ; 0x17 <__rc7>
    67cd: a5 19        	lda	$19                     ; 0x19 <__rc9>
    67cf: 65 16        	adc	$16                     ; 0x16 <__rc6>
    67d1: 85 16        	sta	$16                     ; 0x16 <__rc6>
    67d3: 18           	clc
    67d4: a5 17        	lda	$17                     ; 0x17 <__rc7>
    67d6: 69 d0        	adc	#$d0
    67d8: 85 17        	sta	$17                     ; 0x17 <__rc7>
    67da: a5 16        	lda	$16                     ; 0x16 <__rc6>
    67dc: 69 ff        	adc	#$ff
    67de: 85 18        	sta	$18                     ; 0x18 <__rc8>
    67e0: b1 14        	lda	($14),y                 ; 0x14 <__rc4>
    67e2: 85 1a        	sta	$1a                     ; 0x1a <__rc10>
    67e4: 18           	clc
    67e5: 69 d0        	adc	#$d0
    67e7: e6 12        	inc	$12                     ; 0x12 <__rc2>
    67e9: d0 02        	bne	$67ed <atoi+0xbb>
    67eb: e6 13        	inc	$13                     ; 0x13 <__rc3>
    67ed: c9 0a        	cmp	#$a
    67ef: a5 12        	lda	$12                     ; 0x12 <__rc2>
    67f1: 85 14        	sta	$14                     ; 0x14 <__rc4>
    67f3: a5 13        	lda	$13                     ; 0x13 <__rc3>
    67f5: 85 15        	sta	$15                     ; 0x15 <__rc5>
    67f7: 64 16        	stz	$16                     ; 0x16 <__rc6>
    67f9: a5 17        	lda	$17                     ; 0x17 <__rc7>
    67fb: 85 19        	sta	$19                     ; 0x19 <__rc9>
    67fd: a5 18        	lda	$18                     ; 0x18 <__rc8>
    67ff: b0 03        	bcs	$6804 <atoi+0xd2>
    6801: 4c 92 67     	jmp	$6792 <atoi+0x60>
    6804: 8a           	txa
    6805: f0 0d        	beq	$6814 <atoi+0xe2>
    6807: 38           	sec
    6808: a9 00        	lda	#$0
    680a: e5 17        	sbc	$17                     ; 0x17 <__rc7>
    680c: 85 17        	sta	$17                     ; 0x17 <__rc7>
    680e: a9 00        	lda	#$0
    6810: e5 18        	sbc	$18                     ; 0x18 <__rc8>
    6812: 85 18        	sta	$18                     ; 0x18 <__rc8>
    6814: a6 18        	ldx	$18                     ; 0x18 <__rc8>
    6816: a5 17        	lda	$17                     ; 0x17 <__rc7>
    6818: 60           	rts

00006819 <malloc>:
    6819: a8           	tay
    681a: 8a           	txa
    681b: a2 00        	ldx	#$0
    681d: 86 12        	stx	$12                     ; 0x12 <__rc2>
    681f: a2 00        	ldx	#$0
    6821: 86 13        	stx	$13                     ; 0x13 <__rc3>
    6823: aa           	tax
    6824: d0 07        	bne	$682d <malloc+0x14>
    6826: c0 00        	cpy	#$0
    6828: d0 03        	bne	$682d <malloc+0x14>
    682a: 4c 2c 69     	jmp	$692c <malloc+0x113>
    682d: 84 16        	sty	$16                     ; 0x16 <__rc6>
    682f: aa           	tax
    6830: d0 0e        	bne	$6840 <malloc+0x27>
    6832: a6 16        	ldx	$16                     ; 0x16 <__rc6>
    6834: e0 07        	cpx	#$7
    6836: b0 0c        	bcs	$6844 <malloc+0x2b>
    6838: a2 08        	ldx	#$8
    683a: 86 82        	stx	$82                     ; 0x82 <__zp_bss_size+0x3e>
    683c: a9 00        	lda	#$0
    683e: 80 31        	bra	$6871 <malloc+0x58>
    6840: c9 00        	cmp	#$0
    6842: 90 f4        	bcc	$6838 <malloc+0x1f>
    6844: a8           	tay
    6845: a5 16        	lda	$16                     ; 0x16 <__rc6>
    6847: 29 01        	and	#$1
    6849: a2 02        	ldx	#$2
    684b: 64 14        	stz	$14                     ; 0x14 <__rc4>
    684d: c9 00        	cmp	#$0
    684f: f0 02        	beq	$6853 <malloc+0x3a>
    6851: a2 03        	ldx	#$3
    6853: 86 15        	stx	$15                     ; 0x15 <__rc5>
    6855: 18           	clc
    6856: a5 16        	lda	$16                     ; 0x16 <__rc6>
    6858: 65 15        	adc	$15                     ; 0x15 <__rc5>
    685a: aa           	tax
    685b: 98           	tya
    685c: 65 14        	adc	$14                     ; 0x14 <__rc4>
    685e: 90 03        	bcc	$6863 <malloc+0x4a>
    6860: 4c 2c 69     	jmp	$692c <malloc+0x113>
    6863: 86 14        	stx	$14                     ; 0x14 <__rc4>
    6865: 86 82        	stx	$82                     ; 0x82 <__zp_bss_size+0x3e>
    6867: aa           	tax
    6868: d0 07        	bne	$6871 <malloc+0x58>
    686a: a6 14        	ldx	$14                     ; 0x14 <__rc4>
    686c: d0 03        	bne	$6871 <malloc+0x58>
    686e: 4c 2c 69     	jmp	$692c <malloc+0x113>
    6871: 85 81        	sta	$81                     ; 0x81 <__zp_bss_size+0x3d>
    6873: a5 7b        	lda	$7b                     ; 0x7b <_ZN12_GLOBAL__N_111initializedE>
    6875: 29 01        	and	#$1
    6877: d0 3b        	bne	$68b4 <malloc+0x9b>
    6879: a9 00        	lda	#$0
    687b: a2 10        	ldx	#$10
    687d: a0 0c        	ldy	#$c
    687f: 84 14        	sty	$14                     ; 0x14 <__rc4>
    6881: a0 7f        	ldy	#$7f
    6883: 84 15        	sty	$15                     ; 0x15 <__rc5>
    6885: a4 12        	ldy	$12                     ; 0x12 <__rc2>
    6887: 84 83        	sty	$83                     ; 0x83 <__zp_bss_size+0x3f>
    6889: a4 13        	ldy	$13                     ; 0x13 <__rc3>
    688b: 84 84        	sty	$84                     ; 0x84 <__zp_bss_size+0x40>
    688d: a0 0c        	ldy	#$c
    688f: 84 12        	sty	$12                     ; 0x12 <__rc2>
    6891: a0 7f        	ldy	#$7f
    6893: 84 13        	sty	$13                     ; 0x13 <__rc3>
    6895: 20 26 03     	jsr	$326 <_ZN12_GLOBAL__N_19FreeChunk6insertEPvj>
    6898: a6 83        	ldx	$83                     ; 0x83 <__zp_bss_size+0x3f>
    689a: 86 12        	stx	$12                     ; 0x12 <__rc2>
    689c: a6 84        	ldx	$84                     ; 0x84 <__zp_bss_size+0x40>
    689e: 86 13        	stx	$13                     ; 0x13 <__rc3>
    68a0: ae 0d 7f     	ldx	$7f0d                   ; 0x7f0d <__heap_start+0x1>
    68a3: a9 fe        	lda	#$fe
    68a5: 2d 0c 7f     	and	$7f0c                   ; 0x7f0c <__heap_start>
    68a8: 8d 0c 7f     	sta	$7f0c                   ; 0x7f0c <__heap_start>
    68ab: 8e 0d 7f     	stx	$7f0d                   ; 0x7f0d <__heap_start+0x1>
    68ae: a2 01        	ldx	#$1
    68b0: 86 7c        	stx	$7c                     ; 0x7c <_ZN12_GLOBAL__N_19last_freeE>
    68b2: 86 7b        	stx	$7b                     ; 0x7b <_ZN12_GLOBAL__N_111initializedE>
    68b4: a6 7f        	ldx	$7f                     ; 0x7f <_ZN12_GLOBAL__N_19free_listE>
    68b6: 86 16        	stx	$16                     ; 0x16 <__rc6>
    68b8: a4 80        	ldy	$80                     ; 0x80 <_ZN12_GLOBAL__N_19free_listE+0x1>
    68ba: 84 17        	sty	$17                     ; 0x17 <__rc7>
    68bc: a9 00        	lda	#$0
    68be: 85 14        	sta	$14                     ; 0x14 <__rc4>
    68c0: a9 00        	lda	#$0
    68c2: 85 15        	sta	$15                     ; 0x15 <__rc5>
    68c4: c4 15        	cpy	$15                     ; 0x15 <__rc5>
    68c6: d0 07        	bne	$68cf <malloc+0xb6>
    68c8: e4 14        	cpx	$14                     ; 0x14 <__rc4>
    68ca: d0 03        	bne	$68cf <malloc+0xb6>
    68cc: 4c 2c 69     	jmp	$692c <malloc+0x113>
    68cf: a2 00        	ldx	#$0
    68d1: a0 10        	ldy	#$10
    68d3: 86 14        	stx	$14                     ; 0x14 <__rc4>
    68d5: 84 15        	sty	$15                     ; 0x15 <__rc5>
    68d7: 18           	clc
    68d8: a9 0c        	lda	#$c
    68da: 65 14        	adc	$14                     ; 0x14 <__rc4>
    68dc: 85 18        	sta	$18                     ; 0x18 <__rc8>
    68de: a9 7f        	lda	#$7f
    68e0: 65 15        	adc	$15                     ; 0x15 <__rc5>
    68e2: 85 85        	sta	$85                     ; 0x85 <__zp_bss_size+0x41>
    68e4: a0 01        	ldy	#$1
    68e6: a6 81        	ldx	$81                     ; 0x81 <__zp_bss_size+0x3d>
    68e8: 86 19        	stx	$19                     ; 0x19 <__rc9>
    68ea: a6 16        	ldx	$16                     ; 0x16 <__rc6>
    68ec: 86 14        	stx	$14                     ; 0x14 <__rc4>
    68ee: a6 17        	ldx	$17                     ; 0x17 <__rc7>
    68f0: 86 15        	stx	$15                     ; 0x15 <__rc5>
    68f2: b1 14        	lda	($14),y                 ; 0x14 <__rc4>
    68f4: c5 19        	cmp	$19                     ; 0x19 <__rc9>
    68f6: d0 0e        	bne	$6906 <malloc+0xed>
    68f8: b2 14        	lda	($14)                   ; 0x14 <__rc4>
    68fa: 29 fe        	and	#$fe
    68fc: a6 82        	ldx	$82                     ; 0x82 <__zp_bss_size+0x3e>
    68fe: 86 1a        	stx	$1a                     ; 0x1a <__rc10>
    6900: c5 1a        	cmp	$1a                     ; 0x1a <__rc10>
    6902: b0 29        	bcs	$692d <malloc+0x114>
    6904: 80 04        	bra	$690a <malloc+0xf1>
    6906: c5 19        	cmp	$19                     ; 0x19 <__rc9>
    6908: b0 23        	bcs	$692d <malloc+0x114>
    690a: a5 14        	lda	$14                     ; 0x14 <__rc4>
    690c: 18           	clc
    690d: 69 02        	adc	#$2
    690f: 85 1a        	sta	$1a                     ; 0x1a <__rc10>
    6911: a5 15        	lda	$15                     ; 0x15 <__rc5>
    6913: 69 00        	adc	#$0
    6915: 85 1b        	sta	$1b                     ; 0x1b <__rc11>
    6917: a0 02        	ldy	#$2
    6919: b1 14        	lda	($14),y                 ; 0x14 <__rc4>
    691b: 85 14        	sta	$14                     ; 0x14 <__rc4>
    691d: 88           	dey
    691e: b1 1a        	lda	($1a),y                 ; 0x1a <__rc10>
    6920: 85 15        	sta	$15                     ; 0x15 <__rc5>
    6922: c5 17        	cmp	$17                     ; 0x17 <__rc7>
    6924: d0 cc        	bne	$68f2 <malloc+0xd9>
    6926: a5 14        	lda	$14                     ; 0x14 <__rc4>
    6928: c5 16        	cmp	$16                     ; 0x16 <__rc6>
    692a: d0 c6        	bne	$68f2 <malloc+0xd9>
    692c: 60           	rts
    692d: a6 18        	ldx	$18                     ; 0x18 <__rc8>
    692f: 86 86        	stx	$86                     ; 0x86 <__zp_bss_size+0x42>
    6931: a6 14        	ldx	$14                     ; 0x14 <__rc4>
    6933: 86 12        	stx	$12                     ; 0x12 <__rc2>
    6935: a6 15        	ldx	$15                     ; 0x15 <__rc5>
    6937: 86 13        	stx	$13                     ; 0x13 <__rc3>
    6939: a6 14        	ldx	$14                     ; 0x14 <__rc4>
    693b: 86 83        	stx	$83                     ; 0x83 <__zp_bss_size+0x3f>
    693d: a6 15        	ldx	$15                     ; 0x15 <__rc5>
    693f: 86 84        	stx	$84                     ; 0x84 <__zp_bss_size+0x40>
    6941: 20 72 04     	jsr	$472 <_ZN12_GLOBAL__N_19FreeChunk6removeEv>
    6944: a6 83        	ldx	$83                     ; 0x83 <__zp_bss_size+0x3f>
    6946: 86 12        	stx	$12                     ; 0x12 <__rc2>
    6948: a6 84        	ldx	$84                     ; 0x84 <__zp_bss_size+0x40>
    694a: 86 13        	stx	$13                     ; 0x13 <__rc3>
    694c: a0 01        	ldy	#$1
    694e: b1 12        	lda	($12),y                 ; 0x12 <__rc2>
    6950: 85 15        	sta	$15                     ; 0x15 <__rc5>
    6952: a9 fe        	lda	#$fe
    6954: 32 12        	and	($12)                   ; 0x12 <__rc2>
    6956: 38           	sec
    6957: a6 82        	ldx	$82                     ; 0x82 <__zp_bss_size+0x3e>
    6959: 86 14        	stx	$14                     ; 0x14 <__rc4>
    695b: 85 17        	sta	$17                     ; 0x17 <__rc7>
    695d: e5 14        	sbc	$14                     ; 0x14 <__rc4>
    695f: a8           	tay
    6960: a6 81        	ldx	$81                     ; 0x81 <__zp_bss_size+0x3d>
    6962: 86 14        	stx	$14                     ; 0x14 <__rc4>
    6964: a5 15        	lda	$15                     ; 0x15 <__rc5>
    6966: 85 16        	sta	$16                     ; 0x16 <__rc6>
    6968: e5 14        	sbc	$14                     ; 0x14 <__rc4>
    696a: d0 06        	bne	$6972 <malloc+0x159>
    696c: 85 18        	sta	$18                     ; 0x18 <__rc8>
    696e: c0 08        	cpy	#$8
    6970: 80 04        	bra	$6976 <malloc+0x15d>
    6972: 85 18        	sta	$18                     ; 0x18 <__rc8>
    6974: c9 00        	cmp	#$0
    6976: a6 86        	ldx	$86                     ; 0x86 <__zp_bss_size+0x42>
    6978: 86 14        	stx	$14                     ; 0x14 <__rc4>
    697a: a6 85        	ldx	$85                     ; 0x85 <__zp_bss_size+0x41>
    697c: 86 15        	stx	$15                     ; 0x15 <__rc5>
    697e: a5 17        	lda	$17                     ; 0x17 <__rc7>
    6980: 90 43        	bcc	$69c5 <malloc+0x1ac>
    6982: 18           	clc
    6983: a6 82        	ldx	$82                     ; 0x82 <__zp_bss_size+0x3e>
    6985: 86 82        	stx	$82                     ; 0x82 <__zp_bss_size+0x3e>
    6987: 8a           	txa
    6988: 65 12        	adc	$12                     ; 0x12 <__rc2>
    698a: 85 12        	sta	$12                     ; 0x12 <__rc2>
    698c: a6 81        	ldx	$81                     ; 0x81 <__zp_bss_size+0x3d>
    698e: 86 81        	stx	$81                     ; 0x81 <__zp_bss_size+0x3d>
    6990: a5 81        	lda	$81                     ; 0x81 <__zp_bss_size+0x3d>
    6992: 65 13        	adc	$13                     ; 0x13 <__rc3>
    6994: 85 13        	sta	$13                     ; 0x13 <__rc3>
    6996: a6 18        	ldx	$18                     ; 0x18 <__rc8>
    6998: 98           	tya
    6999: 20 26 03     	jsr	$326 <_ZN12_GLOBAL__N_19FreeChunk6insertEPvj>
    699c: a6 83        	ldx	$83                     ; 0x83 <__zp_bss_size+0x3f>
    699e: 86 12        	stx	$12                     ; 0x12 <__rc2>
    69a0: a6 84        	ldx	$84                     ; 0x84 <__zp_bss_size+0x40>
    69a2: 86 13        	stx	$13                     ; 0x13 <__rc3>
    69a4: a5 82        	lda	$82                     ; 0x82 <__zp_bss_size+0x3e>
    69a6: 29 fe        	and	#$fe
    69a8: 85 14        	sta	$14                     ; 0x14 <__rc4>
    69aa: a0 01        	ldy	#$1
    69ac: 98           	tya
    69ad: 32 12        	and	($12)                   ; 0x12 <__rc2>
    69af: 05 14        	ora	$14                     ; 0x14 <__rc4>
    69b1: 92 12        	sta	($12)                   ; 0x12 <__rc2>
    69b3: a5 81        	lda	$81                     ; 0x81 <__zp_bss_size+0x3d>
    69b5: 91 12        	sta	($12),y                 ; 0x12 <__rc2>
    69b7: a5 14        	lda	$14                     ; 0x14 <__rc4>
    69b9: a6 81        	ldx	$81                     ; 0x81 <__zp_bss_size+0x3d>
    69bb: 86 16        	stx	$16                     ; 0x16 <__rc6>
    69bd: a6 86        	ldx	$86                     ; 0x86 <__zp_bss_size+0x42>
    69bf: 86 14        	stx	$14                     ; 0x14 <__rc4>
    69c1: a6 85        	ldx	$85                     ; 0x85 <__zp_bss_size+0x41>
    69c3: 86 15        	stx	$15                     ; 0x15 <__rc5>
    69c5: 18           	clc
    69c6: 65 12        	adc	$12                     ; 0x12 <__rc2>
    69c8: a8           	tay
    69c9: a5 16        	lda	$16                     ; 0x16 <__rc6>
    69cb: 65 13        	adc	$13                     ; 0x13 <__rc3>
    69cd: c5 15        	cmp	$15                     ; 0x15 <__rc5>
    69cf: d0 08        	bne	$69d9 <malloc+0x1c0>
    69d1: c4 14        	cpy	$14                     ; 0x14 <__rc4>
    69d3: d0 04        	bne	$69d9 <malloc+0x1c0>
    69d5: 64 7c        	stz	$7c                     ; 0x7c <_ZN12_GLOBAL__N_19last_freeE>
    69d7: 80 14        	bra	$69ed <malloc+0x1d4>
    69d9: 84 14        	sty	$14                     ; 0x14 <__rc4>
    69db: 85 15        	sta	$15                     ; 0x15 <__rc5>
    69dd: a0 01        	ldy	#$1
    69df: b1 14        	lda	($14),y                 ; 0x14 <__rc4>
    69e1: 85 16        	sta	$16                     ; 0x16 <__rc6>
    69e3: a9 fe        	lda	#$fe
    69e5: 32 14        	and	($14)                   ; 0x14 <__rc4>
    69e7: 92 14        	sta	($14)                   ; 0x14 <__rc4>
    69e9: a5 16        	lda	$16                     ; 0x16 <__rc6>
    69eb: 91 14        	sta	($14),y                 ; 0x14 <__rc4>
    69ed: a5 12        	lda	$12                     ; 0x12 <__rc2>
    69ef: 18           	clc
    69f0: 69 02        	adc	#$2
    69f2: 85 12        	sta	$12                     ; 0x12 <__rc2>
    69f4: a5 13        	lda	$13                     ; 0x13 <__rc3>
    69f6: 69 00        	adc	#$0
    69f8: 85 13        	sta	$13                     ; 0x13 <__rc3>
    69fa: 60           	rts

000069fb <free>:
    69fb: a6 12        	ldx	$12                     ; 0x12 <__rc2>
    69fd: 86 14        	stx	$14                     ; 0x14 <__rc4>
    69ff: a6 13        	ldx	$13                     ; 0x13 <__rc3>
    6a01: 86 15        	stx	$15                     ; 0x15 <__rc5>
    6a03: a2 00        	ldx	#$0
    6a05: 86 12        	stx	$12                     ; 0x12 <__rc2>
    6a07: a2 00        	ldx	#$0
    6a09: 86 13        	stx	$13                     ; 0x13 <__rc3>
    6a0b: a6 15        	ldx	$15                     ; 0x15 <__rc5>
    6a0d: e4 13        	cpx	$13                     ; 0x13 <__rc3>
    6a0f: d0 09        	bne	$6a1a <free+0x1f>
    6a11: a6 14        	ldx	$14                     ; 0x14 <__rc4>
    6a13: e4 12        	cpx	$12                     ; 0x12 <__rc2>
    6a15: d0 03        	bne	$6a1a <free+0x1f>
    6a17: 4c 85 6b     	jmp	$6b85 <free+0x18a>
    6a1a: a2 00        	ldx	#$0
    6a1c: a0 10        	ldy	#$10
    6a1e: a9 0c        	lda	#$c
    6a20: 86 12        	stx	$12                     ; 0x12 <__rc2>
    6a22: 84 13        	sty	$13                     ; 0x13 <__rc3>
    6a24: 18           	clc
    6a25: 65 12        	adc	$12                     ; 0x12 <__rc2>
    6a27: 85 18        	sta	$18                     ; 0x18 <__rc8>
    6a29: a9 7f        	lda	#$7f
    6a2b: 65 13        	adc	$13                     ; 0x13 <__rc3>
    6a2d: 85 19        	sta	$19                     ; 0x19 <__rc9>
    6a2f: a5 14        	lda	$14                     ; 0x14 <__rc4>
    6a31: 18           	clc
    6a32: 69 fe        	adc	#$fe
    6a34: 85 12        	sta	$12                     ; 0x12 <__rc2>
    6a36: a5 15        	lda	$15                     ; 0x15 <__rc5>
    6a38: 69 ff        	adc	#$ff
    6a3a: a6 12        	ldx	$12                     ; 0x12 <__rc2>
    6a3c: 86 81        	stx	$81                     ; 0x81 <__zp_bss_size+0x3d>
    6a3e: aa           	tax
    6a3f: 85 82        	sta	$82                     ; 0x82 <__zp_bss_size+0x3e>
    6a41: b2 81        	lda	($81)                   ; 0x81 <__zp_bss_size+0x3d>
    6a43: 85 1a        	sta	$1a                     ; 0x1a <__rc10>
    6a45: a0 01        	ldy	#$1
    6a47: b1 81        	lda	($81),y                 ; 0x81 <__zp_bss_size+0x3d>
    6a49: 85 16        	sta	$16                     ; 0x16 <__rc6>
    6a4b: a9 fe        	lda	#$fe
    6a4d: 32 81        	and	($81)                   ; 0x81 <__zp_bss_size+0x3d>
    6a4f: 85 17        	sta	$17                     ; 0x17 <__rc7>
    6a51: a4 12        	ldy	$12                     ; 0x12 <__rc2>
    6a53: 84 1b        	sty	$1b                     ; 0x1b <__rc11>
    6a55: a5 12        	lda	$12                     ; 0x12 <__rc2>
    6a57: 18           	clc
    6a58: 65 17        	adc	$17                     ; 0x17 <__rc7>
    6a5a: 85 12        	sta	$12                     ; 0x12 <__rc2>
    6a5c: 8a           	txa
    6a5d: 86 1c        	stx	$1c                     ; 0x1c <__rc12>
    6a5f: 65 16        	adc	$16                     ; 0x16 <__rc6>
    6a61: c5 19        	cmp	$19                     ; 0x19 <__rc9>
    6a63: d0 10        	bne	$6a75 <free+0x7a>
    6a65: a6 12        	ldx	$12                     ; 0x12 <__rc2>
    6a67: e4 18        	cpx	$18                     ; 0x18 <__rc8>
    6a69: d0 0a        	bne	$6a75 <free+0x7a>
    6a6b: a2 00        	ldx	#$0
    6a6d: 86 12        	stx	$12                     ; 0x12 <__rc2>
    6a6f: a2 00        	ldx	#$0
    6a71: 86 13        	stx	$13                     ; 0x13 <__rc3>
    6a73: 80 02        	bra	$6a77 <free+0x7c>
    6a75: 85 13        	sta	$13                     ; 0x13 <__rc3>
    6a77: a5 1a        	lda	$1a                     ; 0x1a <__rc10>
    6a79: 29 01        	and	#$1
    6a7b: d0 03        	bne	$6a80 <free+0x85>
    6a7d: 4c fb 6a     	jmp	$6afb <free+0x100>
    6a80: a5 14        	lda	$14                     ; 0x14 <__rc4>
    6a82: 18           	clc
    6a83: 69 fc        	adc	#$fc
    6a85: 85 14        	sta	$14                     ; 0x14 <__rc4>
    6a87: a5 15        	lda	$15                     ; 0x15 <__rc5>
    6a89: 69 ff        	adc	#$ff
    6a8b: 85 15        	sta	$15                     ; 0x15 <__rc5>
    6a8d: a0 01        	ldy	#$1
    6a8f: 38           	sec
    6a90: a9 00        	lda	#$0
    6a92: f2 14        	sbc	($14)                   ; 0x14 <__rc4>
    6a94: 85 1a        	sta	$1a                     ; 0x1a <__rc10>
    6a96: a9 00        	lda	#$0
    6a98: f1 14        	sbc	($14),y                 ; 0x14 <__rc4>
    6a9a: 85 14        	sta	$14                     ; 0x14 <__rc4>
    6a9c: a5 1b        	lda	$1b                     ; 0x1b <__rc11>
    6a9e: 18           	clc
    6a9f: 65 1a        	adc	$1a                     ; 0x1a <__rc10>
    6aa1: 85 81        	sta	$81                     ; 0x81 <__zp_bss_size+0x3d>
    6aa3: a5 1c        	lda	$1c                     ; 0x1c <__rc12>
    6aa5: 65 14        	adc	$14                     ; 0x14 <__rc4>
    6aa7: 85 82        	sta	$82                     ; 0x82 <__zp_bss_size+0x3e>
    6aa9: b1 81        	lda	($81),y                 ; 0x81 <__zp_bss_size+0x3d>
    6aab: 85 89        	sta	$89                     ; 0x89 <__zp_bss_size+0x45>
    6aad: a9 fe        	lda	#$fe
    6aaf: 32 81        	and	($81)                   ; 0x81 <__zp_bss_size+0x3d>
    6ab1: 85 8a        	sta	$8a                     ; 0x8a <__zp_bss_size+0x46>
    6ab3: a6 12        	ldx	$12                     ; 0x12 <__rc2>
    6ab5: 86 83        	stx	$83                     ; 0x83 <__zp_bss_size+0x3f>
    6ab7: a6 13        	ldx	$13                     ; 0x13 <__rc3>
    6ab9: 86 84        	stx	$84                     ; 0x84 <__zp_bss_size+0x40>
    6abb: a6 81        	ldx	$81                     ; 0x81 <__zp_bss_size+0x3d>
    6abd: 86 12        	stx	$12                     ; 0x12 <__rc2>
    6abf: a6 82        	ldx	$82                     ; 0x82 <__zp_bss_size+0x3e>
    6ac1: 86 13        	stx	$13                     ; 0x13 <__rc3>
    6ac3: a6 16        	ldx	$16                     ; 0x16 <__rc6>
    6ac5: 86 85        	stx	$85                     ; 0x85 <__zp_bss_size+0x41>
    6ac7: a6 17        	ldx	$17                     ; 0x17 <__rc7>
    6ac9: 86 86        	stx	$86                     ; 0x86 <__zp_bss_size+0x42>
    6acb: a6 18        	ldx	$18                     ; 0x18 <__rc8>
    6acd: 86 87        	stx	$87                     ; 0x87 <__zp_bss_size+0x43>
    6acf: a6 19        	ldx	$19                     ; 0x19 <__rc9>
    6ad1: 86 88        	stx	$88                     ; 0x88 <__zp_bss_size+0x44>
    6ad3: 20 72 04     	jsr	$472 <_ZN12_GLOBAL__N_19FreeChunk6removeEv>
    6ad6: a6 88        	ldx	$88                     ; 0x88 <__zp_bss_size+0x44>
    6ad8: 86 19        	stx	$19                     ; 0x19 <__rc9>
    6ada: a6 87        	ldx	$87                     ; 0x87 <__zp_bss_size+0x43>
    6adc: 86 18        	stx	$18                     ; 0x18 <__rc8>
    6ade: a6 83        	ldx	$83                     ; 0x83 <__zp_bss_size+0x3f>
    6ae0: 86 12        	stx	$12                     ; 0x12 <__rc2>
    6ae2: a6 84        	ldx	$84                     ; 0x84 <__zp_bss_size+0x40>
    6ae4: 86 13        	stx	$13                     ; 0x13 <__rc3>
    6ae6: 18           	clc
    6ae7: a5 8a        	lda	$8a                     ; 0x8a <__zp_bss_size+0x46>
    6ae9: a6 86        	ldx	$86                     ; 0x86 <__zp_bss_size+0x42>
    6aeb: 86 14        	stx	$14                     ; 0x14 <__rc4>
    6aed: 65 14        	adc	$14                     ; 0x14 <__rc4>
    6aef: 85 17        	sta	$17                     ; 0x17 <__rc7>
    6af1: a5 89        	lda	$89                     ; 0x89 <__zp_bss_size+0x45>
    6af3: a6 85        	ldx	$85                     ; 0x85 <__zp_bss_size+0x41>
    6af5: 86 14        	stx	$14                     ; 0x14 <__rc4>
    6af7: 65 14        	adc	$14                     ; 0x14 <__rc4>
    6af9: 85 16        	sta	$16                     ; 0x16 <__rc6>
    6afb: a2 00        	ldx	#$0
    6afd: 86 14        	stx	$14                     ; 0x14 <__rc4>
    6aff: a2 00        	ldx	#$0
    6b01: 86 15        	stx	$15                     ; 0x15 <__rc5>
    6b03: a6 13        	ldx	$13                     ; 0x13 <__rc3>
    6b05: e4 15        	cpx	$15                     ; 0x15 <__rc5>
    6b07: d0 0d        	bne	$6b16 <free+0x11b>
    6b09: a6 12        	ldx	$12                     ; 0x12 <__rc2>
    6b0b: e4 14        	cpx	$14                     ; 0x14 <__rc4>
    6b0d: d0 07        	bne	$6b16 <free+0x11b>
    6b0f: a2 01        	ldx	#$1
    6b11: 86 7c        	stx	$7c                     ; 0x7c <_ZN12_GLOBAL__N_19last_freeE>
    6b13: 4c 76 6b     	jmp	$6b76 <free+0x17b>
    6b16: b2 12        	lda	($12)                   ; 0x12 <__rc2>
    6b18: 85 1a        	sta	$1a                     ; 0x1a <__rc10>
    6b1a: a0 01        	ldy	#$1
    6b1c: b1 12        	lda	($12),y                 ; 0x12 <__rc2>
    6b1e: a8           	tay
    6b1f: a9 fe        	lda	#$fe
    6b21: 32 12        	and	($12)                   ; 0x12 <__rc2>
    6b23: 18           	clc
    6b24: 85 87        	sta	$87                     ; 0x87 <__zp_bss_size+0x43>
    6b26: 65 12        	adc	$12                     ; 0x12 <__rc2>
    6b28: 85 14        	sta	$14                     ; 0x14 <__rc4>
    6b2a: 98           	tya
    6b2b: 85 83        	sta	$83                     ; 0x83 <__zp_bss_size+0x3f>
    6b2d: 65 13        	adc	$13                     ; 0x13 <__rc3>
    6b2f: c5 19        	cmp	$19                     ; 0x19 <__rc9>
    6b31: d0 1a        	bne	$6b4d <free+0x152>
    6b33: a6 14        	ldx	$14                     ; 0x14 <__rc4>
    6b35: e4 18        	cpx	$18                     ; 0x18 <__rc8>
    6b37: d0 14        	bne	$6b4d <free+0x152>
    6b39: a5 7c        	lda	$7c                     ; 0x7c <_ZN12_GLOBAL__N_19last_freeE>
    6b3b: 29 01        	and	#$1
    6b3d: d0 16        	bne	$6b55 <free+0x15a>
    6b3f: a5 1a        	lda	$1a                     ; 0x1a <__rc10>
    6b41: 09 01        	ora	#$1
    6b43: 92 12        	sta	($12)                   ; 0x12 <__rc2>
    6b45: a0 01        	ldy	#$1
    6b47: a5 83        	lda	$83                     ; 0x83 <__zp_bss_size+0x3f>
    6b49: 91 12        	sta	($12),y                 ; 0x12 <__rc2>
    6b4b: 80 29        	bra	$6b76 <free+0x17b>
    6b4d: 85 15        	sta	$15                     ; 0x15 <__rc5>
    6b4f: a9 01        	lda	#$1
    6b51: 32 14        	and	($14)                   ; 0x14 <__rc4>
    6b53: f0 ea        	beq	$6b3f <free+0x144>
    6b55: a6 16        	ldx	$16                     ; 0x16 <__rc6>
    6b57: 86 85        	stx	$85                     ; 0x85 <__zp_bss_size+0x41>
    6b59: a6 17        	ldx	$17                     ; 0x17 <__rc7>
    6b5b: 86 86        	stx	$86                     ; 0x86 <__zp_bss_size+0x42>
    6b5d: 20 72 04     	jsr	$472 <_ZN12_GLOBAL__N_19FreeChunk6removeEv>
    6b60: 18           	clc
    6b61: a6 87        	ldx	$87                     ; 0x87 <__zp_bss_size+0x43>
    6b63: 8a           	txa
    6b64: a6 86        	ldx	$86                     ; 0x86 <__zp_bss_size+0x42>
    6b66: 86 12        	stx	$12                     ; 0x12 <__rc2>
    6b68: 65 12        	adc	$12                     ; 0x12 <__rc2>
    6b6a: 85 17        	sta	$17                     ; 0x17 <__rc7>
    6b6c: a5 83        	lda	$83                     ; 0x83 <__zp_bss_size+0x3f>
    6b6e: a6 85        	ldx	$85                     ; 0x85 <__zp_bss_size+0x41>
    6b70: 86 12        	stx	$12                     ; 0x12 <__rc2>
    6b72: 65 12        	adc	$12                     ; 0x12 <__rc2>
    6b74: 85 16        	sta	$16                     ; 0x16 <__rc6>
    6b76: a6 81        	ldx	$81                     ; 0x81 <__zp_bss_size+0x3d>
    6b78: 86 12        	stx	$12                     ; 0x12 <__rc2>
    6b7a: a6 82        	ldx	$82                     ; 0x82 <__zp_bss_size+0x3e>
    6b7c: 86 13        	stx	$13                     ; 0x13 <__rc3>
    6b7e: a6 16        	ldx	$16                     ; 0x16 <__rc6>
    6b80: a5 17        	lda	$17                     ; 0x17 <__rc7>
    6b82: 20 26 03     	jsr	$326 <_ZN12_GLOBAL__N_19FreeChunk6insertEPvj>
    6b85: 60           	rts

00006b86 <memcpy>:
    6b86: a8           	tay
    6b87: 8a           	txa
    6b88: d0 03        	bne	$6b8d <memcpy+0x7>
    6b8a: 98           	tya
    6b8b: f0 24        	beq	$6bb1 <memcpy+0x2b>
    6b8d: a5 12        	lda	$12                     ; 0x12 <__rc2>
    6b8f: 85 16        	sta	$16                     ; 0x16 <__rc6>
    6b91: a5 13        	lda	$13                     ; 0x13 <__rc3>
    6b93: 85 17        	sta	$17                     ; 0x17 <__rc7>
    6b95: b2 14        	lda	($14)                   ; 0x14 <__rc4>
    6b97: 92 16        	sta	($16)                   ; 0x16 <__rc6>
    6b99: e6 16        	inc	$16                     ; 0x16 <__rc6>
    6b9b: d0 02        	bne	$6b9f <memcpy+0x19>
    6b9d: e6 17        	inc	$17                     ; 0x17 <__rc7>
    6b9f: e6 14        	inc	$14                     ; 0x14 <__rc4>
    6ba1: d0 02        	bne	$6ba5 <memcpy+0x1f>
    6ba3: e6 15        	inc	$15                     ; 0x15 <__rc5>
    6ba5: 88           	dey
    6ba6: c0 ff        	cpy	#$ff
    6ba8: d0 01        	bne	$6bab <memcpy+0x25>
    6baa: ca           	dex
    6bab: 8a           	txa
    6bac: d0 e7        	bne	$6b95 <memcpy+0xf>
    6bae: 98           	tya
    6baf: d0 e4        	bne	$6b95 <memcpy+0xf>
    6bb1: 60           	rts

00006bb2 <__memset>:
    6bb2: a4 14        	ldy	$14                     ; 0x14 <__rc4>
    6bb4: d0 04        	bne	$6bba <__memset+0x8>
    6bb6: e0 00        	cpx	#$0
    6bb8: f0 17        	beq	$6bd1 <__memset+0x1f>
    6bba: 92 12        	sta	($12)                   ; 0x12 <__rc2>
    6bbc: e6 12        	inc	$12                     ; 0x12 <__rc2>
    6bbe: d0 02        	bne	$6bc2 <__memset+0x10>
    6bc0: e6 13        	inc	$13                     ; 0x13 <__rc3>
    6bc2: ca           	dex
    6bc3: e0 ff        	cpx	#$ff
    6bc5: d0 02        	bne	$6bc9 <__memset+0x17>
    6bc7: c6 14        	dec	$14                     ; 0x14 <__rc4>
    6bc9: a4 14        	ldy	$14                     ; 0x14 <__rc4>
    6bcb: d0 ed        	bne	$6bba <__memset+0x8>
    6bcd: e0 00        	cpx	#$0
    6bcf: d0 e9        	bne	$6bba <__memset+0x8>
    6bd1: 60           	rts

00006bd2 <__udivsi3>:
    6bd2: 64 18        	stz	$18                     ; 0x18 <__rc8>
    6bd4: a4 17        	ldy	$17                     ; 0x17 <__rc7>
    6bd6: d0 0c        	bne	$6be4 <__udivsi3+0x12>
    6bd8: a4 16        	ldy	$16                     ; 0x16 <__rc6>
    6bda: d0 08        	bne	$6be4 <__udivsi3+0x12>
    6bdc: a4 15        	ldy	$15                     ; 0x15 <__rc5>
    6bde: d0 04        	bne	$6be4 <__udivsi3+0x12>
    6be0: a4 14        	ldy	$14                     ; 0x14 <__rc4>
    6be2: f0 27        	beq	$6c0b <__udivsi3+0x39>
    6be4: 86 1e        	stx	$1e                     ; 0x1e <__rc14>
    6be6: a6 12        	ldx	$12                     ; 0x12 <__rc2>
    6be8: 86 1f        	stx	$1f                     ; 0x1f <__rc15>
    6bea: a6 13        	ldx	$13                     ; 0x13 <__rc3>
    6bec: 86 22        	stx	$22                     ; 0x22 <__rc18>
    6bee: e4 17        	cpx	$17                     ; 0x17 <__rc7>
    6bf0: d0 15        	bne	$6c07 <__udivsi3+0x35>
    6bf2: a6 12        	ldx	$12                     ; 0x12 <__rc2>
    6bf4: e4 16        	cpx	$16                     ; 0x16 <__rc6>
    6bf6: d0 18        	bne	$6c10 <__udivsi3+0x3e>
    6bf8: a6 1e        	ldx	$1e                     ; 0x1e <__rc14>
    6bfa: e4 15        	cpx	$15                     ; 0x15 <__rc5>
    6bfc: f0 03        	beq	$6c01 <__udivsi3+0x2f>
    6bfe: 4c 27 6d     	jmp	$6d27 <__udivsi3+0x155>
    6c01: c5 14        	cmp	$14                     ; 0x14 <__rc4>
    6c03: 90 06        	bcc	$6c0b <__udivsi3+0x39>
    6c05: 80 0d        	bra	$6c14 <__udivsi3+0x42>
    6c07: e4 17        	cpx	$17                     ; 0x17 <__rc7>
    6c09: b0 09        	bcs	$6c14 <__udivsi3+0x42>
    6c0b: 64 23        	stz	$23                     ; 0x23 <__rc19>
    6c0d: 4c 7a 6c     	jmp	$6c7a <__udivsi3+0xa8>
    6c10: e4 16        	cpx	$16                     ; 0x16 <__rc6>
    6c12: 90 f7        	bcc	$6c0b <__udivsi3+0x39>
    6c14: 85 1d        	sta	$1d                     ; 0x1d <__rc13>
    6c16: a9 01        	lda	#$1
    6c18: 85 23        	sta	$23                     ; 0x23 <__rc19>
    6c1a: a5 17        	lda	$17                     ; 0x17 <__rc7>
    6c1c: 10 03        	bpl	$6c21 <__udivsi3+0x4f>
    6c1e: 4c 7a 6c     	jmp	$6c7a <__udivsi3+0xa8>
    6c21: a5 1e        	lda	$1e                     ; 0x1e <__rc14>
    6c23: a2 00        	ldx	#$0
    6c25: a4 14        	ldy	$14                     ; 0x14 <__rc4>
    6c27: 84 19        	sty	$19                     ; 0x19 <__rc9>
    6c29: a4 15        	ldy	$15                     ; 0x15 <__rc5>
    6c2b: 84 1a        	sty	$1a                     ; 0x1a <__rc10>
    6c2d: a4 16        	ldy	$16                     ; 0x16 <__rc6>
    6c2f: 84 1b        	sty	$1b                     ; 0x1b <__rc11>
    6c31: a4 17        	ldy	$17                     ; 0x17 <__rc7>
    6c33: 84 1c        	sty	$1c                     ; 0x1c <__rc12>
    6c35: 06 19        	asl	$19                     ; 0x19 <__rc9>
    6c37: 26 1a        	rol	$1a                     ; 0x1a <__rc10>
    6c39: 26 1b        	rol	$1b                     ; 0x1b <__rc11>
    6c3b: 26 1c        	rol	$1c                     ; 0x1c <__rc12>
    6c3d: a4 22        	ldy	$22                     ; 0x22 <__rc18>
    6c3f: c4 1c        	cpy	$1c                     ; 0x1c <__rc12>
    6c41: d0 12        	bne	$6c55 <__udivsi3+0x83>
    6c43: a4 12        	ldy	$12                     ; 0x12 <__rc2>
    6c45: c4 1b        	cpy	$1b                     ; 0x1b <__rc11>
    6c47: d0 12        	bne	$6c5b <__udivsi3+0x89>
    6c49: c5 1a        	cmp	$1a                     ; 0x1a <__rc10>
    6c4b: d0 14        	bne	$6c61 <__udivsi3+0x8f>
    6c4d: a4 1d        	ldy	$1d                     ; 0x1d <__rc13>
    6c4f: c4 19        	cpy	$19                     ; 0x19 <__rc9>
    6c51: 90 30        	bcc	$6c83 <__udivsi3+0xb1>
    6c53: 80 10        	bra	$6c65 <__udivsi3+0x93>
    6c55: c4 1c        	cpy	$1c                     ; 0x1c <__rc12>
    6c57: 90 2a        	bcc	$6c83 <__udivsi3+0xb1>
    6c59: 80 0a        	bra	$6c65 <__udivsi3+0x93>
    6c5b: c4 1b        	cpy	$1b                     ; 0x1b <__rc11>
    6c5d: 90 24        	bcc	$6c83 <__udivsi3+0xb1>
    6c5f: 80 04        	bra	$6c65 <__udivsi3+0x93>
    6c61: c5 1a        	cmp	$1a                     ; 0x1a <__rc10>
    6c63: 90 1e        	bcc	$6c83 <__udivsi3+0xb1>
    6c65: e8           	inx
    6c66: a4 19        	ldy	$19                     ; 0x19 <__rc9>
    6c68: 84 14        	sty	$14                     ; 0x14 <__rc4>
    6c6a: a4 1a        	ldy	$1a                     ; 0x1a <__rc10>
    6c6c: 84 15        	sty	$15                     ; 0x15 <__rc5>
    6c6e: a4 1b        	ldy	$1b                     ; 0x1b <__rc11>
    6c70: 84 16        	sty	$16                     ; 0x16 <__rc6>
    6c72: a4 1c        	ldy	$1c                     ; 0x1c <__rc12>
    6c74: 84 17        	sty	$17                     ; 0x17 <__rc7>
    6c76: 10 bd        	bpl	$6c35 <__udivsi3+0x63>
    6c78: 80 19        	bra	$6c93 <__udivsi3+0xc1>
    6c7a: 64 12        	stz	$12                     ; 0x12 <__rc2>
    6c7c: 64 13        	stz	$13                     ; 0x13 <__rc3>
    6c7e: a6 18        	ldx	$18                     ; 0x18 <__rc8>
    6c80: a5 23        	lda	$23                     ; 0x23 <__rc19>
    6c82: 60           	rts
    6c83: a4 14        	ldy	$14                     ; 0x14 <__rc4>
    6c85: 84 19        	sty	$19                     ; 0x19 <__rc9>
    6c87: a4 15        	ldy	$15                     ; 0x15 <__rc5>
    6c89: 84 1a        	sty	$1a                     ; 0x1a <__rc10>
    6c8b: a4 16        	ldy	$16                     ; 0x16 <__rc6>
    6c8d: 84 1b        	sty	$1b                     ; 0x1b <__rc11>
    6c8f: a4 17        	ldy	$17                     ; 0x17 <__rc7>
    6c91: 84 1c        	sty	$1c                     ; 0x1c <__rc12>
    6c93: 64 12        	stz	$12                     ; 0x12 <__rc2>
    6c95: 64 13        	stz	$13                     ; 0x13 <__rc3>
    6c97: 8a           	txa
    6c98: f0 e4        	beq	$6c7e <__udivsi3+0xac>
    6c9a: 38           	sec
    6c9b: a5 1d        	lda	$1d                     ; 0x1d <__rc13>
    6c9d: e5 19        	sbc	$19                     ; 0x19 <__rc9>
    6c9f: 85 14        	sta	$14                     ; 0x14 <__rc4>
    6ca1: a5 1e        	lda	$1e                     ; 0x1e <__rc14>
    6ca3: e5 1a        	sbc	$1a                     ; 0x1a <__rc10>
    6ca5: 85 17        	sta	$17                     ; 0x17 <__rc7>
    6ca7: a5 1f        	lda	$1f                     ; 0x1f <__rc15>
    6ca9: e5 1b        	sbc	$1b                     ; 0x1b <__rc11>
    6cab: 85 15        	sta	$15                     ; 0x15 <__rc5>
    6cad: a5 22        	lda	$22                     ; 0x22 <__rc18>
    6caf: e5 1c        	sbc	$1c                     ; 0x1c <__rc12>
    6cb1: 85 16        	sta	$16                     ; 0x16 <__rc6>
    6cb3: a9 01        	lda	#$1
    6cb5: 85 23        	sta	$23                     ; 0x23 <__rc19>
    6cb7: 64 18        	stz	$18                     ; 0x18 <__rc8>
    6cb9: 46 1c        	lsr	$1c                     ; 0x1c <__rc12>
    6cbb: 66 1b        	ror	$1b                     ; 0x1b <__rc11>
    6cbd: 66 1a        	ror	$1a                     ; 0x1a <__rc10>
    6cbf: 66 19        	ror	$19                     ; 0x19 <__rc9>
    6cc1: 06 23        	asl	$23                     ; 0x23 <__rc19>
    6cc3: a0 01        	ldy	#$1
    6cc5: b0 02        	bcs	$6cc9 <__udivsi3+0xf7>
    6cc7: a0 00        	ldy	#$0
    6cc9: 84 1d        	sty	$1d                     ; 0x1d <__rc13>
    6ccb: a5 16        	lda	$16                     ; 0x16 <__rc6>
    6ccd: c5 1c        	cmp	$1c                     ; 0x1c <__rc12>
    6ccf: d0 14        	bne	$6ce5 <__udivsi3+0x113>
    6cd1: a4 15        	ldy	$15                     ; 0x15 <__rc5>
    6cd3: c4 1b        	cpy	$1b                     ; 0x1b <__rc11>
    6cd5: d0 44        	bne	$6d1b <__udivsi3+0x149>
    6cd7: a4 17        	ldy	$17                     ; 0x17 <__rc7>
    6cd9: c4 1a        	cpy	$1a                     ; 0x1a <__rc10>
    6cdb: d0 44        	bne	$6d21 <__udivsi3+0x14f>
    6cdd: a4 14        	ldy	$14                     ; 0x14 <__rc4>
    6cdf: c4 19        	cpy	$19                     ; 0x19 <__rc9>
    6ce1: b0 06        	bcs	$6ce9 <__udivsi3+0x117>
    6ce3: 80 23        	bra	$6d08 <__udivsi3+0x136>
    6ce5: c5 1c        	cmp	$1c                     ; 0x1c <__rc12>
    6ce7: 90 1f        	bcc	$6d08 <__udivsi3+0x136>
    6ce9: 38           	sec
    6cea: a5 14        	lda	$14                     ; 0x14 <__rc4>
    6cec: e5 19        	sbc	$19                     ; 0x19 <__rc9>
    6cee: 85 14        	sta	$14                     ; 0x14 <__rc4>
    6cf0: a5 17        	lda	$17                     ; 0x17 <__rc7>
    6cf2: e5 1a        	sbc	$1a                     ; 0x1a <__rc10>
    6cf4: 85 17        	sta	$17                     ; 0x17 <__rc7>
    6cf6: a5 15        	lda	$15                     ; 0x15 <__rc5>
    6cf8: e5 1b        	sbc	$1b                     ; 0x1b <__rc11>
    6cfa: 85 15        	sta	$15                     ; 0x15 <__rc5>
    6cfc: a5 16        	lda	$16                     ; 0x16 <__rc6>
    6cfe: e5 1c        	sbc	$1c                     ; 0x1c <__rc12>
    6d00: 85 16        	sta	$16                     ; 0x16 <__rc6>
    6d02: a5 23        	lda	$23                     ; 0x23 <__rc19>
    6d04: 09 01        	ora	#$1
    6d06: 85 23        	sta	$23                     ; 0x23 <__rc19>
    6d08: a4 1d        	ldy	$1d                     ; 0x1d <__rc13>
    6d0a: c0 01        	cpy	#$1
    6d0c: 26 18        	rol	$18                     ; 0x18 <__rc8>
    6d0e: 26 12        	rol	$12                     ; 0x12 <__rc2>
    6d10: 26 13        	rol	$13                     ; 0x13 <__rc3>
    6d12: ca           	dex
    6d13: f0 03        	beq	$6d18 <__udivsi3+0x146>
    6d15: 4c b9 6c     	jmp	$6cb9 <__udivsi3+0xe7>
    6d18: 4c 7e 6c     	jmp	$6c7e <__udivsi3+0xac>
    6d1b: c4 1b        	cpy	$1b                     ; 0x1b <__rc11>
    6d1d: b0 ca        	bcs	$6ce9 <__udivsi3+0x117>
    6d1f: 80 e7        	bra	$6d08 <__udivsi3+0x136>
    6d21: c4 1a        	cpy	$1a                     ; 0x1a <__rc10>
    6d23: b0 c4        	bcs	$6ce9 <__udivsi3+0x117>
    6d25: 80 e1        	bra	$6d08 <__udivsi3+0x136>
    6d27: e4 15        	cpx	$15                     ; 0x15 <__rc5>
    6d29: b0 03        	bcs	$6d2e <__udivsi3+0x15c>
    6d2b: 4c 0b 6c     	jmp	$6c0b <__udivsi3+0x39>
    6d2e: 4c 14 6c     	jmp	$6c14 <__udivsi3+0x42>

00006d31 <__udivmodhi4>:
    6d31: 86 1a        	stx	$1a                     ; 0x1a <__rc10>
    6d33: 64 16        	stz	$16                     ; 0x16 <__rc6>
    6d35: a4 13        	ldy	$13                     ; 0x13 <__rc3>
    6d37: d0 04        	bne	$6d3d <__udivmodhi4+0xc>
    6d39: a4 12        	ldy	$12                     ; 0x12 <__rc2>
    6d3b: f0 08        	beq	$6d45 <__udivmodhi4+0x14>
    6d3d: e4 13        	cpx	$13                     ; 0x13 <__rc3>
    6d3f: d0 0f        	bne	$6d50 <__udivmodhi4+0x1f>
    6d41: c5 12        	cmp	$12                     ; 0x12 <__rc2>
    6d43: b0 0f        	bcs	$6d54 <__udivmodhi4+0x23>
    6d45: a6 1a        	ldx	$1a                     ; 0x1a <__rc10>
    6d47: 86 12        	stx	$12                     ; 0x12 <__rc2>
    6d49: 64 13        	stz	$13                     ; 0x13 <__rc3>
    6d4b: 85 19        	sta	$19                     ; 0x19 <__rc9>
    6d4d: 4c f9 6d     	jmp	$6df9 <__udivmodhi4+0xc8>
    6d50: e4 13        	cpx	$13                     ; 0x13 <__rc3>
    6d52: 90 f1        	bcc	$6d45 <__udivmodhi4+0x14>
    6d54: a4 13        	ldy	$13                     ; 0x13 <__rc3>
    6d56: 10 03        	bpl	$6d5b <__udivmodhi4+0x2a>
    6d58: 4c e7 6d     	jmp	$6de7 <__udivmodhi4+0xb6>
    6d5b: a2 00        	ldx	#$0
    6d5d: a4 12        	ldy	$12                     ; 0x12 <__rc2>
    6d5f: 84 17        	sty	$17                     ; 0x17 <__rc7>
    6d61: a4 13        	ldy	$13                     ; 0x13 <__rc3>
    6d63: 84 18        	sty	$18                     ; 0x18 <__rc8>
    6d65: 06 17        	asl	$17                     ; 0x17 <__rc7>
    6d67: 26 18        	rol	$18                     ; 0x18 <__rc8>
    6d69: a4 1a        	ldy	$1a                     ; 0x1a <__rc10>
    6d6b: c4 18        	cpy	$18                     ; 0x18 <__rc8>
    6d6d: d0 06        	bne	$6d75 <__udivmodhi4+0x44>
    6d6f: c5 17        	cmp	$17                     ; 0x17 <__rc7>
    6d71: 90 15        	bcc	$6d88 <__udivmodhi4+0x57>
    6d73: 80 06        	bra	$6d7b <__udivmodhi4+0x4a>
    6d75: a4 1a        	ldy	$1a                     ; 0x1a <__rc10>
    6d77: c4 18        	cpy	$18                     ; 0x18 <__rc8>
    6d79: 90 0d        	bcc	$6d88 <__udivmodhi4+0x57>
    6d7b: e8           	inx
    6d7c: a4 17        	ldy	$17                     ; 0x17 <__rc7>
    6d7e: 84 12        	sty	$12                     ; 0x12 <__rc2>
    6d80: a4 18        	ldy	$18                     ; 0x18 <__rc8>
    6d82: 84 13        	sty	$13                     ; 0x13 <__rc3>
    6d84: 10 df        	bpl	$6d65 <__udivmodhi4+0x34>
    6d86: 80 08        	bra	$6d90 <__udivmodhi4+0x5f>
    6d88: a4 12        	ldy	$12                     ; 0x12 <__rc2>
    6d8a: 84 17        	sty	$17                     ; 0x17 <__rc7>
    6d8c: a4 13        	ldy	$13                     ; 0x13 <__rc3>
    6d8e: 84 18        	sty	$18                     ; 0x18 <__rc8>
    6d90: 38           	sec
    6d91: e5 17        	sbc	$17                     ; 0x17 <__rc7>
    6d93: a8           	tay
    6d94: a5 1a        	lda	$1a                     ; 0x1a <__rc10>
    6d96: e5 18        	sbc	$18                     ; 0x18 <__rc8>
    6d98: 85 12        	sta	$12                     ; 0x12 <__rc2>
    6d9a: a9 01        	lda	#$1
    6d9c: 85 13        	sta	$13                     ; 0x13 <__rc3>
    6d9e: 8a           	txa
    6d9f: d0 03        	bne	$6da4 <__udivmodhi4+0x73>
    6da1: 4c f7 6d     	jmp	$6df7 <__udivmodhi4+0xc6>
    6da4: 64 16        	stz	$16                     ; 0x16 <__rc6>
    6da6: 84 19        	sty	$19                     ; 0x19 <__rc9>
    6da8: 46 18        	lsr	$18                     ; 0x18 <__rc8>
    6daa: 66 17        	ror	$17                     ; 0x17 <__rc7>
    6dac: 06 13        	asl	$13                     ; 0x13 <__rc3>
    6dae: a0 01        	ldy	#$1
    6db0: b0 02        	bcs	$6db4 <__udivmodhi4+0x83>
    6db2: a0 00        	ldy	#$0
    6db4: 84 1a        	sty	$1a                     ; 0x1a <__rc10>
    6db6: a4 12        	ldy	$12                     ; 0x12 <__rc2>
    6db8: c4 18        	cpy	$18                     ; 0x18 <__rc8>
    6dba: d0 25        	bne	$6de1 <__udivmodhi4+0xb0>
    6dbc: a4 19        	ldy	$19                     ; 0x19 <__rc9>
    6dbe: c4 17        	cpy	$17                     ; 0x17 <__rc7>
    6dc0: 90 14        	bcc	$6dd6 <__udivmodhi4+0xa5>
    6dc2: a5 13        	lda	$13                     ; 0x13 <__rc3>
    6dc4: 09 01        	ora	#$1
    6dc6: 85 13        	sta	$13                     ; 0x13 <__rc3>
    6dc8: 38           	sec
    6dc9: a5 19        	lda	$19                     ; 0x19 <__rc9>
    6dcb: e5 17        	sbc	$17                     ; 0x17 <__rc7>
    6dcd: a8           	tay
    6dce: a5 12        	lda	$12                     ; 0x12 <__rc2>
    6dd0: e5 18        	sbc	$18                     ; 0x18 <__rc8>
    6dd2: 85 12        	sta	$12                     ; 0x12 <__rc2>
    6dd4: 84 19        	sty	$19                     ; 0x19 <__rc9>
    6dd6: a4 1a        	ldy	$1a                     ; 0x1a <__rc10>
    6dd8: c0 01        	cpy	#$1
    6dda: 26 16        	rol	$16                     ; 0x16 <__rc6>
    6ddc: ca           	dex
    6ddd: d0 c9        	bne	$6da8 <__udivmodhi4+0x77>
    6ddf: 80 18        	bra	$6df9 <__udivmodhi4+0xc8>
    6de1: c4 18        	cpy	$18                     ; 0x18 <__rc8>
    6de3: b0 dd        	bcs	$6dc2 <__udivmodhi4+0x91>
    6de5: 80 ef        	bra	$6dd6 <__udivmodhi4+0xa5>
    6de7: 38           	sec
    6de8: e5 12        	sbc	$12                     ; 0x12 <__rc2>
    6dea: 85 19        	sta	$19                     ; 0x19 <__rc9>
    6dec: 8a           	txa
    6ded: e5 13        	sbc	$13                     ; 0x13 <__rc3>
    6def: 85 12        	sta	$12                     ; 0x12 <__rc2>
    6df1: a9 01        	lda	#$1
    6df3: 85 13        	sta	$13                     ; 0x13 <__rc3>
    6df5: 80 02        	bra	$6df9 <__udivmodhi4+0xc8>
    6df7: 84 19        	sty	$19                     ; 0x19 <__rc9>
    6df9: a5 19        	lda	$19                     ; 0x19 <__rc9>
    6dfb: 92 14        	sta	($14)                   ; 0x14 <__rc4>
    6dfd: a0 01        	ldy	#$1
    6dff: a5 12        	lda	$12                     ; 0x12 <__rc2>
    6e01: 91 14        	sta	($14),y                 ; 0x14 <__rc4>
    6e03: a6 16        	ldx	$16                     ; 0x16 <__rc6>
    6e05: a5 13        	lda	$13                     ; 0x13 <__rc3>
    6e07: 60           	rts

00006e08 <__mulhi3>:
    6e08: a4 13        	ldy	$13                     ; 0x13 <__rc3>
    6e0a: d0 04        	bne	$6e10 <__mulhi3+0x8>
    6e0c: a4 12        	ldy	$12                     ; 0x12 <__rc2>
    6e0e: f0 25        	beq	$6e35 <__mulhi3+0x2d>
    6e10: 85 14        	sta	$14                     ; 0x14 <__rc4>
    6e12: 86 15        	stx	$15                     ; 0x15 <__rc5>
    6e14: a0 00        	ldy	#$0
    6e16: 98           	tya
    6e17: 46 13        	lsr	$13                     ; 0x13 <__rc3>
    6e19: 66 12        	ror	$12                     ; 0x12 <__rc2>
    6e1b: 90 09        	bcc	$6e26 <__mulhi3+0x1e>
    6e1d: aa           	tax
    6e1e: 98           	tya
    6e1f: 18           	clc
    6e20: 65 14        	adc	$14                     ; 0x14 <__rc4>
    6e22: a8           	tay
    6e23: 8a           	txa
    6e24: 65 15        	adc	$15                     ; 0x15 <__rc5>
    6e26: 06 14        	asl	$14                     ; 0x14 <__rc4>
    6e28: 26 15        	rol	$15                     ; 0x15 <__rc5>
    6e2a: a6 13        	ldx	$13                     ; 0x13 <__rc3>
    6e2c: d0 e9        	bne	$6e17 <__mulhi3+0xf>
    6e2e: a6 12        	ldx	$12                     ; 0x12 <__rc2>
    6e30: d0 e5        	bne	$6e17 <__mulhi3+0xf>
    6e32: aa           	tax
    6e33: 98           	tya
    6e34: 60           	rts
    6e35: a0 00        	ldy	#$0
    6e37: 98           	tya
    6e38: 80 f8        	bra	$6e32 <__mulhi3+0x2a>

00006e3a <__mulsi3>:
    6e3a: a4 17        	ldy	$17                     ; 0x17 <__rc7>
    6e3c: d0 0f        	bne	$6e4d <__mulsi3+0x13>
    6e3e: a4 16        	ldy	$16                     ; 0x16 <__rc6>
    6e40: d0 0b        	bne	$6e4d <__mulsi3+0x13>
    6e42: a4 15        	ldy	$15                     ; 0x15 <__rc5>
    6e44: d0 07        	bne	$6e4d <__mulsi3+0x13>
    6e46: a4 14        	ldy	$14                     ; 0x14 <__rc4>
    6e48: d0 03        	bne	$6e4d <__mulsi3+0x13>
    6e4a: 4c a1 6e     	jmp	$6ea1 <__mulsi3+0x67>
    6e4d: 85 18        	sta	$18                     ; 0x18 <__rc8>
    6e4f: 86 19        	stx	$19                     ; 0x19 <__rc9>
    6e51: a0 00        	ldy	#$0
    6e53: a2 00        	ldx	#$0
    6e55: 64 1a        	stz	$1a                     ; 0x1a <__rc10>
    6e57: 98           	tya
    6e58: 46 17        	lsr	$17                     ; 0x17 <__rc7>
    6e5a: 66 16        	ror	$16                     ; 0x16 <__rc6>
    6e5c: 66 15        	ror	$15                     ; 0x15 <__rc5>
    6e5e: 66 14        	ror	$14                     ; 0x14 <__rc4>
    6e60: 90 15        	bcc	$6e77 <__mulsi3+0x3d>
    6e62: 85 1b        	sta	$1b                     ; 0x1b <__rc11>
    6e64: 98           	tya
    6e65: 18           	clc
    6e66: 65 18        	adc	$18                     ; 0x18 <__rc8>
    6e68: a8           	tay
    6e69: 8a           	txa
    6e6a: 65 19        	adc	$19                     ; 0x19 <__rc9>
    6e6c: aa           	tax
    6e6d: a5 1a        	lda	$1a                     ; 0x1a <__rc10>
    6e6f: 65 12        	adc	$12                     ; 0x12 <__rc2>
    6e71: 85 1a        	sta	$1a                     ; 0x1a <__rc10>
    6e73: a5 1b        	lda	$1b                     ; 0x1b <__rc11>
    6e75: 65 13        	adc	$13                     ; 0x13 <__rc3>
    6e77: 06 18        	asl	$18                     ; 0x18 <__rc8>
    6e79: 26 19        	rol	$19                     ; 0x19 <__rc9>
    6e7b: 26 12        	rol	$12                     ; 0x12 <__rc2>
    6e7d: 26 13        	rol	$13                     ; 0x13 <__rc3>
    6e7f: e6 17        	inc	$17                     ; 0x17 <__rc7>
    6e81: c6 17        	dec	$17                     ; 0x17 <__rc7>
    6e83: d0 d3        	bne	$6e58 <__mulsi3+0x1e>
    6e85: e6 16        	inc	$16                     ; 0x16 <__rc6>
    6e87: c6 16        	dec	$16                     ; 0x16 <__rc6>
    6e89: d0 cd        	bne	$6e58 <__mulsi3+0x1e>
    6e8b: e6 15        	inc	$15                     ; 0x15 <__rc5>
    6e8d: c6 15        	dec	$15                     ; 0x15 <__rc5>
    6e8f: d0 c7        	bne	$6e58 <__mulsi3+0x1e>
    6e91: e6 14        	inc	$14                     ; 0x14 <__rc4>
    6e93: c6 14        	dec	$14                     ; 0x14 <__rc4>
    6e95: d0 c1        	bne	$6e58 <__mulsi3+0x1e>
    6e97: 5a           	phy
    6e98: a4 1a        	ldy	$1a                     ; 0x1a <__rc10>
    6e9a: 84 12        	sty	$12                     ; 0x12 <__rc2>
    6e9c: 7a           	ply
    6e9d: 85 13        	sta	$13                     ; 0x13 <__rc3>
    6e9f: 98           	tya
    6ea0: 60           	rts
    6ea1: a0 00        	ldy	#$0
    6ea3: a2 00        	ldx	#$0
    6ea5: 64 1a        	stz	$1a                     ; 0x1a <__rc10>
    6ea7: 98           	tya
    6ea8: 80 ed        	bra	$6e97 <__mulsi3+0x5d>
