
NES.elf:	file format elf32-mos

SYMBOL TABLE:
00000000 l    df *ABS*	00000000 zero-bss.c
00000000 l    df *ABS*	00000000 zero-zp-bss.c
00000000 l    df *ABS*	00000000 ld-temp.o
0000033b l     F .text	000003ea f256Init
00001b76 l     O .bss	00000007 kernelEventData
00001aea l     O .rodata	00000030 textColors
00000030 l     O .zp.bss	00000001 _col
00000031 l     O .zp.bss	00000001 _row
00001b7d l     O .bss	00000001 kernelError
0000072b l     F .text	00000201 f256main
00000d24 l     F .text	00000d40 printf
0000092c l     F .text	00000205 textPrint
00000b36 l     F .text	000000df _ZN12_GLOBAL__N_13putEcP6Status
00000032 l     O .zp.bss	00000002 __putchar.s
00000c15 l     F .text	0000010f _ZN12_GLOBAL__N_112print_stringEPKcP6Status
00000014 g       *ABS*	00000000 __rc4
00000012 g       *ABS*	00000000 __rc2
00000725 g     F .text	00000006 main
00000311 g       .text	00000000 __after_main
00000300 g       .text	00000000 __do_init_stack
00000308 g       .text	00000000 __do_zero_bss
00000315 g     F .text	00000013 __zero_bss
0000030b g       .text	00000000 __do_zero_zp_bss
00000328 g     F .text	00000013 __zero_zp_bss
00000b31 g     F .text	00000005 exit
00000314 g       .text	00000000 _fini
00001a90  w    F .text	00000020 __memset
00001000  w      *ABS*	00000000 __heap_default_limit
00001b7e g       .noinit	00000000 __heap_start
00001a64  w    F .text	0000002c memcpy
00000010 g       *ABS*	00000000 __rc0
00000016 g       *ABS*	00000000 __rc6
00000018 g       *ABS*	00000000 __rc8
0000001a g       *ABS*	00000000 __rc10
0000001c g       *ABS*	00000000 __rc12
0000001e g       *ABS*	00000000 __rc14
00000020 g       *ABS*	00000000 __rc16
00000022 g       *ABS*	00000000 __rc18
00000024 g       *ABS*	00000000 __rc20
00000026 g       *ABS*	00000000 __rc22
00000028 g       *ABS*	00000000 __rc24
0000002a g       *ABS*	00000000 __rc26
0000002c g       *ABS*	00000000 __rc28
0000002e g       *ABS*	00000000 __rc30
0000002f g       *ABS*	00000000 __rc31
00000300 g       *ABS*	00000000 __f256_start
0000a000 g       *ABS*	00000000 __stack
0000a000 g       *ABS*	00000000 __SLOT_ADDR
0800a000 g       *ABS*	00000000 __block8_lma
00002000 g       *ABS*	00000000 __BLOCK_SIZE
0900a000 g       *ABS*	00000000 __block9_lma
0a00a000 g       *ABS*	00000000 __block10_lma
0b00a000 g       *ABS*	00000000 __block11_lma
0c00a000 g       *ABS*	00000000 __block12_lma
0d00a000 g       *ABS*	00000000 __block13_lma
0e00a000 g       *ABS*	00000000 __block14_lma
0f00a000 g       *ABS*	00000000 __block15_lma
1000a000 g       *ABS*	00000000 __block16_lma
1100a000 g       *ABS*	00000000 __block17_lma
1200a000 g       *ABS*	00000000 __block18_lma
1300a000 g       *ABS*	00000000 __block19_lma
1400a000 g       *ABS*	00000000 __block20_lma
1500a000 g       *ABS*	00000000 __block21_lma
1600a000 g       *ABS*	00000000 __block22_lma
1700a000 g       *ABS*	00000000 __block23_lma
00001b76 g       .bss	00000000 __bss_start
00000300 g       .text	00000000 _start
0000002d g       *ABS*	00000000 __rc29
0000002b g       *ABS*	00000000 __rc27
00000029 g       *ABS*	00000000 __rc25
00000027 g       *ABS*	00000000 __rc23
00000025 g       *ABS*	00000000 __rc21
00000023 g       *ABS*	00000000 __rc19
00000021 g       *ABS*	00000000 __rc17
0000001f g       *ABS*	00000000 __rc15
0000001d g       *ABS*	00000000 __rc13
0000001b g       *ABS*	00000000 __rc11
00000019 g       *ABS*	00000000 __rc9
00000017 g       *ABS*	00000000 __rc7
00000015 g       *ABS*	00000000 __rc5
00000013 g       *ABS*	00000000 __rc3
00000011 g       *ABS*	00000000 __rc1
00000030 g       .zp.data	00000000 __zp_data_start
00000300 g       *ABS*	00000000 __zp_data_load_start
00000000 g       *ABS*	00000000 __zp_data_size
00000030 g       .zp.bss	00000000 __zp_bss_start
00000004 g       *ABS*	00000000 __zp_bss_size
00000300 g       .text	00000000 _init
00001ab0 g       .text	00000000 __init_array_start
00001ab0 g       .text	00000000 __init_array_end
00001ab0 g       .text	00000000 __fini_array_start
00001ab0 g       .text	00000000 __fini_array_end
00001b76 g       .data	00000000 __data_start
00001b76 g       .data	00000000 __data_end
00001b76 g       *ABS*	00000000 __data_load_start
00000000 g       *ABS*	00000000 __data_size
00001b7e g       .bss	00000000 __bss_end
00000008 g       *ABS*	00000000 __bss_size
00001b7e g       .noinit	00000000 end_block8
00001b7e g       .noinit	00000000 end_block9
00001b7e g       .noinit	00000000 end_block10
00001b7e g       .noinit	00000000 end_block11
00001b7e g       .noinit	00000000 end_block12
00001b7e g       .noinit	00000000 end_block13
00001b7e g       .noinit	00000000 end_block14
00001b7e g       .noinit	00000000 end_block15
00001b7e g       .noinit	00000000 end_block16
00001b7e g       .noinit	00000000 end_block17
00001b7e g       .noinit	00000000 end_block18
00001b7e g       .noinit	00000000 end_block19
00001b7e g       .noinit	00000000 end_block20
00001b7e g       .noinit	00000000 end_block21
00001b7e g       .noinit	00000000 end_block22
00001b7e g       .noinit	00000000 end_block23

Disassembly of section .text:

00000300 <_start>:
     300: a9 00        	lda	#$0
     302: 85 10        	sta	$10                     ; 0x10 <__rc0>
     304: a9 a0        	lda	#$a0
     306: 85 11        	sta	$11                     ; 0x11 <__rc1>

00000308 <__do_zero_bss>:
     308: 20 15 03     	jsr	$315 <__zero_bss>

0000030b <__do_zero_zp_bss>:
     30b: 20 28 03     	jsr	$328 <__zero_zp_bss>
     30e: 20 25 07     	jsr	$725 <main>

00000311 <__after_main>:
     311: 4c 31 0b     	jmp	$b31 <exit>

00000314 <_fini>:
     314: 60           	rts

00000315 <__zero_bss>:
     315: a2 08        	ldx	#$8
     317: a0 00        	ldy	#$0
     319: a9 76        	lda	#$76
     31b: 85 12        	sta	$12                     ; 0x12 <__rc2>
     31d: a9 1b        	lda	#$1b
     31f: 85 13        	sta	$13                     ; 0x13 <__rc3>
     321: a9 00        	lda	#$0
     323: 84 14        	sty	$14                     ; 0x14 <__rc4>
     325: 4c 90 1a     	jmp	$1a90 <__memset>

00000328 <__zero_zp_bss>:
     328: a2 04        	ldx	#$4
     32a: a0 00        	ldy	#$0
     32c: a9 30        	lda	#$30
     32e: 85 12        	sta	$12                     ; 0x12 <__rc2>
     330: a9 00        	lda	#$0
     332: 85 13        	sta	$13                     ; 0x13 <__rc3>
     334: a9 00        	lda	#$0
     336: 84 14        	sty	$14                     ; 0x14 <__rc4>
     338: 4c 90 1a     	jmp	$1a90 <__memset>

0000033b <f256Init>:
     33b: 64 1c        	stz	$1c                     ; 0x1c <__rc12>
     33d: a2 00        	ldx	#$0
     33f: 86 1a        	stx	$1a                     ; 0x1a <__rc10>
     341: a2 d0        	ldx	#$d0
     343: 86 1b        	stx	$1b                     ; 0x1b <__rc11>
     345: a2 00        	ldx	#$0
     347: 86 16        	stx	$16                     ; 0x16 <__rc6>
     349: a2 d8        	ldx	#$d8
     34b: 86 17        	stx	$17                     ; 0x17 <__rc7>
     34d: a2 00        	ldx	#$0
     34f: 86 18        	stx	$18                     ; 0x18 <__rc8>
     351: a2 d4        	ldx	#$d4
     353: 86 19        	stx	$19                     ; 0x19 <__rc9>
     355: a2 00        	ldx	#$0
     357: 86 14        	stx	$14                     ; 0x14 <__rc4>
     359: a2 dc        	ldx	#$dc
     35b: 86 15        	stx	$15                     ; 0x15 <__rc5>
     35d: a2 00        	ldx	#$0
     35f: 86 12        	stx	$12                     ; 0x12 <__rc2>
     361: a2 c0        	ldx	#$c0
     363: 86 13        	stx	$13                     ; 0x13 <__rc3>
     365: 64 01        	stz	$1                      ; 0x1 <__zp_data_size+0x1>
     367: a2 3f        	ldx	#$3f
     369: 8e 00 d0     	stx	$d000                   ; 0xd000 <end_block9+0xb482>
     36c: a2 b3        	ldx	#$b3
     36e: 86 00        	stx	$0                      ; 0x0 <__zp_data_size>
     370: 64 08        	stz	$8                      ; 0x8 <__bss_size>
     372: a2 01        	ldx	#$1
     374: 86 09        	stx	$9                      ; 0x9 <__bss_size+0x1>
     376: e8           	inx
     377: 86 0a        	stx	$a                      ; 0xa <__bss_size+0x2>
     379: e8           	inx
     37a: 86 0b        	stx	$b                      ; 0xb <__bss_size+0x3>
     37c: e8           	inx
     37d: 86 0c        	stx	$c                      ; 0xc <__bss_size+0x4>
     37f: e8           	inx
     380: 86 0d        	stx	$d                      ; 0xd <__bss_size+0x5>
     382: a2 76        	ldx	#$76
     384: a9 1b        	lda	#$1b
     386: 86 f0        	stx	$f0                     ; 0xf0 <__rc31+0xc1>
     388: 85 f1        	sta	$f1                     ; 0xf1 <__rc31+0xc2>
     38a: a6 01        	ldx	$1                      ; 0x1 <__zp_data_size+0x1>
     38c: a0 01        	ldy	#$1
     38e: 84 01        	sty	$1                      ; 0x1 <__zp_data_size+0x1>
     390: a5 1c        	lda	$1c                     ; 0x1c <__rc12>
     392: 92 1a        	sta	($1a)                   ; 0x1a <__rc10>
     394: 91 1a        	sta	($1a),y                 ; 0x1a <__rc10>
     396: c8           	iny
     397: 91 1a        	sta	($1a),y                 ; 0x1a <__rc10>
     399: c8           	iny
     39a: a9 ff        	lda	#$ff
     39c: 91 1a        	sta	($1a),y                 ; 0x1a <__rc10>
     39e: 86 01        	stx	$1                      ; 0x1 <__zp_data_size+0x1>
     3a0: a5 1a        	lda	$1a                     ; 0x1a <__rc10>
     3a2: 18           	clc
     3a3: 69 04        	adc	#$4
     3a5: 85 1a        	sta	$1a                     ; 0x1a <__rc10>
     3a7: a5 1b        	lda	$1b                     ; 0x1b <__rc11>
     3a9: 69 00        	adc	#$0
     3ab: e6 1c        	inc	$1c                     ; 0x1c <__rc12>
     3ad: 85 1b        	sta	$1b                     ; 0x1b <__rc11>
     3af: d0 d9        	bne	$38a <f256Init+0x4f>
     3b1: a9 00        	lda	#$0
     3b3: a6 01        	ldx	$1                      ; 0x1 <__zp_data_size+0x1>
     3b5: a0 01        	ldy	#$1
     3b7: 84 01        	sty	$1                      ; 0x1 <__zp_data_size+0x1>
     3b9: 92 18        	sta	($18)                   ; 0x18 <__rc8>
     3bb: 91 18        	sta	($18),y                 ; 0x18 <__rc8>
     3bd: c8           	iny
     3be: 91 18        	sta	($18),y                 ; 0x18 <__rc8>
     3c0: c8           	iny
     3c1: 85 1a        	sta	$1a                     ; 0x1a <__rc10>
     3c3: a9 ff        	lda	#$ff
     3c5: 91 18        	sta	($18),y                 ; 0x18 <__rc8>
     3c7: 86 01        	stx	$1                      ; 0x1 <__zp_data_size+0x1>
     3c9: a5 18        	lda	$18                     ; 0x18 <__rc8>
     3cb: 18           	clc
     3cc: 69 04        	adc	#$4
     3ce: 85 18        	sta	$18                     ; 0x18 <__rc8>
     3d0: a5 19        	lda	$19                     ; 0x19 <__rc9>
     3d2: 69 00        	adc	#$0
     3d4: e6 1a        	inc	$1a                     ; 0x1a <__rc10>
     3d6: 85 19        	sta	$19                     ; 0x19 <__rc9>
     3d8: a5 1a        	lda	$1a                     ; 0x1a <__rc10>
     3da: d0 d7        	bne	$3b3 <f256Init+0x78>
     3dc: a9 00        	lda	#$0
     3de: a6 01        	ldx	$1                      ; 0x1 <__zp_data_size+0x1>
     3e0: a0 01        	ldy	#$1
     3e2: 84 01        	sty	$1                      ; 0x1 <__zp_data_size+0x1>
     3e4: 92 16        	sta	($16)                   ; 0x16 <__rc6>
     3e6: 91 16        	sta	($16),y                 ; 0x16 <__rc6>
     3e8: c8           	iny
     3e9: 91 16        	sta	($16),y                 ; 0x16 <__rc6>
     3eb: c8           	iny
     3ec: 85 18        	sta	$18                     ; 0x18 <__rc8>
     3ee: a9 ff        	lda	#$ff
     3f0: 91 16        	sta	($16),y                 ; 0x16 <__rc6>
     3f2: 86 01        	stx	$1                      ; 0x1 <__zp_data_size+0x1>
     3f4: a5 16        	lda	$16                     ; 0x16 <__rc6>
     3f6: 18           	clc
     3f7: 69 04        	adc	#$4
     3f9: 85 16        	sta	$16                     ; 0x16 <__rc6>
     3fb: a5 17        	lda	$17                     ; 0x17 <__rc7>
     3fd: 69 00        	adc	#$0
     3ff: e6 18        	inc	$18                     ; 0x18 <__rc8>
     401: 85 17        	sta	$17                     ; 0x17 <__rc7>
     403: a5 18        	lda	$18                     ; 0x18 <__rc8>
     405: d0 d7        	bne	$3de <f256Init+0xa3>
     407: a9 00        	lda	#$0
     409: a6 01        	ldx	$1                      ; 0x1 <__zp_data_size+0x1>
     40b: a0 01        	ldy	#$1
     40d: 84 01        	sty	$1                      ; 0x1 <__zp_data_size+0x1>
     40f: 92 14        	sta	($14)                   ; 0x14 <__rc4>
     411: 91 14        	sta	($14),y                 ; 0x14 <__rc4>
     413: c8           	iny
     414: 91 14        	sta	($14),y                 ; 0x14 <__rc4>
     416: c8           	iny
     417: 85 16        	sta	$16                     ; 0x16 <__rc6>
     419: a9 ff        	lda	#$ff
     41b: 91 14        	sta	($14),y                 ; 0x14 <__rc4>
     41d: 86 01        	stx	$1                      ; 0x1 <__zp_data_size+0x1>
     41f: a5 14        	lda	$14                     ; 0x14 <__rc4>
     421: 18           	clc
     422: 69 04        	adc	#$4
     424: 85 14        	sta	$14                     ; 0x14 <__rc4>
     426: a5 15        	lda	$15                     ; 0x15 <__rc5>
     428: 69 00        	adc	#$0
     42a: e6 16        	inc	$16                     ; 0x16 <__rc6>
     42c: 85 15        	sta	$15                     ; 0x15 <__rc5>
     42e: a5 16        	lda	$16                     ; 0x16 <__rc6>
     430: d0 d7        	bne	$409 <f256Init+0xce>
     432: ad 02 d0     	lda	$d002                   ; 0xd002 <end_block9+0xb484>
     435: 29 f0        	and	#$f0
     437: 8d 02 d0     	sta	$d002                   ; 0xd002 <end_block9+0xb484>
     43a: ad 02 d0     	lda	$d002                   ; 0xd002 <end_block9+0xb484>
     43d: 29 0f        	and	#$f
     43f: 09 10        	ora	#$10
     441: 8d 02 d0     	sta	$d002                   ; 0xd002 <end_block9+0xb484>
     444: a2 02        	ldx	#$2
     446: 8e 03 d0     	stx	$d003                   ; 0xd003 <end_block9+0xb485>
     449: ad 01 d0     	lda	$d001                   ; 0xd001 <end_block9+0xb483>
     44c: 29 f9        	and	#$f9
     44e: 09 04        	ora	#$4
     450: 8d 01 d0     	sta	$d001                   ; 0xd001 <end_block9+0xb483>
     453: 64 14        	stz	$14                     ; 0x14 <__rc4>
     455: 9c 10 d0     	stz	$d010                   ; 0xd010 <end_block9+0xb492>
     458: a2 00        	ldx	#$0
     45a: 64 15        	stz	$15                     ; 0x15 <__rc5>
     45c: 86 18        	stx	$18                     ; 0x18 <__rc8>
     45e: a4 18        	ldy	$18                     ; 0x18 <__rc8>
     460: be ea 1a     	ldx	$1aea,y                 ; 0x1aea <textColors>
     463: 86 19        	stx	$19                     ; 0x19 <__rc9>
     465: be eb 1a     	ldx	$1aeb,y                 ; 0x1aeb <textColors+0x1>
     468: 86 1a        	stx	$1a                     ; 0x1a <__rc10>
     46a: be ec 1a     	ldx	$1aec,y                 ; 0x1aec <textColors+0x2>
     46d: 86 1b        	stx	$1b                     ; 0x1b <__rc11>
     46f: a6 15        	ldx	$15                     ; 0x15 <__rc5>
     471: 8e 00 de     	stx	$de00                   ; 0xde00 <end_block9+0xc282>
     474: 86 17        	stx	$17                     ; 0x17 <__rc7>
     476: 9c 01 de     	stz	$de01                   ; 0xde01 <end_block9+0xc283>
     479: a2 04        	ldx	#$4
     47b: 8e 02 de     	stx	$de02                   ; 0xde02 <end_block9+0xc284>
     47e: 86 1d        	stx	$1d                     ; 0x1d <__rc13>
     480: 9c 03 de     	stz	$de03                   ; 0xde03 <end_block9+0xc285>
     483: ad 10 de     	lda	$de10                   ; 0xde10 <end_block9+0xc292>
     486: ac 11 de     	ldy	$de11                   ; 0xde11 <end_block9+0xc293>
     489: 84 15        	sty	$15                     ; 0x15 <__rc5>
     48b: ac 12 de     	ldy	$de12                   ; 0xde12 <end_block9+0xc294>
     48e: ac 13 de     	ldy	$de13                   ; 0xde13 <end_block9+0xc295>
     491: a2 00        	ldx	#$0
     493: 18           	clc
     494: 65 14        	adc	$14                     ; 0x14 <__rc4>
     496: a8           	tay
     497: 86 1f        	stx	$1f                     ; 0x1f <__rc15>
     499: a6 17        	ldx	$17                     ; 0x17 <__rc7>
     49b: a9 d8        	lda	#$d8
     49d: 65 15        	adc	$15                     ; 0x15 <__rc5>
     49f: 84 16        	sty	$16                     ; 0x16 <__rc6>
     4a1: 85 17        	sta	$17                     ; 0x17 <__rc7>
     4a3: a5 1b        	lda	$1b                     ; 0x1b <__rc11>
     4a5: 92 16        	sta	($16)                   ; 0x16 <__rc6>
     4a7: a0 01        	ldy	#$1
     4a9: a5 1a        	lda	$1a                     ; 0x1a <__rc10>
     4ab: 91 16        	sta	($16),y                 ; 0x16 <__rc6>
     4ad: 84 1c        	sty	$1c                     ; 0x1c <__rc12>
     4af: c8           	iny
     4b0: a5 19        	lda	$19                     ; 0x19 <__rc9>
     4b2: 91 16        	sta	($16),y                 ; 0x16 <__rc6>
     4b4: 84 1e        	sty	$1e                     ; 0x1e <__rc14>
     4b6: c8           	iny
     4b7: a9 ff        	lda	#$ff
     4b9: 91 16        	sta	($16),y                 ; 0x16 <__rc6>
     4bb: 85 23        	sta	$23                     ; 0x23 <__rc19>
     4bd: 84 22        	sty	$22                     ; 0x22 <__rc18>
     4bf: 8e 00 de     	stx	$de00                   ; 0xde00 <end_block9+0xc282>
     4c2: 9c 01 de     	stz	$de01                   ; 0xde01 <end_block9+0xc283>
     4c5: a4 1d        	ldy	$1d                     ; 0x1d <__rc13>
     4c7: 8c 02 de     	sty	$de02                   ; 0xde02 <end_block9+0xc284>
     4ca: 9c 03 de     	stz	$de03                   ; 0xde03 <end_block9+0xc285>
     4cd: ad 10 de     	lda	$de10                   ; 0xde10 <end_block9+0xc292>
     4d0: 85 15        	sta	$15                     ; 0x15 <__rc5>
     4d2: ad 11 de     	lda	$de11                   ; 0xde11 <end_block9+0xc293>
     4d5: 85 16        	sta	$16                     ; 0x16 <__rc6>
     4d7: a9 40        	lda	#$40
     4d9: a4 1f        	ldy	$1f                     ; 0x1f <__rc15>
     4db: c0 01        	cpy	#$1
     4dd: 65 15        	adc	$15                     ; 0x15 <__rc5>
     4df: a8           	tay
     4e0: a9 d8        	lda	#$d8
     4e2: 65 16        	adc	$16                     ; 0x16 <__rc6>
     4e4: 85 17        	sta	$17                     ; 0x17 <__rc7>
     4e6: 84 16        	sty	$16                     ; 0x16 <__rc6>
     4e8: ad 12 de     	lda	$de12                   ; 0xde12 <end_block9+0xc294>
     4eb: ad 13 de     	lda	$de13                   ; 0xde13 <end_block9+0xc295>
     4ee: a5 1b        	lda	$1b                     ; 0x1b <__rc11>
     4f0: 92 16        	sta	($16)                   ; 0x16 <__rc6>
     4f2: a5 1a        	lda	$1a                     ; 0x1a <__rc10>
     4f4: a4 1c        	ldy	$1c                     ; 0x1c <__rc12>
     4f6: 91 16        	sta	($16),y                 ; 0x16 <__rc6>
     4f8: a5 19        	lda	$19                     ; 0x19 <__rc9>
     4fa: a4 1e        	ldy	$1e                     ; 0x1e <__rc14>
     4fc: 91 16        	sta	($16),y                 ; 0x16 <__rc6>
     4fe: a4 22        	ldy	$22                     ; 0x22 <__rc18>
     500: a5 23        	lda	$23                     ; 0x23 <__rc19>
     502: 91 16        	sta	($16),y                 ; 0x16 <__rc6>
     504: e8           	inx
     505: 86 15        	stx	$15                     ; 0x15 <__rc5>
     507: 18           	clc
     508: a5 18        	lda	$18                     ; 0x18 <__rc8>
     50a: 69 03        	adc	#$3
     50c: aa           	tax
     50d: c9 30        	cmp	#$30
     50f: f0 03        	beq	$514 <f256Init+0x1d9>
     511: 4c 5c 04     	jmp	$45c <f256Init+0x121>
     514: a6 01        	ldx	$1                      ; 0x1 <__zp_data_size+0x1>
     516: 86 18        	stx	$18                     ; 0x18 <__rc8>
     518: a2 50        	ldx	#$50
     51a: 8e 00 de     	stx	$de00                   ; 0xde00 <end_block9+0xc282>
     51d: 9c 01 de     	stz	$de01                   ; 0xde01 <end_block9+0xc283>
     520: a2 1e        	ldx	#$1e
     522: 8e 02 de     	stx	$de02                   ; 0xde02 <end_block9+0xc284>
     525: 9c 03 de     	stz	$de03                   ; 0xde03 <end_block9+0xc285>
     528: ae 10 de     	ldx	$de10                   ; 0xde10 <end_block9+0xc292>
     52b: ac 11 de     	ldy	$de11                   ; 0xde11 <end_block9+0xc293>
     52e: ad 12 de     	lda	$de12                   ; 0xde12 <end_block9+0xc294>
     531: ad 13 de     	lda	$de13                   ; 0xde13 <end_block9+0xc295>
     534: a9 02        	lda	#$2
     536: 85 01        	sta	$1                      ; 0x1 <__zp_data_size+0x1>
     538: e0 01        	cpx	#$1
     53a: 98           	tya
     53b: e9 00        	sbc	#$0
     53d: 50 02        	bvc	$541 <f256Init+0x206>
     53f: 49 80        	eor	#$80
     541: c9 00        	cmp	#$0
     543: 30 50        	bmi	$595 <f256Init+0x25a>
     545: a9 20        	lda	#$20
     547: 86 19        	stx	$19                     ; 0x19 <__rc9>
     549: 86 14        	stx	$14                     ; 0x14 <__rc4>
     54b: 84 15        	sty	$15                     ; 0x15 <__rc5>
     54d: a2 00        	ldx	#$0
     54f: 86 16        	stx	$16                     ; 0x16 <__rc6>
     551: a2 c0        	ldx	#$c0
     553: 86 17        	stx	$17                     ; 0x17 <__rc7>
     555: 80 04        	bra	$55b <f256Init+0x220>
     557: a6 15        	ldx	$15                     ; 0x15 <__rc5>
     559: f0 14        	beq	$56f <f256Init+0x234>
     55b: 92 16        	sta	($16)                   ; 0x16 <__rc6>
     55d: e6 16        	inc	$16                     ; 0x16 <__rc6>
     55f: d0 02        	bne	$563 <f256Init+0x228>
     561: e6 17        	inc	$17                     ; 0x17 <__rc7>
     563: a2 ff        	ldx	#$ff
     565: c6 14        	dec	$14                     ; 0x14 <__rc4>
     567: e4 14        	cpx	$14                     ; 0x14 <__rc4>
     569: d0 ec        	bne	$557 <f256Init+0x21c>
     56b: c6 15        	dec	$15                     ; 0x15 <__rc5>
     56d: 80 e8        	bra	$557 <f256Init+0x21c>
     56f: a6 14        	ldx	$14                     ; 0x14 <__rc4>
     571: d0 e8        	bne	$55b <f256Init+0x220>
     573: a2 03        	ldx	#$3
     575: 86 01        	stx	$1                      ; 0x1 <__zp_data_size+0x1>
     577: a6 19        	ldx	$19                     ; 0x19 <__rc9>
     579: 80 03        	bra	$57e <f256Init+0x243>
     57b: 98           	tya
     57c: f0 12        	beq	$590 <f256Init+0x255>
     57e: a9 f0        	lda	#$f0
     580: 92 12        	sta	($12)                   ; 0x12 <__rc2>
     582: e6 12        	inc	$12                     ; 0x12 <__rc2>
     584: d0 02        	bne	$588 <f256Init+0x24d>
     586: e6 13        	inc	$13                     ; 0x13 <__rc3>
     588: ca           	dex
     589: e0 ff        	cpx	#$ff
     58b: d0 ee        	bne	$57b <f256Init+0x240>
     58d: 88           	dey
     58e: 80 eb        	bra	$57b <f256Init+0x240>
     590: 8a           	txa
     591: d0 eb        	bne	$57e <f256Init+0x243>
     593: 80 04        	bra	$599 <f256Init+0x25e>
     595: a2 03        	ldx	#$3
     597: 86 01        	stx	$1                      ; 0x1 <__zp_data_size+0x1>
     599: a6 18        	ldx	$18                     ; 0x18 <__rc8>
     59b: 86 01        	stx	$1                      ; 0x1 <__zp_data_size+0x1>
     59d: 64 30        	stz	$30                     ; 0x30 <_col>
     59f: 9c 14 d0     	stz	$d014                   ; 0xd014 <end_block9+0xb496>
     5a2: 9c 15 d0     	stz	$d015                   ; 0xd015 <end_block9+0xb497>
     5a5: 64 31        	stz	$31                     ; 0x31 <_row>
     5a7: 9c 16 d0     	stz	$d016                   ; 0xd016 <end_block9+0xb498>
     5aa: 9c 17 d0     	stz	$d017                   ; 0xd017 <end_block9+0xb499>
     5ad: a2 40        	ldx	#$40
     5af: 8e 00 de     	stx	$de00                   ; 0xde00 <end_block9+0xc282>
     5b2: a2 01        	ldx	#$1
     5b4: 8e 01 de     	stx	$de01                   ; 0xde01 <end_block9+0xc283>
     5b7: a2 f0        	ldx	#$f0
     5b9: 8e 02 de     	stx	$de02                   ; 0xde02 <end_block9+0xc284>
     5bc: 9c 03 de     	stz	$de03                   ; 0xde03 <end_block9+0xc285>
     5bf: ae 10 de     	ldx	$de10                   ; 0xde10 <end_block9+0xc292>
     5c2: 86 17        	stx	$17                     ; 0x17 <__rc7>
     5c4: ae 11 de     	ldx	$de11                   ; 0xde11 <end_block9+0xc293>
     5c7: 86 12        	stx	$12                     ; 0x12 <__rc2>
     5c9: ae 12 de     	ldx	$de12                   ; 0xde12 <end_block9+0xc294>
     5cc: 86 13        	stx	$13                     ; 0x13 <__rc3>
     5ce: ae 13 de     	ldx	$de13                   ; 0xde13 <end_block9+0xc295>
     5d1: 86 14        	stx	$14                     ; 0x14 <__rc4>
     5d3: a4 12        	ldy	$12                     ; 0x12 <__rc2>
     5d5: 84 15        	sty	$15                     ; 0x15 <__rc5>
     5d7: 06 15        	asl	$15                     ; 0x15 <__rc5>
     5d9: a5 13        	lda	$13                     ; 0x13 <__rc3>
     5db: 2a           	rol
     5dc: 86 16        	stx	$16                     ; 0x16 <__rc6>
     5de: 26 16        	rol	$16                     ; 0x16 <__rc6>
     5e0: 06 15        	asl	$15                     ; 0x15 <__rc5>
     5e2: 2a           	rol
     5e3: 26 16        	rol	$16                     ; 0x16 <__rc6>
     5e5: 06 15        	asl	$15                     ; 0x15 <__rc5>
     5e7: 2a           	rol
     5e8: 26 16        	rol	$16                     ; 0x16 <__rc6>
     5ea: 85 15        	sta	$15                     ; 0x15 <__rc5>
     5ec: 8d 00 de     	sta	$de00                   ; 0xde00 <end_block9+0xc282>
     5ef: a5 16        	lda	$16                     ; 0x16 <__rc6>
     5f1: 8d 01 de     	sta	$de01                   ; 0xde01 <end_block9+0xc283>
     5f4: 9c 02 de     	stz	$de02                   ; 0xde02 <end_block9+0xc284>
     5f7: a2 20        	ldx	#$20
     5f9: 8e 03 de     	stx	$de03                   ; 0xde03 <end_block9+0xc285>
     5fc: ae 10 de     	ldx	$de10                   ; 0xde10 <end_block9+0xc292>
     5ff: 86 16        	stx	$16                     ; 0x16 <__rc6>
     601: ae 11 de     	ldx	$de11                   ; 0xde11 <end_block9+0xc293>
     604: 86 18        	stx	$18                     ; 0x18 <__rc8>
     606: ac 12 de     	ldy	$de12                   ; 0xde12 <end_block9+0xc294>
     609: ae 13 de     	ldx	$de13                   ; 0xde13 <end_block9+0xc295>
     60c: e4 14        	cpx	$14                     ; 0x14 <__rc4>
     60e: d0 14        	bne	$624 <f256Init+0x2e9>
     610: c4 13        	cpy	$13                     ; 0x13 <__rc3>
     612: d0 10        	bne	$624 <f256Init+0x2e9>
     614: a6 18        	ldx	$18                     ; 0x18 <__rc8>
     616: e4 12        	cpx	$12                     ; 0x12 <__rc2>
     618: d0 0a        	bne	$624 <f256Init+0x2e9>
     61a: a6 16        	ldx	$16                     ; 0x16 <__rc6>
     61c: e4 17        	cpx	$17                     ; 0x17 <__rc7>
     61e: d0 04        	bne	$624 <f256Init+0x2e9>
     620: a6 15        	ldx	$15                     ; 0x15 <__rc5>
     622: 80 06        	bra	$62a <f256Init+0x2ef>
     624: a6 15        	ldx	$15                     ; 0x15 <__rc5>
     626: e8           	inx
     627: d0 01        	bne	$62a <f256Init+0x2ef>
     629: 1a           	inc
     62a: 8e 00 de     	stx	$de00                   ; 0xde00 <end_block9+0xc282>
     62d: 8d 01 de     	sta	$de01                   ; 0xde01 <end_block9+0xc283>
     630: 9c 02 de     	stz	$de02                   ; 0xde02 <end_block9+0xc284>
     633: a2 20        	ldx	#$20
     635: 8e 03 de     	stx	$de03                   ; 0xde03 <end_block9+0xc285>
     638: ae 10 de     	ldx	$de10                   ; 0xde10 <end_block9+0xc292>
     63b: 86 12        	stx	$12                     ; 0x12 <__rc2>
     63d: ae 11 de     	ldx	$de11                   ; 0xde11 <end_block9+0xc293>
     640: 86 13        	stx	$13                     ; 0x13 <__rc3>
     642: ae 12 de     	ldx	$de12                   ; 0xde12 <end_block9+0xc294>
     645: 86 14        	stx	$14                     ; 0x14 <__rc4>
     647: 38           	sec
     648: a9 00        	lda	#$0
     64a: e5 12        	sbc	$12                     ; 0x12 <__rc2>
     64c: a8           	tay
     64d: a9 00        	lda	#$0
     64f: e5 13        	sbc	$13                     ; 0x13 <__rc3>
     651: 85 15        	sta	$15                     ; 0x15 <__rc5>
     653: a9 08        	lda	#$8
     655: e5 14        	sbc	$14                     ; 0x14 <__rc4>
     657: aa           	tax
     658: 38           	sec
     659: 98           	tya
     65a: 84 17        	sty	$17                     ; 0x17 <__rc7>
     65c: e5 12        	sbc	$12                     ; 0x12 <__rc2>
     65e: 85 16        	sta	$16                     ; 0x16 <__rc6>
     660: a5 15        	lda	$15                     ; 0x15 <__rc5>
     662: e5 13        	sbc	$13                     ; 0x13 <__rc3>
     664: 85 18        	sta	$18                     ; 0x18 <__rc8>
     666: 8a           	txa
     667: 86 19        	stx	$19                     ; 0x19 <__rc9>
     669: e5 14        	sbc	$14                     ; 0x14 <__rc4>
     66b: a8           	tay
     66c: 38           	sec
     66d: a5 16        	lda	$16                     ; 0x16 <__rc6>
     66f: e5 12        	sbc	$12                     ; 0x12 <__rc2>
     671: 85 12        	sta	$12                     ; 0x12 <__rc2>
     673: a5 18        	lda	$18                     ; 0x18 <__rc8>
     675: e5 13        	sbc	$13                     ; 0x13 <__rc3>
     677: 85 13        	sta	$13                     ; 0x13 <__rc3>
     679: 98           	tya
     67a: e5 14        	sbc	$14                     ; 0x14 <__rc4>
     67c: ae 13 de     	ldx	$de13                   ; 0xde13 <end_block9+0xc295>
     67f: a6 17        	ldx	$17                     ; 0x17 <__rc7>
     681: 8e 01 d1     	stx	$d101                   ; 0xd101 <end_block9+0xb583>
     684: a6 15        	ldx	$15                     ; 0x15 <__rc5>
     686: 8e 02 d1     	stx	$d102                   ; 0xd102 <end_block9+0xb584>
     689: a6 19        	ldx	$19                     ; 0x19 <__rc9>
     68b: 8e 03 d1     	stx	$d103                   ; 0xd103 <end_block9+0xb585>
     68e: a6 16        	ldx	$16                     ; 0x16 <__rc6>
     690: 8e 09 d1     	stx	$d109                   ; 0xd109 <end_block9+0xb58b>
     693: a6 18        	ldx	$18                     ; 0x18 <__rc8>
     695: 8e 0a d1     	stx	$d10a                   ; 0xd10a <end_block9+0xb58c>
     698: 8c 0b d1     	sty	$d10b                   ; 0xd10b <end_block9+0xb58d>
     69b: a6 12        	ldx	$12                     ; 0x12 <__rc2>
     69d: 8e 11 d1     	stx	$d111                   ; 0xd111 <end_block9+0xb593>
     6a0: a6 13        	ldx	$13                     ; 0x13 <__rc3>
     6a2: 8e 12 d1     	stx	$d112                   ; 0xd112 <end_block9+0xb594>
     6a5: 8d 13 d1     	sta	$d113                   ; 0xd113 <end_block9+0xb595>
     6a8: 9c 00 d1     	stz	$d100                   ; 0xd100 <end_block9+0xb582>
     6ab: 9c 08 d1     	stz	$d108                   ; 0xd108 <end_block9+0xb58a>
     6ae: 9c 10 d1     	stz	$d110                   ; 0xd110 <end_block9+0xb592>
     6b1: a2 10        	ldx	#$10
     6b3: 8e 00 d2     	stx	$d200                   ; 0xd200 <end_block9+0xb682>
     6b6: 8e 0c d2     	stx	$d20c                   ; 0xd20c <end_block9+0xb68e>
     6b9: 8e 18 d2     	stx	$d218                   ; 0xd218 <end_block9+0xb69a>
     6bc: a0 d9        	ldy	#$d9
     6be: a2 40        	ldx	#$40
     6c0: 64 12        	stz	$12                     ; 0x12 <__rc2>
     6c2: 84 13        	sty	$13                     ; 0x13 <__rc3>
     6c4: a9 00        	lda	#$0
     6c6: 92 12        	sta	($12)                   ; 0x12 <__rc2>
     6c8: ca           	dex
     6c9: 18           	clc
     6ca: a5 12        	lda	$12                     ; 0x12 <__rc2>
     6cc: 69 08        	adc	#$8
     6ce: 85 12        	sta	$12                     ; 0x12 <__rc2>
     6d0: 98           	tya
     6d1: 69 00        	adc	#$0
     6d3: a8           	tay
     6d4: 8a           	txa
     6d5: d0 eb        	bne	$6c2 <f256Init+0x387>
     6d7: a2 34        	ldx	#$34
     6d9: a0 00        	ldy	#$0
     6db: 86 fb        	stx	$fb                     ; 0xfb <__rc31+0xcc>
     6dd: 84 fc        	sty	$fc                     ; 0xfc <__rc31+0xcd>
     6df: a2 08        	ldx	#$8
     6e1: 86 fd        	stx	$fd                     ; 0xfd <__rc31+0xce>
     6e3: a2 3c        	ldx	#$3c
     6e5: a0 00        	ldy	#$0
     6e7: 86 12        	stx	$12                     ; 0x12 <__rc2>
     6e9: 84 13        	sty	$13                     ; 0x13 <__rc3>
     6eb: a2 7d        	ldx	#$7d
     6ed: 86 14        	stx	$14                     ; 0x14 <__rc4>
     6ef: a2 1b        	ldx	#$1b
     6f1: 86 15        	stx	$15                     ; 0x15 <__rc5>
     6f3: 20 dc ff     	jsr	$ffdc <end_block9+0xe45e>
     6f6: 92 12        	sta	($12)                   ; 0x12 <__rc2>
     6f8: a9 00        	lda	#$0
     6fa: 6a           	ror
     6fb: 85 14        	sta	$14                     ; 0x14 <__rc4>
     6fd: a6 3a        	ldx	$3a                     ; 0x3a <__rc31+0xb>
     6ff: a4 3b        	ldy	$3b                     ; 0x3b <__rc31+0xc>
     701: 8e 00 de     	stx	$de00                   ; 0xde00 <end_block9+0xc282>
     704: 9c 01 de     	stz	$de01                   ; 0xde01 <end_block9+0xc283>
     707: 8c 02 de     	sty	$de02                   ; 0xde02 <end_block9+0xc284>
     70a: 9c 03 de     	stz	$de03                   ; 0xde03 <end_block9+0xc285>
     70d: ae 10 de     	ldx	$de10                   ; 0xde10 <end_block9+0xc292>
     710: ac 11 de     	ldy	$de11                   ; 0xde11 <end_block9+0xc293>
     713: ad 12 de     	lda	$de12                   ; 0xde12 <end_block9+0xc294>
     716: ad 13 de     	lda	$de13                   ; 0xde13 <end_block9+0xc295>
     719: 8e a4 d6     	stx	$d6a4                   ; 0xd6a4 <end_block9+0xbb26>
     71c: 8c a5 d6     	sty	$d6a5                   ; 0xd6a5 <end_block9+0xbb27>
     71f: a2 03        	ldx	#$3
     721: 8e a6 d6     	stx	$d6a6                   ; 0xd6a6 <end_block9+0xbb28>
     724: 60           	rts

00000725 <main>:
     725: 20 3b 03     	jsr	$33b <f256Init>
     728: 20 2b 07     	jsr	$72b <f256main>

0000072b <f256main>:
     72b: 18           	clc
     72c: a5 10        	lda	$10                     ; 0x10 <__rc0>
     72e: 69 fe        	adc	#$fe
     730: 85 10        	sta	$10                     ; 0x10 <__rc0>
     732: a5 11        	lda	$11                     ; 0x11 <__rc1>
     734: 69 ff        	adc	#$ff
     736: 85 11        	sta	$11                     ; 0x11 <__rc1>
     738: 64 01        	stz	$1                      ; 0x1 <__zp_data_size+0x1>
     73a: a0 01        	ldy	#$1
     73c: 64 24        	stz	$24                     ; 0x24 <__rc20>
     73e: 64 30        	stz	$30                     ; 0x30 <_col>
     740: 9c 14 d0     	stz	$d014                   ; 0xd014 <end_block9+0xb496>
     743: 9c 15 d0     	stz	$d015                   ; 0xd015 <end_block9+0xb497>
     746: 64 31        	stz	$31                     ; 0x31 <_row>
     748: 9c 16 d0     	stz	$d016                   ; 0xd016 <end_block9+0xb498>
     74b: 9c 17 d0     	stz	$d017                   ; 0xd017 <end_block9+0xb499>
     74e: a5 24        	lda	$24                     ; 0x24 <__rc20>
     750: 92 10        	sta	($10)                   ; 0x10 <__rc0>
     752: a9 00        	lda	#$0
     754: 91 10        	sta	($10),y                 ; 0x10 <__rc0>
     756: a2 71        	ldx	#$71
     758: 86 12        	stx	$12                     ; 0x12 <__rc2>
     75a: a2 1b        	ldx	#$1b
     75c: 86 13        	stx	$13                     ; 0x13 <__rc3>
     75e: 84 25        	sty	$25                     ; 0x25 <__rc21>
     760: 20 24 0d     	jsr	$d24 <printf>
     763: a2 81        	ldx	#$81
     765: 8e 80 d8     	stx	$d880                   ; 0xd880 <end_block9+0xbd02>
     768: ea           	nop
     769: ea           	nop
     76a: a6 25        	ldx	$25                     ; 0x25 <__rc21>
     76c: 8e 80 d8     	stx	$d880                   ; 0xd880 <end_block9+0xbd02>
     76f: ad 80 d8     	lda	$d880                   ; 0xd880 <end_block9+0xbd02>
     772: 29 40        	and	#$40
     774: f0 f9        	beq	$76f <f256main+0x44>
     776: a2 0a        	ldx	#$a
     778: 86 30        	stx	$30                     ; 0x30 <_col>
     77a: 8e 14 d0     	stx	$d014                   ; 0xd014 <end_block9+0xb496>
     77d: 86 25        	stx	$25                     ; 0x25 <__rc21>
     77f: 9c 15 d0     	stz	$d015                   ; 0xd015 <end_block9+0xb497>
     782: a2 04        	ldx	#$4
     784: 86 31        	stx	$31                     ; 0x31 <_row>
     786: 8e 16 d0     	stx	$d016                   ; 0xd016 <end_block9+0xb498>
     789: 9c 17 d0     	stz	$d017                   ; 0xd017 <end_block9+0xb499>
     78c: a2 57        	ldx	#$57
     78e: 86 12        	stx	$12                     ; 0x12 <__rc2>
     790: a2 1b        	ldx	#$1b
     792: 86 13        	stx	$13                     ; 0x13 <__rc3>
     794: 20 2c 09     	jsr	$92c <textPrint>
     797: a6 25        	ldx	$25                     ; 0x25 <__rc21>
     799: 86 30        	stx	$30                     ; 0x30 <_col>
     79b: 8e 14 d0     	stx	$d014                   ; 0xd014 <end_block9+0xb496>
     79e: 86 27        	stx	$27                     ; 0x27 <__rc23>
     7a0: 9c 15 d0     	stz	$d015                   ; 0xd015 <end_block9+0xb497>
     7a3: a2 05        	ldx	#$5
     7a5: 86 31        	stx	$31                     ; 0x31 <_row>
     7a7: 8e 16 d0     	stx	$d016                   ; 0xd016 <end_block9+0xb498>
     7aa: 86 25        	stx	$25                     ; 0x25 <__rc21>
     7ac: 9c 17 d0     	stz	$d017                   ; 0xd017 <end_block9+0xb499>
     7af: ad 84 d8     	lda	$d884                   ; 0xd884 <end_block9+0xbd06>
     7b2: 92 10        	sta	($10)                   ; 0x10 <__rc0>
     7b4: a9 00        	lda	#$0
     7b6: a0 01        	ldy	#$1
     7b8: 91 10        	sta	($10),y                 ; 0x10 <__rc0>
     7ba: 84 26        	sty	$26                     ; 0x26 <__rc22>
     7bc: a2 1a        	ldx	#$1a
     7be: 86 12        	stx	$12                     ; 0x12 <__rc2>
     7c0: a2 1b        	ldx	#$1b
     7c2: 86 13        	stx	$13                     ; 0x13 <__rc3>
     7c4: 20 24 0d     	jsr	$d24 <printf>
     7c7: a6 27        	ldx	$27                     ; 0x27 <__rc23>
     7c9: 86 30        	stx	$30                     ; 0x30 <_col>
     7cb: 8e 14 d0     	stx	$d014                   ; 0xd014 <end_block9+0xb496>
     7ce: 9c 15 d0     	stz	$d015                   ; 0xd015 <end_block9+0xb497>
     7d1: a2 06        	ldx	#$6
     7d3: 86 31        	stx	$31                     ; 0x31 <_row>
     7d5: 8e 16 d0     	stx	$d016                   ; 0xd016 <end_block9+0xb498>
     7d8: 9c 17 d0     	stz	$d017                   ; 0xd017 <end_block9+0xb499>
     7db: ad 86 d8     	lda	$d886                   ; 0xd886 <end_block9+0xbd08>
     7de: 92 10        	sta	($10)                   ; 0x10 <__rc0>
     7e0: a4 26        	ldy	$26                     ; 0x26 <__rc22>
     7e2: a9 00        	lda	#$0
     7e4: 91 10        	sta	($10),y                 ; 0x10 <__rc0>
     7e6: a2 46        	ldx	#$46
     7e8: 86 12        	stx	$12                     ; 0x12 <__rc2>
     7ea: a2 1b        	ldx	#$1b
     7ec: 86 13        	stx	$13                     ; 0x13 <__rc3>
     7ee: 20 24 0d     	jsr	$d24 <printf>
     7f1: a6 27        	ldx	$27                     ; 0x27 <__rc23>
     7f3: 86 30        	stx	$30                     ; 0x30 <_col>
     7f5: 8e 14 d0     	stx	$d014                   ; 0xd014 <end_block9+0xb496>
     7f8: 9c 15 d0     	stz	$d015                   ; 0xd015 <end_block9+0xb497>
     7fb: a2 07        	ldx	#$7
     7fd: 86 31        	stx	$31                     ; 0x31 <_row>
     7ff: 8e 16 d0     	stx	$d016                   ; 0xd016 <end_block9+0xb498>
     802: 9c 17 d0     	stz	$d017                   ; 0xd017 <end_block9+0xb499>
     805: ad 88 d8     	lda	$d888                   ; 0xd888 <end_block9+0xbd0a>
     808: 92 10        	sta	($10)                   ; 0x10 <__rc0>
     80a: a4 26        	ldy	$26                     ; 0x26 <__rc22>
     80c: a9 00        	lda	#$0
     80e: 91 10        	sta	($10),y                 ; 0x10 <__rc0>
     810: a2 35        	ldx	#$35
     812: 86 12        	stx	$12                     ; 0x12 <__rc2>
     814: a2 1b        	ldx	#$1b
     816: 86 13        	stx	$13                     ; 0x13 <__rc3>
     818: 20 24 0d     	jsr	$d24 <printf>
     81b: a6 27        	ldx	$27                     ; 0x27 <__rc23>
     81d: 86 30        	stx	$30                     ; 0x30 <_col>
     81f: 8e 14 d0     	stx	$d014                   ; 0xd014 <end_block9+0xb496>
     822: 9c 15 d0     	stz	$d015                   ; 0xd015 <end_block9+0xb497>
     825: a2 08        	ldx	#$8
     827: 86 31        	stx	$31                     ; 0x31 <_row>
     829: 8e 16 d0     	stx	$d016                   ; 0xd016 <end_block9+0xb498>
     82c: 9c 17 d0     	stz	$d017                   ; 0xd017 <end_block9+0xb499>
     82f: ad 8a d8     	lda	$d88a                   ; 0xd88a <end_block9+0xbd0c>
     832: 92 10        	sta	($10)                   ; 0x10 <__rc0>
     834: a4 26        	ldy	$26                     ; 0x26 <__rc22>
     836: a9 00        	lda	#$0
     838: 91 10        	sta	($10),y                 ; 0x10 <__rc0>
     83a: a2 60        	ldx	#$60
     83c: 86 12        	stx	$12                     ; 0x12 <__rc2>
     83e: a2 1b        	ldx	#$1b
     840: 86 13        	stx	$13                     ; 0x13 <__rc3>
     842: 20 24 0d     	jsr	$d24 <printf>
     845: a2 85        	ldx	#$85
     847: 8e 80 d8     	stx	$d880                   ; 0xd880 <end_block9+0xbd02>
     84a: ea           	nop
     84b: ea           	nop
     84c: a6 25        	ldx	$25                     ; 0x25 <__rc21>
     84e: 8e 80 d8     	stx	$d880                   ; 0xd880 <end_block9+0xbd02>
     851: ad 80 d8     	lda	$d880                   ; 0xd880 <end_block9+0xbd02>
     854: 29 40        	and	#$40
     856: f0 f9        	beq	$851 <f256main+0x126>
     858: e6 24        	inc	$24                     ; 0x24 <__rc20>
     85a: a2 1e        	ldx	#$1e
     85c: 86 30        	stx	$30                     ; 0x30 <_col>
     85e: 8e 14 d0     	stx	$d014                   ; 0xd014 <end_block9+0xb496>
     861: 86 25        	stx	$25                     ; 0x25 <__rc21>
     863: 9c 15 d0     	stz	$d015                   ; 0xd015 <end_block9+0xb497>
     866: a2 04        	ldx	#$4
     868: 86 31        	stx	$31                     ; 0x31 <_row>
     86a: 8e 16 d0     	stx	$d016                   ; 0xd016 <end_block9+0xb498>
     86d: 9c 17 d0     	stz	$d017                   ; 0xd017 <end_block9+0xb499>
     870: a2 2b        	ldx	#$2b
     872: 86 12        	stx	$12                     ; 0x12 <__rc2>
     874: a2 1b        	ldx	#$1b
     876: 86 13        	stx	$13                     ; 0x13 <__rc3>
     878: 20 2c 09     	jsr	$92c <textPrint>
     87b: a6 25        	ldx	$25                     ; 0x25 <__rc21>
     87d: 86 30        	stx	$30                     ; 0x30 <_col>
     87f: 8e 14 d0     	stx	$d014                   ; 0xd014 <end_block9+0xb496>
     882: 86 26        	stx	$26                     ; 0x26 <__rc22>
     884: 9c 15 d0     	stz	$d015                   ; 0xd015 <end_block9+0xb497>
     887: a2 05        	ldx	#$5
     889: 86 31        	stx	$31                     ; 0x31 <_row>
     88b: 8e 16 d0     	stx	$d016                   ; 0xd016 <end_block9+0xb498>
     88e: 9c 17 d0     	stz	$d017                   ; 0xd017 <end_block9+0xb499>
     891: ad 84 d8     	lda	$d884                   ; 0xd884 <end_block9+0xbd06>
     894: 92 10        	sta	($10)                   ; 0x10 <__rc0>
     896: a9 00        	lda	#$0
     898: a0 01        	ldy	#$1
     89a: 91 10        	sta	($10),y                 ; 0x10 <__rc0>
     89c: 84 25        	sty	$25                     ; 0x25 <__rc21>
     89e: a2 1a        	ldx	#$1a
     8a0: 86 12        	stx	$12                     ; 0x12 <__rc2>
     8a2: a2 1b        	ldx	#$1b
     8a4: 86 13        	stx	$13                     ; 0x13 <__rc3>
     8a6: 20 24 0d     	jsr	$d24 <printf>
     8a9: a6 26        	ldx	$26                     ; 0x26 <__rc22>
     8ab: 86 30        	stx	$30                     ; 0x30 <_col>
     8ad: 8e 14 d0     	stx	$d014                   ; 0xd014 <end_block9+0xb496>
     8b0: 9c 15 d0     	stz	$d015                   ; 0xd015 <end_block9+0xb497>
     8b3: a2 06        	ldx	#$6
     8b5: 86 31        	stx	$31                     ; 0x31 <_row>
     8b7: 8e 16 d0     	stx	$d016                   ; 0xd016 <end_block9+0xb498>
     8ba: 9c 17 d0     	stz	$d017                   ; 0xd017 <end_block9+0xb499>
     8bd: ad 86 d8     	lda	$d886                   ; 0xd886 <end_block9+0xbd08>
     8c0: 92 10        	sta	($10)                   ; 0x10 <__rc0>
     8c2: a4 25        	ldy	$25                     ; 0x25 <__rc21>
     8c4: a9 00        	lda	#$0
     8c6: 91 10        	sta	($10),y                 ; 0x10 <__rc0>
     8c8: a2 46        	ldx	#$46
     8ca: 86 12        	stx	$12                     ; 0x12 <__rc2>
     8cc: a2 1b        	ldx	#$1b
     8ce: 86 13        	stx	$13                     ; 0x13 <__rc3>
     8d0: 20 24 0d     	jsr	$d24 <printf>
     8d3: a6 26        	ldx	$26                     ; 0x26 <__rc22>
     8d5: 86 30        	stx	$30                     ; 0x30 <_col>
     8d7: 8e 14 d0     	stx	$d014                   ; 0xd014 <end_block9+0xb496>
     8da: 9c 15 d0     	stz	$d015                   ; 0xd015 <end_block9+0xb497>
     8dd: a2 07        	ldx	#$7
     8df: 86 31        	stx	$31                     ; 0x31 <_row>
     8e1: 8e 16 d0     	stx	$d016                   ; 0xd016 <end_block9+0xb498>
     8e4: 9c 17 d0     	stz	$d017                   ; 0xd017 <end_block9+0xb499>
     8e7: ad 88 d8     	lda	$d888                   ; 0xd888 <end_block9+0xbd0a>
     8ea: 92 10        	sta	($10)                   ; 0x10 <__rc0>
     8ec: a4 25        	ldy	$25                     ; 0x25 <__rc21>
     8ee: a9 00        	lda	#$0
     8f0: 91 10        	sta	($10),y                 ; 0x10 <__rc0>
     8f2: a2 35        	ldx	#$35
     8f4: 86 12        	stx	$12                     ; 0x12 <__rc2>
     8f6: a2 1b        	ldx	#$1b
     8f8: 86 13        	stx	$13                     ; 0x13 <__rc3>
     8fa: 20 24 0d     	jsr	$d24 <printf>
     8fd: a6 26        	ldx	$26                     ; 0x26 <__rc22>
     8ff: 86 30        	stx	$30                     ; 0x30 <_col>
     901: 8e 14 d0     	stx	$d014                   ; 0xd014 <end_block9+0xb496>
     904: 9c 15 d0     	stz	$d015                   ; 0xd015 <end_block9+0xb497>
     907: a2 08        	ldx	#$8
     909: 86 31        	stx	$31                     ; 0x31 <_row>
     90b: 8e 16 d0     	stx	$d016                   ; 0xd016 <end_block9+0xb498>
     90e: 9c 17 d0     	stz	$d017                   ; 0xd017 <end_block9+0xb499>
     911: ad 8a d8     	lda	$d88a                   ; 0xd88a <end_block9+0xbd0c>
     914: 92 10        	sta	($10)                   ; 0x10 <__rc0>
     916: a4 25        	ldy	$25                     ; 0x25 <__rc21>
     918: a9 00        	lda	#$0
     91a: 91 10        	sta	($10),y                 ; 0x10 <__rc0>
     91c: a2 60        	ldx	#$60
     91e: 86 12        	stx	$12                     ; 0x12 <__rc2>
     920: a2 1b        	ldx	#$1b
     922: 86 13        	stx	$13                     ; 0x13 <__rc3>
     924: 20 24 0d     	jsr	$d24 <printf>
     927: a4 25        	ldy	$25                     ; 0x25 <__rc21>
     929: 4c 3e 07     	jmp	$73e <f256main+0x13>

0000092c <textPrint>:
     92c: a6 01        	ldx	$1                      ; 0x1 <__zp_data_size+0x1>
     92e: 86 8c        	stx	$8c                     ; 0x8c <__rc31+0x5d>
     930: a6 31        	ldx	$31                     ; 0x31 <_row>
     932: a0 50        	ldy	#$50
     934: 8c 00 de     	sty	$de00                   ; 0xde00 <end_block9+0xc282>
     937: 9c 01 de     	stz	$de01                   ; 0xde01 <end_block9+0xc283>
     93a: 8e 02 de     	stx	$de02                   ; 0xde02 <end_block9+0xc284>
     93d: 9c 03 de     	stz	$de03                   ; 0xde03 <end_block9+0xc285>
     940: ae 10 de     	ldx	$de10                   ; 0xde10 <end_block9+0xc292>
     943: ad 11 de     	lda	$de11                   ; 0xde11 <end_block9+0xc293>
     946: 85 15        	sta	$15                     ; 0x15 <__rc5>
     948: ad 12 de     	lda	$de12                   ; 0xde12 <end_block9+0xc294>
     94b: 85 1c        	sta	$1c                     ; 0x1c <__rc12>
     94d: ad 13 de     	lda	$de13                   ; 0xde13 <end_block9+0xc295>
     950: 85 1d        	sta	$1d                     ; 0x1d <__rc13>
     952: 9c 08 de     	stz	$de08                   ; 0xde08 <end_block9+0xc28a>
     955: a9 c0        	lda	#$c0
     957: 8d 09 de     	sta	$de09                   ; 0xde09 <end_block9+0xc28b>
     95a: 9c 0a de     	stz	$de0a                   ; 0xde0a <end_block9+0xc28c>
     95d: 9c 0b de     	stz	$de0b                   ; 0xde0b <end_block9+0xc28d>
     960: 8e 0c de     	stx	$de0c                   ; 0xde0c <end_block9+0xc28e>
     963: 64 14        	stz	$14                     ; 0x14 <__rc4>
     965: a2 00        	ldx	#$0
     967: 86 16        	stx	$16                     ; 0x16 <__rc6>
     969: a2 c0        	ldx	#$c0
     96b: 86 17        	stx	$17                     ; 0x17 <__rc7>
     96d: a2 11        	ldx	#$11
     96f: 86 18        	stx	$18                     ; 0x18 <__rc8>
     971: a2 c9        	ldx	#$c9
     973: 86 19        	stx	$19                     ; 0x19 <__rc9>
     975: a2 10        	ldx	#$10
     977: 86 1a        	stx	$1a                     ; 0x1a <__rc10>
     979: a2 c9        	ldx	#$c9
     97b: 86 1b        	stx	$1b                     ; 0x1b <__rc11>
     97d: a6 15        	ldx	$15                     ; 0x15 <__rc5>
     97f: 8e 0d de     	stx	$de0d                   ; 0xde0d <end_block9+0xc28f>
     982: a6 1c        	ldx	$1c                     ; 0x1c <__rc12>
     984: 8e 0e de     	stx	$de0e                   ; 0xde0e <end_block9+0xc290>
     987: a6 1d        	ldx	$1d                     ; 0x1d <__rc13>
     989: 8e 0f de     	stx	$de0f                   ; 0xde0f <end_block9+0xc291>
     98c: ae 18 de     	ldx	$de18                   ; 0xde18 <end_block9+0xc29a>
     98f: 86 1c        	stx	$1c                     ; 0x1c <__rc12>
     991: ad 19 de     	lda	$de19                   ; 0xde19 <end_block9+0xc29b>
     994: ae 1a de     	ldx	$de1a                   ; 0xde1a <end_block9+0xc29c>
     997: ae 1b de     	ldx	$de1b                   ; 0xde1b <end_block9+0xc29d>
     99a: 85 1d        	sta	$1d                     ; 0x1d <__rc13>
     99c: 64 15        	stz	$15                     ; 0x15 <__rc5>
     99e: a2 f0        	ldx	#$f0
     9a0: 86 8e        	stx	$8e                     ; 0x8e <__rc31+0x5f>
     9a2: a2 20        	ldx	#$20
     9a4: 86 8f        	stx	$8f                     ; 0x8f <__rc31+0x60>
     9a6: 4c b7 0a     	jmp	$ab7 <textPrint+0x18b>
     9a9: 8a           	txa
     9aa: f0 15        	beq	$9c1 <textPrint+0x95>
     9ac: b1 1c        	lda	($1c),y                 ; 0x1c <__rc12>
     9ae: 92 1c        	sta	($1c)                   ; 0x1c <__rc12>
     9b0: a9 ff        	lda	#$ff
     9b2: c6 1e        	dec	$1e                     ; 0x1e <__rc14>
     9b4: c5 1e        	cmp	$1e                     ; 0x1e <__rc14>
     9b6: d0 01        	bne	$9b9 <textPrint+0x8d>
     9b8: ca           	dex
     9b9: e6 1c        	inc	$1c                     ; 0x1c <__rc12>
     9bb: d0 ec        	bne	$9a9 <textPrint+0x7d>
     9bd: e6 1d        	inc	$1d                     ; 0x1d <__rc13>
     9bf: 80 e8        	bra	$9a9 <textPrint+0x7d>
     9c1: a5 1e        	lda	$1e                     ; 0x1e <__rc14>
     9c3: d0 e7        	bne	$9ac <textPrint+0x80>
     9c5: a2 02        	ldx	#$2
     9c7: 86 01        	stx	$1                      ; 0x1 <__zp_data_size+0x1>
     9c9: a2 09        	ldx	#$9
     9cb: a9 10        	lda	#$10
     9cd: 5a           	phy
     9ce: a0 00        	ldy	#$0
     9d0: 84 1c        	sty	$1c                     ; 0x1c <__rc12>
     9d2: a0 c0        	ldy	#$c0
     9d4: 84 1d        	sty	$1d                     ; 0x1d <__rc13>
     9d6: 7a           	ply
     9d7: 85 1e        	sta	$1e                     ; 0x1e <__rc14>
     9d9: 80 03        	bra	$9de <textPrint+0xb2>
     9db: 8a           	txa
     9dc: f0 15        	beq	$9f3 <textPrint+0xc7>
     9de: b1 1c        	lda	($1c),y                 ; 0x1c <__rc12>
     9e0: 92 1c        	sta	($1c)                   ; 0x1c <__rc12>
     9e2: a9 ff        	lda	#$ff
     9e4: c6 1e        	dec	$1e                     ; 0x1e <__rc14>
     9e6: c5 1e        	cmp	$1e                     ; 0x1e <__rc14>
     9e8: d0 01        	bne	$9eb <textPrint+0xbf>
     9ea: ca           	dex
     9eb: e6 1c        	inc	$1c                     ; 0x1c <__rc12>
     9ed: d0 ec        	bne	$9db <textPrint+0xaf>
     9ef: e6 1d        	inc	$1d                     ; 0x1d <__rc13>
     9f1: 80 e8        	bra	$9db <textPrint+0xaf>
     9f3: a5 1e        	lda	$1e                     ; 0x1e <__rc14>
     9f5: d0 e7        	bne	$9de <textPrint+0xb2>
     9f7: a2 50        	ldx	#$50
     9f9: 86 8d        	stx	$8d                     ; 0x8d <__rc31+0x5e>
     9fb: a2 02        	ldx	#$2
     9fd: 86 01        	stx	$1                      ; 0x1 <__zp_data_size+0x1>
     9ff: e8           	inx
     a00: 86 01        	stx	$1                      ; 0x1 <__zp_data_size+0x1>
     a02: a2 50        	ldx	#$50
     a04: a0 11        	ldy	#$11
     a06: 84 1c        	sty	$1c                     ; 0x1c <__rc12>
     a08: a0 c9        	ldy	#$c9
     a0a: 84 1d        	sty	$1d                     ; 0x1d <__rc13>
     a0c: a0 10        	ldy	#$10
     a0e: 84 1e        	sty	$1e                     ; 0x1e <__rc14>
     a10: a0 c9        	ldy	#$c9
     a12: 84 1f        	sty	$1f                     ; 0x1f <__rc15>
     a14: a5 8e        	lda	$8e                     ; 0x8e <__rc31+0x5f>
     a16: a4 1e        	ldy	$1e                     ; 0x1e <__rc14>
     a18: 84 22        	sty	$22                     ; 0x22 <__rc18>
     a1a: a4 1f        	ldy	$1f                     ; 0x1f <__rc15>
     a1c: 84 23        	sty	$23                     ; 0x23 <__rc19>
     a1e: a4 1c        	ldy	$1c                     ; 0x1c <__rc12>
     a20: 84 1e        	sty	$1e                     ; 0x1e <__rc14>
     a22: a4 1d        	ldy	$1d                     ; 0x1d <__rc13>
     a24: 84 1f        	sty	$1f                     ; 0x1f <__rc15>
     a26: 92 22        	sta	($22)                   ; 0x22 <__rc18>
     a28: e6 1c        	inc	$1c                     ; 0x1c <__rc12>
     a2a: d0 02        	bne	$a2e <textPrint+0x102>
     a2c: e6 1d        	inc	$1d                     ; 0x1d <__rc13>
     a2e: ca           	dex
     a2f: d0 e5        	bne	$a16 <textPrint+0xea>
     a31: a2 f0        	ldx	#$f0
     a33: 86 8e        	stx	$8e                     ; 0x8e <__rc31+0x5f>
     a35: a2 02        	ldx	#$2
     a37: 86 01        	stx	$1                      ; 0x1 <__zp_data_size+0x1>
     a39: a2 50        	ldx	#$50
     a3b: a0 11        	ldy	#$11
     a3d: 84 1c        	sty	$1c                     ; 0x1c <__rc12>
     a3f: a0 c9        	ldy	#$c9
     a41: 84 1d        	sty	$1d                     ; 0x1d <__rc13>
     a43: a0 10        	ldy	#$10
     a45: 84 1e        	sty	$1e                     ; 0x1e <__rc14>
     a47: a0 c9        	ldy	#$c9
     a49: 84 1f        	sty	$1f                     ; 0x1f <__rc15>
     a4b: a5 8f        	lda	$8f                     ; 0x8f <__rc31+0x60>
     a4d: a4 1e        	ldy	$1e                     ; 0x1e <__rc14>
     a4f: 84 22        	sty	$22                     ; 0x22 <__rc18>
     a51: a4 1f        	ldy	$1f                     ; 0x1f <__rc15>
     a53: 84 23        	sty	$23                     ; 0x23 <__rc19>
     a55: a4 1c        	ldy	$1c                     ; 0x1c <__rc12>
     a57: 84 1e        	sty	$1e                     ; 0x1e <__rc14>
     a59: a4 1d        	ldy	$1d                     ; 0x1d <__rc13>
     a5b: 84 1f        	sty	$1f                     ; 0x1f <__rc15>
     a5d: 92 22        	sta	($22)                   ; 0x22 <__rc18>
     a5f: e6 1c        	inc	$1c                     ; 0x1c <__rc12>
     a61: d0 02        	bne	$a65 <textPrint+0x139>
     a63: e6 1d        	inc	$1d                     ; 0x1d <__rc13>
     a65: ca           	dex
     a66: d0 e5        	bne	$a4d <textPrint+0x121>
     a68: a2 20        	ldx	#$20
     a6a: 86 8f        	stx	$8f                     ; 0x8f <__rc31+0x60>
     a6c: c6 31        	dec	$31                     ; 0x31 <_row>
     a6e: 9c 08 de     	stz	$de08                   ; 0xde08 <end_block9+0xc28a>
     a71: a2 c0        	ldx	#$c0
     a73: 8e 09 de     	stx	$de09                   ; 0xde09 <end_block9+0xc28b>
     a76: 9c 0a de     	stz	$de0a                   ; 0xde0a <end_block9+0xc28c>
     a79: 9c 0b de     	stz	$de0b                   ; 0xde0b <end_block9+0xc28d>
     a7c: a2 1d        	ldx	#$1d
     a7e: 8e 0c de     	stx	$de0c                   ; 0xde0c <end_block9+0xc28e>
     a81: 9c 0d de     	stz	$de0d                   ; 0xde0d <end_block9+0xc28f>
     a84: 9c 0e de     	stz	$de0e                   ; 0xde0e <end_block9+0xc290>
     a87: 9c 0f de     	stz	$de0f                   ; 0xde0f <end_block9+0xc291>
     a8a: ae 18 de     	ldx	$de18                   ; 0xde18 <end_block9+0xc29a>
     a8d: ac 19 de     	ldy	$de19                   ; 0xde19 <end_block9+0xc29b>
     a90: ad 1a de     	lda	$de1a                   ; 0xde1a <end_block9+0xc29c>
     a93: ad 1b de     	lda	$de1b                   ; 0xde1b <end_block9+0xc29d>
     a96: 86 1c        	stx	$1c                     ; 0x1c <__rc12>
     a98: 84 1d        	sty	$1d                     ; 0x1d <__rc13>
     a9a: a4 8d        	ldy	$8d                     ; 0x8d <__rc31+0x5e>
     a9c: e6 14        	inc	$14                     ; 0x14 <__rc4>
     a9e: d0 02        	bne	$aa2 <textPrint+0x176>
     aa0: e6 15        	inc	$15                     ; 0x15 <__rc5>
     aa2: 80 13        	bra	$ab7 <textPrint+0x18b>
     aa4: a5 1c        	lda	$1c                     ; 0x1c <__rc12>
     aa6: 18           	clc
     aa7: 69 50        	adc	#$50
     aa9: 85 1c        	sta	$1c                     ; 0x1c <__rc12>
     aab: a5 1d        	lda	$1d                     ; 0x1d <__rc13>
     aad: 69 00        	adc	#$0
     aaf: 85 1d        	sta	$1d                     ; 0x1d <__rc13>
     ab1: e6 14        	inc	$14                     ; 0x14 <__rc4>
     ab3: d0 02        	bne	$ab7 <textPrint+0x18b>
     ab5: e6 15        	inc	$15                     ; 0x15 <__rc5>
     ab7: a5 12        	lda	$12                     ; 0x12 <__rc2>
     ab9: 18           	clc
     aba: 65 14        	adc	$14                     ; 0x14 <__rc4>
     abc: 85 1e        	sta	$1e                     ; 0x1e <__rc14>
     abe: a5 13        	lda	$13                     ; 0x13 <__rc3>
     ac0: 65 15        	adc	$15                     ; 0x15 <__rc5>
     ac2: 85 1f        	sta	$1f                     ; 0x1f <__rc15>
     ac4: b2 1e        	lda	($1e)                   ; 0x1e <__rc14>
     ac6: c9 0a        	cmp	#$a
     ac8: f0 2b        	beq	$af5 <textPrint+0x1c9>
     aca: c9 0d        	cmp	#$d
     acc: f0 27        	beq	$af5 <textPrint+0x1c9>
     ace: aa           	tax
     acf: f0 49        	beq	$b1a <textPrint+0x1ee>
     ad1: a2 03        	ldx	#$3
     ad3: 86 01        	stx	$1                      ; 0x1 <__zp_data_size+0x1>
     ad5: 84 22        	sty	$22                     ; 0x22 <__rc18>
     ad7: a4 30        	ldy	$30                     ; 0x30 <_col>
     ad9: a9 f0        	lda	#$f0
     adb: aa           	tax
     adc: 86 8e        	stx	$8e                     ; 0x8e <__rc31+0x5f>
     ade: 91 1c        	sta	($1c),y                 ; 0x1c <__rc12>
     ae0: a2 02        	ldx	#$2
     ae2: 86 01        	stx	$1                      ; 0x1 <__zp_data_size+0x1>
     ae4: b2 1e        	lda	($1e)                   ; 0x1e <__rc14>
     ae6: a4 30        	ldy	$30                     ; 0x30 <_col>
     ae8: 91 1c        	sta	($1c),y                 ; 0x1c <__rc12>
     aea: a4 22        	ldy	$22                     ; 0x22 <__rc18>
     aec: a6 30        	ldx	$30                     ; 0x30 <_col>
     aee: e8           	inx
     aef: e6 30        	inc	$30                     ; 0x30 <_col>
     af1: e0 50        	cpx	#$50
     af3: d0 bc        	bne	$ab1 <textPrint+0x185>
     af5: 64 30        	stz	$30                     ; 0x30 <_col>
     af7: a6 31        	ldx	$31                     ; 0x31 <_row>
     af9: e8           	inx
     afa: e6 31        	inc	$31                     ; 0x31 <_row>
     afc: e0 1e        	cpx	#$1e
     afe: f0 03        	beq	$b03 <textPrint+0x1d7>
     b00: 4c a4 0a     	jmp	$aa4 <textPrint+0x178>
     b03: a2 03        	ldx	#$3
     b05: 86 01        	stx	$1                      ; 0x1 <__zp_data_size+0x1>
     b07: a2 09        	ldx	#$9
     b09: a9 10        	lda	#$10
     b0b: 5a           	phy
     b0c: a0 00        	ldy	#$0
     b0e: 84 1c        	sty	$1c                     ; 0x1c <__rc12>
     b10: a0 c0        	ldy	#$c0
     b12: 84 1d        	sty	$1d                     ; 0x1d <__rc13>
     b14: 7a           	ply
     b15: 85 1e        	sta	$1e                     ; 0x1e <__rc14>
     b17: 4c ac 09     	jmp	$9ac <textPrint+0x80>
     b1a: a6 8c        	ldx	$8c                     ; 0x8c <__rc31+0x5d>
     b1c: 86 01        	stx	$1                      ; 0x1 <__zp_data_size+0x1>
     b1e: a6 30        	ldx	$30                     ; 0x30 <_col>
     b20: a4 31        	ldy	$31                     ; 0x31 <_row>
     b22: 8e 14 d0     	stx	$d014                   ; 0xd014 <end_block9+0xb496>
     b25: 9c 15 d0     	stz	$d015                   ; 0xd015 <end_block9+0xb497>
     b28: 84 31        	sty	$31                     ; 0x31 <_row>
     b2a: 8c 16 d0     	sty	$d016                   ; 0xd016 <end_block9+0xb498>
     b2d: 9c 17 d0     	stz	$d017                   ; 0xd017 <end_block9+0xb499>
     b30: 60           	rts

00000b31 <exit>:
     b31: 20 14 03     	jsr	$314 <_fini>
     b34: 80 fe        	bra	$b34 <exit+0x3>

00000b36 <_ZN12_GLOBAL__N_13putEcP6Status>:
     b36: 85 18        	sta	$18                     ; 0x18 <__rc8>
     b38: a6 13        	ldx	$13                     ; 0x13 <__rc3>
     b3a: 18           	clc
     b3b: a5 12        	lda	$12                     ; 0x12 <__rc2>
     b3d: 69 05        	adc	#$5
     b3f: a8           	tay
     b40: a5 13        	lda	$13                     ; 0x13 <__rc3>
     b42: 86 15        	stx	$15                     ; 0x15 <__rc5>
     b44: 69 00        	adc	#$0
     b46: 18           	clc
     b47: 84 16        	sty	$16                     ; 0x16 <__rc6>
     b49: a0 05        	ldy	#$5
     b4b: 85 17        	sta	$17                     ; 0x17 <__rc7>
     b4d: b1 12        	lda	($12),y                 ; 0x12 <__rc2>
     b4f: aa           	tax
     b50: a5 12        	lda	$12                     ; 0x12 <__rc2>
     b52: 69 03        	adc	#$3
     b54: 85 14        	sta	$14                     ; 0x14 <__rc4>
     b56: a5 15        	lda	$15                     ; 0x15 <__rc5>
     b58: 69 00        	adc	#$0
     b5a: 85 15        	sta	$15                     ; 0x15 <__rc5>
     b5c: a0 01        	ldy	#$1
     b5e: b1 16        	lda	($16),y                 ; 0x16 <__rc6>
     b60: d1 14        	cmp	($14),y                 ; 0x14 <__rc4>
     b62: d0 11        	bne	$b75 <_ZN12_GLOBAL__N_13putEcP6Status+0x3f>
     b64: a0 03        	ldy	#$3
     b66: 85 17        	sta	$17                     ; 0x17 <__rc7>
     b68: b1 12        	lda	($12),y                 ; 0x12 <__rc2>
     b6a: 85 14        	sta	$14                     ; 0x14 <__rc4>
     b6c: 86 16        	stx	$16                     ; 0x16 <__rc6>
     b6e: e4 14        	cpx	$14                     ; 0x14 <__rc4>
     b70: 90 0e        	bcc	$b80 <_ZN12_GLOBAL__N_13putEcP6Status+0x4a>
     b72: 4c e9 0b     	jmp	$be9 <_ZN12_GLOBAL__N_13putEcP6Status+0xb3>
     b75: 86 16        	stx	$16                     ; 0x16 <__rc6>
     b77: d1 14        	cmp	($14),y                 ; 0x14 <__rc4>
     b79: 85 17        	sta	$17                     ; 0x17 <__rc7>
     b7b: 90 03        	bcc	$b80 <_ZN12_GLOBAL__N_13putEcP6Status+0x4a>
     b7d: 4c e9 0b     	jmp	$be9 <_ZN12_GLOBAL__N_13putEcP6Status+0xb3>
     b80: a5 12        	lda	$12                     ; 0x12 <__rc2>
     b82: 18           	clc
     b83: 69 0f        	adc	#$f
     b85: 85 14        	sta	$14                     ; 0x14 <__rc4>
     b87: a5 13        	lda	$13                     ; 0x13 <__rc3>
     b89: 69 00        	adc	#$0
     b8b: 85 15        	sta	$15                     ; 0x15 <__rc5>
     b8d: a0 01        	ldy	#$1
     b8f: b1 14        	lda	($14),y                 ; 0x14 <__rc4>
     b91: a2 00        	ldx	#$0
     b93: 86 14        	stx	$14                     ; 0x14 <__rc4>
     b95: a2 00        	ldx	#$0
     b97: 86 15        	stx	$15                     ; 0x15 <__rc5>
     b99: c5 15        	cmp	$15                     ; 0x15 <__rc5>
     b9b: d0 2d        	bne	$bca <_ZN12_GLOBAL__N_13putEcP6Status+0x94>
     b9d: a0 0f        	ldy	#$f
     b9f: b1 12        	lda	($12),y                 ; 0x12 <__rc2>
     ba1: c5 14        	cmp	$14                     ; 0x14 <__rc4>
     ba3: d0 25        	bne	$bca <_ZN12_GLOBAL__N_13putEcP6Status+0x94>
     ba5: a5 12        	lda	$12                     ; 0x12 <__rc2>
     ba7: 18           	clc
     ba8: 69 09        	adc	#$9
     baa: 85 14        	sta	$14                     ; 0x14 <__rc4>
     bac: a5 13        	lda	$13                     ; 0x13 <__rc3>
     bae: 69 00        	adc	#$0
     bb0: a0 09        	ldy	#$9
     bb2: 85 15        	sta	$15                     ; 0x15 <__rc5>
     bb4: 18           	clc
     bb5: a5 16        	lda	$16                     ; 0x16 <__rc6>
     bb7: 71 12        	adc	($12),y                 ; 0x12 <__rc2>
     bb9: aa           	tax
     bba: a0 01        	ldy	#$1
     bbc: a5 17        	lda	$17                     ; 0x17 <__rc7>
     bbe: 71 14        	adc	($14),y                 ; 0x14 <__rc4>
     bc0: 86 14        	stx	$14                     ; 0x14 <__rc4>
     bc2: 85 15        	sta	$15                     ; 0x15 <__rc5>
     bc4: a5 18        	lda	$18                     ; 0x18 <__rc8>
     bc6: 92 14        	sta	($14)                   ; 0x14 <__rc4>
     bc8: 80 1f        	bra	$be9 <_ZN12_GLOBAL__N_13putEcP6Status+0xb3>
     bca: a6 12        	ldx	$12                     ; 0x12 <__rc2>
     bcc: 86 8a        	stx	$8a                     ; 0x8a <__rc31+0x5b>
     bce: a6 13        	ldx	$13                     ; 0x13 <__rc3>
     bd0: 86 8b        	stx	$8b                     ; 0x8b <__rc31+0x5c>
     bd2: a5 18        	lda	$18                     ; 0x18 <__rc8>
     bd4: 85 32        	sta	$32                     ; 0x32 <__putchar.s>
     bd6: a2 32        	ldx	#$32
     bd8: 86 12        	stx	$12                     ; 0x12 <__rc2>
     bda: a2 00        	ldx	#$0
     bdc: 86 13        	stx	$13                     ; 0x13 <__rc3>
     bde: 20 2c 09     	jsr	$92c <textPrint>
     be1: a6 8a        	ldx	$8a                     ; 0x8a <__rc31+0x5b>
     be3: 86 12        	stx	$12                     ; 0x12 <__rc2>
     be5: a6 8b        	ldx	$8b                     ; 0x8b <__rc31+0x5c>
     be7: 86 13        	stx	$13                     ; 0x13 <__rc3>
     be9: a0 05        	ldy	#$5
     beb: a5 12        	lda	$12                     ; 0x12 <__rc2>
     bed: 18           	clc
     bee: 69 05        	adc	#$5
     bf0: 85 14        	sta	$14                     ; 0x14 <__rc4>
     bf2: a5 13        	lda	$13                     ; 0x13 <__rc3>
     bf4: 69 00        	adc	#$0
     bf6: 85 15        	sta	$15                     ; 0x15 <__rc5>
     bf8: b1 12        	lda	($12),y                 ; 0x12 <__rc2>
     bfa: aa           	tax
     bfb: 84 16        	sty	$16                     ; 0x16 <__rc6>
     bfd: a0 01        	ldy	#$1
     bff: b1 14        	lda	($14),y                 ; 0x14 <__rc4>
     c01: 84 17        	sty	$17                     ; 0x17 <__rc7>
     c03: e8           	inx
     c04: d0 01        	bne	$c07 <_ZN12_GLOBAL__N_13putEcP6Status+0xd1>
     c06: 1a           	inc
     c07: 85 18        	sta	$18                     ; 0x18 <__rc8>
     c09: 8a           	txa
     c0a: a4 16        	ldy	$16                     ; 0x16 <__rc6>
     c0c: 91 12        	sta	($12),y                 ; 0x12 <__rc2>
     c0e: a4 17        	ldy	$17                     ; 0x17 <__rc7>
     c10: a5 18        	lda	$18                     ; 0x18 <__rc8>
     c12: 91 14        	sta	($14),y                 ; 0x14 <__rc4>
     c14: 60           	rts

00000c15 <_ZN12_GLOBAL__N_112print_stringEPKcP6Status>:
     c15: a6 12        	ldx	$12                     ; 0x12 <__rc2>
     c17: 86 81        	stx	$81                     ; 0x81 <__rc31+0x52>
     c19: a6 13        	ldx	$13                     ; 0x13 <__rc3>
     c1b: 86 82        	stx	$82                     ; 0x82 <__rc31+0x53>
     c1d: a6 14        	ldx	$14                     ; 0x14 <__rc4>
     c1f: 86 83        	stx	$83                     ; 0x83 <__rc31+0x54>
     c21: a6 15        	ldx	$15                     ; 0x15 <__rc5>
     c23: 86 84        	stx	$84                     ; 0x84 <__rc31+0x55>
     c25: a5 83        	lda	$83                     ; 0x83 <__rc31+0x54>
     c27: 18           	clc
     c28: 69 0d        	adc	#$d
     c2a: 85 12        	sta	$12                     ; 0x12 <__rc2>
     c2c: a5 84        	lda	$84                     ; 0x84 <__rc31+0x55>
     c2e: 69 00        	adc	#$0
     c30: 85 13        	sta	$13                     ; 0x13 <__rc3>
     c32: a0 01        	ldy	#$1
     c34: b1 12        	lda	($12),y                 ; 0x12 <__rc2>
     c36: 30 14        	bmi	$c4c <_ZN12_GLOBAL__N_112print_stringEPKcP6Status+0x37>
     c38: a0 0d        	ldy	#$d
     c3a: aa           	tax
     c3b: b1 83        	lda	($83),y                 ; 0x83 <__rc31+0x54>
     c3d: 86 86        	stx	$86                     ; 0x86 <__rc31+0x57>
     c3f: e0 00        	cpx	#$0
     c41: d0 0e        	bne	$c51 <_ZN12_GLOBAL__N_112print_stringEPKcP6Status+0x3c>
     c43: aa           	tax
     c44: d0 0b        	bne	$c51 <_ZN12_GLOBAL__N_112print_stringEPKcP6Status+0x3c>
     c46: 64 85        	stz	$85                     ; 0x85 <__rc31+0x56>
     c48: 64 86        	stz	$86                     ; 0x86 <__rc31+0x57>
     c4a: 80 36        	bra	$c82 <_ZN12_GLOBAL__N_112print_stringEPKcP6Status+0x6d>
     c4c: a9 ff        	lda	#$ff
     c4e: aa           	tax
     c4f: 86 86        	stx	$86                     ; 0x86 <__rc31+0x57>
     c51: 85 85        	sta	$85                     ; 0x85 <__rc31+0x56>
     c53: 64 12        	stz	$12                     ; 0x12 <__rc2>
     c55: a4 81        	ldy	$81                     ; 0x81 <__rc31+0x52>
     c57: a6 82        	ldx	$82                     ; 0x82 <__rc31+0x53>
     c59: 86 16        	stx	$16                     ; 0x16 <__rc6>
     c5b: 64 13        	stz	$13                     ; 0x13 <__rc3>
     c5d: 98           	tya
     c5e: 18           	clc
     c5f: 65 12        	adc	$12                     ; 0x12 <__rc2>
     c61: 85 14        	sta	$14                     ; 0x14 <__rc4>
     c63: a5 82        	lda	$82                     ; 0x82 <__rc31+0x53>
     c65: 65 13        	adc	$13                     ; 0x13 <__rc3>
     c67: 85 15        	sta	$15                     ; 0x15 <__rc5>
     c69: b2 14        	lda	($14)                   ; 0x14 <__rc4>
     c6b: d0 03        	bne	$c70 <_ZN12_GLOBAL__N_112print_stringEPKcP6Status+0x5b>
     c6d: 4c 19 0d     	jmp	$d19 <_ZN12_GLOBAL__N_112print_stringEPKcP6Status+0x104>
     c70: e6 12        	inc	$12                     ; 0x12 <__rc2>
     c72: d0 02        	bne	$c76 <_ZN12_GLOBAL__N_112print_stringEPKcP6Status+0x61>
     c74: e6 13        	inc	$13                     ; 0x13 <__rc3>
     c76: a6 86        	ldx	$86                     ; 0x86 <__rc31+0x57>
     c78: e4 13        	cpx	$13                     ; 0x13 <__rc3>
     c7a: d0 e1        	bne	$c5d <_ZN12_GLOBAL__N_112print_stringEPKcP6Status+0x48>
     c7c: a6 85        	ldx	$85                     ; 0x85 <__rc31+0x56>
     c7e: e4 12        	cpx	$12                     ; 0x12 <__rc2>
     c80: d0 db        	bne	$c5d <_ZN12_GLOBAL__N_112print_stringEPKcP6Status+0x48>
     c82: a0 01        	ldy	#$1
     c84: b1 83        	lda	($83),y                 ; 0x83 <__rc31+0x54>
     c86: 29 01        	and	#$1
     c88: f0 03        	beq	$c8d <_ZN12_GLOBAL__N_112print_stringEPKcP6Status+0x78>
     c8a: 4c eb 0c     	jmp	$ceb <_ZN12_GLOBAL__N_112print_stringEPKcP6Status+0xd6>
     c8d: a5 83        	lda	$83                     ; 0x83 <__rc31+0x54>
     c8f: 18           	clc
     c90: 69 0b        	adc	#$b
     c92: 85 14        	sta	$14                     ; 0x14 <__rc4>
     c94: a5 84        	lda	$84                     ; 0x84 <__rc31+0x55>
     c96: 69 00        	adc	#$0
     c98: 85 15        	sta	$15                     ; 0x15 <__rc5>
     c9a: 84 12        	sty	$12                     ; 0x12 <__rc2>
     c9c: a0 0b        	ldy	#$b
     c9e: b1 83        	lda	($83),y                 ; 0x83 <__rc31+0x54>
     ca0: 85 13        	sta	$13                     ; 0x13 <__rc3>
     ca2: a4 12        	ldy	$12                     ; 0x12 <__rc2>
     ca4: b1 14        	lda	($14),y                 ; 0x14 <__rc4>
     ca6: 85 12        	sta	$12                     ; 0x12 <__rc2>
     ca8: a6 86        	ldx	$86                     ; 0x86 <__rc31+0x57>
     caa: e4 12        	cpx	$12                     ; 0x12 <__rc2>
     cac: d0 08        	bne	$cb6 <_ZN12_GLOBAL__N_112print_stringEPKcP6Status+0xa1>
     cae: a6 85        	ldx	$85                     ; 0x85 <__rc31+0x56>
     cb0: e4 13        	cpx	$13                     ; 0x13 <__rc3>
     cb2: 90 06        	bcc	$cba <_ZN12_GLOBAL__N_112print_stringEPKcP6Status+0xa5>
     cb4: 80 35        	bra	$ceb <_ZN12_GLOBAL__N_112print_stringEPKcP6Status+0xd6>
     cb6: e4 12        	cpx	$12                     ; 0x12 <__rc2>
     cb8: b0 31        	bcs	$ceb <_ZN12_GLOBAL__N_112print_stringEPKcP6Status+0xd6>
     cba: 38           	sec
     cbb: a5 85        	lda	$85                     ; 0x85 <__rc31+0x56>
     cbd: e5 13        	sbc	$13                     ; 0x13 <__rc3>
     cbf: a8           	tay
     cc0: a5 86        	lda	$86                     ; 0x86 <__rc31+0x57>
     cc2: e5 12        	sbc	$12                     ; 0x12 <__rc2>
     cc4: 85 88        	sta	$88                     ; 0x88 <__rc31+0x59>
     cc6: a2 20        	ldx	#$20
     cc8: 86 89        	stx	$89                     ; 0x89 <__rc31+0x5a>
     cca: a6 83        	ldx	$83                     ; 0x83 <__rc31+0x54>
     ccc: 86 12        	stx	$12                     ; 0x12 <__rc2>
     cce: a6 84        	ldx	$84                     ; 0x84 <__rc31+0x55>
     cd0: 86 13        	stx	$13                     ; 0x13 <__rc3>
     cd2: 84 87        	sty	$87                     ; 0x87 <__rc31+0x58>
     cd4: a5 89        	lda	$89                     ; 0x89 <__rc31+0x5a>
     cd6: 20 36 0b     	jsr	$b36 <_ZN12_GLOBAL__N_13putEcP6Status>
     cd9: a6 88        	ldx	$88                     ; 0x88 <__rc31+0x59>
     cdb: e6 87        	inc	$87                     ; 0x87 <__rc31+0x58>
     cdd: d0 01        	bne	$ce0 <_ZN12_GLOBAL__N_112print_stringEPKcP6Status+0xcb>
     cdf: e8           	inx
     ce0: 86 88        	stx	$88                     ; 0x88 <__rc31+0x59>
     ce2: a4 87        	ldy	$87                     ; 0x87 <__rc31+0x58>
     ce4: 8a           	txa
     ce5: d0 e3        	bne	$cca <_ZN12_GLOBAL__N_112print_stringEPKcP6Status+0xb5>
     ce7: a5 87        	lda	$87                     ; 0x87 <__rc31+0x58>
     ce9: d0 df        	bne	$cca <_ZN12_GLOBAL__N_112print_stringEPKcP6Status+0xb5>
     ceb: a5 86        	lda	$86                     ; 0x86 <__rc31+0x57>
     ced: d0 04        	bne	$cf3 <_ZN12_GLOBAL__N_112print_stringEPKcP6Status+0xde>
     cef: a5 85        	lda	$85                     ; 0x85 <__rc31+0x56>
     cf1: f0 25        	beq	$d18 <_ZN12_GLOBAL__N_112print_stringEPKcP6Status+0x103>
     cf3: a2 ff        	ldx	#$ff
     cf5: c6 85        	dec	$85                     ; 0x85 <__rc31+0x56>
     cf7: e4 85        	cpx	$85                     ; 0x85 <__rc31+0x56>
     cf9: d0 02        	bne	$cfd <_ZN12_GLOBAL__N_112print_stringEPKcP6Status+0xe8>
     cfb: c6 86        	dec	$86                     ; 0x86 <__rc31+0x57>
     cfd: b2 81        	lda	($81)                   ; 0x81 <__rc31+0x52>
     cff: e6 81        	inc	$81                     ; 0x81 <__rc31+0x52>
     d01: d0 02        	bne	$d05 <_ZN12_GLOBAL__N_112print_stringEPKcP6Status+0xf0>
     d03: e6 82        	inc	$82                     ; 0x82 <__rc31+0x53>
     d05: a6 83        	ldx	$83                     ; 0x83 <__rc31+0x54>
     d07: 86 12        	stx	$12                     ; 0x12 <__rc2>
     d09: a6 84        	ldx	$84                     ; 0x84 <__rc31+0x55>
     d0b: 86 13        	stx	$13                     ; 0x13 <__rc3>
     d0d: 20 36 0b     	jsr	$b36 <_ZN12_GLOBAL__N_13putEcP6Status>
     d10: a5 86        	lda	$86                     ; 0x86 <__rc31+0x57>
     d12: d0 df        	bne	$cf3 <_ZN12_GLOBAL__N_112print_stringEPKcP6Status+0xde>
     d14: a5 85        	lda	$85                     ; 0x85 <__rc31+0x56>
     d16: d0 db        	bne	$cf3 <_ZN12_GLOBAL__N_112print_stringEPKcP6Status+0xde>
     d18: 60           	rts
     d19: a6 12        	ldx	$12                     ; 0x12 <__rc2>
     d1b: 86 85        	stx	$85                     ; 0x85 <__rc31+0x56>
     d1d: a6 13        	ldx	$13                     ; 0x13 <__rc3>
     d1f: 86 86        	stx	$86                     ; 0x86 <__rc31+0x57>
     d21: 4c 82 0c     	jmp	$c82 <_ZN12_GLOBAL__N_112print_stringEPKcP6Status+0x6d>

00000d24 <printf>:
     d24: a6 12        	ldx	$12                     ; 0x12 <__rc2>
     d26: 86 38        	stx	$38                     ; 0x38 <__rc31+0x9>
     d28: a6 13        	ldx	$13                     ; 0x13 <__rc3>
     d2a: 86 39        	stx	$39                     ; 0x39 <__rc31+0xa>
     d2c: 18           	clc
     d2d: a6 10        	ldx	$10                     ; 0x10 <__rc0>
     d2f: a4 11        	ldy	$11                     ; 0x11 <__rc1>
     d31: 86 77        	stx	$77                     ; 0x77 <__rc31+0x48>
     d33: 84 78        	sty	$78                     ; 0x78 <__rc31+0x49>
     d35: a6 77        	ldx	$77                     ; 0x77 <__rc31+0x48>
     d37: a4 78        	ldy	$78                     ; 0x78 <__rc31+0x49>
     d39: 86 62        	stx	$62                     ; 0x62 <__rc31+0x33>
     d3b: 84 63        	sty	$63                     ; 0x63 <__rc31+0x34>
     d3d: a2 ff        	ldx	#$ff
     d3f: 86 67        	stx	$67                     ; 0x67 <__rc31+0x38>
     d41: 86 68        	stx	$68                     ; 0x68 <__rc31+0x39>
     d43: 64 69        	stz	$69                     ; 0x69 <__rc31+0x3a>
     d45: 64 6a        	stz	$6a                     ; 0x6a <__rc31+0x3b>
     d47: e8           	inx
     d48: 86 12        	stx	$12                     ; 0x12 <__rc2>
     d4a: a2 00        	ldx	#$0
     d4c: 86 13        	stx	$13                     ; 0x13 <__rc3>
     d4e: a6 12        	ldx	$12                     ; 0x12 <__rc2>
     d50: a4 13        	ldy	$13                     ; 0x13 <__rc3>
     d52: 86 6d        	stx	$6d                     ; 0x6d <__rc31+0x3e>
     d54: 84 6e        	sty	$6e                     ; 0x6e <__rc31+0x3f>
     d56: a2 02        	ldx	#$2
     d58: 86 73        	stx	$73                     ; 0x73 <__rc31+0x44>
     d5a: 64 74        	stz	$74                     ; 0x74 <__rc31+0x45>
     d5c: a6 62        	ldx	$62                     ; 0x62 <__rc31+0x33>
     d5e: a4 63        	ldy	$63                     ; 0x63 <__rc31+0x34>
     d60: 86 75        	stx	$75                     ; 0x75 <__rc31+0x46>
     d62: 84 76        	sty	$76                     ; 0x76 <__rc31+0x47>
     d64: a2 59        	ldx	#$59
     d66: a0 00        	ldy	#$0
     d68: 86 12        	stx	$12                     ; 0x12 <__rc2>
     d6a: 84 13        	sty	$13                     ; 0x13 <__rc3>
     d6c: a0 01        	ldy	#$1
     d6e: a9 40        	lda	#$40
     d70: 18           	clc
     d71: 69 02        	adc	#$2
     d73: 85 7f        	sta	$7f                     ; 0x7f <__rc31+0x50>
     d75: a9 00        	lda	#$0
     d77: 69 00        	adc	#$0
     d79: 85 80        	sta	$80                     ; 0x80 <__rc31+0x51>
     d7b: e6 12        	inc	$12                     ; 0x12 <__rc2>
     d7d: d0 02        	bne	$d81 <printf+0x5d>
     d7f: e6 13        	inc	$13                     ; 0x13 <__rc3>
     d81: a6 12        	ldx	$12                     ; 0x12 <__rc2>
     d83: 86 7d        	stx	$7d                     ; 0x7d <__rc31+0x4e>
     d85: a6 13        	ldx	$13                     ; 0x13 <__rc3>
     d87: 86 7e        	stx	$7e                     ; 0x7e <__rc31+0x4f>
     d89: a6 38        	ldx	$38                     ; 0x38 <__rc31+0x9>
     d8b: 86 34        	stx	$34                     ; 0x34 <__rc31+0x5>
     d8d: a6 39        	ldx	$39                     ; 0x39 <__rc31+0xa>
     d8f: 86 35        	stx	$35                     ; 0x35 <__rc31+0x6>
     d91: b2 38        	lda	($38)                   ; 0x38 <__rc31+0x9>
     d93: c9 25        	cmp	#$25
     d95: f0 2d        	beq	$dc4 <printf+0xa0>
     d97: aa           	tax
     d98: d0 03        	bne	$d9d <printf+0x79>
     d9a: 4c 63 1a     	jmp	$1a63 <printf+0xd3f>
     d9d: 85 32        	sta	$32                     ; 0x32 <__putchar.s>
     d9f: a2 32        	ldx	#$32
     da1: 86 12        	stx	$12                     ; 0x12 <__rc2>
     da3: a2 00        	ldx	#$0
     da5: 86 13        	stx	$13                     ; 0x13 <__rc3>
     da7: 84 36        	sty	$36                     ; 0x36 <__rc31+0x7>
     da9: 20 2c 09     	jsr	$92c <textPrint>
     dac: a4 36        	ldy	$36                     ; 0x36 <__rc31+0x7>
     dae: e6 34        	inc	$34                     ; 0x34 <__rc31+0x5>
     db0: d0 02        	bne	$db4 <printf+0x90>
     db2: e6 35        	inc	$35                     ; 0x35 <__rc31+0x6>
     db4: e6 69        	inc	$69                     ; 0x69 <__rc31+0x3a>
     db6: d0 02        	bne	$dba <printf+0x96>
     db8: e6 6a        	inc	$6a                     ; 0x6a <__rc31+0x3b>
     dba: a6 34        	ldx	$34                     ; 0x34 <__rc31+0x5>
     dbc: 86 38        	stx	$38                     ; 0x38 <__rc31+0x9>
     dbe: a6 35        	ldx	$35                     ; 0x35 <__rc31+0x6>
     dc0: 86 39        	stx	$39                     ; 0x39 <__rc31+0xa>
     dc2: 80 c5        	bra	$d89 <printf+0x65>
     dc4: a6 38        	ldx	$38                     ; 0x38 <__rc31+0x9>
     dc6: 86 12        	stx	$12                     ; 0x12 <__rc2>
     dc8: a6 39        	ldx	$39                     ; 0x39 <__rc31+0xa>
     dca: 86 13        	stx	$13                     ; 0x13 <__rc3>
     dcc: e6 12        	inc	$12                     ; 0x12 <__rc2>
     dce: d0 02        	bne	$dd2 <printf+0xae>
     dd0: e6 13        	inc	$13                     ; 0x13 <__rc3>
     dd2: b1 34        	lda	($34),y                 ; 0x34 <__rc31+0x5>
     dd4: c9 25        	cmp	#$25
     dd6: d0 18        	bne	$df0 <printf+0xcc>
     dd8: a2 01        	ldx	#$1
     dda: 86 13        	stx	$13                     ; 0x13 <__rc3>
     ddc: a5 69        	lda	$69                     ; 0x69 <__rc31+0x3a>
     dde: a4 6a        	ldy	$6a                     ; 0x6a <__rc31+0x3b>
     de0: c4 68        	cpy	$68                     ; 0x68 <__rc31+0x39>
     de2: f0 03        	beq	$de7 <printf+0xc3>
     de4: 4c 00 0f     	jmp	$f00 <printf+0x1dc>
     de7: a6 67        	ldx	$67                     ; 0x67 <__rc31+0x38>
     de9: 86 12        	stx	$12                     ; 0x12 <__rc2>
     deb: c5 12        	cmp	$12                     ; 0x12 <__rc2>
     ded: 4c 02 0f     	jmp	$f02 <printf+0x1de>
     df0: a2 01        	ldx	#$1
     df2: 86 15        	stx	$15                     ; 0x15 <__rc5>
     df4: 64 65        	stz	$65                     ; 0x65 <__rc31+0x36>
     df6: 64 66        	stz	$66                     ; 0x66 <__rc31+0x37>
     df8: 64 64        	stz	$64                     ; 0x64 <__rc31+0x35>
     dfa: 64 6f        	stz	$6f                     ; 0x6f <__rc31+0x40>
     dfc: 64 70        	stz	$70                     ; 0x70 <__rc31+0x41>
     dfe: a2 ff        	ldx	#$ff
     e00: 86 71        	stx	$71                     ; 0x71 <__rc31+0x42>
     e02: 86 72        	stx	$72                     ; 0x72 <__rc31+0x43>
     e04: 64 36        	stz	$36                     ; 0x36 <__rc31+0x7>
     e06: 80 33        	bra	$e3b <printf+0x117>
     e08: a2 02        	ldx	#$2
     e0a: 80 15        	bra	$e21 <printf+0xfd>
     e0c: e0 20        	cpx	#$20
     e0e: f0 15        	beq	$e25 <printf+0x101>
     e10: 86 16        	stx	$16                     ; 0x16 <__rc6>
     e12: e0 23        	cpx	#$23
     e14: f0 03        	beq	$e19 <printf+0xf5>
     e16: 4c 98 0e     	jmp	$e98 <printf+0x174>
     e19: a5 36        	lda	$36                     ; 0x36 <__rc31+0x7>
     e1b: a2 04        	ldx	#$4
     e1d: 80 02        	bra	$e21 <printf+0xfd>
     e1f: a2 10        	ldx	#$10
     e21: 86 14        	stx	$14                     ; 0x14 <__rc4>
     e23: 80 06        	bra	$e2b <printf+0x107>
     e25: a2 08        	ldx	#$8
     e27: 86 14        	stx	$14                     ; 0x14 <__rc4>
     e29: a5 36        	lda	$36                     ; 0x36 <__rc31+0x7>
     e2b: 05 14        	ora	$14                     ; 0x14 <__rc4>
     e2d: 85 36        	sta	$36                     ; 0x36 <__rc31+0x7>
     e2f: 85 65        	sta	$65                     ; 0x65 <__rc31+0x36>
     e31: a2 00        	ldx	#$0
     e33: 86 66        	stx	$66                     ; 0x66 <__rc31+0x37>
     e35: e6 12        	inc	$12                     ; 0x12 <__rc2>
     e37: d0 02        	bne	$e3b <printf+0x117>
     e39: e6 13        	inc	$13                     ; 0x13 <__rc3>
     e3b: b2 12        	lda	($12)                   ; 0x12 <__rc2>
     e3d: 18           	clc
     e3e: aa           	tax
     e3f: 69 d6        	adc	#$d6
     e41: c9 07        	cmp	#$7
     e43: b0 c7        	bcs	$e0c <printf+0xe8>
     e45: 86 16        	stx	$16                     ; 0x16 <__rc6>
     e47: 0a           	asl
     e48: aa           	tax
     e49: a0 01        	ldy	#$1
     e4b: 84 14        	sty	$14                     ; 0x14 <__rc4>
     e4d: a5 36        	lda	$36                     ; 0x36 <__rc31+0x7>
     e4f: 7c b0 1a     	jmp	($1ab0,x)               ; 0x1ab0 <__heap_default_limit+0xab0>
     e52: a5 75        	lda	$75                     ; 0x75 <__rc31+0x46>
     e54: a6 76        	ldx	$76                     ; 0x76 <__rc31+0x47>
     e56: 85 16        	sta	$16                     ; 0x16 <__rc6>
     e58: 86 17        	stx	$17                     ; 0x17 <__rc7>
     e5a: 18           	clc
     e5b: 69 02        	adc	#$2
     e5d: a8           	tay
     e5e: 8a           	txa
     e5f: 69 00        	adc	#$0
     e61: 84 75        	sty	$75                     ; 0x75 <__rc31+0x46>
     e63: 85 76        	sta	$76                     ; 0x76 <__rc31+0x47>
     e65: b2 16        	lda	($16)                   ; 0x16 <__rc6>
     e67: 85 15        	sta	$15                     ; 0x15 <__rc5>
     e69: a0 01        	ldy	#$1
     e6b: b1 16        	lda	($16),y                 ; 0x16 <__rc6>
     e6d: 85 14        	sta	$14                     ; 0x14 <__rc4>
     e6f: 10 15        	bpl	$e86 <printf+0x162>
     e71: a5 36        	lda	$36                     ; 0x36 <__rc31+0x7>
     e73: 09 01        	ora	#$1
     e75: 85 36        	sta	$36                     ; 0x36 <__rc31+0x7>
     e77: 85 65        	sta	$65                     ; 0x65 <__rc31+0x36>
     e79: a2 00        	ldx	#$0
     e7b: 86 66        	stx	$66                     ; 0x66 <__rc31+0x37>
     e7d: 8a           	txa
     e7e: 38           	sec
     e7f: e5 15        	sbc	$15                     ; 0x15 <__rc5>
     e81: 85 15        	sta	$15                     ; 0x15 <__rc5>
     e83: 8a           	txa
     e84: e5 14        	sbc	$14                     ; 0x14 <__rc4>
     e86: a6 15        	ldx	$15                     ; 0x15 <__rc5>
     e88: 86 6f        	stx	$6f                     ; 0x6f <__rc31+0x40>
     e8a: 85 70        	sta	$70                     ; 0x70 <__rc31+0x41>
     e8c: e6 12        	inc	$12                     ; 0x12 <__rc2>
     e8e: f0 03        	beq	$e93 <printf+0x16f>
     e90: 4c 6c 0f     	jmp	$f6c <printf+0x248>
     e93: e6 13        	inc	$13                     ; 0x13 <__rc3>
     e95: 4c 6c 0f     	jmp	$f6c <printf+0x248>
     e98: 18           	clc
     e99: a5 16        	lda	$16                     ; 0x16 <__rc6>
     e9b: 69 d0        	adc	#$d0
     e9d: c9 0a        	cmp	#$a
     e9f: 90 03        	bcc	$ea4 <printf+0x180>
     ea1: 4c 5e 0f     	jmp	$f5e <printf+0x23a>
     ea4: a6 16        	ldx	$16                     ; 0x16 <__rc6>
     ea6: 86 14        	stx	$14                     ; 0x14 <__rc4>
     ea8: 64 16        	stz	$16                     ; 0x16 <__rc6>
     eaa: 64 15        	stz	$15                     ; 0x15 <__rc5>
     eac: 64 17        	stz	$17                     ; 0x17 <__rc7>
     eae: a0 01        	ldy	#$1
     eb0: a2 00        	ldx	#$0
     eb2: 06 16        	asl	$16                     ; 0x16 <__rc6>
     eb4: 26 17        	rol	$17                     ; 0x17 <__rc7>
     eb6: a5 16        	lda	$16                     ; 0x16 <__rc6>
     eb8: 0a           	asl
     eb9: 85 18        	sta	$18                     ; 0x18 <__rc8>
     ebb: a5 17        	lda	$17                     ; 0x17 <__rc7>
     ebd: 2a           	rol
     ebe: 06 18        	asl	$18                     ; 0x18 <__rc8>
     ec0: 2a           	rol
     ec1: 85 19        	sta	$19                     ; 0x19 <__rc9>
     ec3: a5 18        	lda	$18                     ; 0x18 <__rc8>
     ec5: 18           	clc
     ec6: 65 16        	adc	$16                     ; 0x16 <__rc6>
     ec8: 85 16        	sta	$16                     ; 0x16 <__rc6>
     eca: a5 19        	lda	$19                     ; 0x19 <__rc9>
     ecc: 65 17        	adc	$17                     ; 0x17 <__rc7>
     ece: 85 17        	sta	$17                     ; 0x17 <__rc7>
     ed0: a5 16        	lda	$16                     ; 0x16 <__rc6>
     ed2: 18           	clc
     ed3: 65 14        	adc	$14                     ; 0x14 <__rc4>
     ed5: 85 14        	sta	$14                     ; 0x14 <__rc4>
     ed7: a5 17        	lda	$17                     ; 0x17 <__rc7>
     ed9: 65 15        	adc	$15                     ; 0x15 <__rc5>
     edb: 85 15        	sta	$15                     ; 0x15 <__rc5>
     edd: 18           	clc
     ede: a5 14        	lda	$14                     ; 0x14 <__rc4>
     ee0: 69 d0        	adc	#$d0
     ee2: 85 16        	sta	$16                     ; 0x16 <__rc6>
     ee4: a5 15        	lda	$15                     ; 0x15 <__rc5>
     ee6: 69 ff        	adc	#$ff
     ee8: 85 17        	sta	$17                     ; 0x17 <__rc7>
     eea: b1 12        	lda	($12),y                 ; 0x12 <__rc2>
     eec: 85 14        	sta	$14                     ; 0x14 <__rc4>
     eee: 18           	clc
     eef: 69 d0        	adc	#$d0
     ef1: e6 12        	inc	$12                     ; 0x12 <__rc2>
     ef3: d0 02        	bne	$ef7 <printf+0x1d3>
     ef5: e6 13        	inc	$13                     ; 0x13 <__rc3>
     ef7: c9 0a        	cmp	#$a
     ef9: 64 15        	stz	$15                     ; 0x15 <__rc5>
     efb: 90 b5        	bcc	$eb2 <printf+0x18e>
     efd: 4c 64 0f     	jmp	$f64 <printf+0x240>
     f00: c4 68        	cpy	$68                     ; 0x68 <__rc31+0x39>
     f02: 84 16        	sty	$16                     ; 0x16 <__rc6>
     f04: a4 13        	ldy	$13                     ; 0x13 <__rc3>
     f06: b0 40        	bcs	$f48 <printf+0x224>
     f08: a2 01        	ldx	#$1
     f0a: 86 14        	stx	$14                     ; 0x14 <__rc4>
     f0c: a6 74        	ldx	$74                     ; 0x74 <__rc31+0x45>
     f0e: a0 00        	ldy	#$0
     f10: 84 12        	sty	$12                     ; 0x12 <__rc2>
     f12: a0 00        	ldy	#$0
     f14: 84 13        	sty	$13                     ; 0x13 <__rc3>
     f16: e4 13        	cpx	$13                     ; 0x13 <__rc3>
     f18: d0 19        	bne	$f33 <printf+0x20f>
     f1a: a6 73        	ldx	$73                     ; 0x73 <__rc31+0x44>
     f1c: e4 12        	cpx	$12                     ; 0x12 <__rc2>
     f1e: d0 13        	bne	$f33 <printf+0x20f>
     f20: a4 14        	ldy	$14                     ; 0x14 <__rc4>
     f22: 18           	clc
     f23: 65 6d        	adc	$6d                     ; 0x6d <__rc31+0x3e>
     f25: 85 12        	sta	$12                     ; 0x12 <__rc2>
     f27: a5 16        	lda	$16                     ; 0x16 <__rc6>
     f29: 65 6e        	adc	$6e                     ; 0x6e <__rc31+0x3f>
     f2b: 85 13        	sta	$13                     ; 0x13 <__rc3>
     f2d: a9 25        	lda	#$25
     f2f: 92 12        	sta	($12)                   ; 0x12 <__rc2>
     f31: 80 15        	bra	$f48 <printf+0x224>
     f33: a2 01        	ldx	#$1
     f35: 86 36        	stx	$36                     ; 0x36 <__rc31+0x7>
     f37: a2 25        	ldx	#$25
     f39: 86 32        	stx	$32                     ; 0x32 <__putchar.s>
     f3b: a2 32        	ldx	#$32
     f3d: 86 12        	stx	$12                     ; 0x12 <__rc2>
     f3f: a2 00        	ldx	#$0
     f41: 86 13        	stx	$13                     ; 0x13 <__rc3>
     f43: 20 2c 09     	jsr	$92c <textPrint>
     f46: a4 36        	ldy	$36                     ; 0x36 <__rc31+0x7>
     f48: e6 69        	inc	$69                     ; 0x69 <__rc31+0x3a>
     f4a: d0 02        	bne	$f4e <printf+0x22a>
     f4c: e6 6a        	inc	$6a                     ; 0x6a <__rc31+0x3b>
     f4e: a5 34        	lda	$34                     ; 0x34 <__rc31+0x5>
     f50: 18           	clc
     f51: 69 02        	adc	#$2
     f53: 85 38        	sta	$38                     ; 0x38 <__rc31+0x9>
     f55: a5 35        	lda	$35                     ; 0x35 <__rc31+0x6>
     f57: 69 00        	adc	#$0
     f59: 85 39        	sta	$39                     ; 0x39 <__rc31+0xa>
     f5b: 4c 89 0d     	jmp	$d89 <printf+0x65>
     f5e: 64 16        	stz	$16                     ; 0x16 <__rc6>
     f60: 64 17        	stz	$17                     ; 0x17 <__rc7>
     f62: a4 15        	ldy	$15                     ; 0x15 <__rc5>
     f64: a6 16        	ldx	$16                     ; 0x16 <__rc6>
     f66: 86 6f        	stx	$6f                     ; 0x6f <__rc31+0x40>
     f68: a5 17        	lda	$17                     ; 0x17 <__rc7>
     f6a: 85 70        	sta	$70                     ; 0x70 <__rc31+0x41>
     f6c: 86 1a        	stx	$1a                     ; 0x1a <__rc10>
     f6e: 85 3a        	sta	$3a                     ; 0x3a <__rc31+0xb>
     f70: b2 12        	lda	($12)                   ; 0x12 <__rc2>
     f72: a2 ff        	ldx	#$ff
     f74: c9 2e        	cmp	#$2e
     f76: d0 39        	bne	$fb1 <printf+0x28d>
     f78: b1 12        	lda	($12),y                 ; 0x12 <__rc2>
     f7a: c9 2a        	cmp	#$2a
     f7c: d0 38        	bne	$fb6 <printf+0x292>
     f7e: a5 75        	lda	$75                     ; 0x75 <__rc31+0x46>
     f80: a6 76        	ldx	$76                     ; 0x76 <__rc31+0x47>
     f82: 85 14        	sta	$14                     ; 0x14 <__rc4>
     f84: 86 15        	stx	$15                     ; 0x15 <__rc5>
     f86: 18           	clc
     f87: 69 02        	adc	#$2
     f89: 85 16        	sta	$16                     ; 0x16 <__rc6>
     f8b: 8a           	txa
     f8c: 69 00        	adc	#$0
     f8e: a6 16        	ldx	$16                     ; 0x16 <__rc6>
     f90: 86 75        	stx	$75                     ; 0x75 <__rc31+0x46>
     f92: 85 76        	sta	$76                     ; 0x76 <__rc31+0x47>
     f94: a5 12        	lda	$12                     ; 0x12 <__rc2>
     f96: 18           	clc
     f97: 69 02        	adc	#$2
     f99: 85 12        	sta	$12                     ; 0x12 <__rc2>
     f9b: a5 13        	lda	$13                     ; 0x13 <__rc3>
     f9d: 69 00        	adc	#$0
     f9f: 85 13        	sta	$13                     ; 0x13 <__rc3>
     fa1: b2 14        	lda	($14)                   ; 0x14 <__rc4>
     fa3: aa           	tax
     fa4: b1 14        	lda	($14),y                 ; 0x14 <__rc4>
     fa6: 86 18        	stx	$18                     ; 0x18 <__rc8>
     fa8: 86 71        	stx	$71                     ; 0x71 <__rc31+0x42>
     faa: 85 19        	sta	$19                     ; 0x19 <__rc9>
     fac: 85 72        	sta	$72                     ; 0x72 <__rc31+0x43>
     fae: 4c 74 10     	jmp	$1074 <printf+0x350>
     fb1: 86 3c        	stx	$3c                     ; 0x3c <__rc31+0xd>
     fb3: 4c 88 10     	jmp	$1088 <printf+0x364>
     fb6: 18           	clc
     fb7: 85 17        	sta	$17                     ; 0x17 <__rc7>
     fb9: 69 d0        	adc	#$d0
     fbb: c9 0a        	cmp	#$a
     fbd: 90 03        	bcc	$fc2 <printf+0x29e>
     fbf: 4c 66 10     	jmp	$1066 <printf+0x342>
     fc2: 64 16        	stz	$16                     ; 0x16 <__rc6>
     fc4: a2 01        	ldx	#$1
     fc6: 64 18        	stz	$18                     ; 0x18 <__rc8>
     fc8: 64 19        	stz	$19                     ; 0x19 <__rc9>
     fca: 84 1b        	sty	$1b                     ; 0x1b <__rc11>
     fcc: 64 1c        	stz	$1c                     ; 0x1c <__rc12>
     fce: 18           	clc
     fcf: a0 01        	ldy	#$1
     fd1: b0 02        	bcs	$fd5 <printf+0x2b1>
     fd3: a0 00        	ldy	#$0
     fd5: 84 1d        	sty	$1d                     ; 0x1d <__rc13>
     fd7: a4 1c        	ldy	$1c                     ; 0x1c <__rc12>
     fd9: 84 14        	sty	$14                     ; 0x14 <__rc4>
     fdb: 86 15        	stx	$15                     ; 0x15 <__rc5>
     fdd: 06 18        	asl	$18                     ; 0x18 <__rc8>
     fdf: 26 19        	rol	$19                     ; 0x19 <__rc9>
     fe1: a5 18        	lda	$18                     ; 0x18 <__rc8>
     fe3: 0a           	asl
     fe4: a8           	tay
     fe5: a5 19        	lda	$19                     ; 0x19 <__rc9>
     fe7: 2a           	rol
     fe8: 84 1e        	sty	$1e                     ; 0x1e <__rc14>
     fea: 06 1e        	asl	$1e                     ; 0x1e <__rc14>
     fec: 2a           	rol
     fed: 85 22        	sta	$22                     ; 0x22 <__rc18>
     fef: a5 1e        	lda	$1e                     ; 0x1e <__rc14>
     ff1: a4 1d        	ldy	$1d                     ; 0x1d <__rc13>
     ff3: c0 01        	cpy	#$1
     ff5: 65 18        	adc	$18                     ; 0x18 <__rc8>
     ff7: 85 18        	sta	$18                     ; 0x18 <__rc8>
     ff9: a5 22        	lda	$22                     ; 0x22 <__rc18>
     ffb: 65 19        	adc	$19                     ; 0x19 <__rc9>
     ffd: 85 19        	sta	$19                     ; 0x19 <__rc9>
     fff: a5 18        	lda	$18                     ; 0x18 <__rc8>
    1001: a4 1d        	ldy	$1d                     ; 0x1d <__rc13>
    1003: c0 01        	cpy	#$1
    1005: 65 17        	adc	$17                     ; 0x17 <__rc7>
    1007: 85 17        	sta	$17                     ; 0x17 <__rc7>
    1009: a5 19        	lda	$19                     ; 0x19 <__rc9>
    100b: 65 16        	adc	$16                     ; 0x16 <__rc6>
    100d: 85 16        	sta	$16                     ; 0x16 <__rc6>
    100f: 18           	clc
    1010: a5 17        	lda	$17                     ; 0x17 <__rc7>
    1012: 69 d0        	adc	#$d0
    1014: 85 18        	sta	$18                     ; 0x18 <__rc8>
    1016: a5 16        	lda	$16                     ; 0x16 <__rc6>
    1018: 69 ff        	adc	#$ff
    101a: 85 19        	sta	$19                     ; 0x19 <__rc9>
    101c: e8           	inx
    101d: d0 02        	bne	$1021 <printf+0x2fd>
    101f: e6 1c        	inc	$1c                     ; 0x1c <__rc12>
    1021: a5 12        	lda	$12                     ; 0x12 <__rc2>
    1023: a4 1d        	ldy	$1d                     ; 0x1d <__rc13>
    1025: c0 01        	cpy	#$1
    1027: 65 15        	adc	$15                     ; 0x15 <__rc5>
    1029: a8           	tay
    102a: a5 13        	lda	$13                     ; 0x13 <__rc3>
    102c: 65 14        	adc	$14                     ; 0x14 <__rc4>
    102e: 84 16        	sty	$16                     ; 0x16 <__rc6>
    1030: 85 17        	sta	$17                     ; 0x17 <__rc7>
    1032: a4 1b        	ldy	$1b                     ; 0x1b <__rc11>
    1034: b1 16        	lda	($16),y                 ; 0x16 <__rc6>
    1036: 85 17        	sta	$17                     ; 0x17 <__rc7>
    1038: 18           	clc
    1039: 69 d0        	adc	#$d0
    103b: c9 0a        	cmp	#$a
    103d: 64 16        	stz	$16                     ; 0x16 <__rc6>
    103f: b0 03        	bcs	$1044 <printf+0x320>
    1041: 4c d7 0f     	jmp	$fd7 <printf+0x2b3>
    1044: a5 12        	lda	$12                     ; 0x12 <__rc2>
    1046: a6 1d        	ldx	$1d                     ; 0x1d <__rc13>
    1048: e0 01        	cpx	#$1
    104a: 65 15        	adc	$15                     ; 0x15 <__rc5>
    104c: 85 12        	sta	$12                     ; 0x12 <__rc2>
    104e: a5 13        	lda	$13                     ; 0x13 <__rc3>
    1050: 65 14        	adc	$14                     ; 0x14 <__rc4>
    1052: 85 13        	sta	$13                     ; 0x13 <__rc3>
    1054: e6 12        	inc	$12                     ; 0x12 <__rc2>
    1056: d0 02        	bne	$105a <printf+0x336>
    1058: e6 13        	inc	$13                     ; 0x13 <__rc3>
    105a: a6 18        	ldx	$18                     ; 0x18 <__rc8>
    105c: 86 71        	stx	$71                     ; 0x71 <__rc31+0x42>
    105e: a6 19        	ldx	$19                     ; 0x19 <__rc9>
    1060: 86 72        	stx	$72                     ; 0x72 <__rc31+0x43>
    1062: a4 1b        	ldy	$1b                     ; 0x1b <__rc11>
    1064: 80 0e        	bra	$1074 <printf+0x350>
    1066: e6 12        	inc	$12                     ; 0x12 <__rc2>
    1068: d0 02        	bne	$106c <printf+0x348>
    106a: e6 13        	inc	$13                     ; 0x13 <__rc3>
    106c: 64 18        	stz	$18                     ; 0x18 <__rc8>
    106e: 64 71        	stz	$71                     ; 0x71 <__rc31+0x42>
    1070: 64 72        	stz	$72                     ; 0x72 <__rc31+0x43>
    1072: 64 19        	stz	$19                     ; 0x19 <__rc9>
    1074: a5 36        	lda	$36                     ; 0x36 <__rc31+0x7>
    1076: 29 ef        	and	#$ef
    1078: 85 36        	sta	$36                     ; 0x36 <__rc31+0x7>
    107a: 85 65        	sta	$65                     ; 0x65 <__rc31+0x36>
    107c: a2 00        	ldx	#$0
    107e: 86 66        	stx	$66                     ; 0x66 <__rc31+0x37>
    1080: b2 12        	lda	($12)                   ; 0x12 <__rc2>
    1082: a6 18        	ldx	$18                     ; 0x18 <__rc8>
    1084: 86 3c        	stx	$3c                     ; 0x3c <__rc31+0xd>
    1086: a6 19        	ldx	$19                     ; 0x19 <__rc9>
    1088: 86 3b        	stx	$3b                     ; 0x3b <__rc31+0xc>
    108a: a6 12        	ldx	$12                     ; 0x12 <__rc2>
    108c: 86 14        	stx	$14                     ; 0x14 <__rc4>
    108e: a6 13        	ldx	$13                     ; 0x13 <__rc3>
    1090: 86 15        	stx	$15                     ; 0x15 <__rc5>
    1092: e6 14        	inc	$14                     ; 0x14 <__rc4>
    1094: d0 02        	bne	$1098 <printf+0x374>
    1096: e6 15        	inc	$15                     ; 0x15 <__rc5>
    1098: 85 16        	sta	$16                     ; 0x16 <__rc6>
    109a: 38           	sec
    109b: e9 6c        	sbc	#$6c
    109d: 50 02        	bvc	$10a1 <printf+0x37d>
    109f: 49 80        	eor	#$80
    10a1: aa           	tax
    10a2: 10 27        	bpl	$10cb <printf+0x3a7>
    10a4: a6 16        	ldx	$16                     ; 0x16 <__rc6>
    10a6: e0 4c        	cpx	#$4c
    10a8: f0 3f        	beq	$10e9 <printf+0x3c5>
    10aa: e0 68        	cpx	#$68
    10ac: d0 03        	bne	$10b1 <printf+0x38d>
    10ae: 4c 2a 11     	jmp	$112a <printf+0x406>
    10b1: a4 16        	ldy	$16                     ; 0x16 <__rc6>
    10b3: a9 01        	lda	#$1
    10b5: a2 08        	ldx	#$8
    10b7: c0 6a        	cpy	#$6a
    10b9: d0 28        	bne	$10e3 <printf+0x3bf>
    10bb: a4 14        	ldy	$14                     ; 0x14 <__rc4>
    10bd: 84 12        	sty	$12                     ; 0x12 <__rc2>
    10bf: a4 15        	ldy	$15                     ; 0x15 <__rc5>
    10c1: 84 13        	sty	$13                     ; 0x13 <__rc3>
    10c3: a0 08        	ldy	#$8
    10c5: 84 37        	sty	$37                     ; 0x37 <__rc31+0x8>
    10c7: a8           	tay
    10c8: 4c 44 11     	jmp	$1144 <printf+0x420>
    10cb: a6 16        	ldx	$16                     ; 0x16 <__rc6>
    10cd: e0 6c        	cpx	#$6c
    10cf: f0 38        	beq	$1109 <printf+0x3e5>
    10d1: e0 74        	cpx	#$74
    10d3: f0 20        	beq	$10f5 <printf+0x3d1>
    10d5: a9 01        	lda	#$1
    10d7: e0 7a        	cpx	#$7a
    10d9: d0 08        	bne	$10e3 <printf+0x3bf>
    10db: a6 14        	ldx	$14                     ; 0x14 <__rc4>
    10dd: 86 12        	stx	$12                     ; 0x12 <__rc2>
    10df: a6 15        	ldx	$15                     ; 0x15 <__rc5>
    10e1: 86 13        	stx	$13                     ; 0x13 <__rc3>
    10e3: a2 02        	ldx	#$2
    10e5: 86 3e        	stx	$3e                     ; 0x3e <__rc31+0xf>
    10e7: 80 19        	bra	$1102 <printf+0x3de>
    10e9: a5 36        	lda	$36                     ; 0x36 <__rc31+0x7>
    10eb: 09 40        	ora	#$40
    10ed: 85 36        	sta	$36                     ; 0x36 <__rc31+0x7>
    10ef: 85 65        	sta	$65                     ; 0x65 <__rc31+0x36>
    10f1: a2 00        	ldx	#$0
    10f3: 86 66        	stx	$66                     ; 0x66 <__rc31+0x37>
    10f5: a6 14        	ldx	$14                     ; 0x14 <__rc4>
    10f7: 86 12        	stx	$12                     ; 0x12 <__rc2>
    10f9: a6 15        	ldx	$15                     ; 0x15 <__rc5>
    10fb: 86 13        	stx	$13                     ; 0x13 <__rc3>
    10fd: a2 02        	ldx	#$2
    10ff: 86 3e        	stx	$3e                     ; 0x3e <__rc31+0xf>
    1101: 98           	tya
    1102: a0 02        	ldy	#$2
    1104: 84 37        	sty	$37                     ; 0x37 <__rc31+0x8>
    1106: a8           	tay
    1107: 80 3d        	bra	$1146 <printf+0x422>
    1109: b1 12        	lda	($12),y                 ; 0x12 <__rc2>
    110b: a2 04        	ldx	#$4
    110d: c9 6c        	cmp	#$6c
    110f: f0 03        	beq	$1114 <printf+0x3f0>
    1111: 4c 76 11     	jmp	$1176 <printf+0x452>
    1114: a5 12        	lda	$12                     ; 0x12 <__rc2>
    1116: 18           	clc
    1117: 69 02        	adc	#$2
    1119: 85 12        	sta	$12                     ; 0x12 <__rc2>
    111b: a5 13        	lda	$13                     ; 0x13 <__rc3>
    111d: 69 00        	adc	#$0
    111f: 85 13        	sta	$13                     ; 0x13 <__rc3>
    1121: a2 08        	ldx	#$8
    1123: 86 3e        	stx	$3e                     ; 0x3e <__rc31+0xf>
    1125: 98           	tya
    1126: a0 08        	ldy	#$8
    1128: 80 da        	bra	$1104 <printf+0x3e0>
    112a: b1 12        	lda	($12),y                 ; 0x12 <__rc2>
    112c: a2 02        	ldx	#$2
    112e: c9 68        	cmp	#$68
    1130: d0 44        	bne	$1176 <printf+0x452>
    1132: a5 12        	lda	$12                     ; 0x12 <__rc2>
    1134: 18           	clc
    1135: 69 02        	adc	#$2
    1137: 85 12        	sta	$12                     ; 0x12 <__rc2>
    1139: a5 13        	lda	$13                     ; 0x13 <__rc3>
    113b: 69 00        	adc	#$0
    113d: 85 13        	sta	$13                     ; 0x13 <__rc3>
    113f: a2 01        	ldx	#$1
    1141: 86 37        	stx	$37                     ; 0x37 <__rc31+0x8>
    1143: e8           	inx
    1144: 86 3e        	stx	$3e                     ; 0x3e <__rc31+0xf>
    1146: b2 12        	lda	($12)                   ; 0x12 <__rc2>
    1148: a6 12        	ldx	$12                     ; 0x12 <__rc2>
    114a: 86 79        	stx	$79                     ; 0x79 <__rc31+0x4a>
    114c: a6 13        	ldx	$13                     ; 0x13 <__rc3>
    114e: 86 7a        	stx	$7a                     ; 0x7a <__rc31+0x4b>
    1150: 18           	clc
    1151: aa           	tax
    1152: 69 9d        	adc	#$9d
    1154: c9 16        	cmp	#$16
    1156: b0 2e        	bcs	$1186 <printf+0x462>
    1158: 0a           	asl
    1159: aa           	tax
    115a: 7c be 1a     	jmp	($1abe,x)               ; 0x1abe <__heap_default_limit+0xabe>
    115d: a6 34        	ldx	$34                     ; 0x34 <__rc31+0x5>
    115f: 86 7b        	stx	$7b                     ; 0x7b <__rc31+0x4c>
    1161: a6 35        	ldx	$35                     ; 0x35 <__rc31+0x6>
    1163: 86 7c        	stx	$7c                     ; 0x7c <__rc31+0x4d>
    1165: a6 1a        	ldx	$1a                     ; 0x1a <__rc10>
    1167: 86 35        	stx	$35                     ; 0x35 <__rc31+0x6>
    1169: a0 0a        	ldy	#$a
    116b: a2 0a        	ldx	#$a
    116d: 86 34        	stx	$34                     ; 0x34 <__rc31+0x5>
    116f: 84 64        	sty	$64                     ; 0x64 <__rc31+0x35>
    1171: 64 38        	stz	$38                     ; 0x38 <__rc31+0x9>
    1173: 4c 9f 12     	jmp	$129f <printf+0x57b>
    1176: 86 3e        	stx	$3e                     ; 0x3e <__rc31+0xf>
    1178: a6 14        	ldx	$14                     ; 0x14 <__rc4>
    117a: 86 79        	stx	$79                     ; 0x79 <__rc31+0x4a>
    117c: a6 15        	ldx	$15                     ; 0x15 <__rc5>
    117e: 86 7a        	stx	$7a                     ; 0x7a <__rc31+0x4b>
    1180: a6 3e        	ldx	$3e                     ; 0x3e <__rc31+0xf>
    1182: 86 37        	stx	$37                     ; 0x37 <__rc31+0x8>
    1184: 80 ca        	bra	$1150 <printf+0x42c>
    1186: e0 58        	cpx	#$58
    1188: f0 03        	beq	$118d <printf+0x469>
    118a: 4c 27 1a     	jmp	$1a27 <printf+0xd03>
    118d: a6 34        	ldx	$34                     ; 0x34 <__rc31+0x5>
    118f: 86 7b        	stx	$7b                     ; 0x7b <__rc31+0x4c>
    1191: a6 35        	ldx	$35                     ; 0x35 <__rc31+0x6>
    1193: 86 7c        	stx	$7c                     ; 0x7c <__rc31+0x4d>
    1195: a6 1a        	ldx	$1a                     ; 0x1a <__rc10>
    1197: 86 35        	stx	$35                     ; 0x35 <__rc31+0x6>
    1199: a2 10        	ldx	#$10
    119b: 86 64        	stx	$64                     ; 0x64 <__rc31+0x35>
    119d: a9 00        	lda	#$0
    119f: 09 01        	ora	#$1
    11a1: a6 36        	ldx	$36                     ; 0x36 <__rc31+0x7>
    11a3: 80 31        	bra	$11d6 <printf+0x4b2>
    11a5: a6 34        	ldx	$34                     ; 0x34 <__rc31+0x5>
    11a7: 86 7b        	stx	$7b                     ; 0x7b <__rc31+0x4c>
    11a9: a6 35        	ldx	$35                     ; 0x35 <__rc31+0x6>
    11ab: 86 7c        	stx	$7c                     ; 0x7c <__rc31+0x4d>
    11ad: a6 1a        	ldx	$1a                     ; 0x1a <__rc10>
    11af: 86 35        	stx	$35                     ; 0x35 <__rc31+0x6>
    11b1: a2 10        	ldx	#$10
    11b3: 86 64        	stx	$64                     ; 0x64 <__rc31+0x35>
    11b5: a5 36        	lda	$36                     ; 0x36 <__rc31+0x7>
    11b7: 09 84        	ora	#$84
    11b9: 80 14        	bra	$11cf <printf+0x4ab>
    11bb: a6 34        	ldx	$34                     ; 0x34 <__rc31+0x5>
    11bd: 86 7b        	stx	$7b                     ; 0x7b <__rc31+0x4c>
    11bf: a6 35        	ldx	$35                     ; 0x35 <__rc31+0x6>
    11c1: 86 7c        	stx	$7c                     ; 0x7c <__rc31+0x4d>
    11c3: a6 1a        	ldx	$1a                     ; 0x1a <__rc10>
    11c5: 86 35        	stx	$35                     ; 0x35 <__rc31+0x6>
    11c7: a2 10        	ldx	#$10
    11c9: 86 64        	stx	$64                     ; 0x64 <__rc31+0x35>
    11cb: a5 36        	lda	$36                     ; 0x36 <__rc31+0x7>
    11cd: 09 80        	ora	#$80
    11cf: aa           	tax
    11d0: a9 00        	lda	#$0
    11d2: 09 01        	ora	#$1
    11d4: 86 36        	stx	$36                     ; 0x36 <__rc31+0x7>
    11d6: 86 65        	stx	$65                     ; 0x65 <__rc31+0x36>
    11d8: 85 38        	sta	$38                     ; 0x38 <__rc31+0x9>
    11da: 85 66        	sta	$66                     ; 0x66 <__rc31+0x37>
    11dc: a2 10        	ldx	#$10
    11de: 86 34        	stx	$34                     ; 0x34 <__rc31+0x5>
    11e0: 4c 9f 12     	jmp	$129f <printf+0x57b>
    11e3: a5 75        	lda	$75                     ; 0x75 <__rc31+0x46>
    11e5: a6 76        	ldx	$76                     ; 0x76 <__rc31+0x47>
    11e7: 85 12        	sta	$12                     ; 0x12 <__rc2>
    11e9: 86 13        	stx	$13                     ; 0x13 <__rc3>
    11eb: 18           	clc
    11ec: 69 02        	adc	#$2
    11ee: 85 14        	sta	$14                     ; 0x14 <__rc4>
    11f0: 8a           	txa
    11f1: 69 00        	adc	#$0
    11f3: a6 14        	ldx	$14                     ; 0x14 <__rc4>
    11f5: 86 75        	stx	$75                     ; 0x75 <__rc31+0x46>
    11f7: 85 76        	sta	$76                     ; 0x76 <__rc31+0x47>
    11f9: b2 12        	lda	($12)                   ; 0x12 <__rc2>
    11fb: aa           	tax
    11fc: b1 12        	lda	($12),y                 ; 0x12 <__rc2>
    11fe: 86 12        	stx	$12                     ; 0x12 <__rc2>
    1200: 85 13        	sta	$13                     ; 0x13 <__rc3>
    1202: a5 69        	lda	$69                     ; 0x69 <__rc31+0x3a>
    1204: a6 6a        	ldx	$6a                     ; 0x6a <__rc31+0x3b>
    1206: 92 12        	sta	($12)                   ; 0x12 <__rc2>
    1208: 8a           	txa
    1209: 91 12        	sta	($12),y                 ; 0x12 <__rc2>
    120b: 4c 74 12     	jmp	$1274 <printf+0x550>
    120e: a5 75        	lda	$75                     ; 0x75 <__rc31+0x46>
    1210: a6 76        	ldx	$76                     ; 0x76 <__rc31+0x47>
    1212: 85 12        	sta	$12                     ; 0x12 <__rc2>
    1214: 86 13        	stx	$13                     ; 0x13 <__rc3>
    1216: 18           	clc
    1217: 69 02        	adc	#$2
    1219: 85 14        	sta	$14                     ; 0x14 <__rc4>
    121b: 8a           	txa
    121c: 69 00        	adc	#$0
    121e: a6 14        	ldx	$14                     ; 0x14 <__rc4>
    1220: 86 75        	stx	$75                     ; 0x75 <__rc31+0x46>
    1222: 85 76        	sta	$76                     ; 0x76 <__rc31+0x47>
    1224: b2 12        	lda	($12)                   ; 0x12 <__rc2>
    1226: aa           	tax
    1227: b1 12        	lda	($12),y                 ; 0x12 <__rc2>
    1229: 86 12        	stx	$12                     ; 0x12 <__rc2>
    122b: 85 13        	sta	$13                     ; 0x13 <__rc3>
    122d: 80 36        	bra	$1265 <printf+0x541>
    122f: a6 34        	ldx	$34                     ; 0x34 <__rc31+0x5>
    1231: 86 7b        	stx	$7b                     ; 0x7b <__rc31+0x4c>
    1233: a6 35        	ldx	$35                     ; 0x35 <__rc31+0x6>
    1235: 86 7c        	stx	$7c                     ; 0x7c <__rc31+0x4d>
    1237: a6 1a        	ldx	$1a                     ; 0x1a <__rc10>
    1239: 86 35        	stx	$35                     ; 0x35 <__rc31+0x6>
    123b: a0 08        	ldy	#$8
    123d: a2 08        	ldx	#$8
    123f: 80 4e        	bra	$128f <printf+0x56b>
    1241: a5 75        	lda	$75                     ; 0x75 <__rc31+0x46>
    1243: a6 76        	ldx	$76                     ; 0x76 <__rc31+0x47>
    1245: 85 12        	sta	$12                     ; 0x12 <__rc2>
    1247: 86 13        	stx	$13                     ; 0x13 <__rc3>
    1249: 18           	clc
    124a: 69 02        	adc	#$2
    124c: 85 14        	sta	$14                     ; 0x14 <__rc4>
    124e: 8a           	txa
    124f: 69 00        	adc	#$0
    1251: a6 14        	ldx	$14                     ; 0x14 <__rc4>
    1253: 86 75        	stx	$75                     ; 0x75 <__rc31+0x46>
    1255: 85 76        	sta	$76                     ; 0x76 <__rc31+0x47>
    1257: b2 12        	lda	($12)                   ; 0x12 <__rc2>
    1259: 85 57        	sta	$57                     ; 0x57 <__rc31+0x28>
    125b: 64 58        	stz	$58                     ; 0x58 <__rc31+0x29>
    125d: a2 57        	ldx	#$57
    125f: 86 12        	stx	$12                     ; 0x12 <__rc2>
    1261: a2 00        	ldx	#$0
    1263: 86 13        	stx	$13                     ; 0x13 <__rc3>
    1265: a2 64        	ldx	#$64
    1267: 86 14        	stx	$14                     ; 0x14 <__rc4>
    1269: a2 00        	ldx	#$0
    126b: 86 15        	stx	$15                     ; 0x15 <__rc5>
    126d: 84 3a        	sty	$3a                     ; 0x3a <__rc31+0xb>
    126f: 20 15 0c     	jsr	$c15 <_ZN12_GLOBAL__N_112print_stringEPKcP6Status>
    1272: a4 3a        	ldy	$3a                     ; 0x3a <__rc31+0xb>
    1274: a6 79        	ldx	$79                     ; 0x79 <__rc31+0x4a>
    1276: 86 38        	stx	$38                     ; 0x38 <__rc31+0x9>
    1278: a6 7a        	ldx	$7a                     ; 0x7a <__rc31+0x4b>
    127a: 86 39        	stx	$39                     ; 0x39 <__rc31+0xa>
    127c: 4c 0f 1a     	jmp	$1a0f <printf+0xceb>
    127f: a6 34        	ldx	$34                     ; 0x34 <__rc31+0x5>
    1281: 86 7b        	stx	$7b                     ; 0x7b <__rc31+0x4c>
    1283: a6 35        	ldx	$35                     ; 0x35 <__rc31+0x6>
    1285: 86 7c        	stx	$7c                     ; 0x7c <__rc31+0x4d>
    1287: a6 1a        	ldx	$1a                     ; 0x1a <__rc10>
    1289: 86 35        	stx	$35                     ; 0x35 <__rc31+0x6>
    128b: a0 0a        	ldy	#$a
    128d: a2 0a        	ldx	#$a
    128f: 86 34        	stx	$34                     ; 0x34 <__rc31+0x5>
    1291: 84 64        	sty	$64                     ; 0x64 <__rc31+0x35>
    1293: a9 00        	lda	#$0
    1295: 09 01        	ora	#$1
    1297: a6 36        	ldx	$36                     ; 0x36 <__rc31+0x7>
    1299: 86 65        	stx	$65                     ; 0x65 <__rc31+0x36>
    129b: 85 38        	sta	$38                     ; 0x38 <__rc31+0x9>
    129d: 85 66        	sta	$66                     ; 0x66 <__rc31+0x37>
    129f: a5 37        	lda	$37                     ; 0x37 <__rc31+0x8>
    12a1: 85 59        	sta	$59                     ; 0x59 <__rc31+0x2a>
    12a3: a4 75        	ldy	$75                     ; 0x75 <__rc31+0x46>
    12a5: a6 76        	ldx	$76                     ; 0x76 <__rc31+0x47>
    12a7: 86 3f        	stx	$3f                     ; 0x3f <__rc31+0x10>
    12a9: 84 14        	sty	$14                     ; 0x14 <__rc4>
    12ab: 84 3d        	sty	$3d                     ; 0x3d <__rc31+0xe>
    12ad: 86 15        	stx	$15                     ; 0x15 <__rc5>
    12af: a6 7d        	ldx	$7d                     ; 0x7d <__rc31+0x4e>
    12b1: 86 12        	stx	$12                     ; 0x12 <__rc2>
    12b3: a6 7e        	ldx	$7e                     ; 0x7e <__rc31+0x4f>
    12b5: 86 13        	stx	$13                     ; 0x13 <__rc3>
    12b7: a2 00        	ldx	#$0
    12b9: 85 39        	sta	$39                     ; 0x39 <__rc31+0xa>
    12bb: 20 64 1a     	jsr	$1a64 <memcpy>
    12be: 18           	clc
    12bf: a5 3d        	lda	$3d                     ; 0x3d <__rc31+0xe>
    12c1: 65 3e        	adc	$3e                     ; 0x3e <__rc31+0xf>
    12c3: aa           	tax
    12c4: a5 3f        	lda	$3f                     ; 0x3f <__rc31+0x10>
    12c6: 69 00        	adc	#$0
    12c8: 86 75        	stx	$75                     ; 0x75 <__rc31+0x46>
    12ca: 85 76        	sta	$76                     ; 0x76 <__rc31+0x47>
    12cc: a5 38        	lda	$38                     ; 0x38 <__rc31+0x9>
    12ce: 29 01        	and	#$1
    12d0: a0 00        	ldy	#$0
    12d2: aa           	tax
    12d3: d0 4a        	bne	$131f <printf+0x5fb>
    12d5: a6 39        	ldx	$39                     ; 0x39 <__rc31+0xa>
    12d7: b5 59        	lda	$59,x                   ; 0x59 <__rc31+0x2a>
    12d9: aa           	tax
    12da: a5 35        	lda	$35                     ; 0x35 <__rc31+0x6>
    12dc: 85 17        	sta	$17                     ; 0x17 <__rc7>
    12de: a5 3a        	lda	$3a                     ; 0x3a <__rc31+0xb>
    12e0: 85 1a        	sta	$1a                     ; 0x1a <__rc10>
    12e2: a5 3c        	lda	$3c                     ; 0x3c <__rc31+0xd>
    12e4: 85 3a        	sta	$3a                     ; 0x3a <__rc31+0xb>
    12e6: 8a           	txa
    12e7: 10 42        	bpl	$132b <printf+0x607>
    12e9: a2 00        	ldx	#$0
    12eb: 64 12        	stz	$12                     ; 0x12 <__rc2>
    12ed: a9 00        	lda	#$0
    12ef: 38           	sec
    12f0: f5 5a        	sbc	$5a,x                   ; 0x5a <__rc31+0x2b>
    12f2: a0 01        	ldy	#$1
    12f4: 84 14        	sty	$14                     ; 0x14 <__rc4>
    12f6: 88           	dey
    12f7: b0 02        	bcs	$12fb <printf+0x5d7>
    12f9: a0 01        	ldy	#$1
    12fb: 38           	sec
    12fc: e5 12        	sbc	$12                     ; 0x12 <__rc2>
    12fe: 85 13        	sta	$13                     ; 0x13 <__rc3>
    1300: 64 12        	stz	$12                     ; 0x12 <__rc2>
    1302: b0 04        	bcs	$1308 <printf+0x5e4>
    1304: a5 14        	lda	$14                     ; 0x14 <__rc4>
    1306: 85 12        	sta	$12                     ; 0x12 <__rc2>
    1308: 98           	tya
    1309: 05 12        	ora	$12                     ; 0x12 <__rc2>
    130b: 85 12        	sta	$12                     ; 0x12 <__rc2>
    130d: a5 13        	lda	$13                     ; 0x13 <__rc3>
    130f: 9d 5a 00     	sta	$5a,x                   ; 0x5a <__rc31+0x2b>
    1312: e8           	inx
    1313: 86 13        	stx	$13                     ; 0x13 <__rc3>
    1315: a4 37        	ldy	$37                     ; 0x37 <__rc31+0x8>
    1317: c4 13        	cpy	$13                     ; 0x13 <__rc3>
    1319: d0 d2        	bne	$12ed <printf+0x5c9>
    131b: a0 01        	ldy	#$1
    131d: 80 0c        	bra	$132b <printf+0x607>
    131f: a6 35        	ldx	$35                     ; 0x35 <__rc31+0x6>
    1321: 86 17        	stx	$17                     ; 0x17 <__rc7>
    1323: a6 3a        	ldx	$3a                     ; 0x3a <__rc31+0xb>
    1325: 86 1a        	stx	$1a                     ; 0x1a <__rc10>
    1327: a6 3c        	ldx	$3c                     ; 0x3c <__rc31+0xd>
    1329: 86 3a        	stx	$3a                     ; 0x3a <__rc31+0xb>
    132b: 84 18        	sty	$18                     ; 0x18 <__rc8>
    132d: a5 37        	lda	$37                     ; 0x37 <__rc31+0x8>
    132f: 0a           	asl
    1330: 0a           	asl
    1331: 0a           	asl
    1332: 85 12        	sta	$12                     ; 0x12 <__rc2>
    1334: a2 00        	ldx	#$0
    1336: 8a           	txa
    1337: 4c ee 13     	jmp	$13ee <printf+0x6ca>
    133a: a4 13        	ldy	$13                     ; 0x13 <__rc3>
    133c: 99 42 00     	sta	$42,y                   ; 0x42 <__rc31+0x13>
    133f: a4 15        	ldy	$15                     ; 0x15 <__rc5>
    1341: c4 13        	cpy	$13                     ; 0x13 <__rc3>
    1343: f0 38        	beq	$137d <printf+0x659>
    1345: e6 13        	inc	$13                     ; 0x13 <__rc3>
    1347: a4 13        	ldy	$13                     ; 0x13 <__rc3>
    1349: b9 42 00     	lda	$42,y                   ; 0x42 <__rc31+0x13>
    134c: 0a           	asl
    134d: e0 00        	cpx	#$0
    134f: f0 02        	beq	$1353 <printf+0x62f>
    1351: 09 01        	ora	#$1
    1353: a4 34        	ldy	$34                     ; 0x34 <__rc31+0x5>
    1355: 84 14        	sty	$14                     ; 0x14 <__rc4>
    1357: c5 14        	cmp	$14                     ; 0x14 <__rc4>
    1359: a2 01        	ldx	#$1
    135b: b0 02        	bcs	$135f <printf+0x63b>
    135d: a2 00        	ldx	#$0
    135f: 90 d9        	bcc	$133a <printf+0x616>
    1361: 84 14        	sty	$14                     ; 0x14 <__rc4>
    1363: 38           	sec
    1364: e5 14        	sbc	$14                     ; 0x14 <__rc4>
    1366: a4 13        	ldy	$13                     ; 0x13 <__rc3>
    1368: 99 42 00     	sta	$42,y                   ; 0x42 <__rc31+0x13>
    136b: a4 15        	ldy	$15                     ; 0x15 <__rc5>
    136d: c4 13        	cpy	$13                     ; 0x13 <__rc3>
    136f: d0 d4        	bne	$1345 <printf+0x621>
    1371: a4 35        	ldy	$35                     ; 0x35 <__rc31+0x6>
    1373: a6 35        	ldx	$35                     ; 0x35 <__rc31+0x6>
    1375: e8           	inx
    1376: a9 01        	lda	#$1
    1378: 99 42 00     	sta	$42,y                   ; 0x42 <__rc31+0x13>
    137b: 86 35        	stx	$35                     ; 0x35 <__rc31+0x6>
    137d: a6 37        	ldx	$37                     ; 0x37 <__rc31+0x8>
    137f: b5 59        	lda	$59,x                   ; 0x59 <__rc31+0x2a>
    1381: aa           	tax
    1382: 10 41        	bpl	$13c5 <printf+0x6a1>
    1384: a5 35        	lda	$35                     ; 0x35 <__rc31+0x6>
    1386: f0 2f        	beq	$13b7 <printf+0x693>
    1388: a2 00        	ldx	#$0
    138a: a4 34        	ldy	$34                     ; 0x34 <__rc31+0x5>
    138c: 84 14        	sty	$14                     ; 0x14 <__rc4>
    138e: b5 42        	lda	$42,x                   ; 0x42 <__rc31+0x13>
    1390: 1a           	inc
    1391: f6 42        	inc	$42,x                   ; 0x42 <__rc31+0x13>
    1393: c5 14        	cmp	$14                     ; 0x14 <__rc4>
    1395: 90 2e        	bcc	$13c5 <printf+0x6a1>
    1397: a4 34        	ldy	$34                     ; 0x34 <__rc31+0x5>
    1399: 84 13        	sty	$13                     ; 0x13 <__rc3>
    139b: 38           	sec
    139c: e5 13        	sbc	$13                     ; 0x13 <__rc3>
    139e: 9d 42 00     	sta	$42,x                   ; 0x42 <__rc31+0x13>
    13a1: e8           	inx
    13a2: 86 13        	stx	$13                     ; 0x13 <__rc3>
    13a4: a4 35        	ldy	$35                     ; 0x35 <__rc31+0x6>
    13a6: c4 13        	cpy	$13                     ; 0x13 <__rc3>
    13a8: d0 e4        	bne	$138e <printf+0x66a>
    13aa: 80 0d        	bra	$13b9 <printf+0x695>
    13ac: a6 37        	ldx	$37                     ; 0x37 <__rc31+0x8>
    13ae: b5 59        	lda	$59,x                   ; 0x59 <__rc31+0x2a>
    13b0: aa           	tax
    13b1: 64 35        	stz	$35                     ; 0x35 <__rc31+0x6>
    13b3: 30 04        	bmi	$13b9 <printf+0x695>
    13b5: 80 0e        	bra	$13c5 <printf+0x6a1>
    13b7: 64 35        	stz	$35                     ; 0x35 <__rc31+0x6>
    13b9: a4 35        	ldy	$35                     ; 0x35 <__rc31+0x6>
    13bb: a6 35        	ldx	$35                     ; 0x35 <__rc31+0x6>
    13bd: e8           	inx
    13be: a9 01        	lda	#$1
    13c0: 99 42 00     	sta	$42,y                   ; 0x42 <__rc31+0x13>
    13c3: 86 35        	stx	$35                     ; 0x35 <__rc31+0x6>
    13c5: a2 01        	ldx	#$1
    13c7: 86 16        	stx	$16                     ; 0x16 <__rc6>
    13c9: 64 13        	stz	$13                     ; 0x13 <__rc3>
    13cb: ca           	dex
    13cc: a4 37        	ldy	$37                     ; 0x37 <__rc31+0x8>
    13ce: b5 5a        	lda	$5a,x                   ; 0x5a <__rc31+0x2b>
    13d0: 0a           	asl
    13d1: 64 14        	stz	$14                     ; 0x14 <__rc4>
    13d3: 26 14        	rol	$14                     ; 0x14 <__rc4>
    13d5: 05 13        	ora	$13                     ; 0x13 <__rc3>
    13d7: 9d 5a 00     	sta	$5a,x                   ; 0x5a <__rc31+0x2b>
    13da: e8           	inx
    13db: 86 15        	stx	$15                     ; 0x15 <__rc5>
    13dd: a5 14        	lda	$14                     ; 0x14 <__rc4>
    13df: 85 13        	sta	$13                     ; 0x13 <__rc3>
    13e1: c4 15        	cpy	$15                     ; 0x15 <__rc5>
    13e3: d0 e9        	bne	$13ce <printf+0x6aa>
    13e5: a5 19        	lda	$19                     ; 0x19 <__rc9>
    13e7: 1a           	inc
    13e8: c5 12        	cmp	$12                     ; 0x12 <__rc2>
    13ea: a6 35        	ldx	$35                     ; 0x35 <__rc31+0x6>
    13ec: b0 12        	bcs	$1400 <printf+0x6dc>
    13ee: 85 19        	sta	$19                     ; 0x19 <__rc9>
    13f0: 8a           	txa
    13f1: f0 b9        	beq	$13ac <printf+0x688>
    13f3: 8a           	txa
    13f4: 86 35        	stx	$35                     ; 0x35 <__rc31+0x6>
    13f6: 3a           	dec
    13f7: 85 15        	sta	$15                     ; 0x15 <__rc5>
    13f9: a2 00        	ldx	#$0
    13fb: 64 13        	stz	$13                     ; 0x13 <__rc3>
    13fd: 4c 47 13     	jmp	$1347 <printf+0x623>
    1400: a4 16        	ldy	$16                     ; 0x16 <__rc6>
    1402: a5 3b        	lda	$3b                     ; 0x3b <__rc31+0xc>
    1404: 10 08        	bpl	$140e <printf+0x6ea>
    1406: a2 01        	ldx	#$1
    1408: 64 3b        	stz	$3b                     ; 0x3b <__rc31+0xc>
    140a: 86 3a        	stx	$3a                     ; 0x3a <__rc31+0xb>
    140c: a6 35        	ldx	$35                     ; 0x35 <__rc31+0x6>
    140e: a5 79        	lda	$79                     ; 0x79 <__rc31+0x4a>
    1410: 85 38        	sta	$38                     ; 0x38 <__rc31+0x9>
    1412: a5 7a        	lda	$7a                     ; 0x7a <__rc31+0x4b>
    1414: 85 39        	sta	$39                     ; 0x39 <__rc31+0xa>
    1416: a5 36        	lda	$36                     ; 0x36 <__rc31+0x7>
    1418: 29 04        	and	#$4
    141a: f0 2b        	beq	$1447 <printf+0x723>
    141c: a5 34        	lda	$34                     ; 0x34 <__rc31+0x5>
    141e: c9 10        	cmp	#$10
    1420: f0 14        	beq	$1436 <printf+0x712>
    1422: c9 08        	cmp	#$8
    1424: d0 21        	bne	$1447 <printf+0x723>
    1426: a2 00        	ldx	#$0
    1428: e4 3b        	cpx	$3b                     ; 0x3b <__rc31+0xc>
    142a: f0 03        	beq	$142f <printf+0x70b>
    142c: 4c 2c 1a     	jmp	$1a2c <printf+0xd08>
    142f: a6 35        	ldx	$35                     ; 0x35 <__rc31+0x6>
    1431: e4 3a        	cpx	$3a                     ; 0x3a <__rc31+0xb>
    1433: 4c 2e 1a     	jmp	$1a2e <printf+0xd0a>
    1436: 8a           	txa
    1437: f0 0e        	beq	$1447 <printf+0x723>
    1439: a5 36        	lda	$36                     ; 0x36 <__rc31+0x7>
    143b: 29 80        	and	#$80
    143d: d0 03        	bne	$1442 <printf+0x71e>
    143f: 4c 47 1a     	jmp	$1a47 <printf+0xd23>
    1442: a2 78        	ldx	#$78
    1444: 4c 49 1a     	jmp	$1a49 <printf+0xd25>
    1447: a6 36        	ldx	$36                     ; 0x36 <__rc31+0x7>
    1449: a9 2d        	lda	#$2d
    144b: e6 18        	inc	$18                     ; 0x18 <__rc8>
    144d: c6 18        	dec	$18                     ; 0x18 <__rc8>
    144f: f0 04        	beq	$1455 <printf+0x731>
    1451: 85 34        	sta	$34                     ; 0x34 <__rc31+0x5>
    1453: 80 20        	bra	$1475 <printf+0x751>
    1455: 86 12        	stx	$12                     ; 0x12 <__rc2>
    1457: 8a           	txa
    1458: 29 02        	and	#$2
    145a: a2 2b        	ldx	#$2b
    145c: c9 00        	cmp	#$0
    145e: d0 13        	bne	$1473 <printf+0x74f>
    1460: a5 12        	lda	$12                     ; 0x12 <__rc2>
    1462: 29 08        	and	#$8
    1464: d0 0b        	bne	$1471 <printf+0x74d>
    1466: a2 01        	ldx	#$1
    1468: 86 3d        	stx	$3d                     ; 0x3d <__rc31+0xe>
    146a: a9 00        	lda	#$0
    146c: aa           	tax
    146d: 86 37        	stx	$37                     ; 0x37 <__rc31+0x8>
    146f: 80 0b        	bra	$147c <printf+0x758>
    1471: a2 20        	ldx	#$20
    1473: 86 34        	stx	$34                     ; 0x34 <__rc31+0x5>
    1475: a2 00        	ldx	#$0
    1477: 86 3d        	stx	$3d                     ; 0x3d <__rc31+0xe>
    1479: 86 37        	stx	$37                     ; 0x37 <__rc31+0x8>
    147b: 98           	tya
    147c: a6 3b        	ldx	$3b                     ; 0x3b <__rc31+0xc>
    147e: d0 06        	bne	$1486 <printf+0x762>
    1480: a6 3a        	ldx	$3a                     ; 0x3a <__rc31+0xb>
    1482: e4 35        	cpx	$35                     ; 0x35 <__rc31+0x6>
    1484: 80 04        	bra	$148a <printf+0x766>
    1486: a6 3b        	ldx	$3b                     ; 0x3b <__rc31+0xc>
    1488: e0 00        	cpx	#$0
    148a: a6 3a        	ldx	$3a                     ; 0x3a <__rc31+0xb>
    148c: 86 12        	stx	$12                     ; 0x12 <__rc2>
    148e: a6 3b        	ldx	$3b                     ; 0x3b <__rc31+0xc>
    1490: 86 13        	stx	$13                     ; 0x13 <__rc3>
    1492: b0 06        	bcs	$149a <printf+0x776>
    1494: a6 35        	ldx	$35                     ; 0x35 <__rc31+0x6>
    1496: 86 12        	stx	$12                     ; 0x12 <__rc2>
    1498: 64 13        	stz	$13                     ; 0x13 <__rc3>
    149a: 85 18        	sta	$18                     ; 0x18 <__rc8>
    149c: 18           	clc
    149d: 65 12        	adc	$12                     ; 0x12 <__rc2>
    149f: aa           	tax
    14a0: 85 14        	sta	$14                     ; 0x14 <__rc4>
    14a2: a5 13        	lda	$13                     ; 0x13 <__rc3>
    14a4: 69 00        	adc	#$0
    14a6: 85 15        	sta	$15                     ; 0x15 <__rc5>
    14a8: c5 1a        	cmp	$1a                     ; 0x1a <__rc10>
    14aa: d0 08        	bne	$14b4 <printf+0x790>
    14ac: a5 1a        	lda	$1a                     ; 0x1a <__rc10>
    14ae: 85 16        	sta	$16                     ; 0x16 <__rc6>
    14b0: e4 17        	cpx	$17                     ; 0x17 <__rc7>
    14b2: 80 06        	bra	$14ba <printf+0x796>
    14b4: a6 1a        	ldx	$1a                     ; 0x1a <__rc10>
    14b6: 86 16        	stx	$16                     ; 0x16 <__rc6>
    14b8: c5 1a        	cmp	$1a                     ; 0x1a <__rc10>
    14ba: 64 3e        	stz	$3e                     ; 0x3e <__rc31+0xf>
    14bc: 64 3f        	stz	$3f                     ; 0x3f <__rc31+0x10>
    14be: a6 35        	ldx	$35                     ; 0x35 <__rc31+0x6>
    14c0: 90 03        	bcc	$14c5 <printf+0x7a1>
    14c2: 4c 80 15     	jmp	$1580 <printf+0x85c>
    14c5: a5 36        	lda	$36                     ; 0x36 <__rc31+0x7>
    14c7: 29 11        	and	#$11
    14c9: f0 10        	beq	$14db <printf+0x7b7>
    14cb: a5 17        	lda	$17                     ; 0x17 <__rc7>
    14cd: 38           	sec
    14ce: e5 14        	sbc	$14                     ; 0x14 <__rc4>
    14d0: 85 3e        	sta	$3e                     ; 0x3e <__rc31+0xf>
    14d2: a5 1a        	lda	$1a                     ; 0x1a <__rc10>
    14d4: e5 15        	sbc	$15                     ; 0x15 <__rc5>
    14d6: 85 3f        	sta	$3f                     ; 0x3f <__rc31+0x10>
    14d8: 4c 80 15     	jmp	$1580 <printf+0x85c>
    14db: a2 01        	ldx	#$1
    14dd: 86 3c        	stx	$3c                     ; 0x3c <__rc31+0xd>
    14df: a6 69        	ldx	$69                     ; 0x69 <__rc31+0x3a>
    14e1: 86 14        	stx	$14                     ; 0x14 <__rc4>
    14e3: 38           	sec
    14e4: a5 18        	lda	$18                     ; 0x18 <__rc8>
    14e6: e5 17        	sbc	$17                     ; 0x17 <__rc7>
    14e8: aa           	tax
    14e9: a9 00        	lda	#$0
    14eb: e5 16        	sbc	$16                     ; 0x16 <__rc6>
    14ed: a8           	tay
    14ee: 18           	clc
    14ef: 8a           	txa
    14f0: 65 12        	adc	$12                     ; 0x12 <__rc2>
    14f2: 85 36        	sta	$36                     ; 0x36 <__rc31+0x7>
    14f4: 98           	tya
    14f5: 65 13        	adc	$13                     ; 0x13 <__rc3>
    14f7: a4 6a        	ldy	$6a                     ; 0x6a <__rc31+0x3b>
    14f9: 4c 60 15     	jmp	$1560 <printf+0x83c>
    14fc: 84 15        	sty	$15                     ; 0x15 <__rc5>
    14fe: c4 68        	cpy	$68                     ; 0x68 <__rc31+0x39>
    1500: b0 40        	bcs	$1542 <printf+0x81e>
    1502: a6 74        	ldx	$74                     ; 0x74 <__rc31+0x45>
    1504: a0 00        	ldy	#$0
    1506: 84 12        	sty	$12                     ; 0x12 <__rc2>
    1508: a0 00        	ldy	#$0
    150a: 84 13        	sty	$13                     ; 0x13 <__rc3>
    150c: e4 13        	cpx	$13                     ; 0x13 <__rc3>
    150e: d0 1d        	bne	$152d <printf+0x809>
    1510: a6 73        	ldx	$73                     ; 0x73 <__rc31+0x44>
    1512: e4 12        	cpx	$12                     ; 0x12 <__rc2>
    1514: d0 17        	bne	$152d <printf+0x809>
    1516: a2 01        	ldx	#$1
    1518: 86 3c        	stx	$3c                     ; 0x3c <__rc31+0xd>
    151a: 18           	clc
    151b: a5 14        	lda	$14                     ; 0x14 <__rc4>
    151d: 65 6d        	adc	$6d                     ; 0x6d <__rc31+0x3e>
    151f: 85 12        	sta	$12                     ; 0x12 <__rc2>
    1521: a5 15        	lda	$15                     ; 0x15 <__rc5>
    1523: 65 6e        	adc	$6e                     ; 0x6e <__rc31+0x3f>
    1525: 85 13        	sta	$13                     ; 0x13 <__rc3>
    1527: a9 20        	lda	#$20
    1529: 92 12        	sta	($12)                   ; 0x12 <__rc2>
    152b: 80 13        	bra	$1540 <printf+0x81c>
    152d: a2 01        	ldx	#$1
    152f: 86 3c        	stx	$3c                     ; 0x3c <__rc31+0xd>
    1531: a2 20        	ldx	#$20
    1533: 86 32        	stx	$32                     ; 0x32 <__putchar.s>
    1535: a2 32        	ldx	#$32
    1537: 86 12        	stx	$12                     ; 0x12 <__rc2>
    1539: a2 00        	ldx	#$0
    153b: 86 13        	stx	$13                     ; 0x13 <__rc3>
    153d: 20 2c 09     	jsr	$92c <textPrint>
    1540: a5 3e        	lda	$3e                     ; 0x3e <__rc31+0xf>
    1542: a6 69        	ldx	$69                     ; 0x69 <__rc31+0x3a>
    1544: a4 6a        	ldy	$6a                     ; 0x6a <__rc31+0x3b>
    1546: e8           	inx
    1547: d0 01        	bne	$154a <printf+0x826>
    1549: c8           	iny
    154a: 86 14        	stx	$14                     ; 0x14 <__rc4>
    154c: 86 69        	stx	$69                     ; 0x69 <__rc31+0x3a>
    154e: 84 6a        	sty	$6a                     ; 0x6a <__rc31+0x3b>
    1550: a6 36        	ldx	$36                     ; 0x36 <__rc31+0x7>
    1552: e8           	inx
    1553: d0 01        	bne	$1556 <printf+0x832>
    1555: 1a           	inc
    1556: 86 36        	stx	$36                     ; 0x36 <__rc31+0x7>
    1558: c9 00        	cmp	#$0
    155a: d0 04        	bne	$1560 <printf+0x83c>
    155c: e0 00        	cpx	#$0
    155e: f0 18        	beq	$1578 <printf+0x854>
    1560: 85 3e        	sta	$3e                     ; 0x3e <__rc31+0xf>
    1562: c4 68        	cpy	$68                     ; 0x68 <__rc31+0x39>
    1564: f0 03        	beq	$1569 <printf+0x845>
    1566: 4c fc 14     	jmp	$14fc <printf+0x7d8>
    1569: 84 15        	sty	$15                     ; 0x15 <__rc5>
    156b: a6 67        	ldx	$67                     ; 0x67 <__rc31+0x38>
    156d: 86 12        	stx	$12                     ; 0x12 <__rc2>
    156f: a6 14        	ldx	$14                     ; 0x14 <__rc4>
    1571: e4 12        	cpx	$12                     ; 0x12 <__rc2>
    1573: b0 cd        	bcs	$1542 <printf+0x81e>
    1575: 4c 02 15     	jmp	$1502 <printf+0x7de>
    1578: 64 3e        	stz	$3e                     ; 0x3e <__rc31+0xf>
    157a: 64 3f        	stz	$3f                     ; 0x3f <__rc31+0x10>
    157c: a6 35        	ldx	$35                     ; 0x35 <__rc31+0x6>
    157e: a4 3c        	ldy	$3c                     ; 0x3c <__rc31+0xd>
    1580: a5 3d        	lda	$3d                     ; 0x3d <__rc31+0xe>
    1582: f0 03        	beq	$1587 <printf+0x863>
    1584: 4c f1 15     	jmp	$15f1 <printf+0x8cd>
    1587: a6 69        	ldx	$69                     ; 0x69 <__rc31+0x3a>
    1589: a5 6a        	lda	$6a                     ; 0x6a <__rc31+0x3b>
    158b: c5 68        	cmp	$68                     ; 0x68 <__rc31+0x39>
    158d: d0 10        	bne	$159f <printf+0x87b>
    158f: 86 13        	stx	$13                     ; 0x13 <__rc3>
    1591: a6 67        	ldx	$67                     ; 0x67 <__rc31+0x38>
    1593: 86 12        	stx	$12                     ; 0x12 <__rc2>
    1595: a6 13        	ldx	$13                     ; 0x13 <__rc3>
    1597: 86 15        	stx	$15                     ; 0x15 <__rc5>
    1599: e4 12        	cpx	$12                     ; 0x12 <__rc2>
    159b: 90 08        	bcc	$15a5 <printf+0x881>
    159d: 80 4a        	bra	$15e9 <printf+0x8c5>
    159f: 86 15        	stx	$15                     ; 0x15 <__rc5>
    15a1: c5 68        	cmp	$68                     ; 0x68 <__rc31+0x39>
    15a3: b0 44        	bcs	$15e9 <printf+0x8c5>
    15a5: a2 01        	ldx	#$1
    15a7: 86 14        	stx	$14                     ; 0x14 <__rc4>
    15a9: a6 74        	ldx	$74                     ; 0x74 <__rc31+0x45>
    15ab: a0 00        	ldy	#$0
    15ad: 84 12        	sty	$12                     ; 0x12 <__rc2>
    15af: a0 00        	ldy	#$0
    15b1: 84 13        	sty	$13                     ; 0x13 <__rc3>
    15b3: e4 13        	cpx	$13                     ; 0x13 <__rc3>
    15b5: d0 1d        	bne	$15d4 <printf+0x8b0>
    15b7: a6 73        	ldx	$73                     ; 0x73 <__rc31+0x44>
    15b9: e4 12        	cpx	$12                     ; 0x12 <__rc2>
    15bb: d0 17        	bne	$15d4 <printf+0x8b0>
    15bd: a4 14        	ldy	$14                     ; 0x14 <__rc4>
    15bf: 18           	clc
    15c0: 85 16        	sta	$16                     ; 0x16 <__rc6>
    15c2: a5 15        	lda	$15                     ; 0x15 <__rc5>
    15c4: 65 6d        	adc	$6d                     ; 0x6d <__rc31+0x3e>
    15c6: 85 12        	sta	$12                     ; 0x12 <__rc2>
    15c8: a5 16        	lda	$16                     ; 0x16 <__rc6>
    15ca: 65 6e        	adc	$6e                     ; 0x6e <__rc31+0x3f>
    15cc: 85 13        	sta	$13                     ; 0x13 <__rc3>
    15ce: a5 34        	lda	$34                     ; 0x34 <__rc31+0x5>
    15d0: 92 12        	sta	($12)                   ; 0x12 <__rc2>
    15d2: 80 15        	bra	$15e9 <printf+0x8c5>
    15d4: a2 01        	ldx	#$1
    15d6: 86 3c        	stx	$3c                     ; 0x3c <__rc31+0xd>
    15d8: a6 34        	ldx	$34                     ; 0x34 <__rc31+0x5>
    15da: 86 32        	stx	$32                     ; 0x32 <__putchar.s>
    15dc: a2 32        	ldx	#$32
    15de: 86 12        	stx	$12                     ; 0x12 <__rc2>
    15e0: a2 00        	ldx	#$0
    15e2: 86 13        	stx	$13                     ; 0x13 <__rc3>
    15e4: 20 2c 09     	jsr	$92c <textPrint>
    15e7: a4 3c        	ldy	$3c                     ; 0x3c <__rc31+0xd>
    15e9: e6 69        	inc	$69                     ; 0x69 <__rc31+0x3a>
    15eb: d0 02        	bne	$15ef <printf+0x8cb>
    15ed: e6 6a        	inc	$6a                     ; 0x6a <__rc31+0x3b>
    15ef: a6 35        	ldx	$35                     ; 0x35 <__rc31+0x6>
    15f1: a5 37        	lda	$37                     ; 0x37 <__rc31+0x8>
    15f3: d0 03        	bne	$15f8 <printf+0x8d4>
    15f5: 4c 62 16     	jmp	$1662 <printf+0x93e>
    15f8: a6 69        	ldx	$69                     ; 0x69 <__rc31+0x3a>
    15fa: a5 6a        	lda	$6a                     ; 0x6a <__rc31+0x3b>
    15fc: c5 68        	cmp	$68                     ; 0x68 <__rc31+0x39>
    15fe: d0 10        	bne	$1610 <printf+0x8ec>
    1600: 86 13        	stx	$13                     ; 0x13 <__rc3>
    1602: a6 67        	ldx	$67                     ; 0x67 <__rc31+0x38>
    1604: 86 12        	stx	$12                     ; 0x12 <__rc2>
    1606: a6 13        	ldx	$13                     ; 0x13 <__rc3>
    1608: 86 15        	stx	$15                     ; 0x15 <__rc5>
    160a: e4 12        	cpx	$12                     ; 0x12 <__rc2>
    160c: 90 08        	bcc	$1616 <printf+0x8f2>
    160e: 80 4a        	bra	$165a <printf+0x936>
    1610: 86 15        	stx	$15                     ; 0x15 <__rc5>
    1612: c5 68        	cmp	$68                     ; 0x68 <__rc31+0x39>
    1614: b0 44        	bcs	$165a <printf+0x936>
    1616: a2 01        	ldx	#$1
    1618: 86 14        	stx	$14                     ; 0x14 <__rc4>
    161a: a6 74        	ldx	$74                     ; 0x74 <__rc31+0x45>
    161c: a0 00        	ldy	#$0
    161e: 84 12        	sty	$12                     ; 0x12 <__rc2>
    1620: a0 00        	ldy	#$0
    1622: 84 13        	sty	$13                     ; 0x13 <__rc3>
    1624: e4 13        	cpx	$13                     ; 0x13 <__rc3>
    1626: d0 1d        	bne	$1645 <printf+0x921>
    1628: a6 73        	ldx	$73                     ; 0x73 <__rc31+0x44>
    162a: e4 12        	cpx	$12                     ; 0x12 <__rc2>
    162c: d0 17        	bne	$1645 <printf+0x921>
    162e: a4 14        	ldy	$14                     ; 0x14 <__rc4>
    1630: 18           	clc
    1631: 85 16        	sta	$16                     ; 0x16 <__rc6>
    1633: a5 15        	lda	$15                     ; 0x15 <__rc5>
    1635: 65 6d        	adc	$6d                     ; 0x6d <__rc31+0x3e>
    1637: 85 12        	sta	$12                     ; 0x12 <__rc2>
    1639: a5 16        	lda	$16                     ; 0x16 <__rc6>
    163b: 65 6e        	adc	$6e                     ; 0x6e <__rc31+0x3f>
    163d: 85 13        	sta	$13                     ; 0x13 <__rc3>
    163f: a5 79        	lda	$79                     ; 0x79 <__rc31+0x4a>
    1641: 92 12        	sta	($12)                   ; 0x12 <__rc2>
    1643: 80 15        	bra	$165a <printf+0x936>
    1645: a2 01        	ldx	#$1
    1647: 86 3c        	stx	$3c                     ; 0x3c <__rc31+0xd>
    1649: a6 79        	ldx	$79                     ; 0x79 <__rc31+0x4a>
    164b: 86 32        	stx	$32                     ; 0x32 <__putchar.s>
    164d: a2 32        	ldx	#$32
    164f: 86 12        	stx	$12                     ; 0x12 <__rc2>
    1651: a2 00        	ldx	#$0
    1653: 86 13        	stx	$13                     ; 0x13 <__rc3>
    1655: 20 2c 09     	jsr	$92c <textPrint>
    1658: a4 3c        	ldy	$3c                     ; 0x3c <__rc31+0xd>
    165a: e6 69        	inc	$69                     ; 0x69 <__rc31+0x3a>
    165c: d0 02        	bne	$1660 <printf+0x93c>
    165e: e6 6a        	inc	$6a                     ; 0x6a <__rc31+0x3b>
    1660: a6 35        	ldx	$35                     ; 0x35 <__rc31+0x6>
    1662: a9 10        	lda	#$10
    1664: 25 65        	and	$65                     ; 0x65 <__rc31+0x36>
    1666: d0 03        	bne	$166b <printf+0x947>
    1668: 4c 20 17     	jmp	$1720 <printf+0x9fc>
    166b: a5 65        	lda	$65                     ; 0x65 <__rc31+0x36>
    166d: 29 01        	and	#$1
    166f: f0 03        	beq	$1674 <printf+0x950>
    1671: 4c 20 17     	jmp	$1720 <printf+0x9fc>
    1674: a5 3e        	lda	$3e                     ; 0x3e <__rc31+0xf>
    1676: 5a           	phy
    1677: a4 3f        	ldy	$3f                     ; 0x3f <__rc31+0x10>
    1679: 84 12        	sty	$12                     ; 0x12 <__rc2>
    167b: 7a           	ply
    167c: e6 12        	inc	$12                     ; 0x12 <__rc2>
    167e: c6 12        	dec	$12                     ; 0x12 <__rc2>
    1680: d0 07        	bne	$1689 <printf+0x965>
    1682: c9 00        	cmp	#$0
    1684: d0 03        	bne	$1689 <printf+0x965>
    1686: 4c 5c 1a     	jmp	$1a5c <printf+0xd38>
    1689: a6 69        	ldx	$69                     ; 0x69 <__rc31+0x3a>
    168b: 86 15        	stx	$15                     ; 0x15 <__rc5>
    168d: a5 6a        	lda	$6a                     ; 0x6a <__rc31+0x3b>
    168f: 4c 06 17     	jmp	$1706 <printf+0x9e2>
    1692: c5 68        	cmp	$68                     ; 0x68 <__rc31+0x39>
    1694: b0 42        	bcs	$16d8 <printf+0x9b4>
    1696: a2 01        	ldx	#$1
    1698: 86 14        	stx	$14                     ; 0x14 <__rc4>
    169a: a6 74        	ldx	$74                     ; 0x74 <__rc31+0x45>
    169c: a0 00        	ldy	#$0
    169e: 84 12        	sty	$12                     ; 0x12 <__rc2>
    16a0: a0 00        	ldy	#$0
    16a2: 84 13        	sty	$13                     ; 0x13 <__rc3>
    16a4: e4 13        	cpx	$13                     ; 0x13 <__rc3>
    16a6: d0 1b        	bne	$16c3 <printf+0x99f>
    16a8: a6 73        	ldx	$73                     ; 0x73 <__rc31+0x44>
    16aa: e4 12        	cpx	$12                     ; 0x12 <__rc2>
    16ac: d0 15        	bne	$16c3 <printf+0x99f>
    16ae: a4 14        	ldy	$14                     ; 0x14 <__rc4>
    16b0: 18           	clc
    16b1: aa           	tax
    16b2: a5 15        	lda	$15                     ; 0x15 <__rc5>
    16b4: 65 6d        	adc	$6d                     ; 0x6d <__rc31+0x3e>
    16b6: 85 12        	sta	$12                     ; 0x12 <__rc2>
    16b8: 8a           	txa
    16b9: 65 6e        	adc	$6e                     ; 0x6e <__rc31+0x3f>
    16bb: 85 13        	sta	$13                     ; 0x13 <__rc3>
    16bd: a9 30        	lda	#$30
    16bf: 92 12        	sta	($12)                   ; 0x12 <__rc2>
    16c1: 80 15        	bra	$16d8 <printf+0x9b4>
    16c3: a2 01        	ldx	#$1
    16c5: 86 3c        	stx	$3c                     ; 0x3c <__rc31+0xd>
    16c7: a2 30        	ldx	#$30
    16c9: 86 32        	stx	$32                     ; 0x32 <__putchar.s>
    16cb: a2 32        	ldx	#$32
    16cd: 86 12        	stx	$12                     ; 0x12 <__rc2>
    16cf: a2 00        	ldx	#$0
    16d1: 86 13        	stx	$13                     ; 0x13 <__rc3>
    16d3: 20 2c 09     	jsr	$92c <textPrint>
    16d6: a4 3c        	ldy	$3c                     ; 0x3c <__rc31+0xd>
    16d8: a6 69        	ldx	$69                     ; 0x69 <__rc31+0x3a>
    16da: a5 6a        	lda	$6a                     ; 0x6a <__rc31+0x3b>
    16dc: e8           	inx
    16dd: d0 01        	bne	$16e0 <printf+0x9bc>
    16df: 1a           	inc
    16e0: 86 15        	stx	$15                     ; 0x15 <__rc5>
    16e2: 86 69        	stx	$69                     ; 0x69 <__rc31+0x3a>
    16e4: 85 6a        	sta	$6a                     ; 0x6a <__rc31+0x3b>
    16e6: a6 3e        	ldx	$3e                     ; 0x3e <__rc31+0xf>
    16e8: 86 12        	stx	$12                     ; 0x12 <__rc2>
    16ea: a6 3f        	ldx	$3f                     ; 0x3f <__rc31+0x10>
    16ec: 86 13        	stx	$13                     ; 0x13 <__rc3>
    16ee: a2 ff        	ldx	#$ff
    16f0: c6 12        	dec	$12                     ; 0x12 <__rc2>
    16f2: e4 12        	cpx	$12                     ; 0x12 <__rc2>
    16f4: d0 02        	bne	$16f8 <printf+0x9d4>
    16f6: c6 13        	dec	$13                     ; 0x13 <__rc3>
    16f8: a6 12        	ldx	$12                     ; 0x12 <__rc2>
    16fa: 86 3e        	stx	$3e                     ; 0x3e <__rc31+0xf>
    16fc: a6 13        	ldx	$13                     ; 0x13 <__rc3>
    16fe: 86 3f        	stx	$3f                     ; 0x3f <__rc31+0x10>
    1700: d0 04        	bne	$1706 <printf+0x9e2>
    1702: a6 12        	ldx	$12                     ; 0x12 <__rc2>
    1704: f0 14        	beq	$171a <printf+0x9f6>
    1706: c5 68        	cmp	$68                     ; 0x68 <__rc31+0x39>
    1708: f0 03        	beq	$170d <printf+0x9e9>
    170a: 4c 92 16     	jmp	$1692 <printf+0x96e>
    170d: a6 67        	ldx	$67                     ; 0x67 <__rc31+0x38>
    170f: 86 12        	stx	$12                     ; 0x12 <__rc2>
    1711: a6 15        	ldx	$15                     ; 0x15 <__rc5>
    1713: e4 12        	cpx	$12                     ; 0x12 <__rc2>
    1715: b0 c1        	bcs	$16d8 <printf+0x9b4>
    1717: 4c 96 16     	jmp	$1696 <printf+0x972>
    171a: 64 3e        	stz	$3e                     ; 0x3e <__rc31+0xf>
    171c: 64 3f        	stz	$3f                     ; 0x3f <__rc31+0x10>
    171e: a6 35        	ldx	$35                     ; 0x35 <__rc31+0x6>
    1720: a9 00        	lda	#$0
    1722: c5 3b        	cmp	$3b                     ; 0x3b <__rc31+0xc>
    1724: d0 07        	bne	$172d <printf+0xa09>
    1726: e4 3a        	cpx	$3a                     ; 0x3a <__rc31+0xb>
    1728: 90 0a        	bcc	$1734 <printf+0xa10>
    172a: 4c c0 17     	jmp	$17c0 <printf+0xa9c>
    172d: c5 3b        	cmp	$3b                     ; 0x3b <__rc31+0xc>
    172f: 90 03        	bcc	$1734 <printf+0xa10>
    1731: 4c c0 17     	jmp	$17c0 <printf+0xa9c>
    1734: a6 69        	ldx	$69                     ; 0x69 <__rc31+0x3a>
    1736: 86 15        	stx	$15                     ; 0x15 <__rc5>
    1738: a5 6a        	lda	$6a                     ; 0x6a <__rc31+0x3b>
    173a: a2 ff        	ldx	#$ff
    173c: c6 3a        	dec	$3a                     ; 0x3a <__rc31+0xb>
    173e: e4 3a        	cpx	$3a                     ; 0x3a <__rc31+0xb>
    1740: d0 02        	bne	$1744 <printf+0xa20>
    1742: c6 3b        	dec	$3b                     ; 0x3b <__rc31+0xc>
    1744: c5 68        	cmp	$68                     ; 0x68 <__rc31+0x39>
    1746: d0 0c        	bne	$1754 <printf+0xa30>
    1748: a6 67        	ldx	$67                     ; 0x67 <__rc31+0x38>
    174a: 86 12        	stx	$12                     ; 0x12 <__rc2>
    174c: a6 15        	ldx	$15                     ; 0x15 <__rc5>
    174e: e4 12        	cpx	$12                     ; 0x12 <__rc2>
    1750: 90 06        	bcc	$1758 <printf+0xa34>
    1752: 80 46        	bra	$179a <printf+0xa76>
    1754: c5 68        	cmp	$68                     ; 0x68 <__rc31+0x39>
    1756: b0 42        	bcs	$179a <printf+0xa76>
    1758: a2 01        	ldx	#$1
    175a: 86 14        	stx	$14                     ; 0x14 <__rc4>
    175c: a6 74        	ldx	$74                     ; 0x74 <__rc31+0x45>
    175e: a0 00        	ldy	#$0
    1760: 84 12        	sty	$12                     ; 0x12 <__rc2>
    1762: a0 00        	ldy	#$0
    1764: 84 13        	sty	$13                     ; 0x13 <__rc3>
    1766: e4 13        	cpx	$13                     ; 0x13 <__rc3>
    1768: d0 1b        	bne	$1785 <printf+0xa61>
    176a: a6 73        	ldx	$73                     ; 0x73 <__rc31+0x44>
    176c: e4 12        	cpx	$12                     ; 0x12 <__rc2>
    176e: d0 15        	bne	$1785 <printf+0xa61>
    1770: a4 14        	ldy	$14                     ; 0x14 <__rc4>
    1772: 18           	clc
    1773: aa           	tax
    1774: a5 15        	lda	$15                     ; 0x15 <__rc5>
    1776: 65 6d        	adc	$6d                     ; 0x6d <__rc31+0x3e>
    1778: 85 12        	sta	$12                     ; 0x12 <__rc2>
    177a: 8a           	txa
    177b: 65 6e        	adc	$6e                     ; 0x6e <__rc31+0x3f>
    177d: 85 13        	sta	$13                     ; 0x13 <__rc3>
    177f: a9 30        	lda	#$30
    1781: 92 12        	sta	($12)                   ; 0x12 <__rc2>
    1783: 80 15        	bra	$179a <printf+0xa76>
    1785: a2 01        	ldx	#$1
    1787: 86 3c        	stx	$3c                     ; 0x3c <__rc31+0xd>
    1789: a2 30        	ldx	#$30
    178b: 86 32        	stx	$32                     ; 0x32 <__putchar.s>
    178d: a2 32        	ldx	#$32
    178f: 86 12        	stx	$12                     ; 0x12 <__rc2>
    1791: a2 00        	ldx	#$0
    1793: 86 13        	stx	$13                     ; 0x13 <__rc3>
    1795: 20 2c 09     	jsr	$92c <textPrint>
    1798: a4 3c        	ldy	$3c                     ; 0x3c <__rc31+0xd>
    179a: a6 69        	ldx	$69                     ; 0x69 <__rc31+0x3a>
    179c: a5 6a        	lda	$6a                     ; 0x6a <__rc31+0x3b>
    179e: e8           	inx
    179f: d0 01        	bne	$17a2 <printf+0xa7e>
    17a1: 1a           	inc
    17a2: 86 15        	stx	$15                     ; 0x15 <__rc5>
    17a4: 86 69        	stx	$69                     ; 0x69 <__rc31+0x3a>
    17a6: 85 6a        	sta	$6a                     ; 0x6a <__rc31+0x3b>
    17a8: a2 00        	ldx	#$0
    17aa: e4 3b        	cpx	$3b                     ; 0x3b <__rc31+0xc>
    17ac: d0 09        	bne	$17b7 <printf+0xa93>
    17ae: a6 35        	ldx	$35                     ; 0x35 <__rc31+0x6>
    17b0: e4 3a        	cpx	$3a                     ; 0x3a <__rc31+0xb>
    17b2: b0 0c        	bcs	$17c0 <printf+0xa9c>
    17b4: 4c 3a 17     	jmp	$173a <printf+0xa16>
    17b7: e4 3b        	cpx	$3b                     ; 0x3b <__rc31+0xc>
    17b9: a6 35        	ldx	$35                     ; 0x35 <__rc31+0x6>
    17bb: b0 03        	bcs	$17c0 <printf+0xa9c>
    17bd: 4c 3a 17     	jmp	$173a <printf+0xa16>
    17c0: a5 7b        	lda	$7b                     ; 0x7b <__rc31+0x4c>
    17c2: 85 34        	sta	$34                     ; 0x34 <__rc31+0x5>
    17c4: a5 7c        	lda	$7c                     ; 0x7c <__rc31+0x4d>
    17c6: 85 35        	sta	$35                     ; 0x35 <__rc31+0x6>
    17c8: 8a           	txa
    17c9: d0 03        	bne	$17ce <printf+0xaaa>
    17cb: 4c 11 19     	jmp	$1911 <printf+0xbed>
    17ce: ca           	dex
    17cf: d0 03        	bne	$17d4 <printf+0xab0>
    17d1: 4c 8a 18     	jmp	$188a <printf+0xb66>
    17d4: 86 3c        	stx	$3c                     ; 0x3c <__rc31+0xd>
    17d6: a6 7f        	ldx	$7f                     ; 0x7f <__rc31+0x50>
    17d8: 8a           	txa
    17d9: 18           	clc
    17da: 65 3c        	adc	$3c                     ; 0x3c <__rc31+0xd>
    17dc: 85 3a        	sta	$3a                     ; 0x3a <__rc31+0xb>
    17de: a5 80        	lda	$80                     ; 0x80 <__rc31+0x51>
    17e0: 69 00        	adc	#$0
    17e2: 85 3b        	sta	$3b                     ; 0x3b <__rc31+0xc>
    17e4: 4c 78 18     	jmp	$1878 <printf+0xb54>
    17e7: 85 13        	sta	$13                     ; 0x13 <__rc3>
    17e9: a9 80        	lda	#$80
    17eb: 25 65        	and	$65                     ; 0x65 <__rc31+0x36>
    17ed: f0 04        	beq	$17f3 <printf+0xacf>
    17ef: a2 61        	ldx	#$61
    17f1: 80 02        	bra	$17f5 <printf+0xad1>
    17f3: a2 41        	ldx	#$41
    17f5: 86 12        	stx	$12                     ; 0x12 <__rc2>
    17f7: a2 01        	ldx	#$1
    17f9: 86 14        	stx	$14                     ; 0x14 <__rc4>
    17fb: 18           	clc
    17fc: a5 13        	lda	$13                     ; 0x13 <__rc3>
    17fe: 65 12        	adc	$12                     ; 0x12 <__rc2>
    1800: 18           	clc
    1801: 69 f6        	adc	#$f6
    1803: a4 69        	ldy	$69                     ; 0x69 <__rc31+0x3a>
    1805: a6 6a        	ldx	$6a                     ; 0x6a <__rc31+0x3b>
    1807: e4 68        	cpx	$68                     ; 0x68 <__rc31+0x39>
    1809: d0 0c        	bne	$1817 <printf+0xaf3>
    180b: 86 16        	stx	$16                     ; 0x16 <__rc6>
    180d: a6 67        	ldx	$67                     ; 0x67 <__rc31+0x38>
    180f: 86 12        	stx	$12                     ; 0x12 <__rc2>
    1811: 84 15        	sty	$15                     ; 0x15 <__rc5>
    1813: c4 12        	cpy	$12                     ; 0x12 <__rc2>
    1815: 80 06        	bra	$181d <printf+0xaf9>
    1817: 84 15        	sty	$15                     ; 0x15 <__rc5>
    1819: 86 16        	stx	$16                     ; 0x16 <__rc6>
    181b: e4 68        	cpx	$68                     ; 0x68 <__rc31+0x39>
    181d: a4 14        	ldy	$14                     ; 0x14 <__rc4>
    181f: b0 41        	bcs	$1862 <printf+0xb3e>
    1821: 85 14        	sta	$14                     ; 0x14 <__rc4>
    1823: a9 01        	lda	#$1
    1825: a6 74        	ldx	$74                     ; 0x74 <__rc31+0x45>
    1827: a0 00        	ldy	#$0
    1829: 84 12        	sty	$12                     ; 0x12 <__rc2>
    182b: a0 00        	ldy	#$0
    182d: 84 13        	sty	$13                     ; 0x13 <__rc3>
    182f: e4 13        	cpx	$13                     ; 0x13 <__rc3>
    1831: d0 1a        	bne	$184d <printf+0xb29>
    1833: a6 73        	ldx	$73                     ; 0x73 <__rc31+0x44>
    1835: e4 12        	cpx	$12                     ; 0x12 <__rc2>
    1837: d0 14        	bne	$184d <printf+0xb29>
    1839: a8           	tay
    183a: 18           	clc
    183b: a5 15        	lda	$15                     ; 0x15 <__rc5>
    183d: 65 6d        	adc	$6d                     ; 0x6d <__rc31+0x3e>
    183f: 85 12        	sta	$12                     ; 0x12 <__rc2>
    1841: a5 16        	lda	$16                     ; 0x16 <__rc6>
    1843: 65 6e        	adc	$6e                     ; 0x6e <__rc31+0x3f>
    1845: 85 13        	sta	$13                     ; 0x13 <__rc3>
    1847: a5 14        	lda	$14                     ; 0x14 <__rc4>
    1849: 92 12        	sta	($12)                   ; 0x12 <__rc2>
    184b: 80 15        	bra	$1862 <printf+0xb3e>
    184d: a2 01        	ldx	#$1
    184f: 86 3d        	stx	$3d                     ; 0x3d <__rc31+0xe>
    1851: a6 14        	ldx	$14                     ; 0x14 <__rc4>
    1853: 86 32        	stx	$32                     ; 0x32 <__putchar.s>
    1855: a2 32        	ldx	#$32
    1857: 86 12        	stx	$12                     ; 0x12 <__rc2>
    1859: a2 00        	ldx	#$0
    185b: 86 13        	stx	$13                     ; 0x13 <__rc3>
    185d: 20 2c 09     	jsr	$92c <textPrint>
    1860: a4 3d        	ldy	$3d                     ; 0x3d <__rc31+0xe>
    1862: e6 69        	inc	$69                     ; 0x69 <__rc31+0x3a>
    1864: d0 02        	bne	$1868 <printf+0xb44>
    1866: e6 6a        	inc	$6a                     ; 0x6a <__rc31+0x3b>
    1868: c6 3c        	dec	$3c                     ; 0x3c <__rc31+0xd>
    186a: a2 ff        	ldx	#$ff
    186c: c6 3a        	dec	$3a                     ; 0x3a <__rc31+0xb>
    186e: e4 3a        	cpx	$3a                     ; 0x3a <__rc31+0xb>
    1870: d0 02        	bne	$1874 <printf+0xb50>
    1872: c6 3b        	dec	$3b                     ; 0x3b <__rc31+0xc>
    1874: a5 3c        	lda	$3c                     ; 0x3c <__rc31+0xd>
    1876: f0 12        	beq	$188a <printf+0xb66>
    1878: b2 3a        	lda	($3a)                   ; 0x3a <__rc31+0xb>
    187a: c9 0a        	cmp	#$a
    187c: 90 03        	bcc	$1881 <printf+0xb5d>
    187e: 4c e7 17     	jmp	$17e7 <printf+0xac3>
    1881: a2 01        	ldx	#$1
    1883: 86 14        	stx	$14                     ; 0x14 <__rc4>
    1885: 09 30        	ora	#$30
    1887: 4c 03 18     	jmp	$1803 <printf+0xadf>
    188a: a5 42        	lda	$42                     ; 0x42 <__rc31+0x13>
    188c: c9 0a        	cmp	#$a
    188e: b0 04        	bcs	$1894 <printf+0xb70>
    1890: 09 30        	ora	#$30
    1892: 80 18        	bra	$18ac <printf+0xb88>
    1894: 85 13        	sta	$13                     ; 0x13 <__rc3>
    1896: a9 80        	lda	#$80
    1898: 25 65        	and	$65                     ; 0x65 <__rc31+0x36>
    189a: f0 04        	beq	$18a0 <printf+0xb7c>
    189c: a2 61        	ldx	#$61
    189e: 80 02        	bra	$18a2 <printf+0xb7e>
    18a0: a2 41        	ldx	#$41
    18a2: 86 12        	stx	$12                     ; 0x12 <__rc2>
    18a4: 18           	clc
    18a5: a5 13        	lda	$13                     ; 0x13 <__rc3>
    18a7: 65 12        	adc	$12                     ; 0x12 <__rc2>
    18a9: 18           	clc
    18aa: 69 f6        	adc	#$f6
    18ac: a6 69        	ldx	$69                     ; 0x69 <__rc31+0x3a>
    18ae: 86 15        	stx	$15                     ; 0x15 <__rc5>
    18b0: a6 6a        	ldx	$6a                     ; 0x6a <__rc31+0x3b>
    18b2: e4 68        	cpx	$68                     ; 0x68 <__rc31+0x39>
    18b4: d0 0e        	bne	$18c4 <printf+0xba0>
    18b6: 86 16        	stx	$16                     ; 0x16 <__rc6>
    18b8: a6 67        	ldx	$67                     ; 0x67 <__rc31+0x38>
    18ba: 86 12        	stx	$12                     ; 0x12 <__rc2>
    18bc: a6 15        	ldx	$15                     ; 0x15 <__rc5>
    18be: e4 12        	cpx	$12                     ; 0x12 <__rc2>
    18c0: 90 08        	bcc	$18ca <printf+0xba6>
    18c2: 80 47        	bra	$190b <printf+0xbe7>
    18c4: 86 16        	stx	$16                     ; 0x16 <__rc6>
    18c6: e4 68        	cpx	$68                     ; 0x68 <__rc31+0x39>
    18c8: b0 41        	bcs	$190b <printf+0xbe7>
    18ca: 85 14        	sta	$14                     ; 0x14 <__rc4>
    18cc: a9 01        	lda	#$1
    18ce: a6 74        	ldx	$74                     ; 0x74 <__rc31+0x45>
    18d0: a0 00        	ldy	#$0
    18d2: 84 12        	sty	$12                     ; 0x12 <__rc2>
    18d4: a0 00        	ldy	#$0
    18d6: 84 13        	sty	$13                     ; 0x13 <__rc3>
    18d8: e4 13        	cpx	$13                     ; 0x13 <__rc3>
    18da: d0 1a        	bne	$18f6 <printf+0xbd2>
    18dc: a6 73        	ldx	$73                     ; 0x73 <__rc31+0x44>
    18de: e4 12        	cpx	$12                     ; 0x12 <__rc2>
    18e0: d0 14        	bne	$18f6 <printf+0xbd2>
    18e2: a8           	tay
    18e3: 18           	clc
    18e4: a5 15        	lda	$15                     ; 0x15 <__rc5>
    18e6: 65 6d        	adc	$6d                     ; 0x6d <__rc31+0x3e>
    18e8: 85 12        	sta	$12                     ; 0x12 <__rc2>
    18ea: a5 16        	lda	$16                     ; 0x16 <__rc6>
    18ec: 65 6e        	adc	$6e                     ; 0x6e <__rc31+0x3f>
    18ee: 85 13        	sta	$13                     ; 0x13 <__rc3>
    18f0: a5 14        	lda	$14                     ; 0x14 <__rc4>
    18f2: 92 12        	sta	($12)                   ; 0x12 <__rc2>
    18f4: 80 15        	bra	$190b <printf+0xbe7>
    18f6: a2 01        	ldx	#$1
    18f8: 86 3a        	stx	$3a                     ; 0x3a <__rc31+0xb>
    18fa: a6 14        	ldx	$14                     ; 0x14 <__rc4>
    18fc: 86 32        	stx	$32                     ; 0x32 <__putchar.s>
    18fe: a2 32        	ldx	#$32
    1900: 86 12        	stx	$12                     ; 0x12 <__rc2>
    1902: a2 00        	ldx	#$0
    1904: 86 13        	stx	$13                     ; 0x13 <__rc3>
    1906: 20 2c 09     	jsr	$92c <textPrint>
    1909: a4 3a        	ldy	$3a                     ; 0x3a <__rc31+0xb>
    190b: e6 69        	inc	$69                     ; 0x69 <__rc31+0x3a>
    190d: d0 02        	bne	$1911 <printf+0xbed>
    190f: e6 6a        	inc	$6a                     ; 0x6a <__rc31+0x3b>
    1911: a5 65        	lda	$65                     ; 0x65 <__rc31+0x36>
    1913: 29 01        	and	#$1
    1915: d0 27        	bne	$193e <printf+0xc1a>
    1917: a6 69        	ldx	$69                     ; 0x69 <__rc31+0x3a>
    1919: 86 15        	stx	$15                     ; 0x15 <__rc5>
    191b: a5 6a        	lda	$6a                     ; 0x6a <__rc31+0x3b>
    191d: a6 67        	ldx	$67                     ; 0x67 <__rc31+0x38>
    191f: 86 14        	stx	$14                     ; 0x14 <__rc4>
    1921: a6 68        	ldx	$68                     ; 0x68 <__rc31+0x39>
    1923: 86 12        	stx	$12                     ; 0x12 <__rc2>
    1925: 86 13        	stx	$13                     ; 0x13 <__rc3>
    1927: c5 12        	cmp	$12                     ; 0x12 <__rc2>
    1929: f0 03        	beq	$192e <printf+0xc0a>
    192b: 4c e7 19     	jmp	$19e7 <printf+0xcc3>
    192e: a5 14        	lda	$14                     ; 0x14 <__rc4>
    1930: 85 12        	sta	$12                     ; 0x12 <__rc2>
    1932: a6 15        	ldx	$15                     ; 0x15 <__rc5>
    1934: e4 12        	cpx	$12                     ; 0x12 <__rc2>
    1936: 90 03        	bcc	$193b <printf+0xc17>
    1938: 4c ef 19     	jmp	$19ef <printf+0xccb>
    193b: 4c 0f 1a     	jmp	$1a0f <printf+0xceb>
    193e: a6 69        	ldx	$69                     ; 0x69 <__rc31+0x3a>
    1940: 86 15        	stx	$15                     ; 0x15 <__rc5>
    1942: a5 6a        	lda	$6a                     ; 0x6a <__rc31+0x3b>
    1944: a6 3e        	ldx	$3e                     ; 0x3e <__rc31+0xf>
    1946: 5a           	phy
    1947: a4 3f        	ldy	$3f                     ; 0x3f <__rc31+0x10>
    1949: 84 12        	sty	$12                     ; 0x12 <__rc2>
    194b: 7a           	ply
    194c: e6 12        	inc	$12                     ; 0x12 <__rc2>
    194e: c6 12        	dec	$12                     ; 0x12 <__rc2>
    1950: f0 03        	beq	$1955 <printf+0xc31>
    1952: 4c d3 19     	jmp	$19d3 <printf+0xcaf>
    1955: e0 00        	cpx	#$0
    1957: f0 c4        	beq	$191d <printf+0xbf9>
    1959: 4c d3 19     	jmp	$19d3 <printf+0xcaf>
    195c: c5 68        	cmp	$68                     ; 0x68 <__rc31+0x39>
    195e: b0 42        	bcs	$19a2 <printf+0xc7e>
    1960: a2 01        	ldx	#$1
    1962: 86 14        	stx	$14                     ; 0x14 <__rc4>
    1964: a6 74        	ldx	$74                     ; 0x74 <__rc31+0x45>
    1966: a0 00        	ldy	#$0
    1968: 84 12        	sty	$12                     ; 0x12 <__rc2>
    196a: a0 00        	ldy	#$0
    196c: 84 13        	sty	$13                     ; 0x13 <__rc3>
    196e: e4 13        	cpx	$13                     ; 0x13 <__rc3>
    1970: d0 1b        	bne	$198d <printf+0xc69>
    1972: a6 73        	ldx	$73                     ; 0x73 <__rc31+0x44>
    1974: e4 12        	cpx	$12                     ; 0x12 <__rc2>
    1976: d0 15        	bne	$198d <printf+0xc69>
    1978: a4 14        	ldy	$14                     ; 0x14 <__rc4>
    197a: 18           	clc
    197b: aa           	tax
    197c: a5 15        	lda	$15                     ; 0x15 <__rc5>
    197e: 65 6d        	adc	$6d                     ; 0x6d <__rc31+0x3e>
    1980: 85 12        	sta	$12                     ; 0x12 <__rc2>
    1982: 8a           	txa
    1983: 65 6e        	adc	$6e                     ; 0x6e <__rc31+0x3f>
    1985: 85 13        	sta	$13                     ; 0x13 <__rc3>
    1987: a9 20        	lda	#$20
    1989: 92 12        	sta	($12)                   ; 0x12 <__rc2>
    198b: 80 15        	bra	$19a2 <printf+0xc7e>
    198d: a2 01        	ldx	#$1
    198f: 86 3a        	stx	$3a                     ; 0x3a <__rc31+0xb>
    1991: a2 20        	ldx	#$20
    1993: 86 32        	stx	$32                     ; 0x32 <__putchar.s>
    1995: a2 32        	ldx	#$32
    1997: 86 12        	stx	$12                     ; 0x12 <__rc2>
    1999: a2 00        	ldx	#$0
    199b: 86 13        	stx	$13                     ; 0x13 <__rc3>
    199d: 20 2c 09     	jsr	$92c <textPrint>
    19a0: a4 3a        	ldy	$3a                     ; 0x3a <__rc31+0xb>
    19a2: a6 69        	ldx	$69                     ; 0x69 <__rc31+0x3a>
    19a4: a5 6a        	lda	$6a                     ; 0x6a <__rc31+0x3b>
    19a6: e8           	inx
    19a7: d0 01        	bne	$19aa <printf+0xc86>
    19a9: 1a           	inc
    19aa: 86 15        	stx	$15                     ; 0x15 <__rc5>
    19ac: 86 69        	stx	$69                     ; 0x69 <__rc31+0x3a>
    19ae: 85 6a        	sta	$6a                     ; 0x6a <__rc31+0x3b>
    19b0: a6 3e        	ldx	$3e                     ; 0x3e <__rc31+0xf>
    19b2: 86 12        	stx	$12                     ; 0x12 <__rc2>
    19b4: a6 3f        	ldx	$3f                     ; 0x3f <__rc31+0x10>
    19b6: 86 13        	stx	$13                     ; 0x13 <__rc3>
    19b8: a2 ff        	ldx	#$ff
    19ba: c6 12        	dec	$12                     ; 0x12 <__rc2>
    19bc: e4 12        	cpx	$12                     ; 0x12 <__rc2>
    19be: d0 02        	bne	$19c2 <printf+0xc9e>
    19c0: c6 13        	dec	$13                     ; 0x13 <__rc3>
    19c2: a6 12        	ldx	$12                     ; 0x12 <__rc2>
    19c4: 86 3e        	stx	$3e                     ; 0x3e <__rc31+0xf>
    19c6: a6 13        	ldx	$13                     ; 0x13 <__rc3>
    19c8: 86 3f        	stx	$3f                     ; 0x3f <__rc31+0x10>
    19ca: d0 07        	bne	$19d3 <printf+0xcaf>
    19cc: a6 12        	ldx	$12                     ; 0x12 <__rc2>
    19ce: d0 03        	bne	$19d3 <printf+0xcaf>
    19d0: 4c 1d 19     	jmp	$191d <printf+0xbf9>
    19d3: c5 68        	cmp	$68                     ; 0x68 <__rc31+0x39>
    19d5: f0 03        	beq	$19da <printf+0xcb6>
    19d7: 4c 5c 19     	jmp	$195c <printf+0xc38>
    19da: a6 67        	ldx	$67                     ; 0x67 <__rc31+0x38>
    19dc: 86 12        	stx	$12                     ; 0x12 <__rc2>
    19de: a6 15        	ldx	$15                     ; 0x15 <__rc5>
    19e0: e4 12        	cpx	$12                     ; 0x12 <__rc2>
    19e2: b0 be        	bcs	$19a2 <printf+0xc7e>
    19e4: 4c 60 19     	jmp	$1960 <printf+0xc3c>
    19e7: 86 12        	stx	$12                     ; 0x12 <__rc2>
    19e9: c5 12        	cmp	$12                     ; 0x12 <__rc2>
    19eb: a5 14        	lda	$14                     ; 0x14 <__rc4>
    19ed: 90 20        	bcc	$1a0f <printf+0xceb>
    19ef: a6 13        	ldx	$13                     ; 0x13 <__rc3>
    19f1: d0 03        	bne	$19f6 <printf+0xcd2>
    19f3: aa           	tax
    19f4: f0 19        	beq	$1a0f <printf+0xceb>
    19f6: 18           	clc
    19f7: 65 6d        	adc	$6d                     ; 0x6d <__rc31+0x3e>
    19f9: 85 12        	sta	$12                     ; 0x12 <__rc2>
    19fb: a5 13        	lda	$13                     ; 0x13 <__rc3>
    19fd: 65 6e        	adc	$6e                     ; 0x6e <__rc31+0x3f>
    19ff: 85 13        	sta	$13                     ; 0x13 <__rc3>
    1a01: a2 ff        	ldx	#$ff
    1a03: c6 12        	dec	$12                     ; 0x12 <__rc2>
    1a05: e4 12        	cpx	$12                     ; 0x12 <__rc2>
    1a07: d0 02        	bne	$1a0b <printf+0xce7>
    1a09: c6 13        	dec	$13                     ; 0x13 <__rc3>
    1a0b: a9 00        	lda	#$0
    1a0d: 92 12        	sta	($12)                   ; 0x12 <__rc2>
    1a0f: e6 38        	inc	$38                     ; 0x38 <__rc31+0x9>
    1a11: d0 02        	bne	$1a15 <printf+0xcf1>
    1a13: e6 39        	inc	$39                     ; 0x39 <__rc31+0xa>
    1a15: a6 39        	ldx	$39                     ; 0x39 <__rc31+0xa>
    1a17: e4 35        	cpx	$35                     ; 0x35 <__rc31+0x6>
    1a19: f0 03        	beq	$1a1e <printf+0xcfa>
    1a1b: 4c 89 0d     	jmp	$d89 <printf+0x65>
    1a1e: a6 38        	ldx	$38                     ; 0x38 <__rc31+0x9>
    1a20: e4 34        	cpx	$34                     ; 0x34 <__rc31+0x5>
    1a22: f0 03        	beq	$1a27 <printf+0xd03>
    1a24: 4c 89 0d     	jmp	$d89 <printf+0x65>
    1a27: b2 34        	lda	($34)                   ; 0x34 <__rc31+0x5>
    1a29: 4c 9d 0d     	jmp	$d9d <printf+0x79>
    1a2c: e4 3b        	cpx	$3b                     ; 0x3b <__rc31+0xc>
    1a2e: a6 36        	ldx	$36                     ; 0x36 <__rc31+0x7>
    1a30: b0 03        	bcs	$1a35 <printf+0xd11>
    1a32: 4c 49 14     	jmp	$1449 <printf+0x725>
    1a35: a5 35        	lda	$35                     ; 0x35 <__rc31+0x6>
    1a37: 85 3a        	sta	$3a                     ; 0x3a <__rc31+0xb>
    1a39: 64 3b        	stz	$3b                     ; 0x3b <__rc31+0xc>
    1a3b: e6 3a        	inc	$3a                     ; 0x3a <__rc31+0xb>
    1a3d: f0 03        	beq	$1a42 <printf+0xd1e>
    1a3f: 4c 49 14     	jmp	$1449 <printf+0x725>
    1a42: e6 3b        	inc	$3b                     ; 0x3b <__rc31+0xc>
    1a44: 4c 49 14     	jmp	$1449 <printf+0x725>
    1a47: a2 58        	ldx	#$58
    1a49: 86 79        	stx	$79                     ; 0x79 <__rc31+0x4a>
    1a4b: a2 01        	ldx	#$1
    1a4d: 86 37        	stx	$37                     ; 0x37 <__rc31+0x8>
    1a4f: a2 30        	ldx	#$30
    1a51: 86 34        	stx	$34                     ; 0x34 <__rc31+0x5>
    1a53: a9 02        	lda	#$2
    1a55: a2 00        	ldx	#$0
    1a57: 86 3d        	stx	$3d                     ; 0x3d <__rc31+0xe>
    1a59: 4c 7c 14     	jmp	$147c <printf+0x758>
    1a5c: 64 3e        	stz	$3e                     ; 0x3e <__rc31+0xf>
    1a5e: 64 3f        	stz	$3f                     ; 0x3f <__rc31+0x10>
    1a60: 4c 20 17     	jmp	$1720 <printf+0x9fc>
    1a63: 60           	rts

00001a64 <memcpy>:
    1a64: a8           	tay
    1a65: 8a           	txa
    1a66: d0 03        	bne	$1a6b <memcpy+0x7>
    1a68: 98           	tya
    1a69: f0 24        	beq	$1a8f <memcpy+0x2b>
    1a6b: a5 12        	lda	$12                     ; 0x12 <__rc2>
    1a6d: 85 16        	sta	$16                     ; 0x16 <__rc6>
    1a6f: a5 13        	lda	$13                     ; 0x13 <__rc3>
    1a71: 85 17        	sta	$17                     ; 0x17 <__rc7>
    1a73: b2 14        	lda	($14)                   ; 0x14 <__rc4>
    1a75: 92 16        	sta	($16)                   ; 0x16 <__rc6>
    1a77: e6 16        	inc	$16                     ; 0x16 <__rc6>
    1a79: d0 02        	bne	$1a7d <memcpy+0x19>
    1a7b: e6 17        	inc	$17                     ; 0x17 <__rc7>
    1a7d: e6 14        	inc	$14                     ; 0x14 <__rc4>
    1a7f: d0 02        	bne	$1a83 <memcpy+0x1f>
    1a81: e6 15        	inc	$15                     ; 0x15 <__rc5>
    1a83: 88           	dey
    1a84: c0 ff        	cpy	#$ff
    1a86: d0 01        	bne	$1a89 <memcpy+0x25>
    1a88: ca           	dex
    1a89: 8a           	txa
    1a8a: d0 e7        	bne	$1a73 <memcpy+0xf>
    1a8c: 98           	tya
    1a8d: d0 e4        	bne	$1a73 <memcpy+0xf>
    1a8f: 60           	rts

00001a90 <__memset>:
    1a90: a4 14        	ldy	$14                     ; 0x14 <__rc4>
    1a92: d0 04        	bne	$1a98 <__memset+0x8>
    1a94: e0 00        	cpx	#$0
    1a96: f0 17        	beq	$1aaf <__memset+0x1f>
    1a98: 92 12        	sta	($12)                   ; 0x12 <__rc2>
    1a9a: e6 12        	inc	$12                     ; 0x12 <__rc2>
    1a9c: d0 02        	bne	$1aa0 <__memset+0x10>
    1a9e: e6 13        	inc	$13                     ; 0x13 <__rc3>
    1aa0: ca           	dex
    1aa1: e0 ff        	cpx	#$ff
    1aa3: d0 02        	bne	$1aa7 <__memset+0x17>
    1aa5: c6 14        	dec	$14                     ; 0x14 <__rc4>
    1aa7: a4 14        	ldy	$14                     ; 0x14 <__rc4>
    1aa9: d0 ed        	bne	$1a98 <__memset+0x8>
    1aab: e0 00        	cpx	#$0
    1aad: d0 e9        	bne	$1a98 <__memset+0x8>
    1aaf: 60           	rts
